ARM GAS  /tmp/cccKph2J.s 			page 1


   1              		.syntax unified
   2              		.cpu cortex-m4
   3              		.fpu softvfp
   4              		.eabi_attribute 20, 1
   5              		.eabi_attribute 21, 1
   6              		.eabi_attribute 23, 3
   7              		.eabi_attribute 24, 1
   8              		.eabi_attribute 25, 1
   9              		.eabi_attribute 26, 1
  10              		.eabi_attribute 30, 6
  11              		.eabi_attribute 34, 1
  12              		.eabi_attribute 18, 4
  13              		.thumb
  14              		.file	"chcore_v7m.c"
  15              		.text
  16              	.Ltext0:
  17              		.section	.gnu.lto_.inline.d7379e6b2dc80ca4,"",%progbits
  18 0000 789C6362 		.ascii	"x\234cb`b\300\006z\2414\033\003\003\0133\003\003\023"
  18      6062C006 
  18      7AA1341B 
  18      03030B33 
  18      030313
  19 0013 CB073D06 		.ascii	"\313\007=\006\026\210ZF\014\021&\006\026\036 \311\264"
  19      16885A46 
  19      0C112606 
  19      161E20C9 
  19      B4
  20 0024 401EAE86 		.ascii	"@\036\256\206\013H0c\027fa\340\024\004\012\363l\310"
  20      0B483063 
  20      176661E0 
  20      14040AF3 
  20      6CC8
  21 0036 45116665 		.ascii	"E\021fe\020\325\007\012\3135\374bD\021g\342\206\261"
  21      10D5070A 
  21      CB35FC62 
  21      441167E2 
  21      86B1
  22 0048 18008EE0 		.ascii	"\030\000\216\340\010/"
  22      082F
  23              		.text
  24              		.section	.gnu.lto_port_lock.d7379e6b2dc80ca4,"",%progbits
  25 0000 789C6362 		.ascii	"x\234cb`b@\007\"@,\310\310\300P\007\342030\002U021\002"
  25      60624007 
  25      22402CC8 
  25      C8C05007 
  25      E2303330 
  26 001a 05181819 		.ascii	"\005\030\030\031\352\231\030\353#AL\006F%\206\205\015"
  26      EA9918EB 
  26      23414C06 
  26      46258685 
  26      0D
  27 002b 0D931EB4 		.ascii	"\015\223\036\264>{\3144\263\341@\313\202\206?\377\377"
  27      3E7BCC34 
  27      B3E140CB 
  27      82863FFF 
  27      FF
  28 003c 33326632 		.ascii	"32f2\002M\324cdHfd\210\000r\030\025\300\024\023\013"
ARM GAS  /tmp/cccKph2J.s 			page 2


  28      024DD463 
  28      64486664 
  28      88007218 
  28      15C01413 
  29 0051 AA15EB99 		.ascii	"\252\025\353\231\016<\370\377\377D\347\363\275@\223"
  29      0E3CF8FF 
  29      FF44E7F3 
  29      BD4093
  30 0060 19121917 		.ascii	"\031\022\031\027\002M\003\002V\206\226\206\206\011\012"
  30      024D0302 
  30      56869686 
  30      86090A
  31 006f 0C20DD40 		.ascii	"\014 \335@\020\002&CA\016`>\313\320\264\003H\24732\202"
  31      10022643 
  31      410E603E 
  31      CBD0B403 
  31      48A73332 
  32 0084 CC6300AA 		.ascii	"\314c\000\252a8\307\320\364\361\315\214\307\022p]`F"
  32      6138C7D0 
  32      F4F1CD8C 
  32      C712705D 
  32      6046
  33 0096 C381EE2B 		.ascii	"\303\201\356+\355\2540#\023\031\0273\262\002\215\203"
  33      EDAC3023 
  33      13191733 
  33      B2028D83 
  34 00a6 38190893 		.ascii	"8\031\010\223\231A>f\206x[\216\241dn\303\014\207LFf"
  34      99413E66 
  34      86785B8E 
  34      A1646EC3 
  34      0C874C46 
  35 00bb 102F1DAC 		.ascii	"\020/\035\254\012.U\016\221\202\272\374\"C\343\203\235"
  35      0A2E550E 
  35      9182BAFC 
  35      2243E383 
  35      9D
  36 00cc FA10E360 		.ascii	"\372\020\343` \004\244\001\244Z[OO\3379#3)\323?X?\277"
  36      2004A401 
  36      A45A5B4F 
  36      4FDF3923 
  36      3329D33F 
  37 00e3 58BFA844 		.ascii	"X\277\250D\277 \277\250\244X\3371\310\327\331\267B?"
  37      BF20BFA8 
  37      A458DF31 
  37      C8D7D9B7 
  37      423F
  38 00f5 392339BF 		.ascii	"9#9\277(5\276\314<W/\203\201\265,1\2474U\017UGjE\211"
  38      2835BECC 
  38      3C572F83 
  38      81B52C31 
  38      A734550F 
  39 010e BEB36FB0 		.ascii	"\276\263o\260g\260~f^rNiJ\252>XGr\256[i^2P\223\200o"
  39      67B07E66 
  39      5E724E69 
  39      4AAA3E58 
  39      4772AE5B 
  40 0129 70904252 		.ascii	"p\220BRbqjAQ\246\216\202\252\001\003S\021\003{njn~Q"
ARM GAS  /tmp/cccKph2J.s 			page 3


  40      62716A41 
  40      51A68E82 
  40      AA010353 
  40      11037B6E 
  41 0141 2503005A 		.ascii	"%\003\000Z\240au"
  41      A06175
  42              		.text
  43              		.section	.gnu.lto_port_unlock.d7379e6b2dc80ca4,"",%progbits
  44 0000 789C6362 		.ascii	"x\234cb`b@\007\"@,\310\310\300P\007\342030\002U021\002"
  44      60624007 
  44      22402CC8 
  44      C8C05007 
  44      E2303330 
  45 001a 05181819 		.ascii	"\005\030\030\031\352\231\030\353#AL\006F%\206\205\015"
  45      EA9918EB 
  45      23414C06 
  45      46258685 
  45      0D
  46 002b 0D931EB4 		.ascii	"\015\223\036\264~z\3144\263\341@\313\202\206?\377\377"
  46      7E7ACC34 
  46      B3E140CB 
  46      82863FFF 
  46      FF
  47 003c 33326632 		.ascii	"32f2\002M\324cdHfd\210\000r\030\025\300\024\023\013"
  47      024DD463 
  47      64486664 
  47      88007218 
  47      15C01413 
  48 0051 AA15EB99 		.ascii	"\252\025\353\231\016<\370\377\377E\347\376}@\223\031"
  48      0E3CF8FF 
  48      FF45E7FE 
  48      7D409319 
  49 0061 12191702 		.ascii	"\022\031\027\002M\003\002V\206\226\206\206\011\012\014"
  49      4D030256 
  49      86968686 
  49      090A0C
  50 0070 20DD4010 		.ascii	" \335@\020\002&CA\016`>\313\320\264\003H\24732\202\314"
  50      02264341 
  50      0E603ECB 
  50      D0B40348 
  50      A7333282 
  51 0085 031B728E 		.ascii	"\003\033r\216\241\351\343\233\031\217%\340\272\300\214"
  51      A1E9E39B 
  51      198F25E0 
  51      BAC08C
  52 0094 8603A79F 		.ascii	"\206\003\247\237\266\263\302\214Ld\\\314\310\0124\016"
  52      B6B3C28C 
  52      4C645CCC 
  52      C80A340E 
  53 00a4 E264204C 		.ascii	"\342d Lf\006\371\230\031\342m9\206\222\271\0153\034"
  53      6606F998 
  53      19E26D39 
  53      8692B90D 
  53      331C
  54 00b6 32199941 		.ascii	"2\031\231A\274t\260*\270T9D\012\352\362\213\014\215"
  54      BC74B02A 
  54      B8543944 
ARM GAS  /tmp/cccKph2J.s 			page 4


  54      0AEAF28B 
  54      0C8D
  55 00c8 0FCEEB43 		.ascii	"\017\316\353C\214\203\201\020\220\006\220jm==}\347\214"
  55      8C838110 
  55      9006906A 
  55      6D3D3D7D 
  55      E78C
  56 00da CCA44CFF 		.ascii	"\314\244L\377`\375\374b\375\242\022\375\202\374\242"
  56      60FDFC62 
  56      FDA212FD 
  56      82FCA2
  57 00e9 92627DC7 		.ascii	"\222b}\307 _g\337\012\375\344\214\344\374\242\324\370"
  57      205F67DF 
  57      0AFDE48C 
  57      E4FCA2D4 
  57      F8
  58 00fa 32F35CBD 		.ascii	"2\363\\\275\014\006\326\262\304\234\322T=T\035\251\025"
  58      0C06D6B2 
  58      C49CD254 
  58      3D541DA9 
  58      15
  59 010b 25FACEBE 		.ascii	"%\372\316\276\301\236\301\372\231y\3119\245)\251\372"
  59      C19EC1FA 
  59      9979C939 
  59      A529A9FA 
  60 011b 601DC9B9 		.ascii	"`\035\311\271n\245y\311@M\002\276\301A\012I\211\305"
  60      6EA579C9 
  60      404D02BE 
  60      C1410A49 
  60      89C5
  61 012d A9054599 		.ascii	"\251\005E\231:\012\252\006\014LE\014\354\271\251\271"
  61      3A0AAA06 
  61      0C4C450C 
  61      ECB9A9B9 
  62 013d F945950C 		.ascii	"\371E\225\014\000\233\025a\301"
  62      009B1561 
  62      C1
  63              		.text
  64              		.section	.gnu.lto_port_lock_from_isr.d7379e6b2dc80ca4,"",%progbits
  65 0000 789C6362 		.ascii	"x\234cb`b@\007\"@\\\006\304\272 \0163\003#P\005#\023"
  65      60624007 
  65      22405C06 
  65      C4BA200E 
  65      33032350 
  66 0017 232390C3 		.ascii	"##\220\303\310P\317\304X\037\311\010V\266\236\351\300"
  66      C850CFC4 
  66      581FC908 
  66      56B69EE9 
  66      C0
  67 0028 83FFFFD7 		.ascii	"\203\377\377\327\355\273\277n\015\343?&\220\030+CKC"
  67      EDBBBF6E 
  67      0DE33F26 
  67      90182B43 
  67      4B43
  68 003a C3040506 		.ascii	"\303\004\005\006\206d\260\212\0200\031\012\322\317|"
  68      8664B08A 
  68      1030190A 
ARM GAS  /tmp/cccKph2J.s 			page 5


  68      D2CF7C
  69 0049 9EA1F9C1 		.ascii	"\236\241\371\301\313~\366D\306\205\214\254@\301j\206"
  69      CB7EF644 
  69      C6858CAC 
  69      40C16A86 
  70 0059 5F0D1D0D 		.ascii	"_\015\035\015\002\231\214@\245\020\3232A\364E\206\306"
  70      02998C40 
  70      A510D332 
  70      41F44586 
  70      C6
  71 006a 07AFF461 		.ascii	"\007\257\364a\212  \004$\001r\244\266\236\236\276sF"
  71      8A202004 
  71      240172A4 
  71      B69E9EBE 
  71      7346
  72 007c 6652A67F 		.ascii	"fR\246\177\260~~\261~Q\211~A~QI\261\276c\220\257\263"
  72      B07E7EB1 
  72      7E51897E 
  72      417E5149 
  72      B1BE6390 
  73 0092 6F857E72 		.ascii	"o\205~rFr~Qj|\231y\256^\006\003\000`@*\240"
  73      46727E51 
  73      6A7C9979 
  73      AE5E0603 
  73      0060402A 
  74              		.text
  75              		.section	.gnu.lto_port_unlock_from_isr.d7379e6b2dc80ca4,"",%progbits
  76 0000 789C6362 		.ascii	"x\234cb`b@\007\"@\\\006\304\272 \0163\003#P\005#\023"
  76      60624007 
  76      22405C06 
  76      C4BA200E 
  76      33032350 
  77 0017 232390C3 		.ascii	"##\220\303\310P\317\304X\037\311\010V\266\236\351\300"
  77      C850CFC4 
  77      581FC908 
  77      56B69EE9 
  77      C0
  78 0028 83FFFFD7 		.ascii	"\203\377\377\327}\271\277\376\016\343\177&\220\030+"
  78      7DB9BFFE 
  78      0EE37F26 
  78      90182B
  79 0037 434B43C3 		.ascii	"CKC\303\004\005\006\206d\260\212\0200\031\012\322\317"
  79      04050686 
  79      64B08A10 
  79      30190AD2 
  79      CF
  80 0048 7C9EA1F9 		.ascii	"|\236\241\371\301\237\363\354\211\214\013\031Y\201\202"
  80      C19FF3EC 
  80      898C0B19 
  80      598182
  81 0057 D50CBF1A 		.ascii	"\325\014\277\032:\032\0042\031\201J!\246e\202\350\213"
  81      3A1A0432 
  81      19814A21 
  81      A66582E8 
  81      8B
  82 0068 0C8D0FFE 		.ascii	"\014\215\017\376\352\303\024A@\010H\002\344Hm==}\347"
  82      EAC31441 
ARM GAS  /tmp/cccKph2J.s 			page 6


  82      40084802 
  82      E4486D3D 
  82      3D7DE7
  83 007b 8CCCA44C 		.ascii	"\214\314\244L\377`\375\374b\375\242\022\375\202\374"
  83      FF60FDFC 
  83      62FDA212 
  83      FD82FC
  84 008a A292627D 		.ascii	"\242\222b}\307 _g\337\012\375\344\214\344\374\242\324"
  84      C7205F67 
  84      DF0AFDE4 
  84      8CE4FCA2 
  84      D4
  85 009b F832F35C 		.ascii	"\3702\363\\\275\014\006\000\303\301+n"
  85      BD0C0600 
  85      C3C12B6E 
  86              		.text
  87              		.section	.gnu.lto_SVC_Handler.d7379e6b2dc80ca4,"",%progbits
  88 0000 789C8D52 		.ascii	"x\234\215RMh\023Q\020\236yo\233\304\226\252\327\242"
  88      4D681351 
  88      109E796F 
  88      9BC496AA 
  88      D7A2
  89 0012 48A8F464 		.ascii	"H\250\364d\315\366\242\236\004\245 x\010\225\244\202"
  89      CDF6A29E 
  89      04A52078 
  89      0895A482 
  90 0022 3D49BA8D 		.ascii	"=I\272\215\351b\333,\233\215\004<\344\245\211\032l*"
  90      E962DB2C 
  90      9B8D043C 
  90      E4A5891A 
  90      6C2A
  91 0034 6D11B482 		.ascii	"m\021\264\202\366\007\265P\225\336z\022\032\017\212"
  91      F607B550 
  91      95DE7A12 
  91      1A0F8A
  92 0043 A5B6C5A3 		.ascii	"\245\266\305\243T$ x\021\324 z(\352:o\267\233\266^\314"
  92      54242078 
  92      11D4207A 
  92      28EA3A6F 
  92      B79BB65E 
  93 0058 C0EEB7F3 		.ascii	"\300\356\267\363\363\275y\337\3540`\360\257\035\240"
  93      F3BD79DF 
  93      EC3060F0 
  93      AF1DA0
  94 0067 6791033C 		.ascii	"g\221\003<\222\216\002H\025\310\220\002\310\021)\204"
  94      928E0248 
  94      15C89002 
  94      C8112984 
  95 0077 90651CB3 		.ascii	"\220e\034\263=\362\033\374\2550#\304D\345\332\247\327"
  95      3DF21BFC 
  95      AD3023C4 
  95      44E5DAA7 
  95      D7
  96 0088 0D93B7CB 		.ascii	"\015\223\267\313\205i\361\313\266\021u\231\324\020."
  96      8569F1CB 
  96      B6117599 
  96      D4102E
ARM GAS  /tmp/cccKph2J.s 			page 7


  97 0097 D017061D 		.ascii	"\320\027\006\035`\312\3566.\261\274t\375V\313\315\351"
  97      60CAEE36 
  97      2EB1BC74 
  97      FD56CBCD 
  97      E9
  98 00a8 E131F187 		.ascii	"\3411\361\207xDc\020\302\372\230\343\257\356\264\210"
  98      78446310 
  98      C2FA98E3 
  98      AFEEB488 
  99 00b8 6D266770 		.ascii	"m&gp\254.\346\275\362\357w\245\306\261\\Q\330vVG\245"
  99      AC2EE6BD 
  99      F2EF77A5 
  99      C6B15C51 
  99      D8765647 
 100 00cd BE8B567E 		.ascii	"\276\213V~T\027\217N\212ra\306S\2500\320\353l\270\264"
 100      54178F4E 
 100      8A7261C6 
 100      53A830D0 
 100      EB6CB8B4 
 101 00e1 B13C8362 		.ascii	"\261<\203bB\344\276\331\366\276\372[\276\234Z\331\311"
 101      42E4BED9 
 101      F6BEFA5B 
 101      BE9C5AD9 
 101      C9
 102 00f2 6260FCAF 		.ascii	"b`\374\257\337\002+Wl\273xca\024\367 8\343\214\341C"
 102      DF022B57 
 102      6CBB7863 
 102      6114F720 
 102      38E38CE1 
 103 0107 6C05BE85 		.ascii	"l\005\276\205\012\341,a\003\341\034\241\217\212\024"
 103      0AE12C61 
 103      03E11CA1 
 103      8F8A14
 104 0116 3F39F3E4 		.ascii	"?9\363\344\004\010\037\023\2225@A\210\261\240Kr\256"
 104      04081F13 
 104      92354041 
 104      88B1A04B 
 104      72AE
 105 0128 4BD6EDBC 		.ascii	"K\326\355\274\317\313\215\340k\220\253n>\337\300Z\341"
 105      CFCB8DE0 
 105      6B90AB6E 
 105      3EDFC05A 
 105      E1
 106 0139 9C53E8B8 		.ascii	"\234S\350\270\242<\362f\274\311;+\206O\251JsvGn\017"
 106      A23CF266 
 106      BCC93B2B 
 106      864FA94A 
 106      7376476E 
 107 014e 64B9DC3A 		.ascii	"d\271\334:\356\256\336!\030\305\373\342\356)\235j\310"
 107      EEAEDE21 
 107      18C5FBE2 
 107      EE299D6A 
 107      C8
 108 015f 122EC02A 		.ascii	"\022.\300*\014/\277\377\360\365x\014\237Q$\201>/A\355"
 108      0C2FBFFF 
 108      F0F5780C 
 108      9F512481 
ARM GAS  /tmp/cccKph2J.s 			page 8


 108      3E2F41ED 
 109 0173 6915F90A 		.ascii	"i\025\371\012\344\002\000}\350\226>h\223\314\000\225"
 109      E402007D 
 109      E8963E68 
 109      93CC0095 
 110 0183 6D312BA5 		.ascii	"m1+\245\036\267m\002\221\022N\364s\276\327\213\261\204"
 110      1EB76D02 
 110      91124EF4 
 110      73BED78B 
 110      B184
 111 0195 BCCD2AE4 		.ascii	"\274\315*\344G\362\337K~/\312)\341\0145\350\236\372"
 111      47F2DF4B 
 111      7E2FCA29 
 111      E10C35E8 
 111      9EFA
 112 01a7 256F970E 		.ascii	"%o\227\016zI%!\373\326z\371\023\362/\256\301pu\363g"
 112      7A492521 
 112      FBD67AF9 
 112      13F22FAE 
 112      C17075F3 
 113 01bc 6D0835F9 		.ascii	"m\0105\371+\353/\270;\322m\371\314U\2170\216\273\365"
 113      2BEB2FB8 
 113      3BD26DF9 
 113      CC558F30 
 113      8EBBF5
 114 01cf 4F6DE9F7 		.ascii	"Om\351\367\271\372\375\260#7\273s6\000\353\220\257\314"
 114      B9FAFDB0 
 114      2337BB73 
 114      3600EB90 
 114      AFCC
 115 01e1 7F6C728F 		.ascii	"\177lr\217\004\270\012\233\242(\366\353\350\327\344"
 115      04B80A9B 
 115      A228F6EB 
 115      E8D7E4
 116 01f0 E5C874A9 		.ascii	"\345\310t\251\365-\344*O\016{E\256uK\301\362\320#\241"
 116      F52DE42A 
 116      4F0E7B45 
 116      AE754BC1 
 116      F2D023A1 
 117 0204 90DAD9AF 		.ascii	"\220\332\331\257\367\352]Q5\231RMK5\222\246\225ROG\302"
 117      F7EA5D51 
 117      3599524D 
 117      4B3592A6 
 117      95524F47 
 118 0219 9DE18CAA 		.ascii	"\235\341\214\252\365kI3~\361\312\211\301\220\006>\315"
 118      F56B4933 
 118      7EF1CA89 
 118      C190063E 
 118      CD
 119 022a CA18A10E 		.ascii	"\312\030\241\016\305\201\335\274x\306R;\303\321\263"
 119      C581DDBC 
 119      78C6523B 
 119      C3D1B3
 120 0239 51551FD2 		.ascii	"QU\037\322\006\322}q\325\341i\203g\322CZ\250\037|f<"
 120      06D27D71 
 120      D5E16983 
 120      67D2435A 
ARM GAS  /tmp/cccKph2J.s 			page 9


 120      A81F7C66 
 121 024e 951EB0F6 		.ascii	"\225\036\260\366ZI\243\353\32293\251E\255\230v\2719"
 121      5A49A3EB 
 121      D23933A9 
 121      45AD9876 
 121      B939
 122 0260 1C8906DB 		.ascii	"\034\211\006\333:\332\203F\312h\004~\322\204\346p4\""
 122      3ADA8346 
 122      CA68047E 
 122      D284E670 
 122      3422
 123 0272 BD760A37 		.ascii	"\275v\0127\0023\201\247\014\370\013v\364\010w"
 123      023381A7 
 123      0CF80B76 
 123      F40877
 124              		.text
 125              		.section	.gnu.lto__port_irq_epilogue.d7379e6b2dc80ca4,"",%progbits
 126 0000 789CA554 		.ascii	"x\234\245T]hTG\024>\347\316\275w\377\262I\332\027\311"
 126      5D685447 
 126      143EE7CE 
 126      BD77FFB2 
 126      49DA17C9 
 127 0014 8B044128 		.ascii	"\213\004A(h\367VD}\222*\001\301\207E\2335\220\266\017"
 127      68F75644 
 127      7D922A01 
 127      C187459B 
 127      3590B60F 
 128 0028 65BDA69B 		.ascii	"e\275\246\233\353\337.\273\033\211\364!\263\331\005"
 128      EBDF2EBB 
 128      1B89F421 
 128      B3D905
 129 0037 25526A4B 		.ascii	"%RjK,\325\326\326\264,\015)mD\212\004\024\272-\210\332"
 129      2CD5D6D6 
 129      B42C0D29 
 129      6D448A04 
 129      14BA2D88 
 130 004c 10A50F52 		.ascii	"\020\245\017R\251E\027i\351\203\322\232\007\245\304"
 130      A9451769 
 130      E983D29A 
 130      07A5C4
 131 005b 9FEB9999 		.ascii	"\237\353\231\231{\357\356\212\245K;\227\235\331\363"
 131      7BEFEE8A 
 131      A54B3B97 
 131      9DD9F3
 132 006a F39D73E6 		.ascii	"\363\235s\346\2333\243\201\006\317\216\327\350w\336"
 132      9B33A381 
 132      06CF8ED7 
 132      E877DE
 133 0079 04A80A21 		.ascii	"\004\250\012!\012H\036\250i\014\200ka\232t\206:it\315"
 133      0A481EA8 
 133      690C806B 
 133      619A7486 
 133      3A6974CD 
 134 008d 101A5368 		.ascii	"\020\032Sh\014\014\221\306\224s\010#4\207\345\034A\244"
 134      0C0C91C6 
 134      94730823 
 134      3487E51C 
ARM GAS  /tmp/cccKph2J.s 			page 10


 134      41A4
 135 009f 1008631A 		.ascii	"\020\010c\032\323\0153\024\216\340\330\353B\003\261"
 135      D30D3314 
 135      8EE0D8EB 
 135      4203B1
 136 00ae 1530C5F9 		.ascii	"\0250\305\371\007\365\252{\035\217O\326*\247\370#\327"
 136      07F5AA7B 
 136      1D8F4FD6 
 136      2AA7F823 
 136      D7
 137 00bf 457484D1 		.ascii	"Et\204\321F\030\244\177\330+\027Mo-N\001\371\231i\036"
 137      4618A47F 
 137      D82B174D 
 137      6F2D4E01 
 137      F999691E 
 138 00d3 9120E620 		.ascii	"\221 \346 k\023s\355\267\355\227x\245\346\272\257\266"
 138      6B1373ED 
 138      B7ED9778 
 138      A5E6BAAF 
 138      B6
 139 00e4 8DA99DFC 		.ascii	"\215\251\235\374\361\353\236\211S\343G\371\023\252\257"
 139      F1EB9E89 
 139      53E347F9 
 139      13AAAF
 140 00f3 7DD8CF13 		.ascii	"}\330\317\023\357\265\3004H`{\310[\023\325e\023u\356"
 140      EFB5C034 
 140      48607BC8 
 140      5B13D565 
 140      1375EE
 141 0106 23F546C2 		.ascii	"#\365F\302\260\202\341sa\217/~\322\303\033\011\015\015"
 141      B082E173 
 141      618F2F7E 
 141      D2C31B09 
 141      0D0D
 142 0118 D6B595F0 		.ascii	"\326\265\225\360D\355\376\241\371)$vJ\367\\\267\313"
 142      44EDFEA1 
 142      F9292476 
 142      4AF75CB7 
 142      CB
 143 0129 41B3BD1D 		.ascii	"A\263\275\035\326\357/\236}\3718\257U\246\374\22335"
 143      D6EF2F9E 
 143      7DF938AF 
 143      55A6FC93 
 143      3335
 144 013b 70DA4CF9 		.ascii	"p\332L\371\335\215\313\377%\345\205'\247\233\367H\011"
 144      DD8DCBFF 
 144      25E58527 
 144      A79BF748 
 144      09
 145 014c 73FF9670 		.ascii	"s\377\226pV\253\325]\367\357C\347>\3048\212\372D\221"
 145      56ABD55D 
 145      F7EF43E7 
 145      3EC4388A 
 145      FA4491
 146 015f 8C894917 		.ascii	"\214\211I\027\223\001i\234\306\025`zk\210\326*\255a"
 146      9301699C 
 146      C615607A 
ARM GAS  /tmp/cccKph2J.s 			page 11


 146      6B88D62A 
 146      AD61
 147 0171 32EA1112 		.ascii	"2\352\021\022\276\"!J\202\031#\341\033\022:h\235\241"
 147      BE22214A 
 147      821923E1 
 147      1B123A68 
 147      9DA1
 148 0183 95860115 		.ascii	"\225\206\001\025\316\217\366\312\352i\354\220\363\200"
 148      CE8FF6CA 
 148      EA69EC90 
 148      F380
 149 0191 B82EEC2A 		.ascii	"\270.\354*\224\353\217\276\210\245\3614\322-\201w`\211"
 149      94EB8FBE 
 149      88A5F134 
 149      D22D8177 
 149      6089
 150 01a3 1FE6DD0E 		.ascii	"\037\346\335\016\206lT\347\347\320q\302\002\214\317"
 150      866C54E7 
 150      E7D071C2 
 150      028CCF
 151 01b2 CDD10D50 		.ascii	"\315\321\015Pn\031D\261\005\340\277\224y'\010\353\017"
 151      6E1944B1 
 151      05E0BF94 
 151      792708EB 
 151      0F
 152 01c3 6FF8166D 		.ascii	"o\370\026m\025\314\360\012Y#\037\303\011Z\242\276\263"
 152      15CCF00A 
 152      59231FC3 
 152      095AA2BE 
 152      B3
 153 01d4 1C3B839E 		.ascii	"\034;\203\236X\200\362\271\362L\020\220\021R\2701\336"
 153      5880F2B9 
 153      F24C1090 
 153      1152B831 
 153      DE
 154 01e5 4DC64B50 		.ascii	"M\306KP\271[\212\007\266A\325\317\2151 Dv\005J\213K"
 154      B95B8A07 
 154      B641D5CF 
 154      8D312044 
 154      76054A8B 
 155 01fa E76FA0B7 		.ascii	"\347o\240\267;E\201\267Y^;r\361L\314' \360\230\226\242"
 155      3B4581B7 
 155      595E3B72 
 155      F14CCC27 
 155      20F09896 
 156 020f BF59A243 		.ascii	"\277Y\242C\275)T\325\030\023\357\013S\217\314rx\027"
 156      BD2954D5 
 156      1813EF0B 
 156      538FCC72 
 156      7817
 157 0221 4FF28F36 		.ascii	"O\362\21769\030\023bF<\021\262\346\361\313\277\336\374"
 157      39181362 
 157      463C11B2 
 157      E6F1CBBF 
 157      DEFC
 158 0233 6B7D1ABF 		.ascii	"k}\032\277\225\205E}\003\025D\307\311\346\241D\\\355"
 158      9585457D 
ARM GAS  /tmp/cccKph2J.s 			page 12


 158      031544C7 
 158      C9E6A144 
 158      5CED
 159 0245 42E5FAE9 		.ascii	"B\345\372\351J\201\354 7\01797\371f\032\317J\244N\006"
 159      4A81EC20 
 159      370F3937 
 159      F9661ACF 
 159      4AA44E06 
 160 0259 A9BD53DE 		.ascii	"\251\275S\336\355\353\214\214\010B\274\034)\337\231"
 160      EDEB8C8C 
 160      0842BC1C 
 160      29DF99
 161 0268 ECF1B526 		.ascii	"\354\361\265&\031d\277Pw\270]\340\035\305\227\337k\312"
 161      1964BF50 
 161      77B85DE0 
 161      1DC597DF 
 161      6BCA
 162 027a 41B04D63 		.ascii	"A\260Mc\255\203\035\212\3578A\204\277\341\361\255\010"
 162      AD831D8A 
 162      EF384184 
 162      BFE1F1AD 
 162      08
 163 028b 179A4EF2 		.ascii	"\027\232N\362\013\253\000\177\226g\217-\3673\2042\242"
 163      0BAB007F 
 163      96678F2D 
 163      F7338432 
 163      A2
 164 029c AF838263 		.ascii	"\257\203\202c\031\3618^\201\361\305\245\007\001\267"
 164      19F1385E 
 164      81F1C5A5 
 164      0701B7
 165 02ab 01ABF3D7 		.ascii	"\001\253\363\327n3\325^\202F\021\300VG\203\364\275\217"
 165      6E33D55E 
 165      824611C0 
 165      564783F4 
 165      BD8F
 166 02bd AD247EE6 		.ascii	"\255$~\346\221\330\245H\024\\\006\266\317\233\011\006"
 166      91D8A548 
 166      145C06B6 
 166      CF9B0906 
 167 02cd 106D387B 		.ascii	"\020m8{\341E\277\246p\320\207\3356\352^\037\276\340"
 167      E145BFA6 
 167      70D087DD 
 167      36EA5E1F 
 167      BEE0
 168 02df 35C69AC0 		.ascii	"5\306\232\300kP\275;\315\215A\373f\264\227\245\362\037"
 168      6B50BD3B 
 168      CD8D41FB 
 168      66B497A5 
 168      F21F
 169 02f1 C75E6AA1 		.ascii	"\307^j\241h\303?R\244z@e\344\007e\353\033M\021M?\342"
 169      68C33F52 
 169      A47A4065 
 169      E40765EB 
 169      1B4D114D 
 170 0307 C3FF13D1 		.ascii	"\303\377\023\321\014\"\356\020\374\262\001q\255\344"
 170      0C22EE10 
ARM GAS  /tmp/cccKph2J.s 			page 13


 170      FCB20171 
 170      ADE4
 171 0315 ED5BF8FD 		.ascii	"\355[\370\375\271\267/\324\270}\252\216HS\207\321\251"
 171      B9B72FD4 
 171      B87DAA8E 
 171      485387D1 
 171      A9
 172 0326 FE04A5FA 		.ascii	"\376\004\245\372|\025UE\215\330d\021\331W%\022V\337"
 172      7C155545 
 172      8DD86411 
 172      D9572512 
 172      56DF
 173 0338 B0B3D3D9 		.ascii	"\260\263\323\331\226\262\262\005+_\264r\331|\261`m\356"
 173      96B2B205 
 173      2B5FB472 
 173      D97CB160 
 173      6DEE
 174 034a 4FF62547 		.ascii	"O\366%G-{\330\316\346\207\336:\260a_\302\006\323.\216"
 174      2D7BD8CE 
 174      E687DE3A 
 174      B0615FC2 
 174      06D32E8E 
 175 035e E6126B74 		.ascii	"\346\022kt\271\264\342\206F\213V_2\2655e9\373\355\275"
 175      B9B4E286 
 175      468B565F 
 175      32B53565 
 175      39FBEDBD 
 176 0372 23BB862C 		.ascii	"#\273\206,\211\263\367m\031\331o'\206\301\314\017\025"
 176      89B3F76D 
 176      19D96F27 
 176      86C1CC0F 
 176      15
 177 0383 46F6163B 		.ascii	"F\366\026;\213\331\334\266\267\267\347\263v\252\230"
 177      8BD9DCB6 
 177      B7B7E7B3 
 177      76AA98
 178 0392 B6F7C493 		.ascii	"\266\367\304\223\375\251\336\225\257\254\356\315\025"
 178      FDA9DE95 
 178      AFACEECD 
 178      15
 179 039f 7251601B 		.ascii	"rQ`\033\363\020O\246\372\205\264\232\324Q\320\362\300"
 179      F3104FA6 
 179      FA85B49A 
 179      D451D0F2 
 179      C0
 180 03b0 0A39780A 		.ascii	"\0129x\012=\235\265g"
 180      3D9DB567 
 181              		.text
 182              		.section	.gnu.lto_.symbol_nodes.d7379e6b2dc80ca4,"",%progbits
 183 0000 789C4DC7 		.ascii	"x\234M\307\261\015\3020\024E\321\367\376\217![d6&y\216"
 183      B10DC230 
 183      1445D1F7 
 183      FE8F215B 
 183      64362679 
 184 0015 9150040D 		.ascii	"\221P\004\015\015\2530\000\003PR3@\032 i\001E\266\024"
 184      0DAB3000 
 184      03505233 
ARM GAS  /tmp/cccKph2J.s 			page 14


 184      401A2069 
 184      0145B614 
 185 0029 DFE6EA18 		.ascii	"\337\346\352\030\014W\224\354\007\001\347; ]\206\235"
 185      0C5794EC 
 185      0701E73B 
 185      205D869D 
 186 0039 458A157B 		.ascii	"E\212\025{\312*&\312+\276\250\246\3601\320\336TX\311"
 186      CA2A26CA 
 186      2BBEA8A6 
 186      F031D0DE 
 186      5458C9
 187 004c 89DA64C6 		.ascii	"\211\332d\306\236\234\251\355\252\017\325\026E\272\001"
 187      9E9CA9ED 
 187      AA0FD516 
 187      45BA01
 188 005b E9F9A53B 		.ascii	"\351\371\245;\363\033\307\3550v\036,;\264\330\037\027"
 188      F31BC7ED 
 188      30761E2C 
 188      3BB4D81F 
 188      17
 189 006c 3BD269EC 		.ascii	";\322i\354\360\007\212\251:\011"
 189      F0078AA9 
 189      3A09
 190              		.text
 191              		.section	.gnu.lto_.refs.d7379e6b2dc80ca4,"",%progbits
 192 0000 789C6362 		.ascii	"x\234cb`b`g\200\000&V&6&v\006\000\001&\000$"
 192      60626067 
 192      80002656 
 192      26362676 
 192      06000126 
 193              		.text
 194              		.section	.gnu.lto_.decls.d7379e6b2dc80ca4,"",%progbits
 195 0000 789CBD58 		.ascii	"x\234\275Xop\023\307\025\337=I\266U;.qI\306\314t\212"
 195      6F7013C7 
 195      15DF3D49 
 195      B6553B2E 
 195      7149C6CC 
 196 0016 E8346D27 		.ascii	"\3504m'\214-p\350\324\375\02202\324\236\216\203F\012"
 196      8C2D70E8 
 196      D4FD1230 
 196      32D49E8E 
 196      83460A
 197 0029 4CBF94E3 		.ascii	"L\277\224\343\220\016\244\211,\231\223\034L\277p\262"
 197      900EA489 
 197      2C99931C 
 197      4CBF70B2 
 198 0039 CD9F14DA 		.ascii	"\315\237\024\332\310\004\030\023RlB\200\2701\303\237"
 198      C8041813 
 198      526C4280 
 198      B831C39F 
 199 0049 A40430C5 		.ascii	"\244\0040\305\027\3178%\011I C\354L\235RM3m\323\264"
 199      17CF3825 
 199      09492043 
 199      EC4C9D52 
 199      4D336DD3 
 200 005e 292D713A 		.ascii	")-q:\035\240q\337\356\375\321\335\351\016\237\362\241"
 200      1DA071DF 
ARM GAS  /tmp/cccKph2J.s 			page 15


 200      EEFDD1DD 
 200      E90E9FF2 
 200      A1
 201 006f 37B34FAB 		.ascii	"7\263O\253\273\267\277\367{o\337\276\335;\0061h.\203"
 201      BBB7BFF7 
 201      7B6FDFBE 
 201      DD3B0631 
 201      682E83
 202 0082 D00C5C3F 		.ascii	"\320\014\\?\231\207\220\344B\250\034!\364(*\\^h\207"
 202      998790E4 
 202      42A81C21 
 202      F4282A5C 
 202      5E6887
 203 0095 A11D8336 		.ascii	"\241\035\2036\004m\030\332Ihg\240\375\032\332\253\320"
 203      046D18DA 
 203      496867A0 
 203      FD1ADAAB 
 203      D0
 204 00a6 CEA3E28B 		.ascii	"\316\243\342\213\214\361@\033\205V\015\255\012\3328"
 204      8CF1401B 
 204      85560DAD 
 204      0ADA38
 205 00b5 B43795E7 		.ascii	"\2647\225\347\214\242s\305b\3541\007c\217\331\214\035"
 205      8CA273C5 
 205      62EC3107 
 205      638FD98C 
 205      1D
 206 00c6 529EBF0F 		.ascii	"R\236\277\017\355y\235\376\220b\317|\015\333\350\017"
 206      ED799DFE 
 206      9062CF7C 
 206      0DDBE80F 
 207 00d6 2B36CC17 		.ascii	"+6\314\027\361\235\304\244\\\307mB\341\372\251\302S"
 207      F19DC4A4 
 207      5CC76D42 
 207      E1FAA9C2 
 207      53
 208 00e7 8FE556C6 		.ascii	"\217\345V\306\334\2046\255\340bh\267M\270$\2365\320"
 208      DC8436AD 
 208      E06268B7 
 208      4DB8249E 
 208      35D0
 209 00f9 EEE87089 		.ascii	"\356\350p\211\215\021\035\276\212\353\001\200\273\212"
 209      8D111DBE 
 209      8AEB0180 
 209      BB8A
 210 0107 BD296893 		.ascii	"\275)h\223\320\226*\266\227\302\263\013\360\353\"\266"
 210      D0962AB6 
 210      97C2B30B 
 210      F0EB22B6 
 211 0117 A1FF37F8 		.ascii	"\241\3777\370\375+\264\012\305\306\220\216\013\2317"
 211      FD2BB40A 
 211      C5C6908E 
 211      0B9937
 212 0126 750ED538 		.ascii	"u\016\3258,\2031M\330\310m>:$JW\363\333\376\374\021"
 212      2C83314D 
 212      D8C86D3E 
 212      3A244A57 
ARM GAS  /tmp/cccKph2J.s 			page 16


 212      F3DBFEFC 
 213 013b 7340947A 		.ascii	"s@\224zEH\027\021\373\036D\373D\270\006\267\213\"\316"
 213      45481711 
 213      FB1E44FB 
 213      44B806B7 
 213      8B22CE
 214 014e 70F8D107 		.ascii	"p\370\321\007\320\2171\207\253\275\310G;U^\352;B\034"
 214      D08F3187 
 214      ABBDC847 
 214      3B555EEA 
 214      3B421C
 215 0161 7E1E3FA8 		.ascii	"~\036?\250\364V\273\324\010\327c\3640\032\202\3619Q"
 215      F456BBD4 
 215      08D763F4 
 215      301A82F1 
 215      3951
 216 0173 ECFE8645 		.ascii	"\354\376\206E\240\021\3726:J\014\210/\212.\012O\000"
 216      A011FA36 
 216      3A4A0C88 
 216      2F8A2E0A 
 216      4F00
 217 0185 0EE3F97A 		.ascii	"\016\343\371z\025\016\037\301L1U)\367\207\252\\6?33"
 217      150E1FC1 
 217      4C315529 
 217      F787AA5C 
 217      363F3333 
 218 0199 30384736 		.ascii	"08G6\317\220\300p\370\005\374\360=\341\217\231\341\217"
 218      CF90C070 
 218      F805FCF0 
 218      3DE18F99 
 218      E18F
 219 01ab 5BC25F2A 		.ascii	"[\302_*\206\377\221\023\370!3\374\257,\341\247\213\341"
 219      86FF9113 
 219      F82133FC 
 219      AF2CE1A7 
 219      8BE1
 220 01bd D73A811F 		.ascii	"\327:\201\0376\303\237(\206\037\224\362\223;F\313\012"
 220      36C39F28 
 220      861F94F2 
 220      933B46CB 
 220      0A
 221 01ce F3885413 		.ascii	"\363\210T\023\003\330\211\215\223f\033\247\254lH\323"
 221      03D8898D 
 221      93661BA7 
 221      AC6C48D3 
 222 01de BF555CF0 		.ascii	"\277U\\\360\251\360/9\202?c\206\177\271\030>\237\313"
 222      A9F02F39 
 222      823F6386 
 222      7FB9183E 
 222      9FCB
 223 01f0 8FDF1EC3 		.ascii	"\217\337\036\303\007\3041\342\302V\315\201KE\026d\210"
 223      07C431E2 
 223      C256CD81 
 223      4B451664 
 223      88
 224 0201 B35610D2 		.ascii	"\263V\020\322\304\344n\021S\216\363U\200\3536\000\347"
 224      C4E46E11 
ARM GAS  /tmp/cccKph2J.s 			page 17


 224      538EF355 
 224      80EB3600 
 224      E7
 225 0212 2C399C7A 		.ascii	",9\234z\372\367\265\032\007\303b\250@; \251\305\374"
 225      FAF7B51A 
 225      07C362A8 
 225      403B20A9 
 225      C5FC
 226 0224 36318B37 		.ascii	"61\2137!uYT\250\313\202\254\256\207\320\013r\3563\034"
 226      21755954 
 226      A8CB82AC 
 226      AE87D00B 
 226      72EE331C 
 227 0238 1EC11560 		.ascii	"\036\301\025`|\027cZu\005\373D\201\\d\274\334W{\030"
 227      7C17635A 
 227      7505FB44 
 227      815C64BC 
 227      DC577B18 
 228 024c D92EBA0B 		.ascii	"\331.\272\013\026\213\256\217\261v\360\222\321A/\332"
 228      168BAE8F 
 228      B176F092 
 228      D1412FDA 
 229 025c 49F88333 		.ascii	"I\370\2033-\227\253\255-P\376\271\374\253\317\214\277"
 229      2D97ABAD 
 229      2D50FEB9 
 229      FCABCF8C 
 229      BF
 230 026d 86BBC167 		.ascii	"\206\273\301g\016\217b/I\"\227\321\202s\250\323\007"
 230      0E8F622F 
 230      492297D1 
 230      8273A8D3 
 230      07
 231 027e 2FFE4014 		.ascii	"/\376@\024+8<F\201N\270\215@\034.\367\032I\303\177U"
 231      2B383C46 
 231      814EB88D 
 231      401C2EF7 
 231      1A49C37F 
 232 0293 81A0D1C7 		.ascii	"\201\240\321\307J\207lh_E\245\252\337\217rt\016\227"
 232      4A876C68 
 232      5F45A5AA 
 232      DF8F7274 
 232      0E97
 233 02a5 F5572BB4 		.ascii	"\365W+\264\363G\305\332\332\331'\360u\312\370\234\333"
 233      F347C5DA 
 233      DAD927F0 
 233      75CAF89C 
 233      DB
 234 02b6 76028982 		.ascii	"v\002\211\202:\201r_\355\315\024fp\216\012\317(\243"
 234      3A81725F 
 234      EDCD1466 
 234      708E0ACF 
 234      28A3
 235 02c8 C6F1FD85 		.ascii	"\306\361\375\205\030\212J\014\251\206\335\234\277\241"
 235      188A4A0C 
 235      A986DD9C 
 235      BFA1
 236 02d6 B353E52D 		.ascii	"\263S\345-tTb\212\207\276\376j\331\272\202\323\250\352"
ARM GAS  /tmp/cccKph2J.s 			page 18


 236      7454628A 
 236      87BEFE6A 
 236      D9BA82D3 
 236      A8EA
 237 02e8 952B386F 		.ascii	"\225+8o\226l\371-\033\313e\212ee\013\271\363\321\325"
 237      966CF92D 
 237      1BCB658A 
 237      65650BB9 
 237      F3D1D5
 238 02fb DDB8EFE4 		.ascii	"\335\270\357\344v\221,\274\255\003R\316\355|\027y[I"
 238      76912CBC 
 238      AD0352CE 
 238      ED7C1779 
 238      5B49
 239 030d 68971C20 		.ascii	"h\227\034 9\343\012\331\215H\202\377\335\2205T\223A"
 239      39E30AD9 
 239      8D4882FF 
 239      DD903554 
 239      9341
 240 031f B7D589F9 		.ascii	"\267\325\211\371\026:\"\212{\304k\257W\345\264\204\335"
 240      163A228A 
 240      7BC46BAF 
 240      57E5B484 
 240      DD
 241 0330 E92123AE 		.ascii	"\351!#\256@\331\261\262+k!\255V}\226\015\326j\265\352"
 241      40D9B1B2 
 241      2B6B21AD 
 241      567D960D 
 241      D66AB5EA 
 242 0344 8AB956BD 		.ascii	"\212\271V\275k\\F\225\350g\205\334\227k\214\235o\357"
 242      6B5C4695 
 242      E86785DC 
 242      976B8C9D 
 242      6FEF
 243 0356 E34ACB51 		.ascii	"\343J\313Q5\250\217N\230n\355\210\214:\330G]\376\005"
 243      35A88F4E 
 243      986EED88 
 243      8C3AD847 
 243      5DFE05
 244 0369 756012D7 		.ascii	"u`\022\327(\216\313\211\231\037\277\371\032\246\313"
 244      288ECB89 
 244      991FBFF9 
 244      1AA6CB
 245 0378 893C4116 		.ascii	"\211<A\026\253^\271\026\240A0'\315\274\263w\23688\206"
 245      AB5EB916 
 245      A0413027 
 245      CDBCB377 
 245      9E383886 
 246 038c 4D9C6DA6 		.ascii	"M\234m\246CY\262\237\177\362\361\327\007D\0216\251)"
 246      4359B29F 
 246      7FF2F1D7 
 246      07441136 
 246      A929
 247 039e 18C8A031 		.ascii	"\030\310\2401\217y\315.\255\324\333\242\377u\012\014"
 247      8F79CD2E 
 247      ADD4DBA2 
 247      FF750A0C 
ARM GAS  /tmp/cccKph2J.s 			page 19


 248 03ae 7A4B236F 		.ascii	"zK#oeFK&5\263\252\275F\332\371m\267\336\240G\022\227"
 248      65464B26 
 248      35B3AABD 
 248      46DAF96D 
 248      B7DEA047 
 249 03c4 4AE19D92 		.ascii	"J\341\235\222\001}\2068\354y\267*\307\251`\327\234\200"
 249      017D8638 
 249      EC79B72A 
 249      C7A960D7 
 249      9C80
 250 03d6 55D8B293 		.ascii	"U\330\262\223\366\352\301\256\227\014fd\266_\0176\351"
 250      F6EAC1AE 
 250      970C6664 
 250      B65F0F36 
 250      E9
 251 03e7 046C8E3D 		.ascii	"\004l\216=\263~=\330T\311`Ff\317\352\301\376\350\004"
 251      B37E3DD8 
 251      54C96046 
 251      66CFEAC1 
 251      FEE804
 252 03fa ACD69ED9 		.ascii	"\254\326\236\331sz\260?\225\014\3463\245\267\335\202"
 252      737AB03F 
 252      950CE633 
 252      A5B7DD82 
 253 040a 9B282C38 		.ascii	"\233(,8\233\242X\253\016q)C>-\271(\376\303\246(\252"
 253      9BA258AB 
 253      0E712943 
 253      3E2DB928 
 253      FEC3A628 
 254 041f 55A25014 		.ascii	"U\242P\024\333\377{F\024\237\022\277\230\331\232\355"
 254      DBFF7B46 
 254      149F12BF 
 254      98D99AED 
 255 042f 5D602A89 		.ascii	"]`*\211\243\330\336\302?-6\371O<E5\220\303\327\012\245"
 255      A3D8DEC2 
 255      3F2D36F9 
 255      4F3C4535 
 255      90C3D70A 
 256 0444 8996B26E 		.ascii	"\211\226\262n\361\314\213\242W-o\034\276iS\000\025\364"
 256      F1CC8BA2 
 256      572D6F1C 
 256      BE695300 
 256      15F4
 257 0456 7F599E53 		.ascii	"\177Y\236S?\233\272\010E\003\212\307\314\250\270\300"
 257      3F9BBA08 
 257      45038AC7 
 257      CCA8B8C0 
 258 0466 2D576806 		.ascii	"-Wh\006M\337\323\276R\203\317\353k\360\027t\304\364"
 258      4DDFD3BE 
 258      5283CFEB 
 258      6BF01774 
 258      C4F4
 259 0478 97A9C1D3 		.ascii	"\227\251\301\323\346\032\374\271\221\251\017A\201\312"
 259      E61AFCB9 
 259      91A90F41 
 259      81CA
 260 0486 49D7A644 		.ascii	"I\327\246D\237\317\372\014;[\275\315k\333\376nm\337"
ARM GAS  /tmp/cccKph2J.s 			page 20


 260      9FCFFA0C 
 260      3B5BBDCD 
 260      6BDBFE6E 
 260      6DDF
 261 0498 CFE5476E 		.ascii	"\317\345Gn\375\347\247=\364\334s\027\262\223A\347\313"
 261      FDE7A73D 
 261      F4DC7317 
 261      B29341E7 
 261      CB
 262 04a9 8CA56F76 		.ascii	"\214\245ov Bd\306T\265\245\276\033U\242[\276?K\315\336"
 262      204264C6 
 262      54B5A5BE 
 262      1B55A25B 
 262      BE3F4BCD 
 263 04be DB23EDBB 		.ascii	"\333#\355\273!\327l\232\220=\340\201d{\306\342\260\204"
 263      21D76C9A 
 263      903DE081 
 263      647BC6E2 
 263      B084
 264 04d0 1F727408 		.ascii	"\037rt\010\202*N]\231\371r5\271\267G\332\177\003V\260"
 264      822A4E5D 
 264      99F97235 
 264      B9B747DA 
 264      7F0356B0 
 265 04e4 C6C9FEDC 		.ascii	"\306\311\376\334W\012\247\313%s\362\0318\365\337\240"
 265      570AA7CB 
 265      2573F219 
 265      38F5DFA0 
 266 04f4 55651B43 		.ascii	"Ue\033C\322\355m'`ve\035\300\236\325\203\275W2\230\221"
 266      D2ED6D27 
 266      6076651D 
 266      C09ED583 
 266      BD573298 
 267 0509 D9737AB0 		.ascii	"\331sz\260\017\234\200\331\225u\000;\244\007\373\260"
 267      0F9C80D9 
 267      9575003B 
 267      A407FBB0 
 268 0519 64303DB3 		.ascii	"d0=\263\254tj\355\251u\205\332\250L(9\021\367\027&\264"
 268      AC746AED 
 268      A97585DA 
 268      A84C2839 
 268      11F71726 
 269 052e F8484CDE 		.ascii	"\370HL\336\011N,\204\223\207\356\010m7\200\303{\030"
 269      094E2C84 
 269      9387EE08 
 269      6D3780C3 
 269      7B18
 270 0540 9201D898 		.ascii	"\222\001\330\230\001\332\001Y9\0373(_f\371V\341\200"
 270      01DA0159 
 270      391F3328 
 270      5F66F956 
 270      E180
 271 0552 CCE98387 		.ascii	"\314\351\203\207\032\3511h\037\215\311\307e\346\023"
 271      1AE93168 
 271      1F8DC9C7 
 271      65E613
 272 0561 0A36BD55 		.ascii	"\0126\275U\314\302\245\024]\205\326:\225V\025\035\246"
ARM GAS  /tmp/cccKph2J.s 			page 21


 272      CCC2A514 
 272      5D85D63A 
 272      9556151D 
 272      A6
 273 0572 DF6E9E61 		.ascii	"\337n\236a\2746Z\034\356gJ\335n\0160\326\333M\245\201"
 273      BC365A1C 
 273      EE674ADD 
 273      6E0E30D6 
 273      DB4DA581 
 274 0586 B4AA05D1 		.ascii	"\264\252\005\321\270e\316\020\003\211Y\366\352\336\036"
 274      B865CE10 
 274      038959F6 
 274      EADE1E
 275 0595 288297B7 		.ascii	"(\202\227\267\014\221\215\253L\315\271\177;\3119\237"
 275      0C918DAB 
 275      4CCDB97F 
 275      3BC9399F 
 276 05a5 FD6A7845 		.ascii	"\375jxE\237\300w\235\200}\327~5\234\325\203e\313K\005"
 276      9FC0779D 
 276      807DD77E 
 276      359CD583 
 276      65CB4B05 
 277 05b9 33323BA7 		.ascii	"32;\247\007\333\356\004l\221=\263\013z\260]%\203\031"
 277      07DBEE04 
 277      6C913DB3 
 277      0B7AB05D 
 277      258319
 278 05cc 995DD483 		.ascii	"\231]\324\203\3659\001k\264gvI\017\266\277d0\035\263"
 278      F539016B 
 278      B4677649 
 278      0FB6BF64 
 278      301DB3
 279 05df BD59E9EA 		.ascii	"\275Y\351\352\332\034\247\275T\223\344\355.\344\373"
 279      DA1CA7BD 
 279      5493E4ED 
 279      2EE4FB
 280 05ee 32636D34 		.ascii	"2cm4\250\351N<&5\016\277\244,\213\302\313\256\371/\203"
 280      A8E94E3C 
 280      26350EBF 
 280      A42C8BC2 
 280      CBAEF92F 
 281 0603 0E9A791B 		.ascii	"\016\232y\033P\224\3562\233 \300\306\372\236\034\204"
 281      5094EE32 
 281      9B20C0C6 
 281      FA9E1C84 
 282 0613 6E1A8401 		.ascii	"n\032\204\001'Ah\261\007\273\256\007;R2\2301\242\023"
 282      274168B1 
 282      07BBAE07 
 282      3B523298 
 282      31A213
 283 0626 8588FA4C 		.ascii	"\205\210\372L\001\025\261\261\246\353\325t\0015\253"
 283      0115B1B1 
 283      A6EBD574 
 283      0135AB
 284 0635 71F8E592 		.ascii	"q\370\345\222\013\315+6\205\246\360&\256\327\002\267"
 284      0BCD2B36 
 284      85A6F026 
ARM GAS  /tmp/cccKph2J.s 			page 22


 284      AED702B7 
 285 0645 8F9BDD36 		.ascii	"\217\233\3356\262P\272A\273 f\245\017\354\375\036\324"
 285      B250BA41 
 285      BB2066A5 
 285      0FECFD1E 
 285      D4
 286 0656 A0E6DECB 		.ascii	"\240\346\336\313o\263\032\207\317\225\354\367y\033\277"
 286      6FB31A87 
 286      CF95ECF7 
 286      791BBF
 287 0665 B583B241 		.ascii	"\265\203\262A\013\374\0366\373md\241t\327\331\370\015"
 287      0BFC1E36 
 287      FB6D64A1 
 287      74D7D9F8 
 287      0D
 288 0676 E7C1DFAD 		.ascii	"\347\301\337\255%\271C\2302\350\264#\260\016\233\344"
 288      25B94398 
 288      32E8B423 
 288      B00E9BE4 
 289 0686 81B5FDA1 		.ascii	"\201\265\375\241~m\2178\311\304\235\330\202\232\325"
 289      7E6D8F38 
 289      C9C49DD8 
 289      829AD5
 290 0695 A53FCA72 		.ascii	"\245?\312rX\244\273z\226Y\000\262\227\312\035T>E\345"
 290      58A4BB7A 
 290      965900B2 
 290      97CA1D54 
 290      3E45E5
 291 06a8 2E2A7F4E 		.ascii	".*\177N\345\323T\036\244\362\227T\016Py\230\312#T\036"
 291      E5D3541E 
 291      A4F29754 
 291      0E507998 
 291      CA23541E 
 292 06bc A5F23895 		.ascii	"\245\3628\225CT\236\240\362$\225\247\251<K\345\010\225"
 292      43549EA0 
 292      F22495A7 
 292      A93C4BE5 
 292      0895
 293 06ce BF01A95D 		.ascii	"\277\001\251]vSy\307\346\203\213\374\335\324n\324(\243"
 293      765379C7 
 293      E6838BFC 
 293      DDD46ED4 
 293      28A3
 294 06e0 8D925F2C 		.ascii	"\215\222_,\340\335MJf%\362\036`\365\001\233*\211\371"
 294      E0DD4D4A 
 294      6625F21E 
 294      60F5019B 
 294      2A89F9
 295 06f3 891D7F61 		.ascii	"\211\035\177a\304\336\012\233\217\334\013\353\353\375"
 295      C4DE0A9B 
 295      8FDC0BEB 
 295      EBFD
 296 0701 81587C7D 		.ascii	"\201X|}|U\330\237J\373\205\214\277#%d\322\376\246P["
 296      7C55D89F 
 296      4AFB858C 
 296      BF232564 
 296      D2FEA650 
ARM GAS  /tmp/cccKph2J.s 			page 23


 297 0716 A0ADCB1F 		.ascii	"\240\255\313\037\211ER\002\317>\371\375\366\372\030"
 297      89455202 
 297      CF3EF9FD 
 297      F6FA18
 298 0725 F292476C 		.ascii	"\362\222Gl\"\025y\242\354\207\217\255\366\005P%\275"
 298      221579A2 
 298      EC878FAD 
 298      F6055025 
 298      BD
 299 0736 D19924B7 		.ascii	"\321\231$\267j\264\207\354\006!\325\316\306\323\302"
 299      6AB487EC 
 299      0621D5CE 
 299      C6D3C2
 300 0745 5CDD63ED 		.ascii	"\\\335c\355\246s\203\021T\031^\023`[\270d4\301\0135"
 300      A6738311 
 300      54195E13 
 300      605BB864 
 300      34C10B35 
 301 0759 2C458B0B 		.ascii	",E\213\013\233X\276#\236Hm\354\344\037\220o\2457\307"
 301      9B58BE23 
 301      9E486DEC 
 301      E41F906F 
 301      A537C7
 302 076c 33919866 		.ascii	"3\221\230f\340k\362]\276+\236\321\356}\263\310h<\031"
 302      E06BF25D 
 302      BE2B9ED1 
 302      EE7DB3C8 
 302      683C19
 303 077f 49744679 		.ascii	"ItFy\260\227\216\304\242\340\234\207]\236J%\346Eb\341"
 303      B0978EC4 
 303      A2E09C87 
 303      5D9E4A25 
 303      E64562E1 
 304 0793 48AC351D 		.ascii	"H\2545\035\024x\276\275#\023O%C\374\246\316\270\300"
 304      1478BEBD 
 304      23134F25 
 304      43FCA6CE 
 304      B8C0
 305 07a5 47D3FEE4 		.ascii	"G\323\376\344\006\332\276\347\217\245\332y\277\300\247"
 305      06DABEE7 
 305      8FA5DA79 
 305      BFC0A7
 306 07b4 794E88C4 		.ascii	"yN\210\304\3741N\210n\346\004\336\317\011\355\015\376"
 306      FC314E88 
 306      6EE604DE 
 306      CF09ED0D 
 306      FE
 307 07c5 8D91481D 		.ascii	"\215\221H\035t\352\370\366\365|4"
 307      74EAF8F6 
 307      F57C34
 308 07d0 CA47B51B 		.ascii	"\312G\265\033\311T\222\257\343\271\365\361\272%lc]\303"
 308      C95492AF 
 308      E3B9F5F1 
 308      BA256C63 
 308      5DC3
 309 07e2 A2C54B36 		.ascii	"\242\305K65\370\015\0174N\351L4\236\314\000\247\212"
 309      35F80D0F 
ARM GAS  /tmp/cccKph2J.s 			page 24


 309      344EE94C 
 309      349ECC00 
 309      A78A
 310 07f4 4EF87DA4 		.ascii	"N\370}\244\201\315\364\340\377\237\365v.\022\213'y?"
 310      81CDF4E0 
 310      FF9FF576 
 310      2E128B27 
 310      793F
 311 0806 1BE53770 		.ascii	"\033\3457p\235\211\014\233\331\322\301\247\201\315W"
 311      9D890C9B 
 311      D9D2C1A7 
 311      81CD57
 312 0815 5856E5E3 		.ascii	"XV\345\343\216\200\335zcP\371\256\214?\320\026n\015"
 312      8E80DD7A 
 312      6350F9AE 
 312      8C3FD016 
 312      6E0D
 313 0827 17624B66 		.ascii	"\027bKf2\322\276\2623\031\201\341\367\261l\232\317\260"
 313      32D2BEB2 
 313      331981E1 
 313      F7B16C9A 
 313      CFB0
 314 0839 CB9BC22B 		.ascii	"\313\233\302+\202\241\326\373\270\304fnK\232\215'\023"
 314      82A1D6FB 
 314      B8C4666E 
 314      4B9A8D27 
 314      13
 315 084a 60CCF324 		.ascii	"`\314\363$\227\350\344+\225\211\313D2]\337q\222&$D\002"
 315      97E8E42B 
 315      9589CB44 
 315      325DDF71 
 315      92262444 
 316 085f BF11FC60 		.ascii	"\277\021\374`3\214\260\210\021\0263B\003#<\342\022\026"
 316      338CB088 
 316      11163342 
 316      03233CE2 
 316      1216
 317 0871 37942504 		.ascii	"7\224%\0046\023\2132\035\021wWGZ\360\262\354F\260\036"
 317      36138B32 
 317      1D117757 
 317      475AF0B2 
 317      EC46B01E 
 318 0885 0C07BD32 		.ascii	"\014\007\2752\017\350UgR\035\2536\004\205T$\234\341"
 318      0FE85567 
 318      521DAB36 
 318      04855424 
 318      9CE1
 319 0897 224F2C74 		.ascii	"\"O,t\350\317\022b6\034X\316>\016\201\361\004\202\253"
 319      E8CF1262 
 319      361C58CE 
 319      3E0E81F1 
 319      0482AB
 320 08aa 5B9BDDAD 		.ascii	"[\233\335\255\201p\310\275\346\361U!OSk(\020r\205\241"
 320      8170C8BD 
 320      E6F15521 
 320      4F536B28 
 320      107285A1 
ARM GAS  /tmp/cccKph2J.s 			page 25


 321 08be 0502A172 		.ascii	"\005\002\241r\022\260F6\343\225C\007=W\270%\350\011"
 321      12B04636 
 321      E3954307 
 321      3D57B825 
 321      E809
 322 08d0 B710F5C0 		.ascii	"\267\020\365\300J\020-D4\203\360\264\265\255l\012\271"
 322      4A102D44 
 322      3483F0B4 
 322      B5AD6C0A 
 322      B9
 323 08e1 9713D104 		.ascii	"\227\023\321\004\377]\301\225!W3\264\246\346\220\033"
 323      FF5DC195 
 323      215733B4 
 323      A6E6901B 
 324 08f1 9E85DCAD 		.ascii	"\236\205\334\255\341\246\2207\264\"\274\"\264fE\363"
 324      E1A69037 
 324      B422BC22 
 324      B46645F3 
 325 0901 2230DC14 		.ascii	"\"0\334\024\010\375\0170U\000\377"
 325      08FD0F30 
 325      5500FF
 326              		.text
 327              		.section	.gnu.lto_.symtab.d7379e6b2dc80ca4,"",%progbits
 328 0000 5356435F 		.ascii	"SVC_Handler\000\000\000\000\000\000\000\000\000\000"
 328      48616E64 
 328      6C657200 
 328      00000000 
 328      00000000 
 329 0015 0000AF00 		.ascii	"\000\000\257\000\000\000_port_irq_epilogue\000\000\000"
 329      00005F70 
 329      6F72745F 
 329      6972715F 
 329      6570696C 
 330 0030 00000000 		.ascii	"\000\000\000\000\000\000\000\000\000\262\000\000\000"
 330      00000000 
 330      00B20000 
 330      00
 331 003d 5F706F72 		.ascii	"_port_switch_from_isr\000\000\002\000\000\000\000\000"
 331      745F7377 
 331      69746368 
 331      5F66726F 
 331      6D5F6973 
 332 005a 00000000 		.ascii	"\000\000\000\000\265\000\000\000_port_exit_from_isr"
 332      B5000000 
 332      5F706F72 
 332      745F6578 
 332      69745F66 
 333 0075 00000200 		.ascii	"\000\000\002\000\000\000\000\000\000\000\000\000\267"
 333      00000000 
 333      00000000 
 333      B7
 334 0082 00000063 		.ascii	"\000\000\000chSchIsPreemptionRequired\000\000\002\000"
 334      68536368 
 334      49735072 
 334      65656D70 
 334      74696F6E 
 335 00a2 00000000 		.ascii	"\000\000\000\000\000\000\000\000\271\000\000\000"
ARM GAS  /tmp/cccKph2J.s 			page 26


 335      00000000 
 335      B9000000 
 336              		.text
 337              		.section	.gnu.lto_.opts,"",%progbits
 338 0000 272D6D63 		.ascii	"'-mcpu=cortex-m4' '-mno-thumb-interwork' '-mthumb' "
 338      70753D63 
 338      6F727465 
 338      782D6D34 
 338      2720272D 
 339 0033 272D6767 		.ascii	"'-ggdb' '-O0' '-fomit-frame-pointer' '-falign-funct"
 339      64622720 
 339      272D4F30 
 339      2720272D 
 339      666F6D69 
 340 0066 696F6E73 		.ascii	"ions=16' '-ffunction-sections' '-fdata-sections' '-"
 340      3D313627 
 340      20272D66 
 340      66756E63 
 340      74696F6E 
 341 0099 666E6F2D 		.ascii	"fno-common' '-flto'\000"
 341      636F6D6D 
 341      6F6E2720 
 341      272D666C 
 341      746F2700 
 342              		.text
 343              		.cfi_sections	.debug_frame
 344              		.section	.text.port_lock,"ax",%progbits
 345              		.align	2
 346              		.p2align 4,,15
 347              		.thumb
 348              		.thumb_func
 349              		.type	port_lock, %function
 350              	port_lock:
 351              	.LFB127:
 352              		.file 1 "../ChibiOS/os/rt/ports/ARMCMx/chcore_v7m.h"
 353              		.loc 1 456 0
 354              		.cfi_startproc
 355              		@ args = 0, pretend = 0, frame = 8
 356              		@ frame_needed = 0, uses_anonymous_args = 0
 357              		@ link register save eliminated.
 358 0000 82B0     		sub	sp, sp, #8
 359              		.cfi_def_cfa_offset 8
 360 0002 2023     		movs	r3, #32
 361 0004 0193     		str	r3, [sp, #4]
 362              	.LBB15:
 363              	.LBB16:
 364              		.file 2 "../ChibiOS/os/ext/CMSIS/include/core_cmFunc.h"
 365              		.loc 2 548 0
 366 0006 019B     		ldr	r3, [sp, #4]
 367              	@ 548 "../ChibiOS/os/ext/CMSIS/include/core_cmFunc.h" 1
 368 0008 83F31188 		MSR basepri, r3
 369              	@ 0 "" 2
 370              		.thumb
 371              	.LBE16:
 372              	.LBE15:
 373              		.loc 1 473 0
 374 000c 02B0     		add	sp, sp, #8
ARM GAS  /tmp/cccKph2J.s 			page 27


 375              		@ sp needed
 376 000e 7047     		bx	lr
 377              		.cfi_endproc
 378              	.LFE127:
 379              		.size	port_lock, .-port_lock
 380              		.section	.text.port_unlock,"ax",%progbits
 381              		.align	2
 382              		.p2align 4,,15
 383              		.thumb
 384              		.thumb_func
 385              		.type	port_unlock, %function
 386              	port_unlock:
 387              	.LFB128:
 388              		.loc 1 480 0
 389              		.cfi_startproc
 390              		@ args = 0, pretend = 0, frame = 8
 391              		@ frame_needed = 0, uses_anonymous_args = 0
 392              		@ link register save eliminated.
 393 0000 82B0     		sub	sp, sp, #8
 394              		.cfi_def_cfa_offset 8
 395 0002 0023     		movs	r3, #0
 396 0004 0193     		str	r3, [sp, #4]
 397              	.LBB17:
 398              	.LBB18:
 399              		.loc 2 548 0
 400 0006 019B     		ldr	r3, [sp, #4]
 401              	@ 548 "../ChibiOS/os/ext/CMSIS/include/core_cmFunc.h" 1
 402 0008 83F31188 		MSR basepri, r3
 403              	@ 0 "" 2
 404              		.thumb
 405              	.LBE18:
 406              	.LBE17:
 407              		.loc 1 487 0
 408 000c 02B0     		add	sp, sp, #8
 409              		@ sp needed
 410 000e 7047     		bx	lr
 411              		.cfi_endproc
 412              	.LFE128:
 413              		.size	port_unlock, .-port_unlock
 414              		.section	.text.port_lock_from_isr,"ax",%progbits
 415              		.align	2
 416              		.p2align 4,,15
 417              		.thumb
 418              		.thumb_func
 419              		.type	port_lock_from_isr, %function
 420              	port_lock_from_isr:
 421              	.LFB129:
 422              		.loc 1 495 0
 423              		.cfi_startproc
 424              		@ args = 0, pretend = 0, frame = 0
 425              		@ frame_needed = 0, uses_anonymous_args = 0
 426 0000 08B5     		push	{r3, lr}
 427              		.cfi_def_cfa_offset 8
 428              		.cfi_offset 3, -8
 429              		.cfi_offset 14, -4
 430              		.loc 1 497 0
 431 0002 FFF7FEFF 		bl	port_lock
ARM GAS  /tmp/cccKph2J.s 			page 28


 432              		.loc 1 498 0
 433 0006 08BD     		pop	{r3, pc}
 434              		.cfi_endproc
 435              	.LFE129:
 436              		.size	port_lock_from_isr, .-port_lock_from_isr
 437 0008 AFF30080 		.section	.text.port_unlock_from_isr,"ax",%progbits
 437      AFF30080 
 438              		.align	2
 439              		.p2align 4,,15
 440              		.thumb
 441              		.thumb_func
 442              		.type	port_unlock_from_isr, %function
 443              	port_unlock_from_isr:
 444              	.LFB130:
 445              		.loc 1 506 0
 446              		.cfi_startproc
 447              		@ args = 0, pretend = 0, frame = 0
 448              		@ frame_needed = 0, uses_anonymous_args = 0
 449 0000 08B5     		push	{r3, lr}
 450              		.cfi_def_cfa_offset 8
 451              		.cfi_offset 3, -8
 452              		.cfi_offset 14, -4
 453              		.loc 1 508 0
 454 0002 FFF7FEFF 		bl	port_unlock
 455              		.loc 1 509 0
 456 0006 08BD     		pop	{r3, pc}
 457              		.cfi_endproc
 458              	.LFE130:
 459              		.size	port_unlock_from_isr, .-port_unlock_from_isr
 460 0008 AFF30080 		.section	.text.SVC_Handler,"ax",%progbits
 460      AFF30080 
 461              		.align	2
 462              		.p2align 4,,15
 463              		.global	SVC_Handler
 464              		.thumb
 465              		.thumb_func
 466              		.type	SVC_Handler, %function
 467              	SVC_Handler:
 468              	.LFB241:
 469              		.file 3 "../ChibiOS/os/rt/ports/ARMCMx/chcore_v7m.c"
 470              		.loc 3 62 0
 471              		.cfi_startproc
 472              		@ args = 0, pretend = 0, frame = 8
 473              		@ frame_needed = 0, uses_anonymous_args = 0
 474 0000 10B5     		push	{r4, lr}
 475              		.cfi_def_cfa_offset 8
 476              		.cfi_offset 4, -8
 477              		.cfi_offset 14, -4
 478 0002 82B0     		sub	sp, sp, #8
 479              		.cfi_def_cfa_offset 16
 480              	.LBB19:
 481              	.LBB20:
 482              		.loc 2 430 0
 483              	@ 430 "../ChibiOS/os/ext/CMSIS/include/core_cmFunc.h" 1
 484 0004 EFF30983 		MRS r3, psp
 485              	
 486              	@ 0 "" 2
ARM GAS  /tmp/cccKph2J.s 			page 29


 487              		.thumb
 488 0008 1C46     		mov	r4, r3
 489              		.loc 2 431 0
 490 000a 2346     		mov	r3, r4
 491              	.LBE20:
 492              	.LBE19:
 493              		.loc 3 72 0
 494 000c 0193     		str	r3, [sp, #4]
 495              		.loc 3 76 0
 496 000e 019B     		ldr	r3, [sp, #4]
 497 0010 2033     		adds	r3, r3, #32
 498 0012 0193     		str	r3, [sp, #4]
 499              		.loc 3 79 0
 500 0014 019B     		ldr	r3, [sp, #4]
 501 0016 0093     		str	r3, [sp]
 502              	.LBB21:
 503              	.LBB22:
 504              		.loc 2 443 0
 505 0018 009B     		ldr	r3, [sp]
 506              	@ 443 "../ChibiOS/os/ext/CMSIS/include/core_cmFunc.h" 1
 507 001a 83F30988 		MSR psp, r3
 508              	
 509              	@ 0 "" 2
 510              		.thumb
 511              	.LBE22:
 512              	.LBE21:
 513              		.loc 3 82 0
 514 001e FFF7FEFF 		bl	port_unlock_from_isr
 515              		.loc 3 83 0
 516 0022 02B0     		add	sp, sp, #8
 517              		@ sp needed
 518 0024 10BD     		pop	{r4, pc}
 519              		.cfi_endproc
 520              	.LFE241:
 521              		.size	SVC_Handler, .-SVC_Handler
 522 0026 00BFAFF3 		.section	.text._port_irq_epilogue,"ax",%progbits
 522      0080AFF3 
 522      0080
 523              		.align	2
 524              		.p2align 4,,15
 525              		.global	_port_irq_epilogue
 526              		.thumb
 527              		.thumb_func
 528              		.type	_port_irq_epilogue, %function
 529              	_port_irq_epilogue:
 530              	.LFB242:
 531              		.loc 3 122 0
 532              		.cfi_startproc
 533              		@ args = 0, pretend = 0, frame = 8
 534              		@ frame_needed = 0, uses_anonymous_args = 0
 535 0000 10B5     		push	{r4, lr}
 536              		.cfi_def_cfa_offset 8
 537              		.cfi_offset 4, -8
 538              		.cfi_offset 14, -4
 539 0002 82B0     		sub	sp, sp, #8
 540              		.cfi_def_cfa_offset 16
 541              		.loc 3 124 0
ARM GAS  /tmp/cccKph2J.s 			page 30


 542 0004 FFF7FEFF 		bl	port_lock_from_isr
 543              		.loc 3 125 0
 544 0008 134B     		ldr	r3, .L13
 545 000a 5B68     		ldr	r3, [r3, #4]
 546 000c 03F40063 		and	r3, r3, #2048
 547 0010 002B     		cmp	r3, #0
 548 0012 1DD0     		beq	.L8
 549              	.LBB23:
 550              	.LBB24:
 551              	.LBB25:
 552              		.loc 2 430 0
 553              	@ 430 "../ChibiOS/os/ext/CMSIS/include/core_cmFunc.h" 1
 554 0014 EFF30983 		MRS r3, psp
 555              	
 556              	@ 0 "" 2
 557              		.thumb
 558 0018 1C46     		mov	r4, r3
 559              		.loc 2 431 0
 560 001a 2346     		mov	r3, r4
 561              	.LBE25:
 562              	.LBE24:
 563              		.loc 3 134 0
 564 001c 0193     		str	r3, [sp, #4]
 565              		.loc 3 138 0
 566 001e 019B     		ldr	r3, [sp, #4]
 567 0020 203B     		subs	r3, r3, #32
 568 0022 0193     		str	r3, [sp, #4]
 569              		.loc 3 141 0
 570 0024 019B     		ldr	r3, [sp, #4]
 571 0026 4FF08072 		mov	r2, #16777216
 572 002a DA61     		str	r2, [r3, #28]
 573              		.loc 3 147 0
 574 002c 019B     		ldr	r3, [sp, #4]
 575 002e 0093     		str	r3, [sp]
 576              	.LBB26:
 577              	.LBB27:
 578              		.loc 2 443 0
 579 0030 009B     		ldr	r3, [sp]
 580              	@ 443 "../ChibiOS/os/ext/CMSIS/include/core_cmFunc.h" 1
 581 0032 83F30988 		MSR psp, r3
 582              	
 583              	@ 0 "" 2
 584              		.thumb
 585              	.LBE27:
 586              	.LBE26:
 587              		.loc 3 151 0
 588 0036 FFF7FEFF 		bl	chSchIsPreemptionRequired
 589 003a 0346     		mov	r3, r0
 590 003c 002B     		cmp	r3, #0
 591 003e 03D0     		beq	.L10
 592              		.loc 3 153 0
 593 0040 019B     		ldr	r3, [sp, #4]
 594 0042 064A     		ldr	r2, .L13+4
 595 0044 9A61     		str	r2, [r3, #24]
 596              		.loc 3 163 0
 597 0046 05E0     		b	.L7
 598              	.L10:
ARM GAS  /tmp/cccKph2J.s 			page 31


 599              		.loc 3 158 0
 600 0048 019B     		ldr	r3, [sp, #4]
 601 004a 054A     		ldr	r2, .L13+8
 602 004c 9A61     		str	r2, [r3, #24]
 603              		.loc 3 163 0
 604 004e 01E0     		b	.L7
 605              	.L8:
 606              	.LBE23:
 607              		.loc 3 165 0
 608 0050 FFF7FEFF 		bl	port_unlock_from_isr
 609              	.L7:
 610              		.loc 3 166 0
 611 0054 02B0     		add	sp, sp, #8
 612              		@ sp needed
 613 0056 10BD     		pop	{r4, pc}
 614              	.L14:
 615              		.align	2
 616              	.L13:
 617 0058 00ED00E0 		.word	-536810240
 618 005c 00000000 		.word	_port_switch_from_isr
 619 0060 00000000 		.word	_port_exit_from_isr
 620              		.cfi_endproc
 621              	.LFE242:
 622              		.size	_port_irq_epilogue, .-_port_irq_epilogue
 623 0064 AFF30080 		.text
 623      AFF30080 
 623      AFF30080 
 624              	.Letext0:
 625              		.file 4 "/nfs/nfs5/home/research/hardware/arm2/gcc-arm-embedded/gcc-arm-none-eabi-4_8-2014q2/arm-n
 626              		.file 5 "/nfs/nfs5/home/research/hardware/arm2/gcc-arm-embedded/gcc-arm-none-eabi-4_8-2014q2/arm-n
 627              		.file 6 "../ChibiOS/os/rt/ports/ARMCMx/compilers/GCC/chtypes.h"
 628              		.file 7 "../ChibiOS/os/rt/include/chsystypes.h"
 629              		.file 8 "../ChibiOS/os/rt/include/chschd.h"
 630              		.file 9 "../ChibiOS/os/ext/CMSIS/include/core_cm4.h"
 631              		.file 10 "../ChibiOS/os/rt/ports/ARMCMx/chcore.h"
 632              		.file 11 "../ChibiOS/os/rt/include/chtm.h"
 633              		.file 12 "../ChibiOS/os/rt/include/chsem.h"
 634              		.file 13 "../ChibiOS/os/rt/include/chmtx.h"