ARM GAS  /tmp/cchn9INy.s 			page 1


   1              		.syntax unified
   2              		.cpu cortex-m4
   3              		.fpu softvfp
   4              		.eabi_attribute 20, 1
   5              		.eabi_attribute 21, 1
   6              		.eabi_attribute 23, 3
   7              		.eabi_attribute 24, 1
   8              		.eabi_attribute 25, 1
   9              		.eabi_attribute 26, 1
  10              		.eabi_attribute 30, 6
  11              		.eabi_attribute 34, 1
  12              		.eabi_attribute 18, 4
  13              		.thumb
  14              		.file	"chdynamic.c"
  15              		.text
  16              	.Ltext0:
  17              		.section	.gnu.lto_.inline.2a470844e40a6679,"",%progbits
  18 0000 789C6362 		.ascii	"x\234cb`b\300\006>@i\016\006\006\026f\006\006&\226\017"
  18      6062C006 
  18      3E40690E 
  18      06061666 
  18      06062696 
  19 0015 7A0C2C10 		.ascii	"z\014,\020\265\214\030\"L\014,<@\222i\201<\\\015\027"
  19      B58C1822 
  19      4C0C2C3C 
  19      40926981 
  19      3C5C0D17 
  20 0029 9060C62E 		.ascii	"\220`\306.\314\302\300!\011\024\346\230\340\207\"\014"
  20      CCC2C021 
  20      0914E698 
  20      E087220C 
  21 0039 26581934 		.ascii	"&X\0314\216\203\014\264;\260\225\031&\313\314\003\022"
  21      8E830CB4 
  21      3BB09519 
  21      26CBCC03 
  21      12
  22 004a E14651C7 		.ascii	"\341FQ\307\306 v\210\001\213!`\265\354\002p\253xA\\"
  22      C6207688 
  22      018B2160 
  22      B5EC0270 
  22      AB78415C 
  23 005e 06F1C320 		.ascii	"\006\361\303 \265<\033r\361\251\005s\031\000T^\015\260"
  23      B53C1B72 
  23      F1A90573 
  23      1900545E 
  23      0DB0
  24              		.text
  25              		.section	.gnu.lto_port_lock.2a470844e40a6679,"",%progbits
  26 0000 789C6362 		.ascii	"x\234cb`b@\007\"@,\310\310\300P\007\342030\002U021\002"
  26      60624007 
  26      22402CC8 
  26      C8C05007 
  26      E2303330 
  27 001a 05181819 		.ascii	"\005\030\030\031\352\231\030\353#AL\006F%\206\205\015"
  27      EA9918EB 
  27      23414C06 
  27      46258685 
ARM GAS  /tmp/cchn9INy.s 			page 2


  27      0D
  28 002b 0D931EB4 		.ascii	"\015\223\036\264>{\3144\263\341@\313\202\206?\377\377"
  28      3E7BCC34 
  28      B3E140CB 
  28      82863FFF 
  28      FF
  29 003c 33326632 		.ascii	"32f2\002M\324cdHfd\210\000r\030\025\300\024\023\013"
  29      024DD463 
  29      64486664 
  29      88007218 
  29      15C01413 
  30 0051 AA15EB99 		.ascii	"\252\025\353\231\016<\370\377\377D\347\363\275@\223"
  30      0E3CF8FF 
  30      FF44E7F3 
  30      BD4093
  31 0060 19121917 		.ascii	"\031\022\031\027\002M\003\002V\206\226\206\206\011\012"
  31      024D0302 
  31      56869686 
  31      86090A
  32 006f 0C20DD40 		.ascii	"\014 \335@\020\002&CA\016`>\313\320\264\003H\24732\202"
  32      10022643 
  32      410E603E 
  32      CBD0B403 
  32      48A73332 
  33 0084 CC6300AA 		.ascii	"\314c\000\252a8\307\320\364\361\315\214\307\022p]`F"
  33      6138C7D0 
  33      F4F1CD8C 
  33      C712705D 
  33      6046
  34 0096 C381EE2B 		.ascii	"\303\201\356+\355\2540#\023\031\0273\262\002\215\203"
  34      EDAC3023 
  34      13191733 
  34      B2028D83 
  35 00a6 38190893 		.ascii	"8\031\010\223\231A>f\206x[\216\241dn\303\014\207LFf"
  35      99413E66 
  35      86785B8E 
  35      A1646EC3 
  35      0C874C46 
  36 00bb 102F1DAC 		.ascii	"\020/\035\254\012.U\016\221\202\272\374\"C\343\203\235"
  36      0A2E550E 
  36      9182BAFC 
  36      2243E383 
  36      9D
  37 00cc FA10E360 		.ascii	"\372\020\343` \004\244\001\244Z[OO\3379#3)\323?X?\277"
  37      2004A401 
  37      A45A5B4F 
  37      4FDF3923 
  37      3329D33F 
  38 00e3 58BFA844 		.ascii	"X\277\250D\277 \277\250\244X\3371\310\327\331\267B?"
  38      BF20BFA8 
  38      A458DF31 
  38      C8D7D9B7 
  38      423F
  39 00f5 392339BF 		.ascii	"9#9\277(5\276\314<W/\203\201\265,1\2474U\017UGjE\211"
  39      2835BECC 
  39      3C572F83 
  39      81B52C31 
ARM GAS  /tmp/cchn9INy.s 			page 3


  39      A734550F 
  40 010e BEB36FB0 		.ascii	"\276\263o\260g\260~f^rNiJ\252>XGr\256[i^2P\223\200o"
  40      67B07E66 
  40      5E724E69 
  40      4AAA3E58 
  40      4772AE5B 
  41 0129 70904252 		.ascii	"p\220BRbqjAQ\246\216\202\252\001\003S\021\003{njn~Q"
  41      62716A41 
  41      51A68E82 
  41      AA010353 
  41      11037B6E 
  42 0141 2503005A 		.ascii	"%\003\000Z\240au"
  42      A06175
  43              		.text
  44              		.section	.gnu.lto_port_unlock.2a470844e40a6679,"",%progbits
  45 0000 789C6362 		.ascii	"x\234cb`b@\007\"@,\310\310\300P\007\342030\002U021\002"
  45      60624007 
  45      22402CC8 
  45      C8C05007 
  45      E2303330 
  46 001a 05181819 		.ascii	"\005\030\030\031\352\231\030\353#AL\006F%\206\205\015"
  46      EA9918EB 
  46      23414C06 
  46      46258685 
  46      0D
  47 002b 0D931EB4 		.ascii	"\015\223\036\264~z\3144\263\341@\313\202\206?\377\377"
  47      7E7ACC34 
  47      B3E140CB 
  47      82863FFF 
  47      FF
  48 003c 33326632 		.ascii	"32f2\002M\324cdHfd\210\000r\030\025\300\024\023\013"
  48      024DD463 
  48      64486664 
  48      88007218 
  48      15C01413 
  49 0051 AA15EB99 		.ascii	"\252\025\353\231\016<\370\377\377E\347\376}@\223\031"
  49      0E3CF8FF 
  49      FF45E7FE 
  49      7D409319 
  50 0061 12191702 		.ascii	"\022\031\027\002M\003\002V\206\226\206\206\011\012\014"
  50      4D030256 
  50      86968686 
  50      090A0C
  51 0070 20DD4010 		.ascii	" \335@\020\002&CA\016`>\313\320\264\003H\24732\202\314"
  51      02264341 
  51      0E603ECB 
  51      D0B40348 
  51      A7333282 
  52 0085 031B728E 		.ascii	"\003\033r\216\241\351\343\233\031\217%\340\272\300\214"
  52      A1E9E39B 
  52      198F25E0 
  52      BAC08C
  53 0094 8603A79F 		.ascii	"\206\003\247\237\266\263\302\214Ld\\\314\310\0124\016"
  53      B6B3C28C 
  53      4C645CCC 
  53      C80A340E 
  54 00a4 E264204C 		.ascii	"\342d Lf\006\371\230\031\342m9\206\222\271\0153\034"
ARM GAS  /tmp/cchn9INy.s 			page 4


  54      6606F998 
  54      19E26D39 
  54      8692B90D 
  54      331C
  55 00b6 32199941 		.ascii	"2\031\231A\274t\260*\270T9D\012\352\362\213\014\215"
  55      BC74B02A 
  55      B8543944 
  55      0AEAF28B 
  55      0C8D
  56 00c8 0FCEEB43 		.ascii	"\017\316\353C\214\203\201\020\220\006\220jm==}\347\214"
  56      8C838110 
  56      9006906A 
  56      6D3D3D7D 
  56      E78C
  57 00da CCA44CFF 		.ascii	"\314\244L\377`\375\374b\375\242\022\375\202\374\242"
  57      60FDFC62 
  57      FDA212FD 
  57      82FCA2
  58 00e9 92627DC7 		.ascii	"\222b}\307 _g\337\012\375\344\214\344\374\242\324\370"
  58      205F67DF 
  58      0AFDE48C 
  58      E4FCA2D4 
  58      F8
  59 00fa 32F35CBD 		.ascii	"2\363\\\275\014\006\326\262\304\234\322T=T\035\251\025"
  59      0C06D6B2 
  59      C49CD254 
  59      3D541DA9 
  59      15
  60 010b 25FACEBE 		.ascii	"%\372\316\276\301\236\301\372\231y\3119\245)\251\372"
  60      C19EC1FA 
  60      9979C939 
  60      A529A9FA 
  61 011b 601DC9B9 		.ascii	"`\035\311\271n\245y\311@M\002\276\301A\012I\211\305"
  61      6EA579C9 
  61      404D02BE 
  61      C1410A49 
  61      89C5
  62 012d A9054599 		.ascii	"\251\005E\231:\012\252\006\014LE\014\354\271\251\271"
  62      3A0AAA06 
  62      0C4C450C 
  62      ECB9A9B9 
  63 013d F945950C 		.ascii	"\371E\225\014\000\233\025a\301"
  63      009B1561 
  63      C1
  64              		.text
  65              		.section	.gnu.lto_chSysLock.2a470844e40a6679,"",%progbits
  66 0000 789C6362 		.ascii	"x\234cb`b@\007\"@\\\006\304\312 \0163\003#P\005#\023"
  66      60624007 
  66      22405C06 
  66      C4CA200E 
  66      33032350 
  67 0017 232390C3 		.ascii	"##\220\303\310P\317\304X\037\311\010V\266\236\351\300"
  67      C850CFC4 
  67      581FC908 
  67      56B69EE9 
  67      C0
  68 0028 83FFFFD7 		.ascii	"\203\377\377\327}\231\266\354\017\343m&\220\030+CKC"
ARM GAS  /tmp/cchn9INy.s 			page 5


  68      7D99B6EC 
  68      0FE36D26 
  68      90182B43 
  68      4B43
  69 003a C3040506 		.ascii	"\303\004\005\006\206d\260\212\0200\031\012\322\317|"
  69      8664B08A 
  69      1030190A 
  69      D2CF7C
  70 0049 9EA1F9C1 		.ascii	"\236\241\371\301\236n\366D\306\205\214\254@\301j\206"
  70      9E6EF644 
  70      C6858CAC 
  70      40C16A86 
  71 0059 5F0D1D0D 		.ascii	"_\015\035\015\002\231\214@\245\020\3232A\364E\206\306"
  71      02998C40 
  71      A510D332 
  71      41F44586 
  71      C6
  72 006a 07FBB561 		.ascii	"\007\373\265a\212  \004$\001r\244\242\236\236\276sF"
  72      8A202004 
  72      240172A4 
  72      A29E9EBE 
  72      7346
  73 007c 6652A67F 		.ascii	"fR\246\177\260~~\261~Q\211~f^rNiJ\252~rFqe\261^\006"
  73      B07E7EB1 
  73      7E51897E 
  73      665E724E 
  73      694AAA7E 
  74 0097 0300A9F5 		.ascii	"\003\000\251\365'\020"
  74      2710
  75              		.text
  76              		.section	.gnu.lto_chSysUnlock.2a470844e40a6679,"",%progbits
  77 0000 789C6362 		.ascii	"x\234cb`b@\007\322@\334\301\310\300\240\014\342\260"
  77      60624007 
  77      D240DCC1 
  77      C8C0A00C 
  77      E2B0
  78 0012 30300255 		.ascii	"00\002U0212\003IfF\2400\003#C=\0233c}$\210\315\300\246"
  78      30323132 
  78      03496646 
  78      A0300323 
  78      433D1333 
  79 002d C4B0B0A1 		.ascii	"\304\260\260\241a\322\203\247\337gIv-h\232\320\360\357"
  79      61D283A7 
  79      DF674976 
  79      2D689AD0 
  79      F0EF
  80 003f FF7FC64C 		.ascii	"\377\177\306L\220T2#C\004\220\305\250\000\246\230XP"
  80      90543223 
  80      430490C5 
  80      A800A698 
  80      5850
  81 0051 2D81686B 		.ascii	"-\201hk\330\264\242\201sA\303\237\377\377\231\311\323"
  81      D8B4A281 
  81      7341C39F 
  81      FFFF99C9 
  81      D3
  82 0062 C33C58EC 		.ascii	"\303<X\354\311edX\317t\340\301\377\377ov\356|\364\206"
ARM GAS  /tmp/cchn9INy.s 			page 6


  82      C9656458 
  82      CF74E0C1 
  82      FFFF6F76 
  82      EE7CF486 
  83 0076 5114640B 		.ascii	"Q\024d\013+CKC\303\004\205\\\250\215@\020\002%\201A"
  83      2B434B43 
  83      C304855C 
  83      A88D4010 
  83      02258141 
  84 008a CA1C0A32 		.ascii	"\312\034\0122\224\371<C\363\203\327\247\331\023\031"
  84      94F93C43 
  84      F383D7A7 
  84      D91319
  85 0099 9731B202 		.ascii	"\2271\262\002\245\252\031~5t4\010d2\262$\203\303\232"
  85      A5AA197E 
  85      35743408 
  85      6432B224 
  85      83C39A
  86 00ac 81211324 		.ascii	"\201!\023$~\221\241\361\301\033m\230\"\010\010\001)"
  86      7E91A1F1 
  86      C11B6D98 
  86      22080801 
  86      29
  87 00bd 00C59EA2 		.ascii	"\000\305\236\242\236\236\276sFfR\246\177\260~~\261~"
  87      9E9EBE73 
  87      466652A6 
  87      7FB07E7E 
  87      B17E
  88 00cf 51897E66 		.ascii	"Q\211~f^rNiJ\252~rFqe\261^\006\003\000\341Gc\351"
  88      5E724E69 
  88      4AAA7E72 
  88      467165B1 
  88      5E060300 
  89              		.text
  90              		.section	.gnu.lto_chThdAddRef.2a470844e40a6679,"",%progbits
  91 0000 789C8D52 		.ascii	"x\234\215R=K\003A\020\235\271\275\\\002\026j\245e\214"
  91      3D4B0341 
  91      109DB9BD 
  91      5C02166A 
  91      A5658C
  92 0013 8D18C8FD 		.ascii	"\215\030\310\375\004\013++\005\025\264L.p\271\342\024"
  92      040B2B2B 
  92      0515B44C 
  92      2E70B9E2 
  92      14
  93 0024 121BB1C8 		.ascii	"\022\033\261\310\306\004\011\026\022S\305ha\032\021"
  93      C6040916 
  93      1253C568 
  93      611A11
  94 0033 0B352008 		.ascii	"\0135 \010\332\004\204@\210Al\305\"(\246\266\024\021"
  94      DA048440 
  94      88416CC5 
  94      2228A6B6 
  94      1411
  95 0045 D7D9BB7C 		.ascii	"\327\331\273|`\020\314\300\315\356\316\2767\363\336"
  95      6010CCC0 
  95      CDEECEBE 
ARM GAS  /tmp/cchn9INy.s 			page 7


  95      37F3DE
  96 0054 720A28D0 		.ascii	"r\012(\320\037\001\372\366\251<)\017\036@\332\242\202"
  96      1F01FAF6 
  96      A93C290F 
  96      1E40DAA2 
  96      82
  97 0065 8C324395 		.ascii	"\2142C\225\262\212H\027\010I\205\251\230\\\225\007\320"
  97      B28A4817 
  97      084985A9 
  97      985C9507 
  97      D0
  98 0076 0250E23C 		.ascii	"\002P\342<\337|{-\214\3556y\216\177\013\201\226\274"
  98      DF7C7B2D 
  98      8CED3679 
  98      8E7F0B81 
  98      96BC
  99 0088 32105668 		.ascii	"2\020Vh\207>gQ\260\177\226\244U\312\325\233\022\362"
  99      873E6751 
  99      B07F96A4 
  99      55CAD59B 
  99      12F2
 100 009a 1D9E7A17 		.ascii	"\035\236z\027bx`\032\277}^(\360LE\210\231\3019\347\247"
 100      6278601A 
 100      BF7D5E28 
 100      F04C4588 
 100      99C139E7 
 101 00af 9C1DF32F 		.ascii	"\234\035\363/!\330\240\234b\345\272Z#y\371\216<\326"
 101      21D8A09C 
 101      62E5BA5A 
 101      2379F98E 
 101      3CD6
 102 00c1 A3F95D9A 		.ascii	"\243\371]\232\372\233f#\\(\225\246\020\367\345\253\227"
 102      FA9B6623 
 102      5C2895A6 
 102      10F7E5AB 
 102      97
 103 00d2 231CD510 		.ascii	"#\034\325\020m\244w\244\211L&U&\0178\235h\315p\236\363"
 103      6DA477A4 
 103      894C2655 
 103      260F389D 
 103      68CD709E 
 104 00e7 DB6D3514 		.ascii	"\333m5\024KN^\226\017\317\036 \335\334K{\303x\202\036"
 104      4B4E5E96 
 104      0FCF1E20 
 104      DDDC4B7B 
 104      C378821E 
 105 00fb 2A6EC127 		.ascii	"*n\301'\317\362\021\013U\003]\255\226Sw\360\324\215"
 105      CFF2110B 
 105      55035DAD 
 105      965377F0 
 105      D48D
 106 010d 3560FBA9 		.ascii	"5`\373\251\320\232r\361&*A\230\266P;\204\"\311\364\232"
 106      D09A72F1 
 106      262A4198 
 106      B6503B84 
 106      22C9F49A 
 107 0121 88522E73 		.ascii	"\210R.s\360\221\256W\342\324.\275\035\0123\345\340\006"
ARM GAS  /tmp/cchn9INy.s 			page 8


 107      F091AE57 
 107      E2D42EBD 
 107      1D0A33E5 
 107      E006
 108 0133 A4B3AC53 		.ascii	"\244\263\254SR\251*\211\032\272\3509\367\"\010g\234"
 108      52A92A89 
 108      1ABAE839 
 108      F7220867 
 108      9C
 109 0144 62E89F01 		.ascii	"b\350\237\001\246\374k\244\217\203\273?}(=\037\324\273"
 109      A6FC6BA4 
 109      8F83BB3F 
 109      7D283D1F 
 109      D4BB
 110 0156 FED11AEF 		.ascii	"\376\321\032\357\314\365\230m\223d\216z\260:\244|\000"
 110      CCF5986D 
 110      93648E7A 
 110      B03AA47C 
 110      00
 111 0167 51C97804 		.ascii	"Q\311x\004\354\242\\\310\222\304\312^\023\241\220>\033"
 111      ECA25CC8 
 111      92C4CA5E 
 111      13A1903E 
 111      1B
 112 0178 B322D6FC 		.ascii	"\263\"\326\374\242\276\236\320\343\033z\"n\350F,\272"
 112      A2BE9ED0 
 112      E31B7A22 
 112      6EE8462C 
 112      BA
 113 0189 B916B62D 		.ascii	"\271\026\266-#d\300\017\333\227\224\215"
 113      2364C00F 
 113      DB97948D 
 114              		.text
 115              		.section	.gnu.lto_chThdRelease.2a470844e40a6679,"",%progbits
 116 0000 789CCD56 		.ascii	"x\234\315VML\023A\024\236\267\263\333\335n\201\376p"
 116      4D4C1341 
 116      149EB7B3 
 116      DBDD6E81 
 116      FE70
 117 0012 406F881E 		.ascii	"@o\210\036P\022z\325\223\007O\236$\021\022\360\006E"
 117      50127AD5 
 117      93074F9E 
 117      241112F0 
 117      0645
 118 0024 A1073401 		.ascii	"\241\0074\001/\306\003S\250B\010D$\036\032=\000Q\023"
 118      2FC60353 
 118      A8420844 
 118      241E1A3D 
 118      005113
 119 0037 E2C11F42 		.ascii	"\342\301\037B\342\017\306\254\321X\024\011\232x FMc"
 119      E20FC6AC 
 119      D1581409 
 119      9A782046 
 119      4D63
 120 0049 FCB9A9C1 		.ascii	"\374\271\251\301\304?\214\353\233\331\316\326\302F\026"
 120      C43F8CEB 
 120      9BD9CED6 
ARM GAS  /tmp/cchn9INy.s 			page 9


 120      C24616
 121 0058 B83049BF 		.ascii	"\2700I\277vg\336\367\336\373\276\231N\253\020\205,\037"
 121      7667DEF7 
 121      DEFBBE99 
 121      4EAB1085 
 121      2C1F
 122 006a 4DF8DA62 		.ascii	"M\370\332b\022R\315\037L\002\030\001\012PD\252\250\204"
 122      1252CD1F 
 122      4C021801 
 122      0A5044AA 
 122      A884
 123 007c 302588A0 		.ascii	"0%\210\240\252\212\346~\326\250\201\241\001|\351\374"
 123      AA8AE67E 
 123      D6A881A1 
 123      017CE9FC 
 124 008c 1D701274 		.ascii	"\035p\022t\201\206\300 \000\316\003\351V\250\252\005"
 124      8186C020 
 124      00CE03E9 
 124      56A8AA05 
 125 009c 742308DD 		.ascii	"t#\010\335M|\206\224W\221q\306Fr\357?g*\006rl\230\375"
 125      4D7C8694 
 125      579171C6 
 125      4672EF3F 
 125      672A0672 
 126 00b3 B16D48F2 		.ascii	"\261mH\362\245\004\220F\374\004\206xS\240\270E\207f"
 126      A5049046 
 126      FC048678 
 126      53A0B845 
 126      8766
 127 00c5 9DCDDE19 		.ascii	"\235\315\336\031\007v\232\245\276\330v\3307\215M\277"
 127      07769AA5 
 127      BED876D8 
 127      378D4DBF 
 128 00d5 AACBB0B4 		.ascii	"\252\313\260\264e\333{\375s\256N0:\306~\3336\365\337"
 128      65DB7BFD 
 128      73AE4E30 
 128      3AC67EDB 
 128      36F5DF
 129 00e8 DE68DFE5 		.ascii	"\336h\337\345\365\250\272\221=\263v\3320\373\372\256"
 129      F5A8BA91 
 129      3DB376DA 
 129      30FBFAAE 
 130 00f8 6E46AAA2 		.ascii	"nF\252\242\005N\245\303Q=9\223\023,(U\371\343\214X\267"
 130      054EA5C3 
 130      513D3993 
 130      132C2855 
 130      F9E38C58 
 131 010d B3B368FA 		.ascii	"\263\263h\372\2104]\365G+*\265\3118\326Bv\320\034N\365"
 131      88345DF5 
 131      472B2AB5 
 131      C938D642 
 131      76D01C4E 
 132 0122 33DBEEDE 		.ascii	"3\333\356\336t\315\255K\320\353\354\271\255\003c=\362"
 132      74CDAD4B 
 132      D0EBECB9 
 132      AD03633D 
 132      F2
ARM GAS  /tmp/cchn9INy.s 			page 10


 133 0133 08693E69 		.ascii	"\010i>i?\037\015U\260\302\311\013(d\007\254r\370:\200"
 133      3F1F0D55 
 133      B0C2C90B 
 133      286407AC 
 133      72F83A80 
 134 0147 5C53AC9C 		.ascii	"\\S\254\234m\337\275y\351\255\015\321r\200\016\300+"
 134      6DDFBD79 
 134      E9AD0DD1 
 134      72800EC0 
 134      2B
 135 0158 03CF2DE5 		.ascii	"\003\317-\345\240r\320H3LB\025\336\020\370\240s0\020"
 135      A072D048 
 135      334C4215 
 135      DE10F8A0 
 135      733010
 136 016b 68908389 		.ascii	"h\220\203\211\240\2068\224p(\345P\306!\314!\302!\312"
 136      A0863894 
 136      7028E550 
 136      C621CC21 
 136      C221CA
 137 017e 2146840E 		.ascii	"!F\204\016\314\225\306\223[\351$\354\310\177;p\324\013"
 137      CC95C693 
 137      5BE924EC 
 137      C87F3B70 
 137      D40B
 138 0190 6CE0B715 		.ascii	"l\340\267\025\235'\275\271{\275z3L\011\312I\362\213"
 138      9D27BDB9 
 138      7BBD7A33 
 138      4C09CA49 
 138      F28B
 139 01a2 F5B34812 		.ascii	"\365\263H\022\364\0048\355'\301p\332o\340\307\236\316"
 139      F40438ED 
 139      27C170DA 
 139      6FE0C79E 
 139      CE
 140 01b3 919E9799 		.ascii	"\221\236\227\231\305j'\276\015\224\032\262\013\325_"
 140      C56A27BE 
 140      0D941AB2 
 140      0BD55F
 141 01c2 20E75170 		.ascii	" \347Qp\260\015\200\013w\034kq\345#\347\361u]Rh\033"
 141      B00D800B 
 141      771C6B71 
 141      E523E7F1 
 141      755D5268 
 142 01d7 2F3C477A 		.ascii	"/<Gz\373\251\234Rq\226\023\00368\341\373\235\225\032"
 142      FBA99C52 
 142      71961303 
 142      3638E1FB 
 142      9D951A
 143 01ea 7285E108 		.ascii	"r\205\341\010\255R\241\215?\363\306n-Z sjy\362\236U"
 143      AD52A18D 
 143      3FF3C66E 
 143      2D5A2073 
 143      6A79F29E 
 144 01ff DBE3163C 		.ascii	"\333\343\026<y\340i\201R\260`\206<\374x\177\264\317"
 144      79E06981 
 144      52B06086 
ARM GAS  /tmp/cchn9INy.s 			page 11


 144      3CFC787F 
 144      B4CF
 145 0211 ED596B74 		.ascii	"\355Ykt.\234\302h\340\231\205A\317b2* \3741\275\033"
 145      2E9CC268 
 145      E0998541 
 145      CF62322A 
 145      20FC31BD 
 146 0226 90749E3A 		.ascii	"\220t\236:u\302\245\210\304\341\242\304\232t\376\333"
 146      75C2A588 
 146      C4E1A2C4 
 146      9A74FEDB 
 147 0236 0F57A02E 		.ascii	"\017W\240.R\207\274S\313\237*$}\352\375\340r\014\244"
 147      5287BC53 
 147      CB9F2A24 
 147      7DEAFDE0 
 147      720CA4
 148 0249 09EFA75D 		.ascii	"\011\357\247]\035\31048\223\342\356\222\247$mi\356\312"
 148      1DC83438 
 148      93E2EE92 
 148      A7246D69 
 148      EECA
 149 025b 10194CA5 		.ascii	"\020\031L\245\231\265\250'\241\204'k\315\247\315\317"
 149      99B5A827 
 149      A184276B 
 149      CDA7CDCF 
 150 026b 4FF17941 		.ascii	"O\361yA\005\261H\377]|\341.*bQ-\322\203\277\177t\226"
 150      05B148FF 
 150      5D7CE12E 
 150      2A62512D 
 150      D283BF7F 
 151 0281 A40CA794 		.ascii	"\244\014\247\224\240\012y\337w\313\342\246P\247z\253"
 151      A00A79DF 
 151      77CBE2A6 
 151      50A77AAB 
 152 0291 A3057587 		.ascii	"\243\005u\207$!\364?\202Z \270G\253(\332\\\031\215)"
 152      2421F43F 
 152      825A20B8 
 152      47AB28DA 
 152      5C198D29 
 153 02a5 8B2B94F8 		.ascii	"\213+\224\370\254\340\022J}j\360n\251de4\246\344\307"
 153      ACE0124A 
 153      7D6AF06E 
 153      A9646534 
 153      A6E4C7
 154 02b8 359D7B73 		.ascii	"5\235{s\321\\q\\K\023n\024\022\313\244\325\3722\253"
 154      D15C715C 
 154      4B136E14 
 154      12CBA4D5 
 154      FA32AB
 155 02cb F35F95CC 		.ascii	"\363_\225\314\222ku\331Z\255\016o\310\3522/\253\303"
 155      926B75D9 
 155      5AAD0E6F 
 155      C8EA322F 
 155      ABC3
 156 02dd C515226B 		.ascii	"\305\025\"k\265:\272!\253#^VG\035\243\026\226r\212\254"
 156      B53ABA21 
 156      AB235E56 
ARM GAS  /tmp/cchn9INy.s 			page 12


 156      471DA316 
 156      96728AAC 
 157 02f1 12133CCD 		.ascii	"\022\023<\315\273\212\226\2572ONY;W\354N8\341j\215\211"
 157      BB8A96AF 
 157      324F4E59 
 157      3B57EC4E 
 157      38E16A8D 
 158 0306 0D8AC80D 		.ascii	"\015\212\310\0152\226m\220\"\027\360\357 }NR9{\273\314"
 158      32966D90 
 158      2217F0EF 
 158      207D4E52 
 158      397BBBCC 
 159 031a E68C7A7E 		.ascii	"\346\214z~q\360\250m\265\265\361}\355\311\226\344\201"
 159      71F0A86D 
 159      B5B5F17D 
 159      EDC996E4 
 159      81
 160 032b 83F1635D 		.ascii	"\203\361c]\361\316\343\361\256\316D<\321\336z\342hs"
 160      F1CEE3F1 
 160      AECE443C 
 160      D1DE7AE2 
 160      6873
 161 033d 4732519B 		.ascii	"G2Q\233 j\347\341#]\177\001\230=\011{"
 161      206AE7E1 
 161      235D7F01 
 161      983D097B 
 162              		.text
 163              		.section	.gnu.lto_chThdCreateFromHeap.2a470844e40a6679,"",%progbits
 164 0000 789C8D52 		.ascii	"x\234\215RKk\024A\020\376\252\273g\237\361q\360\340"
 164      4B6B1441 
 164      10FEAABB 
 164      679FF171 
 164      F0E0
 165 0012 DE62F0E0 		.ascii	"\336b\360\340\003v~\204?\300\203\006\342q\323\201I\037"
 165      03767E84 
 165      3FC08306 
 165      E271D381 
 165      491F
 166 0024 A2211B10 		.ascii	"\242!\033\020\361\22061 !H\360$1\007\025\021\024q\275"
 166      F1903631 
 166      202148F0 
 166      24310715 
 166      111471BD 
 167 0038 B9084204 		.ascii	"\271\010B\004\005\215J\360\024$D\347\262\370\013\304"
 167      058D4AF0 
 167      142444E7 
 167      B2F80BC4 
 168 0048 07EA5AD5 		.ascii	"\007\352Z\325\263/4\240\005SS]\365}]U\337\214\202\302"
 168      B32F34A0 
 168      0553535D 
 168      F57D5D55 
 168      DF8C82C2 
 169 005c 9F16F3B3 		.ascii	"\237\026\363\263\303\351cr\310\2018$\2454\340\225ag"
 169      C3E96372 
 169      C8813824 
 169      A534E095 
 169      6167
ARM GAS  /tmp/cchn9INy.s 			page 13


 170 006e 34459C31 		.ascii	"4E\2341\301GD\014\"\314)m\"\232;#'\350\021\334\362~"
 170      C147440C 
 170      22CC296D 
 170      229A3B23 
 170      27E811DC 
 171 0084 356D35EE 		.ascii	"5m5\356U\226n\316\257\370_\35569)Y\302\030G4\034^r\335"
 171      55966ECE 
 171      AFF85FED 
 171      36392959 
 171      C2184734 
 172 009c A005DAB5 		.ascii	"\240\005\332\265\365\317\033\313\025\337\247i\205\303"
 172      F5CF1BCB 
 172      15DFA769 
 172      85C3
 173 00aa F47FCC2F 		.ascii	"\364\177\314/\033W\007\231\274\333\221\1771\033j=m\267"
 173      1B570799 
 173      BCDB917F 
 173      311B6A3D 
 173      6DB7
 174 00bc D7B61E2D 		.ascii	"\327\266\036-?\240\207\252L\020\032M\0214;2\250\321"
 174      3FA087AA 
 174      4C101A4D 
 174      11343B32 
 174      A8D1
 175 00ce 6D1A4124 		.ascii	"m\032A$\351\034gT\236\235.\2603E\256\335\341Z\011a5"
 175      E91C6754 
 175      9E9D2EB0 
 175      3345AEDD 
 175      E15A0961 
 176 00e3 C65CF67E 		.ascii	"\306\\\366~e8#d\245\2600\333\351\340GEI\275\211\305"
 176      65382364 
 176      A5B030DB 
 176      E9E04745 
 176      49BD89C5 
 177 00f7 F4698B6A 		.ascii	"\364i\213jt\227\005L\310\\\304w\177\305\357wdl\320\022"
 177      7497054C 
 177      C85CC477 
 177      7FC5EF77 
 177      646CD012 
 178 010b 9C540969 		.ascii	"\234T\011i'\372\276\304\363O\317~.\351\036ZV\320\203"
 178      27FABEC4 
 178      F34FCF7E 
 178      2EE91E5A 
 178      56D083
 179 011e F38FCA51 		.ascii	"\363\217\312Q\277\305|\363k\343h\027\026\215erw!&\364"
 179      BFC57CF3 
 179      6BE36817 
 179      168D6572 
 179      772126F4 
 180 0132 5D48B717 		.ascii	"]H\267\027\363\031\004\350\265\315Y\312~\001Gy`\023"
 180      F31904E8 
 180      B5CD59CA 
 180      7E014779 
 180      6013
 181 0144 D7FD9BED 		.ascii	"\327\375\233\355\203\335\213\212=X\301v\372\362\020"
 181      83DD8B8A 
 181      3D58C176 
ARM GAS  /tmp/cchn9INy.s 			page 14


 181      FAF210
 182 0153 3C5D42B9 		.ascii	"<]B\271\204\362\011\025\034\025\001i\337|\374\255\263"
 182      84F20915 
 182      1C150169 
 182      DF7CFCAD 
 182      B3
 183 0164 D471DCF7 		.ascii	"\324q\334\367leG\245\033X\345I\312|Q\177\242\361\316"
 183      6C6547A5 
 183      1B58E549 
 183      CA7C517F 
 183      A2F1CE
 184 0177 5B324312 		.ascii	"[2C\022\213\"\037Z\177O\266\307\222\351\264\014\364"
 184      8B221F5A 
 184      7F4FB6C7 
 184      92E9B40C 
 184      F4
 185 0188 BD32E33E 		.ascii	"\2752\343>\301/\244\037_\354\272I\324\337\204gz\325"
 185      C12FA41F 
 185      5FECBA49 
 185      D4DF8467 
 185      7AD5
 186 019a 7C52E96E 		.ascii	"|R\351nRJd\320L\016F\351\327\270T\000&$~\027\302$S\377"
 186      524A64D0 
 186      4C0E46E9 
 186      D7B85400 
 186      26247E17 
 187 01b2 3D88F5D3 		.ascii	"=\210\365\323?\266\0160\307\254\355\014\311\327\343"
 187      3FB60E30 
 187      C7ACED0C 
 187      C9D7E3
 188 01c1 8A6874A8 		.ascii	"\212ht\250Z\215OL\272qw\362T|\256\036\317\314\306\365"
 188      5A8D4F4C 
 188      BA7177F2 
 188      547CAE1E 
 188      CFCCC6F5 
 189 01d5 191BDBC9 		.ascii	"\031\033\333\311\211\013gkS\316V-\364\371\372\264\232"
 189      890B676B 
 189      53CE562D 
 189      F4F9FAB4 
 189      9A
 190 01e6 9DFE0DF1 		.ascii	"\235\376\015\361\311\253m"
 190      C9AB6D
 191              		.text
 192              		.section	.gnu.lto_chThdCreateFromMemoryPool.2a470844e40a6679,"",%progbits
 193 0000 789C8D52 		.ascii	"x\234\215R\315KTQ\024?\347~\2747\343XY\266\231\235I"
 193      CD4B5451 
 193      143FE77E 
 193      BC37E358 
 193      59B6999D 
 194 0015 8B5298D9 		.ascii	"\213R\230\331\365\017\364\007\264(\301\2263Oxs\027S"
 194      F50FF407 
 194      B428C196 
 194      334F7873 
 194      1753
 195 0027 E208212D 		.ascii	"\342\010!-\274~D\021j\022\024\203m\212\220\250\026m"
 195      BC7E4411 
 195      6A121483 
ARM GAS  /tmp/cchn9INy.s 			page 15


 195      6D8A90A8 
 195      166D
 196 0039 67131904 		.ascii	"g\023\031\004%\342H\273&\\\274h1\0137\241\024}@\323"
 196      25E248BB 
 196      265CBC68 
 196      310B37A1 
 196      147D40D3 
 197 004d 39EF631C 		.ascii	"9\357c\034S\320\013\357\274{\317\375\375\316\307\357"
 197      53D00BEF 
 197      BC7BCFFD 
 197      FDCEC7EF 
 198 005d 5C0102FE 		.ascii	"\\\001\002\376_\027\350\233\227\000\003|p\001\011\201"
 198      5F17E89B 
 198      9700037C 
 198      70010981 
 199 006d 02C98152 		.ascii	"\002\311\201R(\000+4\031\245\320!\217\016\255\203HP"
 199      28002B34 
 199      19A5D021 
 199      8F0EAD83 
 199      4850
 200 007f 84492195 		.ascii	"\204I!\225vp\362*\037A\367\303\023k\227\202\345\255"
 200      7670F22A 
 200      1F41F7C3 
 200      136B9782 
 200      E5AD
 201 0091 E7D9BB8F 		.ascii	"\347\331\273\217\247\027\355\337V\013\015_y\010\303"
 201      A717EDDF 
 201      560B0D5F 
 201      7908C3
 202 00a0 B4C3BEF0 		.ascii	"\264\303\276\360\307A;WH\273\277\362\340\336\303N\232"
 202      C7413B57 
 202      48BBBFF2 
 202      E0DEC34E 
 202      9A
 203 00b1 3C22ED75 		.ascii	"<\"\355u}.kwiJ\300Y<\032\363M}\241\223I\312\234;\214"
 203      7D2E6B77 
 203      694AC059 
 203      3C1AF34D 
 203      7DA19349 
 204 00c9 59467825 		.ascii	"YFx%V\202Vks\347\333\327\006\366f\020\230\210e\244z"
 204      5682566B 
 204      73E7DBD7 
 204      06F66610 
 204      988865A4 
 205 00de 0BF814FB 		.ascii	"\013\370\024\373A\261G\223\221\016\271\205KF\246\310"
 205      41B14793 
 205      910EB985 
 205      4B46A6C8 
 206 00ee A8340196 		.ascii	"\2504\001\226\011\320\005&\222\013f\255]\354\213X\321"
 206      09D00526 
 206      920B66AD 
 206      5DEC8B58 
 206      D1
 207 00ff 5539168B 		.ascii	"U9\026\213\326\225\330\3220\344\020\213!7`6x\331\304"
 207      D695D8D2 
 207      30E4108B 
 207      21376036 
ARM GAS  /tmp/cchn9INy.s 			page 16


 207      78D9C4
 208 0112 023E430D 		.ascii	"\002>C\015>\312\233\360\333\336\261=\006\265\027\216"
 208      3ECA9BF0 
 208      DBDEB13D 
 208      06B5178E 
 209 0122 03C8290C 		.ascii	"\003\310)\014\317\347\003\274k\276m,\3106\224[\331\323"
 209      CFE703BC 
 209      6BBE6D2C 
 209      C836945B 
 209      D9D3
 210 0134 C9101FE5 		.ascii	"\311\020\037\345:L\327j[\347\023\230\032\216\246\225"
 210      3A4CD76A 
 210      5BE71398 
 210      1A8EA695 
 211 0144 40749874 		.ascii	"@t\230t&X\275\355F\020\200vN\327\303\350!\031L\001P"
 211      2658BDED 
 211      46108076 
 211      4ED7C3E8 
 211      21194C01 
 212 0159 A0CF9FB6 		.ascii	"\240\317\237\266\277\210$\222\036\204\001\203\351G\260"
 212      BF882492 
 212      1E840183 
 212      E947B0
 213 0168 3465AD9D 		.ascii	"4e\255\2350\330E\245q\364L\310)\266\263l@\325\226\022"
 213      30D845A5 
 213      71F44CC8 
 213      29B6B36C 
 213      40D59612 
 214 017c 56BA1DBD 		.ascii	"V\272\035\275\333\343\216\303\216$E\363\321\361\321"
 214      DBE38EC3 
 214      8E2445F3 
 214      D1F1D1
 215 018b F53165F0 		.ascii	"\3651e\360X\230\254\366s\373W,\304 \274\240\0246c\360"
 215      5898ACF6 
 215      73FB572C 
 215      C420BCA0 
 215      143663F0 
 216 019f 38A5A314 		.ascii	"8\245\243\024'(\320n#\305X\032\366\364p\305\304^\253"
 216      2728D06E 
 216      23C5581A 
 216      F6F470C5 
 216      C45EAB
 217 01b2 EEEC67AB 		.ascii	"\356\354g\253\203\331\"\021\226k\275\025\2547\367Kq"
 217      83D92211 
 217      966BBD15 
 217      AC37F74B 
 217      71
 218 01c3 D28BB58D 		.ascii	"\322\213\265\215\251\247X\224^\306\317\004\365\367\007"
 218      A9A75894 
 218      5EC6CF04 
 218      F5F707
 219 01d2 4AA7F748 		.ascii	"J\247\367H\267Z\375\221M4 \241\322\211\3764I\271\006"
 219      B75AFD91 
 219      4D3420A1 
 219      D289FE34 
 219      49B906
 220 01e5 53041A61 		.ascii	"S\004\032a\306\307p\353G\0155\000i`j\363\373i\342\350"
ARM GAS  /tmp/cchn9INy.s 			page 17


 220      C6C770EB 
 220      470D3500 
 220      69606AF3 
 220      FB69E2E8 
 221 01f9 B93FDDFC 		.ascii	"\271?\335\374V\350\206\353=\223\313\345/\226L\321\\"
 221      56E886EB 
 221      3D93CBE5 
 221      2F964CD1 
 221      5C
 222 020a BA9CBF5E 		.ascii	"\272\234\277^\311\217\215\347+c^\336+\215L\\+\224\215"
 222      C98F8DE7 
 222      2B635EDE 
 222      2B8D4C5C 
 222      2B948D
 223 021d 97F340DE 		.ascii	"\227\363@\336\250\214\212\361\321\177\312b\321\345"
 223      A88C8AF1 
 223      D17FCA62 
 223      D1E5
 224              		.text
 225              		.section	.gnu.lto_.symbol_nodes.2a470844e40a6679,"",%progbits
 226 0000 789C4DCD 		.ascii	"x\234M\315;\216\3020\024\205\341s\256IL\022X\003;\033"
 226      3B8EC230 
 226      1485E173 
 226      AE494C12 
 226      58033B1B 
 227 0014 8995DC88 		.ascii	"\211\225\334\210H\243H\024\320\260\001(`\035C?\345\324"
 227      48A34814 
 227      D0B00128 
 227      601D433F 
 227      E5D4
 228 0026 404DC343 		.ascii	"@M\303Cb\304\333y\010\333\315\257\357\372\312\026\010"
 228      62C4DB79 
 228      08DBCDAF 
 228      EFFACA16 
 228      08
 229 0037 BE88E6C8 		.ascii	"\276\210\346\310\013\012L\177\001\325Y9\224\234\312"
 229      0B0A4C7F 
 229      01D55939 
 229      949CCA
 230 0046 804BAA04 		.ascii	"\200K\252\004\\QM\300\003\265\323\362\257\244\034\251"
 230      5C514DC0 
 230      03B5D3F2 
 230      AFA41CA9 
 231 0056 51C01335 		.ascii	"Q\300\0235\016x\246ZO\376S\273\015\363\234\274P\023"
 231      0E78A65A 
 231      4FFE53BB 
 231      0DF39CBC 
 231      5013
 232 0068 AF3B35F5 		.ascii	"\257;5\365\272Q3\257+\265\347\365\240\366?2\002\214"
 232      BA5133AF 
 232      2BB5E7F5 
 232      A0F63F32 
 232      028C
 233 007a 364F1AC3 		.ascii	"6O\032\303\246\035ik0\337\272F\255#\203\237\332\011"
 233      A61D696B 
 233      30DFBA46 
 233      AD23839F 
ARM GAS  /tmp/cchn9INy.s 			page 18


 233      DA09
 234 008c 16E3FDC0 		.ascii	"\026\343\375\300D]\254'\256q\017Eu\037\013vu3\024\325"
 234      445DAC27 
 234      AE710F45 
 234      751F0B76 
 234      753314D5 
 235 00a0 5E9C625D 		.ascii	"^\234b]\327`W\325\366\233=\333\356\331\014\213z\236"
 235      D76057D5 
 235      F69B3DDB 
 235      EED90C8B 
 235      7A9E
 236 00b2 A2F876EF 		.ascii	"\242\370v\357X\367\237+\336\307Rp\350"
 236      58F79F2B 
 236      DEC75270 
 236      E8
 237              		.text
 238              		.section	.gnu.lto_.refs.2a470844e40a6679,"",%progbits
 239 0000 789C6362 		.ascii	"x\234cb`b`d\200\002\000\000F\000\006"
 239      60626064 
 239      80020000 
 239      460006
 240              		.text
 241              		.section	.gnu.lto_.decls.2a470844e40a6679,"",%progbits
 242 0000 789CBD5B 		.ascii	"x\234\275[{t\024U\232\257[\235N\247\223\006\242\216"
 242      7B741455 
 242      9AAF5B9D 
 242      4EA79306 
 242      A28E
 243 0012 4EF4F868 		.ascii	"N\364\370h\347\2143\2633\207\004\021\021=g\007]v\035"
 243      E78C33B3 
 243      33870411 
 243      113D6707 
 243      5D761D
 244 0025 3C67DDF1 		.ascii	"<g\335\361\310xf\377\353):E\272\307\364c\272+\004\366"
 244      C87866FF 
 244      EB293A45 
 244      BAC7F463 
 244      BA2B04F6 
 245 0039 1F2B1DC8 		.ascii	"\037+\035\310\0108\021\010\011\240\021\242(\210\017"
 245      08381108 
 245      09A011A2 
 245      28880F
 246 0048 6240810C 		.ascii	"b@\201\014jJ\036\341\035\010\362r\015$\032\030\226\225"
 246      6A4A1EE1 
 246      1D08F272 
 246      0D241A18 
 246      9695
 247 005a 15326830 		.ascii	"\0252h02\322\373\335[\217\256\272]U]\035\306\251sn\325"
 247      32D2FBDD 
 247      5B8FAEBA 
 247      5D555D1D 
 247      C6A9736E 
 248 006f ADAA7B7F 		.ascii	"\255\252{\177\367{\335\357\373\356\255n\226a\231g]\014"
 248      F77BDDEF 
 248      FBEEAD6E 
 248      96619967 
 248      5D0C
ARM GAS  /tmp/cchn9INy.s 			page 19


 249 0081 9386E3B6 		.ascii	"\223\206\343\266\207\030\246\337\3030^\206a~\311d\216"
 249      8718A6DF 
 249      C3305E86 
 249      617EC964 
 249      8E
 250 0092 B1505E86 		.ascii	"\261P^\206\262\026\312z(oAi\207\022G\0143\033\312V("
 250      B216CA7A 
 250      286F4169 
 250      8712470C 
 250      331BCA56 
 251 00a7 27A0F441 		.ascii	"'\240\364A9\015e\020\312\027P.!&\353\3008n(\222\202"
 251      390D6510 
 251      CA17502E 
 251      2126EBC0 
 251      386E2892 
 252 00bc EB83F215 		.ascii	"\353\203\362\025\264\033V\332\262J\233oL\372\256u\320"
 252      B41B56DA 
 252      B24A9B6F 
 252      4CFAAE75 
 252      D0
 253 00cd 77AD45DF 		.ascii	"w\255E\337\365\312{\004\247W\230L\373\365\312x\364\201"
 253      F5CA7B04 
 253      A757984C 
 253      FBF5CA78 
 253      F481
 254 00df 792C84D2 		.ascii	"y,\204\322\241\033\313c\322\377-eL<$\313\0321\260\214"
 254      A11BCB63 
 254      D2FF2D65 
 254      4C3C24CB 
 254      1A31B08C 
 255 00f3 8A94772A 		.ascii	"\212\224w*F\207\016c\034\274\330\250\276\207\223K\351"
 255      46870E63 
 255      1CBCD8A8 
 255      BE87934B 
 255      E9
 256 0104 A3CA18DF 		.ascii	"\243\312\030\337\027A\333\010\274+\246\260\261\354o"
 256      1741DB08 
 256      BC2BA6B0 
 256      B1EC6F
 257 0113 A0B00B14 		.ascii	"\240\260\013\024\374\251\012\266:\016\036#\015\245\030"
 257      FCA90AB6 
 257      3A0E1E23 
 257      0DA518
 258 0122 C97A7D13 		.ascii	"\311z}\023\256\353\240\224\300\373\223H\346\023\217"
 258      AEEBA094 
 258      C0FB9348 
 258      E6138F
 259 0131 7F0DAE5E 		.ascii	"\177\015\256^\270\236\207\3539(a$\313\033\217\245\322"
 259      B89E87EB 
 259      39286124 
 259      CB1B8FA5 
 259      D2
 260 0142 D4A7E81A 		.ascii	"\324\247\350\032?\367A\177\001\323\001\327\033\241\334"
 260      3FF7417F 
 260      01D301D7 
 260      1BA1DC
 261 0151 44D1886D 		.ascii	"D\321\210m\243\224\222!\246\355\007\320\356\202\216"
ARM GAS  /tmp/cchn9INy.s 			page 20


 261      A3949221 
 261      A6ED07D0 
 261      EE828E
 262 0160 BE9BE17A 		.ascii	"\276\233\341z\006\311\364\251\362\270\205\225\351\352"
 262      06C9F4A9 
 262      F2B88595 
 262      E9EA
 263 016e 47F2BD57 		.ascii	"G\362\275W\241s\266b[\230\236A\305\336T]m\200\372;P"
 263      A173B662 
 263      5B989E41 
 263      C5DE545D 
 263      6D80FA3B 
 264 0183 3AA06C82 		.ascii	":\240l\202\362\036\224\037R4a[\375\001E\223[\241\253"
 264      F21E941F 
 264      5234615B 
 264      FD014593 
 264      5BA1AB
 265 0196 0CDA0EE9 		.ascii	"\014\332\016\351\350\232\007\365\367\241lC\271i\304"
 265      E89A07F5 
 265      F7A16C43 
 265      B969C4
 266 01a5 BADA8B64 		.ascii	"\272\332\213d:\303\012\255[\2259`F\353\255\320\267\027"
 266      3AC30AAD 
 266      5B953960 
 266      46EBADD0 
 266      B717
 267 01b7 EE3F8672 		.ascii	"\356?\206r\024\3121(wR\264\336\305\254\022\245\303\003"
 267      14CA3128 
 267      7752B4DE 
 267      C5AC12A5 
 267      C303
 268 01c9 F3FF32C8 		.ascii	"\363\3772\310\256\024\245y\"LQ\021\371oa\232E8\332\032"
 268      AE14A579 
 268      224C5111 
 268      F96F619A 
 268      4538DA1A 
 269 01dd 4411091C 		.ascii	"D\021\011\034\372\345\315\314\177\"\016\215\3652~R\361"
 269      FAE5CDCC 
 269      7F220E8D 
 269      F5327E52 
 269      F1
 270 01ee 79891D30 		.ascii	"y\211\0350\014\207^A\267(\265\247\\2\"\313\224#\346"
 270      0C875E41 
 270      B728B5A7 
 270      5C3222CB 
 270      9423E6
 271 0201 E7CC7AE8 		.ascii	"\347\314z\350\277X\024Sw2f\307O\230\327\360\000\342"
 271      BF581453 
 271      773266C7 
 271      4F98D7F0 
 271      00E2
 272 0213 EBA28BC0 		.ascii	"\353\242\213\300c\200\227\321]\372&\034Z\203\014\304"
 272      638097D1 
 272      5DFA261C 
 272      5A830CC4 
 273 0223 CAA44A8B 		.ascii	"\312\244J\213\373}\213\353\006\322\351\325m\245\362"
 273      FB7D8BEB 
ARM GAS  /tmp/cchn9INy.s 			page 21


 273      06D2E9D5 
 273      6DA5F2
 274 0232 F02C3315 		.ascii	"\360,3\025A\353W\321\317m\341\327\322\360\353\314\340"
 274      41EB57D1 
 274      CF6DE1D7 
 274      D2F0EBCC 
 274      E0
 275 0243 0736379C 		.ascii	"\00767\234r\353$\241\016\021q2\304zz\2107L9h=\221\305"
 275      72EB24A1 
 275      0E117132 
 275      C47A7A88 
 275      374C3968 
 276 025a 41AD13F8 		.ascii	"A\255\023\370\267h\370\267\263\341\333\244\201\345\013"
 276      B768F8B7 
 276      B3E1DBA4 
 276      81E50B
 277 0269 BB3BD092 		.ascii	"\273;\320\222zq\217x)\235\036Wj\320e\011\263\020t\202"
 277      7A718F78 
 277      299D1E57 
 277      6AD06509 
 277      B3107482 
 278 027d 6FA6EF19 		.ascii	"o\246\357\031{#\263\004\277\361\357\001#U\364\333V\240"
 278      7B23B304 
 278      BFF1EF01 
 278      2355F4DB 
 278      56A0
 279 028f 2AF85F01 		.ascii	"*\370_\001\360\036\346UP\342\300\213\373\273\036\022"
 279      F01EE655 
 279      50E2C08B 
 279      FBBB1E12 
 280 029f C5220E6D 		.ascii	"\305\"\016mD7\002\255\007\220\221\330\2340,X\036\356"
 280      443702AD 
 280      079091D8 
 280      9C302C58 
 280      1EEE
 281 02b1 F21E7497 		.ascii	"\362\036t\227;\022`q \335\270\253\036\325\001]\362;"
 281      3B126071 
 281      20DDB8AB 
 281      1ED5015D 
 281      F23B
 282 02c3 869281EE 		.ascii	"\206\222\201\356\270\233i\003\272\245\345\215/\335*"
 282      B89B6903 
 282      BAA5E58D 
 282      2FDD2A
 283 02d2 B66D87F6 		.ascii	"\266m\207\366\035\250\004pS\254\212kf\237JU>\224\006"
 283      1DA80470 
 283      53AC8A6B 
 283      669F4A55 
 283      3E9406
 284 02e5 46BC177A 		.ascii	"F\274\027z|\2139\025lA\336`~\003\330\352\236VB\234\227"
 284      7C8B3915 
 284      6C41DE60 
 284      7E03D8EA 
 284      9E56429C 
 285 02fa 79362363 		.ascii	"y6#c\306\024L\021l\357\322\235\275\250\236\360\377\001"
 285      C6144C11 
 285      6CEFD29D 
ARM GAS  /tmp/cchn9INy.s 			page 22


 285      BDA89EF0 
 285      FF01
 286 030c 746399DD 		.ascii	"tc\231\335\254Q\264\316\241\272Zv}\204R\004J\"P;\\\243"
 286      AC51B4CE 
 286      A1BA5A76 
 286      7D845204 
 286      4A22503B 
 287 0322 85EA5CF5 		.ascii	"\205\352\\\365\376\203D\335;\010Po\201\021\210C\036"
 287      FE8344DD 
 287      3B08506F 
 287      81118843 
 287      1E
 288 0333 4D8CDABD 		.ascii	"M\214\332\275\332\000\243\221\327J\005\207\374q\314"
 288      DA00A391 
 288      D74A0587 
 288      FC71CC
 289 0342 F7DC9C65 		.ascii	"\367\334\234e\372\012\034\250\256\310\312\016\304\201"
 289      FA0A1CA8 
 289      AEC8CA0E 
 289      C481
 290 0350 6B8D075C 		.ascii	"k\215\007\\x\322\273\024[n+\264\222\021\313\014\222"
 290      78D2BB14 
 290      5B6E2BB4 
 290      9211CB0C 
 290      92
 291 0361 B1F6D0B6 		.ascii	"\261\366\320\266\274\345\334\236\177Z!\212\245\362\253"
 291      BCE5DC9E 
 291      7F5A218A 
 291      A5F2AB
 292 0370 DCA6FCDE 		.ascii	"\334\246\374\336\276\345\304Zr\316HV\035\376\307d\370"
 292      BEE5C45A 
 292      72CE4856 
 292      1DFEC764 
 292      F8
 293 0381 26371EFE 		.ascii	"&7\036\376 =\374k\351\217\020Q\332AG\243\367\036Y\226"
 293      203DFC6B 
 293      E98F1051 
 293      DA4147A3 
 293      F71E5996 
 294 0395 3DBAA5A3 		.ascii	"=\272\245\243W\014c\313\271\377\271}5a\261\227L\230"
 294      570C63CB 
 294      B9FFB97D 
 294      3561B197 
 294      4C98
 295 03a7 D56EDA32 		.ascii	"\325n\3322\246\226\030u\007\367\272\006,\363\272F\374"
 295      A6961875 
 295      07F7BA06 
 295      2CF3BA46 
 295      FC
 296 03b8 A8E6EBC0 		.ascii	"\250\346\353\300ko\354#a\312\245\222\360f\336\200~\203"
 296      6B6FEC23 
 296      61CAA592 
 296      F066DE80 
 296      7E83
 297 03ca 1C8E1E21 		.ascii	"\034\216\036!\016@\006\333\340\004\314\322\212R\322"
 297      0E4006DB 
 297      E004CCD2 
ARM GAS  /tmp/cchn9INy.s 			page 23


 297      8A52D2
 298 03d9 713D5847 		.ascii	"q=XG\336`F\312N\352\301\336u\002VjM\331\177\353\301"
 298      DE6046CA 
 298      4EEAC1DE 
 298      7502566A 
 298      4DD97FEB 
 299 03ee B6E40D66 		.ascii	"\266\344\015f\244\254O\017\366g'`e\326\224\235\326\203"
 299      A4AC4F0F 
 299      F6672760 
 299      65D6949D 
 299      D683
 300 0400 7D983798 		.ascii	"}\2307\230\221\262Kz\260\355N\300\374&\224i\207U\316"
 300      91B24B7A 
 300      B0ED4EC0 
 300      FC269469 
 300      8755CE
 301 0413 73006966 		.ascii	"s\000if\3162\273\334\252;\310\323\244\231\014\306^w"
 301      CE32BBDC 
 301      AA3BC8D3 
 301      A4990CC6 
 301      5E77
 302 0425 BEEECBC0 		.ascii	"\276\356\313\3007\304\321\203kP\023D\374\011j,;\344"
 302      37C4D183 
 302      6B501344 
 302      FC096A2C 
 302      3BE4
 303 0437 04D1C660 		.ascii	"\004\321\306`6\353\003\343\211\274\301\214j9\212\301"
 303      36EB03E3 
 303      89BCC18C 
 303      6A398AC1 
 304 0447 0C9E4609 		.ascii	"\014\236F\011F\003\257Ie+2\256\256H\305\302\211\257"
 304      4603AF49 
 304      652B32AE 
 304      AE48C5C2 
 304      89AF
 305 0459 ECD72083 		.ascii	"\354\327 \203d\265\306bY\231y[\016}\211\356\201\363"
 305      64B5C662 
 305      5999795B 
 305      0E7D89EE 
 305      81F3
 306 046b 45E4D5A8 		.ascii	"E\344\325\250\220\353j-\215\260\234\373\335&\2536Y\247"
 306      90EB6A2D 
 306      8DB09CFB 
 306      DD26AB36 
 306      59A7
 307 047d F65DAD2C 		.ascii	"\366]\255,\341\202\336\022\3168\021\223\315T\270d%&"
 307      E182DE12 
 307      CE381193 
 307      CD54B864 
 307      2526
 308 048f A9417C16 		.ascii	"\251A|\026\325u\334\256\365{Xo\023\031\347|\307\033"
 308      D575DCAE 
 308      F57B586F 
 308      1319E77C 
 308      C71B
 309 04a1 C4397F45 		.ascii	"\3049\177E\302\366\027n\323\370\357\010\253\253\345"
 309      C2F6176E 
ARM GAS  /tmp/cchn9INy.s 			page 24


 309      D3F8EF08 
 309      ABABE5
 310 04b0 909A4C5C 		.ascii	"\220\232L\\!`\303\243\007k\353<}\273X\300\241o\011P"
 310      2160C3A3 
 310      076BEB3C 
 310      7DBB58C0 
 310      A16F0950 
 311 04c4 3A2B6478 		.ascii	":+dx\251d\302k\014\367^o\246\222V\017\243\026\277\327"
 311      A964C26B 
 311      0CF75E6F 
 311      A692560F 
 311      A316BFD7 
 312 04d8 3E569ABF 		.ascii	">V\232\277\254\327\374\302\302|5o\230 \003\327zN\273"
 312      ACD7FCC2 
 312      C27C356F 
 312      982003D7 
 312      7A4EBB
 313 04eb 968B529D 		.ascii	"\226\213R\235Kg\352\266\363\002R\307#\037\3763\211\367"
 313      4B67EAB6 
 313      F30252C7 
 313      231FFE33 
 313      89F7
 314 04fd 6922D7E6 		.ascii	"i\"\327\346BS\0059\000\352jy\373\027\004(\305b\240U"
 314      42530539 
 314      00EA6A79 
 314      FB170428 
 314      C562A055 
 315 0511 A306EA5C 		.ascii	"\243\006\352\\\265j\012\001\232O\200\326\026\322\232"
 315      B56A0A01 
 315      9A4F80D6 
 315      16D29A
 316 0520 4694A691 		.ascii	"F\224\246\221Q\003\332\244S\346\334\367\325\226e\336"
 316      5103DAA4 
 316      53E6DCF7 
 316      D59665DE 
 317 0530 A1D56560 		.ascii	"\241\325e`\307&2\250\356\266\347L\023\272\234\022WL"
 317      C72632A8 
 317      EEB6E74C 
 317      13BA9C12 
 317      574C
 318 0542 C8435F4B 		.ascii	"\310C_K\025}-$\322\331\232%\035,\376\374\330\220\362"
 318      157D2D24 
 318      D2D99A25 
 318      1D2CFEFC 
 318      D890F2
 319 0555 66A3C8C8 		.ascii	"f\243\310\310F\343\271Q\260\321%\263\361<ac\317\337"
 319      46E3B951 
 319      B0D125B3 
 319      F13C6163 
 319      CFDF
 320 0567 818DC379 		.ascii	"\201\215\303y\263Q\252c\003\026\221=W\226\311\301\357"
 320      B351AA63 
 320      0316913D 
 320      5796C9C1 
 320      EF
 321 0578 2666A97D 		.ascii	"&f\251}\362\216\351Y\306\336d\310\234\245\257\017\341"
 321      F28EE959 
ARM GAS  /tmp/cchn9INy.s 			page 25


 321      C6DE64C8 
 321      9CA5AF0F 
 321      E1
 322 0589 553E7E9C 		.ascii	"U>~\234+m\026\245\246#\272%\236\350h\211wD[\342-'\""
 322      2B6D16A5 
 322      A623BA25 
 322      9EE86889 
 322      77445BE2 
 323 05a0 3B6136C1 		.ascii	";a6\301\234@\265u\035\277\031;\322\027\010\314\251\321"
 323      9C40B575 
 323      1DBF193B 
 323      D21708CC 
 323      A9D1
 324 05b2 C20C749E 		.ascii	"\302\014t\236\336\"\317\323\227\010\320\331,\025\026"
 324      DE22CFD3 
 324      9708D0D9 
 324      2C1516
 325 05c1 521A2C34 		.ascii	"R\032,4j\020n\361H\337\020\007\371\214\362\004\337x"
 325      6A106EF1 
 325      48DF1007 
 325      F98CF204 
 325      DF78
 326 05d3 987F783F 		.ascii	"\230\177x?\226\271H\310\307\332\3133\375R\255\247\361"
 326      96B948C8 
 326      C7DACB33 
 326      FD52ADA7 
 326      F1
 327 05e4 C0323575 		.ascii	"\30025u\222\0254|]\210)\251k\251\272G1\025'O\351\353"
 327      9215347C 
 327      5D8829A9 
 327      6BA9BA47 
 327      3115274F 
 328 05fa 8423D9B6 		.ascii	"\204#\331\266!+\240\326l\033-\302\216\272y\263\250["
 328      212BA0D6 
 328      6C1B2DC2 
 328      8EBA79B3 
 328      A85B
 329 060c 8DE5EB58 		.ascii	"\215\345\353XLP\203\207Vx\007\242\226m\370\201\256\211"
 329      4C508387 
 329      567807A2 
 329      966DF881 
 329      AE89
 330 061e D5545ACB 		.ascii	"\325TZ\313\352b\340J\317u*\242\347\024\245\210\325\327"
 330      EA62E04A 
 330      CF752AA2 
 330      E714A588 
 330      D5D7
 331 0630 85989256 		.ascii	"\205\230\222V6\275\344h\205\375;\025\313G\030YG\206"
 331      36BDE468 
 331      85FD3B15 
 331      CB471859 
 331      4786
 332 0642 6D67A905 		.ascii	"mg\251\005\366'W\007\032\0249\342w\271}\305\247g\275"
 332      F6275707 
 332      1A1439E2 
 332      77B97DC5 
 332      A767BD
ARM GAS  /tmp/cchn9INy.s 			page 26


 333 0655 E2529FC9 		.ascii	"\342R\237\311xf\031\327\213\213\216.A\363\010\372&\026"
 333      786619D7 
 333      8B8B8E2E 
 333      41F308FA 
 333      2616
 334 0667 6FB21DA7 		.ascii	"o\262\035\247\264\244nL<l\005\3042\177!]6\323\204\203"
 334      B4A46E4C 
 334      3C6C05C4 
 334      327F215D 
 334      36D38483 
 335 067b 7F4C299B 		.ascii	"\177L)\233l\233\035\020\236\222\206\026\3517\3318\324"
 335      6C9B1D10 
 335      9E928616 
 335      E937D938 
 335      D4
 336 068c 89580577 		.ascii	"\211X\005wtz\370\353~m-\301\241my\203\371\315HU-5\303"
 336      747AF8EB 
 336      7E6D2DC1 
 336      A16D7983 
 336      F9CD4855 
 337 06a3 2D87B6B2 		.ascii	"-\207\266\262x\015\320\311\336\015\347?\303Y;X\346\212"
 337      780DD0C9 
 337      DE0DE73F 
 337      C3593B58 
 337      E68A
 338 06b5 A65333D1 		.ascii	"\246S3\321\3456\316O\256~\323\"\033g>\236\277[\333\334"
 338      E536CE4F 
 338      AE7ED322 
 338      1B673E9E 
 338      BF5BDBDC 
 339 06c9 23F69CCE 		.ascii	"#\366\234\316\232x/\320\3012/\3277\277\210b*\347\252"
 339      9A782FD0 
 339      C1322FD7 
 339      37BF8862 
 339      2AE7AA
 340 06dc 913EAC26 		.ascii	"\221>\254&\366\006\375\304^Tt]\323\020\354\357\313W"
 340      F606FDC4 
 340      5E54745D 
 340      D310ECEF 
 340      CB57
 341 06ee 65D9E59A 		.ascii	"e\331\345\232\210\"R\341J\311\310K\311\310;i\203\276"
 341      882252E1 
 341      4AC9C84B 
 341      C9C83B69 
 341      83BE
 342 0700 F2CADE3F 		.ascii	"\362\312\336?*\006\275\323\321L\374\232\314Duf}\240"
 342      2A06BDD3 
 342      D14CFC9A 
 342      CC447566 
 342      7DA0
 343 0712 A18EC616 		.ascii	"\241\216\306\026R\322\310\371\275\210\300\311\213\343"
 343      52D2C8F9 
 343      BD88C0C9 
 343      8BE3
 344 0720 5D349C53 		.ascii	"]4\234S-(p\177\343\363\025\214l_\322'gq\336r\220\360"
 344      2D28707F 
 344      E3F3158C 
ARM GAS  /tmp/cchn9INy.s 			page 27


 344      6C5FD227 
 344      6771DE72 
 345 0736 74B08836 		.ascii	"t\260\2106-Y2:\323\332\251\233)\335d\246\354&3e/9\357"
 345      2D59323A 
 345      D3DAA99B 
 345      29DD64A6 
 345      EC263365 
 346 074d D7CF172B 		.ascii	"\327\317\027+\2638\2407\213cy\363\355wh};\364\303\364"
 346      B338A037 
 346      8B6379F3 
 346      ED77687D 
 346      3BF4C3F4 
 347 0761 5DA7F55D 		.ascii	"]\247\365]\353\031. ;\206y\354\312\037\331\245N\334"
 347      EB192E20 
 347      3B8679EC 
 347      CA1FD9A5 
 347      4EDC
 348 0773 8FC9C41D 		.ascii	"\217\311\304\035\314\222\256D\257e\234lR_\034-+\332"
 348      CC92AE44 
 348      AF659C6C 
 348      525F1C2D 
 348      2BDA
 349 0785 01C94991 		.ascii	"\001\311I\221\203\225\246\337D\352Z\272sM\211\2629w"
 349      8395A6DF 
 349      44EA5ABA 
 349      734D89B2 
 349      3977
 350 0797 BAB58F3F 		.ascii	"\272\265\217?\007\352\224\310\364\011\261\265o\213\314"
 350      07EA94C8 
 350      F409B1B5 
 350      6F8BCC
 351 07a6 2393CD96 		.ascii	"#\223\315\226\371\002/\356\322\227\025\231\032\277R"
 351      F9022FEE 
 351      D2971599 
 351      1ABF52
 352 07b5 23539FA3 		.ascii	"#S\237\243\310\364\261id\352\313?2\231\035z\0029t\232"
 352      C8F4B169 
 352      64EACB3F 
 352      32991D7A 
 352      0239749A 
 353 07c9 4C917E63 		.ascii	"L\221~c\030Y\351"
 353      1859E9
 354 07d0 7520FD9F 		.ascii	"u \375\237Y\031\243(5\037oE2\375\262+ZC\343\231\271"
 354      5919A328 
 354      351F6F45 
 354      32FDB22B 
 354      5A43E399 
 355 07e5 22039E5E 		.ascii	"\"\003\236^\233)\351\235\343$\262\312V\272\301\011q"
 355      9B29E99D 
 355      E324B2CA 
 355      56BAC109 
 355      71
 356 07f6 13ACC1BA 		.ascii	"\023\254\301\272ZT\341\356 yb\247\023\274)V\314\246"
 356      5A54E1EE 
 356      207962A7 
 356      13BC2956 
 356      CCA6
ARM GAS  /tmp/cchn9INy.s 			page 28


 357 0808 A413C75B 		.ascii	"\244\023\307[\025<\371\333\326\216\274\361\214\364}"
 357      153CF9DB 
 357      D68EBCF1 
 357      8CF47D
 358 0817 DD62C8AB 		.ascii	"\335b\310\253{\234\300=\354X\367\231o\223\034\332B6"
 358      7B9CC03D 
 358      EC58F799 
 358      6F931CDA 
 358      4236
 359 0829 13B72292 		.ascii	"\023\267\"\222H\220\363\373\344\274\233\234\317\221"
 359      4890F3FB 
 359      E4BC9B9C 
 359      CF91
 360 0837 F37972FE 		.ascii	"\363yr\376\202\234\377J\316\327\310y\001q\247\215\344"
 360      829CFF4A 
 360      CED7C879 
 360      0171A78D 
 360      E4
 361 0848 DC44CE27 		.ascii	"\334D\316'\311\3713r\036$\347\263\344|\216\234\317;"
 361      C9F93372 
 361      1E24E7B3 
 361      E47C8E9C 
 361      CF3B
 362 085a 71BC0EF3 		.ascii	"q\274\016\363\361w\224o\361.\362\253\021\255\237\372"
 362      F177946F 
 362      F12EF2AB 
 362      11AD9FFA 
 363 086a 619E98F0 		.ascii	"a\236\230\360q\257q\366\376\230Y#\212K\3617\343%hY\275"
 363      71AF71F6 
 363      FE985923 
 363      8A4BF137 
 363      E3256859 
 364 087f 385D0D6B 		.ascii	"8]\015k\237\223v\355\350.\323\321\2645\003\371L\235"
 364      9F9376ED 
 364      E82ED3D1 
 364      B43503F9 
 364      4C9D
 365 0891 12B79C79 		.ascii	"\022\267\234yb\272\372\314\272\227B\346\005\326\344"
 365      62BAFACC 
 365      BA9742E6 
 365      05D6E4
 366 08a0 ABB574A5 		.ascii	"\253\265t\245a?\204U\361o\351t}\001\343\374\367\007"
 366      613F8455 
 366      F16FE974 
 366      7D01E3FC 
 366      F707
 367 08b2 436C6E9E 		.ascii	"Cln\236\317\232\362,^\255\234\2566\377\222\305\216\344"
 367      CF9AF22C 
 367      5EAD9CAE 
 367      36FF92C5 
 367      8EE4
 368 08c4 12EB845B 		.ascii	"\022\353\204[Q\374\2238\277\024i_\345q/\203)]6\345o"
 368      51FC9338 
 368      BF14695F 
 368      E5712F83 
 368      295D36E5 
 369 08d9 68DF9FC0 		.ascii	"h\337\237\300|SR:\335\3650\315\037\206\267b\360\212"
ARM GAS  /tmp/cchn9INy.s 			page 29


 369      7C53523A 
 369      DDF530CD 
 369      1F86B762 
 369      F08A
 370 08eb 9141D354 		.ascii	"\221A\323T\341\331\301\314N\245\250}/\3643\232\023?"
 370      E1D9C1CC 
 370      4EA5A87D 
 370      2FF4339A 
 370      133F
 371 08fd D6FED96E 		.ascii	"\326\376\331n%\244}K<Os\261\3717|k$\360V\244\317w\224"
 371      25A47D4B 
 371      3C4F73B1 
 371      F9377C6B 
 371      24F056A4 
 372 0914 1797BA1A 		.ascii	"\027\227\272\032|x[\342;G\036\274\267\2735{MFIc\252"
 372      7C785BE2 
 372      3B471EBC 
 372      B7BB357B 
 372      4D464963 
 373 0929 B530522E 		.ascii	"\2650R.\2030\362\370<\276\351\263\207\332\311\3568\316"
 373      8330F2F8 
 373      3CBEE9B3 
 373      87DAC9EE 
 373      38CE
 374 093b 04586663 		.ascii	"\004Xfc\011\035\322\335TDw\033#\272\333\233\251(\021"
 374      091DD2DD 
 374      5444771B 
 374      23BADB9B 
 374      A92811
 375 094e DD606536 		.ascii	"\335`e6c_\3366\324\242\254\034\353\\xn\365S\203S\013"
 375      635FDE36 
 375      D4A2AC1C 
 375      EB5C786E 
 375      F5538353 
 376 0963 7ACCA495 		.ascii	"z\314\244\225\000\026\270J,d\234\365\216e.\224\250\012"
 376      0016B84A 
 376      2C649CF5 
 376      8E652E94 
 376      A80A
 377 0975 1B4DEE24 		.ascii	"\033M\356$\202\325\364\336\326\371\256(v\374N\331Y\223"
 377      82D5F4DE 
 377      D6F9AE28 
 377      76FC4ED9 
 377      5993
 378 0987 0AF5F641 		.ascii	"\012\365\366A-?\257\220\321\236sQ\333kM\335.\277\374"
 378      2D3FAF90 
 378      D19E7351 
 378      DB6B4DDD 
 378      2EBFFC
 379 099a 38B77534 		.ascii	"8\267u47<\177\233\330\366\\\231\372\015\243\336\247"
 379      373C7F9B 
 379      D8F65C99 
 379      FA0DA3DE 
 379      A7
 380 09ab 428E6AD9 		.ascii	"B\216j\331&m\352.\316,\301\255\227\316\230\260\245."
 380      266DEA2E 
 380      CE2CC1AD 
ARM GAS  /tmp/cchn9INy.s 			page 30


 380      97CE98B0 
 380      A52E
 381 09bd CAAC9777 		.ascii	"\312\254\227w\343\364\032?\316\275\300X\335\215}\227"
 381      E3F41A3F 
 381      CEBDC058 
 381      DD8D7D97 
 382 09cd CFD1FE63 		.ascii	"\317\321\376c3-\240\225\335\254_~\234[@/6\230li\030"
 382      332DA095 
 382      DDAC5F7E 
 382      9C5B402F 
 382      36986C69 
 383 09e2 249435DE 		.ascii	"$\2245\336\012\227.\233^@\004\332l\321<\367\332\247"
 383      0A972E9B 
 383      5E4004DA 
 383      6CD13CF7 
 383      DAA7
 384 09f4 B59B241C 		.ascii	"\265\233$\034#$Ah\034-\230v\260L\023\301\300R\036\035"
 384      23244168 
 384      1C2D9876 
 384      B04C13C1 
 384      C0521E1D 
 385 0a08 411DDD6A 		.ascii	"A\035\335j\222!\317\353\346\274\361\374Y4\2750Z\253"
 385      9221CFEB 
 385      E6BCF1FC 
 385      5934BD30 
 385      5AAB
 386 0a1a D361B4FA 		.ascii	"\323a\264\372\250\251g\206a\375\203\024\351\344\243"
 386      A8A96786 
 386      61FD8314 
 386      E9E4A3
 387 0a29 58CEF2E2 		.ascii	"X\316\362\342n\015\215e\\\016\352\252\316R\235\357t"
 387      6E0D8D65 
 387      5C0EEAAA 
 387      CE529DEF 
 387      74
 388 0a3a 696E9AA4 		.ascii	"in\232\244\271\242\013\247\"\213\310\371e\227\203\204"
 388      B9A20BA7 
 388      228BC8F9 
 388      65978384 
 389 0a4a 6424B344 		.ascii	"d$\263D\323\002/V\200\376\376\003\244\277\267s\3706"
 389      D3022F56 
 389      80FEFE03 
 389      A4BFB773 
 389      F836
 390 0a5c E17D9D8B 		.ascii	"\341}\235\213\012\357S\251\350n\343w7\015~\246\356\330"
 390      0AEF53A9 
 390      E86EE377 
 390      370D7EA6 
 390      EED8
 391 0a6e AD257EF7 		.ascii	"\255%~\367\220\317\326\357\256\263\361\273o\332\370"
 391      90CFD6EF 
 391      AEB3F1BB 
 391      6FDAF8
 392 0a7d DDEC777A 		.ascii	"\335\354wzj\031*P\260\314\011\237E\012\326\3679j&)\230"
 392      6A192A50 
 392      B0CC099F 
 392      450AD6F7 
ARM GAS  /tmp/cchn9INy.s 			page 31


 392      396A2629 
 393 0a92 3CBFBE20 		.ascii	"<\277\276 \355\206-\223\022\242\004%\227\031\341\247"
 393      ED862D93 
 393      12A20425 
 393      9719E1A7 
 394 0aa2 CB1AE0D0 		.ascii	"\313\032\340\320*\027k\333\215\350I\356&]\336\267\016"
 394      2A176BDB 
 394      8DE849EE 
 394      265DDEB7 
 394      0E
 395 0ab3 A60FABA6 		.ascii	"\246\017\253\246\350C9F$*UF\374\024\217(\313u8G7\334"
 395      E8433946 
 395      242A5546 
 395      FC148F28 
 395      CB753847 
 396 0ac9 4AED96C6 		.ascii	"J\355\226\306\335H\002?\222\243\327T]\202I\262\247\205"
 396      DD48023F 
 396      92A3D754 
 396      5D8249B2 
 396      A785
 397 0adb 985035C7 		.ascii	"\230P5\307\264\352\247\350\344m\227Y\016\266\265G\371"
 397      B4EAA7E8 
 397      E46D9759 
 397      0EB6B547 
 397      F9
 398 0aec E125FD03 		.ascii	"\341%\375\003W\273\004\254\323\225;\001\263\332MV,\361"
 398      57BB04AC 
 398      D3953B01 
 398      B3DA4D56 
 398      2CF1
 399 0afe EAB9A132 		.ascii	"\352\271\24129\373z\337\205g\364\253cr\376\202\322\000"
 399      39FB7ADF 
 399      8567F4AB 
 399      6372FE82 
 399      D200
 400 0b10 83C9E8A2 		.ascii	"\203\311\350\242\003\324\222n\222wu9\210P)\251\311,"
 400      03D4926E 
 400      92777539 
 400      885029A9 
 400      C92C
 401 0b22 703858B9 		.ascii	"p8X\271o$\224\356\240\307\036\342\374\362\323\334#_"
 401      6F2494EE 
 401      A0C71EE2 
 401      FCF2D3DC 
 401      235F
 402 0b34 56B7CBB6 		.ascii	"V\267\313\266\023[\371P\003\034m\320\260\322\323v}\240"
 402      135BF950 
 402      031C6DD0 
 402      B0D2D376 
 402      7DA0
 403 0b46 EB26C374 		.ascii	"\353&\303t\215:\2564Sq\245'o<\277\001o\205\0348\345"
 403      8D3AAE34 
 403      5371A527 
 403      6F3CBF01 
 403      6F851C38 
 404 0b5b FCEF9413 		.ascii	"\374\357\224\0230\333\215[\335\241\267\014\016I.\354"
 404      30DB8D5B 
ARM GAS  /tmp/cchn9INy.s 			page 32


 404      DDA1B70C 
 404      0E492EEC 
 405 0b6b CF3F229E 		.ascii	"\317?\"\236|/9\357w\342\317\267\271\262\375\271\321"
 405      7C2F39EF 
 405      77E2CFB7 
 405      B9B2FDB9 
 405      D1
 406 0b7c 7F2BB338 		.ascii	"\177+\2638\227o;?\306\302\267\365\354@-\304\267m#\""
 406      976F3B3F 
 406      C6C2B7F5 
 406      EC402DC4 
 406      B76D2322 
 407 0b90 A81F8BDB 		.ascii	"\250\037\213\333muYM\376m:\227\001\206\276\030\311\364"
 407      6D75594D 
 407      FE6D3A97 
 407      0186BE18 
 407      C9F4
 408 0ba2 706823F1 		.ascii	"ph#\361n\326\035u.J\332\326\263A\366nk\211\207~7GW\275"
 408      6ED61D75 
 408      2E4ADAD6 
 408      B341F66E 
 408      6B89877E 
 409 0bba 9BEA57DC 		.ascii	"\233\352W\334\024\2076\347\350epS\235=\224\233\262\352"
 409      148736E7 
 409      E8657053 
 409      9D3D949B 
 409      B2EA
 410 0bcc A7C8FD70 		.ascii	"\247\310\375p\266\233\032\300\356b\357\235+6\212\363"
 410      B69B1AC0 
 410      EE62EF9D 
 410      2B368AF3 
 411 0bdc 1688D7D2 		.ascii	"\026\210\327\322\317 \347\301\362$\035,\261\024\355"
 411      CF20E7C1 
 411      F2241D2C 
 411      B114ED
 412 0beb F5D53096 		.ascii	"\365\3250\226\376\341\271\334\350SS\302\216\266\177"
 412      FEE1B9DC 
 412      E85353C2 
 412      8EB67F
 413 0bfa 74C74A71 		.ascii	"t\307Jq;\376m\3743Jpf\231%\026\020\247L!\2565\366\225"
 413      3BFE6DFC 
 413      334A7066 
 413      99251610 
 413      A74C21AE 
 414 0c11 6910CE59 		.ascii	"i\020\316Y\353\247Y\303\002\326n\226\313\337Q(\336Z"
 414      EBA759C3 
 414      02D66E96 
 414      CBDF5128 
 414      DE5A
 415 0c23 2D08FBDC 		.ascii	"-\010\373\334\224\260M\203#?{\311J\350v\361\341\214"
 415      94B04D83 
 415      233F7BC9 
 415      4AE876F1 
 415      E18C
 416 0c35 498AE230 		.ascii	"I\212\3420)r8\251\326[0\362\277\246\214\034k\037\271"
 416      297238A9 
 416      D65B30F2 
ARM GAS  /tmp/cchn9INy.s 			page 33


 416      BFA68C1C 
 416      6B1FB9
 417 0c48 7DA51523 		.ascii	"}\245\025#6k\353\0134\0378\277\240\031\241(\333lA\331"
 417      366BEB0B 
 417      341F38BF 
 417      A019A128 
 417      DB6C41D9 
 418 0c5c 4553CABE 		.ascii	"ES\312\276=7r\207\225\356m\010\03323k\212\220\355\026"
 418      3D377287 
 418      95EE6D08 
 418      1B32336B 
 418      8A90ED16 
 419 0c70 845C3612 		.ascii	"\204\\6\022r\003\263X^\012\256\030+\377\270O\031\263"
 419      7203B358 
 419      5E0AAE18 
 419      2BFFB84F 
 419      19B3
 420 0c82 541D9355 		.ascii	"T\035\223U\372}\345\272\201\324\014\237\373H\013+*\277"
 420      FA7DE5BA 
 420      81D40C9F 
 420      FB480B2B 
 420      2ABF
 421 0c94 76657E40 		.ascii	"ve~@\350\363f*\3108\264\237\032y\212\332\316\243\340"
 421      E8F3662A 
 421      C838B49F 
 421      1A798ADA 
 421      CEA3E0
 422 0ca7 0CE73DF2 		.ascii	"\014\347=\362\025\213\221\013u\322\227\016\017|0\334"
 422      158B910B 
 422      75D2970E 
 422      0F7C30DC 
 423 0cb7 FB1C5AD2 		.ascii	"\373\034Z\322\336 \342\024\350\231\325\322\342\002\347"
 423      DE20E214 
 423      E899D5D2 
 423      E202E7
 424 0cc6 D36F8456 		.ascii	"\323o\204V\201D\234\261A\005\337\031T@Z\262\314\242"
 424      81449CB1 
 424      4105DF19 
 424      54405AB2 
 424      CCA2
 425 0cd8 710AFF8A 		.ascii	"q\012\377\212_\355\225}\271\374\027\205\225\343p\217"
 425      5FED957D 
 425      B9FC1785 
 425      95E3708F 
 426 0ce8 6F2C5DAB 		.ascii	"o,]\253\362\225E\331u\273\\\367D\231\266\351\206;\031"
 426      F29545D9 
 426      75BB5CF7 
 426      4499B6E9 
 426      863B19
 427 0cfb 147DD5A8 		.ascii	"\024}\325\250h*\265\307\177\262\261\342\255\256@\213"
 427      682AB5C7 
 427      7FB2B1E2 
 427      ADAE408B 
 428 0d0b 7D3F625E 		.ascii	"}?b^\026\017\037\036\330\322}\361\376\272\305R]\033"
 428      160F1F1E 
 428      D8D27DF1 
 428      FEBAC552 
ARM GAS  /tmp/cchn9INy.s 			page 34


 428      5D1B
 429 0d1d DE8D4448 		.ascii	"\336\215DH\257\271\377\313h\216\312\320,\364\233\225"
 429      AFB9FFCB 
 429      688ECAD0 
 429      2CF49B95 
 430 0d2d C7CD2BC8 		.ascii	"\307\315+\310W\277\363\013\314\365\253\377\321F\246"
 430      57BFF30B 
 430      CCF5ABFF 
 430      D146A6
 431 0d3c 15FEE104 		.ascii	"\025\376\341\004\221\353[\231]X\212\010\226y]Q\013\207"
 431      91EB5B99 
 431      5D588A08 
 431      96795D51 
 431      0B87
 432 0d4e F07FCD14 		.ascii	"\360\177\315\024\266[\366\355F:\2669T\017\244r\250\241"
 432      B65BF6ED 
 432      463AB639 
 432      540FA472 
 432      A8A1
 433 0d60 0007C076 		.ascii	"\000\007\300v\033\264\315\0064?\263\032\247\210\235"
 433      1BB4CD06 
 433      343FB31A 
 433      A7889D
 434 0d6f DDA2DFAF 		.ascii	"\335\242\337\257\351\253]\377\327%J9'm\326]\213h\345"
 434      E9AB5DFF 
 434      D7254A39 
 434      276DD65D 
 434      8B68E5
 435 0d82 48E9EE05 		.ascii	"H\351\356\005\"\022\033\304:\374\347&\013\325\204T\230"
 435      22121BC4 
 435      3AFCE726 
 435      0BD58454 
 435      98
 436 0d93 3176AAA1 		.ascii	"1v\252\241Zq\2501o\325<o\241\032\237A5j+M\230\272\215"
 436      5A71A831 
 436      6FD53C6F 
 436      A11A9F41 
 436      356A2B4D 
 437 0daa 668A0896 		.ascii	"f\212\010\226\331i&\314\313\273Sm\310o\276\345\2544"
 437      D96926CC 
 437      CBBB536D 
 437      C86FBEE5 
 437      AC34
 438 0dbc 79F78F62 		.ascii	"y\367\217b1k\333\342\250u\013J#\027l4\262,\243\021\252"
 438      316BDBE2 
 438      A8750B4A 
 438      23176C34 
 438      B22CA311 
 439 0dd1 D7199B5E 		.ascii	"\327\031\233^\315\226\275\372mz\265dz)<\034\333\257"
 439      CD96BDFA 
 439      6D7AB564 
 439      7A293C1C 
 439      DBAF
 440 0de3 B7AA611B 		.ascii	"\267\252a\033\036\206lpWdY\325\307=\271\255\352\260"
 440      1E866C70 
 440      576459D5 
 440      C73DB9AD 
ARM GAS  /tmp/cchn9INy.s 			page 35


 440      EAB0
 441 0df5 B6ED729B 		.ascii	"\266\355r\233\235Y\321\3158\364b\336v\325jaW\267\032"
 441      9D59D1CD 
 441      38F462DE 
 441      76D56A61 
 441      57B71A
 442 0e08 ECAA95B6 		.ascii	"\354\252\225\266+]\266IS\3012G\314\014k\323!\275<\267"
 442      2B5DB649 
 442      53C13247 
 442      CC0C6BD3 
 442      21BD3CB7 
 443 0e1c 1ABCEA2F 		.ascii	"\032\274\352/\312\313+\246\205\3023\303\277\236Q\021"
 443      CACB2BA6 
 443      85C233C3 
 443      BF9E5111 
 444 0e2c 4B562484 		.ascii	"KV$\204\212x,!$+\036y\362\361i\217\317\251\010\206\202"
 444      8A782C21 
 444      242B1E79 
 444      F2F1698F 
 444      CFA90886 
 445 0e41 B1041F98 		.ascii	"\261\004\037\230\375@\244<\304x\361\253@u,\370t\341"
 445      FD40A43C 
 445      C478F1AB 
 445      40752CF8 
 445      74E1
 446 0e53 AFFEE329 		.ascii	"\257\376\343)\3774\246\204<\250\211\342Gwg\001\205\243"
 446      FF34A684 
 446      3CA889E2 
 446      47776701 
 446      85A3
 447 0e65 C1EA9A4A 		.ascii	"\301\352\232J\0360\222s\223\270{04cn\362\337\241m\011"
 447      1E309273 
 447      93B87B30 
 447      34636EF2 
 447      DFA16D09 
 448 0e79 A93D65D1 		.ascii	"\251=e\321/\231\010B\237\312\271Q.\022\016\226\007\231"
 448      2F990842 
 448      9FCAB951 
 448      2E120E96 
 448      0799
 449 0e8b 9FD8230B 		.ascii	"\237\330#\013s\343<\206/\022B\011\236\253\014\0100N"
 449      73E33C86 
 449      2F124209 
 449      9EAB0C08 
 449      304E
 450 0e9d 40AEFFC8 		.ascii	"@\256\377\310\256'\014\001\275\012\343\201(?G\200K<"
 450      AE270C01 
 450      BD0AE381 
 450      283F4780 
 450      4B3C
 451 0eaf C1CF9E9C 		.ascii	"\301\317\236\234C\032\261H<\\\315'\222\025\277\2326"
 451      431AB148 
 451      3C5CCD27 
 451      9215BF9A 
 451      36
 452 0ec0 0D30D4A1 		.ascii	"\0150\324\241=B<\021\216\005\240at\026)\367W\204b\021"
 452      3D423C11 
ARM GAS  /tmp/cchn9INy.s 			page 36


 452      8E05A061 
 452      741629F7 
 452      57846211 
 453 0ed4 BE22C127 		.ascii	"\276\"\301'y.\021\014U\204\270De-\227\340+\270DdbEU"
 453      792E110C 
 453      5584B844 
 453      652D97E0 
 453      2BB84464 
 454 0eeb 30381E2A 		.ascii	"08\036*\343\371\310L\276\262\222\257\324\036DcQ~<\317"
 454      E3F9C84C 
 454      BEB292AF 
 454      D41E4463 
 454      517E3CCF 
 455 0eff CD0C8F9F 		.ascii	"\315\014\217\237\024\2302~\342\204{'\375ab\205\341\205"
 455      1498327E 
 455      E2847B27 
 455      FD616285 
 455      E185
 456 0f11 C64052A8 		.ascii	"\306@R\250\014G\005\314v\015\\\357\233\030\020\352\321"
 456      0C4705CC 
 456      760D5CEF 
 456      9B1810EA 
 456      D1
 457 0f22 3F6EF408 		.ascii	"?n\364\010\027\014\205\243|E\240\222\237\305\325T\013"
 457      170C85A3 
 457      7C45A092 
 457      9FC5D554 
 457      0B
 458 0f33 015512C5 		.ascii	"\001U\022\305\201\200J\017\021i8\346\011\306\242\002"
 458      81804A0F 
 458      116938E6 
 458      09C6A202 
 459 0f43 48F8A74E 		.ascii	"H\370\247N\014\015\020d\233\002\214\2400\247(\301W\001"
 459      0C0D1064 
 459      9B028CA0 
 459      30A728C1 
 459      5701
 460 0f55 0101814D 		.ascii	"\001\001\201MLb\023\367\263\211\311l\342\00161\205M"
 460      4C6213F7 
 460      B389C96C 
 460      E2013631 
 460      854D
 461 0f67 3CE84ADC 		.ascii	"<\350J\334;\001\312\275lu\002.\367\271\343\001h\357"
 461      3B01CABD 
 461      6C75022E 
 461      F7B9E301 
 461      68EF
 462 0f79 C1CAACE5 		.ascii	"\301\312\254\345\023p\215UW\362\211\202 \260\2165\314"
 462      13708D55 
 462      57F28982 
 462      20B08E35 
 462      CC
 463 0f8a 45F8E2A4 		.ascii	"E\370\342\244\3604W\035\256\212\006\004\"\262\311\223"
 463      F034571D 
 463      AE8A0604 
 463      22B2C993 
 464 0f9a 0282422D 		.ascii	"\002\202B-\251\306"
ARM GAS  /tmp/cchn9INy.s 			page 37


 464      A9C6
 465 0fa0 03D0A03A 		.ascii	"\003\320\240:\034\011\013EBR\340\004> x\360\313)`Pr"
 465      1C090B45 
 465      4252E004 
 465      3E2078F0 
 465      CB296050 
 466 0fb5 33A87970 		.ascii	"3\250yp+x\347\021\"\261J\236\334\317\252\346\252\222"
 466      2B78E711 
 466      22B14A9E 
 466      DCCFAAE6 
 466      AA92
 467 0fc7 1E21C1CF 		.ascii	"\036!\301\317J\022\236q\305\035IV\301KE\020\320]\025"
 467      4A129E71 
 467      C51D4956 
 467      C14B4510 
 467      D05D15
 468 0fda 49A2722E 		.ascii	"I\242r.\274*\342\347\204\205 \000\024\326\012\261\231"
 468      BC2AE2E7 
 468      84852000 
 468      14D60AB1 
 468      99
 469 0feb BF8FDFA8 		.ascii	"\277\217\337\250X.t\345\023|4\010\300\356ZAH\304=I>"
 469      582E74E5 
 469      137C3408 
 469      C0EE5A41 
 469      48C43D49 
 470 1000 2A40071F 		.ascii	"*@\007\037Xt\222\217p\361\020\310\310v\242\361x\236"
 470      5874928F 
 470      70F110C8 
 470      C876A2F1 
 470      789E
 471 1012 8E93F192 		.ascii	"\216\223\361\222\201?\324\3605\000V\252M\010\345\221"
 471      813FD4F0 
 471      350056AA 
 471      4D08E591 
 472 1022 47B9BA83 		.ascii	"G\271\272\203QP\235;\031\200+\320\002\275\343E\3206"
 472      51509D3B 
 472      19802BD0 
 472      02BDE345 
 472      D036
 473 1034 52030AB3 		.ascii	"R\003\012\263\033&\"\314\301V\037Q\320\"\201Xm\024\244"
 473      1B2622CC 
 473      C1561F51 
 473      D0228158 
 473      6D14A4
 474 1047 4EFA0197 		.ascii	"N\372\001\227\021yJ\325\012\320.^\302\317\306Lp\311"
 474      11794AD5 
 474      0AD02E5E 
 474      C2CFC64C 
 474      70C9
 475 1059 A7E10D5F 		.ascii	"\247\341\015_\213+\256x\240f\254JPu8\0114\214\323\221"
 475      8B2BAE78 
 475      A066AC4A 
 475      50753809 
 475      348CD391 
 476 106d 889F78E3 		.ascii	"\210\237x\343\201Z.,\204\243U\240\030\220\000\031\010"
 476      815A2E2C 
ARM GAS  /tmp/cchn9INy.s 			page 38


 476      84A355A0 
 476      18900019 
 476      08
 477 107e AA7C9C8F 		.ascii	"\252|\234\217\202\341W\301{\000\307-\213\261\310\271"
 477      82E157C1 
 477      7B00C72D 
 477      8BB1C8B9 
 478 108e 6A626AF0 		.ascii	"jbj\3600\036\213U\203{\371M\250\362\221\312\312'\371"
 478      301E8B55 
 478      837BF94D 
 478      A8F291CA 
 478      CA27F9
 479 10a1 59AC10F7 		.ascii	"Y\254\020\367\221\333'\371j\236K\362v.!\304sq\340kL"
 479      91DB27F9 
 479      6A9E4BF2 
 479      762E21C4 
 479      7371E06B 
 480 10b6 848FC412 		.ascii	"\204\217\304\022s\003\3706 \224\350\356\352\276\227"
 480      7303F836 
 480      2094E8EE 
 480      EABE97
 481 10c5 29561D9E 		.ascii	")V\035\236\211\033PSmR\371\224\362I\372\351\016S\015"
 481      891B5053 
 481      6D52F994 
 481      F249FAE9 
 481      0E530D
 482 10d8 FBAB64F8 		.ascii	"\373\253d\370\277@\245\367\330i\207\217(s\311\007\325"
 482      BF40A5F7 
 482      D869878F 
 482      2873C907 
 482      D5
 483 10e9 2A5E9855 		.ascii	"*^\230U\023\015\202\205\207`>\306f\207a^\224\020\326"
 483      130D8285 
 483      87603EC6 
 483      6687615E 
 483      9410D6
 484 10fc E0047537 		.ascii	"\340\004u7\231\024\005Xc\005\3701\252)\300C\240Pa(0"
 484      99140558 
 484      6305F831 
 484      AA29C043 
 484      A0506128 
 485 1111 2BC1F3EE 		.ascii	"+\301\363\356\020\226\264\335x\212\336\210\037\224\207"
 485      1096B4DD 
 485      788ADE88 
 485      1F9487
 486 1120 BA89487C 		.ascii	"\272\211H|\032<\026\370G\023\261\310t\300uc\360x\001"
 486      1A3C16F8 
 486      4713B1C8 
 486      74C07563 
 486      F07801
 487 1133 D6131B9F 		.ascii	"\326\023\033\237\345\342\022Uv~\035\010\307\232L\352"
 487      E5E21255 
 487      767E1D08 
 487      C79A4CEA 
 488 1143 D481EF41 		.ascii	"\324\201\357A\035\344\"\223\356\211\207\210\245y\"\262"
 488      1DE42293 
 488      EE898788 
ARM GAS  /tmp/cchn9INy.s 			page 39


 488      A57922B2 
 489 1153 131F0B57 		.ascii	"\023\037\013W\230O|P\010`\026J\"q\215\343[)\212\036"
 489      984F7C50 
 489      0860164A 
 489      22718DE3 
 489      5B298A1E 
 490 1167 27984F00 		.ascii	"'\230O\000\026\033\211\027\007C\270\366(p\013UL,\256"
 490      161B8917 
 490      0743B8F6 
 490      28700B55 
 490      4C2CAE
 491 117a 82D9CC08 		.ascii	"\202\331\314\010\206~\313=\315\327\304g\370t\375\037"
 491      867ECB3D 
 491      CDD7C467 
 491      F874FD1F 
 492 118a 2B911B3D 		.ascii	"+\221\033=R\015\361\253D\356K\352\345F\206\200\242\212"
 492      520DF1AB 
 492      44EE4BEA 
 492      E5468680 
 492      A28A
 493 119c 698FCF78 		.ascii	"i\217\317xlF\206/\034K\203\221GAH\230\261\000Lj!\360"
 493      6C46862F 
 493      1C4B8391 
 493      47414898 
 493      B1004C6A 
 494 11b2 2F8FCCF8 		.ascii	"/\217\314\370\267'\236|l\014W]\313\315M\202\253\250"
 494      B7279E7C 
 494      6C0C575D 
 494      CBCD4D82 
 494      ABA8
 495 11c4 06CFEA9E 		.ascii	"\006\317\352\236\315U\327\360E\201\000\021h`\214Z)\277"
 495      CD55D7F0 
 495      45810011 
 495      68608C5A 
 495      29BF
 496 11d6 FF8109F7 		.ascii	"\377\201\011\367f\356&\337\367\340d\335\335$\303\273"
 496      66EE26DF 
 496      F7E064DD 
 496      DD24C3BB 
 497 11e6 4913EFFB 		.ascii	"I\023\357\373\177\211Y\263\213"
 497      7F8959B3 
 497      8B
 498              		.text
 499              		.section	.gnu.lto_.symtab.2a470844e40a6679,"",%progbits
 500 0000 63685468 		.ascii	"chThdAddRef\000\000\000\000\000\000\000\000\000\000"
 500      64416464 
 500      52656600 
 500      00000000 
 500      00000000 
 501 0015 0000AF00 		.ascii	"\000\000\257\000\000\000chThdRelease\000\000\000\000"
 501      00006368 
 501      54686452 
 501      656C6561 
 501      73650000 
 502 002b 00000000 		.ascii	"\000\000\000\000\000\000\000\000p\001\000\000chThdC"
 502      00000000 
 502      70010000 
ARM GAS  /tmp/cchn9INy.s 			page 40


 502      63685468 
 502      6443
 503 003d 72656174 		.ascii	"reateFromHeap\000\000\000\000\000\000\000\000\000\000"
 503      6546726F 
 503      6D486561 
 503      70000000 
 503      00000000 
 504 0054 00007601 		.ascii	"\000\000v\001\000\000chThdCreateFromMemoryPool\000\000"
 504      00006368 
 504      54686443 
 504      72656174 
 504      6546726F 
 505 0075 00000000 		.ascii	"\000\000\000\000\000\000\000\000\000\000\270\001\000"
 505      00000000 
 505      0000B801 
 505      00
 506 0082 00636850 		.ascii	"\000chPoolFree\000\000\002\000\000\000\000\000\000\000"
 506      6F6F6C46 
 506      72656500 
 506      00020000 
 506      00000000 
 507 0097 0000D701 		.ascii	"\000\000\327\001\000\000chHeapFree\000\000\002\000\000"
 507      00006368 
 507      48656170 
 507      46726565 
 507      00000200 
 508 00ac 00000000 		.ascii	"\000\000\000\000\000\000\000\334\001\000\000chSchWa"
 508      000000DC 
 508      01000063 
 508      68536368 
 508      5761
 509 00be 6B657570 		.ascii	"keupS\000\000\002\000\000\000\000\000\000\000\000\000"
 509      53000002 
 509      00000000 
 509      00000000 
 509      00
 510 00cf DE010000 		.ascii	"\336\001\000\000chThdCreateI\000\000\002\000\000\000"
 510      63685468 
 510      64437265 
 510      61746549 
 510      00000200 
 511 00e5 00000000 		.ascii	"\000\000\000\000\000\000\343\001\000\000chHeapAlloc"
 511      0000E301 
 511      00006368 
 511      48656170 
 511      416C6C6F 
 512 00fa 00000200 		.ascii	"\000\000\002\000\000\000\000\000\000\000\000\000\353"
 512      00000000 
 512      00000000 
 512      EB
 513 0107 01000063 		.ascii	"\001\000\000chPoolAlloc\000\000\002\000\000\000\000"
 513      68506F6F 
 513      6C416C6C 
 513      6F630000 
 513      02000000 
 514 011c 00000000 		.ascii	"\000\000\000\000\000\360\001\000\000"
 514      00F00100 
ARM GAS  /tmp/cchn9INy.s 			page 41


 514      00
 515              		.text
 516              		.section	.gnu.lto_.opts,"",%progbits
 517 0000 272D6D63 		.ascii	"'-mcpu=cortex-m4' '-mno-thumb-interwork' '-mthumb' "
 517      70753D63 
 517      6F727465 
 517      782D6D34 
 517      2720272D 
 518 0033 272D6767 		.ascii	"'-ggdb' '-O0' '-fomit-frame-pointer' '-falign-funct"
 518      64622720 
 518      272D4F30 
 518      2720272D 
 518      666F6D69 
 519 0066 696F6E73 		.ascii	"ions=16' '-ffunction-sections' '-fdata-sections' '-"
 519      3D313627 
 519      20272D66 
 519      66756E63 
 519      74696F6E 
 520 0099 666E6F2D 		.ascii	"fno-common' '-flto'\000"
 520      636F6D6D 
 520      6F6E2720 
 520      272D666C 
 520      746F2700 
 521              		.text
 522              		.cfi_sections	.debug_frame
 523              		.section	.text.port_lock,"ax",%progbits
 524              		.align	2
 525              		.p2align 4,,15
 526              		.thumb
 527              		.thumb_func
 528              		.type	port_lock, %function
 529              	port_lock:
 530              	.LFB127:
 531              		.file 1 "../ChibiOS/os/rt/ports/ARMCMx/chcore_v7m.h"
 532              		.loc 1 456 0
 533              		.cfi_startproc
 534              		@ args = 0, pretend = 0, frame = 8
 535              		@ frame_needed = 0, uses_anonymous_args = 0
 536              		@ link register save eliminated.
 537 0000 82B0     		sub	sp, sp, #8
 538              		.cfi_def_cfa_offset 8
 539 0002 2023     		movs	r3, #32
 540 0004 0193     		str	r3, [sp, #4]
 541              	.LBB6:
 542              	.LBB7:
 543              		.file 2 "../ChibiOS/os/ext/CMSIS/include/core_cmFunc.h"
 544              		.loc 2 548 0
 545 0006 019B     		ldr	r3, [sp, #4]
 546              	@ 548 "../ChibiOS/os/ext/CMSIS/include/core_cmFunc.h" 1
 547 0008 83F31188 		MSR basepri, r3
 548              	@ 0 "" 2
 549              		.thumb
 550              	.LBE7:
 551              	.LBE6:
 552              		.loc 1 473 0
 553 000c 02B0     		add	sp, sp, #8
 554              		@ sp needed
ARM GAS  /tmp/cchn9INy.s 			page 42


 555 000e 7047     		bx	lr
 556              		.cfi_endproc
 557              	.LFE127:
 558              		.size	port_lock, .-port_lock
 559              		.section	.text.port_unlock,"ax",%progbits
 560              		.align	2
 561              		.p2align 4,,15
 562              		.thumb
 563              		.thumb_func
 564              		.type	port_unlock, %function
 565              	port_unlock:
 566              	.LFB128:
 567              		.loc 1 480 0
 568              		.cfi_startproc
 569              		@ args = 0, pretend = 0, frame = 8
 570              		@ frame_needed = 0, uses_anonymous_args = 0
 571              		@ link register save eliminated.
 572 0000 82B0     		sub	sp, sp, #8
 573              		.cfi_def_cfa_offset 8
 574 0002 0023     		movs	r3, #0
 575 0004 0193     		str	r3, [sp, #4]
 576              	.LBB8:
 577              	.LBB9:
 578              		.loc 2 548 0
 579 0006 019B     		ldr	r3, [sp, #4]
 580              	@ 548 "../ChibiOS/os/ext/CMSIS/include/core_cmFunc.h" 1
 581 0008 83F31188 		MSR basepri, r3
 582              	@ 0 "" 2
 583              		.thumb
 584              	.LBE9:
 585              	.LBE8:
 586              		.loc 1 487 0
 587 000c 02B0     		add	sp, sp, #8
 588              		@ sp needed
 589 000e 7047     		bx	lr
 590              		.cfi_endproc
 591              	.LFE128:
 592              		.size	port_unlock, .-port_unlock
 593              		.section	.text.chSysLock,"ax",%progbits
 594              		.align	2
 595              		.p2align 4,,15
 596              		.thumb
 597              		.thumb_func
 598              		.type	chSysLock, %function
 599              	chSysLock:
 600              	.LFB167:
 601              		.file 3 "../ChibiOS/os/rt/include/chsys.h"
 602              		.loc 3 346 0
 603              		.cfi_startproc
 604              		@ args = 0, pretend = 0, frame = 0
 605              		@ frame_needed = 0, uses_anonymous_args = 0
 606 0000 08B5     		push	{r3, lr}
 607              		.cfi_def_cfa_offset 8
 608              		.cfi_offset 3, -8
 609              		.cfi_offset 14, -4
 610              		.loc 3 348 0
 611 0002 FFF7FEFF 		bl	port_lock
ARM GAS  /tmp/cchn9INy.s 			page 43


 612              		.loc 3 351 0
 613 0006 08BD     		pop	{r3, pc}
 614              		.cfi_endproc
 615              	.LFE167:
 616              		.size	chSysLock, .-chSysLock
 617              		.section	.text.chSysUnlock,"ax",%progbits
 618              		.align	2
 619              		.p2align 4,,15
 620              		.thumb
 621              		.thumb_func
 622              		.type	chSysUnlock, %function
 623              	chSysUnlock:
 624              	.LFB168:
 625              		.loc 3 358 0
 626              		.cfi_startproc
 627              		@ args = 0, pretend = 0, frame = 0
 628              		@ frame_needed = 0, uses_anonymous_args = 0
 629 0000 08B5     		push	{r3, lr}
 630              		.cfi_def_cfa_offset 8
 631              		.cfi_offset 3, -8
 632              		.cfi_offset 14, -4
 633              		.loc 3 371 0
 634 0002 FFF7FEFF 		bl	port_unlock
 635              		.loc 3 372 0
 636 0006 08BD     		pop	{r3, pc}
 637              		.cfi_endproc
 638              	.LFE168:
 639              		.size	chSysUnlock, .-chSysUnlock
 640 0008 AFF30080 		.section	.text.chThdAddRef,"ax",%progbits
 640      AFF30080 
 641              		.align	2
 642              		.p2align 4,,15
 643              		.global	chThdAddRef
 644              		.thumb
 645              		.thumb_func
 646              		.type	chThdAddRef, %function
 647              	chThdAddRef:
 648              	.LFB241:
 649              		.file 4 "../ChibiOS/os/rt/src/chdynamic.c"
 650              		.loc 4 68 0
 651              		.cfi_startproc
 652              		@ args = 0, pretend = 0, frame = 8
 653              		@ frame_needed = 0, uses_anonymous_args = 0
 654 0000 00B5     		push	{lr}
 655              		.cfi_def_cfa_offset 4
 656              		.cfi_offset 14, -4
 657 0002 83B0     		sub	sp, sp, #12
 658              		.cfi_def_cfa_offset 16
 659 0004 0190     		str	r0, [sp, #4]
 660              		.loc 4 70 0
 661 0006 FFF7FEFF 		bl	chSysLock
 662              		.loc 4 72 0
 663 000a 019B     		ldr	r3, [sp, #4]
 664 000c 93F82230 		ldrb	r3, [r3, #34]	@ zero_extendqisi2
 665 0010 0133     		adds	r3, r3, #1
 666 0012 DAB2     		uxtb	r2, r3
 667 0014 019B     		ldr	r3, [sp, #4]
ARM GAS  /tmp/cchn9INy.s 			page 44


 668 0016 83F82220 		strb	r2, [r3, #34]
 669              		.loc 4 73 0
 670 001a FFF7FEFF 		bl	chSysUnlock
 671              		.loc 4 75 0
 672 001e 019B     		ldr	r3, [sp, #4]
 673              		.loc 4 76 0
 674 0020 1846     		mov	r0, r3
 675 0022 03B0     		add	sp, sp, #12
 676              		@ sp needed
 677 0024 5DF804FB 		ldr	pc, [sp], #4
 678              		.cfi_endproc
 679              	.LFE241:
 680              		.size	chThdAddRef, .-chThdAddRef
 681 0028 AFF30080 		.section	.text.chThdRelease,"ax",%progbits
 681      AFF30080 
 682              		.align	2
 683              		.p2align 4,,15
 684              		.global	chThdRelease
 685              		.thumb
 686              		.thumb_func
 687              		.type	chThdRelease, %function
 688              	chThdRelease:
 689              	.LFB242:
 690              		.loc 4 91 0
 691              		.cfi_startproc
 692              		@ args = 0, pretend = 0, frame = 16
 693              		@ frame_needed = 0, uses_anonymous_args = 0
 694 0000 00B5     		push	{lr}
 695              		.cfi_def_cfa_offset 4
 696              		.cfi_offset 14, -4
 697 0002 85B0     		sub	sp, sp, #20
 698              		.cfi_def_cfa_offset 24
 699 0004 0190     		str	r0, [sp, #4]
 700              		.loc 4 94 0
 701 0006 FFF7FEFF 		bl	chSysLock
 702              		.loc 4 96 0
 703 000a 019B     		ldr	r3, [sp, #4]
 704 000c 93F82230 		ldrb	r3, [r3, #34]	@ zero_extendqisi2
 705 0010 013B     		subs	r3, r3, #1
 706 0012 DAB2     		uxtb	r2, r3
 707 0014 019B     		ldr	r3, [sp, #4]
 708 0016 83F82220 		strb	r2, [r3, #34]
 709              		.loc 4 97 0
 710 001a 019B     		ldr	r3, [sp, #4]
 711 001c 93F82230 		ldrb	r3, [r3, #34]
 712 0020 8DF80F30 		strb	r3, [sp, #15]
 713              		.loc 4 98 0
 714 0024 FFF7FEFF 		bl	chSysUnlock
 715              		.loc 4 103 0
 716 0028 9DF80F30 		ldrb	r3, [sp, #15]	@ zero_extendqisi2
 717 002c 002B     		cmp	r3, #0
 718 002e 2DD1     		bne	.L7
 719              		.loc 4 103 0 is_stmt 0 discriminator 1
 720 0030 019B     		ldr	r3, [sp, #4]
 721 0032 93F82030 		ldrb	r3, [r3, #32]	@ zero_extendqisi2
 722 0036 0F2B     		cmp	r3, #15
 723 0038 28D1     		bne	.L7
ARM GAS  /tmp/cchn9INy.s 			page 45


 724              		.loc 4 104 0 is_stmt 1
 725 003a 019B     		ldr	r3, [sp, #4]
 726 003c 93F82130 		ldrb	r3, [r3, #33]	@ zero_extendqisi2
 727 0040 03F00303 		and	r3, r3, #3
 728 0044 012B     		cmp	r3, #1
 729 0046 02D0     		beq	.L10
 730 0048 022B     		cmp	r3, #2
 731 004a 0ED0     		beq	.L11
 732              		.loc 4 124 0
 733 004c 1EE0     		b	.L7
 734              	.L10:
 735              		.loc 4 108 0
 736 004e 019B     		ldr	r3, [sp, #4]
 737 0050 5B69     		ldr	r3, [r3, #20]
 738 0052 019A     		ldr	r2, [sp, #4]
 739 0054 1269     		ldr	r2, [r2, #16]
 740 0056 1A61     		str	r2, [r3, #16]
 741 0058 019B     		ldr	r3, [sp, #4]
 742 005a 1B69     		ldr	r3, [r3, #16]
 743 005c 019A     		ldr	r2, [sp, #4]
 744 005e 5269     		ldr	r2, [r2, #20]
 745 0060 5A61     		str	r2, [r3, #20]
 746              		.loc 4 110 0
 747 0062 0198     		ldr	r0, [sp, #4]
 748 0064 FFF7FEFF 		bl	chHeapFree
 749              		.loc 4 111 0
 750 0068 10E0     		b	.L7
 751              	.L11:
 752              		.loc 4 116 0
 753 006a 019B     		ldr	r3, [sp, #4]
 754 006c 5B69     		ldr	r3, [r3, #20]
 755 006e 019A     		ldr	r2, [sp, #4]
 756 0070 1269     		ldr	r2, [r2, #16]
 757 0072 1A61     		str	r2, [r3, #16]
 758 0074 019B     		ldr	r3, [sp, #4]
 759 0076 1B69     		ldr	r3, [r3, #16]
 760 0078 019A     		ldr	r2, [sp, #4]
 761 007a 5269     		ldr	r2, [r2, #20]
 762 007c 5A61     		str	r2, [r3, #20]
 763              		.loc 4 118 0
 764 007e 019B     		ldr	r3, [sp, #4]
 765 0080 1B6C     		ldr	r3, [r3, #64]
 766 0082 1846     		mov	r0, r3
 767 0084 0199     		ldr	r1, [sp, #4]
 768 0086 FFF7FEFF 		bl	chPoolFree
 769              		.loc 4 119 0
 770 008a 00BF     		nop
 771              	.L7:
 772              		.loc 4 127 0
 773 008c 05B0     		add	sp, sp, #20
 774              		@ sp needed
 775 008e 5DF804FB 		ldr	pc, [sp], #4
 776              		.cfi_endproc
 777              	.LFE242:
 778              		.size	chThdRelease, .-chThdRelease
 779 0092 00BFAFF3 		.section	.text.chThdCreateFromHeap,"ax",%progbits
 779      0080AFF3 
ARM GAS  /tmp/cchn9INy.s 			page 46


 779      0080AFF3 
 779      0080
 780              		.align	2
 781              		.p2align 4,,15
 782              		.global	chThdCreateFromHeap
 783              		.thumb
 784              		.thumb_func
 785              		.type	chThdCreateFromHeap, %function
 786              	chThdCreateFromHeap:
 787              	.LFB243:
 788              		.loc 4 153 0
 789              		.cfi_startproc
 790              		@ args = 4, pretend = 0, frame = 24
 791              		@ frame_needed = 0, uses_anonymous_args = 0
 792 0000 00B5     		push	{lr}
 793              		.cfi_def_cfa_offset 4
 794              		.cfi_offset 14, -4
 795 0002 89B0     		sub	sp, sp, #36
 796              		.cfi_def_cfa_offset 40
 797 0004 0590     		str	r0, [sp, #20]
 798 0006 0491     		str	r1, [sp, #16]
 799 0008 0392     		str	r2, [sp, #12]
 800 000a 0293     		str	r3, [sp, #8]
 801              		.loc 4 157 0
 802 000c 0598     		ldr	r0, [sp, #20]
 803 000e 0499     		ldr	r1, [sp, #16]
 804 0010 FFF7FEFF 		bl	chHeapAlloc
 805 0014 0790     		str	r0, [sp, #28]
 806              		.loc 4 158 0
 807 0016 079B     		ldr	r3, [sp, #28]
 808 0018 002B     		cmp	r3, #0
 809 001a 01D1     		bne	.L13
 810              		.loc 4 159 0
 811 001c 0023     		movs	r3, #0
 812 001e 15E0     		b	.L14
 813              	.L13:
 814              		.loc 4 171 0
 815 0020 FFF7FEFF 		bl	chSysLock
 816              		.loc 4 172 0
 817 0024 0A9B     		ldr	r3, [sp, #40]
 818 0026 0093     		str	r3, [sp]
 819 0028 0798     		ldr	r0, [sp, #28]
 820 002a 0499     		ldr	r1, [sp, #16]
 821 002c 039A     		ldr	r2, [sp, #12]
 822 002e 029B     		ldr	r3, [sp, #8]
 823 0030 FFF7FEFF 		bl	chThdCreateI
 824 0034 0690     		str	r0, [sp, #24]
 825              		.loc 4 173 0
 826 0036 069B     		ldr	r3, [sp, #24]
 827 0038 0122     		movs	r2, #1
 828 003a 83F82120 		strb	r2, [r3, #33]
 829              		.loc 4 174 0
 830 003e 0698     		ldr	r0, [sp, #24]
 831 0040 0021     		movs	r1, #0
 832 0042 FFF7FEFF 		bl	chSchWakeupS
 833              		.loc 4 175 0
 834 0046 FFF7FEFF 		bl	chSysUnlock
ARM GAS  /tmp/cchn9INy.s 			page 47


 835              		.loc 4 177 0
 836 004a 069B     		ldr	r3, [sp, #24]
 837              	.L14:
 838              		.loc 4 178 0
 839 004c 1846     		mov	r0, r3
 840 004e 09B0     		add	sp, sp, #36
 841              		@ sp needed
 842 0050 5DF804FB 		ldr	pc, [sp], #4
 843              		.cfi_endproc
 844              	.LFE243:
 845              		.size	chThdCreateFromHeap, .-chThdCreateFromHeap
 846 0054 AFF30080 		.section	.text.chThdCreateFromMemoryPool,"ax",%progbits
 846      AFF30080 
 846      AFF30080 
 847              		.align	2
 848              		.p2align 4,,15
 849              		.global	chThdCreateFromMemoryPool
 850              		.thumb
 851              		.thumb_func
 852              		.type	chThdCreateFromMemoryPool, %function
 853              	chThdCreateFromMemoryPool:
 854              	.LFB244:
 855              		.loc 4 205 0
 856              		.cfi_startproc
 857              		@ args = 0, pretend = 0, frame = 24
 858              		@ frame_needed = 0, uses_anonymous_args = 0
 859 0000 00B5     		push	{lr}
 860              		.cfi_def_cfa_offset 4
 861              		.cfi_offset 14, -4
 862 0002 89B0     		sub	sp, sp, #36
 863              		.cfi_def_cfa_offset 40
 864 0004 0590     		str	r0, [sp, #20]
 865 0006 0491     		str	r1, [sp, #16]
 866 0008 0392     		str	r2, [sp, #12]
 867 000a 0293     		str	r3, [sp, #8]
 868              		.loc 4 211 0
 869 000c 0598     		ldr	r0, [sp, #20]
 870 000e FFF7FEFF 		bl	chPoolAlloc
 871 0012 0790     		str	r0, [sp, #28]
 872              		.loc 4 212 0
 873 0014 079B     		ldr	r3, [sp, #28]
 874 0016 002B     		cmp	r3, #0
 875 0018 01D1     		bne	.L16
 876              		.loc 4 213 0
 877 001a 0023     		movs	r3, #0
 878 001c 1AE0     		b	.L17
 879              	.L16:
 880              		.loc 4 225 0
 881 001e FFF7FEFF 		bl	chSysLock
 882              		.loc 4 226 0
 883 0022 059B     		ldr	r3, [sp, #20]
 884 0024 5B68     		ldr	r3, [r3, #4]
 885 0026 029A     		ldr	r2, [sp, #8]
 886 0028 0092     		str	r2, [sp]
 887 002a 0798     		ldr	r0, [sp, #28]
 888 002c 1946     		mov	r1, r3
 889 002e 049A     		ldr	r2, [sp, #16]
ARM GAS  /tmp/cchn9INy.s 			page 48


 890 0030 039B     		ldr	r3, [sp, #12]
 891 0032 FFF7FEFF 		bl	chThdCreateI
 892 0036 0690     		str	r0, [sp, #24]
 893              		.loc 4 227 0
 894 0038 069B     		ldr	r3, [sp, #24]
 895 003a 0222     		movs	r2, #2
 896 003c 83F82120 		strb	r2, [r3, #33]
 897              		.loc 4 228 0
 898 0040 069B     		ldr	r3, [sp, #24]
 899 0042 059A     		ldr	r2, [sp, #20]
 900 0044 1A64     		str	r2, [r3, #64]
 901              		.loc 4 229 0
 902 0046 0698     		ldr	r0, [sp, #24]
 903 0048 0021     		movs	r1, #0
 904 004a FFF7FEFF 		bl	chSchWakeupS
 905              		.loc 4 230 0
 906 004e FFF7FEFF 		bl	chSysUnlock
 907              		.loc 4 232 0
 908 0052 069B     		ldr	r3, [sp, #24]
 909              	.L17:
 910              		.loc 4 233 0
 911 0054 1846     		mov	r0, r3
 912 0056 09B0     		add	sp, sp, #36
 913              		@ sp needed
 914 0058 5DF804FB 		ldr	pc, [sp], #4
 915              		.cfi_endproc
 916              	.LFE244:
 917              		.size	chThdCreateFromMemoryPool, .-chThdCreateFromMemoryPool
 918 005c AFF30080 		.text
 919              	.Letext0:
 920              		.file 5 "/nfs/nfs5/home/research/hardware/arm2/gcc-arm-embedded/gcc-arm-none-eabi-4_8-2014q2/lib/g
 921              		.file 6 "/nfs/nfs5/home/research/hardware/arm2/gcc-arm-embedded/gcc-arm-none-eabi-4_8-2014q2/arm-n
 922              		.file 7 "/nfs/nfs5/home/research/hardware/arm2/gcc-arm-embedded/gcc-arm-none-eabi-4_8-2014q2/arm-n
 923              		.file 8 "../ChibiOS/os/rt/ports/ARMCMx/compilers/GCC/chtypes.h"
 924              		.file 9 "../ChibiOS/os/rt/include/chsystypes.h"
 925              		.file 10 "../ChibiOS/os/rt/include/chschd.h"
 926              		.file 11 "../ChibiOS/os/rt/ports/ARMCMx/chcore.h"
 927              		.file 12 "../ChibiOS/os/rt/include/chtm.h"
 928              		.file 13 "../ChibiOS/os/rt/include/chsem.h"
 929              		.file 14 "../ChibiOS/os/rt/include/chmtx.h"
 930              		.file 15 "../ChibiOS/os/rt/include/chthreads.h"
 931              		.file 16 "../ChibiOS/os/rt/include/chmemcore.h"
 932              		.file 17 "../ChibiOS/os/rt/include/chheap.h"
 933              		.file 18 "../ChibiOS/os/rt/include/chmempools.h"
 934              		.file 19 "../ChibiOS/os/ext/CMSIS/include/core_cm4.h"