ARM GAS  /tmp/cchn9INy.s 			page 1


   1              		.syntax unified
   2              		.cpu cortex-m4
   3              		.fpu softvfp
   4              		.eabi_attribute 20, 1
   5              		.eabi_attribute 21, 1
   6              		.eabi_attribute 23, 3
   7              		.eabi_attribute 24, 1
   8              		.eabi_attribute 25, 1
   9              		.eabi_attribute 26, 1
  10              		.eabi_attribute 30, 6
  11              		.eabi_attribute 34, 1
  12              		.eabi_attribute 18, 4
  13              		.thumb
  14              		.file	"chdynamic.c"
  15              		.text
  16              	.Ltext0:
  17              		.section	.gnu.lto_.inline.2a470844e40a6679,"",%progbits
  18 0000 789C6362 		.ascii	"x\234cb`b\300\006>@i\016\006\006\026f\006\006&\226\017"
  18      6062C006 
  18      3E40690E 
  18      06061666 
  18      06062696 
  19 0015 7A0C2C10 		.ascii	"z\014,\020\265\214\030\"L\014,<@\222i\201<\\\015\027"
  19      B58C1822 
  19      4C0C2C3C 
  19      40926981 
  19      3C5C0D17 
  20 0029 9060C62E 		.ascii	"\220`\306.\314\302\300!\011\024\346\230\340\207\"\014"
  20      CCC2C021 
  20      0914E698 
  20      E087220C 
  21 0039 26581934 		.ascii	"&X\0314\216\203\014\264;\260\225\031&\313\314\003\022"
  21      8E830CB4 
  21      3BB09519 
  21      26CBCC03 
  21      12
  22 004a E14651C7 		.ascii	"\341FQ\307\306 v\210\001\213!`\265\354\002p\253xA\\"
  22      C6207688 
  22      018B2160 
  22      B5EC0270 
  22      AB78415C 
  23 005e 06F1C320 		.ascii	"\006\361\303 \265<\033r\361\251\005s\031\000T^\015\260"
  23      B53C1B72 
  23      F1A90573 
  23      1900545E 
  23      0DB0
  24              		.text
  25              		.section	.gnu.lto_port_lock.2a470844e40a6679,"",%progbits
  26 0000 789C6362 		.ascii	"x\234cb`b@\007\"@,\310\310\300P\007\342030\002U021\002"
  26      60624007 
  26      22402CC8 
  26      C8C05007 
  26      E2303330 
  27 001a 05181819 		.ascii	"\005\030\030\031\352\231\030\353#AL\006F%\206\205\015"
  27      EA9918EB 
  27      23414C06 
  27      46258685 
ARM GAS  /tmp/cchn9INy.s 			page 2


  27      0D
  28 002b 0D931EB4 		.ascii	"\015\223\036\264>{\3144\263\341@\313\202\206?\377\377"
  28      3E7BCC34 
  28      B3E140CB 
  28      82863FFF 
  28      FF
  29 003c 33326632 		.ascii	"32f2\002M\324cdHfd\210\000r\030\025\300\024\023\013"
  29      024DD463 
  29      64486664 
  29      88007218 
  29      15C01413 
  30 0051 AA15EB99 		.ascii	"\252\025\353\231\016<\370\377\377D\347\363\275@\223"
  30      0E3CF8FF 
  30      FF44E7F3 
  30      BD4093
  31 0060 19121917 		.ascii	"\031\022\031\027\002M\003\002V\206\226\206\206\011\012"
  31      024D0302 
  31      56869686 
  31      86090A
  32 006f 0C20DD40 		.ascii	"\014 \335@\020\002&CA\016`>\313\320\264\003H\24732\202"
  32      10022643 
  32      410E603E 
  32      CBD0B403 
  32      48A73332 
  33 0084 CC6300AA 		.ascii	"\314c\000\252a8\307\320\364\361\315\214\307\022p]`F"
  33      6138C7D0 
  33      F4F1CD8C 
  33      C712705D 
  33      6046
  34 0096 C381EE2B 		.ascii	"\303\201\356+\355\2540#\023\031\0273\262\002\215\203"
  34      EDAC3023 
  34      13191733 
  34      B2028D83 
  35 00a6 38190893 		.ascii	"8\031\010\223\231A>f\206x[\216\241dn\303\014\207LFf"
  35      99413E66 
  35      86785B8E 
  35      A1646EC3 
  35      0C874C46 
  36 00bb 102F1DAC 		.ascii	"\020/\035\254\012.U\016\221\202\272\374\"C\343\203\235"
  36      0A2E550E 
  36      9182BAFC 
  36      2243E383 
  36      9D
  37 00cc FA10E360 		.ascii	"\372\020\343` \004\244\001\244Z[OO\3379#3)\323?X?\277"
  37      2004A401 
  37      A45A5B4F 
  37      4FDF3923 
  37      3329D33F 
  38 00e3 58BFA844 		.ascii	"X\277\250D\277 \277\250\244X\3371\310\327\331\267B?"
  38      BF20BFA8 
  38      A458DF31 
  38      C8D7D9B7 
  38      423F
  39 00f5 392339BF 		.ascii	"9#9\277(5\276\314<W/\203\201\265,1\2474U\017UGjE\211"
  39      2835BECC 
  39      3C572F83 
  39      81B52C31 
ARM GAS  /tmp/cchn9INy.s 			page 3


  39      A734550F 
  40 010e BEB36FB0 		.ascii	"\276\263o\260g\260~f^rNiJ\252>XGr\256[i^2P\223\200o"
  40      67B07E66 
  40      5E724E69 
  40      4AAA3E58 
  40      4772AE5B 
  41 0129 70904252 		.ascii	"p\220BRbqjAQ\246\216\202\252\001\003S\021\003{njn~Q"
  41      62716A41 
  41      51A68E82 
  41      AA010353 
  41      11037B6E 
  42 0141 2503005A 		.ascii	"%\003\000Z\240au"
  42      A06175
  43              		.text
  44              		.section	.gnu.lto_port_unlock.2a470844e40a6679,"",%progbits
  45 0000 789C6362 		.ascii	"x\234cb`b@\007\"@,\310\310\300P\007\342030\002U021\002"
  45      60624007 
  45      22402CC8 
  45      C8C05007 
  45      E2303330 
  46 001a 05181819 		.ascii	"\005\030\030\031\352\231\030\353#AL\006F%\206\205\015"
  46      EA9918EB 
  46      23414C06 
  46      46258685 
  46      0D
  47 002b 0D931EB4 		.ascii	"\015\223\036\264~z\3144\263\341@\313\202\206?\377\377"
  47      7E7ACC34 
  47      B3E140CB 
  47      82863FFF 
  47      FF
  48 003c 33326632 		.ascii	"32f2\002M\324cdHfd\210\000r\030\025\300\024\023\013"
  48      024DD463 
  48      64486664 
  48      88007218 
  48      15C01413 
  49 0051 AA15EB99 		.ascii	"\252\025\353\231\016<\370\377\377E\347\376}@\223\031"
  49      0E3CF8FF 
  49      FF45E7FE 
  49      7D409319 
  50 0061 12191702 		.ascii	"\022\031\027\002M\003\002V\206\226\206\206\011\012\014"
  50      4D030256 
  50      86968686 
  50      090A0C
  51 0070 20DD4010 		.ascii	" \335@\020\002&CA\016`>\313\320\264\003H\24732\202\314"
  51      02264341 
  51      0E603ECB 
  51      D0B40348 
  51      A7333282 
  52 0085 031B728E 		.ascii	"\003\033r\216\241\351\343\233\031\217%\340\272\300\214"
  52      A1E9E39B 
  52      198F25E0 
  52      BAC08C
  53 0094 8603A79F 		.ascii	"\206\003\247\237\266\263\302\214Ld\\\314\310\0124\016"
  53      B6B3C28C 
  53      4C645CCC 
  53      C80A340E 
  54 00a4 E264204C 		.ascii	"\342d Lf\006\371\230\031\342m9\206\222\271\0153\034"
ARM GAS  /tmp/cchn9INy.s 			page 4


  54      6606F998 
  54      19E26D39 
  54      8692B90D 
  54      331C
  55 00b6 32199941 		.ascii	"2\031\231A\274t\260*\270T9D\012\352\362\213\014\215"
  55      BC74B02A 
  55      B8543944 
  55      0AEAF28B 
  55      0C8D
  56 00c8 0FCEEB43 		.ascii	"\017\316\353C\214\203\201\020\220\006\220jm==}\347\214"
  56      8C838110 
  56      9006906A 
  56      6D3D3D7D 
  56      E78C
  57 00da CCA44CFF 		.ascii	"\314\244L\377`\375\374b\375\242\022\375\202\374\242"
  57      60FDFC62 
  57      FDA212FD 
  57      82FCA2
  58 00e9 92627DC7 		.ascii	"\222b}\307 _g\337\012\375\344\214\344\374\242\324\370"
  58      205F67DF 
  58      0AFDE48C 
  58      E4FCA2D4 
  58      F8
  59 00fa 32F35CBD 		.ascii	"2\363\\\275\014\006\326\262\304\234\322T=T\035\251\025"
  59      0C06D6B2 
  59      C49CD254 
  59      3D541DA9 
  59      15
  60 010b 25FACEBE 		.ascii	"%\372\316\276\301\236\301\372\231y\3119\245)\251\372"
  60      C19EC1FA 
  60      9979C939 
  60      A529A9FA 
  61 011b 601DC9B9 		.ascii	"`\035\311\271n\245y\311@M\002\276\301A\012I\211\305"
  61      6EA579C9 
  61      404D02BE 
  61      C1410A49 
  61      89C5
  62 012d A9054599 		.ascii	"\251\005E\231:\012\252\006\014LE\014\354\271\251\271"
  62      3A0AAA06 
  62      0C4C450C 
  62      ECB9A9B9 
  63 013d F945950C 		.ascii	"\371E\225\014\000\233\025a\301"
  63      009B1561 
  63      C1
  64              		.text
  65              		.section	.gnu.lto_chSysLock.2a470844e40a6679,"",%progbits
  66 0000 789C6362 		.ascii	"x\234cb`b@\007\"@\\\006\304\312 \0163\003#P\005#\023"
  66      60624007 
  66      22405C06 
  66      C4CA200E 
  66      33032350 
  67 0017 232390C3 		.ascii	"##\220\303\310P\317\304X\037\311\010V\266\236\351\300"
  67      C850CFC4 
  67      581FC908 
  67      56B69EE9 
  67      C0
  68 0028 83FFFFD7 		.ascii	"\203\377\377\327}\231\266\354\017\343m&\220\030+CKC"
ARM GAS  /tmp/cchn9INy.s 			page 5


  68      7D99B6EC 
  68      0FE36D26 
  68      90182B43 
  68      4B43
  69 003a C3040506 		.ascii	"\303\004\005\006\206d\260\212\0200\031\012\322\317|"
  69      8664B08A 
  69      1030190A 
  69      D2CF7C
  70 0049 9EA1F9C1 		.ascii	"\236\241\371\301\236n\366D\306\205\214\254@\301j\206"
  70      9E6EF644 
  70      C6858CAC 
  70      40C16A86 
  71 0059 5F0D1D0D 		.ascii	"_\015\035\015\002\231\214@\245\020\3232A\364E\206\306"
  71      02998C40 
  71      A510D332 
  71      41F44586 
  71      C6
  72 006a 07FBB561 		.ascii	"\007\373\265a\212  \004$\001r\244\242\236\236\276sF"
  72      8A202004 
  72      240172A4 
  72      A29E9EBE 
  72      7346
  73 007c 6652A67F 		.ascii	"fR\246\177\260~~\261~Q\211~f^rNiJ\252~rFqe\261^\006"
  73      B07E7EB1 
  73      7E51897E 
  73      665E724E 
  73      694AAA7E 
  74 0097 0300A9F5 		.ascii	"\003\000\251\365'\020"
  74      2710
  75              		.text
  76              		.section	.gnu.lto_chSysUnlock.2a470844e40a6679,"",%progbits
  77 0000 789C6362 		.ascii	"x\234cb`b@\007\322@\334\301\310\300\240\014\342\260"
  77      60624007 
  77      D240DCC1 
  77      C8C0A00C 
  77      E2B0
  78 0012 30300255 		.ascii	"00\002U0212\003IfF\2400\003#C=\0233c}$\210\315\300\246"
  78      30323132 
  78      03496646 
  78      A0300323 
  78      433D1333 
  79 002d C4B0B0A1 		.ascii	"\304\260\260\241a\322\203\247\337gIv-h\232\320\360\357"
  79      61D283A7 
  79      DF674976 
  79      2D689AD0 
  79      F0EF
  80 003f FF7FC64C 		.ascii	"\377\177\306L\220T2#C\004\220\305\250\000\246\230XP"
  80      90543223 
  80      430490C5 
  80      A800A698 
  80      5850
  81 0051 2D81686B 		.ascii	"-\201hk\330\264\242\201sA\303\237\377\377\231\311\323"
  81      D8B4A281 
  81      7341C39F 
  81      FFFF99C9 
  81      D3
  82 0062 C33C58EC 		.ascii	"\303<X\354\311edX\317t\340\301\377\377ov\356|\364\206"
ARM GAS  /tmp/cchn9INy.s 			page 6


  82      C9656458 
  82      CF74E0C1 
  82      FFFF6F76 
  82      EE7CF486 
  83 0076 5114640B 		.ascii	"Q\024d\013+CKC\303\004\205\\\250\215@\020\002%\201A"
  83      2B434B43 
  83      C304855C 
  83      A88D4010 
  83      02258141 
  84 008a CA1C0A32 		.ascii	"\312\034\0122\224\371<C\363\203\327\247\331\023\031"
  84      94F93C43 
  84      F383D7A7 
  84      D91319
  85 0099 9731B202 		.ascii	"\2271\262\002\245\252\031~5t4\010d2\262$\203\303\232"
  85      A5AA197E 
  85      35743408 
  85      6432B224 
  85      83C39A
  86 00ac 81211324 		.ascii	"\201!\023$~\221\241\361\301\033m\230\"\010\010\001)"
  86      7E91A1F1 
  86      C11B6D98 
  86      22080801 
  86      29
  87 00bd 00C59EA2 		.ascii	"\000\305\236\242\236\236\276sFfR\246\177\260~~\261~"
  87      9E9EBE73 
  87      466652A6 
  87      7FB07E7E 
  87      B17E
  88 00cf 51897E66 		.ascii	"Q\211~f^rNiJ\252~rFqe\261^\006\003\000\341Gc\351"
  88      5E724E69 
  88      4AAA7E72 
  88      467165B1 
  88      5E060300 
  89              		.text
  90              		.section	.gnu.lto_chThdAddRef.2a470844e40a6679,"",%progbits
  91 0000 789C8D52 		.ascii	"x\234\215R=K\003A\020\235\271\275\\\002\026j\245e\214"
  91      3D4B0341 
  91      109DB9BD 
  91      5C02166A 
  91      A5658C
  92 0013 8D18C8FD 		.ascii	"\215\030\310\375\004\013++\005\025\264L.p\271\342\024"
  92      040B2B2B 
  92      0515B44C 
  92      2E70B9E2 
  92      14
  93 0024 121BB1C8 		.ascii	"\022\033\261\310\306\004\011\026\022S\305ha\032\021"
  93      C6040916 
  93      1253C568 
  93      611A11
  94 0033 0B352008 		.ascii	"\0135 \010\332\004\204@\210Al\305\"(\246\266\024\021"
  94      DA048440 
  94      88416CC5 
  94      2228A6B6 
  94      1411
  95 0045 D7D9BB7C 		.ascii	"\327\331\273|`\020\314\300\315\356\316\2767\363\336"
  95      6010CCC0 
  95      CDEECEBE 
ARM GAS  /tmp/cchn9INy.s 			page 7


  95      37F3DE
  96 0054 720A28D0 		.ascii	"r\012(\320\037\001\372\366\251<)\017\036@\332\242\202"
  96      1F01FAF6 
  96      A93C290F 
  96      1E40DAA2 
  96      82
  97 0065 8C324395 		.ascii	"\2142C\225\262\212H\027\010I\205\251\230\\\225\007\320"
  97      B28A4817 
  97      084985A9 
  97      985C9507 
  97      D0
  98 0076 0250E23C 		.ascii	"\002P\342<\337|{-\214\3556y\216\177\013\201\226\274"
  98      DF7C7B2D 
  98      8CED3679 
  98      8E7F0B81 
  98      96BC
  99 0088 32105668 		.ascii	"2\020Vh\207>gQ\260\177\226\244U\312\325\233\022\362"
  99      873E6751 
  99      B07F96A4 
  99      55CAD59B 
  99      12F2
 100 009a 1D9E7A17 		.ascii	"\035\236z\027bx`\032\277}^(\360LE\210\231\3019\347\247"
 100      6278601A 
 100      BF7D5E28 
 100      F04C4588 
 100      99C139E7 
 101 00af 9C1DF32F 		.ascii	"\234\035\363/!\330\240\234b\345\272Z#y\371\216<\326"
 101      21D8A09C 
 101      62E5BA5A 
 101      2379F98E 
 101      3CD6
 102 00c1 A3F95D9A 		.ascii	"\243\371]\232\372\233f#\\(\225\246\020\367\345\253\227"
 102      FA9B6623 
 102      5C2895A6 
 102      10F7E5AB 
 102      97
 103 00d2 231CD510 		.ascii	"#\034\325\020m\244w\244\211L&U&\0178\235h\315p\236\363"
 103      6DA477A4 
 103      894C2655 
 103      260F389D 
 103      68CD709E 
 104 00e7 DB6D3514 		.ascii	"\333m5\024KN^\226\017\317\036 \335\334K{\303x\202\036"
 104      4B4E5E96 
 104      0FCF1E20 
 104      DDDC4B7B 
 104      C378821E 
 105 00fb 2A6EC127 		.ascii	"*n\301'\317\362\021\013U\003]\255\226Sw\360\324\215"
 105      CFF2110B 
 105      55035DAD 
 105      965377F0 
 105      D48D
 106 010d 3560FBA9 		.ascii	"5`\373\251\320\232r\361&*A\230\266P;\204\"\311\364\232"
 106      D09A72F1 
 106      262A4198 
 106      B6503B84 
 106      22C9F49A 
 107 0121 88522E73 		.ascii	"\210R.s\360\221\256W\342\324.\275\035\0123\345\340\006"
ARM GAS  /tmp/cchn9INy.s 			page 8


 107      F091AE57 
 107      E2D42EBD 
 107      1D0A33E5 
 107      E006
 108 0133 A4B3AC53 		.ascii	"\244\263\254SR\251*\211\032\272\3509\367\"\010g\234"
 108      52A92A89 
 108      1ABAE839 
 108      F7220867 
 108      9C
 109 0144 62E89F01 		.ascii	"b\350\237\001\246\374k\244\217\203\273?}(=\037\324\273"
 109      A6FC6BA4 
 109      8F83BB3F 
 109      7D283D1F 
 109      D4BB
 110 0156 FED11AEF 		.ascii	"\376\321\032\357\314\365\230m\223d\216z\260:\244|\000"
 110      CCF5986D 
 110      93648E7A 
 110      B03AA47C 
 110      00
 111 0167 51C97804 		.ascii	"Q\311x\004\354\242\\\310\222\304\312^\023\241\220>\033"
 111      ECA25CC8 
 111      92C4CA5E 
 111      13A1903E 
 111      1B
 112 0178 B322D6FC 		.ascii	"\263\"\326\374\242\276\236\320\343\033z\"n\350F,\272"
 112      A2BE9ED0 
 112      E31B7A22 
 112      6EE8462C 
 112      BA
 113 0189 B916B62D 		.ascii	"\271\026\266-#d\300\017\333\227\224\215"
 113      2364C00F 
 113      DB97948D 
 114              		.text
 115              		.section	.gnu.lto_chThdRelease.2a470844e40a6679,"",%progbits
 116 0000 789CCD56 		.ascii	"x\234\315VML\023A\024\236\267\263\333\335n\201\376p"
 116      4D4C1341 
 116      149EB7B3 
 116      DBDD6E81 
 116      FE70
 117 0012 406F881E 		.ascii	"@o\210\036P\022z\325\223\007O\236$\021\022\360\006E"
 117      50127AD5 
 117      93074F9E 
 117      241112F0 
 117      0645
 118 0024 A1073401 		.ascii	"\241\0074\001/\306\003S\250B\010D$\036\032=\000Q\023"
 118      2FC60353 
 118      A8420844 
 118      241E1A3D 
 118      005113
 119 0037 E2C11F42 		.ascii	"\342\301\037B\342\017\306\254\321X\024\011\232x FMc"
 119      E20FC6AC 
 119      D1581409 
 119      9A782046 
 119      4D63
 120 0049 FCB9A9C1 		.ascii	"\374\271\251\301\304?\214\353\233\331\316\326\302F\026"
 120      C43F8CEB 
 120      9BD9CED6 
ARM GAS  /tmp/cchn9INy.s 			page 9


 120      C24616
 121 0058 B83049BF 		.ascii	"\2700I\277vg\336\367\336\373\276\231N\253\020\205,\037"
 121      7667DEF7 
 121      DEFBBE99 
 121      4EAB1085 
 121      2C1F
 122 006a 4DF8DA62 		.ascii	"M\370\332b\022R\315\037L\002\030\001\012PD\252\250\204"
 122      1252CD1F 
 122      4C021801 
 122      0A5044AA 
 122      A884
 123 007c 302588A0 		.ascii	"0%\210\240\252\212\346~\326\250\201\241\001|\351\374"
 123      AA8AE67E 
 123      D6A881A1 
 123      017CE9FC 
 124 008c 1D701274 		.ascii	"\035p\022t\201\206\300 \000\316\003\351V\250\252\005"
 124      8186C020 
 124      00CE03E9 
 124      56A8AA05 
 125 009c 742308DD 		.ascii	"t#\010\335M|\206\224W\221q\306Fr\357?g*\006rl\230\375"
 125      4D7C8694 
 125      579171C6 
 125      4672EF3F 
 125      672A0672 
 126 00b3 B16D48F2 		.ascii	"\261mH\362\245\004\220F\374\004\206xS\240\270E\207f"
 126      A5049046 
 126      FC048678 
 126      53A0B845 
 126      8766
 127 00c5 9DCDDE19 		.ascii	"\235\315\336\031\007v\232\245\276\330v\3307\215M\277"
 127      07769AA5 
 127      BED876D8 
 127      378D4DBF 
 128 00d5 AACBB0B4 		.ascii	"\252\313\260\264e\333{\375s\256N0:\306~\3336\365\337"
 128      65DB7BFD 
 128      73AE4E30 
 128      3AC67EDB 
 128      36F5DF
 129 00e8 DE68DFE5 		.ascii	"\336h\337\345\365\250\272\221=\263v\3320\373\372\256"
 129      F5A8BA91 
 129      3DB376DA 
 129      30FBFAAE 
 130 00f8 6E46AAA2 		.ascii	"nF\252\242\005N\245\303Q=9\223\023,(U\371\343\214X\267"
 130      054EA5C3 
 130      513D3993 
 130      132C2855 
 130      F9E38C58 
 131 010d B3B368FA 		.ascii	"\263\263h\372\2104]\365G+*\265\3118\326Bv\320\034N\365"
 131      88345DF5 
 131      472B2AB5 
 131      C938D642 
 131      76D01C4E 
 132 0122 33DBEEDE 		.ascii	"3\333\356\336t\315\255K\320\353\354\271\255\003c=\362"
 132      74CDAD4B 
 132      D0EBECB9 
 132      AD03633D 
 132      F2
ARM GAS  /tmp/cchn9INy.s 			page 10


 133 0133 08693E69 		.ascii	"\010i>i?\037\015U\260\302\311\013(d\007\254r\370:\200"
 133      3F1F0D55 
 133      B0C2C90B 
 133      286407AC 
 133      72F83A80 
 134 0147 5C53AC9C 		.ascii	"\\S\254\234m\337\275y\351\255\015\321r\200\016\300+"
 134      6DDFBD79 
 134      E9AD0DD1 
 134      72800EC0 
 134      2B
 135 0158 03CF2DE5 		.ascii	"\003\317-\345\240r\320H3LB\025\336\020\370\240s0\020"
 135      A072D048 
 135      334C4215 
 135      DE10F8A0 
 135      733010
 136 016b 68908389 		.ascii	"h\220\203\211\240\2068\224p(\345P\306!\314!\302!\312"
 136      A0863894 
 136      7028E550 
 136      C621CC21 
 136      C221CA
 137 017e 2146840E 		.ascii	"!F\204\016\314\225\306\223[\351$\354\310\177;p\324\013"
 137      CC95C693 
 137      5BE924EC 
 137      C87F3B70 
 137      D40B
 138 0190 6CE0B715 		.ascii	"l\340\267\025\235'\275\271{\275z3L\011\312I\362\213"
 138      9D27BDB9 
 138      7BBD7A33 
 138      4C09CA49 
 138      F28B
 139 01a2 F5B34812 		.ascii	"\365\263H\022\364\0048\355'\301p\332o\340\307\236\316"
 139      F40438ED 
 139      27C170DA 
 139      6FE0C79E 
 139      CE
 140 01b3 919E9799 		.ascii	"\221\236\227\231\305j'\276\015\224\032\262\013\325_"
 140      C56A27BE 
 140      0D941AB2 
 140      0BD55F
 141 01c2 20E75170 		.ascii	" \347Qp\260\015\200\013w\034kq\345#\347\361u]Rh\033"
 141      B00D800B 
 141      771C6B71 
 141      E523E7F1 
 141      755D5268 
 142 01d7 2F3C477A 		.ascii	"/<Gz\373\251\234Rq\226\023\00368\341\373\235\225\032"
 142      FBA99C52 
 142      71961303 
 142      3638E1FB 
 142      9D951A
 143 01ea 7285E108 		.ascii	"r\205\341\010\255R\241\215?\363\306n-Z sjy\362\236U"
 143      AD52A18D 
 143      3FF3C66E 
 143      2D5A2073 
 143      6A79F29E 
 144 01ff DBE3163C 		.ascii	"\333\343\026<y\340i\201R\260`\206<\374x\177\264\317"
 144      79E06981 
 144      52B06086 
ARM GAS  /tmp/cchn9INy.s 			page 11


 144      3CFC787F 
 144      B4CF
 145 0211 ED596B74 		.ascii	"\355Ykt.\234\302h\340\231\205A\317b2* \3741\275\033"
 145      2E9CC268 
 145      E0998541 
 145      CF62322A 
 145      20FC31BD 
 146 0226 90749E3A 		.ascii	"\220t\236:u\302\245\210\304\341\242\304\232t\376\333"
 146      75C2A588 
 146      C4E1A2C4 
 146      9A74FEDB 
 147 0236 0F57A02E 		.ascii	"\017W\240.R\207\274S\313\237*$}\352\375\340r\014\244"
 147      5287BC53 
 147      CB9F2A24 
 147      7DEAFDE0 
 147      720CA4
 148 0249 09EFA75D 		.ascii	"\011\357\247]\035\31048\223\342\356\222\247$mi\356\312"
 148      1DC83438 
 148      93E2EE92 
 148      A7246D69 
 148      EECA
 149 025b 10194CA5 		.ascii	"\020\031L\245\231\265\250'\241\204'k\315\247\315\317"
 149      99B5A827 
 149      A184276B 
 149      CDA7CDCF 
 150 026b 4FF17941 		.ascii	"O\361yA\005\261H\377]|\341.*bQ-\322\203\277\177t\226"
 150      05B148FF 
 150      5D7CE12E 
 150      2A62512D 
 150      D283BF7F 
 151 0281 A40CA794 		.ascii	"\244\014\247\224\240\012y\337w\313\342\246P\247z\253"
 151      A00A79DF 
 151      77CBE2A6 
 151      50A77AAB 
 152 0291 A3057587 		.ascii	"\243\005u\207$!\364?\202Z \270G\253(\332\\\031\215)"
 152      2421F43F 
 152      825A20B8 
 152      47AB28DA 
 152      5C198D29 
 153 02a5 8B2B94F8 		.ascii	"\213+\224\370\254\340\022J}j\360n\251de4\246\344\307"
 153      ACE0124A 
 153      7D6AF06E 
 153      A9646534 
 153      A6E4C7
 154 02b8 359D7B73 		.ascii	"5\235{s\321\\q\\K\023n\024\022\313\244\325\3722\253"
 154      D15C715C 
 154      4B136E14 
 154      12CBA4D5 
 154      FA32AB
 155 02cb F35F95CC 		.ascii	"\363_\225\314\222ku\331Z\255\016o\310\3522/\253\303"
 155      926B75D9 
 155      5AAD0E6F 
 155      C8EA322F 
 155      ABC3
 156 02dd C515226B 		.ascii	"\305\025\"k\265:\272!\253#^VG\035\243\026\226r\212\254"
 156      B53ABA21 
 156      AB235E56 
ARM GAS  /tmp/cchn9INy.s 			page 12


 156      471DA316 
 156      96728AAC 
 157 02f1 12133CCD 		.ascii	"\022\023<\315\273\212\226\2572ONY;W\354N8\341j\215\211"
 157      BB8A96AF 
 157      324F4E59 
 157      3B57EC4E 
 157      38E16A8D 
 158 0306 0D8AC80D 		.ascii	"\015\212\310\0152\226m\220\"\027\360\357 }NR9{\273\314"
 158      32966D90 
 158      2217F0EF 
 158      207D4E52 
 158      397BBBCC 
 159 031a E68C7A7E 		.ascii	"\346\214z~q\360\250m\265\265\361}\355\311\226\344\201"
 159      71F0A86D 
 159      B5B5F17D 
 159      EDC996E4 
 159      81
 160 032b 83F1635D 		.ascii	"\203\361c]\361\316\343\361\256\316D<\321\336z\342hs"
 160      F1CEE3F1 
 160      AECE443C 
 160      D1DE7AE2 
 160      6873
 161 033d 4732519B 		.ascii	"G2Q\233 j\347\341#]\177\001\230=\011{"
 161      206AE7E1 
 161      235D7F01 
 161      983D097B 
 162              		.text
 163              		.section	.gnu.lto_chThdCreateFromHeap.2a470844e40a6679,"",%progbits
 164 0000 789C8D52 		.ascii	"x\234\215RKk\024A\020\376\252\273g\237\361q\360\340"
 164      4B6B1441 
 164      10FEAABB 
 164      679FF171 
 164      F0E0
 165 0012 DE62F0E0 		.ascii	"\336b\360\340\003v~\204?\300\203\006\342q\323\201I\037"
 165      03767E84 
 165      3FC08306 
 165      E271D381 
 165      491F
 166 0024 A2211B10 		.ascii	"\242!\033\020\361\22061 !H\360$1\007\025\021\024q\275"
 166      F1903631 
 166      202148F0 
 166      24310715 
 166      111471BD 
 167 0038 B9084204 		.ascii	"\271\010B\004\005\215J\360\024$D\347\262\370\013\304"
 167      058D4AF0 
 167      142444E7 
 167      B2F80BC4 
 168 0048 07EA5AD5 		.ascii	"\007\352Z\325\263/4\240\005SS]\365}]U\337\214\202\302"
 168      B32F34A0 
 168      0553535D 
 168      F57D5D55 
 168      DF8C82C2 
 169 005c 9F16F3B3 		.ascii	"\237\026\363\263\303\351cr\310\2018$\2454\340\225ag"
 169      C3E96372 
 169      C8813824 
 169      A534E095 
 169      6167
ARM GAS  /tmp/cchn9INy.s 			page 13


 170 006e 34459C31 		.ascii	"4E\2341\301GD\014\"\314)m\"\232;#'\350\021\334\362~"
 170      C147440C 
 170      22CC296D 
 170      229A3B23 
 170      27E811DC 
 171 0084 356D35EE 		.ascii	"5m5\356U\226n\316\257\370_\35569)Y\302\030G4\034^r\335"
 171      55966ECE 
 171      AFF85FED 
 171      36392959 
 171      C2184734 
 172 009c A005DAB5 		.ascii	"\240\005\332\265\365\317\033\313\025\337\247i\205\303"
 172      F5CF1BCB 
 172      15DFA769 
 172      85C3
 173 00aa F47FCC2F 		.ascii	"\364\177\314/\033W\007\231\274\333\221\1771\033j=m\267"
 173      1B570799 
 173      BCDB917F 
 173      311B6A3D 
 173      6DB7
 174 00bc D7B61E2D 		.ascii	"\327\266\036-?\240\207\252L\020\032M\0214;2\250\321"
 174      3FA087AA 
 174      4C101A4D 
 174      11343B32 
 174      A8D1
 175 00ce 6D1A4124 		.ascii	"m\032A$\351\034gT\236\235.\2603E\256\335\341Z\011a5"
 175      E91C6754 
 175      9E9D2EB0 
 175      3345AEDD 
 175      E15A0961 
 176 00e3 C65CF67E 		.ascii	"\306\\\366~e8#d\245\2600\333\351\340GEI\275\211\305"
 176      65382364 
 176      A5B030DB 
 176      E9E04745 
 176      49BD89C5 
 177 00f7 F4698B6A 		.ascii	"\364i\213jt\227\005L\310\\\304w\177\305\357wdl\320\022"
 177      7497054C 
 177      C85CC477 
 177      7FC5EF77 
 177      646CD012 
 178 010b 9C540969 		.ascii	"\234T\011i'\372\276\304\363O\317~.\351\036ZV\320\203"
 178      27FABEC4 
 178      F34FCF7E 
 178      2EE91E5A 
 178      56D083
 179 011e F38FCA51 		.ascii	"\363\217\312Q\277\305|\363k\343h\027\026\215erw!&\364"
 179      BFC57CF3 
 179      6BE36817 
 179      168D6572 
 179      772126F4 
 180 0132 5D48B717 		.ascii	"]H\267\027\363\031\004\350\265\315Y\312~\001Gy`\023"
 180      F31904E8 
 180      B5CD59CA 
 180      7E014779 
 180      6013
 181 0144 D7FD9BED 		.ascii	"\327\375\233\355\203\335\213\212=X\301v\372\362\020"
 181      83DD8B8A 
 181      3D58C176 
ARM GAS  /tmp/cchn9INy.s 			page 14


 181      FAF210
 182 0153 3C5D42B9 		.ascii	"<]B\271\204\362\011\025\034\025\001i\337|\374\255\263"
 182      84F20915 
 182      1C150169 
 182      DF7CFCAD 
 182      B3
 183 0164 D471DCF7 		.ascii	"\324q\334\367leG\245\033X\345I\312|Q\177\242\361\316"
 183      6C6547A5 
 183      1B58E549 
 183      CA7C517F 
 183      A2F1CE
 184 0177 5B324312 		.ascii	"[2C\022\213\"\037Z\177O\266\307\222\351\264\014\364"
 184      8B221F5A 
 184      7F4FB6C7 
 184      92E9B40C 
 184      F4
 185 0188 BD32E33E 		.ascii	"\2752\343>\301/\244\037_\354\272I\324\337\204gz\325"
 185      C12FA41F 
 185      5FECBA49 
 185      D4DF8467 
 185      7AD5
 186 019a 7C52E96E 		.ascii	"|R\351nRJd\320L\016F\351\327\270T\000&$~\027\302$S\377"
 186      524A64D0 
 186      4C0E46E9 
 186      D7B85400 
 186      26247E17 
 187 01b2 3D88F5D3 		.ascii	"=\210\365\323?\266\0160\307\254\355\014\311\327\343"
 187      3FB60E30 
 187      C7ACED0C 
 187      C9D7E3
 188 01c1 8A6874A8 		.ascii	"\212ht\250Z\215OL\272qw\362T|\256\036\317\314\306\365"
 188      5A8D4F4C 
 188      BA7177F2 
 188      547CAE1E 
 188      CFCCC6F5 
 189 01d5 191BDBC9 		.ascii	"\031\033\333\311\211\013gkS\316V-\364\371\372\264\232"
 189      890B676B 
 189      53CE562D 
 189      F4F9FAB4 
 189      9A
 190 01e6 9DFE0DF1 		.ascii	"\235\376\015\361\311\253m"
 190      C9AB6D
 191              		.text
 192              		.section	.gnu.lto_chThdCreateFromMemoryPool.2a470844e40a6679,"",%progbits
 193 0000 789C8D52 		.ascii	"x\234\215R\315KTQ\024?\347~\2747\343XY\266\231\235I"
 193      CD4B5451 
 193      143FE77E 
 193      BC37E358 
 193      59B6999D 
 194 0015 8B5298D9 		.ascii	"\213R\230\331\365\017\364\007\264(\301\2263Oxs\027S"
 194      F50FF407 
 194      B428C196 
 194      334F7873 
 194      1753
 195 0027 E208212D 		.ascii	"\342\010!-\274~D\021j\022\024\203m\212\220\250\026m"
 195      BC7E4411 
 195      6A121483 
ARM GAS  /tmp/cchn9INy.s 			page 15


 195      6D8A90A8 
 195      166D
 196 0039 67131904 		.ascii	"g\023\031\004%\342H\273&\\\274h1\0137\241\024}@\323"
 196      25E248BB 
 196      265CBC68 
 196      310B37A1 
 196      147D40D3 
 197 004d 39EF631C 		.ascii	"9\357c\034S\320\013\357\274{\317\375\375\316\307\357"
 197      53D00BEF 
 197      BC7BCFFD 
 197      FDCEC7EF 
 198 005d 5C0102FE 		.ascii	"\\\001\002\376_\027\350\233\227\000\003|p\001\011\201"
 198      5F17E89B 
 198      9700037C 
 198      70010981 
 199 006d 02C98152 		.ascii	"\002\311\201R(\000+4\031\245\320!\217\016\255\203HP"
 199      28002B34 
 199      19A5D021 
 199      8F0EAD83 
 199      4850
 200 007f 84492195 		.ascii	"\204I!\225vp\362*\037A\367\303\023k\227\202\345\255"
 200      7670F22A 
 200      1F41F7C3 
 200      136B9782 
 200      E5AD
 201 0091 E7D9BB8F 		.ascii	"\347\331\273\217\247\027\355\337V\013\015_y\010\303"
 201      A717EDDF 
 201      560B0D5F 
 201      7908C3
 202 00a0 B4C3BEF0 		.ascii	"\264\303\276\360\307A;WH\273\277\362\340\336\303N\232"
 202      C7413B57 
 202      48BBBFF2 
 202      E0DEC34E 
 202      9A
 203 00b1 3C22ED75 		.ascii	"<\"\355u}.kwiJ\300Y<\032\363M}\241\223I\312\234;\214"
 203      7D2E6B77 
 203      694AC059 
 203      3C1AF34D 
 203      7DA19349 
 204 00c9 59467825 		.ascii	"YFx%V\202Vks\347\333\327\006\366f\020\230\210e\244z"
 204      5682566B 
 204      73E7DBD7 
 204      06F66610 
 204      988865A4 
 205 00de 0BF814FB 		.ascii	"\013\370\024\373A\261G\223\221\016\271\205KF\246\310"
 205      41B14793 
 205      910EB985 
 205      4B46A6C8 
 206 00ee A8340196 		.ascii	"\2504\001\226\011\320\005&\222\013f\255]\354\213X\321"
 206      09D00526 
 206      920B66AD 
 206      5DEC8B58 
 206      D1
 207 00ff 5539168B 		.ascii	"U9\026\213\326\225\330\3220\344\020\213!7`6x\331\304"
 207      D695D8D2 
 207      30E4108B 
 207      21376036 
ARM GAS  /tmp/cchn9INy.s 			page 16


 207      78D9C4
 208 0112 023E430D 		.ascii	"\002>C\015>\312\233\360\333\336\261=\006\265\027\216"
 208      3ECA9BF0 
 208      DBDEB13D 
 208      06B5178E 
 209 0122 03C8290C 		.ascii	"\003\310)\014\317\347\003\274k\276m,\3106\224[\331\323"
 209      CFE703BC 
 209      6BBE6D2C 
 209      C836945B 
 209      D9D3
 210 0134 C9101FE5 		.ascii	"\311\020\037\345:L\327j[\347\023\230\032\216\246\225"
 210      3A4CD76A 
 210      5BE71398 
 210      1A8EA695 
 211 0144 40749874 		.ascii	"@t\230t&X\275\355F\020\200vN\327\303\350!\031L\001P"
 211      2658BDED 
 211      46108076 
 211      4ED7C3E8 
 211      21194C01 
 212 0159 A0CF9FB6 		.ascii	"\240\317\237\266\277\210$\222\036\204\001\203\351G\260"
 212      BF882492 
 212      1E840183 
 212      E947B0
 213 0168 3465AD9D 		.ascii	"4e\255\2350\330E\245q\364L\310)\266\263l@\325\226\022"
 213      30D845A5 
 213      71F44CC8 
 213      29B6B36C 
 213      40D59612 
 214 017c 56BA1DBD 		.ascii	"V\272\035\275\333\343\216\303\216$E\363\321\361\321"
 214      DBE38EC3 
 214      8E2445F3 
 214      D1F1D1
 215 018b F53165F0 		.ascii	"\3651e\360X\230\254\366s\373W,\304 \274\240\0246c\360"
 215      5898ACF6 
 215      73FB572C 
 215      C420BCA0 
 215      143663F0 
 216 019f 38A5A314 		.ascii	"8\245\243\024'(\320n#\305X\032\366\364p\305\304^\253"
 216      2728D06E 
 216      23C5581A 
 216      F6F470C5 
 216      C45EAB
 217 01b2 EEEC67AB 		.ascii	"\356\354g\253\203\331\"\021\226k\275\025\2547\367Kq"
 217      83D92211 
 217      966BBD15 
 217      AC37F74B 
 217      71
 218 01c3 D28BB58D 		.ascii	"\322\213\265\215\251\247X\224^\306\317\004\365\367\007"
 218      A9A75894 
 218      5EC6CF04 
 218      F5F707
 219 01d2 4AA7F748 		.ascii	"J\247\367H\267Z\375\221M4 \241\322\211\3764I\271\006"
 219      B75AFD91 
 219      4D3420A1 
 219      D289FE34 
 219      49B906
 220 01e5 53041A61 		.ascii	"S\004\032a\306\307p\353G\0155\000i`j\363\373i\342\350"
ARM GAS  /tmp/cchn9INy.s 			page 17


 220      C6C770EB 
 220      470D3500 
 220      69606AF3 
 220      FB69E2E8 
 221 01f9 B93FDDFC 		.ascii	"\271?\335\374V\350\206\353=\223\313\345/\226L\321\\"
 221      56E886EB 
 221      3D93CBE5 
 221      2F964CD1 
 221      5C
 222 020a BA9CBF5E 		.ascii	"\272\234\277^\311\217\215\347+c^\336+\215L\\+\224\215"
 222      C98F8DE7 
 222      2B635EDE 
 222      2B8D4C5C 
 222      2B948D
 223 021d 97F340DE 		.ascii	"\227\363@\336\250\214\212\361\321\177\312b\321\345"
 223      A88C8AF1 
 223      D17FCA62 
 223      D1E5
 224              		.text
 225              		.section	.gnu.lto_.symbol_nodes.2a470844e40a6679,"",%progbits
 226 0000 789C4DCD 		.ascii	"x\234M\315;\216\3020\024\205\341s\256IL\022X\003;\033"
 226      3B8EC230 
 226      1485E173 
 226      AE494C12 
 226      58033B1B 
 227 0014 8995DC88 		.ascii	"\211\225\334\210H\243H\024\320\260\001(`\035C?\345\324"
 227      48A34814 
 227      D0B00128 
 227      601D433F 
 227      E5D4
 228 0026 404DC343 		.ascii	"@M\303Cb\304\333y\010\333\315\257\357\372\312\026\010"
 228      62C4DB79 
 228      08DBCDAF 
 228      EFFACA16 
 228      08
 229 0037 BE88E6C8 		.ascii	"\276\210\346\310\013\012L\177\001\325Y9\224\234\312"
 229      0B0A4C7F 
 229      01D55939 
 229      949CCA
 230 0046 804BAA04 		.ascii	"\200K\252\004\\QM\300\003\265\323\362\257\244\034\251"
 230      5C514DC0 
 230      03B5D3F2 
 230      AFA41CA9 
 231 0056 51C01335 		.ascii	"Q\300\0235\016x\246ZO\376S\273\015\363\234\274P\023"
 231      0E78A65A 
 231      4FFE53BB 
 231      0DF39CBC 
 231      5013
 232 0068 AF3B35F5 		.ascii	"\257;5\365\272Q3\257+\265\347\365\240\366?2\002\214"
 232      BA5133AF 
 232      2BB5E7F5 
 232      A0F63F32 
 232      028C
 233 007a 364F1AC3 		.ascii	"6O\032\303\246\035ik0\337\272F\255#\203\237\332\011"
 233      A61D696B 
 233      30DFBA46 
 233      AD23839F 
ARM GAS  /tmp/cchn9INy.s 			page 18


 233      DA09
 234 008c 16E3FDC0 		.ascii	"\026\343\375\300D]\254'\256q\017Eu\037\013vu3\024\325"
 234      445DAC27 
 234      AE710F45 
 234      751F0B76 
 234      753314D5 
 235 00a0 5E9C625D 		.ascii	"^\234b]\327`W\325\366\233=\333\356\331\014\213z\236"
 235      D76057D5 
 235      F69B3DDB 
 235      EED90C8B 
 235      7A9E
 236 00b2 A2F876EF 		.ascii	"\242\370v\357X\367\237+\336\307Rp\350"
 236      58F79F2B 
 236      DEC75270 
 236      E8
 237              		.text
 238              		.section	.gnu.lto_.refs.2a470844e40a6679,"",%progbits
 239 0000 789C6362 		.ascii	"x\234cb`b`d\200\002\000\000F\000\006"
 239      60626064 
 239      80020000 
 239      460006
 240              		.text
 241              		.section	.gnu.lto_.decls.2a470844e40a6679,"",%progbits
 242 0000 789CBD5B 		.ascii	"x\234\275[{t\024U\232\257[\235N\247\223\006\242\216"
 242      7B741455 
 242      9AAF5B9D 
 242      4EA79306 
 242      A28E
 243 0012 4EF4F868 		.ascii	"N\364\370h\347\2143\2633\207\004\021\021=g\007]v\035"
 243      E78C33B3 
 243      33870411 
 243      113D6707 
 243      5D761D
 244 0025 3C67DDF1 		.ascii	"<g\335\361\310xf\377\353):E\272\307\364c\272+\004\366"
 244      C87866FF 
 244      EB293A45 
 244      BAC7F463 
 244      BA2B04F6 
 245 0039 1F2B1DC8 		.ascii	"\037+\035\310\0108\021\010\011\240\021\242(\210\017"
 245      08381108 
 245      09A011A2 
 245      28880F
 246 0048 6240810C 		.ascii	"b@\201\014jJ\036\341\035\010\362r\015$\032\030\226\225"
 246      6A4A1EE1 
 246      1D08F272 
 246      0D241A18 
 246      9695
 247 005a 15326830 		.ascii	"\0252h02\322\373\335[\217\256\272]U]\035\306\251sn\325"
 247      32D2FBDD 
 247      5B8FAEBA 
 247      5D555D1D 
 247      C6A9736E 
 248 006f ADAA7B7F 		.ascii	"\255\252{\177\367{\335\357\373\356\255n\226a\231g]\014"
 248      F77BDDEF 
 248      FBEEAD6E 
 248      96619967 
 248      5D0C
ARM GAS  /tmp/cchn9INy.s 			page 19


 249 0081 9386E3B6 		.ascii	"\223\206\343\266\207\030\246\337\3030^\206a~\311d\216"
 249      8718A6DF 
 249      C3305E86 
 249      617EC964 
 249      8E
 250 0092 B1505E86 		.ascii	"\261P^\206\262\026\312z(oAi\207\022G\0143\033\312V("
 250      B216CA7A 
 250      286F4169 
 250      8712470C 
 250      331BCA56 
 251 00a7 27A0F441 		.ascii	"'\240\364A9\015e\020\312\027P.!&\353\3008n(\222\202"
 251      390D6510 
 251      CA17502E 
 251      2126EBC0 
 251      386E2892 
 252 00bc EB83F215 		.ascii	"\353\203\362\025\264\033V\332\262J\233oL\372\256u\320"
 252      B41B56DA 
 252      B24A9B6F 
 252      4CFAAE75 
 252      D0
 253 00cd 77AD45DF 		.ascii	"w\255E\337\365\312{\004\247W\230L\373\365\312x\364\201"
 253      F5CA7B04 
 253      A757984C 
 253      FBF5CA78 
 253      F481
 254 00df 792C84D2 		.ascii	"y,\204\322\241\033\313c\322\377-eL<$\313\0321\260\214"
 254      A11BCB63 
 254      D2FF2D65 
 254      4C3C24CB 
 254      1A31B08C 
 255 00f3 8A94772A 		.ascii	"\212\224w*F\207\016c\034\274\330\250\276\207\223K\351"
 255      46870E63 
 255      1CBCD8A8 
 255      BE87934B 
 255      E9
 256 0104 A3CA18DF 		.ascii	"\243\312\030\337\027A\333\010\274+\246\260\261\354o"
 256      1741DB08 
 256      BC2BA6B0 
 256      B1EC6F
 257 0113 A0B00B14 		.ascii	"\240\260\013\024\374\251\012\266:\016\036#\015\245\030"
 257      FCA90AB6 
 257      3A0E1E23 
 257      0DA518
 258 0122 C97A7D13 		.ascii	"\311z}\023\256\353\240\224\300\373\223H\346\023\217"
 258      AEEBA094 
 258      C0FB9348 
 258      E6138F
 259 0131 7F0DAE5E 		.ascii	"\177\015\256^\270\236\207\3539(a$\313\033\217\245\322"
 259      B89E87EB 
 259      39286124 
 259      CB1B8FA5 
 259      D2
 260 0142 D4A7E81A 		.ascii	"\324\247\350\032?\367A\177\001\323\001\327\033\241\334"
 260      3FF7417F 
 260      01D301D7 
 260      1BA1DC
 261 0151 44D1886D 		.ascii	"D\321\210m\243\224\222!\246\355\007\320\356\202\216"
ARM GAS  /tmp/cchn9INy.s 			page 20


 261      A3949221 
 261      A6ED07D0 
 261      EE828E
 262 0160 BE9BE17A 		.ascii	"\276\233\341z\006\311\364\251\362\270\205\225\351\352"
 262      06C9F4A9 
 262      F2B88595 
 262      E9EA
 263 016e 47F2BD57 		.ascii	"G\362\275W\241s\266b[\230\236A\305\336T]m\200\372;P"
 263      A173B662 
 263      5B989E41 
 263      C5DE545D 
 263      6D80FA3B 
 264 0183 3AA06C82 		.ascii	":\240l\202\362\036\224\037R4a[\375\001E\223[\241\253"
 264      F21E941F 
 264      5234615B 
 264      FD014593 
 264      5BA1AB
 265 0196 0CDA0EE9 		.ascii	"\014\332\016\351\350\232\007\365\367\241lC\271i\304"
 265      E89A07F5 
 265      F7A16C43 
 265      B969C4
 266 01a5 BADA8B64 		.ascii	"\272\332\213d:\303\012\255[\2259`F\353\255\320\267\027"
 266      3AC30AAD 
 266      5B953960 
 266      46EBADD0 
 266      B717
 267 01b7 EE3F8672 		.ascii	"\356?\206r\024\3121(wR\264\336\305\254\022\245\303\003"
 267      14CA3128 
 267      7752B4DE 
 267      C5AC12A5 
 267      C303
 268 01c9 F3FF32C8 		.ascii	"\363\3772\310\256\024\245y\"LQ\021\371oa\232E8\332\032"
 268      AE14A579 
 268      224C5111 
 268      F96F619A 
 268      4538DA1A 
 269 01dd 4411091C 		.ascii	"D\021\011\034\372\345\315\314\177\"\016\215\3652~R\361"
 269      FAE5CDCC 
 269      7F220E8D 
 269      F5327E52 
 269      F1
 270 01ee 79891D30 		.ascii	"y\211\0350\014\207^A\267(\265\247\\2\"\313\224#\346"
 270      0C875E41 
 270      B728B5A7 
 270      5C3222CB 
 270      9423E6
 271 0201 E7CC7AE8 		.ascii	"\347\314z\350\277X\024Sw2f\307O\230\327\360\000\342"
 271      BF581453 
 271      773266C7 
 271      4F98D7F0 
 271      00E2
 272 0213 EBA28BC0 		.ascii	"\353\242\213\300c\200\227\321]\372&\034Z\203\014\304"
 272      638097D1 
 272      5DFA261C 
 272      5A830CC4 
 273 0223 CAA44A8B 		.ascii	"\312\244J\213\373}\213\353\006\322\351\325m\245\362"
 273      FB7D8BEB 
ARM GAS  /tmp/cchn9INy.s 			page 21


 273      06D2E9D5 
 273      6DA5F2
 274 0232 F02C3315 		.ascii	"\360,3\025A\353W\321\317m\341\327\322\360\353\314\340"
 274      41EB57D1 
 274      CF6DE1D7 
 274      D2F0EBCC 
 274      E0
 275 0243 0736379C 		.ascii	"\00767\234r\353$\241\016\021q2\304zz\2107L9h=\221\305"
 275      72EB24A1 
 275      0E117132 
 275      C47A7A88 
 275      374C3968 
 276 025a 41AD13F8 		.ascii	"A\255\023\370\267h\370\267\263\341\333\244\201\345\013"
 276      B768F8B7 
 276      B3E1DBA4 
 276      81E50B
 277 0269 BB3BD092 		.ascii	"\273;\320\222zq\217x)\235\036Wj\320e\011\263\020t\202"
 277      7A718F78 
 277      299D1E57 
 277      6AD06509 
 277      B3107482 
 278 027d 6FA6EF19 		.ascii	"o\246\357\031{#\263\004\277\361\357\001#U\364\333V\240"
 278      7B23B304 
 278      BFF1EF01 
 278      2355F4DB 
 278      56A0
 279 028f 2AF85F01 		.ascii	"*\370_\001\360\036\346UP\342\300\213\373\273\036\022"
 279      F01EE655 
 279      50E2C08B 
 279      FBBB1E12 
 280 029f C5220E6D 		.ascii	"\305\"\016mD7\002\255\007\220\221\330\2340,X\036\356"
 280      443702AD 
 280      079091D8 
 280      9C302C58 
 280      1EEE
 281 02b1 F21E7497 		.ascii	"\362\036t\227;\022`q \335\270\253\036\325\001]\362;"
 281      3B126071 
 281      20DDB8AB 
 281      1ED5015D 
 281      F23B
 282 02c3 869281EE 		.ascii	"\206\222\201\356\270\233i\003\272\245\345\215/\335*"
 282      B89B6903 
 282      BAA5E58D 
 282      2FDD2A
 283 02d2 B66D87F6 		.ascii	"\266m\207\366\035\250\004pS\254\212kf\237JU>\224\006"
 283      1DA80470 
 283      53AC8A6B 
 283      669F4A55 
 283      3E9406
 284 02e5 46BC177A 		.ascii	"F\274\027z|\2139\025lA\336`~\003\330\352\236VB\234\227"
 284      7C8B3915 
 284      6C41DE60 
 284      7E03D8EA 
 284      9E56429C 
 285 02fa 79362363 		.ascii	"y6#c\306\024L\021l\357\322\235\275\250\236\360\377\001"
 285      C6144C11 
 285      6CEFD29D 
ARM GAS  /tmp/cchn9INy.s 			page 22


 285      BDA89EF0 
 285      FF01
 286 030c 746399DD 		.ascii	"tc\231\335\254Q\264\316\241\272Zv}\204R\004J\"P;\\\243"
 286      AC51B4CE 
 286      A1BA5A76 
 286      7D845204 
 286      4A22503B 
 287 0322 85EA5CF5 		.ascii	"\205\352\\\365\376\203D\335;\010Po\201\021\210C\036"
 287      FE8344DD 
 287      3B08506F 
 287      81118843 
 287      1E
 288 0333 4D8CDABD 		.ascii	"M\214\332\275\332\000\243\221\327J\005\207\374q\314"
 288      DA00A391 
 288      D74A0587 
 288      FC71CC
 289 0342 F7DC9C65 		.ascii	"\367\334\234e\372\012\034\250\256\310\312\016\304\201"
 289      FA0A1CA8 
 289      AEC8CA0E 
 289      C481
 290 0350 6B8D075C 		.ascii	"k\215\007\\x\322\273\024[n+\264\222\021\313\014\222"
 290      78D2BB14 
 290      5B6E2BB4 
 290      9211CB0C 
 290      92
 291 0361 B1F6D0B6 		.ascii	"\261\366\320\266\274\345\334\236\177Z!\212\245\362\253"
 291      BCE5DC9E 
 291      7F5A218A 
 291      A5F2AB
 292 0370 DCA6FCDE 		.ascii	"\334\246\374\336\276\345\304Zr\316HV\035\376\307d\370"
 292      BEE5C45A 
 292      72CE4856 
 292      1DFEC764 
 292      F8
 293 0381 26371EFE 		.ascii	"&7\036\376 =\374k\351\217\020Q\332AG\243\367\036Y\226"
 293      203DFC6B 
 293      E98F1051 
 293      DA4147A3 
 293      F71E5996 
 294 0395 3DBAA5A3 		.ascii	"=\272\245\243W\014c\313\271\377\271}5a\261\227L\230"
 294      570C63CB 
 294      B9FFB97D 
 294      3561B197 
 294      4C98
 295 03a7 D56EDA32 		.ascii	"\325n\3322\246\226\030u\007\367\272\006,\363\272F\374"
 295      A6961875 
 295      07F7BA06 
 295      2CF3BA46 
 295      FC
 296 03b8 A8E6EBC0 		.ascii	"\250\346\353\300ko\354#a\312\245\222\360f\336\200~\203"
 296      6B6FEC23 
 296      61CAA592 
 296      F066DE80 
 296      7E83
 297 03ca 1C8E1E21 		.ascii	"\034\216\036!\016@\006\333\340\004\314\322\212R\322"
 297      0E4006DB 
 297      E004CCD2 
ARM GAS  /tmp/cchn9INy.s 			page 23


 297      8A52D2
 298 03d9 713D5847 		.ascii	"q=XG\336`F\312N\352\301\336u\002VjM\331\177\353\301"
 298      DE6046CA 
 298      4EEAC1DE 
 298      7502566A 
 298      4DD97FEB 
 299 03ee B6E40D66 		.ascii	"\266\344\015f\244\254O\017\366g'`e\326\224\235\326\203"
 299      A4AC4F0F 
 299      F6672760 
 299      65D6949D 
 299      D683
 300 0400 7D983798 		.ascii	"}\2307\230\221\262Kz\260\355N\300\374&\224i\207U\316"
 300      91B24B7A 
 300      B0ED4EC0 
 300      FC269469 
 300      8755CE
 301 0413 73006966 		.ascii	"s\000if\3162\273\334\252;\310\323\244\231\014\306^w"
 301      CE32BBDC 
 301      AA3BC8D3 
 301      A4990CC6 
 301      5E77
 302 0425 BEEECBC0 		.ascii	"\276\356\313\3007\304\321\203kP\023D\374\011j,;\344"
 302      37C4D183 
 302      6B501344 
 302      FC096A2C 
 302      3BE4
 303 0437 04D1C660 		.ascii	"\004\321\306`6\353\003\343\211\274\301\214j9\212\301"
 303      36EB03E3 
 303      89BCC18C 
 303      6A398AC1 
 304 0447 0C9E4609 		.ascii	"\014\236F\011F\003\257Ie+2\256\256H\305\302\211\257"
 304      4603AF49 
 304      652B32AE 
 304      AE48C5C2 
 304      89AF
 305 0459 ECD72083 		.ascii	"\354\327 \203d\265\306bY\231y[\016}\211\356\201\363"
 305      64B5C662 
 305      5999795B 
 305      0E7D89EE 
 305      81F3
 306 046b 45E4D5A8 		.ascii	"E\344\325\250\220\353j-\215\260\234\373\335&\2536Y\247"
 306      90EB6A2D 
 306      8DB09CFB 
 306      DD26AB36 
 306      59A7
 307 047d F65DAD2C 		.ascii	"\366]\255,\341\202\336\022\3168\021\223\315T\270d%&"
 307      E182DE12 
 307      CE381193 
 307      CD54B864 
 307      2526
 308 048f A9417C16 		.ascii	"\251A|\026\325u\334\256\365{Xo\023\031\347|\307\033"
 308      D575DCAE 
 308      F57B586F 
 308      1319E77C 
 308      C71B
 309 04a1 C4397F45 		.ascii	"\3049\177E\302\366\027n\323\370\357\010\253\253\345"
 309      C2F6176E 
ARM GAS  /tmp/cchn9INy.s 			page 24


 309      D3F8EF08 
 309      ABABE5
 310 04b0 909A4C5C 		.ascii	"\220\232L\\!`\303\243\007k\353<}\273X\300\241o\011P"
 310      2160C3A3 
 310      076BEB3C 
 310      7DBB58C0 
 310      A16F0950 
 311 04c4 3A2B6478 		.ascii	":+dx\251d\302k\014\367^o\246\222V\017\243\026\277\327"
 311      A964C26B 
 311      0CF75E6F 
 311      A692560F 
 311      A316BFD7 
 312 04d8 3E569ABF 		.ascii	">V\232\277\254\327\374\302\302|5o\230 \003\327zN\273"
 312      ACD7FCC2 
 312      C27C356F 
 312      982003D7 
 312      7A4EBB
 313 04eb 968B529D 		.ascii	"\226\213R\235Kg\352\266\363\002R\307#\037\3763\211\367"
 313      4B67EAB6 
 313      F30252C7 
 313      231FFE33 
 313      89F7
 314 04fd 6922D7E6 		.ascii	"i\"\327\346BS\0059\000\352jy\373\027\004(\305b\240U"
 314      42530539 
 314      00EA6A79 
 314      FB170428 
 314      C562A055 
 315 0511 A306EA5C 		.ascii	"\243\006\352\\\265j\012\001\232O\200\326\026\322\232"
 315      B56A0A01 
 315      9A4F80D6 
 315      16D29A
 316 0520 4694A691 		.ascii	"F\224\246\221Q\003\332\244S\346\334\367\325\226e\336"
 316      5103DAA4 
 316      53E6DCF7 
 316      D59665DE 
 317 0530 A1D56560 		.ascii	"\241\325e`\307&2\250\356\266\347L\023\272\234\022WL"
 317      C72632A8 
 317      EEB6E74C 
 317      13BA9C12 
 317      574C
 318 0542 C8435F4B 		.ascii	"\310C_K\025}-$\322\331\232%\035,\376\374\330\220\362"
 318      157D2D24 
 318      D2D99A25 
 318      1D2CFEFC 
 318      D890F2
 319 0555 66A3C8C8 		.ascii	"f\243\310\310F\343\271Q\260\321%\263\361<ac\317\337"
 319      46E3B951 
 319      B0D125B3 
 319      F13C6163 
 319      CFDF
 320 0567 818DC379 		.ascii	"\201\215\303y\263Q\252c\003\026\221=W\226\311\301\357"
 320      B351AA63 
 320      0316913D 
 320      5796C9C1 
 320      EF
 321 0578 2666A97D 		.ascii	"&f\251}\362\216\351Y\306\336d\310\234\245\257\017\341"
 321      F28EE959 
ARM GAS  /tmp/cchn9INy.s 			page 25


 321      C6DE64C8 
 321      9CA5AF0F 
 321      E1
 322 0589 553E7E9C 		.ascii	"U>~\234+m\026\245\246#\272%\236\350h\211wD[\342-'\""
 322      2B6D16A5 
 322      A623BA25 
 322      9EE86889 
 322      77445BE2 
 323 05a0 3B6136C1 		.ascii	";a6\301\234@\265u\035\277\031;\322\027\010\314\251\321"
 323      9C40B575 
 323      1DBF193B 
 323      D21708CC 
 323      A9D1
 324 05b2 C20C749E 		.ascii	"\302\014t\236\336\"\317\323\227\010\320\331,\025\026"
 324      DE22CFD3 
 324      9708D0D9 
 324      2C1516
 325 05c1 521A2C34 		.ascii	"R\032,4j\020n\361H\337\020\007\371\214\362\004\337x"
 325      6A106EF1 
 325      48DF1007 
 325      F98CF204 
 325      DF78
 326 05d3 987F783F 		.ascii	"\230\177x?\226\271H\310\307\332\3133\375R\255\247\361"
 326      96B948C8 
 326      C7DACB33 
 326      FD52ADA7 
 326      F1
 327 05e4 C0323575 		.ascii	"\30025u\222\0254|]\210)\251k\251\272G1\025'O\351\353"
 327      9215347C 
 327      5D8829A9 
 327      6BA9BA47 
 327      3115274F 
 328 05fa 8423D9B6 		.ascii	"\204#\331\266!+\240\326l\033-\302\216\272y\263\250["
 328      212BA0D6 
 328      6C1B2DC2 
 328      8EBA79B3 
 328      A85B
 329 060c 8DE5EB58 		.ascii	"\215\345\353XLP\203\207Vx\007\242\226m\370\201\256\211"
 329      4C508387 
 329      567807A2 
 329      966DF881 
 329      AE89
 330 061e D5545ACB 		.ascii	"\325TZ\313\352b\340J\317u*\242\347\024\245\210\325\327"
 330      EA62E04A 
 330      CF752AA2 
 330      E714A588 
 330      D5D7
 331 0630 85989256 		.ascii	"\205\230\222V6\275\344h\205\375;\025\313G\030YG\206"
 331      36BDE468 
 331      85FD3B15 
 331      CB471859 
 331      4786
 332 0642 6D67A905 		.ascii	"mg\251\005\366'W\007\032\0249\342w\271}\305\247g\275"
 332      F6275707 
 332      1A1439E2 
 332      77B97DC5 
 332      A767BD
ARM GAS  /tmp/cchn9INy.s 			page 26


 333 0655 E2529FC9 		.ascii	"\342R\237\311xf\031\327\213\213\216.A\363\010\372&\026"
 333      786619D7 
 333      8B8B8E2E 
 333      41F308FA 
 333      2616
 334 0667 6FB21DA7 		.ascii	"o\262\035\247\264\244nL<l\005\3042\177!]6\323\204\203"
 334      B4A46E4C 
 334      3C6C05C4 
 334      327F215D 
 334      36D38483 
 335 067b 7F4C299B 		.ascii	"\177L)\233l\233\035\020\236\222\206\026\3517\3318\324"
 335      6C9B1D10 
 335      9E928616 
 335      E937D938 
 335      D4
 336 068c 89580577 		.ascii	"\211X\005wtz\370\353~m-\301\241my\203\371\315HU-5\303"
 336      747AF8EB 
 336      7E6D2DC1 
 336      A16D7983 
 336      F9CD4855 
 337 06a3 2D87B6B2 		.ascii	"-\207\266\262x\015\320\311\336\015\347?\303Y;X\346\212"
 337      780DD0C9 
 337      DE0DE73F 
 337      C3593B58 
 337      E68A
 338 06b5 A65333D1 		.ascii	"\246S3\321\3456\316O\256~\323\"\033g>\236\277[\333\334"
 338      E536CE4F 
 338      AE7ED322 
 338      1B673E9E 
 338      BF5BDBDC 
 339 06c9 23F69CCE 		.ascii	"#\366\234\316\232x/\320\3012/\3277\277\210b*\347\252"
 339      9A782FD0 
 339      C1322FD7 
 339      37BF8862 
 339      2AE7AA
 340 06dc 913EAC26 		.ascii	"\221>\254&\366\006\375\304^Tt]\323\020\354\357\313W"
 340      F606FDC4 
 340      5E54745D 
 340      D310ECEF 
 340      CB57
 341 06ee 65D9E59A 		.ascii	"e\331\345\232\210\"R\341J\311\310K\311\310;i\203\276"
 341      882252E1 
 341      4AC9C84B 
 341      C9C83B69 
 341      83BE
 342 0700 F2CADE3F 		.ascii	"\362\312\336?*\006\275\323\321L\374\232\314Duf}\240"
 342      2A06BDD3 
 342      D14CFC9A 
 342      CC447566 
 342      7DA0
 343 0712 A18EC616 		.ascii	"\241\216\306\026R\322\310\371\275\210\300\311\213\343"
 343      52D2C8F9 
 343      BD88C0C9 
 343      8BE3
 344 0720 5D349C53 		.ascii	"]4\234S-(p\177\343\363\025\214l_\322'gq\336r\220\360"
 344      2D28707F 
 344      E3F3158C 
ARM GAS  /tmp/cchn9INy.s 			page 27


 344      6C5FD227 
 344      6771DE72 
 345 0736 74B08836 		.ascii	"t\260\2106-Y2:\323\332\251\233)\335d\246\354&3e/9\357"
 345      2D59323A 
 345      D3DAA99B 
 345      29DD64A6 
 345      EC263365 
 346 074d D7CF172B 		.ascii	"\327\317\027+\2638\2407\213cy\363\355wh};\364\303\364"
 346      B338A037 
 346      8B6379F3 
 346      ED77687D 
 346      3BF4C3F4 
 347 0761 5DA7F55D 		.ascii	"]\247\365]\353\031. ;\206y\354\312\037\331\245N\334"
 347      EB192E20 
 347      3B8679EC 
 347      CA1FD9A5 
 347      4EDC
 348 0773 8FC9C41D 		.ascii	"\217\311\304\035\314\222\256D\257e\234lR_\034-+\332"
 348      CC92AE44 
 348      AF659C6C 
 348      525F1C2D 
 348      2BDA
 349 0785 01C94991 		.ascii	"\001\311I\221\203\225\246\337D\352Z\272sM\211\2629w"
 349      8395A6DF 
 349      44EA5ABA 
 349      734D89B2 
 349      3977
 350 0797 BAB58F3F 		.ascii	"\272\265\217?\007\352\224\310\364\011\261\265o\213\314"
 350      07EA94C8 
 350      F409B1B5 
 350      6F8BCC
 351 07a6 2393CD96 		.ascii	"#\223\315\226\371\002/\356\322\227\025\231\032\277R"
 351      F9022FEE 
 351      D2971599 
 351      1ABF52
 352 07b5 23539FA3 		.ascii	"#S\237\243\310\364\261id\352\313?2\231\035z\0029t\232"
 352      C8F4B169 
 352      64EACB3F 
 352      32991D7A 
 352      0239749A 
 353 07c9 4C917E63 		.ascii	"L\221~c\030Y\351"
 353      1859E9
 354 07d0 7520FD9F 		.ascii	"u \375\237Y\031\243(5\037oE2\375\262+ZC\343\231\271"
 354      5919A328 
 354      351F6F45 
 354      32FDB22B 
 354      5A43E399 
 355 07e5 22039E5E 		.ascii	"\"\003\236^\233)\351\235\343$\262\312V\272\301\011q"
 355      9B29E99D 
 355      E324B2CA 
 355      56BAC109 
 355      71
 356 07f6 13ACC1BA 		.ascii	"\023\254\301\272ZT\341\356 yb\247\023\274)V\314\246"
 356      5A54E1EE 
 356      207962A7 
 356      13BC2956 
 356      CCA6
ARM GAS  /tmp/cchn9INy.s 			page 28


 357 0808 A413C75B 		.ascii	"\244\023\307[\025<\371\333\326\216\274\361\214\364}"
 357      153CF9DB 
 357      D68EBCF1 
 357      8CF47D
 358 0817 DD62C8AB 		.ascii	"\335b\310\253{\234\300=\354X\367\231o\223\034\332B6"
 358      7B9CC03D 
 358      EC58F799 
 358      6F931CDA 
 358      4236
 359 0829 13B72292 		.ascii	"\023\267\"\222H\220\363\373\344\274\233\234\317\221"
 359      4890F3FB 
 359      E4BC9B9C 
 359      CF91
 360 0837 F37972FE 		.ascii	"\363yr\376\202\234\377J\316\327\310y\001q\247\215\344"
 360      829CFF4A 
 360      CED7C879 
 360      0171A78D 
 360      E4
 361 0848 DC44CE27 		.ascii	"\334D\316'\311\3713r\036$\347\263\344|\216\234\317;"
 361      C9F93372 
 361      1E24E7B3 
 361      E47C8E9C 
 361      CF3B
 362 085a 71BC0EF3 		.ascii	"q\274\016\363\361w\224o\361.\362\253\021\255\237\372"
 362      F177946F 
 362      F12EF2AB 
 362      11AD9FFA 
 363 086a 619E98F0 		.ascii	"a\236\230\360q\257q\366\376\230Y#\212K\3617\343%hY\275"
 363      71AF71F6 
 363      FE985923 
 363      8A4BF137 
 363      E3256859 
 364 087f 385D0D6B 		.ascii	"8]\015k\237\223v\355\350.\323\321\2645\003\371L\235"
 364      9F9376ED 
 364      E82ED3D1 
 364      B43503F9 
 364      4C9D
 365 0891 12B79C79 		.ascii	"\022\267\234yb\272\372\314\272\227B\346\005\326\344"
 365      62BAFACC 
 365      BA9742E6 
 365      05D6E4
 366 08a0 ABB574A5 		.ascii	"\253\265t\245a?\204U\361o\351t}\001\343\374\367\007"
 366      613F8455 
 366      F16FE974 
 366      7D01E3FC 
 366      F707
 367 08b2 436C6E9E 		.ascii	"Cln\236\317\232\362,^\255\234\2566\377\222\305\216\344"
 367      CF9AF22C 
 367      5EAD9CAE 
 367      36FF92C5 
 367      8EE4
 368 08c4 12EB845B 		.ascii	"\022\353\204[Q\374\2238\277\024i_\345q/\203)]6\345o"
 368      51FC9338 
 368      BF14695F 
 368      E5712F83 
 368      295D36E5 
 369 08d9 68DF9FC0 		.ascii	"h\337\237\300|SR:\335\3650\315\037\206\267b\360\212"
ARM GAS  /tmp/cchn9INy.s 			page 29


 369      7C53523A 
 369      DDF530CD 
 369      1F86B762 
 369      F08A
 370 08eb 9141D354 		.ascii	"\221A\323T\341\331\301\314N\245\250}/\3643\232\023?"
 370      E1D9C1CC 
 370      4EA5A87D 
 370      2FF4339A 
 370      133F
 371 08fd D6FED96E 		.ascii	"\326\376\331n%\244}K<Os\261\3717|k$\360V\244\317w\224"
 371      25A47D4B 
 371      3C4F73B1 
 371      F9377C6B 
 371      24F056A4 
 372 0914 1797BA1A 		.ascii	"\027\227\272\032|x[\342;G\036\274\267\2735{MFIc\252"
 372      7C785BE2 
 372      3B471EBC 
 372      B7BB357B 
 372      4D464963 
 373 0929 B530522E 		.ascii	"\2650R.\2030\362\370<\276\351\263\207\332\311\3568\316"
 373      8330F2F8 
 373      3CBEE9B3 
 373      87DAC9EE 
 373      38CE
 374 093b 04586663 		.ascii	"\004Xfc\011\035\322\335TDw\033#\272\333\233\251(\021"
 374      091DD2DD 
 374      5444771B 
 374      23BADB9B 
 374      A92811
 375 094e DD606536 		.ascii	"\335`e6c_\3366\324\242\254\034\353\\xn\365S\203S\013"
 375      635FDE36 
 375      D4A2AC1C 
 375      EB5C786E 
 375      F5538353 
 376 0963 7ACCA495 		.ascii	"z\314\244\225\000\026\270J,d\234\365\216e.\224\250\012"
 376      0016B84A 
 376      2C649CF5 
 376      8E652E94 
 376      A80A
 377 0975 1B4DEE24 		.ascii	"\033M\356$\202\325\364\336\326\371\256(v\374N\331Y\223"
 377      82D5F4DE 
 377      D6F9AE28 
 377      76FC4ED9 
 377      5993
 378 0987 0AF5F641 		.ascii	"\012\365\366A-?\257\220\321\236sQ\333kM\335.\277\374"
 378      2D3FAF90 
 378      D19E7351 
 378      DB6B4DDD 
 378      2EBFFC
 379 099a 38B77534 		.ascii	"8\267u47<\177\233\330\366\\\231\372\015\243\336\247"
 379      373C7F9B 
 379      D8F65C99 
 379      FA0DA3DE 
 379      A7
 380 09ab 428E6AD9 		.ascii	"B\216j\331&m\352.\316,\301\255\227\316\230\260\245."
 380      266DEA2E 
 380      CE2CC1AD 
ARM GAS  /tmp/cchn9INy.s 			page 30


 380      97CE98B0 
 380      A52E
 381 09bd CAAC9777 		.ascii	"\312\254\227w\343\364\032?\316\275\300X\335\215}\227"
 381      E3F41A3F 
 381      CEBDC058 
 381      DD8D7D97 
 382 09cd CFD1FE63 		.ascii	"\317\321\376c3-\240\225\335\254_~\234[@/6\230li\030"
 382      332DA095 
 382      DDAC5F7E 
 382      9C5B402F 
 382      36986C69 
 383 09e2 249435DE 		.ascii	"$\2245\336\012\227.\233^@\004\332l\321<\367\332\247"
 383      0A972E9B 
 383      5E4004DA 
 383      6CD13CF7 
 383      DAA7
 384 09f4 B59B241C 		.ascii	"\265\233$\034#$Ah\034-\230v\260L\023\301\300R\036\035"
 384      23244168 
 384      1C2D9876 
 384      B04C13C1 
 384      C0521E1D 
 385 0a08 411DDD6A 		.ascii	"A\035\335j\222!\317\353\346\274\361\374Y4\2750Z\253"
 385      9221CFEB 
 385      E6BCF1FC 
 385      5934BD30 
 385      5AAB
 386 0a1a D361B4FA 		.ascii	"\323a\264\372\250\251g\206a\375\203\024\351\344\243"
 386      A8A96786 
 386      61FD8314 
 386      E9E4A3
 387 0a29 58CEF2E2 		.ascii	"X\316\362\342n\015\215e\\\016\352\252\316R\235\357t"
 387      6E0D8D65 
 387      5C0EEAAA 
 387      CE529DEF 
 387      74
 388 0a3a 696E9AA4 		.ascii	"in\232\244\271\242\013\247\"\213\310\371e\227\203\204"
 388      B9A20BA7 
 388      228BC8F9 
 388      65978384 
 389 0a4a 6424B344 		.ascii	"d$\263D\323\002/V\200\376\376\003\244\277\267s\3706"
 389      D3022F56 
 389      80FEFE03 
 389      A4BFB773 
 389      F836
 390 0a5c E17D9D8B 		.ascii	"\341}\235\213\012\357S\251\350n\343w7\015~\246\356\330"
 390      0AEF53A9 
 390      E86EE377 
 390      370D7EA6 
 390      EED8
 391 0a6e AD257EF7 		.ascii	"\255%~\367\220\317\326\357\256\263\361\273o\332\370"
 391      90CFD6EF 
 391      AEB3F1BB 
 391      6FDAF8
 392 0a7d DDEC777A 		.ascii	"\335\354wzj\031*P\260\314\011\237E\012\326\3679j&)\230"
 392      6A192A50 
 392      B0CC099F 
 392      450AD6F7 
ARM GAS  /tmp/cchn9INy.s 			page 31


 392      396A2629 
 393 0a92 3CBFBE20 		.ascii	"<\277\276 \355\206-\223\022\242\004%\227\031\341\247"
 393      ED862D93 
 393      12A20425 
 393      9719E1A7 
 394 0aa2 CB1AE0D0 		.ascii	"\313\032\340\320*\027k\333\215\350I\356&]\336\267\016"
 394      2A176BDB 
 394      8DE849EE 
 394      265DDEB7 
 394      0E
 395 0ab3 A60FABA6 		.ascii	"\246\017\253\246\350C9F$*UF\374\024\217(\313u8G7\334"
 395      E8433946 
 395      242A5546 
 395      FC148F28 
 395      CB753847 
 396 0ac9 4AED96C6 		.ascii	"J\355\226\306\335H\002?\222\243\327T]\202I\262\247\205"
 396      DD48023F 
 396      92A3D754 
 396      5D8249B2 
 396      A785
 397 0adb 985035C7 		.ascii	"\230P5\307\264\352\247\350\344m\227Y\016\266\265G\371"
 397      B4EAA7E8 
 397      E46D9759 
 397      0EB6B547 
 397      F9
 398 0aec E125FD03 		.ascii	"\341%\375\003W\273\004\254\323\225;\001\263\332MV,\361"
 398      57BB04AC 
 398      D3953B01 
 398      B3DA4D56 
 398      2CF1
 399 0afe EAB9A132 		.ascii	"\352\271\24129\373z\337\205g\364\253cr\376\202\322\000"
 399      39FB7ADF 
 399      8567F4AB 
 399      6372FE82 
 399      D200
 400 0b10 83C9E8A2 		.ascii	"\203\311\350\242\003\324\222n\222wu9\210P)\251\311,"
 400      03D4926E 
 400      92777539 
 400      885029A9 
 400      C92C
 401 0b22 703858B9 		.ascii	"p8X\271o$\224\356\240\307\036\342\374\362\323\334#_"
 401      6F2494EE 
 401      A0C71EE2 
 401      FCF2D3DC 
 401      235F
 402 0b34 56B7CBB6 		.ascii	"V\267\313\266\023[\371P\003\034m\320\260\322\323v}\240"
 402      135BF950 
 402      031C6DD0 
 402      B0D2D376 
 402      7DA0
 403 0b46 EB26C374 		.ascii	"\353&\303t\215:\2564Sq\245'o<\277\001o\205\0348\345"
 403      8D3AAE34 
 403      5371A527 
 403      6F3CBF01 
 403      6F851C38 
 404 0b5b FCEF9413 		.ascii	"\374\357\224\0230\333\215[\335\241\267\014\016I.\354"
 404      30DB8D5B 
ARM GAS  /tmp/cchn9INy.s 			page 32


 404      DDA1B70C 
 404      0E492EEC 
 405 0b6b CF3F229E 		.ascii	"\317?\"\236|/9\357w\342\317\267\271\262\375\271\321"
 405      7C2F39EF 
 405      77E2CFB7 
 405      B9B2FDB9 
 405      D1
 406 0b7c 7F2BB338 		.ascii	"\177+\2638\227o;?\306\302\267\365\354@-\304\267m#\""
 406      976F3B3F 
 406      C6C2B7F5 
 406      EC402DC4 
 406      B76D2322 
 407 0b90 A81F8BDB 		.ascii	"\250\037\213\333muYM\376m:\227\001\206\276\030\311\364"
 407      6D75594D 
 407      FE6D3A97 
 407      0186BE18 
 407      C9F4
 408 0ba2 706823F1 		.ascii	"ph#\361n\326\035u.J\332\326\263A\366nk\211\207~7GW\275"
 408      6ED61D75 
 408      2E4ADAD6 
 408      B341F66E 
 408      6B89877E 
 409 0bba 9BEA57DC 		.ascii	"\233\352W\334\024\2076\347\350epS\235=\224\233\262\352"
 409      148736E7 
 409      E8657053 
 409      9D3D949B 
 409      B2EA
 410 0bcc A7C8FD70 		.ascii	"\247\310\375p\266\233\032\300\356b\357\235+6\212\363"
 410      B69B1AC0 
 410      EE62EF9D 
 410      2B368AF3 
 411 0bdc 1688D7D2 		.ascii	"\026\210\327\322\317 \347\301\362$\035,\261\024\355"
 411      CF20E7C1 
 411      F2241D2C 
 411      B114ED
 412 0beb F5D53096 		.ascii	"\365\3250\226\376\341\271\334\350SS\302\216\266\177"
 412      FEE1B9DC 
 412      E85353C2 
 412      8EB67F
 413 0bfa 74C74A71 		.ascii	"t\307Jq;\376m\3743Jpf\231%\026\020\247L!\2565\366\225"
 413      3BFE6DFC 
 413      334A7066 
 413      99251610 
 413      A74C21AE 
 414 0c11 6910CE59 		.ascii	"i\020\316Y\353\247Y\303\002\326n\226\313\337Q(\336Z"
 414      EBA759C3 
 414      02D66E96 
 414      CBDF5128 
 414      DE5A
 415 0c23 2D08FBDC 		.ascii	"-\010\373\334\224\260M\203#?{\311J\350v\361\341\214"
 415      94B04D83 
 415      233F7BC9 
 415      4AE876F1 
 415      E18C
 416 0c35 498AE230 		.ascii	"I\212\3420)r8\251\326[0\362\277\246\214\034k\037\271"
 416      297238A9 
 416      D65B30F2 
ARM GAS  /tmp/cchn9INy.s 			page 33


 416      BFA68C1C 
 416      6B1FB9
 417 0c48 7DA51523 		.ascii	"}\245\025#6k\353\0134\0378\277\240\031\241(\333lA\331"
 417      366BEB0B 
 417      341F38BF 
 417      A019A128 
 417      DB6C41D9 
 418 0c5c 4553CABE 		.ascii	"ES\312\276=7r\207\225\356m\010\03323k\212\220\355\026"
 418      3D377287 
 418      95EE6D08 
 418      1B32336B 
 418      8A90ED16 
 419 0c70 845C3612 		.ascii	"\204\\6\022r\003\263X^\012\256\030+\377\270O\031\263"
 419      7203B358 
 419      5E0AAE18 
 419      2BFFB84F 
 419      19B3
 420 0c82 541D9355 		.ascii	"T\035\223U\372}\345\272\201\324\014\237\373H\013+*\277"
 420      FA7DE5BA 
 420      81D40C9F 
 420      FB480B2B 
 420      2ABF
 421 0c94 76657E40 		.ascii	"ve~@\350\363f*\3108\264\237\032y\212\332\316\243\340"
 421      E8F3662A 
 421      C838B49F 
 421      1A798ADA 
 421      CEA3E0
 422 0ca7 0CE73DF2 		.ascii	"\014\347=\362\025\213\221\013u\322\227\016\017|0\334"
 422      158B910B 
 422      75D2970E 
 422      0F7C30DC 
 423 0cb7 FB1C5AD2 		.ascii	"\373\034Z\322\336 \342\024\350\231\325\322\342\002\347"
 423      DE20E214 
 423      E899D5D2 
 423      E202E7
 424 0cc6 D36F8456 		.ascii	"\323o\204V\201D\234\261A\005\337\031T@Z\262\314\242"
 424      81449CB1 
 424      4105DF19 
 424      54405AB2 
 424      CCA2
 425 0cd8 710AFF8A 		.ascii	"q\012\377\212_\355\225}\271\374\027\205\225\343p\217"
 425      5FED957D 
 425      B9FC1785 
 425      95E3708F 
 426 0ce8 6F2C5DAB 		.ascii	"o,]\253\362\225E\331u\273\\\367D\231\266\351\206;\031"
 426      F29545D9 
 426      75BB5CF7 
 426      4499B6E9 
 426      863B19
 427 0cfb 147DD5A8 		.ascii	"\024}\325\250h*\265\307\177\262\261\342\255\256@\213"
 427      682AB5C7 
 427      7FB2B1E2 
 427      ADAE408B 
 428 0d0b 7D3F625E 		.ascii	"}?b^\026\017\037\036\330\322}\361\376\272\305R]\033"
 428      160F1F1E 
 428      D8D27DF1 
 428      FEBAC552 
ARM GAS  /tmp/cchn9INy.s 			page 34


 428      5D1B
 429 0d1d DE8D4448 		.ascii	"\336\215DH\257\271\377\313h\216\312\320,\364\233\225"
 429      AFB9FFCB 
 429      688ECAD0 
 429      2CF49B95 
 430 0d2d C7CD2BC8 		.ascii	"\307\315+\310W\277\363\013\314\365\253\377\321F\246"
 430      57BFF30B 
 430      CCF5ABFF 
 430      D146A6
 431 0d3c 15FEE104 		.ascii	"\025\376\341\004\221\353[\231]X\212\010\226y]Q\013\207"
 431      91EB5B99 
 431      5D588A08 
 431      96795D51 
 431      0B87
 432 0d4e F07FCD14 		.ascii	"\360\177\315\024\266[\366\355F:\2669T\017\244r\250\241"
 432      B65BF6ED 
 432      463AB639 
 432      540FA472 
 432      A8A1
 433 0d60 0007C076 		.ascii	"\000\007\300v\033\264\315\0064?\263\032\247\210\235"
 433      1BB4CD06 
 433      343FB31A 
 433      A7889D
 434 0d6f DDA2DFAF 		.ascii	"\335\242\337\257\351\253]\377\327%J9'm\326]\213h\345"
 434      E9AB5DFF 
 434      D7254A39 
 434      276DD65D 
 434      8B68E5
 435 0d82 48E9EE05 		.ascii	"H\351\356\005\"\022\033\304:\374\347&\013\325\204T\230"
 435      22121BC4 
 435      3AFCE726 
 435      0BD58454 
 435      98
 436 0d93 3176AAA1 		.ascii	"1v\252\241Zq\2501o\325<o\241\032\237A5j+M\230\272\215"
 436      5A71A831 
 436      6FD53C6F 
 436      A11A9F41 
 436      356A2B4D 
 437 0daa 668A0896 		.ascii	"f\212\010\226\331i&\314\313\273Sm\310o\276\345\2544"
 437      D96926CC 
 437      CBBB536D 
 437      C86FBEE5 
 437      AC34
 438 0dbc 79F78F62 		.ascii	"y\367\217b1k\333\342\250u\013J#\027l4\262,\243\021\252"
 438      316BDBE2 
 438      A8750B4A 
 438      23176C34 
 438      B22CA311 
 439 0dd1 D7199B5E 		.ascii	"\327\031\233^\315\226\275\372mz\265dz)<\034\333\257"
 439      CD96BDFA 
 439      6D7AB564 
 439      7A293C1C 
 439      DBAF
 440 0de3 B7AA611B 		.ascii	"\267\252a\033\036\206lpWdY\325\307=\271\255\352\260"
 440      1E866C70 
 440      576459D5 
 440      C73DB9AD 
ARM GAS  /tmp/cchn9INy.s 			page 35


 440      EAB0
 441 0df5 B6ED729B 		.ascii	"\266\355r\233\235Y\321\3158\364b\336v\325jaW\267\032"
 441      9D59D1CD 
 441      38F462DE 
 441      76D56A61 
 441      57B71A
 442 0e08 ECAA95B6 		.ascii	"\354\252\225\266+]\266IS\3012G\314\014k\323!\275<\267"
 442      2B5DB649 
 442      53C13247 
 442      CC0C6BD3 
 442      21BD3CB7 
 443 0e1c 1ABCEA2F 		.ascii	"\032\274\352/\312\313+\246\205\3023\303\277\236Q\021"
 443      CACB2BA6 
 443      85C233C3 
 443      BF9E5111 
 444 0e2c 4B562484 		.ascii	"KV$\204\212x,!$+\036y\362\361i\217\317\251\010\206\202"
 444      8A782C21 
 444      242B1E79 
 444      F2F1698F 
 444      CFA90886 
 445 0e41 B1041F98 		.ascii	"\261\004\037\230\375@\244<\304x\361\253@u,\370t\341"
 445      FD40A43C 
 445      C478F1AB 
 445      40752CF8 
 445      74E1
 446 0e53 AFFEE329 		.ascii	"\257\376\343)\3774\246\204<\250\211\342Gwg\001\205\243"
 446      FF34A684 
 446      3CA889E2 
 446      47776701 
 446      85A3
 447 0e65 C1EA9A4A 		.ascii	"\301\352\232J\0360\222s\223\270{04cn\362\337\241m\011"
 447      1E309273 
 447      93B87B30 
 447      34636EF2 
 447      DFA16D09 
 448 0e79 A93D65D1 		.ascii	"\251=e\321/\231\010B\237\312\271Q.\022\016\226\007\231"
 448      2F990842 
 448      9FCAB951 
 448      2E120E96 
 448      0799
 449 0e8b 9FD8230B 		.ascii	"\237\330#\013s\343<\206/\022B\011\236\253\014\0100N"
 449      73E33C86 
 449      2F124209 
 449      9EAB0C08 
 449      304E
 450 0e9d 40AEFFC8 		.ascii	"@\256\377\310\256'\014\001\275\012\343\201(?G\200K<"
 450      AE270C01 
 450      BD0AE381 
 450      283F4780 
 450      4B3C
 451 0eaf C1CF9E9C 		.ascii	"\301\317\236\234C\032\261H<\\\315'\222\025\277\2326"
 451      431AB148 
 451      3C5CCD27 
 451      9215BF9A 
 451      36
 452 0ec0 0D30D4A1 		.ascii	"\0150\324\241=B<\021\216\005\240at\026)\367W\204b\021"
 452      3D423C11 
ARM GAS  /tmp/cchn9INy.s 			page 36


 452      8E05A061 
 452      741629F7 
 452      57846211 
 453 0ed4 BE22C127 		.ascii	"\276\"\301'y.\021\014U\204\270De-\227\340+\270DdbEU"
 453      792E110C 
 453      5584B844 
 453      652D97E0 
 453      2BB84464 
 454 0eeb 30381E2A 		.ascii	"08\036*\343\371\310L\276\262\222\257\324\036DcQ~<\317"
 454      E3F9C84C 
 454      BEB292AF 
 454      D41E4463 
 454      517E3CCF 
 455 0eff CD0C8F9F 		.ascii	"\315\014\217\237\024\2302~\342\204{'\375ab\205\341\205"
 455      1498327E 
 455      E2847B27 
 455      FD616285 
 455      E185
 456 0f11 C64052A8 		.ascii	"\306@R\250\014G\005\314v\015\\\357\233\030\020\352\321"
 456      0C4705CC 
 456      760D5CEF 
 456      9B1810EA 
 456      D1
 457 0f22 3F6EF408 		.ascii	"?n\364\010\027\014\205\243|E\240\222\237\305\325T\013"
 457      170C85A3 
 457      7C45A092 
 457      9FC5D554 
 457      0B
 458 0f33 015512C5 		.ascii	"\001U\022\305\201\200J\017\021i8\346\011\306\242\002"
 458      81804A0F 
 458      116938E6 
 458      09C6A202 
 459 0f43 48F8A74E 		.ascii	"H\370\247N\014\015\020d\233\002\214\2400\247(\301W\001"
 459      0C0D1064 
 459      9B028CA0 
 459      30A728C1 
 459      5701
 460 0f55 0101814D 		.ascii	"\001\001\201MLb\023\367\263\211\311l\342\00161\205M"
 460      4C6213F7 
 460      B389C96C 
 460      E2013631 
 460      854D
 461 0f67 3CE84ADC 		.ascii	"<\350J\334;\001\312\275lu\002.\367\271\343\001h\357"
 461      3B01CABD 
 461      6C75022E 
 461      F7B9E301 
 461      68EF
 462 0f79 C1CAACE5 		.ascii	"\301\312\254\345\023p\215UW\362\211\202 \260\2165\314"
 462      13708D55 
 462      57F28982 
 462      20B08E35 
 462      CC
 463 0f8a 45F8E2A4 		.ascii	"E\370\342\244\3604W\035\256\212\006\004\"\262\311\223"
 463      F034571D 
 463      AE8A0604 
 463      22B2C993 
 464 0f9a 0282422D 		.ascii	"\002\202B-\251\306"
ARM GAS  /tmp/cchn9INy.s 			page 37


 464      A9C6
 465 0fa0 03D0A03A 		.ascii	"\003\320\240:\034\011\013EBR\340\004> x\360\313)`Pr"
 465      1C090B45 
 465      4252E004 
 465      3E2078F0 
 465      CB296050 
 466 0fb5 33A87970 		.ascii	"3\250yp+x\347\021\"\261J\236\334\317\252\346\252\222"
 466      2B78E711 
 466      22B14A9E 
 466      DCCFAAE6 
 466      AA92
 467 0fc7 1E21C1CF 		.ascii	"\036!\301\317J\022\236q\305\035IV\301KE\020\320]\025"
 467      4A129E71 
 467      C51D4956 
 467      C14B4510 
 467      D05D15
 468 0fda 49A2722E 		.ascii	"I\242r.\274*\342\347\204\205 \000\024\326\012\261\231"
 468      BC2AE2E7 
 468      84852000 
 468      14D60AB1 
 468      99
 469 0feb BF8FDFA8 		.ascii	"\277\217\337\250X.t\345\023|4\010\300\356ZAH\304=I>"
 469      582E74E5 
 469      137C3408 
 469      C0EE5A41 
 469      48C43D49 
 470 1000 2A40071F 		.ascii	"*@\007\037Xt\222\217p\361\020\310\310v\242\361x\236"
 470      5874928F 
 470      70F110C8 
 470      C876A2F1 
 470      789E
 471 1012 8E93F192 		.ascii	"\216\223\361\222\201?\324\3605\000V\252M\010\345\221"
 471      813FD4F0 
 471      350056AA 
 471      4D08E591 
 472 1022 47B9BA83 		.ascii	"G\271\272\203QP\235;\031\200+\320\002\275\343E\3206"
 472      51509D3B 
 472      19802BD0 
 472      02BDE345 
 472      D036
 473 1034 52030AB3 		.ascii	"R\003\012\263\033&\"\314\301V\037Q\320\"\201Xm\024\244"
 473      1B2622CC 
 473      C1561F51 
 473      D0228158 
 473      6D14A4
 474 1047 4EFA0197 		.ascii	"N\372\001\227\021yJ\325\012\320.^\302\317\306Lp\311"
 474      11794AD5 
 474      0AD02E5E 
 474      C2CFC64C 
 474      70C9
 475 1059 A7E10D5F 		.ascii	"\247\341\015_\213+\256x\240f\254JPu8\0114\214\323\221"
 475      8B2BAE78 
 475      A066AC4A 
 475      50753809 
 475      348CD391 
 476 106d 889F78E3 		.ascii	"\210\237x\343\201Z.,\204\243U\240\030\220\000\031\010"
 476      815A2E2C 
ARM GAS  /tmp/cchn9INy.s 			page 38


 476      84A355A0 
 476      18900019 
 476      08
 477 107e AA7C9C8F 		.ascii	"\252|\234\217\202\341W\301{\000\307-\213\261\310\271"
 477      82E157C1 
 477      7B00C72D 
 477      8BB1C8B9 
 478 108e 6A626AF0 		.ascii	"jbj\3600\036\213U\203{\371M\250\362\221\312\312'\371"
 478      301E8B55 
 478      837BF94D 
 478      A8F291CA 
 478      CA27F9
 479 10a1 59AC10F7 		.ascii	"Y\254\020\367\221\333'\371j\236K\362v.!\304sq\340kL"
 479      91DB27F9 
 479      6A9E4BF2 
 479      762E21C4 
 479      7371E06B 
 480 10b6 848FC412 		.ascii	"\204\217\304\022s\003\3706 \224\350\356\352\276\227"
 480      7303F836 
 480      2094E8EE 
 480      EABE97
 481 10c5 29561D9E 		.ascii	")V\035\236\211\033PSmR\371\224\362I\372\351\016S\015"
 481      891B5053 
 481      6D52F994 
 481      F249FAE9 
 481      0E530D
 482 10d8 FBAB64F8 		.ascii	"\373\253d\370\277@\245\367\330i\207\217(s\311\007\325"
 482      BF40A5F7 
 482      D869878F 
 482      2873C907 
 482      D5
 483 10e9 2A5E9855 		.ascii	"*^\230U\023\015\202\205\207`>\306f\207a^\224\020\326"
 483      130D8285 
 483      87603EC6 
 483      6687615E 
 483      9410D6
 484 10fc E0047537 		.ascii	"\340\004u7\231\024\005Xc\005\3701\252)\300C\240Pa(0"
 484      99140558 
 484      6305F831 
 484      AA29C043 
 484      A0506128 
 485 1111 2BC1F3EE 		.ascii	"+\301\363\356\020\226\264\335x\212\336\210\037\224\207"
 485      1096B4DD 
 485      788ADE88 
 485      1F9487
 486 1120 BA89487C 		.ascii	"\272\211H|\032<\026\370G\023\261\310t\300uc\360x\001"
 486      1A3C16F8 
 486      4713B1C8 
 486      74C07563 
 486      F07801
 487 1133 D6131B9F 		.ascii	"\326\023\033\237\345\342\022Uv~\035\010\307\232L\352"
 487      E5E21255 
 487      767E1D08 
 487      C79A4CEA 
 488 1143 D481EF41 		.ascii	"\324\201\357A\035\344\"\223\356\211\207\210\245y\"\262"
 488      1DE42293 
 488      EE898788 
ARM GAS  /tmp/cchn9INy.s 			page 39


 488      A57922B2 
 489 1153 131F0B57 		.ascii	"\023\037\013W\230O|P\010`\026J\"q\215\343[)\212\036"
 489      984F7C50 
 489      0860164A 
 489      22718DE3 
 489      5B298A1E 
 490 1167 27984F00 		.ascii	"'\230O\000\026\033\211\027\007C\270\366(p\013UL,\256"
 490      161B8917 
 490      0743B8F6 
 490      28700B55 
 490      4C2CAE
 491 117a 82D9CC08 		.ascii	"\202\331\314\010\206~\313=\315\327\304g\370t\375\037"
 491      867ECB3D 
 491      CDD7C467 
 491      F874FD1F 
 492 118a 2B911B3D 		.ascii	"+\221\033=R\015\361\253D\356K\352\345F\206\200\242\212"
 492      520DF1AB 
 492      44EE4BEA 
 492      E5468680 
 492      A28A
 493 119c 698FCF78 		.ascii	"i\217\317xlF\206/\034K\203\221GAH\230\261\000Lj!\360"
 493      6C46862F 
 493      1C4B8391 
 493      47414898 
 493      B1004C6A 
 494 11b2 2F8FCCF8 		.ascii	"/\217\314\370\267'\236|l\014W]\313\315M\202\253\250"
 494      B7279E7C 
 494      6C0C575D 
 494      CBCD4D82 
 494      ABA8
 495 11c4 06CFEA9E 		.ascii	"\006\317\352\236\315U\327\360E\201\000\021h`\214Z)\277"
 495      CD55D7F0 
 495      45810011 
 495      68608C5A 
 495      29BF
 496 11d6 FF8109F7 		.ascii	"\377\201\011\367f\356&\337\367\340d\335\335$\303\273"
 496      66EE26DF 
 496      F7E064DD 
 496      DD24C3BB 
 497 11e6 4913EFFB 		.ascii	"I\023\357\373\177\211Y\263\213"
 497      7F8959B3 
 497      8B
 498              		.text
 499              		.section	.gnu.lto_.symtab.2a470844e40a6679,"",%progbits
 500 0000 63685468 		.ascii	"chThdAddRef\000\000\000\000\000\000\000\000\000\000"
 500      64416464 
 500      52656600 
 500      00000000 
 500      00000000 
 501 0015 0000AF00 		.ascii	"\000\000\257\000\000\000chThdRelease\000\000\000\000"
 501      00006368 
 501      54686452 
 501      656C6561 
 501      73650000 
 502 002b 00000000 		.ascii	"\000\000\000\000\000\000\000\000p\001\000\000chThdC"
 502      00000000 
 502      70010000 
ARM GAS  /tmp/cchn9INy.s 			page 40


 502      63685468 
 502      6443
 503 003d 72656174 		.ascii	"reateFromHeap\000\000\000\000\000\000\000\000\000\000"
 503      6546726F 
 503      6D486561 
 503      70000000 
 503      00000000 
 504 0054 00007601 		.ascii	"\000\000v\001\000\000chThdCreateFromMemoryPool\000\000"
 504      00006368 
 504      54686443 
 504      72656174 
 504      6546726F 
 505 0075 00000000 		.ascii	"\000\000\000\000\000\000\000\000\000\000\270\001\000"
 505      00000000 
 505      0000B801 
 505      00
 506 0082 00636850 		.ascii	"\000chPoolFree\000\000\002\000\000\000\000\000\000\000"
 506      6F6F6C46 
 506      72656500 
 506      00020000 
 506      00000000 
 507 0097 0000D701 		.ascii	"\000\000\327\001\000\000chHeapFree\000\000\002\000\000"
 507      00006368 
 507      48656170 
 507      46726565 
 507      00000200 
 508 00ac 00000000 		.ascii	"\000\000\000\000\000\000\000\334\001\000\000chSchWa"
 508      000000DC 
 508      01000063 
 508      68536368 
 508      5761
 509 00be 6B657570 		.ascii	"keupS\000\000\002\000\000\000\000\000\000\000\000\000"
 509      53000002 
 509      00000000 
 509      00000000 
 509      00
 510 00cf DE010000 		.ascii	"\336\001\000\000chThdCreateI\000\000\002\000\000\000"
 510      63685468 
 510      64437265 
 510      61746549 
 510      00000200 
 511 00e5 00000000 		.ascii	"\000\000\000\000\000\000\343\001\000\000chHeapAlloc"
 511      0000E301 
 511      00006368 
 511      48656170 
 511      416C6C6F 
 512 00fa 00000200 		.ascii	"\000\000\002\000\000\000\000\000\000\000\000\000\353"
 512      00000000 
 512      00000000 
 512      EB
 513 0107 01000063 		.ascii	"\001\000\000chPoolAlloc\000\000\002\000\000\000\000"
 513      68506F6F 
 513      6C416C6C 
 513      6F630000 
 513      02000000 
 514 011c 00000000 		.ascii	"\000\000\000\000\000\360\001\000\000"
 514      00F00100 
ARM GAS  /tmp/cchn9INy.s 			page 41


 514      00
 515              		.text
 516              		.section	.gnu.lto_.opts,"",%progbits
 517 0000 272D6D63 		.ascii	"'-mcpu=cortex-m4' '-mno-thumb-interwork' '-mthumb' "
 517      70753D63 
 517      6F727465 
 517      782D6D34 
 517      2720272D 
 518 0033 272D6767 		.ascii	"'-ggdb' '-O0' '-fomit-frame-pointer' '-falign-funct"
 518      64622720 
 518      272D4F30 
 518      2720272D 
 518      666F6D69 
 519 0066 696F6E73 		.ascii	"ions=16' '-ffunction-sections' '-fdata-sections' '-"
 519      3D313627 
 519      20272D66 
 519      66756E63 
 519      74696F6E 
 520 0099 666E6F2D 		.ascii	"fno-common' '-flto'\000"
 520      636F6D6D 
 520      6F6E2720 
 520      272D666C 
 520      746F2700 
 521              		.text
 522              		.cfi_sections	.debug_frame
 523              		.section	.text.port_lock,"ax",%progbits
 524              		.align	2
 525              		.p2align 4,,15
 526              		.thumb
 527              		.thumb_func
 528              		.type	port_lock, %function
 529              	port_lock:
 530              	.LFB127:
 531              		.file 1 "../ChibiOS/os/rt/ports/ARMCMx/chcore_v7m.h"
 532              		.loc 1 456 0
 533              		.cfi_startproc
 534              		@ args = 0, pretend = 0, frame = 8
 535              		@ frame_needed = 0, uses_anonymous_args = 0
 536              		@ link register save eliminated.
 537 0000 82B0     		sub	sp, sp, #8
 538              		.cfi_def_cfa_offset 8
 539 0002 2023     		movs	r3, #32
 540 0004 0193     		str	r3, [sp, #4]
 541              	.LBB6:
 542              	.LBB7:
 543              		.file 2 "../ChibiOS/os/ext/CMSIS/include/core_cmFunc.h"
 544              		.loc 2 548 0
 545 0006 019B     		ldr	r3, [sp, #4]
 546              	@ 548 "../ChibiOS/os/ext/CMSIS/include/core_cmFunc.h" 1
 547 0008 83F31188 		MSR basepri, r3
 548              	@ 0 "" 2
 549              		.thumb
 550              	.LBE7:
 551              	.LBE6:
 552              		.loc 1 473 0
 553 000c 02B0     		add	sp, sp, #8
 554              		@ sp needed
ARM GAS  /tmp/cchn9INy.s 			page 42


 555 000e 7047     		bx	lr
 556              		.cfi_endproc
 557              	.LFE127:
 558              		.size	port_lock, .-port_lock
 559              		.section	.text.port_unlock,"ax",%progbits
 560              		.align	2
 561              		.p2align 4,,15
 562              		.thumb
 563              		.thumb_func
 564              		.type	port_unlock, %function
 565              	port_unlock:
 566              	.LFB128:
 567              		.loc 1 480 0
 568              		.cfi_startproc
 569              		@ args = 0, pretend = 0, frame = 8
 570              		@ frame_needed = 0, uses_anonymous_args = 0
 571              		@ link register save eliminated.
 572 0000 82B0     		sub	sp, sp, #8
 573              		.cfi_def_cfa_offset 8
 574 0002 0023     		movs	r3, #0
 575 0004 0193     		str	r3, [sp, #4]
 576              	.LBB8:
 577              	.LBB9:
 578              		.loc 2 548 0
 579 0006 019B     		ldr	r3, [sp, #4]
 580              	@ 548 "../ChibiOS/os/ext/CMSIS/include/core_cmFunc.h" 1
 581 0008 83F31188 		MSR basepri, r3
 582              	@ 0 "" 2
 583              		.thumb
 584              	.LBE9:
 585              	.LBE8:
 586              		.loc 1 487 0
 587 000c 02B0     		add	sp, sp, #8
 588              		@ sp needed
 589 000e 7047     		bx	lr
 590              		.cfi_endproc
 591              	.LFE128:
 592              		.size	port_unlock, .-port_unlock
 593              		.section	.text.chSysLock,"ax",%progbits
 594              		.align	2
 595              		.p2align 4,,15
 596              		.thumb
 597              		.thumb_func
 598              		.type	chSysLock, %function
 599              	chSysLock:
 600              	.LFB167:
 601              		.file 3 "../ChibiOS/os/rt/include/chsys.h"
 602              		.loc 3 346 0
 603              		.cfi_startproc
 604              		@ args = 0, pretend = 0, frame = 0
 605              		@ frame_needed = 0, uses_anonymous_args = 0
 606 0000 08B5     		push	{r3, lr}
 607              		.cfi_def_cfa_offset 8
 608              		.cfi_offset 3, -8
 609              		.cfi_offset 14, -4
 610              		.loc 3 348 0
 611 0002 FFF7FEFF 		bl	port_lock
ARM GAS  /tmp/cchn9INy.s 			page 43


 612              		.loc 3 351 0
 613 0006 08BD     		pop	{r3, pc}
 614              		.cfi_endproc
 615              	.LFE167:
 616              		.size	chSysLock, .-chSysLock
 617              		.section	.text.chSysUnlock,"ax",%progbits
 618              		.align	2
 619              		.p2align 4,,15
 620              		.thumb
 621              		.thumb_func
 622              		.type	chSysUnlock, %function
 623              	chSysUnlock:
 624              	.LFB168:
 625              		.loc 3 358 0
 626              		.cfi_startproc
 627              		@ args = 0, pretend = 0, frame = 0
 628              		@ frame_needed = 0, uses_anonymous_args = 0
 629 0000 08B5     		push	{r3, lr}
 630              		.cfi_def_cfa_offset 8
 631              		.cfi_offset 3, -8
 632              		.cfi_offset 14, -4
 633              		.loc 3 371 0
 634 0002 FFF7FEFF 		bl	port_unlock
 635              		.loc 3 372 0
 636 0006 08BD     		pop	{r3, pc}
 637              		.cfi_endproc
 638              	.LFE168:
 639              		.size	chSysUnlock, .-chSysUnlock
 640 0008 AFF30080 		.section	.text.chThdAddRef,"ax",%progbits
 640      AFF30080 
 641              		.align	2
 642              		.p2align 4,,15
 643              		.global	chThdAddRef
 644              		.thumb
 645              		.thumb_func
 646              		.type	chThdAddRef, %function
 647              	chThdAddRef:
 648              	.LFB241:
 649              		.file 4 "../ChibiOS/os/rt/src/chdynamic.c"
 650              		.loc 4 68 0
 651              		.cfi_startproc
 652              		@ args = 0, pretend = 0, frame = 8
 653              		@ frame_needed = 0, uses_anonymous_args = 0
 654 0000 00B5     		push	{lr}
 655              		.cfi_def_cfa_offset 4
 656              		.cfi_offset 14, -4
 657 0002 83B0     		sub	sp, sp, #12
 658              		.cfi_def_cfa_offset 16
 659 0004 0190     		str	r0, [sp, #4]
 660              		.loc 4 70 0
 661 0006 FFF7FEFF 		bl	chSysLock
 662              		.loc 4 72 0
 663 000a 019B     		ldr	r3, [sp, #4]
 664 000c 93F82230 		ldrb	r3, [r3, #34]	@ zero_extendqisi2
 665 0010 0133     		adds	r3, r3, #1
 666 0012 DAB2     		uxtb	r2, r3
 667 0014 019B     		ldr	r3, [sp, #4]
ARM GAS  /tmp/cchn9INy.s 			page 44


 668 0016 83F82220 		strb	r2, [r3, #34]
 669              		.loc 4 73 0
 670 001a FFF7FEFF 		bl	chSysUnlock
 671              		.loc 4 75 0
 672 001e 019B     		ldr	r3, [sp, #4]
 673              		.loc 4 76 0
 674 0020 1846     		mov	r0, r3
 675 0022 03B0     		add	sp, sp, #12
 676              		@ sp needed
 677 0024 5DF804FB 		ldr	pc, [sp], #4
 678              		.cfi_endproc
 679              	.LFE241:
 680              		.size	chThdAddRef, .-chThdAddRef
 681 0028 AFF30080 		.section	.text.chThdRelease,"ax",%progbits
 681      AFF30080 
 682              		.align	2
 683              		.p2align 4,,15
 684              		.global	chThdRelease
 685              		.thumb
 686              		.thumb_func
 687              		.type	chThdRelease, %function
 688              	chThdRelease:
 689              	.LFB242:
 690              		.loc 4 91 0
 691              		.cfi_startproc
 692              		@ args = 0, pretend = 0, frame = 16
 693              		@ frame_needed = 0, uses_anonymous_args = 0
 694 0000 00B5     		push	{lr}
 695              		.cfi_def_cfa_offset 4
 696              		.cfi_offset 14, -4
 697 0002 85B0     		sub	sp, sp, #20
 698              		.cfi_def_cfa_offset 24
 699 0004 0190     		str	r0, [sp, #4]
 700              		.loc 4 94 0
 701 0006 FFF7FEFF 		bl	chSysLock
 702              		.loc 4 96 0
 703 000a 019B     		ldr	r3, [sp, #4]
 704 000c 93F82230 		ldrb	r3, [r3, #34]	@ zero_extendqisi2
 705 0010 013B     		subs	r3, r3, #1
 706 0012 DAB2     		uxtb	r2, r3
 707 0014 019B     		ldr	r3, [sp, #4]
 708 0016 83F82220 		strb	r2, [r3, #34]
 709              		.loc 4 97 0
 710 001a 019B     		ldr	r3, [sp, #4]
 711 001c 93F82230 		ldrb	r3, [r3, #34]
 712 0020 8DF80F30 		strb	r3, [sp, #15]
 713              		.loc 4 98 0
 714 0024 FFF7FEFF 		bl	chSysUnlock
 715              		.loc 4 103 0
 716 0028 9DF80F30 		ldrb	r3, [sp, #15]	@ zero_extendqisi2
 717 002c 002B     		cmp	r3, #0
 718 002e 2DD1     		bne	.L7
 719              		.loc 4 103 0 is_stmt 0 discriminator 1
 720 0030 019B     		ldr	r3, [sp, #4]
 721 0032 93F82030 		ldrb	r3, [r3, #32]	@ zero_extendqisi2
 722 0036 0F2B     		cmp	r3, #15
 723 0038 28D1     		bne	.L7
ARM GAS  /tmp/cchn9INy.s 			page 45


 724              		.loc 4 104 0 is_stmt 1
 725 003a 019B     		ldr	r3, [sp, #4]
 726 003c 93F82130 		ldrb	r3, [r3, #33]	@ zero_extendqisi2
 727 0040 03F00303 		and	r3, r3, #3
 728 0044 012B     		cmp	r3, #1
 729 0046 02D0     		beq	.L10
 730 0048 022B     		cmp	r3, #2
 731 004a 0ED0     		beq	.L11
 732              		.loc 4 124 0
 733 004c 1EE0     		b	.L7
 734              	.L10:
 735              		.loc 4 108 0
 736 004e 019B     		ldr	r3, [sp, #4]
 737 0050 5B69     		ldr	r3, [r3, #20]
 738 0052 019A     		ldr	r2, [sp, #4]
 739 0054 1269     		ldr	r2, [r2, #16]
 740 0056 1A61     		str	r2, [r3, #16]
 741 0058 019B     		ldr	r3, [sp, #4]
 742 005a 1B69     		ldr	r3, [r3, #16]
 743 005c 019A     		ldr	r2, [sp, #4]
 744 005e 5269     		ldr	r2, [r2, #20]
 745 0060 5A61     		str	r2, [r3, #20]
 746              		.loc 4 110 0
 747 0062 0198     		ldr	r0, [sp, #4]
 748 0064 FFF7FEFF 		bl	chHeapFree
 749              		.loc 4 111 0
 750 0068 10E0     		b	.L7
 751              	.L11:
 752              		.loc 4 116 0
 753 006a 019B     		ldr	r3, [sp, #4]
 754 006c 5B69     		ldr	r3, [r3, #20]
 755 006e 019A     		ldr	r2, [sp, #4]
 756 0070 1269     		ldr	r2, [r2, #16]
 757 0072 1A61     		str	r2, [r3, #16]
 758 0074 019B     		ldr	r3, [sp, #4]
 759 0076 1B69     		ldr	r3, [r3, #16]
 760 0078 019A     		ldr	r2, [sp, #4]
 761 007a 5269     		ldr	r2, [r2, #20]
 762 007c 5A61     		str	r2, [r3, #20]
 763              		.loc 4 118 0
 764 007e 019B     		ldr	r3, [sp, #4]
 765 0080 1B6C     		ldr	r3, [r3, #64]
 766 0082 1846     		mov	r0, r3
 767 0084 0199     		ldr	r1, [sp, #4]
 768 0086 FFF7FEFF 		bl	chPoolFree
 769              		.loc 4 119 0
 770 008a 00BF     		nop
 771              	.L7:
 772              		.loc 4 127 0
 773 008c 05B0     		add	sp, sp, #20
 774              		@ sp needed
 775 008e 5DF804FB 		ldr	pc, [sp], #4
 776              		.cfi_endproc
 777              	.LFE242:
 778              		.size	chThdRelease, .-chThdRelease
 779 0092 00BFAFF3 		.section	.text.chThdCreateFromHeap,"ax",%progbits
 779      0080AFF3 
ARM GAS  /tmp/cchn9INy.s 			page 46


 779      0080AFF3 
 779      0080
 780              		.align	2
 781              		.p2align 4,,15
 782              		.global	chThdCreateFromHeap
 783              		.thumb
 784              		.thumb_func
 785              		.type	chThdCreateFromHeap, %function
 786              	chThdCreateFromHeap:
 787              	.LFB243:
 788              		.loc 4 153 0
 789              		.cfi_startproc
 790              		@ args = 4, pretend = 0, frame = 24
 791              		@ frame_needed = 0, uses_anonymous_args = 0
 792 0000 00B5     		push	{lr}
 793              		.cfi_def_cfa_offset 4
 794              		.cfi_offset 14, -4
 795 0002 89B0     		sub	sp, sp, #36
 796              		.cfi_def_cfa_offset 40
 797 0004 0590     		str	r0, [sp, #20]
 798 0006 0491     		str	r1, [sp, #16]
 799 0008 0392     		str	r2, [sp, #12]
 800 000a 0293     		str	r3, [sp, #8]
 801              		.loc 4 157 0
 802 000c 0598     		ldr	r0, [sp, #20]
 803 000e 0499     		ldr	r1, [sp, #16]
 804 0010 FFF7FEFF 		bl	chHeapAlloc
 805 0014 0790     		str	r0, [sp, #28]
 806              		.loc 4 158 0
 807 0016 079B     		ldr	r3, [sp, #28]
 808 0018 002B     		cmp	r3, #0
 809 001a 01D1     		bne	.L13
 810              		.loc 4 159 0
 811 001c 0023     		movs	r3, #0
 812 001e 15E0     		b	.L14
 813              	.L13:
 814              		.loc 4 171 0
 815 0020 FFF7FEFF 		bl	chSysLock
 816              		.loc 4 172 0
 817 0024 0A9B     		ldr	r3, [sp, #40]
 818 0026 0093     		str	r3, [sp]
 819 0028 0798     		ldr	r0, [sp, #28]
 820 002a 0499     		ldr	r1, [sp, #16]
 821 002c 039A     		ldr	r2, [sp, #12]
 822 002e 029B     		ldr	r3, [sp, #8]
 823 0030 FFF7FEFF 		bl	chThdCreateI
 824 0034 0690     		str	r0, [sp, #24]
 825              		.loc 4 173 0
 826 0036 069B     		ldr	r3, [sp, #24]
 827 0038 0122     		movs	r2, #1
 828 003a 83F82120 		strb	r2, [r3, #33]
 829              		.loc 4 174 0
 830 003e 0698     		ldr	r0, [sp, #24]
 831 0040 0021     		movs	r1, #0
 832 0042 FFF7FEFF 		bl	chSchWakeupS
 833              		.loc 4 175 0
 834 0046 FFF7FEFF 		bl	chSysUnlock
ARM GAS  /tmp/cchn9INy.s 			page 47


 835              		.loc 4 177 0
 836 004a 069B     		ldr	r3, [sp, #24]
 837              	.L14:
 838              		.loc 4 178 0
 839 004c 1846     		mov	r0, r3
 840 004e 09B0     		add	sp, sp, #36
 841              		@ sp needed
 842 0050 5DF804FB 		ldr	pc, [sp], #4
 843              		.cfi_endproc
 844              	.LFE243:
 845              		.size	chThdCreateFromHeap, .-chThdCreateFromHeap
 846 0054 AFF30080 		.section	.text.chThdCreateFromMemoryPool,"ax",%progbits
 846      AFF30080 
 846      AFF30080 
 847              		.align	2
 848              		.p2align 4,,15
 849              		.global	chThdCreateFromMemoryPool
 850              		.thumb
 851              		.thumb_func
 852              		.type	chThdCreateFromMemoryPool, %function
 853              	chThdCreateFromMemoryPool:
 854              	.LFB244:
 855              		.loc 4 205 0
 856              		.cfi_startproc
 857              		@ args = 0, pretend = 0, frame = 24
 858              		@ frame_needed = 0, uses_anonymous_args = 0
 859 0000 00B5     		push	{lr}
 860              		.cfi_def_cfa_offset 4
 861              		.cfi_offset 14, -4
 862 0002 89B0     		sub	sp, sp, #36
 863              		.cfi_def_cfa_offset 40
 864 0004 0590     		str	r0, [sp, #20]
 865 0006 0491     		str	r1, [sp, #16]
 866 0008 0392     		str	r2, [sp, #12]
 867 000a 0293     		str	r3, [sp, #8]
 868              		.loc 4 211 0
 869 000c 0598     		ldr	r0, [sp, #20]
 870 000e FFF7FEFF 		bl	chPoolAlloc
 871 0012 0790     		str	r0, [sp, #28]
 872              		.loc 4 212 0
 873 0014 079B     		ldr	r3, [sp, #28]
 874 0016 002B     		cmp	r3, #0
 875 0018 01D1     		bne	.L16
 876              		.loc 4 213 0
 877 001a 0023     		movs	r3, #0
 878 001c 1AE0     		b	.L17
 879              	.L16:
 880              		.loc 4 225 0
 881 001e FFF7FEFF 		bl	chSysLock
 882              		.loc 4 226 0
 883 0022 059B     		ldr	r3, [sp, #20]
 884 0024 5B68     		ldr	r3, [r3, #4]
 885 0026 029A     		ldr	r2, [sp, #8]
 886 0028 0092     		str	r2, [sp]
 887 002a 0798     		ldr	r0, [sp, #28]
 888 002c 1946     		mov	r1, r3
 889 002e 049A     		ldr	r2, [sp, #16]
ARM GAS  /tmp/cchn9INy.s 			page 48


 890 0030 039B     		ldr	r3, [sp, #12]
 891 0032 FFF7FEFF 		bl	chThdCreateI
 892 0036 0690     		str	r0, [sp, #24]
 893              		.loc 4 227 0
 894 0038 069B     		ldr	r3, [sp, #24]
 895 003a 0222     		movs	r2, #2
 896 003c 83F82120 		strb	r2, [r3, #33]
 897              		.loc 4 228 0
 898 0040 069B     		ldr	r3, [sp, #24]
 899 0042 059A     		ldr	r2, [sp, #20]
 900 0044 1A64     		str	r2, [r3, #64]
 901              		.loc 4 229 0
 902 0046 0698     		ldr	r0, [sp, #24]
 903 0048 0021     		movs	r1, #0
 904 004a FFF7FEFF 		bl	chSchWakeupS
 905              		.loc 4 230 0
 906 004e FFF7FEFF 		bl	chSysUnlock
 907              		.loc 4 232 0
 908 0052 069B     		ldr	r3, [sp, #24]
 909              	.L17:
 910              		.loc 4 233 0
 911 0054 1846     		mov	r0, r3
 912 0056 09B0     		add	sp, sp, #36
 913              		@ sp needed
 914 0058 5DF804FB 		ldr	pc, [sp], #4
 915              		.cfi_endproc
 916              	.LFE244:
 917              		.size	chThdCreateFromMemoryPool, .-chThdCreateFromMemoryPool
 918 005c AFF30080 		.text
 919              	.Letext0:
 920              		.file 5 "/nfs/nfs5/home/research/hardware/arm2/gcc-arm-embedded/gcc-arm-none-eabi-4_8-2014q2/lib/g
 921              		.file 6 "/nfs/nfs5/home/research/hardware/arm2/gcc-arm-embedded/gcc-arm-none-eabi-4_8-2014q2/arm-n
 922              		.file 7 "/nfs/nfs5/home/research/hardware/arm2/gcc-arm-embedded/gcc-arm-none-eabi-4_8-2014q2/arm-n
 923              		.file 8 "../ChibiOS/os/rt/ports/ARMCMx/compilers/GCC/chtypes.h"
 924              		.file 9 "../ChibiOS/os/rt/include/chsystypes.h"
 925              		.file 10 "../ChibiOS/os/rt/include/chschd.h"
 926              		.file 11 "../ChibiOS/os/rt/ports/ARMCMx/chcore.h"
 927              		.file 12 "../ChibiOS/os/rt/include/chtm.h"
 928              		.file 13 "../ChibiOS/os/rt/include/chsem.h"
 929              		.file 14 "../ChibiOS/os/rt/include/chmtx.h"
 930              		.file 15 "../ChibiOS/os/rt/include/chthreads.h"
 931              		.file 16 "../ChibiOS/os/rt/include/chmemcore.h"
 932              		.file 17 "../ChibiOS/os/rt/include/chheap.h"
 933              		.file 18 "../ChibiOS/os/rt/include/chmempools.h"
 934              		.file 19 "../ChibiOS/os/ext/CMSIS/include/core_cm4.h"
 935              		.section	.debug_info,"",%progbits
 936              	.Ldebug_info0:
 937 0000 C2090000 		.4byte	0x9c2
 938 0004 0400     		.2byte	0x4
 939 0006 00000000 		.4byte	.Ldebug_abbrev0
 940 000a 04       		.byte	0x4
 941 000b 01       		.uleb128 0x1
 942 000c 00020000 		.4byte	.LASF134
 943 0010 01       		.byte	0x1
 944 0011 CF050000 		.4byte	.LASF135
 945 0015 FD030000 		.4byte	.LASF136
 946 0019 00000000 		.4byte	.Ldebug_ranges0+0
ARM GAS  /tmp/cchn9INy.s 			page 49


 947 001d 00000000 		.4byte	0
 948 0021 00000000 		.4byte	.Ldebug_line0
 949 0025 02       		.uleb128 0x2
 950 0026 04       		.byte	0x4
 951 0027 05       		.byte	0x5
 952 0028 696E7400 		.ascii	"int\000"
 953 002c 03       		.uleb128 0x3
 954 002d 15000000 		.4byte	.LASF2
 955 0031 05       		.byte	0x5
 956 0032 D4       		.byte	0xd4
 957 0033 37000000 		.4byte	0x37
 958 0037 04       		.uleb128 0x4
 959 0038 04       		.byte	0x4
 960 0039 07       		.byte	0x7
 961 003a E0020000 		.4byte	.LASF0
 962 003e 04       		.uleb128 0x4
 963 003f 01       		.byte	0x1
 964 0040 06       		.byte	0x6
 965 0041 EB000000 		.4byte	.LASF1
 966 0045 03       		.uleb128 0x3
 967 0046 2C000000 		.4byte	.LASF3
 968 004a 06       		.byte	0x6
 969 004b 1C       		.byte	0x1c
 970 004c 50000000 		.4byte	0x50
 971 0050 04       		.uleb128 0x4
 972 0051 01       		.byte	0x1
 973 0052 08       		.byte	0x8
 974 0053 E5040000 		.4byte	.LASF4
 975 0057 04       		.uleb128 0x4
 976 0058 02       		.byte	0x2
 977 0059 05       		.byte	0x5
 978 005a 09050000 		.4byte	.LASF5
 979 005e 04       		.uleb128 0x4
 980 005f 02       		.byte	0x2
 981 0060 07       		.byte	0x7
 982 0061 1B030000 		.4byte	.LASF6
 983 0065 03       		.uleb128 0x3
 984 0066 77030000 		.4byte	.LASF7
 985 006a 06       		.byte	0x6
 986 006b 37       		.byte	0x37
 987 006c 70000000 		.4byte	0x70
 988 0070 04       		.uleb128 0x4
 989 0071 04       		.byte	0x4
 990 0072 05       		.byte	0x5
 991 0073 30010000 		.4byte	.LASF8
 992 0077 03       		.uleb128 0x3
 993 0078 1E060000 		.4byte	.LASF9
 994 007c 06       		.byte	0x6
 995 007d 38       		.byte	0x38
 996 007e 82000000 		.4byte	0x82
 997 0082 04       		.uleb128 0x4
 998 0083 04       		.byte	0x4
 999 0084 07       		.byte	0x7
 1000 0085 AE050000 		.4byte	.LASF10
 1001 0089 04       		.uleb128 0x4
 1002 008a 08       		.byte	0x8
 1003 008b 05       		.byte	0x5
ARM GAS  /tmp/cchn9INy.s 			page 50


 1004 008c DD000000 		.4byte	.LASF11
 1005 0090 03       		.uleb128 0x3
 1006 0091 80040000 		.4byte	.LASF12
 1007 0095 06       		.byte	0x6
 1008 0096 4E       		.byte	0x4e
 1009 0097 9B000000 		.4byte	0x9b
 1010 009b 04       		.uleb128 0x4
 1011 009c 08       		.byte	0x8
 1012 009d 07       		.byte	0x7
 1013 009e 68000000 		.4byte	.LASF13
 1014 00a2 03       		.uleb128 0x3
 1015 00a3 91060000 		.4byte	.LASF14
 1016 00a7 07       		.byte	0x7
 1017 00a8 2A       		.byte	0x2a
 1018 00a9 45000000 		.4byte	0x45
 1019 00ad 03       		.uleb128 0x3
 1020 00ae DD040000 		.4byte	.LASF15
 1021 00b2 07       		.byte	0x7
 1022 00b3 41       		.byte	0x41
 1023 00b4 65000000 		.4byte	0x65
 1024 00b8 03       		.uleb128 0x3
 1025 00b9 78050000 		.4byte	.LASF16
 1026 00bd 07       		.byte	0x7
 1027 00be 42       		.byte	0x42
 1028 00bf 77000000 		.4byte	0x77
 1029 00c3 03       		.uleb128 0x3
 1030 00c4 23000000 		.4byte	.LASF17
 1031 00c8 07       		.byte	0x7
 1032 00c9 4E       		.byte	0x4e
 1033 00ca 90000000 		.4byte	0x90
 1034 00ce 03       		.uleb128 0x3
 1035 00cf 59060000 		.4byte	.LASF18
 1036 00d3 08       		.byte	0x8
 1037 00d4 39       		.byte	0x39
 1038 00d5 B8000000 		.4byte	0xb8
 1039 00d9 03       		.uleb128 0x3
 1040 00da 55030000 		.4byte	.LASF19
 1041 00de 08       		.byte	0x8
 1042 00df 3C       		.byte	0x3c
 1043 00e0 A2000000 		.4byte	0xa2
 1044 00e4 03       		.uleb128 0x3
 1045 00e5 4D010000 		.4byte	.LASF20
 1046 00e9 08       		.byte	0x8
 1047 00ea 3D       		.byte	0x3d
 1048 00eb A2000000 		.4byte	0xa2
 1049 00ef 03       		.uleb128 0x3
 1050 00f0 93040000 		.4byte	.LASF21
 1051 00f4 08       		.byte	0x8
 1052 00f5 3E       		.byte	0x3e
 1053 00f6 A2000000 		.4byte	0xa2
 1054 00fa 03       		.uleb128 0x3
 1055 00fb B7040000 		.4byte	.LASF22
 1056 00ff 08       		.byte	0x8
 1057 0100 40       		.byte	0x40
 1058 0101 B8000000 		.4byte	0xb8
 1059 0105 03       		.uleb128 0x3
 1060 0106 43030000 		.4byte	.LASF23
ARM GAS  /tmp/cchn9INy.s 			page 51


 1061 010a 08       		.byte	0x8
 1062 010b 41       		.byte	0x41
 1063 010c AD000000 		.4byte	0xad
 1064 0110 03       		.uleb128 0x3
 1065 0111 6B030000 		.4byte	.LASF24
 1066 0115 08       		.byte	0x8
 1067 0116 43       		.byte	0x43
 1068 0117 B8000000 		.4byte	0xb8
 1069 011b 03       		.uleb128 0x3
 1070 011c FA010000 		.4byte	.LASF25
 1071 0120 08       		.byte	0x8
 1072 0121 45       		.byte	0x45
 1073 0122 AD000000 		.4byte	0xad
 1074 0126 03       		.uleb128 0x3
 1075 0127 00060000 		.4byte	.LASF26
 1076 012b 09       		.byte	0x9
 1077 012c 33       		.byte	0x33
 1078 012d B8000000 		.4byte	0xb8
 1079 0131 03       		.uleb128 0x3
 1080 0132 F0050000 		.4byte	.LASF27
 1081 0136 09       		.byte	0x9
 1082 0137 3F       		.byte	0x3f
 1083 0138 3C010000 		.4byte	0x13c
 1084 013c 05       		.uleb128 0x5
 1085 013d 2E030000 		.4byte	.LASF47
 1086 0141 44       		.byte	0x44
 1087 0142 0A       		.byte	0xa
 1088 0143 C2       		.byte	0xc2
 1089 0144 28020000 		.4byte	0x228
 1090 0148 06       		.uleb128 0x6
 1091 0149 29050000 		.4byte	.LASF28
 1092 014d 0A       		.byte	0xa
 1093 014e C3       		.byte	0xc3
 1094 014f 33020000 		.4byte	0x233
 1095 0153 00       		.byte	0
 1096 0154 06       		.uleb128 0x6
 1097 0155 B0040000 		.4byte	.LASF29
 1098 0159 0A       		.byte	0xa
 1099 015a C5       		.byte	0xc5
 1100 015b 33020000 		.4byte	0x233
 1101 015f 04       		.byte	0x4
 1102 0160 06       		.uleb128 0x6
 1103 0161 D6000000 		.4byte	.LASF30
 1104 0165 0A       		.byte	0xa
 1105 0166 C7       		.byte	0xc7
 1106 0167 FA000000 		.4byte	0xfa
 1107 016b 08       		.byte	0x8
 1108 016c 06       		.uleb128 0x6
 1109 016d DA060000 		.4byte	.LASF31
 1110 0171 0A       		.byte	0xa
 1111 0172 C8       		.byte	0xc8
 1112 0173 63040000 		.4byte	0x463
 1113 0177 0C       		.byte	0xc
 1114 0178 06       		.uleb128 0x6
 1115 0179 6C010000 		.4byte	.LASF32
 1116 017d 0A       		.byte	0xa
 1117 017e CA       		.byte	0xca
ARM GAS  /tmp/cchn9INy.s 			page 52


 1118 017f 33020000 		.4byte	0x233
 1119 0183 10       		.byte	0x10
 1120 0184 06       		.uleb128 0x6
 1121 0185 EF030000 		.4byte	.LASF33
 1122 0189 0A       		.byte	0xa
 1123 018a CB       		.byte	0xcb
 1124 018b 33020000 		.4byte	0x233
 1125 018f 14       		.byte	0x14
 1126 0190 06       		.uleb128 0x6
 1127 0191 AB060000 		.4byte	.LASF34
 1128 0195 0A       		.byte	0xa
 1129 0196 D2       		.byte	0xd2
 1130 0197 EE050000 		.4byte	0x5ee
 1131 019b 18       		.byte	0x18
 1132 019c 06       		.uleb128 0x6
 1133 019d 68040000 		.4byte	.LASF35
 1134 01a1 0A       		.byte	0xa
 1135 01a2 D8       		.byte	0xd8
 1136 01a3 00060000 		.4byte	0x600
 1137 01a7 1C       		.byte	0x1c
 1138 01a8 06       		.uleb128 0x6
 1139 01a9 13050000 		.4byte	.LASF36
 1140 01ad 0A       		.byte	0xa
 1141 01ae DD       		.byte	0xdd
 1142 01af E4000000 		.4byte	0xe4
 1143 01b3 20       		.byte	0x20
 1144 01b4 06       		.uleb128 0x6
 1145 01b5 30050000 		.4byte	.LASF37
 1146 01b9 0A       		.byte	0xa
 1147 01ba E1       		.byte	0xe1
 1148 01bb D9000000 		.4byte	0xd9
 1149 01bf 21       		.byte	0x21
 1150 01c0 06       		.uleb128 0x6
 1151 01c1 84060000 		.4byte	.LASF38
 1152 01c5 0A       		.byte	0xa
 1153 01c6 E6       		.byte	0xe6
 1154 01c7 EF000000 		.4byte	0xef
 1155 01cb 22       		.byte	0x22
 1156 01cc 07       		.uleb128 0x7
 1157 01cd 705F7500 		.ascii	"p_u\000"
 1158 01d1 0A       		.byte	0xa
 1159 01d2 3701     		.2byte	0x137
 1160 01d4 1D050000 		.4byte	0x51d
 1161 01d8 24       		.byte	0x24
 1162 01d9 08       		.uleb128 0x8
 1163 01da 98030000 		.4byte	.LASF39
 1164 01de 0A       		.byte	0xa
 1165 01df 3C01     		.2byte	0x13c
 1166 01e1 39020000 		.4byte	0x239
 1167 01e5 28       		.byte	0x28
 1168 01e6 08       		.uleb128 0x8
 1169 01e7 FC020000 		.4byte	.LASF40
 1170 01eb 0A       		.byte	0xa
 1171 01ec 4201     		.2byte	0x142
 1172 01ee 5D020000 		.4byte	0x25d
 1173 01f2 2C       		.byte	0x2c
 1174 01f3 08       		.uleb128 0x8
ARM GAS  /tmp/cchn9INy.s 			page 53


 1175 01f4 6D050000 		.4byte	.LASF41
 1176 01f8 0A       		.byte	0xa
 1177 01f9 4801     		.2byte	0x148
 1178 01fb 10010000 		.4byte	0x110
 1179 01ff 34       		.byte	0x34
 1180 0200 08       		.uleb128 0x8
 1181 0201 FF040000 		.4byte	.LASF42
 1182 0205 0A       		.byte	0xa
 1183 0206 4F01     		.2byte	0x14f
 1184 0208 E8050000 		.4byte	0x5e8
 1185 020c 38       		.byte	0x38
 1186 020d 08       		.uleb128 0x8
 1187 020e 0A060000 		.4byte	.LASF43
 1188 0212 0A       		.byte	0xa
 1189 0213 5301     		.2byte	0x153
 1190 0215 FA000000 		.4byte	0xfa
 1191 0219 3C       		.byte	0x3c
 1192 021a 08       		.uleb128 0x8
 1193 021b FD000000 		.4byte	.LASF44
 1194 021f 0A       		.byte	0xa
 1195 0220 5A01     		.2byte	0x15a
 1196 0222 10030000 		.4byte	0x310
 1197 0226 40       		.byte	0x40
 1198 0227 00       		.byte	0
 1199 0228 03       		.uleb128 0x3
 1200 0229 AB030000 		.4byte	.LASF45
 1201 022d 09       		.byte	0x9
 1202 022e 44       		.byte	0x44
 1203 022f 33020000 		.4byte	0x233
 1204 0233 09       		.uleb128 0x9
 1205 0234 04       		.byte	0x4
 1206 0235 31010000 		.4byte	0x131
 1207 0239 03       		.uleb128 0x3
 1208 023a B7060000 		.4byte	.LASF46
 1209 023e 09       		.byte	0x9
 1210 023f 49       		.byte	0x49
 1211 0240 44020000 		.4byte	0x244
 1212 0244 05       		.uleb128 0x5
 1213 0245 99050000 		.4byte	.LASF48
 1214 0249 04       		.byte	0x4
 1215 024a 0A       		.byte	0xa
 1216 024b B0       		.byte	0xb0
 1217 024c 5D020000 		.4byte	0x25d
 1218 0250 06       		.uleb128 0x6
 1219 0251 29050000 		.4byte	.LASF28
 1220 0255 0A       		.byte	0xa
 1221 0256 B1       		.byte	0xb1
 1222 0257 33020000 		.4byte	0x233
 1223 025b 00       		.byte	0
 1224 025c 00       		.byte	0
 1225 025d 03       		.uleb128 0x3
 1226 025e 68060000 		.4byte	.LASF49
 1227 0262 09       		.byte	0x9
 1228 0263 50       		.byte	0x50
 1229 0264 68020000 		.4byte	0x268
 1230 0268 05       		.uleb128 0x5
 1231 0269 C5000000 		.4byte	.LASF50
ARM GAS  /tmp/cchn9INy.s 			page 54


 1232 026d 08       		.byte	0x8
 1233 026e 0A       		.byte	0xa
 1234 026f B7       		.byte	0xb7
 1235 0270 8D020000 		.4byte	0x28d
 1236 0274 06       		.uleb128 0x6
 1237 0275 29050000 		.4byte	.LASF28
 1238 0279 0A       		.byte	0xa
 1239 027a B8       		.byte	0xb8
 1240 027b 33020000 		.4byte	0x233
 1241 027f 00       		.byte	0
 1242 0280 06       		.uleb128 0x6
 1243 0281 B0040000 		.4byte	.LASF29
 1244 0285 0A       		.byte	0xa
 1245 0286 B9       		.byte	0xb9
 1246 0287 33020000 		.4byte	0x233
 1247 028b 04       		.byte	0x4
 1248 028c 00       		.byte	0
 1249 028d 03       		.uleb128 0x3
 1250 028e 08000000 		.4byte	.LASF51
 1251 0292 09       		.byte	0x9
 1252 0293 57       		.byte	0x57
 1253 0294 98020000 		.4byte	0x298
 1254 0298 0A       		.uleb128 0xa
 1255 0299 5D030000 		.4byte	.LASF52
 1256 029d 1C       		.byte	0x1c
 1257 029e 0A       		.byte	0xa
 1258 029f 9201     		.2byte	0x192
 1259 02a1 F4020000 		.4byte	0x2f4
 1260 02a5 08       		.uleb128 0x8
 1261 02a6 88050000 		.4byte	.LASF53
 1262 02aa 0A       		.byte	0xa
 1263 02ab 9301     		.2byte	0x193
 1264 02ad 5D020000 		.4byte	0x25d
 1265 02b1 00       		.byte	0
 1266 02b2 08       		.uleb128 0x8
 1267 02b3 1B050000 		.4byte	.LASF54
 1268 02b7 0A       		.byte	0xa
 1269 02b8 9401     		.2byte	0x194
 1270 02ba FA000000 		.4byte	0xfa
 1271 02be 08       		.byte	0x8
 1272 02bf 08       		.uleb128 0x8
 1273 02c0 F7030000 		.4byte	.LASF55
 1274 02c4 0A       		.byte	0xa
 1275 02c5 9601     		.2byte	0x196
 1276 02c7 63040000 		.4byte	0x463
 1277 02cb 0C       		.byte	0xc
 1278 02cc 08       		.uleb128 0x8
 1279 02cd B2010000 		.4byte	.LASF56
 1280 02d1 0A       		.byte	0xa
 1281 02d2 9901     		.2byte	0x199
 1282 02d4 33020000 		.4byte	0x233
 1283 02d8 10       		.byte	0x10
 1284 02d9 08       		.uleb128 0x8
 1285 02da 78040000 		.4byte	.LASF57
 1286 02de 0A       		.byte	0xa
 1287 02df 9A01     		.2byte	0x19a
 1288 02e1 33020000 		.4byte	0x233
ARM GAS  /tmp/cchn9INy.s 			page 55


 1289 02e5 14       		.byte	0x14
 1290 02e6 08       		.uleb128 0x8
 1291 02e7 C0050000 		.4byte	.LASF58
 1292 02eb 0A       		.byte	0xa
 1293 02ec 9D01     		.2byte	0x19d
 1294 02ee 33020000 		.4byte	0x233
 1295 02f2 18       		.byte	0x18
 1296 02f3 00       		.byte	0
 1297 02f4 03       		.uleb128 0x3
 1298 02f5 15060000 		.4byte	.LASF59
 1299 02f9 09       		.byte	0x9
 1300 02fa 5C       		.byte	0x5c
 1301 02fb FF020000 		.4byte	0x2ff
 1302 02ff 09       		.uleb128 0x9
 1303 0300 04       		.byte	0x4
 1304 0301 05030000 		.4byte	0x305
 1305 0305 0B       		.uleb128 0xb
 1306 0306 10030000 		.4byte	0x310
 1307 030a 0C       		.uleb128 0xc
 1308 030b 10030000 		.4byte	0x310
 1309 030f 00       		.byte	0
 1310 0310 0D       		.uleb128 0xd
 1311 0311 04       		.byte	0x4
 1312 0312 03       		.uleb128 0x3
 1313 0313 A0040000 		.4byte	.LASF60
 1314 0317 09       		.byte	0x9
 1315 0318 61       		.byte	0x61
 1316 0319 1D030000 		.4byte	0x31d
 1317 031d 0A       		.uleb128 0xa
 1318 031e 4F050000 		.4byte	.LASF61
 1319 0322 14       		.byte	0x14
 1320 0323 0A       		.byte	0xa
 1321 0324 6D01     		.2byte	0x16d
 1322 0326 6C030000 		.4byte	0x36c
 1323 032a 08       		.uleb128 0x8
 1324 032b ED020000 		.4byte	.LASF62
 1325 032f 0A       		.byte	0xa
 1326 0330 6E01     		.2byte	0x16e
 1327 0332 06060000 		.4byte	0x606
 1328 0336 00       		.byte	0
 1329 0337 08       		.uleb128 0x8
 1330 0338 CF010000 		.4byte	.LASF63
 1331 033c 0A       		.byte	0xa
 1332 033d 6F01     		.2byte	0x16f
 1333 033f 06060000 		.4byte	0x606
 1334 0343 04       		.byte	0x4
 1335 0344 08       		.uleb128 0x8
 1336 0345 90050000 		.4byte	.LASF64
 1337 0349 0A       		.byte	0xa
 1338 034a 7001     		.2byte	0x170
 1339 034c 26010000 		.4byte	0x126
 1340 0350 08       		.byte	0x8
 1341 0351 08       		.uleb128 0x8
 1342 0352 E0060000 		.4byte	.LASF65
 1343 0356 0A       		.byte	0xa
 1344 0357 7101     		.2byte	0x171
 1345 0359 F4020000 		.4byte	0x2f4
ARM GAS  /tmp/cchn9INy.s 			page 56


 1346 035d 0C       		.byte	0xc
 1347 035e 08       		.uleb128 0x8
 1348 035f 61060000 		.4byte	.LASF66
 1349 0363 0A       		.byte	0xa
 1350 0364 7301     		.2byte	0x173
 1351 0366 10030000 		.4byte	0x310
 1352 036a 10       		.byte	0x10
 1353 036b 00       		.byte	0
 1354 036c 03       		.uleb128 0x3
 1355 036d 97000000 		.4byte	.LASF67
 1356 0371 09       		.byte	0x9
 1357 0372 66       		.byte	0x66
 1358 0373 77030000 		.4byte	0x377
 1359 0377 0A       		.uleb128 0xa
 1360 0378 BE030000 		.4byte	.LASF68
 1361 037c 10       		.byte	0x10
 1362 037d 0A       		.byte	0xa
 1363 037e 7D01     		.2byte	0x17d
 1364 0380 B9030000 		.4byte	0x3b9
 1365 0384 08       		.uleb128 0x8
 1366 0385 ED020000 		.4byte	.LASF62
 1367 0389 0A       		.byte	0xa
 1368 038a 7E01     		.2byte	0x17e
 1369 038c 06060000 		.4byte	0x606
 1370 0390 00       		.byte	0
 1371 0391 08       		.uleb128 0x8
 1372 0392 CF010000 		.4byte	.LASF63
 1373 0396 0A       		.byte	0xa
 1374 0397 8001     		.2byte	0x180
 1375 0399 06060000 		.4byte	0x606
 1376 039d 04       		.byte	0x4
 1377 039e 08       		.uleb128 0x8
 1378 039f 90050000 		.4byte	.LASF64
 1379 03a3 0A       		.byte	0xa
 1380 03a4 8201     		.2byte	0x182
 1381 03a6 26010000 		.4byte	0x126
 1382 03aa 08       		.byte	0x8
 1383 03ab 08       		.uleb128 0x8
 1384 03ac E3030000 		.4byte	.LASF69
 1385 03b0 0A       		.byte	0xa
 1386 03b1 8A01     		.2byte	0x18a
 1387 03b3 26010000 		.4byte	0x126
 1388 03b7 0C       		.byte	0xc
 1389 03b8 00       		.byte	0
 1390 03b9 03       		.uleb128 0x3
 1391 03ba 42000000 		.4byte	.LASF70
 1392 03be 09       		.byte	0x9
 1393 03bf 6B       		.byte	0x6b
 1394 03c0 C4030000 		.4byte	0x3c4
 1395 03c4 0A       		.uleb128 0xa
 1396 03c5 CD040000 		.4byte	.LASF71
 1397 03c9 04       		.byte	0x4
 1398 03ca 0A       		.byte	0xa
 1399 03cb A401     		.2byte	0x1a4
 1400 03cd DF030000 		.4byte	0x3df
 1401 03d1 08       		.uleb128 0x8
 1402 03d2 37060000 		.4byte	.LASF72
ARM GAS  /tmp/cchn9INy.s 			page 57


 1403 03d6 0A       		.byte	0xa
 1404 03d7 AC01     		.2byte	0x1ac
 1405 03d9 0C060000 		.4byte	0x60c
 1406 03dd 00       		.byte	0
 1407 03de 00       		.byte	0
 1408 03df 03       		.uleb128 0x3
 1409 03e0 49030000 		.4byte	.LASF73
 1410 03e4 09       		.byte	0x9
 1411 03e5 70       		.byte	0x70
 1412 03e6 EA030000 		.4byte	0x3ea
 1413 03ea 0E       		.uleb128 0xe
 1414 03eb 26010000 		.4byte	.LASF74
 1415 03ef 5001     		.2byte	0x150
 1416 03f1 0A       		.byte	0xa
 1417 03f2 C401     		.2byte	0x1c4
 1418 03f4 46040000 		.4byte	0x446
 1419 03f8 08       		.uleb128 0x8
 1420 03f9 8B060000 		.4byte	.LASF75
 1421 03fd 0A       		.byte	0xa
 1422 03fe C801     		.2byte	0x1c8
 1423 0400 8D020000 		.4byte	0x28d
 1424 0404 00       		.byte	0
 1425 0405 08       		.uleb128 0x8
 1426 0406 0D010000 		.4byte	.LASF76
 1427 040a 0A       		.byte	0xa
 1428 040b CC01     		.2byte	0x1cc
 1429 040d 6C030000 		.4byte	0x36c
 1430 0411 1C       		.byte	0x1c
 1431 0412 07       		.uleb128 0x7
 1432 0413 64626700 		.ascii	"dbg\000"
 1433 0417 0A       		.byte	0xa
 1434 0418 D001     		.2byte	0x1d0
 1435 041a B9030000 		.4byte	0x3b9
 1436 041e 2C       		.byte	0x2c
 1437 041f 08       		.uleb128 0x8
 1438 0420 38030000 		.4byte	.LASF77
 1439 0424 0A       		.byte	0xa
 1440 0425 D401     		.2byte	0x1d4
 1441 0427 31010000 		.4byte	0x131
 1442 042b 30       		.byte	0x30
 1443 042c 07       		.uleb128 0x7
 1444 042d 746D00   		.ascii	"tm\000"
 1445 0430 0A       		.byte	0xa
 1446 0431 D901     		.2byte	0x1d9
 1447 0433 12050000 		.4byte	0x512
 1448 0437 74       		.byte	0x74
 1449 0438 08       		.uleb128 0x8
 1450 0439 EB010000 		.4byte	.LASF78
 1451 043d 0A       		.byte	0xa
 1452 043e E501     		.2byte	0x1e5
 1453 0440 11060000 		.4byte	0x611
 1454 0444 78       		.byte	0x78
 1455 0445 00       		.byte	0
 1456 0446 04       		.uleb128 0x4
 1457 0447 04       		.byte	0x4
 1458 0448 07       		.byte	0x7
 1459 0449 A2030000 		.4byte	.LASF79
ARM GAS  /tmp/cchn9INy.s 			page 58


 1460 044d 03       		.uleb128 0x3
 1461 044e C6010000 		.4byte	.LASF80
 1462 0452 0B       		.byte	0xb
 1463 0453 65       		.byte	0x65
 1464 0454 10030000 		.4byte	0x310
 1465 0458 03       		.uleb128 0x3
 1466 0459 8D030000 		.4byte	.LASF81
 1467 045d 0B       		.byte	0xb
 1468 045e 6D       		.byte	0x6d
 1469 045f C3000000 		.4byte	0xc3
 1470 0463 05       		.uleb128 0x5
 1471 0464 51060000 		.4byte	.LASF82
 1472 0468 04       		.byte	0x4
 1473 0469 0B       		.byte	0xb
 1474 046a 89       		.byte	0x89
 1475 046b 7C040000 		.4byte	0x47c
 1476 046f 0F       		.uleb128 0xf
 1477 0470 72313300 		.ascii	"r13\000"
 1478 0474 0B       		.byte	0xb
 1479 0475 8A       		.byte	0x8a
 1480 0476 F7040000 		.4byte	0x4f7
 1481 047a 00       		.byte	0
 1482 047b 00       		.byte	0
 1483 047c 05       		.uleb128 0x5
 1484 047d 36000000 		.4byte	.LASF83
 1485 0481 24       		.byte	0x24
 1486 0482 01       		.byte	0x1
 1487 0483 FD       		.byte	0xfd
 1488 0484 F7040000 		.4byte	0x4f7
 1489 0488 07       		.uleb128 0x7
 1490 0489 723400   		.ascii	"r4\000"
 1491 048c 01       		.byte	0x1
 1492 048d 1001     		.2byte	0x110
 1493 048f 4D040000 		.4byte	0x44d
 1494 0493 00       		.byte	0
 1495 0494 07       		.uleb128 0x7
 1496 0495 723500   		.ascii	"r5\000"
 1497 0498 01       		.byte	0x1
 1498 0499 1101     		.2byte	0x111
 1499 049b 4D040000 		.4byte	0x44d
 1500 049f 04       		.byte	0x4
 1501 04a0 07       		.uleb128 0x7
 1502 04a1 723600   		.ascii	"r6\000"
 1503 04a4 01       		.byte	0x1
 1504 04a5 1201     		.2byte	0x112
 1505 04a7 4D040000 		.4byte	0x44d
 1506 04ab 08       		.byte	0x8
 1507 04ac 07       		.uleb128 0x7
 1508 04ad 723700   		.ascii	"r7\000"
 1509 04b0 01       		.byte	0x1
 1510 04b1 1301     		.2byte	0x113
 1511 04b3 4D040000 		.4byte	0x44d
 1512 04b7 0C       		.byte	0xc
 1513 04b8 07       		.uleb128 0x7
 1514 04b9 723800   		.ascii	"r8\000"
 1515 04bc 01       		.byte	0x1
 1516 04bd 1401     		.2byte	0x114
ARM GAS  /tmp/cchn9INy.s 			page 59


 1517 04bf 4D040000 		.4byte	0x44d
 1518 04c3 10       		.byte	0x10
 1519 04c4 07       		.uleb128 0x7
 1520 04c5 723900   		.ascii	"r9\000"
 1521 04c8 01       		.byte	0x1
 1522 04c9 1501     		.2byte	0x115
 1523 04cb 4D040000 		.4byte	0x44d
 1524 04cf 14       		.byte	0x14
 1525 04d0 07       		.uleb128 0x7
 1526 04d1 72313000 		.ascii	"r10\000"
 1527 04d5 01       		.byte	0x1
 1528 04d6 1601     		.2byte	0x116
 1529 04d8 4D040000 		.4byte	0x44d
 1530 04dc 18       		.byte	0x18
 1531 04dd 07       		.uleb128 0x7
 1532 04de 72313100 		.ascii	"r11\000"
 1533 04e2 01       		.byte	0x1
 1534 04e3 1701     		.2byte	0x117
 1535 04e5 4D040000 		.4byte	0x44d
 1536 04e9 1C       		.byte	0x1c
 1537 04ea 07       		.uleb128 0x7
 1538 04eb 6C7200   		.ascii	"lr\000"
 1539 04ee 01       		.byte	0x1
 1540 04ef 1801     		.2byte	0x118
 1541 04f1 4D040000 		.4byte	0x44d
 1542 04f5 20       		.byte	0x20
 1543 04f6 00       		.byte	0
 1544 04f7 09       		.uleb128 0x9
 1545 04f8 04       		.byte	0x4
 1546 04f9 7C040000 		.4byte	0x47c
 1547 04fd 10       		.uleb128 0x10
 1548 04fe 04       		.byte	0x4
 1549 04ff 0C       		.byte	0xc
 1550 0500 38       		.byte	0x38
 1551 0501 12050000 		.4byte	0x512
 1552 0505 06       		.uleb128 0x6
 1553 0506 41060000 		.4byte	.LASF84
 1554 050a 0C       		.byte	0xc
 1555 050b 3C       		.byte	0x3c
 1556 050c CE000000 		.4byte	0xce
 1557 0510 00       		.byte	0
 1558 0511 00       		.byte	0
 1559 0512 03       		.uleb128 0x3
 1560 0513 57040000 		.4byte	.LASF85
 1561 0517 0C       		.byte	0xc
 1562 0518 3D       		.byte	0x3d
 1563 0519 FD040000 		.4byte	0x4fd
 1564 051d 11       		.uleb128 0x11
 1565 051e 04       		.byte	0x4
 1566 051f 0A       		.byte	0xa
 1567 0520 FA       		.byte	0xfa
 1568 0521 86050000 		.4byte	0x586
 1569 0525 12       		.uleb128 0x12
 1570 0526 1C000000 		.4byte	.LASF86
 1571 052a 0A       		.byte	0xa
 1572 052b 0101     		.2byte	0x101
 1573 052d 05010000 		.4byte	0x105
ARM GAS  /tmp/cchn9INy.s 			page 60


 1574 0531 12       		.uleb128 0x12
 1575 0532 7F000000 		.4byte	.LASF87
 1576 0536 0A       		.byte	0xa
 1577 0537 0801     		.2byte	0x108
 1578 0539 05010000 		.4byte	0x105
 1579 053d 12       		.uleb128 0x12
 1580 053e A4060000 		.4byte	.LASF88
 1581 0542 0A       		.byte	0xa
 1582 0543 0F01     		.2byte	0x10f
 1583 0545 10030000 		.4byte	0x310
 1584 0549 12       		.uleb128 0x12
 1585 054a 20010000 		.4byte	.LASF89
 1586 054e 0A       		.byte	0xa
 1587 054f 1601     		.2byte	0x116
 1588 0551 86050000 		.4byte	0x586
 1589 0555 12       		.uleb128 0x12
 1590 0556 8F000000 		.4byte	.LASF90
 1591 055a 0A       		.byte	0xa
 1592 055b 1B01     		.2byte	0x11b
 1593 055d 05010000 		.4byte	0x105
 1594 0561 12       		.uleb128 0x12
 1595 0562 F5020000 		.4byte	.LASF91
 1596 0566 0A       		.byte	0xa
 1597 0567 2401     		.2byte	0x124
 1598 0569 B1050000 		.4byte	0x5b1
 1599 056d 12       		.uleb128 0x12
 1600 056e 81050000 		.4byte	.LASF92
 1601 0572 0A       		.byte	0xa
 1602 0573 2D01     		.2byte	0x12d
 1603 0575 E8050000 		.4byte	0x5e8
 1604 0579 12       		.uleb128 0x12
 1605 057a 22050000 		.4byte	.LASF93
 1606 057e 0A       		.byte	0xa
 1607 057f 3501     		.2byte	0x135
 1608 0581 10010000 		.4byte	0x110
 1609 0585 00       		.byte	0
 1610 0586 09       		.uleb128 0x9
 1611 0587 04       		.byte	0x4
 1612 0588 28020000 		.4byte	0x228
 1613 058c 05       		.uleb128 0x5
 1614 058d 60050000 		.4byte	.LASF94
 1615 0591 0C       		.byte	0xc
 1616 0592 0D       		.byte	0xd
 1617 0593 34       		.byte	0x34
 1618 0594 B1050000 		.4byte	0x5b1
 1619 0598 06       		.uleb128 0x6
 1620 0599 74010000 		.4byte	.LASF95
 1621 059d 0D       		.byte	0xd
 1622 059e 35       		.byte	0x35
 1623 059f 5D020000 		.4byte	0x25d
 1624 05a3 00       		.byte	0
 1625 05a4 06       		.uleb128 0x6
 1626 05a5 15030000 		.4byte	.LASF96
 1627 05a9 0D       		.byte	0xd
 1628 05aa 37       		.byte	0x37
 1629 05ab 1B010000 		.4byte	0x11b
 1630 05af 08       		.byte	0x8
ARM GAS  /tmp/cchn9INy.s 			page 61


 1631 05b0 00       		.byte	0
 1632 05b1 09       		.uleb128 0x9
 1633 05b2 04       		.byte	0x4
 1634 05b3 8C050000 		.4byte	0x58c
 1635 05b7 05       		.uleb128 0x5
 1636 05b8 48060000 		.4byte	.LASF97
 1637 05bc 10       		.byte	0x10
 1638 05bd 0E       		.byte	0xe
 1639 05be 39       		.byte	0x39
 1640 05bf E8050000 		.4byte	0x5e8
 1641 05c3 06       		.uleb128 0x6
 1642 05c4 05010000 		.4byte	.LASF98
 1643 05c8 0E       		.byte	0xe
 1644 05c9 3A       		.byte	0x3a
 1645 05ca 5D020000 		.4byte	0x25d
 1646 05ce 00       		.byte	0
 1647 05cf 06       		.uleb128 0x6
 1648 05d0 D2060000 		.4byte	.LASF99
 1649 05d4 0E       		.byte	0xe
 1650 05d5 3C       		.byte	0x3c
 1651 05d6 33020000 		.4byte	0x233
 1652 05da 08       		.byte	0x8
 1653 05db 06       		.uleb128 0x6
 1654 05dc F9050000 		.4byte	.LASF100
 1655 05e0 0E       		.byte	0xe
 1656 05e1 3E       		.byte	0x3e
 1657 05e2 37060000 		.4byte	0x637
 1658 05e6 0C       		.byte	0xc
 1659 05e7 00       		.byte	0
 1660 05e8 09       		.uleb128 0x9
 1661 05e9 04       		.byte	0x4
 1662 05ea B7050000 		.4byte	0x5b7
 1663 05ee 09       		.uleb128 0x9
 1664 05ef 04       		.byte	0x4
 1665 05f0 F4050000 		.4byte	0x5f4
 1666 05f4 13       		.uleb128 0x13
 1667 05f5 F9050000 		.4byte	0x5f9
 1668 05f9 04       		.uleb128 0x4
 1669 05fa 01       		.byte	0x1
 1670 05fb 08       		.byte	0x8
 1671 05fc CA050000 		.4byte	.LASF101
 1672 0600 09       		.uleb128 0x9
 1673 0601 04       		.byte	0x4
 1674 0602 58040000 		.4byte	0x458
 1675 0606 09       		.uleb128 0x9
 1676 0607 04       		.byte	0x4
 1677 0608 12030000 		.4byte	0x312
 1678 060c 14       		.uleb128 0x14
 1679 060d EE050000 		.4byte	0x5ee
 1680 0611 15       		.uleb128 0x15
 1681 0612 58040000 		.4byte	0x458
 1682 0616 21060000 		.4byte	0x621
 1683 061a 16       		.uleb128 0x16
 1684 061b 46040000 		.4byte	0x446
 1685 061f 1A       		.byte	0x1a
 1686 0620 00       		.byte	0
 1687 0621 03       		.uleb128 0x3
ARM GAS  /tmp/cchn9INy.s 			page 62


 1688 0622 00000000 		.4byte	.LASF102
 1689 0626 0F       		.byte	0xf
 1690 0627 34       		.byte	0x34
 1691 0628 FF020000 		.4byte	0x2ff
 1692 062c 03       		.uleb128 0x3
 1693 062d D7010000 		.4byte	.LASF103
 1694 0631 0E       		.byte	0xe
 1695 0632 34       		.byte	0x34
 1696 0633 B7050000 		.4byte	0x5b7
 1697 0637 09       		.uleb128 0x9
 1698 0638 04       		.byte	0x4
 1699 0639 2C060000 		.4byte	0x62c
 1700 063d 03       		.uleb128 0x3
 1701 063e 5B000000 		.4byte	.LASF104
 1702 0642 10       		.byte	0x10
 1703 0643 36       		.byte	0x36
 1704 0644 48060000 		.4byte	0x648
 1705 0648 09       		.uleb128 0x9
 1706 0649 04       		.byte	0x4
 1707 064a 4E060000 		.4byte	0x64e
 1708 064e 17       		.uleb128 0x17
 1709 064f 10030000 		.4byte	0x310
 1710 0653 5D060000 		.4byte	0x65d
 1711 0657 0C       		.uleb128 0xc
 1712 0658 2C000000 		.4byte	0x2c
 1713 065c 00       		.byte	0
 1714 065d 03       		.uleb128 0x3
 1715 065e 56010000 		.4byte	.LASF105
 1716 0662 11       		.byte	0x11
 1717 0663 3C       		.byte	0x3c
 1718 0664 68060000 		.4byte	0x668
 1719 0668 05       		.uleb128 0x5
 1720 0669 E8060000 		.4byte	.LASF106
 1721 066d 20       		.byte	0x20
 1722 066e 11       		.byte	0x11
 1723 066f 4F       		.byte	0x4f
 1724 0670 99060000 		.4byte	0x699
 1725 0674 06       		.uleb128 0x6
 1726 0675 99060000 		.4byte	.LASF107
 1727 0679 11       		.byte	0x11
 1728 067a 50       		.byte	0x50
 1729 067b 3D060000 		.4byte	0x63d
 1730 067f 00       		.byte	0
 1731 0680 06       		.uleb128 0x6
 1732 0681 88000000 		.4byte	.LASF108
 1733 0685 11       		.byte	0x11
 1734 0686 52       		.byte	0x52
 1735 0687 B8060000 		.4byte	0x6b8
 1736 068b 08       		.byte	0x8
 1737 068c 06       		.uleb128 0x6
 1738 068d F7000000 		.4byte	.LASF109
 1739 0691 11       		.byte	0x11
 1740 0692 54       		.byte	0x54
 1741 0693 2C060000 		.4byte	0x62c
 1742 0697 10       		.byte	0x10
 1743 0698 00       		.byte	0
 1744 0699 11       		.uleb128 0x11
ARM GAS  /tmp/cchn9INy.s 			page 63


 1745 069a 04       		.byte	0x4
 1746 069b 11       		.byte	0x11
 1747 069c 44       		.byte	0x44
 1748 069d B8060000 		.4byte	0x6b8
 1749 06a1 18       		.uleb128 0x18
 1750 06a2 C0000000 		.4byte	.LASF110
 1751 06a6 11       		.byte	0x11
 1752 06a7 45       		.byte	0x45
 1753 06a8 D9060000 		.4byte	0x6d9
 1754 06ac 18       		.uleb128 0x18
 1755 06ad A9050000 		.4byte	.LASF111
 1756 06b1 11       		.byte	0x11
 1757 06b2 46       		.byte	0x46
 1758 06b3 DF060000 		.4byte	0x6df
 1759 06b7 00       		.byte	0
 1760 06b8 19       		.uleb128 0x19
 1761 06b9 F3040000 		.4byte	.LASF137
 1762 06bd 08       		.byte	0x8
 1763 06be 11       		.byte	0x11
 1764 06bf 41       		.byte	0x41
 1765 06c0 D9060000 		.4byte	0x6d9
 1766 06c4 18       		.uleb128 0x18
 1767 06c5 E5010000 		.4byte	.LASF112
 1768 06c9 11       		.byte	0x11
 1769 06ca 42       		.byte	0x42
 1770 06cb 58040000 		.4byte	0x458
 1771 06cf 1A       		.uleb128 0x1a
 1772 06d0 6800     		.ascii	"h\000"
 1773 06d2 11       		.byte	0x11
 1774 06d3 49       		.byte	0x49
 1775 06d4 E5060000 		.4byte	0x6e5
 1776 06d8 00       		.byte	0
 1777 06d9 09       		.uleb128 0x9
 1778 06da 04       		.byte	0x4
 1779 06db B8060000 		.4byte	0x6b8
 1780 06df 09       		.uleb128 0x9
 1781 06e0 04       		.byte	0x4
 1782 06e1 5D060000 		.4byte	0x65d
 1783 06e5 10       		.uleb128 0x10
 1784 06e6 08       		.byte	0x8
 1785 06e7 11       		.byte	0x11
 1786 06e8 43       		.byte	0x43
 1787 06e9 04070000 		.4byte	0x704
 1788 06ed 0F       		.uleb128 0xf
 1789 06ee 7500     		.ascii	"u\000"
 1790 06f0 11       		.byte	0x11
 1791 06f1 47       		.byte	0x47
 1792 06f2 99060000 		.4byte	0x699
 1793 06f6 00       		.byte	0
 1794 06f7 06       		.uleb128 0x6
 1795 06f8 B2060000 		.4byte	.LASF113
 1796 06fc 11       		.byte	0x11
 1797 06fd 48       		.byte	0x48
 1798 06fe 2C000000 		.4byte	0x2c
 1799 0702 04       		.byte	0x4
 1800 0703 00       		.byte	0
 1801 0704 05       		.uleb128 0x5
ARM GAS  /tmp/cchn9INy.s 			page 64


 1802 0705 78060000 		.4byte	.LASF114
 1803 0709 04       		.byte	0x4
 1804 070a 12       		.byte	0x12
 1805 070b 38       		.byte	0x38
 1806 070c 1D070000 		.4byte	0x71d
 1807 0710 06       		.uleb128 0x6
 1808 0711 8B040000 		.4byte	.LASF115
 1809 0715 12       		.byte	0x12
 1810 0716 39       		.byte	0x39
 1811 0717 1D070000 		.4byte	0x71d
 1812 071b 00       		.byte	0
 1813 071c 00       		.byte	0
 1814 071d 09       		.uleb128 0x9
 1815 071e 04       		.byte	0x4
 1816 071f 04070000 		.4byte	0x704
 1817 0723 10       		.uleb128 0x10
 1818 0724 0C       		.byte	0xc
 1819 0725 12       		.byte	0x12
 1820 0726 40       		.byte	0x40
 1821 0727 50070000 		.4byte	0x750
 1822 072b 06       		.uleb128 0x6
 1823 072c 64010000 		.4byte	.LASF116
 1824 0730 12       		.byte	0x12
 1825 0731 41       		.byte	0x41
 1826 0732 1D070000 		.4byte	0x71d
 1827 0736 00       		.byte	0
 1828 0737 06       		.uleb128 0x6
 1829 0738 48040000 		.4byte	.LASF117
 1830 073c 12       		.byte	0x12
 1831 073d 42       		.byte	0x42
 1832 073e 2C000000 		.4byte	0x2c
 1833 0742 04       		.byte	0x4
 1834 0743 06       		.uleb128 0x6
 1835 0744 BA010000 		.4byte	.LASF118
 1836 0748 12       		.byte	0x12
 1837 0749 44       		.byte	0x44
 1838 074a 3D060000 		.4byte	0x63d
 1839 074e 08       		.byte	0x8
 1840 074f 00       		.byte	0
 1841 0750 03       		.uleb128 0x3
 1842 0751 07030000 		.4byte	.LASF119
 1843 0755 12       		.byte	0x12
 1844 0756 46       		.byte	0x46
 1845 0757 23070000 		.4byte	0x723
 1846 075b 1B       		.uleb128 0x1b
 1847 075c 29060000 		.4byte	.LASF138
 1848 0760 02       		.byte	0x2
 1849 0761 2202     		.2byte	0x222
 1850 0763 03       		.byte	0x3
 1851 0764 75070000 		.4byte	0x775
 1852 0768 1C       		.uleb128 0x1c
 1853 0769 DF010000 		.4byte	.LASF139
 1854 076d 02       		.byte	0x2
 1855 076e 2202     		.2byte	0x222
 1856 0770 B8000000 		.4byte	0xb8
 1857 0774 00       		.byte	0
 1858 0775 1D       		.uleb128 0x1d
ARM GAS  /tmp/cchn9INy.s 			page 65


 1859 0776 51000000 		.4byte	.LASF120
 1860 077a 01       		.byte	0x1
 1861 077b C801     		.2byte	0x1c8
 1862 077d 00000000 		.4byte	.LFB127
 1863 0781 10000000 		.4byte	.LFE127-.LFB127
 1864 0785 01       		.uleb128 0x1
 1865 0786 9C       		.byte	0x9c
 1866 0787 A5070000 		.4byte	0x7a5
 1867 078b 1E       		.uleb128 0x1e
 1868 078c 5B070000 		.4byte	0x75b
 1869 0790 06000000 		.4byte	.LBB6
 1870 0794 06000000 		.4byte	.LBE6-.LBB6
 1871 0798 01       		.byte	0x1
 1872 0799 D001     		.2byte	0x1d0
 1873 079b 1F       		.uleb128 0x1f
 1874 079c 68070000 		.4byte	0x768
 1875 07a0 02       		.uleb128 0x2
 1876 07a1 91       		.byte	0x91
 1877 07a2 7C       		.sleb128 -4
 1878 07a3 00       		.byte	0
 1879 07a4 00       		.byte	0
 1880 07a5 1D       		.uleb128 0x1d
 1881 07a6 14010000 		.4byte	.LASF121
 1882 07aa 01       		.byte	0x1
 1883 07ab E001     		.2byte	0x1e0
 1884 07ad 00000000 		.4byte	.LFB128
 1885 07b1 10000000 		.4byte	.LFE128-.LFB128
 1886 07b5 01       		.uleb128 0x1
 1887 07b6 9C       		.byte	0x9c
 1888 07b7 D5070000 		.4byte	0x7d5
 1889 07bb 1E       		.uleb128 0x1e
 1890 07bc 5B070000 		.4byte	0x75b
 1891 07c0 06000000 		.4byte	.LBB8
 1892 07c4 06000000 		.4byte	.LBE8-.LBB8
 1893 07c8 01       		.byte	0x1
 1894 07c9 E301     		.2byte	0x1e3
 1895 07cb 1F       		.uleb128 0x1f
 1896 07cc 68070000 		.4byte	0x768
 1897 07d0 02       		.uleb128 0x2
 1898 07d1 91       		.byte	0x91
 1899 07d2 7C       		.sleb128 -4
 1900 07d3 00       		.byte	0
 1901 07d4 00       		.byte	0
 1902 07d5 20       		.uleb128 0x20
 1903 07d6 38050000 		.4byte	.LASF140
 1904 07da 03       		.byte	0x3
 1905 07db 5A01     		.2byte	0x15a
 1906 07dd 00000000 		.4byte	.LFB167
 1907 07e1 08000000 		.4byte	.LFE167-.LFB167
 1908 07e5 01       		.uleb128 0x1
 1909 07e6 9C       		.byte	0x9c
 1910 07e7 21       		.uleb128 0x21
 1911 07e8 C6060000 		.4byte	.LASF122
 1912 07ec 03       		.byte	0x3
 1913 07ed 6601     		.2byte	0x166
 1914 07ef 00000000 		.4byte	.LFB168
 1915 07f3 08000000 		.4byte	.LFE168-.LFB168
ARM GAS  /tmp/cchn9INy.s 			page 66


 1916 07f7 01       		.uleb128 0x1
 1917 07f8 9C       		.byte	0x9c
 1918 07f9 07080000 		.4byte	0x807
 1919 07fd 22       		.uleb128 0x22
 1920 07fe A4010000 		.4byte	.LASF123
 1921 0802 17080000 		.4byte	0x817
 1922 0806 00       		.byte	0
 1923 0807 15       		.uleb128 0x15
 1924 0808 F9050000 		.4byte	0x5f9
 1925 080c 17080000 		.4byte	0x817
 1926 0810 16       		.uleb128 0x16
 1927 0811 46040000 		.4byte	0x446
 1928 0815 0B       		.byte	0xb
 1929 0816 00       		.byte	0
 1930 0817 13       		.uleb128 0x13
 1931 0818 07080000 		.4byte	0x807
 1932 081c 23       		.uleb128 0x23
 1933 081d 81030000 		.4byte	.LASF126
 1934 0821 04       		.byte	0x4
 1935 0822 44       		.byte	0x44
 1936 0823 33020000 		.4byte	0x233
 1937 0827 00000000 		.4byte	.LFB241
 1938 082b 28000000 		.4byte	.LFE241-.LFB241
 1939 082f 01       		.uleb128 0x1
 1940 0830 9C       		.byte	0x9c
 1941 0831 4C080000 		.4byte	0x84c
 1942 0835 24       		.uleb128 0x24
 1943 0836 747000   		.ascii	"tp\000"
 1944 0839 04       		.byte	0x4
 1945 083a 44       		.byte	0x44
 1946 083b 33020000 		.4byte	0x233
 1947 083f 02       		.uleb128 0x2
 1948 0840 91       		.byte	0x91
 1949 0841 74       		.sleb128 -12
 1950 0842 22       		.uleb128 0x22
 1951 0843 BF040000 		.4byte	.LASF124
 1952 0847 4C080000 		.4byte	0x84c
 1953 084b 00       		.byte	0
 1954 084c 13       		.uleb128 0x13
 1955 084d 07080000 		.4byte	0x807
 1956 0851 25       		.uleb128 0x25
 1957 0852 42050000 		.4byte	.LASF141
 1958 0856 04       		.byte	0x4
 1959 0857 5B       		.byte	0x5b
 1960 0858 00000000 		.4byte	.LFB242
 1961 085c 92000000 		.4byte	.LFE242-.LFB242
 1962 0860 01       		.uleb128 0x1
 1963 0861 9C       		.byte	0x9c
 1964 0862 8B080000 		.4byte	0x88b
 1965 0866 24       		.uleb128 0x24
 1966 0867 747000   		.ascii	"tp\000"
 1967 086a 04       		.byte	0x4
 1968 086b 5B       		.byte	0x5b
 1969 086c 33020000 		.4byte	0x233
 1970 0870 02       		.uleb128 0x2
 1971 0871 91       		.byte	0x91
 1972 0872 6C       		.sleb128 -20
ARM GAS  /tmp/cchn9INy.s 			page 67


 1973 0873 26       		.uleb128 0x26
 1974 0874 9B040000 		.4byte	.LASF130
 1975 0878 04       		.byte	0x4
 1976 0879 5C       		.byte	0x5c
 1977 087a EF000000 		.4byte	0xef
 1978 087e 02       		.uleb128 0x2
 1979 087f 91       		.byte	0x91
 1980 0880 77       		.sleb128 -9
 1981 0881 22       		.uleb128 0x22
 1982 0882 7C010000 		.4byte	.LASF125
 1983 0886 9B080000 		.4byte	0x89b
 1984 088a 00       		.byte	0
 1985 088b 15       		.uleb128 0x15
 1986 088c F9050000 		.4byte	0x5f9
 1987 0890 9B080000 		.4byte	0x89b
 1988 0894 16       		.uleb128 0x16
 1989 0895 46040000 		.4byte	0x446
 1990 0899 0C       		.byte	0xc
 1991 089a 00       		.byte	0
 1992 089b 13       		.uleb128 0x13
 1993 089c 8B080000 		.4byte	0x88b
 1994 08a0 23       		.uleb128 0x23
 1995 08a1 39010000 		.4byte	.LASF127
 1996 08a5 04       		.byte	0x4
 1997 08a6 98       		.byte	0x98
 1998 08a7 33020000 		.4byte	0x233
 1999 08ab 00000000 		.4byte	.LFB243
 2000 08af 54000000 		.4byte	.LFE243-.LFB243
 2001 08b3 01       		.uleb128 0x1
 2002 08b4 9C       		.byte	0x9c
 2003 08b5 1A090000 		.4byte	0x91a
 2004 08b9 27       		.uleb128 0x27
 2005 08ba BA000000 		.4byte	.LASF128
 2006 08be 04       		.byte	0x4
 2007 08bf 98       		.byte	0x98
 2008 08c0 DF060000 		.4byte	0x6df
 2009 08c4 02       		.uleb128 0x2
 2010 08c5 91       		.byte	0x91
 2011 08c6 6C       		.sleb128 -20
 2012 08c7 27       		.uleb128 0x27
 2013 08c8 B2060000 		.4byte	.LASF113
 2014 08cc 04       		.byte	0x4
 2015 08cd 98       		.byte	0x98
 2016 08ce 2C000000 		.4byte	0x2c
 2017 08d2 02       		.uleb128 0x2
 2018 08d3 91       		.byte	0x91
 2019 08d4 68       		.sleb128 -24
 2020 08d5 27       		.uleb128 0x27
 2021 08d6 73040000 		.4byte	.LASF129
 2022 08da 04       		.byte	0x4
 2023 08db 99       		.byte	0x99
 2024 08dc FA000000 		.4byte	0xfa
 2025 08e0 02       		.uleb128 0x2
 2026 08e1 91       		.byte	0x91
 2027 08e2 64       		.sleb128 -28
 2028 08e3 24       		.uleb128 0x24
 2029 08e4 706600   		.ascii	"pf\000"
ARM GAS  /tmp/cchn9INy.s 			page 68


 2030 08e7 04       		.byte	0x4
 2031 08e8 99       		.byte	0x99
 2032 08e9 21060000 		.4byte	0x621
 2033 08ed 02       		.uleb128 0x2
 2034 08ee 91       		.byte	0x91
 2035 08ef 60       		.sleb128 -32
 2036 08f0 24       		.uleb128 0x24
 2037 08f1 61726700 		.ascii	"arg\000"
 2038 08f5 04       		.byte	0x4
 2039 08f6 99       		.byte	0x99
 2040 08f7 10030000 		.4byte	0x310
 2041 08fb 02       		.uleb128 0x2
 2042 08fc 91       		.byte	0x91
 2043 08fd 00       		.sleb128 0
 2044 08fe 28       		.uleb128 0x28
 2045 08ff 77737000 		.ascii	"wsp\000"
 2046 0903 04       		.byte	0x4
 2047 0904 9A       		.byte	0x9a
 2048 0905 10030000 		.4byte	0x310
 2049 0909 02       		.uleb128 0x2
 2050 090a 91       		.byte	0x91
 2051 090b 74       		.sleb128 -12
 2052 090c 28       		.uleb128 0x28
 2053 090d 747000   		.ascii	"tp\000"
 2054 0910 04       		.byte	0x4
 2055 0911 9B       		.byte	0x9b
 2056 0912 33020000 		.4byte	0x233
 2057 0916 02       		.uleb128 0x2
 2058 0917 91       		.byte	0x91
 2059 0918 70       		.sleb128 -16
 2060 0919 00       		.byte	0
 2061 091a 23       		.uleb128 0x23
 2062 091b 8A010000 		.4byte	.LASF131
 2063 091f 04       		.byte	0x4
 2064 0920 CC       		.byte	0xcc
 2065 0921 33020000 		.4byte	0x233
 2066 0925 00000000 		.4byte	.LFB244
 2067 0929 5C000000 		.4byte	.LFE244-.LFB244
 2068 092d 01       		.uleb128 0x1
 2069 092e 9C       		.byte	0x9c
 2070 092f 8E090000 		.4byte	0x98e
 2071 0933 24       		.uleb128 0x24
 2072 0934 6D7000   		.ascii	"mp\000"
 2073 0937 04       		.byte	0x4
 2074 0938 CC       		.byte	0xcc
 2075 0939 8E090000 		.4byte	0x98e
 2076 093d 02       		.uleb128 0x2
 2077 093e 91       		.byte	0x91
 2078 093f 6C       		.sleb128 -20
 2079 0940 27       		.uleb128 0x27
 2080 0941 73040000 		.4byte	.LASF129
 2081 0945 04       		.byte	0x4
 2082 0946 CC       		.byte	0xcc
 2083 0947 FA000000 		.4byte	0xfa
 2084 094b 02       		.uleb128 0x2
 2085 094c 91       		.byte	0x91
 2086 094d 68       		.sleb128 -24
ARM GAS  /tmp/cchn9INy.s 			page 69


 2087 094e 24       		.uleb128 0x24
 2088 094f 706600   		.ascii	"pf\000"
 2089 0952 04       		.byte	0x4
 2090 0953 CD       		.byte	0xcd
 2091 0954 21060000 		.4byte	0x621
 2092 0958 02       		.uleb128 0x2
 2093 0959 91       		.byte	0x91
 2094 095a 64       		.sleb128 -28
 2095 095b 24       		.uleb128 0x24
 2096 095c 61726700 		.ascii	"arg\000"
 2097 0960 04       		.byte	0x4
 2098 0961 CD       		.byte	0xcd
 2099 0962 10030000 		.4byte	0x310
 2100 0966 02       		.uleb128 0x2
 2101 0967 91       		.byte	0x91
 2102 0968 60       		.sleb128 -32
 2103 0969 28       		.uleb128 0x28
 2104 096a 77737000 		.ascii	"wsp\000"
 2105 096e 04       		.byte	0x4
 2106 096f CE       		.byte	0xce
 2107 0970 10030000 		.4byte	0x310
 2108 0974 02       		.uleb128 0x2
 2109 0975 91       		.byte	0x91
 2110 0976 74       		.sleb128 -12
 2111 0977 28       		.uleb128 0x28
 2112 0978 747000   		.ascii	"tp\000"
 2113 097b 04       		.byte	0x4
 2114 097c CF       		.byte	0xcf
 2115 097d 33020000 		.4byte	0x233
 2116 0981 02       		.uleb128 0x2
 2117 0982 91       		.byte	0x91
 2118 0983 70       		.sleb128 -16
 2119 0984 22       		.uleb128 0x22
 2120 0985 D5030000 		.4byte	.LASF132
 2121 0989 A4090000 		.4byte	0x9a4
 2122 098d 00       		.byte	0
 2123 098e 09       		.uleb128 0x9
 2124 098f 04       		.byte	0x4
 2125 0990 50070000 		.4byte	0x750
 2126 0994 15       		.uleb128 0x15
 2127 0995 F9050000 		.4byte	0x5f9
 2128 0999 A4090000 		.4byte	0x9a4
 2129 099d 16       		.uleb128 0x16
 2130 099e 46040000 		.4byte	0x446
 2131 09a2 19       		.byte	0x19
 2132 09a3 00       		.byte	0
 2133 09a4 13       		.uleb128 0x13
 2134 09a5 94090000 		.4byte	0x994
 2135 09a9 29       		.uleb128 0x29
 2136 09aa AD000000 		.4byte	.LASF133
 2137 09ae 13       		.byte	0x13
 2138 09af FA06     		.2byte	0x6fa
 2139 09b1 B5090000 		.4byte	0x9b5
 2140 09b5 14       		.uleb128 0x14
 2141 09b6 AD000000 		.4byte	0xad
 2142 09ba 2A       		.uleb128 0x2a
 2143 09bb 636800   		.ascii	"ch\000"
ARM GAS  /tmp/cchn9INy.s 			page 70


 2144 09be 0A       		.byte	0xa
 2145 09bf 0B02     		.2byte	0x20b
 2146 09c1 DF030000 		.4byte	0x3df
 2147 09c5 00       		.byte	0
 2148              		.section	.debug_abbrev,"",%progbits
 2149              	.Ldebug_abbrev0:
 2150 0000 01       		.uleb128 0x1
 2151 0001 11       		.uleb128 0x11
 2152 0002 01       		.byte	0x1
 2153 0003 25       		.uleb128 0x25
 2154 0004 0E       		.uleb128 0xe
 2155 0005 13       		.uleb128 0x13
 2156 0006 0B       		.uleb128 0xb
 2157 0007 03       		.uleb128 0x3
 2158 0008 0E       		.uleb128 0xe
 2159 0009 1B       		.uleb128 0x1b
 2160 000a 0E       		.uleb128 0xe
 2161 000b 55       		.uleb128 0x55
 2162 000c 17       		.uleb128 0x17
 2163 000d 11       		.uleb128 0x11
 2164 000e 01       		.uleb128 0x1
 2165 000f 10       		.uleb128 0x10
 2166 0010 17       		.uleb128 0x17
 2167 0011 00       		.byte	0
 2168 0012 00       		.byte	0
 2169 0013 02       		.uleb128 0x2
 2170 0014 24       		.uleb128 0x24
 2171 0015 00       		.byte	0
 2172 0016 0B       		.uleb128 0xb
 2173 0017 0B       		.uleb128 0xb
 2174 0018 3E       		.uleb128 0x3e
 2175 0019 0B       		.uleb128 0xb
 2176 001a 03       		.uleb128 0x3
 2177 001b 08       		.uleb128 0x8
 2178 001c 00       		.byte	0
 2179 001d 00       		.byte	0
 2180 001e 03       		.uleb128 0x3
 2181 001f 16       		.uleb128 0x16
 2182 0020 00       		.byte	0
 2183 0021 03       		.uleb128 0x3
 2184 0022 0E       		.uleb128 0xe
 2185 0023 3A       		.uleb128 0x3a
 2186 0024 0B       		.uleb128 0xb
 2187 0025 3B       		.uleb128 0x3b
 2188 0026 0B       		.uleb128 0xb
 2189 0027 49       		.uleb128 0x49
 2190 0028 13       		.uleb128 0x13
 2191 0029 00       		.byte	0
 2192 002a 00       		.byte	0
 2193 002b 04       		.uleb128 0x4
 2194 002c 24       		.uleb128 0x24
 2195 002d 00       		.byte	0
 2196 002e 0B       		.uleb128 0xb
 2197 002f 0B       		.uleb128 0xb
 2198 0030 3E       		.uleb128 0x3e
 2199 0031 0B       		.uleb128 0xb
 2200 0032 03       		.uleb128 0x3
ARM GAS  /tmp/cchn9INy.s 			page 71


 2201 0033 0E       		.uleb128 0xe
 2202 0034 00       		.byte	0
 2203 0035 00       		.byte	0
 2204 0036 05       		.uleb128 0x5
 2205 0037 13       		.uleb128 0x13
 2206 0038 01       		.byte	0x1
 2207 0039 03       		.uleb128 0x3
 2208 003a 0E       		.uleb128 0xe
 2209 003b 0B       		.uleb128 0xb
 2210 003c 0B       		.uleb128 0xb
 2211 003d 3A       		.uleb128 0x3a
 2212 003e 0B       		.uleb128 0xb
 2213 003f 3B       		.uleb128 0x3b
 2214 0040 0B       		.uleb128 0xb
 2215 0041 01       		.uleb128 0x1
 2216 0042 13       		.uleb128 0x13
 2217 0043 00       		.byte	0
 2218 0044 00       		.byte	0
 2219 0045 06       		.uleb128 0x6
 2220 0046 0D       		.uleb128 0xd
 2221 0047 00       		.byte	0
 2222 0048 03       		.uleb128 0x3
 2223 0049 0E       		.uleb128 0xe
 2224 004a 3A       		.uleb128 0x3a
 2225 004b 0B       		.uleb128 0xb
 2226 004c 3B       		.uleb128 0x3b
 2227 004d 0B       		.uleb128 0xb
 2228 004e 49       		.uleb128 0x49
 2229 004f 13       		.uleb128 0x13
 2230 0050 38       		.uleb128 0x38
 2231 0051 0B       		.uleb128 0xb
 2232 0052 00       		.byte	0
 2233 0053 00       		.byte	0
 2234 0054 07       		.uleb128 0x7
 2235 0055 0D       		.uleb128 0xd
 2236 0056 00       		.byte	0
 2237 0057 03       		.uleb128 0x3
 2238 0058 08       		.uleb128 0x8
 2239 0059 3A       		.uleb128 0x3a
 2240 005a 0B       		.uleb128 0xb
 2241 005b 3B       		.uleb128 0x3b
 2242 005c 05       		.uleb128 0x5
 2243 005d 49       		.uleb128 0x49
 2244 005e 13       		.uleb128 0x13
 2245 005f 38       		.uleb128 0x38
 2246 0060 0B       		.uleb128 0xb
 2247 0061 00       		.byte	0
 2248 0062 00       		.byte	0
 2249 0063 08       		.uleb128 0x8
 2250 0064 0D       		.uleb128 0xd
 2251 0065 00       		.byte	0
 2252 0066 03       		.uleb128 0x3
 2253 0067 0E       		.uleb128 0xe
 2254 0068 3A       		.uleb128 0x3a
 2255 0069 0B       		.uleb128 0xb
 2256 006a 3B       		.uleb128 0x3b
 2257 006b 05       		.uleb128 0x5
ARM GAS  /tmp/cchn9INy.s 			page 72


 2258 006c 49       		.uleb128 0x49
 2259 006d 13       		.uleb128 0x13
 2260 006e 38       		.uleb128 0x38
 2261 006f 0B       		.uleb128 0xb
 2262 0070 00       		.byte	0
 2263 0071 00       		.byte	0
 2264 0072 09       		.uleb128 0x9
 2265 0073 0F       		.uleb128 0xf
 2266 0074 00       		.byte	0
 2267 0075 0B       		.uleb128 0xb
 2268 0076 0B       		.uleb128 0xb
 2269 0077 49       		.uleb128 0x49
 2270 0078 13       		.uleb128 0x13
 2271 0079 00       		.byte	0
 2272 007a 00       		.byte	0
 2273 007b 0A       		.uleb128 0xa
 2274 007c 13       		.uleb128 0x13
 2275 007d 01       		.byte	0x1
 2276 007e 03       		.uleb128 0x3
 2277 007f 0E       		.uleb128 0xe
 2278 0080 0B       		.uleb128 0xb
 2279 0081 0B       		.uleb128 0xb
 2280 0082 3A       		.uleb128 0x3a
 2281 0083 0B       		.uleb128 0xb
 2282 0084 3B       		.uleb128 0x3b
 2283 0085 05       		.uleb128 0x5
 2284 0086 01       		.uleb128 0x1
 2285 0087 13       		.uleb128 0x13
 2286 0088 00       		.byte	0
 2287 0089 00       		.byte	0
 2288 008a 0B       		.uleb128 0xb
 2289 008b 15       		.uleb128 0x15
 2290 008c 01       		.byte	0x1
 2291 008d 27       		.uleb128 0x27
 2292 008e 19       		.uleb128 0x19
 2293 008f 01       		.uleb128 0x1
 2294 0090 13       		.uleb128 0x13
 2295 0091 00       		.byte	0
 2296 0092 00       		.byte	0
 2297 0093 0C       		.uleb128 0xc
 2298 0094 05       		.uleb128 0x5
 2299 0095 00       		.byte	0
 2300 0096 49       		.uleb128 0x49
 2301 0097 13       		.uleb128 0x13
 2302 0098 00       		.byte	0
 2303 0099 00       		.byte	0
 2304 009a 0D       		.uleb128 0xd
 2305 009b 0F       		.uleb128 0xf
 2306 009c 00       		.byte	0
 2307 009d 0B       		.uleb128 0xb
 2308 009e 0B       		.uleb128 0xb
 2309 009f 00       		.byte	0
 2310 00a0 00       		.byte	0
 2311 00a1 0E       		.uleb128 0xe
 2312 00a2 13       		.uleb128 0x13
 2313 00a3 01       		.byte	0x1
 2314 00a4 03       		.uleb128 0x3
ARM GAS  /tmp/cchn9INy.s 			page 73


 2315 00a5 0E       		.uleb128 0xe
 2316 00a6 0B       		.uleb128 0xb
 2317 00a7 05       		.uleb128 0x5
 2318 00a8 3A       		.uleb128 0x3a
 2319 00a9 0B       		.uleb128 0xb
 2320 00aa 3B       		.uleb128 0x3b
 2321 00ab 05       		.uleb128 0x5
 2322 00ac 01       		.uleb128 0x1
 2323 00ad 13       		.uleb128 0x13
 2324 00ae 00       		.byte	0
 2325 00af 00       		.byte	0
 2326 00b0 0F       		.uleb128 0xf
 2327 00b1 0D       		.uleb128 0xd
 2328 00b2 00       		.byte	0
 2329 00b3 03       		.uleb128 0x3
 2330 00b4 08       		.uleb128 0x8
 2331 00b5 3A       		.uleb128 0x3a
 2332 00b6 0B       		.uleb128 0xb
 2333 00b7 3B       		.uleb128 0x3b
 2334 00b8 0B       		.uleb128 0xb
 2335 00b9 49       		.uleb128 0x49
 2336 00ba 13       		.uleb128 0x13
 2337 00bb 38       		.uleb128 0x38
 2338 00bc 0B       		.uleb128 0xb
 2339 00bd 00       		.byte	0
 2340 00be 00       		.byte	0
 2341 00bf 10       		.uleb128 0x10
 2342 00c0 13       		.uleb128 0x13
 2343 00c1 01       		.byte	0x1
 2344 00c2 0B       		.uleb128 0xb
 2345 00c3 0B       		.uleb128 0xb
 2346 00c4 3A       		.uleb128 0x3a
 2347 00c5 0B       		.uleb128 0xb
 2348 00c6 3B       		.uleb128 0x3b
 2349 00c7 0B       		.uleb128 0xb
 2350 00c8 01       		.uleb128 0x1
 2351 00c9 13       		.uleb128 0x13
 2352 00ca 00       		.byte	0
 2353 00cb 00       		.byte	0
 2354 00cc 11       		.uleb128 0x11
 2355 00cd 17       		.uleb128 0x17
 2356 00ce 01       		.byte	0x1
 2357 00cf 0B       		.uleb128 0xb
 2358 00d0 0B       		.uleb128 0xb
 2359 00d1 3A       		.uleb128 0x3a
 2360 00d2 0B       		.uleb128 0xb
 2361 00d3 3B       		.uleb128 0x3b
 2362 00d4 0B       		.uleb128 0xb
 2363 00d5 01       		.uleb128 0x1
 2364 00d6 13       		.uleb128 0x13
 2365 00d7 00       		.byte	0
 2366 00d8 00       		.byte	0
 2367 00d9 12       		.uleb128 0x12
 2368 00da 0D       		.uleb128 0xd
 2369 00db 00       		.byte	0
 2370 00dc 03       		.uleb128 0x3
 2371 00dd 0E       		.uleb128 0xe
ARM GAS  /tmp/cchn9INy.s 			page 74


 2372 00de 3A       		.uleb128 0x3a
 2373 00df 0B       		.uleb128 0xb
 2374 00e0 3B       		.uleb128 0x3b
 2375 00e1 05       		.uleb128 0x5
 2376 00e2 49       		.uleb128 0x49
 2377 00e3 13       		.uleb128 0x13
 2378 00e4 00       		.byte	0
 2379 00e5 00       		.byte	0
 2380 00e6 13       		.uleb128 0x13
 2381 00e7 26       		.uleb128 0x26
 2382 00e8 00       		.byte	0
 2383 00e9 49       		.uleb128 0x49
 2384 00ea 13       		.uleb128 0x13
 2385 00eb 00       		.byte	0
 2386 00ec 00       		.byte	0
 2387 00ed 14       		.uleb128 0x14
 2388 00ee 35       		.uleb128 0x35
 2389 00ef 00       		.byte	0
 2390 00f0 49       		.uleb128 0x49
 2391 00f1 13       		.uleb128 0x13
 2392 00f2 00       		.byte	0
 2393 00f3 00       		.byte	0
 2394 00f4 15       		.uleb128 0x15
 2395 00f5 01       		.uleb128 0x1
 2396 00f6 01       		.byte	0x1
 2397 00f7 49       		.uleb128 0x49
 2398 00f8 13       		.uleb128 0x13
 2399 00f9 01       		.uleb128 0x1
 2400 00fa 13       		.uleb128 0x13
 2401 00fb 00       		.byte	0
 2402 00fc 00       		.byte	0
 2403 00fd 16       		.uleb128 0x16
 2404 00fe 21       		.uleb128 0x21
 2405 00ff 00       		.byte	0
 2406 0100 49       		.uleb128 0x49
 2407 0101 13       		.uleb128 0x13
 2408 0102 2F       		.uleb128 0x2f
 2409 0103 0B       		.uleb128 0xb
 2410 0104 00       		.byte	0
 2411 0105 00       		.byte	0
 2412 0106 17       		.uleb128 0x17
 2413 0107 15       		.uleb128 0x15
 2414 0108 01       		.byte	0x1
 2415 0109 27       		.uleb128 0x27
 2416 010a 19       		.uleb128 0x19
 2417 010b 49       		.uleb128 0x49
 2418 010c 13       		.uleb128 0x13
 2419 010d 01       		.uleb128 0x1
 2420 010e 13       		.uleb128 0x13
 2421 010f 00       		.byte	0
 2422 0110 00       		.byte	0
 2423 0111 18       		.uleb128 0x18
 2424 0112 0D       		.uleb128 0xd
 2425 0113 00       		.byte	0
 2426 0114 03       		.uleb128 0x3
 2427 0115 0E       		.uleb128 0xe
 2428 0116 3A       		.uleb128 0x3a
ARM GAS  /tmp/cchn9INy.s 			page 75


 2429 0117 0B       		.uleb128 0xb
 2430 0118 3B       		.uleb128 0x3b
 2431 0119 0B       		.uleb128 0xb
 2432 011a 49       		.uleb128 0x49
 2433 011b 13       		.uleb128 0x13
 2434 011c 00       		.byte	0
 2435 011d 00       		.byte	0
 2436 011e 19       		.uleb128 0x19
 2437 011f 17       		.uleb128 0x17
 2438 0120 01       		.byte	0x1
 2439 0121 03       		.uleb128 0x3
 2440 0122 0E       		.uleb128 0xe
 2441 0123 0B       		.uleb128 0xb
 2442 0124 0B       		.uleb128 0xb
 2443 0125 3A       		.uleb128 0x3a
 2444 0126 0B       		.uleb128 0xb
 2445 0127 3B       		.uleb128 0x3b
 2446 0128 0B       		.uleb128 0xb
 2447 0129 01       		.uleb128 0x1
 2448 012a 13       		.uleb128 0x13
 2449 012b 00       		.byte	0
 2450 012c 00       		.byte	0
 2451 012d 1A       		.uleb128 0x1a
 2452 012e 0D       		.uleb128 0xd
 2453 012f 00       		.byte	0
 2454 0130 03       		.uleb128 0x3
 2455 0131 08       		.uleb128 0x8
 2456 0132 3A       		.uleb128 0x3a
 2457 0133 0B       		.uleb128 0xb
 2458 0134 3B       		.uleb128 0x3b
 2459 0135 0B       		.uleb128 0xb
 2460 0136 49       		.uleb128 0x49
 2461 0137 13       		.uleb128 0x13
 2462 0138 00       		.byte	0
 2463 0139 00       		.byte	0
 2464 013a 1B       		.uleb128 0x1b
 2465 013b 2E       		.uleb128 0x2e
 2466 013c 01       		.byte	0x1
 2467 013d 03       		.uleb128 0x3
 2468 013e 0E       		.uleb128 0xe
 2469 013f 3A       		.uleb128 0x3a
 2470 0140 0B       		.uleb128 0xb
 2471 0141 3B       		.uleb128 0x3b
 2472 0142 05       		.uleb128 0x5
 2473 0143 27       		.uleb128 0x27
 2474 0144 19       		.uleb128 0x19
 2475 0145 20       		.uleb128 0x20
 2476 0146 0B       		.uleb128 0xb
 2477 0147 01       		.uleb128 0x1
 2478 0148 13       		.uleb128 0x13
 2479 0149 00       		.byte	0
 2480 014a 00       		.byte	0
 2481 014b 1C       		.uleb128 0x1c
 2482 014c 05       		.uleb128 0x5
 2483 014d 00       		.byte	0
 2484 014e 03       		.uleb128 0x3
 2485 014f 0E       		.uleb128 0xe
ARM GAS  /tmp/cchn9INy.s 			page 76


 2486 0150 3A       		.uleb128 0x3a
 2487 0151 0B       		.uleb128 0xb
 2488 0152 3B       		.uleb128 0x3b
 2489 0153 05       		.uleb128 0x5
 2490 0154 49       		.uleb128 0x49
 2491 0155 13       		.uleb128 0x13
 2492 0156 00       		.byte	0
 2493 0157 00       		.byte	0
 2494 0158 1D       		.uleb128 0x1d
 2495 0159 2E       		.uleb128 0x2e
 2496 015a 01       		.byte	0x1
 2497 015b 03       		.uleb128 0x3
 2498 015c 0E       		.uleb128 0xe
 2499 015d 3A       		.uleb128 0x3a
 2500 015e 0B       		.uleb128 0xb
 2501 015f 3B       		.uleb128 0x3b
 2502 0160 05       		.uleb128 0x5
 2503 0161 27       		.uleb128 0x27
 2504 0162 19       		.uleb128 0x19
 2505 0163 11       		.uleb128 0x11
 2506 0164 01       		.uleb128 0x1
 2507 0165 12       		.uleb128 0x12
 2508 0166 06       		.uleb128 0x6
 2509 0167 40       		.uleb128 0x40
 2510 0168 18       		.uleb128 0x18
 2511 0169 9742     		.uleb128 0x2117
 2512 016b 19       		.uleb128 0x19
 2513 016c 01       		.uleb128 0x1
 2514 016d 13       		.uleb128 0x13
 2515 016e 00       		.byte	0
 2516 016f 00       		.byte	0
 2517 0170 1E       		.uleb128 0x1e
 2518 0171 1D       		.uleb128 0x1d
 2519 0172 01       		.byte	0x1
 2520 0173 31       		.uleb128 0x31
 2521 0174 13       		.uleb128 0x13
 2522 0175 11       		.uleb128 0x11
 2523 0176 01       		.uleb128 0x1
 2524 0177 12       		.uleb128 0x12
 2525 0178 06       		.uleb128 0x6
 2526 0179 58       		.uleb128 0x58
 2527 017a 0B       		.uleb128 0xb
 2528 017b 59       		.uleb128 0x59
 2529 017c 05       		.uleb128 0x5
 2530 017d 00       		.byte	0
 2531 017e 00       		.byte	0
 2532 017f 1F       		.uleb128 0x1f
 2533 0180 05       		.uleb128 0x5
 2534 0181 00       		.byte	0
 2535 0182 31       		.uleb128 0x31
 2536 0183 13       		.uleb128 0x13
 2537 0184 02       		.uleb128 0x2
 2538 0185 18       		.uleb128 0x18
 2539 0186 00       		.byte	0
 2540 0187 00       		.byte	0
 2541 0188 20       		.uleb128 0x20
 2542 0189 2E       		.uleb128 0x2e
ARM GAS  /tmp/cchn9INy.s 			page 77


 2543 018a 00       		.byte	0
 2544 018b 03       		.uleb128 0x3
 2545 018c 0E       		.uleb128 0xe
 2546 018d 3A       		.uleb128 0x3a
 2547 018e 0B       		.uleb128 0xb
 2548 018f 3B       		.uleb128 0x3b
 2549 0190 05       		.uleb128 0x5
 2550 0191 27       		.uleb128 0x27
 2551 0192 19       		.uleb128 0x19
 2552 0193 11       		.uleb128 0x11
 2553 0194 01       		.uleb128 0x1
 2554 0195 12       		.uleb128 0x12
 2555 0196 06       		.uleb128 0x6
 2556 0197 40       		.uleb128 0x40
 2557 0198 18       		.uleb128 0x18
 2558 0199 9642     		.uleb128 0x2116
 2559 019b 19       		.uleb128 0x19
 2560 019c 00       		.byte	0
 2561 019d 00       		.byte	0
 2562 019e 21       		.uleb128 0x21
 2563 019f 2E       		.uleb128 0x2e
 2564 01a0 01       		.byte	0x1
 2565 01a1 03       		.uleb128 0x3
 2566 01a2 0E       		.uleb128 0xe
 2567 01a3 3A       		.uleb128 0x3a
 2568 01a4 0B       		.uleb128 0xb
 2569 01a5 3B       		.uleb128 0x3b
 2570 01a6 05       		.uleb128 0x5
 2571 01a7 27       		.uleb128 0x27
 2572 01a8 19       		.uleb128 0x19
 2573 01a9 11       		.uleb128 0x11
 2574 01aa 01       		.uleb128 0x1
 2575 01ab 12       		.uleb128 0x12
 2576 01ac 06       		.uleb128 0x6
 2577 01ad 40       		.uleb128 0x40
 2578 01ae 18       		.uleb128 0x18
 2579 01af 9642     		.uleb128 0x2116
 2580 01b1 19       		.uleb128 0x19
 2581 01b2 01       		.uleb128 0x1
 2582 01b3 13       		.uleb128 0x13
 2583 01b4 00       		.byte	0
 2584 01b5 00       		.byte	0
 2585 01b6 22       		.uleb128 0x22
 2586 01b7 34       		.uleb128 0x34
 2587 01b8 00       		.byte	0
 2588 01b9 03       		.uleb128 0x3
 2589 01ba 0E       		.uleb128 0xe
 2590 01bb 49       		.uleb128 0x49
 2591 01bc 13       		.uleb128 0x13
 2592 01bd 34       		.uleb128 0x34
 2593 01be 19       		.uleb128 0x19
 2594 01bf 00       		.byte	0
 2595 01c0 00       		.byte	0
 2596 01c1 23       		.uleb128 0x23
 2597 01c2 2E       		.uleb128 0x2e
 2598 01c3 01       		.byte	0x1
 2599 01c4 3F       		.uleb128 0x3f
ARM GAS  /tmp/cchn9INy.s 			page 78


 2600 01c5 19       		.uleb128 0x19
 2601 01c6 03       		.uleb128 0x3
 2602 01c7 0E       		.uleb128 0xe
 2603 01c8 3A       		.uleb128 0x3a
 2604 01c9 0B       		.uleb128 0xb
 2605 01ca 3B       		.uleb128 0x3b
 2606 01cb 0B       		.uleb128 0xb
 2607 01cc 27       		.uleb128 0x27
 2608 01cd 19       		.uleb128 0x19
 2609 01ce 49       		.uleb128 0x49
 2610 01cf 13       		.uleb128 0x13
 2611 01d0 11       		.uleb128 0x11
 2612 01d1 01       		.uleb128 0x1
 2613 01d2 12       		.uleb128 0x12
 2614 01d3 06       		.uleb128 0x6
 2615 01d4 40       		.uleb128 0x40
 2616 01d5 18       		.uleb128 0x18
 2617 01d6 9642     		.uleb128 0x2116
 2618 01d8 19       		.uleb128 0x19
 2619 01d9 01       		.uleb128 0x1
 2620 01da 13       		.uleb128 0x13
 2621 01db 00       		.byte	0
 2622 01dc 00       		.byte	0
 2623 01dd 24       		.uleb128 0x24
 2624 01de 05       		.uleb128 0x5
 2625 01df 00       		.byte	0
 2626 01e0 03       		.uleb128 0x3
 2627 01e1 08       		.uleb128 0x8
 2628 01e2 3A       		.uleb128 0x3a
 2629 01e3 0B       		.uleb128 0xb
 2630 01e4 3B       		.uleb128 0x3b
 2631 01e5 0B       		.uleb128 0xb
 2632 01e6 49       		.uleb128 0x49
 2633 01e7 13       		.uleb128 0x13
 2634 01e8 02       		.uleb128 0x2
 2635 01e9 18       		.uleb128 0x18
 2636 01ea 00       		.byte	0
 2637 01eb 00       		.byte	0
 2638 01ec 25       		.uleb128 0x25
 2639 01ed 2E       		.uleb128 0x2e
 2640 01ee 01       		.byte	0x1
 2641 01ef 3F       		.uleb128 0x3f
 2642 01f0 19       		.uleb128 0x19
 2643 01f1 03       		.uleb128 0x3
 2644 01f2 0E       		.uleb128 0xe
 2645 01f3 3A       		.uleb128 0x3a
 2646 01f4 0B       		.uleb128 0xb
 2647 01f5 3B       		.uleb128 0x3b
 2648 01f6 0B       		.uleb128 0xb
 2649 01f7 27       		.uleb128 0x27
 2650 01f8 19       		.uleb128 0x19
 2651 01f9 11       		.uleb128 0x11
 2652 01fa 01       		.uleb128 0x1
 2653 01fb 12       		.uleb128 0x12
 2654 01fc 06       		.uleb128 0x6
 2655 01fd 40       		.uleb128 0x40
 2656 01fe 18       		.uleb128 0x18
ARM GAS  /tmp/cchn9INy.s 			page 79


 2657 01ff 9642     		.uleb128 0x2116
 2658 0201 19       		.uleb128 0x19
 2659 0202 01       		.uleb128 0x1
 2660 0203 13       		.uleb128 0x13
 2661 0204 00       		.byte	0
 2662 0205 00       		.byte	0
 2663 0206 26       		.uleb128 0x26
 2664 0207 34       		.uleb128 0x34
 2665 0208 00       		.byte	0
 2666 0209 03       		.uleb128 0x3
 2667 020a 0E       		.uleb128 0xe
 2668 020b 3A       		.uleb128 0x3a
 2669 020c 0B       		.uleb128 0xb
 2670 020d 3B       		.uleb128 0x3b
 2671 020e 0B       		.uleb128 0xb
 2672 020f 49       		.uleb128 0x49
 2673 0210 13       		.uleb128 0x13
 2674 0211 02       		.uleb128 0x2
 2675 0212 18       		.uleb128 0x18
 2676 0213 00       		.byte	0
 2677 0214 00       		.byte	0
 2678 0215 27       		.uleb128 0x27
 2679 0216 05       		.uleb128 0x5
 2680 0217 00       		.byte	0
 2681 0218 03       		.uleb128 0x3
 2682 0219 0E       		.uleb128 0xe
 2683 021a 3A       		.uleb128 0x3a
 2684 021b 0B       		.uleb128 0xb
 2685 021c 3B       		.uleb128 0x3b
 2686 021d 0B       		.uleb128 0xb
 2687 021e 49       		.uleb128 0x49
 2688 021f 13       		.uleb128 0x13
 2689 0220 02       		.uleb128 0x2
 2690 0221 18       		.uleb128 0x18
 2691 0222 00       		.byte	0
 2692 0223 00       		.byte	0
 2693 0224 28       		.uleb128 0x28
 2694 0225 34       		.uleb128 0x34
 2695 0226 00       		.byte	0
 2696 0227 03       		.uleb128 0x3
 2697 0228 08       		.uleb128 0x8
 2698 0229 3A       		.uleb128 0x3a
 2699 022a 0B       		.uleb128 0xb
 2700 022b 3B       		.uleb128 0x3b
 2701 022c 0B       		.uleb128 0xb
 2702 022d 49       		.uleb128 0x49
 2703 022e 13       		.uleb128 0x13
 2704 022f 02       		.uleb128 0x2
 2705 0230 18       		.uleb128 0x18
 2706 0231 00       		.byte	0
 2707 0232 00       		.byte	0
 2708 0233 29       		.uleb128 0x29
 2709 0234 34       		.uleb128 0x34
 2710 0235 00       		.byte	0
 2711 0236 03       		.uleb128 0x3
 2712 0237 0E       		.uleb128 0xe
 2713 0238 3A       		.uleb128 0x3a
ARM GAS  /tmp/cchn9INy.s 			page 80


 2714 0239 0B       		.uleb128 0xb
 2715 023a 3B       		.uleb128 0x3b
 2716 023b 05       		.uleb128 0x5
 2717 023c 49       		.uleb128 0x49
 2718 023d 13       		.uleb128 0x13
 2719 023e 3F       		.uleb128 0x3f
 2720 023f 19       		.uleb128 0x19
 2721 0240 3C       		.uleb128 0x3c
 2722 0241 19       		.uleb128 0x19
 2723 0242 00       		.byte	0
 2724 0243 00       		.byte	0
 2725 0244 2A       		.uleb128 0x2a
 2726 0245 34       		.uleb128 0x34
 2727 0246 00       		.byte	0
 2728 0247 03       		.uleb128 0x3
 2729 0248 08       		.uleb128 0x8
 2730 0249 3A       		.uleb128 0x3a
 2731 024a 0B       		.uleb128 0xb
 2732 024b 3B       		.uleb128 0x3b
 2733 024c 05       		.uleb128 0x5
 2734 024d 49       		.uleb128 0x49
 2735 024e 13       		.uleb128 0x13
 2736 024f 3F       		.uleb128 0x3f
 2737 0250 19       		.uleb128 0x19
 2738 0251 3C       		.uleb128 0x3c
 2739 0252 19       		.uleb128 0x19
 2740 0253 00       		.byte	0
 2741 0254 00       		.byte	0
 2742 0255 00       		.byte	0
 2743              		.section	.debug_aranges,"",%progbits
 2744 0000 54000000 		.4byte	0x54
 2745 0004 0200     		.2byte	0x2
 2746 0006 00000000 		.4byte	.Ldebug_info0
 2747 000a 04       		.byte	0x4
 2748 000b 00       		.byte	0
 2749 000c 0000     		.2byte	0
 2750 000e 0000     		.2byte	0
 2751 0010 00000000 		.4byte	.LFB127
 2752 0014 10000000 		.4byte	.LFE127-.LFB127
 2753 0018 00000000 		.4byte	.LFB128
 2754 001c 10000000 		.4byte	.LFE128-.LFB128
 2755 0020 00000000 		.4byte	.LFB167
 2756 0024 08000000 		.4byte	.LFE167-.LFB167
 2757 0028 00000000 		.4byte	.LFB168
 2758 002c 08000000 		.4byte	.LFE168-.LFB168
 2759 0030 00000000 		.4byte	.LFB241
 2760 0034 28000000 		.4byte	.LFE241-.LFB241
 2761 0038 00000000 		.4byte	.LFB242
 2762 003c 92000000 		.4byte	.LFE242-.LFB242
 2763 0040 00000000 		.4byte	.LFB243
 2764 0044 54000000 		.4byte	.LFE243-.LFB243
 2765 0048 00000000 		.4byte	.LFB244
 2766 004c 5C000000 		.4byte	.LFE244-.LFB244
 2767 0050 00000000 		.4byte	0
 2768 0054 00000000 		.4byte	0
 2769              		.section	.debug_ranges,"",%progbits
 2770              	.Ldebug_ranges0:
ARM GAS  /tmp/cchn9INy.s 			page 81


 2771 0000 00000000 		.4byte	.LFB127
 2772 0004 10000000 		.4byte	.LFE127
 2773 0008 00000000 		.4byte	.LFB128
 2774 000c 10000000 		.4byte	.LFE128
 2775 0010 00000000 		.4byte	.LFB167
 2776 0014 08000000 		.4byte	.LFE167
 2777 0018 00000000 		.4byte	.LFB168
 2778 001c 08000000 		.4byte	.LFE168
 2779 0020 00000000 		.4byte	.LFB241
 2780 0024 28000000 		.4byte	.LFE241
 2781 0028 00000000 		.4byte	.LFB242
 2782 002c 92000000 		.4byte	.LFE242
 2783 0030 00000000 		.4byte	.LFB243
 2784 0034 54000000 		.4byte	.LFE243
 2785 0038 00000000 		.4byte	.LFB244
 2786 003c 5C000000 		.4byte	.LFE244
 2787 0040 00000000 		.4byte	0
 2788 0044 00000000 		.4byte	0
 2789              		.section	.debug_line,"",%progbits
 2790              	.Ldebug_line0:
 2791 0000 E9030000 		.section	.debug_str,"MS",%progbits,1
 2791      02000303 
 2791      00000201 
 2791      FB0E0D00 
 2791      01010101 
 2792              	.LASF102:
 2793 0000 7466756E 		.ascii	"tfunc_t\000"
 2793      635F7400 
 2794              	.LASF51:
 2795 0008 72656164 		.ascii	"ready_list_t\000"
 2795      795F6C69 
 2795      73745F74 
 2795      00
 2796              	.LASF2:
 2797 0015 73697A65 		.ascii	"size_t\000"
 2797      5F7400
 2798              	.LASF86:
 2799 001c 7264796D 		.ascii	"rdymsg\000"
 2799      736700
 2800              	.LASF17:
 2801 0023 75696E74 		.ascii	"uint64_t\000"
 2801      36345F74 
 2801      00
 2802              	.LASF3:
 2803 002c 5F5F7569 		.ascii	"__uint8_t\000"
 2803      6E74385F 
 2803      7400
 2804              	.LASF83:
 2805 0036 706F7274 		.ascii	"port_intctx\000"
 2805      5F696E74 
 2805      63747800 
 2806              	.LASF70:
 2807 0042 73797374 		.ascii	"system_debug_t\000"
 2807      656D5F64 
 2807      65627567 
 2807      5F7400
 2808              	.LASF120:
ARM GAS  /tmp/cchn9INy.s 			page 82


 2809 0051 706F7274 		.ascii	"port_lock\000"
 2809      5F6C6F63 
 2809      6B00
 2810              	.LASF104:
 2811 005b 6D656D67 		.ascii	"memgetfunc_t\000"
 2811      65746675 
 2811      6E635F74 
 2811      00
 2812              	.LASF13:
 2813 0068 6C6F6E67 		.ascii	"long long unsigned int\000"
 2813      206C6F6E 
 2813      6720756E 
 2813      7369676E 
 2813      65642069 
 2814              	.LASF87:
 2815 007f 65786974 		.ascii	"exitcode\000"
 2815      636F6465 
 2815      00
 2816              	.LASF108:
 2817 0088 685F6672 		.ascii	"h_free\000"
 2817      656500
 2818              	.LASF90:
 2819 008f 73656E74 		.ascii	"sentmsg\000"
 2819      6D736700 
 2820              	.LASF67:
 2821 0097 76697274 		.ascii	"virtual_timers_list_t\000"
 2821      75616C5F 
 2821      74696D65 
 2821      72735F6C 
 2821      6973745F 
 2822              	.LASF133:
 2823 00ad 49544D5F 		.ascii	"ITM_RxBuffer\000"
 2823      52784275 
 2823      66666572 
 2823      00
 2824              	.LASF128:
 2825 00ba 68656170 		.ascii	"heapp\000"
 2825      7000
 2826              	.LASF110:
 2827 00c0 6E657874 		.ascii	"next\000"
 2827      00
 2828              	.LASF50:
 2829 00c5 63685F74 		.ascii	"ch_threads_queue\000"
 2829      68726561 
 2829      64735F71 
 2829      75657565 
 2829      00
 2830              	.LASF30:
 2831 00d6 705F7072 		.ascii	"p_prio\000"
 2831      696F00
 2832              	.LASF11:
 2833 00dd 6C6F6E67 		.ascii	"long long int\000"
 2833      206C6F6E 
 2833      6720696E 
 2833      7400
 2834              	.LASF1:
 2835 00eb 7369676E 		.ascii	"signed char\000"
ARM GAS  /tmp/cchn9INy.s 			page 83


 2835      65642063 
 2835      68617200 
 2836              	.LASF109:
 2837 00f7 685F6D74 		.ascii	"h_mtx\000"
 2837      7800
 2838              	.LASF44:
 2839 00fd 705F6D70 		.ascii	"p_mpool\000"
 2839      6F6F6C00 
 2840              	.LASF98:
 2841 0105 6D5F7175 		.ascii	"m_queue\000"
 2841      65756500 
 2842              	.LASF76:
 2843 010d 76746C69 		.ascii	"vtlist\000"
 2843      737400
 2844              	.LASF121:
 2845 0114 706F7274 		.ascii	"port_unlock\000"
 2845      5F756E6C 
 2845      6F636B00 
 2846              	.LASF89:
 2847 0120 77747472 		.ascii	"wttrp\000"
 2847      7000
 2848              	.LASF74:
 2849 0126 63685F73 		.ascii	"ch_system\000"
 2849      79737465 
 2849      6D00
 2850              	.LASF8:
 2851 0130 6C6F6E67 		.ascii	"long int\000"
 2851      20696E74 
 2851      00
 2852              	.LASF127:
 2853 0139 63685468 		.ascii	"chThdCreateFromHeap\000"
 2853      64437265 
 2853      61746546 
 2853      726F6D48 
 2853      65617000 
 2854              	.LASF20:
 2855 014d 74737461 		.ascii	"tstate_t\000"
 2855      74655F74 
 2855      00
 2856              	.LASF105:
 2857 0156 6D656D6F 		.ascii	"memory_heap_t\000"
 2857      72795F68 
 2857      6561705F 
 2857      7400
 2858              	.LASF116:
 2859 0164 6D705F6E 		.ascii	"mp_next\000"
 2859      65787400 
 2860              	.LASF32:
 2861 016c 705F6E65 		.ascii	"p_newer\000"
 2861      77657200 
 2862              	.LASF95:
 2863 0174 735F7175 		.ascii	"s_queue\000"
 2863      65756500 
 2864              	.LASF125:
 2865 017c 5F5F6675 		.ascii	"__func__.6401\000"
 2865      6E635F5F 
 2865      2E363430 
ARM GAS  /tmp/cchn9INy.s 			page 84


 2865      3100
 2866              	.LASF131:
 2867 018a 63685468 		.ascii	"chThdCreateFromMemoryPool\000"
 2867      64437265 
 2867      61746546 
 2867      726F6D4D 
 2867      656D6F72 
 2868              	.LASF123:
 2869 01a4 5F5F6675 		.ascii	"__func__.5701\000"
 2869      6E635F5F 
 2869      2E353730 
 2869      3100
 2870              	.LASF56:
 2871 01b2 725F6E65 		.ascii	"r_newer\000"
 2871      77657200 
 2872              	.LASF118:
 2873 01ba 6D705F70 		.ascii	"mp_provider\000"
 2873      726F7669 
 2873      64657200 
 2874              	.LASF80:
 2875 01c6 72656761 		.ascii	"regarm_t\000"
 2875      726D5F74 
 2875      00
 2876              	.LASF63:
 2877 01cf 76745F70 		.ascii	"vt_prev\000"
 2877      72657600 
 2878              	.LASF103:
 2879 01d7 6D757465 		.ascii	"mutex_t\000"
 2879      785F7400 
 2880              	.LASF139:
 2881 01df 76616C75 		.ascii	"value\000"
 2881      6500
 2882              	.LASF112:
 2883 01e5 616C6967 		.ascii	"align\000"
 2883      6E00
 2884              	.LASF78:
 2885 01eb 69646C65 		.ascii	"idle_thread_wa\000"
 2885      5F746872 
 2885      6561645F 
 2885      776100
 2886              	.LASF25:
 2887 01fa 636E745F 		.ascii	"cnt_t\000"
 2887      7400
 2888              	.LASF134:
 2889 0200 474E5520 		.ascii	"GNU C 4.8.4 20140526 (release) [ARM/embedded-4_8-br"
 2889      4320342E 
 2889      382E3420 
 2889      32303134 
 2889      30353236 
 2890 0233 616E6368 		.ascii	"anch revision 211358] -mcpu=cortex-m4 -mno-thumb-in"
 2890      20726576 
 2890      6973696F 
 2890      6E203231 
 2890      31333538 
 2891 0266 74657277 		.ascii	"terwork -mthumb -ggdb -O0 -fomit-frame-pointer -fal"
 2891      6F726B20 
 2891      2D6D7468 
ARM GAS  /tmp/cchn9INy.s 			page 85


 2891      756D6220 
 2891      2D676764 
 2892 0299 69676E2D 		.ascii	"ign-functions=16 -ffunction-sections -fdata-section"
 2892      66756E63 
 2892      74696F6E 
 2892      733D3136 
 2892      202D6666 
 2893 02cc 73202D66 		.ascii	"s -fno-common -flto\000"
 2893      6E6F2D63 
 2893      6F6D6D6F 
 2893      6E202D66 
 2893      6C746F00 
 2894              	.LASF0:
 2895 02e0 756E7369 		.ascii	"unsigned int\000"
 2895      676E6564 
 2895      20696E74 
 2895      00
 2896              	.LASF62:
 2897 02ed 76745F6E 		.ascii	"vt_next\000"
 2897      65787400 
 2898              	.LASF91:
 2899 02f5 77747365 		.ascii	"wtsemp\000"
 2899      6D7000
 2900              	.LASF40:
 2901 02fc 705F6D73 		.ascii	"p_msgqueue\000"
 2901      67717565 
 2901      756500
 2902              	.LASF119:
 2903 0307 6D656D6F 		.ascii	"memory_pool_t\000"
 2903      72795F70 
 2903      6F6F6C5F 
 2903      7400
 2904              	.LASF96:
 2905 0315 735F636E 		.ascii	"s_cnt\000"
 2905      7400
 2906              	.LASF6:
 2907 031b 73686F72 		.ascii	"short unsigned int\000"
 2907      7420756E 
 2907      7369676E 
 2907      65642069 
 2907      6E7400
 2908              	.LASF47:
 2909 032e 63685F74 		.ascii	"ch_thread\000"
 2909      68726561 
 2909      6400
 2910              	.LASF77:
 2911 0338 6D61696E 		.ascii	"mainthread\000"
 2911      74687265 
 2911      616400
 2912              	.LASF23:
 2913 0343 6D73675F 		.ascii	"msg_t\000"
 2913      7400
 2914              	.LASF73:
 2915 0349 63685F73 		.ascii	"ch_system_t\000"
 2915      79737465 
 2915      6D5F7400 
 2916              	.LASF19:
ARM GAS  /tmp/cchn9INy.s 			page 86


 2917 0355 746D6F64 		.ascii	"tmode_t\000"
 2917      655F7400 
 2918              	.LASF52:
 2919 035d 63685F72 		.ascii	"ch_ready_list\000"
 2919      65616479 
 2919      5F6C6973 
 2919      7400
 2920              	.LASF24:
 2921 036b 6576656E 		.ascii	"eventmask_t\000"
 2921      746D6173 
 2921      6B5F7400 
 2922              	.LASF7:
 2923 0377 5F5F696E 		.ascii	"__int32_t\000"
 2923      7433325F 
 2923      7400
 2924              	.LASF126:
 2925 0381 63685468 		.ascii	"chThdAddRef\000"
 2925      64416464 
 2925      52656600 
 2926              	.LASF81:
 2927 038d 73746B61 		.ascii	"stkalign_t\000"
 2927      6C69676E 
 2927      5F7400
 2928              	.LASF39:
 2929 0398 705F7761 		.ascii	"p_waiting\000"
 2929      6974696E 
 2929      6700
 2930              	.LASF79:
 2931 03a2 73697A65 		.ascii	"sizetype\000"
 2931      74797065 
 2931      00
 2932              	.LASF45:
 2933 03ab 74687265 		.ascii	"thread_reference_t\000"
 2933      61645F72 
 2933      65666572 
 2933      656E6365 
 2933      5F7400
 2934              	.LASF68:
 2935 03be 63685F76 		.ascii	"ch_virtual_timers_list\000"
 2935      69727475 
 2935      616C5F74 
 2935      696D6572 
 2935      735F6C69 
 2936              	.LASF132:
 2937 03d5 5F5F6675 		.ascii	"__func__.6423\000"
 2937      6E635F5F 
 2937      2E363432 
 2937      3300
 2938              	.LASF69:
 2939 03e3 76745F6C 		.ascii	"vt_lasttime\000"
 2939      61737474 
 2939      696D6500 
 2940              	.LASF33:
 2941 03ef 705F6F6C 		.ascii	"p_older\000"
 2941      64657200 
 2942              	.LASF55:
 2943 03f7 725F6374 		.ascii	"r_ctx\000"
ARM GAS  /tmp/cchn9INy.s 			page 87


 2943      7800
 2944              	.LASF136:
 2945 03fd 2F6E6673 		.ascii	"/nfs/nfs4/home/irbrown/Courses/P442/P442WifiTrailCo"
 2945      2F6E6673 
 2945      342F686F 
 2945      6D652F69 
 2945      7262726F 
 2946 0430 756E7465 		.ascii	"unterProject/milestone3\000"
 2946      7250726F 
 2946      6A656374 
 2946      2F6D696C 
 2946      6573746F 
 2947              	.LASF117:
 2948 0448 6D705F6F 		.ascii	"mp_object_size\000"
 2948      626A6563 
 2948      745F7369 
 2948      7A6500
 2949              	.LASF85:
 2950 0457 746D5F63 		.ascii	"tm_calibration_t\000"
 2950      616C6962 
 2950      72617469 
 2950      6F6E5F74 
 2950      00
 2951              	.LASF35:
 2952 0468 705F7374 		.ascii	"p_stklimit\000"
 2952      6B6C696D 
 2952      697400
 2953              	.LASF129:
 2954 0473 7072696F 		.ascii	"prio\000"
 2954      00
 2955              	.LASF57:
 2956 0478 725F6F6C 		.ascii	"r_older\000"
 2956      64657200 
 2957              	.LASF12:
 2958 0480 5F5F7569 		.ascii	"__uint64_t\000"
 2958      6E743634 
 2958      5F7400
 2959              	.LASF115:
 2960 048b 70685F6E 		.ascii	"ph_next\000"
 2960      65787400 
 2961              	.LASF21:
 2962 0493 74726566 		.ascii	"trefs_t\000"
 2962      735F7400 
 2963              	.LASF130:
 2964 049b 72656673 		.ascii	"refs\000"
 2964      00
 2965              	.LASF60:
 2966 04a0 76697274 		.ascii	"virtual_timer_t\000"
 2966      75616C5F 
 2966      74696D65 
 2966      725F7400 
 2967              	.LASF29:
 2968 04b0 705F7072 		.ascii	"p_prev\000"
 2968      657600
 2969              	.LASF22:
 2970 04b7 74707269 		.ascii	"tprio_t\000"
 2970      6F5F7400 
ARM GAS  /tmp/cchn9INy.s 			page 88


 2971              	.LASF124:
 2972 04bf 5F5F6675 		.ascii	"__func__.6396\000"
 2972      6E635F5F 
 2972      2E363339 
 2972      3600
 2973              	.LASF71:
 2974 04cd 63685F73 		.ascii	"ch_system_debug\000"
 2974      79737465 
 2974      6D5F6465 
 2974      62756700 
 2975              	.LASF15:
 2976 04dd 696E7433 		.ascii	"int32_t\000"
 2976      325F7400 
 2977              	.LASF4:
 2978 04e5 756E7369 		.ascii	"unsigned char\000"
 2978      676E6564 
 2978      20636861 
 2978      7200
 2979              	.LASF137:
 2980 04f3 68656170 		.ascii	"heap_header\000"
 2980      5F686561 
 2980      64657200 
 2981              	.LASF42:
 2982 04ff 705F6D74 		.ascii	"p_mtxlist\000"
 2982      786C6973 
 2982      7400
 2983              	.LASF5:
 2984 0509 73686F72 		.ascii	"short int\000"
 2984      7420696E 
 2984      7400
 2985              	.LASF36:
 2986 0513 705F7374 		.ascii	"p_state\000"
 2986      61746500 
 2987              	.LASF54:
 2988 051b 725F7072 		.ascii	"r_prio\000"
 2988      696F00
 2989              	.LASF93:
 2990 0522 65776D61 		.ascii	"ewmask\000"
 2990      736B00
 2991              	.LASF28:
 2992 0529 705F6E65 		.ascii	"p_next\000"
 2992      787400
 2993              	.LASF37:
 2994 0530 705F666C 		.ascii	"p_flags\000"
 2994      61677300 
 2995              	.LASF140:
 2996 0538 63685379 		.ascii	"chSysLock\000"
 2996      734C6F63 
 2996      6B00
 2997              	.LASF141:
 2998 0542 63685468 		.ascii	"chThdRelease\000"
 2998      6452656C 
 2998      65617365 
 2998      00
 2999              	.LASF61:
 3000 054f 63685F76 		.ascii	"ch_virtual_timer\000"
 3000      69727475 
ARM GAS  /tmp/cchn9INy.s 			page 89


 3000      616C5F74 
 3000      696D6572 
 3000      00
 3001              	.LASF94:
 3002 0560 63685F73 		.ascii	"ch_semaphore\000"
 3002      656D6170 
 3002      686F7265 
 3002      00
 3003              	.LASF41:
 3004 056d 705F6570 		.ascii	"p_epending\000"
 3004      656E6469 
 3004      6E6700
 3005              	.LASF16:
 3006 0578 75696E74 		.ascii	"uint32_t\000"
 3006      33325F74 
 3006      00
 3007              	.LASF92:
 3008 0581 77746D74 		.ascii	"wtmtxp\000"
 3008      787000
 3009              	.LASF53:
 3010 0588 725F7175 		.ascii	"r_queue\000"
 3010      65756500 
 3011              	.LASF64:
 3012 0590 76745F64 		.ascii	"vt_delta\000"
 3012      656C7461 
 3012      00
 3013              	.LASF48:
 3014 0599 63685F74 		.ascii	"ch_threads_list\000"
 3014      68726561 
 3014      64735F6C 
 3014      69737400 
 3015              	.LASF111:
 3016 05a9 68656170 		.ascii	"heap\000"
 3016      00
 3017              	.LASF10:
 3018 05ae 6C6F6E67 		.ascii	"long unsigned int\000"
 3018      20756E73 
 3018      69676E65 
 3018      6420696E 
 3018      7400
 3019              	.LASF58:
 3020 05c0 725F6375 		.ascii	"r_current\000"
 3020      7272656E 
 3020      7400
 3021              	.LASF101:
 3022 05ca 63686172 		.ascii	"char\000"
 3022      00
 3023              	.LASF135:
 3024 05cf 2E2E2F43 		.ascii	"../ChibiOS/os/rt/src/chdynamic.c\000"
 3024      68696269 
 3024      4F532F6F 
 3024      732F7274 
 3024      2F737263 
 3025              	.LASF27:
 3026 05f0 74687265 		.ascii	"thread_t\000"
 3026      61645F74 
 3026      00
ARM GAS  /tmp/cchn9INy.s 			page 90


 3027              	.LASF100:
 3028 05f9 6D5F6E65 		.ascii	"m_next\000"
 3028      787400
 3029              	.LASF26:
 3030 0600 73797374 		.ascii	"systime_t\000"
 3030      696D655F 
 3030      7400
 3031              	.LASF43:
 3032 060a 705F7265 		.ascii	"p_realprio\000"
 3032      616C7072 
 3032      696F00
 3033              	.LASF59:
 3034 0615 76746675 		.ascii	"vtfunc_t\000"
 3034      6E635F74 
 3034      00
 3035              	.LASF9:
 3036 061e 5F5F7569 		.ascii	"__uint32_t\000"
 3036      6E743332 
 3036      5F7400
 3037              	.LASF138:
 3038 0629 5F5F7365 		.ascii	"__set_BASEPRI\000"
 3038      745F4241 
 3038      53455052 
 3038      4900
 3039              	.LASF72:
 3040 0637 70616E69 		.ascii	"panic_msg\000"
 3040      635F6D73 
 3040      6700
 3041              	.LASF84:
 3042 0641 6F666673 		.ascii	"offset\000"
 3042      657400
 3043              	.LASF97:
 3044 0648 63685F6D 		.ascii	"ch_mutex\000"
 3044      75746578 
 3044      00
 3045              	.LASF82:
 3046 0651 636F6E74 		.ascii	"context\000"
 3046      65787400 
 3047              	.LASF18:
 3048 0659 7274636E 		.ascii	"rtcnt_t\000"
 3048      745F7400 
 3049              	.LASF66:
 3050 0661 76745F70 		.ascii	"vt_par\000"
 3050      617200
 3051              	.LASF49:
 3052 0668 74687265 		.ascii	"threads_queue_t\000"
 3052      6164735F 
 3052      71756575 
 3052      655F7400 
 3053              	.LASF114:
 3054 0678 706F6F6C 		.ascii	"pool_header\000"
 3054      5F686561 
 3054      64657200 
 3055              	.LASF38:
 3056 0684 705F7265 		.ascii	"p_refs\000"
 3056      667300
 3057              	.LASF75:
ARM GAS  /tmp/cchn9INy.s 			page 91


 3058 068b 726C6973 		.ascii	"rlist\000"
 3058      7400
 3059              	.LASF14:
 3060 0691 75696E74 		.ascii	"uint8_t\000"
 3060      385F7400 
 3061              	.LASF107:
 3062 0699 685F7072 		.ascii	"h_provider\000"
 3062      6F766964 
 3062      657200
 3063              	.LASF88:
 3064 06a4 77746F62 		.ascii	"wtobjp\000"
 3064      6A7000
 3065              	.LASF34:
 3066 06ab 705F6E61 		.ascii	"p_name\000"
 3066      6D6500
 3067              	.LASF113:
 3068 06b2 73697A65 		.ascii	"size\000"
 3068      00
 3069              	.LASF46:
 3070 06b7 74687265 		.ascii	"threads_list_t\000"
 3070      6164735F 
 3070      6C697374 
 3070      5F7400
 3071              	.LASF122:
 3072 06c6 63685379 		.ascii	"chSysUnlock\000"
 3072      73556E6C 
 3072      6F636B00 
 3073              	.LASF99:
 3074 06d2 6D5F6F77 		.ascii	"m_owner\000"
 3074      6E657200 
 3075              	.LASF31:
 3076 06da 705F6374 		.ascii	"p_ctx\000"
 3076      7800
 3077              	.LASF65:
 3078 06e0 76745F66 		.ascii	"vt_func\000"
 3078      756E6300 
 3079              	.LASF106:
 3080 06e8 6D656D6F 		.ascii	"memory_heap\000"
 3080      72795F68 
 3080      65617000 
 3081              		.comm	__gnu_lto_v1,1,1
 3082              		.ident	"GCC: (GNU Tools for ARM Embedded Processors) 4.8.4 20140526 (release) [ARM/embedded-4_8-br
ARM GAS  /tmp/cchn9INy.s 			page 92


DEFINED SYMBOLS
                            *ABS*:00000000 chdynamic.c
     /tmp/cchn9INy.s:524    .text.port_lock:00000000 $t
     /tmp/cchn9INy.s:529    .text.port_lock:00000000 port_lock
     /tmp/cchn9INy.s:560    .text.port_unlock:00000000 $t
     /tmp/cchn9INy.s:565    .text.port_unlock:00000000 port_unlock
     /tmp/cchn9INy.s:594    .text.chSysLock:00000000 $t
     /tmp/cchn9INy.s:599    .text.chSysLock:00000000 chSysLock
     /tmp/cchn9INy.s:618    .text.chSysUnlock:00000000 $t
     /tmp/cchn9INy.s:623    .text.chSysUnlock:00000000 chSysUnlock
     /tmp/cchn9INy.s:641    .text.chThdAddRef:00000000 $t
     /tmp/cchn9INy.s:647    .text.chThdAddRef:00000000 chThdAddRef
     /tmp/cchn9INy.s:682    .text.chThdRelease:00000000 $t
     /tmp/cchn9INy.s:688    .text.chThdRelease:00000000 chThdRelease
     /tmp/cchn9INy.s:780    .text.chThdCreateFromHeap:00000000 $t
     /tmp/cchn9INy.s:786    .text.chThdCreateFromHeap:00000000 chThdCreateFromHeap
     /tmp/cchn9INy.s:847    .text.chThdCreateFromMemoryPool:00000000 $t
     /tmp/cchn9INy.s:853    .text.chThdCreateFromMemoryPool:00000000 chThdCreateFromMemoryPool
                            *COM*:00000001 __gnu_lto_v1
                     .debug_frame:00000010 $d

UNDEFINED SYMBOLS
chHeapFree
chPoolFree
chHeapAlloc
chThdCreateI
chSchWakeupS
chPoolAlloc
