ARM GAS  /tmp/ccCJBSpW.s 			page 1


   1              		.syntax unified
   2              		.cpu cortex-m4
   3              		.fpu softvfp
   4              		.eabi_attribute 20, 1
   5              		.eabi_attribute 21, 1
   6              		.eabi_attribute 23, 3
   7              		.eabi_attribute 24, 1
   8              		.eabi_attribute 25, 1
   9              		.eabi_attribute 26, 1
  10              		.eabi_attribute 30, 6
  11              		.eabi_attribute 34, 1
  12              		.eabi_attribute 18, 4
  13              		.thumb
  14              		.file	"chevents.c"
  15              		.text
  16              	.Ltext0:
  17              		.section	.gnu.lto_.inline.bcf7a26b897fba71,"",%progbits
  18 0000 789C8D90 		.ascii	"x\234\215\220\275\016\202@\020\204\307\343\024EP\020"
  18      BD0E8240 
  18      1084C7E3 
  18      14455010 
  19 0010 308A7F09 		.ascii	"0\212\177\011\205\215\177o\340k\331\372\000\276\200"
  19      858D7F6F 
  19      E06BD9FA 
  19      00BE80
  20 001f 8905BD0D 		.ascii	"\211\005\275\015\245\211\015\2151v\326Vv&V\326V.\240"
  20      A5890D8D 
  20      3176D656 
  20      762656D6 
  20      562EA0
  21 0032 24C861BC 		.ascii	"$\310a\274b\262\373\315\024;\307\300 z\2137\266\001"
  21      62B2FBCD 
  21      143BC7C0 
  21      207A8B37 
  21      B601
  22 0044 2E018C3F 		.ascii	".\001\214?\246\340q\266\220!\014\\%e\336 \311($\222"
  22      A6E071B6 
  22      90210C5C 
  22      2565DE20 
  22      C9282492 
  23 0058 1873687D 		.ascii	"\030sh}\302\015oSH\361HJ\250\015\310\264\036[\201)\377"
  23      C20D6F53 
  23      48F1484A 
  23      A80DC8B4 
  23      1E5B8129 
  24 006d 32CB507B 		.ascii	"2\313P{d\352\347\225\300\254@n\221Y\012\346YO\201\343"
  24      64EAE795 
  24      C0AC406E 
  24      91590AE6 
  24      594F81E3 
  25 0081 9237F66F 		.ascii	"\2227\366o,)T%\251\242\031\336\351z\353\204K\324\007"
  25      2C295425 
  25      A9A219DE 
  25      E97AEB84 
  25      4BD407
  26 0094 2A2A6341 		.ascii	"**cA\255\270\262\372\231\264\277R5\024y\372\256:\254"
  26      ADB8B2FA 
ARM GAS  /tmp/ccCJBSpW.s 			page 2


  26      99B4BF52 
  26      351479FA 
  26      AE3AAC
  27 00a7 B063D7BF 		.ascii	"\260c\327\277'5\270N\242\303\236\021\357/\237\351z\321"
  27      2735B84E 
  27      A2C39E11 
  27      EF2F9FE9 
  27      7AD1
  28 00b9 A9D164C0 		.ascii	"\251\321d\300\234\320\356\\/y\211\006\214\021\355\315"
  28      9CD0EE5C 
  28      2F798906 
  28      8C11EDCD 
  29 00c9 609F9730 		.ascii	"`\237\2270\321;\205`\030\354X\366n\256\245V\013\235"
  29      D13B8560 
  29      18EC58F6 
  29      6EAEA556 
  29      0B9D
  30 00db 23BE7E28 		.ascii	"#\276~(7l\243}\200\250\200(\214\027S\274%\243"
  30      376CA37D 
  30      80A88028 
  30      8C1753BC 
  30      25A3
  31              		.text
  32              		.section	.gnu.lto_port_lock.bcf7a26b897fba71,"",%progbits
  33 0000 789C6362 		.ascii	"x\234cb`b@\007\"@,\310\310\300P\007\342030\002U021\002"
  33      60624007 
  33      22402CC8 
  33      C8C05007 
  33      E2303330 
  34 001a 05181819 		.ascii	"\005\030\030\031\352\231\030\353#AL\006F%\206\205\015"
  34      EA9918EB 
  34      23414C06 
  34      46258685 
  34      0D
  35 002b 0D931EB4 		.ascii	"\015\223\036\264>{\3144\263\341@\313\202\206?\377\377"
  35      3E7BCC34 
  35      B3E140CB 
  35      82863FFF 
  35      FF
  36 003c 33326632 		.ascii	"32f2\002M\324cdHfd\210\000r\030\025\300\024\023\013"
  36      024DD463 
  36      64486664 
  36      88007218 
  36      15C01413 
  37 0051 AA15EB99 		.ascii	"\252\025\353\231\016<\370\377\377D\347\363\275@\223"
  37      0E3CF8FF 
  37      FF44E7F3 
  37      BD4093
  38 0060 19121917 		.ascii	"\031\022\031\027\002M\003\002V\206\226\206\206\011\012"
  38      024D0302 
  38      56869686 
  38      86090A
  39 006f 0C20DD40 		.ascii	"\014 \335@\020\002&CA\016`>\313\320\264\003H\24732\202"
  39      10022643 
  39      410E603E 
  39      CBD0B403 
  39      48A73332 
ARM GAS  /tmp/ccCJBSpW.s 			page 3


  40 0084 CC6300AA 		.ascii	"\314c\000\252a8\307\320\364\361\315\214\307\022p]`F"
  40      6138C7D0 
  40      F4F1CD8C 
  40      C712705D 
  40      6046
  41 0096 C381EE2B 		.ascii	"\303\201\356+\355\2540#\023\031\0273\262\002\215\203"
  41      EDAC3023 
  41      13191733 
  41      B2028D83 
  42 00a6 38190893 		.ascii	"8\031\010\223\231A>f\206x[\216\241dn\303\014\207LFf"
  42      99413E66 
  42      86785B8E 
  42      A1646EC3 
  42      0C874C46 
  43 00bb 102F1DAC 		.ascii	"\020/\035\254\012.U\016\221\202\272\374\"C\343\203\235"
  43      0A2E550E 
  43      9182BAFC 
  43      2243E383 
  43      9D
  44 00cc FA10E360 		.ascii	"\372\020\343` \004\244\001\244Z[OO\3379#3)\323?X?\277"
  44      2004A401 
  44      A45A5B4F 
  44      4FDF3923 
  44      3329D33F 
  45 00e3 58BFA844 		.ascii	"X\277\250D\277 \277\250\244X\3371\310\327\331\267B?"
  45      BF20BFA8 
  45      A458DF31 
  45      C8D7D9B7 
  45      423F
  46 00f5 392339BF 		.ascii	"9#9\277(5\276\314<W/\203\201\265,1\2474U\017UGjE\211"
  46      2835BECC 
  46      3C572F83 
  46      81B52C31 
  46      A734550F 
  47 010e BEB36FB0 		.ascii	"\276\263o\260g\260~f^rNiJ\252>XGr\256[i^2P\223\200o"
  47      67B07E66 
  47      5E724E69 
  47      4AAA3E58 
  47      4772AE5B 
  48 0129 70904252 		.ascii	"p\220BRbqjAQ\246\216\202\252\001\003S\021\003{njn~Q"
  48      62716A41 
  48      51A68E82 
  48      AA010353 
  48      11037B6E 
  49 0141 2503005A 		.ascii	"%\003\000Z\240au"
  49      A06175
  50              		.text
  51              		.section	.gnu.lto_port_unlock.bcf7a26b897fba71,"",%progbits
  52 0000 789C6362 		.ascii	"x\234cb`b@\007\"@,\310\310\300P\007\342030\002U021\002"
  52      60624007 
  52      22402CC8 
  52      C8C05007 
  52      E2303330 
  53 001a 05181819 		.ascii	"\005\030\030\031\352\231\030\353#AL\006F%\206\205\015"
  53      EA9918EB 
  53      23414C06 
  53      46258685 
ARM GAS  /tmp/ccCJBSpW.s 			page 4


  53      0D
  54 002b 0D931EB4 		.ascii	"\015\223\036\264~z\3144\263\341@\313\202\206?\377\377"
  54      7E7ACC34 
  54      B3E140CB 
  54      82863FFF 
  54      FF
  55 003c 33326632 		.ascii	"32f2\002M\324cdHfd\210\000r\030\025\300\024\023\013"
  55      024DD463 
  55      64486664 
  55      88007218 
  55      15C01413 
  56 0051 AA15EB99 		.ascii	"\252\025\353\231\016<\370\377\377E\347\376}@\223\031"
  56      0E3CF8FF 
  56      FF45E7FE 
  56      7D409319 
  57 0061 12191702 		.ascii	"\022\031\027\002M\003\002V\206\226\206\206\011\012\014"
  57      4D030256 
  57      86968686 
  57      090A0C
  58 0070 20DD4010 		.ascii	" \335@\020\002&CA\016`>\313\320\264\003H\24732\202\314"
  58      02264341 
  58      0E603ECB 
  58      D0B40348 
  58      A7333282 
  59 0085 031B728E 		.ascii	"\003\033r\216\241\351\343\233\031\217%\340\272\300\214"
  59      A1E9E39B 
  59      198F25E0 
  59      BAC08C
  60 0094 8603A79F 		.ascii	"\206\003\247\237\266\263\302\214Ld\\\314\310\0124\016"
  60      B6B3C28C 
  60      4C645CCC 
  60      C80A340E 
  61 00a4 E264204C 		.ascii	"\342d Lf\006\371\230\031\342m9\206\222\271\0153\034"
  61      6606F998 
  61      19E26D39 
  61      8692B90D 
  61      331C
  62 00b6 32199941 		.ascii	"2\031\231A\274t\260*\270T9D\012\352\362\213\014\215"
  62      BC74B02A 
  62      B8543944 
  62      0AEAF28B 
  62      0C8D
  63 00c8 0FCEEB43 		.ascii	"\017\316\353C\214\203\201\020\220\006\220jm==}\347\214"
  63      8C838110 
  63      9006906A 
  63      6D3D3D7D 
  63      E78C
  64 00da CCA44CFF 		.ascii	"\314\244L\377`\375\374b\375\242\022\375\202\374\242"
  64      60FDFC62 
  64      FDA212FD 
  64      82FCA2
  65 00e9 92627DC7 		.ascii	"\222b}\307 _g\337\012\375\344\214\344\374\242\324\370"
  65      205F67DF 
  65      0AFDE48C 
  65      E4FCA2D4 
  65      F8
  66 00fa 32F35CBD 		.ascii	"2\363\\\275\014\006\326\262\304\234\322T=T\035\251\025"
ARM GAS  /tmp/ccCJBSpW.s 			page 5


  66      0C06D6B2 
  66      C49CD254 
  66      3D541DA9 
  66      15
  67 010b 25FACEBE 		.ascii	"%\372\316\276\301\236\301\372\231y\3119\245)\251\372"
  67      C19EC1FA 
  67      9979C939 
  67      A529A9FA 
  68 011b 601DC9B9 		.ascii	"`\035\311\271n\245y\311@M\002\276\301A\012I\211\305"
  68      6EA579C9 
  68      404D02BE 
  68      C1410A49 
  68      89C5
  69 012d A9054599 		.ascii	"\251\005E\231:\012\252\006\014LE\014\354\271\251\271"
  69      3A0AAA06 
  69      0C4C450C 
  69      ECB9A9B9 
  70 013d F945950C 		.ascii	"\371E\225\014\000\233\025a\301"
  70      009B1561 
  70      C1
  71              		.text
  72              		.section	.gnu.lto_chSysLock.bcf7a26b897fba71,"",%progbits
  73 0000 789C6362 		.ascii	"x\234cb`b@\007\"@\\\006\304\312 \0163\003#P\005#\023"
  73      60624007 
  73      22405C06 
  73      C4CA200E 
  73      33032350 
  74 0017 232390C3 		.ascii	"##\220\303\310P\317\304X\037\311\010V\266\236\351\300"
  74      C850CFC4 
  74      581FC908 
  74      56B69EE9 
  74      C0
  75 0028 83FFFFD7 		.ascii	"\203\377\377\327}\231\266\354\017\343m&\220\030+CKC"
  75      7D99B6EC 
  75      0FE36D26 
  75      90182B43 
  75      4B43
  76 003a C3040506 		.ascii	"\303\004\005\006\206d\260\212\0200\031\012\322\317|"
  76      8664B08A 
  76      1030190A 
  76      D2CF7C
  77 0049 9EA1F9C1 		.ascii	"\236\241\371\301\236n\366D\306\205\214\254@\301j\206"
  77      9E6EF644 
  77      C6858CAC 
  77      40C16A86 
  78 0059 5F0D1D0D 		.ascii	"_\015\035\015\002\231\214@\245\020\3232A\364E\206\306"
  78      02998C40 
  78      A510D332 
  78      41F44586 
  78      C6
  79 006a 07FBB561 		.ascii	"\007\373\265a\212  \004$\001r\244\242\236\236\276sF"
  79      8A202004 
  79      240172A4 
  79      A29E9EBE 
  79      7346
  80 007c 6652A67F 		.ascii	"fR\246\177\260~~\261~Q\211~f^rNiJ\252~rFqe\261^\006"
  80      B07E7EB1 
ARM GAS  /tmp/ccCJBSpW.s 			page 6


  80      7E51897E 
  80      665E724E 
  80      694AAA7E 
  81 0097 0300A9F5 		.ascii	"\003\000\251\365'\020"
  81      2710
  82              		.text
  83              		.section	.gnu.lto_chSysUnlock.bcf7a26b897fba71,"",%progbits
  84 0000 789C6362 		.ascii	"x\234cb`b@\007\322@\334\301\310\300\240\014\342\260"
  84      60624007 
  84      D240DCC1 
  84      C8C0A00C 
  84      E2B0
  85 0012 30300255 		.ascii	"00\002U0212\003IfF\2400\003#C=\0233c}$\210\315\300\246"
  85      30323132 
  85      03496646 
  85      A0300323 
  85      433D1333 
  86 002d C4B0B0A1 		.ascii	"\304\260\260\241a\322\203\247\337gIv-h\232\320\360\357"
  86      61D283A7 
  86      DF674976 
  86      2D689AD0 
  86      F0EF
  87 003f FF7FC64C 		.ascii	"\377\177\306L\220T2#C\004\220\305\250\000\246\230XP"
  87      90543223 
  87      430490C5 
  87      A800A698 
  87      5850
  88 0051 2D81686B 		.ascii	"-\201hk\330\264\242\201sA\303\237\377\377\231\311\323"
  88      D8B4A281 
  88      7341C39F 
  88      FFFF99C9 
  88      D3
  89 0062 C33C58EC 		.ascii	"\303<X\354\311edX\317t\340\301\377\377ov\356|\364\206"
  89      C9656458 
  89      CF74E0C1 
  89      FFFF6F76 
  89      EE7CF486 
  90 0076 5114640B 		.ascii	"Q\024d\013+CKC\303\004\205\\\250\215@\020\002%\201A"
  90      2B434B43 
  90      C304855C 
  90      A88D4010 
  90      02258141 
  91 008a CA1C0A32 		.ascii	"\312\034\0122\224\371<C\363\203\327\247\331\023\031"
  91      94F93C43 
  91      F383D7A7 
  91      D91319
  92 0099 9731B202 		.ascii	"\2271\262\002\245\252\031~5t4\010d2\262$\203\303\232"
  92      A5AA197E 
  92      35743408 
  92      6432B224 
  92      83C39A
  93 00ac 81211324 		.ascii	"\201!\023$~\221\241\361\301\033m\230\"\010\010\001)"
  93      7E91A1F1 
  93      C11B6D98 
  93      22080801 
  93      29
  94 00bd 00C59EA2 		.ascii	"\000\305\236\242\236\236\276sFfR\246\177\260~~\261~"
ARM GAS  /tmp/ccCJBSpW.s 			page 7


  94      9E9EBE73 
  94      466652A6 
  94      7FB07E7E 
  94      B17E
  95 00cf 51897E66 		.ascii	"Q\211~f^rNiJ\252~rFqe\261^\006\003\000\341Gc\351"
  95      5E724E69 
  95      4AAA7E72 
  95      467165B1 
  95      5E060300 
  96              		.text
  97              		.section	.gnu.lto_chEvtRegisterMaskWithFlags.bcf7a26b897fba71,"",%progbits
  98 0000 789C8D92 		.ascii	"x\234\215\2221K\303@\024\307\337\273K\032\265Vt,.\245"
  98      314BC340 
  98      14C7DFBB 
  98      4B1AB556 
  98      742C2EA5 
  99 0014 6E169A0F 		.ascii	"n\026\232\017\341\007p\260B\035m(i\206*\264\305\305"
  99      E10770B0 
  99      421D6D28 
  99      69862AB4 
  99      C5C5
 100 0026 A1D75650 		.ascii	"\241\327VP\234\212\010V]*n\"\270\026\\\012.J\021\021"
 100      9C8A0856 
 100      5D2A6E22 
 100      B8165C0A 
 100      2E4A1111 
 101 003a 17719080 		.ascii	"\027q\220\2008Z\334,U\254\357\222\264\242\304\342A\356"
 101      385ADC2C 
 101      55ACEF92 
 101      B4A2C4E2 
 101      41EE
 102 004c 5EEEDEEF 		.ascii	"^\356\336\357\275\377?9\006\014~\217iz\302\034 *_\024"
 102      BDFF3F39 
 102      060C7E8F 
 102      697AC21C 
 102      202A5F14 
 103 0060 40CA4086 		.ascii	"@\312@\206\264\201\034\221\266\020\212\214cqI\306\300"
 103      B4811C91 
 103      B6108A8C 
 103      637149C6 
 103      C0
 104 0071 A37024C4 		.ascii	"\243p$\304\216\375\374v\311\367w\233\033u\361\321\353"
 104      8EFDFC76 
 104      C9F7779B 
 104      1B75F1D1 
 104      EB
 105 0082 215AF2D0 		.ascii	"!Z\362\320@HR\204\021ga\312\3176.\330\274\333\334\013"
 105      40485284 
 105      116761CA 
 105      CF362ED8 
 105      BCDBDC0B 
 106 0096 6FD7CB55 		.ascii	"o\327\313U\361I\234%\333\014\307\262\010g\254i\367z"
 106      F1499C25 
 106      DB0CC7B2 
 106      0867AC69 
 106      F77A
 107 00a8 A7E78DA7 		.ascii	"\247\347\215\2476Ni\210Y$\215\324\221SD\351TD\245\210"
ARM GAS  /tmp/ccCJBSpW.s 			page 8


 107      364E6988 
 107      59248DD4 
 107      915344E9 
 107      5444A588 
 108 00bc 076892B0 		.ascii	"\007h\222\260\012\033BT#YO\022\215\2047\2233\276([\362"
 108      0A1B4254 
 108      23594F12 
 108      8D843793 
 108      33BE285B 
 109 00d1 1BA8D88F 		.ascii	"\033\250\330\217\025m\031\217Q\245\243u\350\212-1i\241"
 109      156D198F 
 109      51A5A375 
 109      E88A2D31 
 109      69A1
 110 00e3 62389681 		.ascii	"b8\226\201\212\322\3765\224\037:d\324M3\221\305`\226"
 110      8AD2FE35 
 110      941F3A64 
 110      D44D3391 
 110      C56096
 111 00f6 FA1EC201 		.ascii	"\372\036\302\001\011\015\230\210R\260\346\344\247\260"
 111      090D9888 
 111      52B0E6E4 
 111      A7B0
 112 0104 2F98A0AB 		.ascii	"/\230\240\253j\320Ebp\"h\204\006\320\210\211<\351~-"
 112      6AD04562 
 112      70226884 
 112      06D08889 
 112      3CE97E2D 
 113 0118 07720353 		.ascii	"\007r\003S*#\256U\353\332\354\017\322\277\235)\335H"
 113      2A23AE55 
 113      EBDAEC0F 
 113      D2BF9D29 
 113      DD48
 114 012a 998DEE2B 		.ascii	"\231\215\356+\353\313T\034\231\334\231G\211.\011iml"
 114      EBCB541C 
 114      99DC9947 
 114      892E0969 
 114      6D6C
 115 013c 60329875 		.ascii	"`2\230uL\313jA\257\032\363V>\324\004\3677\241xR\024"
 115      4CCB6A41 
 115      AF1AF356 
 115      3ED404F7 
 115      37A17852 
 116 0151 D7C4BD8F 		.ascii	"\327\304\275\217\211q\177R\365H\367[7:>d\310\237\014"
 116      89717F52 
 116      F548F75B 
 116      373A3E64 
 116      C89F0C
 117 0164 38ABDC99 		.ascii	"8\253\334\231\360\364\266j\357\377\2465\257/U\2217\341"
 117      F0F4B66A 
 117      EFFFA635 
 117      AF2F5591 
 117      37E1
 118 0176 E5C2F726 		.ascii	"\345\302\367&\260\357\233p\013%\273=\323OrGB\376=\231"
 118      B0EF9B70 
 118      0B25BB3D 
 118      D34F7247 
ARM GAS  /tmp/ccCJBSpW.s 			page 9


 118      42FE3D99 
 119 018a 1389C7F5 		.ascii	"\023\211\307\365\271\214\225\262\346\027\364\325\274"
 119      B98C95B2 
 119      E617F4D5 
 119      BC
 120 0197 9E2BE8F9 		.ascii	"\236+\350\371\234\241\033\231\364Zz\245\220\217\033"
 120      9CA11B99 
 120      F45A7AA5 
 120      908F1B
 121 01a6 F005A497 		.ascii	"\360\005\244\227\263\010"
 121      B308
 122              		.text
 123              		.section	.gnu.lto_chEvtUnregister.bcf7a26b897fba71,"",%progbits
 124 0000 789C9D53 		.ascii	"x\234\235S\277k\024Q\020\236\357\275\375\025+\013\233"
 124      BF6B1451 
 124      109EEFBD 
 124      FD152B0B 
 124      9B
 125 0011 80C59168 		.ascii	"\200\305\221h\241\201[\202XX\333\331\2440\007g\231,"
 125      A1815B82 
 125      5858DBD9 
 125      A4300767 
 125      992C
 126 0023 6173C5A9 		.ascii	"as\305\251\344\202\215E\336\305\023$$\020D\014Q\002"
 126      E4828D45 
 126      DEC51324 
 126      2410440C 
 126      5102
 127 0035 1162944B 		.ascii	"\021b\224K\2216\205\340\025\011\350\211\350!\001#)\256"
 127      913685E0 
 127      1509E889 
 127      E8210123 
 127      29AE
 128 0047 B3F10F88 		.ascii	"\263\361\017\210\"\2363\373v/!\004.d`g\337\2337\337"
 128      229E33FB 
 128      762F2104 
 128      2E646067 
 128      DF9B37DF 
 129 005b 37F3E6DB 		.ascii	"7\363\346\333U\244\350\270\335\342\247\250\211.\311"
 129      55A4E8B8 
 129      DDE2A7A8 
 129      892EC9
 130 006a A68FC019 		.ascii	"\246\217\300\031P\340\0004|\366\216r\211\214\362\330"
 130      50E00034 
 130      7CF68E72 
 130      898CF2D8 
 131 007a 392E028E 		.ascii	"9.\002\216xI\334W\216\304\003\211\007\000\203A3J;\256"
 131      7849DC57 
 131      8EC40389 
 131      07008341 
 131      334A3BAE 
 132 008e E70798B9 		.ascii	"\347\007\230\271#\001r\007\350\2251O\333\257\353-,?"
 132      23017207 
 132      E895314F 
 132      DBAFEB2D 
 132      2C3F
 133 00a0 6BD456CD 		.ascii	"k\324V\315\337N\007(\311a\004*\362\012\271\344%dG\315"
ARM GAS  /tmp/ccCJBSpW.s 			page 10


 133      DF4E0728 
 133      C961042A 
 133      F20AB9E4 
 133      256447CD 
 134 00b4 021BBBCD 		.ascii	"\002\033\273\315\245\376\271\325\331E\363\217q\247\207"
 134      A5FEB9D5 
 134      D945F38F 
 134      71A787
 135 00c3 BD6F2E9C 		.ascii	"\275o.\234\005\266\322|\336o\216\300\024\015\242\007"
 135      05B6D27C 
 135      DE6F8EC0 
 135      140DA207 
 136 00d3 B20CDA54 		.ascii	"\262\014\332T\215v\247\263\337z;?\217\015\325\007\032"
 136      8D76A7B3 
 136      DF7A3B3F 
 136      8F0DD507 
 136      1A
 137 00e4 C31A0648 		.ascii	"\303\032\006H\241\014\036\243\3358\304t\2568\217\303"
 137      A10C1EA3 
 137      DD38C474 
 137      AE388FC3 
 138 00f4 CA975590 		.ascii	"\312\227U\220\236\311\234\250f\314b\316\356\313i\277"
 138      9EC99CA8 
 138      66CC62CE 
 138      EECB69BF 
 139 0104 6CA3A967 		.ascii	"l\243\251gMtA4\321\237i\366\323\301\372\2251\254\303"
 139      4D744134 
 139      D19F69F6 
 139      D3C1FA95 
 139      31ACC3
 140 0117 A5183A96 		.ascii	"\245\030:\226\263/\364\250\275\362\330\267A\242\207"
 140      B32FF4A8 
 140      BDF2D8B7 
 140      41A287
 141 0126 F4C73C31 		.ascii	"\364\307<1\347K\320Q\242\013q\265\264\355\202,\204\344"
 141      E74BD051 
 141      A20B71B5 
 141      B4ED822C 
 141      84E4
 142 0138 C7164B92 		.ascii	"\307\026K\222\261\270Ct\225\033zI/\370\206n\014\024"
 142      B1B84374 
 142      951B7A49 
 142      2FF8866E 
 142      0C14
 143 014a EDD0D8C6 		.ascii	"\355\320\330\306\221\335\364\003m\377\254\016w!1\274"
 143      91DDF403 
 143      6DFFAC0E 
 143      772131BC 
 144 015a C32914A4 		.ascii	"\303)\024\244nB\373\275\376[e9\3761Z\357$Z\006}\374"
 144      6E42FBBD 
 144      FE5B6539 
 144      FE315AEF 
 144      245A067D 
 145 016f 7ACE4286 		.ascii	"z\316B\206\250n\330\206{\364\022\313\367g\313z\331m"
 145      A86ED886 
 145      7BF412CB 
 145      F767CB7A 
ARM GAS  /tmp/ccCJBSpW.s 			page 11


 145      D96D
 146 0181 366E6455 		.ascii	"6ndU\203\224\345z\317\033Y\012?\2458x\263\327\035\210"
 146      8394E57A 
 146      CF1B590A 
 146      3FA53878 
 146      B3D71D88 
 147 0195 73BA81D4 		.ascii	"s\272\201\324~U\257u!\211\022\326\366\010,\215~\367"
 147      7E55AF75 
 147      218912D6 
 147      F6082C8D 
 147      7EF7
 148 01a7 ED02B7E3 		.ascii	"\355\002\267\343\355\357^\224:\374\243h\021js\347D\241"
 148      EDEF5E94 
 148      3AFCA368 
 148      116A73E7 
 148      44A1
 149 01b9 D4A1502D 		.ascii	"\324\241P-\252\266\267.gI\326FEI\311\311\345\363\341"
 149      AAB6B72E 
 149      6749D646 
 149      4549C9C9 
 149      E5F3E1
 150 01cc CDC9D278 		.ascii	"\315\311\322xi\344vx\257\022NM\207\225\251(\214&'\036"
 150      69E47678 
 150      AF124E4D 
 150      8795A928 
 150      8C26271E 
 151 01e0 4CDC9DAE 		.ascii	"L\334\235\256\344#\302\375\377,\300\274\275"
 151      E423C2FD 
 151      FF2CC0BC 
 151      BD
 152              		.text
 153              		.section	.gnu.lto_chEvtGetAndClearEvents.bcf7a26b897fba71,"",%progbits
 154 0000 789CAD52 		.ascii	"x\234\255R\277K\033q\024\177\357{w\271\\\034Z:\024B"
 154      BF4B1B71 
 154      147FEF7B 
 154      77B95C1C 
 154      5A3A1442 
 155 0014 97603B29 		.ascii	"\227`;)\344\346N\035:u\252\240\202\355\246W\2117D\301"
 155      E4E64E1D 
 155      3A75AAA0 
 155      82EDA657 
 155      893744C1 
 156 0028 888B83DF 		.ascii	"\210\213\203\337$\026\212\213\301E\260\203\272\331*"
 156      24168A8B 
 156      C145B083 
 156      BAD92A
 157 0037 540C2AD2 		.ascii	"T\014*\322\016Y\204J\020q\213\272\004\365\017h7\021"
 157      0E59844A 
 157      10718BBA 
 157      04F50F68 
 157      3711
 158 0049 F1DBF7BE 		.ascii	"\361\333\367\276\227;I\033h\024\277p\357\373\275\367"
 158      973B491B 
 158      6814BF70 
 158      EFFBBDF7 
 159 0059 DEE7F37E 		.ascii	"\336\347\363~\012\020\360\367yF\337\216\011\360\202"
 159      0A10F0F7 
ARM GAS  /tmp/ccCJBSpW.s 			page 12


 159      7946DF8E 
 159      09F082
 160 0068 7F4C40F2 		.ascii	"\177L@\362@\201\006I\003\221T\010\323\302\300\351w\374"
 160      40810649 
 160      03915408 
 160      D3C2C0E9 
 160      77FC
 161 007a 06A71356 		.ascii	"\006\247\023V\244\234\257\357\225w\223\263\313\205\222"
 161      A49CAFEF 
 161      957793B3 
 161      CB8592
 162 0089 BC510A7D 		.ascii	"\274Q\012}6y\010\003\364\302\224\276\204\331\034$\200"
 162      36790803 
 162      F4C294BE 
 162      84D91C24 
 162      80
 163 009a C9DD8B9E 		.ascii	"\311\335\213\236\237r\246\242\324+\237#\264\203\251"
 163      9F72A6A2 
 163      D42B9F23 
 163      B483A9
 164 00a9 2C55F757 		.ascii	",U\367W\220\260\371_J=j?\324\346\252t\226\345\265RF"
 164      90B0F95F 
 164      4A3D6A3F 
 164      D4E6AA74 
 164      96E5B552 
 165 00be FB98D3BB 		.ascii	"\373\230\323\273\247'\177\337\003s\3678\213\225\255"
 165      A7277FDF 
 165      0373F738 
 165      8B95AD
 166 00cd E636986D 		.ascii	"\3466\230mvo\241:\227\224\267\2032\005<\307\377 \277"
 166      766FA13A 
 166      9794B783 
 166      32053CC7 
 166      FF20BF
 167 00e0 894A5DA9 		.ascii	"\211J]\251\365\343\372\371)>\351@\240\376\011\022\206"
 167      F5E3FAF9 
 167      293EE940 
 167      A0FE0912 
 167      86
 168 00f1 8159A405 		.ascii	"\201Y\244\005\031\304/\330\011\026\253c,l\266\305Y8"
 168      19C42FD8 
 168      0916AB63 
 168      2C6CB6C5 
 168      5938
 169 0103 2C12A093 		.ascii	",\022\240\223#\207\031)K\251\300['K\247O\313~\3361\343"
 169      23871929 
 169      4BA9C05B 
 169      274BA74F 
 169      CB7EDE31 
 170 0118 108AF583 		.ascii	"\020\212\365\203\217\366 \256\241E\312)\270\222\237"
 170      8FF620AE 
 170      A145CA29 
 170      B8929F
 171 0127 E4631F2D 		.ascii	"\344c\037-O\257\035\020O\014\340\000\012'\265\362\313"
 171      4FAF1D10 
 171      4F0CE000 
 171      0A27B5F2 
ARM GAS  /tmp/ccCJBSpW.s 			page 13


 171      CB
 172 0138 C02B83D8 		.ascii	"\300+\203\330\015]\024SK\3733,\346%C\342\021\330\311"
 172      0D5D1453 
 172      4BFB332C 
 172      E62543E2 
 172      11D8C9
 173 014b 6A3097E5 		.ascii	"j0\227\345h\222\241\200\213\356\306C3\226\354\220Ph"
 173      6892A180 
 173      8BEEC643 
 173      3396EC90 
 173      5068
 174 015d 2A93A808 		.ascii	"*\223\250\010\222\240\000\003\301:k\210\210 \305\357"
 174      92A00003 
 174      C13A6B88 
 174      8820C5EF 
 175 016d C5A721C4 		.ascii	"\305\247!\304$T\206\347\306L\227\345d\250\267\036$\267"
 175      245486E7 
 175      C64C97E5 
 175      64A8B71E 
 175      24B7
 176 017f F7215DEC 		.ascii	"\367!]\354aJ\335\350\010\011\355n\370*5\311m\271\261"
 176      614ADDE8 
 176      0809ED6E 
 176      F82A35C9 
 176      6DB9B1
 177 0192 D6E5167E 		.ascii	"\326\345\026~\024\3170\304\305\033\305R\017\266#\245"
 177      14CF30C4 
 177      C51BC552 
 177      0FB623A5 
 178 01a2 437C64D2 		.ascii	"C|d\322\316o\002e\013z\353_\372\014g\313\263\257\355"
 178      CE6F0265 
 178      0B7AEB5F 
 178      FA0C67CB 
 178      B3AFED
 179 01b5 B59CBD68 		.ascii	"\265\234\275h\232\375~m;\352/\36156\265\237\0232\252"
 179      9AFD7E6D 
 179      3BEA2FF1 
 179      3536B59F 
 179      1332AA
 180 01c8 90A7F81F 		.ascii	"\220\247\370\037\030q\004Qb\211\300\245\217\233\300"
 180      18710451 
 180      6289C0A5 
 180      8F9BC0
 181 01d7 5CA974DA 		.ascii	"\\\251t\332}=\342\017\371o{\335\261\234;>\341\346\306"
 181      7D3DE20F 
 181      F96F7BDD 
 181      B19C3B3E 
 181      E1E6C6
 182 01ea 3DD71B19 		.ascii	"=\327\033\031\236\034\036\235\310\245=\300\354\037\275"
 182      9E1C1E9D 
 182      C8A53DC0 
 182      EC1FBD
 183 01f9 550780   		.ascii	"U\007\200"
 184              		.text
 185              		.section	.gnu.lto_chEvtAddEvents.bcf7a26b897fba71,"",%progbits
 186 0000 789CAD92 		.ascii	"x\234\255\222\277K+A\020\307gv/\227\213\026\212\235"
 186      BF4B2B41 
ARM GAS  /tmp/ccCJBSpW.s 			page 14


 186      10C76776 
 186      2F978B16 
 186      8A9D
 187 0012 BC26582A 		.ascii	"\274&X*\344\376\004\013\253W)\250\020\355\364\014\361"
 187      E4FE040B 
 187      AB5729A8 
 187      10EDF40C 
 187      F1
 188 0023 0A158CD8 		.ascii	"\012\025\214\330X\270\361\007\210\202\210\235\332\304"
 188      58B8F107 
 188      8882889D 
 188      DAC4
 189 0031 4294D728 		.ascii	"B\224\327(\257\312kb\032A\011\242v\022\021\"ZZ\330\010"
 189      AFCA6B62 
 189      1A4109A2 
 189      76121122 
 189      5A5AD808 
 190 0045 8FA7B86F 		.ascii	"\217\247\270of\317\013\376\010\250\340\302\315\316\316"
 190      66CF0BFE 
 190      08A8E0C2 
 190      CDCECE
 191 0054 EDF73333 		.ascii	"\355\367337'@\300\333\365\203\236\262\004h\341\203\005"
 191      372740C0 
 191      DBF5839E 
 191      B20468E1 
 191      8305
 192 0066 48375020 		.ascii	"H7P \005P\"R\010aZH\234\356c\037\354\026\330Tj\265\262"
 192      05502252 
 192      08615A48 
 192      9CEE631F 
 192      EC16D854 
 193 007d 55586B5E 		.ascii	"UXk^\314\315\254\250'\255\321\347W\036B\222<\214\233"
 193      CCCDACA8 
 193      27ADD1E7 
 193      571E4292 
 193      3C8C9B
 194 0090 4D58AF93 		.ascii	"MX\257\223\0042\365{G\305r\352Qk\371y\315\305M\327\241"
 194      0432F57B 
 194      47C572EA 
 194      516BF979 
 194      CDC54DD7 
 195 00a5 9A2B6ADD 		.ascii	"\232+j\335\356sU_\316\363IM\361~i\371\353-\255\027\037"
 195      EE73555F 
 195      CEF3494D 
 195      F17E69F9 
 195      EB2DAD17 
 196 00ba 4A479B48 		.ascii	"JG\233H)\263wZ7\370h}$\333\025\305\212\326\267\227\271"
 196      29B3775A 
 196      37F8687D 
 196      24DB15C5 
 196      8AD6B797 
 197 00cf EB276C8A 		.ascii	"\353'l\212!P&\301F\222\221\026\216 D\330\2639\026\005"
 197      215026C1 
 197      46929116 
 197      8E2044D8 
 197      B3391605 
 198 00e3 3A3A60A8 		.ascii	"::`\250\024\236Sj%n\370\264z\214\355\345q\311\023\230"
ARM GAS  /tmp/ccCJBSpW.s 			page 15


 198      149E536A 
 198      256EF8B4 
 198      7A8CEDE5 
 198      71C91398 
 199 00f7 ADFC9D8F 		.ascii	"\255\374\235\217\016\3406F(8\005\377\324\202j\3641\342"
 199      0EE03646 
 199      283805FF 
 199      D4826AF4 
 199      31E2
 200 0109 99090211 		.ascii	"\231\011\002\021l\200c\230)\347\013\315\301\2554b\033"
 200      6C806398 
 200      29E70BCD 
 200      C1AD3462 
 200      1B
 201 011a B4520E63 		.ascii	"\264R\016c\243\033\260\236U,q\252\342\330\210\021s\017"
 201      A31BB09E 
 201      552C71AA 
 201      E2D88811 
 201      730F
 202 012c 3103190C 		.ascii	"1\003\031\014X\264?;L\354\017q\342[p\345\275\372\020"
 202      58B43F3B 
 202      4CEC0F71 
 202      E25B70E5 
 202      BDFA10
 203 013f 28DBE097 		.ascii	"(\333\340\2272\020\213p$\253\243$\311`2F&\252\262\331"
 203      32108B70 
 203      24ABA324 
 203      C9603246 
 203      26AAB2D9 
 204 0153 3F325445 		.ascii	"?2TEH\230\346\357E\260\237A\260\006\007\337s\322\374"
 204      4898E6EF 
 204      45B09F41 
 204      B00607DF 
 204      73D2FC
 205 0166 E9B882F3 		.ascii	"\351\270\202\363\302\025\2064\373{\232:\265C`4(Fu\277"
 205      C2158634 
 205      FB7B9A3A 
 205      B5436034 
 205      284675BF 
 206 017a ACC6AED5 		.ascii	"\254\306\256\325\025\317\364\341\240\346L\305\253\231"
 206      15CFF4E1 
 206      A0E64CC5 
 206      AB99
 207 0188 96F2FBD5 		.ascii	"\226\362\373\325\231:\224!\220\367\362\177/K\220u\000"
 207      993A9421 
 207      90F7F27F 
 207      2F4B9075 
 207      00
 208 0199 86587106 		.ascii	"\206Xq\006\325\256\234\340J\017\327\310\254x\"\341v"
 208      D5AE9CE0 
 208      4A0FD7C8 
 208      AC7822E1 
 208      76
 209 01aa 0CFB837E 		.ascii	"\014\373\203~g\267;\226q\307'\334\314\270\347z\303\251"
 209      67B73B96 
 209      71C727DC 
 209      CCB8E77A 
ARM GAS  /tmp/ccCJBSpW.s 			page 16


 209      C3A9
 210 01bc C9D4E844 		.ascii	"\311\324\350D&\341\301\177\372\227\325\331"
 210      26E1C17F 
 210      FA97D5D9 
 211              		.text
 212              		.section	.gnu.lto_chEvtGetAndClearFlags.bcf7a26b897fba71,"",%progbits
 213 0000 789C8551 		.ascii	"x\234\205Q=K\003A\020}\263\23336\202`\025lBl\004!\367"
 213      3D4B0341 
 213      107DB39B 
 213      33368260 
 213      156C426C 
 214 0017 0BACFC01 		.ascii	"\013\254\374\001\026F\32029\343\345\300\017\310\005"
 214      1646D032 
 214      39E3E5C0 
 214      0FC805
 215 0026 1B8BAC51 		.ascii	"\033\213\254QPl\014bc\264P\321\306\3066e\012A\202\210"
 215      506C0C62 
 215      63B450D1 
 215      C6C63665 
 215      0A418288 
 216 003a 58086215 		.ascii	"X\010b\025\260\015\330'x\347\354^\"F\204\014\354\356"
 216      B00DD827 
 216      78E7EC5E 
 216      2246840C 
 216      ECEE
 217 004c EC9B793B 		.ascii	"\354\233y;\357\261\002\002\177c\222\327=\001\323\372"
 217      EFB10202 
 217      7F6392D7 
 217      3D01D3FA 
 218 005c 12037107 		.ascii	"\022\003q\007\011\222\274Kb\030\204\262\220T^\3269D"
 218      0992BC4B 
 218      621884B2 
 218      90545ED6 
 218      3944
 219 006e 0A974AD5 		.ascii	"\012\227J\325Z7\301i\342\360\242RUA\030\222\247K\016"
 219      5A37C169 
 219      E2F0A252 
 219      55411892 
 219      A74B0E
 220 0081 6189334A 		.ascii	"a\2113J\232C\304\006\207\030\332q\343\365\350$\241~"
 220      9A43C406 
 220      8718DA71 
 220      E3F5E824 
 220      A17E
 221 0093 D104A668 		.ascii	"\321\004\246h\010\363N4Zax\376\325\376\350\320D\214"
 221      08F34E34 
 221      5A6178FE 
 221      D5FEE8D0 
 221      448C
 222 00a5 685DB3B2 		.ascii	"h]\263\262tE)H\230\311\260\260\247T5\031\201F\011G\306"
 222      74452948 
 222      98C9B0B0 
 222      A7543519 
 222      81460947 
 223 00ba EC8BDA8E 		.ascii	"\354\213\332\216|\306n\253\275\037\317\3225Y\014n\243"
 223      7CC66EAB 
 223      BD1FCFD2 
ARM GAS  /tmp/ccCJBSpW.s 			page 17


 223      35590C6E 
 223      A3
 224 00cb A30ED4B8 		.ascii	"\243\016\324\270G\3221\016\301\357\360\324'T\336\353"
 224      47D2310E 
 224      C1EFF0D4 
 224      2754DEEB 
 225 00db DD26456D 		.ascii	"\335&Em.\211\031\334*\216Y\236r\206\032k\263\\\"\255"
 225      2E8919DC 
 225      2A8E599E 
 225      72861A6B 
 225      B35C22AD 
 226 00ef 71C49072 		.ascii	"q\304\220r\324\327\310\314\372[\267)\"f\21766\204\246"
 226      D4D7C8CC 
 226      FA5BB729 
 226      22668F36 
 226      3684A6
 227 0102 91B84EB4 		.ascii	"\221\270N\264\272\317\207\177\325\211\001u\315z\220"
 227      BACF877F 
 227      D5890175 
 227      CD7A90
 228 0111 E88B936E 		.ascii	"\350\213\223n\257\310\026\371\257\344#vF\201\025\355"
 228      AFC816F9 
 228      AFE42376 
 228      468115ED 
 229 0121 E7053F16 		.ascii	"\347\005?\026d\324\222\321\260nO\246\323\366\\\301\313"
 229      64D492D1 
 229      B06E4FA6 
 229      D3F65CC1 
 229      CB
 230 0132 79F30BF6 		.ascii	"y\363\013\366\246o\027K\266_tl\247\220\337\312o\224"
 230      A66F174B 
 230      B65F746C 
 230      A790DFCA 
 230      6F94
 231 0144 FCB4036B 		.ascii	"\374\264\003ku-\353\372\337\015\206p\234"
 231      752DEBFA 
 231      DF0D8670 
 231      9C
 232              		.text
 233              		.section	.gnu.lto_chEvtSignalI.bcf7a26b897fba71,"",%progbits
 234 0000 789CCD55 		.ascii	"x\234\315U=hSQ\024>\347\276\3374\211\212\010\".\241"
 234      3D685351 
 234      143EE7BE 
 234      DF34898A 
 234      08222EA1 
 235 0014 9B9626B3 		.ascii	"\233\226&\263S\007''\005[\251\2336\224\364\015Qh\212"
 235      53072727 
 235      055BA99B 
 235      3694F40D 
 235      51688A
 236 0027 4B87DEB6 		.ascii	"K\207\336\266\031\244\240\024c\210\325\245\202\203\212"
 236      19A4A014 
 236      6388D5A5 
 236      82838A
 237 0036 504D9788 		.ascii	"PM\227\210K\012\016]\252\326,%.\241X]\272\271\210\210"
 237      4B0A0E5D 
 237      AAD62C25 
ARM GAS  /tmp/ccCJBSpW.s 			page 18


 237      2EA1585D 
 237      BAB98888 
 238 004a CF73EEFB 		.ascii	"\317s\356\373\311\253\004\372\"\016^x\347\236w\357\375"
 238      C9AB04FA 
 238      220E5E78 
 238      E79E77EF 
 238      FD
 239 005b BE73CE77 		.ascii	"\276s\316w\317\343\011\020\360\347\270B\3175\023`\220"
 239      CFE30910 
 239      F0E7B842 
 239      CF351360 
 239      90
 240 006c 5F128074 		.ascii	"_\022\200t\002\005jd5\241\003Ha\220\321ua\205\276!L"
 240      02056A64 
 240      35A10348 
 240      6190D175 
 240      6185BE21 
 241 0081 F66DF64D 		.ascii	"\366m\366Mo]\371\026\322\2046\"\021!\314\011M7L\313"
 241      6F5DF916 
 241      D2843622 
 241      1121CC09 
 241      4D374CCB 
 242 0095 C6B9ABBC 		.ascii	"\306\271\253\274\000\251Ax,\345\275\316\336\332G\261"
 242      00A94178 
 242      2CE5BDCE 
 242      DEDA47B1 
 243 00a5 72BF595E 		.ascii	"r\277Y^\225?]\027\321\341\315<\3028y\230Q\023\207\215"
 243      953F5D17 
 243      D1E1CD3C 
 243      C2387998 
 243      5113878D 
 244 00b9 0E0F28EB 		.ascii	"\016\017(\353OeB\201\264\330\230f\245u\347\344RG.\313"
 244      4F654281 
 244      B4D89866 
 244      A575E7E4 
 244      52472ECB 
 245 00cd 5F14CBE1 		.ascii	"_\024\313\341\252\002\230\355\301\260'\254Z\271{jiu"
 245      AA0298ED 
 245      C1B027AC 
 245      5AB97B6A 
 245      6975
 246 00df 2180C5CD 		.ascii	"!\200\305\315\260\272wiS\226\233\256;\022\037\363\355"
 246      B0BA7769 
 246      53969BAE 
 246      3B121FF3 
 246      ED
 247 00f0 73DF9866 		.ascii	"s\337\230f\355\357\252Z\371\257\253\222\237\372\211"
 247      EDEFAA5A 
 247      F9AFAB92 
 247      9FFA89
 248 00ff 53445813 		.ascii	"SDX\023\315\216\353>\251\275\332?q\004\261\210\324\271"
 248      CD8EEB3E 
 248      A9BDDA3F 
 248      7104B188 
 248      D4B9
 249 0111 04D4C8A3 		.ascii	"\004\324\310\243\303\344\031d4\223=\213\215\315&\301"
 249      C3E41964 
ARM GAS  /tmp/ccCJBSpW.s 			page 19


 249      34933D8B 
 249      8DCD26C1 
 250 0121 6B03EC25 		.ascii	"k\003\354%\331\244\330\244A\305\243\363e)\2273E?8\215"
 250      D9A4D8A4 
 250      41C5A3F3 
 250      65299733 
 250      453F388D 
 251 0135 51DFD227 		.ascii	"Q\337\322'\241\215\261\314\332\026,\264\277S\003_\307"
 251      A18DB1CC 
 251      DA162CB4 
 251      BF53035F 
 251      C7
 252 0146 17684001 		.ascii	"\027h@\001\305\020<\227R\036sP\177\004\017)O\243\200"
 252      C5103C97 
 252      521E7350 
 252      7F040F29 
 252      4FA380
 253 0159 C8F99A2A 		.ascii	"\310\371\232*\313\211\360\"\266`\361\265\026\240t\002"
 253      CB89F022 
 253      B660F1B5 
 253      16A07402 
 254 0169 16988FE8 		.ascii	"\026\230\217\350.x\213\361x\010\252@\355F\275\215\001"
 254      2E788BF1 
 254      7808AA40 
 254      ED46BD8D 
 254      01
 255 017a 9B310467 		.ascii	"\2331\004g\035\264z\343\202\0046\341\355\327\371t\010"
 255      1DB47AE3 
 255      820436E1 
 255      EDD7F974 
 255      08
 256 018b E123A443 		.ascii	"\341#\244Cw\2141\263*o\247\276\033R\233\212\372\320"
 256      778C31B3 
 256      2A6FA7BE 
 256      1B529B8A 
 256      FAD0
 257 019d D216DA1F 		.ascii	"\322\026\332\037\216\007\020\313\203x\365\310Y\007\355"
 257      8E0710CB 
 257      8378F5C8 
 257      5907ED
 258 01ac DE68E1CF 		.ascii	"\336h\341\317ZW\2407\213_\302\3106\005'2N\274\274\277"
 258      5A57A037 
 258      8B5FC2C8 
 258      36052732 
 258      4EBCBCBF 
 259 01c0 51A90C87 		.ascii	"Q\251\014\207\033\343^\353FS7\202\233\211\250\222\210"
 259      1BE35EEB 
 259      46533782 
 259      9B89A892 
 259      88
 260 01d1 ABCA46B5 		.ascii	"\253\312F\2655\022\202\224.\311\003\344\246O\376`\275"
 260      35128294 
 260      2EC903E4 
 260      A64FFE60 
 260      BD
 261 01e2 ABCB40FF 		.ascii	"\253\313@\377\272$\377\215.)\012Nd\036\373\313\323\301"
 261      BA24FF8D 
ARM GAS  /tmp/ccCJBSpW.s 			page 20


 261      2E290A4E 
 261      641EFBCB 
 261      D3C1
 262 01f4 72FA00FB 		.ascii	"r\372\000\3736\306\246W\012\324Z\303\021\376t\264z\313"
 262      36C6A657 
 262      0AD45AC3 
 262      11FE74B4 
 262      7ACB
 263 0206 ABBED158 		.ascii	"\253\276\321X\337\025\321N\225\347\034\226X\271G\017"
 263      DF15D14E 
 263      95E71C96 
 263      58B9470F 
 264 0216 8DE67DBC 		.ascii	"\215\346}\274\274\243z\356=\224;\357\236\3715\001\314"
 264      BCA37AEE 
 264      3D943BEF 
 264      9EF93501 
 264      CC
 265 0227 C20F799B 		.ascii	"\302\017y\233{?\231\367o\246\300\377\205T\220\003\375"
 265      7B3F99F7 
 265      6FA6C0FF 
 265      85549003 
 265      FD
 266 0238 55B46D98 		.ascii	"U\264m\230\357\354\234\011\020\336\030\345\323\034\""
 266      EFEC9C09 
 266      10DE18E5 
 266      D31C22
 267 0247 93CDE6CE 		.ascii	"\223\315\346\316O9\023\316\305\313\271\233\245\334\364"
 267      4F3913CE 
 267      C5CBB99B 
 267      A5DCF4
 268 0256 4CAE349D 		.ascii	"L\2564\235\317\345\247&oM\336\230)e\363\360\033\205"
 268      CFE5A726 
 268      6F4DDE98 
 268      2965F3F0 
 268      1B85
 269 0268 E25D99   		.ascii	"\342]\231"
 270              		.text
 271              		.section	.gnu.lto_chEvtBroadcastFlagsI.bcf7a26b897fba71,"",%progbits
 272 0000 789CB554 		.ascii	"x\234\265T=h\024Q\020\236yo\377\357\202\266\001\213"
 272      3D681451 
 272      109E796F 
 272      FFEF82B6 
 272      018B
 273 0012 2342040F 		.ascii	"#B\004\017\356\352\024bae\245`\202\261\222d=6\007\236"
 273      EEEA1462 
 273      6165A560 
 273      82B19264 
 273      3D36079E 
 274 0026 4A2ED858 		.ascii	"J.\330X\344\345\356\004\021\211QT\374+b\027\202\240"
 274      E4E5EE04 
 274      11895154 
 274      FC2B6217 
 274      82A0
 275 0038 68255AAC 		.ascii	"h%Z\254`qB~\264\020L\252+\374)\024\177\022\002*I\326"
 275      6071427E 
 275      B4104CAA 
 275      2BFC2914 
ARM GAS  /tmp/ccCJBSpW.s 			page 21


 275      7F12022A 
 276 004e 79BBFB36 		.ascii	"y\273\3736k\014z\026\016\334\354\274\331\371\276\371"
 276      6B0C7A16 
 276      0EDCECBC 
 276      D9F9BEF9 
 277 005e DEDCDC31 		.ascii	"\336\334\3341`\260\331\016\323\247C\007\350\226\007"
 277      60B0D90E 
 277      D3A74307 
 277      E89607
 278 006d 07902A90 		.ascii	"\007\220*\220!'\317\321\"\2571\003@0\252\020\232\036"
 278      2127CFD1 
 278      22AF3103 
 278      4030AA10 
 278      9A1E
 279 007f C5A68C0D 		.ascii	"\305\246\214\015\244\007\232a\215\3054\231\267e\336"
 279      A4079A61 
 279      8DC53499 
 279      B765DE
 280 008e 46242284 		.ascii	"F$\"\204Q\3065\3350-\033G\217\310\014\330]pG\210\313"
 280      51C635DD 
 280      302D1B47 
 280      8FC80CD8 
 280      5D704788 
 281 00a3 ADB79F16 		.ascii	"\255\267\237\026\330\215+~cR\254\006\001bY\276t\021"
 281      D88D2B7E 
 281      6352AC06 
 281      016259BE 
 281      7411
 282 00b5 FA29C25C 		.ascii	"\372)\302\\\370\220li\213\200\342\301\224\260C\020o"
 282      F8906C69 
 282      8B80E2C1 
 282      94B04310 
 282      6F
 283 00c6 1BE307E3 		.ascii	"\033\343\007\343\027;\317O\326&\304:\365j\277\325\332"
 283      173BCF4F 
 283      D626C43A 
 283      F56ABFD5 
 283      DA
 284 00d7 9B834DD1 		.ascii	"\233\203M\321\360\203`o\373\230\345\177\307\370\227"
 284      F083606F 
 284      FB98E57F 
 284      C7F897
 285 00e6 E6AFA6E5 		.ascii	"\346\257\246\345\361\3778\211Ws\327:\305F+\215\301N"
 285      F1FF3889 
 285      5773D73A 
 285      C5462B8D 
 285      C14E
 286 00f8 FC0BB282 		.ascii	"\374\013\262\202p\217\371\255 \270\275r\377\302\014"
 286      708FF9AD 
 286      20B8BD72 
 286      FFC20C
 287 0107 3E611D08 		.ascii	">a\035\010\0038\205]\300\260\202\2446:h@*t\312\320v"
 287      0338855D 
 287      C0B082A4 
 287      363A6840 
 287      2A74CAD0 
 288 011c 50644A67 		.ascii	"PdJgIgK\347\220\343\031\031e\343z2\035\032BL\344\242"
ARM GAS  /tmp/ccCJBSpW.s 			page 22


 288      49674BE7 
 288      90E31919 
 288      65E37A32 
 288      1D1A424C 
 289 0132 7325BE03 		.ascii	"s%\276\003Yo\354i\011y\237\034\007\237\205\332\342\267"
 289      596FEC69 
 289      09799F1C 
 289      079F85DA 
 289      E2B7
 290 0144 0F3D0338 		.ascii	"\017=\0038\215:x\310\3630-\310z\350\006\267\340&\211"
 290      8D3A78C8 
 290      F3302DC8 
 290      7AE806B7 
 290      E02689
 291 0157 D63D6452 		.ascii	"\326=dR\274\021J\036\304\364\005\372PS\024\264t\212"
 291      BC114A1E 
 291      C4F405FA 
 291      505314B4 
 291      748A
 292 0169 438B38B6 		.ascii	"C\2138\266\227\321\214(,\017QRh1\205\342\230\205\372"
 292      97D18C28 
 292      2C0F5152 
 292      683185E2 
 292      9885FA
 293 017c 23AE5006 		.ascii	"#\256P\006\001=\212([\333\037%\333\343\361\244\264&"
 293      013D8A28 
 293      5BDB1F25 
 293      DBE3F1A4 
 293      B426
 294 018e 3C7BFF74 		.ascii	"<{\377tm<\253\330\364\376h\033\323Zu\245\365\363WTu"
 294      6D3CABD8 
 294      F4FE681B 
 294      D35A75A5 
 294      F5F35754 
 295 01a3 661E76B7 		.ascii	"f\036v\267\241\263\266\370b\233\202X\177\202\260\004"
 295      A1B3B6F8 
 295      629B8258 
 295      7F82B004 
 296 01b3 527F5C7F 		.ascii	"R\177\\\177\227\264\261\251\223'\177\312Mh|$\235\335"
 296      97B4B1A9 
 296      93277FCA 
 296      4D687C24 
 296      9DDD
 297 01c5 C98B2D74 		.ascii	"\311\213-t\032\261\316\353K\0333u\302\246\234\232\216"
 297      1AB1CEEB 
 297      4B1B3375 
 297      C2A69C9A 
 297      8E
 298 01d6 D1488EFE 		.ascii	"\321H\216\376\336\230\247\264~q\024,\023\302\354\030"
 298      DE98A7B4 
 298      7E71142C 
 298      13C2EC18 
 299 01e6 F6700BC1 		.ascii	"\366p\013\301j%\347\341\254\237\217`\000g\340\2078'"
 299      6A25E7E1 
 299      AC9F8F60 
 299      0067E087 
 299      3827
ARM GAS  /tmp/ccCJBSpW.s 			page 23


 300 01f8 07EFB8C9 		.ascii	"\007\357\270\311\220\035b+cF\2114c\221\257\227\236'"
 300      901D622B 
 300      63468934 
 300      6391AF97 
 300      9E27
 301 020a B7CCC6CB 		.ascii	"\267\314\306\313\263'Y\236\315\335\364_.J\363\340\341"
 301      B327599E 
 301      CDDDF45F 
 301      2E4AF3E0 
 301      E1
 302 021b 4096E792 		.ascii	"@\226\347\222/\016\275d\206\260\000t\342|ue\007q\233"
 302      2F0EBD64 
 302      86B00074 
 302      E27C7565 
 302      07719B
 303 022e 77BF1F93 		.ascii	"w\277\037\223 \372\023\344/a\2545\263K\251\215\254W"
 303      20FA13E4 
 303      2F61AC35 
 303      B34BA98D 
 303      AC57
 304 0240 2A95D05C 		.ascii	"*\225\320\\\241P\3347T\036,\0378T<Y-\016\217\024\253"
 304      A150DC37 
 304      541E2C1F 
 304      38543C59 
 304      2D0E8F14 
 305 0255 C36ED11D 		.ascii	"\303n\321\035*\235.\235\030\251\026\\\340\245\343\247"
 305      2A9D2E9D 
 305      18A9165C 
 305      E0A5E3A7 
 306 0265 7E02C65B 		.ascii	"~\002\306[\034\306"
 306      1CC6
 307              		.text
 308              		.section	.gnu.lto_chEvtSignal.bcf7a26b897fba71,"",%progbits
 309 0000 789C6362 		.ascii	"x\234cb`b@\007\322@\314\302\310\300\240\004\342\260"
 309      60624007 
 309      D240CCC2 
 309      C8C0A004 
 309      E2B0
 310 0012 30300255 		.ascii	"00\002U0212\003IfF\2400\003#C=\0233c}$\210\315\300\230"
 310      30323132 
 310      03496646 
 310      A0300323 
 310      433D1333 
 311 002d CBC8B09E 		.ascii	"\313\310\260\236\351\300\203\377\377\327\315\230\264"
 311      E9C083FF 
 311      FFD7CD98 
 311      B4
 312 003a ED0CE349 		.ascii	"\355\014\343I\240\024P\014\250!\027\244\221\201\225"
 312      A014500C 
 312      A82117A4 
 312      918195
 313 0049 A1A5A161 		.ascii	"\241\245\241a\202B.Hq2XG\010\224\004\3122\207\202\214"
 313      82422E48 
 313      71325847 
 313      089404CA 
 313      3287828C 
 314 005d 653ECFD0 		.ascii	"e>\317\320\374`F'{\"\343BFV\240T5\303\257\206\216\006"
ARM GAS  /tmp/ccCJBSpW.s 			page 24


 314      FC604627 
 314      7B22E342 
 314      4656A054 
 314      35C3AF86 
 315 0073 814C46A0 		.ascii	"\201LF\240\006\260Z\206L\020}\236\241\365\301\314\227"
 315      06B05A86 
 315      4C107D9E 
 315      A1F5C1CC 
 315      97
 316 0084 98AA9892 		.ascii	"\230\252\230\222\031!~HgdLgd\312\004\031\0112q\326K"
 316      19217E48 
 316      67644C67 
 316      64CA0419 
 316      093271D6 
 317 0099 2E6C2632 		.ascii	".l&2#\233\330\374`\366I\254\366\262 T]dh|0G\023\246"
 317      239BD8FC 
 317      60F649AC 
 317      F6B22054 
 317      5D64687C 
 318 00b1 08024240 		.ascii	"\010\002B@\022 [\025\364\364\364\23532\2232\375\203"
 318      12205B15 
 318      F4F4F49D 
 318      33329332 
 318      FD83
 319 00c3 F5F38BF5 		.ascii	"\365\363\213\365\213J\364\213\213\222\365\2233R\313"
 319      8B4AF48B 
 319      8B92F593 
 319      3352CB
 320 00d2 52F34A8A 		.ascii	"R\363J\212\365\222\031\000Q\332Cl"
 320      F5921900 
 320      51DA436C 
 321              		.text
 322              		.section	.gnu.lto_chEvtBroadcastFlags.bcf7a26b897fba71,"",%progbits
 323 0000 789C6362 		.ascii	"x\234cb`b@\007\"@\374\003\210\225@\034f\006F\240\012"
 323      60624007 
 323      2240FC03 
 323      8895401C 
 323      660646A0 
 324 0015 46264646 		.ascii	"F&FF \207\221\241\236\211\261>\222\021\254l=\323\201"
 324      208791A1 
 324      9E89B13E 
 324      9211AC6C 
 324      3DD381
 325 0028 07FFFFAF 		.ascii	"\007\377\377\257\273w\371\350A\306\277\232\314\214\214"
 325      BB77F9E8 
 325      41C6BF9A 
 325      CC8C8C
 326 0037 B98C0C4C 		.ascii	"\271\214\014L@\002$\313\312\320\322\3200A\201\201!\031"
 326      400224CB 
 326      CAD0D2D0 
 326      30418181 
 326      2119
 327 0049 AC36044C 		.ascii	"\2546\004L\206\202Lb>\317\320\374\340g'{\"\343BFV\240"
 327      86824C62 
 327      3ECFD0FC 
 327      E067277B 
 327      22E34246 
ARM GAS  /tmp/ccCJBSpW.s 			page 25


 328 005f 6035C3AF 		.ascii	"`5\303\257\206\216\006\201LF\240R\210\271\231 \372<"
 328      868E0681 
 328      4C46A052 
 328      88B99920 
 328      FA3C
 329 0071 43EB835F 		.ascii	"C\353\203_/\2711T1%3B\034\234\316\310\230\316\310\224"
 329      2FB93154 
 329      31253342 
 329      1C9CCEC8 
 329      98CEC894 
 330 0085 C9C80C52 		.ascii	"\311\310\014R\333\374\340\367K.l&2#\233\330\374\340"
 330      DBFCE0F7 
 330      4B2E6C26 
 330      32239BD8 
 330      FCE0
 331 0097 CF49ACF6 		.ascii	"\317I\254\366\262 T]dh|\360W\023\246\010\002B@\022 "
 331      B220545D 
 331      64687CF0 
 331      5713A608 
 331      02424012 
 332 00ac 5B15F4F4 		.ascii	"[\025\364\364\364\23532\2232\375\203\365\363\213\365"
 332      F49D3332 
 332      9332FD83 
 332      F5F38BF5 
 333 00bc 8B4AF48B 		.ascii	"\213J\364\213\213\222\365\2233R\313R\363J\212\365\222"
 333      8B92F593 
 333      3352CB52 
 333      F34A8AF5 
 333      92
 334 00cd 190095C3 		.ascii	"\031\000\225\303E\341"
 334      45E1
 335              		.text
 336              		.section	.gnu.lto_chEvtGetAndClearFlagsI.bcf7a26b897fba71,"",%progbits
 337 0000 789C6362 		.ascii	"x\234cb`b@\007\322@\\\301\310\300\240\001\342\26000"
 337      60624007 
 337      D2405CC1 
 337      C8C0A001 
 337      E2B03030 
 338 0014 02553032 		.ascii	"\002U0212\003IfF\2400\003#C=\0233c}$\210\315\300\244"
 338      31320349 
 338      6646A030 
 338      0323433D 
 338      1333637D 
 339 002d C4B0B0A1 		.ascii	"\304\260\260\241a\326\203\326W\263$\273\0264Mh\370\367"
 339      61D683D6 
 339      57B324BB 
 339      16344D68 
 339      F8F7
 340 003f FF3F6326 		.ascii	"\377?c&H*\231\221!\002\310bT\000SL,\250\226\200\265"
 340      482A9991 
 340      2102C862 
 340      5400534C 
 340      2CA89680 
 341 0054 4D3AB07D 		.ascii	"M:\260}\332\024\311\006$mL\014\312\214\004t\256g:\360"
 341      DA14C906 
 341      246D4C0C 
 341      CA8C0474 
ARM GAS  /tmp/ccCJBSpW.s 			page 26


 341      AE673AF0 
 342 0068 E0FFFF35 		.ascii	"\340\377\3775\233?>^\311(\312\302\310\230\013\322\225"
 342      9B3F3E5E 
 342      C928CAC2 
 342      C8980BD2 
 342      95
 343 0079 C8B88851 		.ascii	"\310\270\210Q\211\201\231\001l3\003+CKC\303\004\005"
 343      89819901 
 343      6C33032B 
 343      434B43C3 
 343      0405
 344 008b 8820D825 		.ascii	"\210 \330%@\020\002&CA\336a>\313\320tk\307\363S\214"
 344      40100226 
 344      4341DE61 
 344      3ECBD074 
 344      6BC7F353 
 345 00a0 898C4B18 		.ascii	"\211\214K\030Y\031\322\031\231\264\031V5\000\201-P\377"
 345      5919D219 
 345      99B41956 
 345      3500812D 
 345      50FF
 346 00b2 6C865940 		.ascii	"l\206Y@[\231\323\031\031A\266C,Ob\204\331\016\324\271"
 346      5B99D319 
 346      1941B643 
 346      2C4F6284 
 346      D90ED4B9 
 347 00c6 E3C6F353 		.ascii	"\343\306\363SL\020\235Pm\274\004\264\201DX\241\272O"
 347      4C109D50 
 347      6DBC04B4 
 347      814458A1 
 347      BA4F
 348 00d8 CE782505 		.ascii	"\316x%\005\263\026\250\032\032\374\241\240\360e>\315"
 348      B316A81A 
 348      1AFCA1A0 
 348      F0653ECD 
 349 00e8 D0C8C1C0 		.ascii	"\320\310\301\300\220\002\012\345\213\014p\3071C\224"
 349      90020AE5 
 349      8B0C70C7 
 349      314394
 350 00f7 84808441 		.ascii	"\204\200\204A\312\025\364\364\364\23532\2232\375\203"
 350      CA15F4F4 
 350      F49D3332 
 350      9332FD83 
 351 0107 F5F38BF5 		.ascii	"\365\363\213\365\213J\364\213\213\222\365\2233R\313"
 351      8B4AF48B 
 351      8B92F593 
 351      3352CB
 352 0116 52F34A8A 		.ascii	"R\363J\212\365\222\031X\323r\022\323\213\001\356.\\"
 352      F5921958 
 352      D37212D3 
 352      8B01EE2E 
 352      5C
 353 0127 D1       		.ascii	"\321"
 354              		.text
 355              		.section	.gnu.lto_chEvtDispatch.bcf7a26b897fba71,"",%progbits
 356 0000 789CD554 		.ascii	"x\234\325TMh\023A\024~ofw\223\264iSo\366 \226z\362\207"
 356      4D681341 
ARM GAS  /tmp/ccCJBSpW.s 			page 27


 356      147E6F66 
 356      7793B469 
 356      536FF620 
 357 0018 C47AF4E2 		.ascii	"\304z\364\342\301\233\012\012\266P\2171\2064\207*\264"
 357      C19B0A0A 
 357      B6508F31 
 357      8634872A 
 357      B4
 358 0029 45B0976E 		.ascii	"E\260\227n\2739H-Z\304\"\265\012\355ED4EA\332\032\017"
 358      BB39482D 
 358      5AC422B5 
 358      0AED4544 
 358      344541DA 
 359 003f F1565011 		.ascii	"\361VP\021\021\014\021\205\342\317MDzU\\\277\267\273"
 359      110C1185 
 359      E2CF4D44 
 359      7A555CBF 
 359      B7BB
 360 0051 93965E8C 		.ascii	"\223\226^\214\2759\260\337\354\276\367}o\336|\263\273"
 360      BD39B0DF 
 360      ECBEF77D 
 360      6FDE7CB3 
 360      BB
 361 0062 8A146D1D 		.ascii	"\212\024m\035\307p\035\267\211\016\311C\202\030\014"
 361      C7701DB7 
 361      890EC943 
 361      82180C
 362 0071 56AC819A 		.ascii	"V\254\201\232c@K!\351*\007`\331\214\211\235 \036S\226"
 362      63404B21 
 362      E92A0760 
 362      D98C899D 
 362      201E5396 
 363 0085 C4E3128F 		.ascii	"\304\343\022\2173C\3144\246\264e;\2618\217\235\221\000"
 363      3343CC34 
 363      A6B4653B 
 363      B1388F9D 
 363      9100
 364 0097 B577D382 		.ascii	"\265w\323\202\353^_\373\272\376\311\232\275Q-\315\273"
 364      EB5E5FFB 
 364      BAFEC99A 
 364      BD512DCD 
 364      BB
 365 00a8 BF7C9FB9 		.ascii	"\277|\237\271(\311\034S?\356\270+\230\244\330\346\021"
 365      28C91C53 
 365      3FEEB82B 
 365      98A4D8E6 
 365      11
 366 00b9 0ADDC7F7 		.ascii	"\012\335\307\367\334D \322Mk\252\263\265\027\013\014"
 366      DC4420D2 
 366      4D6BAAB3 
 366      B5170B0C 
 367 00c9 EDF80FDF 		.ascii	"\355\370\017\337O\025Y+\332\303\377\276\232\336F\207"
 367      4F15592B 
 367      DAC3FFBE 
 367      9ADE4687 
 368 00d9 D6363476 		.ascii	"\32664v\223\273\232\2739\32399?1\355\376\206\203\315"
 368      93BB9ABB 
ARM GAS  /tmp/ccCJBSpW.s 			page 28


 368      39D33939 
 368      3F31EDFE 
 368      8683CD
 369 00ec 1BF8F6CB 		.ascii	"\033\370\366\313\251U\267T\365\375#\315\033x\247vm\363"
 369      A955B754 
 369      F5FD23CD 
 369      1B78A776 
 369      6DF3
 370 00fe 523070EF 		.ascii	"R0p\357\177o\340t\365\347\273\253\235\356\306\256\034"
 370      7F6FE074 
 370      F5E7BBAB 
 370      9DEEC6AE 
 370      1C
 371 010f 4599BFED 		.ascii	"E\231\277\355j\220iQU\327|\377\345\322\223\251\007\374"
 371      6A906951 
 371      55D77CFF 
 371      E5D293A9 
 371      07FC
 372 0121 51ED60C4 		.ascii	"Q\355`\304\360\205\0004ey\221\273\311\212f\233\021t"
 372      F0850034 
 372      657991BB 
 372      C98A669B 
 372      1174
 373 0133 082EC704 		.ascii	"\010.\307\004\342\002\011\201\026a\267\202u\037\254"
 373      E2020981 
 373      1661B782 
 373      751FAC
 374 0142 2422BA0D 		.ascii	"$\"\272\015T\325\216;+\005\260;\242\012\0306\225\320"
 374      54D58E3B 
 374      2B05B03B 
 374      A20A1836 
 374      95D0
 375 0154 6A57F83C 		.ascii	"jW\370<\030\035\030Fo\204\3706u\2378\253_\321\304\362"
 375      181D1846 
 375      6F84F836 
 375      759F38AB 
 375      5FD1C4F2 
 376 0168 F2FAE12C 		.ascii	"\362\372\341,?\202\001\005\266\244\375\230\351\273O"
 376      3F820105 
 376      B6A4FD98 
 376      E9BB4F
 377 0177 8C04C52B 		.ascii	"\214\004\305+{\213\345\023\206\343\024X\025D\214DE\233"
 377      7B8BE513 
 377      86E31458 
 377      15448C44 
 377      459B
 378 0189 680C0911 		.ascii	"h\014\011\021\223,\261J\245o\343=\215T\177\370\242m"
 378      932CB14A 
 378      A56FE33D 
 378      8D547FF8 
 378      A26D
 379 019b 8C3E715B 		.ascii	"\214>q[\012?\364\226\312\373\014/\036\351\243\342\023"
 379      0A3FF496 
 379      CAFB0C2F 
 379      1EE9A3E2 
 379      13
 380 01ac CFBCBB6C 		.ascii	"\317\274\273lr\011\244\303\025\275Q\023k\011\302*\340"
ARM GAS  /tmp/ccCJBSpW.s 			page 29


 380      7209A4C3 
 380      15BD5113 
 380      6B09C22A 
 380      E0
 381 01bd 7EF72AE5 		.ascii	"~\367*\345\335&\321j\332\233l\264\227DT\312k9\032d\256"
 381      DD26D16A 
 381      DA9B6CB4 
 381      974454CA 
 381      6B391A64 
 382 01d2 3432ED05 		.ascii	"42\355\005nC>\250\362\3246\321\324\034\335\002=\216"
 382      6E433EA8 
 382      F2D436D1 
 382      D41CDD02 
 382      3D8E
 383 01e4 BCC8CC81 		.ascii	"\274\310\314\201\276\246R\365@\310!a\011\340\335I\230"
 383      BEA652F5 
 383      40C82161 
 383      09E0DD49 
 383      98
 384 01f5 6D39E1B6 		.ascii	"m9\341\266.{\237\313;M\251\016P\244\206\023zP'F\323"
 384      2E7B9FCB 
 384      3B4DA90E 
 384      50A48613 
 384      7A502746 
 385 020a 16A0C5FE 		.ascii	"\026\240\305\376\260rIT0\\\213e\317gjI\243R[L\253\023"
 385      B0724954 
 385      305C8B65 
 385      CF676A49 
 385      A3525B4C 
 386 0220 4CB73564 		.ascii	"L\2675d(T'\215\263\322\267Wv\241\2743U\311J\025\370"
 386      2854278D 
 386      B3D2B757 
 386      76A1BC33 
 386      55C94A15 
 387 0235 A3DFD0F8 		.ascii	"\243\337\320\370\332\373\375\246\301p\364\312OU\376"
 387      DAFBFDA6 
 387      C170F4CA 
 387      4F55FE
 388 0244 D75DE974 		.ascii	"\327]\351t\346\350@\361l\361\344\351\314\205\341\314"
 388      E6E840F1 
 388      6CF1E4E9 
 388      CC85E1CC 
 389 0254 D0486678 		.ascii	"\320Hfx(\227\311\015\344/\346\317\217\014\247sd\347"
 389      2897C90D 
 389      E42FE6CF 
 389      8F0CA773 
 389      64E7
 390 0266 8BE7D207 		.ascii	"\213\347\322\007\003\354\321\300?V8.\267"
 390      03ECD1C0 
 390      3F56382E 
 390      B7
 391              		.text
 392              		.section	.gnu.lto_chEvtWaitOne.bcf7a26b897fba71,"",%progbits
 393 0000 789C9D53 		.ascii	"x\234\235SMHUQ\020\2369\347\336\367\253\346&A\242\020"
 393      4D485551 
 393      109E39E7 
 393      DEF7ABE6 
ARM GAS  /tmp/ccCJBSpW.s 			page 30


 393      2641A210 
 394 0014 5B14093E 		.ascii	"[\024\011>Z\267h\321\252UAJ\266\324\233<\357\342U\250"
 394      5AB768D1 
 394      AA55414A 
 394      B6D49B3C 
 394      EFE255A8 
 395 0028 B469E179 		.ascii	"\264i\341y?Q\364\243f\005\365\214\322\004+\211\"(\202"
 395      3F51F4A3 
 395      6605F58C 
 395      D2042B89 
 395      222882
 396 003b 7EE8052D 		.ascii	"~\350\005-4{\210\270\310n\004\217\012Z\270iY!\335f\356"
 396      347B88B8 
 396      C86E048F 
 396      0A5AB869 
 396      5921DD66 
 397 0050 DF7B95E0 		.ascii	"\337{\225\340\255\201{\346\3149\363\315\3147g\256\000"
 397      AD817BE6 
 397      CC39F3CD 
 397      CC3767AE 
 397      00
 398 0061 017F4A8A 		.ascii	"\001\177J\212\276S:\300v6\"\200\344\201BH\000%4Z4\211"
 398      BE533AC0 
 398      76362280 
 398      E4814248 
 398      0025345A 
 399 0077 A4504372 		.ascii	"\244PCrA\035\221\234\020\206\204\324t\034:\304\026\304"
 399      411D919C 
 399      108684D4 
 399      741C3AC4 
 399      16C4
 400 0089 5B6152A9 		.ascii	"[aR\251\261\312\311\251%\274z\251T\230P\253\266\215"
 400      B1CAC9A9 
 400      25BC7AA9 
 400      549850AB 
 400      B68D
 401 009b 68F2A581 		.ascii	"h\362\245\201\320E;lq\024\007\254\025\027XzP\034n>3"
 401      D0453B6C 
 401      711407AC 
 401      1517587A 
 401      501C6E3E 
 402 00b0 911B553F 		.ascii	"\221\033U?\011\027\036\366\310z=\211jLe\277\332\366"
 402      09171EF6 
 402      C87A3D89 
 402      6A4C65BF 
 402      DAF6
 403 00c2 86F0B0C7 		.ascii	"\206\360\260\307\326\345\377\310\246>|\336?\253\012"
 403      D6E5FFC8 
 403      A63E7CDE 
 403      3FAB0A
 404 00d1 25DBDE1D 		.ascii	"%\333\336\035\036\363\366\2371\305\322sk\256\226\225"
 404      1EF3F69F 
 404      31C5D273 
 404      6BAE9695 
 405 00e1 0CC9EA82 		.ascii	"\014\311\352\2025\334\254\252\2544\001[1\034\362\242"
 405      35DCACAA 
 405      AC34015B 
ARM GAS  /tmp/ccCJBSpW.s 			page 31


 405      311CF2A2 
 406 00f1 35528B94 		.ascii	"5R\213\224\002\266\255\207\274/J\025\333^}\361\375\343"
 406      02B6AD87 
 406      BC2F4A15 
 406      DB5E7DF1 
 406      FDE3
 407 0103 0D6C6A40 		.ascii	"\015lj@\350\306\031l\245\321\352\306\333\244%\020[\015"
 407      E8C6196C 
 407      A5D1EAC6 
 407      DBA42510 
 407      5B0D
 408 0115 3308BA77 		.ascii	"3\010\272w\023\341\223\250g\304\330\210{F\202\215$/"
 408      13E193A8 
 408      67C4D888 
 408      7B46828D 
 408      242F
 409 0127 75BCD483 		.ascii	"u\274\324\203\303\230\200\005\245F[\334x\256\247\323"
 409      C3988005 
 409      A5465BDC 
 409      78AEA7D3 
 410 0137 07920E67 		.ascii	"\007\222\016g\355\3441\225e\310YWn\256`7\336\245\361"
 410      EDE43195 
 410      65C85957 
 410      6EAE6037 
 410      DEA5F1
 411 014a 4CA36883 		.ascii	"L\243h\203\031Er\220\032\320\006;L\324\307\241\230U"
 411      19457290 
 411      1AD0063B 
 411      4CD4C7A1 
 411      9855
 412 015c AAD1C4C8 		.ascii	"\252\321\304\310\011\370\241N\363.\232q\206\230yE\035"
 412      09F8A14E 
 412      F32E9A71 
 412      86987945 
 412      1D
 413 016d 363D089E 		.ascii	"6=\010\236\3666\260\000\371\312\331\363Q7,@\000\215"
 413      F636B000 
 413      F9CAD9F3 
 413      51372C40 
 413      008D
 414 017f 199E8B89 		.ascii	"\031\236\213\211q\000';\315\274\237]:)%\245\244\320"
 414      7100273B 
 414      CDBC9F5D 
 414      3A2925A5 
 414      A4D0
 415 0191 09AA8653 		.ascii	"\011\252\206Sh^h\377\277+C\376i\276\311\207\350\204"
 415      685E68FF 
 415      BF2B43FE 
 415      69BEC987 
 415      E884
 416 01a3 4AB3CF2C 		.ascii	"J\263\317,\274\372\362r\274(\203\213.w4\253\322\311"
 416      BCFAF272 
 416      BC28838B 
 416      2E7734AB 
 416      D2C9
 417 01b5 8D61C6F3 		.ascii	"\215a\306\363\313S+\302\365\363\350\35629\267\263\335"
 417      CB532BC2 
ARM GAS  /tmp/ccCJBSpW.s 			page 32


 417      F5F3E8EE 
 417      3239B7B3 
 417      DD
 418 01c6 696272ED 		.ascii	"ibr\355\002\244\247]\333I\272\000\205\312H9\361\027"
 418      02A4A75D 
 418      DB49BA00 
 418      85CA4839 
 418      F117
 419 01d8 CD3AC32B 		.ascii	"\315:\303+\227\361\365\374D\015\036\333\351O\001\333"
 419      97F1F5FC 
 419      440D1EDB 
 419      E94F01DB 
 420 01e8 4868B65B 		.ascii	"Hh\266[|H\224Pi\317\207\370h.\237;\371\225\207\272\357"
 420      7C489450 
 420      69CF87F8 
 420      682E9F3B 
 420      F99587BA 
 421 01fd 124B7387 		.ascii	"\022Ks\207\031\026\264\"^=\315Y\337\246\337\013\377"
 421      1916B422 
 421      5E3DCD59 
 421      DFA6DF0B 
 421      FF
 422 020e 22E1726E 		.ascii	"\"\341rn\014QE\356Y\376IPy2\355\276\036\225v/8\254K"
 422      0C5145EE 
 422      59FE4950 
 422      7932EDBE 
 422      1E95762F 
 423 0225 333CE938 		.ascii	"3<\3518\357\255\355\356z\341\011\352\016\314\265\362"
 423      EFADEDEE 
 423      7AE109EA 
 423      0ECCB5F2 
 424 0235 9A03237F 		.ascii	"\232\003#\177\033\230\271\345[\233\374\224\365N\035"
 424      1B98B9E5 
 424      5B9BFC94 
 424      F54E1D
 425 0244 00EF00E9 		.ascii	"\000\357\000\351\301\305\233\305\215\324\"yni37\207"
 425      C1C59BC5 
 425      8DD42279 
 425      6E693337 
 425      87
 426 0255 C2C879C8 		.ascii	"\302\310y\310\306\000\016s\242E\310V\256g\002\244\313"
 426      C6000E73 
 426      A245C856 
 426      AE6702A4 
 426      CB
 427 0266 AB83BBC2 		.ascii	"\253\203\273\302U\264\264\267\247\366\364\231=\346\276"
 427      55B4B4B7 
 427      A7F6F499 
 427      3DE6BE
 428 0275 03A9A303 		.ascii	"\003\251\243\003\251\376\301\324@\277\2212\372z\217"
 428      A9FEC1D4 
 428      40BF9132 
 428      FA7A8F
 429 0284 F71E191C 		.ascii	"\367\036\031\034h7@\032\203\3070\363\013\260H@\202"
 429      6837401A 
 429      83C730F3 
 429      0BB04840 
ARM GAS  /tmp/ccCJBSpW.s 			page 33


 429      82
 430              		.text
 431              		.section	.gnu.lto_chEvtWaitAny.bcf7a26b897fba71,"",%progbits
 432 0000 789C9D53 		.ascii	"x\234\235SMh\023Q\020\236yo7\331$U{\261RD\011\365\240"
 432      4D681351 
 432      109E796F 
 432      37D92455 
 432      7BB15244 
 433 0017 58C8E2D9 		.ascii	"X\310\342\331\203\007O\236\024l\261\036\323\265l\367"
 433      83074F9E 
 433      146CB11E 
 433      D3B56CF7 
 434 0027 10952678 		.ascii	"\020\225&x\361\320\227\237\203\010\326\"\212\265AhO"
 434      F1D0979F 
 434      8308D622 
 434      8AB54168 
 434      4F
 435 0038 E20F162D 		.ascii	"\342\017\026-TP\017\021\024\032J(\342\241&\251\020T"
 435      54500F11 
 435      141A4A28 
 435      E2A126A9 
 435      1054
 436 004a F0500F1E 		.ascii	"\360P\017\036\255\250\353\274\335\267\333\250\205F\007"
 436      ADA8EBBC 
 436      DDB7DBA8 
 436      854607
 437 0059 F6CD7BFB 		.ascii	"\366\315{\373\276of\276\235Y\006\014\3764\223\236]:"
 437      BE6F66BE 
 437      9D59060C 
 437      FE34939E 
 437      5D3A
 438 006b C0017988 		.ascii	"\300\001y\210\000\022\002\031\343\000\202i\264h\034"
 438      00120219 
 438      E3008269 
 438      B4681C
 439 007a C9A18604 		.ascii	"\311\241\206\004A\035\221@\010\343\214k:\216\237\226"
 439      411D9140 
 439      08E38C6B 
 439      3A8E9F96 
 440 008a 2730FA60 		.ascii	"'0\372`V\210k\255W\217\337\340\255\353\225\322\214\370"
 440      56886BAD 
 440      578FDFE0 
 440      ADEB95D2 
 440      8CF8
 441 009c EEBA888E 		.ascii	"\356\272\210\216\274\264\020\206h\207I\317\311\200\355"
 441      BCB41086 
 441      688749CF 
 441      C980ED
 442 00ab E6132BB7 		.ascii	"\346\023+\267\313\023\275\227g\012\223\342'\361:\247"
 442      CB13BD97 
 442      670A93E2 
 442      27F13AA7 
 443 00bb 3D6ADEF8 		.ascii	"=j\336\370\017\232x\367\361\304\242(U\\\367H\347\234"
 443      0F9A78F7 
 443      F1C4A228 
 443      555CF748 
 443      E79C
ARM GAS  /tmp/ccCJBSpW.s 			page 34


 444 00cd 957FE64C 		.ascii	"\225\177\346LW\2364\253\263H\334\374\027\327\335\341"
 444      579E34AB 
 444      B348DCFC 
 444      17D7DDE1 
 445 00dd 20EF50D5 		.ascii	" \357P\325\217\306D\257\330P\2451\330\207\2351\335\306"
 445      8FC644AF 
 445      D850A531 
 445      D8879D31 
 445      DDC6
 446 00ef D5762667 		.ascii	"\325v&g\260\177+\346\034\253\264\\wue\375\375*\366t"
 446      B07F2BE6 
 446      1CABB45C 
 446      777565FD 
 446      FD2AF674 
 447 0103 21A4F12E 		.ascii	"!\244\361.\366\321\214\244\361\016y\016\244V\303\014"
 447      F6D18CA4 
 447      F10E790E 
 447      A456C30C 
 448 0113 82AE6E22 		.ascii	"\202\256n\"\362MT\035\014y\210\311%.\227\004x\"\011"
 448      F24D541D 
 448      0C7988C9 
 448      252E9704 
 448      782209
 449 0126 5B126232 		.ascii	"[\022b2\351\207\360\221\236t\262\001o\035\224#\306k"
 449      E987F091 
 449      9E74B201 
 449      6F1D9423 
 449      C66B
 450 0138 5068BC9D 		.ascii	"Ph\274\235[\3034\336\247\321\262\221\365\303=Av\212"
 450      5BC334DE 
 450      A7D1B291 
 450      F5C33D41 
 450      768A
 451 014a 34F7C341 		.ascii	"4\367\303A\007\3652L\347\205\350v0r\021\276\211Kr\027"
 451      07F5324C 
 451      E785E876 
 451      307211BE 
 451      894B7217 
 452 015e CD780328 		.ascii	"\315x\003(\245D=\001\303\010\312\253\015,C\261U\275"
 452      A5443D01 
 452      C308CAAB 
 452      0D2C43B1 
 452      55BD
 453 0170 12F5C302 		.ascii	"\022\365\303\002\204T\303R\020\007c\000^v\232\327 ;"
 453      8454C352 
 453      10076300 
 453      5E769AD7 
 453      203B
 454 0182 F752724A 		.ascii	"\367RrJI\241\343T\215L\241\251\320\301?S\203\342\263"
 454      49A1E354 
 454      8D4CA1A9 
 454      D0C13F53 
 454      83E2B3
 455 0195 624F40D1 		.ascii	"bO@\321\211eK\314\"\274\374\364\342f\231\207\027C\376"
 455      89654BCC 
 455      22BCFCF4 
 455      E2669987 
ARM GAS  /tmp/ccCJBSpW.s 			page 35


 455      1743FE
 456 01a8 346ED8A0 		.ascii	"4n\330\240\3740R\361\322\324\374\032\363qJ\356aG\346"
 456      FC3052F1 
 456      D2D4FC1A 
 456      F3714AEE 
 456      6147E6
 457 01bb F6B6871C 		.ascii	"\366\266\207\034Ll^\000W\336?{I\227\241\324\252\325"
 457      4C6C5E00 
 457      57DE3F7B 
 457      4997A1D4 
 457      AAD5
 458 01cd E27FC9EC 		.ascii	"\342\177\311\354\262T\271\222\277M6f\273R;\377!T\033"
 458      B254B992 
 458      BF4D3666 
 458      BB523BFF 
 458      21541B
 459 01e0 E958EDDE 		.ascii	"\351X\355\336\200\022%\226\2550\244GS\035\234Zh\262"
 459      80122596 
 459      AD30A447 
 459      531D9C5A 
 459      68B2
 460 01f2 0062F83A 		.ascii	"\000b\370:\272;\210\\x^|\032V\023\263eg\274t\017\303"
 460      BA3B885C 
 460      785E7C1A 
 460      5613B365 
 460      67BC740F 
 461 0207 97C4356C 		.ascii	"\227\3045l\325\251c\355_l\253\360D\365\207\240^\333"
 461      D5A963ED 
 461      5F6CABF0 
 461      44F587A0 
 461      5EDB
 462 0219 7408F86F 		.ascii	"t\010\370oCP\375\272\260;H\231\260\375\011\251\003R"
 462      4350FDBA 
 462      B03B4899 
 462      B0FD09A9 
 462      0352
 463 022b 13D983FA 		.ascii	"\023\331\203\372N\222\315?\327\367H\301\024\206/A\336"
 463      4E92CD3F 
 463      D7F748C1 
 463      14862F41 
 463      DE
 464 023c 00382313 		.ascii	"\0008#\023\275\206|\253\231\011\231\276\256\001\311"
 464      BD867CAB 
 464      990999BE 
 464      AE01C9
 465 024b 97552453 		.ascii	"\227U$S)\363\350\2503\354\034?i\236\313\232c93;f\231"
 465      29F3E8A8 
 465      33EC1C3F 
 465      699ECB9A 
 465      6339333B 
 466 0261 D6E8C885 		.ascii	"\326\350\310\205\221\263\271l\312\002n\345\316c\346"
 466      91B3B96C 
 466      CA026EE5 
 466      CE63E6
 467 0270 17157129 		.ascii	"\027\025q),"
 467      2C
 468              		.text
ARM GAS  /tmp/ccCJBSpW.s 			page 36


 469              		.section	.gnu.lto_chEvtWaitAll.bcf7a26b897fba71,"",%progbits
 470 0000 789C9552 		.ascii	"x\234\225R=L\024A\024~of\367v\001Q:Cl.\230XHr\033k\013"
 470      3D4C1441 
 470      147E6F66 
 470      F7760151 
 470      3A436C2E 
 471 001b 0B2B2B4D 		.ascii	"\013++M\340\202\226\260\222c\013\324p\027\033\013\346"
 471      E08296B0 
 471      92630BD4 
 471      70171B0B 
 471      E6
 472 002c EEB63024 		.ascii	"\356\2660$\030\242\220\000Z@a\214\026\332\0225\262%"
 472      18A29000 
 472      5A40618C 
 472      16DA1235 
 472      B225
 473 003e E672B958 		.ascii	"\346r\271XI\274\210\227\323\016\013-,4\304\365\275\331"
 473      49BC8897 
 473      D30E0B2D 
 473      2C34C4F5 
 473      BDD9
 474 0050 1F4E25E1 		.ascii	"\037N%\341\230dg\336\314\276\357}\3377o\004\010\370"
 474      986467DE 
 474      CCBEEF7D 
 474      DF376F04 
 474      08F8
 475 0062 7738F48D 		.ascii	"w8\364\215\031\000gx\223\001\244\014\024B\002(A\247"
 475      19006778 
 475      9301A40C 
 475      14420228 
 475      41A7
 476 0074 CA90480B 		.ascii	"\312\220H\013\032h\322l\"R\022\302\254\220\206\211\263"
 476      1A68D26C 
 476      225212C2 
 476      AC908689 
 476      B3
 477 0085 D77807D6 		.ascii	"\327x\007\326\020\254+u\277\365x\263\211+\213\201\277"
 477      10AC2B75 
 477      BFF578B3 
 477      892B8B81 
 477      BF
 478 0096 A6F6C210 		.ascii	"\246\366\302\020\321\343\237.\302U\2120\253\027.\330"
 478      D1E39F2E 
 478      C2558A30 
 478      AB172ED8 
 479 00a6 3922A0FA 		.ascii	"9\"\240\372\376\345\312\226\362\2030\274\3205&x\260"
 479      FEE5CA96 
 479      F28330BC 
 479      D0352678 
 479      B0
 480 00b7 B33438B7 		.ascii	"\26348\267VYP\277\211\253{\252\217G\247R\357\217\214"
 480      565950BF 
 480      89AB7BAA 
 480      8F47A752 
 480      EF8F8C
 481 00ca 590D5676 		.ascii	"Y\015Vv\336\256#a\313\337\302\360\204\207\262KW?\232"
 481      DEAE2361 
ARM GAS  /tmp/ccCJBSpW.s 			page 37


 481      CBDFC2F0 
 481      8487B24B 
 481      573F9A
 482 00dd F706D5BE 		.ascii	"\367\006\325\276+C\300i<\004\371B\004\2550|\364\351"
 482      2B43C069 
 482      3C04F942 
 482      04AD307C 
 482      F4E9
 483 00ef 677B1E4F 		.ascii	"g{\036O\366 \214\343\023\034\2426\223V\211\323\010\006"
 483      F6208CE3 
 483      131CA236 
 483      935689D3 
 483      0806
 484 0101 47264F19 		.ascii	"G&O\031\236,\236l\320\222\350\330Wj!\033A\264D\032\243"
 484      9E2C9E6C 
 484      D092E8D8 
 484      576A211B 
 484      41B4441A 
 485 0116 7ACEF33B 		.ascii	"z\316\363;\220u\250|\330~\263\213\343\370\224\372_@"
 485      9075A87C 
 485      D87EB38B 
 485      E3F894FA 
 485      5F40
 486 0128 1C86678A 		.ascii	"\034\206g\212\306\030i\033\206\263\036\232\017a\265"
 486      C618691B 
 486      86B31E9A 
 486      0F61B5
 487 0137 ACD48087 		.ascii	"\254\324\200\207\231;\360K\335\345\310\232\326\257\204"
 487      993BF04B 
 487      DDE5C89A 
 487      D6AF84
 488 0146 C55A5AE2 		.ascii	"\305ZZ\342\004B\274\306\0014\240\332\332\233\267\242"
 488      0442BCC6 
 488      0134A0DA 
 488      DA9BB7A2 
 489 0156 B20029D4 		.ascii	"\262\000)\324v\343\024\017{\000\230}\203\036U\302.4"
 489      76E3140F 
 489      7B00987D 
 489      831E55C2 
 489      2E34
 490 0168 A5244A2A 		.ascii	"\245$J*\335Kj\230\302\210K'\017\273\016\325W\325v\212"
 490      DD4B6A98 
 490      C2884B27 
 490      0FBB0ED5 
 490      57D5768A 
 491 017c 31085660 		.ascii	"1\010V`\263[\340\177-\367w\034\313\375;\314\363\206"
 491      B35BE07F 
 491      2DF7771C 
 491      CBFD3BCC 
 491      F386
 492 018e CDD6B637 		.ascii	"\315\326\2667wE\224\023;=O\204qx\316\303\276\203\271"
 492      77459413 
 492      3B3D4F84 
 492      7178CEC3 
 492      BE83B9
 493 01a1 65BC467B 		.ascii	"e\274F{]\272\001~+\254\367\376\347\360\230\033+e|\177"
 493      5DBA017E 
ARM GAS  /tmp/ccCJBSpW.s 			page 38


 493      2BACF7FE 
 493      E7F0981B 
 493      2B657C7F 
 494 01b5 1F193D9E 		.ascii	"\037\031=\236h0\342\013\337h7E\242\323\214\270\007\272"
 494      6830E20B 
 494      DF683745 
 494      A2D38CB8 
 494      07BA
 495 01c7 B05D795D 		.ascii	"\260]y]}\231\332\316h\021\372.\236\247\207\026\325\243"
 495      7D99DACE 
 495      6811FA2E 
 495      9EA78716 
 495      D5A3
 496 01d9 5F3AF952 		.ascii	"_:\371R\247\313\303\312\027\270\221\334\263\271\306"
 496      A7CBC3CA 
 496      17B891DC 
 496      B3B9C6
 497 01e8 813D937F 		.ascii	"\201=\223\177\365\254\266\374\371TBi\247\367\234g\224"
 497      F5ACB6FC 
 497      F9544269 
 497      A7F79C67 
 497      94
 498 01f9 AC41D906 		.ascii	"\254A\331\006\270\316u\337A*\314\216RF\271\371\314\230"
 498      B8CE75DF 
 498      412ACC8E 
 498      5246B9F9 
 498      CC98
 499 020b CDE59C8B 		.ascii	"\315\345\234\213S\336\204wy\304\271YtfJNq\306u\334\251"
 499      53DE8477 
 499      79C4B959 
 499      74664A4E 
 499      71C675DC 
 500 0220 C9DB9337 		.ascii	"\311\333\2237J\305\234\013\322-\335\372\003\322\236"
 500      4AC59C0B 
 500      D22DDDFA 
 500      03D29E
 501 022f FC86     		.ascii	"\374\206"
 502              		.text
 503              		.section	.gnu.lto_chEvtWaitOneTimeout.bcf7a26b897fba71,"",%progbits
 504 0000 789C9D55 		.ascii	"x\234\235UMHTQ\024>\347\276\277\231\361gF\243@\242\020"
 504      4D485451 
 504      143EE7BE 
 504      BF99F167 
 504      46A340A2 
 505 0015 5B14090E 		.ascii	"[\024\011\016\256]\264h\325\252\240D[\352$\343[X\241"
 505      AE5DB468 
 505      D5AAA044 
 505      5BEA24E3 
 505      5B58A1
 506 0028 D2A6856F 		.ascii	"\322\246\205o\234\021\"Bm*0\245\324UX\224\264\210\244"
 506      9C112242 
 506      6D2A30A5 
 506      D4555894 
 506      B488A4
 507 003b 025FD0C2 		.ascii	"\002_\320\302\232l\010\213\374\213\021*Z\330\"\012\264"
 507      9A6C088B 
 507      FC8B112A 
ARM GAS  /tmp/ccCJBSpW.s 			page 39


 507      5AD8220A 
 507      B4
 508 004c D47C9D7B 		.ascii	"\324|\235{\337\217\243\010\276\2720\367\236s\357\367"
 508      DF8FA308 
 508      BEBA30F7 
 508      9E73EFF7 
 509 005c 9DBF7BEE 		.ascii	"\235\277{\356\033\006\014\266\216:\372\275Q\001\016"
 509      1B060CB6 
 509      8E3AFABD 
 509      51010E
 510 006b 71250448 		.ascii	"q%\004H\010dL\0020X\200&Yb2\227\025.\313\030\244S\205"
 510      08644C02 
 510      30588026 
 510      59623297 
 510      152ECB18 
 511 0082 A97C47E3 		.ascii	"\251|G\343;\252\330\321\220\240\030\020r\020\221\014"
 511      3BAAD8D1 
 511      90A01810 
 511      7210910C 
 512 0092 21743049 		.ascii	"!t0IVT-\020\304\216\323(lW\300\260a\244\027\272~N\341"
 512      56542D10 
 512      C48ED328 
 512      6C57C0B0 
 512      61A417BA 
 513 00a9 CDEB666A 		.ascii	"\315\353fj\310X\263,D\235\037\306\020\352I\302r\261"
 513      C858B32C 
 513      449D1FC6 
 513      10EA49C2 
 513      72B1
 514 00bb 708FF943 		.ascii	"p\217\371C\020\373\315\207\271\3140\032i#\361\335\262"
 514      10FBCD87 
 514      B9CC301A 
 514      6923F1DD 
 514      B2
 515 00cc C23A4ABE 		.ascii	"\302:J\276h\275\346\343\334\355\262\313C\235\275\306"
 515      68BDE6E3 
 515      DCEDB2CB 
 515      439DBDC6 
 516 00dc 3AB9D351 		.ascii	":\271\323Q\366EK\233\343\203\335\3714\177A\246\315\251"
 516      F6454B9B 
 516      E383DDF9 
 516      347F41A6 
 516      CDA9
 517 00ee DCABFC20 		.ascii	"\334\253\374 \375\322\336\347n\374\2077\343\343\347"
 517      FDD2DEE7 
 517      6EFC8737 
 517      E3E3E7
 518 00fd 131346CA 		.ascii	"\023\023F\312\264\254#\3769\037\376\235c^\315u\227\031"
 518      B4AC23FE 
 518      391FFE9D 
 518      635ECD75 
 518      9719
 519 010f 1BE1290C 		.ascii	"\033\341)\014\016\240?\346\265\\O>Sbpp'\346(3\027,k"
 519      0EA03FE6 
 519      B55C4F3E 
 519      53627070 
 519      27E62833 
ARM GAS  /tmp/ccCJBSpW.s 			page 40


 520 0126 6DF9D195 		.ascii	"m\371\321\225o\270\316v!4\340=\254\240\326%\272D\312"
 520      6FB8CE76 
 520      2134E03D 
 520      ACA0D625 
 520      BA44CA
 521 0139 08293229 		.ascii	"\010)2)\240`\013\202\352\034k\244P\033\022&H\223\034"
 521      A0600B82 
 521      EA1C6BA4 
 521      501B1226 
 521      48931C
 522 014c E2520147 		.ascii	"\342R\001G\025:\200\"\256\024;J\230+\021>\225\360\251"
 522      153A8022 
 522      AE143B4A 
 522      982B113E 
 522      95F0A9
 523 015f 14443F81 		.ascii	"\024D?\201\002)j\231r\333\207\215\024\025\242qJ\314"
 523      02296A99 
 523      72DB878D 
 523      1415A271 
 523      4ACC
 524 0171 B5FC7D48 		.ascii	"\265\374}H\223\3209\333\367c\021\033\360>*\020G\251"
 524      93D039DB 
 524      F763111B 
 524      F03E2A10 
 524      47A9
 525 0183 12EE1A34 		.ascii	"\022\356\0324\352\2504\225pXGu\000\372\023\206\021\321"
 525      EAA83495 
 525      70584775 
 525      00FA1386 
 525      11D1
 526 0195 51BB082B 		.ascii	"Q\273\010+\306%.\005Z8Wd\034\020y6\"8\253#@\026\222"
 526      C6252E05 
 526      5A385764 
 526      1C107936 
 526      2238AB23 
 527 01ac 0B991ECD 		.ascii	"\013\231\036\3156\013\340Q\2031\007\242c\010@x\247G"
 527      360BE051 
 527      833107A2 
 527      63084078 
 527      A747
 528 01be E47A9785 		.ascii	"\344z\227\205K\211\\\222\351\002\212\206\273P\034\323"
 528      4B895C92 
 528      E9028A86 
 528      BB501CD3 
 529 01ce EE839F84 		.ascii	"\356\203\237\204\344\323\344\036\227\242\022+\3161\023"
 529      E4D3E41E 
 529      97A2122B 
 529      CE3113
 530 01dd F0E2EBF3 		.ascii	"\360\342\353\363\201A\311;\250\267\273oc\324\362\302"
 530      8141C93B 
 530      A8B7BB6F 
 530      63D4F2C2 
 531 01ed 4802776B 		.ascii	"H\002wk\260\320\305i\333\340\350\032%\236A6\033\332"
 531      B0D0C569 
 531      DBE0E81A 
 531      259E4136 
 531      1BDA
ARM GAS  /tmp/ccCJBSpW.s 			page 41


 532 01ff 2E03B629 		.ascii	".\003\266)\203\261\276\245\032\327X\200\033\2236\014"
 532      83B1BEA5 
 532      1AD75880 
 532      1B93360C 
 533 020f 29768933 		.ascii	")v\2113\323K\213\314\3068\365\255\321\275RW\353X\270"
 533      D34B8BCC 
 533      C638F5AD 
 533      D1BD5257 
 533      EB58B8
 534 0222 7DC692B3 		.ascii	"}\306\222\263\332]%\262\314B\327\302\334h\330\365\027"
 534      DA5D25B2 
 534      CC42D7C2 
 534      DC68D8F5 
 534      17
 535 0233 F4C22A8A 		.ascii	"\364\302*\2129pn\2408\304\023\3231,\312\362%Q\355\341"
 535      39706EA0 
 535      38C413D3 
 535      312CCAF2 
 535      2551EDE1 
 536 0247 EBEDEF46 		.ascii	"\353\355\357F~\262\252\223\354\274\257d\307\226\275"
 536      7EB2AA93 
 536      ECBCAF64 
 536      C796BD
 537 0256 64435B92 		.ascii	"dC[\222\325\234~\372\265\374\311\273\321\002\3377\272"
 537      D59C7EFA 
 537      B5FCC9BB 
 537      D102DF37 
 537      BA
 538 0267 DFA514C6 		.ascii	"\337\245\024\3069Pq\255\006l\253#\311;\343\212\013)"
 538      395071AD 
 538      066CAB23 
 538      C93BE38A 
 538      0B29
 539 0279 8AF32EE2 		.ascii	"\212\363.\3424\357\272\2137v;g\247W\346\230{\020\266"
 539      34EFBA8B 
 539      37763B67 
 539      A757E698 
 539      7B10B6
 540 028c CB1CF111 		.ascii	"\313\034\361\021E\347\263\344\023/\362\010\331tB{\340"
 540      45E7B3E4 
 540      132FF208 
 540      D974427B 
 540      E0
 541 029d 6D96903D 		.ascii	"m\226\220=:\022\340c\371\027\272\223y\242\332\217b1"
 541      3A12E063 
 541      F917BA93 
 541      79A2DA8F 
 541      6231
 542 02af BBEDA3D8 		.ascii	"\273\355\243\330\\\345\227c\253{]\227\245\"\016\200"
 542      5CE59763 
 542      AB7B5D97 
 542      A5220E80 
 543 02bf 19406A6A 		.ascii	"\031@jj\366\372\367n*\221\266\266\272\217\027\207\376"
 543      F6FAF76E 
 543      2A91B6B6 
 543      BA8F1787 
 543      FE
ARM GAS  /tmp/ccCJBSpW.s 			page 42


 544 02d0 A6A40C24 		.ascii	"\246\244\014$\250Fg\370M\274\025b\334\2666\003\214\032"
 544      A84667F8 
 544      4DBC1562 
 544      DCB63603 
 544      8C1A
 545 02e2 524EAD12 		.ascii	"RN\255\022/\244\276\343Ki`\376O\021\377\000P\2358\246"
 545      2FA4BEE3 
 545      4B6960FE 
 545      4F11FF00 
 545      509D38A6 
 546 02f6 BCAA2A7A 		.ascii	"\274\252*z\264Yo\324\217\237\214\236k\213\266\266G\333"
 546      B4596FD4 
 546      8F9F8C9E 
 546      6B8BB6B6 
 546      47DB
 547 0308 5A63D158 		.ascii	"Zc\321Xs\323\205\246\263\355mU1\220b\355\347\261\345"
 547      73D385A6 
 547      B3ED6D55 
 547      319062ED 
 547      E7B1E5
 548 031b 2FAF778B 		.ascii	"/\257w\213\015"
 548      0D
 549              		.text
 550              		.section	.gnu.lto_chEvtWaitAnyTimeout.bcf7a26b897fba71,"",%progbits
 551 0000 789C9D55 		.ascii	"x\234\235UKkSA\024>g\346\276\222\276\342FPTJ](\026\033"
 551      4B6B5341 
 551      143E67E6 
 551      BE92BEE2 
 551      4650544A 
 552 0018 BB76E1C2 		.ascii	"\273v\341\302\225+\005-\215\3136\226\364.\252\245)\""
 552      952B052D 
 552      8DCB3696 
 552      F42EAAA5 
 552      2922
 553 002a B8E86D13 		.ascii	"\270\350m\023A$\213\322*}\010R7ZbI\010\010\326\027\334"
 553      41248BD2 
 553      2A7D0852 
 553      375A6249 
 553      0808D617 
 554 003f 82844A29 		.ascii	"\202\204J)\245\270h+\024\302E\261?@!J1\236\231\373h"
 554      A5B8682B 
 554      14C245B1 
 554      3F40214A 
 554      319E99FB 
 555 0054 5A0A8D1D 		.ascii	"Z\012\215\035\310\314\231\231\357;g\2763gn\0300\330"
 555      C8CC9999 
 555      EF3B67BE 
 555      33676E18 
 555      30D8
 556 0066 DB3AE997 		.ascii	"\333:\351\227\324\000\316\212I\030\220\020\310\030\007"
 556      D400CE8A 
 556      49189010 
 556      C81807
 557 0075 B098419D 		.ascii	"\260\230A\235\302\231\"lU\330\012\206hWe\232X\321\305"
 557      C299226C 
 557      55D80A86 
 557      6857659A 
ARM GAS  /tmp/ccCJBSpW.s 			page 43


 557      58D1C5
 558 0088 8A265774 		.ascii	"\212&Wt$(\032\322\016!\222#\204!\306\025U\323\215\020"
 558      24281AD2 
 558      0E219223 
 558      8421C615 
 558      55D38D10 
 559 009c 0EDD142B 		.ascii	"\016\335\024+\020j\201\347\2265V\372\3762s|\352\261"
 559      106A81E7 
 559      963556FA 
 559      FE32737C 
 559      EAB1
 560 00ae 9D9EB1B6 		.ascii	"\235\236\261\266+\025DSl\306\021bda\263\034D\304\352"
 560      2B154453 
 560      6CC61162 
 560      6461B31C 
 560      44C4EA
 561 00c1 2689D3F6 		.ascii	"&\211\323\366\2323\177\354\321\314\310\250\365\227x"
 561      9A337FEC 
 561      D1CCC8A8 
 561      F59778
 562 00d0 26F29A68 		.ascii	"&\362\232h\243\366\246\263\305w\305Sj\"\216\331\277"
 562      A3F6A6B3 
 562      C577C553 
 562      6A228ED9 
 562      BF
 563 00e1 9C121EE2 		.ascii	"\234\022\036\342\240c\366og\235\035\206hm~\273\266h"
 563      A063F66F 
 563      679D1D86 
 563      686D7EBB 
 563      B668
 564 00f3 A5ED4AE5 		.ascii	"\245\355J\345R\355\234\265\377\347\330o\234-\234\262"
 564      52ED9CB5 
 564      FFE7D86F 
 564      9C2D9CB2 
 565 0103 AA0EA832 		.ascii	"\252\016\25028\215\265q\337:\345\335\\\316\340\314A"
 565      388DB571 
 565      DF3AE5DD 
 565      5CCEE0CC 
 565      41
 566 0114 DC3CB34B 		.ascii	"\334<\263K\225\312\334x\261\270\200\213\005\345\010"
 566      95CADC78 
 566      B1B8808B 
 566      05E508
 567 0123 421766B1 		.ascii	"B\027f\261\205\312\221\370\234&\2634Qh\002*\366!h\336"
 567      85CA91F8 
 567      9C26B334 
 567      5168022A 
 567      F62168DE 
 568 0137 B64E132A 		.ascii	"\266N\023*-\302\204\250S\302\302\252\023\250z\017\320"
 568      2DC284A8 
 568      53C2C2AA 
 568      13A87A0F 
 568      D0
 569 0148 20268DA2 		.ascii	" &\215\242k\022]\004dY\200\012i\272\371f\327\255\213"
 569      6B125D04 
 569      6459800A 
 569      69BAF966 
ARM GAS  /tmp/ccCJBSpW.s 			page 44


 569      D7AD8B
 570 015b 9499A176 		.ascii	"\224\231\241vC\366\035\242\314\3712\214|-\277\310\234"
 570      43F61DA2 
 570      CCF9328C 
 570      7C2DBFC8 
 570      9C
 571 016c ECC23954 		.ascii	"\354\3029T!\201\274\025\262\026\265NJH+\2343Q{\012\323"
 571      2181BC15 
 571      B216B54E 
 571      4A482B9C 
 571      33517B0A 
 572 0181 C3961531 		.ascii	"\303\226\0251Q\277\017\177\254\207\3022\372\004W\252"
 572      51BF0F7F 
 572      AC87C232 
 572      FA0457AA 
 573 0191 34A4B66E 		.ascii	"4\244\266n\004o\364\014X\201T\351Y\241\337u\013\020"
 573      046FF40C 
 573      588154E9 
 573      59A1DF75 
 573      0B10
 574 01a3 5043710F 		.ascii	"PCq\017bb\030@F\247\267\340GWdHN!\311u\035\235F\204"
 574      62621840 
 574      46A7B7E0 
 574      47576448 
 574      4E21C975 
 575 01bb 503DD7FE 		.ascii	"P=\327\376\273]\206\324\373\324Q\237\242\021+!0\213"
 575      BB5D86D4 
 575      FBD4519F 
 575      A2112B21 
 575      308B
 576 01cd F0E9C7C2 		.ascii	"\360\351\307\302\252s!\330\210\271U\267\323:Db\270\304"
 576      AA7321D8 
 576      88B955B7 
 576      D33A4462 
 576      B8C4
 577 01df 7D716CF4 		.ascii	"}ql\364\201\372>@\272;.$d\013\263\270\237\006\266K\303"
 577      81FA3E40 
 577      BA3B2E24 
 577      640BB3B8 
 577      9F06B64B 
 578 01f4 7C399BD1 		.ascii	"|9\233\321}wF\314}\230\276+\325\315\362\322\374\253"
 578      7D7746CC 
 578      7D98BE2B 
 578      D5CDF2D2 
 578      FCAB
 579 0206 CC7917E3 		.ascii	"\314y\027\343\245\370\242\031d\273\335\304\372\375E"
 579      A5F8A219 
 579      64BBDDC4 
 579      FAFD45
 580 0215 736F748B 		.ascii	"sot\213I\012]\201\007\245\\\341gp\376Pp\260\206\270"
 580      490A5D81 
 580      07A55CE1 
 580      6770FE50 
 580      70B086B8 
 581 0229 87171E1A 		.ascii	"\207\027\036\032\303B\233\211M25\337\207\333\003|\314"
 581      C3429B89 
 581      4D3235DF 
ARM GAS  /tmp/ccCJBSpW.s 			page 45


 581      87DB037C 
 581      CC
 582 023a FD0054EB 		.ascii	"\375\000T\353\325<\275\371\332\364N\346v\364\206\367"
 582      D53CBDF9 
 582      DAF44EE6 
 582      76F486F7 
 583 024a E8D5BDAA 		.ascii	"\350\325\275\252Z\317eN\370\230\272\232\357\365\224"
 583      5ACF654E 
 583      F898BA9A 
 583      EFF594
 584 0259 4FA94F08 		.ascii	"O\251O\010\240\352{5<\257\223\371L\253\017ip\263\027"
 584      A0EA7B35 
 584      3CAF93F9 
 584      4CAB0F69 
 584      70B317
 585 026c A9C1F3C8 		.ascii	"\251\301\363\310\207\324\273 a\215\011Q\2032\\.Xl\""
 585      87D4BB20 
 585      618D0951 
 585      83325C2E 
 585      586C22
 586 027f 7FB425C1 		.ascii	"\177\264%\301W\252\357\351 \367\011\221a\221\273\217"
 586      57AAEFE9 
 586      20F70991 
 586      6191BB8F 
 587 028f 857B07A7 		.ascii	"\205{\007\247\356s9\237\341~\314H\302}\014\033\200T"
 587      EE73399F 
 587      E17ECC48 
 587      C27D0C1B 
 587      8054
 588 02a1 AF6C7BBC 		.ascii	"\257l{\274\310H\270>7Q\344B3\375\225\360%\030&\351\267"
 588      C848B83E 
 588      3751E442 
 588      33FD95F0 
 588      251826E9 
 589 02b6 448257A5 		.ascii	"D\202W\245\231p\035n\000A\015\345\365\023\252\377\260"
 589      99701D6E 
 589      00410DE5 
 589      F513AAFF 
 589      B0
 590 02c7 969EA021 		.ascii	"\226\236\240!blO\024Q<o\352\004\250\271\255-z\271\327"
 590      626C4F14 
 590      513C6FEA 
 590      04A8B9AD 
 590      2D7AB9D7 
 591 02db EC36AF5E 		.ascii	"\3546\257^\217\336IF\007\006\243\311\201x4\336\333s"
 591      8FDE4946 
 591      0706A3C9 
 591      817834DE 
 591      DB73
 592 02ed B7E7F660 		.ascii	"\267\347\366`\262-\016<>\330\217}\377\000\333SyL"
 592      B22D0E3C 
 592      3ED88F7D 
 592      FF00DB53 
 592      794C
 593              		.text
 594              		.section	.gnu.lto_chEvtWaitAllTimeout.bcf7a26b897fba71,"",%progbits
 595 0000 789C9D53 		.ascii	"x\234\235SMHTQ\024>\347\335\3677\216cn#\0021h\221\344"
ARM GAS  /tmp/ccCJBSpW.s 			page 46


 595      4D485451 
 595      143EE7DD 
 595      F7378E63 
 595      6E230231 
 596 0017 E0BA458B 		.ascii	"\340\272E\213V\255\022J\232\226\372\022}\013KT\"h\341"
 596      56AD124A 
 596      9A96FA12 
 596      7D0B4B54 
 596      2268E1
 597 002a 1B6782A8 		.ascii	"\033g\202\250!D\012\324\010m\225H\024\203\033I\311'"
 597      21440AD4 
 597      086D9548 
 597      14831B49 
 597      C927
 598 003c C8208848 		.ascii	"\310 \210H\2534\012\006'\313E\004\202\201\3759\235s"
 598      AB340A06 
 598      27CB4504 
 598      8281FD39 
 598      9D73
 599 004e DF4F4F11 		.ascii	"\337OO\021\034\2730\347\236\271\367|\347|\337y\347*"
 599      1CBB30E7 
 599      9EB9F77C 
 599      E77CDF79 
 599      E72A
 600 0060 A0C0FED5 		.ascii	"\240\300\376\325L\277\347\032\300i\376\023\003\244\010"
 600      4CBFE71A 
 600      C069FE13 
 600      03A408
 601 006f 541401E0 		.ascii	"T\024\001\340(\006\031U(*\373\032\373*\232t\253)zx\253"
 601      28061955 
 601      282AFB1A 
 601      FB2A9A74 
 601      AB297A78 
 602 0084 CB13435A 		.ascii	"\313\023CZ\023\221R \364+B\325t\303\304\376k|\000f="
 602      13915220 
 602      F42B42D5 
 602      74C3C4FE 
 602      6B7C0066 
 603 0099 3C739CA1 		.ascii	"<s\234\241\342\306L\356\304\310#7;\356\374.\227\021"
 603      E2C64CEE 
 603      C4C82337 
 603      3BEEFC2E 
 603      9711
 604 00ab 6DBEB410 		.ascii	"m\276\264\020R\344a\235\334\270Tty@g\353S\363\242\223"
 604      52E4619D 
 604      DCB85474 
 604      794067EB 
 604      53F3A293 
 605 00bf 75CBE5F3 		.ascii	"u\313\345\363\225bF\335\357\245\351\343\367\307\007"
 605      956246DD 
 605      EFA5E9E3 
 605      F7C707
 606 00ce 069D5DAA 		.ascii	"\006\235]\252e\243\250\0106\350\376*m\212=\034\325\312"
 606      65A3A808 
 606      36E8FE2A 
 606      6D8A3D1C 
 606      D5CA
ARM GAS  /tmp/ccCJBSpW.s 			page 47


 607 00e0 38BA8F3F 		.ascii	"8\272\217?\257*\377%\356\343\221\305\0159\357\216\216"
 607      AF2AFF25 
 607      EEE391C5 
 607      0D39EF8E 
 607      8E
 608 00f1 71D74A9B 		.ascii	"q\327J\2338\342D\010j\012\234\302C\260\257\024\267X"
 608      38E24408 
 608      6A0A9CC2 
 608      43B0AF14 
 608      B758
 609 0103 2ECF3E2D 		.ascii	".\317>-\024\346\361\341\224Z\203@\255T\240\025'\260"
 609      14E6F1E1 
 609      945A8340 
 609      AD54A015 
 609      27B0
 610 0115 1E04FD01 		.ascii	"\036\004\375\001\025\273\0204\366t\362\320\340\000\223"
 610      15BB1034 
 610      F674F2D0 
 610      E00093
 611 0124 8C1A63AF 		.ascii	"\214\032c\257\212/\342l\252\331$@~\011\212\317R\263"
 611      8A2FE26C 
 611      AAD92440 
 611      7E098ACF 
 611      52B3
 612 0136 EBBC3492 		.ascii	"\353\2744\222?\255+\322\266\360\000\212e\030x?<\223"
 612      3FAD2BD2 
 612      B6F0008A 
 612      6518783F 
 612      3C93
 613 0148 3BD98A93 		.ascii	";\331\212\223\250A\007*\0150\351\320\272J\264\033\340"
 613      A841072A 
 613      0D30E9D0 
 613      BA4AB41B 
 613      E0
 614 0159 8C8DFA13 		.ascii	"\214\215\372\023\030M;N\255\215\306\035\370\351\334"
 614      184D3B4E 
 614      AD8DC61D 
 614      F8E9DC
 615 0168 63CFEC62 		.ascii	"c\317\354b\254\324aJ\366m\010\376\356;\260\002\231\342"
 615      ACD4614A 
 615      F66D08FE 
 615      EE3BB002 
 615      99E2
 616 017a B77CB797 		.ascii	"\267|\267\227\026 \204\306,?\304\306*\000\256\276C\303"
 616      162084C6 
 616      2C3FC4C6 
 616      2A00AEBE 
 616      43C3
 617 018c 1A5417B2 		.ascii	"\032T\027\262\244\240\222\224:Nl\270\204\346\247\016"
 617      A4A09294 
 617      3A4E6CB8 
 617      84E6A70E 
 618 019c 5ED43264 		.ascii	"^\3242df2\353\030`4\202u\360\364,B\366k:\0219\216\264"
 618      6632EB18 
 618      60348275 
 618      F0F42C42 
 618      F66B3A11 
ARM GAS  /tmp/ccCJBSpW.s 			page 48


 619 01b3 B885BB21 		.ascii	"\270\205\273!\026a\341\313\374V\311\015\261z\312\233"
 619      1661E1CB 
 619      FC56C90D 
 619      B17ACA9B 
 620 01c3 9F6820A1 		.ascii	"\237h \241\004\263\377\221\237\300\203\350+{\350O\257"
 620      04B3FF91 
 620      9FC083E8 
 620      2B7BE84F 
 620      AF
 621 01d4 BEC91941 		.ascii	"\276\311\031A:#\345=\200 \225\3465xix.w\326\213\361"
 621      3A23E53D 
 621      802095E6 
 621      35786978 
 621      2E77D68B 
 622 01e9 BB7BCE66 		.ascii	"\273{\316f\251\322m\262\261\372`\275\302\337=\031R\316"
 622      A9D26DB2 
 622      B1FA60BD 
 622      C2DF3D19 
 622      52CE
 623 01fb 0ADC2DFE 		.ascii	"\012\334-\376\311o\207\374\315\220X\302\362\3439CM\234"
 623      C96F87FC 
 623      CD9058C2 
 623      F2E33943 
 623      4D9C
 624 020d B5D9788C 		.ascii	"\265\331x\214\233\262\260\221n\012\343S\336C\213\352"
 624      9BB2B091 
 624      6E0AE353 
 624      DE438BEA 
 625 021d D57DBDBB 		.ascii	"\325}\275\273\225\351\335\231\373\2477\266O\257\341"
 625      95E9DD99 
 625      FBA737B6 
 625      4FAFE1
 626 022c 0FD4EA7A 		.ascii	"\017\324\352z\256!\210\251\362t\326V\360Y\007f3\257"
 626      AE2188A9 
 626      F274D656 
 626      F0590766 
 626      33AF
 627 023e 43697129 		.ascii	"Ciq)X~\353\227\341a5\345\243+\031|1\332\321\303\322"
 627      587EEB97 
 627      E16135E5 
 627      A32B197C 
 627      31DAD1C3 
 628 0253 13D49BC9 		.ascii	"\023\324\233\311\007S\267\017\027\2714]\312\211\240"
 628      0753B70F 
 628      17B9345D 
 628      CA89A0
 629 0262 66221CA4 		.ascii	"f\"\034\244\026\236v\261\004i\332\256\263\356\267\322"
 629      169E76B1 
 629      0469DAAE 
 629      B3EEB7D2 
 630 0272 EDF0267A 		.ascii	"\355\360&z\015\220&@}1V\240q\214\351\333c:a\215\017"
 630      0D902640 
 630      7D3156A0 
 630      718CE9DB 
 630      633A618D 
 631 0287 F902F28B 		.ascii	"\371\002\362\213#\3035\352\032\033\223\027:\3556\373"
 631      23C335EA 
ARM GAS  /tmp/ccCJBSpW.s 			page 49


 631      1A1B9317 
 631      3AED36FB 
 632 0297 D2E5E4CD 		.ascii	"\322\345\344\315\336dO_\262\267\307JZ\235\355\267\332"
 632      DE644F5F 
 632      B2B7C74A 
 632      5A9DEDB7 
 632      DA
 633 02a8 6FF4F536 		.ascii	"o\364\3656Z \254\276\356\277|9M\327"
 633      5A20ACBE 
 633      EEBF7C39 
 633      4DD7
 634              		.text
 635              		.section	.gnu.lto_.symbol_nodes.bcf7a26b897fba71,"",%progbits
 636 0000 789C4DD0 		.ascii	"x\234M\3209V\303@\014\006`I\223\305ql\3425\011\025g"
 636      3956C340 
 636      0C066049 
 636      93C5716C 
 636      E2350915 
 637 0015 E324322E 		.ascii	"\343$2.H\330\336\243\341\002I\001\347 =%5\244\246\201"
 637      48D8DEA3 
 637      E1024901 
 637      E7203D25 
 637      35A4A681 
 638 0029 B02F0933 		.ascii	"\260/\0113\031\201\345F\357\373\365{\336\330\004\004"
 638      1981E546 
 638      EFFBF57B 
 638      DED80404 
 639 0039 2B02FFD0 		.ascii	"+\002\377\320\006\030\340\374\006\200\371b\272O\025"
 639      0618E0FC 
 639      0680F962 
 639      BA4F15
 640 0048 322A5E22 		.ascii	"2*^\"\223\342\025\262Q|Dn\011o\247\330\256\355\241\014"
 640      93E215B2 
 640      517C446E 
 640      096FA7D8 
 640      AEEDA10C 
 641 005c F484DC6E 		.ascii	"\364\204\334nRZ!w\024\237\221\273\212\257\310\201\342"
 641      525A2177 
 641      149F91BB 
 641      8AAFC881 
 641      E2
 642 006d 3B724FF1 		.ascii	";rO\361\0059T|C\356+~ G\212\237\310\261\342\027\362"
 642      0539547C 
 642      43EE2B7E 
 642      20478A9F 
 642      C8B1E217 
 643 0082 8EE237F2 		.ascii	"\216\3427\362@\361\0079Q\\#\247\212\033\344L\261\"\316"
 643      40F10739 
 643      515C23A7 
 643      8A1BE44C 
 643      B122CE
 644 0095 150F888B 		.ascii	"\025\017\210\213\206xD\\zV\025\342\204x\330\350\224"
 644      8678445C 
 644      7A5615E2 
 644      8478D8E8 
 644      94
 645 00a6 78D4E88C 		.ascii	"x\324\350\214x\374/c\377V}\267Fc\320\317\026\31140;"
ARM GAS  /tmp/ccCJBSpW.s 			page 50


 645      78FC2F63 
 645      FF567DB7 
 645      4663D0CF 
 645      16C93430 
 646 00bb 7CD8331D 		.ascii	"|\3303\035\202\231sG\334\225}\327\300\265s \016\014"
 646      82997347 
 646      DC957DD7 
 646      C0B57320 
 646      0E0C
 647 00cd D4CE3D71 		.ascii	"\324\316=q\317\300\322\315p\010\363c\233\367CX\272}"
 647      CFC0D2CD 
 647      7008F363 
 647      9BF74358 
 647      BA7D
 648 00df 24FB28F4 		.ascii	"$\373(\364\347F#Xl\247\364c\331\307}\277\217e\037\373"
 648      E7462358 
 648      6CA7F463 
 648      D9C77DBF 
 648      8F651FFB 
 649 00f3 7D6B002B 		.ascii	"}k\000+wL\"\327J\306\260\270w\323\256'6O%O%O\355\265"
 649      774C22D7 
 649      4AC6B0B8 
 649      77D3AE27 
 649      364F254F 
 650 010b 5D9E499E 		.ascii	"]\236I\236I\236\031\177\235\\\362\334~\216\313\363]"
 650      499E197F 
 650      9D5CF2DC 
 650      7E8ECBF3 
 650      5D
 651 011c 986FF3BF 		.ascii	"\230o\363\277\275}\377\304\316Bz\205\364\012\351\025"
 651      BD7DFFC4 
 651      CE427A85 
 651      F40AE915 
 652 012c D273D37D 		.ascii	"\322s\323}f)\275Rz\245\364J\351\3319\263=\370\005Xx"
 652      6629BD52 
 652      7AA5F44A 
 652      E9D939B3 
 652      3DF80558 
 653 0141 F5F2     		.ascii	"\365\362"
 654              		.text
 655              		.section	.gnu.lto_.refs.bcf7a26b897fba71,"",%progbits
 656 0000 789C6362 		.ascii	"x\234cb`b\320e\200\000F\026\006Vfv\006V\020d\346\200"
 656      6062D065 
 656      80004616 
 656      06566676 
 656      06561064 
 657 0016 D08C0240 		.ascii	"\320\214\002@,\010\304B@,\014\304\"@,\012\224\001\000"
 657      2C08C442 
 657      402C0CC4 
 657      22402C0A 
 657      940100
 658 0029 1A5D0102 		.ascii	"\032]\001\002"
 659              		.text
 660              		.section	.gnu.lto_.decls.bcf7a26b897fba71,"",%progbits
 661 0000 789CBD5C 		.ascii	"x\234\275\\{t\024U\232\257\252\356<:\011!\274<\214\343"
 661      7B741455 
 661      9AAFAAEE 
ARM GAS  /tmp/ccCJBSpW.s 			page 51


 661      3C3A0921 
 661      BC3C8CE3 
 662 0014 AE718E3A 		.ascii	"\256q\216:;z$\200\242\370\307\216:\214\243\2363\356"
 662      3B7A2480 
 662      A2F8C78E 
 662      3A8CA39E 
 662      33EE
 663 0026 B8B29ED9 		.ascii	"\270\262\236\331\377z\212NAz\355Nz\272+<\316\236]+A"
 663      FF7A8A4E 
 663      417AED4E 
 663      7ABA2B3C 
 663      CE9E5D2B 
 664 003b 028A4A08 		.ascii	"\002\212J\010\220\3602\011\030\220\207\020D!\020\004"
 664      90F03209 
 664      18908710 
 664      44211004 
 665 004b 0A4C1008 		.ascii	"\012L\020\010\317D\023\010\220\264<\302,*\310K%\202"
 665      CF441308 
 665      90B43CC2 
 665      2C2AC84B 
 665      2582
 666 005d D9EFDEBA 		.ascii	"\331\357\336\272\325}\353vUwu@\353\234[\251\307\375"
 666      D57DEB76 
 666      55777540 
 666      EB9C5BA9 
 666      C7FD
 667 006f 7EF77BDF 		.ascii	"~\367{\337G\335\216\300\011\334X\027\307\365\301\321"
 667      47DD8EC0 
 667      09DC5817 
 667      C7F5C1D1 
 668 007f FBEF1CF7 		.ascii	"\373\357\034\367\337p}\027\307q\277\347\242\307\257"
 668      DF707D17 
 668      C771BFE7 
 668      A2C7AF
 669 008e A02C83B2 		.ascii	"\240,\203\262\022\312j(\037@\251\207R\311s\\5\224:("
 669      12CA6A28 
 669      1F40A987 
 669      52C9735C 
 669      35943A28 
 670 00a2 ABA0AC87 		.ascii	"\253\240\254\207\322\000E\205\322\014e?\224CPNC\351"
 670      D2004585 
 670      D20C653F 
 670      9443504E 
 670      43E9
 671 00b4 817201CA 		.ascii	"\201r\001\312E(\275P\372\2408\005\216K\207\222\001%"
 671      4528BD50 
 671      FAA03805 
 671      8E4B8792 
 671      0125
 672 00c6 1B0A3CE2 		.ascii	"\033\012<\342\206\010\234\341@\355\246@i\203\222\015"
 672      86089CE1 
 672      40EDA640 
 672      6983920D 
 673 00d6 250B4A00 		.ascii	"%\013J\000\352\004I=\201\324\221\031:\216\360\233\210"
 673      EA04493D 
 673      81D49119 
 673      3A8EF09B 
ARM GAS  /tmp/ccCJBSpW.s 			page 52


 673      88
 674 00e7 76A505ED 		.ascii	"v\245\005\355j\362\376\177\340\264\234\213\326_M\332"
 674      6AF2FE7F 
 674      E0B49C8B 
 674      D65F4DDA 
 675 00f7 630FA493 		.ascii	"c\017\244\223T(MT[i&\364\037\2206\221\254\377\313\264"
 675      54284D54 
 675      5B6926F4 
 675      1F903691 
 675      ACFFCBB4 
 676 010b 8B743A10 		.ascii	"\213t:\020J#\205\321Da|\004e#\224mP~\015\317\206By\035"
 676      4A2385D1 
 676      44617C04 
 676      6523946D 
 676      507E0DCF 
 677 0123 CA44002B 		.ascii	"\312D\000+\345\265\366\322\241l\205\262\013\312\335"
 677      E5B5F6D2 
 677      A16C85B2 
 677      0BCADD
 678 0132 F0EE6128 		.ascii	"\360\356a(\237\302\365k\360\276\004J\031\024\007iK\267"
 678      9FC2F56B 
 678      F0BE044A 
 678      19140769 
 678      4BB7
 679 0144 25E27B06 		.ascii	"%\342{\006\324{\033\336\315\2012\027\312<>\326\026\310"
 679      D47B1BDE 
 679      CD813217 
 679      CA3C3ED6 
 679      16C8
 680 0156 DEA90C7F 		.ascii	"\336\251\014\177:o\333\210L\250]\007\251\253\343\243"
 680      3A6FDB88 
 680      4CA85D07 
 680      A9ABE3A3 
 681 0166 FB37A0DE 		.ascii	"\3737\240\336\022x\266\2247b\"\377\3114\321\033\222"
 681      1278B694 
 681      376222FF 
 681      C934D11B 
 681      92
 682 0177 49C7A665 		.ascii	"I\307\246em&x\272l\223\211<\325L{\313\011\377\35702"
 682      6D2678BA 
 682      6C93893C 
 682      D54C7BCB 
 682      09FFEF30 
 683 018c D4DDA1F6 		.ascii	"\324\335\241\366\352\230\366V\222\366\3460\355\241\270"
 683      EA98F656 
 683      92F6E630 
 683      EDA1B8
 684 019b 403641F6 		.ascii	"@6A\3661\323Y#i\037\251\245\204`\257\242\260\261\317"
 684      31D35923 
 684      691FA9A5 
 684      8460AFA2 
 684      B0B1CF
 685 01ae C07D3983 		.ascii	"\300}9\203\213bm\000\241\325qy\"G3\221o0\\\377\026\312"
 685      8B626D00 
 685      A1D57179 
 685      22473391 
 685      6F305CFF 
ARM GAS  /tmp/ccCJBSpW.s 			page 53


 686 01c4 43C46E73 		.ascii	"C\304ns\001#E\320b\002\3111\010\312\203P$(\277\343\265"
 686      012345D0 
 686      6202C931 
 686      08CA8350 
 686      2428BFE3 
 687 01d9 B6D693B8 		.ascii	"\266\326\223\270D|T\300\337\217\340~\023c3\024\343Y"
 687      447C54C0 
 687      DF8FE07E 
 687      13633314 
 687      E359
 688 01eb 4CDB4D44 		.ascii	"L\333MD\026\335G\221\274\333\010?U\200SOx\330\312E\375"
 688      16DD4791 
 688      BCDB083F 
 688      5580534F 
 688      78D8CA45 
 689 0200 50F7CB5D 		.ascii	"P\367\313]D\316\006\222CP\333\013\341\301'p\275\235"
 689      44CE0692 
 689      4350DB0B 
 689      E1C12770 
 689      BD9D
 690 0212 691BE516 		.ascii	"i\033\345\026'\245C\035\033\035)\344\375j\"\007\312"
 690      27A5431D 
 690      1B1D29E4 
 690      FD6A2207 
 690      CA
 691 0223 2DBA7DDE 		.ascii	"-\272}\336\205\353\335\250M\006\257\231\301\253\201"
 691      85EBDDA8 
 691      4D06AF99 
 691      C1AB81
 692 0232 BF5B28BC 		.ascii	"\277[(\274f\202\327@\341!^?\203\373\275\014\326~\"#"
 692      6682D740 
 692      E1215E3F 
 692      83FBBD0C 
 692      D67E2223 
 693 0246 6D6B331B 		.ascii	"mk3\033\363\244.\3029\000\177k\031\333\242\234\231\301"
 693      F3A42EC2 
 693      39007F6B 
 693      19DBA29C 
 693      99C1
 694 0258 E817F172 		.ascii	"\350\027\361r\024\236wB\371\202\264\323\012\177\333"
 694      149E7742 
 694      F982B4D3 
 694      0A7FDB
 695 0267 080F3CA1 		.ascii	"\010\017<\241C\262.\003\2740\\w1\374\241<<\220\301E"
 695      43B22E03 
 695      BC305C77 
 695      31FCA13C 
 695      3C90C145 
 696 027b F641B6A3 		.ascii	"\366A\266\243}^\327\005\362#\344?+In\316$\276C\307\202"
 696      7D5ED705 
 696      F223E43F 
 696      2B496ECE 
 696      24BE43C7 
 697 0290 EE3F4E82 		.ascii	"\356?N\202\217t\225A\351\375,\211\213\367\031\031{~"
 697      8F749541 
 697      E9FD2C89 
 697      8BF71919 
ARM GAS  /tmp/ccCJBSpW.s 			page 54


 697      7B7E
 698 02a2 665E7A4C 		.ascii	"f^zLx\371\007\341e\025\303\313\205\237\231\227\013&"
 698      78F907E1 
 698      6515C3CB 
 698      859F9997 
 698      0B26
 699 02b4 BC7C4D78 		.ascii	"\274|MxY\315\360\202\372\307\034\023^\364\276%\036?"
 699      59CDF082 
 699      FAC71C13 
 699      5EF4BE25 
 699      1E3F
 700 02c6 6B083F03 		.ascii	"k\010?\003\023\360s\221\312/\250\337E\317\276\203g\337"
 700      13F07391 
 700      CA2FA8DF 
 700      45CFBE83 
 700      67DF
 701 02d8 139ED632 		.ascii	"\023\236\3262<\365\376\002<\365\232\360t\023\236\335"
 701      3CF5FE02 
 701      3CF59AF0 
 701      74139EDD 
 702 02e8 223C7DC0 		.ascii	"\"<}\300\360\324\367\013\360\324g\302\023\017\177\005"
 702      F0D4F70B 
 702      F0D467C2 
 702      130F7F05 
 703 02f8 41E3691D 		.ascii	"A\343i\035\303\323\275\\\265\242\036\011\317\3509#,"
 703      C3D3BD5C 
 703      B5A21E09 
 703      CFE83923 
 703      2C
 704 0309 52D4D715 		.ascii	"R\324\327\025\030R)|\356]\334\002\005\216\3322E\341"
 704      1852297C 
 704      EE5DDC02 
 704      058EDA32 
 704      45E1
 705 031b 6591FFFD 		.ascii	"e\221\377\3750\356?y\221\317vq\271\370\"\313\205q9N"
 705      30EE3F79 
 705      91CF7671 
 705      B9F822CB 
 705      8571394E 
 706 032f E497F377 		.ascii	"\344\227\363w\221\253W\034\032\242\300\215\340\271\207"
 706      91AB571C 
 706      1AA2C08D 
 706      E0B987
 707 033e B8D5405F 		.ascii	"\270\325@_\256(\245\377\314\231\035\017r+P\003\312*"
 707      AE28A5FF 
 707      CC991D0F 
 707      722B5003 
 707      CA2A
 708 0350 C581E111 		.ascii	"\305\201\341\021\3002\376^\272\212\310\277\307\033\230"
 708      C032FE5E 
 708      BA8AC8BF 
 708      C71B98
 709 035f D55855CB 		.ascii	"\325XU\313\273\263\312K\302}}5\2659Z\363\002\367\024"
 709      BBB3CA4B 
 709      C27D7D35 
 709      B5395AF3 
 709      02F714
ARM GAS  /tmp/ccCJBSpW.s 			page 55


 710 0372 0FB5EBF8 		.ascii	"\017\265\353\370\207\342\302\257d\341\3377\203\017o"
 710      87E2C2AF 
 710      64E1DF37 
 710      830F6F
 711 0381 2E3B9542 		.ascii	".;\225BiBo\302o\247\211\325l\023kL%X\332\021#\301\024"
 711      69426FC2 
 711      6FA789D5 
 711      6C136B4C 
 711      2558DA11 
 712 0398 3BF01FB0 		.ascii	";\360\037\260\360\353b\341\303G\302U\373\317\213Q\011"
 712      F0EB62E1 
 712      C347C255 
 712      FBCF8B51 
 712      09
 713 03a9 38FBB6DC 		.ascii	"8\373\266\334@l\351\300Y\036\206\034o\202\375\020\341"
 713      406CE9C0 
 713      591E861C 
 713      6F82FD10 
 713      E1
 714 03ba F37BB307 		.ascii	"\363{\263\007ss1J\352^\360\\3\200\007\270:0xx\321\354"
 714      7373314A 
 714      EA5EF05C 
 714      338007B8 
 714      3A307878 
 715 03d0 C3A31425 		.ascii	"\303\243\024%]\344?\342\007\003\314>\336(XB\030\201"
 715      5DE43FE2 
 715      0703CC3E 
 715      DE285842 
 715      1881
 716 03e2 3B864936 		.ascii	";\206I6\003\271F\210\201\025uS\331P\305\251=\347\030"
 716      03B94688 
 716      81157553 
 716      D950C5A9 
 716      3DE718
 717 03f5 5D51C77D 		.ascii	"]Q\307}\\-\360\2546\224\275\373+\245v7o&B.\325t-\257"
 717      5C2DF0AC 
 717      3694BDFB 
 717      2BA57637 
 717      6F26422E 
 718 040d B73D3422 		.ascii	"\267=4\"\202z\374\0262\3736\314\3779s\376\2551\004\310"
 718      827AFC16 
 718      32FB36CC 
 718      FF3973FE 
 718      AD3104C8 
 719 0421 4A886407 		.ascii	"J\210d\007\313\377U1W{\232\230\373\353\377\267\217W"
 719      CBFF5531 
 719      577B9A98 
 719      FBEBFFB7 
 719      8F57
 720 0433 2AB244BE 		.ascii	"*\262D\276\021\004\020`\230\253\003\232)\214\\j\007"
 720      11041060 
 720      98AB039A 
 720      298C5C6A 
 720      07
 721 0444 A96084EB 		.ascii	"\251`\204\353\225\366\216L\250\010\247\016\364\307\250"
 721      95F68E4C 
 721      A808A70E 
ARM GAS  /tmp/ccCJBSpW.s 			page 56


 721      F4C7A8
 722 0453 2D1B5B9F 		.ascii	"-\033[\237B*o\306\232\370XH\254\011\003\210\300m\307"
 722      422A6FC6 
 722      9AF85848 
 722      AC090388 
 722      C06DC7
 723 0466 247B194D 		.ascii	"${\031M\204k*\233\247\363%\340\215\332\273\304\372\250"
 723      846B2A9B 
 723      A7F325E0 
 723      8DDABBC4 
 723      FAA8
 724 0478 7A47B3A6 		.ascii	"zG\263\246\3107a\205\\\210\340\366O!\213\017e\225\213"
 724      C8376185 
 724      5C88E0F6 
 724      4F218B0F 
 724      65958B
 725 048b 3AD8E5A4 		.ascii	":\330\345\244\301r\015`5\207\226b\346\\\334\254\250"
 725      C1720D60 
 725      35879662 
 725      E65CDCAC 
 725      A8
 726 049c 86E386C8 		.ascii	"\206\343\206\310\345\252\246\243\374t,\377\021 \023"
 726      E5AAA6A3 
 726      FC742CFF 
 726      112013
 727 04ab B87A8751 		.ascii	"\270z\207Q\265\366\241\272\2274\357\342K1T\033\206Z"
 727      B5F6A1BA 
 727      9734EFE2 
 727      4B31541B 
 727      865A
 728 04bd EBEC2FD4 		.ascii	"\353\354/\324\3613j\025\341\252\035CmM1B\211|ZD\221"
 728      F1336A15 
 728      E1AA1D43 
 728      6D4D3142 
 728      897C5A44 
 729 04d2 917BBD02 		.ascii	"\221{\275\002\302\303\257\311\005\232\232\017\344~\346"
 729      C2C3AFC9 
 729      059A9A0F 
 729      E47EE6
 730 04e1 EA02D794 		.ascii	"\352\002\327\224b\303x\351V\236\240\204\253+\0178P\252"
 730      62C378E9 
 730      569EA084 
 730      AB2B0F38 
 730      50AA
 731 04f3 74D8C84B 		.ascii	"t\330\310K-\270\255\023\2547w\\\334\373\273\205\212"
 731      2DB8AD13 
 731      AC37775C 
 731      DCFBBB85 
 731      8A
 732 0504 92A3BD4A 		.ascii	"\222\243\275J\354\314\233\366W\331KM\202\336\374\375"
 732      ECCC9BF6 
 732      57D94B4D 
 732      82DEFCFD 
 733 0514 B8F91F71 		.ascii	"\270\371\037q\363a\266\371\025}\273x\234o\303\266Z?"
 733      F361B6F9 
 733      157DBB78 
 733      9C6FC3B6 
ARM GAS  /tmp/ccCJBSpW.s 			page 57


 733      5A3F
 734 0526 DA3A3FB6 		.ascii	"\332:?\266u\313N\201\270F\307\305\177\334S\203E<\213"
 734      75CB4E81 
 734      B846C7C5 
 734      7FDC5383 
 734      453C8B
 735 0539 4366662A 		.ascii	"Cff*\353\031Oe\032m\007\367T\005\201+O\325\231\357W"
 735      EB194F65 
 735      1A6D07F7 
 735      5405812B 
 735      4FD599EF 
 736 054e C48657AC 		.ascii	"\304\206W\254\331\217\207'\016\235\205yI\003\346\032"
 736      D98F8727 
 736      0E9D8579 
 736      4903E61A 
 737 055e F4F0792B 		.ascii	"\364\360y+N\001\032X\245\0350K/*U\333i\260EI\203\031"
 737      4E011A58 
 737      A51D304B 
 737      2F2A55DB 
 737      69B04549 
 738 0574 393B4683 		.ascii	"9;F\203-\265\003\226c\315Y'\015V\2234\230\221\263\223"
 738      2DB50396 
 738      63CD5927 
 738      0D569334 
 738      9891B393 
 739 0588 34D8723B 		.ascii	"4\330r;`\303\2559\353\242\301V&\015f\344\354[\032l\215"
 739      60C3AD39 
 739      EBA2C156 
 739      260D66E4 
 739      EC5B1A6C 
 740 059d 1DB05C13 		.ascii	"\035\260\\\023\316\"\207\325\370\250\233\217\270\271"
 740      CE2287D5 
 740      F8A89B8F 
 740      B8B9
 741 05ab C0AD4BD5 		.ascii	"\300\255K\325\323A\222.\315E1>LM6}\031\344\206\236\364"
 741      D341922E 
 741      CD45313E 
 741      4C4D367D 
 741      19E4869E 
 742 05c0 E07BFCBC 		.ascii	"\340{\374\274\351\312\336\221zo\326`\0071\216\303l\246"
 742      E9CADE91 
 742      7A6FD660 
 742      07318EC3 
 742      6CA6
 743 05d2 BBC69D49 		.ascii	"\273\306\235I\203\031\315\3629\0023d\032\322\035\205"
 743      8319CDF2 
 743      39023364 
 743      1AD21D85 
 744 05e2 57A8C317 		.ascii	"W\250\303\027FS]\272\216\205&8Z^\203\231\203\020\251"
 744      46535DBA 
 744      8E852638 
 744      5A5E8399 
 744      8310A9
 745 05f5 AC0C1F6E 		.ascii	"\254\014\037n^W\344K\204\007\340\\*\270\"\\h\327\372"
 745      5E57E44B 
 745      8407E05C 
 745      2AB8225C 
ARM GAS  /tmp/ccCJBSpW.s 			page 58


 745      68D7FA
 746 0608 551F5EB2 		.ascii	"U\037^\262\370,\225YU\320\217D\244V\236\320G{\302\001"
 746      F82C9559 
 746      55D08F44 
 746      A4569ED0 
 746      477BC201 
 747 061c 3B6A8A13 		.ascii	";j\212\023\012\337Z\251I-Sf\361%\037\336\023\241{\232"
 747      0ADF5AA9 
 747      492D5366 
 747      F1251FDE 
 747      13A17B9A 
 748 0630 F6896872 		.ascii	"\366\211hr\376\247589\317\024P\267\335\226j:\002\260"
 748      FEA73538 
 748      39CF1450 
 748      B7DD966A 
 748      3A02B0
 749 0643 85D5BDE4 		.ascii	"\205\325\275\344\260>\234x\023\203u\365\037\254\366"
 749      B03E9C78 
 749      138375F5 
 749      1FACF6
 750 0652 F899BD0E 		.ascii	"\370\231\275\016\3343\275\215\241\316\307t\032.f8\341"
 750      DC33BD8D 
 750      A1CEC774 
 750      1A2E6638 
 750      E1
 751 0663 3276F82E 		.ascii	"2v\370.W\364\242O?\214v\374Yi\254l_&P\266\277\222\264"
 751      57F4A24F 
 751      3F8C76FC 
 751      5969AC6C 
 751      5F2650B6 
 752 067a ED0D2112 		.ascii	"\355\015!\022\256n\357rT)j\211\203r\366\270\221\001"
 752      AE6EEF72 
 752      54296A89 
 752      8372F6B8 
 752      9101
 753 068c C3C78E1D 		.ascii	"\303\307\216\035\377\212\365Z\201\365z\313\334D6\200"
 753      FF8AF55A 
 753      81F57ACB 
 753      DC443680 
 754 069c BA97AC7B 		.ascii	"\272\227\254{\030\003-\300@ei\375\005:~&<\235\014\035"
 754      18032DC0 
 754      406569FD 
 754      053A7E26 
 754      3C9D0C1D 
 755 06b0 1762A877 		.ascii	"\027b\250w\322X[\363\214\255y\243\015xW\364\"\306^w"
 755      D2585BF3 
 755      8CAD79A3 
 755      0D7857F4 
 755      22C65E77 
 756 06c4 B0AEC02D 		.ascii	"\260\256\300-Lc\014f\020(N\357\240\247\334\366\263\363"
 756      4C630C66 
 756      10284EEF 
 756      A0A7DCF6 
 756      B3F3
 757 06d6 F8ABA5CA 		.ascii	"\370\253\245\312\302\221IX\254\212X\354]\254\235\332"
 757      C2914958 
 757      AC8A58EC 
ARM GAS  /tmp/ccCJBSpW.s 			page 59


 757      5DAC9DDA 
 758 06e6 18ED2C10 		.ascii	"\030\355,\020\222S\217\300\255JZ\214t\243\030\225\347"
 758      92538FC0 
 758      AD4A5A8C 
 758      74A31895 
 758      E7
 759 06f7 FB21C64E 		.ascii	"\373!\306NM\214\345X\214\015w@\214-I\213\221C\211\001"
 759      4D8CE558 
 759      8C0D7740 
 759      8C2D498B 
 759      91438901 
 760 070b 53C9F6EF 		.ascii	"S\311\366\357\347k\035\340\020\256\"\376\000\036\257"
 760      E76B1DE0 
 760      10AE22FE 
 760      001EAF
 761 071a F808438C 		.ascii	"\370\010C\214\223\362\353\207\321T\037=N4tV\324y\255"
 761      93F2EB87 
 761      D1541F3D 
 761      4E347456 
 761      D479AD
 762 072d D4444FB1 		.ascii	"\324DO\2615\321\353\210L\364\326`\225\3554\0131;P\265"
 762      35D1EB88 
 762      4CF4D660 
 762      95ED340B 
 762      313B50B5 
 763 0741 DD2786A1 		.ascii	"\335'\206\241\251\370:\014\323\334_\030\210\324\037"
 763      A9F83A0C 
 763      D3DC5F18 
 763      88D41F
 764 0750 CA08471B 		.ascii	"\312\010G\0330\324\301\030#\24626L5\332\020nQ[?\340"
 764      30D4C118 
 764      23A63236 
 764      4C35DA10 
 764      6E515B3F 
 765 0765 24F91A79 		.ascii	"$\371\032y\202n\322\270_\234N\340:0\373\310~I\016\302"
 765      826ED2B8 
 765      5F9C4EE0 
 765      3A30FBC8 
 765      7E490EC2 
 766 0779 74FFA93C 		.ascii	"t\377\251<0_\037@i&\352\272-\304Rug\205\276V\361\024"
 766      305F1F40 
 766      6926EABA 
 766      2DC45275 
 766      6785BE56 
 767 078f 1A429DBF 		.ascii	"\032B\235\277M8<\3466\214\015\230\231[\263E\327C\014"
 767      4D383CE6 
 767      368C0D98 
 767      995BB345 
 767      D7430C
 768 07a2 BEAD628F 		.ascii	"\276\255b\217\336\2437\012\210\241\2131\006o\342\231"
 768      DEA3370A 
 768      88A18B31 
 768      066FE299 
 769 07b2 C91B7A40 		.ascii	"\311\033z@U\261\012\246\255t?X\222~\233\206h?\305\030"
 769      55B10AA6 
 769      AD743F58 
 769      927E9B86 
ARM GAS  /tmp/ccCJBSpW.s 			page 60


 769      683FC518 
 770 07c6 62E66D21 		.ascii	"b\346m!\226\252\213\346\331["
 770      96AA8BE6 
 770      D95B
 771 07d0 02FC9B8E 		.ascii	"\002\374\233\216\225\205\005\231\203\233\335-0\323\354"
 771      95850599 
 771      839BDD2D 
 771      30D3EC
 772 07df 1BCBBF2C 		.ascii	"\033\313\277,#zD\357\022g\213\023\347\\JE\226I{f\343"
 772      237A44EF 
 772      12678B13 
 772      E75C4A45 
 772      96497B66 
 773 07f4 AE6D159F 		.ascii	"\256m\025\237\317\345_\307\350{\004\264\330\266#\335"
 773      CFE55FC7 
 773      E87B04B4 
 773      D8B623DD 
 774 0804 7CD9F469 		.ascii	"|\331\364i+ \201;\204I\366\261\214C\206,%\213m\373l"
 774      2B20813B 
 774      8449F6B1 
 774      8C43862C 
 774      258B6DFB 
 775 0819 305EAA5E 		.ascii	"0^\252^\236M/\266\211\374\001^ \270\375\263\303\225"
 775      9E4D2FB6 
 775      89FC015E 
 775      20B8FDB3 
 775      C395
 776 082b 96C88C42 		.ascii	"\226\310\214B\344\017%\015\226k\306\252\356\251QiE\276"
 776      E40F250D 
 776      966BC6AA 
 776      EEA95169 
 776      45BE
 777 083d 05CF040E 		.ascii	"\005\317\004\016\010\367\301\371 \234#\207\300uGlj\246"
 777      08F7C1F9 
 777      209C2387 
 777      C075476C 
 777      6AA6
 778 084f BAC4CE79 		.ascii	"\272\304\316yc\371\215J\3159\223\311\375{\"\213|\332"
 778      63F98D4A 
 778      CD3993C9 
 778      FD7B228B 
 778      7CDA
 779 0861 F8379D0D 		.ascii	"\3707\235\015\274ulw\231T\352\373\206\025*\341\334\221"
 779      BC756C77 
 779      9954EAFB 
 779      86152AE1 
 779      DC91
 780 0873 3DAC027B 		.ascii	"=\254\002{\027\035\330Wo/\014\301\377.\326i\272K\024"
 780      171DD857 
 780      6F2F0CC1 
 780      FF2ED669 
 780      BA4B14
 781 0886 884A641D 		.ascii	"\210Jd\035=\007\267\334\213[\356`\035\272j\315\276\231"
 781      3D07B7DC 
 781      8B5BEE60 
 781      1DBA6ACD 
 781      BE99
ARM GAS  /tmp/ccCJBSpW.s 			page 61


 782 0898 C4A13B6C 		.ascii	"\304\241;lE\342u\034\211zd\255p\351\250\375\361\205"
 782      45E2751C 
 782      897A64AD 
 782      70E9A8FD 
 782      F185
 783 08aa 52F586BE 		.ascii	"R\365\206\2766\257M\221\327\261pv\255@\340n\332X\233"
 783      36AF4D91 
 783      D7B17076 
 783      AD40E06E 
 783      DA589B
 784 08bd 372A46FF 		.ascii	"7*F\377Hq\016\215\\\302X\246M.\326\2654\315P\256\325"
 784      48710E8D 
 784      5CC258A6 
 784      4D2ED6B5 
 784      34CD50AE 
 785 08d2 4145CA71 		.ascii	"AE\312q\034)\2358RN\342s\027\035/Vn\321M\273\305\366"
 785      1C299D38 
 785      524EE273 
 785      171D2F56 
 785      6ED14DBB 
 786 08e8 A4E5CEB5 		.ascii	"\244\345\316\265\351}\355t3M\256\333\363\276\352\366"
 786      E97DED74 
 786      334DAEDB 
 786      F3BEEAF6 
 787 08f8 EF9C78DD 		.ascii	"\357\234x\3350\211\325\371\216f=p{p\340\266\304h\267"
 787      3089D5F9 
 787      8E663D70 
 787      7B70E0B6 
 787      C468B7
 788 090b 8D9DCDD8 		.ascii	"\215\235\315\330Y\252\356\350\257(\221\003\006'.\033"
 788      59AAEEE8 
 788      AF289103 
 788      06272E1B 
 789 091b B3CD5C13 		.ascii	"\263\315\\\023\255G\206;?\221^\326\356\347\274m\255"
 789      AD47863B 
 789      3F915ED6 
 789      EEE7BC6D 
 789      AD
 790 092c 074A48CF 		.ascii	"\007JH\317\3645\366\265\323.\363\236)\316\302\371eL"
 790      F435F6B5 
 790      D32EF39E 
 790      29CEC2F9 
 790      654C
 791 093e 7229A667 		.ascii	"r)\246g\252\274\246\367L\227l\365Lm\246=\323\245\344"
 791      AABCA6F7 
 791      4C976CF5 
 791      4C6DA63D 
 791      D3A5E4
 792 0951 7B26B383 		.ascii	"{&\263\203fP\344/\343\020\271b\354FJ2lh\377_\254\234"
 792      6650E42F 
 792      E310B962 
 792      EC464A32 
 792      6C68FF5F 
 793 0967 515117B4 		.ascii	"QQ\027\264/\3455\376\265T4\233\3053KE\006<\332\232\245"
 793      2FE535FE 
 793      B554349B 
 793      C5334B45 
ARM GAS  /tmp/ccCJBSpW.s 			page 62


 793      063CDA9A 
 794 097c EA8676DC 		.ascii	"\352\206v\334\263j^Zi\207\271\221\326`;+u\345\266\343"
 794      B36A5E5A 
 794      6987B991 
 794      D6603B2B 
 794      75E5B6E3 
 795 0990 71E2323B 		.ascii	"q\3422;xc\255\204-U;\332\227\022<\355\033\327\332\244"
 795      7863AD84 
 795      2D553BDA 
 795      97123CED 
 795      1BD7DAA4 
 796 09a4 F18CFC5D 		.ascii	"\361\214\374]\2574\214\2537\333\201{\332\266\355\243"
 796      AF348CAB 
 796      37DB817B 
 796      DAB6EDA3 
 797 09b4 DF28457E 		.ascii	"\337(E~?\217l\337\302\343\201\004>\037\306\347N|\356"
 797      3F8F6CDF 
 797      C2E38104 
 797      3E1FC6E7 
 797      4E7CEE
 798 09c7 C5E79BF8 		.ascii	"\305\347\233\370\374\023>\317\300)t.>/\305\347e\370"
 798      FC133ECF 
 798      C029742E 
 798      3E2FC5E7 
 798      65F8
 799 09d9 BC129FBF 		.ascii	"\274\022\237\277\302\347k\370\374\035>\377\200\317\275"
 799      C2E76BF8 
 799      FC1D3EFF 
 799      80CFBD
 800 09e8 F87CD34E 		.ascii	"\370|\323N\342e\306\3430:\314H\366\203\260A\227\341"
 800      E265C6E3 
 800      303ACC48 
 800      F683B041 
 800      97E1
 801 09fa 452D3B9F 		.ascii	"E-;\237$_S4\347\331o\0070N/V\261\007<1\231\017\240\221"
 801      245F5334 
 801      E7D96F07 
 801      304E2F56 
 801      B1073C31 
 802 0a12 B151A903 		.ascii	"\261Q\251\003\265\377y\306\035I\261_&-\006\253\227\346"
 802      B5FF79C6 
 802      1D49B15F 
 802      262D06AB 
 802      97E6
 803 0a24 B9FA2444 		.ascii	"\271\372$Dc\354\202\035D\263\345ts7\333A\271\231\212"
 803      63EC821D 
 803      44B3E574 
 803      7337DB41 
 803      B9998A
 804 0a37 DD6C1776 		.ascii	"\335l\027v\241O\361\271\017\273D\211\003\235\313\034"
 804      A14FF1B9 
 804      0FBB4489 
 804      039DCB1C 
 805 0a47 361CA391 		.ascii	"6\034\243\221^\205\276\226\241o\233\270#\331p3\305\352"
 805      5E85BE96 
 805      A16F9BB8 
 805      23D97033 
ARM GAS  /tmp/ccCJBSpW.s 			page 63


 805      C5EA
 806 0a59 16CCEA56 		.ascii	"\026\314\352V\336\006K\033\243,\221]$\0216#\367=\332"
 806      DE064B1B 
 806      A32C915D 
 806      24113623 
 806      F73DDA
 807 0a6c B837728F 		.ascii	"\2707r\217T\315\321;\210\260<7\031\237\270\237{OQ*\320"
 807      54CDD13B 
 807      88B03C37 
 807      199FB89F 
 807      7B4F512A 
 808 0a81 E696B97C 		.ascii	"\346\226\271|\345t\345y\255-\201\253\312D\365\352\371"
 808      E574E579 
 808      AD2D81AB 
 808      CA44F5EA 
 808      F9
 809 0a92 7B4D7922 		.ascii	"{My\"\034i\304\352\207\237m\202$\"\350\033+\226$ m\244"
 809      1C69C4EA 
 809      879F6D82 
 809      2422E81B 
 809      2B962420 
 810 0aa8 483FFA6C 		.ascii	"H?\372l\275F\252ELM\002R,#!\3354\263^#\325|je\002R\242"
 810      BD46AA45 
 810      4C4D0252 
 810      2C2321DD 
 810      34B35E23 
 811 0ac3 0E6D0390 		.ascii	"\016m\003\220Z3sz-\257\244F\366\000\325\263{\200\336"
 811      5A33737A 
 811      2DAFA446 
 811      F600D5B3 
 811      7B80DE
 812 0ad6 72C4EC01 		.ascii	"r\304\354\001\252U\325\305\373\311\026\243$\266rU9\014"
 812      AA55D5C5 
 812      FBC916A3 
 812      24B67255 
 812      390C
 813 0ae8 DB7F34D5 		.ascii	"\333\1774\325\261Vd\254\264.\323\314J\312\273\022\261"
 813      B15664AC 
 813      B42ED3CC 
 813      4ACABB12 
 813      B1
 814 0af9 8FC8BFE3 		.ascii	"\217\310\277\343@\275t\245\303\206}\224\037\021Y#&+"
 814      40BD74A5 
 814      C3867D94 
 814      1F115923 
 814      262B
 815 0b0b 4F4046D8 		.ascii	"O@F\330!\333\244\336Vf\344\360\021\035!*\203\216\026"
 815      21DBA4DE 
 815      5666E4F0 
 815      111D212A 
 815      838E16
 816 0b1e 9BEA6841 		.ascii	"\233\352hA\313;`\227R\265\257o\347\323\354.)d?+=\325"
 816      CB3B6097 
 816      52B5AF6F 
 816      E7D3EC2E 
 816      29643F2B 
 817 0b34 B07A4295 		.ascii	"\260zB\225\031\275l7\327\313Q$\240V\275\002\013Xm) "
ARM GAS  /tmp/ccCJBSpW.s 			page 64


 817      19BD6C37 
 817      D7CB5124 
 817      A056BD02 
 817      0B586D29 
 818 0b49 89122C60 		.ascii	"\211\022,`\251\262\355\354K\317\353\317\254\251\010"
 818      A9B2EDEC 
 818      4BCFEBCF 
 818      ACA908
 819 0b58 83CB4CC5 		.ascii	"\203\313L\305=\331\242\273\204&\002\244]s&?d\231\254"
 819      3DD9A2BB 
 819      842602A4 
 819      5D73263F 
 819      6499AC
 820 0b6b EB179356 		.ascii	"\353\027\223VT\204\311\025\246L\266\315\231ci\023\024"
 820      5484C915 
 820      A64CB6CD 
 820      99636913 
 820      14
 821 0b7c 18563659 		.ascii	"\030V6Y\315\332D\363\"\203M\316\230\213{\212u\272U\266"
 821      CDDA44F3 
 821      22834DCE 
 821      988B7B8A 
 821      75BA55B6 
 822 0b90 9CAE54D9 		.ascii	"\234\256T\331\216\305\325\302\325\232\2120\2706V\334"
 822      8EC5D5C2 
 822      D59A8A30 
 822      B83656DC 
 823 0ba0 F011F57A 		.ascii	"\360\021\365zE\013\314&\225\233}}\323\235Il\324\253"
 823      450BCC26 
 823      959B7D7D 
 823      D39D496C 
 823      D4AB
 824 0bb2 67A56DA2 		.ascii	"g\245m\242#\225\030\205\221\376\206\271\364?\346?\257"
 824      23951885 
 824      91FE86B9 
 824      F43FE63F 
 824      AF
 825 0bc3 CF65CBB2 		.ascii	"\317e\313\262P\215\365\226\3227Q\221\272\215\365\021"
 825      508DF596 
 825      D2375191 
 825      BA8DF511 
 826 0bd3 6B32DA47 		.ascii	"k2\332G\330H]\317F\352FS5\265\036J>\233m\211\233\315"
 826      D8485DCF 
 826      46EA4653 
 826      35B51E4A 
 826      3E9B6D89 
 827 0be9 CCFB9C37 		.ascii	"\314\373\2347\262Lu\324\300f\263\006\373\331L\313\371"
 827      B24C75D4 
 827      C066B306 
 827      FBD94CCB 
 827      F9
 828 0bfa D518D89A 		.ascii	"\325\030\330\232\314\220\363\031\0355\260:\332f\032"
 828      CC90F319 
 828      1D35B03A 
 828      DA661A
 829 0c09 390B5BA3 		.ascii	"9\013[\243\341]\217\303\273\316\\\232\033\272\305E\376"
 829      E15D8FC3 
ARM GAS  /tmp/ccCJBSpW.s 			page 65


 829      BBCE5C9A 
 829      1BBAC545 
 829      FE
 830 0c1a 632C8D6A 		.ascii	"c,\215j\313\342[Y\213[\223\305\263\270\312J\263\313"
 830      CBE25B59 
 830      8B5B93C5 
 830      B3B8CA4A 
 830      B3CB
 831 0c2c D4E25D6D 		.ascii	"\324\342]mQi\266`i6\230K\263\211\265M\263-\333\334\320"
 831      5169B660 
 831      6936984B 
 831      B389B54D 
 831      B32DDBDC 
 832 0c41 6D0383B2 		.ascii	"m\003\203\262\004d\361l\323\314J\263\307\3246\233*\251"
 832      0464F16C 
 832      D3CC4AB3 
 832      C7D4369B 
 832      2AA9
 833 0c53 ACA6252B 		.ascii	"\254\246%+\201k2\027\250\233MG\373\373\225\216\254\250"
 833      816B3217 
 833      A89B4D47 
 833      FBFB958E 
 833      ACA8
 834 0c65 089F2DA6 		.ascii	"\010\237-\246|\336\250\354W::\354\260\3367\034\271Q"
 834      7CDEA8EC 
 834      573A3AEC 
 834      B0DE371C 
 834      B951
 835 0c77 E1C63E64 		.ascii	"\341\306>d\233\0212\211u\327\252\310\362\315\0278\364"
 835      9B113289 
 835      75D7AAC8 
 835      F2CD1738 
 835      F4
 836 0c88 4E64B173 		.ascii	"Nd\261s\213\333Yw5$\2148l,j\371\242\004\177/`>\327 "
 836      8BDB5977 
 836      35248C38 
 836      6C2C6AF9 
 836      A2047F2F 
 837 0ca0 B9CC8D79 		.ascii	"\271\314\215y\314\361\000g\2632\252\336\3510L\012\015"
 837      CCF10067 
 837      B332AADE 
 837      E9304C0A 
 837      0D
 838 0cb1 F3C37331 		.ascii	"\363\303s1\"\243\332\006\221\031r\253V\216:b\207\363"
 838      22A3DA06 
 838      911972AB 
 838      568E3A62 
 838      87F3
 839 0cc3 E6DDCB65 		.ascii	"\346\335\313eSo\016W\275\331u\235\237\217\207\353\010"
 839      536F0E57 
 839      BDD9759D 
 839      9F8F87EB 
 839      08
 840 0cd4 4BE0FA70 		.ascii	"K\340\372p\275C\226>\215[\244\023(\235r\254\311\342"
 840      BD43963E 
 840      8D5BA413 
 840      289D72AC 
ARM GAS  /tmp/ccCJBSpW.s 			page 66


 840      C9E2
 841 0ce6 A59C436C 		.ascii	"\245\234Cl\220\2362u\376\276\216w\350 \325\206H\263"
 841      909E3275 
 841      FEBE8E77 
 841      E820D586 
 841      48B3
 842 0cf8 06588F6F 		.ascii	"\006X\217oi\316N\367k\210dEE\370<c\312go';\216[`\223"
 842      69CE4EF7 
 842      6B886445 
 842      45F83C63 
 842      CA676F27 
 843 0d11 C99E7E31 		.ascii	"\311\236~1iEE\230<o\312\344\225\023,\223\313m2y\241"
 843      69454598 
 843      3C6FCAE4 
 843      95132C93 
 843      CB6D3279 
 844 0d26 5F4C5A51 		.ascii	"_LZQ\021&\2772e\362\247.\213aE\274\321\377%\263\321"
 844      1126BF32 
 844      65F2A72E 
 844      8B6145BC 
 844      D1FF25B3 
 845 0d3b 3F9DA66C 		.ascii	"?\235\246l-\201lk\335\364\020\336Kq\005'\251\372\001"
 845      2D816C6B 
 845      DDF410DE 
 845      4B710527 
 845      A9FA01
 846 0d4e 77600184 		.ascii	"w`\001\204\213\011\312\255\246:\2079tw\007\277\000\007"
 846      8B09CAAD 
 846      A63A8739 
 846      747707BF 
 846      0007
 847 0d60 25ADF98B 		.ascii	"%\255\371\213\3615O\014\326\207\014\246q}\020\303[\223"
 847      F1354F0C 
 847      D6870CA6 
 847      717D10C3 
 847      5B93
 848 0d72 5D71581B 		.ascii	"]qX\033\314\212\212\210q\335\324`\037\237\336\033\355"
 848      CC8A8A88 
 848      71DDD460 
 848      1F9FDE1B 
 848      ED
 849 0d83 9F345308 		.ascii	"\2374S\010\\\253\271c\305\214P{\223\023O\344\177H@\026"
 849      5CABB963 
 849      C58C507B 
 849      93134FE4 
 849      7F484016 
 850 0d97 4F3C2B2A 		.ascii	"O<+*\"\336\217\246\342\265\2371\021\257\307\246x}\375"
 850      22DE8FA6 
 850      E2B59F31 
 850      11AFC7A6 
 850      787DFD
 851 0daa 13CF9A2C 		.ascii	"\023\317\232,\236xVTD<\305\031;\246+\017W\267\267\017"
 851      9E785654 
 851      443CC519 
 851      3BA62B0F 
 851      57B7B70F 
 852 0dbe 5FA4EC46 		.ascii	"_\244\354F\277Kz\215\035]\240\221\246U\304\315p\232"
ARM GAS  /tmp/ccCJBSpW.s 			page 67


 852      BF4B7A8D 
 852      1D5DA091 
 852      A655C4CD 
 852      709A
 853 0dd0 CC76184F 		.ascii	"\314v\030O\357e\264\244s2\323\214\023\365\352i\225\217"
 853      EF65B4A4 
 853      7332D38C 
 853      13F5EA69 
 853      958F
 854 0de2 70A2FF04 		.ascii	"p\242\377\004\253,\333\034\342\015S\210\223\340\212"
 854      AB2CDB1C 
 854      E20D5388 
 854      93E08A
 855 0df1 B3B0AD1C 		.ascii	"\263\260\255\034I\214\224f\263\242T\304.\035TY\360\361"
 855      498C9466 
 855      B3A254C4 
 855      2E1D5459 
 855      F0F1
 856 0e03 B6291FDD 		.ascii	"\266)\037\335\300\207\225R\327\304Ics\3148\211\334\\"
 856      C0879552 
 856      D7C44963 
 856      73CC3889 
 856      DC5C
 857 0e15 319D1EAD 		.ascii	"1\235\036\255\260\340\254\302\310\331o\270e\210\263"
 857      B0E0ACC2 
 857      C8D96FB8 
 857      6588B3
 858 0e24 86D361A1 		.ascii	"\206\323a\241D\331\275PQ\240K\345\357\325?l\316:\303"
 858      44D9BD50 
 858      51A04BE5 
 858      EFD53F6C 
 858      CE3AC3
 859 0e37 4732A332 		.ascii	"G2\2432Lg\353\010B\210\354\206\270\266\214\014\341\346"
 859      4C67EB08 
 859      4288EC86 
 859      B8B68C0C 
 859      E1E6
 860 0e49 3BD18792 		.ascii	";\321\207\222F\246]\033P\002\267\007\023U9c\276:\355"
 860      46A65D1B 
 860      5002B707 
 860      13553963 
 860      BE3AED
 861 0e5c D13F1FA3 		.ascii	"\321?\037\243w\211\276:)\352\207]\332W\033\223\017\263"
 861      7789BE3A 
 861      29EA875D 
 861      DA571B93 
 861      0FB3
 862 0e6e E1C887D9 		.ascii	"\341\310\207\331{(\356[;\276$\334/\301\334\037\261\340"
 862      7B28EE5B 
 862      3BBE24DC 
 862      2FC1DC1F 
 862      B1E0
 863 0e80 DE1248E0 		.ascii	"\336\022H\340Na\222\352X\336\277(#\274W\333\342\275"
 863      4E6192EA 
 863      58DEBF28 
 863      23BC57DB 
 863      E2BD
ARM GAS  /tmp/ccCJBSpW.s 			page 68


 864 0e92 A3D3F8C5 		.ascii	"\243\323\370\305\351\253\010.i\330\354\213\223v\220"
 864      E9AB082E 
 864      69D8EC8B 
 864      937690
 865 0ea1 0A345EA9 		.ascii	"\0124^\251z\254\023\177q\322\276\350\\e\301\222\372"
 865      7AAC137F 
 865      71D2BEE8 
 865      5C65C192 
 865      FA
 866 0eb2 68A0A827 		.ascii	"h\240\250'5\260\023\370\327e\275I\203\345\0328\273\272"
 866      35B013F8 
 866      D765BD49 
 866      83E51A38 
 866      BBBA
 867 0ec4 D8F81331 		.ascii	"\330\370\0231e\240\015\2748\373\340\257uR\373\340g%"
 867      65A00DBC 
 867      38FBE0AF 
 867      7552FBE0 
 867      6725
 868 0ed6 0D6664AE 		.ascii	"\015fd\256\227\006+\267\003f\266[\334\354\240\235D\344"
 868      97062BB7 
 868      0366B65B 
 868      DCECA09D 
 868      44E4
 869 0ee8 6B9D689D 		.ascii	"k\235h\235~\231\023}@x\017\237W\340\363\373\370\274"
 869      7E99137D 
 869      40780F9F 
 869      57E0F3FB 
 869      F8BC
 870 0efa 1A9FD73A 		.ascii	"\032\237\327:\015\3374\027\017\324\243\304\324\025\023"
 870      0DDF3417 
 870      0FD4A3C4 
 870      D41513
 871 0f09 B984A26E 		.ascii	"\271\204\242n\265\016\017\263}\013\020\334\347K\370"
 871      B50E0FB3 
 871      7D0B10DC 
 871      E74BF8
 872 0f18 19D887EB 		.ascii	"\031\330\207\353qx\324\016L\030\036\354\316\220\315"
 872      7178D40E 
 872      4C181EEC 
 872      CE90CD
 873 0f27 9864634C 		.ascii	"\230dcLx\264\3774\203\204\307F\033\341Q\252\336\252"
 873      78B4FF34 
 873      8384C746 
 873      1BE151AA 
 873      DEAA
 874 0f39 EAFFAF44 		.ascii	"\352\377\257D!\316\317\352{\266\032\260 \007\023\013"
 874      21CECFEA 
 874      7BB61AB0 
 874      2007130B 
 875 0f49 C2FE54F4 		.ascii	"\302\376T\364\024&i\214\025\344\242.H\243-A\266W\351"
 875      1426698C 
 875      15E4A22E 
 875      48A32D41 
 875      B657E9
 876 0f5c DEBFD989 		.ascii	"\336\277\331\2117\371Ep\343\370\230\245QK\325\035\035"
 876      37F94570 
ARM GAS  /tmp/ccCJBSpW.s 			page 69


 876      E3F898A5 
 876      514BD51D 
 876      1D
 877 0f6d D86135B0 		.ascii	"\330a5\260\357\222\0063z\377\321\016\375K\2606j\374"
 877      EF920633 
 877      7AFFD10E 
 877      FD4BB036 
 877      6AFC
 878 0f7f C90E5E9C 		.ascii	"\311\016^\234\217\215\255\035\354\226H\373\375o3\333"
 878      8F8DAD1D 
 878      EC9648FB 
 878      FD6F33DB 
 879 0f8f EB3DC58C 		.ascii	"\353=\305\214$\342\015\331+\272J\310\026\300&\254\230"
 879      24E20DD9 
 879      2BBA4AC8 
 879      16C026AC 
 879      98
 880 0fa0 99394683 		.ascii	"\2319F\203\263;3\235\326\263\367}\316L\013\243\306\274"
 880      B33B339D 
 880      D6B3F77D 
 880      CE4C0BA3 
 880      C6BC
 881 0fb2 838C9193 		.ascii	"\203\214\221\223\254\302\014\006\000w\272\276B\377\254"
 881      ACC20C06 
 881      0077BABE 
 881      42FFAC
 882 0fc1 893F9E2F 		.ascii	"\211?\236/\264\003h\377\253f#\225\202>\301)h;N5;\361"
 882      B40368FF 
 882      AB662395 
 882      823EC129 
 882      683B4E35 
 883 0fd7 79173E7F 		.ascii	"y\027>\177\212\317-t\362\261\322\015\362\272\010\366"
 883      8ACF2D74 
 883      F2B1D20D 
 883      F2BA08F6 
 884 0fe7 0EA74042 		.ascii	"\016\247@B\275\177\236\\\336\031\361d\221W\223\0063"
 884      BD7F9E5C 
 884      DE19F164 
 884      91579306 
 884      33
 885 0ff8 28525DD0 		.ascii	"(R]\320I{\262\310"
 885      497BB2C8 
 886 1000 EFB68317 		.ascii	"\357\266\203\027\307\223?\326\230\323\302\242&\207O"
 886      C7933FD6 
 886      98D3C2A2 
 886      26874F
 887 100f 122C379E 		.ascii	"\022,7\236Q6RF\371\030\033e\0236\301A|>\204\317\207"
 887      51365246 
 887      F9181B65 
 887      1336C141 
 887      7C3E84CF 
 888 1024 8D7DC1DA 		.ascii	"\215}\301\332\034\246/0\346]\263\256\211\326\217\242"
 888      1CA62F30 
 888      E65DB3AE 
 888      89D68FA2 
 889 1034 1E81F9B4 		.ascii	"\036\201\371\264h\177g\3217\372\316\2426\234?7\346\230"
 889      687F67D1 
ARM GAS  /tmp/ccCJBSpW.s 			page 70


 889      37FACEA2 
 889      369C3F37 
 889      E698
 890 1046 E6CF783B 		.ascii	"\346\317x;\213va\222\366\330qR\217>NjO\234?_\237\256"
 890      8B766192 
 890      F6D87152 
 890      8F3E4E6A 
 890      4F9C3F5F 
 891 105c 6E5DB232 		.ascii	"n]\2622\332\021L\217D\260\022g\374l\370\005\330\321"
 891      DA114C8F 
 891      44B01267 
 891      FC6CF805 
 891      D8D1
 892 106e 081F497A 		.ascii	"\010\037Iz\251\271\355\332)\333\035\303\266;n\264\324"
 892      A9B9EDDA 
 892      29DB1DC3 
 892      B63B6EB4 
 892      D4
 893 107f 09D65266 		.ascii	"\011\326Rf\355Y\356\034R\324\343]\372\270P\373m\177"
 893      ED59EE1C 
 893      52D4E35D 
 893      FAB850FB 
 893      6D7F
 894 1091 378B576B 		.ascii	"7\213Wk\370%?\2714\354\036\342\014\200W\222\261\374"
 894      F8253FB9 
 894      34EC1EE2 
 894      0C805792 
 894      B1FC
 895 10a3 A6F72F3C 		.ascii	"\246\367/<\241\375d\031\333}\366\240$\355\216\227\306"
 895      A1FD6419 
 895      DB7DF6A0 
 895      24ED8E97 
 895      C6
 896 10b4 189BAB97 		.ascii	"\030\233\253\227\245\\\355i\342\336\362\3069\274\205"
 896      A55CED69 
 896      E2DEF2C6 
 896      39BC85
 897 10c3 33992D81 		.ascii	"3\231-\201\237h?|\351q\242H]\3120\334\317\335*u\030"
 897      9F683F7C 
 897      E971A248 
 897      5DCA30DC 
 897      CFDD2A75 
 898 10d8 E6CC9D72 		.ascii	"\346\314\235r\2323\224\323\234\305Ns\216\011\357A6\234"
 898      9A3394D3 
 898      9CC54E73 
 898      8E09EF41 
 898      369C
 899 10ea 2660E934 		.ascii	"&`\3514\320\215\364<Q\242\250\013G\016\342\312\365\351"
 899      D08DF43C 
 899      51A2A80B 
 899      470EE2CA 
 899      F5E9
 900 10fc 97F6A343 		.ascii	"\227\366\243CR]\035\240\243\034\343\011S_;\007\341+"
 900      525D1DA0 
 900      A31CE309 
 900      535F3B07 
 900      E12B
ARM GAS  /tmp/ccCJBSpW.s 			page 71


 901 110e C3FA3DAE 		.ascii	"\303\372=\256be\330o\234\321\337cf\271\242\027wG\344"
 901      6265D86F 
 901      9CD1DF63 
 901      66B9A217 
 901      7747E4
 902 1121 58CFCAC1 		.ascii	"X\317\312\301\264K\256\247\332\326\\\025\245\271EXs"
 902      B44BAEA7 
 902      DAD65C15 
 902      A5B94558 
 902      73
 903 1132 8B717A5C 		.ascii	"\213qz\\\217\317\255\370|\012\237\273\361\371+\243^"
 903      8FCFADF8 
 903      7C0A9FBB 
 903      F1F92BA3 
 903      5E
 904 1143 B747DC41 		.ascii	"\267G\334AO\233\306\251(^4\214\316\220\211\366j\237"
 904      4F9BC6A9 
 904      285E348C 
 904      CE9089F6 
 904      6A9F
 905 1155 5E98ADFD 		.ascii	"^\230\255\375\316\224P\345\350D:\315\267I\353\356\262"
 905      CE9450E5 
 905      E8443ACD 
 905      B749EBEE 
 905      B2
 906 1166 85EE7863 		.ascii	"\205\356xc\323\271L\313c\365zi\004\347J\322-_\265h9"
 906      D3B94CCB 
 906      63F57A69 
 906      04E74AD2 
 906      2D5FB568 
 907 117b 95B44CFE 		.ascii	"\225\264L\376\267\316\334\365\255o\361s\353\313\024"
 907      B7CEDCF5 
 907      AD6FF173 
 907      EBCB14
 908 118a B4ECFA5A 		.ascii	"\264\354\372Z\215Z\356\264?t\273\316\016\335\332\370"
 908      8D5AEEB4 
 908      3F74BBCE 
 908      0EDDDAF8 
 909 119a 98A5934B 		.ascii	"\230\245\223K\206\310\3045\005\356\326 \"\277\276\007"
 909      86C8C435 
 909      05EED620 
 909      22BFBE07 
 910 11aa 634F5639 		.ascii	"cOV9\257\377\277\214\331\203\021\3055\247\325\"\030"
 910      AFFFBF8C 
 910      D98311C5 
 910      35A7D522 
 910      18
 911 11bb 896CF25D 		.ascii	"\211l\362]\341j\311K\303#\237\025\020\221\301\217\276"
 911      E16AC94B 
 911      C3239F15 
 911      1091C18F 
 911      BE
 912 11cc 372E8330 		.ascii	"7.\2030\303A\264\310d%\333\255\350\220\007-\236\034"
 912      C341B4C8 
 912      6425DBAD 
 912      E890072D 
 912      9E1C
ARM GAS  /tmp/ccCJBSpW.s 			page 72


 913 11de 39126ED8 		.ascii	"9\022n\330siLI\271ZR\213V\230x\236\266\034\325+\375"
 913      73694C49 
 913      B95A528B 
 913      5698789E 
 913      B61CD52B 
 914 11f3 4D07CA8A 		.ascii	"M\007\312\212g_\246\026 \244$k\337\222\024s\373\322"
 914      675FA616 
 914      20A4246B 
 914      DF921473 
 914      FBD2
 915 1205 5F95A2B5 		.ascii	"_\225\242\265@\257s\261^?\210nrb\230\200\231\347`=I"
 915      40AF73B1 
 915      5E3F886E 
 915      72629880 
 915      99E7603D 
 916 121a 64F031CA 		.ascii	"d\3601\312\232o\221\245P\365\327SXeU\276y\221O\254\254"
 916      9A6F91A5 
 916      50F5D753 
 916      586555BE 
 916      79914FAC 
 917 122f 6391D1CC 		.ascii	"c\221\321\314\257\343i\213\255\006)\216\250+\232\234"
 917      AFE3698B 
 917      AD06298E 
 917      A82B9A9C 
 918 123f D85B0048 		.ascii	"\330[\000HACAjS\027\013#p\253\014\002k\254\253\033\366"
 918      4143416A 
 918      53170B23 
 918      70AB0C02 
 918      6BACAB1B 
 919 1254 2BE91B94 		.ascii	"+\351\033\224Yh\365\316\202m\343 \314\222m\266\232\310"
 919      5968F5CE 
 919      826DE320 
 919      CC926DB6 
 919      9AC8
 920 1266 CF4EDACA 		.ascii	"\317N\332\312oYX\231\376\317,\321Z\021\251\251MZ,\027"
 920      6F595899 
 920      FECF2CD1 
 920      5A11A9A9 
 920      4D5A2C17 
 921 127a 30573748 		.ascii	"0W7H\235\313\325\240\316\272\241E\311\315\215\004R5"
 921      9DCBD5A0 
 921      CEBAA145 
 921      C9CD8D04 
 921      5235
 922 128c FD7D8ED4 		.ascii	"\375}\216\324\2709[\021\204H\215:\223\032\327\346\320"
 922      B8395B11 
 922      84488D3A 
 922      931AD7E6 
 922      D0
 923 129d 3556D135 		.ascii	"5V\3215\030g\232\021g\"6\227u&\365\307\3267\024^)SJ"
 923      18679A11 
 923      67223697 
 923      7526F5C7 
 923      D637145E 
 924 12b4 BE857EDA 		.ascii	"\276\205~\332\302&\005:\314\200x&aj\201W'm\221\005\026"
 924      C226053A 
 924      CC807826 
ARM GAS  /tmp/ccCJBSpW.s 			page 73


 924      616A8157 
 924      276D9105 
 925 12c9 16C93258 		.ascii	"\026\3112Xd\001k\021j3\016\303\204\3005\305\213\273"
 925      64016B11 
 925      6A330EC3 
 925      84C035C5 
 925      8BBB
 926 12db FA385F9C 		.ascii	"\3728_\234\253bT\325y(\221\363\256\212\370\303\260x"
 926      AB6254D5 
 926      792891F3 
 926      AE8AF8C3 
 926      B078
 927 12ed 9A62AB41 		.ascii	"\232b\253A\017\234\264\252\226X\250j\250AUKXUQ{rX.\004"
 927      0F9CB4AA 
 927      9658A86A 
 927      A841554B 
 927      5855517B 
 928 1305 AED52C64 		.ascii	"\256\325,d\227\266F\244\206i\000t\225:\024\265!&&\333"
 928      97B646A4 
 928      86690074 
 928      953A14B5 
 928      212626DB 
 929 1319 85E3697D 		.ascii	"\205\343i}K\034\255\327D\265N\034\277\255\235\016\236"
 929      4B1CADD7 
 929      44B54E1C 
 929      BFAD9D0E 
 929      9E
 930 132a FDB4E313 		.ascii	"\375\264\343\023\016\373\332\023\273p@o(;\236a\230Z"
 930      0EFBDA13 
 930      BB70406F 
 930      283B9E61 
 930      985A
 931 133c 22FF5ED2 		.ascii	"\"\377^\322v\251\263\260\313\000\203]\352X\273P\237"
 931      76A9B3B0 
 931      CB00835D 
 931      EA58BB50 
 931      9F
 932 134d FA192604 		.ascii	"\372\031&\004\356b<e\316\216\023\355+c\224\271\263\223"
 932      EE623C65 
 932      CE8E13ED 
 932      2B6394B9 
 932      B393
 933 135f 56E66993 		.ascii	"V\346i\223<\263e\011\235gzLj,\256\246k\\\210\223\211"
 933      3CB36509 
 933      9D677A4C 
 933      6A2CAEA6 
 933      6B5C8893 
 934 1374 E6C4E16D 		.ascii	"\346\304\341mM\014o'kh\334\213&-\227\237\241\271\357"
 934      4D0C6F27 
 934      6B68DC8B 
 934      262D979F 
 934      A1B9EF
 935 1387 35A9B1B4 		.ascii	"5\251\261\264\207\256\321g\330\011\361\360\210\021y"
 935      87AED167 
 935      D809F1F0 
 935      881179
 936 1396 E30ABC13 		.ascii	"\343\012\274\023\274\177\031\237W\024\312\013\312y\201"
ARM GAS  /tmp/ccCJBSpW.s 			page 74


 936      BC7F199F 
 936      5714CA0B 
 936      CA7981
 937 13a5 A2A01CCA 		.ascii	"\242\240\034\312{\346\345\027\307\27585\317S\340)\012"
 937      7BE6E517 
 937      C7BD3835 
 937      CF53E029 
 937      0A
 938 13b6 4AEEC94F 		.ascii	"J\356\311O\370G\024p.\364\312\355+\362\274\232\372\334"
 938      F8471470 
 938      2EF4CAED 
 938      2BF2BC9A 
 938      FADC
 939 13c8 BFBD923B 		.ascii	"\277\275\222;\216\313\304\017\212\013\321\243\373b\200"
 939      8ECBC40F 
 939      8A0BD1A3 
 939      FB6280
 940 13d7 BC851E5F 		.ascii	"\274\205\036_q\276\004\030\241i!D\356)\030?-\364g\250"
 940      71BE0418 
 940      A1692144 
 940      EE29183F 
 940      2DF467A8 
 941 13eb 9B89AF5E 		.ascii	"\233\211\257^\301t\2711t\241\240\007h\244\311R\241\034"
 941      C174B931 
 941      74A1A007 
 941      68A4C952 
 941      A11C
 942 13fd 1AE1E1EE 		.ascii	"\032\341\341\356\217\003L*\025p\331\370\312\035**\016"
 942      8F034C2A 
 942      1570D9F8 
 942      CA1D2A2A 
 942      0E
 943 140e 7A24B79C 		.ascii	"z$\267\234E\337\346h7>oH\226\012\245\240[\3166>H\223"
 943      45DFE668 
 943      373E6F48 
 943      960AA5A0 
 943      5BCE363E 
 944 1424 7CEE4269 		.ascii	"|\356Bi\252\374`|\011\344i\001\0115\225.\027\004%1\337"
 944      AAFC607C 
 944      09E46901 
 944      0935952E 
 944      17042531 
 945 1439 2D833C6E 		.ascii	"-\203<n\355\3727\361(=\005\371@\225\032\300m\300\237"
 945      EDFA37F1 
 945      283D05F9 
 945      40951AC0 
 945      6DC09F
 946 144c 40509AFC 		.ascii	"@P\232\374x\002\255\027\371\003^\237\024\014\345=7n"
 946      7802AD17 
 946      F9035E9F 
 946      140CE53D 
 946      376E
 947 145e 1C60E84D 		.ascii	"\034`\350M\247\311\201\240\267\310\015\025\013'\342"
 947      A7C981A0 
 947      B7C80D15 
 947      0B27E2
 948 146d 3226AFA0 		.ascii	"2&\257\240\310/\345\005\245\220$\006=\005y\005b0\177"
ARM GAS  /tmp/ccCJBSpW.s 			page 75


 948      C82FE505 
 948      A5902406 
 948      3D057905 
 948      62307F
 949 1480 8A1894F2 		.ascii	"\212\030\224\362\304\240\177t\336$\217\347\021\270x"
 949      C4A07F74 
 949      DE248FE7 
 949      11B878
 950 148f 44F24F90 		.ascii	"D\362O\220\362\363\245\374\310\203\302\242B\351\021"
 950      F2F3A5FC 
 950      C883C2A2 
 950      42E911
 951 149e 499CE07D 		.ascii	"I\234\340}\3441\367\330GF\217\034\365\330\337G\347\031"
 951      E431F7D8 
 951      47468F1C 
 951      F5D8DF47 
 951      E719
 952 14b0 5E440408 		.ascii	"^D\004\010\311\371\336B\031\211]\014\177\037\035\355"
 952      C9F9DE42 
 952      19895D0C 
 952      7F1F1DED 
 953 14c0 96A7F3BF 		.ascii	"\226\247\363\277\\\353~\321S\340-\224\362\334\371\322"
 953      5CEB7ED1 
 953      53E02D94 
 953      F2DCF9D2 
 954 14d0 44B1D827 		.ascii	"D\261\330'\273uMd\270\335:?X\245\336\2424OQ\241\014"
 954      BB754D64 
 954      B8DD3A3F 
 954      58A5DEA2 
 954      344F51A1 
 955 14e5 1AFEAD1D 		.ascii	"\032\376\255\035\207\006\004\315w\001\303#OM\017J\223"
 955      870604CD 
 955      7701C323 
 955      4F4D0F4A 
 955      93
 956 14f6 8001B72C 		.ascii	"\200\001\267,\004\037\023\202c\204\340\343B\360\011"
 956      041F1382 
 956      6384E0E3 
 956      42F009
 957 1505 21385608 		.ascii	"!8V\010>\351\010\216\032\011e\224\340\013\302\237GS"
 957      3EE9088E 
 957      1A096594 
 957      E00BC29F 
 957      4753
 958 1517 026EA89F 		.ascii	"\002n\250\237\206\2149\005<'\340.\362\345KA\247\007"
 958      868C3905 
 958      3C27E02E 
 958      F2E54B41 
 958      A707
 959 1529 44471616 		.ascii	"DG\026\026\375RFH~U\364y'\025\272e\254\262\307\037s"
 959      FD524648 
 959      7E55F479 
 959      2715BA65 
 959      ACB2C71F 
 960 153e CB845B7C 		.ascii	"\313\204[|\031pC\005\237\327\357\225\323\345\220,\312"
 960      19704305 
 960      9FD7EF95 
ARM GAS  /tmp/ccCJBSpW.s 			page 76


 960      D3E5902C 
 960      CA
 961 154f E0AD69E8 		.ascii	"\340\255i\350\345Xp(\255\032\\\245\241Z\360.M\366\027"
 961      E5587028 
 961      AD1A5CA5 
 961      A15AF02E 
 961      4DF617
 962 1562 E54BF87E 		.ascii	"\345K\370~\242O\234\024J\223\203\322\304\020\226\031"
 962      A24F9C14 
 962      4A9383D2 
 962      C4109619 
 963 1572 5DA4F843 		.ascii	"]\244\370C\223\340%Q\004\220\353*\011\346O\203W\351"
 963      93E02551 
 963      0490EB2A 
 963      09E64F83 
 963      57E9
 964 1584 D254AFEC 		.ascii	"\322T\257\354\001\200\324)r\321\204\377\012\014&\236"
 964      0180D429 
 964      72D184FF 
 964      0A0C269E 
 965 1594 0BA45250 		.ascii	"\013\244RP*D\201\2222E\226\203\201\264\020\304\003\020"
 965      2A448192 
 965      32459683 
 965      81B410C4 
 965      0310
 966 15a6 64814787 		.ascii	"d\201G\207$\277\030(\000\035\305\015h\011\345\203\201"
 966      24BF1828 
 966      001DC50D 
 966      6809E583 
 966      81
 967 15b7 1A5EC8FD 		.ascii	"\032^\310\375\367b\251\030\300r\"\001A\036\245\221\277"
 967      F762A918 
 967      C0722201 
 967      411EA591 
 967      BF
 968 15c8 291E0837 		.ascii	")\036\01079%\344\206\277\300\013P\007\322\241\256\277"
 968      3925E486 
 968      BFC00B50 
 968      07D2A1AE 
 968      BF
 969 15d9 180C16AF 		.ascii	"\030\014\026\257\031\277<\025y\275\237\240\371\335E"
 969      19BF3C15 
 969      79BD9FA0 
 969      F9DD45
 970 15e8 5350BC62 		.ascii	"SP\274b:\220\322\257\205\324\024\031\352\0052qP\373"
 970      3A90D2AF 
 970      85D41419 
 970      EA053271 
 970      50FB
 971 15fa C5D0ABF0 		.ascii	"\305\320\253\360F\232\202.\034\001wq\266\316\020\212"
 971      469A822E 
 971      1C017771 
 971      B6CE108A 
 972 160a 76B73C90 		.ascii	"v\267<\220b\021=q\005\334SD\257\354-\234\004\206\001"
 972      62113D71 
 972      05DC5344 
 972      AFEC2D9C 
ARM GAS  /tmp/ccCJBSpW.s 			page 77


 972      048601
 973 161d 0DE086E0 		.ascii	"\015\340\206\340R\012H\205\340\370\223\340=\200\243"
 973      520A4885 
 973      E0F893E0 
 973      3D80A3
 974 162c 9A1948E5 		.ascii	"\232\031H\345\242\017\273\032<\014\024\025\3712!q\350"
 974      A20FBB1A 
 974      3C0C1415 
 974      F9322171 
 974      E8
 975 163d 49C405D7 		.ascii	"I\304\005\327Z6\322r\0176\027\270\000<\306\227\350\375"
 975      5A36D272 
 975      0F3617B8 
 975      003CC697 
 975      E8FD
 976 164f 14CD8652 		.ascii	"\024\315\206R\010\363}\267\247\340\331\311\362\313\322"
 976      08F37DB7 
 976      A7E0D9C9 
 976      F2CBD2
 977 165e 2484107C 		.ascii	"$\204\020|\021\370\375\253W.\370\023\252\342\220B\001"
 977      11F8FDAB 
 977      572EF813 
 977      AAE29042 
 977      01
 978 166f 87E40BA4 		.ascii	"\207\344\013\244j\210\251\032\341@L\360Ja\220\220\334"
 978      6A88A91A 
 978      E1404CF0 
 978      4A619090 
 978      DC
 979 1680 85EF9F93 		.ascii	"\205\357\237\223\344g\012\363\307\371 \004\237\305\265"
 979      E4670AF3 
 979      C7F92004 
 979      9FC5B5
 980 168f B3F1E367 		.ascii	"\263\361\343g\362\363\265\333al-\334B\026~:\036\334"
 980      F2F3B5DB 
 980      616C2DDC 
 980      42167E3A 
 980      1EDC
 981 16a1 54F4BD20 		.ascii	"T\364\275 \310\201\241\370\376\017\301\"1\337#\206d"
 981      C881A1F8 
 981      FE0FC122 
 981      31DF2386 
 981      64
 982 16b2 5CE78514 		.ascii	"\\\347\205\024\334l&Uu\210I\265\03064b\027\346\335\013"
 982      DC6C2655 
 982      758849B5 
 982      18363462 
 982      17E6DD0B 
 983 16c6 79122C53 		.ascii	"y\022,S \026\346\373P\352\035\200+\377\321\033\012\210"
 983      2016E6FB 
 983      50EA1D80 
 983      2BFFD11B 
 983      0A88
 984 16d8 B2A7209D 		.ascii	"\262\247 \235<'\354\374\025,\361\227B)z\363L\3414\352"
 984      3C27ECFC 
 984      152CF197 
 984      42297AF3 
ARM GAS  /tmp/ccCJBSpW.s 			page 78


 984      4CE134EA 
 985 16ec C6E773A1 		.ascii	"\306\347s\2414\354\365\203\253\015\241\011\376\003\036"
 985      34ECF583 
 985      AB0DA109 
 985      FE031E
 986 16fb 1515CB4E 		.ascii	"\025\025\313N\364j\010ML^\014\2411\3103\324\005y\012"
 986      F46A084D 
 986      4C5E0CA1 
 986      31C833D4 
 986      05790A
 987 170e 5E064798 		.ascii	"^\006G\230\366B\016\271\206T-\345\027\373\244\361\003"
 987      F6420EB9 
 987      86542DE5 
 987      17FBA4F1 
 987      03
 988 171f F083E78A 		.ascii	"\360\203\347\212\306\373$)0~(}G\310\307g\242P\001n$"
 988      C6FB2429 
 988      307E287D 
 988      47C8C767 
 988      A250016E 
 989 1734 BFD61168 		.ascii	"\277\326\021h\327Y\310\263\246\021_\003\024w\364>-\250"
 989      D759C8B3 
 989      A6115F03 
 989      1477F43E 
 989      2DA8
 990 1746 79716A10 		.ascii	"yqj\020\247\253\224 N$A\222H\202Z\"q\301\323\342 \304"
 990      A7AB9420 
 990      4E244192 
 990      48825A22 
 990      71C1D3E2 
 991 175c A69C1244 		.ascii	"\246\234\022DD\303&{\203r\261\350s#\321\202\272\023"
 991      44C3267B 
 991      8372B1E8 
 991      7323D182 
 991      BA13
 992 176e 83C6DD26 		.ascii	"\203\306\335&/\006\032\236i\341hx\2246Y\306\236\207"
 992      2F061A9E 
 992      69E16878 
 992      943659C6 
 992      9E87
 993 1780 FEA25E28 		.ascii	"\376\242^(\035\376\346K>Y\204\213\211\305\205\0367~"
 993      1DFEE64B 
 993      3E59848B 
 993      89C5851E 
 993      377E
 994 1792 83AE5251 		.ascii	"\203\256RQ\0151\230\011\177|`gD\015\217P#\331D\350|"
 994      0D319809 
 994      7F7C6067 
 994      440D8F50 
 994      23D944E8 
 995 17a7 6942F124 		.ascii	"iB\361$-\236\350'\256\200X\350\365\240Hr\344O\230\224"
 995      2D9EE827 
 995      AE8058E8 
 995      F5A04872 
 995      E44F9894 
 996 17bb E1172123 		.ascii	"\341\027!#\341p\213\355\346\243a.\243d\222#\373\335"
 996      E1708BED 
ARM GAS  /tmp/ccCJBSpW.s 			page 79


 996      E6A3612E 
 996      A3649223 
 996      FBDD
 997 17cd 1E489C   		.ascii	"\036H\234"
 998 17d0 1382A2EC 		.ascii	"\023\202\242\354-\202\354\231\026\224q\332H-\23281$"
 998      2D82EC99 
 998      169471DA 
 998      482D9A38 
 998      3124
 999 17e2 C982ECCF 		.ascii	"\311\202\354\317\366\202\263\220\360\205\260\025<\005"
 999      F682B390 
 999      F085B015 
 999      3C05
 1000 17f0 238CA820 		.ascii	"#\214\250 [\336\270\027\307\2770>\012\216F/\036\377"
 1000      5BDEB817 
 1000      C7BF303E 
 1000      0A8E462F 
 1000      1EFF
 1001 1802 9F402668 		.ascii	"\237@&hc\200\033\322\233\354\376\3033\343\237}\351\345"
 1001      63801BD2 
 1001      9BECFEC3 
 1001      33E39F7D 
 1001      E9E5
 1002 1814 170688BE 		.ascii	"\027\006\210\276)\342\264\020$M\037\3641)\223E_\261"
 1002      29E2B410 
 1002      244D1FF4 
 1002      31299345 
 1002      5FB1
 1003 1826 94EEC6F2 		.ascii	"\224\356\306\362\273\335\003\364\213\021c\236\0309*"
 1003      BBDD03F4 
 1003      8B11639E 
 1003      18392A
 1004 1835 7AF7F8A3 		.ascii	"z\367\370\243O>I\335=6r\014}\367\350X\372n\364(\303"
 1004      4F3E49DD 
 1004      3D36720C 
 1004      7DF7E858 
 1004      FA6EF428 
 1005 184a BB47E9BB 		.ascii	"\273G\351\2731\243\377\037\033\224q\223"
 1005      31A3FF1F 
 1005      1B947193 
 1006              		.text
 1007              		.section	.gnu.lto_.symtab.bcf7a26b897fba71,"",%progbits
 1008 0000 63684576 		.ascii	"chEvtRegisterMaskWithFlags\000\000\000\000\000\000\000"
 1008      74526567 
 1008      69737465 
 1008      724D6173 
 1008      6B576974 
 1009 0021 00000000 		.ascii	"\000\000\000\000\000\257\000\000\000chEvtUnregister"
 1009      00AF0000 
 1009      00636845 
 1009      7674556E 
 1009      72656769 
 1010 0039 00000000 		.ascii	"\000\000\000\000\000\000\000\000\000\000\000\000\226"
 1010      00000000 
 1010      00000000 
 1010      96
 1011 0046 01000063 		.ascii	"\001\000\000chEvtGetAndClearEvents\000\000\000\000\000"
ARM GAS  /tmp/ccCJBSpW.s 			page 80


 1011      68457674 
 1011      47657441 
 1011      6E64436C 
 1011      65617245 
 1012 0064 00000000 		.ascii	"\000\000\000\000\000\000\000\236\001\000\000chEvtAd"
 1012      0000009E 
 1012      01000063 
 1012      68457674 
 1012      4164
 1013 0076 64457665 		.ascii	"dEvents\000\000\000\000\000\000\000\000\000\000\000"
 1013      6E747300 
 1013      00000000 
 1013      00000000 
 1013      0000
 1014 0088 00A40100 		.ascii	"\000\244\001\000\000chEvtGetAndClearFlags\000\000\000"
 1014      00636845 
 1014      76744765 
 1014      74416E64 
 1014      436C6561 
 1015 00a5 00000000 		.ascii	"\000\000\000\000\000\000\000\000\000\250\001\000\000"
 1015      00000000 
 1015      00A80100 
 1015      00
 1016 00b2 63684576 		.ascii	"chEvtSignalI\000\000\000\000\000\000\000\000\000\000"
 1016      74536967 
 1016      6E616C49 
 1016      00000000 
 1016      00000000 
 1017 00c8 0000AE01 		.ascii	"\000\000\256\001\000\000chEvtBroadcastFlagsI\000\000"
 1017      00006368 
 1017      45767442 
 1017      726F6164 
 1017      63617374 
 1018 00e4 00000000 		.ascii	"\000\000\000\000\000\000\000\000\000\000\267\001\000"
 1018      00000000 
 1018      0000B701 
 1018      00
 1019 00f1 00636845 		.ascii	"\000chEvtSignal\000\000\000\000\000\000\000\000\000"
 1019      76745369 
 1019      676E616C 
 1019      00000000 
 1019      00000000 
 1020 0106 000000C0 		.ascii	"\000\000\000\300\001\000\000chEvtBroadcastFlags\000"
 1020      01000063 
 1020      68457674 
 1020      42726F61 
 1020      64636173 
 1021 0121 00000000 		.ascii	"\000\000\000\000\000\000\000\000\000\000\000\305\001"
 1021      00000000 
 1021      000000C5 
 1021      01
 1022 012e 00006368 		.ascii	"\000\000chEvtGetAndClearFlagsI\000\000\000\000\000\000"
 1022      45767447 
 1022      6574416E 
 1022      64436C65 
 1022      6172466C 
 1023 014c 00000000 		.ascii	"\000\000\000\000\000\000\312\001\000\000chEvtDispat"
ARM GAS  /tmp/ccCJBSpW.s 			page 81


 1023      0000CA01 
 1023      00006368 
 1023      45767444 
 1023      69737061 
 1024 0161 63680000 		.ascii	"ch\000\000\000\000\000\000\000\000\000\000\000\000\316"
 1024      00000000 
 1024      00000000 
 1024      0000CE
 1025 0170 01000063 		.ascii	"\001\000\000chEvtWaitOne\000\000\000\000\000\000\000"
 1025      68457674 
 1025      57616974 
 1025      4F6E6500 
 1025      00000000 
 1026 0186 00000000 		.ascii	"\000\000\000\000\000\342\001\000\000chEvtWaitAny\000"
 1026      00E20100 
 1026      00636845 
 1026      76745761 
 1026      6974416E 
 1027 019c 00000000 		.ascii	"\000\000\000\000\000\000\000\000\000\000\000\346\001"
 1027      00000000 
 1027      000000E6 
 1027      01
 1028 01a9 00006368 		.ascii	"\000\000chEvtWaitAll\000\000\000\000\000\000\000\000"
 1028      45767457 
 1028      61697441 
 1028      6C6C0000 
 1028      00000000 
 1029 01bf 00000000 		.ascii	"\000\000\000\000\352\001\000\000chEvtWaitOneTimeout"
 1029      EA010000 
 1029      63684576 
 1029      74576169 
 1029      744F6E65 
 1030 01da 00000000 		.ascii	"\000\000\000\000\000\000\000\000\000\000\000\000\356"
 1030      00000000 
 1030      00000000 
 1030      EE
 1031 01e7 01000063 		.ascii	"\001\000\000chEvtWaitAnyTimeout\000\000\000\000\000"
 1031      68457674 
 1031      57616974 
 1031      416E7954 
 1031      696D656F 
 1032 0202 00000000 		.ascii	"\000\000\000\000\000\000\000\372\001\000\000chEvtWa"
 1032      000000FA 
 1032      01000063 
 1032      68457674 
 1032      5761
 1033 0214 6974416C 		.ascii	"itAllTimeout\000\000\000\000\000\000\000\000\000\000"
 1033      6C54696D 
 1033      656F7574 
 1033      00000000 
 1033      00000000 
 1034 022a 0000FF01 		.ascii	"\000\000\377\001\000\000ch\000\000\002\000\000\000\000"
 1034      00006368 
 1034      00000200 
 1034      000000
 1035 0239 00000000 		.ascii	"\000\000\000\000\000\023\002\000\000chSchReadyI\000"
 1035      00130200 
ARM GAS  /tmp/ccCJBSpW.s 			page 82


 1035      00636853 
 1035      63685265 
 1035      61647949 
 1036 024e 00020000 		.ascii	"\000\002\000\000\000\000\000\000\000\000\000\004\002"
 1036      00000000 
 1036      00000004 
 1036      02
 1037 025b 00006368 		.ascii	"\000\000chSchRescheduleS\000\000\002\000\000\000\000"
 1037      53636852 
 1037      65736368 
 1037      6564756C 
 1037      65530000 
 1038 0274 00000000 		.ascii	"\000\000\000\000\000\010\002\000\000chSchGoSleepS\000"
 1038      00080200 
 1038      00636853 
 1038      6368476F 
 1038      536C6565 
 1039 028b 00020000 		.ascii	"\000\002\000\000\000\000\000\000\000\000\000\012\002"
 1039      00000000 
 1039      0000000A 
 1039      02
 1040 0298 00006368 		.ascii	"\000\000chSchGoSleepTimeoutS\000\000\002\000\000\000"
 1040      53636847 
 1040      6F536C65 
 1040      65705469 
 1040      6D656F75 
 1041 02b4 00000000 		.ascii	"\000\000\000\000\000\000\016\002\000\000"
 1041      00000E02 
 1041      0000
 1042              		.text
 1043              		.section	.gnu.lto_.opts,"",%progbits
 1044 0000 272D6D63 		.ascii	"'-mcpu=cortex-m4' '-mno-thumb-interwork' '-mthumb' "
 1044      70753D63 
 1044      6F727465 
 1044      782D6D34 
 1044      2720272D 
 1045 0033 272D6767 		.ascii	"'-ggdb' '-O0' '-fomit-frame-pointer' '-falign-funct"
 1045      64622720 
 1045      272D4F30 
 1045      2720272D 
 1045      666F6D69 
 1046 0066 696F6E73 		.ascii	"ions=16' '-ffunction-sections' '-fdata-sections' '-"
 1046      3D313627 
 1046      20272D66 
 1046      66756E63 
 1046      74696F6E 
 1047 0099 666E6F2D 		.ascii	"fno-common' '-flto'\000"
 1047      636F6D6D 
 1047      6F6E2720 
 1047      272D666C 
 1047      746F2700 
 1048              		.text
 1049              		.cfi_sections	.debug_frame
 1050              		.section	.text.port_lock,"ax",%progbits
 1051              		.align	2
 1052              		.p2align 4,,15
 1053              		.thumb
ARM GAS  /tmp/ccCJBSpW.s 			page 83


 1054              		.thumb_func
 1055              		.type	port_lock, %function
 1056              	port_lock:
 1057              	.LFB127:
 1058              		.file 1 "../ChibiOS/os/rt/ports/ARMCMx/chcore_v7m.h"
 1059              		.loc 1 456 0
 1060              		.cfi_startproc
 1061              		@ args = 0, pretend = 0, frame = 8
 1062              		@ frame_needed = 0, uses_anonymous_args = 0
 1063              		@ link register save eliminated.
 1064 0000 82B0     		sub	sp, sp, #8
 1065              		.cfi_def_cfa_offset 8
 1066 0002 2023     		movs	r3, #32
 1067 0004 0193     		str	r3, [sp, #4]
 1068              	.LBB6:
 1069              	.LBB7:
 1070              		.file 2 "../ChibiOS/os/ext/CMSIS/include/core_cmFunc.h"
 1071              		.loc 2 548 0
 1072 0006 019B     		ldr	r3, [sp, #4]
 1073              	@ 548 "../ChibiOS/os/ext/CMSIS/include/core_cmFunc.h" 1
 1074 0008 83F31188 		MSR basepri, r3
 1075              	@ 0 "" 2
 1076              		.thumb
 1077              	.LBE7:
 1078              	.LBE6:
 1079              		.loc 1 473 0
 1080 000c 02B0     		add	sp, sp, #8
 1081              		@ sp needed
 1082 000e 7047     		bx	lr
 1083              		.cfi_endproc
 1084              	.LFE127:
 1085              		.size	port_lock, .-port_lock
 1086              		.section	.text.port_unlock,"ax",%progbits
 1087              		.align	2
 1088              		.p2align 4,,15
 1089              		.thumb
 1090              		.thumb_func
 1091              		.type	port_unlock, %function
 1092              	port_unlock:
 1093              	.LFB128:
 1094              		.loc 1 480 0
 1095              		.cfi_startproc
 1096              		@ args = 0, pretend = 0, frame = 8
 1097              		@ frame_needed = 0, uses_anonymous_args = 0
 1098              		@ link register save eliminated.
 1099 0000 82B0     		sub	sp, sp, #8
 1100              		.cfi_def_cfa_offset 8
 1101 0002 0023     		movs	r3, #0
 1102 0004 0193     		str	r3, [sp, #4]
 1103              	.LBB8:
 1104              	.LBB9:
 1105              		.loc 2 548 0
 1106 0006 019B     		ldr	r3, [sp, #4]
 1107              	@ 548 "../ChibiOS/os/ext/CMSIS/include/core_cmFunc.h" 1
 1108 0008 83F31188 		MSR basepri, r3
 1109              	@ 0 "" 2
 1110              		.thumb
ARM GAS  /tmp/ccCJBSpW.s 			page 84


 1111              	.LBE9:
 1112              	.LBE8:
 1113              		.loc 1 487 0
 1114 000c 02B0     		add	sp, sp, #8
 1115              		@ sp needed
 1116 000e 7047     		bx	lr
 1117              		.cfi_endproc
 1118              	.LFE128:
 1119              		.size	port_unlock, .-port_unlock
 1120              		.section	.text.chSysLock,"ax",%progbits
 1121              		.align	2
 1122              		.p2align 4,,15
 1123              		.thumb
 1124              		.thumb_func
 1125              		.type	chSysLock, %function
 1126              	chSysLock:
 1127              	.LFB167:
 1128              		.file 3 "../ChibiOS/os/rt/include/chsys.h"
 1129              		.loc 3 346 0
 1130              		.cfi_startproc
 1131              		@ args = 0, pretend = 0, frame = 0
 1132              		@ frame_needed = 0, uses_anonymous_args = 0
 1133 0000 08B5     		push	{r3, lr}
 1134              		.cfi_def_cfa_offset 8
 1135              		.cfi_offset 3, -8
 1136              		.cfi_offset 14, -4
 1137              		.loc 3 348 0
 1138 0002 FFF7FEFF 		bl	port_lock
 1139              		.loc 3 351 0
 1140 0006 08BD     		pop	{r3, pc}
 1141              		.cfi_endproc
 1142              	.LFE167:
 1143              		.size	chSysLock, .-chSysLock
 1144              		.section	.text.chSysUnlock,"ax",%progbits
 1145              		.align	2
 1146              		.p2align 4,,15
 1147              		.thumb
 1148              		.thumb_func
 1149              		.type	chSysUnlock, %function
 1150              	chSysUnlock:
 1151              	.LFB168:
 1152              		.loc 3 358 0
 1153              		.cfi_startproc
 1154              		@ args = 0, pretend = 0, frame = 0
 1155              		@ frame_needed = 0, uses_anonymous_args = 0
 1156 0000 08B5     		push	{r3, lr}
 1157              		.cfi_def_cfa_offset 8
 1158              		.cfi_offset 3, -8
 1159              		.cfi_offset 14, -4
 1160              		.loc 3 371 0
 1161 0002 FFF7FEFF 		bl	port_unlock
 1162              		.loc 3 372 0
 1163 0006 08BD     		pop	{r3, pc}
 1164              		.cfi_endproc
 1165              	.LFE168:
 1166              		.size	chSysUnlock, .-chSysUnlock
 1167 0008 AFF30080 		.section	.text.chEvtRegisterMaskWithFlags,"ax",%progbits
ARM GAS  /tmp/ccCJBSpW.s 			page 85


 1167      AFF30080 
 1168              		.align	2
 1169              		.p2align 4,,15
 1170              		.global	chEvtRegisterMaskWithFlags
 1171              		.thumb
 1172              		.thumb_func
 1173              		.type	chEvtRegisterMaskWithFlags, %function
 1174              	chEvtRegisterMaskWithFlags:
 1175              	.LFB241:
 1176              		.file 4 "../ChibiOS/os/rt/src/chevents.c"
 1177              		.loc 4 106 0
 1178              		.cfi_startproc
 1179              		@ args = 0, pretend = 0, frame = 16
 1180              		@ frame_needed = 0, uses_anonymous_args = 0
 1181 0000 00B5     		push	{lr}
 1182              		.cfi_def_cfa_offset 4
 1183              		.cfi_offset 14, -4
 1184 0002 85B0     		sub	sp, sp, #20
 1185              		.cfi_def_cfa_offset 24
 1186 0004 0390     		str	r0, [sp, #12]
 1187 0006 0291     		str	r1, [sp, #8]
 1188 0008 0192     		str	r2, [sp, #4]
 1189 000a 0093     		str	r3, [sp]
 1190              		.loc 4 110 0
 1191 000c FFF7FEFF 		bl	chSysLock
 1192              		.loc 4 111 0
 1193 0010 039B     		ldr	r3, [sp, #12]
 1194 0012 1A68     		ldr	r2, [r3]
 1195 0014 029B     		ldr	r3, [sp, #8]
 1196 0016 1A60     		str	r2, [r3]
 1197              		.loc 4 112 0
 1198 0018 039B     		ldr	r3, [sp, #12]
 1199 001a 029A     		ldr	r2, [sp, #8]
 1200 001c 1A60     		str	r2, [r3]
 1201              		.loc 4 113 0
 1202 001e 094B     		ldr	r3, .L6
 1203 0020 9A69     		ldr	r2, [r3, #24]
 1204 0022 029B     		ldr	r3, [sp, #8]
 1205 0024 5A60     		str	r2, [r3, #4]
 1206              		.loc 4 114 0
 1207 0026 029B     		ldr	r3, [sp, #8]
 1208 0028 019A     		ldr	r2, [sp, #4]
 1209 002a 9A60     		str	r2, [r3, #8]
 1210              		.loc 4 115 0
 1211 002c 029B     		ldr	r3, [sp, #8]
 1212 002e 0022     		movs	r2, #0
 1213 0030 DA60     		str	r2, [r3, #12]
 1214              		.loc 4 116 0
 1215 0032 029B     		ldr	r3, [sp, #8]
 1216 0034 009A     		ldr	r2, [sp]
 1217 0036 1A61     		str	r2, [r3, #16]
 1218              		.loc 4 117 0
 1219 0038 FFF7FEFF 		bl	chSysUnlock
 1220              		.loc 4 118 0
 1221 003c 05B0     		add	sp, sp, #20
 1222              		@ sp needed
 1223 003e 5DF804FB 		ldr	pc, [sp], #4
ARM GAS  /tmp/ccCJBSpW.s 			page 86


 1224              	.L7:
 1225 0042 00BF     		.align	2
 1226              	.L6:
 1227 0044 00000000 		.word	ch
 1228              		.cfi_endproc
 1229              	.LFE241:
 1230              		.size	chEvtRegisterMaskWithFlags, .-chEvtRegisterMaskWithFlags
 1231 0048 AFF30080 		.section	.text.chEvtUnregister,"ax",%progbits
 1231      AFF30080 
 1232              		.align	2
 1233              		.p2align 4,,15
 1234              		.global	chEvtUnregister
 1235              		.thumb
 1236              		.thumb_func
 1237              		.type	chEvtUnregister, %function
 1238              	chEvtUnregister:
 1239              	.LFB242:
 1240              		.loc 4 133 0
 1241              		.cfi_startproc
 1242              		@ args = 0, pretend = 0, frame = 16
 1243              		@ frame_needed = 0, uses_anonymous_args = 0
 1244 0000 00B5     		push	{lr}
 1245              		.cfi_def_cfa_offset 4
 1246              		.cfi_offset 14, -4
 1247 0002 85B0     		sub	sp, sp, #20
 1248              		.cfi_def_cfa_offset 24
 1249 0004 0190     		str	r0, [sp, #4]
 1250 0006 0091     		str	r1, [sp]
 1251              		.loc 4 139 0
 1252 0008 019B     		ldr	r3, [sp, #4]
 1253 000a 0393     		str	r3, [sp, #12]
 1254              		.loc 4 141 0
 1255 000c FFF7FEFF 		bl	chSysLock
 1256              		.loc 4 143 0
 1257 0010 0CE0     		b	.L9
 1258              	.L12:
 1259              		.loc 4 145 0
 1260 0012 039B     		ldr	r3, [sp, #12]
 1261 0014 1A68     		ldr	r2, [r3]
 1262 0016 009B     		ldr	r3, [sp]
 1263 0018 9A42     		cmp	r2, r3
 1264 001a 04D1     		bne	.L10
 1265              		.loc 4 146 0
 1266 001c 009B     		ldr	r3, [sp]
 1267 001e 1A68     		ldr	r2, [r3]
 1268 0020 039B     		ldr	r3, [sp, #12]
 1269 0022 1A60     		str	r2, [r3]
 1270              		.loc 4 147 0
 1271 0024 07E0     		b	.L11
 1272              	.L10:
 1273              		.loc 4 149 0
 1274 0026 039B     		ldr	r3, [sp, #12]
 1275 0028 1B68     		ldr	r3, [r3]
 1276 002a 0393     		str	r3, [sp, #12]
 1277              	.L9:
 1278              		.loc 4 143 0 discriminator 1
 1279 002c 039B     		ldr	r3, [sp, #12]
ARM GAS  /tmp/ccCJBSpW.s 			page 87


 1280 002e 1A68     		ldr	r2, [r3]
 1281 0030 019B     		ldr	r3, [sp, #4]
 1282 0032 9A42     		cmp	r2, r3
 1283 0034 EDD1     		bne	.L12
 1284              	.L11:
 1285              		.loc 4 151 0
 1286 0036 FFF7FEFF 		bl	chSysUnlock
 1287              		.loc 4 152 0
 1288 003a 05B0     		add	sp, sp, #20
 1289              		@ sp needed
 1290 003c 5DF804FB 		ldr	pc, [sp], #4
 1291              		.cfi_endproc
 1292              	.LFE242:
 1293              		.size	chEvtUnregister, .-chEvtUnregister
 1294              		.section	.text.chEvtGetAndClearEvents,"ax",%progbits
 1295              		.align	2
 1296              		.p2align 4,,15
 1297              		.global	chEvtGetAndClearEvents
 1298              		.thumb
 1299              		.thumb_func
 1300              		.type	chEvtGetAndClearEvents, %function
 1301              	chEvtGetAndClearEvents:
 1302              	.LFB243:
 1303              		.loc 4 162 0
 1304              		.cfi_startproc
 1305              		@ args = 0, pretend = 0, frame = 16
 1306              		@ frame_needed = 0, uses_anonymous_args = 0
 1307 0000 00B5     		push	{lr}
 1308              		.cfi_def_cfa_offset 4
 1309              		.cfi_offset 14, -4
 1310 0002 85B0     		sub	sp, sp, #20
 1311              		.cfi_def_cfa_offset 24
 1312 0004 0190     		str	r0, [sp, #4]
 1313              		.loc 4 165 0
 1314 0006 FFF7FEFF 		bl	chSysLock
 1315              		.loc 4 166 0
 1316 000a 0B4B     		ldr	r3, .L15
 1317 000c 9B69     		ldr	r3, [r3, #24]
 1318 000e 5A6B     		ldr	r2, [r3, #52]
 1319 0010 019B     		ldr	r3, [sp, #4]
 1320 0012 1340     		ands	r3, r3, r2
 1321 0014 0393     		str	r3, [sp, #12]
 1322              		.loc 4 167 0
 1323 0016 084B     		ldr	r3, .L15
 1324 0018 9B69     		ldr	r3, [r3, #24]
 1325 001a 074A     		ldr	r2, .L15
 1326 001c 9269     		ldr	r2, [r2, #24]
 1327 001e 516B     		ldr	r1, [r2, #52]
 1328 0020 019A     		ldr	r2, [sp, #4]
 1329 0022 D243     		mvns	r2, r2
 1330 0024 0A40     		ands	r2, r2, r1
 1331 0026 5A63     		str	r2, [r3, #52]
 1332              		.loc 4 168 0
 1333 0028 FFF7FEFF 		bl	chSysUnlock
 1334              		.loc 4 170 0
 1335 002c 039B     		ldr	r3, [sp, #12]
 1336              		.loc 4 171 0
ARM GAS  /tmp/ccCJBSpW.s 			page 88


 1337 002e 1846     		mov	r0, r3
 1338 0030 05B0     		add	sp, sp, #20
 1339              		@ sp needed
 1340 0032 5DF804FB 		ldr	pc, [sp], #4
 1341              	.L16:
 1342 0036 00BF     		.align	2
 1343              	.L15:
 1344 0038 00000000 		.word	ch
 1345              		.cfi_endproc
 1346              	.LFE243:
 1347              		.size	chEvtGetAndClearEvents, .-chEvtGetAndClearEvents
 1348 003c AFF30080 		.section	.text.chEvtAddEvents,"ax",%progbits
 1349              		.align	2
 1350              		.p2align 4,,15
 1351              		.global	chEvtAddEvents
 1352              		.thumb
 1353              		.thumb_func
 1354              		.type	chEvtAddEvents, %function
 1355              	chEvtAddEvents:
 1356              	.LFB244:
 1357              		.loc 4 182 0
 1358              		.cfi_startproc
 1359              		@ args = 0, pretend = 0, frame = 8
 1360              		@ frame_needed = 0, uses_anonymous_args = 0
 1361 0000 00B5     		push	{lr}
 1362              		.cfi_def_cfa_offset 4
 1363              		.cfi_offset 14, -4
 1364 0002 83B0     		sub	sp, sp, #12
 1365              		.cfi_def_cfa_offset 16
 1366 0004 0190     		str	r0, [sp, #4]
 1367              		.loc 4 184 0
 1368 0006 FFF7FEFF 		bl	chSysLock
 1369              		.loc 4 185 0
 1370 000a 094B     		ldr	r3, .L19
 1371 000c 9B69     		ldr	r3, [r3, #24]
 1372 000e 084A     		ldr	r2, .L19
 1373 0010 9269     		ldr	r2, [r2, #24]
 1374 0012 516B     		ldr	r1, [r2, #52]
 1375 0014 019A     		ldr	r2, [sp, #4]
 1376 0016 0A43     		orrs	r2, r2, r1
 1377 0018 5A63     		str	r2, [r3, #52]
 1378              		.loc 4 186 0
 1379 001a 054B     		ldr	r3, .L19
 1380 001c 9B69     		ldr	r3, [r3, #24]
 1381 001e 5B6B     		ldr	r3, [r3, #52]
 1382 0020 0193     		str	r3, [sp, #4]
 1383              		.loc 4 187 0
 1384 0022 FFF7FEFF 		bl	chSysUnlock
 1385              		.loc 4 189 0
 1386 0026 019B     		ldr	r3, [sp, #4]
 1387              		.loc 4 190 0
 1388 0028 1846     		mov	r0, r3
 1389 002a 03B0     		add	sp, sp, #12
 1390              		@ sp needed
 1391 002c 5DF804FB 		ldr	pc, [sp], #4
 1392              	.L20:
 1393              		.align	2
ARM GAS  /tmp/ccCJBSpW.s 			page 89


 1394              	.L19:
 1395 0030 00000000 		.word	ch
 1396              		.cfi_endproc
 1397              	.LFE244:
 1398              		.size	chEvtAddEvents, .-chEvtAddEvents
 1399 0034 AFF30080 		.section	.text.chEvtBroadcastFlagsI,"ax",%progbits
 1399      AFF30080 
 1399      AFF30080 
 1400              		.align	2
 1401              		.p2align 4,,15
 1402              		.global	chEvtBroadcastFlagsI
 1403              		.thumb
 1404              		.thumb_func
 1405              		.type	chEvtBroadcastFlagsI, %function
 1406              	chEvtBroadcastFlagsI:
 1407              	.LFB245:
 1408              		.loc 4 209 0
 1409              		.cfi_startproc
 1410              		@ args = 0, pretend = 0, frame = 16
 1411              		@ frame_needed = 0, uses_anonymous_args = 0
 1412 0000 00B5     		push	{lr}
 1413              		.cfi_def_cfa_offset 4
 1414              		.cfi_offset 14, -4
 1415 0002 85B0     		sub	sp, sp, #20
 1416              		.cfi_def_cfa_offset 24
 1417 0004 0190     		str	r0, [sp, #4]
 1418 0006 0091     		str	r1, [sp]
 1419              		.loc 4 215 0
 1420 0008 019B     		ldr	r3, [sp, #4]
 1421 000a 1B68     		ldr	r3, [r3]
 1422 000c 0393     		str	r3, [sp, #12]
 1423              		.loc 4 217 0
 1424 000e 1AE0     		b	.L22
 1425              	.L25:
 1426              		.loc 4 219 0
 1427 0010 039B     		ldr	r3, [sp, #12]
 1428 0012 DA68     		ldr	r2, [r3, #12]
 1429 0014 009B     		ldr	r3, [sp]
 1430 0016 1A43     		orrs	r2, r2, r3
 1431 0018 039B     		ldr	r3, [sp, #12]
 1432 001a DA60     		str	r2, [r3, #12]
 1433              		.loc 4 222 0
 1434 001c 009B     		ldr	r3, [sp]
 1435 001e 002B     		cmp	r3, #0
 1436 0020 06D0     		beq	.L23
 1437              		.loc 4 223 0 discriminator 1
 1438 0022 039B     		ldr	r3, [sp, #12]
 1439 0024 DA68     		ldr	r2, [r3, #12]
 1440 0026 039B     		ldr	r3, [sp, #12]
 1441 0028 1B69     		ldr	r3, [r3, #16]
 1442 002a 1340     		ands	r3, r3, r2
 1443              		.loc 4 222 0 discriminator 1
 1444 002c 002B     		cmp	r3, #0
 1445 002e 07D0     		beq	.L24
 1446              	.L23:
 1447              		.loc 4 224 0
 1448 0030 039B     		ldr	r3, [sp, #12]
ARM GAS  /tmp/ccCJBSpW.s 			page 90


 1449 0032 5A68     		ldr	r2, [r3, #4]
 1450 0034 039B     		ldr	r3, [sp, #12]
 1451 0036 9B68     		ldr	r3, [r3, #8]
 1452 0038 1046     		mov	r0, r2
 1453 003a 1946     		mov	r1, r3
 1454 003c FFF7FEFF 		bl	chEvtSignalI
 1455              	.L24:
 1456              		.loc 4 226 0
 1457 0040 039B     		ldr	r3, [sp, #12]
 1458 0042 1B68     		ldr	r3, [r3]
 1459 0044 0393     		str	r3, [sp, #12]
 1460              	.L22:
 1461              		.loc 4 217 0 discriminator 1
 1462 0046 039A     		ldr	r2, [sp, #12]
 1463 0048 019B     		ldr	r3, [sp, #4]
 1464 004a 9A42     		cmp	r2, r3
 1465 004c E0D1     		bne	.L25
 1466              		.loc 4 228 0
 1467 004e 05B0     		add	sp, sp, #20
 1468              		@ sp needed
 1469 0050 5DF804FB 		ldr	pc, [sp], #4
 1470              		.cfi_endproc
 1471              	.LFE245:
 1472              		.size	chEvtBroadcastFlagsI, .-chEvtBroadcastFlagsI
 1473 0054 AFF30080 		.section	.text.chEvtGetAndClearFlags,"ax",%progbits
 1473      AFF30080 
 1473      AFF30080 
 1474              		.align	2
 1475              		.p2align 4,,15
 1476              		.global	chEvtGetAndClearFlags
 1477              		.thumb
 1478              		.thumb_func
 1479              		.type	chEvtGetAndClearFlags, %function
 1480              	chEvtGetAndClearFlags:
 1481              	.LFB246:
 1482              		.loc 4 241 0
 1483              		.cfi_startproc
 1484              		@ args = 0, pretend = 0, frame = 16
 1485              		@ frame_needed = 0, uses_anonymous_args = 0
 1486 0000 00B5     		push	{lr}
 1487              		.cfi_def_cfa_offset 4
 1488              		.cfi_offset 14, -4
 1489 0002 85B0     		sub	sp, sp, #20
 1490              		.cfi_def_cfa_offset 24
 1491 0004 0190     		str	r0, [sp, #4]
 1492              		.loc 4 244 0
 1493 0006 FFF7FEFF 		bl	chSysLock
 1494              		.loc 4 245 0
 1495 000a 019B     		ldr	r3, [sp, #4]
 1496 000c DB68     		ldr	r3, [r3, #12]
 1497 000e 0393     		str	r3, [sp, #12]
 1498              		.loc 4 246 0
 1499 0010 019B     		ldr	r3, [sp, #4]
 1500 0012 0022     		movs	r2, #0
 1501 0014 DA60     		str	r2, [r3, #12]
 1502              		.loc 4 247 0
 1503 0016 FFF7FEFF 		bl	chSysUnlock
ARM GAS  /tmp/ccCJBSpW.s 			page 91


 1504              		.loc 4 249 0
 1505 001a 039B     		ldr	r3, [sp, #12]
 1506              		.loc 4 250 0
 1507 001c 1846     		mov	r0, r3
 1508 001e 05B0     		add	sp, sp, #20
 1509              		@ sp needed
 1510 0020 5DF804FB 		ldr	pc, [sp], #4
 1511              		.cfi_endproc
 1512              	.LFE246:
 1513              		.size	chEvtGetAndClearFlags, .-chEvtGetAndClearFlags
 1514 0024 AFF30080 		.section	.text.chEvtSignal,"ax",%progbits
 1514      AFF30080 
 1514      AFF30080 
 1515              		.align	2
 1516              		.p2align 4,,15
 1517              		.global	chEvtSignal
 1518              		.thumb
 1519              		.thumb_func
 1520              		.type	chEvtSignal, %function
 1521              	chEvtSignal:
 1522              	.LFB247:
 1523              		.loc 4 260 0
 1524              		.cfi_startproc
 1525              		@ args = 0, pretend = 0, frame = 8
 1526              		@ frame_needed = 0, uses_anonymous_args = 0
 1527 0000 00B5     		push	{lr}
 1528              		.cfi_def_cfa_offset 4
 1529              		.cfi_offset 14, -4
 1530 0002 83B0     		sub	sp, sp, #12
 1531              		.cfi_def_cfa_offset 16
 1532 0004 0190     		str	r0, [sp, #4]
 1533 0006 0091     		str	r1, [sp]
 1534              		.loc 4 264 0
 1535 0008 FFF7FEFF 		bl	chSysLock
 1536              		.loc 4 265 0
 1537 000c 0198     		ldr	r0, [sp, #4]
 1538 000e 0099     		ldr	r1, [sp]
 1539 0010 FFF7FEFF 		bl	chEvtSignalI
 1540              		.loc 4 266 0
 1541 0014 FFF7FEFF 		bl	chSchRescheduleS
 1542              		.loc 4 267 0
 1543 0018 FFF7FEFF 		bl	chSysUnlock
 1544              		.loc 4 268 0
 1545 001c 03B0     		add	sp, sp, #12
 1546              		@ sp needed
 1547 001e 5DF804FB 		ldr	pc, [sp], #4
 1548              		.cfi_endproc
 1549              	.LFE247:
 1550              		.size	chEvtSignal, .-chEvtSignal
 1551 0022 00BFAFF3 		.section	.text.chEvtSignalI,"ax",%progbits
 1551      0080AFF3 
 1551      0080AFF3 
 1551      0080
 1552              		.align	2
 1553              		.p2align 4,,15
 1554              		.global	chEvtSignalI
 1555              		.thumb
ARM GAS  /tmp/ccCJBSpW.s 			page 92


 1556              		.thumb_func
 1557              		.type	chEvtSignalI, %function
 1558              	chEvtSignalI:
 1559              	.LFB248:
 1560              		.loc 4 282 0
 1561              		.cfi_startproc
 1562              		@ args = 0, pretend = 0, frame = 8
 1563              		@ frame_needed = 0, uses_anonymous_args = 0
 1564 0000 00B5     		push	{lr}
 1565              		.cfi_def_cfa_offset 4
 1566              		.cfi_offset 14, -4
 1567 0002 83B0     		sub	sp, sp, #12
 1568              		.cfi_def_cfa_offset 16
 1569 0004 0190     		str	r0, [sp, #4]
 1570 0006 0091     		str	r1, [sp]
 1571              		.loc 4 287 0
 1572 0008 019B     		ldr	r3, [sp, #4]
 1573 000a 5A6B     		ldr	r2, [r3, #52]
 1574 000c 009B     		ldr	r3, [sp]
 1575 000e 1A43     		orrs	r2, r2, r3
 1576 0010 019B     		ldr	r3, [sp, #4]
 1577 0012 5A63     		str	r2, [r3, #52]
 1578              		.loc 4 289 0
 1579 0014 019B     		ldr	r3, [sp, #4]
 1580 0016 93F82030 		ldrb	r3, [r3, #32]	@ zero_extendqisi2
 1581 001a 0A2B     		cmp	r3, #10
 1582 001c 06D1     		bne	.L30
 1583              		.loc 4 290 0 discriminator 1
 1584 001e 019B     		ldr	r3, [sp, #4]
 1585 0020 5A6B     		ldr	r2, [r3, #52]
 1586 0022 019B     		ldr	r3, [sp, #4]
 1587 0024 5B6A     		ldr	r3, [r3, #36]
 1588 0026 1340     		ands	r3, r3, r2
 1589              		.loc 4 289 0 discriminator 1
 1590 0028 002B     		cmp	r3, #0
 1591 002a 0DD1     		bne	.L31
 1592              	.L30:
 1593              		.loc 4 291 0
 1594 002c 019B     		ldr	r3, [sp, #4]
 1595 002e 93F82030 		ldrb	r3, [r3, #32]	@ zero_extendqisi2
 1596              		.loc 4 290 0
 1597 0032 0B2B     		cmp	r3, #11
 1598 0034 0ED1     		bne	.L29
 1599              		.loc 4 292 0
 1600 0036 019B     		ldr	r3, [sp, #4]
 1601 0038 5A6B     		ldr	r2, [r3, #52]
 1602 003a 019B     		ldr	r3, [sp, #4]
 1603 003c 5B6A     		ldr	r3, [r3, #36]
 1604 003e 1A40     		ands	r2, r2, r3
 1605 0040 019B     		ldr	r3, [sp, #4]
 1606 0042 5B6A     		ldr	r3, [r3, #36]
 1607              		.loc 4 291 0
 1608 0044 9A42     		cmp	r2, r3
 1609 0046 05D1     		bne	.L29
 1610              	.L31:
 1611              		.loc 4 293 0
 1612 0048 019B     		ldr	r3, [sp, #4]
ARM GAS  /tmp/ccCJBSpW.s 			page 93


 1613 004a 0022     		movs	r2, #0
 1614 004c 5A62     		str	r2, [r3, #36]
 1615              		.loc 4 294 0
 1616 004e 0198     		ldr	r0, [sp, #4]
 1617 0050 FFF7FEFF 		bl	chSchReadyI
 1618              	.L29:
 1619              		.loc 4 296 0
 1620 0054 03B0     		add	sp, sp, #12
 1621              		@ sp needed
 1622 0056 5DF804FB 		ldr	pc, [sp], #4
 1623              		.cfi_endproc
 1624              	.LFE248:
 1625              		.size	chEvtSignalI, .-chEvtSignalI
 1626 005a 00BFAFF3 		.section	.text.chEvtBroadcastFlags,"ax",%progbits
 1626      0080
 1627              		.align	2
 1628              		.p2align 4,,15
 1629              		.global	chEvtBroadcastFlags
 1630              		.thumb
 1631              		.thumb_func
 1632              		.type	chEvtBroadcastFlags, %function
 1633              	chEvtBroadcastFlags:
 1634              	.LFB249:
 1635              		.loc 4 311 0
 1636              		.cfi_startproc
 1637              		@ args = 0, pretend = 0, frame = 8
 1638              		@ frame_needed = 0, uses_anonymous_args = 0
 1639 0000 00B5     		push	{lr}
 1640              		.cfi_def_cfa_offset 4
 1641              		.cfi_offset 14, -4
 1642 0002 83B0     		sub	sp, sp, #12
 1643              		.cfi_def_cfa_offset 16
 1644 0004 0190     		str	r0, [sp, #4]
 1645 0006 0091     		str	r1, [sp]
 1646              		.loc 4 313 0
 1647 0008 FFF7FEFF 		bl	chSysLock
 1648              		.loc 4 314 0
 1649 000c 0198     		ldr	r0, [sp, #4]
 1650 000e 0099     		ldr	r1, [sp]
 1651 0010 FFF7FEFF 		bl	chEvtBroadcastFlagsI
 1652              		.loc 4 315 0
 1653 0014 FFF7FEFF 		bl	chSchRescheduleS
 1654              		.loc 4 316 0
 1655 0018 FFF7FEFF 		bl	chSysUnlock
 1656              		.loc 4 317 0
 1657 001c 03B0     		add	sp, sp, #12
 1658              		@ sp needed
 1659 001e 5DF804FB 		ldr	pc, [sp], #4
 1660              		.cfi_endproc
 1661              	.LFE249:
 1662              		.size	chEvtBroadcastFlags, .-chEvtBroadcastFlags
 1663 0022 00BFAFF3 		.section	.text.chEvtGetAndClearFlagsI,"ax",%progbits
 1663      0080AFF3 
 1663      0080AFF3 
 1663      0080
 1664              		.align	2
 1665              		.p2align 4,,15
ARM GAS  /tmp/ccCJBSpW.s 			page 94


 1666              		.global	chEvtGetAndClearFlagsI
 1667              		.thumb
 1668              		.thumb_func
 1669              		.type	chEvtGetAndClearFlagsI, %function
 1670              	chEvtGetAndClearFlagsI:
 1671              	.LFB250:
 1672              		.loc 4 330 0
 1673              		.cfi_startproc
 1674              		@ args = 0, pretend = 0, frame = 16
 1675              		@ frame_needed = 0, uses_anonymous_args = 0
 1676              		@ link register save eliminated.
 1677 0000 84B0     		sub	sp, sp, #16
 1678              		.cfi_def_cfa_offset 16
 1679 0002 0190     		str	r0, [sp, #4]
 1680              		.loc 4 333 0
 1681 0004 019B     		ldr	r3, [sp, #4]
 1682 0006 DB68     		ldr	r3, [r3, #12]
 1683 0008 0393     		str	r3, [sp, #12]
 1684              		.loc 4 334 0
 1685 000a 019B     		ldr	r3, [sp, #4]
 1686 000c 0022     		movs	r2, #0
 1687 000e DA60     		str	r2, [r3, #12]
 1688              		.loc 4 336 0
 1689 0010 039B     		ldr	r3, [sp, #12]
 1690              		.loc 4 337 0
 1691 0012 1846     		mov	r0, r3
 1692 0014 04B0     		add	sp, sp, #16
 1693              		@ sp needed
 1694 0016 7047     		bx	lr
 1695              		.cfi_endproc
 1696              	.LFE250:
 1697              		.size	chEvtGetAndClearFlagsI, .-chEvtGetAndClearFlagsI
 1698 0018 AFF30080 		.section	.text.chEvtDispatch,"ax",%progbits
 1698      AFF30080 
 1699              		.align	2
 1700              		.p2align 4,,15
 1701              		.global	chEvtDispatch
 1702              		.thumb
 1703              		.thumb_func
 1704              		.type	chEvtDispatch, %function
 1705              	chEvtDispatch:
 1706              	.LFB251:
 1707              		.loc 4 348 0
 1708              		.cfi_startproc
 1709              		@ args = 0, pretend = 0, frame = 16
 1710              		@ frame_needed = 0, uses_anonymous_args = 0
 1711 0000 00B5     		push	{lr}
 1712              		.cfi_def_cfa_offset 4
 1713              		.cfi_offset 14, -4
 1714 0002 85B0     		sub	sp, sp, #20
 1715              		.cfi_def_cfa_offset 24
 1716 0004 0190     		str	r0, [sp, #4]
 1717 0006 0091     		str	r1, [sp]
 1718              		.loc 4 353 0
 1719 0008 0023     		movs	r3, #0
 1720 000a 0393     		str	r3, [sp, #12]
 1721              		.loc 4 354 0
ARM GAS  /tmp/ccCJBSpW.s 			page 95


 1722 000c 19E0     		b	.L37
 1723              	.L39:
 1724              		.loc 4 355 0
 1725 000e 009A     		ldr	r2, [sp]
 1726 0010 039B     		ldr	r3, [sp, #12]
 1727 0012 22FA03F3 		lsr	r3, r2, r3
 1728 0016 03F00103 		and	r3, r3, #1
 1729 001a 002B     		cmp	r3, #0
 1730 001c 0ED0     		beq	.L38
 1731              		.loc 4 357 0
 1732 001e 0122     		movs	r2, #1
 1733 0020 039B     		ldr	r3, [sp, #12]
 1734 0022 02FA03F3 		lsl	r3, r2, r3
 1735 0026 DB43     		mvns	r3, r3
 1736 0028 009A     		ldr	r2, [sp]
 1737 002a 1340     		ands	r3, r3, r2
 1738 002c 0093     		str	r3, [sp]
 1739              		.loc 4 358 0
 1740 002e 039B     		ldr	r3, [sp, #12]
 1741 0030 9B00     		lsls	r3, r3, #2
 1742 0032 019A     		ldr	r2, [sp, #4]
 1743 0034 1344     		add	r3, r3, r2
 1744 0036 1B68     		ldr	r3, [r3]
 1745 0038 0398     		ldr	r0, [sp, #12]
 1746 003a 9847     		blx	r3
 1747              	.L38:
 1748              		.loc 4 360 0
 1749 003c 039B     		ldr	r3, [sp, #12]
 1750 003e 0133     		adds	r3, r3, #1
 1751 0040 0393     		str	r3, [sp, #12]
 1752              	.L37:
 1753              		.loc 4 354 0 discriminator 1
 1754 0042 009B     		ldr	r3, [sp]
 1755 0044 002B     		cmp	r3, #0
 1756 0046 E2D1     		bne	.L39
 1757              		.loc 4 362 0
 1758 0048 05B0     		add	sp, sp, #20
 1759              		@ sp needed
 1760 004a 5DF804FB 		ldr	pc, [sp], #4
 1761              		.cfi_endproc
 1762              	.LFE251:
 1763              		.size	chEvtDispatch, .-chEvtDispatch
 1764 004e 00BF     		.section	.text.chEvtWaitOne,"ax",%progbits
 1765              		.align	2
 1766              		.p2align 4,,15
 1767              		.global	chEvtWaitOne
 1768              		.thumb
 1769              		.thumb_func
 1770              		.type	chEvtWaitOne, %function
 1771              	chEvtWaitOne:
 1772              	.LFB252:
 1773              		.loc 4 383 0
 1774              		.cfi_startproc
 1775              		@ args = 0, pretend = 0, frame = 16
 1776              		@ frame_needed = 0, uses_anonymous_args = 0
 1777 0000 00B5     		push	{lr}
 1778              		.cfi_def_cfa_offset 4
ARM GAS  /tmp/ccCJBSpW.s 			page 96


 1779              		.cfi_offset 14, -4
 1780 0002 85B0     		sub	sp, sp, #20
 1781              		.cfi_def_cfa_offset 24
 1782 0004 0190     		str	r0, [sp, #4]
 1783              		.loc 4 384 0
 1784 0006 154B     		ldr	r3, .L43
 1785 0008 9B69     		ldr	r3, [r3, #24]
 1786 000a 0293     		str	r3, [sp, #8]
 1787              		.loc 4 387 0
 1788 000c FFF7FEFF 		bl	chSysLock
 1789              		.loc 4 388 0
 1790 0010 029B     		ldr	r3, [sp, #8]
 1791 0012 5A6B     		ldr	r2, [r3, #52]
 1792 0014 019B     		ldr	r3, [sp, #4]
 1793 0016 1340     		ands	r3, r3, r2
 1794 0018 0393     		str	r3, [sp, #12]
 1795              		.loc 4 389 0
 1796 001a 039B     		ldr	r3, [sp, #12]
 1797 001c 002B     		cmp	r3, #0
 1798 001e 0AD1     		bne	.L41
 1799              		.loc 4 390 0
 1800 0020 029B     		ldr	r3, [sp, #8]
 1801 0022 019A     		ldr	r2, [sp, #4]
 1802 0024 5A62     		str	r2, [r3, #36]
 1803              		.loc 4 391 0
 1804 0026 0A20     		movs	r0, #10
 1805 0028 FFF7FEFF 		bl	chSchGoSleepS
 1806              		.loc 4 392 0
 1807 002c 029B     		ldr	r3, [sp, #8]
 1808 002e 5A6B     		ldr	r2, [r3, #52]
 1809 0030 019B     		ldr	r3, [sp, #4]
 1810 0032 1340     		ands	r3, r3, r2
 1811 0034 0393     		str	r3, [sp, #12]
 1812              	.L41:
 1813              		.loc 4 394 0
 1814 0036 039B     		ldr	r3, [sp, #12]
 1815 0038 5B42     		negs	r3, r3
 1816 003a 039A     		ldr	r2, [sp, #12]
 1817 003c 1340     		ands	r3, r3, r2
 1818 003e 0393     		str	r3, [sp, #12]
 1819              		.loc 4 395 0
 1820 0040 029B     		ldr	r3, [sp, #8]
 1821 0042 5A6B     		ldr	r2, [r3, #52]
 1822 0044 039B     		ldr	r3, [sp, #12]
 1823 0046 DB43     		mvns	r3, r3
 1824 0048 1A40     		ands	r2, r2, r3
 1825 004a 029B     		ldr	r3, [sp, #8]
 1826 004c 5A63     		str	r2, [r3, #52]
 1827              		.loc 4 396 0
 1828 004e FFF7FEFF 		bl	chSysUnlock
 1829              		.loc 4 398 0
 1830 0052 039B     		ldr	r3, [sp, #12]
 1831              		.loc 4 399 0
 1832 0054 1846     		mov	r0, r3
 1833 0056 05B0     		add	sp, sp, #20
 1834              		@ sp needed
 1835 0058 5DF804FB 		ldr	pc, [sp], #4
ARM GAS  /tmp/ccCJBSpW.s 			page 97


 1836              	.L44:
 1837              		.align	2
 1838              	.L43:
 1839 005c 00000000 		.word	ch
 1840              		.cfi_endproc
 1841              	.LFE252:
 1842              		.size	chEvtWaitOne, .-chEvtWaitOne
 1843              		.section	.text.chEvtWaitAny,"ax",%progbits
 1844              		.align	2
 1845              		.p2align 4,,15
 1846              		.global	chEvtWaitAny
 1847              		.thumb
 1848              		.thumb_func
 1849              		.type	chEvtWaitAny, %function
 1850              	chEvtWaitAny:
 1851              	.LFB253:
 1852              		.loc 4 413 0
 1853              		.cfi_startproc
 1854              		@ args = 0, pretend = 0, frame = 16
 1855              		@ frame_needed = 0, uses_anonymous_args = 0
 1856 0000 00B5     		push	{lr}
 1857              		.cfi_def_cfa_offset 4
 1858              		.cfi_offset 14, -4
 1859 0002 85B0     		sub	sp, sp, #20
 1860              		.cfi_def_cfa_offset 24
 1861 0004 0190     		str	r0, [sp, #4]
 1862              		.loc 4 414 0
 1863 0006 134B     		ldr	r3, .L48
 1864 0008 9B69     		ldr	r3, [r3, #24]
 1865 000a 0293     		str	r3, [sp, #8]
 1866              		.loc 4 417 0
 1867 000c FFF7FEFF 		bl	chSysLock
 1868              		.loc 4 418 0
 1869 0010 029B     		ldr	r3, [sp, #8]
 1870 0012 5A6B     		ldr	r2, [r3, #52]
 1871 0014 019B     		ldr	r3, [sp, #4]
 1872 0016 1340     		ands	r3, r3, r2
 1873 0018 0393     		str	r3, [sp, #12]
 1874              		.loc 4 419 0
 1875 001a 039B     		ldr	r3, [sp, #12]
 1876 001c 002B     		cmp	r3, #0
 1877 001e 0AD1     		bne	.L46
 1878              		.loc 4 420 0
 1879 0020 029B     		ldr	r3, [sp, #8]
 1880 0022 019A     		ldr	r2, [sp, #4]
 1881 0024 5A62     		str	r2, [r3, #36]
 1882              		.loc 4 421 0
 1883 0026 0A20     		movs	r0, #10
 1884 0028 FFF7FEFF 		bl	chSchGoSleepS
 1885              		.loc 4 422 0
 1886 002c 029B     		ldr	r3, [sp, #8]
 1887 002e 5A6B     		ldr	r2, [r3, #52]
 1888 0030 019B     		ldr	r3, [sp, #4]
 1889 0032 1340     		ands	r3, r3, r2
 1890 0034 0393     		str	r3, [sp, #12]
 1891              	.L46:
 1892              		.loc 4 424 0
ARM GAS  /tmp/ccCJBSpW.s 			page 98


 1893 0036 029B     		ldr	r3, [sp, #8]
 1894 0038 5A6B     		ldr	r2, [r3, #52]
 1895 003a 039B     		ldr	r3, [sp, #12]
 1896 003c DB43     		mvns	r3, r3
 1897 003e 1A40     		ands	r2, r2, r3
 1898 0040 029B     		ldr	r3, [sp, #8]
 1899 0042 5A63     		str	r2, [r3, #52]
 1900              		.loc 4 425 0
 1901 0044 FFF7FEFF 		bl	chSysUnlock
 1902              		.loc 4 427 0
 1903 0048 039B     		ldr	r3, [sp, #12]
 1904              		.loc 4 428 0
 1905 004a 1846     		mov	r0, r3
 1906 004c 05B0     		add	sp, sp, #20
 1907              		@ sp needed
 1908 004e 5DF804FB 		ldr	pc, [sp], #4
 1909              	.L49:
 1910 0052 00BF     		.align	2
 1911              	.L48:
 1912 0054 00000000 		.word	ch
 1913              		.cfi_endproc
 1914              	.LFE253:
 1915              		.size	chEvtWaitAny, .-chEvtWaitAny
 1916 0058 AFF30080 		.section	.text.chEvtWaitAll,"ax",%progbits
 1916      AFF30080 
 1917              		.align	2
 1918              		.p2align 4,,15
 1919              		.global	chEvtWaitAll
 1920              		.thumb
 1921              		.thumb_func
 1922              		.type	chEvtWaitAll, %function
 1923              	chEvtWaitAll:
 1924              	.LFB254:
 1925              		.loc 4 441 0
 1926              		.cfi_startproc
 1927              		@ args = 0, pretend = 0, frame = 16
 1928              		@ frame_needed = 0, uses_anonymous_args = 0
 1929 0000 00B5     		push	{lr}
 1930              		.cfi_def_cfa_offset 4
 1931              		.cfi_offset 14, -4
 1932 0002 85B0     		sub	sp, sp, #20
 1933              		.cfi_def_cfa_offset 24
 1934 0004 0190     		str	r0, [sp, #4]
 1935              		.loc 4 442 0
 1936 0006 104B     		ldr	r3, .L53
 1937 0008 9B69     		ldr	r3, [r3, #24]
 1938 000a 0393     		str	r3, [sp, #12]
 1939              		.loc 4 444 0
 1940 000c FFF7FEFF 		bl	chSysLock
 1941              		.loc 4 445 0
 1942 0010 039B     		ldr	r3, [sp, #12]
 1943 0012 5A6B     		ldr	r2, [r3, #52]
 1944 0014 019B     		ldr	r3, [sp, #4]
 1945 0016 1A40     		ands	r2, r2, r3
 1946 0018 019B     		ldr	r3, [sp, #4]
 1947 001a 9A42     		cmp	r2, r3
 1948 001c 05D0     		beq	.L51
ARM GAS  /tmp/ccCJBSpW.s 			page 99


 1949              		.loc 4 446 0
 1950 001e 039B     		ldr	r3, [sp, #12]
 1951 0020 019A     		ldr	r2, [sp, #4]
 1952 0022 5A62     		str	r2, [r3, #36]
 1953              		.loc 4 447 0
 1954 0024 0B20     		movs	r0, #11
 1955 0026 FFF7FEFF 		bl	chSchGoSleepS
 1956              	.L51:
 1957              		.loc 4 449 0
 1958 002a 039B     		ldr	r3, [sp, #12]
 1959 002c 5A6B     		ldr	r2, [r3, #52]
 1960 002e 019B     		ldr	r3, [sp, #4]
 1961 0030 DB43     		mvns	r3, r3
 1962 0032 1A40     		ands	r2, r2, r3
 1963 0034 039B     		ldr	r3, [sp, #12]
 1964 0036 5A63     		str	r2, [r3, #52]
 1965              		.loc 4 450 0
 1966 0038 FFF7FEFF 		bl	chSysUnlock
 1967              		.loc 4 452 0
 1968 003c 019B     		ldr	r3, [sp, #4]
 1969              		.loc 4 453 0
 1970 003e 1846     		mov	r0, r3
 1971 0040 05B0     		add	sp, sp, #20
 1972              		@ sp needed
 1973 0042 5DF804FB 		ldr	pc, [sp], #4
 1974              	.L54:
 1975 0046 00BF     		.align	2
 1976              	.L53:
 1977 0048 00000000 		.word	ch
 1978              		.cfi_endproc
 1979              	.LFE254:
 1980              		.size	chEvtWaitAll, .-chEvtWaitAll
 1981 004c AFF30080 		.section	.text.chEvtWaitOneTimeout,"ax",%progbits
 1982              		.align	2
 1983              		.p2align 4,,15
 1984              		.global	chEvtWaitOneTimeout
 1985              		.thumb
 1986              		.thumb_func
 1987              		.type	chEvtWaitOneTimeout, %function
 1988              	chEvtWaitOneTimeout:
 1989              	.LFB255:
 1990              		.loc 4 479 0
 1991              		.cfi_startproc
 1992              		@ args = 0, pretend = 0, frame = 16
 1993              		@ frame_needed = 0, uses_anonymous_args = 0
 1994 0000 00B5     		push	{lr}
 1995              		.cfi_def_cfa_offset 4
 1996              		.cfi_offset 14, -4
 1997 0002 85B0     		sub	sp, sp, #20
 1998              		.cfi_def_cfa_offset 24
 1999 0004 0190     		str	r0, [sp, #4]
 2000 0006 0091     		str	r1, [sp]
 2001              		.loc 4 480 0
 2002 0008 1C4B     		ldr	r3, .L60
 2003 000a 9B69     		ldr	r3, [r3, #24]
 2004 000c 0293     		str	r3, [sp, #8]
 2005              		.loc 4 483 0
ARM GAS  /tmp/ccCJBSpW.s 			page 100


 2006 000e FFF7FEFF 		bl	chSysLock
 2007              		.loc 4 484 0
 2008 0012 029B     		ldr	r3, [sp, #8]
 2009 0014 5A6B     		ldr	r2, [r3, #52]
 2010 0016 019B     		ldr	r3, [sp, #4]
 2011 0018 1340     		ands	r3, r3, r2
 2012 001a 0393     		str	r3, [sp, #12]
 2013              		.loc 4 485 0
 2014 001c 039B     		ldr	r3, [sp, #12]
 2015 001e 002B     		cmp	r3, #0
 2016 0020 19D1     		bne	.L56
 2017              		.loc 4 486 0
 2018 0022 009B     		ldr	r3, [sp]
 2019 0024 002B     		cmp	r3, #0
 2020 0026 03D1     		bne	.L57
 2021              		.loc 4 487 0
 2022 0028 FFF7FEFF 		bl	chSysUnlock
 2023              		.loc 4 488 0
 2024 002c 0023     		movs	r3, #0
 2025 002e 21E0     		b	.L58
 2026              	.L57:
 2027              		.loc 4 490 0
 2028 0030 029B     		ldr	r3, [sp, #8]
 2029 0032 019A     		ldr	r2, [sp, #4]
 2030 0034 5A62     		str	r2, [r3, #36]
 2031              		.loc 4 491 0
 2032 0036 0A20     		movs	r0, #10
 2033 0038 0099     		ldr	r1, [sp]
 2034 003a FFF7FEFF 		bl	chSchGoSleepTimeoutS
 2035 003e 0346     		mov	r3, r0
 2036 0040 002B     		cmp	r3, #0
 2037 0042 03DA     		bge	.L59
 2038              		.loc 4 492 0
 2039 0044 FFF7FEFF 		bl	chSysUnlock
 2040              		.loc 4 493 0
 2041 0048 0023     		movs	r3, #0
 2042 004a 13E0     		b	.L58
 2043              	.L59:
 2044              		.loc 4 495 0
 2045 004c 029B     		ldr	r3, [sp, #8]
 2046 004e 5A6B     		ldr	r2, [r3, #52]
 2047 0050 019B     		ldr	r3, [sp, #4]
 2048 0052 1340     		ands	r3, r3, r2
 2049 0054 0393     		str	r3, [sp, #12]
 2050              	.L56:
 2051              		.loc 4 497 0
 2052 0056 039B     		ldr	r3, [sp, #12]
 2053 0058 5B42     		negs	r3, r3
 2054 005a 039A     		ldr	r2, [sp, #12]
 2055 005c 1340     		ands	r3, r3, r2
 2056 005e 0393     		str	r3, [sp, #12]
 2057              		.loc 4 498 0
 2058 0060 029B     		ldr	r3, [sp, #8]
 2059 0062 5A6B     		ldr	r2, [r3, #52]
 2060 0064 039B     		ldr	r3, [sp, #12]
 2061 0066 DB43     		mvns	r3, r3
 2062 0068 1A40     		ands	r2, r2, r3
ARM GAS  /tmp/ccCJBSpW.s 			page 101


 2063 006a 029B     		ldr	r3, [sp, #8]
 2064 006c 5A63     		str	r2, [r3, #52]
 2065              		.loc 4 499 0
 2066 006e FFF7FEFF 		bl	chSysUnlock
 2067              		.loc 4 501 0
 2068 0072 039B     		ldr	r3, [sp, #12]
 2069              	.L58:
 2070              		.loc 4 502 0
 2071 0074 1846     		mov	r0, r3
 2072 0076 05B0     		add	sp, sp, #20
 2073              		@ sp needed
 2074 0078 5DF804FB 		ldr	pc, [sp], #4
 2075              	.L61:
 2076              		.align	2
 2077              	.L60:
 2078 007c 00000000 		.word	ch
 2079              		.cfi_endproc
 2080              	.LFE255:
 2081              		.size	chEvtWaitOneTimeout, .-chEvtWaitOneTimeout
 2082              		.section	.text.chEvtWaitAnyTimeout,"ax",%progbits
 2083              		.align	2
 2084              		.p2align 4,,15
 2085              		.global	chEvtWaitAnyTimeout
 2086              		.thumb
 2087              		.thumb_func
 2088              		.type	chEvtWaitAnyTimeout, %function
 2089              	chEvtWaitAnyTimeout:
 2090              	.LFB256:
 2091              		.loc 4 522 0
 2092              		.cfi_startproc
 2093              		@ args = 0, pretend = 0, frame = 16
 2094              		@ frame_needed = 0, uses_anonymous_args = 0
 2095 0000 00B5     		push	{lr}
 2096              		.cfi_def_cfa_offset 4
 2097              		.cfi_offset 14, -4
 2098 0002 85B0     		sub	sp, sp, #20
 2099              		.cfi_def_cfa_offset 24
 2100 0004 0190     		str	r0, [sp, #4]
 2101 0006 0091     		str	r1, [sp]
 2102              		.loc 4 523 0
 2103 0008 1A4B     		ldr	r3, .L67
 2104 000a 9B69     		ldr	r3, [r3, #24]
 2105 000c 0293     		str	r3, [sp, #8]
 2106              		.loc 4 526 0
 2107 000e FFF7FEFF 		bl	chSysLock
 2108              		.loc 4 527 0
 2109 0012 029B     		ldr	r3, [sp, #8]
 2110 0014 5A6B     		ldr	r2, [r3, #52]
 2111 0016 019B     		ldr	r3, [sp, #4]
 2112 0018 1340     		ands	r3, r3, r2
 2113 001a 0393     		str	r3, [sp, #12]
 2114              		.loc 4 528 0
 2115 001c 039B     		ldr	r3, [sp, #12]
 2116 001e 002B     		cmp	r3, #0
 2117 0020 19D1     		bne	.L63
 2118              		.loc 4 529 0
 2119 0022 009B     		ldr	r3, [sp]
ARM GAS  /tmp/ccCJBSpW.s 			page 102


 2120 0024 002B     		cmp	r3, #0
 2121 0026 03D1     		bne	.L64
 2122              		.loc 4 530 0
 2123 0028 FFF7FEFF 		bl	chSysUnlock
 2124              		.loc 4 531 0
 2125 002c 0023     		movs	r3, #0
 2126 002e 1CE0     		b	.L65
 2127              	.L64:
 2128              		.loc 4 533 0
 2129 0030 029B     		ldr	r3, [sp, #8]
 2130 0032 019A     		ldr	r2, [sp, #4]
 2131 0034 5A62     		str	r2, [r3, #36]
 2132              		.loc 4 534 0
 2133 0036 0A20     		movs	r0, #10
 2134 0038 0099     		ldr	r1, [sp]
 2135 003a FFF7FEFF 		bl	chSchGoSleepTimeoutS
 2136 003e 0346     		mov	r3, r0
 2137 0040 002B     		cmp	r3, #0
 2138 0042 03DA     		bge	.L66
 2139              		.loc 4 535 0
 2140 0044 FFF7FEFF 		bl	chSysUnlock
 2141              		.loc 4 536 0
 2142 0048 0023     		movs	r3, #0
 2143 004a 0EE0     		b	.L65
 2144              	.L66:
 2145              		.loc 4 538 0
 2146 004c 029B     		ldr	r3, [sp, #8]
 2147 004e 5A6B     		ldr	r2, [r3, #52]
 2148 0050 019B     		ldr	r3, [sp, #4]
 2149 0052 1340     		ands	r3, r3, r2
 2150 0054 0393     		str	r3, [sp, #12]
 2151              	.L63:
 2152              		.loc 4 540 0
 2153 0056 029B     		ldr	r3, [sp, #8]
 2154 0058 5A6B     		ldr	r2, [r3, #52]
 2155 005a 039B     		ldr	r3, [sp, #12]
 2156 005c DB43     		mvns	r3, r3
 2157 005e 1A40     		ands	r2, r2, r3
 2158 0060 029B     		ldr	r3, [sp, #8]
 2159 0062 5A63     		str	r2, [r3, #52]
 2160              		.loc 4 541 0
 2161 0064 FFF7FEFF 		bl	chSysUnlock
 2162              		.loc 4 543 0
 2163 0068 039B     		ldr	r3, [sp, #12]
 2164              	.L65:
 2165              		.loc 4 544 0
 2166 006a 1846     		mov	r0, r3
 2167 006c 05B0     		add	sp, sp, #20
 2168              		@ sp needed
 2169 006e 5DF804FB 		ldr	pc, [sp], #4
 2170              	.L68:
 2171 0072 00BF     		.align	2
 2172              	.L67:
 2173 0074 00000000 		.word	ch
 2174              		.cfi_endproc
 2175              	.LFE256:
 2176              		.size	chEvtWaitAnyTimeout, .-chEvtWaitAnyTimeout
ARM GAS  /tmp/ccCJBSpW.s 			page 103


 2177 0078 AFF30080 		.section	.text.chEvtWaitAllTimeout,"ax",%progbits
 2177      AFF30080 
 2178              		.align	2
 2179              		.p2align 4,,15
 2180              		.global	chEvtWaitAllTimeout
 2181              		.thumb
 2182              		.thumb_func
 2183              		.type	chEvtWaitAllTimeout, %function
 2184              	chEvtWaitAllTimeout:
 2185              	.LFB257:
 2186              		.loc 4 563 0
 2187              		.cfi_startproc
 2188              		@ args = 0, pretend = 0, frame = 16
 2189              		@ frame_needed = 0, uses_anonymous_args = 0
 2190 0000 00B5     		push	{lr}
 2191              		.cfi_def_cfa_offset 4
 2192              		.cfi_offset 14, -4
 2193 0002 85B0     		sub	sp, sp, #20
 2194              		.cfi_def_cfa_offset 24
 2195 0004 0190     		str	r0, [sp, #4]
 2196 0006 0091     		str	r1, [sp]
 2197              		.loc 4 564 0
 2198 0008 174B     		ldr	r3, .L73
 2199 000a 9B69     		ldr	r3, [r3, #24]
 2200 000c 0393     		str	r3, [sp, #12]
 2201              		.loc 4 566 0
 2202 000e FFF7FEFF 		bl	chSysLock
 2203              		.loc 4 567 0
 2204 0012 039B     		ldr	r3, [sp, #12]
 2205 0014 5A6B     		ldr	r2, [r3, #52]
 2206 0016 019B     		ldr	r3, [sp, #4]
 2207 0018 1A40     		ands	r2, r2, r3
 2208 001a 019B     		ldr	r3, [sp, #4]
 2209 001c 9A42     		cmp	r2, r3
 2210 001e 14D0     		beq	.L70
 2211              		.loc 4 568 0
 2212 0020 009B     		ldr	r3, [sp]
 2213 0022 002B     		cmp	r3, #0
 2214 0024 03D1     		bne	.L71
 2215              		.loc 4 569 0
 2216 0026 FFF7FEFF 		bl	chSysUnlock
 2217              		.loc 4 570 0
 2218 002a 0023     		movs	r3, #0
 2219 002c 17E0     		b	.L72
 2220              	.L71:
 2221              		.loc 4 572 0
 2222 002e 039B     		ldr	r3, [sp, #12]
 2223 0030 019A     		ldr	r2, [sp, #4]
 2224 0032 5A62     		str	r2, [r3, #36]
 2225              		.loc 4 573 0
 2226 0034 0B20     		movs	r0, #11
 2227 0036 0099     		ldr	r1, [sp]
 2228 0038 FFF7FEFF 		bl	chSchGoSleepTimeoutS
 2229 003c 0346     		mov	r3, r0
 2230 003e 002B     		cmp	r3, #0
 2231 0040 03DA     		bge	.L70
 2232              		.loc 4 574 0
ARM GAS  /tmp/ccCJBSpW.s 			page 104


 2233 0042 FFF7FEFF 		bl	chSysUnlock
 2234              		.loc 4 575 0
 2235 0046 0023     		movs	r3, #0
 2236 0048 09E0     		b	.L72
 2237              	.L70:
 2238              		.loc 4 578 0
 2239 004a 039B     		ldr	r3, [sp, #12]
 2240 004c 5A6B     		ldr	r2, [r3, #52]
 2241 004e 019B     		ldr	r3, [sp, #4]
 2242 0050 DB43     		mvns	r3, r3
 2243 0052 1A40     		ands	r2, r2, r3
 2244 0054 039B     		ldr	r3, [sp, #12]
 2245 0056 5A63     		str	r2, [r3, #52]
 2246              		.loc 4 579 0
 2247 0058 FFF7FEFF 		bl	chSysUnlock
 2248              		.loc 4 581 0
 2249 005c 019B     		ldr	r3, [sp, #4]
 2250              	.L72:
 2251              		.loc 4 582 0
 2252 005e 1846     		mov	r0, r3
 2253 0060 05B0     		add	sp, sp, #20
 2254              		@ sp needed
 2255 0062 5DF804FB 		ldr	pc, [sp], #4
 2256              	.L74:
 2257 0066 00BF     		.align	2
 2258              	.L73:
 2259 0068 00000000 		.word	ch
 2260              		.cfi_endproc
 2261              	.LFE257:
 2262              		.size	chEvtWaitAllTimeout, .-chEvtWaitAllTimeout
 2263 006c AFF30080 		.text
 2264              	.Letext0:
 2265              		.file 5 "/nfs/nfs5/home/research/hardware/arm2/gcc-arm-embedded/gcc-arm-none-eabi-4_8-2014q2/arm-n
 2266              		.file 6 "/nfs/nfs5/home/research/hardware/arm2/gcc-arm-embedded/gcc-arm-none-eabi-4_8-2014q2/arm-n
 2267              		.file 7 "../ChibiOS/os/rt/ports/ARMCMx/compilers/GCC/chtypes.h"
 2268              		.file 8 "../ChibiOS/os/rt/include/chsystypes.h"
 2269              		.file 9 "../ChibiOS/os/rt/include/chschd.h"
 2270              		.file 10 "../ChibiOS/os/rt/ports/ARMCMx/chcore.h"
 2271              		.file 11 "../ChibiOS/os/rt/include/chtm.h"
 2272              		.file 12 "../ChibiOS/os/rt/include/chsem.h"
 2273              		.file 13 "../ChibiOS/os/rt/include/chmtx.h"
 2274              		.file 14 "../ChibiOS/os/rt/include/chevents.h"
 2275              		.file 15 "../ChibiOS/os/ext/CMSIS/include/core_cm4.h"
 2276              		.section	.debug_info,"",%progbits
 2277              	.Ldebug_info0:
 2278 0000 950C0000 		.4byte	0xc95
 2279 0004 0400     		.2byte	0x4
 2280 0006 00000000 		.4byte	.Ldebug_abbrev0
 2281 000a 04       		.byte	0x4
 2282 000b 01       		.uleb128 0x1
 2283 000c 3D020000 		.4byte	.LASF148
 2284 0010 01       		.byte	0x1
 2285 0011 99040000 		.4byte	.LASF149
 2286 0015 57060000 		.4byte	.LASF150
 2287 0019 00000000 		.4byte	.Ldebug_ranges0+0
 2288 001d 00000000 		.4byte	0
 2289 0021 00000000 		.4byte	.Ldebug_line0
ARM GAS  /tmp/ccCJBSpW.s 			page 105


 2290 0025 02       		.uleb128 0x2
 2291 0026 04       		.byte	0x4
 2292 0027 05       		.byte	0x5
 2293 0028 696E7400 		.ascii	"int\000"
 2294 002c 03       		.uleb128 0x3
 2295 002d 04       		.byte	0x4
 2296 002e 07       		.byte	0x7
 2297 002f 1D030000 		.4byte	.LASF0
 2298 0033 03       		.uleb128 0x3
 2299 0034 01       		.byte	0x1
 2300 0035 06       		.byte	0x6
 2301 0036 FD000000 		.4byte	.LASF1
 2302 003a 04       		.uleb128 0x4
 2303 003b 23000000 		.4byte	.LASF5
 2304 003f 05       		.byte	0x5
 2305 0040 1C       		.byte	0x1c
 2306 0041 45000000 		.4byte	0x45
 2307 0045 03       		.uleb128 0x3
 2308 0046 01       		.byte	0x1
 2309 0047 08       		.byte	0x8
 2310 0048 5A050000 		.4byte	.LASF2
 2311 004c 03       		.uleb128 0x3
 2312 004d 02       		.byte	0x2
 2313 004e 05       		.byte	0x5
 2314 004f FC030000 		.4byte	.LASF3
 2315 0053 03       		.uleb128 0x3
 2316 0054 02       		.byte	0x2
 2317 0055 07       		.byte	0x7
 2318 0056 61030000 		.4byte	.LASF4
 2319 005a 04       		.uleb128 0x4
 2320 005b 06040000 		.4byte	.LASF6
 2321 005f 05       		.byte	0x5
 2322 0060 37       		.byte	0x37
 2323 0061 65000000 		.4byte	0x65
 2324 0065 03       		.uleb128 0x3
 2325 0066 04       		.byte	0x4
 2326 0067 05       		.byte	0x5
 2327 0068 4A010000 		.4byte	.LASF7
 2328 006c 04       		.uleb128 0x4
 2329 006d E7060000 		.4byte	.LASF8
 2330 0071 05       		.byte	0x5
 2331 0072 38       		.byte	0x38
 2332 0073 77000000 		.4byte	0x77
 2333 0077 03       		.uleb128 0x3
 2334 0078 04       		.byte	0x4
 2335 0079 07       		.byte	0x7
 2336 007a A2060000 		.4byte	.LASF9
 2337 007e 03       		.uleb128 0x3
 2338 007f 08       		.byte	0x8
 2339 0080 05       		.byte	0x5
 2340 0081 EF000000 		.4byte	.LASF10
 2341 0085 04       		.uleb128 0x4
 2342 0086 09050000 		.4byte	.LASF11
 2343 008a 05       		.byte	0x5
 2344 008b 4E       		.byte	0x4e
 2345 008c 90000000 		.4byte	0x90
 2346 0090 03       		.uleb128 0x3
ARM GAS  /tmp/ccCJBSpW.s 			page 106


 2347 0091 08       		.byte	0x8
 2348 0092 07       		.byte	0x7
 2349 0093 6F000000 		.4byte	.LASF12
 2350 0097 04       		.uleb128 0x4
 2351 0098 5C070000 		.4byte	.LASF13
 2352 009c 06       		.byte	0x6
 2353 009d 2A       		.byte	0x2a
 2354 009e 3A000000 		.4byte	0x3a
 2355 00a2 04       		.uleb128 0x4
 2356 00a3 52050000 		.4byte	.LASF14
 2357 00a7 06       		.byte	0x6
 2358 00a8 41       		.byte	0x41
 2359 00a9 5A000000 		.4byte	0x5a
 2360 00ad 04       		.uleb128 0x4
 2361 00ae 26060000 		.4byte	.LASF15
 2362 00b2 06       		.byte	0x6
 2363 00b3 42       		.byte	0x42
 2364 00b4 6C000000 		.4byte	0x6c
 2365 00b8 04       		.uleb128 0x4
 2366 00b9 1A000000 		.4byte	.LASF16
 2367 00bd 06       		.byte	0x6
 2368 00be 4E       		.byte	0x4e
 2369 00bf 85000000 		.4byte	0x85
 2370 00c3 04       		.uleb128 0x4
 2371 00c4 19070000 		.4byte	.LASF17
 2372 00c8 07       		.byte	0x7
 2373 00c9 39       		.byte	0x39
 2374 00ca AD000000 		.4byte	0xad
 2375 00ce 04       		.uleb128 0x4
 2376 00cf DA030000 		.4byte	.LASF18
 2377 00d3 07       		.byte	0x7
 2378 00d4 3C       		.byte	0x3c
 2379 00d5 97000000 		.4byte	0x97
 2380 00d9 04       		.uleb128 0x4
 2381 00da 7C010000 		.4byte	.LASF19
 2382 00de 07       		.byte	0x7
 2383 00df 3D       		.byte	0x3d
 2384 00e0 97000000 		.4byte	0x97
 2385 00e4 04       		.uleb128 0x4
 2386 00e5 1D050000 		.4byte	.LASF20
 2387 00e9 07       		.byte	0x7
 2388 00ea 3E       		.byte	0x3e
 2389 00eb 97000000 		.4byte	0x97
 2390 00ef 04       		.uleb128 0x4
 2391 00f0 3C050000 		.4byte	.LASF21
 2392 00f4 07       		.byte	0x7
 2393 00f5 40       		.byte	0x40
 2394 00f6 AD000000 		.4byte	0xad
 2395 00fa 04       		.uleb128 0x4
 2396 00fb 95030000 		.4byte	.LASF22
 2397 00ff 07       		.byte	0x7
 2398 0100 41       		.byte	0x41
 2399 0101 A2000000 		.4byte	0xa2
 2400 0105 04       		.uleb128 0x4
 2401 0106 F5010000 		.4byte	.LASF23
 2402 010a 07       		.byte	0x7
 2403 010b 42       		.byte	0x42
ARM GAS  /tmp/ccCJBSpW.s 			page 107


 2404 010c A2000000 		.4byte	0xa2
 2405 0110 04       		.uleb128 0x4
 2406 0111 F0030000 		.4byte	.LASF24
 2407 0115 07       		.byte	0x7
 2408 0116 43       		.byte	0x43
 2409 0117 AD000000 		.4byte	0xad
 2410 011b 04       		.uleb128 0x4
 2411 011c 88030000 		.4byte	.LASF25
 2412 0120 07       		.byte	0x7
 2413 0121 44       		.byte	0x44
 2414 0122 AD000000 		.4byte	0xad
 2415 0126 04       		.uleb128 0x4
 2416 0127 37020000 		.4byte	.LASF26
 2417 012b 07       		.byte	0x7
 2418 012c 45       		.byte	0x45
 2419 012d A2000000 		.4byte	0xa2
 2420 0131 04       		.uleb128 0x4
 2421 0132 C9060000 		.4byte	.LASF27
 2422 0136 08       		.byte	0x8
 2423 0137 33       		.byte	0x33
 2424 0138 AD000000 		.4byte	0xad
 2425 013c 04       		.uleb128 0x4
 2426 013d B9060000 		.4byte	.LASF28
 2427 0141 08       		.byte	0x8
 2428 0142 3F       		.byte	0x3f
 2429 0143 47010000 		.4byte	0x147
 2430 0147 05       		.uleb128 0x5
 2431 0148 74030000 		.4byte	.LASF48
 2432 014c 44       		.byte	0x44
 2433 014d 09       		.byte	0x9
 2434 014e C2       		.byte	0xc2
 2435 014f 33020000 		.4byte	0x233
 2436 0153 06       		.uleb128 0x6
 2437 0154 DD050000 		.4byte	.LASF29
 2438 0158 09       		.byte	0x9
 2439 0159 C3       		.byte	0xc3
 2440 015a 3E020000 		.4byte	0x23e
 2441 015e 00       		.byte	0
 2442 015f 06       		.uleb128 0x6
 2443 0160 35050000 		.4byte	.LASF30
 2444 0164 09       		.byte	0x9
 2445 0165 C5       		.byte	0xc5
 2446 0166 3E020000 		.4byte	0x23e
 2447 016a 04       		.byte	0x4
 2448 016b 06       		.uleb128 0x6
 2449 016c E8000000 		.4byte	.LASF31
 2450 0170 09       		.byte	0x9
 2451 0171 C7       		.byte	0xc7
 2452 0172 EF000000 		.4byte	0xef
 2453 0176 08       		.byte	0x8
 2454 0177 06       		.uleb128 0x6
 2455 0178 D3070000 		.4byte	.LASF32
 2456 017c 09       		.byte	0x9
 2457 017d C8       		.byte	0xc8
 2458 017e 6E040000 		.4byte	0x46e
 2459 0182 0C       		.byte	0xc
 2460 0183 06       		.uleb128 0x6
ARM GAS  /tmp/ccCJBSpW.s 			page 108


 2461 0184 8C010000 		.4byte	.LASF33
 2462 0188 09       		.byte	0x9
 2463 0189 CA       		.byte	0xca
 2464 018a 3E020000 		.4byte	0x23e
 2465 018e 10       		.byte	0x10
 2466 018f 06       		.uleb128 0x6
 2467 0190 91040000 		.4byte	.LASF34
 2468 0194 09       		.byte	0x9
 2469 0195 CB       		.byte	0xcb
 2470 0196 3E020000 		.4byte	0x23e
 2471 019a 14       		.byte	0x14
 2472 019b 06       		.uleb128 0x6
 2473 019c 93070000 		.4byte	.LASF35
 2474 01a0 09       		.byte	0x9
 2475 01a1 D2       		.byte	0xd2
 2476 01a2 F9050000 		.4byte	0x5f9
 2477 01a6 18       		.byte	0x18
 2478 01a7 06       		.uleb128 0x6
 2479 01a8 D0040000 		.4byte	.LASF36
 2480 01ac 09       		.byte	0x9
 2481 01ad D8       		.byte	0xd8
 2482 01ae 0B060000 		.4byte	0x60b
 2483 01b2 1C       		.byte	0x1c
 2484 01b3 06       		.uleb128 0x6
 2485 01b4 B0050000 		.4byte	.LASF37
 2486 01b8 09       		.byte	0x9
 2487 01b9 DD       		.byte	0xdd
 2488 01ba D9000000 		.4byte	0xd9
 2489 01be 20       		.byte	0x20
 2490 01bf 06       		.uleb128 0x6
 2491 01c0 E4050000 		.4byte	.LASF38
 2492 01c4 09       		.byte	0x9
 2493 01c5 E1       		.byte	0xe1
 2494 01c6 CE000000 		.4byte	0xce
 2495 01ca 21       		.byte	0x21
 2496 01cb 06       		.uleb128 0x6
 2497 01cc 60010000 		.4byte	.LASF39
 2498 01d0 09       		.byte	0x9
 2499 01d1 E6       		.byte	0xe6
 2500 01d2 E4000000 		.4byte	0xe4
 2501 01d6 22       		.byte	0x22
 2502 01d7 07       		.uleb128 0x7
 2503 01d8 705F7500 		.ascii	"p_u\000"
 2504 01dc 09       		.byte	0x9
 2505 01dd 3701     		.2byte	0x137
 2506 01df 28050000 		.4byte	0x528
 2507 01e3 24       		.byte	0x24
 2508 01e4 08       		.uleb128 0x8
 2509 01e5 2C040000 		.4byte	.LASF40
 2510 01e9 09       		.byte	0x9
 2511 01ea 3C01     		.2byte	0x13c
 2512 01ec 44020000 		.4byte	0x244
 2513 01f0 28       		.byte	0x28
 2514 01f1 08       		.uleb128 0x8
 2515 01f2 39030000 		.4byte	.LASF41
 2516 01f6 09       		.byte	0x9
 2517 01f7 4201     		.2byte	0x142
ARM GAS  /tmp/ccCJBSpW.s 			page 109


 2518 01f9 68020000 		.4byte	0x268
 2519 01fd 2C       		.byte	0x2c
 2520 01fe 08       		.uleb128 0x8
 2521 01ff 14060000 		.4byte	.LASF42
 2522 0203 09       		.byte	0x9
 2523 0204 4801     		.2byte	0x148
 2524 0206 10010000 		.4byte	0x110
 2525 020a 34       		.byte	0x34
 2526 020b 08       		.uleb128 0x8
 2527 020c 98050000 		.4byte	.LASF43
 2528 0210 09       		.byte	0x9
 2529 0211 4F01     		.2byte	0x14f
 2530 0213 F3050000 		.4byte	0x5f3
 2531 0217 38       		.byte	0x38
 2532 0218 08       		.uleb128 0x8
 2533 0219 D3060000 		.4byte	.LASF44
 2534 021d 09       		.byte	0x9
 2535 021e 5301     		.2byte	0x153
 2536 0220 EF000000 		.4byte	0xef
 2537 0224 3C       		.byte	0x3c
 2538 0225 08       		.uleb128 0x8
 2539 0226 1D010000 		.4byte	.LASF45
 2540 022a 09       		.byte	0x9
 2541 022b 5A01     		.2byte	0x15a
 2542 022d 1B030000 		.4byte	0x31b
 2543 0231 40       		.byte	0x40
 2544 0232 00       		.byte	0
 2545 0233 04       		.uleb128 0x4
 2546 0234 3F040000 		.4byte	.LASF46
 2547 0238 08       		.byte	0x8
 2548 0239 44       		.byte	0x44
 2549 023a 3E020000 		.4byte	0x23e
 2550 023e 09       		.uleb128 0x9
 2551 023f 04       		.byte	0x4
 2552 0240 3C010000 		.4byte	0x13c
 2553 0244 04       		.uleb128 0x4
 2554 0245 9A070000 		.4byte	.LASF47
 2555 0249 08       		.byte	0x8
 2556 024a 49       		.byte	0x49
 2557 024b 4F020000 		.4byte	0x24f
 2558 024f 05       		.uleb128 0x5
 2559 0250 47060000 		.4byte	.LASF49
 2560 0254 04       		.byte	0x4
 2561 0255 09       		.byte	0x9
 2562 0256 B0       		.byte	0xb0
 2563 0257 68020000 		.4byte	0x268
 2564 025b 06       		.uleb128 0x6
 2565 025c DD050000 		.4byte	.LASF29
 2566 0260 09       		.byte	0x9
 2567 0261 B1       		.byte	0xb1
 2568 0262 3E020000 		.4byte	0x23e
 2569 0266 00       		.byte	0
 2570 0267 00       		.byte	0
 2571 0268 04       		.uleb128 0x4
 2572 0269 28070000 		.4byte	.LASF50
 2573 026d 08       		.byte	0x8
 2574 026e 50       		.byte	0x50
ARM GAS  /tmp/ccCJBSpW.s 			page 110


 2575 026f 73020000 		.4byte	0x273
 2576 0273 05       		.uleb128 0x5
 2577 0274 39000000 		.4byte	.LASF51
 2578 0278 08       		.byte	0x8
 2579 0279 09       		.byte	0x9
 2580 027a B7       		.byte	0xb7
 2581 027b 98020000 		.4byte	0x298
 2582 027f 06       		.uleb128 0x6
 2583 0280 DD050000 		.4byte	.LASF29
 2584 0284 09       		.byte	0x9
 2585 0285 B8       		.byte	0xb8
 2586 0286 3E020000 		.4byte	0x23e
 2587 028a 00       		.byte	0
 2588 028b 06       		.uleb128 0x6
 2589 028c 35050000 		.4byte	.LASF30
 2590 0290 09       		.byte	0x9
 2591 0291 B9       		.byte	0xb9
 2592 0292 3E020000 		.4byte	0x23e
 2593 0296 04       		.byte	0x4
 2594 0297 00       		.byte	0
 2595 0298 04       		.uleb128 0x4
 2596 0299 00000000 		.4byte	.LASF52
 2597 029d 08       		.byte	0x8
 2598 029e 57       		.byte	0x57
 2599 029f A3020000 		.4byte	0x2a3
 2600 02a3 0A       		.uleb128 0xa
 2601 02a4 E2030000 		.4byte	.LASF53
 2602 02a8 1C       		.byte	0x1c
 2603 02a9 09       		.byte	0x9
 2604 02aa 9201     		.2byte	0x192
 2605 02ac FF020000 		.4byte	0x2ff
 2606 02b0 08       		.uleb128 0x8
 2607 02b1 36060000 		.4byte	.LASF54
 2608 02b5 09       		.byte	0x9
 2609 02b6 9301     		.2byte	0x193
 2610 02b8 68020000 		.4byte	0x268
 2611 02bc 00       		.byte	0
 2612 02bd 08       		.uleb128 0x8
 2613 02be B8050000 		.4byte	.LASF55
 2614 02c2 09       		.byte	0x9
 2615 02c3 9401     		.2byte	0x194
 2616 02c5 EF000000 		.4byte	0xef
 2617 02c9 08       		.byte	0x8
 2618 02ca 08       		.uleb128 0x8
 2619 02cb B9040000 		.4byte	.LASF56
 2620 02cf 09       		.byte	0x9
 2621 02d0 9601     		.2byte	0x196
 2622 02d2 6E040000 		.4byte	0x46e
 2623 02d6 0C       		.byte	0xc
 2624 02d7 08       		.uleb128 0x8
 2625 02d8 B8010000 		.4byte	.LASF57
 2626 02dc 09       		.byte	0x9
 2627 02dd 9901     		.2byte	0x199
 2628 02df 3E020000 		.4byte	0x23e
 2629 02e3 10       		.byte	0x10
 2630 02e4 08       		.uleb128 0x8
 2631 02e5 F7040000 		.4byte	.LASF58
ARM GAS  /tmp/ccCJBSpW.s 			page 111


 2632 02e9 09       		.byte	0x9
 2633 02ea 9A01     		.2byte	0x19a
 2634 02ec 3E020000 		.4byte	0x23e
 2635 02f0 14       		.byte	0x14
 2636 02f1 08       		.uleb128 0x8
 2637 02f2 ED040000 		.4byte	.LASF59
 2638 02f6 09       		.byte	0x9
 2639 02f7 9D01     		.2byte	0x19d
 2640 02f9 3E020000 		.4byte	0x23e
 2641 02fd 18       		.byte	0x18
 2642 02fe 00       		.byte	0
 2643 02ff 04       		.uleb128 0x4
 2644 0300 DE060000 		.4byte	.LASF60
 2645 0304 08       		.byte	0x8
 2646 0305 5C       		.byte	0x5c
 2647 0306 0A030000 		.4byte	0x30a
 2648 030a 09       		.uleb128 0x9
 2649 030b 04       		.byte	0x4
 2650 030c 10030000 		.4byte	0x310
 2651 0310 0B       		.uleb128 0xb
 2652 0311 1B030000 		.4byte	0x31b
 2653 0315 0C       		.uleb128 0xc
 2654 0316 1B030000 		.4byte	0x31b
 2655 031a 00       		.byte	0
 2656 031b 0D       		.uleb128 0xd
 2657 031c 04       		.byte	0x4
 2658 031d 04       		.uleb128 0x4
 2659 031e 25050000 		.4byte	.LASF61
 2660 0322 08       		.byte	0x8
 2661 0323 61       		.byte	0x61
 2662 0324 28030000 		.4byte	0x328
 2663 0328 0A       		.uleb128 0xa
 2664 0329 F6050000 		.4byte	.LASF62
 2665 032d 14       		.byte	0x14
 2666 032e 09       		.byte	0x9
 2667 032f 6D01     		.2byte	0x16d
 2668 0331 77030000 		.4byte	0x377
 2669 0335 08       		.uleb128 0x8
 2670 0336 2A030000 		.4byte	.LASF63
 2671 033a 09       		.byte	0x9
 2672 033b 6E01     		.2byte	0x16e
 2673 033d 11060000 		.4byte	0x611
 2674 0341 00       		.byte	0
 2675 0342 08       		.uleb128 0x8
 2676 0343 C9010000 		.4byte	.LASF64
 2677 0347 09       		.byte	0x9
 2678 0348 6F01     		.2byte	0x16f
 2679 034a 11060000 		.4byte	0x611
 2680 034e 04       		.byte	0x4
 2681 034f 08       		.uleb128 0x8
 2682 0350 3E060000 		.4byte	.LASF65
 2683 0354 09       		.byte	0x9
 2684 0355 7001     		.2byte	0x170
 2685 0357 31010000 		.4byte	0x131
 2686 035b 08       		.byte	0x8
 2687 035c 08       		.uleb128 0x8
 2688 035d D9070000 		.4byte	.LASF66
ARM GAS  /tmp/ccCJBSpW.s 			page 112


 2689 0361 09       		.byte	0x9
 2690 0362 7101     		.2byte	0x171
 2691 0364 FF020000 		.4byte	0x2ff
 2692 0368 0C       		.byte	0xc
 2693 0369 08       		.uleb128 0x8
 2694 036a 21070000 		.4byte	.LASF67
 2695 036e 09       		.byte	0x9
 2696 036f 7301     		.2byte	0x173
 2697 0371 1B030000 		.4byte	0x31b
 2698 0375 10       		.byte	0x10
 2699 0376 00       		.byte	0
 2700 0377 04       		.uleb128 0x4
 2701 0378 B1000000 		.4byte	.LASF68
 2702 037c 08       		.byte	0x8
 2703 037d 66       		.byte	0x66
 2704 037e 82030000 		.4byte	0x382
 2705 0382 0A       		.uleb128 0xa
 2706 0383 52040000 		.4byte	.LASF69
 2707 0387 10       		.byte	0x10
 2708 0388 09       		.byte	0x9
 2709 0389 7D01     		.2byte	0x17d
 2710 038b C4030000 		.4byte	0x3c4
 2711 038f 08       		.uleb128 0x8
 2712 0390 2A030000 		.4byte	.LASF63
 2713 0394 09       		.byte	0x9
 2714 0395 7E01     		.2byte	0x17e
 2715 0397 11060000 		.4byte	0x611
 2716 039b 00       		.byte	0
 2717 039c 08       		.uleb128 0x8
 2718 039d C9010000 		.4byte	.LASF64
 2719 03a1 09       		.byte	0x9
 2720 03a2 8001     		.2byte	0x180
 2721 03a4 11060000 		.4byte	0x611
 2722 03a8 04       		.byte	0x4
 2723 03a9 08       		.uleb128 0x8
 2724 03aa 3E060000 		.4byte	.LASF65
 2725 03ae 09       		.byte	0x9
 2726 03af 8201     		.2byte	0x182
 2727 03b1 31010000 		.4byte	0x131
 2728 03b5 08       		.byte	0x8
 2729 03b6 08       		.uleb128 0x8
 2730 03b7 85040000 		.4byte	.LASF70
 2731 03bb 09       		.byte	0x9
 2732 03bc 8A01     		.2byte	0x18a
 2733 03be 31010000 		.4byte	0x131
 2734 03c2 0C       		.byte	0xc
 2735 03c3 00       		.byte	0
 2736 03c4 04       		.uleb128 0x4
 2737 03c5 4A000000 		.4byte	.LASF71
 2738 03c9 08       		.byte	0x8
 2739 03ca 6B       		.byte	0x6b
 2740 03cb CF030000 		.4byte	0x3cf
 2741 03cf 0A       		.uleb128 0xa
 2742 03d0 E5010000 		.4byte	.LASF72
 2743 03d4 04       		.byte	0x4
 2744 03d5 09       		.byte	0x9
 2745 03d6 A401     		.2byte	0x1a4
ARM GAS  /tmp/ccCJBSpW.s 			page 113


 2746 03d8 EA030000 		.4byte	0x3ea
 2747 03dc 08       		.uleb128 0x8
 2748 03dd 00070000 		.4byte	.LASF73
 2749 03e1 09       		.byte	0x9
 2750 03e2 AC01     		.2byte	0x1ac
 2751 03e4 17060000 		.4byte	0x617
 2752 03e8 00       		.byte	0
 2753 03e9 00       		.byte	0
 2754 03ea 04       		.uleb128 0x4
 2755 03eb B3030000 		.4byte	.LASF74
 2756 03ef 08       		.byte	0x8
 2757 03f0 70       		.byte	0x70
 2758 03f1 F5030000 		.4byte	0x3f5
 2759 03f5 0E       		.uleb128 0xe
 2760 03f6 40010000 		.4byte	.LASF75
 2761 03fa 5001     		.2byte	0x150
 2762 03fc 09       		.byte	0x9
 2763 03fd C401     		.2byte	0x1c4
 2764 03ff 51040000 		.4byte	0x451
 2765 0403 08       		.uleb128 0x8
 2766 0404 49070000 		.4byte	.LASF76
 2767 0408 09       		.byte	0x9
 2768 0409 C801     		.2byte	0x1c8
 2769 040b 98020000 		.4byte	0x298
 2770 040f 00       		.byte	0
 2771 0410 08       		.uleb128 0x8
 2772 0411 2D010000 		.4byte	.LASF77
 2773 0415 09       		.byte	0x9
 2774 0416 CC01     		.2byte	0x1cc
 2775 0418 77030000 		.4byte	0x377
 2776 041c 1C       		.byte	0x1c
 2777 041d 07       		.uleb128 0x7
 2778 041e 64626700 		.ascii	"dbg\000"
 2779 0422 09       		.byte	0x9
 2780 0423 D001     		.2byte	0x1d0
 2781 0425 C4030000 		.4byte	0x3c4
 2782 0429 2C       		.byte	0x2c
 2783 042a 08       		.uleb128 0x8
 2784 042b 9E000000 		.4byte	.LASF78
 2785 042f 09       		.byte	0x9
 2786 0430 D401     		.2byte	0x1d4
 2787 0432 3C010000 		.4byte	0x13c
 2788 0436 30       		.byte	0x30
 2789 0437 07       		.uleb128 0x7
 2790 0438 746D00   		.ascii	"tm\000"
 2791 043b 09       		.byte	0x9
 2792 043c D901     		.2byte	0x1d9
 2793 043e 1D050000 		.4byte	0x51d
 2794 0442 74       		.byte	0x74
 2795 0443 08       		.uleb128 0x8
 2796 0444 1C020000 		.4byte	.LASF79
 2797 0448 09       		.byte	0x9
 2798 0449 E501     		.2byte	0x1e5
 2799 044b 1C060000 		.4byte	0x61c
 2800 044f 78       		.byte	0x78
 2801 0450 00       		.byte	0
 2802 0451 03       		.uleb128 0x3
ARM GAS  /tmp/ccCJBSpW.s 			page 114


 2803 0452 04       		.byte	0x4
 2804 0453 07       		.byte	0x7
 2805 0454 36040000 		.4byte	.LASF80
 2806 0458 04       		.uleb128 0x4
 2807 0459 C0010000 		.4byte	.LASF81
 2808 045d 0A       		.byte	0xa
 2809 045e 65       		.byte	0x65
 2810 045f 1B030000 		.4byte	0x31b
 2811 0463 04       		.uleb128 0x4
 2812 0464 10040000 		.4byte	.LASF82
 2813 0468 0A       		.byte	0xa
 2814 0469 6D       		.byte	0x6d
 2815 046a B8000000 		.4byte	0xb8
 2816 046e 05       		.uleb128 0x5
 2817 046f 11070000 		.4byte	.LASF83
 2818 0473 04       		.byte	0x4
 2819 0474 0A       		.byte	0xa
 2820 0475 89       		.byte	0x89
 2821 0476 87040000 		.4byte	0x487
 2822 047a 0F       		.uleb128 0xf
 2823 047b 72313300 		.ascii	"r13\000"
 2824 047f 0A       		.byte	0xa
 2825 0480 8A       		.byte	0x8a
 2826 0481 02050000 		.4byte	0x502
 2827 0485 00       		.byte	0
 2828 0486 00       		.byte	0
 2829 0487 05       		.uleb128 0x5
 2830 0488 2D000000 		.4byte	.LASF84
 2831 048c 24       		.byte	0x24
 2832 048d 01       		.byte	0x1
 2833 048e FD       		.byte	0xfd
 2834 048f 02050000 		.4byte	0x502
 2835 0493 07       		.uleb128 0x7
 2836 0494 723400   		.ascii	"r4\000"
 2837 0497 01       		.byte	0x1
 2838 0498 1001     		.2byte	0x110
 2839 049a 58040000 		.4byte	0x458
 2840 049e 00       		.byte	0
 2841 049f 07       		.uleb128 0x7
 2842 04a0 723500   		.ascii	"r5\000"
 2843 04a3 01       		.byte	0x1
 2844 04a4 1101     		.2byte	0x111
 2845 04a6 58040000 		.4byte	0x458
 2846 04aa 04       		.byte	0x4
 2847 04ab 07       		.uleb128 0x7
 2848 04ac 723600   		.ascii	"r6\000"
 2849 04af 01       		.byte	0x1
 2850 04b0 1201     		.2byte	0x112
 2851 04b2 58040000 		.4byte	0x458
 2852 04b6 08       		.byte	0x8
 2853 04b7 07       		.uleb128 0x7
 2854 04b8 723700   		.ascii	"r7\000"
 2855 04bb 01       		.byte	0x1
 2856 04bc 1301     		.2byte	0x113
 2857 04be 58040000 		.4byte	0x458
 2858 04c2 0C       		.byte	0xc
 2859 04c3 07       		.uleb128 0x7
ARM GAS  /tmp/ccCJBSpW.s 			page 115


 2860 04c4 723800   		.ascii	"r8\000"
 2861 04c7 01       		.byte	0x1
 2862 04c8 1401     		.2byte	0x114
 2863 04ca 58040000 		.4byte	0x458
 2864 04ce 10       		.byte	0x10
 2865 04cf 07       		.uleb128 0x7
 2866 04d0 723900   		.ascii	"r9\000"
 2867 04d3 01       		.byte	0x1
 2868 04d4 1501     		.2byte	0x115
 2869 04d6 58040000 		.4byte	0x458
 2870 04da 14       		.byte	0x14
 2871 04db 07       		.uleb128 0x7
 2872 04dc 72313000 		.ascii	"r10\000"
 2873 04e0 01       		.byte	0x1
 2874 04e1 1601     		.2byte	0x116
 2875 04e3 58040000 		.4byte	0x458
 2876 04e7 18       		.byte	0x18
 2877 04e8 07       		.uleb128 0x7
 2878 04e9 72313100 		.ascii	"r11\000"
 2879 04ed 01       		.byte	0x1
 2880 04ee 1701     		.2byte	0x117
 2881 04f0 58040000 		.4byte	0x458
 2882 04f4 1C       		.byte	0x1c
 2883 04f5 07       		.uleb128 0x7
 2884 04f6 6C7200   		.ascii	"lr\000"
 2885 04f9 01       		.byte	0x1
 2886 04fa 1801     		.2byte	0x118
 2887 04fc 58040000 		.4byte	0x458
 2888 0500 20       		.byte	0x20
 2889 0501 00       		.byte	0
 2890 0502 09       		.uleb128 0x9
 2891 0503 04       		.byte	0x4
 2892 0504 87040000 		.4byte	0x487
 2893 0508 10       		.uleb128 0x10
 2894 0509 04       		.byte	0x4
 2895 050a 0B       		.byte	0xb
 2896 050b 38       		.byte	0x38
 2897 050c 1D050000 		.4byte	0x51d
 2898 0510 06       		.uleb128 0x6
 2899 0511 0A070000 		.4byte	.LASF85
 2900 0515 0B       		.byte	0xb
 2901 0516 3C       		.byte	0x3c
 2902 0517 C3000000 		.4byte	0xc3
 2903 051b 00       		.byte	0
 2904 051c 00       		.byte	0
 2905 051d 04       		.uleb128 0x4
 2906 051e BF040000 		.4byte	.LASF86
 2907 0522 0B       		.byte	0xb
 2908 0523 3D       		.byte	0x3d
 2909 0524 08050000 		.4byte	0x508
 2910 0528 11       		.uleb128 0x11
 2911 0529 04       		.byte	0x4
 2912 052a 09       		.byte	0x9
 2913 052b FA       		.byte	0xfa
 2914 052c 91050000 		.4byte	0x591
 2915 0530 12       		.uleb128 0x12
 2916 0531 13000000 		.4byte	.LASF87
ARM GAS  /tmp/ccCJBSpW.s 			page 116


 2917 0535 09       		.byte	0x9
 2918 0536 0101     		.2byte	0x101
 2919 0538 FA000000 		.4byte	0xfa
 2920 053c 12       		.uleb128 0x12
 2921 053d 95000000 		.4byte	.LASF88
 2922 0541 09       		.byte	0x9
 2923 0542 0801     		.2byte	0x108
 2924 0544 FA000000 		.4byte	0xfa
 2925 0548 12       		.uleb128 0x12
 2926 0549 8C070000 		.4byte	.LASF89
 2927 054d 09       		.byte	0x9
 2928 054e 0F01     		.2byte	0x10f
 2929 0550 1B030000 		.4byte	0x31b
 2930 0554 12       		.uleb128 0x12
 2931 0555 0D000000 		.4byte	.LASF90
 2932 0559 09       		.byte	0x9
 2933 055a 1601     		.2byte	0x116
 2934 055c 91050000 		.4byte	0x591
 2935 0560 12       		.uleb128 0x12
 2936 0561 A9000000 		.4byte	.LASF91
 2937 0565 09       		.byte	0x9
 2938 0566 1B01     		.2byte	0x11b
 2939 0568 FA000000 		.4byte	0xfa
 2940 056c 12       		.uleb128 0x12
 2941 056d 32030000 		.4byte	.LASF92
 2942 0571 09       		.byte	0x9
 2943 0572 2401     		.2byte	0x124
 2944 0574 BC050000 		.4byte	0x5bc
 2945 0578 12       		.uleb128 0x12
 2946 0579 2F060000 		.4byte	.LASF93
 2947 057d 09       		.byte	0x9
 2948 057e 2D01     		.2byte	0x12d
 2949 0580 F3050000 		.4byte	0x5f3
 2950 0584 12       		.uleb128 0x12
 2951 0585 D6050000 		.4byte	.LASF94
 2952 0589 09       		.byte	0x9
 2953 058a 3501     		.2byte	0x135
 2954 058c 10010000 		.4byte	0x110
 2955 0590 00       		.byte	0
 2956 0591 09       		.uleb128 0x9
 2957 0592 04       		.byte	0x4
 2958 0593 33020000 		.4byte	0x233
 2959 0597 05       		.uleb128 0x5
 2960 0598 07060000 		.4byte	.LASF95
 2961 059c 0C       		.byte	0xc
 2962 059d 0C       		.byte	0xc
 2963 059e 34       		.byte	0x34
 2964 059f BC050000 		.4byte	0x5bc
 2965 05a3 06       		.uleb128 0x6
 2966 05a4 94010000 		.4byte	.LASF96
 2967 05a8 0C       		.byte	0xc
 2968 05a9 35       		.byte	0x35
 2969 05aa 68020000 		.4byte	0x268
 2970 05ae 00       		.byte	0
 2971 05af 06       		.uleb128 0x6
 2972 05b0 5B030000 		.4byte	.LASF97
 2973 05b4 0C       		.byte	0xc
ARM GAS  /tmp/ccCJBSpW.s 			page 117


 2974 05b5 37       		.byte	0x37
 2975 05b6 26010000 		.4byte	0x126
 2976 05ba 08       		.byte	0x8
 2977 05bb 00       		.byte	0
 2978 05bc 09       		.uleb128 0x9
 2979 05bd 04       		.byte	0x4
 2980 05be 97050000 		.4byte	0x597
 2981 05c2 05       		.uleb128 0x5
 2982 05c3 38070000 		.4byte	.LASF98
 2983 05c7 10       		.byte	0x10
 2984 05c8 0D       		.byte	0xd
 2985 05c9 39       		.byte	0x39
 2986 05ca F3050000 		.4byte	0x5f3
 2987 05ce 06       		.uleb128 0x6
 2988 05cf 25010000 		.4byte	.LASF99
 2989 05d3 0D       		.byte	0xd
 2990 05d4 3A       		.byte	0x3a
 2991 05d5 68020000 		.4byte	0x268
 2992 05d9 00       		.byte	0
 2993 05da 06       		.uleb128 0x6
 2994 05db CB070000 		.4byte	.LASF100
 2995 05df 0D       		.byte	0xd
 2996 05e0 3C       		.byte	0x3c
 2997 05e1 3E020000 		.4byte	0x23e
 2998 05e5 08       		.byte	0x8
 2999 05e6 06       		.uleb128 0x6
 3000 05e7 C2060000 		.4byte	.LASF101
 3001 05eb 0D       		.byte	0xd
 3002 05ec 3E       		.byte	0x3e
 3003 05ed 37060000 		.4byte	0x637
 3004 05f1 0C       		.byte	0xc
 3005 05f2 00       		.byte	0
 3006 05f3 09       		.uleb128 0x9
 3007 05f4 04       		.byte	0x4
 3008 05f5 C2050000 		.4byte	0x5c2
 3009 05f9 09       		.uleb128 0x9
 3010 05fa 04       		.byte	0x4
 3011 05fb FF050000 		.4byte	0x5ff
 3012 05ff 13       		.uleb128 0x13
 3013 0600 04060000 		.4byte	0x604
 3014 0604 03       		.uleb128 0x3
 3015 0605 01       		.byte	0x1
 3016 0606 08       		.byte	0x8
 3017 0607 B4060000 		.4byte	.LASF102
 3018 060b 09       		.uleb128 0x9
 3019 060c 04       		.byte	0x4
 3020 060d 63040000 		.4byte	0x463
 3021 0611 09       		.uleb128 0x9
 3022 0612 04       		.byte	0x4
 3023 0613 1D030000 		.4byte	0x31d
 3024 0617 14       		.uleb128 0x14
 3025 0618 F9050000 		.4byte	0x5f9
 3026 061c 15       		.uleb128 0x15
 3027 061d 63040000 		.4byte	0x463
 3028 0621 2C060000 		.4byte	0x62c
 3029 0625 16       		.uleb128 0x16
 3030 0626 51040000 		.4byte	0x451
ARM GAS  /tmp/ccCJBSpW.s 			page 118


 3031 062a 1A       		.byte	0x1a
 3032 062b 00       		.byte	0
 3033 062c 04       		.uleb128 0x4
 3034 062d FF010000 		.4byte	.LASF103
 3035 0631 0D       		.byte	0xd
 3036 0632 34       		.byte	0x34
 3037 0633 C2050000 		.4byte	0x5c2
 3038 0637 09       		.uleb128 0x9
 3039 0638 04       		.byte	0x4
 3040 0639 2C060000 		.4byte	0x62c
 3041 063d 04       		.uleb128 0x4
 3042 063e 1B040000 		.4byte	.LASF104
 3043 0642 0E       		.byte	0xe
 3044 0643 34       		.byte	0x34
 3045 0644 48060000 		.4byte	0x648
 3046 0648 05       		.uleb128 0x5
 3047 0649 E1070000 		.4byte	.LASF105
 3048 064d 14       		.byte	0x14
 3049 064e 0E       		.byte	0xe
 3050 064f 39       		.byte	0x39
 3051 0650 91060000 		.4byte	0x691
 3052 0654 06       		.uleb128 0x6
 3053 0655 9B030000 		.4byte	.LASF106
 3054 0659 0E       		.byte	0xe
 3055 065a 3A       		.byte	0x3a
 3056 065b 91060000 		.4byte	0x691
 3057 065f 00       		.byte	0
 3058 0660 06       		.uleb128 0x6
 3059 0661 75050000 		.4byte	.LASF107
 3060 0665 0E       		.byte	0xe
 3061 0666 3D       		.byte	0x3d
 3062 0667 3E020000 		.4byte	0x23e
 3063 066b 04       		.byte	0x4
 3064 066c 06       		.uleb128 0x6
 3065 066d FF040000 		.4byte	.LASF108
 3066 0671 0E       		.byte	0xe
 3067 0672 3F       		.byte	0x3f
 3068 0673 10010000 		.4byte	0x110
 3069 0677 08       		.byte	0x8
 3070 0678 06       		.uleb128 0x6
 3071 0679 8F050000 		.4byte	.LASF109
 3072 067d 0E       		.byte	0xe
 3073 067e 41       		.byte	0x41
 3074 067f 1B010000 		.4byte	0x11b
 3075 0683 0C       		.byte	0xc
 3076 0684 06       		.uleb128 0x6
 3077 0685 7E030000 		.4byte	.LASF110
 3078 0689 0E       		.byte	0xe
 3079 068a 43       		.byte	0x43
 3080 068b 1B010000 		.4byte	0x11b
 3081 068f 10       		.byte	0x10
 3082 0690 00       		.byte	0
 3083 0691 09       		.uleb128 0x9
 3084 0692 04       		.byte	0x4
 3085 0693 3D060000 		.4byte	0x63d
 3086 0697 05       		.uleb128 0x5
 3087 0698 4F070000 		.4byte	.LASF111
ARM GAS  /tmp/ccCJBSpW.s 			page 119


 3088 069c 04       		.byte	0x4
 3089 069d 0E       		.byte	0xe
 3090 069e 4A       		.byte	0x4a
 3091 069f B0060000 		.4byte	0x6b0
 3092 06a3 06       		.uleb128 0x6
 3093 06a4 41070000 		.4byte	.LASF112
 3094 06a8 0E       		.byte	0xe
 3095 06a9 4B       		.byte	0x4b
 3096 06aa 91060000 		.4byte	0x691
 3097 06ae 00       		.byte	0
 3098 06af 00       		.byte	0
 3099 06b0 04       		.uleb128 0x4
 3100 06b1 0D020000 		.4byte	.LASF113
 3101 06b5 0E       		.byte	0xe
 3102 06b6 4E       		.byte	0x4e
 3103 06b7 97060000 		.4byte	0x697
 3104 06bb 04       		.uleb128 0x4
 3105 06bc 2B020000 		.4byte	.LASF114
 3106 06c0 0E       		.byte	0xe
 3107 06c1 53       		.byte	0x53
 3108 06c2 C6060000 		.4byte	0x6c6
 3109 06c6 09       		.uleb128 0x9
 3110 06c7 04       		.byte	0x4
 3111 06c8 CC060000 		.4byte	0x6cc
 3112 06cc 0B       		.uleb128 0xb
 3113 06cd D7060000 		.4byte	0x6d7
 3114 06d1 0C       		.uleb128 0xc
 3115 06d2 05010000 		.4byte	0x105
 3116 06d6 00       		.byte	0
 3117 06d7 17       		.uleb128 0x17
 3118 06d8 F2060000 		.4byte	.LASF151
 3119 06dc 02       		.byte	0x2
 3120 06dd 2202     		.2byte	0x222
 3121 06df 03       		.byte	0x3
 3122 06e0 F1060000 		.4byte	0x6f1
 3123 06e4 18       		.uleb128 0x18
 3124 06e5 07020000 		.4byte	.LASF152
 3125 06e9 02       		.byte	0x2
 3126 06ea 2202     		.2byte	0x222
 3127 06ec AD000000 		.4byte	0xad
 3128 06f0 00       		.byte	0
 3129 06f1 19       		.uleb128 0x19
 3130 06f2 65000000 		.4byte	.LASF115
 3131 06f6 01       		.byte	0x1
 3132 06f7 C801     		.2byte	0x1c8
 3133 06f9 00000000 		.4byte	.LFB127
 3134 06fd 10000000 		.4byte	.LFE127-.LFB127
 3135 0701 01       		.uleb128 0x1
 3136 0702 9C       		.byte	0x9c
 3137 0703 21070000 		.4byte	0x721
 3138 0707 1A       		.uleb128 0x1a
 3139 0708 D7060000 		.4byte	0x6d7
 3140 070c 06000000 		.4byte	.LBB6
 3141 0710 06000000 		.4byte	.LBE6-.LBB6
 3142 0714 01       		.byte	0x1
 3143 0715 D001     		.2byte	0x1d0
 3144 0717 1B       		.uleb128 0x1b
ARM GAS  /tmp/ccCJBSpW.s 			page 120


 3145 0718 E4060000 		.4byte	0x6e4
 3146 071c 02       		.uleb128 0x2
 3147 071d 91       		.byte	0x91
 3148 071e 7C       		.sleb128 -4
 3149 071f 00       		.byte	0
 3150 0720 00       		.byte	0
 3151 0721 19       		.uleb128 0x19
 3152 0722 34010000 		.4byte	.LASF116
 3153 0726 01       		.byte	0x1
 3154 0727 E001     		.2byte	0x1e0
 3155 0729 00000000 		.4byte	.LFB128
 3156 072d 10000000 		.4byte	.LFE128-.LFB128
 3157 0731 01       		.uleb128 0x1
 3158 0732 9C       		.byte	0x9c
 3159 0733 51070000 		.4byte	0x751
 3160 0737 1A       		.uleb128 0x1a
 3161 0738 D7060000 		.4byte	0x6d7
 3162 073c 06000000 		.4byte	.LBB8
 3163 0740 06000000 		.4byte	.LBE8-.LBB8
 3164 0744 01       		.byte	0x1
 3165 0745 E301     		.2byte	0x1e3
 3166 0747 1B       		.uleb128 0x1b
 3167 0748 E4060000 		.4byte	0x6e4
 3168 074c 02       		.uleb128 0x2
 3169 074d 91       		.byte	0x91
 3170 074e 7C       		.sleb128 -4
 3171 074f 00       		.byte	0
 3172 0750 00       		.byte	0
 3173 0751 1C       		.uleb128 0x1c
 3174 0752 EC050000 		.4byte	.LASF153
 3175 0756 03       		.byte	0x3
 3176 0757 5A01     		.2byte	0x15a
 3177 0759 00000000 		.4byte	.LFB167
 3178 075d 08000000 		.4byte	.LFE167-.LFB167
 3179 0761 01       		.uleb128 0x1
 3180 0762 9C       		.byte	0x9c
 3181 0763 1D       		.uleb128 0x1d
 3182 0764 BF070000 		.4byte	.LASF117
 3183 0768 03       		.byte	0x3
 3184 0769 6601     		.2byte	0x166
 3185 076b 00000000 		.4byte	.LFB168
 3186 076f 08000000 		.4byte	.LFE168-.LFB168
 3187 0773 01       		.uleb128 0x1
 3188 0774 9C       		.byte	0x9c
 3189 0775 83070000 		.4byte	0x783
 3190 0779 1E       		.uleb128 0x1e
 3191 077a AA010000 		.4byte	.LASF120
 3192 077e 93070000 		.4byte	0x793
 3193 0782 00       		.byte	0
 3194 0783 15       		.uleb128 0x15
 3195 0784 04060000 		.4byte	0x604
 3196 0788 93070000 		.4byte	0x793
 3197 078c 16       		.uleb128 0x16
 3198 078d 51040000 		.4byte	0x451
 3199 0791 0B       		.byte	0xb
 3200 0792 00       		.byte	0
 3201 0793 13       		.uleb128 0x13
ARM GAS  /tmp/ccCJBSpW.s 			page 121


 3202 0794 83070000 		.4byte	0x783
 3203 0798 1F       		.uleb128 0x1f
 3204 0799 BF030000 		.4byte	.LASF122
 3205 079d 04       		.byte	0x4
 3206 079e 67       		.byte	0x67
 3207 079f 00000000 		.4byte	.LFB241
 3208 07a3 48000000 		.4byte	.LFE241-.LFB241
 3209 07a7 01       		.uleb128 0x1
 3210 07a8 9C       		.byte	0x9c
 3211 07a9 EF070000 		.4byte	0x7ef
 3212 07ad 20       		.uleb128 0x20
 3213 07ae 65737000 		.ascii	"esp\000"
 3214 07b2 04       		.byte	0x4
 3215 07b3 67       		.byte	0x67
 3216 07b4 EF070000 		.4byte	0x7ef
 3217 07b8 02       		.uleb128 0x2
 3218 07b9 91       		.byte	0x91
 3219 07ba 74       		.sleb128 -12
 3220 07bb 20       		.uleb128 0x20
 3221 07bc 656C7000 		.ascii	"elp\000"
 3222 07c0 04       		.byte	0x4
 3223 07c1 68       		.byte	0x68
 3224 07c2 91060000 		.4byte	0x691
 3225 07c6 02       		.uleb128 0x2
 3226 07c7 91       		.byte	0x91
 3227 07c8 70       		.sleb128 -16
 3228 07c9 21       		.uleb128 0x21
 3229 07ca 1F060000 		.4byte	.LASF118
 3230 07ce 04       		.byte	0x4
 3231 07cf 69       		.byte	0x69
 3232 07d0 10010000 		.4byte	0x110
 3233 07d4 02       		.uleb128 0x2
 3234 07d5 91       		.byte	0x91
 3235 07d6 6C       		.sleb128 -20
 3236 07d7 21       		.uleb128 0x21
 3237 07d8 85010000 		.4byte	.LASF119
 3238 07dc 04       		.byte	0x4
 3239 07dd 6A       		.byte	0x6a
 3240 07de 1B010000 		.4byte	0x11b
 3241 07e2 02       		.uleb128 0x2
 3242 07e3 91       		.byte	0x91
 3243 07e4 68       		.sleb128 -24
 3244 07e5 1E       		.uleb128 0x1e
 3245 07e6 44050000 		.4byte	.LASF121
 3246 07ea 05080000 		.4byte	0x805
 3247 07ee 00       		.byte	0
 3248 07ef 09       		.uleb128 0x9
 3249 07f0 04       		.byte	0x4
 3250 07f1 B0060000 		.4byte	0x6b0
 3251 07f5 15       		.uleb128 0x15
 3252 07f6 04060000 		.4byte	0x604
 3253 07fa 05080000 		.4byte	0x805
 3254 07fe 16       		.uleb128 0x16
 3255 07ff 51040000 		.4byte	0x451
 3256 0803 1A       		.byte	0x1a
 3257 0804 00       		.byte	0
 3258 0805 13       		.uleb128 0x13
ARM GAS  /tmp/ccCJBSpW.s 			page 122


 3259 0806 F5070000 		.4byte	0x7f5
 3260 080a 1F       		.uleb128 0x1f
 3261 080b A3030000 		.4byte	.LASF123
 3262 080f 04       		.byte	0x4
 3263 0810 85       		.byte	0x85
 3264 0811 00000000 		.4byte	.LFB242
 3265 0815 40000000 		.4byte	.LFE242-.LFB242
 3266 0819 01       		.uleb128 0x1
 3267 081a 9C       		.byte	0x9c
 3268 081b 51080000 		.4byte	0x851
 3269 081f 20       		.uleb128 0x20
 3270 0820 65737000 		.ascii	"esp\000"
 3271 0824 04       		.byte	0x4
 3272 0825 85       		.byte	0x85
 3273 0826 EF070000 		.4byte	0x7ef
 3274 082a 02       		.uleb128 0x2
 3275 082b 91       		.byte	0x91
 3276 082c 6C       		.sleb128 -20
 3277 082d 20       		.uleb128 0x20
 3278 082e 656C7000 		.ascii	"elp\000"
 3279 0832 04       		.byte	0x4
 3280 0833 85       		.byte	0x85
 3281 0834 91060000 		.4byte	0x691
 3282 0838 02       		.uleb128 0x2
 3283 0839 91       		.byte	0x91
 3284 083a 68       		.sleb128 -24
 3285 083b 22       		.uleb128 0x22
 3286 083c 7000     		.ascii	"p\000"
 3287 083e 04       		.byte	0x4
 3288 083f 86       		.byte	0x86
 3289 0840 91060000 		.4byte	0x691
 3290 0844 02       		.uleb128 0x2
 3291 0845 91       		.byte	0x91
 3292 0846 74       		.sleb128 -12
 3293 0847 1E       		.uleb128 0x1e
 3294 0848 9C010000 		.4byte	.LASF124
 3295 084c 61080000 		.4byte	0x861
 3296 0850 00       		.byte	0
 3297 0851 15       		.uleb128 0x15
 3298 0852 04060000 		.4byte	0x604
 3299 0856 61080000 		.4byte	0x861
 3300 085a 16       		.uleb128 0x16
 3301 085b 51040000 		.4byte	0x451
 3302 085f 0F       		.byte	0xf
 3303 0860 00       		.byte	0
 3304 0861 13       		.uleb128 0x13
 3305 0862 51080000 		.4byte	0x851
 3306 0866 23       		.uleb128 0x23
 3307 0867 44030000 		.4byte	.LASF125
 3308 086b 04       		.byte	0x4
 3309 086c A2       		.byte	0xa2
 3310 086d 10010000 		.4byte	0x110
 3311 0871 00000000 		.4byte	.LFB243
 3312 0875 3C000000 		.4byte	.LFE243-.LFB243
 3313 0879 01       		.uleb128 0x1
 3314 087a 9C       		.byte	0x9c
 3315 087b 9A080000 		.4byte	0x89a
ARM GAS  /tmp/ccCJBSpW.s 			page 123


 3316 087f 21       		.uleb128 0x21
 3317 0880 1F060000 		.4byte	.LASF118
 3318 0884 04       		.byte	0x4
 3319 0885 A2       		.byte	0xa2
 3320 0886 10010000 		.4byte	0x110
 3321 088a 02       		.uleb128 0x2
 3322 088b 91       		.byte	0x91
 3323 088c 6C       		.sleb128 -20
 3324 088d 22       		.uleb128 0x22
 3325 088e 6D00     		.ascii	"m\000"
 3326 0890 04       		.byte	0x4
 3327 0891 A3       		.byte	0xa3
 3328 0892 10010000 		.4byte	0x110
 3329 0896 02       		.uleb128 0x2
 3330 0897 91       		.byte	0x91
 3331 0898 74       		.sleb128 -12
 3332 0899 00       		.byte	0
 3333 089a 23       		.uleb128 0x23
 3334 089b 86000000 		.4byte	.LASF126
 3335 089f 04       		.byte	0x4
 3336 08a0 B6       		.byte	0xb6
 3337 08a1 10010000 		.4byte	0x110
 3338 08a5 00000000 		.4byte	.LFB244
 3339 08a9 34000000 		.4byte	.LFE244-.LFB244
 3340 08ad 01       		.uleb128 0x1
 3341 08ae 9C       		.byte	0x9c
 3342 08af C2080000 		.4byte	0x8c2
 3343 08b3 21       		.uleb128 0x21
 3344 08b4 1F060000 		.4byte	.LASF118
 3345 08b8 04       		.byte	0x4
 3346 08b9 B6       		.byte	0xb6
 3347 08ba 10010000 		.4byte	0x110
 3348 08be 02       		.uleb128 0x2
 3349 08bf 91       		.byte	0x91
 3350 08c0 74       		.sleb128 -12
 3351 08c1 00       		.byte	0
 3352 08c2 1F       		.uleb128 0x1f
 3353 08c3 67010000 		.4byte	.LASF127
 3354 08c7 04       		.byte	0x4
 3355 08c8 D1       		.byte	0xd1
 3356 08c9 00000000 		.4byte	.LFB245
 3357 08cd 54000000 		.4byte	.LFE245-.LFB245
 3358 08d1 01       		.uleb128 0x1
 3359 08d2 9C       		.byte	0x9c
 3360 08d3 0B090000 		.4byte	0x90b
 3361 08d7 20       		.uleb128 0x20
 3362 08d8 65737000 		.ascii	"esp\000"
 3363 08dc 04       		.byte	0x4
 3364 08dd D1       		.byte	0xd1
 3365 08de EF070000 		.4byte	0x7ef
 3366 08e2 02       		.uleb128 0x2
 3367 08e3 91       		.byte	0x91
 3368 08e4 6C       		.sleb128 -20
 3369 08e5 21       		.uleb128 0x21
 3370 08e6 64070000 		.4byte	.LASF128
 3371 08ea 04       		.byte	0x4
 3372 08eb D1       		.byte	0xd1
ARM GAS  /tmp/ccCJBSpW.s 			page 124


 3373 08ec 1B010000 		.4byte	0x11b
 3374 08f0 02       		.uleb128 0x2
 3375 08f1 91       		.byte	0x91
 3376 08f2 68       		.sleb128 -24
 3377 08f3 22       		.uleb128 0x22
 3378 08f4 656C7000 		.ascii	"elp\000"
 3379 08f8 04       		.byte	0x4
 3380 08f9 D2       		.byte	0xd2
 3381 08fa 91060000 		.4byte	0x691
 3382 08fe 02       		.uleb128 0x2
 3383 08ff 91       		.byte	0x91
 3384 0900 74       		.sleb128 -12
 3385 0901 1E       		.uleb128 0x1e
 3386 0902 77040000 		.4byte	.LASF129
 3387 0906 1B090000 		.4byte	0x91b
 3388 090a 00       		.byte	0
 3389 090b 15       		.uleb128 0x15
 3390 090c 04060000 		.4byte	0x604
 3391 0910 1B090000 		.4byte	0x91b
 3392 0914 16       		.uleb128 0x16
 3393 0915 51040000 		.4byte	0x451
 3394 0919 14       		.byte	0x14
 3395 091a 00       		.byte	0
 3396 091b 13       		.uleb128 0x13
 3397 091c 0B090000 		.4byte	0x90b
 3398 0920 23       		.uleb128 0x23
 3399 0921 A9070000 		.4byte	.LASF130
 3400 0925 04       		.byte	0x4
 3401 0926 F1       		.byte	0xf1
 3402 0927 1B010000 		.4byte	0x11b
 3403 092b 00000000 		.4byte	.LFB246
 3404 092f 24000000 		.4byte	.LFE246-.LFB246
 3405 0933 01       		.uleb128 0x1
 3406 0934 9C       		.byte	0x9c
 3407 0935 56090000 		.4byte	0x956
 3408 0939 20       		.uleb128 0x20
 3409 093a 656C7000 		.ascii	"elp\000"
 3410 093e 04       		.byte	0x4
 3411 093f F1       		.byte	0xf1
 3412 0940 91060000 		.4byte	0x691
 3413 0944 02       		.uleb128 0x2
 3414 0945 91       		.byte	0x91
 3415 0946 6C       		.sleb128 -20
 3416 0947 24       		.uleb128 0x24
 3417 0948 64070000 		.4byte	.LASF128
 3418 094c 04       		.byte	0x4
 3419 094d F2       		.byte	0xf2
 3420 094e 1B010000 		.4byte	0x11b
 3421 0952 02       		.uleb128 0x2
 3422 0953 91       		.byte	0x91
 3423 0954 74       		.sleb128 -12
 3424 0955 00       		.byte	0
 3425 0956 25       		.uleb128 0x25
 3426 0957 59000000 		.4byte	.LASF131
 3427 095b 04       		.byte	0x4
 3428 095c 0401     		.2byte	0x104
 3429 095e 00000000 		.4byte	.LFB247
ARM GAS  /tmp/ccCJBSpW.s 			page 125


 3430 0962 22000000 		.4byte	.LFE247-.LFB247
 3431 0966 01       		.uleb128 0x1
 3432 0967 9C       		.byte	0x9c
 3433 0968 93090000 		.4byte	0x993
 3434 096c 26       		.uleb128 0x26
 3435 096d 747000   		.ascii	"tp\000"
 3436 0970 04       		.byte	0x4
 3437 0971 0401     		.2byte	0x104
 3438 0973 3E020000 		.4byte	0x23e
 3439 0977 02       		.uleb128 0x2
 3440 0978 91       		.byte	0x91
 3441 0979 74       		.sleb128 -12
 3442 097a 27       		.uleb128 0x27
 3443 097b 1F060000 		.4byte	.LASF118
 3444 097f 04       		.byte	0x4
 3445 0980 0401     		.2byte	0x104
 3446 0982 10010000 		.4byte	0x110
 3447 0986 02       		.uleb128 0x2
 3448 0987 91       		.byte	0x91
 3449 0988 70       		.sleb128 -16
 3450 0989 1E       		.uleb128 0x1e
 3451 098a 81050000 		.4byte	.LASF132
 3452 098e 93090000 		.4byte	0x993
 3453 0992 00       		.byte	0
 3454 0993 13       		.uleb128 0x13
 3455 0994 83070000 		.4byte	0x783
 3456 0998 25       		.uleb128 0x25
 3457 0999 F0070000 		.4byte	.LASF133
 3458 099d 04       		.byte	0x4
 3459 099e 1A01     		.2byte	0x11a
 3460 09a0 00000000 		.4byte	.LFB248
 3461 09a4 5A000000 		.4byte	.LFE248-.LFB248
 3462 09a8 01       		.uleb128 0x1
 3463 09a9 9C       		.byte	0x9c
 3464 09aa D5090000 		.4byte	0x9d5
 3465 09ae 26       		.uleb128 0x26
 3466 09af 747000   		.ascii	"tp\000"
 3467 09b2 04       		.byte	0x4
 3468 09b3 1A01     		.2byte	0x11a
 3469 09b5 3E020000 		.4byte	0x23e
 3470 09b9 02       		.uleb128 0x2
 3471 09ba 91       		.byte	0x91
 3472 09bb 74       		.sleb128 -12
 3473 09bc 27       		.uleb128 0x27
 3474 09bd 1F060000 		.4byte	.LASF118
 3475 09c1 04       		.byte	0x4
 3476 09c2 1A01     		.2byte	0x11a
 3477 09c4 10010000 		.4byte	0x110
 3478 09c8 02       		.uleb128 0x2
 3479 09c9 91       		.byte	0x91
 3480 09ca 70       		.sleb128 -16
 3481 09cb 1E       		.uleb128 0x1e
 3482 09cc A2050000 		.4byte	.LASF134
 3483 09d0 E5090000 		.4byte	0x9e5
 3484 09d4 00       		.byte	0
 3485 09d5 15       		.uleb128 0x15
 3486 09d6 04060000 		.4byte	0x604
ARM GAS  /tmp/ccCJBSpW.s 			page 126


 3487 09da E5090000 		.4byte	0x9e5
 3488 09de 16       		.uleb128 0x16
 3489 09df 51040000 		.4byte	0x451
 3490 09e3 0C       		.byte	0xc
 3491 09e4 00       		.byte	0
 3492 09e5 13       		.uleb128 0x13
 3493 09e6 D5090000 		.4byte	0x9d5
 3494 09ea 25       		.uleb128 0x25
 3495 09eb D1010000 		.4byte	.LASF135
 3496 09ef 04       		.byte	0x4
 3497 09f0 3701     		.2byte	0x137
 3498 09f2 00000000 		.4byte	.LFB249
 3499 09f6 22000000 		.4byte	.LFE249-.LFB249
 3500 09fa 01       		.uleb128 0x1
 3501 09fb 9C       		.byte	0x9c
 3502 09fc 1F0A0000 		.4byte	0xa1f
 3503 0a00 26       		.uleb128 0x26
 3504 0a01 65737000 		.ascii	"esp\000"
 3505 0a05 04       		.byte	0x4
 3506 0a06 3701     		.2byte	0x137
 3507 0a08 EF070000 		.4byte	0x7ef
 3508 0a0c 02       		.uleb128 0x2
 3509 0a0d 91       		.byte	0x91
 3510 0a0e 74       		.sleb128 -12
 3511 0a0f 27       		.uleb128 0x27
 3512 0a10 64070000 		.4byte	.LASF128
 3513 0a14 04       		.byte	0x4
 3514 0a15 3701     		.2byte	0x137
 3515 0a17 1B010000 		.4byte	0x11b
 3516 0a1b 02       		.uleb128 0x2
 3517 0a1c 91       		.byte	0x91
 3518 0a1d 70       		.sleb128 -16
 3519 0a1e 00       		.byte	0
 3520 0a1f 28       		.uleb128 0x28
 3521 0a20 BF050000 		.4byte	.LASF136
 3522 0a24 04       		.byte	0x4
 3523 0a25 4A01     		.2byte	0x14a
 3524 0a27 1B010000 		.4byte	0x11b
 3525 0a2b 00000000 		.4byte	.LFB250
 3526 0a2f 18000000 		.4byte	.LFE250-.LFB250
 3527 0a33 01       		.uleb128 0x1
 3528 0a34 9C       		.byte	0x9c
 3529 0a35 580A0000 		.4byte	0xa58
 3530 0a39 26       		.uleb128 0x26
 3531 0a3a 656C7000 		.ascii	"elp\000"
 3532 0a3e 04       		.byte	0x4
 3533 0a3f 4A01     		.2byte	0x14a
 3534 0a41 91060000 		.4byte	0x691
 3535 0a45 02       		.uleb128 0x2
 3536 0a46 91       		.byte	0x91
 3537 0a47 74       		.sleb128 -12
 3538 0a48 29       		.uleb128 0x29
 3539 0a49 64070000 		.4byte	.LASF128
 3540 0a4d 04       		.byte	0x4
 3541 0a4e 4B01     		.2byte	0x14b
 3542 0a50 1B010000 		.4byte	0x11b
 3543 0a54 02       		.uleb128 0x2
ARM GAS  /tmp/ccCJBSpW.s 			page 127


 3544 0a55 91       		.byte	0x91
 3545 0a56 7C       		.sleb128 -4
 3546 0a57 00       		.byte	0
 3547 0a58 25       		.uleb128 0x25
 3548 0a59 69040000 		.4byte	.LASF137
 3549 0a5d 04       		.byte	0x4
 3550 0a5e 5C01     		.2byte	0x15c
 3551 0a60 00000000 		.4byte	.LFB251
 3552 0a64 4E000000 		.4byte	.LFE251-.LFB251
 3553 0a68 01       		.uleb128 0x1
 3554 0a69 9C       		.byte	0x9c
 3555 0a6a A50A0000 		.4byte	0xaa5
 3556 0a6e 27       		.uleb128 0x27
 3557 0a6f 14050000 		.4byte	.LASF138
 3558 0a73 04       		.byte	0x4
 3559 0a74 5C01     		.2byte	0x15c
 3560 0a76 A50A0000 		.4byte	0xaa5
 3561 0a7a 02       		.uleb128 0x2
 3562 0a7b 91       		.byte	0x91
 3563 0a7c 6C       		.sleb128 -20
 3564 0a7d 27       		.uleb128 0x27
 3565 0a7e 1F060000 		.4byte	.LASF118
 3566 0a82 04       		.byte	0x4
 3567 0a83 5C01     		.2byte	0x15c
 3568 0a85 10010000 		.4byte	0x110
 3569 0a89 02       		.uleb128 0x2
 3570 0a8a 91       		.byte	0x91
 3571 0a8b 68       		.sleb128 -24
 3572 0a8c 2A       		.uleb128 0x2a
 3573 0a8d 65696400 		.ascii	"eid\000"
 3574 0a91 04       		.byte	0x4
 3575 0a92 5D01     		.2byte	0x15d
 3576 0a94 05010000 		.4byte	0x105
 3577 0a98 02       		.uleb128 0x2
 3578 0a99 91       		.byte	0x91
 3579 0a9a 74       		.sleb128 -12
 3580 0a9b 1E       		.uleb128 0x1e
 3581 0a9c 6A070000 		.4byte	.LASF139
 3582 0aa0 C00A0000 		.4byte	0xac0
 3583 0aa4 00       		.byte	0
 3584 0aa5 09       		.uleb128 0x9
 3585 0aa6 04       		.byte	0x4
 3586 0aa7 AB0A0000 		.4byte	0xaab
 3587 0aab 13       		.uleb128 0x13
 3588 0aac BB060000 		.4byte	0x6bb
 3589 0ab0 15       		.uleb128 0x15
 3590 0ab1 04060000 		.4byte	0x604
 3591 0ab5 C00A0000 		.4byte	0xac0
 3592 0ab9 16       		.uleb128 0x16
 3593 0aba 51040000 		.4byte	0x451
 3594 0abe 0D       		.byte	0xd
 3595 0abf 00       		.byte	0
 3596 0ac0 13       		.uleb128 0x13
 3597 0ac1 B00A0000 		.4byte	0xab0
 3598 0ac5 2B       		.uleb128 0x2b
 3599 0ac6 68050000 		.4byte	.LASF140
 3600 0aca 04       		.byte	0x4
ARM GAS  /tmp/ccCJBSpW.s 			page 128


 3601 0acb 7F01     		.2byte	0x17f
 3602 0acd 10010000 		.4byte	0x110
 3603 0ad1 00000000 		.4byte	.LFB252
 3604 0ad5 60000000 		.4byte	.LFE252-.LFB252
 3605 0ad9 01       		.uleb128 0x1
 3606 0ada 9C       		.byte	0x9c
 3607 0adb 0B0B0000 		.4byte	0xb0b
 3608 0adf 27       		.uleb128 0x27
 3609 0ae0 1F060000 		.4byte	.LASF118
 3610 0ae4 04       		.byte	0x4
 3611 0ae5 7F01     		.2byte	0x17f
 3612 0ae7 10010000 		.4byte	0x110
 3613 0aeb 02       		.uleb128 0x2
 3614 0aec 91       		.byte	0x91
 3615 0aed 6C       		.sleb128 -20
 3616 0aee 2A       		.uleb128 0x2a
 3617 0aef 63747000 		.ascii	"ctp\000"
 3618 0af3 04       		.byte	0x4
 3619 0af4 8001     		.2byte	0x180
 3620 0af6 3E020000 		.4byte	0x23e
 3621 0afa 02       		.uleb128 0x2
 3622 0afb 91       		.byte	0x91
 3623 0afc 70       		.sleb128 -16
 3624 0afd 2A       		.uleb128 0x2a
 3625 0afe 6D00     		.ascii	"m\000"
 3626 0b00 04       		.byte	0x4
 3627 0b01 8101     		.2byte	0x181
 3628 0b03 10010000 		.4byte	0x110
 3629 0b07 02       		.uleb128 0x2
 3630 0b08 91       		.byte	0x91
 3631 0b09 74       		.sleb128 -12
 3632 0b0a 00       		.byte	0
 3633 0b0b 2B       		.uleb128 0x2b
 3634 0b0c 53010000 		.4byte	.LASF141
 3635 0b10 04       		.byte	0x4
 3636 0b11 9D01     		.2byte	0x19d
 3637 0b13 10010000 		.4byte	0x110
 3638 0b17 00000000 		.4byte	.LFB253
 3639 0b1b 58000000 		.4byte	.LFE253-.LFB253
 3640 0b1f 01       		.uleb128 0x1
 3641 0b20 9C       		.byte	0x9c
 3642 0b21 510B0000 		.4byte	0xb51
 3643 0b25 27       		.uleb128 0x27
 3644 0b26 1F060000 		.4byte	.LASF118
 3645 0b2a 04       		.byte	0x4
 3646 0b2b 9D01     		.2byte	0x19d
 3647 0b2d 10010000 		.4byte	0x110
 3648 0b31 02       		.uleb128 0x2
 3649 0b32 91       		.byte	0x91
 3650 0b33 6C       		.sleb128 -20
 3651 0b34 2A       		.uleb128 0x2a
 3652 0b35 63747000 		.ascii	"ctp\000"
 3653 0b39 04       		.byte	0x4
 3654 0b3a 9E01     		.2byte	0x19e
 3655 0b3c 3E020000 		.4byte	0x23e
 3656 0b40 02       		.uleb128 0x2
 3657 0b41 91       		.byte	0x91
ARM GAS  /tmp/ccCJBSpW.s 			page 129


 3658 0b42 70       		.sleb128 -16
 3659 0b43 2A       		.uleb128 0x2a
 3660 0b44 6D00     		.ascii	"m\000"
 3661 0b46 04       		.byte	0x4
 3662 0b47 9F01     		.2byte	0x19f
 3663 0b49 10010000 		.4byte	0x110
 3664 0b4d 02       		.uleb128 0x2
 3665 0b4e 91       		.byte	0x91
 3666 0b4f 74       		.sleb128 -12
 3667 0b50 00       		.byte	0
 3668 0b51 2B       		.uleb128 0x2b
 3669 0b52 E0040000 		.4byte	.LASF142
 3670 0b56 04       		.byte	0x4
 3671 0b57 B901     		.2byte	0x1b9
 3672 0b59 10010000 		.4byte	0x110
 3673 0b5d 00000000 		.4byte	.LFB254
 3674 0b61 4C000000 		.4byte	.LFE254-.LFB254
 3675 0b65 01       		.uleb128 0x1
 3676 0b66 9C       		.byte	0x9c
 3677 0b67 8A0B0000 		.4byte	0xb8a
 3678 0b6b 27       		.uleb128 0x27
 3679 0b6c 1F060000 		.4byte	.LASF118
 3680 0b70 04       		.byte	0x4
 3681 0b71 B901     		.2byte	0x1b9
 3682 0b73 10010000 		.4byte	0x110
 3683 0b77 02       		.uleb128 0x2
 3684 0b78 91       		.byte	0x91
 3685 0b79 6C       		.sleb128 -20
 3686 0b7a 2A       		.uleb128 0x2a
 3687 0b7b 63747000 		.ascii	"ctp\000"
 3688 0b7f 04       		.byte	0x4
 3689 0b80 BA01     		.2byte	0x1ba
 3690 0b82 3E020000 		.4byte	0x23e
 3691 0b86 02       		.uleb128 0x2
 3692 0b87 91       		.byte	0x91
 3693 0b88 74       		.sleb128 -12
 3694 0b89 00       		.byte	0
 3695 0b8a 2B       		.uleb128 0x2b
 3696 0b8b 78070000 		.4byte	.LASF143
 3697 0b8f 04       		.byte	0x4
 3698 0b90 DF01     		.2byte	0x1df
 3699 0b92 10010000 		.4byte	0x110
 3700 0b96 00000000 		.4byte	.LFB255
 3701 0b9a 80000000 		.4byte	.LFE255-.LFB255
 3702 0b9e 01       		.uleb128 0x1
 3703 0b9f 9C       		.byte	0x9c
 3704 0ba0 DF0B0000 		.4byte	0xbdf
 3705 0ba4 27       		.uleb128 0x27
 3706 0ba5 1F060000 		.4byte	.LASF118
 3707 0ba9 04       		.byte	0x4
 3708 0baa DF01     		.2byte	0x1df
 3709 0bac 10010000 		.4byte	0x110
 3710 0bb0 02       		.uleb128 0x2
 3711 0bb1 91       		.byte	0x91
 3712 0bb2 6C       		.sleb128 -20
 3713 0bb3 27       		.uleb128 0x27
 3714 0bb4 DB040000 		.4byte	.LASF144
ARM GAS  /tmp/ccCJBSpW.s 			page 130


 3715 0bb8 04       		.byte	0x4
 3716 0bb9 DF01     		.2byte	0x1df
 3717 0bbb 31010000 		.4byte	0x131
 3718 0bbf 02       		.uleb128 0x2
 3719 0bc0 91       		.byte	0x91
 3720 0bc1 68       		.sleb128 -24
 3721 0bc2 2A       		.uleb128 0x2a
 3722 0bc3 63747000 		.ascii	"ctp\000"
 3723 0bc7 04       		.byte	0x4
 3724 0bc8 E001     		.2byte	0x1e0
 3725 0bca 3E020000 		.4byte	0x23e
 3726 0bce 02       		.uleb128 0x2
 3727 0bcf 91       		.byte	0x91
 3728 0bd0 70       		.sleb128 -16
 3729 0bd1 2A       		.uleb128 0x2a
 3730 0bd2 6D00     		.ascii	"m\000"
 3731 0bd4 04       		.byte	0x4
 3732 0bd5 E101     		.2byte	0x1e1
 3733 0bd7 10010000 		.4byte	0x110
 3734 0bdb 02       		.uleb128 0x2
 3735 0bdc 91       		.byte	0x91
 3736 0bdd 74       		.sleb128 -12
 3737 0bde 00       		.byte	0
 3738 0bdf 2B       		.uleb128 0x2b
 3739 0be0 D4000000 		.4byte	.LASF145
 3740 0be4 04       		.byte	0x4
 3741 0be5 0A02     		.2byte	0x20a
 3742 0be7 10010000 		.4byte	0x110
 3743 0beb 00000000 		.4byte	.LFB256
 3744 0bef 78000000 		.4byte	.LFE256-.LFB256
 3745 0bf3 01       		.uleb128 0x1
 3746 0bf4 9C       		.byte	0x9c
 3747 0bf5 340C0000 		.4byte	0xc34
 3748 0bf9 27       		.uleb128 0x27
 3749 0bfa 1F060000 		.4byte	.LASF118
 3750 0bfe 04       		.byte	0x4
 3751 0bff 0A02     		.2byte	0x20a
 3752 0c01 10010000 		.4byte	0x110
 3753 0c05 02       		.uleb128 0x2
 3754 0c06 91       		.byte	0x91
 3755 0c07 6C       		.sleb128 -20
 3756 0c08 27       		.uleb128 0x27
 3757 0c09 DB040000 		.4byte	.LASF144
 3758 0c0d 04       		.byte	0x4
 3759 0c0e 0A02     		.2byte	0x20a
 3760 0c10 31010000 		.4byte	0x131
 3761 0c14 02       		.uleb128 0x2
 3762 0c15 91       		.byte	0x91
 3763 0c16 68       		.sleb128 -24
 3764 0c17 2A       		.uleb128 0x2a
 3765 0c18 63747000 		.ascii	"ctp\000"
 3766 0c1c 04       		.byte	0x4
 3767 0c1d 0B02     		.2byte	0x20b
 3768 0c1f 3E020000 		.4byte	0x23e
 3769 0c23 02       		.uleb128 0x2
 3770 0c24 91       		.byte	0x91
 3771 0c25 70       		.sleb128 -16
ARM GAS  /tmp/ccCJBSpW.s 			page 131


 3772 0c26 2A       		.uleb128 0x2a
 3773 0c27 6D00     		.ascii	"m\000"
 3774 0c29 04       		.byte	0x4
 3775 0c2a 0C02     		.2byte	0x20c
 3776 0c2c 10010000 		.4byte	0x110
 3777 0c30 02       		.uleb128 0x2
 3778 0c31 91       		.byte	0x91
 3779 0c32 74       		.sleb128 -12
 3780 0c33 00       		.byte	0
 3781 0c34 2B       		.uleb128 0x2b
 3782 0c35 09010000 		.4byte	.LASF146
 3783 0c39 04       		.byte	0x4
 3784 0c3a 3302     		.2byte	0x233
 3785 0c3c 10010000 		.4byte	0x110
 3786 0c40 00000000 		.4byte	.LFB257
 3787 0c44 6C000000 		.4byte	.LFE257-.LFB257
 3788 0c48 01       		.uleb128 0x1
 3789 0c49 9C       		.byte	0x9c
 3790 0c4a 7C0C0000 		.4byte	0xc7c
 3791 0c4e 27       		.uleb128 0x27
 3792 0c4f 1F060000 		.4byte	.LASF118
 3793 0c53 04       		.byte	0x4
 3794 0c54 3302     		.2byte	0x233
 3795 0c56 10010000 		.4byte	0x110
 3796 0c5a 02       		.uleb128 0x2
 3797 0c5b 91       		.byte	0x91
 3798 0c5c 6C       		.sleb128 -20
 3799 0c5d 27       		.uleb128 0x27
 3800 0c5e DB040000 		.4byte	.LASF144
 3801 0c62 04       		.byte	0x4
 3802 0c63 3302     		.2byte	0x233
 3803 0c65 31010000 		.4byte	0x131
 3804 0c69 02       		.uleb128 0x2
 3805 0c6a 91       		.byte	0x91
 3806 0c6b 68       		.sleb128 -24
 3807 0c6c 2A       		.uleb128 0x2a
 3808 0c6d 63747000 		.ascii	"ctp\000"
 3809 0c71 04       		.byte	0x4
 3810 0c72 3402     		.2byte	0x234
 3811 0c74 3E020000 		.4byte	0x23e
 3812 0c78 02       		.uleb128 0x2
 3813 0c79 91       		.byte	0x91
 3814 0c7a 74       		.sleb128 -12
 3815 0c7b 00       		.byte	0
 3816 0c7c 2C       		.uleb128 0x2c
 3817 0c7d C7000000 		.4byte	.LASF147
 3818 0c81 0F       		.byte	0xf
 3819 0c82 FA06     		.2byte	0x6fa
 3820 0c84 880C0000 		.4byte	0xc88
 3821 0c88 14       		.uleb128 0x14
 3822 0c89 A2000000 		.4byte	0xa2
 3823 0c8d 2D       		.uleb128 0x2d
 3824 0c8e 636800   		.ascii	"ch\000"
 3825 0c91 09       		.byte	0x9
 3826 0c92 0B02     		.2byte	0x20b
 3827 0c94 EA030000 		.4byte	0x3ea
 3828 0c98 00       		.byte	0
ARM GAS  /tmp/ccCJBSpW.s 			page 132


 3829              		.section	.debug_abbrev,"",%progbits
 3830              	.Ldebug_abbrev0:
 3831 0000 01       		.uleb128 0x1
 3832 0001 11       		.uleb128 0x11
 3833 0002 01       		.byte	0x1
 3834 0003 25       		.uleb128 0x25
 3835 0004 0E       		.uleb128 0xe
 3836 0005 13       		.uleb128 0x13
 3837 0006 0B       		.uleb128 0xb
 3838 0007 03       		.uleb128 0x3
 3839 0008 0E       		.uleb128 0xe
 3840 0009 1B       		.uleb128 0x1b
 3841 000a 0E       		.uleb128 0xe
 3842 000b 55       		.uleb128 0x55
 3843 000c 17       		.uleb128 0x17
 3844 000d 11       		.uleb128 0x11
 3845 000e 01       		.uleb128 0x1
 3846 000f 10       		.uleb128 0x10
 3847 0010 17       		.uleb128 0x17
 3848 0011 00       		.byte	0
 3849 0012 00       		.byte	0
 3850 0013 02       		.uleb128 0x2
 3851 0014 24       		.uleb128 0x24
 3852 0015 00       		.byte	0
 3853 0016 0B       		.uleb128 0xb
 3854 0017 0B       		.uleb128 0xb
 3855 0018 3E       		.uleb128 0x3e
 3856 0019 0B       		.uleb128 0xb
 3857 001a 03       		.uleb128 0x3
 3858 001b 08       		.uleb128 0x8
 3859 001c 00       		.byte	0
 3860 001d 00       		.byte	0
 3861 001e 03       		.uleb128 0x3
 3862 001f 24       		.uleb128 0x24
 3863 0020 00       		.byte	0
 3864 0021 0B       		.uleb128 0xb
 3865 0022 0B       		.uleb128 0xb
 3866 0023 3E       		.uleb128 0x3e
 3867 0024 0B       		.uleb128 0xb
 3868 0025 03       		.uleb128 0x3
 3869 0026 0E       		.uleb128 0xe
 3870 0027 00       		.byte	0
 3871 0028 00       		.byte	0
 3872 0029 04       		.uleb128 0x4
 3873 002a 16       		.uleb128 0x16
 3874 002b 00       		.byte	0
 3875 002c 03       		.uleb128 0x3
 3876 002d 0E       		.uleb128 0xe
 3877 002e 3A       		.uleb128 0x3a
 3878 002f 0B       		.uleb128 0xb
 3879 0030 3B       		.uleb128 0x3b
 3880 0031 0B       		.uleb128 0xb
 3881 0032 49       		.uleb128 0x49
 3882 0033 13       		.uleb128 0x13
 3883 0034 00       		.byte	0
 3884 0035 00       		.byte	0
 3885 0036 05       		.uleb128 0x5
ARM GAS  /tmp/ccCJBSpW.s 			page 133


 3886 0037 13       		.uleb128 0x13
 3887 0038 01       		.byte	0x1
 3888 0039 03       		.uleb128 0x3
 3889 003a 0E       		.uleb128 0xe
 3890 003b 0B       		.uleb128 0xb
 3891 003c 0B       		.uleb128 0xb
 3892 003d 3A       		.uleb128 0x3a
 3893 003e 0B       		.uleb128 0xb
 3894 003f 3B       		.uleb128 0x3b
 3895 0040 0B       		.uleb128 0xb
 3896 0041 01       		.uleb128 0x1
 3897 0042 13       		.uleb128 0x13
 3898 0043 00       		.byte	0
 3899 0044 00       		.byte	0
 3900 0045 06       		.uleb128 0x6
 3901 0046 0D       		.uleb128 0xd
 3902 0047 00       		.byte	0
 3903 0048 03       		.uleb128 0x3
 3904 0049 0E       		.uleb128 0xe
 3905 004a 3A       		.uleb128 0x3a
 3906 004b 0B       		.uleb128 0xb
 3907 004c 3B       		.uleb128 0x3b
 3908 004d 0B       		.uleb128 0xb
 3909 004e 49       		.uleb128 0x49
 3910 004f 13       		.uleb128 0x13
 3911 0050 38       		.uleb128 0x38
 3912 0051 0B       		.uleb128 0xb
 3913 0052 00       		.byte	0
 3914 0053 00       		.byte	0
 3915 0054 07       		.uleb128 0x7
 3916 0055 0D       		.uleb128 0xd
 3917 0056 00       		.byte	0
 3918 0057 03       		.uleb128 0x3
 3919 0058 08       		.uleb128 0x8
 3920 0059 3A       		.uleb128 0x3a
 3921 005a 0B       		.uleb128 0xb
 3922 005b 3B       		.uleb128 0x3b
 3923 005c 05       		.uleb128 0x5
 3924 005d 49       		.uleb128 0x49
 3925 005e 13       		.uleb128 0x13
 3926 005f 38       		.uleb128 0x38
 3927 0060 0B       		.uleb128 0xb
 3928 0061 00       		.byte	0
 3929 0062 00       		.byte	0
 3930 0063 08       		.uleb128 0x8
 3931 0064 0D       		.uleb128 0xd
 3932 0065 00       		.byte	0
 3933 0066 03       		.uleb128 0x3
 3934 0067 0E       		.uleb128 0xe
 3935 0068 3A       		.uleb128 0x3a
 3936 0069 0B       		.uleb128 0xb
 3937 006a 3B       		.uleb128 0x3b
 3938 006b 05       		.uleb128 0x5
 3939 006c 49       		.uleb128 0x49
 3940 006d 13       		.uleb128 0x13
 3941 006e 38       		.uleb128 0x38
 3942 006f 0B       		.uleb128 0xb
ARM GAS  /tmp/ccCJBSpW.s 			page 134


 3943 0070 00       		.byte	0
 3944 0071 00       		.byte	0
 3945 0072 09       		.uleb128 0x9
 3946 0073 0F       		.uleb128 0xf
 3947 0074 00       		.byte	0
 3948 0075 0B       		.uleb128 0xb
 3949 0076 0B       		.uleb128 0xb
 3950 0077 49       		.uleb128 0x49
 3951 0078 13       		.uleb128 0x13
 3952 0079 00       		.byte	0
 3953 007a 00       		.byte	0
 3954 007b 0A       		.uleb128 0xa
 3955 007c 13       		.uleb128 0x13
 3956 007d 01       		.byte	0x1
 3957 007e 03       		.uleb128 0x3
 3958 007f 0E       		.uleb128 0xe
 3959 0080 0B       		.uleb128 0xb
 3960 0081 0B       		.uleb128 0xb
 3961 0082 3A       		.uleb128 0x3a
 3962 0083 0B       		.uleb128 0xb
 3963 0084 3B       		.uleb128 0x3b
 3964 0085 05       		.uleb128 0x5
 3965 0086 01       		.uleb128 0x1
 3966 0087 13       		.uleb128 0x13
 3967 0088 00       		.byte	0
 3968 0089 00       		.byte	0
 3969 008a 0B       		.uleb128 0xb
 3970 008b 15       		.uleb128 0x15
 3971 008c 01       		.byte	0x1
 3972 008d 27       		.uleb128 0x27
 3973 008e 19       		.uleb128 0x19
 3974 008f 01       		.uleb128 0x1
 3975 0090 13       		.uleb128 0x13
 3976 0091 00       		.byte	0
 3977 0092 00       		.byte	0
 3978 0093 0C       		.uleb128 0xc
 3979 0094 05       		.uleb128 0x5
 3980 0095 00       		.byte	0
 3981 0096 49       		.uleb128 0x49
 3982 0097 13       		.uleb128 0x13
 3983 0098 00       		.byte	0
 3984 0099 00       		.byte	0
 3985 009a 0D       		.uleb128 0xd
 3986 009b 0F       		.uleb128 0xf
 3987 009c 00       		.byte	0
 3988 009d 0B       		.uleb128 0xb
 3989 009e 0B       		.uleb128 0xb
 3990 009f 00       		.byte	0
 3991 00a0 00       		.byte	0
 3992 00a1 0E       		.uleb128 0xe
 3993 00a2 13       		.uleb128 0x13
 3994 00a3 01       		.byte	0x1
 3995 00a4 03       		.uleb128 0x3
 3996 00a5 0E       		.uleb128 0xe
 3997 00a6 0B       		.uleb128 0xb
 3998 00a7 05       		.uleb128 0x5
 3999 00a8 3A       		.uleb128 0x3a
ARM GAS  /tmp/ccCJBSpW.s 			page 135


 4000 00a9 0B       		.uleb128 0xb
 4001 00aa 3B       		.uleb128 0x3b
 4002 00ab 05       		.uleb128 0x5
 4003 00ac 01       		.uleb128 0x1
 4004 00ad 13       		.uleb128 0x13
 4005 00ae 00       		.byte	0
 4006 00af 00       		.byte	0
 4007 00b0 0F       		.uleb128 0xf
 4008 00b1 0D       		.uleb128 0xd
 4009 00b2 00       		.byte	0
 4010 00b3 03       		.uleb128 0x3
 4011 00b4 08       		.uleb128 0x8
 4012 00b5 3A       		.uleb128 0x3a
 4013 00b6 0B       		.uleb128 0xb
 4014 00b7 3B       		.uleb128 0x3b
 4015 00b8 0B       		.uleb128 0xb
 4016 00b9 49       		.uleb128 0x49
 4017 00ba 13       		.uleb128 0x13
 4018 00bb 38       		.uleb128 0x38
 4019 00bc 0B       		.uleb128 0xb
 4020 00bd 00       		.byte	0
 4021 00be 00       		.byte	0
 4022 00bf 10       		.uleb128 0x10
 4023 00c0 13       		.uleb128 0x13
 4024 00c1 01       		.byte	0x1
 4025 00c2 0B       		.uleb128 0xb
 4026 00c3 0B       		.uleb128 0xb
 4027 00c4 3A       		.uleb128 0x3a
 4028 00c5 0B       		.uleb128 0xb
 4029 00c6 3B       		.uleb128 0x3b
 4030 00c7 0B       		.uleb128 0xb
 4031 00c8 01       		.uleb128 0x1
 4032 00c9 13       		.uleb128 0x13
 4033 00ca 00       		.byte	0
 4034 00cb 00       		.byte	0
 4035 00cc 11       		.uleb128 0x11
 4036 00cd 17       		.uleb128 0x17
 4037 00ce 01       		.byte	0x1
 4038 00cf 0B       		.uleb128 0xb
 4039 00d0 0B       		.uleb128 0xb
 4040 00d1 3A       		.uleb128 0x3a
 4041 00d2 0B       		.uleb128 0xb
 4042 00d3 3B       		.uleb128 0x3b
 4043 00d4 0B       		.uleb128 0xb
 4044 00d5 01       		.uleb128 0x1
 4045 00d6 13       		.uleb128 0x13
 4046 00d7 00       		.byte	0
 4047 00d8 00       		.byte	0
 4048 00d9 12       		.uleb128 0x12
 4049 00da 0D       		.uleb128 0xd
 4050 00db 00       		.byte	0
 4051 00dc 03       		.uleb128 0x3
 4052 00dd 0E       		.uleb128 0xe
 4053 00de 3A       		.uleb128 0x3a
 4054 00df 0B       		.uleb128 0xb
 4055 00e0 3B       		.uleb128 0x3b
 4056 00e1 05       		.uleb128 0x5
ARM GAS  /tmp/ccCJBSpW.s 			page 136


 4057 00e2 49       		.uleb128 0x49
 4058 00e3 13       		.uleb128 0x13
 4059 00e4 00       		.byte	0
 4060 00e5 00       		.byte	0
 4061 00e6 13       		.uleb128 0x13
 4062 00e7 26       		.uleb128 0x26
 4063 00e8 00       		.byte	0
 4064 00e9 49       		.uleb128 0x49
 4065 00ea 13       		.uleb128 0x13
 4066 00eb 00       		.byte	0
 4067 00ec 00       		.byte	0
 4068 00ed 14       		.uleb128 0x14
 4069 00ee 35       		.uleb128 0x35
 4070 00ef 00       		.byte	0
 4071 00f0 49       		.uleb128 0x49
 4072 00f1 13       		.uleb128 0x13
 4073 00f2 00       		.byte	0
 4074 00f3 00       		.byte	0
 4075 00f4 15       		.uleb128 0x15
 4076 00f5 01       		.uleb128 0x1
 4077 00f6 01       		.byte	0x1
 4078 00f7 49       		.uleb128 0x49
 4079 00f8 13       		.uleb128 0x13
 4080 00f9 01       		.uleb128 0x1
 4081 00fa 13       		.uleb128 0x13
 4082 00fb 00       		.byte	0
 4083 00fc 00       		.byte	0
 4084 00fd 16       		.uleb128 0x16
 4085 00fe 21       		.uleb128 0x21
 4086 00ff 00       		.byte	0
 4087 0100 49       		.uleb128 0x49
 4088 0101 13       		.uleb128 0x13
 4089 0102 2F       		.uleb128 0x2f
 4090 0103 0B       		.uleb128 0xb
 4091 0104 00       		.byte	0
 4092 0105 00       		.byte	0
 4093 0106 17       		.uleb128 0x17
 4094 0107 2E       		.uleb128 0x2e
 4095 0108 01       		.byte	0x1
 4096 0109 03       		.uleb128 0x3
 4097 010a 0E       		.uleb128 0xe
 4098 010b 3A       		.uleb128 0x3a
 4099 010c 0B       		.uleb128 0xb
 4100 010d 3B       		.uleb128 0x3b
 4101 010e 05       		.uleb128 0x5
 4102 010f 27       		.uleb128 0x27
 4103 0110 19       		.uleb128 0x19
 4104 0111 20       		.uleb128 0x20
 4105 0112 0B       		.uleb128 0xb
 4106 0113 01       		.uleb128 0x1
 4107 0114 13       		.uleb128 0x13
 4108 0115 00       		.byte	0
 4109 0116 00       		.byte	0
 4110 0117 18       		.uleb128 0x18
 4111 0118 05       		.uleb128 0x5
 4112 0119 00       		.byte	0
 4113 011a 03       		.uleb128 0x3
ARM GAS  /tmp/ccCJBSpW.s 			page 137


 4114 011b 0E       		.uleb128 0xe
 4115 011c 3A       		.uleb128 0x3a
 4116 011d 0B       		.uleb128 0xb
 4117 011e 3B       		.uleb128 0x3b
 4118 011f 05       		.uleb128 0x5
 4119 0120 49       		.uleb128 0x49
 4120 0121 13       		.uleb128 0x13
 4121 0122 00       		.byte	0
 4122 0123 00       		.byte	0
 4123 0124 19       		.uleb128 0x19
 4124 0125 2E       		.uleb128 0x2e
 4125 0126 01       		.byte	0x1
 4126 0127 03       		.uleb128 0x3
 4127 0128 0E       		.uleb128 0xe
 4128 0129 3A       		.uleb128 0x3a
 4129 012a 0B       		.uleb128 0xb
 4130 012b 3B       		.uleb128 0x3b
 4131 012c 05       		.uleb128 0x5
 4132 012d 27       		.uleb128 0x27
 4133 012e 19       		.uleb128 0x19
 4134 012f 11       		.uleb128 0x11
 4135 0130 01       		.uleb128 0x1
 4136 0131 12       		.uleb128 0x12
 4137 0132 06       		.uleb128 0x6
 4138 0133 40       		.uleb128 0x40
 4139 0134 18       		.uleb128 0x18
 4140 0135 9742     		.uleb128 0x2117
 4141 0137 19       		.uleb128 0x19
 4142 0138 01       		.uleb128 0x1
 4143 0139 13       		.uleb128 0x13
 4144 013a 00       		.byte	0
 4145 013b 00       		.byte	0
 4146 013c 1A       		.uleb128 0x1a
 4147 013d 1D       		.uleb128 0x1d
 4148 013e 01       		.byte	0x1
 4149 013f 31       		.uleb128 0x31
 4150 0140 13       		.uleb128 0x13
 4151 0141 11       		.uleb128 0x11
 4152 0142 01       		.uleb128 0x1
 4153 0143 12       		.uleb128 0x12
 4154 0144 06       		.uleb128 0x6
 4155 0145 58       		.uleb128 0x58
 4156 0146 0B       		.uleb128 0xb
 4157 0147 59       		.uleb128 0x59
 4158 0148 05       		.uleb128 0x5
 4159 0149 00       		.byte	0
 4160 014a 00       		.byte	0
 4161 014b 1B       		.uleb128 0x1b
 4162 014c 05       		.uleb128 0x5
 4163 014d 00       		.byte	0
 4164 014e 31       		.uleb128 0x31
 4165 014f 13       		.uleb128 0x13
 4166 0150 02       		.uleb128 0x2
 4167 0151 18       		.uleb128 0x18
 4168 0152 00       		.byte	0
 4169 0153 00       		.byte	0
 4170 0154 1C       		.uleb128 0x1c
ARM GAS  /tmp/ccCJBSpW.s 			page 138


 4171 0155 2E       		.uleb128 0x2e
 4172 0156 00       		.byte	0
 4173 0157 03       		.uleb128 0x3
 4174 0158 0E       		.uleb128 0xe
 4175 0159 3A       		.uleb128 0x3a
 4176 015a 0B       		.uleb128 0xb
 4177 015b 3B       		.uleb128 0x3b
 4178 015c 05       		.uleb128 0x5
 4179 015d 27       		.uleb128 0x27
 4180 015e 19       		.uleb128 0x19
 4181 015f 11       		.uleb128 0x11
 4182 0160 01       		.uleb128 0x1
 4183 0161 12       		.uleb128 0x12
 4184 0162 06       		.uleb128 0x6
 4185 0163 40       		.uleb128 0x40
 4186 0164 18       		.uleb128 0x18
 4187 0165 9642     		.uleb128 0x2116
 4188 0167 19       		.uleb128 0x19
 4189 0168 00       		.byte	0
 4190 0169 00       		.byte	0
 4191 016a 1D       		.uleb128 0x1d
 4192 016b 2E       		.uleb128 0x2e
 4193 016c 01       		.byte	0x1
 4194 016d 03       		.uleb128 0x3
 4195 016e 0E       		.uleb128 0xe
 4196 016f 3A       		.uleb128 0x3a
 4197 0170 0B       		.uleb128 0xb
 4198 0171 3B       		.uleb128 0x3b
 4199 0172 05       		.uleb128 0x5
 4200 0173 27       		.uleb128 0x27
 4201 0174 19       		.uleb128 0x19
 4202 0175 11       		.uleb128 0x11
 4203 0176 01       		.uleb128 0x1
 4204 0177 12       		.uleb128 0x12
 4205 0178 06       		.uleb128 0x6
 4206 0179 40       		.uleb128 0x40
 4207 017a 18       		.uleb128 0x18
 4208 017b 9642     		.uleb128 0x2116
 4209 017d 19       		.uleb128 0x19
 4210 017e 01       		.uleb128 0x1
 4211 017f 13       		.uleb128 0x13
 4212 0180 00       		.byte	0
 4213 0181 00       		.byte	0
 4214 0182 1E       		.uleb128 0x1e
 4215 0183 34       		.uleb128 0x34
 4216 0184 00       		.byte	0
 4217 0185 03       		.uleb128 0x3
 4218 0186 0E       		.uleb128 0xe
 4219 0187 49       		.uleb128 0x49
 4220 0188 13       		.uleb128 0x13
 4221 0189 34       		.uleb128 0x34
 4222 018a 19       		.uleb128 0x19
 4223 018b 00       		.byte	0
 4224 018c 00       		.byte	0
 4225 018d 1F       		.uleb128 0x1f
 4226 018e 2E       		.uleb128 0x2e
 4227 018f 01       		.byte	0x1
ARM GAS  /tmp/ccCJBSpW.s 			page 139


 4228 0190 3F       		.uleb128 0x3f
 4229 0191 19       		.uleb128 0x19
 4230 0192 03       		.uleb128 0x3
 4231 0193 0E       		.uleb128 0xe
 4232 0194 3A       		.uleb128 0x3a
 4233 0195 0B       		.uleb128 0xb
 4234 0196 3B       		.uleb128 0x3b
 4235 0197 0B       		.uleb128 0xb
 4236 0198 27       		.uleb128 0x27
 4237 0199 19       		.uleb128 0x19
 4238 019a 11       		.uleb128 0x11
 4239 019b 01       		.uleb128 0x1
 4240 019c 12       		.uleb128 0x12
 4241 019d 06       		.uleb128 0x6
 4242 019e 40       		.uleb128 0x40
 4243 019f 18       		.uleb128 0x18
 4244 01a0 9642     		.uleb128 0x2116
 4245 01a2 19       		.uleb128 0x19
 4246 01a3 01       		.uleb128 0x1
 4247 01a4 13       		.uleb128 0x13
 4248 01a5 00       		.byte	0
 4249 01a6 00       		.byte	0
 4250 01a7 20       		.uleb128 0x20
 4251 01a8 05       		.uleb128 0x5
 4252 01a9 00       		.byte	0
 4253 01aa 03       		.uleb128 0x3
 4254 01ab 08       		.uleb128 0x8
 4255 01ac 3A       		.uleb128 0x3a
 4256 01ad 0B       		.uleb128 0xb
 4257 01ae 3B       		.uleb128 0x3b
 4258 01af 0B       		.uleb128 0xb
 4259 01b0 49       		.uleb128 0x49
 4260 01b1 13       		.uleb128 0x13
 4261 01b2 02       		.uleb128 0x2
 4262 01b3 18       		.uleb128 0x18
 4263 01b4 00       		.byte	0
 4264 01b5 00       		.byte	0
 4265 01b6 21       		.uleb128 0x21
 4266 01b7 05       		.uleb128 0x5
 4267 01b8 00       		.byte	0
 4268 01b9 03       		.uleb128 0x3
 4269 01ba 0E       		.uleb128 0xe
 4270 01bb 3A       		.uleb128 0x3a
 4271 01bc 0B       		.uleb128 0xb
 4272 01bd 3B       		.uleb128 0x3b
 4273 01be 0B       		.uleb128 0xb
 4274 01bf 49       		.uleb128 0x49
 4275 01c0 13       		.uleb128 0x13
 4276 01c1 02       		.uleb128 0x2
 4277 01c2 18       		.uleb128 0x18
 4278 01c3 00       		.byte	0
 4279 01c4 00       		.byte	0
 4280 01c5 22       		.uleb128 0x22
 4281 01c6 34       		.uleb128 0x34
 4282 01c7 00       		.byte	0
 4283 01c8 03       		.uleb128 0x3
 4284 01c9 08       		.uleb128 0x8
ARM GAS  /tmp/ccCJBSpW.s 			page 140


 4285 01ca 3A       		.uleb128 0x3a
 4286 01cb 0B       		.uleb128 0xb
 4287 01cc 3B       		.uleb128 0x3b
 4288 01cd 0B       		.uleb128 0xb
 4289 01ce 49       		.uleb128 0x49
 4290 01cf 13       		.uleb128 0x13
 4291 01d0 02       		.uleb128 0x2
 4292 01d1 18       		.uleb128 0x18
 4293 01d2 00       		.byte	0
 4294 01d3 00       		.byte	0
 4295 01d4 23       		.uleb128 0x23
 4296 01d5 2E       		.uleb128 0x2e
 4297 01d6 01       		.byte	0x1
 4298 01d7 3F       		.uleb128 0x3f
 4299 01d8 19       		.uleb128 0x19
 4300 01d9 03       		.uleb128 0x3
 4301 01da 0E       		.uleb128 0xe
 4302 01db 3A       		.uleb128 0x3a
 4303 01dc 0B       		.uleb128 0xb
 4304 01dd 3B       		.uleb128 0x3b
 4305 01de 0B       		.uleb128 0xb
 4306 01df 27       		.uleb128 0x27
 4307 01e0 19       		.uleb128 0x19
 4308 01e1 49       		.uleb128 0x49
 4309 01e2 13       		.uleb128 0x13
 4310 01e3 11       		.uleb128 0x11
 4311 01e4 01       		.uleb128 0x1
 4312 01e5 12       		.uleb128 0x12
 4313 01e6 06       		.uleb128 0x6
 4314 01e7 40       		.uleb128 0x40
 4315 01e8 18       		.uleb128 0x18
 4316 01e9 9642     		.uleb128 0x2116
 4317 01eb 19       		.uleb128 0x19
 4318 01ec 01       		.uleb128 0x1
 4319 01ed 13       		.uleb128 0x13
 4320 01ee 00       		.byte	0
 4321 01ef 00       		.byte	0
 4322 01f0 24       		.uleb128 0x24
 4323 01f1 34       		.uleb128 0x34
 4324 01f2 00       		.byte	0
 4325 01f3 03       		.uleb128 0x3
 4326 01f4 0E       		.uleb128 0xe
 4327 01f5 3A       		.uleb128 0x3a
 4328 01f6 0B       		.uleb128 0xb
 4329 01f7 3B       		.uleb128 0x3b
 4330 01f8 0B       		.uleb128 0xb
 4331 01f9 49       		.uleb128 0x49
 4332 01fa 13       		.uleb128 0x13
 4333 01fb 02       		.uleb128 0x2
 4334 01fc 18       		.uleb128 0x18
 4335 01fd 00       		.byte	0
 4336 01fe 00       		.byte	0
 4337 01ff 25       		.uleb128 0x25
 4338 0200 2E       		.uleb128 0x2e
 4339 0201 01       		.byte	0x1
 4340 0202 3F       		.uleb128 0x3f
 4341 0203 19       		.uleb128 0x19
ARM GAS  /tmp/ccCJBSpW.s 			page 141


 4342 0204 03       		.uleb128 0x3
 4343 0205 0E       		.uleb128 0xe
 4344 0206 3A       		.uleb128 0x3a
 4345 0207 0B       		.uleb128 0xb
 4346 0208 3B       		.uleb128 0x3b
 4347 0209 05       		.uleb128 0x5
 4348 020a 27       		.uleb128 0x27
 4349 020b 19       		.uleb128 0x19
 4350 020c 11       		.uleb128 0x11
 4351 020d 01       		.uleb128 0x1
 4352 020e 12       		.uleb128 0x12
 4353 020f 06       		.uleb128 0x6
 4354 0210 40       		.uleb128 0x40
 4355 0211 18       		.uleb128 0x18
 4356 0212 9642     		.uleb128 0x2116
 4357 0214 19       		.uleb128 0x19
 4358 0215 01       		.uleb128 0x1
 4359 0216 13       		.uleb128 0x13
 4360 0217 00       		.byte	0
 4361 0218 00       		.byte	0
 4362 0219 26       		.uleb128 0x26
 4363 021a 05       		.uleb128 0x5
 4364 021b 00       		.byte	0
 4365 021c 03       		.uleb128 0x3
 4366 021d 08       		.uleb128 0x8
 4367 021e 3A       		.uleb128 0x3a
 4368 021f 0B       		.uleb128 0xb
 4369 0220 3B       		.uleb128 0x3b
 4370 0221 05       		.uleb128 0x5
 4371 0222 49       		.uleb128 0x49
 4372 0223 13       		.uleb128 0x13
 4373 0224 02       		.uleb128 0x2
 4374 0225 18       		.uleb128 0x18
 4375 0226 00       		.byte	0
 4376 0227 00       		.byte	0
 4377 0228 27       		.uleb128 0x27
 4378 0229 05       		.uleb128 0x5
 4379 022a 00       		.byte	0
 4380 022b 03       		.uleb128 0x3
 4381 022c 0E       		.uleb128 0xe
 4382 022d 3A       		.uleb128 0x3a
 4383 022e 0B       		.uleb128 0xb
 4384 022f 3B       		.uleb128 0x3b
 4385 0230 05       		.uleb128 0x5
 4386 0231 49       		.uleb128 0x49
 4387 0232 13       		.uleb128 0x13
 4388 0233 02       		.uleb128 0x2
 4389 0234 18       		.uleb128 0x18
 4390 0235 00       		.byte	0
 4391 0236 00       		.byte	0
 4392 0237 28       		.uleb128 0x28
 4393 0238 2E       		.uleb128 0x2e
 4394 0239 01       		.byte	0x1
 4395 023a 3F       		.uleb128 0x3f
 4396 023b 19       		.uleb128 0x19
 4397 023c 03       		.uleb128 0x3
 4398 023d 0E       		.uleb128 0xe
ARM GAS  /tmp/ccCJBSpW.s 			page 142


 4399 023e 3A       		.uleb128 0x3a
 4400 023f 0B       		.uleb128 0xb
 4401 0240 3B       		.uleb128 0x3b
 4402 0241 05       		.uleb128 0x5
 4403 0242 27       		.uleb128 0x27
 4404 0243 19       		.uleb128 0x19
 4405 0244 49       		.uleb128 0x49
 4406 0245 13       		.uleb128 0x13
 4407 0246 11       		.uleb128 0x11
 4408 0247 01       		.uleb128 0x1
 4409 0248 12       		.uleb128 0x12
 4410 0249 06       		.uleb128 0x6
 4411 024a 40       		.uleb128 0x40
 4412 024b 18       		.uleb128 0x18
 4413 024c 9742     		.uleb128 0x2117
 4414 024e 19       		.uleb128 0x19
 4415 024f 01       		.uleb128 0x1
 4416 0250 13       		.uleb128 0x13
 4417 0251 00       		.byte	0
 4418 0252 00       		.byte	0
 4419 0253 29       		.uleb128 0x29
 4420 0254 34       		.uleb128 0x34
 4421 0255 00       		.byte	0
 4422 0256 03       		.uleb128 0x3
 4423 0257 0E       		.uleb128 0xe
 4424 0258 3A       		.uleb128 0x3a
 4425 0259 0B       		.uleb128 0xb
 4426 025a 3B       		.uleb128 0x3b
 4427 025b 05       		.uleb128 0x5
 4428 025c 49       		.uleb128 0x49
 4429 025d 13       		.uleb128 0x13
 4430 025e 02       		.uleb128 0x2
 4431 025f 18       		.uleb128 0x18
 4432 0260 00       		.byte	0
 4433 0261 00       		.byte	0
 4434 0262 2A       		.uleb128 0x2a
 4435 0263 34       		.uleb128 0x34
 4436 0264 00       		.byte	0
 4437 0265 03       		.uleb128 0x3
 4438 0266 08       		.uleb128 0x8
 4439 0267 3A       		.uleb128 0x3a
 4440 0268 0B       		.uleb128 0xb
 4441 0269 3B       		.uleb128 0x3b
 4442 026a 05       		.uleb128 0x5
 4443 026b 49       		.uleb128 0x49
 4444 026c 13       		.uleb128 0x13
 4445 026d 02       		.uleb128 0x2
 4446 026e 18       		.uleb128 0x18
 4447 026f 00       		.byte	0
 4448 0270 00       		.byte	0
 4449 0271 2B       		.uleb128 0x2b
 4450 0272 2E       		.uleb128 0x2e
 4451 0273 01       		.byte	0x1
 4452 0274 3F       		.uleb128 0x3f
 4453 0275 19       		.uleb128 0x19
 4454 0276 03       		.uleb128 0x3
 4455 0277 0E       		.uleb128 0xe
ARM GAS  /tmp/ccCJBSpW.s 			page 143


 4456 0278 3A       		.uleb128 0x3a
 4457 0279 0B       		.uleb128 0xb
 4458 027a 3B       		.uleb128 0x3b
 4459 027b 05       		.uleb128 0x5
 4460 027c 27       		.uleb128 0x27
 4461 027d 19       		.uleb128 0x19
 4462 027e 49       		.uleb128 0x49
 4463 027f 13       		.uleb128 0x13
 4464 0280 11       		.uleb128 0x11
 4465 0281 01       		.uleb128 0x1
 4466 0282 12       		.uleb128 0x12
 4467 0283 06       		.uleb128 0x6
 4468 0284 40       		.uleb128 0x40
 4469 0285 18       		.uleb128 0x18
 4470 0286 9642     		.uleb128 0x2116
 4471 0288 19       		.uleb128 0x19
 4472 0289 01       		.uleb128 0x1
 4473 028a 13       		.uleb128 0x13
 4474 028b 00       		.byte	0
 4475 028c 00       		.byte	0
 4476 028d 2C       		.uleb128 0x2c
 4477 028e 34       		.uleb128 0x34
 4478 028f 00       		.byte	0
 4479 0290 03       		.uleb128 0x3
 4480 0291 0E       		.uleb128 0xe
 4481 0292 3A       		.uleb128 0x3a
 4482 0293 0B       		.uleb128 0xb
 4483 0294 3B       		.uleb128 0x3b
 4484 0295 05       		.uleb128 0x5
 4485 0296 49       		.uleb128 0x49
 4486 0297 13       		.uleb128 0x13
 4487 0298 3F       		.uleb128 0x3f
 4488 0299 19       		.uleb128 0x19
 4489 029a 3C       		.uleb128 0x3c
 4490 029b 19       		.uleb128 0x19
 4491 029c 00       		.byte	0
 4492 029d 00       		.byte	0
 4493 029e 2D       		.uleb128 0x2d
 4494 029f 34       		.uleb128 0x34
 4495 02a0 00       		.byte	0
 4496 02a1 03       		.uleb128 0x3
 4497 02a2 08       		.uleb128 0x8
 4498 02a3 3A       		.uleb128 0x3a
 4499 02a4 0B       		.uleb128 0xb
 4500 02a5 3B       		.uleb128 0x3b
 4501 02a6 05       		.uleb128 0x5
 4502 02a7 49       		.uleb128 0x49
 4503 02a8 13       		.uleb128 0x13
 4504 02a9 3F       		.uleb128 0x3f
 4505 02aa 19       		.uleb128 0x19
 4506 02ab 3C       		.uleb128 0x3c
 4507 02ac 19       		.uleb128 0x19
 4508 02ad 00       		.byte	0
 4509 02ae 00       		.byte	0
 4510 02af 00       		.byte	0
 4511              		.section	.debug_aranges,"",%progbits
 4512 0000 BC000000 		.4byte	0xbc
ARM GAS  /tmp/ccCJBSpW.s 			page 144


 4513 0004 0200     		.2byte	0x2
 4514 0006 00000000 		.4byte	.Ldebug_info0
 4515 000a 04       		.byte	0x4
 4516 000b 00       		.byte	0
 4517 000c 0000     		.2byte	0
 4518 000e 0000     		.2byte	0
 4519 0010 00000000 		.4byte	.LFB127
 4520 0014 10000000 		.4byte	.LFE127-.LFB127
 4521 0018 00000000 		.4byte	.LFB128
 4522 001c 10000000 		.4byte	.LFE128-.LFB128
 4523 0020 00000000 		.4byte	.LFB167
 4524 0024 08000000 		.4byte	.LFE167-.LFB167
 4525 0028 00000000 		.4byte	.LFB168
 4526 002c 08000000 		.4byte	.LFE168-.LFB168
 4527 0030 00000000 		.4byte	.LFB241
 4528 0034 48000000 		.4byte	.LFE241-.LFB241
 4529 0038 00000000 		.4byte	.LFB242
 4530 003c 40000000 		.4byte	.LFE242-.LFB242
 4531 0040 00000000 		.4byte	.LFB243
 4532 0044 3C000000 		.4byte	.LFE243-.LFB243
 4533 0048 00000000 		.4byte	.LFB244
 4534 004c 34000000 		.4byte	.LFE244-.LFB244
 4535 0050 00000000 		.4byte	.LFB245
 4536 0054 54000000 		.4byte	.LFE245-.LFB245
 4537 0058 00000000 		.4byte	.LFB246
 4538 005c 24000000 		.4byte	.LFE246-.LFB246
 4539 0060 00000000 		.4byte	.LFB247
 4540 0064 22000000 		.4byte	.LFE247-.LFB247
 4541 0068 00000000 		.4byte	.LFB248
 4542 006c 5A000000 		.4byte	.LFE248-.LFB248
 4543 0070 00000000 		.4byte	.LFB249
 4544 0074 22000000 		.4byte	.LFE249-.LFB249
 4545 0078 00000000 		.4byte	.LFB250
 4546 007c 18000000 		.4byte	.LFE250-.LFB250
 4547 0080 00000000 		.4byte	.LFB251
 4548 0084 4E000000 		.4byte	.LFE251-.LFB251
 4549 0088 00000000 		.4byte	.LFB252
 4550 008c 60000000 		.4byte	.LFE252-.LFB252
 4551 0090 00000000 		.4byte	.LFB253
 4552 0094 58000000 		.4byte	.LFE253-.LFB253
 4553 0098 00000000 		.4byte	.LFB254
 4554 009c 4C000000 		.4byte	.LFE254-.LFB254
 4555 00a0 00000000 		.4byte	.LFB255
 4556 00a4 80000000 		.4byte	.LFE255-.LFB255
 4557 00a8 00000000 		.4byte	.LFB256
 4558 00ac 78000000 		.4byte	.LFE256-.LFB256
 4559 00b0 00000000 		.4byte	.LFB257
 4560 00b4 6C000000 		.4byte	.LFE257-.LFB257
 4561 00b8 00000000 		.4byte	0
 4562 00bc 00000000 		.4byte	0
 4563              		.section	.debug_ranges,"",%progbits
 4564              	.Ldebug_ranges0:
 4565 0000 00000000 		.4byte	.LFB127
 4566 0004 10000000 		.4byte	.LFE127
 4567 0008 00000000 		.4byte	.LFB128
 4568 000c 10000000 		.4byte	.LFE128
 4569 0010 00000000 		.4byte	.LFB167
ARM GAS  /tmp/ccCJBSpW.s 			page 145


 4570 0014 08000000 		.4byte	.LFE167
 4571 0018 00000000 		.4byte	.LFB168
 4572 001c 08000000 		.4byte	.LFE168
 4573 0020 00000000 		.4byte	.LFB241
 4574 0024 48000000 		.4byte	.LFE241
 4575 0028 00000000 		.4byte	.LFB242
 4576 002c 40000000 		.4byte	.LFE242
 4577 0030 00000000 		.4byte	.LFB243
 4578 0034 3C000000 		.4byte	.LFE243
 4579 0038 00000000 		.4byte	.LFB244
 4580 003c 34000000 		.4byte	.LFE244
 4581 0040 00000000 		.4byte	.LFB245
 4582 0044 54000000 		.4byte	.LFE245
 4583 0048 00000000 		.4byte	.LFB246
 4584 004c 24000000 		.4byte	.LFE246
 4585 0050 00000000 		.4byte	.LFB247
 4586 0054 22000000 		.4byte	.LFE247
 4587 0058 00000000 		.4byte	.LFB248
 4588 005c 5A000000 		.4byte	.LFE248
 4589 0060 00000000 		.4byte	.LFB249
 4590 0064 22000000 		.4byte	.LFE249
 4591 0068 00000000 		.4byte	.LFB250
 4592 006c 18000000 		.4byte	.LFE250
 4593 0070 00000000 		.4byte	.LFB251
 4594 0074 4E000000 		.4byte	.LFE251
 4595 0078 00000000 		.4byte	.LFB252
 4596 007c 60000000 		.4byte	.LFE252
 4597 0080 00000000 		.4byte	.LFB253
 4598 0084 58000000 		.4byte	.LFE253
 4599 0088 00000000 		.4byte	.LFB254
 4600 008c 4C000000 		.4byte	.LFE254
 4601 0090 00000000 		.4byte	.LFB255
 4602 0094 80000000 		.4byte	.LFE255
 4603 0098 00000000 		.4byte	.LFB256
 4604 009c 78000000 		.4byte	.LFE256
 4605 00a0 00000000 		.4byte	.LFB257
 4606 00a4 6C000000 		.4byte	.LFE257
 4607 00a8 00000000 		.4byte	0
 4608 00ac 00000000 		.4byte	0
 4609              		.section	.debug_line,"",%progbits
 4610              	.Ldebug_line0:
 4611 0000 AE040000 		.section	.debug_str,"MS",%progbits,1
 4611      02005202 
 4611      00000201 
 4611      FB0E0D00 
 4611      01010101 
 4612              	.LASF52:
 4613 0000 72656164 		.ascii	"ready_list_t\000"
 4613      795F6C69 
 4613      73745F74 
 4613      00
 4614              	.LASF90:
 4615 000d 77747472 		.ascii	"wttrp\000"
 4615      7000
 4616              	.LASF87:
 4617 0013 7264796D 		.ascii	"rdymsg\000"
 4617      736700
ARM GAS  /tmp/ccCJBSpW.s 			page 146


 4618              	.LASF16:
 4619 001a 75696E74 		.ascii	"uint64_t\000"
 4619      36345F74 
 4619      00
 4620              	.LASF5:
 4621 0023 5F5F7569 		.ascii	"__uint8_t\000"
 4621      6E74385F 
 4621      7400
 4622              	.LASF84:
 4623 002d 706F7274 		.ascii	"port_intctx\000"
 4623      5F696E74 
 4623      63747800 
 4624              	.LASF51:
 4625 0039 63685F74 		.ascii	"ch_threads_queue\000"
 4625      68726561 
 4625      64735F71 
 4625      75657565 
 4625      00
 4626              	.LASF71:
 4627 004a 73797374 		.ascii	"system_debug_t\000"
 4627      656D5F64 
 4627      65627567 
 4627      5F7400
 4628              	.LASF131:
 4629 0059 63684576 		.ascii	"chEvtSignal\000"
 4629      74536967 
 4629      6E616C00 
 4630              	.LASF115:
 4631 0065 706F7274 		.ascii	"port_lock\000"
 4631      5F6C6F63 
 4631      6B00
 4632              	.LASF12:
 4633 006f 6C6F6E67 		.ascii	"long long unsigned int\000"
 4633      206C6F6E 
 4633      6720756E 
 4633      7369676E 
 4633      65642069 
 4634              	.LASF126:
 4635 0086 63684576 		.ascii	"chEvtAddEvents\000"
 4635      74416464 
 4635      4576656E 
 4635      747300
 4636              	.LASF88:
 4637 0095 65786974 		.ascii	"exitcode\000"
 4637      636F6465 
 4637      00
 4638              	.LASF78:
 4639 009e 6D61696E 		.ascii	"mainthread\000"
 4639      74687265 
 4639      616400
 4640              	.LASF91:
 4641 00a9 73656E74 		.ascii	"sentmsg\000"
 4641      6D736700 
 4642              	.LASF68:
 4643 00b1 76697274 		.ascii	"virtual_timers_list_t\000"
 4643      75616C5F 
 4643      74696D65 
ARM GAS  /tmp/ccCJBSpW.s 			page 147


 4643      72735F6C 
 4643      6973745F 
 4644              	.LASF147:
 4645 00c7 49544D5F 		.ascii	"ITM_RxBuffer\000"
 4645      52784275 
 4645      66666572 
 4645      00
 4646              	.LASF145:
 4647 00d4 63684576 		.ascii	"chEvtWaitAnyTimeout\000"
 4647      74576169 
 4647      74416E79 
 4647      54696D65 
 4647      6F757400 
 4648              	.LASF31:
 4649 00e8 705F7072 		.ascii	"p_prio\000"
 4649      696F00
 4650              	.LASF10:
 4651 00ef 6C6F6E67 		.ascii	"long long int\000"
 4651      206C6F6E 
 4651      6720696E 
 4651      7400
 4652              	.LASF1:
 4653 00fd 7369676E 		.ascii	"signed char\000"
 4653      65642063 
 4653      68617200 
 4654              	.LASF146:
 4655 0109 63684576 		.ascii	"chEvtWaitAllTimeout\000"
 4655      74576169 
 4655      74416C6C 
 4655      54696D65 
 4655      6F757400 
 4656              	.LASF45:
 4657 011d 705F6D70 		.ascii	"p_mpool\000"
 4657      6F6F6C00 
 4658              	.LASF99:
 4659 0125 6D5F7175 		.ascii	"m_queue\000"
 4659      65756500 
 4660              	.LASF77:
 4661 012d 76746C69 		.ascii	"vtlist\000"
 4661      737400
 4662              	.LASF116:
 4663 0134 706F7274 		.ascii	"port_unlock\000"
 4663      5F756E6C 
 4663      6F636B00 
 4664              	.LASF75:
 4665 0140 63685F73 		.ascii	"ch_system\000"
 4665      79737465 
 4665      6D00
 4666              	.LASF7:
 4667 014a 6C6F6E67 		.ascii	"long int\000"
 4667      20696E74 
 4667      00
 4668              	.LASF141:
 4669 0153 63684576 		.ascii	"chEvtWaitAny\000"
 4669      74576169 
 4669      74416E79 
 4669      00
ARM GAS  /tmp/ccCJBSpW.s 			page 148


 4670              	.LASF39:
 4671 0160 705F7265 		.ascii	"p_refs\000"
 4671      667300
 4672              	.LASF127:
 4673 0167 63684576 		.ascii	"chEvtBroadcastFlagsI\000"
 4673      7442726F 
 4673      61646361 
 4673      7374466C 
 4673      61677349 
 4674              	.LASF19:
 4675 017c 74737461 		.ascii	"tstate_t\000"
 4675      74655F74 
 4675      00
 4676              	.LASF119:
 4677 0185 77666C61 		.ascii	"wflags\000"
 4677      677300
 4678              	.LASF33:
 4679 018c 705F6E65 		.ascii	"p_newer\000"
 4679      77657200 
 4680              	.LASF96:
 4681 0194 735F7175 		.ascii	"s_queue\000"
 4681      65756500 
 4682              	.LASF124:
 4683 019c 5F5F6675 		.ascii	"__func__.6405\000"
 4683      6E635F5F 
 4683      2E363430 
 4683      3500
 4684              	.LASF120:
 4685 01aa 5F5F6675 		.ascii	"__func__.5701\000"
 4685      6E635F5F 
 4685      2E353730 
 4685      3100
 4686              	.LASF57:
 4687 01b8 725F6E65 		.ascii	"r_newer\000"
 4687      77657200 
 4688              	.LASF81:
 4689 01c0 72656761 		.ascii	"regarm_t\000"
 4689      726D5F74 
 4689      00
 4690              	.LASF64:
 4691 01c9 76745F70 		.ascii	"vt_prev\000"
 4691      72657600 
 4692              	.LASF135:
 4693 01d1 63684576 		.ascii	"chEvtBroadcastFlags\000"
 4693      7442726F 
 4693      61646361 
 4693      7374466C 
 4693      61677300 
 4694              	.LASF72:
 4695 01e5 63685F73 		.ascii	"ch_system_debug\000"
 4695      79737465 
 4695      6D5F6465 
 4695      62756700 
 4696              	.LASF23:
 4697 01f5 6576656E 		.ascii	"eventid_t\000"
 4697      7469645F 
 4697      7400
ARM GAS  /tmp/ccCJBSpW.s 			page 149


 4698              	.LASF103:
 4699 01ff 6D757465 		.ascii	"mutex_t\000"
 4699      785F7400 
 4700              	.LASF152:
 4701 0207 76616C75 		.ascii	"value\000"
 4701      6500
 4702              	.LASF113:
 4703 020d 6576656E 		.ascii	"event_source_t\000"
 4703      745F736F 
 4703      75726365 
 4703      5F7400
 4704              	.LASF79:
 4705 021c 69646C65 		.ascii	"idle_thread_wa\000"
 4705      5F746872 
 4705      6561645F 
 4705      776100
 4706              	.LASF114:
 4707 022b 65766861 		.ascii	"evhandler_t\000"
 4707      6E646C65 
 4707      725F7400 
 4708              	.LASF26:
 4709 0237 636E745F 		.ascii	"cnt_t\000"
 4709      7400
 4710              	.LASF148:
 4711 023d 474E5520 		.ascii	"GNU C 4.8.4 20140526 (release) [ARM/embedded-4_8-br"
 4711      4320342E 
 4711      382E3420 
 4711      32303134 
 4711      30353236 
 4712 0270 616E6368 		.ascii	"anch revision 211358] -mcpu=cortex-m4 -mno-thumb-in"
 4712      20726576 
 4712      6973696F 
 4712      6E203231 
 4712      31333538 
 4713 02a3 74657277 		.ascii	"terwork -mthumb -ggdb -O0 -fomit-frame-pointer -fal"
 4713      6F726B20 
 4713      2D6D7468 
 4713      756D6220 
 4713      2D676764 
 4714 02d6 69676E2D 		.ascii	"ign-functions=16 -ffunction-sections -fdata-section"
 4714      66756E63 
 4714      74696F6E 
 4714      733D3136 
 4714      202D6666 
 4715 0309 73202D66 		.ascii	"s -fno-common -flto\000"
 4715      6E6F2D63 
 4715      6F6D6D6F 
 4715      6E202D66 
 4715      6C746F00 
 4716              	.LASF0:
 4717 031d 756E7369 		.ascii	"unsigned int\000"
 4717      676E6564 
 4717      20696E74 
 4717      00
 4718              	.LASF63:
 4719 032a 76745F6E 		.ascii	"vt_next\000"
 4719      65787400 
ARM GAS  /tmp/ccCJBSpW.s 			page 150


 4720              	.LASF92:
 4721 0332 77747365 		.ascii	"wtsemp\000"
 4721      6D7000
 4722              	.LASF41:
 4723 0339 705F6D73 		.ascii	"p_msgqueue\000"
 4723      67717565 
 4723      756500
 4724              	.LASF125:
 4725 0344 63684576 		.ascii	"chEvtGetAndClearEvents\000"
 4725      74476574 
 4725      416E6443 
 4725      6C656172 
 4725      4576656E 
 4726              	.LASF97:
 4727 035b 735F636E 		.ascii	"s_cnt\000"
 4727      7400
 4728              	.LASF4:
 4729 0361 73686F72 		.ascii	"short unsigned int\000"
 4729      7420756E 
 4729      7369676E 
 4729      65642069 
 4729      6E7400
 4730              	.LASF48:
 4731 0374 63685F74 		.ascii	"ch_thread\000"
 4731      68726561 
 4731      6400
 4732              	.LASF110:
 4733 037e 656C5F77 		.ascii	"el_wflags\000"
 4733      666C6167 
 4733      7300
 4734              	.LASF25:
 4735 0388 6576656E 		.ascii	"eventflags_t\000"
 4735      74666C61 
 4735      67735F74 
 4735      00
 4736              	.LASF22:
 4737 0395 6D73675F 		.ascii	"msg_t\000"
 4737      7400
 4738              	.LASF106:
 4739 039b 656C5F6E 		.ascii	"el_next\000"
 4739      65787400 
 4740              	.LASF123:
 4741 03a3 63684576 		.ascii	"chEvtUnregister\000"
 4741      74556E72 
 4741      65676973 
 4741      74657200 
 4742              	.LASF74:
 4743 03b3 63685F73 		.ascii	"ch_system_t\000"
 4743      79737465 
 4743      6D5F7400 
 4744              	.LASF122:
 4745 03bf 63684576 		.ascii	"chEvtRegisterMaskWithFlags\000"
 4745      74526567 
 4745      69737465 
 4745      724D6173 
 4745      6B576974 
 4746              	.LASF18:
ARM GAS  /tmp/ccCJBSpW.s 			page 151


 4747 03da 746D6F64 		.ascii	"tmode_t\000"
 4747      655F7400 
 4748              	.LASF53:
 4749 03e2 63685F72 		.ascii	"ch_ready_list\000"
 4749      65616479 
 4749      5F6C6973 
 4749      7400
 4750              	.LASF24:
 4751 03f0 6576656E 		.ascii	"eventmask_t\000"
 4751      746D6173 
 4751      6B5F7400 
 4752              	.LASF3:
 4753 03fc 73686F72 		.ascii	"short int\000"
 4753      7420696E 
 4753      7400
 4754              	.LASF6:
 4755 0406 5F5F696E 		.ascii	"__int32_t\000"
 4755      7433325F 
 4755      7400
 4756              	.LASF82:
 4757 0410 73746B61 		.ascii	"stkalign_t\000"
 4757      6C69676E 
 4757      5F7400
 4758              	.LASF104:
 4759 041b 6576656E 		.ascii	"event_listener_t\000"
 4759      745F6C69 
 4759      7374656E 
 4759      65725F74 
 4759      00
 4760              	.LASF40:
 4761 042c 705F7761 		.ascii	"p_waiting\000"
 4761      6974696E 
 4761      6700
 4762              	.LASF80:
 4763 0436 73697A65 		.ascii	"sizetype\000"
 4763      74797065 
 4763      00
 4764              	.LASF46:
 4765 043f 74687265 		.ascii	"thread_reference_t\000"
 4765      61645F72 
 4765      65666572 
 4765      656E6365 
 4765      5F7400
 4766              	.LASF69:
 4767 0452 63685F76 		.ascii	"ch_virtual_timers_list\000"
 4767      69727475 
 4767      616C5F74 
 4767      696D6572 
 4767      735F6C69 
 4768              	.LASF137:
 4769 0469 63684576 		.ascii	"chEvtDispatch\000"
 4769      74446973 
 4769      70617463 
 4769      6800
 4770              	.LASF129:
 4771 0477 5F5F6675 		.ascii	"__func__.6421\000"
 4771      6E635F5F 
ARM GAS  /tmp/ccCJBSpW.s 			page 152


 4771      2E363432 
 4771      3100
 4772              	.LASF70:
 4773 0485 76745F6C 		.ascii	"vt_lasttime\000"
 4773      61737474 
 4773      696D6500 
 4774              	.LASF34:
 4775 0491 705F6F6C 		.ascii	"p_older\000"
 4775      64657200 
 4776              	.LASF149:
 4777 0499 2E2E2F43 		.ascii	"../ChibiOS/os/rt/src/chevents.c\000"
 4777      68696269 
 4777      4F532F6F 
 4777      732F7274 
 4777      2F737263 
 4778              	.LASF56:
 4779 04b9 725F6374 		.ascii	"r_ctx\000"
 4779      7800
 4780              	.LASF86:
 4781 04bf 746D5F63 		.ascii	"tm_calibration_t\000"
 4781      616C6962 
 4781      72617469 
 4781      6F6E5F74 
 4781      00
 4782              	.LASF36:
 4783 04d0 705F7374 		.ascii	"p_stklimit\000"
 4783      6B6C696D 
 4783      697400
 4784              	.LASF144:
 4785 04db 74696D65 		.ascii	"time\000"
 4785      00
 4786              	.LASF142:
 4787 04e0 63684576 		.ascii	"chEvtWaitAll\000"
 4787      74576169 
 4787      74416C6C 
 4787      00
 4788              	.LASF59:
 4789 04ed 725F6375 		.ascii	"r_current\000"
 4789      7272656E 
 4789      7400
 4790              	.LASF58:
 4791 04f7 725F6F6C 		.ascii	"r_older\000"
 4791      64657200 
 4792              	.LASF108:
 4793 04ff 656C5F65 		.ascii	"el_events\000"
 4793      76656E74 
 4793      7300
 4794              	.LASF11:
 4795 0509 5F5F7569 		.ascii	"__uint64_t\000"
 4795      6E743634 
 4795      5F7400
 4796              	.LASF138:
 4797 0514 68616E64 		.ascii	"handlers\000"
 4797      6C657273 
 4797      00
 4798              	.LASF20:
 4799 051d 74726566 		.ascii	"trefs_t\000"
ARM GAS  /tmp/ccCJBSpW.s 			page 153


 4799      735F7400 
 4800              	.LASF61:
 4801 0525 76697274 		.ascii	"virtual_timer_t\000"
 4801      75616C5F 
 4801      74696D65 
 4801      725F7400 
 4802              	.LASF30:
 4803 0535 705F7072 		.ascii	"p_prev\000"
 4803      657600
 4804              	.LASF21:
 4805 053c 74707269 		.ascii	"tprio_t\000"
 4805      6F5F7400 
 4806              	.LASF121:
 4807 0544 5F5F6675 		.ascii	"__func__.6399\000"
 4807      6E635F5F 
 4807      2E363339 
 4807      3900
 4808              	.LASF14:
 4809 0552 696E7433 		.ascii	"int32_t\000"
 4809      325F7400 
 4810              	.LASF2:
 4811 055a 756E7369 		.ascii	"unsigned char\000"
 4811      676E6564 
 4811      20636861 
 4811      7200
 4812              	.LASF140:
 4813 0568 63684576 		.ascii	"chEvtWaitOne\000"
 4813      74576169 
 4813      744F6E65 
 4813      00
 4814              	.LASF107:
 4815 0575 656C5F6C 		.ascii	"el_listener\000"
 4815      69737465 
 4815      6E657200 
 4816              	.LASF132:
 4817 0581 5F5F6675 		.ascii	"__func__.6433\000"
 4817      6E635F5F 
 4817      2E363433 
 4817      3300
 4818              	.LASF109:
 4819 058f 656C5F66 		.ascii	"el_flags\000"
 4819      6C616773 
 4819      00
 4820              	.LASF43:
 4821 0598 705F6D74 		.ascii	"p_mtxlist\000"
 4821      786C6973 
 4821      7400
 4822              	.LASF134:
 4823 05a2 5F5F6675 		.ascii	"__func__.6438\000"
 4823      6E635F5F 
 4823      2E363433 
 4823      3800
 4824              	.LASF37:
 4825 05b0 705F7374 		.ascii	"p_state\000"
 4825      61746500 
 4826              	.LASF55:
 4827 05b8 725F7072 		.ascii	"r_prio\000"
ARM GAS  /tmp/ccCJBSpW.s 			page 154


 4827      696F00
 4828              	.LASF136:
 4829 05bf 63684576 		.ascii	"chEvtGetAndClearFlagsI\000"
 4829      74476574 
 4829      416E6443 
 4829      6C656172 
 4829      466C6167 
 4830              	.LASF94:
 4831 05d6 65776D61 		.ascii	"ewmask\000"
 4831      736B00
 4832              	.LASF29:
 4833 05dd 705F6E65 		.ascii	"p_next\000"
 4833      787400
 4834              	.LASF38:
 4835 05e4 705F666C 		.ascii	"p_flags\000"
 4835      61677300 
 4836              	.LASF153:
 4837 05ec 63685379 		.ascii	"chSysLock\000"
 4837      734C6F63 
 4837      6B00
 4838              	.LASF62:
 4839 05f6 63685F76 		.ascii	"ch_virtual_timer\000"
 4839      69727475 
 4839      616C5F74 
 4839      696D6572 
 4839      00
 4840              	.LASF95:
 4841 0607 63685F73 		.ascii	"ch_semaphore\000"
 4841      656D6170 
 4841      686F7265 
 4841      00
 4842              	.LASF42:
 4843 0614 705F6570 		.ascii	"p_epending\000"
 4843      656E6469 
 4843      6E6700
 4844              	.LASF118:
 4845 061f 6576656E 		.ascii	"events\000"
 4845      747300
 4846              	.LASF15:
 4847 0626 75696E74 		.ascii	"uint32_t\000"
 4847      33325F74 
 4847      00
 4848              	.LASF93:
 4849 062f 77746D74 		.ascii	"wtmtxp\000"
 4849      787000
 4850              	.LASF54:
 4851 0636 725F7175 		.ascii	"r_queue\000"
 4851      65756500 
 4852              	.LASF65:
 4853 063e 76745F64 		.ascii	"vt_delta\000"
 4853      656C7461 
 4853      00
 4854              	.LASF49:
 4855 0647 63685F74 		.ascii	"ch_threads_list\000"
 4855      68726561 
 4855      64735F6C 
 4855      69737400 
ARM GAS  /tmp/ccCJBSpW.s 			page 155


 4856              	.LASF150:
 4857 0657 2F6E6673 		.ascii	"/nfs/nfs4/home/irbrown/Courses/P442/P442WifiTrailCo"
 4857      2F6E6673 
 4857      342F686F 
 4857      6D652F69 
 4857      7262726F 
 4858 068a 756E7465 		.ascii	"unterProject/milestone3\000"
 4858      7250726F 
 4858      6A656374 
 4858      2F6D696C 
 4858      6573746F 
 4859              	.LASF9:
 4860 06a2 6C6F6E67 		.ascii	"long unsigned int\000"
 4860      20756E73 
 4860      69676E65 
 4860      6420696E 
 4860      7400
 4861              	.LASF102:
 4862 06b4 63686172 		.ascii	"char\000"
 4862      00
 4863              	.LASF28:
 4864 06b9 74687265 		.ascii	"thread_t\000"
 4864      61645F74 
 4864      00
 4865              	.LASF101:
 4866 06c2 6D5F6E65 		.ascii	"m_next\000"
 4866      787400
 4867              	.LASF27:
 4868 06c9 73797374 		.ascii	"systime_t\000"
 4868      696D655F 
 4868      7400
 4869              	.LASF44:
 4870 06d3 705F7265 		.ascii	"p_realprio\000"
 4870      616C7072 
 4870      696F00
 4871              	.LASF60:
 4872 06de 76746675 		.ascii	"vtfunc_t\000"
 4872      6E635F74 
 4872      00
 4873              	.LASF8:
 4874 06e7 5F5F7569 		.ascii	"__uint32_t\000"
 4874      6E743332 
 4874      5F7400
 4875              	.LASF151:
 4876 06f2 5F5F7365 		.ascii	"__set_BASEPRI\000"
 4876      745F4241 
 4876      53455052 
 4876      4900
 4877              	.LASF73:
 4878 0700 70616E69 		.ascii	"panic_msg\000"
 4878      635F6D73 
 4878      6700
 4879              	.LASF85:
 4880 070a 6F666673 		.ascii	"offset\000"
 4880      657400
 4881              	.LASF83:
 4882 0711 636F6E74 		.ascii	"context\000"
ARM GAS  /tmp/ccCJBSpW.s 			page 156


 4882      65787400 
 4883              	.LASF17:
 4884 0719 7274636E 		.ascii	"rtcnt_t\000"
 4884      745F7400 
 4885              	.LASF67:
 4886 0721 76745F70 		.ascii	"vt_par\000"
 4886      617200
 4887              	.LASF50:
 4888 0728 74687265 		.ascii	"threads_queue_t\000"
 4888      6164735F 
 4888      71756575 
 4888      655F7400 
 4889              	.LASF98:
 4890 0738 63685F6D 		.ascii	"ch_mutex\000"
 4890      75746578 
 4890      00
 4891              	.LASF112:
 4892 0741 65735F6E 		.ascii	"es_next\000"
 4892      65787400 
 4893              	.LASF76:
 4894 0749 726C6973 		.ascii	"rlist\000"
 4894      7400
 4895              	.LASF111:
 4896 074f 6576656E 		.ascii	"event_source\000"
 4896      745F736F 
 4896      75726365 
 4896      00
 4897              	.LASF13:
 4898 075c 75696E74 		.ascii	"uint8_t\000"
 4898      385F7400 
 4899              	.LASF128:
 4900 0764 666C6167 		.ascii	"flags\000"
 4900      7300
 4901              	.LASF139:
 4902 076a 5F5F6675 		.ascii	"__func__.6452\000"
 4902      6E635F5F 
 4902      2E363435 
 4902      3200
 4903              	.LASF143:
 4904 0778 63684576 		.ascii	"chEvtWaitOneTimeout\000"
 4904      74576169 
 4904      744F6E65 
 4904      54696D65 
 4904      6F757400 
 4905              	.LASF89:
 4906 078c 77746F62 		.ascii	"wtobjp\000"
 4906      6A7000
 4907              	.LASF35:
 4908 0793 705F6E61 		.ascii	"p_name\000"
 4908      6D6500
 4909              	.LASF47:
 4910 079a 74687265 		.ascii	"threads_list_t\000"
 4910      6164735F 
 4910      6C697374 
 4910      5F7400
 4911              	.LASF130:
 4912 07a9 63684576 		.ascii	"chEvtGetAndClearFlags\000"
ARM GAS  /tmp/ccCJBSpW.s 			page 157


 4912      74476574 
 4912      416E6443 
 4912      6C656172 
 4912      466C6167 
 4913              	.LASF117:
 4914 07bf 63685379 		.ascii	"chSysUnlock\000"
 4914      73556E6C 
 4914      6F636B00 
 4915              	.LASF100:
 4916 07cb 6D5F6F77 		.ascii	"m_owner\000"
 4916      6E657200 
 4917              	.LASF32:
 4918 07d3 705F6374 		.ascii	"p_ctx\000"
 4918      7800
 4919              	.LASF66:
 4920 07d9 76745F66 		.ascii	"vt_func\000"
 4920      756E6300 
 4921              	.LASF105:
 4922 07e1 6576656E 		.ascii	"event_listener\000"
 4922      745F6C69 
 4922      7374656E 
 4922      657200
 4923              	.LASF133:
 4924 07f0 63684576 		.ascii	"chEvtSignalI\000"
 4924      74536967 
 4924      6E616C49 
 4924      00
 4925              		.comm	__gnu_lto_v1,1,1
 4926              		.ident	"GCC: (GNU Tools for ARM Embedded Processors) 4.8.4 20140526 (release) [ARM/embedded-4_8-br
ARM GAS  /tmp/ccCJBSpW.s 			page 158


DEFINED SYMBOLS
                            *ABS*:00000000 chevents.c
     /tmp/ccCJBSpW.s:1051   .text.port_lock:00000000 $t
     /tmp/ccCJBSpW.s:1056   .text.port_lock:00000000 port_lock
     /tmp/ccCJBSpW.s:1087   .text.port_unlock:00000000 $t
     /tmp/ccCJBSpW.s:1092   .text.port_unlock:00000000 port_unlock
     /tmp/ccCJBSpW.s:1121   .text.chSysLock:00000000 $t
     /tmp/ccCJBSpW.s:1126   .text.chSysLock:00000000 chSysLock
     /tmp/ccCJBSpW.s:1145   .text.chSysUnlock:00000000 $t
     /tmp/ccCJBSpW.s:1150   .text.chSysUnlock:00000000 chSysUnlock
     /tmp/ccCJBSpW.s:1168   .text.chEvtRegisterMaskWithFlags:00000000 $t
     /tmp/ccCJBSpW.s:1174   .text.chEvtRegisterMaskWithFlags:00000000 chEvtRegisterMaskWithFlags
     /tmp/ccCJBSpW.s:1227   .text.chEvtRegisterMaskWithFlags:00000044 $d
     /tmp/ccCJBSpW.s:1232   .text.chEvtUnregister:00000000 $t
     /tmp/ccCJBSpW.s:1238   .text.chEvtUnregister:00000000 chEvtUnregister
     /tmp/ccCJBSpW.s:1295   .text.chEvtGetAndClearEvents:00000000 $t
     /tmp/ccCJBSpW.s:1301   .text.chEvtGetAndClearEvents:00000000 chEvtGetAndClearEvents
     /tmp/ccCJBSpW.s:1344   .text.chEvtGetAndClearEvents:00000038 $d
     /tmp/ccCJBSpW.s:1349   .text.chEvtAddEvents:00000000 $t
     /tmp/ccCJBSpW.s:1355   .text.chEvtAddEvents:00000000 chEvtAddEvents
     /tmp/ccCJBSpW.s:1395   .text.chEvtAddEvents:00000030 $d
     /tmp/ccCJBSpW.s:1400   .text.chEvtBroadcastFlagsI:00000000 $t
     /tmp/ccCJBSpW.s:1406   .text.chEvtBroadcastFlagsI:00000000 chEvtBroadcastFlagsI
     /tmp/ccCJBSpW.s:1558   .text.chEvtSignalI:00000000 chEvtSignalI
     /tmp/ccCJBSpW.s:1474   .text.chEvtGetAndClearFlags:00000000 $t
     /tmp/ccCJBSpW.s:1480   .text.chEvtGetAndClearFlags:00000000 chEvtGetAndClearFlags
     /tmp/ccCJBSpW.s:1515   .text.chEvtSignal:00000000 $t
     /tmp/ccCJBSpW.s:1521   .text.chEvtSignal:00000000 chEvtSignal
     /tmp/ccCJBSpW.s:1552   .text.chEvtSignalI:00000000 $t
     /tmp/ccCJBSpW.s:1627   .text.chEvtBroadcastFlags:00000000 $t
     /tmp/ccCJBSpW.s:1633   .text.chEvtBroadcastFlags:00000000 chEvtBroadcastFlags
     /tmp/ccCJBSpW.s:1664   .text.chEvtGetAndClearFlagsI:00000000 $t
     /tmp/ccCJBSpW.s:1670   .text.chEvtGetAndClearFlagsI:00000000 chEvtGetAndClearFlagsI
     /tmp/ccCJBSpW.s:1699   .text.chEvtDispatch:00000000 $t
     /tmp/ccCJBSpW.s:1705   .text.chEvtDispatch:00000000 chEvtDispatch
     /tmp/ccCJBSpW.s:1765   .text.chEvtWaitOne:00000000 $t
     /tmp/ccCJBSpW.s:1771   .text.chEvtWaitOne:00000000 chEvtWaitOne
     /tmp/ccCJBSpW.s:1839   .text.chEvtWaitOne:0000005c $d
     /tmp/ccCJBSpW.s:1844   .text.chEvtWaitAny:00000000 $t
     /tmp/ccCJBSpW.s:1850   .text.chEvtWaitAny:00000000 chEvtWaitAny
     /tmp/ccCJBSpW.s:1912   .text.chEvtWaitAny:00000054 $d
     /tmp/ccCJBSpW.s:1917   .text.chEvtWaitAll:00000000 $t
     /tmp/ccCJBSpW.s:1923   .text.chEvtWaitAll:00000000 chEvtWaitAll
     /tmp/ccCJBSpW.s:1977   .text.chEvtWaitAll:00000048 $d
     /tmp/ccCJBSpW.s:1982   .text.chEvtWaitOneTimeout:00000000 $t
     /tmp/ccCJBSpW.s:1988   .text.chEvtWaitOneTimeout:00000000 chEvtWaitOneTimeout
     /tmp/ccCJBSpW.s:2078   .text.chEvtWaitOneTimeout:0000007c $d
     /tmp/ccCJBSpW.s:2083   .text.chEvtWaitAnyTimeout:00000000 $t
     /tmp/ccCJBSpW.s:2089   .text.chEvtWaitAnyTimeout:00000000 chEvtWaitAnyTimeout
     /tmp/ccCJBSpW.s:2173   .text.chEvtWaitAnyTimeout:00000074 $d
     /tmp/ccCJBSpW.s:2178   .text.chEvtWaitAllTimeout:00000000 $t
     /tmp/ccCJBSpW.s:2184   .text.chEvtWaitAllTimeout:00000000 chEvtWaitAllTimeout
     /tmp/ccCJBSpW.s:2259   .text.chEvtWaitAllTimeout:00000068 $d
                            *COM*:00000001 __gnu_lto_v1
                     .debug_frame:00000010 $d
     /tmp/ccCJBSpW.s:1231   .text.chEvtRegisterMaskWithFlags:00000048 $t
     /tmp/ccCJBSpW.s:1348   .text.chEvtGetAndClearEvents:0000003c $t
ARM GAS  /tmp/ccCJBSpW.s 			page 159


     /tmp/ccCJBSpW.s:1399   .text.chEvtAddEvents:00000034 $t
     /tmp/ccCJBSpW.s:1916   .text.chEvtWaitAny:00000058 $t
     /tmp/ccCJBSpW.s:1981   .text.chEvtWaitAll:0000004c $t
     /tmp/ccCJBSpW.s:2177   .text.chEvtWaitAnyTimeout:00000078 $t
     /tmp/ccCJBSpW.s:2263   .text.chEvtWaitAllTimeout:0000006c $t

UNDEFINED SYMBOLS
ch
chSchRescheduleS
chSchReadyI
chSchGoSleepS
chSchGoSleepTimeoutS
