ARM GAS  /tmp/ccz3D8ma.s 			page 1


   1              		.syntax unified
   2              		.cpu cortex-m4
   3              		.fpu softvfp
   4              		.eabi_attribute 20, 1
   5              		.eabi_attribute 21, 1
   6              		.eabi_attribute 23, 3
   7              		.eabi_attribute 24, 1
   8              		.eabi_attribute 25, 1
   9              		.eabi_attribute 26, 1
  10              		.eabi_attribute 30, 6
  11              		.eabi_attribute 34, 1
  12              		.eabi_attribute 18, 4
  13              		.thumb
  14              		.file	"chheap.c"
  15              		.text
  16              	.Ltext0:
  17              		.section	.gnu.lto_.inline.ccb22ea4ba686dd0,"",%progbits
  18 0000 789C6362 		.ascii	"x\234cb`b\300\006&CiV\006\006\016\001\006\006&\216\011"
  18      6062C006 
  18      26436956 
  18      06060E01 
  18      0606268E 
  19 0015 7E0C2C10 		.ascii	"~\014,\020\265L\334@\202\231\201[\030\310\344k\250E"
  19      B54CDC40 
  19      8299815B 
  19      18C8E46B 
  19      A845
  20 0027 11666130 		.ascii	"\021fa0\275\015b\007\\h`E\221@\020\254\202`c\215\016"
  20      BD0D6207 
  20      5C686045 
  20      914010AC 
  20      8260638D 
  21 003c 83042226 		.ascii	"\203\004\"&\354\307\242\216\215AD\025\310\224\331\360"
  21      ECC7A28E 
  21      8D414415 
  21      C894D9F0 
  22 004c 8A115392 		.ascii	"\212\021S\222\001\000T\035\012\317"
  22      0100541D 
  22      0ACF
  23              		.text
  24              		.section	.gnu.lto__heap_init.ccb22ea4ba686dd0,"",%progbits
  25 0000 789C6362 		.ascii	"x\234cb`b@\007\"@\374\236\221\201A\001\304af`\004\252"
  25      60624007 
  25      2240FC9E 
  25      91814101 
  25      C4616660 
  26 0016 60646204 		.ascii	"`db\004\012002\32431\326G2\202\225\255g:\360\340\377"
  26      0A303032 
  26      D43331D6 
  26      47328295 
  26      AD673AF0 
  27 002c FF75DF8E 		.ascii	"\377u\337\216M\277\3038\207\011$\306\312\320\322\320"
  27      4DBFC338 
  27      870924C6 
  27      CAD0D2D0 
  28 003c 3001A82D 		.ascii	"0\001\250-\031\254\"\004L\206\202\3643\237eh\372\325"
  28      19AC2204 
ARM GAS  /tmp/ccz3D8ma.s 			page 2


  28      4C8682F4 
  28      339F6568 
  28      FAD5
  29 004e FCBDD73A 		.ascii	"\374\275\327:\221q!#+\2036\303\252\006 \260\317dd\230"
  29      91712123 
  29      2B8336C3 
  29      AA0620B0 
  29      CF646498 
  30 0062 CD30ABB1 		.ascii	"\3150\253\261\241A \223\221\261\232\341WC\007\210\305"
  30      A1412093 
  30      91B19AE1 
  30      57430788 
  30      C5
  31 0073 940BD618 		.ascii	"\224\013\326\030\301\230\311\010q\\\022\304B\006\210"
  31      C198C908 
  31      715C12C4 
  31      420688
  32 0082 8A86EA4C 		.ascii	"\212\206\352LF\346dF\210\030\320\334\0357\336\037`A"
  32      46E66446 
  32      8818D0DC 
  32      1D37DE1F 
  32      6041
  33 0094 31B73493 		.ascii	"1\2674\223\221\005\312,\314dd\2052c3\031\331\020\026"
  33      9105CA2C 
  33      CC646485 
  33      32633319 
  33      D91016
  34 00a7 B3136731 		.ascii	"\263\023g1#\224\206\361\231\2414\013\003L%\013\314\031"
  34      239486F1 
  34      99A1340B 
  34      034C250B 
  34      CC19
  35 00b9 3FDE7F60 		.ascii	"?\336\177`Fq\006\320n\016j\332\315\012\267\223\003\304"
  35      467106D0 
  35      6E0E6ADA 
  35      CD0AB793 
  35      03C4
  36 00cb 38CFD0F2 		.ascii	"8\317\320\362\340\344a.\210\225\260\300\001\232\304"
  36      E0E4612E 
  36      8895B0C0 
  36      019AC4
  37 00da 990CD501 		.ascii	"\231\014\325\001\022\341\310d\344\202Z<\021\250\221"
  37      12E1C864 
  37      E4825A3C 
  37      11A891
  38 00e9 1B684B12 		.ascii	"\033hK\022#\033X\032\2521\223\221\207\201\341\"C\343"
  38      231B581A 
  38      AA319391 
  38      8781E122 
  38      43E3
  39 00fb 83B3CA30 		.ascii	"\203\263\3120\243  \004\344\000\220Irzz\372\316\031"
  39      A3202004 
  39      E4009049 
  39      727A7AFA 
  39      CE19
  40 010d 994999FE 		.ascii	"\231I\231\376\301\372\371\305\372E%\372\305E\311\372"
  40      C1FAF9C5 
ARM GAS  /tmp/ccz3D8ma.s 			page 3


  40      FA4525FA 
  40      C545C9FA 
  41 011d C91919A9 		.ascii	"\311\031\031\251\211\005z\311\014\000yD}\236"
  41      89057AC9 
  41      0C007944 
  41      7D9E
  42              		.text
  43              		.section	.gnu.lto_chHeapObjectInit.ccb22ea4ba686dd0,"",%progbits
  44 0000 789CB552 		.ascii	"x\234\265RAKTQ\024>\347\336wg\322\251l+A\230\020\222"
  44      414B5451 
  44      143EE7DE 
  44      7767D2A9 
  44      6C2B4198 
  45 0016 E2BC5CD8 		.ascii	"\342\274\\\330\037\350\007\204\250\220\313\231G\275"
  45      1FE80784 
  45      A890CB99 
  45      47BD
  46 0024 B98B2171 		.ascii	"\271\213!ql\243\013o\2160*\201\022\224b-l\021Y\004A"
  46      6CA30B6F 
  46      8E302A81 
  46      1294622D 
  46      6C115904 
  47 0039 B4984DF0 		.ascii	"\264\230M\360v\021!\331*\227\263t\247;\207\231\230\333"
  47      761121D9 
  47      2A97B374 
  47      A73B8799 
  47      98DB
  48 004b B9EFDDF1 		.ascii	"\271\357\335\361\365Dl :\360\3569\367\336\363\235\357"
  48      F5446C20 
  48      3AF0EE39 
  48      F7DEF39D 
  48      EF
  49 005c 3BE73E06 		.ascii	";\347>\006\014N\333U\372n;\0007\315\306\001\244\014"
  49      0C4EDB55 
  49      FA6E3B00 
  49      37CDC601 
  49      A40C
  50 006e 64C869E5 		.ascii	"d\310i\345\210t\204\260\3008.L\231\030\322\375\360J"
  50      887484B0 
  50      C0382E4C 
  50      9918D2FD 
  50      F04A
  51 0080 A9A7B5D7 		.ascii	"\251\247\265\327\315\315\336\325\355\305u\325\322\032"
  51      CDCDDED5 
  51      EDC575D5 
  51      D21A
  52 008e 2552D9EB 		.ascii	"%R\331\353\010\036\302=\332`_\350\230\223\344\211\220"
  52      081EC23D 
  52      DA605FE8 
  52      9893E489 
  52      90
  53 009f EAE38EEA 		.ascii	"\352\343\216\352\332V\277\264\346\322T\374_\230\340"
  53      DA56BFB4 
  53      E6D254FC 
  53      5F98E0
  54 00ae F8CBF384 		.ascii	"\370\313\363\204\302\016a\315\312\263?a\274C\330\317"
  54      C20E61CD 
ARM GAS  /tmp/ccz3D8ma.s 			page 4


  54      CAB33F61 
  54      BC43D8CF 
  55 00be CA46AF8A 		.ascii	"\312F\257\212a\016\203\201\277\315\243\210\360\201\005"
  55      610E8381 
  55      BFCDA388 
  55      F08105
  56 00cd 35ADDF7F 		.ascii	"5\255\337\177\376\364\344%\356\2604b\021i\3749|\203"
  56      FEF4E425 
  56      EEB03462 
  56      1169FC39 
  56      7C83
  57 00df FDC069C3 		.ascii	"\375\300i\303\034Z\270\000\222\237\202P\014\010XRj\275"
  57      1C5AB800 
  57      929F8250 
  57      0C085852 
  57      6ABD
  58 00f1 2FCA29DA 		.ascii	"/\312)\332\266\310&\302u\322\274\036\337\205\305o\365"
  58      B6C826C2 
  58      75D2BC1E 
  58      DF85C56F 
  58      F5
  59 0102 C611CBE1 		.ascii	"\306\021\313\341[\024\340#\363\303\207\014\357yt_\255"
  59      5B14E023 
  59      F3C3870C 
  59      EF79745F 
  59      AD
  60 0113 370FECFD 		.ascii	"7\017\354\375\020\274Sd#\022\305\013\330\"\241)\037"
  60      10BC5364 
  60      2312C50B 
  60      D822A129 
  60      1F
  61 0124 B9119C0E 		.ascii	"\271\021\234\016!y\0135'\302\004\204\376\272\331\332"
  61      21790B35 
  61      27C20484 
  61      FEBAD9DA 
  62 0134 E309F414 		.ascii	"\343\011\364\024\365l\303I\211\027l8&\261+.\337}vy\264"
  62      F56CC349 
  62      89176C38 
  62      26B12B2E 
  62      DF7D7679 
  63 0149 9E59CFAD 		.ascii	"\236Y\317\255\217\306\345\233s#\270\332\012\222\224"
  63      8FC6E59B 
  63      7323B8DA 
  63      0A9294
  64 0158 C493F917 		.ascii	"\304\223\371\027\036q\322V\306\266U\335o\005\311\241"
  64      1E71D256 
  64      C6B655DD 
  64      6F05C9A1 
  65 0168 8CC66D8D 		.ascii	"\214\306m\215\304me\210.\342\350&y\246\202sn\017'\031"
  65      C46D6588 
  65      2EE2E826 
  65      79A68273 
  65      6E0F2719 
  66 017c BB505E2E 		.ascii	"\273P^.\037\256\015\267\037F\370\350\204\002\352Z\353"
  66      1FAE0DB7 
  66      1F46F8E8 
  66      8402EA5A 
ARM GAS  /tmp/ccz3D8ma.s 			page 5


  66      EB
  67 018d 1E3BDBBD 		.ascii	"\036;\333\275\364\351w\311t\314+\354\314DX\252Q>^\033"
  67      F4E977C9 
  67      74CC2BEC 
  67      CC4458AA 
  67      513E5E1B 
  68 01a1 6C73A5E6 		.ascii	"ls\245\346a\216~![\252$\361\342\331cJ\305\177\350wX"
  68      618E7E21 
  68      5BAA24F1 
  68      E2D9634A 
  68      C57FE877 
  69 01b6 0A2C1E60 		.ascii	"\012,\036`\036\032jY]\221x\311\263\243\244\232\022/"
  69      1E1A6A59 
  69      5D9178C9 
  69      B3A3A49A 
  69      122F
  70 01c8 03FC80C7 		.ascii	"\003\374\200\307\265\225\033\355\274\310&L\216Qu-\233"
  70      B5951BED 
  70      BCC8264C 
  70      8E51752D 
  70      9B
  71 01d9 75EF1464 		.ascii	"u\357\024d^\336\035w\037\226\334\231Y\2674\343\271^"
  71      5EDE1D77 
  71      1F96DC99 
  71      59B734E3 
  71      B95E
  72 01eb A1703F37 		.ascii	"\241p?7\235\365@\344\037=\310\336b\205\351\337\214R"
  72      9DF540E4 
  72      1F3DC8DE 
  72      6285E9DF 
  72      8C52
  73 01fd F84C     		.ascii	"\370L"
  74              		.text
  75              		.section	.gnu.lto_chHeapAlloc.ccb22ea4ba686dd0,"",%progbits
  76 0000 789CC556 		.ascii	"x\234\305V\335O\034U\024\277\367\316\314~\177\001\345"
  76      DD4F1C55 
  76      14BFF7CE 
  76      CC7E7F01 
  76      E5
  77 0011 63F92A90 		.ascii	"c\371*\220&F\233@\232\306\030\3224>\370\007\250\251"
  77      26469B40 
  77      9AC618D2 
  77      343EF807 
  77      A8A9
  78 0023 24F54DA0 		.ascii	"$\365M\240\3552\211\215\024\364E\036\230\355\362\200"
  78      ED32898D 
  78      14F4451E 
  78      98EDF280 
  79 0033 6C636905 		.ascii	"lci\005\251\324h\373f4JBC\240\226\310\222\264\011tb"
  79      A9D468FB 
  79      66344A42 
  79      43A096C8 
  79      92B40974 
  80 0048 2A0F4420 		.ascii	"*\017D 6-\375\260\0175jcL)\226\216\347\334\2713;\213"
  80      362DFDB0 
  80      0F356A63 
  80      4C29968E 
ARM GAS  /tmp/ccz3D8ma.s 			page 6


  80      E7DCB933 
  81 005e AB0C6B8D 		.ascii	"\253\014k\215\223p\346r\3179\277s~\347\236{f\031ad\363"
  81      9370E672 
  81      CF39BF73 
  81      7EE79E7B 
  81      66196164 
  82 0073 330A7F5A 		.ascii	"3\012\177Z\224\220g\361\237\"B\301\2022&\301&\223A\310"
  82      949067F1 
  82      9F2242C1 
  82      823226C1 
  82      269341C8 
  83 0087 12851795 		.ascii	"\022\205\027\225i\020\244\302<\270\037\300}\017\363"
  83      6910A4C2 
  83      3CB81FC0 
  83      7D0FF3
  84 0096 E2DA876B 		.ascii	"\342\332\207k/\365\203\326\307\245\237\306@\006\270"
  84      2FF583D6 
  84      C7A59FC6 
  84      4006B8
  85 00a5 7D902968 		.ascii	"}\220)h\023B\233\020\013\343:\212\3530\213\330\353\010"
  85      13429B10 
  85      0BE33A8A 
  85      EB308BD8 
  85      EB08
  86 00b7 B78F7219 		.ascii	"\267\217r\031\243\024\222\240\244\227I\262\342\361\372"
  86      A31492A0 
  86      A49749B2 
  86      E2F1FA
  87 00c6 FC816028 		.ascii	"\374\201`(\034\211\306h\357\353\250 \245\015\344\274"
  87      1C89C668 
  87      EFEBA820 
  87      A50DE4BC 
  88 00d6 A69DBE79 		.ascii	"\246\235\276y\345\253\005\372\321P\246\357\234\366\330"
  88      E5AB05FA 
  88      D150A6EF 
  88      9CF6D8
  89 00e5 30285551 		.ascii	"0(UQ\331N\311AX\321:\376\302\334\235\217\351\230\371"
  89      D94EC941 
  89      58D13AFE 
  89      C2DC9D8F 
  89      E998F9
  90 00f8 E3EAFC79 		.ascii	"\343\352\374y\252\235\326\222\277\032FT\245\222K\267"
  90      AA9DD692 
  90      BF1A4654 
  90      A5924BB7 
  91 0108 53E993F1 		.ascii	"S\351\223\361\201s\307\007\265'\020\316}\264\017\322"
  91      8173C707 
  91      B52710CE 
  91      7DB40FD2 
  92 0118 4305B869 		.ascii	"C\005\270i\033w^\231\323\3722\206\361\242\373Pg\365"
  92      1B775E99 
  92      D3FA3286 
  92      F1A2FB50 
  92      67F5
  93 012a 4F9DA164 		.ascii	"O\235\241d\227n\023\372\225\334B2\227\216\027\013\213"
  93      976E13FA 
  93      95DC4232 
ARM GAS  /tmp/ccz3D8ma.s 			page 7


  93      978E170B 
  93      8B
  94 013b 7729FD49 		.ascii	"w)\375I!\0251\356n\273\"\332\370g\232\237\323\222\334"
  94      211531EE 
  94      6EBB22DA 
  94      F8679A9F 
  94      D392DC
  95 014e 577151D7 		.ascii	"WqQ\327\267\337\036\243\231\025\375D`0\331\257\031F"
  95      B7DF1EA3 
  95      9915FD44 
  95      6030D9AF 
  95      1946
  96 0160 AF4A1597 		.ascii	"\257J\025\227\2616\256\016\025R\301\337\365\202:x#\375"
  96      B136AE0E 
  96      1552C1DF 
  96      F5823A78 
  96      23FD
  97 0172 BE339AC7 		.ascii	"\2763\232\307\245\233\241\237,\300M{X@\007/\017\214"
  97      A59BA19F 
  97      2CC04D7B 
  97      5840072F 
  97      0F8C
  98 0184 C435473D 		.ascii	"\3045G=\030\251\247.\243\035\262\203\201\327.\227^\247"
  98      18A9A72E 
  98      A31DB283 
  98      81D72E97 
  98      5EA7
  99 0196 0E3BBD9E 		.ascii	"\016;\275\236\331\312k\214en\032\306\364\342\324\355"
  99      D9CA6B8C 
  99      656E1AC6 
  99      F4E2D4ED 
 100 01a6 8F694903 		.ascii	"\217iI\003%G)\314\322Vz\2016\020\211\300\251\313\024"
 100      254729CC 
 100      D2567A81 
 100      361089C0 
 100      A9CB14
 101 01b9 7614DCF6 		.ascii	"v\024\334\366\300\212za\217\370\340_\230\211\246U\000"
 101      C08A7A61 
 101      8FF8E05F 
 101      9889A655 
 101      00
 102 01ca 76A42008 		.ascii	"v\244 \0109\004;\023\260\023F\233\010\212(\212\030\352"
 102      39043B13 
 102      B013469B 
 102      088A288A 
 102      18EA
 103 01dc 8A40B062 		.ascii	"\212@\260b0\230\004\203\022\334\331\201\272R\024e(\312"
 103      30980483 
 103      12DCD981 
 103      BA521465 
 103      28CA
 104 01ee 11A60223 		.ascii	"\021\246\002#\306\005p%\356T\201\360T\243\250A\253Z"
 104      C6057025 
 104      EE5481F0 
 104      54A3A841 
 104      AB5A
 105 0200 1162A778 		.ascii	"\021b\247x\327\241C=\341\335\011Y\366i\332`\235\351"
ARM GAS  /tmp/ccz3D8ma.s 			page 8


 105      D7A1433D 
 105      E1DD0959 
 105      F669DA60 
 105      9DE9
 106 0212 6DEACD78 		.ascii	"m\352\315x\374\244\340y\215\313\026\034\006\322\034"
 106      FCA4E079 
 106      8DCB161C 
 106      06D21C
 107 0221 B97C6FF6 		.ascii	"\271|o\366\372\200\324J/\202s\202\312X\034\257\2632"
 107      FA80D44A 
 107      2F827382 
 107      CA581CAF 
 107      B332
 108 0233 2DD884D2 		.ascii	"-\330\204\322\267\344\370zjf\270\312\262Sz\310\272\326"
 108      B7E4F87A 
 108      6A66B8CA 
 108      B2537AC8 
 108      BAD6
 109 0245 AF69FBC0 		.ascii	"\257i\373\300\372(e\016k\231[\247\372S\367\207+-ko\202"
 109      FA28650E 
 109      6B995BA7 
 109      FA53F787 
 109      2B2D6B6F 
 110 025a 7A10D887 		.ascii	"z\020\330\207\310\240\274\224j\263T>\320r\325\232\001"
 110      C8A0BC94 
 110      6AB3543E 
 110      D072D59A 
 110      01
 111 026b 1DCFD510 		.ascii	"\035\317\325\020\351\227a\217e\340\307H\360\354\201"
 111      E997618F 
 111      65E0C748 
 111      F0EC81
 112 027a 62ED269F 		.ascii	"b\355&\237\343r\277J\375g\311(x\005\022\224f3n\243\216"
 112      E372BF4A 
 112      FD67C928 
 112      78051294 
 112      66336EA3 
 113 028f BC39CEC3 		.ascii	"\2749\316\303a\233Y\240\207\274\013\225\334M\236Si0"
 113      619B59A0 
 113      87BC0B95 
 113      DC4D9E53 
 113      6930
 114 02a1 BFB7C3FD 		.ascii	"\277\267\303\375\032\221MGBL\2461\225\206\332\205\005"
 114      1A914D47 
 114      424CA631 
 114      9586DA85 
 114      05
 115 02b2 80A9348C 		.ascii	"\200\2514\214\253eB\241f\014\204\"=^|\023\371+f\265"
 115      AB6542A1 
 115      660C8422 
 115      3D5E7C13 
 115      F92B66B5 
 116 02c6 56D6C666 		.ascii	"V\326\306f\251\025;$\022?\220\345\000}\031\021\313f"
 116      A9153B24 
 116      123F90E5 
 116      007D1911 
 116      CB66
ARM GAS  /tmp/ccz3D8ma.s 			page 9


 117 02d8 9546CD84 		.ascii	"\225F\315\204\374\011\312\016\232\323\202'\304\304["
 117      FC09CA0E 
 117      9AD38227 
 117      C4C45B
 118 02e7 126F39CB 		.ascii	"\022o9\313m\345\314\370\003\033?\314Y\371\004\336\013"
 118      6DE5CCF8 
 118      031B3FCC 
 118      59F904DE 
 118      0B
 119 02f8 4EBC503E 		.ascii	"N\274P><E\340\314\221\276{\311=6\012\234\206\363\334"
 119      3C45E0CC 
 119      91BE7BC9 
 119      3D360A9C 
 119      86F3DC
 120 030b 3D82C9D4 		.ascii	"=\202\311\324\370,\263l\"9\221\366\271\216\304;b\335"
 120      F82CB36C 
 120      223991F6 
 120      B98EC43B 
 120      62DD
 121 031d 4E380AA1 		.ascii	"N8\012\241\370\251\373x\026\227\357&\237\267#\200\326"
 121      F8A9FB78 
 121      1697EF26 
 121      9FB72380 
 121      D6
 122 032e 9985D7CA 		.ascii	"\231\205\327\312\342\302#\373,c<\013\253\224=\331R\276"
 122      E2C223FB 
 122      2C633C0B 
 122      AB943DD9 
 122      52BE
 123 0340 B3654279 		.ascii	"\263eByJ9\377]\320\004\026 \257\346tZ$_U]\234R\002\177"
 123      4A39FF5D 
 123      D0041620 
 123      AFE6745A 
 123      245F555D 
 124 0358 F298147C 		.ascii	"\362\230\024|\366\225\3700ms(\022%\300\237XX\236t\252"
 124      F695F830 
 124      6D732812 
 124      25C09F58 
 124      589E74AA 
 125 036c CB521543 		.ascii	"\313R\025C\356` \316y2\313\273\344\377\346]\354\206"
 125      EE6020CE 
 125      7932CBBB 
 125      E4FFE65D 
 125      EC86
 126 037e 778999F8 		.ascii	"w\211\231\370\324\344\252\235\370\216\234\266\351\336"
 126      D4E4AA9D 
 126      F88E9CB6 
 126      E9DE
 127 038c 4EDBBC97 		.ascii	"N\333\274\227zb\303\224\002\022oR\254\246\275[\006\212"
 127      7A62C394 
 127      02126F52 
 127      ACA6BD5B 
 127      068A
 128 039e CD23647E 		.ascii	"\315#d~0\227\333\376\277\271\036y\011)\202H\231\011"
 128      3097DBFE 
 128      BFB91E79 
 128      09298248 
ARM GAS  /tmp/ccz3D8ma.s 			page 10


 128      9909
 129 03b0 B534F980 		.ascii	"\2654\371\200\375'\015R\314\361\365\265\311U\346*\331"
 129      FD270D52 
 129      CCF1F5B5 
 129      C955E62A 
 129      D9
 130 03c1 7F28957D 		.ascii	"\177(\225}u[\360W:^\030}\352\353\277\302z\263#\307J"
 130      755BF057 
 130      3A5E187D 
 130      EAEBBFC2 
 130      7AB323C7 
 131 03d6 7BAFEBD6 		.ascii	"{\257\353\326\361\210HT\014\327/F\274\326\021\224?\215"
 131      F1884854 
 131      0CD72F46 
 131      BCD61194 
 131      3F8D
 132 03e8 E1CA047E 		.ascii	"\341\312\004~9\037\256\374JL\224[\021*Dr\314\032Q-4"
 132      391FAEFC 
 132      4A4C945B 
 132      112A4472 
 132      CC1A512D 
 133 03fd 60129D3F 		.ascii	"`\022\235?\363Mv\322\306\301\314\322\007\305\344X\032"
 133      F34D76D2 
 133      C6C1CCD2 
 133      07C5E458 
 133      1A
 134 040e 9BB7E757 		.ascii	"\233\267\347W0\347\006\375\253!\014\303\363\247\344"
 134      30E706FD 
 134      AB210CC3 
 134      F3A7E4
 135 041d 5E1B38EB 		.ascii	"^\0338\353\302\237e\302\340\333%O\177\017\211\307\003"
 135      C29F65C2 
 135      E0DB254F 
 135      7F0F89C7 
 135      03
 136 042e 276EBC81 		.ascii	"'n\274\201\031\205\254/\351\375\021\273{+\237f\351*"
 136      1985AC2F 
 136      E9FD11BB 
 136      7B2B9F66 
 136      E92A
 137 0440 45E980F4 		.ascii	"E\351\200\364\314\252]\224*\016\036\313\017\356u\322"
 137      CCAA5D94 
 137      2A0E1ECB 
 137      0FEE75D2 
 138 0450 09DB2E68 		.ascii	"\011\333.h\022#\216\247\005\221\315/\333\314#\033\272"
 138      12238EA7 
 138      0591CD2F 
 138      DBCC231B 
 138      BA
 139 0461 DA0D349F 		.ascii	"\332\0154\237}?\333>5\316\341\177\215\364e*,M-\000\""
 139      7D3FDB3E 
 139      35CEE17F 
 139      8DF4652A 
 139      2C4D2D00 
 140 0476 8D1A15A7 		.ascii	"\215\032\025\247\037f4;\030\261\225\233*\214)E\254^"
 140      1F66343B 
 140      18B1959B 
ARM GAS  /tmp/ccz3D8ma.s 			page 11


 140      2A8C2945 
 140      AC5E
 141 0488 BFB5FD5E 		.ascii	"\277\265\375^\257u\337\353\372\322\255\205\\\374\346"
 141      AF75DFEB 
 141      FAD2AD85 
 141      5CFCE6
 142 0497 EC15DD1A 		.ascii	"\354\025\335\032\324qEyW\177Ymq\332)<\304G\000f\315"
 142      D4714579 
 142      577F596D 
 142      71DA293C 
 142      C4470066 
 143 04ac ED664B57 		.ascii	"\355fKW\007j\213g\324\3449\265\366c\334R\327\243\237"
 143      076A8B67 
 143      D4E439B5 
 143      F663DC52 
 143      D7A39F
 144 04bf 922D051C 		.ascii	"\222-\005\034\226\244\223$\000\035B\026\013|\2310\011"
 144      96A49324 
 144      001D4216 
 144      0B7C9930 
 144      09
 145 04d0 2D13096E 		.ascii	"-\023\011n\220\377\207\353\325\000\033\271s\014\274"
 145      90FF87EB 
 145      D5001BB9 
 145      730CBC
 146 04df A3D3BF85 		.ascii	"\243\323\277\205\360\247 \020\3044k\033\033\233^\352"
 146      F0A72010 
 146      C4346B1B 
 146      1B9B5EEA 
 147 04ef 50DBD497 		.ascii	"P\333\324\227\0174\275\325\335\324\365vSwW{S{G\307\341"
 147      0F34BDD5 
 147      DDD4F576 
 147      5377577B 
 147      537B47C7 
 148 0504 D6CEC676 		.ascii	"\326\316\306v\302\216u\262\216Nv\244\363OZ\250Y\316"
 148      C28E75B2 
 148      8E4E76A4 
 148      F34F5AA8 
 148      59CE
 149              		.text
 150              		.section	.gnu.lto_chHeapFree.ccb22ea4ba686dd0,"",%progbits
 151 0000 789CCD58 		.ascii	"x\234\315XKh\035U\030>\377\231\231\373~\345\235\264"
 151      4B681D55 
 151      183EFF99 
 151      99FB7EE5 
 151      9DB4
 152 0012 CDC32288 		.ascii	"\315\303\"\210Vr)\"RD\272\320\215+-m\240\256l\232J2"
 152      56722922 
 152      5244BAD0 
 152      8D2B2D6D 
 152      A0AE6C9A 
 153 0028 8B60DA28 		.ascii	"\213`\332(\242Yt\356M\027\305b\022\2525\266!\217.Dq"
 153      A25974EE 
 153      4D17C562 
 153      12AA35B6 
 153      218F2E44 
 154 003d A3D6452B 		.ascii	"\243\326E+Rz\203.\032\245\334\006\021\233\240\330@\265"
ARM GAS  /tmp/ccz3D8ma.s 			page 12


 154      527A832E 
 154      1AA5DC06 
 154      119BA0D8 
 154      40B5
 155 004f BAB2184C 		.ascii	"\272\262\030L\3224u\374\377\2313\257\020sg\206 \035"
 155      D23475FC 
 155      FF9933AF 
 155      10736786 
 155      201D
 156 0061 B8FFF9CF 		.ascii	"\270\377\371\317\234\363\177\377\373\314\341r\306\331"
 156      9CF37FFF 
 156      FBCCE172 
 156      C6D9
 157 006f FAE71CFE 		.ascii	"\372\347\034\376\236\253f\354q\232T1\300\035\300AB*"
 157      9EAB66EC 
 157      719A5431 
 157      C01DC041 
 157      422A
 158 0081 818C5406 		.ascii	"\201\214T\006\005\251\302\243\214i<\202D\216\230|\206"
 158      05A9C2A3 
 158      8C693C82 
 158      448E987C 
 158      86
 159 0092 F8288F13 		.ascii	"\370(\217\023\037#>f\362\306\3738O\020\237$>\0018@\222"
 159      1F233E66 
 159      F2C6FB38 
 159      4F109F24 
 159      3E013840 
 160 00a7 A7E84D9A 		.ascii	"\247\350M\232\336\244\000\007HC\026i\306\320\222\205"
 160      DEA40007 
 160      48431669 
 160      C6D09285 
 161 00b7 1CD21C00 		.ascii	"\034\322\034\000\032\001\3548\227d%\022\215\305\023"
 161      1A01EC38 
 161      97642512 
 161      8DC513
 162 00c6 C9543A93 		.ascii	"\311T:\223\315\301\361\227h\201\265\355d\3475\355\364"
 162      CDC1F197 
 162      6881B5ED 
 162      64E735ED 
 162      F4
 163 00d7 CD0FFF3A 		.ascii	"\315\017\377:\333\364\366TqD\373G\327A\245\245.`\007"
 163      DBF4F654 
 163      7144FB47 
 163      D741A5A5 
 163      2E6007
 164 00ea 91833663 		.ascii	"\221\2036c\340\262\327GS\2544Z\376\366<h\247\265\302"
 164      E0B2D747 
 164      53AC345A 
 164      FEF63C68 
 164      A7B5C2
 165 00fd 1D5DCFAA 		.ascii	"\035]\317\252\344\243\0371\355\302\307Z|J[\323uI\245"
 165      E4A31F31 
 165      EDC2C75A 
 165      7C4A5BD3 
 165      7549A5
 166 0110 E8049691 		.ascii	"\350\004\226\221}\2327V~\317\355\225_\261\361\3413!"
ARM GAS  /tmp/ccz3D8ma.s 			page 13


 166      7D9A3756 
 166      7ECFED95 
 166      5FB1F1E1 
 166      3321
 167 0122 C4B4EF7F 		.ascii	"\304\264\357\177}\361\252v\242\244\353{\375\253\372"
 167      7DF1AA76 
 167      A2A4EB7B 
 167      FDABFA
 168 0131 BC3C11C6 		.ascii	"\274<\021\306\302\213\345w\334b\017X\3345\375V\360H"
 168      C28BE577 
 168      DC620F58 
 168      DC35FD56 
 168      F048
 169 0143 7C35FC7E 		.ascii	"|5\374~\030\227\356\007W\245\215\273\022\345W\317\334"
 169      1897EE07 
 169      57A58DBB 
 169      12E557CF 
 169      DC
 170 0154 ADE032EE 		.ascii	"\255\3402\356\320\371\224)].O\206\251\275/B\324\336"
 170      D0F99429 
 170      5D2E4F86 
 170      A9BD2F42 
 170      D4DE
 171 0166 ECF0D003 		.ascii	"\354\360\320\003\\D\245\037\302\025\304\335\020\211"
 171      5C44A51F 
 171      C215C4DD 
 171      1089
 172 0174 FABF92FB 		.ascii	"\372\277\222\373c\250\344\226\026\3133\356S\226\371"
 172      63A8E496 
 172      16CB33EE 
 172      5396F9
 173 0183 14FB7968 		.ascii	"\024\373yh\264Isi\343\354!\360\347\333\362\021\247\230"
 173      B4497369 
 173      E3EC21F0 
 173      E7DBF211 
 173      A798
 174 0195 387BD89F 		.ascii	"8{\330\237T\351\227\2413n}\012g\217T\222\354\005\366"
 174      54E997A1 
 174      336E7D0A 
 174      678F5492 
 174      EC05F6
 175 01a8 292FDDD4 		.ascii	")/\335\324\365\237\376\376}a\015j\332\200u\302e\330"
 175      F59FFEFE 
 175      7D610D6A 
 175      DA8075C2 
 175      65D8
 176 01ba C938F402 		.ascii	"\3118\364\002\206\265\023\256\340D\306q\032GE,F\030"
 176      86B513AE 
 176      E044C671 
 176      1A47452C 
 176      4618
 177 01cc 06218A44 		.ascii	"\006!\212D\216\021\211\023I\020I\"\221RH\360\243\210"
 177      8E118913 
 177      49104922 
 177      915248F0 
 177      A388
 178 01de D30C912C 		.ascii	"\323\014\221,\275\313\021WE\\5\221\032\"\265\364\256"
ARM GAS  /tmp/ccz3D8ma.s 			page 14


 178      BDCB1157 
 178      455C3591 
 178      1A22B5F4 
 178      AE
 179 01ef 8E483D4D 		.ascii	"\216H=M\033H\254\221\246M4\335Fd;\221\035D\232i\241"
 179      1B48AC91 
 179      A64D34DD 
 179      46643B91 
 179      1D449A69 
 180 0204 85F4B60A 		.ascii	"\205\364\266\012#\360Q\330\011M\033i3\347\246\251\246"
 180      23F051D8 
 180      094D1B69 
 180      33E7A6A9 
 180      A6
 181 0215 A1BD2247 		.ascii	"\241\275\"G\370\034\020\024;E\352\240B\221\256\261\301"
 181      F81C1014 
 181      3B45EAA0 
 181      4291AEB1 
 181      C1
 182 0226 53838BE3 		.ascii	"S\203\213\343\221N\370\032/\002\335 u\0037b\263\242"
 182      914EF81A 
 182      2F02DD20 
 182      75033762 
 182      B3A2
 183 0238 637A71F3 		.ascii	"czq\3635V\234\277\361\347\014X\033\344]\354\023\015"
 183      35569CBF 
 183      F1E70C58 
 183      1BE45DEC 
 183      130D
 184 024a 9F0E8CA9 		.ascii	"\237\016\214\251`\367\251\020\021\354\323*D\307\330"
 184      60F7A910 
 184      11ECD32A 
 184      44C7D8
 185 0259 39048821 		.ascii	"9\004\210!\326A\263\254\3609\014L\214 F\353\246\202"
 185      D641B3AC 
 185      F0390C4C 
 185      8C2046EB 
 185      A682
 186 026b F8AB83BA 		.ascii	"\370\253\203\272c\2002\300V\011i\267j\253z\006\321L"
 186      638032C0 
 186      560969B7 
 186      6AAB7A06 
 186      D14C
 187 027d D038EA27 		.ascii	"\3208\352'PE\200HN\362\014\234\217&$\013'2\300\336\302"
 187      50458048 
 187      4EF20C9C 
 187      8F26240B 
 187      2732C0DE 
 188 0292 00ED628F 		.ascii	"\000\355b\217\251\220\330X\332\225\3762\223MA\306H\377"
 188      A990D858 
 188      DA95FE32 
 188      934D41C6 
 188      48FF
 189 02a4 492DA742 		.ascii	"I-\247B\262K\030\213`*\244\314\215\035$\205j\347\030"
 189      B24B188B 
 189      602AA4CC 
 189      8D1D2485 
ARM GAS  /tmp/ccz3D8ma.s 			page 15


 189      6AE718
 190 02b7 A0ADD2DA 		.ascii	"\240\255\322\332rc7\264f\326\356\037\242%\305\010(\332"
 190      726337B4 
 190      66D6EE1F 
 190      A225C508 
 190      28DA
 191 02c9 7171E251 		.ascii	"qq\342Q\313\216\250a\207\345\312\313~\\\271\312\276"
 191      CB8EA861 
 191      87E5CACB 
 191      7E5CB9CA 
 191      BE
 192 02da B95DD86D 		.ascii	"\271]\330m\003t\0133\204~\274\243I\270\343\267\302\273"
 192      03740B33 
 192      847EBCA3 
 192      49B8E3B7 
 192      C2BB
 193 02ec E04A9A67 		.ascii	"\340J\232gK\324\264c\376\306\342,\267\366\304\214H\310"
 193      4BD4B463 
 193      FEC6E22C 
 193      B7F6C48C 
 193      48C8
 194 02fe 1552069B 		.ascii	"\025R\006\233\245Lq\3317=V\316\333\320\216\220mB\314"
 194      A54C71D9 
 194      373D56CE 
 194      DBD08E90 
 194      6D42CC
 195 0311 3661C64E 		.ascii	"6a\306Nm\334c\302\025pl\370\022\302\030\341\016\001"
 195      6DDC63C2 
 195      15706CF8 
 195      12C218E1 
 195      0E01
 196 0323 865372EB 		.ascii	"\206Sr\353\217\013\375\037,\375a\227D\302\243\377\015"
 196      8F0BFD1F 
 196      2CFD6197 
 196      44C2A3FF 
 196      0D
 197 0334 47FDD1C0 		.ascii	"G\375\321\300\332\021zf$i\002;UjA\357q\240\237\360\335"
 197      DA117A66 
 197      2469023B 
 197      556A41EF 
 197      71A09FF0 
 198 0349 108AA8B5 		.ascii	"\020\212\250\265\204\211~ii\201\007\305\367a\272\021"
 198      84897E69 
 198      698107C5 
 198      F761BA11 
 199 0359 260ACCCA 		.ascii	"&\012\314\312\322\234\035\274\244\021\230\264A+X\033"
 199      D29C1DBC 
 199      A41198B4 
 199      412B581B 
 200 0369 B1033078 		.ascii	"\261\0030x\322\016l\012!\214C#f\256\234\262W\322Fq\246"
 200      D20E6C0A 
 200      218C4323 
 200      66AE9CB2 
 200      57D24671 
 201 037e 4C9577B2 		.ascii	"L\225w\262\326\353\214'\023\003\216;\257\007\014\227"
 201      D6EB8C27 
 201      13038E3B 
ARM GAS  /tmp/ccz3D8ma.s 			page 16


 201      AF070C97 
 202 038e 6896275D 		.ascii	"h\226']\3722\3562H\2102\270\264\274`wB\326\324\2253"
 202      FA32EE32 
 202      488832B8 
 202      B4BC6077 
 202      42D6D495 
 203 03a3 3C169C6F 		.ascii	"<\026\234o\257\213\363\327m/r\036/\336t\274\350\017"
 203      AF8BF3D7 
 203      6D2F721E 
 203      2FDE74BC 
 203      E80F
 204 03b5 EC85015C 		.ascii	"\354\205\001\\c\001WY\3710\320F=\315\221\253\224\225"
 204      63015759 
 204      F930D046 
 204      3DCD91AB 
 204      9495
 205 03c7 C10B765E 		.ascii	"\301\013v^\253\321YD[\227\255\032\\ \220\264\231\255"
 205      ABD15944 
 205      5B97AD1A 
 205      5C2090B4 
 205      99AD
 206 03d9 E2F3EE32 		.ascii	"\342\363\3562\013\036\025\004\024_\211\345\273\266\216"
 206      0B1E1504 
 206      145F89E5 
 206      BBB68E
 207 03e8 DAAD4B30 		.ascii	"\332\255K0A\177Vo\001\327y\200']g\310YO\230j\375v\361"
 207      417F566F 
 207      01D77980 
 207      275D67C8 
 207      594F986A 
 208 03ff 756F17EF 		.ascii	"uo\027\357\363|v,\354\247\002wq\235U\201I\353 Z]\260"
 208      F37C762C 
 208      ECA70277 
 208      719D5581 
 208      49EB205A 
 209 0415 F352BF61 		.ascii	"\363R\277a\277m\330\275\033\366[\003Bl\334o\3705\302"
 209      BF6DD8BD 
 209      1BF65B03 
 209      426CDC6F 
 209      F835C2
 210 0428 EF52C3FA 		.ascii	"\357R\303\372\266h\\w:\246\254\323y\325i\213\246M\013"
 210      B6685C77 
 210      3AA6ACD3 
 210      79D5698B 
 210      A64D0B
 211 043b A08271C5 		.ascii	"\240\202q\305\371\021\273-\266y\252\267r/\374G\361n"
 211      F911BB2D 
 211      B679AAB7 
 211      722FFC47 
 211      F16E
 212 044d 4793106C 		.ascii	"G\223\020l\235\353;p!h\361nb;\002\212\343p\325)\336"
 212      9DEB3B70 
 212      2168F16E 
 212      623B028A 
 212      E370D529 
 213 0462 E62D2DDE 		.ascii	"\346--\336\020\025\346\353\034o6\027\016\320\177-x\231"
 213      1015E6EB 
ARM GAS  /tmp/ccz3D8ma.s 			page 17


 213      1C6F3617 
 213      0ED07F2D 
 213      7899
 214 0474 CB8894AE 		.ascii	"\313\210\224\256\334\233\266C\330*\300\367;*\367:*\367"
 214      DC9BB643 
 214      D82AC0F7 
 214      3B2AF73A 
 214      2AF7
 215 0486 04FEEA99 		.ascii	"\004\376\352\231\305\223\265n9\267'\355\220\265l\305"
 215      C593B56E 
 215      39B727ED 
 215      90B56CC5 
 216 0496 6D8B0BCF 		.ascii	"m\213\013\317Z\\\267\255\034*\373\216\0250\333Gh}\226"
 216      5A5CB7AD 
 216      1C2AFB8E 
 216      1530DB47 
 216      687D96
 217 04a9 15A6EE45 		.ascii	"\025\246\356E-a+\002h'\311\266\264\267\347\237\355Q"
 217      2D612B02 
 217      6827C9B6 
 217      B4B7E79F 
 217      ED51
 218 04bb 0FAB2FEC 		.ascii	"\017\253/\354\317\277\332\237?\366Z\276\377XW\276\253"
 218      CFBFDA9F 
 218      3FF65ABE 
 218      FF5857BE 
 218      AB
 219 04cc A7E795CE 		.ascii	"\247\347\225\316\276\366.\306\217\366\361\236>\205f"
 219      BEF62EC6 
 219      8FF6F19E 
 219      3E8566
 220 04db 7DFF02A2 		.ascii	"}\377\002\242P\335\215"
 220      50DD8D
 221              		.text
 222              		.section	.gnu.lto_chHeapStatus.ccb22ea4ba686dd0,"",%progbits
 223 0000 789CAD55 		.ascii	"x\234\255U\313KTa\024?\347\273\217y\351\214\257\026"
 223      CB4B5461 
 223      143FE7BB 
 223      8F79E98C 
 223      AF16
 224 0012 43102611 		.ascii	"C\020&\021\241\340P\255\"\302E\177@\205\016\330\246"
 224      A1E050AD 
 224      22C2457F 
 224      40850ED8 
 224      A6
 225 0023 18C718EF 		.ascii	"\030\307\030\357\3022m\245\013\3578\263\2200\220\251"
 225      C2326DA5 
 225      0BEF38B3 
 225      903090A9 
 226 0033 61C45A24 		.ascii	"a\304Z$!\225S\012\255\014\203\306p\241FT\266\311\010"
 226      2195530A 
 226      AD0C83C6 
 226      70A14654 
 226      B6C908
 227 0046 921E48E0 		.ascii	"\222\036H\340\"\027A\271\350v\316}\314\\Chz\\\230\357"
 227      221741B9 
 227      E876CE7D 
ARM GAS  /tmp/ccz3D8ma.s 			page 18


 227      CC5C4368 
 227      7A5C98EF 
 228 005a 7CF73BE7 		.ascii	"|\367;\347\374~\337\371\335s\030\001\002~}\316\320o"
 228      FC7EDFF9 
 228      DD731801 
 228      027E7DCE 
 228      D06F
 229 006c 530538C0 		.ascii	"S\0058\300/\001@\212@!$\000]\310\264\310\022\222A\031"
 229      2F01408A 
 229      40212400 
 229      5DC8B4C8 
 229      12924119 
 230 0080 29041573 		.ascii	")\004\025sU\205\302^\017{=\302\313{\037\357\275H\006"
 230      5585C25E 
 230      0F7B3DC2 
 230      CB7B1FEF 
 230      BD4806
 231 0093 7DE8A7D5 		.ascii	"}\350\247\325\217Hp\010\203B\222\025\325\343\365\371"
 231      8F487008 
 231      83429215 
 231      D5E3F5F9 
 232 00a3 71F0341F 		.ascii	"q\3604\037\201\257\001&t=\263\366ij<|\371\346\320\250"
 232      81AF0126 
 232      743DB3F6 
 232      696A3C7C 
 232      F9E6D0A8 
 233 00b7 FEC33050 		.ascii	"\376\3030PcW\034\241\235vXo\032fw?VZa3\223u\247I\345"
 233      63571CA1 
 233      9D76586F 
 233      1A66773F 
 233      565A6133 
 234 00d0 A5E95F3F 		.ascii	"\245\351_?\236\\\324\323\005\303h\321\270\236\262\250"
 234      9E5CD4D3 
 234      05C368D1 
 234      B89EB2A8 
 235 00e0 DEAD5CFB 		.ascii	"\336\255\\\373\013\252\202\261\2624\201D\231\374b\030"
 235      0BAA82B1 
 235      B2348144 
 235      99FC6218 
 236 00f0 A1720B1B 		.ascii	"\241r\013\033/d^\215\370G\223\303\272a\014j\250\224"
 236      2F645E8D 
 236      F84793C3 
 236      BA610C6A 
 236      A894
 237 0102 C9F53093 		.ascii	"\311\3650\223\013\353\256+\012\330\213\345e\316e\256"
 237      0BEBAE2B 
 237      0AD88BE5 
 237      65CE65AE 
 238 0112 B8331501 		.ascii	"\2703\025\001\373\312\313\324\347:\213JR\326\376\337"
 238      FBCACBD4 
 238      E73A8B4A 
 238      52D6FEDF 
 239 0122 65CD88C2 		.ascii	"e\315\210\302\232a<\272\372\371\3032\326\325!t#5a\014"
 239      9A613CBA 
 239      FAF9C332 
 239      D6D52174 
 239      2335610C 
ARM GAS  /tmp/ccz3D8ma.s 			page 19


 240 0136 6F630348 		.ascii	"oc\003Hd\357\222\225\311\346\311*HN\225#<@\302y\355"
 240      64EF9295 
 240      C9E6C92A 
 240      484E9523 
 240      3C40C279 
 241 014b 639F1DE6 		.ascii	"c\237\035\346\267\323\002\344\224*x\251\244E\016\332"
 241      B7D302E4 
 241      942A78A9 
 241      A4450EDA 
 242 015b 61213BAC 		.ascii	"a!;\254\312\016\253&4\254a\240Z0\025\005\005\322\272"
 242      CA0EAB26 
 242      34AC61A0 
 242      5A301505 
 242      05D2BA
 243 016e 3E5A6FB9 		.ascii	">Zo\271\255`+\325T\233\2366s\215\362\014H\213\260\260"
 243      AD602BD5 
 243      549B9E36 
 243      738DF20C 
 243      488BB0B0 
 244 0182 3EFF3823 		.ascii	">\3778#\305\360>%'P\341\342TweQn\011\351\031\014m\245"
 244      C5F03E25 
 244      2750E1E2 
 244      54776551 
 244      6E09E919 
 245 0199 6E4DEE76 		.ascii	"nM\356v\342\324\001\330\322\207u\375(Ew\243pE\313N\364"
 245      E2D401D8 
 245      D28775FD 
 245      284577A3 
 245      7045CB4E 
 246 01ae CC6411D5 		.ascii	"\314d\021\3253\000\375t\303&h\324\320s\035\306\211\303"
 246      3300FD74 
 246      C32668D4 
 246      D0731DC6 
 246      89C3
 247 01c0 9B402C71 		.ascii	"\233@,qu\240\213\3619\310V\"\200\305R\245\241/\216V"
 247      75A08BF1 
 247      39C85622 
 247      80C552A5 
 247      A12F8E56 
 248 01d4 0881693C 		.ascii	"\010\201i<{D1;\226?\3440x\031\2133L\307l\276\321q\370"
 248      7B44313B 
 248      963FE430 
 248      78198B33 
 248      4CC76CBE 
 249 01eb DC8EADD4 		.ascii	"\334\216\255\324\334\244\352x\374\014N\317A\222\270"
 249      DCA4EA78 
 249      FC0C4ECF 
 249      4192B8
 250 01fa 09A6787B 		.ascii	"\011\246x{L\303\300\316\327s\337\017V\001I)A\213*\215"
 250      4CC3C0CE 
 250      D773DF0F 
 250      56014929 
 250      418B2A8D 
 251 020e 64BBB96A 		.ascii	"d\273\271j\305\252\372\315\330\364\212p\010*\314z\035"
 251      C5AAFACD 
 251      D8F48A70 
 251      082ACC7A 
ARM GAS  /tmp/ccz3D8ma.s 			page 20


 251      1D
 252 021f EC531A1F 		.ascii	"\354S\032\037\230[\022\255\322\242\011$P\264[Sg\322"
 252      985B12AD 
 252      D2A20924 
 252      50B45B53 
 252      67D2
 253 0231 08DB3AEF 		.ascii	"\010\333:\357N\2271\364\213\240\003\\i\002+6\332Y7Z"
 253      4E9731F4 
 253      8BA0035C 
 253      69022B36 
 253      DA59375A 
 254 0245 C54E684A 		.ascii	"\305NhJ\021%5\234\352pP\202\004\224`\006\363x\275$L"
 254      1125359C 
 254      EA705082 
 254      04946006 
 254      F378BD24 
 255 025a 288192A9 		.ascii	"(\201\222\251\032\332\314\257\247\237\240\343\254\262"
 255      1ADACCAF 
 255      A79FA0E3 
 255      ACB2
 256 0268 595B4B95 		.ascii	"Y[K\225\265\224*;\362\307\225YM\243\332\362}\313/\027"
 256      B5942A3B 
 256      F2C79559 
 256      4DA3DAF2 
 256      7DCB2F17 
 257 027c E50B6C93 		.ascii	"\345\013l\223\357\237H\026!\275\221<\\\004.\245\330"
 257      EF9F4816 
 257      21BD913C 
 257      5C042EA5 
 257      D8
 258 028d 9F535037 		.ascii	"\237SP7\310\033\3310\225\247\334\313\305VA\242\306\221"
 258      C81BD930 
 258      95A7DCCB 
 258      C55641A2 
 258      C691
 259 029f DF667791 		.ascii	"\337fw\221\030\312\215\\x\025dj1y!K\237<\250\214\344"
 259      18CA8D5C 
 259      7815646A 
 259      3179214B 
 259      9F3CA88C 
 260 02b4 627C678F 		.ascii	"b|g\2179>\351\215\371\357\245\361\251f\350\340\366\361"
 260      393EE98D 
 260      F9EFA5F1 
 260      A966E8E0 
 260      F6F1
 261 02c6 F15AB52D 		.ascii	"\361Z\265-\315\316\274\267U\244\313'\251\216\000I\274"
 261      CDCEBCB7 
 261      55A4CB27 
 261      A98E0049 
 261      BC
 262 02d7 2D25E15C 		.ascii	"-%\341\\8\312\3771\326\024\031\245)\252\371\037S$l\246"
 262      38CAFF31 
 262      D61419A5 
 262      29AAF91F 
 262      53246CA6 
 263 02eb 1A678A96 		.ascii	"\032g\212\226\356<(J^\233pt\211\262Wz\012I\272}'\037"
 263      EE3C284A 
ARM GAS  /tmp/ccz3D8ma.s 			page 21


 263      5E9B7074 
 263      89B2577A 
 263      0A49BA7D 
 264 0301 BE84620B 		.ascii	"\276\204b\013\324Z!m<\024\014\267\247\2719r\274K\353"
 264      D45A216D 
 264      3C140CB7 
 264      A7B93972 
 264      BC4BEB
 265 0314 D04EB446 		.ascii	"\320N\264F.\364Ez/E\372z\343\221xW\327\271XOs\034\304"
 265      2EF4457A 
 265      2F45FA7A 
 265      E3917857 
 265      D7B9584F 
 266 032b C51E3C2F 		.ascii	"\305\036</\372\372\177\002G\025~\312"
 266      FAFA7F02 
 266      47157ECA 
 267              		.text
 268              		.section	.gnu.lto_.symbol_nodes.ccb22ea4ba686dd0,"",%progbits
 269 0000 789C4DCC 		.ascii	"x\234M\314=\012\302@\020\005\340\367\366/\233S\354Q"
 269      3D0AC240 
 269      1005E0F7 
 269      F62F9B53 
 269      EC51
 270 0012 27120862 		.ascii	"'\022\010b!\242\340\005<Jz\033\301\306FI\273\215\377"
 270      21A2E005 
 270      3C4A7A1B 
 270      C1C64649 
 270      BB8DFF
 271 0025 A2206E48 		.ascii	"\242 nH0\231\356\233\367f\024\024\016\350G](\300b\013"
 271      3099EE9B 
 271      F7661414 
 271      0EE8475D 
 271      28C0620B 
 272 0039 88ECA7B4 		.ascii	"\210\354\247\264g\302\211\346\223\302n[L\250\256\024"
 272      67C289E6 
 272      93C26E5B 
 272      4CA8AE14 
 273 0049 3574D48D 		.ascii	"5t\324\215\242G\274S\314\210\017\212\035\310\027\305"
 273      A247BC53 
 273      CC880F8A 
 273      1DC817C5 
 274 0059 F59F0AF2 		.ascii	"\365\237\012\362C\311\006\275)\376/\215\014\315\361"
 274      43C906BD 
 274      29FE2F8D 
 274      0CCDF1
 275 0068 4BAD3394 		.ascii	"K\2553\224U\014\332\344\250O\311\306\243\231\267\366"
 275      550CDAE4 
 275      A84FC9C6 
 275      A399B7F6 
 276 0078 D82C6330 		.ascii	"\330,c0\006\273U\242\315Q\266\261\365\250\327\311.\357"
 276      06BB55A2 
 276      CD51B6B1 
 276      F5A8D7C9 
 276      2EEF
 277 008a CE5DAACD 		.ascii	"\316]\252\315b\300\017\336EF\321"
 277      62C00FDE 
 277      4546D1
ARM GAS  /tmp/ccz3D8ma.s 			page 22


 278              		.text
 279              		.section	.gnu.lto_.refs.ccb22ea4ba686dd0,"",%progbits
 280 0000 789C6362 		.ascii	"x\234cb`b\020e\200\000V\006FF&&F \000\022,@\314\306"
 280      60621065 
 280      80005606 
 280      46462626 
 280      46200012 
 281 0018 C4C80000 		.ascii	"\304\310\000\000\004\212\000>"
 281      048A003E 
 282              		.text
 283              		.section	.gnu.lto_.decls.ccb22ea4ba686dd0,"",%progbits
 284 0000 789CBD5A 		.ascii	"x\234\275Z{p\024E\032\237\231\315\276\262+ \226\212"
 284      7B701445 
 284      1A9F99CD 
 284      BEB22B20 
 284      968A
 285 0012 96752C96 		.ascii	"\226u,\226zWZd\021\021\261\312\022,\256\024\275C\357"
 285      7A575A64 
 285      1111B1CA 
 285      122CAE14 
 285      BD43EF
 286 0025 CEB2CAFF 		.ascii	"\316\262\312\377\366\206\315\220]\315>\234\235\360\270"
 286      F686CD90 
 286      5DCD3E9C 
 286      9DF0B8
 287 0034 7F9C2412 		.ascii	"\177\234$\022@8\014\341\021^j\"(\344\344\021|\000\001"
 287      40380CE1 
 287      115E6A22 
 287      28E4E411 
 287      7C0001
 288 0047 25234A0C 		.ascii	"%#J\014\"!\200$\034\017]\021\005\205\022\0209#\350\345"
 288      22218024 
 288      1C0F5D11 
 288      05851210 
 288      3923E8E5 
 289 005b BEEEE9D9 		.ascii	"\276\356\351\331\235\351\314lf\027\271\251\364L\357"
 289      9DE9CC6C 
 289      6617B9A9 
 289      F44CEF
 290 006a 6EF7AF7F 		.ascii	"n\367\257\177\337\357\373\372\231\341\030\216\271\305"
 290      DFEFFBFA 
 290      99E1188E 
 290      B9C5
 291 0078 C130BDE8 		.ascii	"\3010\275\350\032\3160\317\271\030\006\376\230\007\231"
 291      1ACE30CF 
 291      B91806FE 
 291      980799
 292 0087 ECE585D4 		.ascii	"\354\345\205\324\010\351\015H\353 -a\031\246\001\322"
 292      08E90D48 
 292      EB202D61 
 292      19A601D2 
 293 0097 6A481B21 		.ascii	"jH\033!\275\013i3$\370cZX\306p\241z\327@\332\002i#\244"
 293      BD0B6933 
 293      24F8635A 
 293      58C670A1 
 293      7AD740DA 
 294 00af 6648DB20 		.ascii	"fH\333 \035\200\324\011i\017\244\355\220\232\320\367"
ARM GAS  /tmp/ccz3D8ma.s 			page 23


 294      1D80D409 
 294      690FA4ED 
 294      909AD0F7 
 295 00bf 50772EA4 		.ascii	"Pw.\244c\220\177\013\236nxn\206\364>\244O!\355\205\264"
 295      63907F0B 
 295      9E6E786E 
 295      86F43EA4 
 295      4F21ED85 
 296 00d4 1FD22148 		.ascii	"\037\322!HG!9t\2746Z\264\217\370\016\204\344\2044\000"
 296      47213974 
 296      BC365AB4 
 296      8FF80E84 
 296      E4843400 
 297 00e8 929F51DB 		.ascii	"\222\237Q\3338@q\242\271\034#|\354\360\340H;\210C\021"
 297      384071A2 
 297      B91C237C 
 297      ECF0E048 
 297      3B884311 
 298 00fc 3CDF83E7 		.ascii	"<\337\203\347BHu\220\026S|\220v\203-\370\214%\3324\023"
 298      42487590 
 298      16537C90 
 298      76832DF8 
 298      8C25DA34 
 299 0111 0EDB093F 		.ascii	"\016\333\011?=\027\215'\342\276\032\222\207\360:j\302"
 299      3D178D27 
 299      E2BE1A92 
 299      87F03A6A 
 299      C2
 300 0122 ED20E1ED 		.ascii	"\355 \341\355 \355n&\276B\034_\206\347+\254\252\327"
 300      20ED6E26 
 300      BE421C5F 
 300      86E72BAC 
 300      AAD7
 301 0134 0E8A23F2 		.ascii	"\016\212#\362\355\000\302K\343\350$>\243\265\242\371"
 301      ED00C24B 
 301      E3E8243E 
 301      A3B5A2F9 
 302 0144 21DE6E1D 		.ascii	"!\336n\035\227\203:~\032/\007iC\343\203>\177\010\317"
 302      97833A7E 
 302      1A2F0769 
 302      43E3833E 
 302      7F08CF
 303 0157 5590DA29 		.ascii	"U\220\332).(\306\006R\\\016\020>M\204\3171\302C\343"
 303      2E28C606 
 303      525C0E10 
 303      3E4D84CF 
 303      31C243E3 
 304 016b B05DC7F1 		.ascii	"\260]\307\361MV\215\347\243\026\376s\2206\364\332\254"
 304      4D568DE7 
 304      A316FE73 
 304      9036F4DA 
 304      AC
 305 017c 83E77AA2 		.ascii	"\203\347z\242\315.\212\317P\346\025\271AI\177\375}\363"
 305      CD2E8ACF 
 305      50E615B9 
 305      41497FFD 
 305      7DF3
ARM GAS  /tmp/ccz3D8ma.s 			page 24


 306 018e 4D724395 		.ascii	"MrC\225\322\333\333:\216\271\201Y$\303\325P#\313\254"
 306      D2DBDB3A 
 306      8EB98159 
 306      24C3D550 
 306      23CBAC
 307 01a1 C4B30F5E 		.ascii	"\304\263\017^\317<\315\362\354\000/\023\300\031\277"
 307      CF3CCDF2 
 307      EC002F13 
 307      C019BF
 308 01b0 17A3320C 		.ascii	"\027\2432\014\317\276\306\336@rO9T<\216\031\3062w2M"
 308      CFBEC6DE 
 308      40724F39 
 308      543C8E19 
 308      C6327732 
 309 01c5 50BF5696 		.ascii	"P\277V\226\253nd\314\256;\230\327Q\003\362\032\331\201"
 309      AB6E64CC 
 309      AE3B98D7 
 309      5103F21A 
 309      D981
 310 01d7 E1114023 		.ascii	"\341\021@#;T_\204gW\262\034M4]\233\356n\232w\323Ry\307"
 310      3B545F84 
 310      6757B21C 
 310      4D345D9B 
 310      EE6E9A77 
 311 01ef 0B726FEF 		.ascii	"\013ro\357\3634\321\261>K\242\253\011Q\007\016n\030"
 311      F334D1B1 
 311      3E4BA2AB 
 311      0951070E 
 311      6E18
 312 0201 01660139 		.ascii	"\001f\0019TqB;x\301\254\326\355\314*0!}\241\246\353"
 312      5471423B 
 312      78C1ACD6 
 312      EDCC2A30 
 312      217DA1A6 
 313 0216 025B05F8 		.ascii	"\002[\005\370<\333\304z\241\366Q\226\005\274U\354\235"
 313      3CDBC47A 
 313      A1F65196 
 313      05BC55EC 
 313      9D
 314 0227 19A24EAF 		.ascii	"\031\242N\257\2218|\326\012 <\3743\311\240Ai\240^.\254"
 314      91387CD6 
 314      0A203CFC 
 314      33C9A041 
 314      69A05E2E 
 315 023c D85714A4 		.ascii	"\330W\024\244\006\264\266\257\002\340\252\235\227\012"
 315      06B4B6AF 
 315      02E0AA9D 
 315      970A
 316 024a 72D57AA3 		.ascii	"r\325z\243\002>\346\305\254\002\203\231\371\010%0\353"
 316      023EE6C5 
 316      AC028399 
 316      F9082530 
 316      EB
 317 025b 2B362386 		.ascii	"+6#\206\314i\010\201\254\032\255/m\177@\226=<\273\221"
 317      CC690881 
 317      AC1AAD2F 
 317      6D7F4096 
ARM GAS  /tmp/ccz3D8ma.s 			page 25


 317      3D3CBB91 
 318 026f 1D0C3875 		.ascii	"\035\0148u\234\221x\3778\034\323\200\353\274\003\365"
 318      9C9178FF 
 318      381CD380 
 318      EBBC03F5 
 319 027f D59A1859 		.ascii	"\325\232\030YVZk\374r\221\372=c\"\006\271\2061\015\300"
 319      565A6BFC 
 319      7291FA3D 
 319      632206B9 
 319      86310DC0 
 320 0293 5AD9D7B6 		.ascii	"Z\331\327\266\002$\330\301\032\214P\235\234\303\225"
 320      0224D8C1 
 320      1A8C509D 
 320      9CC395
 321 02a2 DD2DBB39 		.ascii	"\335-\2739L~\013T\344\230\265\024y\233`\210\3356\000"
 321      4C7E0B54 
 321      E498B514 
 321      799B6088 
 321      DD3600
 322 02b5 30E7D8E7 		.ascii	"0\347\330\3477\216i\311\030l\006G\262\352E\012\350\215"
 322      378E69C9 
 322      186C0647 
 322      B2EA450A 
 322      E88D
 323 02c7 9541F383 		.ascii	"\225A\363\203\363\331\225\325\362\254j\327uL\035\322"
 323      F3D995D5 
 323      F2AC6AD7 
 323      754C1DD2 
 324 02d7 5771E905 		.ascii	"Wq\351\005\036\247axps\037\341\346\266\263\327\031\365"
 324      1EA76178 
 324      70731FE1 
 324      E6B6B3D7 
 324      19F5
 325 02e9 5DD0E608 		.ascii	"]\320\346\010\250_\367/\357\242\232\227n\226\033\346"
 325      A85FF72F 
 325      EFA29A97 
 325      6E961BE6 
 326 02f9 0E21BD44 		.ascii	"\016!\275D\251\221g\261\225\033o1o\221\210\273\257\353"
 326      A99167B1 
 326      951B6F31 
 326      6F9188BB 
 326      AFEB
 327 030b FB46D24F 		.ascii	"\373F\322Ov\340~\322C\311\233\017X\375\262\275\037\020"
 327      76E07ED2 
 327      43C99B0F 
 327      58FDB2BD 
 327      1F10
 328 031d B09D18EC 		.ascii	"\260\235\030\354'G\301`\015\363\217\267;\260\333\333"
 328      2747C160 
 328      0DF38FB7 
 328      3BB0DBDB 
 329 032d 31D40C27 		.ascii	"1\324\014'\335\177\275T\377\365\032\373\257\327\233"
 329      DD7FBD54 
 329      FFF51AFB 
 329      AFD79B
 330 033c CDF46A97 		.ascii	"\315\364j\227q\024\275\252u8\246\326\251\271\324\314"
 330      7114BDAA 
ARM GAS  /tmp/ccz3D8ma.s 			page 26


 330      7538A6D6 
 330      A9B9D4CC 
 331 034c 4C1B11B4 		.ascii	"L\033\021\264\367\323\277V\312\312\013\016\322?\033"
 331      F7D3BF56 
 331      CACA0B0E 
 331      D23F1B
 332 035b C6E9063D 		.ascii	"\306\351\006=\003\026\242\265\207\356\232\365ml@\375"
 332      0316A2B5 
 332      87EE9AF5 
 332      6D6C40FD 
 333 036b BABFD091 		.ascii	"\272\277\320\221\225W\333v\263r\235\237\004j\203\313"
 333      9557DB76 
 333      B3729D9F 
 333      046A83CB 
 334 037b 6A744548 		.ascii	"jtEH\235t\214.m\343\002\352\327\375\307\350\362\232"
 334      9D748C2E 
 334      6DE302EA 
 334      D7FDC7E8 
 334      F29A
 335 038d 97CD8600 		.ascii	"\227\315\206\000\235H}\332;\000\205\311\3051\213\261"
 335      9D487DDA 
 335      3B0085C9 
 335      C5318BB1 
 336 039d A69D16C5 		.ascii	"\246\235\026\305\373\323\264JY\321\346\257\345y\266"
 336      FBD3B44A 
 336      59D1E6AF 
 336      E579B6
 337 03ac 190F25CB 		.ascii	"\031\017%\313\013\005\313\\0.b\214=\005\016\023U\312"
 337      0B05CB5C 
 337      302E628C 
 337      3D050E13 
 337      55CA
 338 03be 4632266A 		.ascii	"F2&j\363\324ky\343\005\372pZ]h\340\3510\232\234\324"
 338      F3D46B79 
 338      E305FA70 
 338      5A5D68E0 
 338      E9309A9C 
 339 03d3 F06786E1 		.ascii	"\360g\206\341\261\262KV\016=\\\313k\363\212.\232dV\253"
 339      B1B24B56 
 339      0E3D5CCB 
 339      6BF38A2E 
 339      9A6456AB 
 340 03e7 3B88C98C 		.ascii	";\210\311\214\033\235\247\323.\334\325\217\341\351i"
 340      1B9DA7D3 
 340      2EDCD58F 
 340      E1E969
 341 03f6 BFD37C7A 		.ascii	"\277\323|z\262\204\341\230\303\270J\232\356\002\027"
 341      B284E198 
 341      C3B84A9A 
 341      EE0217
 342 0405 F880FA6D 		.ascii	"\370\200\372m\377=\340\342\327^\350\000&M\231\016tg"
 342      FF3DE0E2 
 342      D75EE800 
 342      264D990E 
 342      7467
 343 0417 959B77C9 		.ascii	"\225\233w\311\362 \236=\201\031\277\3502el\335a9f\031"
 343      F2209E3D 
ARM GAS  /tmp/ccz3D8ma.s 			page 27


 343      8119BFE8 
 343      32656CDD 
 343      61396619 
 344 042b AE729262 		.ascii	"\256r\222b\234\336|\241\247d\011F>ikJ=?\307\244?\231"
 344      9CDE7CA1 
 344      A7640946 
 344      3E696B4A 
 344      3D3FC7A4 
 345 0441 58D150A4 		.ascii	"X\321P\2445\377\307\254\031\213\317\366\270\261\356"
 345      35FFC7AC 
 345      198BCFF6 
 345      B8B1EE
 346 0450 67B0151D 		.ascii	"g\260\025\035\346VX\303pL7\256r\266\257\025\235cT+\316"
 346      E65658C3 
 346      704C37AE 
 346      72B6AF15 
 346      9D63542B 
 347 0465 DAB2A27E 		.ascii	"\332\262\242~\336\313\244\023\234\306\035\363\313\014"
 347      DECBA413 
 347      9CC61DF3 
 347      CB0C
 348 0473 6C619D6A 		.ascii	"la\235jY\007\356\345*\330\251\274\301\002\006\260W;"
 348      5907EEE5 
 348      2AD8A9BC 
 348      C10206B0 
 348      573B
 349 0485 D41E6A7F 		.ascii	"\324\036j\177\361\331\372\2232\344}l\376O\270O\277\341"
 349      F1D9FA93 
 349      32E47D6C 
 349      FE4FB84F 
 349      BFE1
 350 0497 369D066D 		.ascii	"6\235\006m \325/\333\251\315\250\2270\324\372\202\241"
 350      20D52FDB 
 350      A9CDA897 
 350      30D4FA82 
 350      A1
 351 04a8 E61F57EA 		.ascii	"\346\037W\352\331j\014\365+\206\332\354\246gT75\243"
 351      D96A0CF5 
 351      2B86DAEC 
 351      A6675437 
 351      35A3
 352 04ba BA8D339D 		.ascii	"\272\2153\235\333\233\315\220\025\361\325-\3161;\334"
 352      DB9BCD90 
 352      15F1D52D 
 352      CE313BDC 
 353 04ca 367C673D 		.ascii	"6|g=\012\2457]P\356_\252\237B-g6\216\331\205\333\252"
 353      0AA5375D 
 353      50EE5FAA 
 353      9F422D67 
 353      368ED985 
 354 04e0 E2A858DE 		.ascii	"\342\250X\336\327\365i\025[\211uC\277\365\037\314\357"
 354      D7F56915 
 354      5B897543 
 354      BFF51FCC 
 354      EF
 355 04f1 7E526FAF 		.ascii	"~Ro\257KfV\330\267\341\366\367\341\366g\322\355_\376"
 355      4B6656D8 
ARM GAS  /tmp/ccz3D8ma.s 			page 28


 355      B7E1F6F7 
 355      E1F667D2 
 355      ED5FFE
 356 0504 EFA9B16A 		.ascii	"\357\251\261j_\232i\253\371}\373\027\232\315\260\026"
 356      5F9A69AB 
 356      F97DFB17 
 356      9ACDB016 
 357 0514 5B8CCC32 		.ascii	"[\214\3142\360\233\363\304\3109\034\3524\263=tp\214"
 357      F09BF3C4 
 357      C8391CEA 
 357      34B33D74 
 357      708C
 358 0526 F5E91BC3 		.ascii	"\365\351\033\303\237\015\353\345:\217F\277\240>\013"
 358      9F0DEBE5 
 358      3A8F46BF 
 358      A03E0B
 359 0535 76B63FD6 		.ascii	"v\266?\326\364\226,\317vi\034\026\345\215\0300(\361"
 359      F4962CCF 
 359      76691C16 
 359      E58D1830 
 359      28F1
 360 0547 D97E3C0A 		.ascii	"\331~<\012\250`K\354\200YFR\225\322\245\007[\2367\230"
 360      A8604BEC 
 360      80594652 
 360      95D2A507 
 360      5B9E3798 
 361 055b 91D9213D 		.ascii	"\221\331!=\330+v\300\006Y3;\254\007k\314\033\314\310"
 361      D82B76C0 
 361      0659333B 
 361      AC076BCC 
 361      1BCCC8
 362 056e ECA81E6C 		.ascii	"\354\250\036l\225\035\260!\326\314>\327\203\255\311"
 362      951DB021 
 362      D6CC3ED7 
 362      83ADC9
 363 057d 1BCCC8EC 		.ascii	"\033\314\310\354\234\036l\255\035\260\200\011\263\314"
 363      9C1E6CAD 
 363      1DB08009 
 363      B3CC
 364 058b 65B5DAAC 		.ascii	"e\265\332\254\341t\253\315\015\036mH(|\201\370\266'"
 364      E174ABCD 
 364      0D1E6D48 
 364      287C81F8 
 364      B627
 365 059d DF21CC60 		.ascii	"\337!\314`7\232K\357\337J\372\205:\241\265\330A\314"
 365      379A4BEF 
 365      DF4AFA85 
 365      3AA1B5D8 
 365      41CC
 366 05af 11309BF4 		.ascii	"\0210\233\364\263\343\007y\203\031\335\362\031\0023"
 366      B3E30779 
 366      8319DDF2 
 366      190233
 367 05be 8C35644A 		.ascii	"\2145dJJ\277\256\014Y\222\035\355<\032\026\332N\251"
 367      4ABFAE0C 
 367      59921DED 
 367      3C1A16DA 
ARM GAS  /tmp/ccz3D8ma.s 			page 29


 367      4EA9
 368 05d0 435BAD2C 		.ascii	"C[\255,s\231\302\362\220!\346eyv\015w;\334\2338o\206"
 368      7399C2F2 
 368      9021E665 
 368      79760D77 
 368      3BDC9B38 
 369 05e6 859AD772 		.ascii	"\205\232\327r\352nk\227\207:\"\323\256\376\252ZE\302"
 369      EA6E6B97 
 369      873A22D3 
 369      AEFEAA5A 
 369      45C2
 370 05f8 1BFA48E8 		.ascii	"\033\372H\350\260#S\216\256p\256\217L\352\206\333\252"
 370      B023538E 
 370      AE70AE8F 
 370      4CEA86DB 
 370      AA
 371 0609 F175FAC6 		.ascii	"\361u\372\306\017\346\335\270\321G\227;V\334(\247\025"
 371      0FE6DDB8 
 371      D147973B 
 371      56DC28A7 
 371      15
 372 061a 5627764E 		.ascii	"V'vN\317\240\025\314\251n\262Xh\346\320b!\3551]w\330"
 372      CFA015CC 
 372      A96EB258 
 372      68E6D062 
 372      21ED315D 
 373 0630 80AA5FB6 		.ascii	"\200\252_\266\356.\274\310|\033\003}[0\320\374\343\351"
 373      EE2EBCC8 
 373      7C1B037D 
 373      5B30D0FC 
 373      E3E9
 374 0642 6AC26913 		.ascii	"j\302i\023\206:\337g\216b\251\005\014k\\b\260\336l\246"
 374      863ADF67 
 374      8E62A905 
 374      0C6B5C62 
 374      B0DE6CA6 
 375 0656 CFB6FE37 		.ascii	"\317\266\3767,\3131\227i\217\031\014\3121>e:}\373\003"
 375      2CCB3197 
 375      698F190C 
 375      CA313E65 
 375      3A7DFB03 
 376 066a 2DEB65B9 		.ascii	"-\353e\271\332\225\217\317\322\232\317\266a}\252\275"
 376      DA958FCF 
 376      D29ACFB6 
 376      617DAABD 
 377 067a B43E6F73 		.ascii	"\264>os\371\011\3041s\274\371\032\342\241\0149W\200"
 377      F909C431 
 377      73BCF91A 
 377      E2A10C39 
 377      5780
 378 068c 21E73443 		.ascii	"!\3474C\024l\310\202\337\300\220\345y\0332Hg\010\336"
 378      146CC882 
 378      DFC090E5 
 378      791B3248 
 378      6708DE
 379 069f 983DDE82 		.ascii	"\230=\336\202\207a[\207$;9\352\220\344\342^t\032\203"
 379      87615B87 
ARM GAS  /tmp/ccz3D8ma.s 			page 30


 379      243B39EA 
 379      90E4E25E 
 379      741A83
 380 06b2 BEEE7F2F 		.ascii	"\276\356\177/\272`\277n\307!\333\333q\264\223\035G;"
 380      BA60BF6E 
 380      C721DBDB 
 380      71B4931D 
 380      473B
 381 06c4 56EC35AF 		.ascii	"V\3545\257I/\263\203\324P\177\370zt\240\273\033\303"
 381      492FB383 
 381      D4507FF8 
 381      7A74A0BB 
 381      1BC3
 382 06d6 AC291406 		.ascii	"\254)\024\006:kO\015\361a\007\206j\356\343C\027\345"
 382      3A6B4F0D 
 382      F1610786 
 382      6AEEE343 
 382      17E5
 383 06e8 4297D185 		.ascii	"B\227\321\205\360\021\265\325\203\217\323\236'\337\240"
 383      F011B5D5 
 383      838FD39E 
 383      27DFA0
 384 06f7 0F6EE6FF 		.ascii	"\017n\346\377^\217c\266b\372\310}\205\254nQ\370(\217"
 384      5E8F63B6 
 384      62FAC87D 
 384      85AC6E51 
 384      F8288F
 385 070a B690595C 		.ascii	"\266\220Y\\u\321\007W\204X\245\264\326i{\346\261h\036"
 385      75D10757 
 385      8458A5B4 
 385      D6697BE6 
 385      B1681E
 386 071d FFE40AE1 		.ascii	"\377\344\012\341\360\302\3170AQ\263\325\031\213\351"
 386      F0C2CF30 
 386      4151B3D5 
 386      198BE9
 387 072c 27732492 		.ascii	"'s$\222\036\262\026G\340!\274B\333\327\307\337\247Y"
 387      1EB21647 
 387      E021BC42 
 387      DBD7C7DF 
 387      A759
 388 073e 6A0771DA 		.ascii	"j\007q\332x\344n\325\225\272\365S\341\211+\366\303\241"
 388      78E46ED5 
 388      95BAF553 
 388      E1892BF6 
 388      C3A1
 389 0750 3F19FDF0 		.ascii	"?\031\375\360\335\025\012\267t\201\275\023\230\277k"
 389      DD150AB7 
 389      7481BD13 
 389      98BF6B
 390 075f 587E6CC8 		.ascii	"X~l\310\017\270\3314\275\333\353\335\360e\015\331\360"
 390      0FB8D934 
 390      BDDBEBDD 
 390      F0650DD9 
 390      F0
 391 0770 A76D6CF7 		.ascii	"\247ml\367d\345\010>\267\322\016\242\032\2135T\322\352"
 391      64E5083E 
ARM GAS  /tmp/ccz3D8ma.s 			page 31


 391      B7D20EA2 
 391      1A8B3554 
 391      D2EA
 392 0782 38FD0AB3 		.ascii	"8\375\012\263_y\224\317\205\366\021\371\214:\247\310"
 392      5F7994CF 
 392      85F611F9 
 392      8C3AA7C8 
 393 0792 A8F30D96 		.ascii	"\250\363\015\226\262\251\230\366\371nz\234\316\253\323"
 393      B2A998F6 
 393      F96E7A9C 
 393      CEABD3
 394 07a1 6DA0ADB1 		.ascii	"m\240\255\261\273g\313\\V1\365\205>\246\336-\276\242"
 394      BB67CB5C 
 394      5631F585 
 394      3EA6DE2D 
 394      BEA2
 395 07b3 0880983A 		.ascii	"\010\200\230:5Q]\241S]&m\321e\020\2033z\006\357]\031"
 395      35515DA1 
 395      535D266D 
 395      D1651083 
 395      337A06EF 
 396 07c9 03E5C881 		.ascii	"\003\345\310\201\374\217\250"
 396      FC8FA8
 397 07d0 0E11D79D 		.ascii	"\016\021\327\235\305\256\373\260\217\353.\321\213);"
 397      C5AEFBB0 
 397      8FEB2ED1 
 397      8B293B
 398 07df E7357B0B 		.ascii	"\3475{\0135$sqLW\261\215\325n\300\350^]\014\203;\322"
 398      35247371 
 398      4C57B18D 
 398      D56EC0E8 
 398      5E5D0C83 
 399 07f5 4FA85DBC 		.ascii	"O\250]\274\337C\237\314\330\325~S;\026\343\"\207z\321"
 399      DF439FCC 
 399      D8D57E53 
 399      3B16E322 
 399      877AD1
 400 0808 614A0C1B 		.ascii	"aJ\014\033\207G\337\342*=tw\206a\237\034\347\366\330"
 400      8747DFE2 
 400      2A3D7477 
 400      86619F1C 
 400      E7F6D8
 401 081b 3ABC3930 		.ascii	":\27490G\177\020\312\263\027X\216\300\026\252\247\301"
 401      477F10CA 
 401      B317588E 
 401      C016AAA7 
 401      C1
 402 082c 85597EE0 		.ascii	"\205Y~\340_\274\253\272\314\015\323k\377\263\035\355"
 402      5FBCABBA 
 402      CC0DD36B 
 402      FFB31DED 
 403 083c FF601588 		.ascii	"\377`\025\210\262\262\250k\005\253\362W\307\243j\037"
 403      B2B2A86B 
 403      05ABF257 
 403      C7A36A1F 
 404 084c 8567361E 		.ascii	"\205g6\036\031\360\364\276\254R\232\273\360VU\215\321"
 404      19F0F4BE 
ARM GAS  /tmp/ccz3D8ma.s 			page 32


 404      AC529ABB 
 404      F056558D 
 404      D1
 405 085d 79349819 		.ascii	"y4\230\031\271\021\326`\255\2135q\317\340)j\251\035"
 405      B911D660 
 405      AD8B3571 
 405      CFE0296A 
 405      A91D
 406 086f BC3156C6 		.ascii	"\2741V\306V)\335]\332\277n\324c\336\225y\343\031\371"
 406      5629DD5D 
 406      DABF6ED4 
 406      63DE9579 
 406      E319F9
 407 0882 5D5C6C98 		.ascii	"]\\l\230\321\327\333\201\033g\333\367\331Cz\236=\317"
 407      D1D7DB81 
 407      1B67DBF7 
 407      D9437A9E 
 407      3DCF
 408 0894 22DFFFC0 		.ascii	"\"\337\377\300\016\203\373\217\370\376\037|\257\344"
 408      0E83FB8F 
 408      F8FE1F7C 
 408      AFE4
 409 08a2 D0BD11DF 		.ascii	"\320\275\021\337W\342\373\353\370\276\026\3377\340\373"
 409      57E2FBEB 
 409      F8BE16DF 
 409      37E0FB
 410 08b1 567C6FC5 		.ascii	"V|o\305\367\217\360\375G|\377\025\337{\361\275\322\201"
 410      F78FF0FD 
 410      477CFF15 
 410      DF7BF1BD 
 410      D281
 411 08c3 EED5F83E 		.ascii	"\356\325\370>\303\241\2130\253\321\220Z\012h\201\177"
 411      C3A18B30 
 411      ABD1905A 
 411      0A68817F 
 412 08d3 B2E0FF00 		.ascii	"\262\340\377\000\374\260;s\306\001\275:o\260@.%O\352"
 412      FCB03B73 
 412      C601BD3A 
 412      6FB0402E 
 412      254FEA
 413 08e6 94FC162B 		.ascii	"\224\374\026+\371\035Vo\246\303\320\2276\371\264\377"
 413      F91D566F 
 413      A6C3D097 
 413      36F9B4FF 
 414 08f6 49153217 		.ascii	"I\0252\027W\241\377\212\271\361\331\265vT\263\235\006"
 414      57A1FF8A 
 414      B9F1D9B5 
 414      7654B39D 
 414      06
 415 0907 B43B1D12 		.ascii	"\264;\035\022M~\201\311\235\232\241\216\345\230\241"
 415      4D7E81C9 
 415      9D9AA18E 
 415      E598A1
 416 0916 E63A7433 		.ascii	"\346:t3T[\336m\347\2240\255\223\3608\226\360+,\341l"
 416      545BDE6D 
 416      E79430AD 
 416      93F03896 
ARM GAS  /tmp/ccz3D8ma.s 			page 33


 416      F02B2CE1 
 417 092b 1C32738C 		.ascii	"\0342s\214B\356\361Q\377\2124\376\367O\227\265\327\023"
 417      42EEF151 
 417      FF8A34FE 
 417      F74F97B5 
 417      D713
 418 093d DED135BE 		.ascii	"\336\3215\276\0117\276\0317\376>\276\037em\304ksv-K"
 418      0937BE19 
 418      37FE3EBE 
 418      1F656DC4 
 418      6B73762D 
 419 0952 5ECCD10E 		.ascii	"^\314\321\016\3103\037\233\324\371\223zg\350\200\317"
 419      C8331F9B 
 419      D4F9937A 
 419      67E880CF 
 420 0962 38B5DCC6 		.ascii	"8\265\334\306\254\224\345\272\364\316K\347\212\300\327"
 420      AC94E5BA 
 420      F4CE4BE7 
 420      8AC0D7
 421 0971 45DA7FA6 		.ascii	"E\332\177\246O\340b\353\330\241\246\014H\373j]\271["
 421      4FE062EB 
 421      D8A1A60C 
 421      48FB6A5D 
 421      B95B
 422 0983 9840468C 		.ascii	"\230@F\214\357\372\25156[\251\027Uj\302\273\346\177"
 422      EFFAA935 
 422      365BA917 
 422      556AC2BB 
 422      E67F
 423 0995 E3DE615D 		.ascii	"\343\336a]\213\030B^\376\372\247<c\020\233y\373k\035"
 423      8B18425E 
 423      FEFAA73C 
 423      63109B79 
 423      FB6B1D
 424 09a8 FDF6D77C 		.ascii	"\375\366\327|\207\311\273OJ\367'\350\365\002\371\227"
 424      87C9BB4F 
 424      4AF727E8 
 424      F502F997 
 425 09b8 DEDEEAA2 		.ascii	"\336\336\352\242<\336\376Z\3520\274\373\244\232\335"
 425      3CDEFE5A 
 425      EA30BCFB 
 425      A49ADD
 426 09c7 8FC0DF9B 		.ascii	"\217\300\337\233\012,/B\3666\343\321`\201\003\331\273"
 426      0A2C2F42 
 426      F636E3D1 
 426      608103D9 
 426      BB
 427 09d8 C46147DB 		.ascii	"\304aG\333}\264L\326\325\3642U\311\033jf\014*\"1a]\213"
 427      7DB44CD6 
 427      D5F43255 
 427      C91B6A66 
 427      0C2A2231 
 428 09ef D8B9C254 		.ascii	"\330\271\302T\264#\363\254E\313\361\302X#-\032\376G"
 428      B423F3AC 
 428      45CBF1C2 
 428      58232D1A 
 428      FE47
ARM GAS  /tmp/ccz3D8ma.s 			page 34


 429 0a01 8D41A34B 		.ascii	"\215A\243K\346\032}Q\252\005\322\014?*\320`i\253\032"
 429      E61A7D51 
 429      AA05D20C 
 429      3F2AD060 
 429      69AB1A
 430 0a14 EAA61181 		.ascii	"\352\246\021\201*\031\"b\245\251q\233\353\346Z\276\015"
 430      2A192262 
 430      A5A9719B 
 430      EBE65ABE 
 430      0D
 431 0a25 D794E35C 		.ascii	"\327\224\343\\tM\216\220\240\306\266\\0o:|\006\222\006"
 431      744D8E90 
 431      A0C6B65C 
 431      306F3A7C 
 431      069206
 432 0a38 7966FA4D 		.ascii	"yf\372M\345YJ\207\320j[!\204\273'j\217c\026b`\353j\204"
 432      E5594A87 
 432      D06A5B21 
 432      84BB276A 
 432      8F631662 
 433 0a50 1509A18D 		.ascii	"\025\011\241\215'\3762A\013+\353Z\304\200\265}UN\243"
 433      27FE3241 
 433      0B2BEB5A 
 433      C480B57D 
 433      554EA3
 434 0a63 172B7A6E 		.ascii	"\027+zn\261z\3532G\010\275E\213\214\246\002J\244e\224"
 434      B17AEB32 
 434      4708BD45 
 434      8B8CA602 
 434      4AA46594 
 435 0a77 481A9177 		.ascii	"H\032\221w\314\210([>\236+\263\265\225\351\336\336\241"
 435      CC88285B 
 435      3E9E2BB3 
 435      B595E9DE 
 435      DEA1
 436 0a89 2A3CC7FC 		.ascii	"*<\307\374\313\002`\223)@s_\200M\026\000[\214\000\267"
 436      CB026093 
 436      2940735F 
 436      804D1600 
 436      5B8C00B7 
 437 0a9d 328DB2D2 		.ascii	"2\215\262\322\231\236q\362\034W)+\260\030\207\230c\207"
 437      999E71F2 
 437      1C57292B 
 437      B0188798 
 437      6387
 438 0aaf 6AAF422A 		.ascii	"j\257B*\031\020mn1\274\367\210\360\266f\361\250\010"
 438      19106D6E 
 438      31BCF788 
 438      F0B666F1 
 438      A808
 439 0ac1 433CAC34 		.ascii	"C<\2544\334\226\2150\304\240\263S9\362\361l\231\225"
 439      DC968D30 
 439      C4A0B353 
 439      39F2F16C 
 439      9995
 440 0ad3 6BE4CA73 		.ascii	"k\344\312s\260Y\272\226\251\305\007\004K\320+\213\\"
 440      B059BA96 
ARM GAS  /tmp/ccz3D8ma.s 			page 35


 440      A9C50704 
 440      4BD02B8B 
 440      5C
 441 0ae4 26506765 		.ascii	"&Pgef\266kqU}\261&\353b<\273\335\241\346\014\233w\\"
 441      66B66B71 
 441      557DB126 
 441      EB623CBB 
 441      DDA1E60C 
 442 0afb C28A60AB 		.ascii	"\302\212`\253#\373O\021\277\227\241\346Q\206*\205\246"
 442      23FB4F11 
 442      BF97A1E6 
 442      51862A85 
 442      A6
 443 0b0c 613F35BB 		.ascii	"a?5\273\320,`\353\346gI=\330G@\223\257\242=AK\207\034"
 443      D02C60EB 
 443      E667493D 
 443      D8474093 
 443      AFA23D41 
 444 0b23 0864C687 		.ascii	"\010d\306\207%\372\361\201(s\241\243\177e\236\326\332"
 444      25FAF181 
 444      2873A1A3 
 444      7F659ED6 
 444      DA
 445 0b34 F2E51286 		.ascii	"\362\345\022\206*\005[\321\274ui\263\320\245\330\240"
 445      2A055BD1 
 445      BC7569B3 
 445      D0A5D8A0 
 446 0b44 8B560AB2 		.ascii	"\213V\012\262\012\036\014t\203%E\002fs3Y~\336\253\227"
 446      0A1E0C74 
 446      83254502 
 446      66733359 
 446      7EDEAB97 
 447 0b58 C5306C92 		.ascii	"\3050l\222\022\013\027\310\034\227)\261\3320\260\376"
 447      120B17C8 
 447      1C9729B1 
 447      DA30B0FE 
 448 0b68 AEA42438 		.ascii	"\256\244$8>\022\235\024}\342\311`\"\025\024\245`J\014"
 448      3E129D14 
 448      7DE2C960 
 448      221514A5 
 448      604A0C
 449 0b7b 07C39188 		.ascii	"\007\303\221\210\300'K\302Lq\010eB\321xTr=\362\370S"
 449      C0274BC2 
 449      4C710865 
 449      42D17854 
 449      723DF2F8 
 450 0b90 81F1CCED 		.ascii	"\201\361\314\355}*D\343\341\362\212R\001*\305\204X8"
 450      7D2A44E3 
 450      E1F28A52 
 450      012AC584 
 450      5838
 451 0ba2 210A2511 		.ascii	"!\012%\021\246\222\015\306'\247P\2727\030I\304\204\240"
 451      A6920DC6 
 451      27A750BA 
 451      371849C4 
 451      84A0
 452 0bb4 28A4045E 		.ascii	"(\244\004^\014G\202\021^,\235\312\213B\220\027c#\203"
ARM GAS  /tmp/ccz3D8ma.s 			page 36


 452      0C478211 
 452      5E2C9DCA 
 452      8B429017 
 452      632383
 453 0bc7 65E1F070 		.ascii	"e\341\360p\310\014\027b\223\204\322R\2414\363E<\021"
 453      C80C1762 
 453      9384D252 
 453      A134F345 
 453      3C11
 454 0bd9 17860BFC 		.ascii	"\027\206\013\374\244\350\360Q\2411\303G\216\270{\324"
 454      A4E8F051 
 454      A131C347 
 454      8EB87BD4 
 455 0be9 732383E5 		.ascii	"s#\203\345\321I\250@\320P 8\252dL\311\250\014\213\224"
 455      D149A840 
 455      D0502038 
 455      AA644CC9 
 455      A80C8B94 
 456 0bfd 04389381 		.ascii	"\0048\223\201\202+\025\375\207\020\222|\341\310x\340"
 456      822B15FD 
 456      8710927C 
 456      E1C878E0 
 457 0c0d F4507979 		.ascii	"\364Pyy\"|k\016\356\330\340\010s\015\330\220\020\247"
 457      227C6B0E 
 457      EED8E008 
 457      730DD890 
 457      10A7
 458 0c1f AB664B3E 		.ascii	"\253fK>\335'?\344\313\004irE<\034\222\212#\241\244\230"
 458      DD273FE4 
 458      CB046972 
 458      453C1C92 
 458      8A23A1A4 
 459 0c34 98122D15 		.ascii	"\230\022-\025D\037.\0127\310\377\276O\003\311\204(\245"
 459      441F2E0A 
 459      37C8FFBE 
 459      4F03C984 
 459      28A5
 460 0c46 820FFD6D 		.ascii	"\202\017\375m\342\370\211\323\240\025\"OqJz\226/\217"
 460      E2F889D3 
 460      A015224F 
 460      714A7A96 
 460      2F8F
 461 0c58 96C54352 		.ascii	"\226\305CR\352j\010e\024H'M4.A\363\236\012x\216\036"
 461      EA6A0865 
 461      1448274D 
 461      342E41F3 
 461      9E0A788E 
 462 0c6d 1592AAAF 		.ascii	"\025\222\252\257\212\233\314[\217\361\341H4.\004C\340"
 462      8A9BCC5B 
 462      8FF1E148 
 462      342E0443 
 462      E0
 463 0c7e 1EBEA25C 		.ascii	"\036\276\242\\\012I\323\223B\012\211\021\012i|\234X"
 463      0A49D393 
 463      420A8911 
 463      0A697C9C 
 463      58
ARM GAS  /tmp/ccz3D8ma.s 			page 37


 464 0c8f 94A2B830 		.ascii	"\224\242\2700M*B\262\262\025E\310\213l\304\025\011M"
 464      4D2A42B2 
 464      B21545C8 
 464      8B6CC415 
 464      094D
 465 0ca1 16056158 		.ascii	"\026\005aX\256\340\223\246\001\230;V!\011\323B\222'"
 465      AEE093A6 
 465      01983B56 
 465      2109D342 
 465      9227
 466 0cb3 1C09E1EC 		.ascii	"\034\011\341\354\0359\252\244\246\2474\022\003\245\210"
 466      1D39AAA4 
 466      A6A73412 
 466      03A588
 467 0cc2 082E4C85 		.ascii	"\010.L\205\236\253\020* l\006A}\303W\271b'\025\216\224"
 467      9EAB102A 
 467      206C0641 
 467      7DC357B9 
 467      6227158E 
 468 0cd7 2259D50A 		.ascii	"\"Y\325\012!\311\233\251\354J\206\2201\360H\212\302"
 468      21C99BA9 
 468      EC4A8690 
 468      31F0488A 
 468      C2
 469 0ce8 94D1FD84 		.ascii	"\224\321\375\204G\"\226\214\226\013b*\370\310\370\361"
 469      4722968C 
 469      960B622A 
 469      F8C8F8F1 
 470 0cf8 00AB7173 		.ascii	"\000\253qsKI1\232\000\233\220L\367\214\204\350S\025"
 470      4B49319A 
 470      009B904C 
 470      F78C84E8 
 470      5315
 471 0d0a 43598C1C 		.ascii	"CY\214\034M\270\303\2118\030+\371\020 tW),M\273\313"
 471      4DB8C389 
 471      38182BF9 
 471      10207457 
 471      292C4DBB 
 472 0d1f 4E3086A6 		.ascii	"N0\206\246\334\027C\324E\241\014\334\026\2228q\024'"
 472      DC1743D4 
 472      45A10CDC 
 472      16923871 
 472      1427
 473 0d31 DECB89A3 		.ascii	"\336\313\211\2439\361>N\034\303\211\367;\304\273G@\272"
 473      39F13E4E 
 473      1CC389F7 
 473      3BC4BB47 
 473      40BA
 474 0d43 9B2B17E1 		.ascii	"\233+\027\341q\2173\031\002l7\262k\252 \3023Q\016\201"
 474      718F3319 
 474      026C37B2 
 474      6BAA20C2 
 474      33510E81 
 475 0d57 5F148680 		.ascii	"_\024\206\200A\306\3621\2418\031\202\360.\217\306\242"
 475      41C6F231 
 475      A1381982 
 475      F02E8FC6 
ARM GAS  /tmp/ccz3D8ma.s 			page 38


 475      A2
 476 0d68 92474A49 		.ascii	"\222GJI\274\004r\272\021\3371\240\214\312\034rnT\012"
 476      BC0472BA 
 476      11DF31A0 
 476      8CCA1C72 
 476      6E540A
 477 0d7b 7E734BB1 		.ascii	"~sK\261D\251\200?O.\347\313RnI\024&\247\260a(\343\214"
 477      44A9803F 
 477      4F2EE7CB 
 477      526E4914 
 477      26A7B061 
 478 0d92 A5CAE047 		.ascii	"\245\312\340Gb-T\327\354\026K\247\303O\036aZT\012\003"
 478      622D54D7 
 478      EC164BA7 
 478      C34F1E61 
 478      5A540A03 
 479 0da6 806BAA94 		.ascii	"\200k\252\224\230\364Lr0q\001T\025D!\036\006`\347TI"
 479      98F44C72 
 479      30710154 
 479      1544211E 
 479      0660E754 
 480 0dbb 1293EE94 		.ascii	"\022\223\356\224\020\227\240\202\037\\\223\022b|2\002"
 480      1097A082 
 480      1F5C9312 
 480      627C3202 
 481 0dcb C6E70A27 		.ascii	"\306\347\012'(\204\244'\336w\206\343\020\260\316T\010"
 481      2884A427 
 481      DE7786E3 
 481      10B0CE54 
 481      08
 482 0ddc 9ED014FC 		.ascii	"\236\320\024\374\230\204\007\204\\\322'LA\310|\352Y"
 482      98840784 
 482      5CD2274C 
 482      41C87CEA 
 482      59
 483 0ded 20254C45 		.ascii	" %LE\031G2T1@\013\236\362h\012j\016\324\205\023\372"
 483      19473254 
 483      31400B9E 
 483      F2680A6A 
 483      0ED48513 
 484 0e02 C69B0C4D 		.ascii	"\306\233\014M\345\243R4^\006j\001-\334\010d\205\244"
 484      E5A35234 
 484      5E066A01 
 484      2DDC0864 
 484      85A4
 485 0e14 10874E5A 		.ascii	"\020\207NZ\006\277\0038*Y\214t\340\313\261\223\341\313"
 485      06BF0338 
 485      2A598C74 
 485      E0CBB193 
 485      E1CB
 486 0e26 642251EE 		.ascii	"d\"Q\356\216\251\244\340\231\230\032\027DW\014\007\231"
 486      8EA9A4E0 
 486      99981A17 
 486      44570C07 
 486      99
 487 0e37 3382EA40 		.ascii	"3\202\352@\340N\200\236\363\304\244g\204\260\364(\214"
 487      E04E809E 
ARM GAS  /tmp/ccz3D8ma.s 			page 39


 487      F3C4A467 
 487      84B0F428 
 487      8C
 488 0e48 DB4ED491 		.ascii	"\333N\324\221\222\216I\025\223}\352Ox(,V\363\017C\247"
 488      928E4915 
 488      937DEA4F 
 488      78282C56 
 488      F30F43A7 
 489 0e5c 62937EF5 		.ascii	"b\223~\365\303\223\340\217\212\224\023\365\270$\020"
 489      C393E08F 
 489      8A9413F5 
 489      B82410
 490 0e6b 9E284DCB 		.ascii	"\236(M\313\242\370\360\347\247\342P\365Y/\316\377\031"
 490      A2F8F0E7 
 490      A7E250F5 
 490      592FCEFF 
 490      19
 491 0e7c 727EAD2F 		.ascii	"r~\255/\2436<\241\020\036\034C\327h\231\222\321\243"
 491      A3363CA1 
 491      101E1C43 
 491      D7689992 
 491      D1A3
 492 0e8e 46DCA3FF 		.ascii	"F\334\243\3774r\304\377\000\003\261'("
 492      3472C4FF 
 492      0003B127 
 492      28
 493              		.text
 494              		.section	.gnu.lto_.symtab.ccb22ea4ba686dd0,"",%progbits
 495 0000 5F686561 		.ascii	"_heap_init\000\000\000\000\000\000\000\000\000\000\000"
 495      705F696E 
 495      69740000 
 495      00000000 
 495      00000000 
 496 0015 00A10000 		.ascii	"\000\241\000\000\000chHeapObjectInit\000\000\000\000"
 496      00636848 
 496      6561704F 
 496      626A6563 
 496      74496E69 
 497 002e 00000000 		.ascii	"\000\000\000\000\000\000\000\000\255\000\000\000chH"
 497      00000000 
 497      AD000000 
 497      636848
 498 003d 65617041 		.ascii	"eapAlloc\000\000\000\000\000\000\000\000\000\000\000"
 498      6C6C6F63 
 498      00000000 
 498      00000000 
 498      000000
 499 0050 00980100 		.ascii	"\000\230\001\000\000chHeapFree\000\000\000\000\000\000"
 499      00636848 
 499      65617046 
 499      72656500 
 499      00000000 
 500 0065 00000000 		.ascii	"\000\000\000\000\000\000\240\001\000\000chHeapStatu"
 500      0000A001 
 500      00006368 
 500      48656170 
 500      53746174 
ARM GAS  /tmp/ccz3D8ma.s 			page 40


 501 007a 73000000 		.ascii	"s\000\000\000\000\000\000\000\000\000\000\000\000\247"
 501      00000000 
 501      00000000 
 501      00A7
 502 0088 01000063 		.ascii	"\001\000\000chCoreAlloc\000\000\002\000\000\000\000"
 502      68436F72 
 502      65416C6C 
 502      6F630000 
 502      02000000 
 503 009d 00000000 		.ascii	"\000\000\000\000\000\246\000\000\000chMtxObjectInit"
 503      00A60000 
 503      0063684D 
 503      74784F62 
 503      6A656374 
 504 00b5 00000200 		.ascii	"\000\000\002\000\000\000\000\000\000\000\000\000\261"
 504      00000000 
 504      00000000 
 504      B1
 505 00c2 01000063 		.ascii	"\001\000\000chMtxUnlock\000\000\002\000\000\000\000"
 505      684D7478 
 505      556E6C6F 
 505      636B0000 
 505      02000000 
 506 00d7 00000000 		.ascii	"\000\000\000\000\000\265\001\000\000chMtxLock\000\000"
 506      00B50100 
 506      0063684D 
 506      74784C6F 
 506      636B0000 
 507 00eb 02000000 		.ascii	"\002\000\000\000\000\000\000\000\000\000\267\001\000"
 507      00000000 
 507      0000B701 
 507      00
 508 00f8 00       		.ascii	"\000"
 509              		.text
 510              		.section	.gnu.lto_.opts,"",%progbits
 511 0000 272D6D63 		.ascii	"'-mcpu=cortex-m4' '-mno-thumb-interwork' '-mthumb' "
 511      70753D63 
 511      6F727465 
 511      782D6D34 
 511      2720272D 
 512 0033 272D6767 		.ascii	"'-ggdb' '-O0' '-fomit-frame-pointer' '-falign-funct"
 512      64622720 
 512      272D4F30 
 512      2720272D 
 512      666F6D69 
 513 0066 696F6E73 		.ascii	"ions=16' '-ffunction-sections' '-fdata-sections' '-"
 513      3D313627 
 513      20272D66 
 513      66756E63 
 513      74696F6E 
 514 0099 666E6F2D 		.ascii	"fno-common' '-flto'\000"
 514      636F6D6D 
 514      6F6E2720 
 514      272D666C 
 514      746F2700 
 515              		.text
 516              		.cfi_sections	.debug_frame
ARM GAS  /tmp/ccz3D8ma.s 			page 41


 517              		.section	.bss.default_heap,"aw",%nobits
 518              		.align	3
 519              		.type	default_heap, %object
 520              		.size	default_heap, 32
 521              	default_heap:
 522 0000 00000000 		.space	32
 522      00000000 
 522      00000000 
 522      00000000 
 522      00000000 
 523              		.section	.text._heap_init,"ax",%progbits
 524              		.align	2
 525              		.p2align 4,,15
 526              		.global	_heap_init
 527              		.thumb
 528              		.thumb_func
 529              		.type	_heap_init, %function
 530              	_heap_init:
 531              	.LFB241:
 532              		.file 1 "../ChibiOS/os/rt/src/chheap.c"
 533              		.loc 1 91 0
 534              		.cfi_startproc
 535              		@ args = 0, pretend = 0, frame = 0
 536              		@ frame_needed = 0, uses_anonymous_args = 0
 537 0000 08B5     		push	{r3, lr}
 538              		.cfi_def_cfa_offset 8
 539              		.cfi_offset 3, -8
 540              		.cfi_offset 14, -4
 541              		.loc 1 93 0
 542 0002 064B     		ldr	r3, .L2
 543 0004 064A     		ldr	r2, .L2+4
 544 0006 1A60     		str	r2, [r3]
 545              		.loc 1 94 0
 546 0008 044B     		ldr	r3, .L2
 547 000a 0022     		movs	r2, #0
 548 000c 9A60     		str	r2, [r3, #8]
 549              		.loc 1 95 0
 550 000e 034B     		ldr	r3, .L2
 551 0010 0022     		movs	r2, #0
 552 0012 DA60     		str	r2, [r3, #12]
 553              		.loc 1 97 0
 554 0014 0348     		ldr	r0, .L2+8
 555 0016 FFF7FEFF 		bl	chMtxObjectInit
 556              		.loc 1 101 0
 557 001a 08BD     		pop	{r3, pc}
 558              	.L3:
 559              		.align	2
 560              	.L2:
 561 001c 00000000 		.word	default_heap
 562 0020 00000000 		.word	chCoreAlloc
 563 0024 10000000 		.word	default_heap+16
 564              		.cfi_endproc
 565              	.LFE241:
 566              		.size	_heap_init, .-_heap_init
 567 0028 AFF30080 		.section	.text.chHeapObjectInit,"ax",%progbits
 567      AFF30080 
 568              		.align	2
ARM GAS  /tmp/ccz3D8ma.s 			page 42


 569              		.p2align 4,,15
 570              		.global	chHeapObjectInit
 571              		.thumb
 572              		.thumb_func
 573              		.type	chHeapObjectInit, %function
 574              	chHeapObjectInit:
 575              	.LFB242:
 576              		.loc 1 114 0
 577              		.cfi_startproc
 578              		@ args = 0, pretend = 0, frame = 24
 579              		@ frame_needed = 0, uses_anonymous_args = 0
 580 0000 00B5     		push	{lr}
 581              		.cfi_def_cfa_offset 4
 582              		.cfi_offset 14, -4
 583 0002 87B0     		sub	sp, sp, #28
 584              		.cfi_def_cfa_offset 32
 585 0004 0390     		str	r0, [sp, #12]
 586 0006 0291     		str	r1, [sp, #8]
 587 0008 0192     		str	r2, [sp, #4]
 588              		.loc 1 115 0
 589 000a 029B     		ldr	r3, [sp, #8]
 590 000c 0593     		str	r3, [sp, #20]
 591              		.loc 1 119 0
 592 000e 039B     		ldr	r3, [sp, #12]
 593 0010 0022     		movs	r2, #0
 594 0012 1A60     		str	r2, [r3]
 595              		.loc 1 120 0
 596 0014 039B     		ldr	r3, [sp, #12]
 597 0016 059A     		ldr	r2, [sp, #20]
 598 0018 9A60     		str	r2, [r3, #8]
 599              		.loc 1 121 0
 600 001a 039B     		ldr	r3, [sp, #12]
 601 001c 0022     		movs	r2, #0
 602 001e DA60     		str	r2, [r3, #12]
 603              		.loc 1 122 0
 604 0020 059B     		ldr	r3, [sp, #20]
 605 0022 0022     		movs	r2, #0
 606 0024 1A60     		str	r2, [r3]
 607              		.loc 1 123 0
 608 0026 019B     		ldr	r3, [sp, #4]
 609 0028 A3F10802 		sub	r2, r3, #8
 610 002c 059B     		ldr	r3, [sp, #20]
 611 002e 5A60     		str	r2, [r3, #4]
 612              		.loc 1 125 0
 613 0030 039B     		ldr	r3, [sp, #12]
 614 0032 1033     		adds	r3, r3, #16
 615 0034 1846     		mov	r0, r3
 616 0036 FFF7FEFF 		bl	chMtxObjectInit
 617              		.loc 1 129 0
 618 003a 07B0     		add	sp, sp, #28
 619              		@ sp needed
 620 003c 5DF804FB 		ldr	pc, [sp], #4
 621              		.cfi_endproc
 622              	.LFE242:
 623              		.size	chHeapObjectInit, .-chHeapObjectInit
 624              		.section	.text.chHeapAlloc,"ax",%progbits
 625              		.align	2
ARM GAS  /tmp/ccz3D8ma.s 			page 43


 626              		.p2align 4,,15
 627              		.global	chHeapAlloc
 628              		.thumb
 629              		.thumb_func
 630              		.type	chHeapAlloc, %function
 631              	chHeapAlloc:
 632              	.LFB243:
 633              		.loc 1 147 0
 634              		.cfi_startproc
 635              		@ args = 0, pretend = 0, frame = 24
 636              		@ frame_needed = 0, uses_anonymous_args = 0
 637 0000 00B5     		push	{lr}
 638              		.cfi_def_cfa_offset 4
 639              		.cfi_offset 14, -4
 640 0002 87B0     		sub	sp, sp, #28
 641              		.cfi_def_cfa_offset 32
 642 0004 0190     		str	r0, [sp, #4]
 643 0006 0091     		str	r1, [sp]
 644              		.loc 1 150 0
 645 0008 019B     		ldr	r3, [sp, #4]
 646 000a 002B     		cmp	r3, #0
 647 000c 01D1     		bne	.L6
 648              		.loc 1 151 0
 649 000e 374B     		ldr	r3, .L14
 650 0010 0193     		str	r3, [sp, #4]
 651              	.L6:
 652              		.loc 1 154 0
 653 0012 009B     		ldr	r3, [sp]
 654 0014 0733     		adds	r3, r3, #7
 655 0016 23F00703 		bic	r3, r3, #7
 656 001a 0093     		str	r3, [sp]
 657              		.loc 1 155 0
 658 001c 019B     		ldr	r3, [sp, #4]
 659 001e 0833     		adds	r3, r3, #8
 660 0020 0593     		str	r3, [sp, #20]
 661              		.loc 1 157 0
 662 0022 019B     		ldr	r3, [sp, #4]
 663 0024 1033     		adds	r3, r3, #16
 664 0026 1846     		mov	r0, r3
 665 0028 FFF7FEFF 		bl	chMtxLock
 666              		.loc 1 158 0
 667 002c 36E0     		b	.L7
 668              	.L12:
 669              		.loc 1 159 0
 670 002e 059B     		ldr	r3, [sp, #20]
 671 0030 1B68     		ldr	r3, [r3]
 672 0032 0493     		str	r3, [sp, #16]
 673              		.loc 1 160 0
 674 0034 049B     		ldr	r3, [sp, #16]
 675 0036 5A68     		ldr	r2, [r3, #4]
 676 0038 009B     		ldr	r3, [sp]
 677 003a 9A42     		cmp	r2, r3
 678 003c 2CD3     		bcc	.L8
 679              		.loc 1 161 0
 680 003e 049B     		ldr	r3, [sp, #16]
 681 0040 5A68     		ldr	r2, [r3, #4]
 682 0042 009B     		ldr	r3, [sp]
ARM GAS  /tmp/ccz3D8ma.s 			page 44


 683 0044 0833     		adds	r3, r3, #8
 684 0046 9A42     		cmp	r2, r3
 685 0048 04D2     		bcs	.L9
 686              		.loc 1 165 0
 687 004a 049B     		ldr	r3, [sp, #16]
 688 004c 1A68     		ldr	r2, [r3]
 689 004e 059B     		ldr	r3, [sp, #20]
 690 0050 1A60     		str	r2, [r3]
 691 0052 16E0     		b	.L10
 692              	.L9:
 693              		.loc 1 170 0
 694 0054 009B     		ldr	r3, [sp]
 695 0056 0833     		adds	r3, r3, #8
 696 0058 049A     		ldr	r2, [sp, #16]
 697 005a 1344     		add	r3, r3, r2
 698 005c 0393     		str	r3, [sp, #12]
 699              		.loc 1 172 0
 700 005e 049B     		ldr	r3, [sp, #16]
 701 0060 1A68     		ldr	r2, [r3]
 702 0062 039B     		ldr	r3, [sp, #12]
 703 0064 1A60     		str	r2, [r3]
 704              		.loc 1 173 0
 705 0066 049B     		ldr	r3, [sp, #16]
 706 0068 5A68     		ldr	r2, [r3, #4]
 707 006a 009B     		ldr	r3, [sp]
 708 006c D31A     		subs	r3, r2, r3
 709 006e A3F10802 		sub	r2, r3, #8
 710 0072 039B     		ldr	r3, [sp, #12]
 711 0074 5A60     		str	r2, [r3, #4]
 712              		.loc 1 174 0
 713 0076 059B     		ldr	r3, [sp, #20]
 714 0078 039A     		ldr	r2, [sp, #12]
 715 007a 1A60     		str	r2, [r3]
 716              		.loc 1 175 0
 717 007c 049B     		ldr	r3, [sp, #16]
 718 007e 009A     		ldr	r2, [sp]
 719 0080 5A60     		str	r2, [r3, #4]
 720              	.L10:
 721              		.loc 1 177 0
 722 0082 049B     		ldr	r3, [sp, #16]
 723 0084 019A     		ldr	r2, [sp, #4]
 724 0086 1A60     		str	r2, [r3]
 725              		.loc 1 178 0
 726 0088 019B     		ldr	r3, [sp, #4]
 727 008a 1033     		adds	r3, r3, #16
 728 008c 1846     		mov	r0, r3
 729 008e FFF7FEFF 		bl	chMtxUnlock
 730              		.loc 1 181 0
 731 0092 049B     		ldr	r3, [sp, #16]
 732 0094 0833     		adds	r3, r3, #8
 733 0096 24E0     		b	.L11
 734              	.L8:
 735              		.loc 1 184 0
 736 0098 049B     		ldr	r3, [sp, #16]
 737 009a 0593     		str	r3, [sp, #20]
 738              	.L7:
 739              		.loc 1 158 0 discriminator 1
ARM GAS  /tmp/ccz3D8ma.s 			page 45


 740 009c 059B     		ldr	r3, [sp, #20]
 741 009e 1B68     		ldr	r3, [r3]
 742 00a0 002B     		cmp	r3, #0
 743 00a2 C4D1     		bne	.L12
 744              		.loc 1 186 0
 745 00a4 019B     		ldr	r3, [sp, #4]
 746 00a6 1033     		adds	r3, r3, #16
 747 00a8 1846     		mov	r0, r3
 748 00aa FFF7FEFF 		bl	chMtxUnlock
 749              		.loc 1 190 0
 750 00ae 019B     		ldr	r3, [sp, #4]
 751 00b0 1B68     		ldr	r3, [r3]
 752 00b2 002B     		cmp	r3, #0
 753 00b4 14D0     		beq	.L13
 754              		.loc 1 191 0
 755 00b6 019B     		ldr	r3, [sp, #4]
 756 00b8 1B68     		ldr	r3, [r3]
 757 00ba 009A     		ldr	r2, [sp]
 758 00bc 0832     		adds	r2, r2, #8
 759 00be 1046     		mov	r0, r2
 760 00c0 9847     		blx	r3
 761 00c2 0490     		str	r0, [sp, #16]
 762              		.loc 1 192 0
 763 00c4 049B     		ldr	r3, [sp, #16]
 764 00c6 002B     		cmp	r3, #0
 765 00c8 0AD0     		beq	.L13
 766              		.loc 1 193 0
 767 00ca 049B     		ldr	r3, [sp, #16]
 768 00cc 019A     		ldr	r2, [sp, #4]
 769 00ce 1A60     		str	r2, [r3]
 770              		.loc 1 194 0
 771 00d0 049B     		ldr	r3, [sp, #16]
 772 00d2 009A     		ldr	r2, [sp]
 773 00d4 5A60     		str	r2, [r3, #4]
 774              		.loc 1 195 0
 775 00d6 049B     		ldr	r3, [sp, #16]
 776 00d8 0833     		adds	r3, r3, #8
 777 00da 0493     		str	r3, [sp, #16]
 778              		.loc 1 198 0
 779 00dc 049B     		ldr	r3, [sp, #16]
 780 00de 00E0     		b	.L11
 781              	.L13:
 782              		.loc 1 203 0
 783 00e0 0023     		movs	r3, #0
 784              	.L11:
 785              		.loc 1 204 0
 786 00e2 1846     		mov	r0, r3
 787 00e4 07B0     		add	sp, sp, #28
 788              		@ sp needed
 789 00e6 5DF804FB 		ldr	pc, [sp], #4
 790              	.L15:
 791 00ea 00BF     		.align	2
 792              	.L14:
 793 00ec 00000000 		.word	default_heap
 794              		.cfi_endproc
 795              	.LFE243:
 796              		.size	chHeapAlloc, .-chHeapAlloc
ARM GAS  /tmp/ccz3D8ma.s 			page 46


 797              		.section	.text.chHeapFree,"ax",%progbits
 798              		.align	2
 799              		.p2align 4,,15
 800              		.global	chHeapFree
 801              		.thumb
 802              		.thumb_func
 803              		.type	chHeapFree, %function
 804              	chHeapFree:
 805              	.LFB244:
 806              		.loc 1 213 0
 807              		.cfi_startproc
 808              		@ args = 0, pretend = 0, frame = 24
 809              		@ frame_needed = 0, uses_anonymous_args = 0
 810 0000 00B5     		push	{lr}
 811              		.cfi_def_cfa_offset 4
 812              		.cfi_offset 14, -4
 813 0002 87B0     		sub	sp, sp, #28
 814              		.cfi_def_cfa_offset 32
 815 0004 0190     		str	r0, [sp, #4]
 816              		.loc 1 220 0
 817 0006 019B     		ldr	r3, [sp, #4]
 818 0008 083B     		subs	r3, r3, #8
 819 000a 0493     		str	r3, [sp, #16]
 820              		.loc 1 222 0
 821 000c 049B     		ldr	r3, [sp, #16]
 822 000e 1B68     		ldr	r3, [r3]
 823 0010 0393     		str	r3, [sp, #12]
 824              		.loc 1 223 0
 825 0012 039B     		ldr	r3, [sp, #12]
 826 0014 0833     		adds	r3, r3, #8
 827 0016 0593     		str	r3, [sp, #20]
 828              		.loc 1 225 0
 829 0018 039B     		ldr	r3, [sp, #12]
 830 001a 1033     		adds	r3, r3, #16
 831 001c 1846     		mov	r0, r3
 832 001e FFF7FEFF 		bl	chMtxLock
 833              	.L23:
 834              		.loc 1 229 0
 835 0022 039B     		ldr	r3, [sp, #12]
 836 0024 03F10802 		add	r2, r3, #8
 837 0028 059B     		ldr	r3, [sp, #20]
 838 002a 9A42     		cmp	r2, r3
 839 002c 03D0     		beq	.L17
 840              		.loc 1 229 0 is_stmt 0 discriminator 2
 841 002e 049A     		ldr	r2, [sp, #16]
 842 0030 059B     		ldr	r3, [sp, #20]
 843 0032 9A42     		cmp	r2, r3
 844 0034 3ED9     		bls	.L18
 845              	.L17:
 846              		.loc 1 230 0 is_stmt 1 discriminator 1
 847 0036 059B     		ldr	r3, [sp, #20]
 848 0038 1B68     		ldr	r3, [r3]
 849              		.loc 1 229 0 discriminator 1
 850 003a 002B     		cmp	r3, #0
 851 003c 04D0     		beq	.L19
 852              		.loc 1 230 0
 853 003e 059B     		ldr	r3, [sp, #20]
ARM GAS  /tmp/ccz3D8ma.s 			page 47


 854 0040 1A68     		ldr	r2, [r3]
 855 0042 049B     		ldr	r3, [sp, #16]
 856 0044 9A42     		cmp	r2, r3
 857 0046 35D9     		bls	.L18
 858              	.L19:
 859              		.loc 1 232 0
 860 0048 059B     		ldr	r3, [sp, #20]
 861 004a 1A68     		ldr	r2, [r3]
 862 004c 049B     		ldr	r3, [sp, #16]
 863 004e 1A60     		str	r2, [r3]
 864              		.loc 1 233 0
 865 0050 059B     		ldr	r3, [sp, #20]
 866 0052 049A     		ldr	r2, [sp, #16]
 867 0054 1A60     		str	r2, [r3]
 868              		.loc 1 235 0
 869 0056 049B     		ldr	r3, [sp, #16]
 870 0058 5B68     		ldr	r3, [r3, #4]
 871 005a 0833     		adds	r3, r3, #8
 872 005c 049A     		ldr	r2, [sp, #16]
 873 005e 1A44     		add	r2, r2, r3
 874 0060 049B     		ldr	r3, [sp, #16]
 875 0062 1B68     		ldr	r3, [r3]
 876 0064 9A42     		cmp	r2, r3
 877 0066 0ED1     		bne	.L20
 878              		.loc 1 237 0
 879 0068 049B     		ldr	r3, [sp, #16]
 880 006a 5A68     		ldr	r2, [r3, #4]
 881 006c 049B     		ldr	r3, [sp, #16]
 882 006e 1B68     		ldr	r3, [r3]
 883 0070 5B68     		ldr	r3, [r3, #4]
 884 0072 1344     		add	r3, r3, r2
 885 0074 03F10802 		add	r2, r3, #8
 886 0078 049B     		ldr	r3, [sp, #16]
 887 007a 5A60     		str	r2, [r3, #4]
 888              		.loc 1 238 0
 889 007c 049B     		ldr	r3, [sp, #16]
 890 007e 1B68     		ldr	r3, [r3]
 891 0080 1A68     		ldr	r2, [r3]
 892 0082 049B     		ldr	r3, [sp, #16]
 893 0084 1A60     		str	r2, [r3]
 894              	.L20:
 895              		.loc 1 240 0
 896 0086 059B     		ldr	r3, [sp, #20]
 897 0088 5B68     		ldr	r3, [r3, #4]
 898 008a 0833     		adds	r3, r3, #8
 899 008c 059A     		ldr	r2, [sp, #20]
 900 008e 1A44     		add	r2, r2, r3
 901 0090 049B     		ldr	r3, [sp, #16]
 902 0092 9A42     		cmp	r2, r3
 903 0094 0DD1     		bne	.L21
 904              		.loc 1 242 0
 905 0096 059B     		ldr	r3, [sp, #20]
 906 0098 5A68     		ldr	r2, [r3, #4]
 907 009a 049B     		ldr	r3, [sp, #16]
 908 009c 5B68     		ldr	r3, [r3, #4]
 909 009e 1344     		add	r3, r3, r2
 910 00a0 03F10802 		add	r2, r3, #8
ARM GAS  /tmp/ccz3D8ma.s 			page 48


 911 00a4 059B     		ldr	r3, [sp, #20]
 912 00a6 5A60     		str	r2, [r3, #4]
 913              		.loc 1 243 0
 914 00a8 049B     		ldr	r3, [sp, #16]
 915 00aa 1A68     		ldr	r2, [r3]
 916 00ac 059B     		ldr	r3, [sp, #20]
 917 00ae 1A60     		str	r2, [r3]
 918              		.loc 1 245 0
 919 00b0 04E0     		b	.L22
 920              	.L21:
 921 00b2 03E0     		b	.L22
 922              	.L18:
 923              		.loc 1 247 0
 924 00b4 059B     		ldr	r3, [sp, #20]
 925 00b6 1B68     		ldr	r3, [r3]
 926 00b8 0593     		str	r3, [sp, #20]
 927              		.loc 1 248 0
 928 00ba B2E7     		b	.L23
 929              	.L22:
 930              		.loc 1 249 0
 931 00bc 039B     		ldr	r3, [sp, #12]
 932 00be 1033     		adds	r3, r3, #16
 933 00c0 1846     		mov	r0, r3
 934 00c2 FFF7FEFF 		bl	chMtxUnlock
 935              		.loc 1 251 0
 936 00c6 00BF     		nop
 937              		.loc 1 252 0
 938 00c8 07B0     		add	sp, sp, #28
 939              		@ sp needed
 940 00ca 5DF804FB 		ldr	pc, [sp], #4
 941              		.cfi_endproc
 942              	.LFE244:
 943              		.size	chHeapFree, .-chHeapFree
 944 00ce 00BF     		.section	.text.chHeapStatus,"ax",%progbits
 945              		.align	2
 946              		.p2align 4,,15
 947              		.global	chHeapStatus
 948              		.thumb
 949              		.thumb_func
 950              		.type	chHeapStatus, %function
 951              	chHeapStatus:
 952              	.LFB245:
 953              		.loc 1 267 0
 954              		.cfi_startproc
 955              		@ args = 0, pretend = 0, frame = 24
 956              		@ frame_needed = 0, uses_anonymous_args = 0
 957 0000 00B5     		push	{lr}
 958              		.cfi_def_cfa_offset 4
 959              		.cfi_offset 14, -4
 960 0002 87B0     		sub	sp, sp, #28
 961              		.cfi_def_cfa_offset 32
 962 0004 0190     		str	r0, [sp, #4]
 963 0006 0091     		str	r1, [sp]
 964              		.loc 1 271 0
 965 0008 019B     		ldr	r3, [sp, #4]
 966 000a 002B     		cmp	r3, #0
 967 000c 01D1     		bne	.L26
ARM GAS  /tmp/ccz3D8ma.s 			page 49


 968              		.loc 1 272 0
 969 000e 174B     		ldr	r3, .L31
 970 0010 0193     		str	r3, [sp, #4]
 971              	.L26:
 972              		.loc 1 275 0
 973 0012 019B     		ldr	r3, [sp, #4]
 974 0014 1033     		adds	r3, r3, #16
 975 0016 1846     		mov	r0, r3
 976 0018 FFF7FEFF 		bl	chMtxLock
 977              		.loc 1 276 0
 978 001c 0023     		movs	r3, #0
 979 001e 0393     		str	r3, [sp, #12]
 980              		.loc 1 277 0
 981 0020 0023     		movs	r3, #0
 982 0022 0493     		str	r3, [sp, #16]
 983              		.loc 1 278 0
 984 0024 019B     		ldr	r3, [sp, #4]
 985 0026 0833     		adds	r3, r3, #8
 986 0028 0593     		str	r3, [sp, #20]
 987              		.loc 1 279 0
 988 002a 0BE0     		b	.L27
 989              	.L28:
 990              		.loc 1 280 0
 991 002c 059B     		ldr	r3, [sp, #20]
 992 002e 1B68     		ldr	r3, [r3]
 993 0030 5B68     		ldr	r3, [r3, #4]
 994 0032 039A     		ldr	r2, [sp, #12]
 995 0034 1344     		add	r3, r3, r2
 996 0036 0393     		str	r3, [sp, #12]
 997              		.loc 1 281 0
 998 0038 049B     		ldr	r3, [sp, #16]
 999 003a 0133     		adds	r3, r3, #1
 1000 003c 0493     		str	r3, [sp, #16]
 1001              		.loc 1 282 0
 1002 003e 059B     		ldr	r3, [sp, #20]
 1003 0040 1B68     		ldr	r3, [r3]
 1004 0042 0593     		str	r3, [sp, #20]
 1005              	.L27:
 1006              		.loc 1 279 0 discriminator 1
 1007 0044 059B     		ldr	r3, [sp, #20]
 1008 0046 1B68     		ldr	r3, [r3]
 1009 0048 002B     		cmp	r3, #0
 1010 004a EFD1     		bne	.L28
 1011              		.loc 1 284 0
 1012 004c 009B     		ldr	r3, [sp]
 1013 004e 002B     		cmp	r3, #0
 1014 0050 02D0     		beq	.L29
 1015              		.loc 1 285 0
 1016 0052 009B     		ldr	r3, [sp]
 1017 0054 039A     		ldr	r2, [sp, #12]
 1018 0056 1A60     		str	r2, [r3]
 1019              	.L29:
 1020              		.loc 1 287 0
 1021 0058 019B     		ldr	r3, [sp, #4]
 1022 005a 1033     		adds	r3, r3, #16
 1023 005c 1846     		mov	r0, r3
 1024 005e FFF7FEFF 		bl	chMtxUnlock
ARM GAS  /tmp/ccz3D8ma.s 			page 50


 1025              		.loc 1 289 0
 1026 0062 049B     		ldr	r3, [sp, #16]
 1027              		.loc 1 290 0
 1028 0064 1846     		mov	r0, r3
 1029 0066 07B0     		add	sp, sp, #28
 1030              		@ sp needed
 1031 0068 5DF804FB 		ldr	pc, [sp], #4
 1032              	.L32:
 1033              		.align	2
 1034              	.L31:
 1035 006c 00000000 		.word	default_heap
 1036              		.cfi_endproc
 1037              	.LFE245:
 1038              		.size	chHeapStatus, .-chHeapStatus
 1039              		.text
 1040              	.Letext0:
 1041              		.file 2 "/nfs/nfs5/home/research/hardware/arm2/gcc-arm-embedded/gcc-arm-none-eabi-4_8-2014q2/lib/g
 1042              		.file 3 "/nfs/nfs5/home/research/hardware/arm2/gcc-arm-embedded/gcc-arm-none-eabi-4_8-2014q2/arm-n
 1043              		.file 4 "/nfs/nfs5/home/research/hardware/arm2/gcc-arm-embedded/gcc-arm-none-eabi-4_8-2014q2/arm-n
 1044              		.file 5 "../ChibiOS/os/rt/ports/ARMCMx/compilers/GCC/chtypes.h"
 1045              		.file 6 "../ChibiOS/os/rt/include/chsystypes.h"
 1046              		.file 7 "../ChibiOS/os/rt/include/chschd.h"
 1047              		.file 8 "../ChibiOS/os/rt/ports/ARMCMx/chcore.h"
 1048              		.file 9 "../ChibiOS/os/rt/ports/ARMCMx/chcore_v7m.h"
 1049              		.file 10 "../ChibiOS/os/rt/include/chtm.h"
 1050              		.file 11 "../ChibiOS/os/rt/include/chsem.h"
 1051              		.file 12 "../ChibiOS/os/rt/include/chmtx.h"
 1052              		.file 13 "../ChibiOS/os/rt/include/chmemcore.h"
 1053              		.file 14 "../ChibiOS/os/rt/include/chheap.h"
 1054              		.file 15 "../ChibiOS/os/ext/CMSIS/include/core_cm4.h"
 1055              		.section	.debug_info,"",%progbits
 1056              	.Ldebug_info0:
 1057 0000 CC080000 		.4byte	0x8cc
 1058 0004 0400     		.2byte	0x4
 1059 0006 00000000 		.4byte	.Ldebug_abbrev0
 1060 000a 04       		.byte	0x4
 1061 000b 01       		.uleb128 0x1
 1062 000c C0010000 		.4byte	.LASF123
 1063 0010 01       		.byte	0x1
 1064 0011 9C010000 		.4byte	.LASF124
 1065 0015 B4030000 		.4byte	.LASF125
 1066 0019 00000000 		.4byte	.Ldebug_ranges0+0
 1067 001d 00000000 		.4byte	0
 1068 0021 00000000 		.4byte	.Ldebug_line0
 1069 0025 02       		.uleb128 0x2
 1070 0026 04       		.byte	0x4
 1071 0027 05       		.byte	0x5
 1072 0028 696E7400 		.ascii	"int\000"
 1073 002c 03       		.uleb128 0x3
 1074 002d 0D000000 		.4byte	.LASF2
 1075 0031 02       		.byte	0x2
 1076 0032 D4       		.byte	0xd4
 1077 0033 37000000 		.4byte	0x37
 1078 0037 04       		.uleb128 0x4
 1079 0038 04       		.byte	0x4
 1080 0039 07       		.byte	0x7
 1081 003a A0020000 		.4byte	.LASF0
ARM GAS  /tmp/ccz3D8ma.s 			page 51


 1082 003e 04       		.uleb128 0x4
 1083 003f 01       		.byte	0x1
 1084 0040 06       		.byte	0x6
 1085 0041 DF000000 		.4byte	.LASF1
 1086 0045 03       		.uleb128 0x3
 1087 0046 29000000 		.4byte	.LASF3
 1088 004a 03       		.byte	0x3
 1089 004b 1C       		.byte	0x1c
 1090 004c 50000000 		.4byte	0x50
 1091 0050 04       		.uleb128 0x4
 1092 0051 01       		.byte	0x1
 1093 0052 08       		.byte	0x8
 1094 0053 77040000 		.4byte	.LASF4
 1095 0057 04       		.uleb128 0x4
 1096 0058 02       		.byte	0x2
 1097 0059 05       		.byte	0x5
 1098 005a 9B040000 		.4byte	.LASF5
 1099 005e 04       		.uleb128 0x4
 1100 005f 02       		.byte	0x2
 1101 0060 07       		.byte	0x7
 1102 0061 CD020000 		.4byte	.LASF6
 1103 0065 03       		.uleb128 0x3
 1104 0066 29030000 		.4byte	.LASF7
 1105 006a 03       		.byte	0x3
 1106 006b 37       		.byte	0x37
 1107 006c 70000000 		.4byte	0x70
 1108 0070 04       		.uleb128 0x4
 1109 0071 04       		.byte	0x4
 1110 0072 05       		.byte	0x5
 1111 0073 23010000 		.4byte	.LASF8
 1112 0077 03       		.uleb128 0x3
 1113 0078 83050000 		.4byte	.LASF9
 1114 007c 03       		.byte	0x3
 1115 007d 38       		.byte	0x38
 1116 007e 82000000 		.4byte	0x82
 1117 0082 04       		.uleb128 0x4
 1118 0083 04       		.byte	0x4
 1119 0084 07       		.byte	0x7
 1120 0085 24050000 		.4byte	.LASF10
 1121 0089 04       		.uleb128 0x4
 1122 008a 08       		.byte	0x8
 1123 008b 05       		.byte	0x5
 1124 008c D1000000 		.4byte	.LASF11
 1125 0090 03       		.uleb128 0x3
 1126 0091 2D040000 		.4byte	.LASF12
 1127 0095 03       		.byte	0x3
 1128 0096 4E       		.byte	0x4e
 1129 0097 9B000000 		.4byte	0x9b
 1130 009b 04       		.uleb128 0x4
 1131 009c 08       		.byte	0x8
 1132 009d 07       		.byte	0x7
 1133 009e 5B000000 		.4byte	.LASF13
 1134 00a2 03       		.uleb128 0x3
 1135 00a3 ED050000 		.4byte	.LASF14
 1136 00a7 04       		.byte	0x4
 1137 00a8 2A       		.byte	0x2a
 1138 00a9 45000000 		.4byte	0x45
ARM GAS  /tmp/ccz3D8ma.s 			page 52


 1139 00ad 03       		.uleb128 0x3
 1140 00ae 6F040000 		.4byte	.LASF15
 1141 00b2 04       		.byte	0x4
 1142 00b3 41       		.byte	0x41
 1143 00b4 65000000 		.4byte	0x65
 1144 00b8 03       		.uleb128 0x3
 1145 00b9 EE040000 		.4byte	.LASF16
 1146 00bd 04       		.byte	0x4
 1147 00be 42       		.byte	0x42
 1148 00bf 77000000 		.4byte	0x77
 1149 00c3 03       		.uleb128 0x3
 1150 00c4 20000000 		.4byte	.LASF17
 1151 00c8 04       		.byte	0x4
 1152 00c9 4E       		.byte	0x4e
 1153 00ca 90000000 		.4byte	0x90
 1154 00ce 03       		.uleb128 0x3
 1155 00cf B8050000 		.4byte	.LASF18
 1156 00d3 05       		.byte	0x5
 1157 00d4 39       		.byte	0x39
 1158 00d5 B8000000 		.4byte	0xb8
 1159 00d9 03       		.uleb128 0x3
 1160 00da 07030000 		.4byte	.LASF19
 1161 00de 05       		.byte	0x5
 1162 00df 3C       		.byte	0x3c
 1163 00e0 A2000000 		.4byte	0xa2
 1164 00e4 03       		.uleb128 0x3
 1165 00e5 2C010000 		.4byte	.LASF20
 1166 00e9 05       		.byte	0x5
 1167 00ea 3D       		.byte	0x3d
 1168 00eb A2000000 		.4byte	0xa2
 1169 00ef 03       		.uleb128 0x3
 1170 00f0 38040000 		.4byte	.LASF21
 1171 00f4 05       		.byte	0x5
 1172 00f5 3E       		.byte	0x3e
 1173 00f6 A2000000 		.4byte	0xa2
 1174 00fa 03       		.uleb128 0x3
 1175 00fb 57040000 		.4byte	.LASF22
 1176 00ff 05       		.byte	0x5
 1177 0100 40       		.byte	0x40
 1178 0101 B8000000 		.4byte	0xb8
 1179 0105 03       		.uleb128 0x3
 1180 0106 F5020000 		.4byte	.LASF23
 1181 010a 05       		.byte	0x5
 1182 010b 41       		.byte	0x41
 1183 010c AD000000 		.4byte	0xad
 1184 0110 03       		.uleb128 0x3
 1185 0111 1D030000 		.4byte	.LASF24
 1186 0115 05       		.byte	0x5
 1187 0116 43       		.byte	0x43
 1188 0117 B8000000 		.4byte	0xb8
 1189 011b 03       		.uleb128 0x3
 1190 011c BA010000 		.4byte	.LASF25
 1191 0120 05       		.byte	0x5
 1192 0121 45       		.byte	0x45
 1193 0122 AD000000 		.4byte	0xad
 1194 0126 03       		.uleb128 0x3
 1195 0127 65050000 		.4byte	.LASF26
ARM GAS  /tmp/ccz3D8ma.s 			page 53


 1196 012b 06       		.byte	0x6
 1197 012c 33       		.byte	0x33
 1198 012d B8000000 		.4byte	0xb8
 1199 0131 03       		.uleb128 0x3
 1200 0132 48050000 		.4byte	.LASF27
 1201 0136 06       		.byte	0x6
 1202 0137 3F       		.byte	0x3f
 1203 0138 3C010000 		.4byte	0x13c
 1204 013c 05       		.uleb128 0x5
 1205 013d E0020000 		.4byte	.LASF47
 1206 0141 44       		.byte	0x44
 1207 0142 07       		.byte	0x7
 1208 0143 C2       		.byte	0xc2
 1209 0144 28020000 		.4byte	0x228
 1210 0148 06       		.uleb128 0x6
 1211 0149 BB040000 		.4byte	.LASF28
 1212 014d 07       		.byte	0x7
 1213 014e C3       		.byte	0xc3
 1214 014f 33020000 		.4byte	0x233
 1215 0153 00       		.byte	0
 1216 0154 06       		.uleb128 0x6
 1217 0155 50040000 		.4byte	.LASF29
 1218 0159 07       		.byte	0x7
 1219 015a C5       		.byte	0xc5
 1220 015b 33020000 		.4byte	0x233
 1221 015f 04       		.byte	0x4
 1222 0160 06       		.uleb128 0x6
 1223 0161 CA000000 		.4byte	.LASF30
 1224 0165 07       		.byte	0x7
 1225 0166 C7       		.byte	0xc7
 1226 0167 FA000000 		.4byte	0xfa
 1227 016b 08       		.byte	0x8
 1228 016c 06       		.uleb128 0x6
 1229 016d 30060000 		.4byte	.LASF31
 1230 0171 07       		.byte	0x7
 1231 0172 C8       		.byte	0xc8
 1232 0173 63040000 		.4byte	0x463
 1233 0177 0C       		.byte	0xc
 1234 0178 06       		.uleb128 0x6
 1235 0179 43010000 		.4byte	.LASF32
 1236 017d 07       		.byte	0x7
 1237 017e CA       		.byte	0xca
 1238 017f 33020000 		.4byte	0x233
 1239 0183 10       		.byte	0x10
 1240 0184 06       		.uleb128 0x6
 1241 0185 A6030000 		.4byte	.LASF33
 1242 0189 07       		.byte	0x7
 1243 018a CB       		.byte	0xcb
 1244 018b 33020000 		.4byte	0x233
 1245 018f 14       		.byte	0x14
 1246 0190 06       		.uleb128 0x6
 1247 0191 0D060000 		.4byte	.LASF34
 1248 0195 07       		.byte	0x7
 1249 0196 D2       		.byte	0xd2
 1250 0197 EE050000 		.4byte	0x5ee
 1251 019b 18       		.byte	0x18
 1252 019c 06       		.uleb128 0x6
ARM GAS  /tmp/ccz3D8ma.s 			page 54


 1253 019d 10040000 		.4byte	.LASF35
 1254 01a1 07       		.byte	0x7
 1255 01a2 D8       		.byte	0xd8
 1256 01a3 00060000 		.4byte	0x600
 1257 01a7 1C       		.byte	0x1c
 1258 01a8 06       		.uleb128 0x6
 1259 01a9 A5040000 		.4byte	.LASF36
 1260 01ad 07       		.byte	0x7
 1261 01ae DD       		.byte	0xdd
 1262 01af E4000000 		.4byte	0xe4
 1263 01b3 20       		.byte	0x20
 1264 01b4 06       		.uleb128 0x6
 1265 01b5 C2040000 		.4byte	.LASF37
 1266 01b9 07       		.byte	0x7
 1267 01ba E1       		.byte	0xe1
 1268 01bb D9000000 		.4byte	0xd9
 1269 01bf 21       		.byte	0x21
 1270 01c0 06       		.uleb128 0x6
 1271 01c1 E0050000 		.4byte	.LASF38
 1272 01c5 07       		.byte	0x7
 1273 01c6 E6       		.byte	0xe6
 1274 01c7 EF000000 		.4byte	0xef
 1275 01cb 22       		.byte	0x22
 1276 01cc 07       		.uleb128 0x7
 1277 01cd 705F7500 		.ascii	"p_u\000"
 1278 01d1 07       		.byte	0x7
 1279 01d2 3701     		.2byte	0x137
 1280 01d4 1D050000 		.4byte	0x51d
 1281 01d8 24       		.byte	0x24
 1282 01d9 08       		.uleb128 0x8
 1283 01da 4F030000 		.4byte	.LASF39
 1284 01de 07       		.byte	0x7
 1285 01df 3C01     		.2byte	0x13c
 1286 01e1 39020000 		.4byte	0x239
 1287 01e5 28       		.byte	0x28
 1288 01e6 08       		.uleb128 0x8
 1289 01e7 BC020000 		.4byte	.LASF40
 1290 01eb 07       		.byte	0x7
 1291 01ec 4201     		.2byte	0x142
 1292 01ee 5D020000 		.4byte	0x25d
 1293 01f2 2C       		.byte	0x2c
 1294 01f3 08       		.uleb128 0x8
 1295 01f4 E3040000 		.4byte	.LASF41
 1296 01f8 07       		.byte	0x7
 1297 01f9 4801     		.2byte	0x148
 1298 01fb 10010000 		.4byte	0x110
 1299 01ff 34       		.byte	0x34
 1300 0200 08       		.uleb128 0x8
 1301 0201 91040000 		.4byte	.LASF42
 1302 0205 07       		.byte	0x7
 1303 0206 4F01     		.2byte	0x14f
 1304 0208 E8050000 		.4byte	0x5e8
 1305 020c 38       		.byte	0x38
 1306 020d 08       		.uleb128 0x8
 1307 020e 6F050000 		.4byte	.LASF43
 1308 0212 07       		.byte	0x7
 1309 0213 5301     		.2byte	0x153
ARM GAS  /tmp/ccz3D8ma.s 			page 55


 1310 0215 FA000000 		.4byte	0xfa
 1311 0219 3C       		.byte	0x3c
 1312 021a 08       		.uleb128 0x8
 1313 021b F1000000 		.4byte	.LASF44
 1314 021f 07       		.byte	0x7
 1315 0220 5A01     		.2byte	0x15a
 1316 0222 10030000 		.4byte	0x310
 1317 0226 40       		.byte	0x40
 1318 0227 00       		.byte	0
 1319 0228 03       		.uleb128 0x3
 1320 0229 62030000 		.4byte	.LASF45
 1321 022d 06       		.byte	0x6
 1322 022e 44       		.byte	0x44
 1323 022f 33020000 		.4byte	0x233
 1324 0233 09       		.uleb128 0x9
 1325 0234 04       		.byte	0x4
 1326 0235 31010000 		.4byte	0x131
 1327 0239 03       		.uleb128 0x3
 1328 023a 19060000 		.4byte	.LASF46
 1329 023e 06       		.byte	0x6
 1330 023f 49       		.byte	0x49
 1331 0240 44020000 		.4byte	0x244
 1332 0244 05       		.uleb128 0x5
 1333 0245 0F050000 		.4byte	.LASF48
 1334 0249 04       		.byte	0x4
 1335 024a 07       		.byte	0x7
 1336 024b B0       		.byte	0xb0
 1337 024c 5D020000 		.4byte	0x25d
 1338 0250 06       		.uleb128 0x6
 1339 0251 BB040000 		.4byte	.LASF28
 1340 0255 07       		.byte	0x7
 1341 0256 B1       		.byte	0xb1
 1342 0257 33020000 		.4byte	0x233
 1343 025b 00       		.byte	0
 1344 025c 00       		.byte	0
 1345 025d 03       		.uleb128 0x3
 1346 025e C7050000 		.4byte	.LASF49
 1347 0262 06       		.byte	0x6
 1348 0263 50       		.byte	0x50
 1349 0264 68020000 		.4byte	0x268
 1350 0268 05       		.uleb128 0x5
 1351 0269 B9000000 		.4byte	.LASF50
 1352 026d 08       		.byte	0x8
 1353 026e 07       		.byte	0x7
 1354 026f B7       		.byte	0xb7
 1355 0270 8D020000 		.4byte	0x28d
 1356 0274 06       		.uleb128 0x6
 1357 0275 BB040000 		.4byte	.LASF28
 1358 0279 07       		.byte	0x7
 1359 027a B8       		.byte	0xb8
 1360 027b 33020000 		.4byte	0x233
 1361 027f 00       		.byte	0
 1362 0280 06       		.uleb128 0x6
 1363 0281 50040000 		.4byte	.LASF29
 1364 0285 07       		.byte	0x7
 1365 0286 B9       		.byte	0xb9
 1366 0287 33020000 		.4byte	0x233
ARM GAS  /tmp/ccz3D8ma.s 			page 56


 1367 028b 04       		.byte	0x4
 1368 028c 00       		.byte	0
 1369 028d 03       		.uleb128 0x3
 1370 028e 00000000 		.4byte	.LASF51
 1371 0292 06       		.byte	0x6
 1372 0293 57       		.byte	0x57
 1373 0294 98020000 		.4byte	0x298
 1374 0298 0A       		.uleb128 0xa
 1375 0299 0F030000 		.4byte	.LASF52
 1376 029d 1C       		.byte	0x1c
 1377 029e 07       		.byte	0x7
 1378 029f 9201     		.2byte	0x192
 1379 02a1 F4020000 		.4byte	0x2f4
 1380 02a5 08       		.uleb128 0x8
 1381 02a6 FE040000 		.4byte	.LASF53
 1382 02aa 07       		.byte	0x7
 1383 02ab 9301     		.2byte	0x193
 1384 02ad 5D020000 		.4byte	0x25d
 1385 02b1 00       		.byte	0
 1386 02b2 08       		.uleb128 0x8
 1387 02b3 AD040000 		.4byte	.LASF54
 1388 02b7 07       		.byte	0x7
 1389 02b8 9401     		.2byte	0x194
 1390 02ba FA000000 		.4byte	0xfa
 1391 02be 08       		.byte	0x8
 1392 02bf 08       		.uleb128 0x8
 1393 02c0 AE030000 		.4byte	.LASF55
 1394 02c4 07       		.byte	0x7
 1395 02c5 9601     		.2byte	0x196
 1396 02c7 63040000 		.4byte	0x463
 1397 02cb 0C       		.byte	0xc
 1398 02cc 08       		.uleb128 0x8
 1399 02cd 61010000 		.4byte	.LASF56
 1400 02d1 07       		.byte	0x7
 1401 02d2 9901     		.2byte	0x199
 1402 02d4 33020000 		.4byte	0x233
 1403 02d8 10       		.byte	0x10
 1404 02d9 08       		.uleb128 0x8
 1405 02da 25040000 		.4byte	.LASF57
 1406 02de 07       		.byte	0x7
 1407 02df 9A01     		.2byte	0x19a
 1408 02e1 33020000 		.4byte	0x233
 1409 02e5 14       		.byte	0x14
 1410 02e6 08       		.uleb128 0x8
 1411 02e7 1B040000 		.4byte	.LASF58
 1412 02eb 07       		.byte	0x7
 1413 02ec 9D01     		.2byte	0x19d
 1414 02ee 33020000 		.4byte	0x233
 1415 02f2 18       		.byte	0x18
 1416 02f3 00       		.byte	0
 1417 02f4 03       		.uleb128 0x3
 1418 02f5 7A050000 		.4byte	.LASF59
 1419 02f9 06       		.byte	0x6
 1420 02fa 5C       		.byte	0x5c
 1421 02fb FF020000 		.4byte	0x2ff
 1422 02ff 09       		.uleb128 0x9
 1423 0300 04       		.byte	0x4
ARM GAS  /tmp/ccz3D8ma.s 			page 57


 1424 0301 05030000 		.4byte	0x305
 1425 0305 0B       		.uleb128 0xb
 1426 0306 10030000 		.4byte	0x310
 1427 030a 0C       		.uleb128 0xc
 1428 030b 10030000 		.4byte	0x310
 1429 030f 00       		.byte	0
 1430 0310 0D       		.uleb128 0xd
 1431 0311 04       		.byte	0x4
 1432 0312 03       		.uleb128 0x3
 1433 0313 40040000 		.4byte	.LASF60
 1434 0317 06       		.byte	0x6
 1435 0318 61       		.byte	0x61
 1436 0319 1D030000 		.4byte	0x31d
 1437 031d 0A       		.uleb128 0xa
 1438 031e A7050000 		.4byte	.LASF61
 1439 0322 14       		.byte	0x14
 1440 0323 07       		.byte	0x7
 1441 0324 6D01     		.2byte	0x16d
 1442 0326 6C030000 		.4byte	0x36c
 1443 032a 08       		.uleb128 0x8
 1444 032b AD020000 		.4byte	.LASF62
 1445 032f 07       		.byte	0x7
 1446 0330 6E01     		.2byte	0x16e
 1447 0332 06060000 		.4byte	0x606
 1448 0336 00       		.byte	0
 1449 0337 08       		.uleb128 0x8
 1450 0338 72010000 		.4byte	.LASF63
 1451 033c 07       		.byte	0x7
 1452 033d 6F01     		.2byte	0x16f
 1453 033f 06060000 		.4byte	0x606
 1454 0343 04       		.byte	0x4
 1455 0344 08       		.uleb128 0x8
 1456 0345 06050000 		.4byte	.LASF64
 1457 0349 07       		.byte	0x7
 1458 034a 7001     		.2byte	0x170
 1459 034c 26010000 		.4byte	0x126
 1460 0350 08       		.byte	0x8
 1461 0351 08       		.uleb128 0x8
 1462 0352 36060000 		.4byte	.LASF65
 1463 0356 07       		.byte	0x7
 1464 0357 7101     		.2byte	0x171
 1465 0359 F4020000 		.4byte	0x2f4
 1466 035d 0C       		.byte	0xc
 1467 035e 08       		.uleb128 0x8
 1468 035f C0050000 		.4byte	.LASF66
 1469 0363 07       		.byte	0x7
 1470 0364 7301     		.2byte	0x173
 1471 0366 10030000 		.4byte	0x310
 1472 036a 10       		.byte	0x10
 1473 036b 00       		.byte	0
 1474 036c 03       		.uleb128 0x3
 1475 036d 8A000000 		.4byte	.LASF67
 1476 0371 06       		.byte	0x6
 1477 0372 66       		.byte	0x66
 1478 0373 77030000 		.4byte	0x377
 1479 0377 0A       		.uleb128 0xa
 1480 0378 75030000 		.4byte	.LASF68
ARM GAS  /tmp/ccz3D8ma.s 			page 58


 1481 037c 10       		.byte	0x10
 1482 037d 07       		.byte	0x7
 1483 037e 7D01     		.2byte	0x17d
 1484 0380 B9030000 		.4byte	0x3b9
 1485 0384 08       		.uleb128 0x8
 1486 0385 AD020000 		.4byte	.LASF62
 1487 0389 07       		.byte	0x7
 1488 038a 7E01     		.2byte	0x17e
 1489 038c 06060000 		.4byte	0x606
 1490 0390 00       		.byte	0
 1491 0391 08       		.uleb128 0x8
 1492 0392 72010000 		.4byte	.LASF63
 1493 0396 07       		.byte	0x7
 1494 0397 8001     		.2byte	0x180
 1495 0399 06060000 		.4byte	0x606
 1496 039d 04       		.byte	0x4
 1497 039e 08       		.uleb128 0x8
 1498 039f 06050000 		.4byte	.LASF64
 1499 03a3 07       		.byte	0x7
 1500 03a4 8201     		.2byte	0x182
 1501 03a6 26010000 		.4byte	0x126
 1502 03aa 08       		.byte	0x8
 1503 03ab 08       		.uleb128 0x8
 1504 03ac 9A030000 		.4byte	.LASF69
 1505 03b0 07       		.byte	0x7
 1506 03b1 8A01     		.2byte	0x18a
 1507 03b3 26010000 		.4byte	0x126
 1508 03b7 0C       		.byte	0xc
 1509 03b8 00       		.byte	0
 1510 03b9 03       		.uleb128 0x3
 1511 03ba 3F000000 		.4byte	.LASF70
 1512 03be 06       		.byte	0x6
 1513 03bf 6B       		.byte	0x6b
 1514 03c0 C4030000 		.4byte	0x3c4
 1515 03c4 0A       		.uleb128 0xa
 1516 03c5 5F040000 		.4byte	.LASF71
 1517 03c9 04       		.byte	0x4
 1518 03ca 07       		.byte	0x7
 1519 03cb A401     		.2byte	0x1a4
 1520 03cd DF030000 		.4byte	0x3df
 1521 03d1 08       		.uleb128 0x8
 1522 03d2 8E050000 		.4byte	.LASF72
 1523 03d6 07       		.byte	0x7
 1524 03d7 AC01     		.2byte	0x1ac
 1525 03d9 0C060000 		.4byte	0x60c
 1526 03dd 00       		.byte	0
 1527 03de 00       		.byte	0
 1528 03df 03       		.uleb128 0x3
 1529 03e0 FB020000 		.4byte	.LASF73
 1530 03e4 06       		.byte	0x6
 1531 03e5 70       		.byte	0x70
 1532 03e6 EA030000 		.4byte	0x3ea
 1533 03ea 0E       		.uleb128 0xe
 1534 03eb 19010000 		.4byte	.LASF74
 1535 03ef 5001     		.2byte	0x150
 1536 03f1 07       		.byte	0x7
 1537 03f2 C401     		.2byte	0x1c4
ARM GAS  /tmp/ccz3D8ma.s 			page 59


 1538 03f4 46040000 		.4byte	0x446
 1539 03f8 08       		.uleb128 0x8
 1540 03f9 E7050000 		.4byte	.LASF75
 1541 03fd 07       		.byte	0x7
 1542 03fe C801     		.2byte	0x1c8
 1543 0400 8D020000 		.4byte	0x28d
 1544 0404 00       		.byte	0
 1545 0405 08       		.uleb128 0x8
 1546 0406 0C010000 		.4byte	.LASF76
 1547 040a 07       		.byte	0x7
 1548 040b CC01     		.2byte	0x1cc
 1549 040d 6C030000 		.4byte	0x36c
 1550 0411 1C       		.byte	0x1c
 1551 0412 07       		.uleb128 0x7
 1552 0413 64626700 		.ascii	"dbg\000"
 1553 0417 07       		.byte	0x7
 1554 0418 D001     		.2byte	0x1d0
 1555 041a B9030000 		.4byte	0x3b9
 1556 041e 2C       		.byte	0x2c
 1557 041f 08       		.uleb128 0x8
 1558 0420 EA020000 		.4byte	.LASF77
 1559 0424 07       		.byte	0x7
 1560 0425 D401     		.2byte	0x1d4
 1561 0427 31010000 		.4byte	0x131
 1562 042b 30       		.byte	0x30
 1563 042c 07       		.uleb128 0x7
 1564 042d 746D00   		.ascii	"tm\000"
 1565 0430 07       		.byte	0x7
 1566 0431 D901     		.2byte	0x1d9
 1567 0433 12050000 		.4byte	0x512
 1568 0437 74       		.byte	0x74
 1569 0438 08       		.uleb128 0x8
 1570 0439 8D010000 		.4byte	.LASF78
 1571 043d 07       		.byte	0x7
 1572 043e E501     		.2byte	0x1e5
 1573 0440 11060000 		.4byte	0x611
 1574 0444 78       		.byte	0x78
 1575 0445 00       		.byte	0
 1576 0446 04       		.uleb128 0x4
 1577 0447 04       		.byte	0x4
 1578 0448 07       		.byte	0x7
 1579 0449 59030000 		.4byte	.LASF79
 1580 044d 03       		.uleb128 0x3
 1581 044e 69010000 		.4byte	.LASF80
 1582 0452 08       		.byte	0x8
 1583 0453 65       		.byte	0x65
 1584 0454 10030000 		.4byte	0x310
 1585 0458 03       		.uleb128 0x3
 1586 0459 33030000 		.4byte	.LASF81
 1587 045d 08       		.byte	0x8
 1588 045e 6D       		.byte	0x6d
 1589 045f C3000000 		.4byte	0xc3
 1590 0463 05       		.uleb128 0x5
 1591 0464 9F050000 		.4byte	.LASF82
 1592 0468 04       		.byte	0x4
 1593 0469 08       		.byte	0x8
 1594 046a 89       		.byte	0x89
ARM GAS  /tmp/ccz3D8ma.s 			page 60


 1595 046b 7C040000 		.4byte	0x47c
 1596 046f 0F       		.uleb128 0xf
 1597 0470 72313300 		.ascii	"r13\000"
 1598 0474 08       		.byte	0x8
 1599 0475 8A       		.byte	0x8a
 1600 0476 F7040000 		.4byte	0x4f7
 1601 047a 00       		.byte	0
 1602 047b 00       		.byte	0
 1603 047c 05       		.uleb128 0x5
 1604 047d 33000000 		.4byte	.LASF83
 1605 0481 24       		.byte	0x24
 1606 0482 09       		.byte	0x9
 1607 0483 FD       		.byte	0xfd
 1608 0484 F7040000 		.4byte	0x4f7
 1609 0488 07       		.uleb128 0x7
 1610 0489 723400   		.ascii	"r4\000"
 1611 048c 09       		.byte	0x9
 1612 048d 1001     		.2byte	0x110
 1613 048f 4D040000 		.4byte	0x44d
 1614 0493 00       		.byte	0
 1615 0494 07       		.uleb128 0x7
 1616 0495 723500   		.ascii	"r5\000"
 1617 0498 09       		.byte	0x9
 1618 0499 1101     		.2byte	0x111
 1619 049b 4D040000 		.4byte	0x44d
 1620 049f 04       		.byte	0x4
 1621 04a0 07       		.uleb128 0x7
 1622 04a1 723600   		.ascii	"r6\000"
 1623 04a4 09       		.byte	0x9
 1624 04a5 1201     		.2byte	0x112
 1625 04a7 4D040000 		.4byte	0x44d
 1626 04ab 08       		.byte	0x8
 1627 04ac 07       		.uleb128 0x7
 1628 04ad 723700   		.ascii	"r7\000"
 1629 04b0 09       		.byte	0x9
 1630 04b1 1301     		.2byte	0x113
 1631 04b3 4D040000 		.4byte	0x44d
 1632 04b7 0C       		.byte	0xc
 1633 04b8 07       		.uleb128 0x7
 1634 04b9 723800   		.ascii	"r8\000"
 1635 04bc 09       		.byte	0x9
 1636 04bd 1401     		.2byte	0x114
 1637 04bf 4D040000 		.4byte	0x44d
 1638 04c3 10       		.byte	0x10
 1639 04c4 07       		.uleb128 0x7
 1640 04c5 723900   		.ascii	"r9\000"
 1641 04c8 09       		.byte	0x9
 1642 04c9 1501     		.2byte	0x115
 1643 04cb 4D040000 		.4byte	0x44d
 1644 04cf 14       		.byte	0x14
 1645 04d0 07       		.uleb128 0x7
 1646 04d1 72313000 		.ascii	"r10\000"
 1647 04d5 09       		.byte	0x9
 1648 04d6 1601     		.2byte	0x116
 1649 04d8 4D040000 		.4byte	0x44d
 1650 04dc 18       		.byte	0x18
 1651 04dd 07       		.uleb128 0x7
ARM GAS  /tmp/ccz3D8ma.s 			page 61


 1652 04de 72313100 		.ascii	"r11\000"
 1653 04e2 09       		.byte	0x9
 1654 04e3 1701     		.2byte	0x117
 1655 04e5 4D040000 		.4byte	0x44d
 1656 04e9 1C       		.byte	0x1c
 1657 04ea 07       		.uleb128 0x7
 1658 04eb 6C7200   		.ascii	"lr\000"
 1659 04ee 09       		.byte	0x9
 1660 04ef 1801     		.2byte	0x118
 1661 04f1 4D040000 		.4byte	0x44d
 1662 04f5 20       		.byte	0x20
 1663 04f6 00       		.byte	0
 1664 04f7 09       		.uleb128 0x9
 1665 04f8 04       		.byte	0x4
 1666 04f9 7C040000 		.4byte	0x47c
 1667 04fd 10       		.uleb128 0x10
 1668 04fe 04       		.byte	0x4
 1669 04ff 0A       		.byte	0xa
 1670 0500 38       		.byte	0x38
 1671 0501 12050000 		.4byte	0x512
 1672 0505 06       		.uleb128 0x6
 1673 0506 98050000 		.4byte	.LASF84
 1674 050a 0A       		.byte	0xa
 1675 050b 3C       		.byte	0x3c
 1676 050c CE000000 		.4byte	0xce
 1677 0510 00       		.byte	0
 1678 0511 00       		.byte	0
 1679 0512 03       		.uleb128 0x3
 1680 0513 FF030000 		.4byte	.LASF85
 1681 0517 0A       		.byte	0xa
 1682 0518 3D       		.byte	0x3d
 1683 0519 FD040000 		.4byte	0x4fd
 1684 051d 11       		.uleb128 0x11
 1685 051e 04       		.byte	0x4
 1686 051f 07       		.byte	0x7
 1687 0520 FA       		.byte	0xfa
 1688 0521 86050000 		.4byte	0x586
 1689 0525 12       		.uleb128 0x12
 1690 0526 19000000 		.4byte	.LASF86
 1691 052a 07       		.byte	0x7
 1692 052b 0101     		.2byte	0x101
 1693 052d 05010000 		.4byte	0x105
 1694 0531 12       		.uleb128 0x12
 1695 0532 72000000 		.4byte	.LASF87
 1696 0536 07       		.byte	0x7
 1697 0537 0801     		.2byte	0x108
 1698 0539 05010000 		.4byte	0x105
 1699 053d 12       		.uleb128 0x12
 1700 053e 00060000 		.4byte	.LASF88
 1701 0542 07       		.byte	0x7
 1702 0543 0F01     		.2byte	0x10f
 1703 0545 10030000 		.4byte	0x310
 1704 0549 12       		.uleb128 0x12
 1705 054a 13010000 		.4byte	.LASF89
 1706 054e 07       		.byte	0x7
 1707 054f 1601     		.2byte	0x116
 1708 0551 86050000 		.4byte	0x586
ARM GAS  /tmp/ccz3D8ma.s 			page 62


 1709 0555 12       		.uleb128 0x12
 1710 0556 82000000 		.4byte	.LASF90
 1711 055a 07       		.byte	0x7
 1712 055b 1B01     		.2byte	0x11b
 1713 055d 05010000 		.4byte	0x105
 1714 0561 12       		.uleb128 0x12
 1715 0562 B5020000 		.4byte	.LASF91
 1716 0566 07       		.byte	0x7
 1717 0567 2401     		.2byte	0x124
 1718 0569 B1050000 		.4byte	0x5b1
 1719 056d 12       		.uleb128 0x12
 1720 056e F7040000 		.4byte	.LASF92
 1721 0572 07       		.byte	0x7
 1722 0573 2D01     		.2byte	0x12d
 1723 0575 E8050000 		.4byte	0x5e8
 1724 0579 12       		.uleb128 0x12
 1725 057a B4040000 		.4byte	.LASF93
 1726 057e 07       		.byte	0x7
 1727 057f 3501     		.2byte	0x135
 1728 0581 10010000 		.4byte	0x110
 1729 0585 00       		.byte	0
 1730 0586 09       		.uleb128 0x9
 1731 0587 04       		.byte	0x4
 1732 0588 28020000 		.4byte	0x228
 1733 058c 05       		.uleb128 0x5
 1734 058d D6040000 		.4byte	.LASF94
 1735 0591 0C       		.byte	0xc
 1736 0592 0B       		.byte	0xb
 1737 0593 34       		.byte	0x34
 1738 0594 B1050000 		.4byte	0x5b1
 1739 0598 06       		.uleb128 0x6
 1740 0599 4B010000 		.4byte	.LASF95
 1741 059d 0B       		.byte	0xb
 1742 059e 35       		.byte	0x35
 1743 059f 5D020000 		.4byte	0x25d
 1744 05a3 00       		.byte	0
 1745 05a4 06       		.uleb128 0x6
 1746 05a5 C7020000 		.4byte	.LASF96
 1747 05a9 0B       		.byte	0xb
 1748 05aa 37       		.byte	0x37
 1749 05ab 1B010000 		.4byte	0x11b
 1750 05af 08       		.byte	0x8
 1751 05b0 00       		.byte	0
 1752 05b1 09       		.uleb128 0x9
 1753 05b2 04       		.byte	0x4
 1754 05b3 8C050000 		.4byte	0x58c
 1755 05b7 05       		.uleb128 0x5
 1756 05b8 D7050000 		.4byte	.LASF97
 1757 05bc 10       		.byte	0x10
 1758 05bd 0C       		.byte	0xc
 1759 05be 39       		.byte	0x39
 1760 05bf E8050000 		.4byte	0x5e8
 1761 05c3 06       		.uleb128 0x6
 1762 05c4 F9000000 		.4byte	.LASF98
 1763 05c8 0C       		.byte	0xc
 1764 05c9 3A       		.byte	0x3a
 1765 05ca 5D020000 		.4byte	0x25d
ARM GAS  /tmp/ccz3D8ma.s 			page 63


 1766 05ce 00       		.byte	0
 1767 05cf 06       		.uleb128 0x6
 1768 05d0 28060000 		.4byte	.LASF99
 1769 05d4 0C       		.byte	0xc
 1770 05d5 3C       		.byte	0x3c
 1771 05d6 33020000 		.4byte	0x233
 1772 05da 08       		.byte	0x8
 1773 05db 06       		.uleb128 0x6
 1774 05dc 5E050000 		.4byte	.LASF100
 1775 05e0 0C       		.byte	0xc
 1776 05e1 3E       		.byte	0x3e
 1777 05e2 2C060000 		.4byte	0x62c
 1778 05e6 0C       		.byte	0xc
 1779 05e7 00       		.byte	0
 1780 05e8 09       		.uleb128 0x9
 1781 05e9 04       		.byte	0x4
 1782 05ea B7050000 		.4byte	0x5b7
 1783 05ee 09       		.uleb128 0x9
 1784 05ef 04       		.byte	0x4
 1785 05f0 F4050000 		.4byte	0x5f4
 1786 05f4 13       		.uleb128 0x13
 1787 05f5 F9050000 		.4byte	0x5f9
 1788 05f9 04       		.uleb128 0x4
 1789 05fa 01       		.byte	0x1
 1790 05fb 08       		.byte	0x8
 1791 05fc 43050000 		.4byte	.LASF101
 1792 0600 09       		.uleb128 0x9
 1793 0601 04       		.byte	0x4
 1794 0602 58040000 		.4byte	0x458
 1795 0606 09       		.uleb128 0x9
 1796 0607 04       		.byte	0x4
 1797 0608 12030000 		.4byte	0x312
 1798 060c 14       		.uleb128 0x14
 1799 060d EE050000 		.4byte	0x5ee
 1800 0611 15       		.uleb128 0x15
 1801 0612 58040000 		.4byte	0x458
 1802 0616 21060000 		.4byte	0x621
 1803 061a 16       		.uleb128 0x16
 1804 061b 46040000 		.4byte	0x446
 1805 061f 1A       		.byte	0x1a
 1806 0620 00       		.byte	0
 1807 0621 03       		.uleb128 0x3
 1808 0622 7A010000 		.4byte	.LASF102
 1809 0626 0C       		.byte	0xc
 1810 0627 34       		.byte	0x34
 1811 0628 B7050000 		.4byte	0x5b7
 1812 062c 09       		.uleb128 0x9
 1813 062d 04       		.byte	0x4
 1814 062e 21060000 		.4byte	0x621
 1815 0632 03       		.uleb128 0x3
 1816 0633 4E000000 		.4byte	.LASF103
 1817 0637 0D       		.byte	0xd
 1818 0638 36       		.byte	0x36
 1819 0639 3D060000 		.4byte	0x63d
 1820 063d 09       		.uleb128 0x9
 1821 063e 04       		.byte	0x4
 1822 063f 43060000 		.4byte	0x643
ARM GAS  /tmp/ccz3D8ma.s 			page 64


 1823 0643 17       		.uleb128 0x17
 1824 0644 10030000 		.4byte	0x310
 1825 0648 52060000 		.4byte	0x652
 1826 064c 0C       		.uleb128 0xc
 1827 064d 2C000000 		.4byte	0x2c
 1828 0651 00       		.byte	0
 1829 0652 03       		.uleb128 0x3
 1830 0653 35010000 		.4byte	.LASF104
 1831 0657 0E       		.byte	0xe
 1832 0658 3C       		.byte	0x3c
 1833 0659 5D060000 		.4byte	0x65d
 1834 065d 05       		.uleb128 0x5
 1835 065e 3E060000 		.4byte	.LASF105
 1836 0662 20       		.byte	0x20
 1837 0663 0E       		.byte	0xe
 1838 0664 4F       		.byte	0x4f
 1839 0665 8E060000 		.4byte	0x68e
 1840 0669 06       		.uleb128 0x6
 1841 066a F5050000 		.4byte	.LASF106
 1842 066e 0E       		.byte	0xe
 1843 066f 50       		.byte	0x50
 1844 0670 32060000 		.4byte	0x632
 1845 0674 00       		.byte	0
 1846 0675 06       		.uleb128 0x6
 1847 0676 7B000000 		.4byte	.LASF107
 1848 067a 0E       		.byte	0xe
 1849 067b 52       		.byte	0x52
 1850 067c AD060000 		.4byte	0x6ad
 1851 0680 08       		.byte	0x8
 1852 0681 06       		.uleb128 0x6
 1853 0682 EB000000 		.4byte	.LASF108
 1854 0686 0E       		.byte	0xe
 1855 0687 54       		.byte	0x54
 1856 0688 21060000 		.4byte	0x621
 1857 068c 10       		.byte	0x10
 1858 068d 00       		.byte	0
 1859 068e 11       		.uleb128 0x11
 1860 068f 04       		.byte	0x4
 1861 0690 0E       		.byte	0xe
 1862 0691 44       		.byte	0x44
 1863 0692 AD060000 		.4byte	0x6ad
 1864 0696 18       		.uleb128 0x18
 1865 0697 14000000 		.4byte	.LASF109
 1866 069b 0E       		.byte	0xe
 1867 069c 45       		.byte	0x45
 1868 069d CE060000 		.4byte	0x6ce
 1869 06a1 18       		.uleb128 0x18
 1870 06a2 1F050000 		.4byte	.LASF110
 1871 06a6 0E       		.byte	0xe
 1872 06a7 46       		.byte	0x46
 1873 06a8 D4060000 		.4byte	0x6d4
 1874 06ac 00       		.byte	0
 1875 06ad 19       		.uleb128 0x19
 1876 06ae 85040000 		.4byte	.LASF126
 1877 06b2 08       		.byte	0x8
 1878 06b3 0E       		.byte	0xe
 1879 06b4 41       		.byte	0x41
ARM GAS  /tmp/ccz3D8ma.s 			page 65


 1880 06b5 CE060000 		.4byte	0x6ce
 1881 06b9 18       		.uleb128 0x18
 1882 06ba B3000000 		.4byte	.LASF111
 1883 06be 0E       		.byte	0xe
 1884 06bf 42       		.byte	0x42
 1885 06c0 58040000 		.4byte	0x458
 1886 06c4 1A       		.uleb128 0x1a
 1887 06c5 6800     		.ascii	"h\000"
 1888 06c7 0E       		.byte	0xe
 1889 06c8 49       		.byte	0x49
 1890 06c9 DA060000 		.4byte	0x6da
 1891 06cd 00       		.byte	0
 1892 06ce 09       		.uleb128 0x9
 1893 06cf 04       		.byte	0x4
 1894 06d0 AD060000 		.4byte	0x6ad
 1895 06d4 09       		.uleb128 0x9
 1896 06d5 04       		.byte	0x4
 1897 06d6 52060000 		.4byte	0x652
 1898 06da 10       		.uleb128 0x10
 1899 06db 08       		.byte	0x8
 1900 06dc 0E       		.byte	0xe
 1901 06dd 43       		.byte	0x43
 1902 06de F9060000 		.4byte	0x6f9
 1903 06e2 0F       		.uleb128 0xf
 1904 06e3 7500     		.ascii	"u\000"
 1905 06e5 0E       		.byte	0xe
 1906 06e6 47       		.byte	0x47
 1907 06e7 8E060000 		.4byte	0x68e
 1908 06eb 00       		.byte	0
 1909 06ec 06       		.uleb128 0x6
 1910 06ed 14060000 		.4byte	.LASF112
 1911 06f1 0E       		.byte	0xe
 1912 06f2 48       		.byte	0x48
 1913 06f3 2C000000 		.4byte	0x2c
 1914 06f7 04       		.byte	0x4
 1915 06f8 00       		.byte	0
 1916 06f9 1B       		.uleb128 0x1b
 1917 06fa 82010000 		.4byte	.LASF127
 1918 06fe 01       		.byte	0x1
 1919 06ff 5B       		.byte	0x5b
 1920 0700 00000000 		.4byte	.LFB241
 1921 0704 28000000 		.4byte	.LFE241-.LFB241
 1922 0708 01       		.uleb128 0x1
 1923 0709 9C       		.byte	0x9c
 1924 070a 1C       		.uleb128 0x1c
 1925 070b 3E030000 		.4byte	.LASF114
 1926 070f 01       		.byte	0x1
 1927 0710 72       		.byte	0x72
 1928 0711 00000000 		.4byte	.LFB242
 1929 0715 40000000 		.4byte	.LFE242-.LFB242
 1930 0719 01       		.uleb128 0x1
 1931 071a 9C       		.byte	0x9c
 1932 071b 60070000 		.4byte	0x760
 1933 071f 1D       		.uleb128 0x1d
 1934 0720 AD000000 		.4byte	.LASF113
 1935 0724 01       		.byte	0x1
 1936 0725 72       		.byte	0x72
ARM GAS  /tmp/ccz3D8ma.s 			page 66


 1937 0726 D4060000 		.4byte	0x6d4
 1938 072a 02       		.uleb128 0x2
 1939 072b 91       		.byte	0x91
 1940 072c 6C       		.sleb128 -20
 1941 072d 1E       		.uleb128 0x1e
 1942 072e 62756600 		.ascii	"buf\000"
 1943 0732 01       		.byte	0x1
 1944 0733 72       		.byte	0x72
 1945 0734 10030000 		.4byte	0x310
 1946 0738 02       		.uleb128 0x2
 1947 0739 91       		.byte	0x91
 1948 073a 68       		.sleb128 -24
 1949 073b 1D       		.uleb128 0x1d
 1950 073c 14060000 		.4byte	.LASF112
 1951 0740 01       		.byte	0x1
 1952 0741 72       		.byte	0x72
 1953 0742 2C000000 		.4byte	0x2c
 1954 0746 02       		.uleb128 0x2
 1955 0747 91       		.byte	0x91
 1956 0748 64       		.sleb128 -28
 1957 0749 1F       		.uleb128 0x1f
 1958 074a 687000   		.ascii	"hp\000"
 1959 074d 01       		.byte	0x1
 1960 074e 73       		.byte	0x73
 1961 074f CE060000 		.4byte	0x6ce
 1962 0753 02       		.uleb128 0x2
 1963 0754 91       		.byte	0x91
 1964 0755 74       		.sleb128 -12
 1965 0756 20       		.uleb128 0x20
 1966 0757 53010000 		.4byte	.LASF116
 1967 075b 70070000 		.4byte	0x770
 1968 075f 00       		.byte	0
 1969 0760 15       		.uleb128 0x15
 1970 0761 F9050000 		.4byte	0x5f9
 1971 0765 70070000 		.4byte	0x770
 1972 0769 16       		.uleb128 0x16
 1973 076a 46040000 		.4byte	0x446
 1974 076e 10       		.byte	0x10
 1975 076f 00       		.byte	0
 1976 0770 13       		.uleb128 0x13
 1977 0771 60070000 		.4byte	0x760
 1978 0775 21       		.uleb128 0x21
 1979 0776 CA040000 		.4byte	.LASF118
 1980 077a 01       		.byte	0x1
 1981 077b 93       		.byte	0x93
 1982 077c 10030000 		.4byte	0x310
 1983 0780 00000000 		.4byte	.LFB243
 1984 0784 F0000000 		.4byte	.LFE243-.LFB243
 1985 0788 01       		.uleb128 0x1
 1986 0789 9C       		.byte	0x9c
 1987 078a D2070000 		.4byte	0x7d2
 1988 078e 1D       		.uleb128 0x1d
 1989 078f AD000000 		.4byte	.LASF113
 1990 0793 01       		.byte	0x1
 1991 0794 93       		.byte	0x93
 1992 0795 D4060000 		.4byte	0x6d4
 1993 0799 02       		.uleb128 0x2
ARM GAS  /tmp/ccz3D8ma.s 			page 67


 1994 079a 91       		.byte	0x91
 1995 079b 64       		.sleb128 -28
 1996 079c 1D       		.uleb128 0x1d
 1997 079d 14060000 		.4byte	.LASF112
 1998 07a1 01       		.byte	0x1
 1999 07a2 93       		.byte	0x93
 2000 07a3 2C000000 		.4byte	0x2c
 2001 07a7 02       		.uleb128 0x2
 2002 07a8 91       		.byte	0x91
 2003 07a9 60       		.sleb128 -32
 2004 07aa 1F       		.uleb128 0x1f
 2005 07ab 717000   		.ascii	"qp\000"
 2006 07ae 01       		.byte	0x1
 2007 07af 94       		.byte	0x94
 2008 07b0 CE060000 		.4byte	0x6ce
 2009 07b4 02       		.uleb128 0x2
 2010 07b5 91       		.byte	0x91
 2011 07b6 74       		.sleb128 -12
 2012 07b7 1F       		.uleb128 0x1f
 2013 07b8 687000   		.ascii	"hp\000"
 2014 07bb 01       		.byte	0x1
 2015 07bc 94       		.byte	0x94
 2016 07bd CE060000 		.4byte	0x6ce
 2017 07c1 02       		.uleb128 0x2
 2018 07c2 91       		.byte	0x91
 2019 07c3 70       		.sleb128 -16
 2020 07c4 1F       		.uleb128 0x1f
 2021 07c5 667000   		.ascii	"fp\000"
 2022 07c8 01       		.byte	0x1
 2023 07c9 94       		.byte	0x94
 2024 07ca CE060000 		.4byte	0x6ce
 2025 07ce 02       		.uleb128 0x2
 2026 07cf 91       		.byte	0x91
 2027 07d0 6C       		.sleb128 -20
 2028 07d1 00       		.byte	0
 2029 07d2 1C       		.uleb128 0x1c
 2030 07d3 01010000 		.4byte	.LASF115
 2031 07d7 01       		.byte	0x1
 2032 07d8 D5       		.byte	0xd5
 2033 07d9 00000000 		.4byte	.LFB244
 2034 07dd CE000000 		.4byte	.LFE244-.LFB244
 2035 07e1 01       		.uleb128 0x1
 2036 07e2 9C       		.byte	0x9c
 2037 07e3 25080000 		.4byte	0x825
 2038 07e7 1E       		.uleb128 0x1e
 2039 07e8 7000     		.ascii	"p\000"
 2040 07ea 01       		.byte	0x1
 2041 07eb D5       		.byte	0xd5
 2042 07ec 10030000 		.4byte	0x310
 2043 07f0 02       		.uleb128 0x2
 2044 07f1 91       		.byte	0x91
 2045 07f2 64       		.sleb128 -28
 2046 07f3 1F       		.uleb128 0x1f
 2047 07f4 717000   		.ascii	"qp\000"
 2048 07f7 01       		.byte	0x1
 2049 07f8 D6       		.byte	0xd6
 2050 07f9 CE060000 		.4byte	0x6ce
ARM GAS  /tmp/ccz3D8ma.s 			page 68


 2051 07fd 02       		.uleb128 0x2
 2052 07fe 91       		.byte	0x91
 2053 07ff 74       		.sleb128 -12
 2054 0800 1F       		.uleb128 0x1f
 2055 0801 687000   		.ascii	"hp\000"
 2056 0804 01       		.byte	0x1
 2057 0805 D6       		.byte	0xd6
 2058 0806 CE060000 		.4byte	0x6ce
 2059 080a 02       		.uleb128 0x2
 2060 080b 91       		.byte	0x91
 2061 080c 70       		.sleb128 -16
 2062 080d 22       		.uleb128 0x22
 2063 080e AD000000 		.4byte	.LASF113
 2064 0812 01       		.byte	0x1
 2065 0813 D7       		.byte	0xd7
 2066 0814 D4060000 		.4byte	0x6d4
 2067 0818 02       		.uleb128 0x2
 2068 0819 91       		.byte	0x91
 2069 081a 6C       		.sleb128 -20
 2070 081b 20       		.uleb128 0x20
 2071 081c 8C030000 		.4byte	.LASF117
 2072 0820 35080000 		.4byte	0x835
 2073 0824 00       		.byte	0
 2074 0825 15       		.uleb128 0x15
 2075 0826 F9050000 		.4byte	0x5f9
 2076 082a 35080000 		.4byte	0x835
 2077 082e 16       		.uleb128 0x16
 2078 082f 46040000 		.4byte	0x446
 2079 0833 0A       		.byte	0xa
 2080 0834 00       		.byte	0
 2081 0835 13       		.uleb128 0x13
 2082 0836 25080000 		.4byte	0x825
 2083 083a 23       		.uleb128 0x23
 2084 083b 51050000 		.4byte	.LASF119
 2085 083f 01       		.byte	0x1
 2086 0840 0B01     		.2byte	0x10b
 2087 0842 2C000000 		.4byte	0x2c
 2088 0846 00000000 		.4byte	.LFB245
 2089 084a 70000000 		.4byte	.LFE245-.LFB245
 2090 084e 01       		.uleb128 0x1
 2091 084f 9C       		.byte	0x9c
 2092 0850 9C080000 		.4byte	0x89c
 2093 0854 24       		.uleb128 0x24
 2094 0855 AD000000 		.4byte	.LASF113
 2095 0859 01       		.byte	0x1
 2096 085a 0B01     		.2byte	0x10b
 2097 085c D4060000 		.4byte	0x6d4
 2098 0860 02       		.uleb128 0x2
 2099 0861 91       		.byte	0x91
 2100 0862 64       		.sleb128 -28
 2101 0863 24       		.uleb128 0x24
 2102 0864 07060000 		.4byte	.LASF120
 2103 0868 01       		.byte	0x1
 2104 0869 0B01     		.2byte	0x10b
 2105 086b 9C080000 		.4byte	0x89c
 2106 086f 02       		.uleb128 0x2
 2107 0870 91       		.byte	0x91
ARM GAS  /tmp/ccz3D8ma.s 			page 69


 2108 0871 60       		.sleb128 -32
 2109 0872 25       		.uleb128 0x25
 2110 0873 717000   		.ascii	"qp\000"
 2111 0876 01       		.byte	0x1
 2112 0877 0C01     		.2byte	0x10c
 2113 0879 CE060000 		.4byte	0x6ce
 2114 087d 02       		.uleb128 0x2
 2115 087e 91       		.byte	0x91
 2116 087f 74       		.sleb128 -12
 2117 0880 25       		.uleb128 0x25
 2118 0881 6E00     		.ascii	"n\000"
 2119 0883 01       		.byte	0x1
 2120 0884 0D01     		.2byte	0x10d
 2121 0886 2C000000 		.4byte	0x2c
 2122 088a 02       		.uleb128 0x2
 2123 088b 91       		.byte	0x91
 2124 088c 70       		.sleb128 -16
 2125 088d 25       		.uleb128 0x25
 2126 088e 737A00   		.ascii	"sz\000"
 2127 0891 01       		.byte	0x1
 2128 0892 0D01     		.2byte	0x10d
 2129 0894 2C000000 		.4byte	0x2c
 2130 0898 02       		.uleb128 0x2
 2131 0899 91       		.byte	0x91
 2132 089a 6C       		.sleb128 -20
 2133 089b 00       		.byte	0
 2134 089c 09       		.uleb128 0x9
 2135 089d 04       		.byte	0x4
 2136 089e 2C000000 		.4byte	0x2c
 2137 08a2 22       		.uleb128 0x22
 2138 08a3 36050000 		.4byte	.LASF121
 2139 08a7 01       		.byte	0x1
 2140 08a8 4C       		.byte	0x4c
 2141 08a9 52060000 		.4byte	0x652
 2142 08ad 05       		.uleb128 0x5
 2143 08ae 03       		.byte	0x3
 2144 08af 00000000 		.4byte	default_heap
 2145 08b3 26       		.uleb128 0x26
 2146 08b4 A0000000 		.4byte	.LASF122
 2147 08b8 0F       		.byte	0xf
 2148 08b9 FA06     		.2byte	0x6fa
 2149 08bb BF080000 		.4byte	0x8bf
 2150 08bf 14       		.uleb128 0x14
 2151 08c0 AD000000 		.4byte	0xad
 2152 08c4 27       		.uleb128 0x27
 2153 08c5 636800   		.ascii	"ch\000"
 2154 08c8 07       		.byte	0x7
 2155 08c9 0B02     		.2byte	0x20b
 2156 08cb DF030000 		.4byte	0x3df
 2157 08cf 00       		.byte	0
 2158              		.section	.debug_abbrev,"",%progbits
 2159              	.Ldebug_abbrev0:
 2160 0000 01       		.uleb128 0x1
 2161 0001 11       		.uleb128 0x11
 2162 0002 01       		.byte	0x1
 2163 0003 25       		.uleb128 0x25
 2164 0004 0E       		.uleb128 0xe
ARM GAS  /tmp/ccz3D8ma.s 			page 70


 2165 0005 13       		.uleb128 0x13
 2166 0006 0B       		.uleb128 0xb
 2167 0007 03       		.uleb128 0x3
 2168 0008 0E       		.uleb128 0xe
 2169 0009 1B       		.uleb128 0x1b
 2170 000a 0E       		.uleb128 0xe
 2171 000b 55       		.uleb128 0x55
 2172 000c 17       		.uleb128 0x17
 2173 000d 11       		.uleb128 0x11
 2174 000e 01       		.uleb128 0x1
 2175 000f 10       		.uleb128 0x10
 2176 0010 17       		.uleb128 0x17
 2177 0011 00       		.byte	0
 2178 0012 00       		.byte	0
 2179 0013 02       		.uleb128 0x2
 2180 0014 24       		.uleb128 0x24
 2181 0015 00       		.byte	0
 2182 0016 0B       		.uleb128 0xb
 2183 0017 0B       		.uleb128 0xb
 2184 0018 3E       		.uleb128 0x3e
 2185 0019 0B       		.uleb128 0xb
 2186 001a 03       		.uleb128 0x3
 2187 001b 08       		.uleb128 0x8
 2188 001c 00       		.byte	0
 2189 001d 00       		.byte	0
 2190 001e 03       		.uleb128 0x3
 2191 001f 16       		.uleb128 0x16
 2192 0020 00       		.byte	0
 2193 0021 03       		.uleb128 0x3
 2194 0022 0E       		.uleb128 0xe
 2195 0023 3A       		.uleb128 0x3a
 2196 0024 0B       		.uleb128 0xb
 2197 0025 3B       		.uleb128 0x3b
 2198 0026 0B       		.uleb128 0xb
 2199 0027 49       		.uleb128 0x49
 2200 0028 13       		.uleb128 0x13
 2201 0029 00       		.byte	0
 2202 002a 00       		.byte	0
 2203 002b 04       		.uleb128 0x4
 2204 002c 24       		.uleb128 0x24
 2205 002d 00       		.byte	0
 2206 002e 0B       		.uleb128 0xb
 2207 002f 0B       		.uleb128 0xb
 2208 0030 3E       		.uleb128 0x3e
 2209 0031 0B       		.uleb128 0xb
 2210 0032 03       		.uleb128 0x3
 2211 0033 0E       		.uleb128 0xe
 2212 0034 00       		.byte	0
 2213 0035 00       		.byte	0
 2214 0036 05       		.uleb128 0x5
 2215 0037 13       		.uleb128 0x13
 2216 0038 01       		.byte	0x1
 2217 0039 03       		.uleb128 0x3
 2218 003a 0E       		.uleb128 0xe
 2219 003b 0B       		.uleb128 0xb
 2220 003c 0B       		.uleb128 0xb
 2221 003d 3A       		.uleb128 0x3a
ARM GAS  /tmp/ccz3D8ma.s 			page 71


 2222 003e 0B       		.uleb128 0xb
 2223 003f 3B       		.uleb128 0x3b
 2224 0040 0B       		.uleb128 0xb
 2225 0041 01       		.uleb128 0x1
 2226 0042 13       		.uleb128 0x13
 2227 0043 00       		.byte	0
 2228 0044 00       		.byte	0
 2229 0045 06       		.uleb128 0x6
 2230 0046 0D       		.uleb128 0xd
 2231 0047 00       		.byte	0
 2232 0048 03       		.uleb128 0x3
 2233 0049 0E       		.uleb128 0xe
 2234 004a 3A       		.uleb128 0x3a
 2235 004b 0B       		.uleb128 0xb
 2236 004c 3B       		.uleb128 0x3b
 2237 004d 0B       		.uleb128 0xb
 2238 004e 49       		.uleb128 0x49
 2239 004f 13       		.uleb128 0x13
 2240 0050 38       		.uleb128 0x38
 2241 0051 0B       		.uleb128 0xb
 2242 0052 00       		.byte	0
 2243 0053 00       		.byte	0
 2244 0054 07       		.uleb128 0x7
 2245 0055 0D       		.uleb128 0xd
 2246 0056 00       		.byte	0
 2247 0057 03       		.uleb128 0x3
 2248 0058 08       		.uleb128 0x8
 2249 0059 3A       		.uleb128 0x3a
 2250 005a 0B       		.uleb128 0xb
 2251 005b 3B       		.uleb128 0x3b
 2252 005c 05       		.uleb128 0x5
 2253 005d 49       		.uleb128 0x49
 2254 005e 13       		.uleb128 0x13
 2255 005f 38       		.uleb128 0x38
 2256 0060 0B       		.uleb128 0xb
 2257 0061 00       		.byte	0
 2258 0062 00       		.byte	0
 2259 0063 08       		.uleb128 0x8
 2260 0064 0D       		.uleb128 0xd
 2261 0065 00       		.byte	0
 2262 0066 03       		.uleb128 0x3
 2263 0067 0E       		.uleb128 0xe
 2264 0068 3A       		.uleb128 0x3a
 2265 0069 0B       		.uleb128 0xb
 2266 006a 3B       		.uleb128 0x3b
 2267 006b 05       		.uleb128 0x5
 2268 006c 49       		.uleb128 0x49
 2269 006d 13       		.uleb128 0x13
 2270 006e 38       		.uleb128 0x38
 2271 006f 0B       		.uleb128 0xb
 2272 0070 00       		.byte	0
 2273 0071 00       		.byte	0
 2274 0072 09       		.uleb128 0x9
 2275 0073 0F       		.uleb128 0xf
 2276 0074 00       		.byte	0
 2277 0075 0B       		.uleb128 0xb
 2278 0076 0B       		.uleb128 0xb
ARM GAS  /tmp/ccz3D8ma.s 			page 72


 2279 0077 49       		.uleb128 0x49
 2280 0078 13       		.uleb128 0x13
 2281 0079 00       		.byte	0
 2282 007a 00       		.byte	0
 2283 007b 0A       		.uleb128 0xa
 2284 007c 13       		.uleb128 0x13
 2285 007d 01       		.byte	0x1
 2286 007e 03       		.uleb128 0x3
 2287 007f 0E       		.uleb128 0xe
 2288 0080 0B       		.uleb128 0xb
 2289 0081 0B       		.uleb128 0xb
 2290 0082 3A       		.uleb128 0x3a
 2291 0083 0B       		.uleb128 0xb
 2292 0084 3B       		.uleb128 0x3b
 2293 0085 05       		.uleb128 0x5
 2294 0086 01       		.uleb128 0x1
 2295 0087 13       		.uleb128 0x13
 2296 0088 00       		.byte	0
 2297 0089 00       		.byte	0
 2298 008a 0B       		.uleb128 0xb
 2299 008b 15       		.uleb128 0x15
 2300 008c 01       		.byte	0x1
 2301 008d 27       		.uleb128 0x27
 2302 008e 19       		.uleb128 0x19
 2303 008f 01       		.uleb128 0x1
 2304 0090 13       		.uleb128 0x13
 2305 0091 00       		.byte	0
 2306 0092 00       		.byte	0
 2307 0093 0C       		.uleb128 0xc
 2308 0094 05       		.uleb128 0x5
 2309 0095 00       		.byte	0
 2310 0096 49       		.uleb128 0x49
 2311 0097 13       		.uleb128 0x13
 2312 0098 00       		.byte	0
 2313 0099 00       		.byte	0
 2314 009a 0D       		.uleb128 0xd
 2315 009b 0F       		.uleb128 0xf
 2316 009c 00       		.byte	0
 2317 009d 0B       		.uleb128 0xb
 2318 009e 0B       		.uleb128 0xb
 2319 009f 00       		.byte	0
 2320 00a0 00       		.byte	0
 2321 00a1 0E       		.uleb128 0xe
 2322 00a2 13       		.uleb128 0x13
 2323 00a3 01       		.byte	0x1
 2324 00a4 03       		.uleb128 0x3
 2325 00a5 0E       		.uleb128 0xe
 2326 00a6 0B       		.uleb128 0xb
 2327 00a7 05       		.uleb128 0x5
 2328 00a8 3A       		.uleb128 0x3a
 2329 00a9 0B       		.uleb128 0xb
 2330 00aa 3B       		.uleb128 0x3b
 2331 00ab 05       		.uleb128 0x5
 2332 00ac 01       		.uleb128 0x1
 2333 00ad 13       		.uleb128 0x13
 2334 00ae 00       		.byte	0
 2335 00af 00       		.byte	0
ARM GAS  /tmp/ccz3D8ma.s 			page 73


 2336 00b0 0F       		.uleb128 0xf
 2337 00b1 0D       		.uleb128 0xd
 2338 00b2 00       		.byte	0
 2339 00b3 03       		.uleb128 0x3
 2340 00b4 08       		.uleb128 0x8
 2341 00b5 3A       		.uleb128 0x3a
 2342 00b6 0B       		.uleb128 0xb
 2343 00b7 3B       		.uleb128 0x3b
 2344 00b8 0B       		.uleb128 0xb
 2345 00b9 49       		.uleb128 0x49
 2346 00ba 13       		.uleb128 0x13
 2347 00bb 38       		.uleb128 0x38
 2348 00bc 0B       		.uleb128 0xb
 2349 00bd 00       		.byte	0
 2350 00be 00       		.byte	0
 2351 00bf 10       		.uleb128 0x10
 2352 00c0 13       		.uleb128 0x13
 2353 00c1 01       		.byte	0x1
 2354 00c2 0B       		.uleb128 0xb
 2355 00c3 0B       		.uleb128 0xb
 2356 00c4 3A       		.uleb128 0x3a
 2357 00c5 0B       		.uleb128 0xb
 2358 00c6 3B       		.uleb128 0x3b
 2359 00c7 0B       		.uleb128 0xb
 2360 00c8 01       		.uleb128 0x1
 2361 00c9 13       		.uleb128 0x13
 2362 00ca 00       		.byte	0
 2363 00cb 00       		.byte	0
 2364 00cc 11       		.uleb128 0x11
 2365 00cd 17       		.uleb128 0x17
 2366 00ce 01       		.byte	0x1
 2367 00cf 0B       		.uleb128 0xb
 2368 00d0 0B       		.uleb128 0xb
 2369 00d1 3A       		.uleb128 0x3a
 2370 00d2 0B       		.uleb128 0xb
 2371 00d3 3B       		.uleb128 0x3b
 2372 00d4 0B       		.uleb128 0xb
 2373 00d5 01       		.uleb128 0x1
 2374 00d6 13       		.uleb128 0x13
 2375 00d7 00       		.byte	0
 2376 00d8 00       		.byte	0
 2377 00d9 12       		.uleb128 0x12
 2378 00da 0D       		.uleb128 0xd
 2379 00db 00       		.byte	0
 2380 00dc 03       		.uleb128 0x3
 2381 00dd 0E       		.uleb128 0xe
 2382 00de 3A       		.uleb128 0x3a
 2383 00df 0B       		.uleb128 0xb
 2384 00e0 3B       		.uleb128 0x3b
 2385 00e1 05       		.uleb128 0x5
 2386 00e2 49       		.uleb128 0x49
 2387 00e3 13       		.uleb128 0x13
 2388 00e4 00       		.byte	0
 2389 00e5 00       		.byte	0
 2390 00e6 13       		.uleb128 0x13
 2391 00e7 26       		.uleb128 0x26
 2392 00e8 00       		.byte	0
ARM GAS  /tmp/ccz3D8ma.s 			page 74


 2393 00e9 49       		.uleb128 0x49
 2394 00ea 13       		.uleb128 0x13
 2395 00eb 00       		.byte	0
 2396 00ec 00       		.byte	0
 2397 00ed 14       		.uleb128 0x14
 2398 00ee 35       		.uleb128 0x35
 2399 00ef 00       		.byte	0
 2400 00f0 49       		.uleb128 0x49
 2401 00f1 13       		.uleb128 0x13
 2402 00f2 00       		.byte	0
 2403 00f3 00       		.byte	0
 2404 00f4 15       		.uleb128 0x15
 2405 00f5 01       		.uleb128 0x1
 2406 00f6 01       		.byte	0x1
 2407 00f7 49       		.uleb128 0x49
 2408 00f8 13       		.uleb128 0x13
 2409 00f9 01       		.uleb128 0x1
 2410 00fa 13       		.uleb128 0x13
 2411 00fb 00       		.byte	0
 2412 00fc 00       		.byte	0
 2413 00fd 16       		.uleb128 0x16
 2414 00fe 21       		.uleb128 0x21
 2415 00ff 00       		.byte	0
 2416 0100 49       		.uleb128 0x49
 2417 0101 13       		.uleb128 0x13
 2418 0102 2F       		.uleb128 0x2f
 2419 0103 0B       		.uleb128 0xb
 2420 0104 00       		.byte	0
 2421 0105 00       		.byte	0
 2422 0106 17       		.uleb128 0x17
 2423 0107 15       		.uleb128 0x15
 2424 0108 01       		.byte	0x1
 2425 0109 27       		.uleb128 0x27
 2426 010a 19       		.uleb128 0x19
 2427 010b 49       		.uleb128 0x49
 2428 010c 13       		.uleb128 0x13
 2429 010d 01       		.uleb128 0x1
 2430 010e 13       		.uleb128 0x13
 2431 010f 00       		.byte	0
 2432 0110 00       		.byte	0
 2433 0111 18       		.uleb128 0x18
 2434 0112 0D       		.uleb128 0xd
 2435 0113 00       		.byte	0
 2436 0114 03       		.uleb128 0x3
 2437 0115 0E       		.uleb128 0xe
 2438 0116 3A       		.uleb128 0x3a
 2439 0117 0B       		.uleb128 0xb
 2440 0118 3B       		.uleb128 0x3b
 2441 0119 0B       		.uleb128 0xb
 2442 011a 49       		.uleb128 0x49
 2443 011b 13       		.uleb128 0x13
 2444 011c 00       		.byte	0
 2445 011d 00       		.byte	0
 2446 011e 19       		.uleb128 0x19
 2447 011f 17       		.uleb128 0x17
 2448 0120 01       		.byte	0x1
 2449 0121 03       		.uleb128 0x3
ARM GAS  /tmp/ccz3D8ma.s 			page 75


 2450 0122 0E       		.uleb128 0xe
 2451 0123 0B       		.uleb128 0xb
 2452 0124 0B       		.uleb128 0xb
 2453 0125 3A       		.uleb128 0x3a
 2454 0126 0B       		.uleb128 0xb
 2455 0127 3B       		.uleb128 0x3b
 2456 0128 0B       		.uleb128 0xb
 2457 0129 01       		.uleb128 0x1
 2458 012a 13       		.uleb128 0x13
 2459 012b 00       		.byte	0
 2460 012c 00       		.byte	0
 2461 012d 1A       		.uleb128 0x1a
 2462 012e 0D       		.uleb128 0xd
 2463 012f 00       		.byte	0
 2464 0130 03       		.uleb128 0x3
 2465 0131 08       		.uleb128 0x8
 2466 0132 3A       		.uleb128 0x3a
 2467 0133 0B       		.uleb128 0xb
 2468 0134 3B       		.uleb128 0x3b
 2469 0135 0B       		.uleb128 0xb
 2470 0136 49       		.uleb128 0x49
 2471 0137 13       		.uleb128 0x13
 2472 0138 00       		.byte	0
 2473 0139 00       		.byte	0
 2474 013a 1B       		.uleb128 0x1b
 2475 013b 2E       		.uleb128 0x2e
 2476 013c 00       		.byte	0
 2477 013d 3F       		.uleb128 0x3f
 2478 013e 19       		.uleb128 0x19
 2479 013f 03       		.uleb128 0x3
 2480 0140 0E       		.uleb128 0xe
 2481 0141 3A       		.uleb128 0x3a
 2482 0142 0B       		.uleb128 0xb
 2483 0143 3B       		.uleb128 0x3b
 2484 0144 0B       		.uleb128 0xb
 2485 0145 27       		.uleb128 0x27
 2486 0146 19       		.uleb128 0x19
 2487 0147 11       		.uleb128 0x11
 2488 0148 01       		.uleb128 0x1
 2489 0149 12       		.uleb128 0x12
 2490 014a 06       		.uleb128 0x6
 2491 014b 40       		.uleb128 0x40
 2492 014c 18       		.uleb128 0x18
 2493 014d 9642     		.uleb128 0x2116
 2494 014f 19       		.uleb128 0x19
 2495 0150 00       		.byte	0
 2496 0151 00       		.byte	0
 2497 0152 1C       		.uleb128 0x1c
 2498 0153 2E       		.uleb128 0x2e
 2499 0154 01       		.byte	0x1
 2500 0155 3F       		.uleb128 0x3f
 2501 0156 19       		.uleb128 0x19
 2502 0157 03       		.uleb128 0x3
 2503 0158 0E       		.uleb128 0xe
 2504 0159 3A       		.uleb128 0x3a
 2505 015a 0B       		.uleb128 0xb
 2506 015b 3B       		.uleb128 0x3b
ARM GAS  /tmp/ccz3D8ma.s 			page 76


 2507 015c 0B       		.uleb128 0xb
 2508 015d 27       		.uleb128 0x27
 2509 015e 19       		.uleb128 0x19
 2510 015f 11       		.uleb128 0x11
 2511 0160 01       		.uleb128 0x1
 2512 0161 12       		.uleb128 0x12
 2513 0162 06       		.uleb128 0x6
 2514 0163 40       		.uleb128 0x40
 2515 0164 18       		.uleb128 0x18
 2516 0165 9642     		.uleb128 0x2116
 2517 0167 19       		.uleb128 0x19
 2518 0168 01       		.uleb128 0x1
 2519 0169 13       		.uleb128 0x13
 2520 016a 00       		.byte	0
 2521 016b 00       		.byte	0
 2522 016c 1D       		.uleb128 0x1d
 2523 016d 05       		.uleb128 0x5
 2524 016e 00       		.byte	0
 2525 016f 03       		.uleb128 0x3
 2526 0170 0E       		.uleb128 0xe
 2527 0171 3A       		.uleb128 0x3a
 2528 0172 0B       		.uleb128 0xb
 2529 0173 3B       		.uleb128 0x3b
 2530 0174 0B       		.uleb128 0xb
 2531 0175 49       		.uleb128 0x49
 2532 0176 13       		.uleb128 0x13
 2533 0177 02       		.uleb128 0x2
 2534 0178 18       		.uleb128 0x18
 2535 0179 00       		.byte	0
 2536 017a 00       		.byte	0
 2537 017b 1E       		.uleb128 0x1e
 2538 017c 05       		.uleb128 0x5
 2539 017d 00       		.byte	0
 2540 017e 03       		.uleb128 0x3
 2541 017f 08       		.uleb128 0x8
 2542 0180 3A       		.uleb128 0x3a
 2543 0181 0B       		.uleb128 0xb
 2544 0182 3B       		.uleb128 0x3b
 2545 0183 0B       		.uleb128 0xb
 2546 0184 49       		.uleb128 0x49
 2547 0185 13       		.uleb128 0x13
 2548 0186 02       		.uleb128 0x2
 2549 0187 18       		.uleb128 0x18
 2550 0188 00       		.byte	0
 2551 0189 00       		.byte	0
 2552 018a 1F       		.uleb128 0x1f
 2553 018b 34       		.uleb128 0x34
 2554 018c 00       		.byte	0
 2555 018d 03       		.uleb128 0x3
 2556 018e 08       		.uleb128 0x8
 2557 018f 3A       		.uleb128 0x3a
 2558 0190 0B       		.uleb128 0xb
 2559 0191 3B       		.uleb128 0x3b
 2560 0192 0B       		.uleb128 0xb
 2561 0193 49       		.uleb128 0x49
 2562 0194 13       		.uleb128 0x13
 2563 0195 02       		.uleb128 0x2
ARM GAS  /tmp/ccz3D8ma.s 			page 77


 2564 0196 18       		.uleb128 0x18
 2565 0197 00       		.byte	0
 2566 0198 00       		.byte	0
 2567 0199 20       		.uleb128 0x20
 2568 019a 34       		.uleb128 0x34
 2569 019b 00       		.byte	0
 2570 019c 03       		.uleb128 0x3
 2571 019d 0E       		.uleb128 0xe
 2572 019e 49       		.uleb128 0x49
 2573 019f 13       		.uleb128 0x13
 2574 01a0 34       		.uleb128 0x34
 2575 01a1 19       		.uleb128 0x19
 2576 01a2 00       		.byte	0
 2577 01a3 00       		.byte	0
 2578 01a4 21       		.uleb128 0x21
 2579 01a5 2E       		.uleb128 0x2e
 2580 01a6 01       		.byte	0x1
 2581 01a7 3F       		.uleb128 0x3f
 2582 01a8 19       		.uleb128 0x19
 2583 01a9 03       		.uleb128 0x3
 2584 01aa 0E       		.uleb128 0xe
 2585 01ab 3A       		.uleb128 0x3a
 2586 01ac 0B       		.uleb128 0xb
 2587 01ad 3B       		.uleb128 0x3b
 2588 01ae 0B       		.uleb128 0xb
 2589 01af 27       		.uleb128 0x27
 2590 01b0 19       		.uleb128 0x19
 2591 01b1 49       		.uleb128 0x49
 2592 01b2 13       		.uleb128 0x13
 2593 01b3 11       		.uleb128 0x11
 2594 01b4 01       		.uleb128 0x1
 2595 01b5 12       		.uleb128 0x12
 2596 01b6 06       		.uleb128 0x6
 2597 01b7 40       		.uleb128 0x40
 2598 01b8 18       		.uleb128 0x18
 2599 01b9 9642     		.uleb128 0x2116
 2600 01bb 19       		.uleb128 0x19
 2601 01bc 01       		.uleb128 0x1
 2602 01bd 13       		.uleb128 0x13
 2603 01be 00       		.byte	0
 2604 01bf 00       		.byte	0
 2605 01c0 22       		.uleb128 0x22
 2606 01c1 34       		.uleb128 0x34
 2607 01c2 00       		.byte	0
 2608 01c3 03       		.uleb128 0x3
 2609 01c4 0E       		.uleb128 0xe
 2610 01c5 3A       		.uleb128 0x3a
 2611 01c6 0B       		.uleb128 0xb
 2612 01c7 3B       		.uleb128 0x3b
 2613 01c8 0B       		.uleb128 0xb
 2614 01c9 49       		.uleb128 0x49
 2615 01ca 13       		.uleb128 0x13
 2616 01cb 02       		.uleb128 0x2
 2617 01cc 18       		.uleb128 0x18
 2618 01cd 00       		.byte	0
 2619 01ce 00       		.byte	0
 2620 01cf 23       		.uleb128 0x23
ARM GAS  /tmp/ccz3D8ma.s 			page 78


 2621 01d0 2E       		.uleb128 0x2e
 2622 01d1 01       		.byte	0x1
 2623 01d2 3F       		.uleb128 0x3f
 2624 01d3 19       		.uleb128 0x19
 2625 01d4 03       		.uleb128 0x3
 2626 01d5 0E       		.uleb128 0xe
 2627 01d6 3A       		.uleb128 0x3a
 2628 01d7 0B       		.uleb128 0xb
 2629 01d8 3B       		.uleb128 0x3b
 2630 01d9 05       		.uleb128 0x5
 2631 01da 27       		.uleb128 0x27
 2632 01db 19       		.uleb128 0x19
 2633 01dc 49       		.uleb128 0x49
 2634 01dd 13       		.uleb128 0x13
 2635 01de 11       		.uleb128 0x11
 2636 01df 01       		.uleb128 0x1
 2637 01e0 12       		.uleb128 0x12
 2638 01e1 06       		.uleb128 0x6
 2639 01e2 40       		.uleb128 0x40
 2640 01e3 18       		.uleb128 0x18
 2641 01e4 9642     		.uleb128 0x2116
 2642 01e6 19       		.uleb128 0x19
 2643 01e7 01       		.uleb128 0x1
 2644 01e8 13       		.uleb128 0x13
 2645 01e9 00       		.byte	0
 2646 01ea 00       		.byte	0
 2647 01eb 24       		.uleb128 0x24
 2648 01ec 05       		.uleb128 0x5
 2649 01ed 00       		.byte	0
 2650 01ee 03       		.uleb128 0x3
 2651 01ef 0E       		.uleb128 0xe
 2652 01f0 3A       		.uleb128 0x3a
 2653 01f1 0B       		.uleb128 0xb
 2654 01f2 3B       		.uleb128 0x3b
 2655 01f3 05       		.uleb128 0x5
 2656 01f4 49       		.uleb128 0x49
 2657 01f5 13       		.uleb128 0x13
 2658 01f6 02       		.uleb128 0x2
 2659 01f7 18       		.uleb128 0x18
 2660 01f8 00       		.byte	0
 2661 01f9 00       		.byte	0
 2662 01fa 25       		.uleb128 0x25
 2663 01fb 34       		.uleb128 0x34
 2664 01fc 00       		.byte	0
 2665 01fd 03       		.uleb128 0x3
 2666 01fe 08       		.uleb128 0x8
 2667 01ff 3A       		.uleb128 0x3a
 2668 0200 0B       		.uleb128 0xb
 2669 0201 3B       		.uleb128 0x3b
 2670 0202 05       		.uleb128 0x5
 2671 0203 49       		.uleb128 0x49
 2672 0204 13       		.uleb128 0x13
 2673 0205 02       		.uleb128 0x2
 2674 0206 18       		.uleb128 0x18
 2675 0207 00       		.byte	0
 2676 0208 00       		.byte	0
 2677 0209 26       		.uleb128 0x26
ARM GAS  /tmp/ccz3D8ma.s 			page 79


 2678 020a 34       		.uleb128 0x34
 2679 020b 00       		.byte	0
 2680 020c 03       		.uleb128 0x3
 2681 020d 0E       		.uleb128 0xe
 2682 020e 3A       		.uleb128 0x3a
 2683 020f 0B       		.uleb128 0xb
 2684 0210 3B       		.uleb128 0x3b
 2685 0211 05       		.uleb128 0x5
 2686 0212 49       		.uleb128 0x49
 2687 0213 13       		.uleb128 0x13
 2688 0214 3F       		.uleb128 0x3f
 2689 0215 19       		.uleb128 0x19
 2690 0216 3C       		.uleb128 0x3c
 2691 0217 19       		.uleb128 0x19
 2692 0218 00       		.byte	0
 2693 0219 00       		.byte	0
 2694 021a 27       		.uleb128 0x27
 2695 021b 34       		.uleb128 0x34
 2696 021c 00       		.byte	0
 2697 021d 03       		.uleb128 0x3
 2698 021e 08       		.uleb128 0x8
 2699 021f 3A       		.uleb128 0x3a
 2700 0220 0B       		.uleb128 0xb
 2701 0221 3B       		.uleb128 0x3b
 2702 0222 05       		.uleb128 0x5
 2703 0223 49       		.uleb128 0x49
 2704 0224 13       		.uleb128 0x13
 2705 0225 3F       		.uleb128 0x3f
 2706 0226 19       		.uleb128 0x19
 2707 0227 3C       		.uleb128 0x3c
 2708 0228 19       		.uleb128 0x19
 2709 0229 00       		.byte	0
 2710 022a 00       		.byte	0
 2711 022b 00       		.byte	0
 2712              		.section	.debug_aranges,"",%progbits
 2713 0000 3C000000 		.4byte	0x3c
 2714 0004 0200     		.2byte	0x2
 2715 0006 00000000 		.4byte	.Ldebug_info0
 2716 000a 04       		.byte	0x4
 2717 000b 00       		.byte	0
 2718 000c 0000     		.2byte	0
 2719 000e 0000     		.2byte	0
 2720 0010 00000000 		.4byte	.LFB241
 2721 0014 28000000 		.4byte	.LFE241-.LFB241
 2722 0018 00000000 		.4byte	.LFB242
 2723 001c 40000000 		.4byte	.LFE242-.LFB242
 2724 0020 00000000 		.4byte	.LFB243
 2725 0024 F0000000 		.4byte	.LFE243-.LFB243
 2726 0028 00000000 		.4byte	.LFB244
 2727 002c CE000000 		.4byte	.LFE244-.LFB244
 2728 0030 00000000 		.4byte	.LFB245
 2729 0034 70000000 		.4byte	.LFE245-.LFB245
 2730 0038 00000000 		.4byte	0
 2731 003c 00000000 		.4byte	0
 2732              		.section	.debug_ranges,"",%progbits
 2733              	.Ldebug_ranges0:
 2734 0000 00000000 		.4byte	.LFB241
ARM GAS  /tmp/ccz3D8ma.s 			page 80


 2735 0004 28000000 		.4byte	.LFE241
 2736 0008 00000000 		.4byte	.LFB242
 2737 000c 40000000 		.4byte	.LFE242
 2738 0010 00000000 		.4byte	.LFB243
 2739 0014 F0000000 		.4byte	.LFE243
 2740 0018 00000000 		.4byte	.LFB244
 2741 001c CE000000 		.4byte	.LFE244
 2742 0020 00000000 		.4byte	.LFB245
 2743 0024 70000000 		.4byte	.LFE245
 2744 0028 00000000 		.4byte	0
 2745 002c 00000000 		.4byte	0
 2746              		.section	.debug_line,"",%progbits
 2747              	.Ldebug_line0:
 2748 0000 87030000 		.section	.debug_str,"MS",%progbits,1
 2748      0200C502 
 2748      00000201 
 2748      FB0E0D00 
 2748      01010101 
 2749              	.LASF51:
 2750 0000 72656164 		.ascii	"ready_list_t\000"
 2750      795F6C69 
 2750      73745F74 
 2750      00
 2751              	.LASF2:
 2752 000d 73697A65 		.ascii	"size_t\000"
 2752      5F7400
 2753              	.LASF109:
 2754 0014 6E657874 		.ascii	"next\000"
 2754      00
 2755              	.LASF86:
 2756 0019 7264796D 		.ascii	"rdymsg\000"
 2756      736700
 2757              	.LASF17:
 2758 0020 75696E74 		.ascii	"uint64_t\000"
 2758      36345F74 
 2758      00
 2759              	.LASF3:
 2760 0029 5F5F7569 		.ascii	"__uint8_t\000"
 2760      6E74385F 
 2760      7400
 2761              	.LASF83:
 2762 0033 706F7274 		.ascii	"port_intctx\000"
 2762      5F696E74 
 2762      63747800 
 2763              	.LASF70:
 2764 003f 73797374 		.ascii	"system_debug_t\000"
 2764      656D5F64 
 2764      65627567 
 2764      5F7400
 2765              	.LASF103:
 2766 004e 6D656D67 		.ascii	"memgetfunc_t\000"
 2766      65746675 
 2766      6E635F74 
 2766      00
 2767              	.LASF13:
 2768 005b 6C6F6E67 		.ascii	"long long unsigned int\000"
 2768      206C6F6E 
ARM GAS  /tmp/ccz3D8ma.s 			page 81


 2768      6720756E 
 2768      7369676E 
 2768      65642069 
 2769              	.LASF87:
 2770 0072 65786974 		.ascii	"exitcode\000"
 2770      636F6465 
 2770      00
 2771              	.LASF107:
 2772 007b 685F6672 		.ascii	"h_free\000"
 2772      656500
 2773              	.LASF90:
 2774 0082 73656E74 		.ascii	"sentmsg\000"
 2774      6D736700 
 2775              	.LASF67:
 2776 008a 76697274 		.ascii	"virtual_timers_list_t\000"
 2776      75616C5F 
 2776      74696D65 
 2776      72735F6C 
 2776      6973745F 
 2777              	.LASF122:
 2778 00a0 49544D5F 		.ascii	"ITM_RxBuffer\000"
 2778      52784275 
 2778      66666572 
 2778      00
 2779              	.LASF113:
 2780 00ad 68656170 		.ascii	"heapp\000"
 2780      7000
 2781              	.LASF111:
 2782 00b3 616C6967 		.ascii	"align\000"
 2782      6E00
 2783              	.LASF50:
 2784 00b9 63685F74 		.ascii	"ch_threads_queue\000"
 2784      68726561 
 2784      64735F71 
 2784      75657565 
 2784      00
 2785              	.LASF30:
 2786 00ca 705F7072 		.ascii	"p_prio\000"
 2786      696F00
 2787              	.LASF11:
 2788 00d1 6C6F6E67 		.ascii	"long long int\000"
 2788      206C6F6E 
 2788      6720696E 
 2788      7400
 2789              	.LASF1:
 2790 00df 7369676E 		.ascii	"signed char\000"
 2790      65642063 
 2790      68617200 
 2791              	.LASF108:
 2792 00eb 685F6D74 		.ascii	"h_mtx\000"
 2792      7800
 2793              	.LASF44:
 2794 00f1 705F6D70 		.ascii	"p_mpool\000"
 2794      6F6F6C00 
 2795              	.LASF98:
 2796 00f9 6D5F7175 		.ascii	"m_queue\000"
 2796      65756500 
ARM GAS  /tmp/ccz3D8ma.s 			page 82


 2797              	.LASF115:
 2798 0101 63684865 		.ascii	"chHeapFree\000"
 2798      61704672 
 2798      656500
 2799              	.LASF76:
 2800 010c 76746C69 		.ascii	"vtlist\000"
 2800      737400
 2801              	.LASF89:
 2802 0113 77747472 		.ascii	"wttrp\000"
 2802      7000
 2803              	.LASF74:
 2804 0119 63685F73 		.ascii	"ch_system\000"
 2804      79737465 
 2804      6D00
 2805              	.LASF8:
 2806 0123 6C6F6E67 		.ascii	"long int\000"
 2806      20696E74 
 2806      00
 2807              	.LASF20:
 2808 012c 74737461 		.ascii	"tstate_t\000"
 2808      74655F74 
 2808      00
 2809              	.LASF104:
 2810 0135 6D656D6F 		.ascii	"memory_heap_t\000"
 2810      72795F68 
 2810      6561705F 
 2810      7400
 2811              	.LASF32:
 2812 0143 705F6E65 		.ascii	"p_newer\000"
 2812      77657200 
 2813              	.LASF95:
 2814 014b 735F7175 		.ascii	"s_queue\000"
 2814      65756500 
 2815              	.LASF116:
 2816 0153 5F5F6675 		.ascii	"__func__.6403\000"
 2816      6E635F5F 
 2816      2E363430 
 2816      3300
 2817              	.LASF56:
 2818 0161 725F6E65 		.ascii	"r_newer\000"
 2818      77657200 
 2819              	.LASF80:
 2820 0169 72656761 		.ascii	"regarm_t\000"
 2820      726D5F74 
 2820      00
 2821              	.LASF63:
 2822 0172 76745F70 		.ascii	"vt_prev\000"
 2822      72657600 
 2823              	.LASF102:
 2824 017a 6D757465 		.ascii	"mutex_t\000"
 2824      785F7400 
 2825              	.LASF127:
 2826 0182 5F686561 		.ascii	"_heap_init\000"
 2826      705F696E 
 2826      697400
 2827              	.LASF78:
 2828 018d 69646C65 		.ascii	"idle_thread_wa\000"
ARM GAS  /tmp/ccz3D8ma.s 			page 83


 2828      5F746872 
 2828      6561645F 
 2828      776100
 2829              	.LASF124:
 2830 019c 2E2E2F43 		.ascii	"../ChibiOS/os/rt/src/chheap.c\000"
 2830      68696269 
 2830      4F532F6F 
 2830      732F7274 
 2830      2F737263 
 2831              	.LASF25:
 2832 01ba 636E745F 		.ascii	"cnt_t\000"
 2832      7400
 2833              	.LASF123:
 2834 01c0 474E5520 		.ascii	"GNU C 4.8.4 20140526 (release) [ARM/embedded-4_8-br"
 2834      4320342E 
 2834      382E3420 
 2834      32303134 
 2834      30353236 
 2835 01f3 616E6368 		.ascii	"anch revision 211358] -mcpu=cortex-m4 -mno-thumb-in"
 2835      20726576 
 2835      6973696F 
 2835      6E203231 
 2835      31333538 
 2836 0226 74657277 		.ascii	"terwork -mthumb -ggdb -O0 -fomit-frame-pointer -fal"
 2836      6F726B20 
 2836      2D6D7468 
 2836      756D6220 
 2836      2D676764 
 2837 0259 69676E2D 		.ascii	"ign-functions=16 -ffunction-sections -fdata-section"
 2837      66756E63 
 2837      74696F6E 
 2837      733D3136 
 2837      202D6666 
 2838 028c 73202D66 		.ascii	"s -fno-common -flto\000"
 2838      6E6F2D63 
 2838      6F6D6D6F 
 2838      6E202D66 
 2838      6C746F00 
 2839              	.LASF0:
 2840 02a0 756E7369 		.ascii	"unsigned int\000"
 2840      676E6564 
 2840      20696E74 
 2840      00
 2841              	.LASF62:
 2842 02ad 76745F6E 		.ascii	"vt_next\000"
 2842      65787400 
 2843              	.LASF91:
 2844 02b5 77747365 		.ascii	"wtsemp\000"
 2844      6D7000
 2845              	.LASF40:
 2846 02bc 705F6D73 		.ascii	"p_msgqueue\000"
 2846      67717565 
 2846      756500
 2847              	.LASF96:
 2848 02c7 735F636E 		.ascii	"s_cnt\000"
 2848      7400
 2849              	.LASF6:
ARM GAS  /tmp/ccz3D8ma.s 			page 84


 2850 02cd 73686F72 		.ascii	"short unsigned int\000"
 2850      7420756E 
 2850      7369676E 
 2850      65642069 
 2850      6E7400
 2851              	.LASF47:
 2852 02e0 63685F74 		.ascii	"ch_thread\000"
 2852      68726561 
 2852      6400
 2853              	.LASF77:
 2854 02ea 6D61696E 		.ascii	"mainthread\000"
 2854      74687265 
 2854      616400
 2855              	.LASF23:
 2856 02f5 6D73675F 		.ascii	"msg_t\000"
 2856      7400
 2857              	.LASF73:
 2858 02fb 63685F73 		.ascii	"ch_system_t\000"
 2858      79737465 
 2858      6D5F7400 
 2859              	.LASF19:
 2860 0307 746D6F64 		.ascii	"tmode_t\000"
 2860      655F7400 
 2861              	.LASF52:
 2862 030f 63685F72 		.ascii	"ch_ready_list\000"
 2862      65616479 
 2862      5F6C6973 
 2862      7400
 2863              	.LASF24:
 2864 031d 6576656E 		.ascii	"eventmask_t\000"
 2864      746D6173 
 2864      6B5F7400 
 2865              	.LASF7:
 2866 0329 5F5F696E 		.ascii	"__int32_t\000"
 2866      7433325F 
 2866      7400
 2867              	.LASF81:
 2868 0333 73746B61 		.ascii	"stkalign_t\000"
 2868      6C69676E 
 2868      5F7400
 2869              	.LASF114:
 2870 033e 63684865 		.ascii	"chHeapObjectInit\000"
 2870      61704F62 
 2870      6A656374 
 2870      496E6974 
 2870      00
 2871              	.LASF39:
 2872 034f 705F7761 		.ascii	"p_waiting\000"
 2872      6974696E 
 2872      6700
 2873              	.LASF79:
 2874 0359 73697A65 		.ascii	"sizetype\000"
 2874      74797065 
 2874      00
 2875              	.LASF45:
 2876 0362 74687265 		.ascii	"thread_reference_t\000"
 2876      61645F72 
ARM GAS  /tmp/ccz3D8ma.s 			page 85


 2876      65666572 
 2876      656E6365 
 2876      5F7400
 2877              	.LASF68:
 2878 0375 63685F76 		.ascii	"ch_virtual_timers_list\000"
 2878      69727475 
 2878      616C5F74 
 2878      696D6572 
 2878      735F6C69 
 2879              	.LASF117:
 2880 038c 5F5F6675 		.ascii	"__func__.6420\000"
 2880      6E635F5F 
 2880      2E363432 
 2880      3000
 2881              	.LASF69:
 2882 039a 76745F6C 		.ascii	"vt_lasttime\000"
 2882      61737474 
 2882      696D6500 
 2883              	.LASF33:
 2884 03a6 705F6F6C 		.ascii	"p_older\000"
 2884      64657200 
 2885              	.LASF55:
 2886 03ae 725F6374 		.ascii	"r_ctx\000"
 2886      7800
 2887              	.LASF125:
 2888 03b4 2F6E6673 		.ascii	"/nfs/nfs4/home/irbrown/Courses/P442/P442WifiTrailCo"
 2888      2F6E6673 
 2888      342F686F 
 2888      6D652F69 
 2888      7262726F 
 2889 03e7 756E7465 		.ascii	"unterProject/milestone3\000"
 2889      7250726F 
 2889      6A656374 
 2889      2F6D696C 
 2889      6573746F 
 2890              	.LASF85:
 2891 03ff 746D5F63 		.ascii	"tm_calibration_t\000"
 2891      616C6962 
 2891      72617469 
 2891      6F6E5F74 
 2891      00
 2892              	.LASF35:
 2893 0410 705F7374 		.ascii	"p_stklimit\000"
 2893      6B6C696D 
 2893      697400
 2894              	.LASF58:
 2895 041b 725F6375 		.ascii	"r_current\000"
 2895      7272656E 
 2895      7400
 2896              	.LASF57:
 2897 0425 725F6F6C 		.ascii	"r_older\000"
 2897      64657200 
 2898              	.LASF12:
 2899 042d 5F5F7569 		.ascii	"__uint64_t\000"
 2899      6E743634 
 2899      5F7400
 2900              	.LASF21:
ARM GAS  /tmp/ccz3D8ma.s 			page 86


 2901 0438 74726566 		.ascii	"trefs_t\000"
 2901      735F7400 
 2902              	.LASF60:
 2903 0440 76697274 		.ascii	"virtual_timer_t\000"
 2903      75616C5F 
 2903      74696D65 
 2903      725F7400 
 2904              	.LASF29:
 2905 0450 705F7072 		.ascii	"p_prev\000"
 2905      657600
 2906              	.LASF22:
 2907 0457 74707269 		.ascii	"tprio_t\000"
 2907      6F5F7400 
 2908              	.LASF71:
 2909 045f 63685F73 		.ascii	"ch_system_debug\000"
 2909      79737465 
 2909      6D5F6465 
 2909      62756700 
 2910              	.LASF15:
 2911 046f 696E7433 		.ascii	"int32_t\000"
 2911      325F7400 
 2912              	.LASF4:
 2913 0477 756E7369 		.ascii	"unsigned char\000"
 2913      676E6564 
 2913      20636861 
 2913      7200
 2914              	.LASF126:
 2915 0485 68656170 		.ascii	"heap_header\000"
 2915      5F686561 
 2915      64657200 
 2916              	.LASF42:
 2917 0491 705F6D74 		.ascii	"p_mtxlist\000"
 2917      786C6973 
 2917      7400
 2918              	.LASF5:
 2919 049b 73686F72 		.ascii	"short int\000"
 2919      7420696E 
 2919      7400
 2920              	.LASF36:
 2921 04a5 705F7374 		.ascii	"p_state\000"
 2921      61746500 
 2922              	.LASF54:
 2923 04ad 725F7072 		.ascii	"r_prio\000"
 2923      696F00
 2924              	.LASF93:
 2925 04b4 65776D61 		.ascii	"ewmask\000"
 2925      736B00
 2926              	.LASF28:
 2927 04bb 705F6E65 		.ascii	"p_next\000"
 2927      787400
 2928              	.LASF37:
 2929 04c2 705F666C 		.ascii	"p_flags\000"
 2929      61677300 
 2930              	.LASF118:
 2931 04ca 63684865 		.ascii	"chHeapAlloc\000"
 2931      6170416C 
 2931      6C6F6300 
ARM GAS  /tmp/ccz3D8ma.s 			page 87


 2932              	.LASF94:
 2933 04d6 63685F73 		.ascii	"ch_semaphore\000"
 2933      656D6170 
 2933      686F7265 
 2933      00
 2934              	.LASF41:
 2935 04e3 705F6570 		.ascii	"p_epending\000"
 2935      656E6469 
 2935      6E6700
 2936              	.LASF16:
 2937 04ee 75696E74 		.ascii	"uint32_t\000"
 2937      33325F74 
 2937      00
 2938              	.LASF92:
 2939 04f7 77746D74 		.ascii	"wtmtxp\000"
 2939      787000
 2940              	.LASF53:
 2941 04fe 725F7175 		.ascii	"r_queue\000"
 2941      65756500 
 2942              	.LASF64:
 2943 0506 76745F64 		.ascii	"vt_delta\000"
 2943      656C7461 
 2943      00
 2944              	.LASF48:
 2945 050f 63685F74 		.ascii	"ch_threads_list\000"
 2945      68726561 
 2945      64735F6C 
 2945      69737400 
 2946              	.LASF110:
 2947 051f 68656170 		.ascii	"heap\000"
 2947      00
 2948              	.LASF10:
 2949 0524 6C6F6E67 		.ascii	"long unsigned int\000"
 2949      20756E73 
 2949      69676E65 
 2949      6420696E 
 2949      7400
 2950              	.LASF121:
 2951 0536 64656661 		.ascii	"default_heap\000"
 2951      756C745F 
 2951      68656170 
 2951      00
 2952              	.LASF101:
 2953 0543 63686172 		.ascii	"char\000"
 2953      00
 2954              	.LASF27:
 2955 0548 74687265 		.ascii	"thread_t\000"
 2955      61645F74 
 2955      00
 2956              	.LASF119:
 2957 0551 63684865 		.ascii	"chHeapStatus\000"
 2957      61705374 
 2957      61747573 
 2957      00
 2958              	.LASF100:
 2959 055e 6D5F6E65 		.ascii	"m_next\000"
 2959      787400
ARM GAS  /tmp/ccz3D8ma.s 			page 88


 2960              	.LASF26:
 2961 0565 73797374 		.ascii	"systime_t\000"
 2961      696D655F 
 2961      7400
 2962              	.LASF43:
 2963 056f 705F7265 		.ascii	"p_realprio\000"
 2963      616C7072 
 2963      696F00
 2964              	.LASF59:
 2965 057a 76746675 		.ascii	"vtfunc_t\000"
 2965      6E635F74 
 2965      00
 2966              	.LASF9:
 2967 0583 5F5F7569 		.ascii	"__uint32_t\000"
 2967      6E743332 
 2967      5F7400
 2968              	.LASF72:
 2969 058e 70616E69 		.ascii	"panic_msg\000"
 2969      635F6D73 
 2969      6700
 2970              	.LASF84:
 2971 0598 6F666673 		.ascii	"offset\000"
 2971      657400
 2972              	.LASF82:
 2973 059f 636F6E74 		.ascii	"context\000"
 2973      65787400 
 2974              	.LASF61:
 2975 05a7 63685F76 		.ascii	"ch_virtual_timer\000"
 2975      69727475 
 2975      616C5F74 
 2975      696D6572 
 2975      00
 2976              	.LASF18:
 2977 05b8 7274636E 		.ascii	"rtcnt_t\000"
 2977      745F7400 
 2978              	.LASF66:
 2979 05c0 76745F70 		.ascii	"vt_par\000"
 2979      617200
 2980              	.LASF49:
 2981 05c7 74687265 		.ascii	"threads_queue_t\000"
 2981      6164735F 
 2981      71756575 
 2981      655F7400 
 2982              	.LASF97:
 2983 05d7 63685F6D 		.ascii	"ch_mutex\000"
 2983      75746578 
 2983      00
 2984              	.LASF38:
 2985 05e0 705F7265 		.ascii	"p_refs\000"
 2985      667300
 2986              	.LASF75:
 2987 05e7 726C6973 		.ascii	"rlist\000"
 2987      7400
 2988              	.LASF14:
 2989 05ed 75696E74 		.ascii	"uint8_t\000"
 2989      385F7400 
 2990              	.LASF106:
ARM GAS  /tmp/ccz3D8ma.s 			page 89


 2991 05f5 685F7072 		.ascii	"h_provider\000"
 2991      6F766964 
 2991      657200
 2992              	.LASF88:
 2993 0600 77746F62 		.ascii	"wtobjp\000"
 2993      6A7000
 2994              	.LASF120:
 2995 0607 73697A65 		.ascii	"sizep\000"
 2995      7000
 2996              	.LASF34:
 2997 060d 705F6E61 		.ascii	"p_name\000"
 2997      6D6500
 2998              	.LASF112:
 2999 0614 73697A65 		.ascii	"size\000"
 2999      00
 3000              	.LASF46:
 3001 0619 74687265 		.ascii	"threads_list_t\000"
 3001      6164735F 
 3001      6C697374 
 3001      5F7400
 3002              	.LASF99:
 3003 0628 6D5F6F77 		.ascii	"m_owner\000"
 3003      6E657200 
 3004              	.LASF31:
 3005 0630 705F6374 		.ascii	"p_ctx\000"
 3005      7800
 3006              	.LASF65:
 3007 0636 76745F66 		.ascii	"vt_func\000"
 3007      756E6300 
 3008              	.LASF105:
 3009 063e 6D656D6F 		.ascii	"memory_heap\000"
 3009      72795F68 
 3009      65617000 
 3010              		.comm	__gnu_lto_v1,1,1
 3011              		.ident	"GCC: (GNU Tools for ARM Embedded Processors) 4.8.4 20140526 (release) [ARM/embedded-4_8-br
ARM GAS  /tmp/ccz3D8ma.s 			page 90


DEFINED SYMBOLS
                            *ABS*:00000000 chheap.c
     /tmp/ccz3D8ma.s:518    .bss.default_heap:00000000 $d
     /tmp/ccz3D8ma.s:521    .bss.default_heap:00000000 default_heap
     /tmp/ccz3D8ma.s:524    .text._heap_init:00000000 $t
     /tmp/ccz3D8ma.s:530    .text._heap_init:00000000 _heap_init
     /tmp/ccz3D8ma.s:561    .text._heap_init:0000001c $d
     /tmp/ccz3D8ma.s:568    .text.chHeapObjectInit:00000000 $t
     /tmp/ccz3D8ma.s:574    .text.chHeapObjectInit:00000000 chHeapObjectInit
     /tmp/ccz3D8ma.s:625    .text.chHeapAlloc:00000000 $t
     /tmp/ccz3D8ma.s:631    .text.chHeapAlloc:00000000 chHeapAlloc
     /tmp/ccz3D8ma.s:793    .text.chHeapAlloc:000000ec $d
     /tmp/ccz3D8ma.s:798    .text.chHeapFree:00000000 $t
     /tmp/ccz3D8ma.s:804    .text.chHeapFree:00000000 chHeapFree
     /tmp/ccz3D8ma.s:945    .text.chHeapStatus:00000000 $t
     /tmp/ccz3D8ma.s:951    .text.chHeapStatus:00000000 chHeapStatus
     /tmp/ccz3D8ma.s:1035   .text.chHeapStatus:0000006c $d
                            *COM*:00000001 __gnu_lto_v1
                     .debug_frame:00000010 $d
     /tmp/ccz3D8ma.s:567    .text._heap_init:00000028 $t

UNDEFINED SYMBOLS
chMtxObjectInit
chCoreAlloc
chMtxLock
chMtxUnlock
