ARM GAS  /tmp/ccpJRJbB.s 			page 1


   1              		.syntax unified
   2              		.cpu cortex-m4
   3              		.fpu softvfp
   4              		.eabi_attribute 20, 1
   5              		.eabi_attribute 21, 1
   6              		.eabi_attribute 23, 3
   7              		.eabi_attribute 24, 1
   8              		.eabi_attribute 25, 1
   9              		.eabi_attribute 26, 1
  10              		.eabi_attribute 30, 2
  11              		.eabi_attribute 34, 1
  12              		.eabi_attribute 18, 4
  13              		.thumb
  14              		.file	"chmemcore.c"
  15              		.text
  16              	.Ltext0:
  17              		.section	.gnu.lto_.jmpfuncs.46b8fef4e2645ea8,"",%progbits
  18 0000 789C6362 		.ascii	"x\234cb`b\300\006\270\2404\013\003\003+#\033#;\003\003"
  18      6062C006 
  18      B8A0340B 
  18      03032B23 
  18      1B233B03 
  19 0015 00020A00 		.ascii	"\000\002\012\000'"
  19      27
  20              		.text
  21              		.section	.gnu.lto_.inline.46b8fef4e2645ea8,"",%progbits
  22 0000 789C6362 		.ascii	"x\234cb`b\300\006\222\2414\013\003\003+\013#\003\023"
  22      6062C006 
  22      92A1340B 
  22      03032B0B 
  22      230313
  23 0013 CB027906 		.ascii	"\313\002y\006\266\005\362`\305\254\014|\274\214\214"
  23      B605F260 
  23      C5AC0C7C 
  23      BC8C8C
  24 0022 0C8C4026 		.ascii	"\014\214@&\263\320\201NF\210\004P\005\013H\226\215\201"
  24      B3D0814E 
  24      46880450 
  24      050B4896 
  24      8D81
  25 0034 871B26CB 		.ascii	"\207\033&\313\267 \013U\222\235\201\215\025h\032\333"
  25      B7200B55 
  25      929D818D 
  25      15681ADB 
  26 0044 073DB869 		.ascii	"\007=\270i\014\000\350g\011\333"
  26      0C00E867 
  26      09DB
  27              		.text
  28              		.section	.gnu.lto_.pureconst.46b8fef4e2645ea8,"",%progbits
  29 0000 789C6362 		.ascii	"x\234cb`b\340d\200\000\026\006\011V+6\011v\026\000\003"
  29      6062E064 
  29      80001606 
  29      09562B36 
  29      09761600 
  30 0015 7C0092   		.ascii	"|\000\222"
  31              		.text
  32              		.section	.gnu.lto__core_init.46b8fef4e2645ea8,"",%progbits
ARM GAS  /tmp/ccpJRJbB.s 			page 2


  33 0000 789C8D51 		.ascii	"x\234\215Q=H\034A\024~ov\357\334#?\306\322N\215\365"
  33      3D481C41 
  33      147E6F76 
  33      EFDC233F 
  33      C6D24E8D 
  34 0015 6E4C52A4 		.ascii	"nLR\244\212E\352`\241\011\261Z\326u\361\2668\225;\021"
  34      8A45EA60 
  34      A109B15A 
  34      D675F1B6 
  34      38953B11 
  35 0029 C1E2E67E 		.ascii	"\301\342\346~\022\216\200p\011\206\220\244QDDD\024,"
  35      128E8070 
  35      098690A4 
  35      51444444 
  35      142C
  36 003b 8218702B 		.ascii	"\202\030p+1\205A\323\2469\301\316 )CP'ofo\275s\023C"
  36      318541D3 
  36      A639C1CE 
  36      20294350 
  36      276F666F 
  37 0053 1EECBC99 		.ascii	"\036\354\274\231\367\275o\276o\3370`\020\217v\372\316"
  37      F7BD6FBE 
  37      6FDF3060 
  37      108F76FA 
  37      CE
  38 0064 A83C4E19 		.ascii	"\250<N\0315@V\375\002P0\030\242\334\000B\236a~\020e"
  38      354056FD 
  38      02503018 
  38      A2DC0042 
  38      9E617E10 
  39 0079 ABDE05F3 		.ascii	"\253\336\005\363\234\277\256=?\016\264w\263Ay\216\237"
  39      9CBFAE3D 
  39      3F0EB477 
  39      B341798E 
  39      9F
  40 008a 0A81E823 		.ascii	"\012\201\350#]\333\215\340\"<\243\003v\250\304\364\313"
  40      5DDB8DE0 
  40      223CA303 
  40      76A8C4F4 
  40      CB
  41 009b 3A21976F 		.ascii	":!\227o\035\355\353\273\274\034\010\321\353\243\306"
  41      1DEDEBBB 
  41      BC1C08D1 
  41      EBA3C6
  42 00aa E0FE5F79 		.ascii	"\340\376_y\031\214\023\203o;o\333_\316\025\253\374\234"
  42      198C1383 
  42      6F3B6FDB 
  42      5FCE15AB 
  42      FC9C
  43 00bc 3495E4C3 		.ascii	"4\225\344\303\377\224\334\214I>\276B\262\241\271\306"
  43      FF94DC8C 
  43      493EBE42 
  43      B2A1B9C6 
  44 00cc 829A10DF 		.ascii	"\202\232\020\3377>\035nc\3335\004\007\347\261\213\024"
  44      373E1D6E 
  44      63DB3504 
  44      07E7B18B 
ARM GAS  /tmp/ccpJRJbB.s 			page 3


  44      14
  45 00dd 4956938B 		.ascii	"IV\223\213N\225\005\252\264P^\244l\310b\212\016Kt\240"
  45      4E9505AA 
  45      B4505EA4 
  45      6CC8628A 
  45      0E4B74A0 
  46 00f1 484099F3 		.ascii	"H@\231\363j\207\324\257U\203\203\027o\220\037\362Wu"
  46      6A87D4AF 
  46      55838317 
  46      6F901FF2 
  46      5775
  47 0103 E73A83A7 		.ascii	"\347:\203\247\312A\024\016\256 k\366L\234\257;\234\343"
  47      CA41140E 
  47      AE206BF6 
  47      4C9CAF3B 
  47      9CE3
  48 0115 7A50E142 		.ascii	"zP\341B\344\025e8FY\305\246\247\014\221\001Z\345\233"
  48      E4156538 
  48      4659C5A6 
  48      A70C9101 
  48      5AE59B
  49 0128 3D2188B2 		.ascii	"=!\210\262\266\007\305\223\322\306\314\003\007\2271"
  49      B607C593 
  49      D2C6CC03 
  49      079731
  50 0137 012388D3 		.ascii	"\001#\210\323\360\213\033>&2u\356\036\224*Z\2042j\220"
  50      F08B1B3E 
  50      263275EE 
  50      1E942A5A 
  50      84326A90 
  51 014b C3A09F52 		.ascii	"\303\240\237R\310\326\005\242\021\250\220\237B\210V"
  51      C8D605A2 
  51      11A8909F 
  51      428856
  52 015a 85168F4B 		.ascii	"\205\026\217K\223\021\254S\207\252}\376\221\014k\037"
  52      9311AC53 
  52      87AA7DFE 
  52      910C6B1F 
  53 016a E07D81F3 		.ascii	"\340}\201\363[4l\251X\221\273d\370\242\362\232\244\322"
  53      5B346CA9 
  53      5891BB64 
  53      F8A2F29A 
  53      A4D2
  54 017c 269E229D 		.ascii	"&\236\"\235\224>\316X\321U-\015\207Z\344\260\341\303"
  54      943ECE58 
  54      D1552D0D 
  54      875AE4B0 
  54      E1C3
  55 018e A0863F7D 		.ascii	"\240\206?}d#8E\035\241\217\375\177\372\300\230\217\024"
  55      64233845 
  55      1DA18FFD 
  55      7FFAC098 
  55      8F14
  56 01a0 C001146A 		.ascii	"\300\001\024j\333\267CR\024\003\324HS\224\223\3524M"
  56      DBB74352 
  56      1403D448 
  56      539493EA 
ARM GAS  /tmp/ccpJRJbB.s 			page 4


  56      344D
  57 01b2 EB51DA1F 		.ascii	"\353Q\332\037\362\373\372\255\261\234\225\235\260rY"
  57      F2FBFAAD 
  57      B19C959D 
  57      B07259
  58 01c1 D772D319 		.ascii	"\327r\323\031/\343\216e=\323\205V\333N{\316\270=\344"
  58      2FE38E65 
  58      3DD38556 
  58      DB4E7BCE 
  58      B83DE4
  59 01d4 E43CDB36 		.ascii	"\344<\3336\357\244F\275\251\011\202\315\236\233u\304"
  59      EFA446BD 
  59      A90982CD 
  59      9E9B75C4 
  60 01e4 1B1D26E0 		.ascii	"\033\035&\340\256AY\326\357\335\270\304\270\336\334"
  60      AE4159D6 
  60      EFDDB8C4 
  60      B8DEDC
  61 01f3 F51B8178 		.ascii	"\365\033\201x\342\177"
  61      E27F
  62              		.text
  63              		.section	.gnu.lto_chCoreAlloc.46b8fef4e2645ea8,"",%progbits
  64 0000 789C9D54 		.ascii	"x\234\235TkH\024q\020\237\371\357\336\333GA\037\262"
  64      6B481471 
  64      109FF9EF 
  64      DEDB4741 
  64      1FB2
  65 0012 C2AE282A 		.ascii	"\302\256(*\212\333\300\312\276\004\205P\370A\212,\250"
  65      8ADBC0CA 
  65      BE048550 
  65      F8418A2C 
  65      A8
  66 0023 4FB16DC7 		.ascii	"O\261m\307\335\202\247r\247b\365\301\325\353\375 \211"
  66      DD82A772 
  66      A762F5C1 
  66      D5EBFD20 
  66      89
  67 0034 C05E8612 		.ascii	"\300^\206\022\226\021e\017\242\310\242\373\020\251W"
  67      9611650F 
  67      A2C8A2FB 
  67      10A957
  68 0043 09114141 		.ascii	"\011\021AA\304Q\021E/zaF\264\315\177\367v\3173Q\351"
  68      C4511145 
  68      2F7A6146 
  68      B4CD7FF7 
  68      76CF3351 
  69 0058 606F6667 		.ascii	"`ofg\376\277\371\315\314\177f\0310\030\376+\242g\216"
  69      FEBFF9CD 
  69      CC7F6619 
  69      3018FE2B 
  69      A2678E
  70 006b 13609024 		.ascii	"\023`\220$:\000Ys?@\243\2331\361\255\0134\257\320y\017"
  70      3A005973 
  70      3F40A39B 
  70      31F1AD0B 
  70      34AFD079 
  71 0080 40CB1150 		.ascii	"@\313\021P4\355\"\"W\000\241\201\011\"6lD\036\3049\023"
ARM GAS  /tmp/ccpJRJbB.s 			page 5


  71      34ED2222 
  71      5700A181 
  71      0922366C 
  71      441EC439 
  72 0095 DA35ED70 		.ascii	"\3325\355p\252c\340F\201\326\326\324\254\375\321uT\221"
  72      AA63E046 
  72      81D6D6D4 
  72      ACFDD175 
  72      5491
  73 00a7 E8662128 		.ascii	"\350f!(\010\033\350\005\375\206`b6\277\211L\334I\036"
  73      081BE805 
  73      FD866062 
  73      36BF894C 
  73      DC491E
  74 00ba 2C486690 		.ascii	",Hf\220\002\203y#\"#8\014\332\234\270\226l)\330\227"
  74      02837923 
  74      2223380C 
  74      DA9CB896 
  74      6C29D897 
  75 00ce 818A0C8A 		.ascii	"\201\212\014\212\306G\252]\351\324<m\332o]\027\014\306"
  75      C647AA5D 
  75      E9D43C6D 
  75      DA6F5D17 
  75      0CC6
  76 00e0 65E38235 		.ascii	"e\343\2025g\301\210m\325\377\261\255\031\013\326\305"
  76      67C1886D 
  76      D5FFB1AD 
  76      190BD6C5 
  77 00f0 12295D7F 		.ascii	"\022)]\177\336\335\366\362#N\234$`\004\321\011*:\\ "
  77      DEDDF6F2 
  77      234E9C24 
  77      6004D109 
  77      2A3A5C20 
  78 0104 633BCE04 		.ascii	"c;\316\0047\311\363$=$\317\221\364\222<K\322G\262\203"
  78      37C9F324 
  78      3D24CF91 
  78      F4923C4B 
  78      D247B283 
  79 0118 640E1D16 		.ascii	"d\016\035\026s9\"\217,\247\311\222O/t\325\340\200\035"
  79      7339228F 
  79      2CA7C992 
  79      4F2F74D5 
  79      E0801D
  80 012b 54873FDD 		.ascii	"T\207?\335\372\333=\007\206^\232\223\301\306\261R\003"
  80      FADB3D07 
  80      865E9A93 
  80      C1C6B152 
  80      03
  81 013c EEA7DF3A 		.ascii	"\356\247\337:\372\347\343\260\036\031\227B\0374\271"
  81      FAE7E3B0 
  81      1E199742 
  81      1F34B9
  82 014b AD7A5303 		.ascii	"\255zS\003\273\036\364\340\341\270\326\253\355HP\344"
  82      BB1EF4E0 
  82      E1B8D6AB 
  82      ED4850E4 
  83 015b E92ABA18 		.ascii	"\351*\272\030\354\306\261bs\233\313OJ?4}i\335y\365\200"
ARM GAS  /tmp/ccpJRJbB.s 			page 6


  83      ECC6B162 
  83      739BCB4F 
  83      4A3F347D 
  83      69DD79F5 
  84 0170 904ED7CA 		.ascii	"\220N\327\312;\361\371`g\376\\\031/QE\266\355[\313-"
  84      3BF1F960 
  84      67FE5C19 
  84      2F5145B6 
  84      ED5BCB2D 
  85 0184 DF34FB6D 		.ascii	"\3374\373m\357wJL\306\0134\320\212A\310\350\021\300"
  85      EF774A4C 
  85      C60B34D0 
  85      8A41C8E8 
  85      11C0
  86 0196 985B8417 		.ascii	"\230[\204\027\244\322\"\010\3466\024\302gl\325\216."
  86      A4D22208 
  86      E63614C2 
  86      676CD58E 
  86      2E
  87 01a7 57D19D45 		.ascii	"W\321\235E\237\361\177M\373=f\202f\221\346\035\204x"
  87      9FF17F4D 
  87      FB3D6682 
  87      6691E61D 
  87      8478
  88 01b9 D48710DF 		.ascii	"\324\207\020\337\023\177udJv[\217%\263\333*c\227\221"
  88      137F7564 
  88      4A765B8F 
  88      25B3DB2A 
  88      639791
  89 01cc C6E87D35 		.ascii	"\306\350}5chg\0179L\202L\031\306\321\020:\211\222C\301"
  89      6368670F 
  89      394C824C 
  89      19C6D110 
  89      3A899243 
  90 01e1 05067337 		.ascii	"\005\006s71O\226\261\233\316\204\320E~\303\371S\327"
  90      314F96B1 
  90      9BCE84D0 
  90      457EC3F9 
  90      53D7
  91 01f3 F57C2357 		.ascii	"\365|#Wf\372\254t]\034\324\324\367\364\314 \263@\356"
  91      66FAAC74 
  91      5D1CD4D4 
  91      F7F4CC20 
  91      B340EE
  92 0206 1370BC51 		.ascii	"\023p\274Q\323&\320Tn\207_\332\036\256y#\310\322\315"
  92      D326D054 
  92      6E875FDA 
  92      1EAE7923 
  92      C8D2CD
  93 0219 F0A63323 		.ascii	"\360\2463#\330{\301\302xB\274[d*\265,\336\221\243\300"
  93      D87BC1C2 
  93      7842BC5B 
  93      642AB52C 
  93      DE91A3C0 
  94 022d 68517C21 		.ascii	"hQ|!n\247\"\366\332\246\034#\266\3178\370)^h\231s\311"
  94      6EA722F6 
  94      DAA61C23 
ARM GAS  /tmp/ccpJRJbB.s 			page 7


  94      B6CF38F8 
  94      295E6899 
  95 0243 03D00B77 		.ascii	"\003\320\013w\3374\346\016)67\323\270\365t\023\364\255"
  95      DF34E60E 
  95      293637D3 
  95      B8F57413 
  95      F4AD
  96 0255 E223983A 		.ascii	"\342#\230:\325\201V\325\267\214\252M\226\375q\375\310"
  96      D58156D5 
  96      B78CAA4D 
  96      96FD71FD 
  96      C8
  97 0266 540B9D47 		.ascii	"T\013\235GV\253\035\351\"\306S\001\001->\321\032\371"
  97      56AB1DE9 
  97      22C65301 
  97      012D3ED1 
  97      1AF9
  98 0278 D4BBD368 		.ascii	"\324\273\323h\336\222\214\027\215;\263\206\304\336\204"
  98      DE928C17 
  98      8D3BB386 
  98      C4DE84
  99 0287 D7C33741 		.ascii	"\327\3037A\306\313cN\2031\2120\372&\334\347\233p7{\023"
  99      C6CB634E 
  99      83318A30 
  99      FA26DCE7 
  99      9B70377B 
 100 029c DEFB0AED 		.ascii	"\336\373\012\355\035\317\254\304\217!+\3410W\3309\302"
 100      1DCFACC4 
 100      8F212BE1 
 100      3057D839 
 100      C2
 101 02ad 56C8789D 		.ascii	"V\310x\235\024\233\332\332\002\031ob\241\231\326#hL"
 101      149BDADA 
 101      02196F62 
 101      A199D623 
 101      684C
 102 02bf 7D50CC50 		.ascii	"}P\314P!\344S\006\317 \237#\350\333\302\036<\236D\235"
 102      21E45306 
 102      CF209F23 
 102      E8DBC21E 
 102      3C9E449D 
 103 02d3 154E3EC9 		.ascii	"\025N>\311\341\237\007\344=\342\001f\004\002RIX\335"
 103      E19F07E4 
 103      3DE20166 
 103      04025249 
 103      58DD
 104 02e5 ACAE2E97 		.ascii	"\254\256.\227\252bR\264F\212E\025I\011G\202\021\245"
 104      AA6252B4 
 104      468A4515 
 104      49094782 
 104      11A5
 105 02f7 2A1A0C28 		.ascii	"*\032\014( \306\324mAOe\260\276\206l\201\245\266Vlk"
 105      20C6D46D 
 105      414F65B0 
 105      BE866C81 
 105      A5B6566C 
 106 030c 4BDCC1CA 		.ascii	"K\334\301\312-\\Yl)\213\260z\376?\201\253\253\24251"
ARM GAS  /tmp/ccpJRJbB.s 			page 8


 106      2D5C596C 
 106      298BB07A 
 106      FE3F81AB 
 106      ABA23531 
 107 0320 69C5DAB2 		.ascii	"i\305\332\262\222\262zb\340\3417\325\025G\002ap\324"
 107      92B27A62 
 107      E0E137D5 
 107      15470261 
 107      70D4
 108 0332 C915B5C1 		.ascii	"\311\025\265\301@6\202\202K%e\345\245\345\222Z\251T"
 108      40368282 
 108      4B2565E5 
 108      A5E5925A 
 108      A954
 109 0344 D46E094A 		.ascii	"\324n\011J\006B\211\254\254\255T\010\364o\346\366\271"
 109      064289AC 
 109      ACAD5408 
 109      F46FE6F6 
 109      B9
 110 0355 706C6B8C 		.ascii	"plk\214NL(+_\353\337,\307\202\325Qu\201\177\366B`Qp"
 110      4E4C282B 
 110      5FEBDF2C 
 110      C782D551 
 110      75817FF6 
 111 036d 517A55D1 		.ascii	"QzU\321\255\360\027 \356\300\237"
 111      ADF01720 
 111      EEC09F
 112              		.text
 113              		.section	.gnu.lto_chCoreAllocI.46b8fef4e2645ea8,"",%progbits
 114 0000 789C9D53 		.ascii	"x\234\235SMh\023A\024~of\327M\322\204\212x\251\202\324"
 114      4D681341 
 114      147E6F66 
 114      D74DD284 
 114      8A78A982 
 115 0015 E2D5EC41 		.ascii	"\342\325\354Am=\012\236\364\342A\003zL\327\220\356a"
 115      6D3D0A9E 
 115      F4E24103 
 115      7A4CD790 
 115      EE61
 116 0027 5B497B10 		.ascii	"[I{\020<t\222\355\241E\205Pr\251\026i\321j\375\001\301"
 116      3C7492ED 
 116      A1458550 
 116      72A91669 
 116      D16AFD01 
 117 003c AB8239A8 		.ascii	"\253\2029\250\230\240B\021AoA\021\004\301\263\212\270"
 117      98A04211 
 117      416F4111 
 117      04C1B38A 
 117      B8
 118 004d 7E33C926 		.ascii	"~3\311&V\212\006\027\226\367\366{\337\367\376fV\220"
 118      568A0617 
 118      96F7F67B 
 118      DFF7FE66 
 118      5690
 119 005f A03F9F03 		.ascii	"\240?\237\003x\227%Q\016\226mbQ}ETN\010a}rH\245\344"
 119      78972551 
 119      0E966D62 
ARM GAS  /tmp/ccpJRJbB.s 			page 9


 119      517D4554 
 119      4E08617D 
 120 0077 FA332295 		.ascii	"\3723\"\225\226l\265q\213Y;\3044+\244\305\263gX'\261"
 120      966CB571 
 120      8B593BC4 
 120      342BA4C5 
 120      B3675827 
 121 008c 476855A9 		.ascii	"GhU\251\305\326\323\233\337\304R\255>\267\242~D\021"
 121      C5D6D39B 
 121      DFC452AD 
 121      3EB7A27E 
 121      4411
 122 009e B3CF28B8 		.ascii	"\263\317(\270\217\311c:\215\017\0366FX\233;0\332\252"
 122      8FC9633A 
 122      8D0F1E36 
 122      46589B3B 
 122      30DAAA
 123 00b1 7AB0AE92 		.ascii	"z\260\256\222F'}\226\202\366\367%[\334$C\265\321\377"
 123      46277D96 
 123      82F6F725 
 123      5BDC2443 
 123      B5D1FF
 124 00c4 AB76A4BF 		.ascii	"\253v\244\277j\365\307\315\313C\315\225JU\375\304|\246"
 124      6AF5C7CD 
 124      CB43CD95 
 124      4A55FDC4 
 124      7CA6
 125 00d6 E0F12D95 		.ascii	"\340\361-\225\001\367\244\367E\275\025E\2176n\274\277"
 125      01F7A4F7 
 125      45BD1545 
 125      8F366EBC 
 125      BF
 126 00e7 C33B0699 		.ascii	"\303;\006\231|\266$\007\314\026<\333\006\225\035\312"
 126      7CB62407 
 126      CC163CDB 
 126      06951DCA 
 127 00f7 F32A8F50 		.ascii	"\363*\217P\002\366:l\022v\0156\005{\013v\000L\231\326"
 127      02F63A6C 
 127      12760D36 
 127      057B0B76 
 127      004C99D6 
 128 010b F40C90DB 		.ascii	"\364\014\220\333@\364\316i\016\203\014w\032[j^\032R"
 128      40F4CE69 
 128      0E830C77 
 128      1A5B6A5E 
 128      1A52
 129 011d BDC62C41 		.ascii	"\275\306,A\247\3765\022\3518\036\020I\237i\216\205\266"
 129      A7FE3512 
 129      E9381E10 
 129      499F698E 
 129      85B6
 130 012f F22585F3 		.ascii	"\362%\205\363\341\207\332\256<\337\305\205(\262Ud\251"
 130      E187DAAE 
 130      3CDFC585 
 130      28B25564 
 130      A9
 131 0140 F5DB1C90 		.ascii	"\365\333\034\220\021|\030\216\307!\033Q\023\372\032"
ARM GAS  /tmp/ccpJRJbB.s 			page 10


 131      117C188E 
 131      C7211B51 
 131      13FA1A
 132 014f 45D120C2 		.ascii	"E\321 \302\015\022\355\030\246BX\363+\215\267\270\025"
 132      0D12ED18 
 132      A64258F3 
 132      2B8DB7B8 
 132      15
 133 0160 B1C2B94A 		.ascii	"\261\302\271JW\312Jm\307\356.\320w5\257='`}/u\"\247"
 133      57CA4A6D 
 133      C7EE2ED0 
 133      7735AF3D 
 133      27607D2F 
 134 0177 D319649F 		.ascii	"\323\031d\237e\254I\0245\016\350X\214$\267\316B\177"
 134      65AC4914 
 134      350EE858 
 134      8C24B7CE 
 134      427F
 135 0189 CB9282CC 		.ascii	"\313\222\202\314\364\277\320\205\006L\356\224!~\011"
 135      F4BFD085 
 135      064CEE94 
 135      217E09
 136 0198 F7C4701A 		.ascii	"\367\304p\032\021\242\347\364\344c9\363\033f\367\026"
 136      11A2E7F4 
 136      E46339F3 
 136      1B66F716 
 137 01a8 976349F8 		.ascii	"\227cI\3701d\203*\255kk\334&\345\371\036N&\256r1\214"
 137      3164832A 
 137      AD6B6BDC 
 137      26E5F91E 
 137      4E26AE72 
 138 01be 6ABB6375 		.ascii	"j\273cu\006h\274\216\316\020\375L\000a\\\3172G\263\201"
 138      0668BC8E 
 138      CE10FD4C 
 138      00615CCF 
 138      3247B381 
 139 01d2 3F50C386 		.ascii	"?P\303\206\367\216XSq\252\342\305\353\235\250 \227\337"
 139      F78E5853 
 139      71AAE2C5 
 139      EB9DA820 
 139      97DF
 140 01e4 A4F571B2 		.ascii	"\244\365q\262\346\352\215\356\315f\335\243\023\376\270"
 140      E6EA8DEE 
 140      CD66DDA3 
 140      13FEB8
 141 01f3 7FE2A43B 		.ascii	"\177\342\244;5\355\226f\334\351\222\347z\023A!\360\246"
 141      35ED9666 
 141      DCE992E7 
 141      7A134121 
 141      F0A6
 142 0205 4A85AC47 		.ascii	"J\205\254G\211\302\344Y|e\017\306\316\241\344d\341\374"
 142      89C2E459 
 142      7C650FC6 
 142      CEA1E464 
 142      E1FC
 143 0217 8CF646BB 		.ascii	"\214\366F\273\336X\327;\314\347~\001\250\312\361\321"
 143      DE58D73B 
ARM GAS  /tmp/ccpJRJbB.s 			page 11


 143      CCE77E01 
 143      A8CAF1D1 
 144              		.text
 145              		.section	.gnu.lto_chCoreGetStatusX.46b8fef4e2645ea8,"",%progbits
 146 0000 789C6362 		.ascii	"x\234cb`b@\007\222@,\001\024\366\001\322\214\314\014"
 146      60624007 
 146      92402C01 
 146      14F601D2 
 146      8CCC0C
 147 0013 8C4C13CE 		.ascii	"\214L\023\316104r012\202\030\014\214\014\365L\214\365"
 147      31303472 
 147      30313282 
 147      180C8C0C 
 147      F54C8CF5 
 148 0027 918C20A5 		.ascii	"\221\214 \245,J\014\013\033\032&=8\272\376\"\363\314"
 148      2C4A0C0B 
 148      1B1A263D 
 148      38BAFE22 
 148      F3CC
 149 0039 29075A16 		.ascii	")\007Z\0264\374\371\377\237\2211\223\021h\254\012#C"
 149      34FCF9FF 
 149      9F913193 
 149      1168AC0A 
 149      2343
 150 004b 32234304 		.ascii	"2#C\004\220\303\250\000\246\230XP\355\001\353\235\320"
 150      90C3A800 
 150      A6985850 
 150      ED01EB9D 
 150      D0
 151 005c B0694503 		.ascii	"\260iE\003'X\037s&#3\023\203.Q\332&\241h\003\332fN\236"
 151      27581F73 
 151      26233313 
 151      832E51DA 
 151      26A16803 
 152 0074 6D4E84B4 		.ascii	"mN\204\264\255g:\360\340\377\377=\327\377<<\301(\304"
 152      AD673AF0 
 152      E0FFFF3D 
 152      D7FF3C3C 
 152      C128C4
 153 0087 C1C490C8 		.ascii	"\301\304\220\310\270\220Q\211\201\031H/\006\322,@z)"
 153      B8905189 
 153      8119482F 
 153      06D22C40 
 153      7A29
 154 0099 906605D2 		.ascii	"\220f\005\322\313\2014\033\003\320Tv \0012\205\225\241"
 154      CB81341B 
 154      03D05476 
 154      20013285 
 154      95A1
 155 00ab 0568A302 		.ascii	"\005h\243\002\003\310\006 \010\001\222\240\000\014e"
 155      03C80620 
 155      080192A0 
 155      000C65
 156 00ba 6402D1CC 		.ascii	"d\002\321\314g\031\232N\336\000\206[\"\343JFV\206tF"
 156      67199A4E 
 156      DE00865B 
 156      22E34A46 
ARM GAS  /tmp/ccpJRJbB.s 			page 12


 156      56867446 
 157 00ce A6D90CB3 		.ascii	"\246\331\014\263\032\033\032\004\200\336\251f\370\325"
 157      1A1B1A04 
 157      80DEA966 
 157      F8D5
 158 00dc D00162B1 		.ascii	"\320\001b\261\346\202\265\202\034\306\012u\020P\333"
 158      E682B582 
 158      1CC60A75 
 158      1050DB
 159 00eb 6BB81E66 		.ascii	"k\270\036f\2406\260\220'L\204\005\273)\214\370LaM\007"
 159      A036B090 
 159      274C8405 
 159      BB298CF8 
 159      4C614D07 
 160 00ff B9F72C43 		.ascii	"\271\367,Cs'\\\210\015l6+X\341\273f>\2300;P\206\201"
 160      73275C88 
 160      0D6C362B 
 160      58E1BB66 
 160      3E98303B 
 161 0116 E1220323 		.ascii	"\341\"\003#\\\000b\\\010\320\002\240\237@iIQOO\3379"
 161      5C00625C 
 161      08D002A0 
 161      9F406949 
 161      514F4FDF 
 162 012b 233329D3 		.ascii	"#3)\323?X?\277X\277\250D\277\270(Y?9#7579\277(U/\231"
 162      3F583FBF 
 162      58BFA844 
 162      BFB82859 
 162      3F392337 
 163 0147 8123352F 		.ascii	"\201#5/\005\310\323\263\344\2042\014\015\270\362R+J"
 163      05C8D3B3 
 163      E484320C 
 163      0DB8F252 
 163      2B4A
 164 0159 C04C4304 		.ascii	"\300LC\004\323\010\000j\324\2210"
 164      D308006A 
 164      D49130
 165              		.text
 166              		.section	.gnu.lto_.symbol_nodes.46b8fef4e2645ea8,"",%progbits
 167 0000 789C4DCA 		.ascii	"x\234M\312\273\015\2000\024CQ\333\217\267$\313\270M"
 167      BB0D8030 
 167      144351DB 
 167      8FB724CB 
 167      B84D
 168 0012 C9048CC4 		.ascii	"\311\004\214\304.\374S\022$\244\340\352\036\311\202"
 168      2EFC5312 
 168      24A4E0EA 
 168      1EC982
 169 0021 30E29B76 		.ascii	"0\342\233v\032\230\026\300\236\013\363f+\344J\016\216"
 169      1A9816C0 
 169      9E0BF366 
 169      2BE44A0E 
 169      8E
 170 0032 ACD4AB8D 		.ascii	"\254\324\253\215\321\244\203f\277\352\244\365\343EG"
 170      D1A48366 
 170      BFEAA4F5 
 170      E34547
ARM GAS  /tmp/ccpJRJbB.s 			page 13


 171 0041 271E8A4F 		.ascii	"'\036\212O\032E"
 171      1A45
 172              		.text
 173              		.section	.gnu.lto_.refs.46b8fef4e2645ea8,"",%progbits
 174 0000 789C6362 		.ascii	"x\234cb`bPd\200\000\026\006&FF&&fF\026fV0\207\211\231"
 174      60625064 
 174      80001606 
 174      26464626 
 174      26664616 
 175 001a 0D4233B1 		.ascii	"\015B3\261\203h\006\000\012\332\000l"
 175      83680600 
 175      0ADA006C 
 176              		.text
 177              		.section	.gnu.lto_.decls.46b8fef4e2645ea8,"",%progbits
 178 0000 789CB556 		.ascii	"x\234\265V]l\024U\024\276wv\332\355v\027\304\007\021"
 178      5D6C1455 
 178      14BE7776 
 178      DAED7617 
 178      C40711
 179 0013 9F00833E 		.ascii	"\237\000\203>@\272\243\265\306\372B\251\215B\023QBC"
 179      40BAA3B5 
 179      C6FA42A9 
 179      8D421351 
 179      4243
 180 0025 4282C964 		.ascii	"B\202\311d:;\270\033\366\007wf\201\032\023n\021\033"
 180      3A3BB81B 
 180      F6077766 
 180      811A136E 
 180      111B
 181 0037 2424ACC4 		.ascii	"$$\254\304\012&\002E(\322\204JiP\250?a\213\224\237\372"
 181      0A260245 
 181      28D2844A 
 181      6950A83F 
 181      618B949F 
 182 004c 93AE8A28 		.ascii	"\223\256\212(ZX%\201\320\247&>4\021\342x\356\314\235"
 182      5A582581 
 182      D0A7263E 
 182      3411E278 
 182      EECC9D
 183 005f 9D9DE92C 		.ascii	"\235\235\351,.$\334\344\264w\357\234\363}\337=\367\234"
 183      2E24DCE4 
 183      B477EF9C 
 183      F37DDF3D 
 183      F79C
 184 0071 B9C3210E 		.ascii	"\271\303!\016}\204\021\322a\374V\213\220\337\207P\025"
 184      7D8411D2 
 184      61FC568B 
 184      90DF8750 
 184      15
 185 0082 426831B2 		.ascii	"Bh1\262\007\017v\000\3540\330\000\330\011\266v\012l"
 185      070F7600 
 185      EC30D800 
 185      D809B676 
 185      0A6C
 186 0094 18EC2CD8 		.ascii	"\030\354,\3309\344\034\324\337\217L\254\231`!\2603`"
 186      39E41CD4 
 186      DF8F4CAC 
ARM GAS  /tmp/ccpJRJbB.s 			page 14


 186      996021B0 
 186      3360
 187 00a6 436017C0 		.ascii	"C`\027\300.2?\314|y\206u\216\341\236u\341Q\356 X\237"
 187      2E323FCC 
 187      7C798675 
 187      8EE19E75 
 187      E151EE20 
 188 00bc 0B8F671C 		.ascii	"\013\217g\034M`\243`c`\227J\360\375,\3662\330\025\260"
 188      4D60A360 
 188      6360974A 
 188      F0FD2CF6 
 188      32D815B0 
 189 00d0 71B6871B 		.ascii	"q\266\207\033`\267\300|\214\267\337c\017\324\257\206"
 189      60B7C07C 
 189      8CB7DF63 
 189      0FD4AF86 
 190 00e0 F1589C3C 		.ascii	"\361X\234<\343\252bZJ\3671P\2027\350\201G\363V\355\201"
 190      E3AA625A 
 190      4AF73150 
 190      8237E881 
 190      47F356ED 
 191 00f5 E7C6A17E 		.ascii	"\347\306\241~\034\213\037va\314E\373HO\2410rs\3401\322"
 191      1C8B1F76 
 191      61CC45FB 
 191      484FA130 
 191      7273E031 
 192 010a B325A7EB 		.ascii	"\263%\247\353Mh6\352&0z\272\010\301\232\204\027?\202"
 192      4D6836EA 
 192      26307ABA 
 192      08C19A84 
 192      173F82
 193 011d 566309CF 		.ascii	"Vc\011\317\014\240y\306$\0240H\020\222\360\307x6\233"
 193      0CA079C6 
 193      24143048 
 193      1092F0C7 
 193      78369B
 194 0130 ADF29970 		.ascii	"\255\362\231p\034Z\200\321B\324\007\361YB\376z\024y"
 194      1C5A80D1 
 194      42D407F1 
 194      5942FE7A 
 194      1479
 195 0142 8D27512F 		.ascii	"\215'Q/% G\210\317\200\247\000\007\360\334R\027\011"
 195      25204788 
 195      CF80A700 
 195      07F0DC52 
 195      1709
 196 0154 1FC4DC74 		.ascii	"\037\304\334t\235\271/\317\177\213\311.rG\327}n\235"
 196      9DB92FCF 
 196      7F8BC92E 
 196      7247D77D 
 196      6E9D
 197 0166 4DC1B23A 		.ascii	"M\301\262:?a:}F\032P\000m#d\013\015\\v\001\362\346\025"
 197      3F613A7D 
 197      461A5000 
 197      6D23640B 
 197      0D5C7601 
 198 017d F5043A04 		.ascii	"\365\004:\004;(\214\037\337+\020R#\341>\034\200\330"
ARM GAS  /tmp/ccpJRJbB.s 			page 15


 198      3B288C1F 
 198      DF2B1052 
 198      23E13E1C 
 198      80D8
 199 018f 218C01ED 		.ascii	"!\214\001\355\020^XTY\025p\252\206\337\226\003E3\036"
 199      105E5854 
 199      591570AA 
 199      86DF9603 
 199      45331E
 200 01a2 B309ED88 		.ascii	"\263\011\355\210\207Jse\244+\347\202\\\200\016\022\262"
 200      874A7365 
 200      A42BE782 
 200      5C800E12 
 200      B2
 201 01b3 ABD03B35 		.ascii	"\253\320;5\346\373\220\344x\213\371;\303\3550$\311K"
 201      E6FB90E4 
 201      788BF93B 
 201      C3ED3024 
 201      C94B
 202 01c5 ADE96565 		.ascii	"\255\351eev\0139\326\365\316,\336\310\010\272K\024\223"
 202      760B39D6 
 202      F5CE2CDE 
 202      C808BA4B 
 202      1493
 203 01d7 7C747AA2 		.ascii	"|tz\242\013\223\271\017FC\331\316\202\256\357_b\246"
 203      0B93B90F 
 203      4643D9CE 
 203      82AEEF5F 
 203      62A6
 204 01e9 8F43794F 		.ascii	"\217CyO\245d*\262\314\244\227\360\247\200$\341\201\373"
 204      A5642AB2 
 204      CCA497F0 
 204      A78024E1 
 204      81FB
 205 01fb 12592E8A 		.ascii	"\022Y.\212\211<\356Y\015S\333wXU[\343\252\006\312U\256"
 205      893CEE59 
 205      0D53DB77 
 205      58555BE3 
 205      AA06CA55 
 206 0210 1C3EF328 		.ascii	"\034>\363(\333\253\256\335\025e\016\036!\001K\272\204"
 206      DBABAEDD 
 206      15650E1E 
 206      21014BBA 
 206      84
 207 0221 4FDC5DE6 		.ascii	"O\334]\346\347N\231\217\243\003\244\220\315\345\273"
 207      E74E998F 
 207      A303A490 
 207      CDE5BB
 208 0230 BA31F913 		.ascii	"\2721\371\023\304\375\253\353\370a\224\245:\347\355"
 208      C4FDABEB 
 208      F86194A5 
 208      3AE7ED
 209 023f 99C9CAB0 		.ascii	"\231\311\312\260\320K\346\354\261\313\260\306\202\305"
 209      D04BE6EC 
 209      B1CBB0C6 
 209      82C5
 210 024d 76199EDE 		.ascii	"v\031\236\336\331\277\310(\303/\214b\270\3169\265V\016"
ARM GAS  /tmp/ccpJRJbB.s 			page 16


 210      D9BFC828 
 210      C32F8C62 
 210      B8CE39B5 
 210      560E
 211 025f 7472F7BE 		.ascii	"tr\367\276F\003\350k\003h\322\347\256g\354\252g\354"
 211      4603E86B 
 211      0368D2E7 
 211      AE67ECAA 
 211      67EC
 212 0271 AC671CB0 		.ascii	"\254g\034\260':F\367\345+\341!HB\311\340\320?>\354@"
 212      273A46F7 
 212      E52BE121 
 212      4842C9E0 
 212      D03F3EEC 
 213 0286 CAD969A4 		.ascii	"\312\331i\244)$?\026F\256\275OO\332La\020m\267\373\327"
 213      29243F16 
 213      46AEBD4F 
 213      4FDA4C61 
 213      106DB7FB 
 214 029b 4C4AB9A3 		.ascii	"LJ\271\243>\203\2036\3156\336\332n9\367o\234\304pv?"
 214      3E838336 
 214      CD36DEDA 
 214      6E39F76F 
 214      9CC47076 
 215 02b0 959E9D29 		.ascii	"\225\236\235)\235CY\336\251w\304\2557\247\367^\244\357"
 215      9D4359DE 
 215      A977C4AD 
 215      37A7F75E 
 215      A4EF
 216 02c2 2932093D 		.ascii	")2\011=o\252\340\320\336\377\245?o\343\270\366Hy\313"
 216      6FAAE0D0 
 216      DEFFA53F 
 216      6FE3B8F6 
 216      4879CB
 217 02d5 455DB0F7 		.ascii	"E]\260\367\350\212\242\274\345\242.\332Q\225\277\017"
 217      E88AA2BC 
 217      E5A22EDA 
 217      5195BF0F 
 218 02e5 4FEF1C19 		.ascii	"O\357\034\031\306p\012\360`\324\250\240C\274g)V\000"
 218      C6700AF0 
 218      60D4A8A0 
 218      43BC6729 
 218      5600
 219 02f7 7572F757 		.ascii	"ur\367W\317\033\245\370\275\001\324\317\273K\321\357"
 219      CF1BA5F8 
 219      BD01D4CF 
 219      BB4BD1EF 
 220 0307 2A45BFB3 		.ascii	"*E\277\263\274\374\001{\302^\255\367\350\316:\261g\211"
 220      BCFC017B 
 220      C25EADF7 
 220      E8CE3AB1 
 220      6789
 221 0319 A315E7DC 		.ascii	"\243\025\347\334\245\201\350\235\306I8o(>\305;\033\240"
 221      A581E89D 
 221      C649386F 
 221      283EC53B 
 221      1BA0
ARM GAS  /tmp/ccpJRJbB.s 			page 17


 222 032b 843BCFDA 		.ascii	"\204;\317\332\210\306\347\213}\220g\215\300\340gY\360"
 222      88C6E78B 
 222      7D90678D 
 222      C0E06759 
 222      F0
 223 033c 1C8B1A63 		.ascii	"\034\213\032cma\210!\305C\014\225\257\356\237KxB\001"
 223      6D618821 
 223      C5430C95 
 223      AFEE9F4B 
 223      784201
 224 034f 7B6209B3 		.ascii	"{b\011\263\3375&;\303i\264\374\374\014\347\322=3\377"
 224      DF35263B 
 224      C369B4FC 
 224      FC0CE7D2 
 224      3D33FF
 225 0362 5286B99A 		.ascii	"R\206\271\2321\323\027tn\262p\373\372\330\232\243\203"
 225      31D31774 
 225      6EB270FB 
 225      FAD89AA3 
 225      83
 226 0373 84BC0BED 		.ascii	"\204\274\013\355\263\271s+6?\0318t\215\367|\333\272"
 226      B3B9732B 
 226      363F1938 
 226      748DF77C 
 226      DBBA
 227 0385 BE092EBB 		.ascii	"\276\011.\273\277\011~\235~\013\000\311\340\315\\\007"
 227      BF097E9D 
 227      7E0B00C9 
 227      E0CD5C07 
 228 0395 DC955B89 		.ascii	"\334\225[\211\256o\236o1tWU\302p\305\315\360\273'\203"
 228      AE6F9E6F 
 228      31745755 
 228      C270C5CD 
 228      F0BB2783 
 229 03a9 3E31B603 		.ascii	">1\266\003\277w\254\213\320+q\363\376\\\226\257\374"
 229      BF77AC8B 
 229      D02B71F3 
 229      FE5C96AF 
 229      FC
 230 03ba 1BE9AAF3 		.ascii	"\033\351\252\363\333\303l\034\327G\300\017\016\261\206"
 230      DBC36C1C 
 230      D747C00F 
 230      0EB186
 231 03c9 2787FEA8 		.ascii	"'\207\376\250b\307\310.\332\374\271P\266\330w\023F\304"
 231      62C7C82E 
 231      DAFCB950 
 231      B6D87713 
 231      46C4
 232 03db 78D9AB76 		.ascii	"x\331\253v\264\344\252%\344\357\316\025s\212{\036w\357"
 232      B4E4AA25 
 232      E4EFCE15 
 232      738A7B1E 
 232      77EF
 233 03ed B9E0B9E7 		.ascii	"\271\340\271\347\333\327'_\363:\272\311\212\022{\303"
 233      DBD7275F 
 233      F33ABAC9 
 233      8A127BC3 
ARM GAS  /tmp/ccpJRJbB.s 			page 18


 234 03fd 4D72B3DC 		.ascii	"Mr\263\334\321\2755\355\350\356T\304p\313\3150\341d"
 234      D1BD35ED 
 234      E8EE54C4 
 234      70CBCD30 
 234      E164
 235 040f 40F3C361 		.ascii	"@\363\303a\241%\032k\217\275\332&\244T!\255\011jZ\026"
 235      A1251A6B 
 235      8FBDDA26 
 235      A45421AD 
 235      096A5A16 
 236 0423 E4684249 		.ascii	"\344hBI\310\251\264\022\226Q\255H'b,\031\323\252\227"
 236      C8A9B412 
 236      9651AD48 
 236      27622C19 
 236      D3AA97
 237 0436 BEB26A5E 		.ascii	"\276\262j^\013\352\304Br\255J\355Y!\232J(BZQ\025)-G"
 237      0BEAC442 
 237      72AD4AED 
 237      59219A4A 
 237      28425A51 
 238 044e 85A8948E 		.ascii	"\205\250\224\216l\224\322\212 \245\023\365\302\353\262"
 238      6C94D28A 
 238      20A513F5 
 238      C2EBB2
 239 045d 5C07933A 		.ascii	"\\\007\223:%\321\256D\"J\244\270\220L%\225:Ej\217\325"
 239      25D1AE44 
 239      224AA4B8 
 239      904C2595 
 239      3A456A8F 
 240 0472 35888D75 		.ascii	"5\210\215u\365O=\335\360F\275\020\217\265S\007\301\341"
 240      F54F3DDD 
 240      F046BD10 
 240      8FB55307 
 240      C1E1
 241 0484 2034841B 		.ascii	" 4\204\033\303\015B,)\3073\021EP5\300Y\033\216\242j"
 241      C30D422C 
 241      29C73311 
 241      455035C0 
 241      591B8EA2 
 242 0499 35F6A622 		.ascii	"5\366\246\"jA9\332\002\342\232\343\361\224\314\323\245"
 242      6A4139DA 
 242      02E29AE3 
 242      F194CCD3 
 242      A5
 243 04aa 50C942EB 		.ascii	"P\311B\353,\363\307REk\323$-\243\256V\037\204n\247\336"
 243      2CF3C752 
 243      456BD324 
 243      2DA3AE56 
 243      1F846EA7 
 244 04bf 12A5B1A4 		.ascii	"\022\245\261\244\006J\375\031\370\337(jo?\220\244y\223"
 244      064AFD19 
 244      F8DF286A 
 244      6F3F90A4 
 244      7993
 245 04d1 2724391A 		.ascii	"'$9\032K*\202\010\311\2222qM\324:\326+*\210\011\210"
 245      4B2A8208 
 245      C9923271 
ARM GAS  /tmp/ccpJRJbB.s 			page 19


 245      4DD43AD6 
 245      2B2A8809 
 246 04e6 22933343 		.ascii	"\"\2233C\024\243\212\264^l\227TE\024\375Ie\223\006G"
 246      14A38AB4 
 246      5E6C9754 
 246      4514FD49 
 246      65930647 
 247 04fa 1E62AB4A 		.ascii	"\036b\253J2\"\212\325\360\027\326jh\3043\365\242Vk\006"
 247      32228AD5 
 247      F017D66A 
 247      68C433F5 
 247      A2566B06 
 248 050e D3292F83 		.ascii	"\323)/\203\350\351\245c\361\313Q\265\303\240\223\243"
 248      E8E9A563 
 248      F1CB51B5 
 248      C3A093A3 
 249 051e 6D1DEACB 		.ascii	"m\035\352\313)y\335\242i\276\353SiM\025\232W.oY\276"
 249      2979DDA2 
 249      69BEEB53 
 249      694D159A 
 249      572E6F59 
 250 0533 09028C1A 		.ascii	"\011\002\214\032\333\360\\\202F\321G\"\034\340\272\260"
 250      DBF05C82 
 250      46D14722 
 250      1CE0BAB0 
 251 0543 330A340A 		.ascii	"3\0124\012-\313\333Z\333l\"\032%'^\312$e\010\204=\251"
 251      2DCBDB5A 
 251      DB6C221A 
 251      25275ECA 
 251      24650884 
 252 0559 8A26BED0 		.ascii	"\212&\276\320\334\366\342\212\225\2553\244\370F\251"
 252      DCF6E28A 
 252      95AD33A4 
 252      F846A9
 253 0568 4385C28D 		.ascii	"C\205\302\215C.\2526H\361\214\0224\004\255JR\360\240"
 253      432EAA36 
 253      48F18C12 
 253      3404AD4A 
 253      52F0A0
 254 057b 419331E6 		.ascii	"A\2231\346\377\001\341x^\335"
 254      FF01E178 
 254      5EDD
 255              		.text
 256              		.section	.gnu.lto_.symtab.46b8fef4e2645ea8,"",%progbits
 257 0000 5F636F72 		.ascii	"_core_init\000\000\000\000\000\000\000\000\000\000\000"
 257      655F696E 
 257      69740000 
 257      00000000 
 257      00000000 
 258 0015 00A10000 		.ascii	"\000\241\000\000\000chCoreAlloc\000\000\000\000\000"
 258      00636843 
 258      6F726541 
 258      6C6C6F63 
 258      00000000 
 259 002a 00000000 		.ascii	"\000\000\000\000\000\000\000\246\000\000\000chCoreA"
 259      000000A6 
 259      00000063 
ARM GAS  /tmp/ccpJRJbB.s 			page 20


 259      68436F72 
 259      6541
 260 003c 6C6C6F63 		.ascii	"llocI\000\000\000\000\000\000\000\000\000\000\000\000"
 260      49000000 
 260      00000000 
 260      00000000 
 260      00
 261 004d B0000000 		.ascii	"\260\000\000\000chCoreGetStatusX\000\000\000\000\000"
 261      6368436F 
 261      72654765 
 261      74537461 
 261      74757358 
 262 0066 00000000 		.ascii	"\000\000\000\000\000\000\000\264\000\000\000__heap_"
 262      000000B4 
 262      0000005F 
 262      5F686561 
 262      705F
 263 0078 62617365 		.ascii	"base__\000\000\002\000\000\000\000\000\000\000\000\000"
 263      5F5F0000 
 263      02000000 
 263      00000000 
 263      0000
 264 008a B8000000 		.ascii	"\270\000\000\000__heap_end__\000\000\002\000\000\000"
 264      5F5F6865 
 264      61705F65 
 264      6E645F5F 
 264      00000200 
 265 00a0 00000000 		.ascii	"\000\000\000\000\000\000\304\000\000\000"
 265      0000C400 
 265      0000
 266              		.text
 267              		.section	.gnu.lto_.opts,"",%progbits
 268 0000 272D6D63 		.ascii	"'-mcpu=cortex-m4' '-mno-thumb-interwork' '-mthumb' "
 268      70753D63 
 268      6F727465 
 268      782D6D34 
 268      2720272D 
 269 0033 272D6767 		.ascii	"'-ggdb' '-O2' '-fomit-frame-pointer' '-falign-funct"
 269      64622720 
 269      272D4F32 
 269      2720272D 
 269      666F6D69 
 270 0066 696F6E73 		.ascii	"ions=16' '-ffunction-sections' '-fdata-sections' '-"
 270      3D313627 
 270      20272D66 
 270      66756E63 
 270      74696F6E 
 271 0099 666E6F2D 		.ascii	"fno-common' '-flto'\000"
 271      636F6D6D 
 271      6F6E2720 
 271      272D666C 
 271      746F2700 
 272              		.text
 273              		.cfi_sections	.debug_frame
 274              		.section	.text._core_init,"ax",%progbits
 275              		.align	2
 276              		.p2align 4,,15
ARM GAS  /tmp/ccpJRJbB.s 			page 21


 277              		.global	_core_init
 278              		.thumb
 279              		.thumb_func
 280              		.type	_core_init, %function
 281              	_core_init:
 282              	.LFB241:
 283              		.file 1 "../ChibiOS/os/rt/src/chmemcore.c"
 284              		.loc 1 78 0
 285              		.cfi_startproc
 286              		@ args = 0, pretend = 0, frame = 0
 287              		@ frame_needed = 0, uses_anonymous_args = 0
 288              		@ link register save eliminated.
 289              		.loc 1 84 0
 290 0000 0548     		ldr	r0, .L2
 291              		.loc 1 85 0
 292 0002 064A     		ldr	r2, .L2+4
 293              		.loc 1 84 0
 294 0004 0649     		ldr	r1, .L2+8
 295              		.loc 1 85 0
 296 0006 074B     		ldr	r3, .L2+12
 297              		.loc 1 84 0
 298 0008 20F00700 		bic	r0, r0, #7
 299              		.loc 1 85 0
 300 000c 22F00702 		bic	r2, r2, #7
 301              		.loc 1 84 0
 302 0010 0860     		str	r0, [r1]
 303              		.loc 1 85 0
 304 0012 1A60     		str	r2, [r3]
 305 0014 7047     		bx	lr
 306              	.L3:
 307 0016 00BF     		.align	2
 308              	.L2:
 309 0018 07000000 		.word	__heap_base__+7
 310 001c 00000000 		.word	__heap_end__
 311 0020 00000000 		.word	.LANCHOR0
 312 0024 00000000 		.word	.LANCHOR1
 313              		.cfi_endproc
 314              	.LFE241:
 315              		.size	_core_init, .-_core_init
 316 0028 AFF30080 		.section	.text.chCoreAlloc,"ax",%progbits
 316      AFF30080 
 317              		.align	2
 318              		.p2align 4,,15
 319              		.global	chCoreAlloc
 320              		.thumb
 321              		.thumb_func
 322              		.type	chCoreAlloc, %function
 323              	chCoreAlloc:
 324              	.LFB242:
 325              		.loc 1 109 0
 326              		.cfi_startproc
 327              		@ args = 0, pretend = 0, frame = 0
 328              		@ frame_needed = 0, uses_anonymous_args = 0
 329              		@ link register save eliminated.
 330              	.LVL0:
 331              	.LBB26:
 332              	.LBB27:
ARM GAS  /tmp/ccpJRJbB.s 			page 22


 333              	.LBB28:
 334              	.LBB29:
 335              		.file 2 "../ChibiOS/os/ext/CMSIS/include/core_cmFunc.h"
 336              		.loc 2 548 0
 337 0000 2023     		movs	r3, #32
 338              	@ 548 "../ChibiOS/os/ext/CMSIS/include/core_cmFunc.h" 1
 339 0002 83F31188 		MSR basepri, r3
 340              	@ 0 "" 2
 341              	.LVL1:
 342              		.thumb
 343              	.LBE29:
 344              	.LBE28:
 345              	.LBE27:
 346              	.LBE26:
 347              	.LBB30:
 348              	.LBB31:
 349              		.loc 1 138 0
 350 0006 094A     		ldr	r2, .L7
 351 0008 0949     		ldr	r1, .L7+4
 352 000a 1368     		ldr	r3, [r2]
 353 000c 0968     		ldr	r1, [r1]
 354              		.loc 1 136 0
 355 000e 0730     		adds	r0, r0, #7
 356              	.LVL2:
 357 0010 20F00700 		bic	r0, r0, #7
 358              	.LVL3:
 359              		.loc 1 138 0
 360 0014 C91A     		subs	r1, r1, r3
 361 0016 8842     		cmp	r0, r1
 362              	.LVL4:
 363              		.loc 1 143 0
 364 0018 9BBF     		ittet	ls
 365 001a C018     		addls	r0, r0, r3
 366              	.LVL5:
 367 001c 1060     		strls	r0, [r2]
 368              		.loc 1 140 0
 369 001e 0020     		movhi	r0, #0
 370              	.LVL6:
 371              		.loc 1 145 0
 372 0020 1846     		movls	r0, r3
 373              	.LBE31:
 374              	.LBE30:
 375              	.LBB32:
 376              	.LBB33:
 377              	.LBB34:
 378              	.LBB35:
 379              	.LBB36:
 380              		.loc 2 548 0
 381 0022 0023     		movs	r3, #0
 382              	.LVL7:
 383              	@ 548 "../ChibiOS/os/ext/CMSIS/include/core_cmFunc.h" 1
 384 0024 83F31188 		MSR basepri, r3
 385              	@ 0 "" 2
 386              		.thumb
 387              	.LBE36:
 388              	.LBE35:
 389              	.LBE34:
ARM GAS  /tmp/ccpJRJbB.s 			page 23


 390              	.LBE33:
 391              	.LBE32:
 392              		.loc 1 117 0
 393 0028 7047     		bx	lr
 394              	.L8:
 395 002a 00BF     		.align	2
 396              	.L7:
 397 002c 00000000 		.word	.LANCHOR0
 398 0030 00000000 		.word	.LANCHOR1
 399              		.cfi_endproc
 400              	.LFE242:
 401              		.size	chCoreAlloc, .-chCoreAlloc
 402 0034 AFF30080 		.section	.text.chCoreAllocI,"ax",%progbits
 402      AFF30080 
 402      AFF30080 
 403              		.align	2
 404              		.p2align 4,,15
 405              		.global	chCoreAllocI
 406              		.thumb
 407              		.thumb_func
 408              		.type	chCoreAllocI, %function
 409              	chCoreAllocI:
 410              	.LFB243:
 411              		.loc 1 131 0
 412              		.cfi_startproc
 413              		@ args = 0, pretend = 0, frame = 0
 414              		@ frame_needed = 0, uses_anonymous_args = 0
 415              		@ link register save eliminated.
 416              	.LVL8:
 417              		.loc 1 138 0
 418 0000 074A     		ldr	r2, .L12
 419 0002 0849     		ldr	r1, .L12+4
 420 0004 1368     		ldr	r3, [r2]
 421 0006 0968     		ldr	r1, [r1]
 422              		.loc 1 136 0
 423 0008 0730     		adds	r0, r0, #7
 424              	.LVL9:
 425 000a 20F00700 		bic	r0, r0, #7
 426              	.LVL10:
 427              		.loc 1 138 0
 428 000e C91A     		subs	r1, r1, r3
 429 0010 8842     		cmp	r0, r1
 430              	.LVL11:
 431              		.loc 1 143 0
 432 0012 9DBF     		ittte	ls
 433 0014 C018     		addls	r0, r0, r3
 434              	.LVL12:
 435 0016 1060     		strls	r0, [r2]
 436              		.loc 1 145 0
 437 0018 1846     		movls	r0, r3
 438              		.loc 1 140 0
 439 001a 0020     		movhi	r0, #0
 440              		.loc 1 146 0
 441 001c 7047     		bx	lr
 442              	.L13:
 443 001e 00BF     		.align	2
 444              	.L12:
ARM GAS  /tmp/ccpJRJbB.s 			page 24


 445 0020 00000000 		.word	.LANCHOR0
 446 0024 00000000 		.word	.LANCHOR1
 447              		.cfi_endproc
 448              	.LFE243:
 449              		.size	chCoreAllocI, .-chCoreAllocI
 450 0028 AFF30080 		.section	.text.chCoreGetStatusX,"ax",%progbits
 450      AFF30080 
 451              		.align	2
 452              		.p2align 4,,15
 453              		.global	chCoreGetStatusX
 454              		.thumb
 455              		.thumb_func
 456              		.type	chCoreGetStatusX, %function
 457              	chCoreGetStatusX:
 458              	.LFB244:
 459              		.loc 1 155 0
 460              		.cfi_startproc
 461              		@ args = 0, pretend = 0, frame = 0
 462              		@ frame_needed = 0, uses_anonymous_args = 0
 463              		@ link register save eliminated.
 464              		.loc 1 158 0
 465 0000 024A     		ldr	r2, .L15
 466 0002 034B     		ldr	r3, .L15+4
 467 0004 1068     		ldr	r0, [r2]
 468 0006 1B68     		ldr	r3, [r3]
 469              		.loc 1 160 0
 470 0008 C01A     		subs	r0, r0, r3
 471 000a 7047     		bx	lr
 472              	.L16:
 473              		.align	2
 474              	.L15:
 475 000c 00000000 		.word	.LANCHOR1
 476 0010 00000000 		.word	.LANCHOR0
 477              		.cfi_endproc
 478              	.LFE244:
 479              		.size	chCoreGetStatusX, .-chCoreGetStatusX
 480 0014 AFF30080 		.section	.bss.endmem,"aw",%nobits
 480      AFF30080 
 480      AFF30080 
 481              		.align	2
 482              		.set	.LANCHOR1,. + 0
 483              		.type	endmem, %object
 484              		.size	endmem, 4
 485              	endmem:
 486 0000 00000000 		.space	4
 487              		.section	.bss.nextmem,"aw",%nobits
 488              		.align	2
 489              		.set	.LANCHOR0,. + 0
 490              		.type	nextmem, %object
 491              		.size	nextmem, 4
 492              	nextmem:
 493 0000 00000000 		.space	4
 494              		.text
 495              	.Letext0:
 496              		.file 3 "/nfs/nfs5/home/research/hardware/arm2/gcc-arm-embedded/gcc-arm-none-eabi-4_8-2014q2/lib/g
 497              		.file 4 "/nfs/nfs5/home/research/hardware/arm2/gcc-arm-embedded/gcc-arm-none-eabi-4_8-2014q2/arm-n
 498              		.file 5 "/nfs/nfs5/home/research/hardware/arm2/gcc-arm-embedded/gcc-arm-none-eabi-4_8-2014q2/arm-n
ARM GAS  /tmp/ccpJRJbB.s 			page 25


 499              		.file 6 "../ChibiOS/os/rt/ports/ARMCMx/compilers/GCC/chtypes.h"
 500              		.file 7 "../ChibiOS/os/rt/include/chsystypes.h"
 501              		.file 8 "../ChibiOS/os/rt/include/chschd.h"
 502              		.file 9 "../ChibiOS/os/rt/ports/ARMCMx/chcore.h"
 503              		.file 10 "../ChibiOS/os/rt/ports/ARMCMx/chcore_v7m.h"
 504              		.file 11 "../ChibiOS/os/rt/include/chtm.h"
 505              		.file 12 "../ChibiOS/os/rt/include/chsem.h"
 506              		.file 13 "../ChibiOS/os/rt/include/chmtx.h"
 507              		.file 14 "../ChibiOS/os/rt/include/chsys.h"
 508              		.file 15 "../ChibiOS/os/ext/CMSIS/include/core_cm4.h"
 509              		.section	.debug_info,"",%progbits
 510              	.Ldebug_info0:
 511 0000 56080000 		.4byte	0x856
 512 0004 0400     		.2byte	0x4
 513 0006 00000000 		.4byte	.Ldebug_abbrev0
 514 000a 04       		.byte	0x4
 515 000b 01       		.uleb128 0x1
 516 000c EE040000 		.4byte	.LASF115
 517 0010 01       		.byte	0x1
 518 0011 7B020000 		.4byte	.LASF116
 519 0015 E7010000 		.4byte	.LASF117
 520 0019 00000000 		.4byte	.Ldebug_ranges0+0
 521 001d 00000000 		.4byte	0
 522 0021 00000000 		.4byte	.Ldebug_line0
 523 0025 02       		.uleb128 0x2
 524 0026 04       		.byte	0x4
 525 0027 05       		.byte	0x5
 526 0028 696E7400 		.ascii	"int\000"
 527 002c 03       		.uleb128 0x3
 528 002d 14000000 		.4byte	.LASF2
 529 0031 03       		.byte	0x3
 530 0032 D4       		.byte	0xd4
 531 0033 37000000 		.4byte	0x37
 532 0037 04       		.uleb128 0x4
 533 0038 04       		.byte	0x4
 534 0039 07       		.byte	0x7
 535 003a 9D010000 		.4byte	.LASF0
 536 003e 04       		.uleb128 0x4
 537 003f 01       		.byte	0x1
 538 0040 06       		.byte	0x6
 539 0041 E2000000 		.4byte	.LASF1
 540 0045 03       		.uleb128 0x3
 541 0046 37000000 		.4byte	.LASF3
 542 004a 04       		.byte	0x4
 543 004b 1C       		.byte	0x1c
 544 004c 50000000 		.4byte	0x50
 545 0050 04       		.uleb128 0x4
 546 0051 01       		.byte	0x1
 547 0052 08       		.byte	0x8
 548 0053 40030000 		.4byte	.LASF4
 549 0057 04       		.uleb128 0x4
 550 0058 02       		.byte	0x2
 551 0059 05       		.byte	0x5
 552 005a 63030000 		.4byte	.LASF5
 553 005e 04       		.uleb128 0x4
 554 005f 02       		.byte	0x2
 555 0060 07       		.byte	0x7
ARM GAS  /tmp/ccpJRJbB.s 			page 26


 556 0061 CA010000 		.4byte	.LASF6
 557 0065 03       		.uleb128 0x3
 558 0066 53020000 		.4byte	.LASF7
 559 006a 04       		.byte	0x4
 560 006b 37       		.byte	0x37
 561 006c 70000000 		.4byte	0x70
 562 0070 04       		.uleb128 0x4
 563 0071 04       		.byte	0x4
 564 0072 05       		.byte	0x5
 565 0073 32010000 		.4byte	.LASF8
 566 0077 03       		.uleb128 0x3
 567 0078 50040000 		.4byte	.LASF9
 568 007c 04       		.byte	0x4
 569 007d 38       		.byte	0x38
 570 007e 82000000 		.4byte	0x82
 571 0082 04       		.uleb128 0x4
 572 0083 04       		.byte	0x4
 573 0084 07       		.byte	0x7
 574 0085 03040000 		.4byte	.LASF10
 575 0089 04       		.uleb128 0x4
 576 008a 08       		.byte	0x8
 577 008b 05       		.byte	0x5
 578 008c D4000000 		.4byte	.LASF11
 579 0090 03       		.uleb128 0x3
 580 0091 F0020000 		.4byte	.LASF12
 581 0095 04       		.byte	0x4
 582 0096 4E       		.byte	0x4e
 583 0097 9B000000 		.4byte	0x9b
 584 009b 04       		.uleb128 0x4
 585 009c 08       		.byte	0x8
 586 009d 07       		.byte	0x7
 587 009e 66000000 		.4byte	.LASF13
 588 00a2 03       		.uleb128 0x3
 589 00a3 D3040000 		.4byte	.LASF14
 590 00a7 05       		.byte	0x5
 591 00a8 2A       		.byte	0x2a
 592 00a9 45000000 		.4byte	0x45
 593 00ad 03       		.uleb128 0x3
 594 00ae 38030000 		.4byte	.LASF15
 595 00b2 05       		.byte	0x5
 596 00b3 41       		.byte	0x41
 597 00b4 65000000 		.4byte	0x65
 598 00b8 03       		.uleb128 0x3
 599 00b9 D2030000 		.4byte	.LASF16
 600 00bd 05       		.byte	0x5
 601 00be 42       		.byte	0x42
 602 00bf 77000000 		.4byte	0x77
 603 00c3 03       		.uleb128 0x3
 604 00c4 22000000 		.4byte	.LASF17
 605 00c8 05       		.byte	0x5
 606 00c9 4E       		.byte	0x4e
 607 00ca 90000000 		.4byte	0x90
 608 00ce 03       		.uleb128 0x3
 609 00cf 90040000 		.4byte	.LASF18
 610 00d3 06       		.byte	0x6
 611 00d4 39       		.byte	0x39
 612 00d5 B8000000 		.4byte	0xb8
ARM GAS  /tmp/ccpJRJbB.s 			page 27


 613 00d9 03       		.uleb128 0x3
 614 00da 31020000 		.4byte	.LASF19
 615 00de 06       		.byte	0x6
 616 00df 3C       		.byte	0x3c
 617 00e0 A2000000 		.4byte	0xa2
 618 00e4 03       		.uleb128 0x3
 619 00e5 3B010000 		.4byte	.LASF20
 620 00e9 06       		.byte	0x6
 621 00ea 3D       		.byte	0x3d
 622 00eb A2000000 		.4byte	0xa2
 623 00ef 03       		.uleb128 0x3
 624 00f0 FB020000 		.4byte	.LASF21
 625 00f4 06       		.byte	0x6
 626 00f5 3E       		.byte	0x3e
 627 00f6 A2000000 		.4byte	0xa2
 628 00fa 03       		.uleb128 0x3
 629 00fb 20030000 		.4byte	.LASF22
 630 00ff 06       		.byte	0x6
 631 0100 40       		.byte	0x40
 632 0101 B8000000 		.4byte	0xb8
 633 0105 03       		.uleb128 0x3
 634 0106 1A030000 		.4byte	.LASF23
 635 010a 06       		.byte	0x6
 636 010b 41       		.byte	0x41
 637 010c AD000000 		.4byte	0xad
 638 0110 03       		.uleb128 0x3
 639 0111 47020000 		.4byte	.LASF24
 640 0115 06       		.byte	0x6
 641 0116 43       		.byte	0x43
 642 0117 B8000000 		.4byte	0xb8
 643 011b 03       		.uleb128 0x3
 644 011c 97010000 		.4byte	.LASF25
 645 0120 06       		.byte	0x6
 646 0121 45       		.byte	0x45
 647 0122 AD000000 		.4byte	0xad
 648 0126 03       		.uleb128 0x3
 649 0127 32040000 		.4byte	.LASF26
 650 012b 07       		.byte	0x7
 651 012c 33       		.byte	0x33
 652 012d B8000000 		.4byte	0xb8
 653 0131 03       		.uleb128 0x3
 654 0132 1A040000 		.4byte	.LASF27
 655 0136 07       		.byte	0x7
 656 0137 3F       		.byte	0x3f
 657 0138 3C010000 		.4byte	0x13c
 658 013c 05       		.uleb128 0x5
 659 013d DD010000 		.4byte	.LASF46
 660 0141 40       		.byte	0x40
 661 0142 08       		.byte	0x8
 662 0143 C2       		.byte	0xc2
 663 0144 1C020000 		.4byte	0x21c
 664 0148 06       		.uleb128 0x6
 665 0149 90030000 		.4byte	.LASF28
 666 014d 08       		.byte	0x8
 667 014e C3       		.byte	0xc3
 668 014f 27020000 		.4byte	0x227
 669 0153 00       		.byte	0
ARM GAS  /tmp/ccpJRJbB.s 			page 28


 670 0154 06       		.uleb128 0x6
 671 0155 13030000 		.4byte	.LASF29
 672 0159 08       		.byte	0x8
 673 015a C5       		.byte	0xc5
 674 015b 27020000 		.4byte	0x227
 675 015f 04       		.byte	0x4
 676 0160 06       		.uleb128 0x6
 677 0161 CD000000 		.4byte	.LASF30
 678 0165 08       		.byte	0x8
 679 0166 C7       		.byte	0xc7
 680 0167 FA000000 		.4byte	0xfa
 681 016b 08       		.byte	0x8
 682 016c 06       		.uleb128 0x6
 683 016d 04060000 		.4byte	.LASF31
 684 0171 08       		.byte	0x8
 685 0172 C8       		.byte	0xc8
 686 0173 57040000 		.4byte	0x457
 687 0177 0C       		.byte	0xc
 688 0178 06       		.uleb128 0x6
 689 0179 44010000 		.4byte	.LASF32
 690 017d 08       		.byte	0x8
 691 017e CA       		.byte	0xca
 692 017f 27020000 		.4byte	0x227
 693 0183 10       		.byte	0x10
 694 0184 06       		.uleb128 0x6
 695 0185 BF020000 		.4byte	.LASF33
 696 0189 08       		.byte	0x8
 697 018a CB       		.byte	0xcb
 698 018b 27020000 		.4byte	0x227
 699 018f 14       		.byte	0x14
 700 0190 06       		.uleb128 0x6
 701 0191 D5050000 		.4byte	.LASF34
 702 0195 08       		.byte	0x8
 703 0196 D2       		.byte	0xd2
 704 0197 E2050000 		.4byte	0x5e2
 705 019b 18       		.byte	0x18
 706 019c 06       		.uleb128 0x6
 707 019d 6D030000 		.4byte	.LASF35
 708 01a1 08       		.byte	0x8
 709 01a2 DD       		.byte	0xdd
 710 01a3 E4000000 		.4byte	0xe4
 711 01a7 1C       		.byte	0x1c
 712 01a8 06       		.uleb128 0x6
 713 01a9 97030000 		.4byte	.LASF36
 714 01ad 08       		.byte	0x8
 715 01ae E1       		.byte	0xe1
 716 01af D9000000 		.4byte	0xd9
 717 01b3 1D       		.byte	0x1d
 718 01b4 06       		.uleb128 0x6
 719 01b5 C6040000 		.4byte	.LASF37
 720 01b9 08       		.byte	0x8
 721 01ba E6       		.byte	0xe6
 722 01bb EF000000 		.4byte	0xef
 723 01bf 1E       		.byte	0x1e
 724 01c0 07       		.uleb128 0x7
 725 01c1 705F7500 		.ascii	"p_u\000"
 726 01c5 08       		.byte	0x8
ARM GAS  /tmp/ccpJRJbB.s 			page 29


 727 01c6 3701     		.2byte	0x137
 728 01c8 11050000 		.4byte	0x511
 729 01cc 20       		.byte	0x20
 730 01cd 08       		.uleb128 0x8
 731 01ce 68020000 		.4byte	.LASF38
 732 01d2 08       		.byte	0x8
 733 01d3 3C01     		.2byte	0x13c
 734 01d5 2D020000 		.4byte	0x22d
 735 01d9 24       		.byte	0x24
 736 01da 08       		.uleb128 0x8
 737 01db B9010000 		.4byte	.LASF39
 738 01df 08       		.byte	0x8
 739 01e0 4201     		.2byte	0x142
 740 01e2 51020000 		.4byte	0x251
 741 01e6 28       		.byte	0x28
 742 01e7 08       		.uleb128 0x8
 743 01e8 C7030000 		.4byte	.LASF40
 744 01ec 08       		.byte	0x8
 745 01ed 4801     		.2byte	0x148
 746 01ef 10010000 		.4byte	0x110
 747 01f3 30       		.byte	0x30
 748 01f4 08       		.uleb128 0x8
 749 01f5 59030000 		.4byte	.LASF41
 750 01f9 08       		.byte	0x8
 751 01fa 4F01     		.2byte	0x14f
 752 01fc DC050000 		.4byte	0x5dc
 753 0200 34       		.byte	0x34
 754 0201 08       		.uleb128 0x8
 755 0202 3C040000 		.4byte	.LASF42
 756 0206 08       		.byte	0x8
 757 0207 5301     		.2byte	0x153
 758 0209 FA000000 		.4byte	0xfa
 759 020d 38       		.byte	0x38
 760 020e 08       		.uleb128 0x8
 761 020f EE000000 		.4byte	.LASF43
 762 0213 08       		.byte	0x8
 763 0214 5A01     		.2byte	0x15a
 764 0216 04030000 		.4byte	0x304
 765 021a 3C       		.byte	0x3c
 766 021b 00       		.byte	0
 767 021c 03       		.uleb128 0x3
 768 021d DB040000 		.4byte	.LASF44
 769 0221 07       		.byte	0x7
 770 0222 44       		.byte	0x44
 771 0223 27020000 		.4byte	0x227
 772 0227 09       		.uleb128 0x9
 773 0228 04       		.byte	0x4
 774 0229 31010000 		.4byte	0x131
 775 022d 03       		.uleb128 0x3
 776 022e E1050000 		.4byte	.LASF45
 777 0232 07       		.byte	0x7
 778 0233 49       		.byte	0x49
 779 0234 38020000 		.4byte	0x238
 780 0238 05       		.uleb128 0x5
 781 0239 F3030000 		.4byte	.LASF47
 782 023d 04       		.byte	0x4
 783 023e 08       		.byte	0x8
ARM GAS  /tmp/ccpJRJbB.s 			page 30


 784 023f B0       		.byte	0xb0
 785 0240 51020000 		.4byte	0x251
 786 0244 06       		.uleb128 0x6
 787 0245 90030000 		.4byte	.LASF28
 788 0249 08       		.byte	0x8
 789 024a B1       		.byte	0xb1
 790 024b 27020000 		.4byte	0x227
 791 024f 00       		.byte	0
 792 0250 00       		.byte	0
 793 0251 03       		.uleb128 0x3
 794 0252 AD040000 		.4byte	.LASF48
 795 0256 07       		.byte	0x7
 796 0257 50       		.byte	0x50
 797 0258 5C020000 		.4byte	0x25c
 798 025c 05       		.uleb128 0x5
 799 025d BC000000 		.4byte	.LASF49
 800 0261 08       		.byte	0x8
 801 0262 08       		.byte	0x8
 802 0263 B7       		.byte	0xb7
 803 0264 81020000 		.4byte	0x281
 804 0268 06       		.uleb128 0x6
 805 0269 90030000 		.4byte	.LASF28
 806 026d 08       		.byte	0x8
 807 026e B8       		.byte	0xb8
 808 026f 27020000 		.4byte	0x227
 809 0273 00       		.byte	0
 810 0274 06       		.uleb128 0x6
 811 0275 13030000 		.4byte	.LASF29
 812 0279 08       		.byte	0x8
 813 027a B9       		.byte	0xb9
 814 027b 27020000 		.4byte	0x227
 815 027f 04       		.byte	0x4
 816 0280 00       		.byte	0
 817 0281 03       		.uleb128 0x3
 818 0282 07000000 		.4byte	.LASF50
 819 0286 07       		.byte	0x7
 820 0287 57       		.byte	0x57
 821 0288 8C020000 		.4byte	0x28c
 822 028c 0A       		.uleb128 0xa
 823 028d 39020000 		.4byte	.LASF51
 824 0291 1C       		.byte	0x1c
 825 0292 08       		.byte	0x8
 826 0293 9201     		.2byte	0x192
 827 0295 E8020000 		.4byte	0x2e8
 828 0299 08       		.uleb128 0x8
 829 029a E2030000 		.4byte	.LASF52
 830 029e 08       		.byte	0x8
 831 029f 9301     		.2byte	0x193
 832 02a1 51020000 		.4byte	0x251
 833 02a5 00       		.byte	0
 834 02a6 08       		.uleb128 0x8
 835 02a7 82030000 		.4byte	.LASF53
 836 02ab 08       		.byte	0x8
 837 02ac 9401     		.2byte	0x194
 838 02ae FA000000 		.4byte	0xfa
 839 02b2 08       		.byte	0x8
 840 02b3 08       		.uleb128 0x8
ARM GAS  /tmp/ccpJRJbB.s 			page 31


 841 02b4 C7020000 		.4byte	.LASF54
 842 02b8 08       		.byte	0x8
 843 02b9 9601     		.2byte	0x196
 844 02bb 57040000 		.4byte	0x457
 845 02bf 0C       		.byte	0xc
 846 02c0 08       		.uleb128 0x8
 847 02c1 61010000 		.4byte	.LASF55
 848 02c5 08       		.byte	0x8
 849 02c6 9901     		.2byte	0x199
 850 02c8 27020000 		.4byte	0x227
 851 02cc 10       		.byte	0x10
 852 02cd 08       		.uleb128 0x8
 853 02ce E8020000 		.4byte	.LASF56
 854 02d2 08       		.byte	0x8
 855 02d3 9A01     		.2byte	0x19a
 856 02d5 27020000 		.4byte	0x227
 857 02d9 14       		.byte	0x14
 858 02da 08       		.uleb128 0x8
 859 02db DE020000 		.4byte	.LASF57
 860 02df 08       		.byte	0x8
 861 02e0 9D01     		.2byte	0x19d
 862 02e2 27020000 		.4byte	0x227
 863 02e6 18       		.byte	0x18
 864 02e7 00       		.byte	0
 865 02e8 03       		.uleb128 0x3
 866 02e9 47040000 		.4byte	.LASF58
 867 02ed 07       		.byte	0x7
 868 02ee 5C       		.byte	0x5c
 869 02ef F3020000 		.4byte	0x2f3
 870 02f3 09       		.uleb128 0x9
 871 02f4 04       		.byte	0x4
 872 02f5 F9020000 		.4byte	0x2f9
 873 02f9 0B       		.uleb128 0xb
 874 02fa 04030000 		.4byte	0x304
 875 02fe 0C       		.uleb128 0xc
 876 02ff 04030000 		.4byte	0x304
 877 0303 00       		.byte	0
 878 0304 0D       		.uleb128 0xd
 879 0305 04       		.byte	0x4
 880 0306 03       		.uleb128 0x3
 881 0307 03030000 		.4byte	.LASF59
 882 030b 07       		.byte	0x7
 883 030c 61       		.byte	0x61
 884 030d 11030000 		.4byte	0x311
 885 0311 0A       		.uleb128 0xa
 886 0312 A9030000 		.4byte	.LASF60
 887 0316 14       		.byte	0x14
 888 0317 08       		.byte	0x8
 889 0318 6D01     		.2byte	0x16d
 890 031a 60030000 		.4byte	0x360
 891 031e 08       		.uleb128 0x8
 892 031f AA010000 		.4byte	.LASF61
 893 0323 08       		.byte	0x8
 894 0324 6E01     		.2byte	0x16e
 895 0326 F4050000 		.4byte	0x5f4
 896 032a 00       		.byte	0
 897 032b 08       		.uleb128 0x8
ARM GAS  /tmp/ccpJRJbB.s 			page 32


 898 032c 72010000 		.4byte	.LASF62
 899 0330 08       		.byte	0x8
 900 0331 6F01     		.2byte	0x16f
 901 0333 F4050000 		.4byte	0x5f4
 902 0337 04       		.byte	0x4
 903 0338 08       		.uleb128 0x8
 904 0339 EA030000 		.4byte	.LASF63
 905 033d 08       		.byte	0x8
 906 033e 7001     		.2byte	0x170
 907 0340 26010000 		.4byte	0x126
 908 0344 08       		.byte	0x8
 909 0345 08       		.uleb128 0x8
 910 0346 0A060000 		.4byte	.LASF64
 911 034a 08       		.byte	0x8
 912 034b 7101     		.2byte	0x171
 913 034d E8020000 		.4byte	0x2e8
 914 0351 0C       		.byte	0xc
 915 0352 08       		.uleb128 0x8
 916 0353 98040000 		.4byte	.LASF65
 917 0357 08       		.byte	0x8
 918 0358 7301     		.2byte	0x173
 919 035a 04030000 		.4byte	0x304
 920 035e 10       		.byte	0x10
 921 035f 00       		.byte	0
 922 0360 03       		.uleb128 0x3
 923 0361 99000000 		.4byte	.LASF66
 924 0365 07       		.byte	0x7
 925 0366 66       		.byte	0x66
 926 0367 6B030000 		.4byte	0x36b
 927 036b 0A       		.uleb128 0xa
 928 036c 9C020000 		.4byte	.LASF67
 929 0370 10       		.byte	0x10
 930 0371 08       		.byte	0x8
 931 0372 7D01     		.2byte	0x17d
 932 0374 AD030000 		.4byte	0x3ad
 933 0378 08       		.uleb128 0x8
 934 0379 AA010000 		.4byte	.LASF61
 935 037d 08       		.byte	0x8
 936 037e 7E01     		.2byte	0x17e
 937 0380 F4050000 		.4byte	0x5f4
 938 0384 00       		.byte	0
 939 0385 08       		.uleb128 0x8
 940 0386 72010000 		.4byte	.LASF62
 941 038a 08       		.byte	0x8
 942 038b 8001     		.2byte	0x180
 943 038d F4050000 		.4byte	0x5f4
 944 0391 04       		.byte	0x4
 945 0392 08       		.uleb128 0x8
 946 0393 EA030000 		.4byte	.LASF63
 947 0397 08       		.byte	0x8
 948 0398 8201     		.2byte	0x182
 949 039a 26010000 		.4byte	0x126
 950 039e 08       		.byte	0x8
 951 039f 08       		.uleb128 0x8
 952 03a0 B3020000 		.4byte	.LASF68
 953 03a4 08       		.byte	0x8
 954 03a5 8A01     		.2byte	0x18a
ARM GAS  /tmp/ccpJRJbB.s 			page 33


 955 03a7 26010000 		.4byte	0x126
 956 03ab 0C       		.byte	0xc
 957 03ac 00       		.byte	0
 958 03ad 03       		.uleb128 0x3
 959 03ae 4D000000 		.4byte	.LASF69
 960 03b2 07       		.byte	0x7
 961 03b3 6B       		.byte	0x6b
 962 03b4 B8030000 		.4byte	0x3b8
 963 03b8 0A       		.uleb128 0xa
 964 03b9 28030000 		.4byte	.LASF70
 965 03bd 04       		.byte	0x4
 966 03be 08       		.byte	0x8
 967 03bf A401     		.2byte	0x1a4
 968 03c1 D3030000 		.4byte	0x3d3
 969 03c5 08       		.uleb128 0x8
 970 03c6 69040000 		.4byte	.LASF71
 971 03ca 08       		.byte	0x8
 972 03cb AC01     		.2byte	0x1ac
 973 03cd FA050000 		.4byte	0x5fa
 974 03d1 00       		.byte	0
 975 03d2 00       		.byte	0
 976 03d3 03       		.uleb128 0x3
 977 03d4 25020000 		.4byte	.LASF72
 978 03d8 07       		.byte	0x7
 979 03d9 70       		.byte	0x70
 980 03da DE030000 		.4byte	0x3de
 981 03de 0E       		.uleb128 0xe
 982 03df 28010000 		.4byte	.LASF73
 983 03e3 5001     		.2byte	0x150
 984 03e5 08       		.byte	0x8
 985 03e6 C401     		.2byte	0x1c4
 986 03e8 3A040000 		.4byte	0x43a
 987 03ec 08       		.uleb128 0x8
 988 03ed CD040000 		.4byte	.LASF74
 989 03f1 08       		.byte	0x8
 990 03f2 C801     		.2byte	0x1c8
 991 03f4 81020000 		.4byte	0x281
 992 03f8 00       		.byte	0
 993 03f9 08       		.uleb128 0x8
 994 03fa FE000000 		.4byte	.LASF75
 995 03fe 08       		.byte	0x8
 996 03ff CC01     		.2byte	0x1cc
 997 0401 60030000 		.4byte	0x360
 998 0405 1C       		.byte	0x1c
 999 0406 07       		.uleb128 0x7
 1000 0407 64626700 		.ascii	"dbg\000"
 1001 040b 08       		.byte	0x8
 1002 040c D001     		.2byte	0x1d0
 1003 040e AD030000 		.4byte	0x3ad
 1004 0412 2C       		.byte	0x2c
 1005 0413 08       		.uleb128 0x8
 1006 0414 86000000 		.4byte	.LASF76
 1007 0418 08       		.byte	0x8
 1008 0419 D401     		.2byte	0x1d4
 1009 041b 31010000 		.4byte	0x131
 1010 041f 30       		.byte	0x30
 1011 0420 07       		.uleb128 0x7
ARM GAS  /tmp/ccpJRJbB.s 			page 34


 1012 0421 746D00   		.ascii	"tm\000"
 1013 0424 08       		.byte	0x8
 1014 0425 D901     		.2byte	0x1d9
 1015 0427 06050000 		.4byte	0x506
 1016 042b 70       		.byte	0x70
 1017 042c 08       		.uleb128 0x8
 1018 042d 88010000 		.4byte	.LASF77
 1019 0431 08       		.byte	0x8
 1020 0432 E501     		.2byte	0x1e5
 1021 0434 FF050000 		.4byte	0x5ff
 1022 0438 78       		.byte	0x78
 1023 0439 00       		.byte	0
 1024 043a 04       		.uleb128 0x4
 1025 043b 04       		.byte	0x4
 1026 043c 07       		.byte	0x7
 1027 043d 72020000 		.4byte	.LASF78
 1028 0441 03       		.uleb128 0x3
 1029 0442 69010000 		.4byte	.LASF79
 1030 0446 09       		.byte	0x9
 1031 0447 65       		.byte	0x65
 1032 0448 04030000 		.4byte	0x304
 1033 044c 03       		.uleb128 0x3
 1034 044d 5D020000 		.4byte	.LASF80
 1035 0451 09       		.byte	0x9
 1036 0452 6D       		.byte	0x6d
 1037 0453 C3000000 		.4byte	0xc3
 1038 0457 05       		.uleb128 0x5
 1039 0458 88040000 		.4byte	.LASF81
 1040 045c 04       		.byte	0x4
 1041 045d 09       		.byte	0x9
 1042 045e 89       		.byte	0x89
 1043 045f 70040000 		.4byte	0x470
 1044 0463 0F       		.uleb128 0xf
 1045 0464 72313300 		.ascii	"r13\000"
 1046 0468 09       		.byte	0x9
 1047 0469 8A       		.byte	0x8a
 1048 046a EB040000 		.4byte	0x4eb
 1049 046e 00       		.byte	0
 1050 046f 00       		.byte	0
 1051 0470 05       		.uleb128 0x5
 1052 0471 41000000 		.4byte	.LASF82
 1053 0475 24       		.byte	0x24
 1054 0476 0A       		.byte	0xa
 1055 0477 FD       		.byte	0xfd
 1056 0478 EB040000 		.4byte	0x4eb
 1057 047c 07       		.uleb128 0x7
 1058 047d 723400   		.ascii	"r4\000"
 1059 0480 0A       		.byte	0xa
 1060 0481 1001     		.2byte	0x110
 1061 0483 41040000 		.4byte	0x441
 1062 0487 00       		.byte	0
 1063 0488 07       		.uleb128 0x7
 1064 0489 723500   		.ascii	"r5\000"
 1065 048c 0A       		.byte	0xa
 1066 048d 1101     		.2byte	0x111
 1067 048f 41040000 		.4byte	0x441
 1068 0493 04       		.byte	0x4
ARM GAS  /tmp/ccpJRJbB.s 			page 35


 1069 0494 07       		.uleb128 0x7
 1070 0495 723600   		.ascii	"r6\000"
 1071 0498 0A       		.byte	0xa
 1072 0499 1201     		.2byte	0x112
 1073 049b 41040000 		.4byte	0x441
 1074 049f 08       		.byte	0x8
 1075 04a0 07       		.uleb128 0x7
 1076 04a1 723700   		.ascii	"r7\000"
 1077 04a4 0A       		.byte	0xa
 1078 04a5 1301     		.2byte	0x113
 1079 04a7 41040000 		.4byte	0x441
 1080 04ab 0C       		.byte	0xc
 1081 04ac 07       		.uleb128 0x7
 1082 04ad 723800   		.ascii	"r8\000"
 1083 04b0 0A       		.byte	0xa
 1084 04b1 1401     		.2byte	0x114
 1085 04b3 41040000 		.4byte	0x441
 1086 04b7 10       		.byte	0x10
 1087 04b8 07       		.uleb128 0x7
 1088 04b9 723900   		.ascii	"r9\000"
 1089 04bc 0A       		.byte	0xa
 1090 04bd 1501     		.2byte	0x115
 1091 04bf 41040000 		.4byte	0x441
 1092 04c3 14       		.byte	0x14
 1093 04c4 07       		.uleb128 0x7
 1094 04c5 72313000 		.ascii	"r10\000"
 1095 04c9 0A       		.byte	0xa
 1096 04ca 1601     		.2byte	0x116
 1097 04cc 41040000 		.4byte	0x441
 1098 04d0 18       		.byte	0x18
 1099 04d1 07       		.uleb128 0x7
 1100 04d2 72313100 		.ascii	"r11\000"
 1101 04d6 0A       		.byte	0xa
 1102 04d7 1701     		.2byte	0x117
 1103 04d9 41040000 		.4byte	0x441
 1104 04dd 1C       		.byte	0x1c
 1105 04de 07       		.uleb128 0x7
 1106 04df 6C7200   		.ascii	"lr\000"
 1107 04e2 0A       		.byte	0xa
 1108 04e3 1801     		.2byte	0x118
 1109 04e5 41040000 		.4byte	0x441
 1110 04e9 20       		.byte	0x20
 1111 04ea 00       		.byte	0
 1112 04eb 09       		.uleb128 0x9
 1113 04ec 04       		.byte	0x4
 1114 04ed 70040000 		.4byte	0x470
 1115 04f1 10       		.uleb128 0x10
 1116 04f2 04       		.byte	0x4
 1117 04f3 0B       		.byte	0xb
 1118 04f4 38       		.byte	0x38
 1119 04f5 06050000 		.4byte	0x506
 1120 04f9 06       		.uleb128 0x6
 1121 04fa 73040000 		.4byte	.LASF83
 1122 04fe 0B       		.byte	0xb
 1123 04ff 3C       		.byte	0x3c
 1124 0500 CE000000 		.4byte	0xce
 1125 0504 00       		.byte	0
ARM GAS  /tmp/ccpJRJbB.s 			page 36


 1126 0505 00       		.byte	0
 1127 0506 03       		.uleb128 0x3
 1128 0507 CD020000 		.4byte	.LASF84
 1129 050b 0B       		.byte	0xb
 1130 050c 3D       		.byte	0x3d
 1131 050d F1040000 		.4byte	0x4f1
 1132 0511 11       		.uleb128 0x11
 1133 0512 04       		.byte	0x4
 1134 0513 08       		.byte	0x8
 1135 0514 FA       		.byte	0xfa
 1136 0515 7A050000 		.4byte	0x57a
 1137 0519 12       		.uleb128 0x12
 1138 051a 1B000000 		.4byte	.LASF85
 1139 051e 08       		.byte	0x8
 1140 051f 0101     		.2byte	0x101
 1141 0521 05010000 		.4byte	0x105
 1142 0525 12       		.uleb128 0x12
 1143 0526 7D000000 		.4byte	.LASF86
 1144 052a 08       		.byte	0x8
 1145 052b 0801     		.2byte	0x108
 1146 052d 05010000 		.4byte	0x105
 1147 0531 12       		.uleb128 0x12
 1148 0532 CE050000 		.4byte	.LASF87
 1149 0536 08       		.byte	0x8
 1150 0537 0F01     		.2byte	0x10f
 1151 0539 04030000 		.4byte	0x304
 1152 053d 12       		.uleb128 0x12
 1153 053e 22010000 		.4byte	.LASF88
 1154 0542 08       		.byte	0x8
 1155 0543 1601     		.2byte	0x116
 1156 0545 7A050000 		.4byte	0x57a
 1157 0549 12       		.uleb128 0x12
 1158 054a 91000000 		.4byte	.LASF89
 1159 054e 08       		.byte	0x8
 1160 054f 1B01     		.2byte	0x11b
 1161 0551 05010000 		.4byte	0x105
 1162 0555 12       		.uleb128 0x12
 1163 0556 B2010000 		.4byte	.LASF90
 1164 055a 08       		.byte	0x8
 1165 055b 2401     		.2byte	0x124
 1166 055d A5050000 		.4byte	0x5a5
 1167 0561 12       		.uleb128 0x12
 1168 0562 DB030000 		.4byte	.LASF91
 1169 0566 08       		.byte	0x8
 1170 0567 2D01     		.2byte	0x12d
 1171 0569 DC050000 		.4byte	0x5dc
 1172 056d 12       		.uleb128 0x12
 1173 056e 89030000 		.4byte	.LASF92
 1174 0572 08       		.byte	0x8
 1175 0573 3501     		.2byte	0x135
 1176 0575 10010000 		.4byte	0x110
 1177 0579 00       		.byte	0
 1178 057a 09       		.uleb128 0x9
 1179 057b 04       		.byte	0x4
 1180 057c 1C020000 		.4byte	0x21c
 1181 0580 05       		.uleb128 0x5
 1182 0581 BA030000 		.4byte	.LASF93
ARM GAS  /tmp/ccpJRJbB.s 			page 37


 1183 0585 0C       		.byte	0xc
 1184 0586 0C       		.byte	0xc
 1185 0587 34       		.byte	0x34
 1186 0588 A5050000 		.4byte	0x5a5
 1187 058c 06       		.uleb128 0x6
 1188 058d 4C010000 		.4byte	.LASF94
 1189 0591 0C       		.byte	0xc
 1190 0592 35       		.byte	0x35
 1191 0593 51020000 		.4byte	0x251
 1192 0597 00       		.byte	0
 1193 0598 06       		.uleb128 0x6
 1194 0599 C4010000 		.4byte	.LASF95
 1195 059d 0C       		.byte	0xc
 1196 059e 37       		.byte	0x37
 1197 059f 1B010000 		.4byte	0x11b
 1198 05a3 08       		.byte	0x8
 1199 05a4 00       		.byte	0
 1200 05a5 09       		.uleb128 0x9
 1201 05a6 04       		.byte	0x4
 1202 05a7 80050000 		.4byte	0x580
 1203 05ab 05       		.uleb128 0x5
 1204 05ac BD040000 		.4byte	.LASF96
 1205 05b0 10       		.byte	0x10
 1206 05b1 0D       		.byte	0xd
 1207 05b2 39       		.byte	0x39
 1208 05b3 DC050000 		.4byte	0x5dc
 1209 05b7 06       		.uleb128 0x6
 1210 05b8 F6000000 		.4byte	.LASF97
 1211 05bc 0D       		.byte	0xd
 1212 05bd 3A       		.byte	0x3a
 1213 05be 51020000 		.4byte	0x251
 1214 05c2 00       		.byte	0
 1215 05c3 06       		.uleb128 0x6
 1216 05c4 FC050000 		.4byte	.LASF98
 1217 05c8 0D       		.byte	0xd
 1218 05c9 3C       		.byte	0x3c
 1219 05ca 27020000 		.4byte	0x227
 1220 05ce 08       		.byte	0x8
 1221 05cf 06       		.uleb128 0x6
 1222 05d0 2B040000 		.4byte	.LASF99
 1223 05d4 0D       		.byte	0xd
 1224 05d5 3E       		.byte	0x3e
 1225 05d6 1A060000 		.4byte	0x61a
 1226 05da 0C       		.byte	0xc
 1227 05db 00       		.byte	0
 1228 05dc 09       		.uleb128 0x9
 1229 05dd 04       		.byte	0x4
 1230 05de AB050000 		.4byte	0x5ab
 1231 05e2 09       		.uleb128 0x9
 1232 05e3 04       		.byte	0x4
 1233 05e4 E8050000 		.4byte	0x5e8
 1234 05e8 13       		.uleb128 0x13
 1235 05e9 ED050000 		.4byte	0x5ed
 1236 05ed 04       		.uleb128 0x4
 1237 05ee 01       		.byte	0x1
 1238 05ef 08       		.byte	0x8
 1239 05f0 15040000 		.4byte	.LASF100
ARM GAS  /tmp/ccpJRJbB.s 			page 38


 1240 05f4 09       		.uleb128 0x9
 1241 05f5 04       		.byte	0x4
 1242 05f6 06030000 		.4byte	0x306
 1243 05fa 14       		.uleb128 0x14
 1244 05fb E2050000 		.4byte	0x5e2
 1245 05ff 15       		.uleb128 0x15
 1246 0600 4C040000 		.4byte	0x44c
 1247 0604 0F060000 		.4byte	0x60f
 1248 0608 16       		.uleb128 0x16
 1249 0609 3A040000 		.4byte	0x43a
 1250 060d 1A       		.byte	0x1a
 1251 060e 00       		.byte	0
 1252 060f 03       		.uleb128 0x3
 1253 0610 7A010000 		.4byte	.LASF101
 1254 0614 0D       		.byte	0xd
 1255 0615 34       		.byte	0x34
 1256 0616 AB050000 		.4byte	0x5ab
 1257 061a 09       		.uleb128 0x9
 1258 061b 04       		.byte	0x4
 1259 061c 0F060000 		.4byte	0x60f
 1260 0620 09       		.uleb128 0x9
 1261 0621 04       		.byte	0x4
 1262 0622 A2000000 		.4byte	0xa2
 1263 0626 17       		.uleb128 0x17
 1264 0627 5B040000 		.4byte	.LASF107
 1265 062b 02       		.byte	0x2
 1266 062c 2202     		.2byte	0x222
 1267 062e 03       		.byte	0x3
 1268 062f 40060000 		.4byte	0x640
 1269 0633 18       		.uleb128 0x18
 1270 0634 82010000 		.4byte	.LASF105
 1271 0638 02       		.byte	0x2
 1272 0639 2202     		.2byte	0x222
 1273 063b B8000000 		.4byte	0xb8
 1274 063f 00       		.byte	0
 1275 0640 19       		.uleb128 0x19
 1276 0641 5C000000 		.4byte	.LASF102
 1277 0645 0A       		.byte	0xa
 1278 0646 C801     		.2byte	0x1c8
 1279 0648 03       		.byte	0x3
 1280 0649 19       		.uleb128 0x19
 1281 064a 05010000 		.4byte	.LASF103
 1282 064e 0A       		.byte	0xa
 1283 064f E001     		.2byte	0x1e0
 1284 0651 03       		.byte	0x3
 1285 0652 19       		.uleb128 0x19
 1286 0653 9F030000 		.4byte	.LASF104
 1287 0657 0E       		.byte	0xe
 1288 0658 5A01     		.2byte	0x15a
 1289 065a 03       		.byte	0x3
 1290 065b 1A       		.uleb128 0x1a
 1291 065c 54010000 		.4byte	.LASF118
 1292 0660 01       		.byte	0x1
 1293 0661 83       		.byte	0x83
 1294 0662 04030000 		.4byte	0x304
 1295 0666 01       		.byte	0x1
 1296 0667 80060000 		.4byte	0x680
ARM GAS  /tmp/ccpJRJbB.s 			page 39


 1297 066b 1B       		.uleb128 0x1b
 1298 066c DC050000 		.4byte	.LASF106
 1299 0670 01       		.byte	0x1
 1300 0671 83       		.byte	0x83
 1301 0672 2C000000 		.4byte	0x2c
 1302 0676 1C       		.uleb128 0x1c
 1303 0677 7000     		.ascii	"p\000"
 1304 0679 01       		.byte	0x1
 1305 067a 84       		.byte	0x84
 1306 067b 04030000 		.4byte	0x304
 1307 067f 00       		.byte	0
 1308 0680 17       		.uleb128 0x17
 1309 0681 F0050000 		.4byte	.LASF108
 1310 0685 0E       		.byte	0xe
 1311 0686 6601     		.2byte	0x166
 1312 0688 03       		.byte	0x3
 1313 0689 9B060000 		.4byte	0x69b
 1314 068d 1D       		.uleb128 0x1d
 1315 068e 7A040000 		.4byte	.LASF109
 1316 0692 AB060000 		.4byte	0x6ab
 1317 0696 F0050000 		.4byte	.LASF108
 1318 069a 00       		.byte	0
 1319 069b 15       		.uleb128 0x15
 1320 069c ED050000 		.4byte	0x5ed
 1321 06a0 AB060000 		.4byte	0x6ab
 1322 06a4 16       		.uleb128 0x16
 1323 06a5 3A040000 		.4byte	0x43a
 1324 06a9 0B       		.byte	0xb
 1325 06aa 00       		.byte	0
 1326 06ab 13       		.uleb128 0x13
 1327 06ac 9B060000 		.4byte	0x69b
 1328 06b0 1E       		.uleb128 0x1e
 1329 06b1 4E030000 		.4byte	.LASF119
 1330 06b5 01       		.byte	0x1
 1331 06b6 4E       		.byte	0x4e
 1332 06b7 00000000 		.4byte	.LFB241
 1333 06bb 28000000 		.4byte	.LFE241-.LFB241
 1334 06bf 01       		.uleb128 0x1
 1335 06c0 9C       		.byte	0x9c
 1336 06c1 DC060000 		.4byte	0x6dc
 1337 06c5 1F       		.uleb128 0x1f
 1338 06c6 9F040000 		.4byte	.LASF110
 1339 06ca 01       		.byte	0x1
 1340 06cb 50       		.byte	0x50
 1341 06cc DC060000 		.4byte	0x6dc
 1342 06d0 1F       		.uleb128 0x1f
 1343 06d1 75030000 		.4byte	.LASF111
 1344 06d5 01       		.byte	0x1
 1345 06d6 51       		.byte	0x51
 1346 06d7 DC060000 		.4byte	0x6dc
 1347 06db 00       		.byte	0
 1348 06dc 15       		.uleb128 0x15
 1349 06dd A2000000 		.4byte	0xa2
 1350 06e1 E7060000 		.4byte	0x6e7
 1351 06e5 20       		.uleb128 0x20
 1352 06e6 00       		.byte	0
 1353 06e7 21       		.uleb128 0x21
ARM GAS  /tmp/ccpJRJbB.s 			page 40


 1354 06e8 2B000000 		.4byte	.LASF120
 1355 06ec 01       		.byte	0x1
 1356 06ed 6D       		.byte	0x6d
 1357 06ee 04030000 		.4byte	0x304
 1358 06f2 00000000 		.4byte	.LFB242
 1359 06f6 34000000 		.4byte	.LFE242-.LFB242
 1360 06fa 01       		.uleb128 0x1
 1361 06fb 9C       		.byte	0x9c
 1362 06fc CC070000 		.4byte	0x7cc
 1363 0700 22       		.uleb128 0x22
 1364 0701 DC050000 		.4byte	.LASF106
 1365 0705 01       		.byte	0x1
 1366 0706 6D       		.byte	0x6d
 1367 0707 2C000000 		.4byte	0x2c
 1368 070b 00000000 		.4byte	.LLST0
 1369 070f 1C       		.uleb128 0x1c
 1370 0710 7000     		.ascii	"p\000"
 1371 0712 01       		.byte	0x1
 1372 0713 6E       		.byte	0x6e
 1373 0714 04030000 		.4byte	0x304
 1374 0718 23       		.uleb128 0x23
 1375 0719 52060000 		.4byte	0x652
 1376 071d 00000000 		.4byte	.LBB26
 1377 0721 06000000 		.4byte	.LBE26-.LBB26
 1378 0725 01       		.byte	0x1
 1379 0726 70       		.byte	0x70
 1380 0727 54070000 		.4byte	0x754
 1381 072b 24       		.uleb128 0x24
 1382 072c 40060000 		.4byte	0x640
 1383 0730 00000000 		.4byte	.LBB27
 1384 0734 06000000 		.4byte	.LBE27-.LBB27
 1385 0738 0E       		.byte	0xe
 1386 0739 5C01     		.2byte	0x15c
 1387 073b 24       		.uleb128 0x24
 1388 073c 26060000 		.4byte	0x626
 1389 0740 00000000 		.4byte	.LBB28
 1390 0744 06000000 		.4byte	.LBE28-.LBB28
 1391 0748 0A       		.byte	0xa
 1392 0749 D001     		.2byte	0x1d0
 1393 074b 25       		.uleb128 0x25
 1394 074c 33060000 		.4byte	0x633
 1395 0750 20       		.byte	0x20
 1396 0751 00       		.byte	0
 1397 0752 00       		.byte	0
 1398 0753 00       		.byte	0
 1399 0754 23       		.uleb128 0x23
 1400 0755 5B060000 		.4byte	0x65b
 1401 0759 06000000 		.4byte	.LBB30
 1402 075d 1C000000 		.4byte	.LBE30-.LBB30
 1403 0761 01       		.byte	0x1
 1404 0762 71       		.byte	0x71
 1405 0763 84070000 		.4byte	0x784
 1406 0767 26       		.uleb128 0x26
 1407 0768 6B060000 		.4byte	0x66b
 1408 076c 2E000000 		.4byte	.LLST1
 1409 0770 27       		.uleb128 0x27
 1410 0771 06000000 		.4byte	.LBB31
ARM GAS  /tmp/ccpJRJbB.s 			page 41


 1411 0775 1C000000 		.4byte	.LBE31-.LBB31
 1412 0779 28       		.uleb128 0x28
 1413 077a 76060000 		.4byte	0x676
 1414 077e 6C000000 		.4byte	.LLST2
 1415 0782 00       		.byte	0
 1416 0783 00       		.byte	0
 1417 0784 29       		.uleb128 0x29
 1418 0785 80060000 		.4byte	0x680
 1419 0789 22000000 		.4byte	.LBB32
 1420 078d 06000000 		.4byte	.LBE32-.LBB32
 1421 0791 01       		.byte	0x1
 1422 0792 72       		.byte	0x72
 1423 0793 27       		.uleb128 0x27
 1424 0794 22000000 		.4byte	.LBB33
 1425 0798 06000000 		.4byte	.LBE33-.LBB33
 1426 079c 2A       		.uleb128 0x2a
 1427 079d 8D060000 		.4byte	0x68d
 1428 07a1 24       		.uleb128 0x24
 1429 07a2 49060000 		.4byte	0x649
 1430 07a6 22000000 		.4byte	.LBB34
 1431 07aa 06000000 		.4byte	.LBE34-.LBB34
 1432 07ae 0E       		.byte	0xe
 1433 07af 7301     		.2byte	0x173
 1434 07b1 24       		.uleb128 0x24
 1435 07b2 26060000 		.4byte	0x626
 1436 07b6 22000000 		.4byte	.LBB35
 1437 07ba 06000000 		.4byte	.LBE35-.LBB35
 1438 07be 0A       		.byte	0xa
 1439 07bf E301     		.2byte	0x1e3
 1440 07c1 25       		.uleb128 0x25
 1441 07c2 33060000 		.4byte	0x633
 1442 07c6 00       		.byte	0
 1443 07c7 00       		.byte	0
 1444 07c8 00       		.byte	0
 1445 07c9 00       		.byte	0
 1446 07ca 00       		.byte	0
 1447 07cb 00       		.byte	0
 1448 07cc 2B       		.uleb128 0x2b
 1449 07cd 5B060000 		.4byte	0x65b
 1450 07d1 00000000 		.4byte	.LFB243
 1451 07d5 28000000 		.4byte	.LFE243-.LFB243
 1452 07d9 01       		.uleb128 0x1
 1453 07da 9C       		.byte	0x9c
 1454 07db F0070000 		.4byte	0x7f0
 1455 07df 26       		.uleb128 0x26
 1456 07e0 6B060000 		.4byte	0x66b
 1457 07e4 8E000000 		.4byte	.LLST3
 1458 07e8 2C       		.uleb128 0x2c
 1459 07e9 76060000 		.4byte	0x676
 1460 07ed 01       		.uleb128 0x1
 1461 07ee 53       		.byte	0x53
 1462 07ef 00       		.byte	0
 1463 07f0 2D       		.uleb128 0x2d
 1464 07f1 11010000 		.4byte	.LASF121
 1465 07f5 01       		.byte	0x1
 1466 07f6 9B       		.byte	0x9b
 1467 07f7 2C000000 		.4byte	0x2c
ARM GAS  /tmp/ccpJRJbB.s 			page 42


 1468 07fb 00000000 		.4byte	.LFB244
 1469 07ff 14000000 		.4byte	.LFE244-.LFB244
 1470 0803 01       		.uleb128 0x1
 1471 0804 9C       		.byte	0x9c
 1472 0805 2E       		.uleb128 0x2e
 1473 0806 23040000 		.4byte	.LASF112
 1474 080a 01       		.byte	0x1
 1475 080b 3E       		.byte	0x3e
 1476 080c 20060000 		.4byte	0x620
 1477 0810 05       		.uleb128 0x5
 1478 0811 03       		.byte	0x3
 1479 0812 00000000 		.4byte	nextmem
 1480 0816 2E       		.uleb128 0x2e
 1481 0817 00000000 		.4byte	.LASF113
 1482 081b 01       		.byte	0x1
 1483 081c 3F       		.byte	0x3f
 1484 081d 20060000 		.4byte	0x620
 1485 0821 05       		.uleb128 0x5
 1486 0822 03       		.byte	0x3
 1487 0823 00000000 		.4byte	endmem
 1488 0827 2F       		.uleb128 0x2f
 1489 0828 AF000000 		.4byte	.LASF114
 1490 082c 0F       		.byte	0xf
 1491 082d FA06     		.2byte	0x6fa
 1492 082f 33080000 		.4byte	0x833
 1493 0833 14       		.uleb128 0x14
 1494 0834 AD000000 		.4byte	0xad
 1495 0838 30       		.uleb128 0x30
 1496 0839 636800   		.ascii	"ch\000"
 1497 083c 08       		.byte	0x8
 1498 083d 0B02     		.2byte	0x20b
 1499 083f D3030000 		.4byte	0x3d3
 1500 0843 1F       		.uleb128 0x1f
 1501 0844 9F040000 		.4byte	.LASF110
 1502 0848 01       		.byte	0x1
 1503 0849 50       		.byte	0x50
 1504 084a DC060000 		.4byte	0x6dc
 1505 084e 1F       		.uleb128 0x1f
 1506 084f 75030000 		.4byte	.LASF111
 1507 0853 01       		.byte	0x1
 1508 0854 51       		.byte	0x51
 1509 0855 DC060000 		.4byte	0x6dc
 1510 0859 00       		.byte	0
 1511              		.section	.debug_abbrev,"",%progbits
 1512              	.Ldebug_abbrev0:
 1513 0000 01       		.uleb128 0x1
 1514 0001 11       		.uleb128 0x11
 1515 0002 01       		.byte	0x1
 1516 0003 25       		.uleb128 0x25
 1517 0004 0E       		.uleb128 0xe
 1518 0005 13       		.uleb128 0x13
 1519 0006 0B       		.uleb128 0xb
 1520 0007 03       		.uleb128 0x3
 1521 0008 0E       		.uleb128 0xe
 1522 0009 1B       		.uleb128 0x1b
 1523 000a 0E       		.uleb128 0xe
 1524 000b 55       		.uleb128 0x55
ARM GAS  /tmp/ccpJRJbB.s 			page 43


 1525 000c 17       		.uleb128 0x17
 1526 000d 11       		.uleb128 0x11
 1527 000e 01       		.uleb128 0x1
 1528 000f 10       		.uleb128 0x10
 1529 0010 17       		.uleb128 0x17
 1530 0011 00       		.byte	0
 1531 0012 00       		.byte	0
 1532 0013 02       		.uleb128 0x2
 1533 0014 24       		.uleb128 0x24
 1534 0015 00       		.byte	0
 1535 0016 0B       		.uleb128 0xb
 1536 0017 0B       		.uleb128 0xb
 1537 0018 3E       		.uleb128 0x3e
 1538 0019 0B       		.uleb128 0xb
 1539 001a 03       		.uleb128 0x3
 1540 001b 08       		.uleb128 0x8
 1541 001c 00       		.byte	0
 1542 001d 00       		.byte	0
 1543 001e 03       		.uleb128 0x3
 1544 001f 16       		.uleb128 0x16
 1545 0020 00       		.byte	0
 1546 0021 03       		.uleb128 0x3
 1547 0022 0E       		.uleb128 0xe
 1548 0023 3A       		.uleb128 0x3a
 1549 0024 0B       		.uleb128 0xb
 1550 0025 3B       		.uleb128 0x3b
 1551 0026 0B       		.uleb128 0xb
 1552 0027 49       		.uleb128 0x49
 1553 0028 13       		.uleb128 0x13
 1554 0029 00       		.byte	0
 1555 002a 00       		.byte	0
 1556 002b 04       		.uleb128 0x4
 1557 002c 24       		.uleb128 0x24
 1558 002d 00       		.byte	0
 1559 002e 0B       		.uleb128 0xb
 1560 002f 0B       		.uleb128 0xb
 1561 0030 3E       		.uleb128 0x3e
 1562 0031 0B       		.uleb128 0xb
 1563 0032 03       		.uleb128 0x3
 1564 0033 0E       		.uleb128 0xe
 1565 0034 00       		.byte	0
 1566 0035 00       		.byte	0
 1567 0036 05       		.uleb128 0x5
 1568 0037 13       		.uleb128 0x13
 1569 0038 01       		.byte	0x1
 1570 0039 03       		.uleb128 0x3
 1571 003a 0E       		.uleb128 0xe
 1572 003b 0B       		.uleb128 0xb
 1573 003c 0B       		.uleb128 0xb
 1574 003d 3A       		.uleb128 0x3a
 1575 003e 0B       		.uleb128 0xb
 1576 003f 3B       		.uleb128 0x3b
 1577 0040 0B       		.uleb128 0xb
 1578 0041 01       		.uleb128 0x1
 1579 0042 13       		.uleb128 0x13
 1580 0043 00       		.byte	0
 1581 0044 00       		.byte	0
ARM GAS  /tmp/ccpJRJbB.s 			page 44


 1582 0045 06       		.uleb128 0x6
 1583 0046 0D       		.uleb128 0xd
 1584 0047 00       		.byte	0
 1585 0048 03       		.uleb128 0x3
 1586 0049 0E       		.uleb128 0xe
 1587 004a 3A       		.uleb128 0x3a
 1588 004b 0B       		.uleb128 0xb
 1589 004c 3B       		.uleb128 0x3b
 1590 004d 0B       		.uleb128 0xb
 1591 004e 49       		.uleb128 0x49
 1592 004f 13       		.uleb128 0x13
 1593 0050 38       		.uleb128 0x38
 1594 0051 0B       		.uleb128 0xb
 1595 0052 00       		.byte	0
 1596 0053 00       		.byte	0
 1597 0054 07       		.uleb128 0x7
 1598 0055 0D       		.uleb128 0xd
 1599 0056 00       		.byte	0
 1600 0057 03       		.uleb128 0x3
 1601 0058 08       		.uleb128 0x8
 1602 0059 3A       		.uleb128 0x3a
 1603 005a 0B       		.uleb128 0xb
 1604 005b 3B       		.uleb128 0x3b
 1605 005c 05       		.uleb128 0x5
 1606 005d 49       		.uleb128 0x49
 1607 005e 13       		.uleb128 0x13
 1608 005f 38       		.uleb128 0x38
 1609 0060 0B       		.uleb128 0xb
 1610 0061 00       		.byte	0
 1611 0062 00       		.byte	0
 1612 0063 08       		.uleb128 0x8
 1613 0064 0D       		.uleb128 0xd
 1614 0065 00       		.byte	0
 1615 0066 03       		.uleb128 0x3
 1616 0067 0E       		.uleb128 0xe
 1617 0068 3A       		.uleb128 0x3a
 1618 0069 0B       		.uleb128 0xb
 1619 006a 3B       		.uleb128 0x3b
 1620 006b 05       		.uleb128 0x5
 1621 006c 49       		.uleb128 0x49
 1622 006d 13       		.uleb128 0x13
 1623 006e 38       		.uleb128 0x38
 1624 006f 0B       		.uleb128 0xb
 1625 0070 00       		.byte	0
 1626 0071 00       		.byte	0
 1627 0072 09       		.uleb128 0x9
 1628 0073 0F       		.uleb128 0xf
 1629 0074 00       		.byte	0
 1630 0075 0B       		.uleb128 0xb
 1631 0076 0B       		.uleb128 0xb
 1632 0077 49       		.uleb128 0x49
 1633 0078 13       		.uleb128 0x13
 1634 0079 00       		.byte	0
 1635 007a 00       		.byte	0
 1636 007b 0A       		.uleb128 0xa
 1637 007c 13       		.uleb128 0x13
 1638 007d 01       		.byte	0x1
ARM GAS  /tmp/ccpJRJbB.s 			page 45


 1639 007e 03       		.uleb128 0x3
 1640 007f 0E       		.uleb128 0xe
 1641 0080 0B       		.uleb128 0xb
 1642 0081 0B       		.uleb128 0xb
 1643 0082 3A       		.uleb128 0x3a
 1644 0083 0B       		.uleb128 0xb
 1645 0084 3B       		.uleb128 0x3b
 1646 0085 05       		.uleb128 0x5
 1647 0086 01       		.uleb128 0x1
 1648 0087 13       		.uleb128 0x13
 1649 0088 00       		.byte	0
 1650 0089 00       		.byte	0
 1651 008a 0B       		.uleb128 0xb
 1652 008b 15       		.uleb128 0x15
 1653 008c 01       		.byte	0x1
 1654 008d 27       		.uleb128 0x27
 1655 008e 19       		.uleb128 0x19
 1656 008f 01       		.uleb128 0x1
 1657 0090 13       		.uleb128 0x13
 1658 0091 00       		.byte	0
 1659 0092 00       		.byte	0
 1660 0093 0C       		.uleb128 0xc
 1661 0094 05       		.uleb128 0x5
 1662 0095 00       		.byte	0
 1663 0096 49       		.uleb128 0x49
 1664 0097 13       		.uleb128 0x13
 1665 0098 00       		.byte	0
 1666 0099 00       		.byte	0
 1667 009a 0D       		.uleb128 0xd
 1668 009b 0F       		.uleb128 0xf
 1669 009c 00       		.byte	0
 1670 009d 0B       		.uleb128 0xb
 1671 009e 0B       		.uleb128 0xb
 1672 009f 00       		.byte	0
 1673 00a0 00       		.byte	0
 1674 00a1 0E       		.uleb128 0xe
 1675 00a2 13       		.uleb128 0x13
 1676 00a3 01       		.byte	0x1
 1677 00a4 03       		.uleb128 0x3
 1678 00a5 0E       		.uleb128 0xe
 1679 00a6 0B       		.uleb128 0xb
 1680 00a7 05       		.uleb128 0x5
 1681 00a8 3A       		.uleb128 0x3a
 1682 00a9 0B       		.uleb128 0xb
 1683 00aa 3B       		.uleb128 0x3b
 1684 00ab 05       		.uleb128 0x5
 1685 00ac 01       		.uleb128 0x1
 1686 00ad 13       		.uleb128 0x13
 1687 00ae 00       		.byte	0
 1688 00af 00       		.byte	0
 1689 00b0 0F       		.uleb128 0xf
 1690 00b1 0D       		.uleb128 0xd
 1691 00b2 00       		.byte	0
 1692 00b3 03       		.uleb128 0x3
 1693 00b4 08       		.uleb128 0x8
 1694 00b5 3A       		.uleb128 0x3a
 1695 00b6 0B       		.uleb128 0xb
ARM GAS  /tmp/ccpJRJbB.s 			page 46


 1696 00b7 3B       		.uleb128 0x3b
 1697 00b8 0B       		.uleb128 0xb
 1698 00b9 49       		.uleb128 0x49
 1699 00ba 13       		.uleb128 0x13
 1700 00bb 38       		.uleb128 0x38
 1701 00bc 0B       		.uleb128 0xb
 1702 00bd 00       		.byte	0
 1703 00be 00       		.byte	0
 1704 00bf 10       		.uleb128 0x10
 1705 00c0 13       		.uleb128 0x13
 1706 00c1 01       		.byte	0x1
 1707 00c2 0B       		.uleb128 0xb
 1708 00c3 0B       		.uleb128 0xb
 1709 00c4 3A       		.uleb128 0x3a
 1710 00c5 0B       		.uleb128 0xb
 1711 00c6 3B       		.uleb128 0x3b
 1712 00c7 0B       		.uleb128 0xb
 1713 00c8 01       		.uleb128 0x1
 1714 00c9 13       		.uleb128 0x13
 1715 00ca 00       		.byte	0
 1716 00cb 00       		.byte	0
 1717 00cc 11       		.uleb128 0x11
 1718 00cd 17       		.uleb128 0x17
 1719 00ce 01       		.byte	0x1
 1720 00cf 0B       		.uleb128 0xb
 1721 00d0 0B       		.uleb128 0xb
 1722 00d1 3A       		.uleb128 0x3a
 1723 00d2 0B       		.uleb128 0xb
 1724 00d3 3B       		.uleb128 0x3b
 1725 00d4 0B       		.uleb128 0xb
 1726 00d5 01       		.uleb128 0x1
 1727 00d6 13       		.uleb128 0x13
 1728 00d7 00       		.byte	0
 1729 00d8 00       		.byte	0
 1730 00d9 12       		.uleb128 0x12
 1731 00da 0D       		.uleb128 0xd
 1732 00db 00       		.byte	0
 1733 00dc 03       		.uleb128 0x3
 1734 00dd 0E       		.uleb128 0xe
 1735 00de 3A       		.uleb128 0x3a
 1736 00df 0B       		.uleb128 0xb
 1737 00e0 3B       		.uleb128 0x3b
 1738 00e1 05       		.uleb128 0x5
 1739 00e2 49       		.uleb128 0x49
 1740 00e3 13       		.uleb128 0x13
 1741 00e4 00       		.byte	0
 1742 00e5 00       		.byte	0
 1743 00e6 13       		.uleb128 0x13
 1744 00e7 26       		.uleb128 0x26
 1745 00e8 00       		.byte	0
 1746 00e9 49       		.uleb128 0x49
 1747 00ea 13       		.uleb128 0x13
 1748 00eb 00       		.byte	0
 1749 00ec 00       		.byte	0
 1750 00ed 14       		.uleb128 0x14
 1751 00ee 35       		.uleb128 0x35
 1752 00ef 00       		.byte	0
ARM GAS  /tmp/ccpJRJbB.s 			page 47


 1753 00f0 49       		.uleb128 0x49
 1754 00f1 13       		.uleb128 0x13
 1755 00f2 00       		.byte	0
 1756 00f3 00       		.byte	0
 1757 00f4 15       		.uleb128 0x15
 1758 00f5 01       		.uleb128 0x1
 1759 00f6 01       		.byte	0x1
 1760 00f7 49       		.uleb128 0x49
 1761 00f8 13       		.uleb128 0x13
 1762 00f9 01       		.uleb128 0x1
 1763 00fa 13       		.uleb128 0x13
 1764 00fb 00       		.byte	0
 1765 00fc 00       		.byte	0
 1766 00fd 16       		.uleb128 0x16
 1767 00fe 21       		.uleb128 0x21
 1768 00ff 00       		.byte	0
 1769 0100 49       		.uleb128 0x49
 1770 0101 13       		.uleb128 0x13
 1771 0102 2F       		.uleb128 0x2f
 1772 0103 0B       		.uleb128 0xb
 1773 0104 00       		.byte	0
 1774 0105 00       		.byte	0
 1775 0106 17       		.uleb128 0x17
 1776 0107 2E       		.uleb128 0x2e
 1777 0108 01       		.byte	0x1
 1778 0109 03       		.uleb128 0x3
 1779 010a 0E       		.uleb128 0xe
 1780 010b 3A       		.uleb128 0x3a
 1781 010c 0B       		.uleb128 0xb
 1782 010d 3B       		.uleb128 0x3b
 1783 010e 05       		.uleb128 0x5
 1784 010f 27       		.uleb128 0x27
 1785 0110 19       		.uleb128 0x19
 1786 0111 20       		.uleb128 0x20
 1787 0112 0B       		.uleb128 0xb
 1788 0113 01       		.uleb128 0x1
 1789 0114 13       		.uleb128 0x13
 1790 0115 00       		.byte	0
 1791 0116 00       		.byte	0
 1792 0117 18       		.uleb128 0x18
 1793 0118 05       		.uleb128 0x5
 1794 0119 00       		.byte	0
 1795 011a 03       		.uleb128 0x3
 1796 011b 0E       		.uleb128 0xe
 1797 011c 3A       		.uleb128 0x3a
 1798 011d 0B       		.uleb128 0xb
 1799 011e 3B       		.uleb128 0x3b
 1800 011f 05       		.uleb128 0x5
 1801 0120 49       		.uleb128 0x49
 1802 0121 13       		.uleb128 0x13
 1803 0122 00       		.byte	0
 1804 0123 00       		.byte	0
 1805 0124 19       		.uleb128 0x19
 1806 0125 2E       		.uleb128 0x2e
 1807 0126 00       		.byte	0
 1808 0127 03       		.uleb128 0x3
 1809 0128 0E       		.uleb128 0xe
ARM GAS  /tmp/ccpJRJbB.s 			page 48


 1810 0129 3A       		.uleb128 0x3a
 1811 012a 0B       		.uleb128 0xb
 1812 012b 3B       		.uleb128 0x3b
 1813 012c 05       		.uleb128 0x5
 1814 012d 27       		.uleb128 0x27
 1815 012e 19       		.uleb128 0x19
 1816 012f 20       		.uleb128 0x20
 1817 0130 0B       		.uleb128 0xb
 1818 0131 00       		.byte	0
 1819 0132 00       		.byte	0
 1820 0133 1A       		.uleb128 0x1a
 1821 0134 2E       		.uleb128 0x2e
 1822 0135 01       		.byte	0x1
 1823 0136 3F       		.uleb128 0x3f
 1824 0137 19       		.uleb128 0x19
 1825 0138 03       		.uleb128 0x3
 1826 0139 0E       		.uleb128 0xe
 1827 013a 3A       		.uleb128 0x3a
 1828 013b 0B       		.uleb128 0xb
 1829 013c 3B       		.uleb128 0x3b
 1830 013d 0B       		.uleb128 0xb
 1831 013e 27       		.uleb128 0x27
 1832 013f 19       		.uleb128 0x19
 1833 0140 49       		.uleb128 0x49
 1834 0141 13       		.uleb128 0x13
 1835 0142 20       		.uleb128 0x20
 1836 0143 0B       		.uleb128 0xb
 1837 0144 01       		.uleb128 0x1
 1838 0145 13       		.uleb128 0x13
 1839 0146 00       		.byte	0
 1840 0147 00       		.byte	0
 1841 0148 1B       		.uleb128 0x1b
 1842 0149 05       		.uleb128 0x5
 1843 014a 00       		.byte	0
 1844 014b 03       		.uleb128 0x3
 1845 014c 0E       		.uleb128 0xe
 1846 014d 3A       		.uleb128 0x3a
 1847 014e 0B       		.uleb128 0xb
 1848 014f 3B       		.uleb128 0x3b
 1849 0150 0B       		.uleb128 0xb
 1850 0151 49       		.uleb128 0x49
 1851 0152 13       		.uleb128 0x13
 1852 0153 00       		.byte	0
 1853 0154 00       		.byte	0
 1854 0155 1C       		.uleb128 0x1c
 1855 0156 34       		.uleb128 0x34
 1856 0157 00       		.byte	0
 1857 0158 03       		.uleb128 0x3
 1858 0159 08       		.uleb128 0x8
 1859 015a 3A       		.uleb128 0x3a
 1860 015b 0B       		.uleb128 0xb
 1861 015c 3B       		.uleb128 0x3b
 1862 015d 0B       		.uleb128 0xb
 1863 015e 49       		.uleb128 0x49
 1864 015f 13       		.uleb128 0x13
 1865 0160 00       		.byte	0
 1866 0161 00       		.byte	0
ARM GAS  /tmp/ccpJRJbB.s 			page 49


 1867 0162 1D       		.uleb128 0x1d
 1868 0163 34       		.uleb128 0x34
 1869 0164 00       		.byte	0
 1870 0165 03       		.uleb128 0x3
 1871 0166 0E       		.uleb128 0xe
 1872 0167 49       		.uleb128 0x49
 1873 0168 13       		.uleb128 0x13
 1874 0169 34       		.uleb128 0x34
 1875 016a 19       		.uleb128 0x19
 1876 016b 1C       		.uleb128 0x1c
 1877 016c 0E       		.uleb128 0xe
 1878 016d 00       		.byte	0
 1879 016e 00       		.byte	0
 1880 016f 1E       		.uleb128 0x1e
 1881 0170 2E       		.uleb128 0x2e
 1882 0171 01       		.byte	0x1
 1883 0172 3F       		.uleb128 0x3f
 1884 0173 19       		.uleb128 0x19
 1885 0174 03       		.uleb128 0x3
 1886 0175 0E       		.uleb128 0xe
 1887 0176 3A       		.uleb128 0x3a
 1888 0177 0B       		.uleb128 0xb
 1889 0178 3B       		.uleb128 0x3b
 1890 0179 0B       		.uleb128 0xb
 1891 017a 27       		.uleb128 0x27
 1892 017b 19       		.uleb128 0x19
 1893 017c 11       		.uleb128 0x11
 1894 017d 01       		.uleb128 0x1
 1895 017e 12       		.uleb128 0x12
 1896 017f 06       		.uleb128 0x6
 1897 0180 40       		.uleb128 0x40
 1898 0181 18       		.uleb128 0x18
 1899 0182 9742     		.uleb128 0x2117
 1900 0184 19       		.uleb128 0x19
 1901 0185 01       		.uleb128 0x1
 1902 0186 13       		.uleb128 0x13
 1903 0187 00       		.byte	0
 1904 0188 00       		.byte	0
 1905 0189 1F       		.uleb128 0x1f
 1906 018a 34       		.uleb128 0x34
 1907 018b 00       		.byte	0
 1908 018c 03       		.uleb128 0x3
 1909 018d 0E       		.uleb128 0xe
 1910 018e 3A       		.uleb128 0x3a
 1911 018f 0B       		.uleb128 0xb
 1912 0190 3B       		.uleb128 0x3b
 1913 0191 0B       		.uleb128 0xb
 1914 0192 49       		.uleb128 0x49
 1915 0193 13       		.uleb128 0x13
 1916 0194 3F       		.uleb128 0x3f
 1917 0195 19       		.uleb128 0x19
 1918 0196 3C       		.uleb128 0x3c
 1919 0197 19       		.uleb128 0x19
 1920 0198 00       		.byte	0
 1921 0199 00       		.byte	0
 1922 019a 20       		.uleb128 0x20
 1923 019b 21       		.uleb128 0x21
ARM GAS  /tmp/ccpJRJbB.s 			page 50


 1924 019c 00       		.byte	0
 1925 019d 00       		.byte	0
 1926 019e 00       		.byte	0
 1927 019f 21       		.uleb128 0x21
 1928 01a0 2E       		.uleb128 0x2e
 1929 01a1 01       		.byte	0x1
 1930 01a2 3F       		.uleb128 0x3f
 1931 01a3 19       		.uleb128 0x19
 1932 01a4 03       		.uleb128 0x3
 1933 01a5 0E       		.uleb128 0xe
 1934 01a6 3A       		.uleb128 0x3a
 1935 01a7 0B       		.uleb128 0xb
 1936 01a8 3B       		.uleb128 0x3b
 1937 01a9 0B       		.uleb128 0xb
 1938 01aa 27       		.uleb128 0x27
 1939 01ab 19       		.uleb128 0x19
 1940 01ac 49       		.uleb128 0x49
 1941 01ad 13       		.uleb128 0x13
 1942 01ae 11       		.uleb128 0x11
 1943 01af 01       		.uleb128 0x1
 1944 01b0 12       		.uleb128 0x12
 1945 01b1 06       		.uleb128 0x6
 1946 01b2 40       		.uleb128 0x40
 1947 01b3 18       		.uleb128 0x18
 1948 01b4 9742     		.uleb128 0x2117
 1949 01b6 19       		.uleb128 0x19
 1950 01b7 01       		.uleb128 0x1
 1951 01b8 13       		.uleb128 0x13
 1952 01b9 00       		.byte	0
 1953 01ba 00       		.byte	0
 1954 01bb 22       		.uleb128 0x22
 1955 01bc 05       		.uleb128 0x5
 1956 01bd 00       		.byte	0
 1957 01be 03       		.uleb128 0x3
 1958 01bf 0E       		.uleb128 0xe
 1959 01c0 3A       		.uleb128 0x3a
 1960 01c1 0B       		.uleb128 0xb
 1961 01c2 3B       		.uleb128 0x3b
 1962 01c3 0B       		.uleb128 0xb
 1963 01c4 49       		.uleb128 0x49
 1964 01c5 13       		.uleb128 0x13
 1965 01c6 02       		.uleb128 0x2
 1966 01c7 17       		.uleb128 0x17
 1967 01c8 00       		.byte	0
 1968 01c9 00       		.byte	0
 1969 01ca 23       		.uleb128 0x23
 1970 01cb 1D       		.uleb128 0x1d
 1971 01cc 01       		.byte	0x1
 1972 01cd 31       		.uleb128 0x31
 1973 01ce 13       		.uleb128 0x13
 1974 01cf 11       		.uleb128 0x11
 1975 01d0 01       		.uleb128 0x1
 1976 01d1 12       		.uleb128 0x12
 1977 01d2 06       		.uleb128 0x6
 1978 01d3 58       		.uleb128 0x58
 1979 01d4 0B       		.uleb128 0xb
 1980 01d5 59       		.uleb128 0x59
ARM GAS  /tmp/ccpJRJbB.s 			page 51


 1981 01d6 0B       		.uleb128 0xb
 1982 01d7 01       		.uleb128 0x1
 1983 01d8 13       		.uleb128 0x13
 1984 01d9 00       		.byte	0
 1985 01da 00       		.byte	0
 1986 01db 24       		.uleb128 0x24
 1987 01dc 1D       		.uleb128 0x1d
 1988 01dd 01       		.byte	0x1
 1989 01de 31       		.uleb128 0x31
 1990 01df 13       		.uleb128 0x13
 1991 01e0 11       		.uleb128 0x11
 1992 01e1 01       		.uleb128 0x1
 1993 01e2 12       		.uleb128 0x12
 1994 01e3 06       		.uleb128 0x6
 1995 01e4 58       		.uleb128 0x58
 1996 01e5 0B       		.uleb128 0xb
 1997 01e6 59       		.uleb128 0x59
 1998 01e7 05       		.uleb128 0x5
 1999 01e8 00       		.byte	0
 2000 01e9 00       		.byte	0
 2001 01ea 25       		.uleb128 0x25
 2002 01eb 05       		.uleb128 0x5
 2003 01ec 00       		.byte	0
 2004 01ed 31       		.uleb128 0x31
 2005 01ee 13       		.uleb128 0x13
 2006 01ef 1C       		.uleb128 0x1c
 2007 01f0 0B       		.uleb128 0xb
 2008 01f1 00       		.byte	0
 2009 01f2 00       		.byte	0
 2010 01f3 26       		.uleb128 0x26
 2011 01f4 05       		.uleb128 0x5
 2012 01f5 00       		.byte	0
 2013 01f6 31       		.uleb128 0x31
 2014 01f7 13       		.uleb128 0x13
 2015 01f8 02       		.uleb128 0x2
 2016 01f9 17       		.uleb128 0x17
 2017 01fa 00       		.byte	0
 2018 01fb 00       		.byte	0
 2019 01fc 27       		.uleb128 0x27
 2020 01fd 0B       		.uleb128 0xb
 2021 01fe 01       		.byte	0x1
 2022 01ff 11       		.uleb128 0x11
 2023 0200 01       		.uleb128 0x1
 2024 0201 12       		.uleb128 0x12
 2025 0202 06       		.uleb128 0x6
 2026 0203 00       		.byte	0
 2027 0204 00       		.byte	0
 2028 0205 28       		.uleb128 0x28
 2029 0206 34       		.uleb128 0x34
 2030 0207 00       		.byte	0
 2031 0208 31       		.uleb128 0x31
 2032 0209 13       		.uleb128 0x13
 2033 020a 02       		.uleb128 0x2
 2034 020b 17       		.uleb128 0x17
 2035 020c 00       		.byte	0
 2036 020d 00       		.byte	0
 2037 020e 29       		.uleb128 0x29
ARM GAS  /tmp/ccpJRJbB.s 			page 52


 2038 020f 1D       		.uleb128 0x1d
 2039 0210 01       		.byte	0x1
 2040 0211 31       		.uleb128 0x31
 2041 0212 13       		.uleb128 0x13
 2042 0213 11       		.uleb128 0x11
 2043 0214 01       		.uleb128 0x1
 2044 0215 12       		.uleb128 0x12
 2045 0216 06       		.uleb128 0x6
 2046 0217 58       		.uleb128 0x58
 2047 0218 0B       		.uleb128 0xb
 2048 0219 59       		.uleb128 0x59
 2049 021a 0B       		.uleb128 0xb
 2050 021b 00       		.byte	0
 2051 021c 00       		.byte	0
 2052 021d 2A       		.uleb128 0x2a
 2053 021e 34       		.uleb128 0x34
 2054 021f 00       		.byte	0
 2055 0220 31       		.uleb128 0x31
 2056 0221 13       		.uleb128 0x13
 2057 0222 00       		.byte	0
 2058 0223 00       		.byte	0
 2059 0224 2B       		.uleb128 0x2b
 2060 0225 2E       		.uleb128 0x2e
 2061 0226 01       		.byte	0x1
 2062 0227 31       		.uleb128 0x31
 2063 0228 13       		.uleb128 0x13
 2064 0229 11       		.uleb128 0x11
 2065 022a 01       		.uleb128 0x1
 2066 022b 12       		.uleb128 0x12
 2067 022c 06       		.uleb128 0x6
 2068 022d 40       		.uleb128 0x40
 2069 022e 18       		.uleb128 0x18
 2070 022f 9742     		.uleb128 0x2117
 2071 0231 19       		.uleb128 0x19
 2072 0232 01       		.uleb128 0x1
 2073 0233 13       		.uleb128 0x13
 2074 0234 00       		.byte	0
 2075 0235 00       		.byte	0
 2076 0236 2C       		.uleb128 0x2c
 2077 0237 34       		.uleb128 0x34
 2078 0238 00       		.byte	0
 2079 0239 31       		.uleb128 0x31
 2080 023a 13       		.uleb128 0x13
 2081 023b 02       		.uleb128 0x2
 2082 023c 18       		.uleb128 0x18
 2083 023d 00       		.byte	0
 2084 023e 00       		.byte	0
 2085 023f 2D       		.uleb128 0x2d
 2086 0240 2E       		.uleb128 0x2e
 2087 0241 00       		.byte	0
 2088 0242 3F       		.uleb128 0x3f
 2089 0243 19       		.uleb128 0x19
 2090 0244 03       		.uleb128 0x3
 2091 0245 0E       		.uleb128 0xe
 2092 0246 3A       		.uleb128 0x3a
 2093 0247 0B       		.uleb128 0xb
 2094 0248 3B       		.uleb128 0x3b
ARM GAS  /tmp/ccpJRJbB.s 			page 53


 2095 0249 0B       		.uleb128 0xb
 2096 024a 27       		.uleb128 0x27
 2097 024b 19       		.uleb128 0x19
 2098 024c 49       		.uleb128 0x49
 2099 024d 13       		.uleb128 0x13
 2100 024e 11       		.uleb128 0x11
 2101 024f 01       		.uleb128 0x1
 2102 0250 12       		.uleb128 0x12
 2103 0251 06       		.uleb128 0x6
 2104 0252 40       		.uleb128 0x40
 2105 0253 18       		.uleb128 0x18
 2106 0254 9742     		.uleb128 0x2117
 2107 0256 19       		.uleb128 0x19
 2108 0257 00       		.byte	0
 2109 0258 00       		.byte	0
 2110 0259 2E       		.uleb128 0x2e
 2111 025a 34       		.uleb128 0x34
 2112 025b 00       		.byte	0
 2113 025c 03       		.uleb128 0x3
 2114 025d 0E       		.uleb128 0xe
 2115 025e 3A       		.uleb128 0x3a
 2116 025f 0B       		.uleb128 0xb
 2117 0260 3B       		.uleb128 0x3b
 2118 0261 0B       		.uleb128 0xb
 2119 0262 49       		.uleb128 0x49
 2120 0263 13       		.uleb128 0x13
 2121 0264 02       		.uleb128 0x2
 2122 0265 18       		.uleb128 0x18
 2123 0266 00       		.byte	0
 2124 0267 00       		.byte	0
 2125 0268 2F       		.uleb128 0x2f
 2126 0269 34       		.uleb128 0x34
 2127 026a 00       		.byte	0
 2128 026b 03       		.uleb128 0x3
 2129 026c 0E       		.uleb128 0xe
 2130 026d 3A       		.uleb128 0x3a
 2131 026e 0B       		.uleb128 0xb
 2132 026f 3B       		.uleb128 0x3b
 2133 0270 05       		.uleb128 0x5
 2134 0271 49       		.uleb128 0x49
 2135 0272 13       		.uleb128 0x13
 2136 0273 3F       		.uleb128 0x3f
 2137 0274 19       		.uleb128 0x19
 2138 0275 3C       		.uleb128 0x3c
 2139 0276 19       		.uleb128 0x19
 2140 0277 00       		.byte	0
 2141 0278 00       		.byte	0
 2142 0279 30       		.uleb128 0x30
 2143 027a 34       		.uleb128 0x34
 2144 027b 00       		.byte	0
 2145 027c 03       		.uleb128 0x3
 2146 027d 08       		.uleb128 0x8
 2147 027e 3A       		.uleb128 0x3a
 2148 027f 0B       		.uleb128 0xb
 2149 0280 3B       		.uleb128 0x3b
 2150 0281 05       		.uleb128 0x5
 2151 0282 49       		.uleb128 0x49
ARM GAS  /tmp/ccpJRJbB.s 			page 54


 2152 0283 13       		.uleb128 0x13
 2153 0284 3F       		.uleb128 0x3f
 2154 0285 19       		.uleb128 0x19
 2155 0286 3C       		.uleb128 0x3c
 2156 0287 19       		.uleb128 0x19
 2157 0288 00       		.byte	0
 2158 0289 00       		.byte	0
 2159 028a 00       		.byte	0
 2160              		.section	.debug_loc,"",%progbits
 2161              	.Ldebug_loc0:
 2162              	.LLST0:
 2163 0000 00000000 		.4byte	.LVL0
 2164 0004 10000000 		.4byte	.LVL2
 2165 0008 0100     		.2byte	0x1
 2166 000a 50       		.byte	0x50
 2167 000b 10000000 		.4byte	.LVL2
 2168 000f 14000000 		.4byte	.LVL3
 2169 0013 0300     		.2byte	0x3
 2170 0015 70       		.byte	0x70
 2171 0016 79       		.sleb128 -7
 2172 0017 9F       		.byte	0x9f
 2173 0018 14000000 		.4byte	.LVL3
 2174 001c 34000000 		.4byte	.LFE242
 2175 0020 0400     		.2byte	0x4
 2176 0022 F3       		.byte	0xf3
 2177 0023 01       		.uleb128 0x1
 2178 0024 50       		.byte	0x50
 2179 0025 9F       		.byte	0x9f
 2180 0026 00000000 		.4byte	0
 2181 002a 00000000 		.4byte	0
 2182              	.LLST1:
 2183 002e 06000000 		.4byte	.LVL1
 2184 0032 10000000 		.4byte	.LVL2
 2185 0036 0100     		.2byte	0x1
 2186 0038 50       		.byte	0x50
 2187 0039 10000000 		.4byte	.LVL2
 2188 003d 14000000 		.4byte	.LVL3
 2189 0041 0300     		.2byte	0x3
 2190 0043 70       		.byte	0x70
 2191 0044 79       		.sleb128 -7
 2192 0045 9F       		.byte	0x9f
 2193 0046 14000000 		.4byte	.LVL3
 2194 004a 1C000000 		.4byte	.LVL5
 2195 004e 0100     		.2byte	0x1
 2196 0050 50       		.byte	0x50
 2197 0051 1C000000 		.4byte	.LVL5
 2198 0055 34000000 		.4byte	.LFE242
 2199 0059 0900     		.2byte	0x9
 2200 005b F3       		.byte	0xf3
 2201 005c 01       		.uleb128 0x1
 2202 005d 50       		.byte	0x50
 2203 005e 23       		.byte	0x23
 2204 005f 07       		.uleb128 0x7
 2205 0060 09       		.byte	0x9
 2206 0061 F8       		.byte	0xf8
 2207 0062 1A       		.byte	0x1a
 2208 0063 9F       		.byte	0x9f
ARM GAS  /tmp/ccpJRJbB.s 			page 55


 2209 0064 00000000 		.4byte	0
 2210 0068 00000000 		.4byte	0
 2211              	.LLST2:
 2212 006c 18000000 		.4byte	.LVL4
 2213 0070 24000000 		.4byte	.LVL7
 2214 0074 0100     		.2byte	0x1
 2215 0076 53       		.byte	0x53
 2216 0077 24000000 		.4byte	.LVL7
 2217 007b 34000000 		.4byte	.LFE242
 2218 007f 0500     		.2byte	0x5
 2219 0081 03       		.byte	0x3
 2220 0082 00000000 		.4byte	nextmem
 2221 0086 00000000 		.4byte	0
 2222 008a 00000000 		.4byte	0
 2223              	.LLST3:
 2224 008e 00000000 		.4byte	.LVL8
 2225 0092 0A000000 		.4byte	.LVL9
 2226 0096 0100     		.2byte	0x1
 2227 0098 50       		.byte	0x50
 2228 0099 0A000000 		.4byte	.LVL9
 2229 009d 0E000000 		.4byte	.LVL10
 2230 00a1 0300     		.2byte	0x3
 2231 00a3 70       		.byte	0x70
 2232 00a4 79       		.sleb128 -7
 2233 00a5 9F       		.byte	0x9f
 2234 00a6 0E000000 		.4byte	.LVL10
 2235 00aa 16000000 		.4byte	.LVL12
 2236 00ae 0100     		.2byte	0x1
 2237 00b0 50       		.byte	0x50
 2238 00b1 16000000 		.4byte	.LVL12
 2239 00b5 28000000 		.4byte	.LFE243
 2240 00b9 0900     		.2byte	0x9
 2241 00bb F3       		.byte	0xf3
 2242 00bc 01       		.uleb128 0x1
 2243 00bd 50       		.byte	0x50
 2244 00be 23       		.byte	0x23
 2245 00bf 07       		.uleb128 0x7
 2246 00c0 09       		.byte	0x9
 2247 00c1 F8       		.byte	0xf8
 2248 00c2 1A       		.byte	0x1a
 2249 00c3 9F       		.byte	0x9f
 2250 00c4 00000000 		.4byte	0
 2251 00c8 00000000 		.4byte	0
 2252              		.section	.debug_aranges,"",%progbits
 2253 0000 34000000 		.4byte	0x34
 2254 0004 0200     		.2byte	0x2
 2255 0006 00000000 		.4byte	.Ldebug_info0
 2256 000a 04       		.byte	0x4
 2257 000b 00       		.byte	0
 2258 000c 0000     		.2byte	0
 2259 000e 0000     		.2byte	0
 2260 0010 00000000 		.4byte	.LFB241
 2261 0014 28000000 		.4byte	.LFE241-.LFB241
 2262 0018 00000000 		.4byte	.LFB242
 2263 001c 34000000 		.4byte	.LFE242-.LFB242
 2264 0020 00000000 		.4byte	.LFB243
 2265 0024 28000000 		.4byte	.LFE243-.LFB243
ARM GAS  /tmp/ccpJRJbB.s 			page 56


 2266 0028 00000000 		.4byte	.LFB244
 2267 002c 14000000 		.4byte	.LFE244-.LFB244
 2268 0030 00000000 		.4byte	0
 2269 0034 00000000 		.4byte	0
 2270              		.section	.debug_ranges,"",%progbits
 2271              	.Ldebug_ranges0:
 2272 0000 00000000 		.4byte	.LFB241
 2273 0004 28000000 		.4byte	.LFE241
 2274 0008 00000000 		.4byte	.LFB242
 2275 000c 34000000 		.4byte	.LFE242
 2276 0010 00000000 		.4byte	.LFB243
 2277 0014 28000000 		.4byte	.LFE243
 2278 0018 00000000 		.4byte	.LFB244
 2279 001c 14000000 		.4byte	.LFE244
 2280 0020 00000000 		.4byte	0
 2281 0024 00000000 		.4byte	0
 2282              		.section	.debug_line,"",%progbits
 2283              	.Ldebug_line0:
 2284 0000 3D030000 		.section	.debug_str,"MS",%progbits,1
 2284      0200C902 
 2284      00000201 
 2284      FB0E0D00 
 2284      01010101 
 2285              	.LASF113:
 2286 0000 656E646D 		.ascii	"endmem\000"
 2286      656D00
 2287              	.LASF50:
 2288 0007 72656164 		.ascii	"ready_list_t\000"
 2288      795F6C69 
 2288      73745F74 
 2288      00
 2289              	.LASF2:
 2290 0014 73697A65 		.ascii	"size_t\000"
 2290      5F7400
 2291              	.LASF85:
 2292 001b 7264796D 		.ascii	"rdymsg\000"
 2292      736700
 2293              	.LASF17:
 2294 0022 75696E74 		.ascii	"uint64_t\000"
 2294      36345F74 
 2294      00
 2295              	.LASF120:
 2296 002b 6368436F 		.ascii	"chCoreAlloc\000"
 2296      7265416C 
 2296      6C6F6300 
 2297              	.LASF3:
 2298 0037 5F5F7569 		.ascii	"__uint8_t\000"
 2298      6E74385F 
 2298      7400
 2299              	.LASF82:
 2300 0041 706F7274 		.ascii	"port_intctx\000"
 2300      5F696E74 
 2300      63747800 
 2301              	.LASF69:
 2302 004d 73797374 		.ascii	"system_debug_t\000"
 2302      656D5F64 
 2302      65627567 
ARM GAS  /tmp/ccpJRJbB.s 			page 57


 2302      5F7400
 2303              	.LASF102:
 2304 005c 706F7274 		.ascii	"port_lock\000"
 2304      5F6C6F63 
 2304      6B00
 2305              	.LASF13:
 2306 0066 6C6F6E67 		.ascii	"long long unsigned int\000"
 2306      206C6F6E 
 2306      6720756E 
 2306      7369676E 
 2306      65642069 
 2307              	.LASF86:
 2308 007d 65786974 		.ascii	"exitcode\000"
 2308      636F6465 
 2308      00
 2309              	.LASF76:
 2310 0086 6D61696E 		.ascii	"mainthread\000"
 2310      74687265 
 2310      616400
 2311              	.LASF89:
 2312 0091 73656E74 		.ascii	"sentmsg\000"
 2312      6D736700 
 2313              	.LASF66:
 2314 0099 76697274 		.ascii	"virtual_timers_list_t\000"
 2314      75616C5F 
 2314      74696D65 
 2314      72735F6C 
 2314      6973745F 
 2315              	.LASF114:
 2316 00af 49544D5F 		.ascii	"ITM_RxBuffer\000"
 2316      52784275 
 2316      66666572 
 2316      00
 2317              	.LASF49:
 2318 00bc 63685F74 		.ascii	"ch_threads_queue\000"
 2318      68726561 
 2318      64735F71 
 2318      75657565 
 2318      00
 2319              	.LASF30:
 2320 00cd 705F7072 		.ascii	"p_prio\000"
 2320      696F00
 2321              	.LASF11:
 2322 00d4 6C6F6E67 		.ascii	"long long int\000"
 2322      206C6F6E 
 2322      6720696E 
 2322      7400
 2323              	.LASF1:
 2324 00e2 7369676E 		.ascii	"signed char\000"
 2324      65642063 
 2324      68617200 
 2325              	.LASF43:
 2326 00ee 705F6D70 		.ascii	"p_mpool\000"
 2326      6F6F6C00 
 2327              	.LASF97:
 2328 00f6 6D5F7175 		.ascii	"m_queue\000"
 2328      65756500 
ARM GAS  /tmp/ccpJRJbB.s 			page 58


 2329              	.LASF75:
 2330 00fe 76746C69 		.ascii	"vtlist\000"
 2330      737400
 2331              	.LASF103:
 2332 0105 706F7274 		.ascii	"port_unlock\000"
 2332      5F756E6C 
 2332      6F636B00 
 2333              	.LASF121:
 2334 0111 6368436F 		.ascii	"chCoreGetStatusX\000"
 2334      72654765 
 2334      74537461 
 2334      74757358 
 2334      00
 2335              	.LASF88:
 2336 0122 77747472 		.ascii	"wttrp\000"
 2336      7000
 2337              	.LASF73:
 2338 0128 63685F73 		.ascii	"ch_system\000"
 2338      79737465 
 2338      6D00
 2339              	.LASF8:
 2340 0132 6C6F6E67 		.ascii	"long int\000"
 2340      20696E74 
 2340      00
 2341              	.LASF20:
 2342 013b 74737461 		.ascii	"tstate_t\000"
 2342      74655F74 
 2342      00
 2343              	.LASF32:
 2344 0144 705F6E65 		.ascii	"p_newer\000"
 2344      77657200 
 2345              	.LASF94:
 2346 014c 735F7175 		.ascii	"s_queue\000"
 2346      65756500 
 2347              	.LASF118:
 2348 0154 6368436F 		.ascii	"chCoreAllocI\000"
 2348      7265416C 
 2348      6C6F6349 
 2348      00
 2349              	.LASF55:
 2350 0161 725F6E65 		.ascii	"r_newer\000"
 2350      77657200 
 2351              	.LASF79:
 2352 0169 72656761 		.ascii	"regarm_t\000"
 2352      726D5F74 
 2352      00
 2353              	.LASF62:
 2354 0172 76745F70 		.ascii	"vt_prev\000"
 2354      72657600 
 2355              	.LASF101:
 2356 017a 6D757465 		.ascii	"mutex_t\000"
 2356      785F7400 
 2357              	.LASF105:
 2358 0182 76616C75 		.ascii	"value\000"
 2358      6500
 2359              	.LASF77:
 2360 0188 69646C65 		.ascii	"idle_thread_wa\000"
ARM GAS  /tmp/ccpJRJbB.s 			page 59


 2360      5F746872 
 2360      6561645F 
 2360      776100
 2361              	.LASF25:
 2362 0197 636E745F 		.ascii	"cnt_t\000"
 2362      7400
 2363              	.LASF0:
 2364 019d 756E7369 		.ascii	"unsigned int\000"
 2364      676E6564 
 2364      20696E74 
 2364      00
 2365              	.LASF61:
 2366 01aa 76745F6E 		.ascii	"vt_next\000"
 2366      65787400 
 2367              	.LASF90:
 2368 01b2 77747365 		.ascii	"wtsemp\000"
 2368      6D7000
 2369              	.LASF39:
 2370 01b9 705F6D73 		.ascii	"p_msgqueue\000"
 2370      67717565 
 2370      756500
 2371              	.LASF95:
 2372 01c4 735F636E 		.ascii	"s_cnt\000"
 2372      7400
 2373              	.LASF6:
 2374 01ca 73686F72 		.ascii	"short unsigned int\000"
 2374      7420756E 
 2374      7369676E 
 2374      65642069 
 2374      6E7400
 2375              	.LASF46:
 2376 01dd 63685F74 		.ascii	"ch_thread\000"
 2376      68726561 
 2376      6400
 2377              	.LASF117:
 2378 01e7 2F6E6673 		.ascii	"/nfs/nfs4/home/jvgaeta/P442WifiTrailCounterProject/"
 2378      2F6E6673 
 2378      342F686F 
 2378      6D652F6A 
 2378      76676165 
 2379 021a 6D696C65 		.ascii	"milestone1\000"
 2379      73746F6E 
 2379      653100
 2380              	.LASF72:
 2381 0225 63685F73 		.ascii	"ch_system_t\000"
 2381      79737465 
 2381      6D5F7400 
 2382              	.LASF19:
 2383 0231 746D6F64 		.ascii	"tmode_t\000"
 2383      655F7400 
 2384              	.LASF51:
 2385 0239 63685F72 		.ascii	"ch_ready_list\000"
 2385      65616479 
 2385      5F6C6973 
 2385      7400
 2386              	.LASF24:
 2387 0247 6576656E 		.ascii	"eventmask_t\000"
ARM GAS  /tmp/ccpJRJbB.s 			page 60


 2387      746D6173 
 2387      6B5F7400 
 2388              	.LASF7:
 2389 0253 5F5F696E 		.ascii	"__int32_t\000"
 2389      7433325F 
 2389      7400
 2390              	.LASF80:
 2391 025d 73746B61 		.ascii	"stkalign_t\000"
 2391      6C69676E 
 2391      5F7400
 2392              	.LASF38:
 2393 0268 705F7761 		.ascii	"p_waiting\000"
 2393      6974696E 
 2393      6700
 2394              	.LASF78:
 2395 0272 73697A65 		.ascii	"sizetype\000"
 2395      74797065 
 2395      00
 2396              	.LASF116:
 2397 027b 2E2E2F43 		.ascii	"../ChibiOS/os/rt/src/chmemcore.c\000"
 2397      68696269 
 2397      4F532F6F 
 2397      732F7274 
 2397      2F737263 
 2398              	.LASF67:
 2399 029c 63685F76 		.ascii	"ch_virtual_timers_list\000"
 2399      69727475 
 2399      616C5F74 
 2399      696D6572 
 2399      735F6C69 
 2400              	.LASF68:
 2401 02b3 76745F6C 		.ascii	"vt_lasttime\000"
 2401      61737474 
 2401      696D6500 
 2402              	.LASF33:
 2403 02bf 705F6F6C 		.ascii	"p_older\000"
 2403      64657200 
 2404              	.LASF54:
 2405 02c7 725F6374 		.ascii	"r_ctx\000"
 2405      7800
 2406              	.LASF84:
 2407 02cd 746D5F63 		.ascii	"tm_calibration_t\000"
 2407      616C6962 
 2407      72617469 
 2407      6F6E5F74 
 2407      00
 2408              	.LASF57:
 2409 02de 725F6375 		.ascii	"r_current\000"
 2409      7272656E 
 2409      7400
 2410              	.LASF56:
 2411 02e8 725F6F6C 		.ascii	"r_older\000"
 2411      64657200 
 2412              	.LASF12:
 2413 02f0 5F5F7569 		.ascii	"__uint64_t\000"
 2413      6E743634 
 2413      5F7400
ARM GAS  /tmp/ccpJRJbB.s 			page 61


 2414              	.LASF21:
 2415 02fb 74726566 		.ascii	"trefs_t\000"
 2415      735F7400 
 2416              	.LASF59:
 2417 0303 76697274 		.ascii	"virtual_timer_t\000"
 2417      75616C5F 
 2417      74696D65 
 2417      725F7400 
 2418              	.LASF29:
 2419 0313 705F7072 		.ascii	"p_prev\000"
 2419      657600
 2420              	.LASF23:
 2421 031a 6D73675F 		.ascii	"msg_t\000"
 2421      7400
 2422              	.LASF22:
 2423 0320 74707269 		.ascii	"tprio_t\000"
 2423      6F5F7400 
 2424              	.LASF70:
 2425 0328 63685F73 		.ascii	"ch_system_debug\000"
 2425      79737465 
 2425      6D5F6465 
 2425      62756700 
 2426              	.LASF15:
 2427 0338 696E7433 		.ascii	"int32_t\000"
 2427      325F7400 
 2428              	.LASF4:
 2429 0340 756E7369 		.ascii	"unsigned char\000"
 2429      676E6564 
 2429      20636861 
 2429      7200
 2430              	.LASF119:
 2431 034e 5F636F72 		.ascii	"_core_init\000"
 2431      655F696E 
 2431      697400
 2432              	.LASF41:
 2433 0359 705F6D74 		.ascii	"p_mtxlist\000"
 2433      786C6973 
 2433      7400
 2434              	.LASF5:
 2435 0363 73686F72 		.ascii	"short int\000"
 2435      7420696E 
 2435      7400
 2436              	.LASF35:
 2437 036d 705F7374 		.ascii	"p_state\000"
 2437      61746500 
 2438              	.LASF111:
 2439 0375 5F5F6865 		.ascii	"__heap_end__\000"
 2439      61705F65 
 2439      6E645F5F 
 2439      00
 2440              	.LASF53:
 2441 0382 725F7072 		.ascii	"r_prio\000"
 2441      696F00
 2442              	.LASF92:
 2443 0389 65776D61 		.ascii	"ewmask\000"
 2443      736B00
 2444              	.LASF28:
ARM GAS  /tmp/ccpJRJbB.s 			page 62


 2445 0390 705F6E65 		.ascii	"p_next\000"
 2445      787400
 2446              	.LASF36:
 2447 0397 705F666C 		.ascii	"p_flags\000"
 2447      61677300 
 2448              	.LASF104:
 2449 039f 63685379 		.ascii	"chSysLock\000"
 2449      734C6F63 
 2449      6B00
 2450              	.LASF60:
 2451 03a9 63685F76 		.ascii	"ch_virtual_timer\000"
 2451      69727475 
 2451      616C5F74 
 2451      696D6572 
 2451      00
 2452              	.LASF93:
 2453 03ba 63685F73 		.ascii	"ch_semaphore\000"
 2453      656D6170 
 2453      686F7265 
 2453      00
 2454              	.LASF40:
 2455 03c7 705F6570 		.ascii	"p_epending\000"
 2455      656E6469 
 2455      6E6700
 2456              	.LASF16:
 2457 03d2 75696E74 		.ascii	"uint32_t\000"
 2457      33325F74 
 2457      00
 2458              	.LASF91:
 2459 03db 77746D74 		.ascii	"wtmtxp\000"
 2459      787000
 2460              	.LASF52:
 2461 03e2 725F7175 		.ascii	"r_queue\000"
 2461      65756500 
 2462              	.LASF63:
 2463 03ea 76745F64 		.ascii	"vt_delta\000"
 2463      656C7461 
 2463      00
 2464              	.LASF47:
 2465 03f3 63685F74 		.ascii	"ch_threads_list\000"
 2465      68726561 
 2465      64735F6C 
 2465      69737400 
 2466              	.LASF10:
 2467 0403 6C6F6E67 		.ascii	"long unsigned int\000"
 2467      20756E73 
 2467      69676E65 
 2467      6420696E 
 2467      7400
 2468              	.LASF100:
 2469 0415 63686172 		.ascii	"char\000"
 2469      00
 2470              	.LASF27:
 2471 041a 74687265 		.ascii	"thread_t\000"
 2471      61645F74 
 2471      00
 2472              	.LASF112:
ARM GAS  /tmp/ccpJRJbB.s 			page 63


 2473 0423 6E657874 		.ascii	"nextmem\000"
 2473      6D656D00 
 2474              	.LASF99:
 2475 042b 6D5F6E65 		.ascii	"m_next\000"
 2475      787400
 2476              	.LASF26:
 2477 0432 73797374 		.ascii	"systime_t\000"
 2477      696D655F 
 2477      7400
 2478              	.LASF42:
 2479 043c 705F7265 		.ascii	"p_realprio\000"
 2479      616C7072 
 2479      696F00
 2480              	.LASF58:
 2481 0447 76746675 		.ascii	"vtfunc_t\000"
 2481      6E635F74 
 2481      00
 2482              	.LASF9:
 2483 0450 5F5F7569 		.ascii	"__uint32_t\000"
 2483      6E743332 
 2483      5F7400
 2484              	.LASF107:
 2485 045b 5F5F7365 		.ascii	"__set_BASEPRI\000"
 2485      745F4241 
 2485      53455052 
 2485      4900
 2486              	.LASF71:
 2487 0469 70616E69 		.ascii	"panic_msg\000"
 2487      635F6D73 
 2487      6700
 2488              	.LASF83:
 2489 0473 6F666673 		.ascii	"offset\000"
 2489      657400
 2490              	.LASF109:
 2491 047a 5F5F6675 		.ascii	"__func__.5700\000"
 2491      6E635F5F 
 2491      2E353730 
 2491      3000
 2492              	.LASF81:
 2493 0488 636F6E74 		.ascii	"context\000"
 2493      65787400 
 2494              	.LASF18:
 2495 0490 7274636E 		.ascii	"rtcnt_t\000"
 2495      745F7400 
 2496              	.LASF65:
 2497 0498 76745F70 		.ascii	"vt_par\000"
 2497      617200
 2498              	.LASF110:
 2499 049f 5F5F6865 		.ascii	"__heap_base__\000"
 2499      61705F62 
 2499      6173655F 
 2499      5F00
 2500              	.LASF48:
 2501 04ad 74687265 		.ascii	"threads_queue_t\000"
 2501      6164735F 
 2501      71756575 
 2501      655F7400 
ARM GAS  /tmp/ccpJRJbB.s 			page 64


 2502              	.LASF96:
 2503 04bd 63685F6D 		.ascii	"ch_mutex\000"
 2503      75746578 
 2503      00
 2504              	.LASF37:
 2505 04c6 705F7265 		.ascii	"p_refs\000"
 2505      667300
 2506              	.LASF74:
 2507 04cd 726C6973 		.ascii	"rlist\000"
 2507      7400
 2508              	.LASF14:
 2509 04d3 75696E74 		.ascii	"uint8_t\000"
 2509      385F7400 
 2510              	.LASF44:
 2511 04db 74687265 		.ascii	"thread_reference_t\000"
 2511      61645F72 
 2511      65666572 
 2511      656E6365 
 2511      5F7400
 2512              	.LASF115:
 2513 04ee 474E5520 		.ascii	"GNU C 4.8.4 20140526 (release) [ARM/embedded-4_8-br"
 2513      4320342E 
 2513      382E3420 
 2513      32303134 
 2513      30353236 
 2514 0521 616E6368 		.ascii	"anch revision 211358] -mcpu=cortex-m4 -mno-thumb-in"
 2514      20726576 
 2514      6973696F 
 2514      6E203231 
 2514      31333538 
 2515 0554 74657277 		.ascii	"terwork -mthumb -ggdb -O2 -fomit-frame-pointer -fal"
 2515      6F726B20 
 2515      2D6D7468 
 2515      756D6220 
 2515      2D676764 
 2516 0587 69676E2D 		.ascii	"ign-functions=16 -ffunction-sections -fdata-section"
 2516      66756E63 
 2516      74696F6E 
 2516      733D3136 
 2516      202D6666 
 2517 05ba 73202D66 		.ascii	"s -fno-common -flto\000"
 2517      6E6F2D63 
 2517      6F6D6D6F 
 2517      6E202D66 
 2517      6C746F00 
 2518              	.LASF87:
 2519 05ce 77746F62 		.ascii	"wtobjp\000"
 2519      6A7000
 2520              	.LASF34:
 2521 05d5 705F6E61 		.ascii	"p_name\000"
 2521      6D6500
 2522              	.LASF106:
 2523 05dc 73697A65 		.ascii	"size\000"
 2523      00
 2524              	.LASF45:
 2525 05e1 74687265 		.ascii	"threads_list_t\000"
 2525      6164735F 
ARM GAS  /tmp/ccpJRJbB.s 			page 65


 2525      6C697374 
 2525      5F7400
 2526              	.LASF108:
 2527 05f0 63685379 		.ascii	"chSysUnlock\000"
 2527      73556E6C 
 2527      6F636B00 
 2528              	.LASF98:
 2529 05fc 6D5F6F77 		.ascii	"m_owner\000"
 2529      6E657200 
 2530              	.LASF31:
 2531 0604 705F6374 		.ascii	"p_ctx\000"
 2531      7800
 2532              	.LASF64:
 2533 060a 76745F66 		.ascii	"vt_func\000"
 2533      756E6300 
 2534              		.comm	__gnu_lto_v1,1,1
 2535              		.ident	"GCC: (GNU Tools for ARM Embedded Processors) 4.8.4 20140526 (release) [ARM/embedded-4_8-br
ARM GAS  /tmp/ccpJRJbB.s 			page 66


DEFINED SYMBOLS
                            *ABS*:00000000 chmemcore.c
     /tmp/ccpJRJbB.s:275    .text._core_init:00000000 $t
     /tmp/ccpJRJbB.s:281    .text._core_init:00000000 _core_init
     /tmp/ccpJRJbB.s:309    .text._core_init:00000018 $d
     /tmp/ccpJRJbB.s:317    .text.chCoreAlloc:00000000 $t
     /tmp/ccpJRJbB.s:323    .text.chCoreAlloc:00000000 chCoreAlloc
     /tmp/ccpJRJbB.s:397    .text.chCoreAlloc:0000002c $d
     /tmp/ccpJRJbB.s:403    .text.chCoreAllocI:00000000 $t
     /tmp/ccpJRJbB.s:409    .text.chCoreAllocI:00000000 chCoreAllocI
     /tmp/ccpJRJbB.s:445    .text.chCoreAllocI:00000020 $d
     /tmp/ccpJRJbB.s:451    .text.chCoreGetStatusX:00000000 $t
     /tmp/ccpJRJbB.s:457    .text.chCoreGetStatusX:00000000 chCoreGetStatusX
     /tmp/ccpJRJbB.s:475    .text.chCoreGetStatusX:0000000c $d
     /tmp/ccpJRJbB.s:481    .bss.endmem:00000000 $d
     /tmp/ccpJRJbB.s:485    .bss.endmem:00000000 endmem
     /tmp/ccpJRJbB.s:488    .bss.nextmem:00000000 $d
     /tmp/ccpJRJbB.s:492    .bss.nextmem:00000000 nextmem
                            *COM*:00000001 __gnu_lto_v1
                     .debug_frame:00000010 $d
     /tmp/ccpJRJbB.s:316    .text._core_init:00000028 $t
     /tmp/ccpJRJbB.s:402    .text.chCoreAlloc:00000034 $t
     /tmp/ccpJRJbB.s:450    .text.chCoreAllocI:00000028 $t
     /tmp/ccpJRJbB.s:480    .text.chCoreGetStatusX:00000014 $t

UNDEFINED SYMBOLS
__heap_base__
__heap_end__
