ARM GAS  /tmp/ccFBZKBa.s 			page 1


   1              		.syntax unified
   2              		.cpu cortex-m4
   3              		.fpu softvfp
   4              		.eabi_attribute 20, 1
   5              		.eabi_attribute 21, 1
   6              		.eabi_attribute 23, 3
   7              		.eabi_attribute 24, 1
   8              		.eabi_attribute 25, 1
   9              		.eabi_attribute 26, 1
  10              		.eabi_attribute 30, 6
  11              		.eabi_attribute 34, 1
  12              		.eabi_attribute 18, 4
  13              		.thumb
  14              		.file	"chmempools.c"
  15              		.text
  16              	.Ltext0:
  17              		.section	.gnu.lto_.inline.2741d1f968d67b18,"",%progbits
  18 0000 789C6362 		.ascii	"x\234cb`b\300\012\030!\0247\003\003\0133\003\003\023"
  18      6062C00A 
  18      18211437 
  18      03030B33 
  18      030313
  19 0013 CB073D06 		.ascii	"\313\007=\006\026\210ZF\014\021&\006\026\036 \311\264"
  19      16885A46 
  19      0C112606 
  19      161E20C9 
  19      B4
  20 0024 401EAE86 		.ascii	"@\036\256\206\013H0c\027fa`c\005\012sL\360\203\011\263"
  20      0B483063 
  20      17666160 
  20      63050A73 
  20      4CF08309 
  21 0039 3208CB01 		.ascii	"2\010\313\001E$&\234f\204\013\011\002\0116\006\016%"
  21      4524269C 
  21      66840B09 
  21      02093606 
  21      0E25
  22 004b 6CE6F2C0 		.ascii	"l\346\362\300X\354\030Fq\020\322\302\311\300\306\207"
  22      58EC1846 
  22      7110D2C2 
  22      C9C0C687 
  23 005b AA002CC7 		.ascii	"\252\000,\307\305\300-\014\024\346\331\220\213\"\314"
  23      C5C02D0C 
  23      14E6D990 
  23      8B22CC
  24 006a 0000C629 		.ascii	"\000\000\306)\014\241"
  24      0CA1
  25              		.text
  26              		.section	.gnu.lto_port_lock.2741d1f968d67b18,"",%progbits
  27 0000 789C6362 		.ascii	"x\234cb`b@\007\"@,\310\310\300P\007\342030\002U021\002"
  27      60624007 
  27      22402CC8 
  27      C8C05007 
  27      E2303330 
  28 001a 05181819 		.ascii	"\005\030\030\031\352\231\030\353#AL\006F%\206\205\015"
  28      EA9918EB 
  28      23414C06 
ARM GAS  /tmp/ccFBZKBa.s 			page 2


  28      46258685 
  28      0D
  29 002b 0D931EB4 		.ascii	"\015\223\036\264>{\3144\263\341@\313\202\206?\377\377"
  29      3E7BCC34 
  29      B3E140CB 
  29      82863FFF 
  29      FF
  30 003c 33326632 		.ascii	"32f2\002M\324cdHfd\210\000r\030\025\300\024\023\013"
  30      024DD463 
  30      64486664 
  30      88007218 
  30      15C01413 
  31 0051 AA15EB99 		.ascii	"\252\025\353\231\016<\370\377\377D\347\363\275@\223"
  31      0E3CF8FF 
  31      FF44E7F3 
  31      BD4093
  32 0060 19121917 		.ascii	"\031\022\031\027\002M\003\002V\206\226\206\206\011\012"
  32      024D0302 
  32      56869686 
  32      86090A
  33 006f 0C20DD40 		.ascii	"\014 \335@\020\002&CA\016`>\313\320\264\003H\24732\202"
  33      10022643 
  33      410E603E 
  33      CBD0B403 
  33      48A73332 
  34 0084 CC6300AA 		.ascii	"\314c\000\252a8\307\320\364\361\315\214\307\022p]`F"
  34      6138C7D0 
  34      F4F1CD8C 
  34      C712705D 
  34      6046
  35 0096 C381EE2B 		.ascii	"\303\201\356+\355\2540#\023\031\0273\262\002\215\203"
  35      EDAC3023 
  35      13191733 
  35      B2028D83 
  36 00a6 38190893 		.ascii	"8\031\010\223\231A>f\206x[\216\241dn\303\014\207LFf"
  36      99413E66 
  36      86785B8E 
  36      A1646EC3 
  36      0C874C46 
  37 00bb 102F1DAC 		.ascii	"\020/\035\254\012.U\016\221\202\272\374\"C\343\203\235"
  37      0A2E550E 
  37      9182BAFC 
  37      2243E383 
  37      9D
  38 00cc FA10E360 		.ascii	"\372\020\343` \004\244\001\244Z[OO\3379#3)\323?X?\277"
  38      2004A401 
  38      A45A5B4F 
  38      4FDF3923 
  38      3329D33F 
  39 00e3 58BFA844 		.ascii	"X\277\250D\277 \277\250\244X\3371\310\327\331\267B?"
  39      BF20BFA8 
  39      A458DF31 
  39      C8D7D9B7 
  39      423F
  40 00f5 392339BF 		.ascii	"9#9\277(5\276\314<W/\203\201\265,1\2474U\017UGjE\211"
  40      2835BECC 
  40      3C572F83 
ARM GAS  /tmp/ccFBZKBa.s 			page 3


  40      81B52C31 
  40      A734550F 
  41 010e BEB36FB0 		.ascii	"\276\263o\260g\260~f^rNiJ\252>XGr\256[i^2P\223\200o"
  41      67B07E66 
  41      5E724E69 
  41      4AAA3E58 
  41      4772AE5B 
  42 0129 70904252 		.ascii	"p\220BRbqjAQ\246\216\202\252\001\003S\021\003{njn~Q"
  42      62716A41 
  42      51A68E82 
  42      AA010353 
  42      11037B6E 
  43 0141 2503005A 		.ascii	"%\003\000Z\240au"
  43      A06175
  44              		.text
  45              		.section	.gnu.lto_port_unlock.2741d1f968d67b18,"",%progbits
  46 0000 789C6362 		.ascii	"x\234cb`b@\007\"@,\310\310\300P\007\342030\002U021\002"
  46      60624007 
  46      22402CC8 
  46      C8C05007 
  46      E2303330 
  47 001a 05181819 		.ascii	"\005\030\030\031\352\231\030\353#AL\006F%\206\205\015"
  47      EA9918EB 
  47      23414C06 
  47      46258685 
  47      0D
  48 002b 0D931EB4 		.ascii	"\015\223\036\264~z\3144\263\341@\313\202\206?\377\377"
  48      7E7ACC34 
  48      B3E140CB 
  48      82863FFF 
  48      FF
  49 003c 33326632 		.ascii	"32f2\002M\324cdHfd\210\000r\030\025\300\024\023\013"
  49      024DD463 
  49      64486664 
  49      88007218 
  49      15C01413 
  50 0051 AA15EB99 		.ascii	"\252\025\353\231\016<\370\377\377E\347\376}@\223\031"
  50      0E3CF8FF 
  50      FF45E7FE 
  50      7D409319 
  51 0061 12191702 		.ascii	"\022\031\027\002M\003\002V\206\226\206\206\011\012\014"
  51      4D030256 
  51      86968686 
  51      090A0C
  52 0070 20DD4010 		.ascii	" \335@\020\002&CA\016`>\313\320\264\003H\24732\202\314"
  52      02264341 
  52      0E603ECB 
  52      D0B40348 
  52      A7333282 
  53 0085 031B728E 		.ascii	"\003\033r\216\241\351\343\233\031\217%\340\272\300\214"
  53      A1E9E39B 
  53      198F25E0 
  53      BAC08C
  54 0094 8603A79F 		.ascii	"\206\003\247\237\266\263\302\214Ld\\\314\310\0124\016"
  54      B6B3C28C 
  54      4C645CCC 
  54      C80A340E 
ARM GAS  /tmp/ccFBZKBa.s 			page 4


  55 00a4 E264204C 		.ascii	"\342d Lf\006\371\230\031\342m9\206\222\271\0153\034"
  55      6606F998 
  55      19E26D39 
  55      8692B90D 
  55      331C
  56 00b6 32199941 		.ascii	"2\031\231A\274t\260*\270T9D\012\352\362\213\014\215"
  56      BC74B02A 
  56      B8543944 
  56      0AEAF28B 
  56      0C8D
  57 00c8 0FCEEB43 		.ascii	"\017\316\353C\214\203\201\020\220\006\220jm==}\347\214"
  57      8C838110 
  57      9006906A 
  57      6D3D3D7D 
  57      E78C
  58 00da CCA44CFF 		.ascii	"\314\244L\377`\375\374b\375\242\022\375\202\374\242"
  58      60FDFC62 
  58      FDA212FD 
  58      82FCA2
  59 00e9 92627DC7 		.ascii	"\222b}\307 _g\337\012\375\344\214\344\374\242\324\370"
  59      205F67DF 
  59      0AFDE48C 
  59      E4FCA2D4 
  59      F8
  60 00fa 32F35CBD 		.ascii	"2\363\\\275\014\006\326\262\304\234\322T=T\035\251\025"
  60      0C06D6B2 
  60      C49CD254 
  60      3D541DA9 
  60      15
  61 010b 25FACEBE 		.ascii	"%\372\316\276\301\236\301\372\231y\3119\245)\251\372"
  61      C19EC1FA 
  61      9979C939 
  61      A529A9FA 
  62 011b 601DC9B9 		.ascii	"`\035\311\271n\245y\311@M\002\276\301A\012I\211\305"
  62      6EA579C9 
  62      404D02BE 
  62      C1410A49 
  62      89C5
  63 012d A9054599 		.ascii	"\251\005E\231:\012\252\006\014LE\014\354\271\251\271"
  63      3A0AAA06 
  63      0C4C450C 
  63      ECB9A9B9 
  64 013d F945950C 		.ascii	"\371E\225\014\000\233\025a\301"
  64      009B1561 
  64      C1
  65              		.text
  66              		.section	.gnu.lto_chSysLock.2741d1f968d67b18,"",%progbits
  67 0000 789C6362 		.ascii	"x\234cb`b@\007\"@\\\006\304\312 \0163\003#P\005#\023"
  67      60624007 
  67      22405C06 
  67      C4CA200E 
  67      33032350 
  68 0017 232390C3 		.ascii	"##\220\303\310P\317\304X\037\311\010V\266\236\351\300"
  68      C850CFC4 
  68      581FC908 
  68      56B69EE9 
  68      C0
ARM GAS  /tmp/ccFBZKBa.s 			page 5


  69 0028 83FFFFD7 		.ascii	"\203\377\377\327}\231\266\354\017\343m&\220\030+CKC"
  69      7D99B6EC 
  69      0FE36D26 
  69      90182B43 
  69      4B43
  70 003a C3040506 		.ascii	"\303\004\005\006\206d\260\212\0200\031\012\322\317|"
  70      8664B08A 
  70      1030190A 
  70      D2CF7C
  71 0049 9EA1F9C1 		.ascii	"\236\241\371\301\236n\366D\306\205\214\254@\301j\206"
  71      9E6EF644 
  71      C6858CAC 
  71      40C16A86 
  72 0059 5F0D1D0D 		.ascii	"_\015\035\015\002\231\214@\245\020\3232A\364E\206\306"
  72      02998C40 
  72      A510D332 
  72      41F44586 
  72      C6
  73 006a 07FBB561 		.ascii	"\007\373\265a\212  \004$\001r\244\242\236\236\276sF"
  73      8A202004 
  73      240172A4 
  73      A29E9EBE 
  73      7346
  74 007c 6652A67F 		.ascii	"fR\246\177\260~~\261~Q\211~f^rNiJ\252~rFqe\261^\006"
  74      B07E7EB1 
  74      7E51897E 
  74      665E724E 
  74      694AAA7E 
  75 0097 0300A9F5 		.ascii	"\003\000\251\365'\020"
  75      2710
  76              		.text
  77              		.section	.gnu.lto_chSysUnlock.2741d1f968d67b18,"",%progbits
  78 0000 789C6362 		.ascii	"x\234cb`b@\007\322@\334\301\310\300\240\014\342\260"
  78      60624007 
  78      D240DCC1 
  78      C8C0A00C 
  78      E2B0
  79 0012 30300255 		.ascii	"00\002U0212\003IfF\2400\003#C=\0233c}$\210\315\300\246"
  79      30323132 
  79      03496646 
  79      A0300323 
  79      433D1333 
  80 002d C4B0B0A1 		.ascii	"\304\260\260\241a\322\203\247\337gIv-h\232\320\360\357"
  80      61D283A7 
  80      DF674976 
  80      2D689AD0 
  80      F0EF
  81 003f FF7FC64C 		.ascii	"\377\177\306L\220T2#C\004\220\305\250\000\246\230XP"
  81      90543223 
  81      430490C5 
  81      A800A698 
  81      5850
  82 0051 2D81686B 		.ascii	"-\201hk\330\264\242\201sA\303\237\377\377\231\311\323"
  82      D8B4A281 
  82      7341C39F 
  82      FFFF99C9 
  82      D3
ARM GAS  /tmp/ccFBZKBa.s 			page 6


  83 0062 C33C58EC 		.ascii	"\303<X\354\311edX\317t\340\301\377\377ov\356|\364\206"
  83      C9656458 
  83      CF74E0C1 
  83      FFFF6F76 
  83      EE7CF486 
  84 0076 5114640B 		.ascii	"Q\024d\013+CKC\303\004\205\\\250\215@\020\002%\201A"
  84      2B434B43 
  84      C304855C 
  84      A88D4010 
  84      02258141 
  85 008a CA1C0A32 		.ascii	"\312\034\0122\224\371<C\363\203\327\247\331\023\031"
  85      94F93C43 
  85      F383D7A7 
  85      D91319
  86 0099 9731B202 		.ascii	"\2271\262\002\245\252\031~5t4\010d2\262$\203\303\232"
  86      A5AA197E 
  86      35743408 
  86      6432B224 
  86      83C39A
  87 00ac 81211324 		.ascii	"\201!\023$~\221\241\361\301\033m\230\"\010\010\001)"
  87      7E91A1F1 
  87      C11B6D98 
  87      22080801 
  87      29
  88 00bd 00C59EA2 		.ascii	"\000\305\236\242\236\236\276sFfR\246\177\260~~\261~"
  88      9E9EBE73 
  88      466652A6 
  88      7FB07E7E 
  88      B17E
  89 00cf 51897E66 		.ascii	"Q\211~f^rNiJ\252~rFqe\261^\006\003\000\341Gc\351"
  89      5E724E69 
  89      4AAA7E72 
  89      467165B1 
  89      5E060300 
  90              		.text
  91              		.section	.gnu.lto_chPoolObjectInit.2741d1f968d67b18,"",%progbits
  92 0000 789C6362 		.ascii	"x\234cb`b@\007\322@,\313\310\300\240\002\342\26000\002"
  92      60624007 
  92      D2402CCB 
  92      C8C0A002 
  92      E2B03030 
  93 0015 55303231 		.ascii	"U0212\003IfF\2400\003#C=\0233c}$\210\315\300\230\313"
  93      32034966 
  93      46A03003 
  93      23433D13 
  93      33637D24 
  94 002e C8B09EE9 		.ascii	"\310\260\236\351\300\203\377\377\327mk;\177\220q\225"
  94      C083FFFF 
  94      D76D6B3B 
  94      7F907195 
  95 003e 320B2350 		.ascii	"2\013#P\014\250!\227\021\250*\027\244\217\201\225\241"
  95      0CA82197 
  95      11A82A17 
  95      A48F8195 
  95      A1
  96 004f A5A16182 		.ascii	"\245\241a\202B.HG2X[\010\224\004\232\315\034\012R\303"
  96      422E4847 
ARM GAS  /tmp/ccFBZKBa.s 			page 7


  96      32585B08 
  96      94049ACD 
  96      1C0A52C3 
  97 0063 7C96A169 		.ascii	"|\226\241i\307\217\347?\030\023\031\0272\2622h3\254"
  97      C78FE73F 
  97      18131917 
  97      32B23268 
  97      33AC
  98 0075 6A0002EE 		.ascii	"j\000\002\356LF\206\331\014\263\0303\031\031\323\031"
  98      4C4686D9 
  98      0CB31833 
  98      1919D319 
  99 0085 19238034 		.ascii	"\031#\2004\304\271I\214\020\247\202D\300\014\240\356"
  99      C4B9498C 
  99      10A78244 
  99      C00CA0EE 
 100 0095 D3335E7D 		.ascii	"\3233^}`B\327\315\214]7DS:\210\017\322\271\343\325\015"
 100      6042D7CD 
 100      8C5D3744 
 100      533A880F 
 100      D2B9E3D5 
 101 00aa 0C9D2CD8 		.ascii	"\014\235,\330u2Au\002\235|\221\241\361\301*e\210>\030"
 101      75324175 
 101      029D7C91 
 101      A1F1C12A 
 101      65883E18 
 102 00be 0801190D 		.ascii	"\010\001\031\015R\243\244\247\247\357\234\221\231\224"
 102      52A3A4A7 
 102      A7EF9C91 
 102      9994
 103 00cc E91FAC9F 		.ascii	"\351\037\254\237_\254_T\242_\\\224\254\237\234\221\233"
 103      5FAC5F54 
 103      A25F5C94 
 103      AC9F9C91 
 103      9B
 104 00dd 9A5B909F 		.ascii	"\232[\220\237\237S\254\227\314\000\000k\372F\244"
 104      9F53AC97 
 104      CC00006B 
 104      FA46A4
 105              		.text
 106              		.section	.gnu.lto_chPoolAllocI.2741d1f968d67b18,"",%progbits
 107 0000 789C8D94 		.ascii	"x\234\215\224Mh\023Q\020\307g\336~&\005\003\336\342"
 107      4D681351 
 107      10C767DE 
 107      7E260503 
 107      DEE2
 108 0012 A9043C68 		.ascii	"\251\004<h!9\212'\017\336\274(\264\201z\263\211%YqI"
 108      21398A27 
 108      0FDEBC28 
 108      B4817AB3 
 108      89255971 
 109 0027 69BC4ADE 		.ascii	"i\274J\336\226=H\0104\212`Z/mEE/\352\315\203\320\365"
 109      963D4808 
 109      348A605A 
 109      2F6D4545 
 109      2FEACD83 
 110 003d 645315ED 		.ascii	"dS\025\355M=\005\361\"\364P\361\240\007\3659\263\037"
ARM GAS  /tmp/ccFBZKBa.s 			page 8


 110      4D3D05F1 
 110      22F450F1 
 110      A007F539 
 110      B31F
 111 004f 49FC80EC 		.ascii	"I\374\200\354\203\314\333\235\235\337\314\177f\337F"
 111      83CCDB9D 
 111      9DDFCC7F 
 111      66DF46
 112 005e 8080BFD7 		.ascii	"\200\200\277\327\031\372\315\352\000\307\370&\003H\021"
 112      19FACDEA 
 112      00C7F826 
 112      034811
 113 006d 285023AB 		.ascii	"(P#\253\011rKa\220\321u\264\310c\010\223=\026{\314\320"
 113      09724B61 
 113      90D175B4 
 113      C8630893 
 113      3D167BCC 
 114 0082 63A14DD6 		.ascii	"c\241M\326F$\030\241%4\3350-\033[\347\331\001v\0016"
 114      462418A1 
 114      2534DD30 
 114      2D1B5BE7 
 114      D9017601 
 115 0097 A5BC31B8 		.ascii	"\245\2741\270\273\365Y\254\335\014\374\015\371C)D\207"
 115      BBF559AC 
 115      DD0CFC0D 
 115      F9432944 
 115      87
 116 00a8 1F5611E6 		.ascii	"\037V\021\346\351\012\247\303\215K\215\257\010\224?"
 116      E90AA7C3 
 116      8D4B8DAF 
 116      08943F
 117 00b7 3F9DDB91 		.ascii	"?\235\333\221~\240\324\251\324Lp\253\275\232oo\254t"
 117      7EA0D4A9 
 117      D44C70AB 
 117      BD9A6F6F 
 117      AC74
 118 00c9 E52FAAE5 		.ascii	"\345/\252\345p'\251\260\336n'\333\365\256I\245Z\251"
 118      7027A9B0 
 118      DE6E27DB 
 118      F5AE49A5 
 118      5AA9
 119 00db 21F96D4C 		.ascii	"!\371mL\237\236\212Y\017\236\354\3667\221X\357@\251"
 119      9F9E8A59 
 119      0F9EECF6 
 119      379158EF 
 119      40A9
 120 00ed 9C83464A 		.ascii	"\234\203FJ}__t\362r\324\226!\340(N ]\204G\"\030(\325"
 120      7D5F5F74 
 120      F272D496 
 120      21E0284E 
 120      205D8447 
 121 0105 D97EF671 		.ascii	"\331~\366q\015\017O!,\340},\200@\027\251\307\350F\007"
 121      0D0F4F21 
 121      2CE07D2C 
 121      804017A9 
 121      C7E84607 
 122 0119 9AADC1C6 		.ascii	"\232\255\301\306$\243Yll2z&\016\310B\250\222b|)\273"
ARM GAS  /tmp/ccFBZKBa.s 			page 9


 122      24A3596C 
 122      6C327A26 
 122      0EC842A8 
 122      92627C29 
 123 012e D391D38D 		.ascii	"\323\221\323\215\337\007\255\271\330\322\311\321\312"
 123      DF07ADB9 
 123      D8D2C9D1 
 123      CA
 124 013b 3C3AED35 		.ascii	"<:\3555\254|x\247\002\\\300\007D\326P\233\201\207\222"
 124      AC7C78A7 
 124      025CC007 
 124      44D6509B 
 124      818792
 125 014e D6492A72 		.ascii	"\326I*r\033\326I\252YC\301\222\255Ph\005\023\311;\340"
 125      1BD649AA 
 125      5943C192 
 125      AD506805 
 125      13C93BE0 
 126 0162 EF3FBFDE 		.ascii	"\357?\277\336\326\206$\007\031\343M\225y\320a\205\247"
 126      D6862407 
 126      19E34D95 
 126      79D06185 
 126      A7
 127 0173 74AA9238 		.ascii	"t\252\2228}\006\216OL\316\320\333\\\202\030\343\210"
 127      7D068E4F 
 127      4CCED0DB 
 127      5C8218E3 
 127      88
 128 0184 4D29E6A3 		.ascii	"M)\346\243\203\031\"8B\372\217\263\021\0227\221\233"
 128      83192238 
 128      42FA8FB3 
 128      11123791 
 128      9B
 129 0195 50A796E8 		.ascii	"P\247\226\350-\363E\250\364\373\326\227\341,\314\260"
 129      2DF345A8 
 129      F4FBD697 
 129      E12CCCB0 
 130 01a5 6CE6FF19 		.ascii	"l\346\377\031\222\317\223\307\340\235\030\"\034\222"
 130      92CF93C7 
 130      E09D1822 
 130      1C92
 131 01b3 F9730866 		.ascii	"\371s\010f\234\272wg\224\332J\223\232\241\203C\011b"
 131      9CBA7767 
 131      94DA4A93 
 131      9AA18343 
 131      0962
 132 01c5 87489610 		.ascii	"\207H\226\020\217Z\273\372/\246\305\330\033\360\203"
 132      8F5ABBFA 
 132      2FA6C5D8 
 132      1BF083
 133 01d4 230995A9 		.ascii	"#\011\225\251\361s\242\035\234J\004Y\221\240~\357^>"
 133      F173A21D 
 133      9C4A0459 
 133      91A07EEF 
 133      5E3E
 134 01e6 09CBD6A2 		.ascii	"\011\313\326\2429\276\007\2447\251\357o_\240-\344\315"
 134      39BE07A4 
ARM GAS  /tmp/ccFBZKBa.s 			page 10


 134      37A9EF6F 
 134      5FA02DE4 
 134      CD
 135 01f7 577B7586 		.ascii	"W{u\206\350\317C{\011\036m\027Y\340\036x\203\336\342"
 135      E8CF437B 
 135      091E6D17 
 135      59E01E78 
 135      83DEE2
 136 020a 108F52CF 		.ascii	"\020\217R\317q\022V_(\026K\247\353N\3059;[j4K\313WJ"
 136      7112565F 
 136      28164BA7 
 136      EB4EC539 
 136      3B5B6A34 
 137 0222 CDE56AA9 		.ascii	"\315\345j\251Zw\027\335\245F\343r\263X\005\275Q\271"
 137      5A7717DD 
 137      A546E372 
 137      B35805BD 
 137      51B9
 138 0234 B4F41BE2 		.ascii	"\264\364\033\342_\360v"
 138      5FF076
 139              		.text
 140              		.section	.gnu.lto_chPoolAlloc.2741d1f968d67b18,"",%progbits
 141 0000 789C6362 		.ascii	"x\234cb`b@\007\322@\\\306\310\300\240\011\342\26000"
 141      60624007 
 141      D2405CC6 
 141      C8C0A009 
 141      E2B03030 
 142 0014 02553032 		.ascii	"\002U0212\003IfF\2400\003#C=\0233c}$\210\315\300\244"
 142      31320349 
 142      6646A030 
 142      0323433D 
 142      1333637D 
 143 002d C4B0B0A1 		.ascii	"\304\260\260\241a\326\203\326\3653%\273\0264Mh\370\367"
 143      61D683D6 
 143      F53325BB 
 143      16344D68 
 143      F8F7
 144 003f FF3F6326 		.ascii	"\377?c&H*\231\221!\002\310bT\000SL,\250\226\200\265"
 144      482A9991 
 144      2102C862 
 144      5400534C 
 144      2CA89680 
 145 0054 4D3A70F7 		.ascii	"M:p\367T\217d\003\2226&\006UF\002:\3273\035x\360\377"
 145      548F6403 
 145      92362606 
 145      5546023A 
 145      D7331D78 
 146 006a FF9DAB3B 		.ascii	"\377\235\253;\036\355e\024bad\314\005\351Jd\\\304\250"
 146      1EED6514 
 146      626164CC 
 146      05E94A64 
 146      5CC4A8
 147 007d C4C0CC00 		.ascii	"\304\300\314\000\266\231\201\225\241\245\241a\202\002"
 147      B6998195 
 147      A1A5A161 
 147      8202
 148 008b 4410EC12 		.ascii	"D\020\354\022 \010\001\223\241 \3570\237gh~\260\243"
ARM GAS  /tmp/ccFBZKBa.s 			page 11


 148      20080193 
 148      A120EF30 
 148      9F67687E 
 148      B0A3
 149 009d 953D9171 		.ascii	"\225=\221q\011#+P\260\232\341WCG\203@&#s2\330\207\014"
 149      09232B50 
 149      B09AE157 
 149      43478340 
 149      26237332 
 150 00b4 407380B6 		.ascii	"@s\200\266\236ghy\260\263\225\015\242*\235\221\011\256"
 150      9E676879 
 150      B0B3950D 
 150      A22A9D91 
 150      09AE
 151 00c6 8C359911 		.ascii	"\2145\231\021\022l\351\214@\007\262\201T6?\330u\024"
 151      126CE98C 
 151      4007B281 
 151      54363FD8 
 151      7514
 152 00d8 AB79CC08 		.ascii	"\253y\314\010\363\31624\235\234\261^\022f\036s:\324"
 152      F3CE3234 
 152      9D9CB15E 
 152      12661E73 
 152      3AD4
 153 00ea 14A0A380 		.ascii	"\024\240\243\200\252\230O34r00\244\200\\p\221\201\021"
 153      AA984F33 
 153      34723030 
 153      A4805C70 
 153      918111
 154 00fd AE0AA224 		.ascii	"\256\012\242$\004$\014R\256\244\247\247\357\234\221"
 154      04240C52 
 154      AEA4A7A7 
 154      EF9C91
 155 010c 9994E91F 		.ascii	"\231\224\351\037\254\237_\254_T\242_\\\224\254\237\234"
 155      AC9F5FAC 
 155      5F54A25F 
 155      5C94AC9F 
 155      9C
 156 011d 919B9A5B 		.ascii	"\221\233\232[\220\237\237S\254\227\314\300\222\237\224"
 156      909F9F53 
 156      AC97CCC0 
 156      929F94
 157 012c 550000AA 		.ascii	"U\000\000\252\270_2"
 157      B85F32
 158              		.text
 159              		.section	.gnu.lto_chPoolFreeI.2741d1f968d67b18,"",%progbits
 160 0000 789C8591 		.ascii	"x\234\205\221\277J\303P\024\306\317wo\263(.n\342R\012"
 160      BF4AC350 
 160      14C6CF77 
 160      6FB3282E 
 160      6EE2520A 
 161 0014 05B1903C 		.ascii	"\005\261\220<\204\017\340`\205:\266A\322\202!\241q\357"
 161      840FE060 
 161      853AB641 
 161      D28221A1 
 161      71EF
 162 0026 B5F40182 		.ascii	"\265\364\001\202\010\376[\252\324E\004G\2658t\225\342"
ARM GAS  /tmp/ccFBZKBa.s 			page 12


 162      08FE5BAA 
 162      D4450447 
 162      B5387495 
 162      E2
 163 0037 E026BA44 		.ascii	"\340&\272D\034\373\004\0051\236\233k\204\272\364@n\316"
 163      1CFB0405 
 163      319E9B6B 
 163      84BAF440 
 163      6ECE
 164 0049 BD5F7EE7 		.ascii	"\275_~\347|\347F\220\240\377\261\312\317\015\210\326"
 164      7CE74690 
 164      A0FFB1CA 
 164      CF0D88D6 
 165 0059 F4A640E0 		.ascii	"\364\246@\340/  y\225\340c\002u\204DgG\347$Kt\241\324"
 165      2F202079 
 165      95E06302 
 165      75844467 
 165      47E7244B 
 166 0070 617235FC 		.ascii	"ar5\374\020\247G\243^_}\245)\320\322\242\013\252q\206"
 166      10A747A3 
 166      5E5F7DA5 
 166      29D0D2A2 
 166      0BAA7186 
 167 0084 62F61285 		.ascii	"b\366\022\205\3316\006\034=\214\217WT\277\033\253o\346"
 167      D936061C 
 167      3D8C8F57 
 167      54BF1BAB 
 167      6FE6
 168 0096 181354C6 		.ascii	"\030\023T\306\034\322\007\335\212Q\222\246\217\357\203"
 168      1CD207DD 
 168      8A5192A6 
 168      8FEF83
 169 00a5 CF09962D 		.ascii	"\317\011\226-\300\007\333\254\343\022%\222\274a\"s@"
 169      C007DBAC 
 169      E3122592 
 169      BC612273 
 169      40
 170 00b6 16F5948A 		.ascii	"\026\365\224\212\213F\361\177MqT\263u[\317&\237\251"
 170      8B46F17F 
 170      4D7154B3 
 170      755BCF26 
 170      9FA9
 171 00c8 3B3EB99B 		.ascii	";>\271\233\212:\006\260\310\203\360\26213]\032\375\355"
 171      8A3A06B0 
 171      C883F0B2 
 171      31335D1A 
 171      FDED
 172 00da 9EC7CBF5 		.ascii	"\236\307\313\365B\205\326\271\3729\235\2617\351Aj\217"
 172      4285D6B9 
 172      FA399DB1 
 172      37E9416A 
 172      8F
 173 00eb C66203B9 		.ascii	"\306b\003\271G\206\236\342\005\203T\350Zq,\375A\026"
 173      47869EE2 
 173      058354E8 
 173      5A712CFD 
 173      4116
ARM GAS  /tmp/ccFBZKBa.s 			page 13


 174 00fd 37A9993B 		.ascii	"7\251\231;\312 \223x\272\210\346^\207S\314\220\213s"
 174      CA209378 
 174      BA88E65E 
 174      8753CC90 
 174      8B73
 175 010f DA797A8E 		.ascii	"\332yz\216\027:H&e\303\345Q\325\245\365\037.\331\266"
 175      173A4826 
 175      65C3E551 
 175      D5A5F51F 
 175      2ED9B6
 176 0122 B3D16C35 		.ascii	"\263\321l5Z\233[N\0209\355}'j\273\216\333\364w\3750"
 176      5A9B5B4E 
 176      1039ED7D 
 176      276ABB8E 
 176      DBF477FD 
 177 0137 08F622DB 		.ascii	"\010\366\"\333%\0316\303\037\232\305hH"
 177      251936C3 
 177      1F9AC568 
 177      48
 178              		.text
 179              		.section	.gnu.lto_chPoolFree.2741d1f968d67b18,"",%progbits
 180 0000 789C6362 		.ascii	"x\234cb`b@\007\"@|\021\210U@\034f\006F\240\012F&FF "
 180      60624007 
 180      22407C11 
 180      8855401C 
 180      660646A0 
 181 001a 8791A19E 		.ascii	"\207\221\241\236\211\261>\222\021\254l=\323\201\007"
 181      89B13E92 
 181      11AC6C3D 
 181      D38107
 182 0029 FFFFAF9B 		.ascii	"\377\377\257\233\324\267\345\015\343\016&fF\306\\F\006"
 182      D4B7E50D 
 182      E30E2666 
 182      46C65C46 
 182      06
 183 003a 26200192 		.ascii	"& \001\222eehih\230\240\300\300\220\014V\033\002&CA"
 183      65656869 
 183      6898A0C0 
 183      C0900C56 
 183      1B022643 
 184 004f 26319F67 		.ascii	"&1\237gh~\320\335\316\236\310\270\220\221\025(X\315"
 184      687ED0DD 
 184      CE9EC8B8 
 184      90911528 
 184      58CD
 185 0061 F0ABA1A3 		.ascii	"\360\253\241\243A \223\021\250\024bn&\210>\317\320\372"
 185      41209311 
 185      A814626E 
 185      26883ECF 
 185      D0FA
 186 0073 A0E738A6 		.ascii	"\240\3478\246*\246dF\210\203\323\031\031\323\031\231"
 186      2AA66446 
 186      8883D319 
 186      19D31999 
 187 0083 32199941 		.ascii	"2\031\231Aj\233\027\364b5\220\031a\340E\206\306\007"
 187      6A9B17F4 
 187      62359019 
ARM GAS  /tmp/ccFBZKBa.s 			page 14


 187      61E04586 
 187      C607
 188 0095 7DEA3045 		.ascii	"}\3520E\020\020\002\222\000\031\247\244\247\247\357"
 188      10100292 
 188      0019A7A4 
 188      A7A7EF
 189 00a4 9C919994 		.ascii	"\234\221\231\224\351\037\254\237_\254_T\242_\\\224\254"
 189      E91FAC9F 
 189      5FAC5F54 
 189      A25F5C94 
 189      AC
 190 00b5 9F9C919B 		.ascii	"\237\234\221\233\232[\220\237\237S\254\227\314\000\000"
 190      9A5B909F 
 190      9F53AC97 
 190      CC0000
 191 00c4 BF1C3952 		.ascii	"\277\0349R"
 192              		.text
 193              		.section	.gnu.lto_chPoolAdd.2741d1f968d67b18,"",%progbits
 194 0000 789C6362 		.ascii	"x\234cb`b@\007\"@\334\006\304\032 \0163\003#P\005#\023"
 194      60624007 
 194      2240DC06 
 194      C41A200E 
 194      33032350 
 195 0017 232390C3 		.ascii	"##\220\303\310P\317\304X\037\311\010V\266\236\351\300"
 195      C850CFC4 
 195      581FC908 
 195      56B69EE9 
 195      C0
 196 0028 83FFFFD7 		.ascii	"\203\377\377\327m:\265\357\014\343J&fF\306\\F\006& "
 196      6D3AB5EF 
 196      0CE34A26 
 196      6646C65C 
 196      46062620 
 197 003c 01926565 		.ascii	"\001\222eehih\230\240\300\300\220\014V\033\002&CA&1"
 197      68696898 
 197      A0C0C090 
 197      0C561B02 
 197      26434126 
 198 0051 9F67687D 		.ascii	"\237gh}0{){\"\343BFV\240`5\303\257\206\216\006\201L"
 198      307B297B 
 198      22E34246 
 198      56A06035 
 198      C3AF868E 
 199 0068 46A05288 		.ascii	"F\240R\210\271\351\214\214\351\214L\231 \336E\206\306"
 199      B9E98C8C 
 199      E98C4C99 
 199      20DE4586 
 199      C6
 200 0079 07735461 		.ascii	"\007sTaJ! \004$\001r\264\232\236\236\276sFfR\246\177"
 200      4A212004 
 200      240172B4 
 200      9A9E9EBE 
 200      73466652 
 201 008f B07E7EB1 		.ascii	"\260~~\261~Q\211~f^rNiJ\252~rFnjnA~~N\261^\006\003\000"
 201      7E51897E 
 201      665E724E 
 201      694AAA7E 
ARM GAS  /tmp/ccFBZKBa.s 			page 15


 201      72466E6A 
 202 00ad 00C52A68 		.ascii	"\000\305*h"
 203              		.text
 204              		.section	.gnu.lto_chPoolLoadArray.2741d1f968d67b18,"",%progbits
 205 0000 789C5D50 		.ascii	"x\234]P1K\303P\020\276{\357%\251 \250\233\203H\251N"
 205      314BC350 
 205      10BE7BEF 
 205      25A920A8 
 205      9B8348A9 
 206 0015 0ACDE61F 		.ascii	"\012\315\346\037\360\0078XAG\033$\015\030*\255\233C"
 206      F0073858 
 206      41471B24 
 206      0D182AAD 
 206      9B43
 207 0027 5F6D0B05 		.ascii	"_m\013\005ED\034\324:\250\263\240\253t\2518\330\245"
 207      45441CD4 
 207      3AA8B3A0 
 207      AB74A938 
 207      D8A5
 208 0039 8A63A543 		.ascii	"\212c\245C\300Q\007\247\016\"\304\273\264A\361 _\336"
 208      C05107A7 
 208      0E22C4BB 
 208      B441F120 
 208      5FDE
 209 004b BDFBBEBB 		.ascii	"\275\373\276\273\373\236\000\001\377c\201\276[\004\230"
 209      FB9E0001 
 209      FF6381BE 
 209      5B0498
 210 005a E5C40224 		.ascii	"\345\304\002$\006\012\224\204\022\015B\025\241!\024"
 210      060A9484 
 210      120D4215 
 210      A12114
 211 0069 80162681 		.ascii	"\200\026&\2012\221\350\200P\022R\031&\226\3268\005\221"
 211      3291E880 
 211      50125219 
 211      2696D638 
 211      0591
 212 007b 824BAD8F 		.ascii	"\202K\255\217\202Z\277\215\247\307\255\352\205\376\016"
 212      825ABF8D 
 212      A7C7ADEA 
 212      85FE0E
 213 008a 43448F8B 		.ascii	"CD\217\213\016\302*\2350\031\375\270\325\337\360\021"
 213      0EC22A9D 
 213      3019FDB8 
 213      D5DFF011 
 214 009a 6E442B08 		.ascii	"nD+\010\303\363\273\317\267\036N\214 ]\321\036>\012"
 214      C3F3BBCF 
 214      B71E4E8C 
 214      205DD11E 
 214      3E0A
 215 00ac 89745204 		.ascii	"\211tR\004\302 \220&P;\213\253\011\256\222\326\200\252"
 215      C2209026 
 215      503B8BAB 
 215      09AE92D6 
 215      80AA
 216 00be D687497F 		.ascii	"\326\207I\1778\205\"3D\252\312\014\373\220+H\003\345"
 216      38852233 
ARM GAS  /tmp/ccFBZKBa.s 			page 16


 216      44AACA0C 
 216      FB902B48 
 216      03E5
 217 00d0 33D482A7 		.ascii	"3\324\202\247\007k\035\257\330\020\354\300\227\256\353"
 217      076B1DAF 
 217      D810ECC0 
 217      97AEEB
 218 00df 710FA513 		.ascii	"q\017\245\023\331\001p\321py_\"w`\367\365\244\337V\003"
 218      D90170D1 
 218      70795F22 
 218      7760F7F5 
 218      A4DF5603 
 219 00f3 B28BE63C 		.ascii	"\262\213\346<\314yh4\340\254\254\265n\020\311$6{\261"
 219      CC796834 
 219      E0ACACB5 
 219      6E10C924 
 219      367BB1
 220 0106 22691663 		.ascii	"\"i\026c/\035\250\354U\246c\235E\015I\035]\327+\357"
 220      2F1DA8EC 
 220      55A6639D 
 220      450D491D 
 220      5DD72BEF 
 221 011a 07665C48 		.ascii	"\007f\\H\270(Xn\204\024cC\355\012/&\333P\375\270o<\216"
 221      B828586E 
 221      84146343 
 221      ED0A2F26 
 221      DB50FDB8 
 222 0131 C6D401EF 		.ascii	"\306\324\001\357\367\265\272@-\245$\260\324~s\252\013"
 222      F7B5BA40 
 222      2DA524B0 
 222      D47E73AA 
 222      0B
 223 0142 C245C569 		.ascii	"\302E\305iB]7'\271\013\315\223/P\016z3\261\331Ad\330"
 223      425D3727 
 223      B90BCD93 
 223      2F500E7A 
 223      33B1D941 
 224 0158 283F5A2A 		.ascii	"(?Z*\235\266\027s^\326[Z\266\363E\273\260m\027\013\216"
 224      9DB61773 
 224      5ED65B5A 
 224      B6F345BB 
 224      B06D170B 
 225 016d EDE4FC0D 		.ascii	"\355\344\374\015\177+\237\337,\246\035\370\0018@g7"
 225      7F2B9FDF 
 225      2CA61DF8 
 225      01384067 
 225      37
 226              		.text
 227              		.section	.gnu.lto_.symbol_nodes.2741d1f968d67b18,"",%progbits
 228 0000 789C4DCC 		.ascii	"x\234M\314\273\015\0021\020\204\341\231\365=\354k\202"
 228      BB0D0231 
 228      1084E199 
 228      F53DEC6B 
 228      82
 229 0011 DAA86410 		.ascii	"\332\250d\020\001\272\220\204\006H \247\003\012 $&!"
 229      01BA9084 
 229      064820A7 
ARM GAS  /tmp/ccFBZKBa.s 			page 17


 229      030A2024 
 229      2621
 230 0023 23E17884 		.ascii	"#\341x\204\007\342l\211u2\372\376\225l0\214(\317>\020"
 230      07E26C89 
 230      7532FAFE 
 230      956C308C 
 230      28CF3E10 
 231 0037 B03E01D2 		.ascii	"\260>\001\322\246\237\333\202\242\343\2162\307=\025"
 231      A69FDB82 
 231      A2E38E32 
 231      C73D15
 232 0046 1CEF5455 		.ascii	"\034\357TUx\356i\017\252v|R\215\343\213j\035\337Tt\274"
 232      78EE690F 
 232      AA767C52 
 232      8DE38B6A 
 232      1DDF5474 
 233 005b 52C9FD3C 		.ascii	"R\311\375<P\335\377\032\014X^F\206\300i\253\032\207"
 233      50DDFF1A 
 233      0C585E46 
 233      86C069AB 
 233      1A87
 234 006d D56D161A 		.ascii	"\325m\026\032\313\271\251\261\2356\340\370\333Xzls\217"
 234      CBB9A9B1 
 234      9D36E0F8 
 234      DB587A6C 
 234      738F
 235 007f A5A7987B 		.ascii	"\245\247\230{\227\246\305\027Z5U:"
 235      97A6C517 
 235      5A35553A 
 236              		.text
 237              		.section	.gnu.lto_.refs.2741d1f968d67b18,"",%progbits
 238 0000 789C6362 		.ascii	"x\234cb`b`d\200\002\000\000F\000\006"
 238      60626064 
 238      80020000 
 238      460006
 239              		.text
 240              		.section	.gnu.lto_.decls.2741d1f968d67b18,"",%progbits
 241 0000 789CBD5B 		.ascii	"x\234\275[{t\024\325\031\277w6\311\356\222\200Q[\213"
 241      7B7414D5 
 241      19BF7736 
 241      C9EE9280 
 241      515B8B
 242 0013 3DB6468F 		.ascii	"=\266F\217\332j\017Y@@<\3551PZ\205S_G\216\347\364\277"
 242      DA6A0F59 
 242      40403CED 
 242      31505A85 
 242      535F478E 
 243 002a E9B019C8 		.ascii	"\351\260\031\310\326}\271;!\320\177\234$\022Q|\004\""
 243      D67DB93B 
 243      21D07F9C 
 243      2412517C 
 243      0422
 244 003c 09A84800 		.ascii	"\011\250H\000\005\302\201\202p\000\201*\003\325\360"
 244      05C28182 
 244      7000812A 
 244      03D5F0
 245 004b 86F090F0 		.ascii	"\206\360\220\3600\222`\005E+\240\240\200\266\351w\357"
ARM GAS  /tmp/ccFBZKBa.s 			page 18


 245      30926005 
 245      452BA0A0 
 245      80B6E977 
 245      EF
 246 005c DCD99DB9 		.ascii	"\334\331\235\271;\263;\033\264s\316\235\2753s\277\337"
 246      3BB33B1B 
 246      B473CE9D 
 246      BD3373BF 
 246      DF
 247 006d F7BCDFFD 		.ascii	"\367\274\337\375\356L\" \001\251\036\204z\341\360\015"
 247      EE4C2220 
 247      01A91E84 
 247      7AE1F00D 
 248 007d 45E8275E 		.ascii	"E\350'^\204J\020B\367\241\364Q\014m\001\264\305\320"
 248      844A1042 
 248      F7A1F451 
 248      0C6D01B4 
 248      C5D0
 249 008f DAA02D87 		.ascii	"\332\240-\207\266\022Z'\264.h=\320\316@;\013\355\002"
 249      B6125A27 
 249      B42E683D 
 249      D0CE403B 
 249      0BED02
 250 00a2 CA3C086D 		.ascii	"\312<\010m!\351`\204\006 \035\277\010\372\305X\177."
 250      21E96084 
 250      06201DBF 
 250      08FAC558 
 250      7F2E
 251 00b4 B031FD71 		.ascii	"\2601\375q&\355b\027\264\213\035h\333\330\363\033\340"
 251      26ED6217 
 251      B48B1D68 
 251      DBD8F31B 
 251      E0
 252 00c5 D942941E 		.ascii	"\331B\224\036\337\306\370\361\007\321\253\010\332\317"
 252      DFC6F8F1 
 252      07D1AB08 
 252      DACF
 253 00d3 4CBCBC36 		.ascii	"L\274\2746\364\313\031O\302r;\307w%\223w\003\2645\320"
 253      F4CB194F 
 253      C2723BC7 
 253      77259377 
 253      03B435D0 
 254 00e7 5643DB02 		.ascii	"VC\333\002\255\035\032\230\031\275\015M\203\366>\243"
 254      AD1D1A98 
 254      19BD0D4D 
 254      83F63EA3 
 255 00f7 27E30BA0 		.ascii	"'\343\013\240\355\205\213\016\370=\000\355\020'W'\223"
 255      ED858B0E 
 255      F83D00ED 
 255      10275727 
 255      93
 256 0108 85601A72 		.ascii	"\205`\032r\355b|*L|62>\204\3376\206K\370\275\303\370"
 256      ED627C2A 
 256      4C7C3632 
 256      3E84DF36 
 256      864BF8BD 
 257 011e 698C6727 		.ascii	"i\214g'\223\345 \\\034\207\337#\234\016]L\357\012\023"
ARM GAS  /tmp/ccFBZKBa.s 			page 19


 257      93E5205C 
 257      1C87DF23 
 257      9C0E5D4C 
 257      EF0A13
 258 0131 3FC30647 		.ascii	"?\303\006G\341\367\010\033W\300\306\2661\314\345\314"
 258      E1F7081B 
 258      57C0C6B6 
 258      31CCE5CC 
 259 0141 3E27A01D 		.ascii	">'\240\035\3430{\230m\315:\230\345\026L\262b6\236\310"
 259      E3307B98 
 259      6DCD3A98 
 259      E5164CB2 
 259      62369EC8 
 260 0155 781C2E4E 		.ascii	"x\034.N\303\357)\316&g\030\177C\256.\370=i\222\353\014"
 260      C3EF29CE 
 260      2667187F 
 260      43AE2EF8 
 260      3D6992EB 
 261 016a 93ABC724 		.ascii	"\223\253\307$\327\027\320\376\315\341\234e\317\314\364"
 261      D717D0FE 
 261      CDE19C65 
 261      CFCCF4
 262 0179 02BB7F86 		.ascii	"\002\273\177\206\365\317C\373\212\243#q\356C\272\017"
 262      F5CF43FB 
 262      8AA32371 
 262      EE43BA0F 
 263 0189 0C7D0C8C 		.ascii	"\014}\014\214-&\335\210.\032\303\271\300p\211|\037\301"
 263      2D26DD88 
 263      2E1AC3B9 
 263      C070897C 
 263      1FC1
 264 019b 83EFE0F7 		.ascii	"\203\357\340\367?\320\256p\3307\243\327U\255\243{\332"
 264      3FD0AE70 
 264      D837A3D7 
 264      55ADA37B 
 264      DA
 265 01ac A98F85B9 		.ascii	"\251\217\205\271\252\366\264\012SS\305e7\240\331*\034"
 265      AAF6B40A 
 265      5353C565 
 265      37A0D92A 
 265      1C
 266 01bd AD0DAA8A 		.ascii	"\255\015\252\212\025\011\337\367S\364g,\341\001~TF;"
 266      1509DFF7 
 266      53F4672C 
 266      E1017E54 
 266      463B
 267 01cf 257E8A8B 		.ascii	"%~\212\213\220\204\027\342\033X\357q\217\241Q9Fw\241"
 267      908417E2 
 267      1B58EF71 
 267      8FA15139 
 267      4677A1
 268 01e2 36A06F54 		.ascii	"6\240oT\325\272_\"\273\343\016\364&a\240.U=\024\236"
 268      D5BA5F22 
 268      BBE30EF4 
 268      2661A02E 
 268      553D149E 
 269 01f6 002CC037 		.ascii	"\000,\3007\233\207Hx\021\0262E\325\032O\2244\326v\367"
ARM GAS  /tmp/ccFBZKBa.s 			page 20


 269      9B874878 
 269      11163245 
 269      D51A4F94 
 269      34D676F7 
 270 020a F6CE6F2D 		.ascii	"\366\316o-\325\331\013\250\002\303\3507\360]Y\341\027"
 270      D5D90BA8 
 270      02C3E837 
 270      F05D59E1 
 270      17
 271 021b F3F04BEC 		.ascii	"\363\360K\354\340\273\3275t\025\232,a\260\210\270a\321"
 271      E0BBD735 
 271      74159A2C 
 271      61B088B8 
 271      61D1
 272 022d C6B35866 		.ascii	"\306\263Xf\253\301k\235\031\032\324\270\201_\316\303"
 272      ABC16B9D 
 272      191AD4B8 
 272      815FCEC3 
 273 023d AFC8846F 		.ascii	"\257\310\204o\325\272[v\356\221\322\032 \367\276\\\305"
 273      D5BA5B76 
 273      EE91D21A 
 273      20F7BE5C 
 273      C5
 274 024e 7CE9A111 		.ascii	"|\351\241\021\004\251\3709\360\037!\034\273}\300uh&"
 274      04A9F839 
 274      F01F211C 
 274      BB7DC075 
 274      6826
 275 0260 4129DB0E 		.ascii	"A)\333\016\001\310\350\377b\320\223x\274\035\275\001"
 275      01C8E8FF 
 275      62D09378 
 275      BC1DBD01 
 276 0270 FEEE9E37 		.ascii	"\376\356\2367c\333\020U\365Ix\015\276\016P\366`\253"
 276      63DB1055 
 276      F549780D 
 276      BE0E50F6 
 276      60AB
 277 0282 5EB95088 		.ascii	"^\271P\210\024\353\200R\247\241\230\2526\263\275D-\320"
 277      14EB8052 
 277      A7A198AA 
 277      36B3BD44 
 277      2DD0
 278 0294 EF23CE4A 		.ascii	"\357#\316J\246\343\026\324\012\322jM\015\363nT[\267"
 278      A6E316D4 
 278      0AD26A4D 
 278      0DF36E54 
 278      5BB7
 279 02a6 623BE15B 		.ascii	"b;\341[\213L|-\332\0130\367\211\244\033y\336\347\245"
 279      8B4C7C2D 
 279      DA0B30F7 
 279      89A41B79 
 279      DEE7A5
 280 02b9 32FD6E6E 		.ascii	"2\375nn\316_\177\266\003\253\263J$\274\001\230\013\350"
 280      CE5F7FB6 
 280      03ABB34A 
 280      24BC0198 
 280      0BE8
ARM GAS  /tmp/ccFBZKBa.s 			page 21


 281 02cb 740AD08E 		.ascii	"t\012\320\216!\353\352\007\033\300\037Nn\"\370\354\020"
 281      21EBEA07 
 281      1BC01F4E 
 281      6E22F8EC 
 281      10
 282 02dc D059CA66 		.ascii	"\320Y\312f]\376l\230\324\263\333_\243\366\362\243\351"
 282      5DFE6C98 
 282      D4B3DB5F 
 282      A3F6F2A3 
 282      E9
 283 02ed 697BD9F3 		.ascii	"i{\331\363f.>\361\322\341\257q\035\004\223\204\267\000"
 283      662E3EF1 
 283      D2E1AF71 
 283      1D049384 
 283      B700
 284 02ff 9980AE08 		.ascii	"\231\200\256\010V'K\270\320\242\014\2756\006\020<\372"
 284      56274BB8 
 284      D0A20CBD 
 284      3606103C 
 284      FA
 285 0310 9875482D 		.ascii	"\230uH-p\015Q\244\326\223\257\"efE \362\332g\342\246"
 285      700D51A4 
 285      D693AF22 
 285      65664520 
 285      F2DA67E2 
 286 0325 7A75FB60 		.ascii	"zu\373`\213\353\271\350\257(v4\3536k\364\353\332\245"
 286      8BEBB9E8 
 286      AF287634 
 286      EB366BF4 
 286      EBDAA5
 287 0338 D39A8343 		.ascii	"\323\232\203C\230Q\366\277\262\376N\032\367\355\324"
 287      9851F6BF 
 287      B2FE4E1A 
 287      F7EDD4
 288 0347 F9EB3C56 		.ascii	"\371\353<V\223XD\322Y9\211\261\013\000\354C-\343\231"
 288      935844D2 
 288      593989B1 
 288      0B00EC43 
 288      2DE399
 289 035a 80FEE9C6 		.ascii	"\200\376\351\306h\276lAf\301OO=\011\257\307\267\303"
 289      68BE6C41 
 289      66C14F4F 
 289      3D09AFC7 
 289      B7C3
 290 036c F96D7C0B 		.ascii	"\371m|\013\2345z~\037\316YmA V\247\203\323bH\363u\273"
 290      9C357A7E 
 290      1FCE596D 
 290      412056A7 
 290      83D36248 
 291 0383 3EC6625B 		.ascii	">\306b[\001\355\343lv\033Z\244\252\263H6\353\301/\327"
 291      01EDE36C 
 291      761B5AA4 
 291      AAB34836 
 291      EBC12FD7 
 292 0397 AB63756C 		.ascii	"\253cul\001u\323q+!\027\332\311\300$\320\211\325\203"
 292      0175D371 
 292      2B2117DA 
ARM GAS  /tmp/ccFBZKBa.s 			page 22


 292      C9C024D0 
 292      89D583
 293 03aa F258234A 		.ascii	"\362X#J?\316AF\205dds\333K\032\261\341\313Os\0202mX"
 293      3FCE4146 
 293      85646473 
 293      DB4B1AB1 
 293      E1CB4F73 
 294 03c2 C27E419D 		.ascii	"\302~A\235V\212S\031{%\237\261\367ef\354\356\016\355"
 294      568A5319 
 294      7B259FB1 
 294      F76566EC 
 294      EE0EED
 295 03d5 FCB65D90 		.ascii	"\374\266]\220:\324\357{{\353\013\370|\235%b\217\360"
 295      3AD4EF7B 
 295      7BEB0BF8 
 295      7C9D2562 
 295      8FF0
 296 03e7 11BB9AC6 		.ascii	"\021\273\232\306\207\305\252\347m\255\252\266\310c\215"
 296      87C5AAE7 
 296      6DADAAB6 
 296      C8638D
 297 03f6 E1FB4124 		.ascii	"\341\373A$\011wf\267'\323\257N]\3310\255\264\200J\205"
 297      097766B7 
 297      27D3AF4E 
 297      5DD930AD 
 297      B4804A85 
 298 040a B2503101 		.ascii	"\262P1\001\217\331\255O\332\261\235l\371+\323U\020\320"
 298      8FD9AD4F 
 298      DAB19D6C 
 298      F92BD355 
 298      10D0
 299 041c 7FED859C 		.ascii	"\177\355\205\234\315\013\331\325'!\235\250\230\220\037"
 299      CD0BD9D5 
 299      27219DA8 
 299      98901F
 300 042b D9BA64FD 		.ascii	"\331\272d\375\014g\227dYBO\332\271$uQa\027\367\317\025"
 300      0C679764 
 300      59424FDA 
 300      B9247551 
 300      6117F7CF 
 301 0440 D82ADFC4 		.ascii	"\330*\337\304+\337\343*\342\327\023\262\012\022\267"
 301      2BDFE32A 
 301      E2D713B2 
 301      0A12B7
 302 044f CD14D799 		.ascii	"\315\024\327\231\252\3029l{\370\260\375\304\326F\263"
 302      AAC2396C 
 302      7BF8B0FD 
 302      C4D646B3 
 303 045f F6A61D79 		.ascii	"\366\246\035y\222:\362U{]f\362\272\234q\245\313Z\246"
 303      923AF255 
 303      7B5D66F2 
 303      BA9C71A5 
 303      CB5AA6
 304 0472 8B843FCD 		.ascii	"\213\204?\315A\225E\2273\274.\237\333\226}\363v\355"
 304      41954597 
 304      33BC2E9F 
 304      DB967DF3 
ARM GAS  /tmp/ccFBZKBa.s 			page 23


 304      76ED
 305 0484 DE8A67C1 		.ascii	"\336\212g\301\362\241\236\203\005\251\321gh\264\330"
 305      F2A19E83 
 305      05A9D167 
 305      68B4D8
 306 0493 5EA34DBC 		.ascii	"^\243M\274Fg]it\202\323\310\231\312\242\321Q\365\321"
 306      46675D69 
 306      7482D3C8 
 306      99CAA2D1 
 306      51F5D1
 307 04a6 812985CE 		.ascii	"\201)\205\316\362\012\235s\250\002\377\325\267*\360"
 307      F20A9D73 
 307      A802FFD5 
 307      B72AF0
 308 04b5 A28B10E6 		.ascii	"\242\213\020\346S;\027\322\253\354\215\366*o\264\013"
 308      533B17D2 
 308      ABEC8DF6 
 308      2A6FB40B 
 309 04c5 AE8CB639 		.ascii	"\256\214\2669\025\322\032\305u\246\252H\023}\235\316"
 309      15D21AC5 
 309      75A6AA48 
 309      137D9DCE 
 310 04d5 FC5B7350 		.ascii	"\374[sP1\035l\243\347\002o\354\313Vc\273/\233\346\236"
 310      311D6CA3 
 310      E7026FEC 
 310      CB5663BB 
 310      2F9BE69E 
 311 04e9 EA18B85C 		.ascii	"\352\030\270\\U\241\342W\005\"\325\333\205V\033\271"
 311      55A1E257 
 311      0522D5DB 
 311      85561BB9 
 312 04f9 476AFA52 		.ascii	"Gj\372Rk\301\365\264\000\253\247P\355E|\001\346\345"
 312      6BC1F5B4 
 312      00ABA750 
 312      ED457C01 
 312      E6E5
 313 050b 0A30AFB5 		.ascii	"\0120\257\265\000\363\372\323\035V\200\3459\374Z\324"
 313      00F3FAD3 
 313      1D5680E5 
 313      39FC5AD4 
 314 051b 48C369D4 		.ascii	"H\303i\324\234\001L\360\3567\325\201\003Sr\373\014\271"
 314      9C014CF0 
 314      EE37D581 
 314      035372FB 
 314      0CB9
 315 052d B12137D9 		.ascii	"\261!7\331\014\012\022~\206J\274\277\310\346\025\212"
 315      0C0A127E 
 315      864ABCBF 
 315      C8E6158A 
 316 053d CE9B0C40 		.ascii	"\316\233\014@\214\237\3367z\2758\005_j\300\013\214\252"
 316      8C9FDE37 
 316      7ABD3805 
 316      5F6AC00B 
 316      8CAA
 317 054f 41B8366D 		.ascii	"A\2706mE5Uh\301\010\2470\177\316\304\247\304\237\356"
 317      45355568 
 317      C108A730 
ARM GAS  /tmp/ccFBZKBa.s 			page 24


 317      7FCEC4A7 
 317      C49FEE
 318 0562 1882310D 		.ascii	"\030\2021\015\313\346\014\320\2713\234\221\3068/\303"
 318      CBE60CD0 
 318      B9339C91 
 318      C6382FC3 
 319 0572 999137E7 		.ascii	"\231\2217\347\347\0358\0271\316,#u}\323\361<\236\271"
 319      E71D3817 
 319      31CE2C23 
 319      757DD3F1 
 319      3C9EB9
 320 0585 B2412539 		.ascii	"\262A%9\366\251\371Zc\201\3739\374\242\300\315a\022"
 320      F6A9F95A 
 320      6381FB39 
 320      FCA2C0CD 
 320      6112
 321 0597 73DC249D 		.ascii	"s\334$\235\3465G\015\035)\240&/\323\237M\243\375z%\244"
 321      E635470D 
 321      1D29A026 
 321      2FD39F4D 
 321      A3FD7A25 
 322 05ac 87EC024A 		.ascii	"\207\354\002J\361\202\3404\221T\301<\221\276\2565%-"
 322      F182E034 
 322      9154C13C 
 322      91BEAE35 
 322      252D
 323 05be 42647173 		.ascii	"Bdqs\243`\231G\\\201\2740K\201\334,\024\333R\331\354"
 323      A3609947 
 323      5C81BC30 
 323      4B81DC2C 
 323      14DB52D9 
 324 05d3 2D5B0B0C 		.ascii	"-[\013\014\342?\240\324\364\231\377\335\245%l\372\314"
 324      E23FA0D4 
 324      F499FFDD 
 324      A5256CFA 
 324      CC
 325 05e4 11C82675 		.ascii	"\021\310&u\2577\347&\325\012$\240NJ\362\252`\335-v7"
 325      AF37E726 
 325      D50A24A0 
 325      4E4AF2AA 
 325      60DD2D76 
 326 05f9 F5768C9C 		.ascii	"\365v\214\234C\3478y\224{\313\330\362\242\276Y\225p"
 326      43E73879 
 326      947BCBD8 
 326      F2A2BE59 
 326      9570
 327 060b 8B40F2DB 		.ascii	"\213@\362\333\323>\003\266o\233\271W`A\226\014\260\031"
 327      D33E03B6 
 327      6F9BB957 
 327      6041960C 
 327      B019
 328 061d 79839559 		.ascii	"y\203\225Y\300\346\357\315wg\370\301\302-\003\337\241"
 328      C0E6EFCD 
 328      7767F8C1 
 328      C22D03DF 
 328      A1
 329 062e EA2FA2F1 		.ascii	"\352/\242\361\262\303\307\347%\026!\3510\310\235i Y"
ARM GAS  /tmp/ccFBZKBa.s 			page 25


 329      B2C3C7E7 
 329      251621E9 
 329      30C89D69 
 329      2059
 330 0640 B851C46E 		.ascii	"\270Q\304n\223C\025!^\321\356\335\260ZU\237-r\361\036"
 330      93431521 
 330      5ED1EEDD 
 330      B05A559F 
 330      2D72F11E 
 331 0654 E00865B6 		.ascii	"\340\010e\266\224\367\354\314%;\356\324=\273\324\225"
 331      94F7ECCC 
 331      253BEED4 
 331      3DBBD495 
 332 0664 67D7EE6C 		.ascii	"g\327\356lq|\015a\011,\301`\177\033e?\335O\330\257\340"
 332      717C0D61 
 332      092CC160 
 332      7F1B653F 
 332      DD4FD8AF 
 333 0679 D9BFD9BB 		.ascii	"\331\277\331\273\005\323\355\345\012W\334\367\037x9"
 333      05D3EDE5 
 333      0A57DCF7 
 333      1F7839
 334 0688 93BB63C2 		.ascii	"\223\273c\302`\336\233\271\344\263\233\346S\025\337"
 334      60DE9BB9 
 334      E4B39BE6 
 334      5315DF
 335 0697 A2F1F3B2 		.ascii	"\242\361\363\262\237\367^E\261\231\027+dL\273\321y)"
 335      9FF75E45 
 335      B199172B 
 335      644CBBD1 
 335      7929
 336 06a9 E1FB14BE 		.ascii	"\341\373\024\276\335o.\333I_Bz\014\021Z\363\006\264"
 336      DD6F2EDB 
 336      495F427A 
 336      0C115AF3 
 336      06B4
 337 06bb 86F0A103 		.ascii	"\206\360\241\003t>\350`\213\334\2009\206Q\235v\330\014"
 337      743EE860 
 337      8BDC8039 
 337      86519D76 
 337      D80C
 338 06cd B6386F30 		.ascii	"\2668o0\253dG\314`mn\300J\235%;f\006[\2367\230U\262"
 338      AB6447CC 
 338      606D6EC0 
 338      4A9D253B 
 338      66065B9E 
 339 06e5 0FCD602B 		.ascii	"\017\315`+\335\200\015t\226\354#3\330\232\274\301\254"
 339      DD800D74 
 339      96EC2333 
 339      D89ABCC1 
 339      AC
 340 06f6 929D3383 		.ascii	"\222\2353\203\255w\003Vf#Y\352pZ_\226\013\246\327k\033"
 340      AD770356 
 340      662359EA 
 340      705A5F96 
 340      0BA6D76B 
 341 070b FD463AC8 		.ascii	"\375F:\3103\244Q\032\343]\177\276\371\313\2427YU\356"
ARM GAS  /tmp/ccFBZKBa.s 			page 26


 341      33A4511A 
 341      E35D7FBE 
 341      F9CBA237 
 341      5955EE
 342 071e DD48F397 		.ascii	"\335H\363\227\221\332\337s\203\230%`\326\231\327\211"
 342      91DADF73 
 342      83982560 
 342      D699D789 
 343 072e DD798359 		.ascii	"\335y\203Y\335r\210\200Y2M\252\"\324\006\316I\247:K"
 343      DD728880 
 343      59324DAA 
 343      22D406CE 
 343      49A73A4B 
 344 0742 4928E1E9 		.ascii	"I(\341\351\302\355n\253\275\014\027\3556\273\350\220"
 344      C2ED6EAB 
 344      BD0C17ED 
 344      36BBE890 
 345 0752 1BF9B3C4 		.ascii	"\033\371\263\304\3509'\371\265\006u:\256}\353\246\024"
 345      E83927F9 
 345      B506753A 
 345      AE7DEBA6 
 345      14
 346 0763 DD28B3B3 		.ascii	"\335(\263\263\322Y\363\027\313h\326\334O\327\274\343"
 346      D259F317 
 346      CB68D6DC 
 346      4FD7BCE3 
 347 0773 7EDBB2DE 		.ascii	"~\333\262\336\025\326\334S\347n\324\267\010\207(\326"
 347      15D6DC53 
 347      E76ED4B7 
 347      088728D6 
 348 0783 A9BE63B5 		.ascii	"\251\276c\2656}\271\335CW\214N\012u6#\231\373\271\225"
 348      367DB9DD 
 348      43578C4E 
 348      0A753623 
 348      99FBB995 
 349 0797 D86F5D89 		.ascii	"\330o]\211\375\376t\247\3278\254E\373\217J\343\344\372"
 349      FDFE74A7 
 349      D738AC45 
 349      FB8F4AE3 
 349      E4FA
 350 07a9 0EB3EBAF 		.ascii	"\016\263\353\257\344\355z\353\314\232\325\373\351o["
 350      E4ED7AEB 
 350      CC9AD5FB 
 350      E96F5B
 351 07b8 54ADD663 		.ascii	"T\255\326c\332\3038El\252\306\371\254\223U\217\037R"
 351      DAC33845 
 351      6CAAC6F9 
 351      AC93558F 
 351      1F52
 352 07ca CB4EEB67 		.ascii	"\313N\353g\353$"
 352      EB24
 353 07d0 1750B023 		.ascii	"\027P\260#\\\313^\244\237\240P/\366\031\252\351\313"
 353      5CCB5EA4 
 353      9FA0502F 
 353      F619AAE9 
 353      CB
 354 07e1 EE7A26D5 		.ascii	"\356z&\325I\012\325\334\217\3677\346\374\215\255~\300"
ARM GAS  /tmp/ccFBZKBa.s 			page 27


 354      490AD5DC 
 354      8FF737E6 
 354      FC8DAD7E 
 354      C0
 355 07f2 FE7427C3 		.ascii	"\376t'\303g?\340XX\324\373qN\263(\224%s\247\322\341"
 355      673FE058 
 355      58D4FB71 
 355      4EB32894 
 355      2573A7D2 
 356 0807 F6DF6DF8 		.ascii	"\366\337m\370\273\252\326\027\345\343\265\036\303k\247"
 356      BBAAD617 
 356      E5E3B51E 
 356      C36BA7
 357 0816 A97D9666 		.ascii	"\251}\226f\330\347\004_\232\346TdU\336\212\3708E\316"
 357      D8E7045F 
 357      9AE65464 
 357      55DE8AF8 
 357      3845CE
 358 0829 F54191F3 		.ascii	"\365A\221\363\206\"_\350\257\021~\000E\264\274\025)"
 358      86225FE8 
 358      AF117E00 
 358      45B4BC15 
 358      29
 359 083a 3529420A 		.ascii	"5)B\012\354K\017\353\005\366\365hV\366\002\233\310s"
 359      EC4B0FEB 
 359      05F6F568 
 359      56F6029B 
 359      C873
 360 084c 5EB8DE52 		.ascii	"^\270\336R\335j\027\367\221\357\254\344v\256\322V\325"
 360      DD6A17F7 
 360      91EFACE4 
 360      76AED256 
 360      D5
 361 085d 9A0E9876 		.ascii	"\232\016\230v%\252\273]\311\016\266+\271@-\266\315n"
 361      25AABB5D 
 361      C90EB62B 
 361      B9402DB6 
 361      CD6E
 362 086f 96B9416A 		.ascii	"\226\271Aj\235{\352\210@s\352\267\024hO_\201`\272^j"
 362      9D7BEA88 
 362      4073EAB7 
 362      14684F5F 
 362      8160BA5E 
 363 0884 605EBC42 		.ascii	"`^\274B\241>\310\360b\021\347\304\"\253\023\341\222"
 363      A13EC8F0 
 363      6211E7C4 
 363      22AB13E1 
 363      92
 364 0895 F0BA44B3 		.ascii	"\360\272D\263\345S\354\016\271\360\242\377;\235\200"
 364      E553EC0E 
 364      B9F0A2FF 
 364      3B9D80
 365 08a4 4E50F189 		.ascii	"NP\361\211\003\373R\370\323\035\332\270\015\254\302"
 365      03FB52F8 
 365      D31DDAB8 
 365      0DACC2
 366 08b3 D19D74EA 		.ascii	"\321\235t\352\252\020\353\264\315\263\214\2355}qx\366"
ARM GAS  /tmp/ccFBZKBa.s 			page 28


 366      AA10EBB4 
 366      CDB38C9D 
 366      357D7178 
 366      F6
 367 08c4 2AE16851 		.ascii	"*\341hQl\251\021\270\255\325\034\2075(\365\316\241\233"
 367      6CA911B8 
 367      ADD51C87 
 367      3528F5CE 
 367      A19B
 368 08d6 BDFC7BDA 		.ascii	"\275\374{\332C\344\371&\303\337-\002\267\271\"7LC\234"
 368      43E4F926 
 368      C3DF2D02 
 368      B7B92237 
 368      4C439C
 369 08e9 2653BDC7 		.ascii	"&S\275\307\264\036>[|\265~8\362'\253\037^\272*\304:"
 369      B41E3E5B 
 369      7CB57E38 
 369      F227AB1F 
 369      5EBA2AC4 
 370 08fe 6D6E93F3 		.ascii	"mn\223\363\347x\307\277\002\020P\013e\373\274\207\333"
 370      E778C7BF 
 370      0210500B 
 370      65FBBC87 
 370      DB
 371 090f 06CFDDD4 		.ascii	"\006\317\335\324\323\300VL\362,w\2668\376\211_\235U"
 371      D3C0564C 
 371      F22C77B6 
 371      38FE895F 
 371      9D55
 372 0921 62C3CFAE 		.ascii	"b\303\317\256\374\232\377\235\366\363\035\324I\215\036"
 372      FC9AFF9D 
 372      F6F31DD4 
 372      498D1E
 373 0930 F25EA8BD 		.ascii	"\362^\250\275\330\366\275P\353('\034\001\035\246$M\274"
 373      D8F6BD50 
 373      EB28271C 
 373      011DA624 
 373      4DBC
 374 0942 DC9020CB 		.ascii	"\334\220 \313\365\267\007M.\304\256\323\316\3170\277"
 374      F5B7074D 
 374      2EC4AED3 
 374      CECF30BF 
 375 0952 1792F07C 		.ascii	"\027\222\360|A`\260}\363\302W\273R\365\276\204\027\344"
 375      4160B07D 
 375      F3C257BB 
 375      52F5BE84 
 375      17E4
 376 0964 0D566627 		.ascii	"\015Vf'\252\021\247ie%<\333Cj\372f\017\371Z\334\342"
 376      AA11A769 
 376      65253CDB 
 376      436AFA66 
 376      0FF95ADC 
 377 0979 317D2D16 		.ascii	"1}-\026\320\351\224G\355,\227;4\347n\272\334\254\177"
 377      D0E99447 
 377      ED2C973B 
 377      34E76EBA 
 377      DCAC7F
ARM GAS  /tmp/ccFBZKBa.s 			page 29


 378 098c DECF27F3 		.ascii	"\336\317'\363\177\3062\377+\036Z\004\027\363\263\356"
 378      7FC632FF 
 378      2B1E5A04 
 378      17F3B3EE 
 379 099c 5B7EADCC 		.ascii	"[~\255\314+\355]\344ur\373F!u8\315\352\031\346Y\375"
 379      2BED5DE4 
 379      7572FB46 
 379      217538CD 
 379      EA19E659 
 380 09b1 DDD5CD41 		.ascii	"\335\325\315A\210\276O\037\322\367\217\271f\241\212"
 380      88BE4F1F 
 380      D2F78FB9 
 380      66A18A
 381 09c0 0DB852CA 		.ascii	"\015\270R\312\271\256\204p^\300\207\363\372\223;\236"
 381      B9AE8470 
 381      5EC087F3 
 381      FA933B9E 
 382 09d0 C1B5741A 		.ascii	"\301\265t\032.p5\015/\322ih\314\253\025)\324\276\204"
 382      2E70350D 
 382      2FD26968 
 382      CCAB1529 
 382      D4BE84
 383 09e3 429D76D9 		.ascii	"B\235v\331\370C\033}\377\272\226\207s\353\005\006\367"
 383      F8431B7D 
 383      FFBA9687 
 383      73EB0506 
 383      F7
 384 09f4 BDCCFDC9 		.ascii	"\275\314\375\311HN\303\350\341\245\035\375\204\224-"
 384      484EC3E8 
 384      E1A51DFD 
 384      84942D
 385 0a03 CBA84EEF 		.ascii	"\313\250N\357\224\360\241\245[\306\024Z\013L\023e\021"
 385      94F0A1A5 
 385      5BC6145A 
 385      0B4C1365 
 385      11
 386 0a14 9D286FD0 		.ascii	"\235(o\320\211\262\230\236\227\232\247\213SX\264\231"
 386      89B2989E 
 386      979AA78B 
 386      5358B499 
 387 0a24 C3E2FDBC 		.ascii	"\303\342\375\274\365.s\031}\255f6\273K\256.\372`\217"
 387      F52E7319 
 387      7DAD6636 
 387      BB4BAE2E 
 387      FA608F
 388 0a37 F5307DA9 		.ascii	"\3650}\251\227\317{\344\243l\336\256\242\363\366`\206"
 388      97CF7BE4 
 388      A36CDEAE 
 388      A2F3F660 
 388      86
 389 0a48 71FBF41E 		.ascii	"q\373\364\036\371D_5I\035P\227\224\270\330q\226\331"
 389      F9445F35 
 389      491D5097 
 389      94B8D871 
 389      96D9
 390 0a5a 183DB5C2 		.ascii	"\030=\265\302v?\342\362]tjU\332~\343vj\214u4\322\316"
 390      763FE2F2 
ARM GAS  /tmp/ccFBZKBa.s 			page 30


 390      5D746A55 
 390      DA7EE376 
 390      6A8C7534 
 391 0a70 94D8AF4A 		.ascii	"\224\330\257JY\336i_\246$\0332W%\215\255J\033\\\255"
 391      59DE695F 
 391      A6241B32 
 391      57258DAD 
 391      4A1B5CAD 
 392 0a84 4A076D57 		.ascii	"J\007mW\245\015\371\257Jv\207Y>\011o\242\363\343\037"
 392      A50DF9AF 
 392      4A768759 
 392      3E096FA2 
 392      F3E31F
 393 0a97 D625E4D9 		.ascii	"\326%\344\331\376.l\377k\247HT\265\331\207_\303\272"
 393      FE2E6CFF 
 393      6BA74854 
 393      B5D9875F 
 393      C3BA
 394 0aa9 FC7A1E6A 		.ascii	"\374z\036j\342\361\354\362\220\005\317\354\313:m\325"
 394      E2F1ECF2 
 394      9005CFEC 
 394      CB3A6DD5 
 395 0ab9 61BAAAEA 		.ascii	"a\272\252\3521\372\272\033\341\006;\203mn6\214\333J"
 395      31FABA1B 
 395      E1063B83 
 395      6D6E368C 
 395      DB4A
 396 0acb 2BC43637 		.ascii	"+\30467x#\235\224\255\323:\017\277\306\360\364o1k\362"
 396      78239D94 
 396      ADD33A0F 
 396      BFC6F0F4 
 396      6F316BF2 
 397 0adf C6B3CA77 		.ascii	"\306\263\312w\261\331RP\277\353\006n\224k\337\247\277"
 397      B1D95250 
 397      BFEB066E 
 397      946BDFA7 
 397      BF
 398 0af0 A449781E 		.ascii	"\244Ix\036}1\370\272@\262b+=/\244\347%\364\274\215\236"
 398      7D31F8BA 
 398      40B2622B 
 398      3D2FA4E7 
 398      25F4BC8D 
 399 0b05 77D0F32E 		.ascii	"w\320\363.z\336G\317\307\351\371\024=\177N\317\347\350"
 399      7ADE47CF 
 399      C7E9F914 
 399      3D7F4ECF 
 399      E7E8
 400 0b17 792DCDAE 		.ascii	"y-\315\256\357\322\263F\317[\351\371=znw\223u\271J\374"
 400      EFD2B346 
 400      CF5BE9F9 
 400      3D7A6E77 
 400      9375B94A 
 401 0b2c 56B440ED 		.ascii	"V\264@\355\350\350^\337~vxm\243V\333J\376F\010c\363"
 401      E8E85EDF 
 401      7E76786D 
 401      A356DB4A 
 401      FE460863 
ARM GAS  /tmp/ccFBZKBa.s 			page 31


 402 0b41 E7E23DE9 		.ascii	"\347\342=\351\317\305\226\272\326\361\24327J\302;=\371"
 402      CFC596BA 
 402      D6F1A332 
 402      374AC23B 
 402      3DF9
 403 0b53 7E54DEE5 		.ascii	"~T\336\345\261\377\250l\336U\244G\221\352\226zpy\372"
 403      B1FFA86C 
 403      DE55A447 
 403      91EA967A 
 403      7079FA
 404 0b66 AF223821 		.ascii	"\257\"8!\004\264\217\375\237\203\204a\267b\250\335\274"
 404      04B48FFD 
 404      9F838461 
 404      B762A8DD 
 404      BC
 405 0b77 732FCEAD 		.ascii	"s/\316\255\366\364\324zym6\275\371a\022\356\310[\361"
 405      F6F4D47A 
 405      796D36BD 
 405      F96112EE 
 405      C85BF1
 406 0b8a FD0E8A97 		.ascii	"\375\016\212\227Z\0247FAw\267\207\244-\323\337\363\361"
 406      5A143746 
 406      4177B787 
 406      A42DD3DF 
 406      F3F1
 407 0b9c 5208A8CB 		.ascii	"R\010\250\313Fs\355\3226\325\267J\235\256\366\366>\345"
 407      4673EDD2 
 407      36D5B74A 
 407      9DAEF6F6 
 407      3EE5
 408 0bae A0759581 		.ascii	"\240u\225\201\323?\233\322\334(\011\177\220\267\316"
 408      D33F9BD2 
 408      DC28097F 
 408      90B7CE
 409 0bbd 871D742E 		.ascii	"\207\035t.\261\350|\230\327\331\364\327z\234\020\002"
 409      B1E87C98 
 409      D7D9F4D7 
 409      7A9C1002 
 410 0bcd FADCA272 		.ascii	"\372\334\242r\031\232O2\346\232\235jYY\352\033~\247"
 410      199A4F32 
 410      E69A9D6A 
 410      5959EA1B 
 410      7EA7
 411 0bdf F96F61B8 		.ascii	"\371oa\270\375\357\221,\037\354\217\246\313\011\206"
 411      FDEF912C 
 411      1FEC8FA6 
 411      CB0986
 412 0bee 7BE53955 		.ascii	"{\3459U\020R\270]f\\f\354\315\273\236U\261\332\240\326"
 412      1052B85D 
 412      665C66EC 
 412      CDBB9E55 
 412      B1DAA0D6 
 413 0c02 92BFC682 		.ascii	"\222\277\306\202\371\016&2\264\350\311\022\262\227-"
 413      F90E2632 
 413      B4E8C912 
 413      B2972D
 414 0c11 5A70329E 		.ascii	"Zp2\236\314\"cWZF&AsNw[\213BG\177\363\303$\334\235\267"
ARM GAS  /tmp/ccFBZKBa.s 			page 32


 414      CC226357 
 414      5A462641 
 414      734E775B 
 414      8B42477F 
 415 0c2b C37B1C1C 		.ascii	"\303{\034\034n\376\303\235\364\250\224\251L\177\363"
 415      6EFEC39D 
 415      F4A894A9 
 415      4C7FF3
 416 0c3a C44B21A0 		.ascii	"\304K!\240g\006\230m\205~S^\036\030S\025\232\020zd|"
 416      6706986D 
 416      857E535E 
 416      1E185315 
 416      9A107A64 
 417 0c4f 20960C24 		.ascii	" \226\014$\224@<\226P\222\201\321\217=4\346\241)\201"
 417      94403C96 
 417      509281D1 
 417      8F3D34E6 
 417      A12981
 418 0c62 60553096 		.ascii	"`U0\226\220\305\311\367D\312\253\220\237<\022\303\261"
 418      90C5C9F7 
 418      44CAAB90 
 418      9F3C12C3 
 418      B1
 419 0c73 E013450F 		.ascii	"\340\023E\017<\374x\331\030TLoTG\311\255[2\200B\321"
 419      3CFC78D9 
 419      18544C6F 
 419      5447C9AD 
 419      5B328042 
 420 0c88 60B8BA52 		.ascii	"`\270\272R\006\214\344\324$!\017V\215\237\232|\020\306"
 420      068CE4D4 
 420      24210F56 
 420      8D9F9A7C 
 420      10C6
 421 0c9a 16D3DEE3 		.ascii	"\026\323\336\343\224\356\326\014\272d\"\0104\0219\022"
 421      94EED60C 
 421      BA642208 
 421      34113912 
 422 0caa 8FC5C2C9 		.ascii	"\217\305\302\311\362 \272#\013tjX\025\352\017\375Xb"
 422      F220BA23 
 422      0B746A58 
 422      15EA0FFD 
 422      5862
 423 0cbc AA48AE45 		.ascii	"\252H\256E\245\230\376T\311R\245\234\360\306\253\304"
 423      A598FE54 
 423      C952A59C 
 423      F0C6ABC4 
 424 0ccc A83C45F1 		.ascii	"\250<E\361F\342\364\267\026\007\242\023\223\244\015"
 424      46E2F4B7 
 424      1607A213 
 424      93A40D
 425 0cdb 0F54C522 		.ascii	"\017T\305\"r !'e)\021\254\012TI\211\312\032)!\007\244"
 425      72202127 
 425      652911AC 
 425      0A544989 
 425      CA1A2921 
 426 0cf1 44646860 		.ascii	"Ddh`R08\010:\203\344\310\004\271\262R\256L\335\210\306"
 426      52303808 
ARM GAS  /tmp/ccFBZKBa.s 			page 33


 426      3A83E4C8 
 426      04B9B252 
 426      AE4CDD88 
 427 0d06 A2F22059 		.ascii	"\242\362 Y\232\020\0324L\0349h\350\340!\303\236\034"
 427      9A101A34 
 427      4C1C3968 
 427      E8E021C3 
 427      9E1C
 428 0d18 1A088726 		.ascii	"\032\010\207&\220\001\001\313\200\300\260\362\221\345"
 428      900101CB 
 428      80C0B0F2 
 428      91E5
 429 0d26 C3520227 		.ascii	"\303R\002'\025\300\231\010\302\026%C\177\223Ee\000H"
 429      15C09908 
 429      C2162543 
 429      7F934565 
 429      0048
 430 0d38 149BF057 		.ascii	"\024\233\360W9\250\210\344\306\355\3315%\276\000\332"
 430      39A888E4 
 430      C6EDD935 
 430      25BE00DA 
 431 0d48 12E84E92 		.ascii	"\022\350N\222\225\211\325\321 \350\011\010\361Dlr\010"
 431      9589D5D1 
 431      20E80908 
 431      F1446C72 
 431      08
 432 0d59 F42C0D56 		.ascii	"\364,\015V=\012Z?B\001\307EC\212\020\211\027\020\\\237"
 432      3D0A5A3F 
 432      4201C745 
 432      438A1089 
 432      17105C9F 
 433 0d6d 31A2441F 		.ascii	"1\242D\0371:\014\246\037Wl\272`\375\373\023\262<\256"
 433      313A0CA6 
 433      1F576CBA 
 433      60FDFB13 
 433      B23CAE
 434 0d80 00248AF7 		.ascii	"\000$\212\367K\337\360\263q\225\225\327\350\275\007"
 434      4BDFF0B3 
 434      719595D7 
 434      E8BD07
 435 0d8f 6352E5E8 		.ascii	"cR\345\350DB\232\212\3438\232\3741li\265\241\311z\241"
 435      44429A8A 
 435      E3389AFC 
 435      316C69B5 
 435      A1C97AA1 
 436 0da3 A80216F0 		.ascii	"\250\002\026\360U\303\357\335CE\245\376G\361\244=\367"
 436      55C3EFDD 
 436      4345A5FE 
 436      47F1A43D 
 436      F7
 437 0db4 8814AC0A 		.ascii	"\210\024\254\012E\345\200\010\036\224\252\303\212\250"
 437      45E58008 
 437      1E94AAC3 
 437      8AA8
 438 0dc2 4C8DCB24 		.ascii	"L\215\313$\360\372\211\242!OA\020\370\226[\275\010\001"
 438      F0FA89A2 
 438      214F4110 
ARM GAS  /tmp/ccFBZKBa.s 			page 34


 438      F8965BBD 
 438      0801
 439 0dd4 1718F3D0 		.ascii	"\027\030\363\320\370q\343\323\316$s*\030\271\037\034"
 439      F871E3D3 
 439      CE24732A 
 439      18B91F1C 
 440 0de4 48E25614 		.ascii	"H\342V\024\223\262\"\376~\364\370?>\372\330\270\376"
 440      93B222FE 
 440      7EF4F83F 
 440      3EFAD8B8 
 440      FE
 441 0df5 52B8469A 		.ascii	"R\270F\232\232\024C\32100+\234,\205\253\345l\023\000"
 441      9A1443D1 
 441      30302B9C 
 441      2C85ABE5 
 441      6C1300
 442 0e08 E6962187 		.ascii	"\346\226!\207O\251J@\274\213\0128L\324\373\231\263\313"
 442      4FA94A40 
 442      BC8B0A38 
 442      4CD4FB99 
 442      B3CB
 443 0e1a 4419ACAA 		.ascii	"D\031\254\252$\221\250\317\211\"\022F\362\344\0219\362"
 443      2491A8CF 
 443      89221246 
 443      F2E41139 
 443      F2
 444 0e2b 412C120F 		.ascii	"A,\022\017\205\345D2\360\300\2301\200a\260\366*\361"
 444      85E54432 
 444      F0C09831 
 444      8061B0F6 
 444      2AF1
 445 0e3d 442826EA 		.ascii	"D(&\352(\241\2307\030\213*\000\372+7\331\005\310\365"
 445      28A19837 
 445      188B2A00 
 445      FA2B37D9 
 445      05C8F5
 446 0e50 4402360C 		.ascii	"D\0026\014*S|\011y\0228@T\204\3040!1\\H\214\020\022"
 446      2A537C09 
 446      79123840 
 446      5484C430 
 446      21315C48 
 447 0e67 F7088991 		.ascii	"\367\010\211\221B\342^Ob\310`hC\204p\002~\356.\214\213"
 447      42E25E4F 
 447      62C86068 
 447      43847002 
 447      7EEE2E8C 
 448 0e7c 30DE4BE4 		.ascii	"0\336K\344\257!\223\\\214\205!\304\211>RD\356\227T\236"
 448      AF21935C 
 448      8C8521C4 
 448      893E5244 
 448      EE97549E 
 449 0e90 90C2A149 		.ascii	"\220\302\241IQQ\241\3212b\230\2500G\321n\\\204\001\341"
 449      5151A1D1 
 449      326298A8 
 449      3047D16E 
 449      5C8401E1 
 450 0ea4 5024A4F8 		.ascii	"P$\244\370\224\244\")0\031\275\344\341H0\237>\014z^"
ARM GAS  /tmp/ccFBZKBa.s 			page 35


 450      94A42229 
 450      3019BDE4 
 450      E148309F 
 450      3E0C7A5E 
 451 0eb8 320A9E79 		.ascii	"2\012\236y\225H\254R\246\327\023\303\322\244\244WI\310"
 451      9548AC52 
 451      A6D713C3 
 451      D2A4A457 
 451      49C8
 452 0eca 1393545D 		.ascii	"\023\223T]\322)\214$'\301C\026\003@\316zE\211\312\251"
 452      D2298C24 
 452      27C14316 
 452      0340CE7A 
 452      4589CAA9 
 453 0ede F0C8274F 		.ascii	"\360\310'O\011)A\000(\252Q\310\324\272\216\371\011H"
 453      09294100 
 453      28AA51C8 
 453      D4BA8EF9 
 453      0948
 454 0ef0 E5841C0D 		.ascii	"\345\204\034\015\002pa\215\242$\342\336\244\034U\200"
 454      0270618D 
 454      A224E2DE 
 454      A41C5580 
 455 0f00 00662984 		.ascii	"\000f)\204DD\212W\201y\262&V\231\344\345kt\274\244\370"
 455      44448A57 
 455      8179B226 
 455      5699E4E5 
 455      6B74BCA4 
 456 0f15 64B55C0D 		.ascii	"d\265\\\015`\245)\367\263[^\366[\030\214B\324\026&E"
 456      60A529F7 
 456      B35B5EF6 
 456      5B188C42 
 456      D4162645 
 457 0f29 F8055980 		.ascii	"\370\005Y\200:\356\203\261\221j\360U66\021e\012\361"
 457      3AEE83B1 
 457      916AF055 
 457      36361165 
 457      0AF1
 458 0f3b 7184A145 		.ascii	"q\204\241E\304XM\024\014N\351@\313\210\036@5\012\214"
 458      C4584D14 
 458      0C4EE940 
 458      CB881E40 
 458      350A8C
 459 0f4e 8B17CB93 		.ascii	"\213\027\313\223\211\022R\362\011x\"\327\220\216'.V"
 459      891252F2 
 459      097822D7 
 459      908E272E 
 459      56
 460 0f5f 0F30040A 		.ascii	"\0170\004\012\207\222 \3035&\021\311\035\177\\\254\221"
 460      879220C3 
 460      352611C9 
 460      1D7F5CAC 
 460      91
 461 0f70 424A283A 		.ascii	"BJ(:\011\034\003\026\240\214\240+\307\345(\314\371I"
 461      091C0316 
 461      A08CA02B 
 461      C7E528CC 
ARM GAS  /tmp/ccFBZKBa.s 			page 36


 461      F949
 462 0f82 F01CC0C9 		.ascii	"\360\034\300\311\310~\304\344R\230F\031\334$Y\336'\212"
 462      C87EC4E4 
 462      52984619 
 462      DC2459DE 
 462      278A
 463 0f94 34178AFD 		.ascii	"4\027\212\375\215N\371\360{\006\017I"
 463      8D4EF9F0 
 463      7B060F49 
 464 0fa0 5F8DB8FB 		.ascii	"_\215\270\373\336\221\246\253aC\206\232\257\206Z\256"
 464      DE91A6AB 
 464      6143869A 
 464      AF865AAE 
 465 0fb0 060FFB1F 		.ascii	"\006\017\373\037\245\025\020\216"
 465      A515108E 
 466              		.text
 467              		.section	.gnu.lto_.symtab.2741d1f968d67b18,"",%progbits
 468 0000 6368506F 		.ascii	"chPoolObjectInit\000\000\000\000\000\000\000\000\000"
 468      6F6C4F62 
 468      6A656374 
 468      496E6974 
 468      00000000 
 469 0019 000000AF 		.ascii	"\000\000\000\257\000\000\000chPoolAllocI\000\000\000"
 469      00000063 
 469      68506F6F 
 469      6C416C6C 
 469      6F634900 
 470 002f 00000000 		.ascii	"\000\000\000\000\000\000\000\000\000\327\000\000\000"
 470      00000000 
 470      00D70000 
 470      00
 471 003c 6368506F 		.ascii	"chPoolAlloc\000\000\000\000\000\000\000\000\000\000"
 471      6F6C416C 
 471      6C6F6300 
 471      00000000 
 471      00000000 
 472 0051 0000DD00 		.ascii	"\000\000\335\000\000\000chPoolFreeI\000\000\000\000"
 472      00006368 
 472      506F6F6C 
 472      46726565 
 472      49000000 
 473 0066 00000000 		.ascii	"\000\000\000\000\000\000\000\000\341\000\000\000chP"
 473      00000000 
 473      E1000000 
 473      636850
 474 0075 6F6F6C46 		.ascii	"oolFree\000\000\000\000\000\000\000\000\000\000\000"
 474      72656500 
 474      00000000 
 474      00000000 
 474      0000
 475 0087 00EA0000 		.ascii	"\000\352\000\000\000chPoolLoadArray\000\000\000\000"
 475      00636850 
 475      6F6F6C4C 
 475      6F616441 
 475      72726179 
 476 009f 00000000 		.ascii	"\000\000\000\000\000\000\000\000\364\000\000\000"
 476      00000000 
ARM GAS  /tmp/ccFBZKBa.s 			page 37


 476      F4000000 
 477              		.text
 478              		.section	.gnu.lto_.opts,"",%progbits
 479 0000 272D6D63 		.ascii	"'-mcpu=cortex-m4' '-mno-thumb-interwork' '-mthumb' "
 479      70753D63 
 479      6F727465 
 479      782D6D34 
 479      2720272D 
 480 0033 272D6767 		.ascii	"'-ggdb' '-O0' '-fomit-frame-pointer' '-falign-funct"
 480      64622720 
 480      272D4F30 
 480      2720272D 
 480      666F6D69 
 481 0066 696F6E73 		.ascii	"ions=16' '-ffunction-sections' '-fdata-sections' '-"
 481      3D313627 
 481      20272D66 
 481      66756E63 
 481      74696F6E 
 482 0099 666E6F2D 		.ascii	"fno-common' '-flto'\000"
 482      636F6D6D 
 482      6F6E2720 
 482      272D666C 
 482      746F2700 
 483              		.text
 484              		.cfi_sections	.debug_frame
 485              		.section	.text.port_lock,"ax",%progbits
 486              		.align	2
 487              		.p2align 4,,15
 488              		.thumb
 489              		.thumb_func
 490              		.type	port_lock, %function
 491              	port_lock:
 492              	.LFB127:
 493              		.file 1 "../ChibiOS/os/rt/ports/ARMCMx/chcore_v7m.h"
 494              		.loc 1 456 0
 495              		.cfi_startproc
 496              		@ args = 0, pretend = 0, frame = 8
 497              		@ frame_needed = 0, uses_anonymous_args = 0
 498              		@ link register save eliminated.
 499 0000 82B0     		sub	sp, sp, #8
 500              		.cfi_def_cfa_offset 8
 501 0002 2023     		movs	r3, #32
 502 0004 0193     		str	r3, [sp, #4]
 503              	.LBB6:
 504              	.LBB7:
 505              		.file 2 "../ChibiOS/os/ext/CMSIS/include/core_cmFunc.h"
 506              		.loc 2 548 0
 507 0006 019B     		ldr	r3, [sp, #4]
 508              	@ 548 "../ChibiOS/os/ext/CMSIS/include/core_cmFunc.h" 1
 509 0008 83F31188 		MSR basepri, r3
 510              	@ 0 "" 2
 511              		.thumb
 512              	.LBE7:
 513              	.LBE6:
 514              		.loc 1 473 0
 515 000c 02B0     		add	sp, sp, #8
 516              		@ sp needed
ARM GAS  /tmp/ccFBZKBa.s 			page 38


 517 000e 7047     		bx	lr
 518              		.cfi_endproc
 519              	.LFE127:
 520              		.size	port_lock, .-port_lock
 521              		.section	.text.port_unlock,"ax",%progbits
 522              		.align	2
 523              		.p2align 4,,15
 524              		.thumb
 525              		.thumb_func
 526              		.type	port_unlock, %function
 527              	port_unlock:
 528              	.LFB128:
 529              		.loc 1 480 0
 530              		.cfi_startproc
 531              		@ args = 0, pretend = 0, frame = 8
 532              		@ frame_needed = 0, uses_anonymous_args = 0
 533              		@ link register save eliminated.
 534 0000 82B0     		sub	sp, sp, #8
 535              		.cfi_def_cfa_offset 8
 536 0002 0023     		movs	r3, #0
 537 0004 0193     		str	r3, [sp, #4]
 538              	.LBB8:
 539              	.LBB9:
 540              		.loc 2 548 0
 541 0006 019B     		ldr	r3, [sp, #4]
 542              	@ 548 "../ChibiOS/os/ext/CMSIS/include/core_cmFunc.h" 1
 543 0008 83F31188 		MSR basepri, r3
 544              	@ 0 "" 2
 545              		.thumb
 546              	.LBE9:
 547              	.LBE8:
 548              		.loc 1 487 0
 549 000c 02B0     		add	sp, sp, #8
 550              		@ sp needed
 551 000e 7047     		bx	lr
 552              		.cfi_endproc
 553              	.LFE128:
 554              		.size	port_unlock, .-port_unlock
 555              		.section	.text.chSysLock,"ax",%progbits
 556              		.align	2
 557              		.p2align 4,,15
 558              		.thumb
 559              		.thumb_func
 560              		.type	chSysLock, %function
 561              	chSysLock:
 562              	.LFB167:
 563              		.file 3 "../ChibiOS/os/rt/include/chsys.h"
 564              		.loc 3 346 0
 565              		.cfi_startproc
 566              		@ args = 0, pretend = 0, frame = 0
 567              		@ frame_needed = 0, uses_anonymous_args = 0
 568 0000 08B5     		push	{r3, lr}
 569              		.cfi_def_cfa_offset 8
 570              		.cfi_offset 3, -8
 571              		.cfi_offset 14, -4
 572              		.loc 3 348 0
 573 0002 FFF7FEFF 		bl	port_lock
ARM GAS  /tmp/ccFBZKBa.s 			page 39


 574              		.loc 3 351 0
 575 0006 08BD     		pop	{r3, pc}
 576              		.cfi_endproc
 577              	.LFE167:
 578              		.size	chSysLock, .-chSysLock
 579              		.section	.text.chSysUnlock,"ax",%progbits
 580              		.align	2
 581              		.p2align 4,,15
 582              		.thumb
 583              		.thumb_func
 584              		.type	chSysUnlock, %function
 585              	chSysUnlock:
 586              	.LFB168:
 587              		.loc 3 358 0
 588              		.cfi_startproc
 589              		@ args = 0, pretend = 0, frame = 0
 590              		@ frame_needed = 0, uses_anonymous_args = 0
 591 0000 08B5     		push	{r3, lr}
 592              		.cfi_def_cfa_offset 8
 593              		.cfi_offset 3, -8
 594              		.cfi_offset 14, -4
 595              		.loc 3 371 0
 596 0002 FFF7FEFF 		bl	port_unlock
 597              		.loc 3 372 0
 598 0006 08BD     		pop	{r3, pc}
 599              		.cfi_endproc
 600              	.LFE168:
 601              		.size	chSysUnlock, .-chSysUnlock
 602 0008 AFF30080 		.section	.text.chPoolAdd,"ax",%progbits
 602      AFF30080 
 603              		.align	2
 604              		.p2align 4,,15
 605              		.thumb
 606              		.thumb_func
 607              		.type	chPoolAdd, %function
 608              	chPoolAdd:
 609              	.LFB229:
 610              		.file 4 "../ChibiOS/os/rt/include/chmempools.h"
 611              		.loc 4 137 0
 612              		.cfi_startproc
 613              		@ args = 0, pretend = 0, frame = 8
 614              		@ frame_needed = 0, uses_anonymous_args = 0
 615 0000 00B5     		push	{lr}
 616              		.cfi_def_cfa_offset 4
 617              		.cfi_offset 14, -4
 618 0002 83B0     		sub	sp, sp, #12
 619              		.cfi_def_cfa_offset 16
 620 0004 0190     		str	r0, [sp, #4]
 621 0006 0091     		str	r1, [sp]
 622              		.loc 4 139 0
 623 0008 0198     		ldr	r0, [sp, #4]
 624 000a 0099     		ldr	r1, [sp]
 625 000c FFF7FEFF 		bl	chPoolFree
 626              		.loc 4 140 0
 627 0010 03B0     		add	sp, sp, #12
 628              		@ sp needed
 629 0012 5DF804FB 		ldr	pc, [sp], #4
ARM GAS  /tmp/ccFBZKBa.s 			page 40


 630              		.cfi_endproc
 631              	.LFE229:
 632              		.size	chPoolAdd, .-chPoolAdd
 633 0016 00BFAFF3 		.section	.text.chPoolObjectInit,"ax",%progbits
 633      0080AFF3 
 633      0080
 634              		.align	2
 635              		.p2align 4,,15
 636              		.global	chPoolObjectInit
 637              		.thumb
 638              		.thumb_func
 639              		.type	chPoolObjectInit, %function
 640              	chPoolObjectInit:
 641              	.LFB241:
 642              		.file 5 "../ChibiOS/os/rt/src/chmempools.c"
 643              		.loc 5 75 0
 644              		.cfi_startproc
 645              		@ args = 0, pretend = 0, frame = 16
 646              		@ frame_needed = 0, uses_anonymous_args = 0
 647              		@ link register save eliminated.
 648 0000 84B0     		sub	sp, sp, #16
 649              		.cfi_def_cfa_offset 16
 650 0002 0390     		str	r0, [sp, #12]
 651 0004 0291     		str	r1, [sp, #8]
 652 0006 0192     		str	r2, [sp, #4]
 653              		.loc 5 79 0
 654 0008 039B     		ldr	r3, [sp, #12]
 655 000a 0022     		movs	r2, #0
 656 000c 1A60     		str	r2, [r3]
 657              		.loc 5 80 0
 658 000e 039B     		ldr	r3, [sp, #12]
 659 0010 029A     		ldr	r2, [sp, #8]
 660 0012 5A60     		str	r2, [r3, #4]
 661              		.loc 5 81 0
 662 0014 039B     		ldr	r3, [sp, #12]
 663 0016 019A     		ldr	r2, [sp, #4]
 664 0018 9A60     		str	r2, [r3, #8]
 665              		.loc 5 82 0
 666 001a 04B0     		add	sp, sp, #16
 667              		@ sp needed
 668 001c 7047     		bx	lr
 669              		.cfi_endproc
 670              	.LFE241:
 671              		.size	chPoolObjectInit, .-chPoolObjectInit
 672 001e 00BF     		.section	.text.chPoolLoadArray,"ax",%progbits
 673              		.align	2
 674              		.p2align 4,,15
 675              		.global	chPoolLoadArray
 676              		.thumb
 677              		.thumb_func
 678              		.type	chPoolLoadArray, %function
 679              	chPoolLoadArray:
 680              	.LFB242:
 681              		.loc 5 97 0
 682              		.cfi_startproc
 683              		@ args = 0, pretend = 0, frame = 16
 684              		@ frame_needed = 0, uses_anonymous_args = 0
ARM GAS  /tmp/ccFBZKBa.s 			page 41


 685 0000 00B5     		push	{lr}
 686              		.cfi_def_cfa_offset 4
 687              		.cfi_offset 14, -4
 688 0002 85B0     		sub	sp, sp, #20
 689              		.cfi_def_cfa_offset 24
 690 0004 0390     		str	r0, [sp, #12]
 691 0006 0291     		str	r1, [sp, #8]
 692 0008 0192     		str	r2, [sp, #4]
 693              		.loc 5 101 0
 694 000a 0BE0     		b	.L8
 695              	.L9:
 696              		.loc 5 102 0
 697 000c 0398     		ldr	r0, [sp, #12]
 698 000e 0299     		ldr	r1, [sp, #8]
 699 0010 FFF7FEFF 		bl	chPoolAdd
 700              		.loc 5 104 0
 701 0014 039B     		ldr	r3, [sp, #12]
 702 0016 5B68     		ldr	r3, [r3, #4]
 703 0018 029A     		ldr	r2, [sp, #8]
 704 001a 1344     		add	r3, r3, r2
 705 001c 0293     		str	r3, [sp, #8]
 706              		.loc 5 106 0
 707 001e 019B     		ldr	r3, [sp, #4]
 708 0020 013B     		subs	r3, r3, #1
 709 0022 0193     		str	r3, [sp, #4]
 710              	.L8:
 711              		.loc 5 101 0 discriminator 1
 712 0024 019B     		ldr	r3, [sp, #4]
 713 0026 002B     		cmp	r3, #0
 714 0028 F0D1     		bne	.L9
 715              		.loc 5 108 0
 716 002a 05B0     		add	sp, sp, #20
 717              		@ sp needed
 718 002c 5DF804FB 		ldr	pc, [sp], #4
 719              		.cfi_endproc
 720              	.LFE242:
 721              		.size	chPoolLoadArray, .-chPoolLoadArray
 722              		.section	.text.chPoolAllocI,"ax",%progbits
 723              		.align	2
 724              		.p2align 4,,15
 725              		.global	chPoolAllocI
 726              		.thumb
 727              		.thumb_func
 728              		.type	chPoolAllocI, %function
 729              	chPoolAllocI:
 730              	.LFB243:
 731              		.loc 5 120 0
 732              		.cfi_startproc
 733              		@ args = 0, pretend = 0, frame = 16
 734              		@ frame_needed = 0, uses_anonymous_args = 0
 735 0000 00B5     		push	{lr}
 736              		.cfi_def_cfa_offset 4
 737              		.cfi_offset 14, -4
 738 0002 85B0     		sub	sp, sp, #20
 739              		.cfi_def_cfa_offset 24
 740 0004 0190     		str	r0, [sp, #4]
 741              		.loc 5 126 0
ARM GAS  /tmp/ccFBZKBa.s 			page 42


 742 0006 019B     		ldr	r3, [sp, #4]
 743 0008 1B68     		ldr	r3, [r3]
 744 000a 0393     		str	r3, [sp, #12]
 745              		.loc 5 128 0
 746 000c 039B     		ldr	r3, [sp, #12]
 747 000e 002B     		cmp	r3, #0
 748 0010 05D0     		beq	.L11
 749              		.loc 5 129 0
 750 0012 019B     		ldr	r3, [sp, #4]
 751 0014 1B68     		ldr	r3, [r3]
 752 0016 1A68     		ldr	r2, [r3]
 753 0018 019B     		ldr	r3, [sp, #4]
 754 001a 1A60     		str	r2, [r3]
 755 001c 0AE0     		b	.L12
 756              	.L11:
 757              		.loc 5 131 0
 758 001e 019B     		ldr	r3, [sp, #4]
 759 0020 9B68     		ldr	r3, [r3, #8]
 760 0022 002B     		cmp	r3, #0
 761 0024 06D0     		beq	.L12
 762              		.loc 5 132 0
 763 0026 019B     		ldr	r3, [sp, #4]
 764 0028 9B68     		ldr	r3, [r3, #8]
 765 002a 019A     		ldr	r2, [sp, #4]
 766 002c 5268     		ldr	r2, [r2, #4]
 767 002e 1046     		mov	r0, r2
 768 0030 9847     		blx	r3
 769 0032 0390     		str	r0, [sp, #12]
 770              	.L12:
 771              		.loc 5 136 0
 772 0034 039B     		ldr	r3, [sp, #12]
 773              		.loc 5 137 0
 774 0036 1846     		mov	r0, r3
 775 0038 05B0     		add	sp, sp, #20
 776              		@ sp needed
 777 003a 5DF804FB 		ldr	pc, [sp], #4
 778              		.cfi_endproc
 779              	.LFE243:
 780              		.size	chPoolAllocI, .-chPoolAllocI
 781 003e 00BF     		.section	.text.chPoolAlloc,"ax",%progbits
 782              		.align	2
 783              		.p2align 4,,15
 784              		.global	chPoolAlloc
 785              		.thumb
 786              		.thumb_func
 787              		.type	chPoolAlloc, %function
 788              	chPoolAlloc:
 789              	.LFB244:
 790              		.loc 5 149 0
 791              		.cfi_startproc
 792              		@ args = 0, pretend = 0, frame = 16
 793              		@ frame_needed = 0, uses_anonymous_args = 0
 794 0000 00B5     		push	{lr}
 795              		.cfi_def_cfa_offset 4
 796              		.cfi_offset 14, -4
 797 0002 85B0     		sub	sp, sp, #20
 798              		.cfi_def_cfa_offset 24
ARM GAS  /tmp/ccFBZKBa.s 			page 43


 799 0004 0190     		str	r0, [sp, #4]
 800              		.loc 5 152 0
 801 0006 FFF7FEFF 		bl	chSysLock
 802              		.loc 5 153 0
 803 000a 0198     		ldr	r0, [sp, #4]
 804 000c FFF7FEFF 		bl	chPoolAllocI
 805 0010 0390     		str	r0, [sp, #12]
 806              		.loc 5 154 0
 807 0012 FFF7FEFF 		bl	chSysUnlock
 808              		.loc 5 156 0
 809 0016 039B     		ldr	r3, [sp, #12]
 810              		.loc 5 157 0
 811 0018 1846     		mov	r0, r3
 812 001a 05B0     		add	sp, sp, #20
 813              		@ sp needed
 814 001c 5DF804FB 		ldr	pc, [sp], #4
 815              		.cfi_endproc
 816              	.LFE244:
 817              		.size	chPoolAlloc, .-chPoolAlloc
 818              		.section	.text.chPoolFreeI,"ax",%progbits
 819              		.align	2
 820              		.p2align 4,,15
 821              		.global	chPoolFreeI
 822              		.thumb
 823              		.thumb_func
 824              		.type	chPoolFreeI, %function
 825              	chPoolFreeI:
 826              	.LFB245:
 827              		.loc 5 171 0
 828              		.cfi_startproc
 829              		@ args = 0, pretend = 0, frame = 16
 830              		@ frame_needed = 0, uses_anonymous_args = 0
 831              		@ link register save eliminated.
 832 0000 84B0     		sub	sp, sp, #16
 833              		.cfi_def_cfa_offset 16
 834 0002 0190     		str	r0, [sp, #4]
 835 0004 0091     		str	r1, [sp]
 836              		.loc 5 172 0
 837 0006 009B     		ldr	r3, [sp]
 838 0008 0393     		str	r3, [sp, #12]
 839              		.loc 5 177 0
 840 000a 019B     		ldr	r3, [sp, #4]
 841 000c 1A68     		ldr	r2, [r3]
 842 000e 039B     		ldr	r3, [sp, #12]
 843 0010 1A60     		str	r2, [r3]
 844              		.loc 5 178 0
 845 0012 019B     		ldr	r3, [sp, #4]
 846 0014 039A     		ldr	r2, [sp, #12]
 847 0016 1A60     		str	r2, [r3]
 848              		.loc 5 179 0
 849 0018 04B0     		add	sp, sp, #16
 850              		@ sp needed
 851 001a 7047     		bx	lr
 852              		.cfi_endproc
 853              	.LFE245:
 854              		.size	chPoolFreeI, .-chPoolFreeI
 855 001c AFF30080 		.section	.text.chPoolFree,"ax",%progbits
ARM GAS  /tmp/ccFBZKBa.s 			page 44


 856              		.align	2
 857              		.p2align 4,,15
 858              		.global	chPoolFree
 859              		.thumb
 860              		.thumb_func
 861              		.type	chPoolFree, %function
 862              	chPoolFree:
 863              	.LFB246:
 864              		.loc 5 193 0
 865              		.cfi_startproc
 866              		@ args = 0, pretend = 0, frame = 8
 867              		@ frame_needed = 0, uses_anonymous_args = 0
 868 0000 00B5     		push	{lr}
 869              		.cfi_def_cfa_offset 4
 870              		.cfi_offset 14, -4
 871 0002 83B0     		sub	sp, sp, #12
 872              		.cfi_def_cfa_offset 16
 873 0004 0190     		str	r0, [sp, #4]
 874 0006 0091     		str	r1, [sp]
 875              		.loc 5 195 0
 876 0008 FFF7FEFF 		bl	chSysLock
 877              		.loc 5 196 0
 878 000c 0198     		ldr	r0, [sp, #4]
 879 000e 0099     		ldr	r1, [sp]
 880 0010 FFF7FEFF 		bl	chPoolFreeI
 881              		.loc 5 197 0
 882 0014 FFF7FEFF 		bl	chSysUnlock
 883              		.loc 5 198 0
 884 0018 03B0     		add	sp, sp, #12
 885              		@ sp needed
 886 001a 5DF804FB 		ldr	pc, [sp], #4
 887              		.cfi_endproc
 888              	.LFE246:
 889              		.size	chPoolFree, .-chPoolFree
 890 001e 00BF     		.text
 891              	.Letext0:
 892              		.file 6 "/nfs/nfs5/home/research/hardware/arm2/gcc-arm-embedded/gcc-arm-none-eabi-4_8-2014q2/lib/g
 893              		.file 7 "/nfs/nfs5/home/research/hardware/arm2/gcc-arm-embedded/gcc-arm-none-eabi-4_8-2014q2/arm-n
 894              		.file 8 "/nfs/nfs5/home/research/hardware/arm2/gcc-arm-embedded/gcc-arm-none-eabi-4_8-2014q2/arm-n
 895              		.file 9 "../ChibiOS/os/rt/ports/ARMCMx/compilers/GCC/chtypes.h"
 896              		.file 10 "../ChibiOS/os/rt/include/chsystypes.h"
 897              		.file 11 "../ChibiOS/os/rt/include/chschd.h"
 898              		.file 12 "../ChibiOS/os/rt/ports/ARMCMx/chcore.h"
 899              		.file 13 "../ChibiOS/os/rt/include/chtm.h"
 900              		.file 14 "../ChibiOS/os/rt/include/chsem.h"
 901              		.file 15 "../ChibiOS/os/rt/include/chmtx.h"
 902              		.file 16 "../ChibiOS/os/rt/include/chmemcore.h"
 903              		.file 17 "../ChibiOS/os/ext/CMSIS/include/core_cm4.h"
 904              		.section	.debug_info,"",%progbits
 905              	.Ldebug_info0:
 906 0000 76090000 		.4byte	0x976
 907 0004 0400     		.2byte	0x4
 908 0006 00000000 		.4byte	.Ldebug_abbrev0
 909 000a 04       		.byte	0x4
 910 000b 01       		.uleb128 0x1
 911 000c C5010000 		.4byte	.LASF129
 912 0010 01       		.byte	0x1
ARM GAS  /tmp/ccFBZKBa.s 			page 45


 913 0011 E0020000 		.4byte	.LASF130
 914 0015 41050000 		.4byte	.LASF131
 915 0019 00000000 		.4byte	.Ldebug_ranges0+0
 916 001d 00000000 		.4byte	0
 917 0021 00000000 		.4byte	.Ldebug_line0
 918 0025 02       		.uleb128 0x2
 919 0026 04       		.byte	0x4
 920 0027 05       		.byte	0x5
 921 0028 696E7400 		.ascii	"int\000"
 922 002c 03       		.uleb128 0x3
 923 002d 0D000000 		.4byte	.LASF2
 924 0031 06       		.byte	0x6
 925 0032 D4       		.byte	0xd4
 926 0033 37000000 		.4byte	0x37
 927 0037 04       		.uleb128 0x4
 928 0038 04       		.byte	0x4
 929 0039 07       		.byte	0x7
 930 003a A5020000 		.4byte	.LASF0
 931 003e 04       		.uleb128 0x4
 932 003f 01       		.byte	0x1
 933 0040 06       		.byte	0x6
 934 0041 E5000000 		.4byte	.LASF1
 935 0045 03       		.uleb128 0x3
 936 0046 24000000 		.4byte	.LASF3
 937 004a 07       		.byte	0x7
 938 004b 1C       		.byte	0x1c
 939 004c 50000000 		.4byte	0x50
 940 0050 04       		.uleb128 0x4
 941 0051 01       		.byte	0x1
 942 0052 08       		.byte	0x8
 943 0053 8C040000 		.4byte	.LASF4
 944 0057 04       		.uleb128 0x4
 945 0058 02       		.byte	0x2
 946 0059 05       		.byte	0x5
 947 005a A4040000 		.4byte	.LASF5
 948 005e 04       		.uleb128 0x4
 949 005f 02       		.byte	0x2
 950 0060 07       		.byte	0x7
 951 0061 4E010000 		.4byte	.LASF6
 952 0065 03       		.uleb128 0x3
 953 0066 69030000 		.4byte	.LASF7
 954 006a 07       		.byte	0x7
 955 006b 37       		.byte	0x37
 956 006c 70000000 		.4byte	0x70
 957 0070 04       		.uleb128 0x4
 958 0071 04       		.byte	0x4
 959 0072 05       		.byte	0x5
 960 0073 24010000 		.4byte	.LASF8
 961 0077 03       		.uleb128 0x3
 962 0078 D1050000 		.4byte	.LASF9
 963 007c 07       		.byte	0x7
 964 007d 38       		.byte	0x38
 965 007e 82000000 		.4byte	0x82
 966 0082 04       		.uleb128 0x4
 967 0083 04       		.byte	0x4
 968 0084 07       		.byte	0x7
 969 0085 8C050000 		.4byte	.LASF10
ARM GAS  /tmp/ccFBZKBa.s 			page 46


 970 0089 04       		.uleb128 0x4
 971 008a 08       		.byte	0x8
 972 008b 05       		.byte	0x5
 973 008c D7000000 		.4byte	.LASF11
 974 0090 03       		.uleb128 0x3
 975 0091 2C040000 		.4byte	.LASF12
 976 0095 07       		.byte	0x7
 977 0096 4E       		.byte	0x4e
 978 0097 9B000000 		.4byte	0x9b
 979 009b 04       		.uleb128 0x4
 980 009c 08       		.byte	0x8
 981 009d 07       		.byte	0x7
 982 009e 69000000 		.4byte	.LASF13
 983 00a2 03       		.uleb128 0x3
 984 00a3 44060000 		.4byte	.LASF14
 985 00a7 08       		.byte	0x8
 986 00a8 2A       		.byte	0x2a
 987 00a9 45000000 		.4byte	0x45
 988 00ad 03       		.uleb128 0x3
 989 00ae 84040000 		.4byte	.LASF15
 990 00b2 08       		.byte	0x8
 991 00b3 41       		.byte	0x41
 992 00b4 65000000 		.4byte	0x65
 993 00b8 03       		.uleb128 0x3
 994 00b9 10050000 		.4byte	.LASF16
 995 00bd 08       		.byte	0x8
 996 00be 42       		.byte	0x42
 997 00bf 77000000 		.4byte	0x77
 998 00c3 03       		.uleb128 0x3
 999 00c4 1B000000 		.4byte	.LASF17
 1000 00c8 08       		.byte	0x8
 1001 00c9 4E       		.byte	0x4e
 1002 00ca 90000000 		.4byte	0x90
 1003 00ce 03       		.uleb128 0x3
 1004 00cf 0C060000 		.4byte	.LASF18
 1005 00d3 09       		.byte	0x9
 1006 00d4 39       		.byte	0x39
 1007 00d5 B8000000 		.4byte	0xb8
 1008 00d9 03       		.uleb128 0x3
 1009 00da 36030000 		.4byte	.LASF19
 1010 00de 09       		.byte	0x9
 1011 00df 3C       		.byte	0x3c
 1012 00e0 A2000000 		.4byte	0xa2
 1013 00e4 03       		.uleb128 0x3
 1014 00e5 2D010000 		.4byte	.LASF20
 1015 00e9 09       		.byte	0x9
 1016 00ea 3D       		.byte	0x3d
 1017 00eb A2000000 		.4byte	0xa2
 1018 00ef 03       		.uleb128 0x3
 1019 00f0 3F040000 		.4byte	.LASF21
 1020 00f4 09       		.byte	0x9
 1021 00f5 3E       		.byte	0x3e
 1022 00f6 A2000000 		.4byte	0xa2
 1023 00fa 03       		.uleb128 0x3
 1024 00fb 5E040000 		.4byte	.LASF22
 1025 00ff 09       		.byte	0x9
 1026 0100 40       		.byte	0x40
ARM GAS  /tmp/ccFBZKBa.s 			page 47


 1027 0101 B8000000 		.4byte	0xb8
 1028 0105 03       		.uleb128 0x3
 1029 0106 1A030000 		.4byte	.LASF23
 1030 010a 09       		.byte	0x9
 1031 010b 41       		.byte	0x41
 1032 010c AD000000 		.4byte	0xad
 1033 0110 03       		.uleb128 0x3
 1034 0111 5D030000 		.4byte	.LASF24
 1035 0115 09       		.byte	0x9
 1036 0116 43       		.byte	0x43
 1037 0117 B8000000 		.4byte	0xb8
 1038 011b 03       		.uleb128 0x3
 1039 011c BF010000 		.4byte	.LASF25
 1040 0120 09       		.byte	0x9
 1041 0121 45       		.byte	0x45
 1042 0122 AD000000 		.4byte	0xad
 1043 0126 03       		.uleb128 0x3
 1044 0127 B3050000 		.4byte	.LASF26
 1045 012b 0A       		.byte	0xa
 1046 012c 33       		.byte	0x33
 1047 012d B8000000 		.4byte	0xb8
 1048 0131 03       		.uleb128 0x3
 1049 0132 A3050000 		.4byte	.LASF27
 1050 0136 0A       		.byte	0xa
 1051 0137 3F       		.byte	0x3f
 1052 0138 3C010000 		.4byte	0x13c
 1053 013c 05       		.uleb128 0x5
 1054 013d 10030000 		.4byte	.LASF47
 1055 0141 44       		.byte	0x44
 1056 0142 0B       		.byte	0xb
 1057 0143 C2       		.byte	0xc2
 1058 0144 28020000 		.4byte	0x228
 1059 0148 06       		.uleb128 0x6
 1060 0149 C4040000 		.4byte	.LASF28
 1061 014d 0B       		.byte	0xb
 1062 014e C3       		.byte	0xc3
 1063 014f 33020000 		.4byte	0x233
 1064 0153 00       		.byte	0
 1065 0154 06       		.uleb128 0x6
 1066 0155 57040000 		.4byte	.LASF29
 1067 0159 0B       		.byte	0xb
 1068 015a C5       		.byte	0xc5
 1069 015b 33020000 		.4byte	0x233
 1070 015f 04       		.byte	0x4
 1071 0160 06       		.uleb128 0x6
 1072 0161 D0000000 		.4byte	.LASF30
 1073 0165 0B       		.byte	0xb
 1074 0166 C7       		.byte	0xc7
 1075 0167 FA000000 		.4byte	0xfa
 1076 016b 08       		.byte	0x8
 1077 016c 06       		.uleb128 0x6
 1078 016d B1060000 		.4byte	.LASF31
 1079 0171 0B       		.byte	0xb
 1080 0172 C8       		.byte	0xc8
 1081 0173 63040000 		.4byte	0x463
 1082 0177 0C       		.byte	0xc
 1083 0178 06       		.uleb128 0x6
ARM GAS  /tmp/ccFBZKBa.s 			page 48


 1084 0179 3E010000 		.4byte	.LASF32
 1085 017d 0B       		.byte	0xb
 1086 017e CA       		.byte	0xca
 1087 017f 33020000 		.4byte	0x233
 1088 0183 10       		.byte	0x10
 1089 0184 06       		.uleb128 0x6
 1090 0185 E1030000 		.4byte	.LASF33
 1091 0189 0B       		.byte	0xb
 1092 018a CB       		.byte	0xcb
 1093 018b 33020000 		.4byte	0x233
 1094 018f 14       		.byte	0x14
 1095 0190 06       		.uleb128 0x6
 1096 0191 6A060000 		.4byte	.LASF34
 1097 0195 0B       		.byte	0xb
 1098 0196 D2       		.byte	0xd2
 1099 0197 EE050000 		.4byte	0x5ee
 1100 019b 18       		.byte	0x18
 1101 019c 06       		.uleb128 0x6
 1102 019d 0F040000 		.4byte	.LASF35
 1103 01a1 0B       		.byte	0xb
 1104 01a2 D8       		.byte	0xd8
 1105 01a3 00060000 		.4byte	0x600
 1106 01a7 1C       		.byte	0x1c
 1107 01a8 06       		.uleb128 0x6
 1108 01a9 AE040000 		.4byte	.LASF36
 1109 01ad 0B       		.byte	0xb
 1110 01ae DD       		.byte	0xdd
 1111 01af E4000000 		.4byte	0xe4
 1112 01b3 20       		.byte	0x20
 1113 01b4 06       		.uleb128 0x6
 1114 01b5 85060000 		.4byte	.LASF37
 1115 01b9 0B       		.byte	0xb
 1116 01ba E1       		.byte	0xe1
 1117 01bb D9000000 		.4byte	0xd9
 1118 01bf 21       		.byte	0x21
 1119 01c0 06       		.uleb128 0x6
 1120 01c1 37060000 		.4byte	.LASF38
 1121 01c5 0B       		.byte	0xb
 1122 01c6 E6       		.byte	0xe6
 1123 01c7 EF000000 		.4byte	0xef
 1124 01cb 22       		.byte	0x22
 1125 01cc 07       		.uleb128 0x7
 1126 01cd 705F7500 		.ascii	"p_u\000"
 1127 01d1 0B       		.byte	0xb
 1128 01d2 3701     		.2byte	0x137
 1129 01d4 1D050000 		.4byte	0x51d
 1130 01d8 24       		.byte	0x24
 1131 01d9 08       		.uleb128 0x8
 1132 01da 7E030000 		.4byte	.LASF39
 1133 01de 0B       		.byte	0xb
 1134 01df 3C01     		.2byte	0x13c
 1135 01e1 39020000 		.4byte	0x239
 1136 01e5 28       		.byte	0x28
 1137 01e6 08       		.uleb128 0x8
 1138 01e7 C1020000 		.4byte	.LASF40
 1139 01eb 0B       		.byte	0xb
 1140 01ec 4201     		.2byte	0x142
ARM GAS  /tmp/ccFBZKBa.s 			page 49


 1141 01ee 5D020000 		.4byte	0x25d
 1142 01f2 2C       		.byte	0x2c
 1143 01f3 08       		.uleb128 0x8
 1144 01f4 F8040000 		.4byte	.LASF41
 1145 01f8 0B       		.byte	0xb
 1146 01f9 4801     		.2byte	0x148
 1147 01fb 10010000 		.4byte	0x110
 1148 01ff 34       		.byte	0x34
 1149 0200 08       		.uleb128 0x8
 1150 0201 9A040000 		.4byte	.LASF42
 1151 0205 0B       		.byte	0xb
 1152 0206 4F01     		.2byte	0x14f
 1153 0208 E8050000 		.4byte	0x5e8
 1154 020c 38       		.byte	0x38
 1155 020d 08       		.uleb128 0x8
 1156 020e BD050000 		.4byte	.LASF43
 1157 0212 0B       		.byte	0xb
 1158 0213 5301     		.2byte	0x153
 1159 0215 FA000000 		.4byte	0xfa
 1160 0219 3C       		.byte	0x3c
 1161 021a 08       		.uleb128 0x8
 1162 021b F1000000 		.4byte	.LASF44
 1163 021f 0B       		.byte	0xb
 1164 0220 5A01     		.2byte	0x15a
 1165 0222 10030000 		.4byte	0x310
 1166 0226 40       		.byte	0x40
 1167 0227 00       		.byte	0
 1168 0228 03       		.uleb128 0x3
 1169 0229 91030000 		.4byte	.LASF45
 1170 022d 0A       		.byte	0xa
 1171 022e 44       		.byte	0x44
 1172 022f 33020000 		.4byte	0x233
 1173 0233 09       		.uleb128 0x9
 1174 0234 04       		.byte	0x4
 1175 0235 31010000 		.4byte	0x131
 1176 0239 03       		.uleb128 0x3
 1177 023a 76060000 		.4byte	.LASF46
 1178 023e 0A       		.byte	0xa
 1179 023f 49       		.byte	0x49
 1180 0240 44020000 		.4byte	0x244
 1181 0244 05       		.uleb128 0x5
 1182 0245 31050000 		.4byte	.LASF48
 1183 0249 04       		.byte	0x4
 1184 024a 0B       		.byte	0xb
 1185 024b B0       		.byte	0xb0
 1186 024c 5D020000 		.4byte	0x25d
 1187 0250 06       		.uleb128 0x6
 1188 0251 C4040000 		.4byte	.LASF28
 1189 0255 0B       		.byte	0xb
 1190 0256 B1       		.byte	0xb1
 1191 0257 33020000 		.4byte	0x233
 1192 025b 00       		.byte	0
 1193 025c 00       		.byte	0
 1194 025d 03       		.uleb128 0x3
 1195 025e 1B060000 		.4byte	.LASF49
 1196 0262 0A       		.byte	0xa
 1197 0263 50       		.byte	0x50
ARM GAS  /tmp/ccFBZKBa.s 			page 50


 1198 0264 68020000 		.4byte	0x268
 1199 0268 05       		.uleb128 0x5
 1200 0269 BF000000 		.4byte	.LASF50
 1201 026d 08       		.byte	0x8
 1202 026e 0B       		.byte	0xb
 1203 026f B7       		.byte	0xb7
 1204 0270 8D020000 		.4byte	0x28d
 1205 0274 06       		.uleb128 0x6
 1206 0275 C4040000 		.4byte	.LASF28
 1207 0279 0B       		.byte	0xb
 1208 027a B8       		.byte	0xb8
 1209 027b 33020000 		.4byte	0x233
 1210 027f 00       		.byte	0
 1211 0280 06       		.uleb128 0x6
 1212 0281 57040000 		.4byte	.LASF29
 1213 0285 0B       		.byte	0xb
 1214 0286 B9       		.byte	0xb9
 1215 0287 33020000 		.4byte	0x233
 1216 028b 04       		.byte	0x4
 1217 028c 00       		.byte	0
 1218 028d 03       		.uleb128 0x3
 1219 028e 00000000 		.4byte	.LASF51
 1220 0292 0A       		.byte	0xa
 1221 0293 57       		.byte	0x57
 1222 0294 98020000 		.4byte	0x298
 1223 0298 0A       		.uleb128 0xa
 1224 0299 4F030000 		.4byte	.LASF52
 1225 029d 1C       		.byte	0x1c
 1226 029e 0B       		.byte	0xb
 1227 029f 9201     		.2byte	0x192
 1228 02a1 F4020000 		.4byte	0x2f4
 1229 02a5 08       		.uleb128 0x8
 1230 02a6 20050000 		.4byte	.LASF53
 1231 02aa 0B       		.byte	0xb
 1232 02ab 9301     		.2byte	0x193
 1233 02ad 5D020000 		.4byte	0x25d
 1234 02b1 00       		.byte	0
 1235 02b2 08       		.uleb128 0x8
 1236 02b3 B6040000 		.4byte	.LASF54
 1237 02b7 0B       		.byte	0xb
 1238 02b8 9401     		.2byte	0x194
 1239 02ba FA000000 		.4byte	0xfa
 1240 02be 08       		.byte	0x8
 1241 02bf 08       		.uleb128 0x8
 1242 02c0 E9030000 		.4byte	.LASF55
 1243 02c4 0B       		.byte	0xb
 1244 02c5 9601     		.2byte	0x196
 1245 02c7 63040000 		.4byte	0x463
 1246 02cb 0C       		.byte	0xc
 1247 02cc 08       		.uleb128 0x8
 1248 02cd 7D010000 		.4byte	.LASF56
 1249 02d1 0B       		.byte	0xb
 1250 02d2 9901     		.2byte	0x199
 1251 02d4 33020000 		.4byte	0x233
 1252 02d8 10       		.byte	0x10
 1253 02d9 08       		.uleb128 0x8
 1254 02da 24040000 		.4byte	.LASF57
ARM GAS  /tmp/ccFBZKBa.s 			page 51


 1255 02de 0B       		.byte	0xb
 1256 02df 9A01     		.2byte	0x19a
 1257 02e1 33020000 		.4byte	0x233
 1258 02e5 14       		.byte	0x14
 1259 02e6 08       		.uleb128 0x8
 1260 02e7 1A040000 		.4byte	.LASF58
 1261 02eb 0B       		.byte	0xb
 1262 02ec 9D01     		.2byte	0x19d
 1263 02ee 33020000 		.4byte	0x233
 1264 02f2 18       		.byte	0x18
 1265 02f3 00       		.byte	0
 1266 02f4 03       		.uleb128 0x3
 1267 02f5 C8050000 		.4byte	.LASF59
 1268 02f9 0A       		.byte	0xa
 1269 02fa 5C       		.byte	0x5c
 1270 02fb FF020000 		.4byte	0x2ff
 1271 02ff 09       		.uleb128 0x9
 1272 0300 04       		.byte	0x4
 1273 0301 05030000 		.4byte	0x305
 1274 0305 0B       		.uleb128 0xb
 1275 0306 10030000 		.4byte	0x310
 1276 030a 0C       		.uleb128 0xc
 1277 030b 10030000 		.4byte	0x310
 1278 030f 00       		.byte	0
 1279 0310 0D       		.uleb128 0xd
 1280 0311 04       		.byte	0x4
 1281 0312 03       		.uleb128 0x3
 1282 0313 47040000 		.4byte	.LASF60
 1283 0317 0A       		.byte	0xa
 1284 0318 61       		.byte	0x61
 1285 0319 1D030000 		.4byte	0x31d
 1286 031d 0A       		.uleb128 0xa
 1287 031e DA040000 		.4byte	.LASF61
 1288 0322 14       		.byte	0x14
 1289 0323 0B       		.byte	0xb
 1290 0324 6D01     		.2byte	0x16d
 1291 0326 6C030000 		.4byte	0x36c
 1292 032a 08       		.uleb128 0x8
 1293 032b B2020000 		.4byte	.LASF62
 1294 032f 0B       		.byte	0xb
 1295 0330 6E01     		.2byte	0x16e
 1296 0332 06060000 		.4byte	0x606
 1297 0336 00       		.byte	0
 1298 0337 08       		.uleb128 0x8
 1299 0338 9A010000 		.4byte	.LASF63
 1300 033c 0B       		.byte	0xb
 1301 033d 6F01     		.2byte	0x16f
 1302 033f 06060000 		.4byte	0x606
 1303 0343 04       		.byte	0x4
 1304 0344 08       		.uleb128 0x8
 1305 0345 28050000 		.4byte	.LASF64
 1306 0349 0B       		.byte	0xb
 1307 034a 7001     		.2byte	0x170
 1308 034c 26010000 		.4byte	0x126
 1309 0350 08       		.byte	0x8
 1310 0351 08       		.uleb128 0x8
 1311 0352 B7060000 		.4byte	.LASF65
ARM GAS  /tmp/ccFBZKBa.s 			page 52


 1312 0356 0B       		.byte	0xb
 1313 0357 7101     		.2byte	0x171
 1314 0359 F4020000 		.4byte	0x2f4
 1315 035d 0C       		.byte	0xc
 1316 035e 08       		.uleb128 0x8
 1317 035f 14060000 		.4byte	.LASF66
 1318 0363 0B       		.byte	0xb
 1319 0364 7301     		.2byte	0x173
 1320 0366 10030000 		.4byte	0x310
 1321 036a 10       		.byte	0x10
 1322 036b 00       		.byte	0
 1323 036c 03       		.uleb128 0x3
 1324 036d 9C000000 		.4byte	.LASF67
 1325 0371 0A       		.byte	0xa
 1326 0372 66       		.byte	0x66
 1327 0373 77030000 		.4byte	0x377
 1328 0377 0A       		.uleb128 0xa
 1329 0378 A4030000 		.4byte	.LASF68
 1330 037c 10       		.byte	0x10
 1331 037d 0B       		.byte	0xb
 1332 037e 7D01     		.2byte	0x17d
 1333 0380 B9030000 		.4byte	0x3b9
 1334 0384 08       		.uleb128 0x8
 1335 0385 B2020000 		.4byte	.LASF62
 1336 0389 0B       		.byte	0xb
 1337 038a 7E01     		.2byte	0x17e
 1338 038c 06060000 		.4byte	0x606
 1339 0390 00       		.byte	0
 1340 0391 08       		.uleb128 0x8
 1341 0392 9A010000 		.4byte	.LASF63
 1342 0396 0B       		.byte	0xb
 1343 0397 8001     		.2byte	0x180
 1344 0399 06060000 		.4byte	0x606
 1345 039d 04       		.byte	0x4
 1346 039e 08       		.uleb128 0x8
 1347 039f 28050000 		.4byte	.LASF64
 1348 03a3 0B       		.byte	0xb
 1349 03a4 8201     		.2byte	0x182
 1350 03a6 26010000 		.4byte	0x126
 1351 03aa 08       		.byte	0x8
 1352 03ab 08       		.uleb128 0x8
 1353 03ac D5030000 		.4byte	.LASF69
 1354 03b0 0B       		.byte	0xb
 1355 03b1 8A01     		.2byte	0x18a
 1356 03b3 26010000 		.4byte	0x126
 1357 03b7 0C       		.byte	0xc
 1358 03b8 00       		.byte	0
 1359 03b9 03       		.uleb128 0x3
 1360 03ba 3A000000 		.4byte	.LASF70
 1361 03be 0A       		.byte	0xa
 1362 03bf 6B       		.byte	0x6b
 1363 03c0 C4030000 		.4byte	0x3c4
 1364 03c4 0A       		.uleb128 0xa
 1365 03c5 74040000 		.4byte	.LASF71
 1366 03c9 04       		.byte	0x4
 1367 03ca 0B       		.byte	0xb
 1368 03cb A401     		.2byte	0x1a4
ARM GAS  /tmp/ccFBZKBa.s 			page 53


 1369 03cd DF030000 		.4byte	0x3df
 1370 03d1 08       		.uleb128 0x8
 1371 03d2 EA050000 		.4byte	.LASF72
 1372 03d6 0B       		.byte	0xb
 1373 03d7 AC01     		.2byte	0x1ac
 1374 03d9 0C060000 		.4byte	0x60c
 1375 03dd 00       		.byte	0
 1376 03de 00       		.byte	0
 1377 03df 03       		.uleb128 0x3
 1378 03e0 20030000 		.4byte	.LASF73
 1379 03e4 0A       		.byte	0xa
 1380 03e5 70       		.byte	0x70
 1381 03e6 EA030000 		.4byte	0x3ea
 1382 03ea 0E       		.uleb128 0xe
 1383 03eb 1A010000 		.4byte	.LASF74
 1384 03ef 5001     		.2byte	0x150
 1385 03f1 0B       		.byte	0xb
 1386 03f2 C401     		.2byte	0x1c4
 1387 03f4 46040000 		.4byte	0x446
 1388 03f8 08       		.uleb128 0x8
 1389 03f9 3E060000 		.4byte	.LASF75
 1390 03fd 0B       		.byte	0xb
 1391 03fe C801     		.2byte	0x1c8
 1392 0400 8D020000 		.4byte	0x28d
 1393 0404 00       		.byte	0
 1394 0405 08       		.uleb128 0x8
 1395 0406 01010000 		.4byte	.LASF76
 1396 040a 0B       		.byte	0xb
 1397 040b CC01     		.2byte	0x1cc
 1398 040d 6C030000 		.4byte	0x36c
 1399 0411 1C       		.byte	0x1c
 1400 0412 07       		.uleb128 0x7
 1401 0413 64626700 		.ascii	"dbg\000"
 1402 0417 0B       		.byte	0xb
 1403 0418 D001     		.2byte	0x1d0
 1404 041a B9030000 		.4byte	0x3b9
 1405 041e 2C       		.byte	0x2c
 1406 041f 08       		.uleb128 0x8
 1407 0420 89000000 		.4byte	.LASF77
 1408 0424 0B       		.byte	0xb
 1409 0425 D401     		.2byte	0x1d4
 1410 0427 31010000 		.4byte	0x131
 1411 042b 30       		.byte	0x30
 1412 042c 07       		.uleb128 0x7
 1413 042d 746D00   		.ascii	"tm\000"
 1414 0430 0B       		.byte	0xb
 1415 0431 D901     		.2byte	0x1d9
 1416 0433 12050000 		.4byte	0x512
 1417 0437 74       		.byte	0x74
 1418 0438 08       		.uleb128 0x8
 1419 0439 B0010000 		.4byte	.LASF78
 1420 043d 0B       		.byte	0xb
 1421 043e E501     		.2byte	0x1e5
 1422 0440 11060000 		.4byte	0x611
 1423 0444 78       		.byte	0x78
 1424 0445 00       		.byte	0
 1425 0446 04       		.uleb128 0x4
ARM GAS  /tmp/ccFBZKBa.s 			page 54


 1426 0447 04       		.byte	0x4
 1427 0448 07       		.byte	0x7
 1428 0449 88030000 		.4byte	.LASF79
 1429 044d 03       		.uleb128 0x3
 1430 044e 91010000 		.4byte	.LASF80
 1431 0452 0C       		.byte	0xc
 1432 0453 65       		.byte	0x65
 1433 0454 10030000 		.4byte	0x310
 1434 0458 03       		.uleb128 0x3
 1435 0459 73030000 		.4byte	.LASF81
 1436 045d 0C       		.byte	0xc
 1437 045e 6D       		.byte	0x6d
 1438 045f C3000000 		.4byte	0xc3
 1439 0463 05       		.uleb128 0x5
 1440 0464 04060000 		.4byte	.LASF82
 1441 0468 04       		.byte	0x4
 1442 0469 0C       		.byte	0xc
 1443 046a 89       		.byte	0x89
 1444 046b 7C040000 		.4byte	0x47c
 1445 046f 0F       		.uleb128 0xf
 1446 0470 72313300 		.ascii	"r13\000"
 1447 0474 0C       		.byte	0xc
 1448 0475 8A       		.byte	0x8a
 1449 0476 F7040000 		.4byte	0x4f7
 1450 047a 00       		.byte	0
 1451 047b 00       		.byte	0
 1452 047c 05       		.uleb128 0x5
 1453 047d 2E000000 		.4byte	.LASF83
 1454 0481 24       		.byte	0x24
 1455 0482 01       		.byte	0x1
 1456 0483 FD       		.byte	0xfd
 1457 0484 F7040000 		.4byte	0x4f7
 1458 0488 07       		.uleb128 0x7
 1459 0489 723400   		.ascii	"r4\000"
 1460 048c 01       		.byte	0x1
 1461 048d 1001     		.2byte	0x110
 1462 048f 4D040000 		.4byte	0x44d
 1463 0493 00       		.byte	0
 1464 0494 07       		.uleb128 0x7
 1465 0495 723500   		.ascii	"r5\000"
 1466 0498 01       		.byte	0x1
 1467 0499 1101     		.2byte	0x111
 1468 049b 4D040000 		.4byte	0x44d
 1469 049f 04       		.byte	0x4
 1470 04a0 07       		.uleb128 0x7
 1471 04a1 723600   		.ascii	"r6\000"
 1472 04a4 01       		.byte	0x1
 1473 04a5 1201     		.2byte	0x112
 1474 04a7 4D040000 		.4byte	0x44d
 1475 04ab 08       		.byte	0x8
 1476 04ac 07       		.uleb128 0x7
 1477 04ad 723700   		.ascii	"r7\000"
 1478 04b0 01       		.byte	0x1
 1479 04b1 1301     		.2byte	0x113
 1480 04b3 4D040000 		.4byte	0x44d
 1481 04b7 0C       		.byte	0xc
 1482 04b8 07       		.uleb128 0x7
ARM GAS  /tmp/ccFBZKBa.s 			page 55


 1483 04b9 723800   		.ascii	"r8\000"
 1484 04bc 01       		.byte	0x1
 1485 04bd 1401     		.2byte	0x114
 1486 04bf 4D040000 		.4byte	0x44d
 1487 04c3 10       		.byte	0x10
 1488 04c4 07       		.uleb128 0x7
 1489 04c5 723900   		.ascii	"r9\000"
 1490 04c8 01       		.byte	0x1
 1491 04c9 1501     		.2byte	0x115
 1492 04cb 4D040000 		.4byte	0x44d
 1493 04cf 14       		.byte	0x14
 1494 04d0 07       		.uleb128 0x7
 1495 04d1 72313000 		.ascii	"r10\000"
 1496 04d5 01       		.byte	0x1
 1497 04d6 1601     		.2byte	0x116
 1498 04d8 4D040000 		.4byte	0x44d
 1499 04dc 18       		.byte	0x18
 1500 04dd 07       		.uleb128 0x7
 1501 04de 72313100 		.ascii	"r11\000"
 1502 04e2 01       		.byte	0x1
 1503 04e3 1701     		.2byte	0x117
 1504 04e5 4D040000 		.4byte	0x44d
 1505 04e9 1C       		.byte	0x1c
 1506 04ea 07       		.uleb128 0x7
 1507 04eb 6C7200   		.ascii	"lr\000"
 1508 04ee 01       		.byte	0x1
 1509 04ef 1801     		.2byte	0x118
 1510 04f1 4D040000 		.4byte	0x44d
 1511 04f5 20       		.byte	0x20
 1512 04f6 00       		.byte	0
 1513 04f7 09       		.uleb128 0x9
 1514 04f8 04       		.byte	0x4
 1515 04f9 7C040000 		.4byte	0x47c
 1516 04fd 10       		.uleb128 0x10
 1517 04fe 04       		.byte	0x4
 1518 04ff 0D       		.byte	0xd
 1519 0500 38       		.byte	0x38
 1520 0501 12050000 		.4byte	0x512
 1521 0505 06       		.uleb128 0x6
 1522 0506 F4050000 		.4byte	.LASF84
 1523 050a 0D       		.byte	0xd
 1524 050b 3C       		.byte	0x3c
 1525 050c CE000000 		.4byte	0xce
 1526 0510 00       		.byte	0
 1527 0511 00       		.byte	0
 1528 0512 03       		.uleb128 0x3
 1529 0513 FE030000 		.4byte	.LASF85
 1530 0517 0D       		.byte	0xd
 1531 0518 3D       		.byte	0x3d
 1532 0519 FD040000 		.4byte	0x4fd
 1533 051d 11       		.uleb128 0x11
 1534 051e 04       		.byte	0x4
 1535 051f 0B       		.byte	0xb
 1536 0520 FA       		.byte	0xfa
 1537 0521 86050000 		.4byte	0x586
 1538 0525 12       		.uleb128 0x12
 1539 0526 14000000 		.4byte	.LASF86
ARM GAS  /tmp/ccFBZKBa.s 			page 56


 1540 052a 0B       		.byte	0xb
 1541 052b 0101     		.2byte	0x101
 1542 052d 05010000 		.4byte	0x105
 1543 0531 12       		.uleb128 0x12
 1544 0532 80000000 		.4byte	.LASF87
 1545 0536 0B       		.byte	0xb
 1546 0537 0801     		.2byte	0x108
 1547 0539 05010000 		.4byte	0x105
 1548 053d 12       		.uleb128 0x12
 1549 053e 63060000 		.4byte	.LASF88
 1550 0542 0B       		.byte	0xb
 1551 0543 0F01     		.2byte	0x10f
 1552 0545 10030000 		.4byte	0x310
 1553 0549 12       		.uleb128 0x12
 1554 054a 14010000 		.4byte	.LASF89
 1555 054e 0B       		.byte	0xb
 1556 054f 1601     		.2byte	0x116
 1557 0551 86050000 		.4byte	0x586
 1558 0555 12       		.uleb128 0x12
 1559 0556 94000000 		.4byte	.LASF90
 1560 055a 0B       		.byte	0xb
 1561 055b 1B01     		.2byte	0x11b
 1562 055d 05010000 		.4byte	0x105
 1563 0561 12       		.uleb128 0x12
 1564 0562 BA020000 		.4byte	.LASF91
 1565 0566 0B       		.byte	0xb
 1566 0567 2401     		.2byte	0x124
 1567 0569 B1050000 		.4byte	0x5b1
 1568 056d 12       		.uleb128 0x12
 1569 056e 19050000 		.4byte	.LASF92
 1570 0572 0B       		.byte	0xb
 1571 0573 2D01     		.2byte	0x12d
 1572 0575 E8050000 		.4byte	0x5e8
 1573 0579 12       		.uleb128 0x12
 1574 057a BD040000 		.4byte	.LASF93
 1575 057e 0B       		.byte	0xb
 1576 057f 3501     		.2byte	0x135
 1577 0581 10010000 		.4byte	0x110
 1578 0585 00       		.byte	0
 1579 0586 09       		.uleb128 0x9
 1580 0587 04       		.byte	0x4
 1581 0588 28020000 		.4byte	0x228
 1582 058c 05       		.uleb128 0x5
 1583 058d EB040000 		.4byte	.LASF94
 1584 0591 0C       		.byte	0xc
 1585 0592 0E       		.byte	0xe
 1586 0593 34       		.byte	0x34
 1587 0594 B1050000 		.4byte	0x5b1
 1588 0598 06       		.uleb128 0x6
 1589 0599 46010000 		.4byte	.LASF95
 1590 059d 0E       		.byte	0xe
 1591 059e 35       		.byte	0x35
 1592 059f 5D020000 		.4byte	0x25d
 1593 05a3 00       		.byte	0
 1594 05a4 06       		.uleb128 0x6
 1595 05a5 DA020000 		.4byte	.LASF96
 1596 05a9 0E       		.byte	0xe
ARM GAS  /tmp/ccFBZKBa.s 			page 57


 1597 05aa 37       		.byte	0x37
 1598 05ab 1B010000 		.4byte	0x11b
 1599 05af 08       		.byte	0x8
 1600 05b0 00       		.byte	0
 1601 05b1 09       		.uleb128 0x9
 1602 05b2 04       		.byte	0x4
 1603 05b3 8C050000 		.4byte	0x58c
 1604 05b7 05       		.uleb128 0x5
 1605 05b8 FB050000 		.4byte	.LASF97
 1606 05bc 10       		.byte	0x10
 1607 05bd 0F       		.byte	0xf
 1608 05be 39       		.byte	0x39
 1609 05bf E8050000 		.4byte	0x5e8
 1610 05c3 06       		.uleb128 0x6
 1611 05c4 F9000000 		.4byte	.LASF98
 1612 05c8 0F       		.byte	0xf
 1613 05c9 3A       		.byte	0x3a
 1614 05ca 5D020000 		.4byte	0x25d
 1615 05ce 00       		.byte	0
 1616 05cf 06       		.uleb128 0x6
 1617 05d0 A9060000 		.4byte	.LASF99
 1618 05d4 0F       		.byte	0xf
 1619 05d5 3C       		.byte	0x3c
 1620 05d6 33020000 		.4byte	0x233
 1621 05da 08       		.byte	0x8
 1622 05db 06       		.uleb128 0x6
 1623 05dc AC050000 		.4byte	.LASF100
 1624 05e0 0F       		.byte	0xf
 1625 05e1 3E       		.byte	0x3e
 1626 05e2 2C060000 		.4byte	0x62c
 1627 05e6 0C       		.byte	0xc
 1628 05e7 00       		.byte	0
 1629 05e8 09       		.uleb128 0x9
 1630 05e9 04       		.byte	0x4
 1631 05ea B7050000 		.4byte	0x5b7
 1632 05ee 09       		.uleb128 0x9
 1633 05ef 04       		.byte	0x4
 1634 05f0 F4050000 		.4byte	0x5f4
 1635 05f4 13       		.uleb128 0x13
 1636 05f5 F9050000 		.4byte	0x5f9
 1637 05f9 04       		.uleb128 0x4
 1638 05fa 01       		.byte	0x1
 1639 05fb 08       		.byte	0x8
 1640 05fc 9E050000 		.4byte	.LASF101
 1641 0600 09       		.uleb128 0x9
 1642 0601 04       		.byte	0x4
 1643 0602 58040000 		.4byte	0x458
 1644 0606 09       		.uleb128 0x9
 1645 0607 04       		.byte	0x4
 1646 0608 12030000 		.4byte	0x312
 1647 060c 14       		.uleb128 0x14
 1648 060d EE050000 		.4byte	0x5ee
 1649 0611 15       		.uleb128 0x15
 1650 0612 58040000 		.4byte	0x458
 1651 0616 21060000 		.4byte	0x621
 1652 061a 16       		.uleb128 0x16
 1653 061b 46040000 		.4byte	0x446
ARM GAS  /tmp/ccFBZKBa.s 			page 58


 1654 061f 1A       		.byte	0x1a
 1655 0620 00       		.byte	0
 1656 0621 03       		.uleb128 0x3
 1657 0622 A2010000 		.4byte	.LASF102
 1658 0626 0F       		.byte	0xf
 1659 0627 34       		.byte	0x34
 1660 0628 B7050000 		.4byte	0x5b7
 1661 062c 09       		.uleb128 0x9
 1662 062d 04       		.byte	0x4
 1663 062e 21060000 		.4byte	0x621
 1664 0632 03       		.uleb128 0x3
 1665 0633 5C000000 		.4byte	.LASF103
 1666 0637 10       		.byte	0x10
 1667 0638 36       		.byte	0x36
 1668 0639 3D060000 		.4byte	0x63d
 1669 063d 09       		.uleb128 0x9
 1670 063e 04       		.byte	0x4
 1671 063f 43060000 		.4byte	0x643
 1672 0643 17       		.uleb128 0x17
 1673 0644 10030000 		.4byte	0x310
 1674 0648 52060000 		.4byte	0x652
 1675 064c 0C       		.uleb128 0xc
 1676 064d 2C000000 		.4byte	0x2c
 1677 0651 00       		.byte	0
 1678 0652 05       		.uleb128 0x5
 1679 0653 2B060000 		.4byte	.LASF104
 1680 0657 04       		.byte	0x4
 1681 0658 04       		.byte	0x4
 1682 0659 38       		.byte	0x38
 1683 065a 6B060000 		.4byte	0x66b
 1684 065e 06       		.uleb128 0x6
 1685 065f 37040000 		.4byte	.LASF105
 1686 0663 04       		.byte	0x4
 1687 0664 39       		.byte	0x39
 1688 0665 6B060000 		.4byte	0x66b
 1689 0669 00       		.byte	0
 1690 066a 00       		.byte	0
 1691 066b 09       		.uleb128 0x9
 1692 066c 04       		.byte	0x4
 1693 066d 52060000 		.4byte	0x652
 1694 0671 10       		.uleb128 0x10
 1695 0672 0C       		.byte	0xc
 1696 0673 04       		.byte	0x4
 1697 0674 40       		.byte	0x40
 1698 0675 9E060000 		.4byte	0x69e
 1699 0679 06       		.uleb128 0x6
 1700 067a 36010000 		.4byte	.LASF106
 1701 067e 04       		.byte	0x4
 1702 067f 41       		.byte	0x41
 1703 0680 6B060000 		.4byte	0x66b
 1704 0684 00       		.byte	0
 1705 0685 06       		.uleb128 0x6
 1706 0686 EF030000 		.4byte	.LASF107
 1707 068a 04       		.byte	0x4
 1708 068b 42       		.byte	0x42
 1709 068c 2C000000 		.4byte	0x2c
 1710 0690 04       		.byte	0x4
ARM GAS  /tmp/ccFBZKBa.s 			page 59


 1711 0691 06       		.uleb128 0x6
 1712 0692 85010000 		.4byte	.LASF108
 1713 0696 04       		.byte	0x4
 1714 0697 44       		.byte	0x44
 1715 0698 32060000 		.4byte	0x632
 1716 069c 08       		.byte	0x8
 1717 069d 00       		.byte	0
 1718 069e 03       		.uleb128 0x3
 1719 069f CC020000 		.4byte	.LASF109
 1720 06a3 04       		.byte	0x4
 1721 06a4 46       		.byte	0x46
 1722 06a5 71060000 		.4byte	0x671
 1723 06a9 18       		.uleb128 0x18
 1724 06aa DC050000 		.4byte	.LASF132
 1725 06ae 02       		.byte	0x2
 1726 06af 2202     		.2byte	0x222
 1727 06b1 03       		.byte	0x3
 1728 06b2 C3060000 		.4byte	0x6c3
 1729 06b6 19       		.uleb128 0x19
 1730 06b7 AA010000 		.4byte	.LASF133
 1731 06bb 02       		.byte	0x2
 1732 06bc 2202     		.2byte	0x222
 1733 06be B8000000 		.4byte	0xb8
 1734 06c2 00       		.byte	0
 1735 06c3 1A       		.uleb128 0x1a
 1736 06c4 52000000 		.4byte	.LASF110
 1737 06c8 01       		.byte	0x1
 1738 06c9 C801     		.2byte	0x1c8
 1739 06cb 00000000 		.4byte	.LFB127
 1740 06cf 10000000 		.4byte	.LFE127-.LFB127
 1741 06d3 01       		.uleb128 0x1
 1742 06d4 9C       		.byte	0x9c
 1743 06d5 F3060000 		.4byte	0x6f3
 1744 06d9 1B       		.uleb128 0x1b
 1745 06da A9060000 		.4byte	0x6a9
 1746 06de 06000000 		.4byte	.LBB6
 1747 06e2 06000000 		.4byte	.LBE6-.LBB6
 1748 06e6 01       		.byte	0x1
 1749 06e7 D001     		.2byte	0x1d0
 1750 06e9 1C       		.uleb128 0x1c
 1751 06ea B6060000 		.4byte	0x6b6
 1752 06ee 02       		.uleb128 0x2
 1753 06ef 91       		.byte	0x91
 1754 06f0 7C       		.sleb128 -4
 1755 06f1 00       		.byte	0
 1756 06f2 00       		.byte	0
 1757 06f3 1A       		.uleb128 0x1a
 1758 06f4 08010000 		.4byte	.LASF111
 1759 06f8 01       		.byte	0x1
 1760 06f9 E001     		.2byte	0x1e0
 1761 06fb 00000000 		.4byte	.LFB128
 1762 06ff 10000000 		.4byte	.LFE128-.LFB128
 1763 0703 01       		.uleb128 0x1
 1764 0704 9C       		.byte	0x9c
 1765 0705 23070000 		.4byte	0x723
 1766 0709 1B       		.uleb128 0x1b
 1767 070a A9060000 		.4byte	0x6a9
ARM GAS  /tmp/ccFBZKBa.s 			page 60


 1768 070e 06000000 		.4byte	.LBB8
 1769 0712 06000000 		.4byte	.LBE8-.LBB8
 1770 0716 01       		.byte	0x1
 1771 0717 E301     		.2byte	0x1e3
 1772 0719 1C       		.uleb128 0x1c
 1773 071a B6060000 		.4byte	0x6b6
 1774 071e 02       		.uleb128 0x2
 1775 071f 91       		.byte	0x91
 1776 0720 7C       		.sleb128 -4
 1777 0721 00       		.byte	0
 1778 0722 00       		.byte	0
 1779 0723 1D       		.uleb128 0x1d
 1780 0724 CB040000 		.4byte	.LASF134
 1781 0728 03       		.byte	0x3
 1782 0729 5A01     		.2byte	0x15a
 1783 072b 00000000 		.4byte	.LFB167
 1784 072f 08000000 		.4byte	.LFE167-.LFB167
 1785 0733 01       		.uleb128 0x1
 1786 0734 9C       		.byte	0x9c
 1787 0735 1E       		.uleb128 0x1e
 1788 0736 8D060000 		.4byte	.LASF112
 1789 073a 03       		.byte	0x3
 1790 073b 6601     		.2byte	0x166
 1791 073d 00000000 		.4byte	.LFB168
 1792 0741 08000000 		.4byte	.LFE168-.LFB168
 1793 0745 01       		.uleb128 0x1
 1794 0746 9C       		.byte	0x9c
 1795 0747 55070000 		.4byte	0x755
 1796 074b 1F       		.uleb128 0x1f
 1797 074c 6F010000 		.4byte	.LASF117
 1798 0750 65070000 		.4byte	0x765
 1799 0754 00       		.byte	0
 1800 0755 15       		.uleb128 0x15
 1801 0756 F9050000 		.4byte	0x5f9
 1802 075a 65070000 		.4byte	0x765
 1803 075e 16       		.uleb128 0x16
 1804 075f 46040000 		.4byte	0x446
 1805 0763 0B       		.byte	0xb
 1806 0764 00       		.byte	0
 1807 0765 13       		.uleb128 0x13
 1808 0766 55070000 		.4byte	0x755
 1809 076a 20       		.uleb128 0x20
 1810 076b 2C030000 		.4byte	.LASF113
 1811 076f 04       		.byte	0x4
 1812 0770 89       		.byte	0x89
 1813 0771 00000000 		.4byte	.LFB229
 1814 0775 16000000 		.4byte	.LFE229-.LFB229
 1815 0779 01       		.uleb128 0x1
 1816 077a 9C       		.byte	0x9c
 1817 077b 9B070000 		.4byte	0x79b
 1818 077f 21       		.uleb128 0x21
 1819 0780 6D7000   		.ascii	"mp\000"
 1820 0783 04       		.byte	0x4
 1821 0784 89       		.byte	0x89
 1822 0785 9B070000 		.4byte	0x79b
 1823 0789 02       		.uleb128 0x2
 1824 078a 91       		.byte	0x91
ARM GAS  /tmp/ccFBZKBa.s 			page 61


 1825 078b 74       		.sleb128 -12
 1826 078c 22       		.uleb128 0x22
 1827 078d D5040000 		.4byte	.LASF114
 1828 0791 04       		.byte	0x4
 1829 0792 89       		.byte	0x89
 1830 0793 10030000 		.4byte	0x310
 1831 0797 02       		.uleb128 0x2
 1832 0798 91       		.byte	0x91
 1833 0799 70       		.sleb128 -16
 1834 079a 00       		.byte	0
 1835 079b 09       		.uleb128 0x9
 1836 079c 04       		.byte	0x4
 1837 079d 9E060000 		.4byte	0x69e
 1838 07a1 23       		.uleb128 0x23
 1839 07a2 3E030000 		.4byte	.LASF119
 1840 07a6 05       		.byte	0x5
 1841 07a7 4B       		.byte	0x4b
 1842 07a8 00000000 		.4byte	.LFB241
 1843 07ac 1E000000 		.4byte	.LFE241-.LFB241
 1844 07b0 01       		.uleb128 0x1
 1845 07b1 9C       		.byte	0x9c
 1846 07b2 E9070000 		.4byte	0x7e9
 1847 07b6 21       		.uleb128 0x21
 1848 07b7 6D7000   		.ascii	"mp\000"
 1849 07ba 05       		.byte	0x5
 1850 07bb 4B       		.byte	0x4b
 1851 07bc 9B070000 		.4byte	0x79b
 1852 07c0 02       		.uleb128 0x2
 1853 07c1 91       		.byte	0x91
 1854 07c2 7C       		.sleb128 -4
 1855 07c3 22       		.uleb128 0x22
 1856 07c4 71060000 		.4byte	.LASF115
 1857 07c8 05       		.byte	0x5
 1858 07c9 4B       		.byte	0x4b
 1859 07ca 2C000000 		.4byte	0x2c
 1860 07ce 02       		.uleb128 0x2
 1861 07cf 91       		.byte	0x91
 1862 07d0 78       		.sleb128 -8
 1863 07d1 22       		.uleb128 0x22
 1864 07d2 49000000 		.4byte	.LASF116
 1865 07d6 05       		.byte	0x5
 1866 07d7 4B       		.byte	0x4b
 1867 07d8 32060000 		.4byte	0x632
 1868 07dc 02       		.uleb128 0x2
 1869 07dd 91       		.byte	0x91
 1870 07de 74       		.sleb128 -12
 1871 07df 1F       		.uleb128 0x1f
 1872 07e0 66040000 		.4byte	.LASF118
 1873 07e4 F9070000 		.4byte	0x7f9
 1874 07e8 00       		.byte	0
 1875 07e9 15       		.uleb128 0x15
 1876 07ea F9050000 		.4byte	0x5f9
 1877 07ee F9070000 		.4byte	0x7f9
 1878 07f2 16       		.uleb128 0x16
 1879 07f3 46040000 		.4byte	0x446
 1880 07f7 10       		.byte	0x10
 1881 07f8 00       		.byte	0
ARM GAS  /tmp/ccFBZKBa.s 			page 62


 1882 07f9 13       		.uleb128 0x13
 1883 07fa E9070000 		.4byte	0x7e9
 1884 07fe 24       		.uleb128 0x24
 1885 07ff 99060000 		.4byte	.LASF120
 1886 0803 05       		.byte	0x5
 1887 0804 61       		.byte	0x61
 1888 0805 00000000 		.4byte	.LFB242
 1889 0809 30000000 		.4byte	.LFE242-.LFB242
 1890 080d 01       		.uleb128 0x1
 1891 080e 9C       		.byte	0x9c
 1892 080f 42080000 		.4byte	0x842
 1893 0813 21       		.uleb128 0x21
 1894 0814 6D7000   		.ascii	"mp\000"
 1895 0817 05       		.byte	0x5
 1896 0818 61       		.byte	0x61
 1897 0819 9B070000 		.4byte	0x79b
 1898 081d 02       		.uleb128 0x2
 1899 081e 91       		.byte	0x91
 1900 081f 74       		.sleb128 -12
 1901 0820 21       		.uleb128 0x21
 1902 0821 7000     		.ascii	"p\000"
 1903 0823 05       		.byte	0x5
 1904 0824 61       		.byte	0x61
 1905 0825 10030000 		.4byte	0x310
 1906 0829 02       		.uleb128 0x2
 1907 082a 91       		.byte	0x91
 1908 082b 70       		.sleb128 -16
 1909 082c 21       		.uleb128 0x21
 1910 082d 6E00     		.ascii	"n\000"
 1911 082f 05       		.byte	0x5
 1912 0830 61       		.byte	0x61
 1913 0831 2C000000 		.4byte	0x2c
 1914 0835 02       		.uleb128 0x2
 1915 0836 91       		.byte	0x91
 1916 0837 6C       		.sleb128 -20
 1917 0838 1F       		.uleb128 0x1f
 1918 0839 61010000 		.4byte	.LASF121
 1919 083d 52080000 		.4byte	0x852
 1920 0841 00       		.byte	0
 1921 0842 15       		.uleb128 0x15
 1922 0843 F9050000 		.4byte	0x5f9
 1923 0847 52080000 		.4byte	0x852
 1924 084b 16       		.uleb128 0x16
 1925 084c 46040000 		.4byte	0x446
 1926 0850 0F       		.byte	0xf
 1927 0851 00       		.byte	0
 1928 0852 13       		.uleb128 0x13
 1929 0853 42080000 		.4byte	0x842
 1930 0857 25       		.uleb128 0x25
 1931 0858 03050000 		.4byte	.LASF123
 1932 085c 05       		.byte	0x5
 1933 085d 78       		.byte	0x78
 1934 085e 10030000 		.4byte	0x310
 1935 0862 00000000 		.4byte	.LFB243
 1936 0866 3E000000 		.4byte	.LFE243-.LFB243
 1937 086a 01       		.uleb128 0x1
 1938 086b 9C       		.byte	0x9c
ARM GAS  /tmp/ccFBZKBa.s 			page 63


 1939 086c 95080000 		.4byte	0x895
 1940 0870 21       		.uleb128 0x21
 1941 0871 6D7000   		.ascii	"mp\000"
 1942 0874 05       		.byte	0x5
 1943 0875 78       		.byte	0x78
 1944 0876 9B070000 		.4byte	0x79b
 1945 087a 02       		.uleb128 0x2
 1946 087b 91       		.byte	0x91
 1947 087c 6C       		.sleb128 -20
 1948 087d 26       		.uleb128 0x26
 1949 087e D5040000 		.4byte	.LASF114
 1950 0882 05       		.byte	0x5
 1951 0883 79       		.byte	0x79
 1952 0884 10030000 		.4byte	0x310
 1953 0888 02       		.uleb128 0x2
 1954 0889 91       		.byte	0x91
 1955 088a 74       		.sleb128 -12
 1956 088b 1F       		.uleb128 0x1f
 1957 088c 02030000 		.4byte	.LASF122
 1958 0890 A5080000 		.4byte	0x8a5
 1959 0894 00       		.byte	0
 1960 0895 15       		.uleb128 0x15
 1961 0896 F9050000 		.4byte	0x5f9
 1962 089a A5080000 		.4byte	0x8a5
 1963 089e 16       		.uleb128 0x16
 1964 089f 46040000 		.4byte	0x446
 1965 08a3 0C       		.byte	0xc
 1966 08a4 00       		.byte	0
 1967 08a5 13       		.uleb128 0x13
 1968 08a6 95080000 		.4byte	0x895
 1969 08aa 25       		.uleb128 0x25
 1970 08ab 4C060000 		.4byte	.LASF124
 1971 08af 05       		.byte	0x5
 1972 08b0 95       		.byte	0x95
 1973 08b1 10030000 		.4byte	0x310
 1974 08b5 00000000 		.4byte	.LFB244
 1975 08b9 20000000 		.4byte	.LFE244-.LFB244
 1976 08bd 01       		.uleb128 0x1
 1977 08be 9C       		.byte	0x9c
 1978 08bf DF080000 		.4byte	0x8df
 1979 08c3 21       		.uleb128 0x21
 1980 08c4 6D7000   		.ascii	"mp\000"
 1981 08c7 05       		.byte	0x5
 1982 08c8 95       		.byte	0x95
 1983 08c9 9B070000 		.4byte	0x79b
 1984 08cd 02       		.uleb128 0x2
 1985 08ce 91       		.byte	0x91
 1986 08cf 6C       		.sleb128 -20
 1987 08d0 26       		.uleb128 0x26
 1988 08d1 D5040000 		.4byte	.LASF114
 1989 08d5 05       		.byte	0x5
 1990 08d6 96       		.byte	0x96
 1991 08d7 10030000 		.4byte	0x310
 1992 08db 02       		.uleb128 0x2
 1993 08dc 91       		.byte	0x91
 1994 08dd 74       		.sleb128 -12
 1995 08de 00       		.byte	0
ARM GAS  /tmp/ccFBZKBa.s 			page 64


 1996 08df 23       		.uleb128 0x23
 1997 08e0 C9030000 		.4byte	.LASF125
 1998 08e4 05       		.byte	0x5
 1999 08e5 AB       		.byte	0xab
 2000 08e6 00000000 		.4byte	.LFB245
 2001 08ea 1C000000 		.4byte	.LFE245-.LFB245
 2002 08ee 01       		.uleb128 0x1
 2003 08ef 9C       		.byte	0x9c
 2004 08f0 27090000 		.4byte	0x927
 2005 08f4 21       		.uleb128 0x21
 2006 08f5 6D7000   		.ascii	"mp\000"
 2007 08f8 05       		.byte	0x5
 2008 08f9 AB       		.byte	0xab
 2009 08fa 9B070000 		.4byte	0x79b
 2010 08fe 02       		.uleb128 0x2
 2011 08ff 91       		.byte	0x91
 2012 0900 74       		.sleb128 -12
 2013 0901 22       		.uleb128 0x22
 2014 0902 D5040000 		.4byte	.LASF114
 2015 0906 05       		.byte	0x5
 2016 0907 AB       		.byte	0xab
 2017 0908 10030000 		.4byte	0x310
 2018 090c 02       		.uleb128 0x2
 2019 090d 91       		.byte	0x91
 2020 090e 70       		.sleb128 -16
 2021 090f 27       		.uleb128 0x27
 2022 0910 70687000 		.ascii	"php\000"
 2023 0914 05       		.byte	0x5
 2024 0915 AC       		.byte	0xac
 2025 0916 6B060000 		.4byte	0x66b
 2026 091a 02       		.uleb128 0x2
 2027 091b 91       		.byte	0x91
 2028 091c 7C       		.sleb128 -4
 2029 091d 1F       		.uleb128 0x1f
 2030 091e BB030000 		.4byte	.LASF126
 2031 0922 27090000 		.4byte	0x927
 2032 0926 00       		.byte	0
 2033 0927 13       		.uleb128 0x13
 2034 0928 55070000 		.4byte	0x755
 2035 092c 24       		.uleb128 0x24
 2036 092d 58060000 		.4byte	.LASF127
 2037 0931 05       		.byte	0x5
 2038 0932 C1       		.byte	0xc1
 2039 0933 00000000 		.4byte	.LFB246
 2040 0937 1E000000 		.4byte	.LFE246-.LFB246
 2041 093b 01       		.uleb128 0x1
 2042 093c 9C       		.byte	0x9c
 2043 093d 5D090000 		.4byte	0x95d
 2044 0941 21       		.uleb128 0x21
 2045 0942 6D7000   		.ascii	"mp\000"
 2046 0945 05       		.byte	0x5
 2047 0946 C1       		.byte	0xc1
 2048 0947 9B070000 		.4byte	0x79b
 2049 094b 02       		.uleb128 0x2
 2050 094c 91       		.byte	0x91
 2051 094d 74       		.sleb128 -12
 2052 094e 22       		.uleb128 0x22
ARM GAS  /tmp/ccFBZKBa.s 			page 65


 2053 094f D5040000 		.4byte	.LASF114
 2054 0953 05       		.byte	0x5
 2055 0954 C1       		.byte	0xc1
 2056 0955 10030000 		.4byte	0x310
 2057 0959 02       		.uleb128 0x2
 2058 095a 91       		.byte	0x91
 2059 095b 70       		.sleb128 -16
 2060 095c 00       		.byte	0
 2061 095d 28       		.uleb128 0x28
 2062 095e B2000000 		.4byte	.LASF128
 2063 0962 11       		.byte	0x11
 2064 0963 FA06     		.2byte	0x6fa
 2065 0965 69090000 		.4byte	0x969
 2066 0969 14       		.uleb128 0x14
 2067 096a AD000000 		.4byte	0xad
 2068 096e 29       		.uleb128 0x29
 2069 096f 636800   		.ascii	"ch\000"
 2070 0972 0B       		.byte	0xb
 2071 0973 0B02     		.2byte	0x20b
 2072 0975 DF030000 		.4byte	0x3df
 2073 0979 00       		.byte	0
 2074              		.section	.debug_abbrev,"",%progbits
 2075              	.Ldebug_abbrev0:
 2076 0000 01       		.uleb128 0x1
 2077 0001 11       		.uleb128 0x11
 2078 0002 01       		.byte	0x1
 2079 0003 25       		.uleb128 0x25
 2080 0004 0E       		.uleb128 0xe
 2081 0005 13       		.uleb128 0x13
 2082 0006 0B       		.uleb128 0xb
 2083 0007 03       		.uleb128 0x3
 2084 0008 0E       		.uleb128 0xe
 2085 0009 1B       		.uleb128 0x1b
 2086 000a 0E       		.uleb128 0xe
 2087 000b 55       		.uleb128 0x55
 2088 000c 17       		.uleb128 0x17
 2089 000d 11       		.uleb128 0x11
 2090 000e 01       		.uleb128 0x1
 2091 000f 10       		.uleb128 0x10
 2092 0010 17       		.uleb128 0x17
 2093 0011 00       		.byte	0
 2094 0012 00       		.byte	0
 2095 0013 02       		.uleb128 0x2
 2096 0014 24       		.uleb128 0x24
 2097 0015 00       		.byte	0
 2098 0016 0B       		.uleb128 0xb
 2099 0017 0B       		.uleb128 0xb
 2100 0018 3E       		.uleb128 0x3e
 2101 0019 0B       		.uleb128 0xb
 2102 001a 03       		.uleb128 0x3
 2103 001b 08       		.uleb128 0x8
 2104 001c 00       		.byte	0
 2105 001d 00       		.byte	0
 2106 001e 03       		.uleb128 0x3
 2107 001f 16       		.uleb128 0x16
 2108 0020 00       		.byte	0
 2109 0021 03       		.uleb128 0x3
ARM GAS  /tmp/ccFBZKBa.s 			page 66


 2110 0022 0E       		.uleb128 0xe
 2111 0023 3A       		.uleb128 0x3a
 2112 0024 0B       		.uleb128 0xb
 2113 0025 3B       		.uleb128 0x3b
 2114 0026 0B       		.uleb128 0xb
 2115 0027 49       		.uleb128 0x49
 2116 0028 13       		.uleb128 0x13
 2117 0029 00       		.byte	0
 2118 002a 00       		.byte	0
 2119 002b 04       		.uleb128 0x4
 2120 002c 24       		.uleb128 0x24
 2121 002d 00       		.byte	0
 2122 002e 0B       		.uleb128 0xb
 2123 002f 0B       		.uleb128 0xb
 2124 0030 3E       		.uleb128 0x3e
 2125 0031 0B       		.uleb128 0xb
 2126 0032 03       		.uleb128 0x3
 2127 0033 0E       		.uleb128 0xe
 2128 0034 00       		.byte	0
 2129 0035 00       		.byte	0
 2130 0036 05       		.uleb128 0x5
 2131 0037 13       		.uleb128 0x13
 2132 0038 01       		.byte	0x1
 2133 0039 03       		.uleb128 0x3
 2134 003a 0E       		.uleb128 0xe
 2135 003b 0B       		.uleb128 0xb
 2136 003c 0B       		.uleb128 0xb
 2137 003d 3A       		.uleb128 0x3a
 2138 003e 0B       		.uleb128 0xb
 2139 003f 3B       		.uleb128 0x3b
 2140 0040 0B       		.uleb128 0xb
 2141 0041 01       		.uleb128 0x1
 2142 0042 13       		.uleb128 0x13
 2143 0043 00       		.byte	0
 2144 0044 00       		.byte	0
 2145 0045 06       		.uleb128 0x6
 2146 0046 0D       		.uleb128 0xd
 2147 0047 00       		.byte	0
 2148 0048 03       		.uleb128 0x3
 2149 0049 0E       		.uleb128 0xe
 2150 004a 3A       		.uleb128 0x3a
 2151 004b 0B       		.uleb128 0xb
 2152 004c 3B       		.uleb128 0x3b
 2153 004d 0B       		.uleb128 0xb
 2154 004e 49       		.uleb128 0x49
 2155 004f 13       		.uleb128 0x13
 2156 0050 38       		.uleb128 0x38
 2157 0051 0B       		.uleb128 0xb
 2158 0052 00       		.byte	0
 2159 0053 00       		.byte	0
 2160 0054 07       		.uleb128 0x7
 2161 0055 0D       		.uleb128 0xd
 2162 0056 00       		.byte	0
 2163 0057 03       		.uleb128 0x3
 2164 0058 08       		.uleb128 0x8
 2165 0059 3A       		.uleb128 0x3a
 2166 005a 0B       		.uleb128 0xb
ARM GAS  /tmp/ccFBZKBa.s 			page 67


 2167 005b 3B       		.uleb128 0x3b
 2168 005c 05       		.uleb128 0x5
 2169 005d 49       		.uleb128 0x49
 2170 005e 13       		.uleb128 0x13
 2171 005f 38       		.uleb128 0x38
 2172 0060 0B       		.uleb128 0xb
 2173 0061 00       		.byte	0
 2174 0062 00       		.byte	0
 2175 0063 08       		.uleb128 0x8
 2176 0064 0D       		.uleb128 0xd
 2177 0065 00       		.byte	0
 2178 0066 03       		.uleb128 0x3
 2179 0067 0E       		.uleb128 0xe
 2180 0068 3A       		.uleb128 0x3a
 2181 0069 0B       		.uleb128 0xb
 2182 006a 3B       		.uleb128 0x3b
 2183 006b 05       		.uleb128 0x5
 2184 006c 49       		.uleb128 0x49
 2185 006d 13       		.uleb128 0x13
 2186 006e 38       		.uleb128 0x38
 2187 006f 0B       		.uleb128 0xb
 2188 0070 00       		.byte	0
 2189 0071 00       		.byte	0
 2190 0072 09       		.uleb128 0x9
 2191 0073 0F       		.uleb128 0xf
 2192 0074 00       		.byte	0
 2193 0075 0B       		.uleb128 0xb
 2194 0076 0B       		.uleb128 0xb
 2195 0077 49       		.uleb128 0x49
 2196 0078 13       		.uleb128 0x13
 2197 0079 00       		.byte	0
 2198 007a 00       		.byte	0
 2199 007b 0A       		.uleb128 0xa
 2200 007c 13       		.uleb128 0x13
 2201 007d 01       		.byte	0x1
 2202 007e 03       		.uleb128 0x3
 2203 007f 0E       		.uleb128 0xe
 2204 0080 0B       		.uleb128 0xb
 2205 0081 0B       		.uleb128 0xb
 2206 0082 3A       		.uleb128 0x3a
 2207 0083 0B       		.uleb128 0xb
 2208 0084 3B       		.uleb128 0x3b
 2209 0085 05       		.uleb128 0x5
 2210 0086 01       		.uleb128 0x1
 2211 0087 13       		.uleb128 0x13
 2212 0088 00       		.byte	0
 2213 0089 00       		.byte	0
 2214 008a 0B       		.uleb128 0xb
 2215 008b 15       		.uleb128 0x15
 2216 008c 01       		.byte	0x1
 2217 008d 27       		.uleb128 0x27
 2218 008e 19       		.uleb128 0x19
 2219 008f 01       		.uleb128 0x1
 2220 0090 13       		.uleb128 0x13
 2221 0091 00       		.byte	0
 2222 0092 00       		.byte	0
 2223 0093 0C       		.uleb128 0xc
ARM GAS  /tmp/ccFBZKBa.s 			page 68


 2224 0094 05       		.uleb128 0x5
 2225 0095 00       		.byte	0
 2226 0096 49       		.uleb128 0x49
 2227 0097 13       		.uleb128 0x13
 2228 0098 00       		.byte	0
 2229 0099 00       		.byte	0
 2230 009a 0D       		.uleb128 0xd
 2231 009b 0F       		.uleb128 0xf
 2232 009c 00       		.byte	0
 2233 009d 0B       		.uleb128 0xb
 2234 009e 0B       		.uleb128 0xb
 2235 009f 00       		.byte	0
 2236 00a0 00       		.byte	0
 2237 00a1 0E       		.uleb128 0xe
 2238 00a2 13       		.uleb128 0x13
 2239 00a3 01       		.byte	0x1
 2240 00a4 03       		.uleb128 0x3
 2241 00a5 0E       		.uleb128 0xe
 2242 00a6 0B       		.uleb128 0xb
 2243 00a7 05       		.uleb128 0x5
 2244 00a8 3A       		.uleb128 0x3a
 2245 00a9 0B       		.uleb128 0xb
 2246 00aa 3B       		.uleb128 0x3b
 2247 00ab 05       		.uleb128 0x5
 2248 00ac 01       		.uleb128 0x1
 2249 00ad 13       		.uleb128 0x13
 2250 00ae 00       		.byte	0
 2251 00af 00       		.byte	0
 2252 00b0 0F       		.uleb128 0xf
 2253 00b1 0D       		.uleb128 0xd
 2254 00b2 00       		.byte	0
 2255 00b3 03       		.uleb128 0x3
 2256 00b4 08       		.uleb128 0x8
 2257 00b5 3A       		.uleb128 0x3a
 2258 00b6 0B       		.uleb128 0xb
 2259 00b7 3B       		.uleb128 0x3b
 2260 00b8 0B       		.uleb128 0xb
 2261 00b9 49       		.uleb128 0x49
 2262 00ba 13       		.uleb128 0x13
 2263 00bb 38       		.uleb128 0x38
 2264 00bc 0B       		.uleb128 0xb
 2265 00bd 00       		.byte	0
 2266 00be 00       		.byte	0
 2267 00bf 10       		.uleb128 0x10
 2268 00c0 13       		.uleb128 0x13
 2269 00c1 01       		.byte	0x1
 2270 00c2 0B       		.uleb128 0xb
 2271 00c3 0B       		.uleb128 0xb
 2272 00c4 3A       		.uleb128 0x3a
 2273 00c5 0B       		.uleb128 0xb
 2274 00c6 3B       		.uleb128 0x3b
 2275 00c7 0B       		.uleb128 0xb
 2276 00c8 01       		.uleb128 0x1
 2277 00c9 13       		.uleb128 0x13
 2278 00ca 00       		.byte	0
 2279 00cb 00       		.byte	0
 2280 00cc 11       		.uleb128 0x11
ARM GAS  /tmp/ccFBZKBa.s 			page 69


 2281 00cd 17       		.uleb128 0x17
 2282 00ce 01       		.byte	0x1
 2283 00cf 0B       		.uleb128 0xb
 2284 00d0 0B       		.uleb128 0xb
 2285 00d1 3A       		.uleb128 0x3a
 2286 00d2 0B       		.uleb128 0xb
 2287 00d3 3B       		.uleb128 0x3b
 2288 00d4 0B       		.uleb128 0xb
 2289 00d5 01       		.uleb128 0x1
 2290 00d6 13       		.uleb128 0x13
 2291 00d7 00       		.byte	0
 2292 00d8 00       		.byte	0
 2293 00d9 12       		.uleb128 0x12
 2294 00da 0D       		.uleb128 0xd
 2295 00db 00       		.byte	0
 2296 00dc 03       		.uleb128 0x3
 2297 00dd 0E       		.uleb128 0xe
 2298 00de 3A       		.uleb128 0x3a
 2299 00df 0B       		.uleb128 0xb
 2300 00e0 3B       		.uleb128 0x3b
 2301 00e1 05       		.uleb128 0x5
 2302 00e2 49       		.uleb128 0x49
 2303 00e3 13       		.uleb128 0x13
 2304 00e4 00       		.byte	0
 2305 00e5 00       		.byte	0
 2306 00e6 13       		.uleb128 0x13
 2307 00e7 26       		.uleb128 0x26
 2308 00e8 00       		.byte	0
 2309 00e9 49       		.uleb128 0x49
 2310 00ea 13       		.uleb128 0x13
 2311 00eb 00       		.byte	0
 2312 00ec 00       		.byte	0
 2313 00ed 14       		.uleb128 0x14
 2314 00ee 35       		.uleb128 0x35
 2315 00ef 00       		.byte	0
 2316 00f0 49       		.uleb128 0x49
 2317 00f1 13       		.uleb128 0x13
 2318 00f2 00       		.byte	0
 2319 00f3 00       		.byte	0
 2320 00f4 15       		.uleb128 0x15
 2321 00f5 01       		.uleb128 0x1
 2322 00f6 01       		.byte	0x1
 2323 00f7 49       		.uleb128 0x49
 2324 00f8 13       		.uleb128 0x13
 2325 00f9 01       		.uleb128 0x1
 2326 00fa 13       		.uleb128 0x13
 2327 00fb 00       		.byte	0
 2328 00fc 00       		.byte	0
 2329 00fd 16       		.uleb128 0x16
 2330 00fe 21       		.uleb128 0x21
 2331 00ff 00       		.byte	0
 2332 0100 49       		.uleb128 0x49
 2333 0101 13       		.uleb128 0x13
 2334 0102 2F       		.uleb128 0x2f
 2335 0103 0B       		.uleb128 0xb
 2336 0104 00       		.byte	0
 2337 0105 00       		.byte	0
ARM GAS  /tmp/ccFBZKBa.s 			page 70


 2338 0106 17       		.uleb128 0x17
 2339 0107 15       		.uleb128 0x15
 2340 0108 01       		.byte	0x1
 2341 0109 27       		.uleb128 0x27
 2342 010a 19       		.uleb128 0x19
 2343 010b 49       		.uleb128 0x49
 2344 010c 13       		.uleb128 0x13
 2345 010d 01       		.uleb128 0x1
 2346 010e 13       		.uleb128 0x13
 2347 010f 00       		.byte	0
 2348 0110 00       		.byte	0
 2349 0111 18       		.uleb128 0x18
 2350 0112 2E       		.uleb128 0x2e
 2351 0113 01       		.byte	0x1
 2352 0114 03       		.uleb128 0x3
 2353 0115 0E       		.uleb128 0xe
 2354 0116 3A       		.uleb128 0x3a
 2355 0117 0B       		.uleb128 0xb
 2356 0118 3B       		.uleb128 0x3b
 2357 0119 05       		.uleb128 0x5
 2358 011a 27       		.uleb128 0x27
 2359 011b 19       		.uleb128 0x19
 2360 011c 20       		.uleb128 0x20
 2361 011d 0B       		.uleb128 0xb
 2362 011e 01       		.uleb128 0x1
 2363 011f 13       		.uleb128 0x13
 2364 0120 00       		.byte	0
 2365 0121 00       		.byte	0
 2366 0122 19       		.uleb128 0x19
 2367 0123 05       		.uleb128 0x5
 2368 0124 00       		.byte	0
 2369 0125 03       		.uleb128 0x3
 2370 0126 0E       		.uleb128 0xe
 2371 0127 3A       		.uleb128 0x3a
 2372 0128 0B       		.uleb128 0xb
 2373 0129 3B       		.uleb128 0x3b
 2374 012a 05       		.uleb128 0x5
 2375 012b 49       		.uleb128 0x49
 2376 012c 13       		.uleb128 0x13
 2377 012d 00       		.byte	0
 2378 012e 00       		.byte	0
 2379 012f 1A       		.uleb128 0x1a
 2380 0130 2E       		.uleb128 0x2e
 2381 0131 01       		.byte	0x1
 2382 0132 03       		.uleb128 0x3
 2383 0133 0E       		.uleb128 0xe
 2384 0134 3A       		.uleb128 0x3a
 2385 0135 0B       		.uleb128 0xb
 2386 0136 3B       		.uleb128 0x3b
 2387 0137 05       		.uleb128 0x5
 2388 0138 27       		.uleb128 0x27
 2389 0139 19       		.uleb128 0x19
 2390 013a 11       		.uleb128 0x11
 2391 013b 01       		.uleb128 0x1
 2392 013c 12       		.uleb128 0x12
 2393 013d 06       		.uleb128 0x6
 2394 013e 40       		.uleb128 0x40
ARM GAS  /tmp/ccFBZKBa.s 			page 71


 2395 013f 18       		.uleb128 0x18
 2396 0140 9742     		.uleb128 0x2117
 2397 0142 19       		.uleb128 0x19
 2398 0143 01       		.uleb128 0x1
 2399 0144 13       		.uleb128 0x13
 2400 0145 00       		.byte	0
 2401 0146 00       		.byte	0
 2402 0147 1B       		.uleb128 0x1b
 2403 0148 1D       		.uleb128 0x1d
 2404 0149 01       		.byte	0x1
 2405 014a 31       		.uleb128 0x31
 2406 014b 13       		.uleb128 0x13
 2407 014c 11       		.uleb128 0x11
 2408 014d 01       		.uleb128 0x1
 2409 014e 12       		.uleb128 0x12
 2410 014f 06       		.uleb128 0x6
 2411 0150 58       		.uleb128 0x58
 2412 0151 0B       		.uleb128 0xb
 2413 0152 59       		.uleb128 0x59
 2414 0153 05       		.uleb128 0x5
 2415 0154 00       		.byte	0
 2416 0155 00       		.byte	0
 2417 0156 1C       		.uleb128 0x1c
 2418 0157 05       		.uleb128 0x5
 2419 0158 00       		.byte	0
 2420 0159 31       		.uleb128 0x31
 2421 015a 13       		.uleb128 0x13
 2422 015b 02       		.uleb128 0x2
 2423 015c 18       		.uleb128 0x18
 2424 015d 00       		.byte	0
 2425 015e 00       		.byte	0
 2426 015f 1D       		.uleb128 0x1d
 2427 0160 2E       		.uleb128 0x2e
 2428 0161 00       		.byte	0
 2429 0162 03       		.uleb128 0x3
 2430 0163 0E       		.uleb128 0xe
 2431 0164 3A       		.uleb128 0x3a
 2432 0165 0B       		.uleb128 0xb
 2433 0166 3B       		.uleb128 0x3b
 2434 0167 05       		.uleb128 0x5
 2435 0168 27       		.uleb128 0x27
 2436 0169 19       		.uleb128 0x19
 2437 016a 11       		.uleb128 0x11
 2438 016b 01       		.uleb128 0x1
 2439 016c 12       		.uleb128 0x12
 2440 016d 06       		.uleb128 0x6
 2441 016e 40       		.uleb128 0x40
 2442 016f 18       		.uleb128 0x18
 2443 0170 9642     		.uleb128 0x2116
 2444 0172 19       		.uleb128 0x19
 2445 0173 00       		.byte	0
 2446 0174 00       		.byte	0
 2447 0175 1E       		.uleb128 0x1e
 2448 0176 2E       		.uleb128 0x2e
 2449 0177 01       		.byte	0x1
 2450 0178 03       		.uleb128 0x3
 2451 0179 0E       		.uleb128 0xe
ARM GAS  /tmp/ccFBZKBa.s 			page 72


 2452 017a 3A       		.uleb128 0x3a
 2453 017b 0B       		.uleb128 0xb
 2454 017c 3B       		.uleb128 0x3b
 2455 017d 05       		.uleb128 0x5
 2456 017e 27       		.uleb128 0x27
 2457 017f 19       		.uleb128 0x19
 2458 0180 11       		.uleb128 0x11
 2459 0181 01       		.uleb128 0x1
 2460 0182 12       		.uleb128 0x12
 2461 0183 06       		.uleb128 0x6
 2462 0184 40       		.uleb128 0x40
 2463 0185 18       		.uleb128 0x18
 2464 0186 9642     		.uleb128 0x2116
 2465 0188 19       		.uleb128 0x19
 2466 0189 01       		.uleb128 0x1
 2467 018a 13       		.uleb128 0x13
 2468 018b 00       		.byte	0
 2469 018c 00       		.byte	0
 2470 018d 1F       		.uleb128 0x1f
 2471 018e 34       		.uleb128 0x34
 2472 018f 00       		.byte	0
 2473 0190 03       		.uleb128 0x3
 2474 0191 0E       		.uleb128 0xe
 2475 0192 49       		.uleb128 0x49
 2476 0193 13       		.uleb128 0x13
 2477 0194 34       		.uleb128 0x34
 2478 0195 19       		.uleb128 0x19
 2479 0196 00       		.byte	0
 2480 0197 00       		.byte	0
 2481 0198 20       		.uleb128 0x20
 2482 0199 2E       		.uleb128 0x2e
 2483 019a 01       		.byte	0x1
 2484 019b 03       		.uleb128 0x3
 2485 019c 0E       		.uleb128 0xe
 2486 019d 3A       		.uleb128 0x3a
 2487 019e 0B       		.uleb128 0xb
 2488 019f 3B       		.uleb128 0x3b
 2489 01a0 0B       		.uleb128 0xb
 2490 01a1 27       		.uleb128 0x27
 2491 01a2 19       		.uleb128 0x19
 2492 01a3 11       		.uleb128 0x11
 2493 01a4 01       		.uleb128 0x1
 2494 01a5 12       		.uleb128 0x12
 2495 01a6 06       		.uleb128 0x6
 2496 01a7 40       		.uleb128 0x40
 2497 01a8 18       		.uleb128 0x18
 2498 01a9 9642     		.uleb128 0x2116
 2499 01ab 19       		.uleb128 0x19
 2500 01ac 01       		.uleb128 0x1
 2501 01ad 13       		.uleb128 0x13
 2502 01ae 00       		.byte	0
 2503 01af 00       		.byte	0
 2504 01b0 21       		.uleb128 0x21
 2505 01b1 05       		.uleb128 0x5
 2506 01b2 00       		.byte	0
 2507 01b3 03       		.uleb128 0x3
 2508 01b4 08       		.uleb128 0x8
ARM GAS  /tmp/ccFBZKBa.s 			page 73


 2509 01b5 3A       		.uleb128 0x3a
 2510 01b6 0B       		.uleb128 0xb
 2511 01b7 3B       		.uleb128 0x3b
 2512 01b8 0B       		.uleb128 0xb
 2513 01b9 49       		.uleb128 0x49
 2514 01ba 13       		.uleb128 0x13
 2515 01bb 02       		.uleb128 0x2
 2516 01bc 18       		.uleb128 0x18
 2517 01bd 00       		.byte	0
 2518 01be 00       		.byte	0
 2519 01bf 22       		.uleb128 0x22
 2520 01c0 05       		.uleb128 0x5
 2521 01c1 00       		.byte	0
 2522 01c2 03       		.uleb128 0x3
 2523 01c3 0E       		.uleb128 0xe
 2524 01c4 3A       		.uleb128 0x3a
 2525 01c5 0B       		.uleb128 0xb
 2526 01c6 3B       		.uleb128 0x3b
 2527 01c7 0B       		.uleb128 0xb
 2528 01c8 49       		.uleb128 0x49
 2529 01c9 13       		.uleb128 0x13
 2530 01ca 02       		.uleb128 0x2
 2531 01cb 18       		.uleb128 0x18
 2532 01cc 00       		.byte	0
 2533 01cd 00       		.byte	0
 2534 01ce 23       		.uleb128 0x23
 2535 01cf 2E       		.uleb128 0x2e
 2536 01d0 01       		.byte	0x1
 2537 01d1 3F       		.uleb128 0x3f
 2538 01d2 19       		.uleb128 0x19
 2539 01d3 03       		.uleb128 0x3
 2540 01d4 0E       		.uleb128 0xe
 2541 01d5 3A       		.uleb128 0x3a
 2542 01d6 0B       		.uleb128 0xb
 2543 01d7 3B       		.uleb128 0x3b
 2544 01d8 0B       		.uleb128 0xb
 2545 01d9 27       		.uleb128 0x27
 2546 01da 19       		.uleb128 0x19
 2547 01db 11       		.uleb128 0x11
 2548 01dc 01       		.uleb128 0x1
 2549 01dd 12       		.uleb128 0x12
 2550 01de 06       		.uleb128 0x6
 2551 01df 40       		.uleb128 0x40
 2552 01e0 18       		.uleb128 0x18
 2553 01e1 9742     		.uleb128 0x2117
 2554 01e3 19       		.uleb128 0x19
 2555 01e4 01       		.uleb128 0x1
 2556 01e5 13       		.uleb128 0x13
 2557 01e6 00       		.byte	0
 2558 01e7 00       		.byte	0
 2559 01e8 24       		.uleb128 0x24
 2560 01e9 2E       		.uleb128 0x2e
 2561 01ea 01       		.byte	0x1
 2562 01eb 3F       		.uleb128 0x3f
 2563 01ec 19       		.uleb128 0x19
 2564 01ed 03       		.uleb128 0x3
 2565 01ee 0E       		.uleb128 0xe
ARM GAS  /tmp/ccFBZKBa.s 			page 74


 2566 01ef 3A       		.uleb128 0x3a
 2567 01f0 0B       		.uleb128 0xb
 2568 01f1 3B       		.uleb128 0x3b
 2569 01f2 0B       		.uleb128 0xb
 2570 01f3 27       		.uleb128 0x27
 2571 01f4 19       		.uleb128 0x19
 2572 01f5 11       		.uleb128 0x11
 2573 01f6 01       		.uleb128 0x1
 2574 01f7 12       		.uleb128 0x12
 2575 01f8 06       		.uleb128 0x6
 2576 01f9 40       		.uleb128 0x40
 2577 01fa 18       		.uleb128 0x18
 2578 01fb 9642     		.uleb128 0x2116
 2579 01fd 19       		.uleb128 0x19
 2580 01fe 01       		.uleb128 0x1
 2581 01ff 13       		.uleb128 0x13
 2582 0200 00       		.byte	0
 2583 0201 00       		.byte	0
 2584 0202 25       		.uleb128 0x25
 2585 0203 2E       		.uleb128 0x2e
 2586 0204 01       		.byte	0x1
 2587 0205 3F       		.uleb128 0x3f
 2588 0206 19       		.uleb128 0x19
 2589 0207 03       		.uleb128 0x3
 2590 0208 0E       		.uleb128 0xe
 2591 0209 3A       		.uleb128 0x3a
 2592 020a 0B       		.uleb128 0xb
 2593 020b 3B       		.uleb128 0x3b
 2594 020c 0B       		.uleb128 0xb
 2595 020d 27       		.uleb128 0x27
 2596 020e 19       		.uleb128 0x19
 2597 020f 49       		.uleb128 0x49
 2598 0210 13       		.uleb128 0x13
 2599 0211 11       		.uleb128 0x11
 2600 0212 01       		.uleb128 0x1
 2601 0213 12       		.uleb128 0x12
 2602 0214 06       		.uleb128 0x6
 2603 0215 40       		.uleb128 0x40
 2604 0216 18       		.uleb128 0x18
 2605 0217 9642     		.uleb128 0x2116
 2606 0219 19       		.uleb128 0x19
 2607 021a 01       		.uleb128 0x1
 2608 021b 13       		.uleb128 0x13
 2609 021c 00       		.byte	0
 2610 021d 00       		.byte	0
 2611 021e 26       		.uleb128 0x26
 2612 021f 34       		.uleb128 0x34
 2613 0220 00       		.byte	0
 2614 0221 03       		.uleb128 0x3
 2615 0222 0E       		.uleb128 0xe
 2616 0223 3A       		.uleb128 0x3a
 2617 0224 0B       		.uleb128 0xb
 2618 0225 3B       		.uleb128 0x3b
 2619 0226 0B       		.uleb128 0xb
 2620 0227 49       		.uleb128 0x49
 2621 0228 13       		.uleb128 0x13
 2622 0229 02       		.uleb128 0x2
ARM GAS  /tmp/ccFBZKBa.s 			page 75


 2623 022a 18       		.uleb128 0x18
 2624 022b 00       		.byte	0
 2625 022c 00       		.byte	0
 2626 022d 27       		.uleb128 0x27
 2627 022e 34       		.uleb128 0x34
 2628 022f 00       		.byte	0
 2629 0230 03       		.uleb128 0x3
 2630 0231 08       		.uleb128 0x8
 2631 0232 3A       		.uleb128 0x3a
 2632 0233 0B       		.uleb128 0xb
 2633 0234 3B       		.uleb128 0x3b
 2634 0235 0B       		.uleb128 0xb
 2635 0236 49       		.uleb128 0x49
 2636 0237 13       		.uleb128 0x13
 2637 0238 02       		.uleb128 0x2
 2638 0239 18       		.uleb128 0x18
 2639 023a 00       		.byte	0
 2640 023b 00       		.byte	0
 2641 023c 28       		.uleb128 0x28
 2642 023d 34       		.uleb128 0x34
 2643 023e 00       		.byte	0
 2644 023f 03       		.uleb128 0x3
 2645 0240 0E       		.uleb128 0xe
 2646 0241 3A       		.uleb128 0x3a
 2647 0242 0B       		.uleb128 0xb
 2648 0243 3B       		.uleb128 0x3b
 2649 0244 05       		.uleb128 0x5
 2650 0245 49       		.uleb128 0x49
 2651 0246 13       		.uleb128 0x13
 2652 0247 3F       		.uleb128 0x3f
 2653 0248 19       		.uleb128 0x19
 2654 0249 3C       		.uleb128 0x3c
 2655 024a 19       		.uleb128 0x19
 2656 024b 00       		.byte	0
 2657 024c 00       		.byte	0
 2658 024d 29       		.uleb128 0x29
 2659 024e 34       		.uleb128 0x34
 2660 024f 00       		.byte	0
 2661 0250 03       		.uleb128 0x3
 2662 0251 08       		.uleb128 0x8
 2663 0252 3A       		.uleb128 0x3a
 2664 0253 0B       		.uleb128 0xb
 2665 0254 3B       		.uleb128 0x3b
 2666 0255 05       		.uleb128 0x5
 2667 0256 49       		.uleb128 0x49
 2668 0257 13       		.uleb128 0x13
 2669 0258 3F       		.uleb128 0x3f
 2670 0259 19       		.uleb128 0x19
 2671 025a 3C       		.uleb128 0x3c
 2672 025b 19       		.uleb128 0x19
 2673 025c 00       		.byte	0
 2674 025d 00       		.byte	0
 2675 025e 00       		.byte	0
 2676              		.section	.debug_aranges,"",%progbits
 2677 0000 6C000000 		.4byte	0x6c
 2678 0004 0200     		.2byte	0x2
 2679 0006 00000000 		.4byte	.Ldebug_info0
ARM GAS  /tmp/ccFBZKBa.s 			page 76


 2680 000a 04       		.byte	0x4
 2681 000b 00       		.byte	0
 2682 000c 0000     		.2byte	0
 2683 000e 0000     		.2byte	0
 2684 0010 00000000 		.4byte	.LFB127
 2685 0014 10000000 		.4byte	.LFE127-.LFB127
 2686 0018 00000000 		.4byte	.LFB128
 2687 001c 10000000 		.4byte	.LFE128-.LFB128
 2688 0020 00000000 		.4byte	.LFB167
 2689 0024 08000000 		.4byte	.LFE167-.LFB167
 2690 0028 00000000 		.4byte	.LFB168
 2691 002c 08000000 		.4byte	.LFE168-.LFB168
 2692 0030 00000000 		.4byte	.LFB229
 2693 0034 16000000 		.4byte	.LFE229-.LFB229
 2694 0038 00000000 		.4byte	.LFB241
 2695 003c 1E000000 		.4byte	.LFE241-.LFB241
 2696 0040 00000000 		.4byte	.LFB242
 2697 0044 30000000 		.4byte	.LFE242-.LFB242
 2698 0048 00000000 		.4byte	.LFB243
 2699 004c 3E000000 		.4byte	.LFE243-.LFB243
 2700 0050 00000000 		.4byte	.LFB244
 2701 0054 20000000 		.4byte	.LFE244-.LFB244
 2702 0058 00000000 		.4byte	.LFB245
 2703 005c 1C000000 		.4byte	.LFE245-.LFB245
 2704 0060 00000000 		.4byte	.LFB246
 2705 0064 1E000000 		.4byte	.LFE246-.LFB246
 2706 0068 00000000 		.4byte	0
 2707 006c 00000000 		.4byte	0
 2708              		.section	.debug_ranges,"",%progbits
 2709              	.Ldebug_ranges0:
 2710 0000 00000000 		.4byte	.LFB127
 2711 0004 10000000 		.4byte	.LFE127
 2712 0008 00000000 		.4byte	.LFB128
 2713 000c 10000000 		.4byte	.LFE128
 2714 0010 00000000 		.4byte	.LFB167
 2715 0014 08000000 		.4byte	.LFE167
 2716 0018 00000000 		.4byte	.LFB168
 2717 001c 08000000 		.4byte	.LFE168
 2718 0020 00000000 		.4byte	.LFB229
 2719 0024 16000000 		.4byte	.LFE229
 2720 0028 00000000 		.4byte	.LFB241
 2721 002c 1E000000 		.4byte	.LFE241
 2722 0030 00000000 		.4byte	.LFB242
 2723 0034 30000000 		.4byte	.LFE242
 2724 0038 00000000 		.4byte	.LFB243
 2725 003c 3E000000 		.4byte	.LFE243
 2726 0040 00000000 		.4byte	.LFB244
 2727 0044 20000000 		.4byte	.LFE244
 2728 0048 00000000 		.4byte	.LFB245
 2729 004c 1C000000 		.4byte	.LFE245
 2730 0050 00000000 		.4byte	.LFB246
 2731 0054 1E000000 		.4byte	.LFE246
 2732 0058 00000000 		.4byte	0
 2733 005c 00000000 		.4byte	0
 2734              		.section	.debug_line,"",%progbits
 2735              	.Ldebug_line0:
 2736 0000 F2030000 		.section	.debug_str,"MS",%progbits,1
ARM GAS  /tmp/ccFBZKBa.s 			page 77


 2736      0200E902 
 2736      00000201 
 2736      FB0E0D00 
 2736      01010101 
 2737              	.LASF51:
 2738 0000 72656164 		.ascii	"ready_list_t\000"
 2738      795F6C69 
 2738      73745F74 
 2738      00
 2739              	.LASF2:
 2740 000d 73697A65 		.ascii	"size_t\000"
 2740      5F7400
 2741              	.LASF86:
 2742 0014 7264796D 		.ascii	"rdymsg\000"
 2742      736700
 2743              	.LASF17:
 2744 001b 75696E74 		.ascii	"uint64_t\000"
 2744      36345F74 
 2744      00
 2745              	.LASF3:
 2746 0024 5F5F7569 		.ascii	"__uint8_t\000"
 2746      6E74385F 
 2746      7400
 2747              	.LASF83:
 2748 002e 706F7274 		.ascii	"port_intctx\000"
 2748      5F696E74 
 2748      63747800 
 2749              	.LASF70:
 2750 003a 73797374 		.ascii	"system_debug_t\000"
 2750      656D5F64 
 2750      65627567 
 2750      5F7400
 2751              	.LASF116:
 2752 0049 70726F76 		.ascii	"provider\000"
 2752      69646572 
 2752      00
 2753              	.LASF110:
 2754 0052 706F7274 		.ascii	"port_lock\000"
 2754      5F6C6F63 
 2754      6B00
 2755              	.LASF103:
 2756 005c 6D656D67 		.ascii	"memgetfunc_t\000"
 2756      65746675 
 2756      6E635F74 
 2756      00
 2757              	.LASF13:
 2758 0069 6C6F6E67 		.ascii	"long long unsigned int\000"
 2758      206C6F6E 
 2758      6720756E 
 2758      7369676E 
 2758      65642069 
 2759              	.LASF87:
 2760 0080 65786974 		.ascii	"exitcode\000"
 2760      636F6465 
 2760      00
 2761              	.LASF77:
 2762 0089 6D61696E 		.ascii	"mainthread\000"
ARM GAS  /tmp/ccFBZKBa.s 			page 78


 2762      74687265 
 2762      616400
 2763              	.LASF90:
 2764 0094 73656E74 		.ascii	"sentmsg\000"
 2764      6D736700 
 2765              	.LASF67:
 2766 009c 76697274 		.ascii	"virtual_timers_list_t\000"
 2766      75616C5F 
 2766      74696D65 
 2766      72735F6C 
 2766      6973745F 
 2767              	.LASF128:
 2768 00b2 49544D5F 		.ascii	"ITM_RxBuffer\000"
 2768      52784275 
 2768      66666572 
 2768      00
 2769              	.LASF50:
 2770 00bf 63685F74 		.ascii	"ch_threads_queue\000"
 2770      68726561 
 2770      64735F71 
 2770      75657565 
 2770      00
 2771              	.LASF30:
 2772 00d0 705F7072 		.ascii	"p_prio\000"
 2772      696F00
 2773              	.LASF11:
 2774 00d7 6C6F6E67 		.ascii	"long long int\000"
 2774      206C6F6E 
 2774      6720696E 
 2774      7400
 2775              	.LASF1:
 2776 00e5 7369676E 		.ascii	"signed char\000"
 2776      65642063 
 2776      68617200 
 2777              	.LASF44:
 2778 00f1 705F6D70 		.ascii	"p_mpool\000"
 2778      6F6F6C00 
 2779              	.LASF98:
 2780 00f9 6D5F7175 		.ascii	"m_queue\000"
 2780      65756500 
 2781              	.LASF76:
 2782 0101 76746C69 		.ascii	"vtlist\000"
 2782      737400
 2783              	.LASF111:
 2784 0108 706F7274 		.ascii	"port_unlock\000"
 2784      5F756E6C 
 2784      6F636B00 
 2785              	.LASF89:
 2786 0114 77747472 		.ascii	"wttrp\000"
 2786      7000
 2787              	.LASF74:
 2788 011a 63685F73 		.ascii	"ch_system\000"
 2788      79737465 
 2788      6D00
 2789              	.LASF8:
 2790 0124 6C6F6E67 		.ascii	"long int\000"
 2790      20696E74 
ARM GAS  /tmp/ccFBZKBa.s 			page 79


 2790      00
 2791              	.LASF20:
 2792 012d 74737461 		.ascii	"tstate_t\000"
 2792      74655F74 
 2792      00
 2793              	.LASF106:
 2794 0136 6D705F6E 		.ascii	"mp_next\000"
 2794      65787400 
 2795              	.LASF32:
 2796 013e 705F6E65 		.ascii	"p_newer\000"
 2796      77657200 
 2797              	.LASF95:
 2798 0146 735F7175 		.ascii	"s_queue\000"
 2798      65756500 
 2799              	.LASF6:
 2800 014e 73686F72 		.ascii	"short unsigned int\000"
 2800      7420756E 
 2800      7369676E 
 2800      65642069 
 2800      6E7400
 2801              	.LASF121:
 2802 0161 5F5F6675 		.ascii	"__func__.6404\000"
 2802      6E635F5F 
 2802      2E363430 
 2802      3400
 2803              	.LASF117:
 2804 016f 5F5F6675 		.ascii	"__func__.5701\000"
 2804      6E635F5F 
 2804      2E353730 
 2804      3100
 2805              	.LASF56:
 2806 017d 725F6E65 		.ascii	"r_newer\000"
 2806      77657200 
 2807              	.LASF108:
 2808 0185 6D705F70 		.ascii	"mp_provider\000"
 2808      726F7669 
 2808      64657200 
 2809              	.LASF80:
 2810 0191 72656761 		.ascii	"regarm_t\000"
 2810      726D5F74 
 2810      00
 2811              	.LASF63:
 2812 019a 76745F70 		.ascii	"vt_prev\000"
 2812      72657600 
 2813              	.LASF102:
 2814 01a2 6D757465 		.ascii	"mutex_t\000"
 2814      785F7400 
 2815              	.LASF133:
 2816 01aa 76616C75 		.ascii	"value\000"
 2816      6500
 2817              	.LASF78:
 2818 01b0 69646C65 		.ascii	"idle_thread_wa\000"
 2818      5F746872 
 2818      6561645F 
 2818      776100
 2819              	.LASF25:
 2820 01bf 636E745F 		.ascii	"cnt_t\000"
ARM GAS  /tmp/ccFBZKBa.s 			page 80


 2820      7400
 2821              	.LASF129:
 2822 01c5 474E5520 		.ascii	"GNU C 4.8.4 20140526 (release) [ARM/embedded-4_8-br"
 2822      4320342E 
 2822      382E3420 
 2822      32303134 
 2822      30353236 
 2823 01f8 616E6368 		.ascii	"anch revision 211358] -mcpu=cortex-m4 -mno-thumb-in"
 2823      20726576 
 2823      6973696F 
 2823      6E203231 
 2823      31333538 
 2824 022b 74657277 		.ascii	"terwork -mthumb -ggdb -O0 -fomit-frame-pointer -fal"
 2824      6F726B20 
 2824      2D6D7468 
 2824      756D6220 
 2824      2D676764 
 2825 025e 69676E2D 		.ascii	"ign-functions=16 -ffunction-sections -fdata-section"
 2825      66756E63 
 2825      74696F6E 
 2825      733D3136 
 2825      202D6666 
 2826 0291 73202D66 		.ascii	"s -fno-common -flto\000"
 2826      6E6F2D63 
 2826      6F6D6D6F 
 2826      6E202D66 
 2826      6C746F00 
 2827              	.LASF0:
 2828 02a5 756E7369 		.ascii	"unsigned int\000"
 2828      676E6564 
 2828      20696E74 
 2828      00
 2829              	.LASF62:
 2830 02b2 76745F6E 		.ascii	"vt_next\000"
 2830      65787400 
 2831              	.LASF91:
 2832 02ba 77747365 		.ascii	"wtsemp\000"
 2832      6D7000
 2833              	.LASF40:
 2834 02c1 705F6D73 		.ascii	"p_msgqueue\000"
 2834      67717565 
 2834      756500
 2835              	.LASF109:
 2836 02cc 6D656D6F 		.ascii	"memory_pool_t\000"
 2836      72795F70 
 2836      6F6F6C5F 
 2836      7400
 2837              	.LASF96:
 2838 02da 735F636E 		.ascii	"s_cnt\000"
 2838      7400
 2839              	.LASF130:
 2840 02e0 2E2E2F43 		.ascii	"../ChibiOS/os/rt/src/chmempools.c\000"
 2840      68696269 
 2840      4F532F6F 
 2840      732F7274 
 2840      2F737263 
 2841              	.LASF122:
ARM GAS  /tmp/ccFBZKBa.s 			page 81


 2842 0302 5F5F6675 		.ascii	"__func__.6412\000"
 2842      6E635F5F 
 2842      2E363431 
 2842      3200
 2843              	.LASF47:
 2844 0310 63685F74 		.ascii	"ch_thread\000"
 2844      68726561 
 2844      6400
 2845              	.LASF23:
 2846 031a 6D73675F 		.ascii	"msg_t\000"
 2846      7400
 2847              	.LASF73:
 2848 0320 63685F73 		.ascii	"ch_system_t\000"
 2848      79737465 
 2848      6D5F7400 
 2849              	.LASF113:
 2850 032c 6368506F 		.ascii	"chPoolAdd\000"
 2850      6F6C4164 
 2850      6400
 2851              	.LASF19:
 2852 0336 746D6F64 		.ascii	"tmode_t\000"
 2852      655F7400 
 2853              	.LASF119:
 2854 033e 6368506F 		.ascii	"chPoolObjectInit\000"
 2854      6F6C4F62 
 2854      6A656374 
 2854      496E6974 
 2854      00
 2855              	.LASF52:
 2856 034f 63685F72 		.ascii	"ch_ready_list\000"
 2856      65616479 
 2856      5F6C6973 
 2856      7400
 2857              	.LASF24:
 2858 035d 6576656E 		.ascii	"eventmask_t\000"
 2858      746D6173 
 2858      6B5F7400 
 2859              	.LASF7:
 2860 0369 5F5F696E 		.ascii	"__int32_t\000"
 2860      7433325F 
 2860      7400
 2861              	.LASF81:
 2862 0373 73746B61 		.ascii	"stkalign_t\000"
 2862      6C69676E 
 2862      5F7400
 2863              	.LASF39:
 2864 037e 705F7761 		.ascii	"p_waiting\000"
 2864      6974696E 
 2864      6700
 2865              	.LASF79:
 2866 0388 73697A65 		.ascii	"sizetype\000"
 2866      74797065 
 2866      00
 2867              	.LASF45:
 2868 0391 74687265 		.ascii	"thread_reference_t\000"
 2868      61645F72 
 2868      65666572 
ARM GAS  /tmp/ccFBZKBa.s 			page 82


 2868      656E6365 
 2868      5F7400
 2869              	.LASF68:
 2870 03a4 63685F76 		.ascii	"ch_virtual_timers_list\000"
 2870      69727475 
 2870      616C5F74 
 2870      696D6572 
 2870      735F6C69 
 2871              	.LASF126:
 2872 03bb 5F5F6675 		.ascii	"__func__.6422\000"
 2872      6E635F5F 
 2872      2E363432 
 2872      3200
 2873              	.LASF125:
 2874 03c9 6368506F 		.ascii	"chPoolFreeI\000"
 2874      6F6C4672 
 2874      65654900 
 2875              	.LASF69:
 2876 03d5 76745F6C 		.ascii	"vt_lasttime\000"
 2876      61737474 
 2876      696D6500 
 2877              	.LASF33:
 2878 03e1 705F6F6C 		.ascii	"p_older\000"
 2878      64657200 
 2879              	.LASF55:
 2880 03e9 725F6374 		.ascii	"r_ctx\000"
 2880      7800
 2881              	.LASF107:
 2882 03ef 6D705F6F 		.ascii	"mp_object_size\000"
 2882      626A6563 
 2882      745F7369 
 2882      7A6500
 2883              	.LASF85:
 2884 03fe 746D5F63 		.ascii	"tm_calibration_t\000"
 2884      616C6962 
 2884      72617469 
 2884      6F6E5F74 
 2884      00
 2885              	.LASF35:
 2886 040f 705F7374 		.ascii	"p_stklimit\000"
 2886      6B6C696D 
 2886      697400
 2887              	.LASF58:
 2888 041a 725F6375 		.ascii	"r_current\000"
 2888      7272656E 
 2888      7400
 2889              	.LASF57:
 2890 0424 725F6F6C 		.ascii	"r_older\000"
 2890      64657200 
 2891              	.LASF12:
 2892 042c 5F5F7569 		.ascii	"__uint64_t\000"
 2892      6E743634 
 2892      5F7400
 2893              	.LASF105:
 2894 0437 70685F6E 		.ascii	"ph_next\000"
 2894      65787400 
 2895              	.LASF21:
ARM GAS  /tmp/ccFBZKBa.s 			page 83


 2896 043f 74726566 		.ascii	"trefs_t\000"
 2896      735F7400 
 2897              	.LASF60:
 2898 0447 76697274 		.ascii	"virtual_timer_t\000"
 2898      75616C5F 
 2898      74696D65 
 2898      725F7400 
 2899              	.LASF29:
 2900 0457 705F7072 		.ascii	"p_prev\000"
 2900      657600
 2901              	.LASF22:
 2902 045e 74707269 		.ascii	"tprio_t\000"
 2902      6F5F7400 
 2903              	.LASF118:
 2904 0466 5F5F6675 		.ascii	"__func__.6398\000"
 2904      6E635F5F 
 2904      2E363339 
 2904      3800
 2905              	.LASF71:
 2906 0474 63685F73 		.ascii	"ch_system_debug\000"
 2906      79737465 
 2906      6D5F6465 
 2906      62756700 
 2907              	.LASF15:
 2908 0484 696E7433 		.ascii	"int32_t\000"
 2908      325F7400 
 2909              	.LASF4:
 2910 048c 756E7369 		.ascii	"unsigned char\000"
 2910      676E6564 
 2910      20636861 
 2910      7200
 2911              	.LASF42:
 2912 049a 705F6D74 		.ascii	"p_mtxlist\000"
 2912      786C6973 
 2912      7400
 2913              	.LASF5:
 2914 04a4 73686F72 		.ascii	"short int\000"
 2914      7420696E 
 2914      7400
 2915              	.LASF36:
 2916 04ae 705F7374 		.ascii	"p_state\000"
 2916      61746500 
 2917              	.LASF54:
 2918 04b6 725F7072 		.ascii	"r_prio\000"
 2918      696F00
 2919              	.LASF93:
 2920 04bd 65776D61 		.ascii	"ewmask\000"
 2920      736B00
 2921              	.LASF28:
 2922 04c4 705F6E65 		.ascii	"p_next\000"
 2922      787400
 2923              	.LASF134:
 2924 04cb 63685379 		.ascii	"chSysLock\000"
 2924      734C6F63 
 2924      6B00
 2925              	.LASF114:
 2926 04d5 6F626A70 		.ascii	"objp\000"
ARM GAS  /tmp/ccFBZKBa.s 			page 84


 2926      00
 2927              	.LASF61:
 2928 04da 63685F76 		.ascii	"ch_virtual_timer\000"
 2928      69727475 
 2928      616C5F74 
 2928      696D6572 
 2928      00
 2929              	.LASF94:
 2930 04eb 63685F73 		.ascii	"ch_semaphore\000"
 2930      656D6170 
 2930      686F7265 
 2930      00
 2931              	.LASF41:
 2932 04f8 705F6570 		.ascii	"p_epending\000"
 2932      656E6469 
 2932      6E6700
 2933              	.LASF123:
 2934 0503 6368506F 		.ascii	"chPoolAllocI\000"
 2934      6F6C416C 
 2934      6C6F6349 
 2934      00
 2935              	.LASF16:
 2936 0510 75696E74 		.ascii	"uint32_t\000"
 2936      33325F74 
 2936      00
 2937              	.LASF92:
 2938 0519 77746D74 		.ascii	"wtmtxp\000"
 2938      787000
 2939              	.LASF53:
 2940 0520 725F7175 		.ascii	"r_queue\000"
 2940      65756500 
 2941              	.LASF64:
 2942 0528 76745F64 		.ascii	"vt_delta\000"
 2942      656C7461 
 2942      00
 2943              	.LASF48:
 2944 0531 63685F74 		.ascii	"ch_threads_list\000"
 2944      68726561 
 2944      64735F6C 
 2944      69737400 
 2945              	.LASF131:
 2946 0541 2F6E6673 		.ascii	"/nfs/nfs4/home/irbrown/Courses/P442/P442WifiTrailCo"
 2946      2F6E6673 
 2946      342F686F 
 2946      6D652F69 
 2946      7262726F 
 2947 0574 756E7465 		.ascii	"unterProject/milestone3\000"
 2947      7250726F 
 2947      6A656374 
 2947      2F6D696C 
 2947      6573746F 
 2948              	.LASF10:
 2949 058c 6C6F6E67 		.ascii	"long unsigned int\000"
 2949      20756E73 
 2949      69676E65 
 2949      6420696E 
 2949      7400
ARM GAS  /tmp/ccFBZKBa.s 			page 85


 2950              	.LASF101:
 2951 059e 63686172 		.ascii	"char\000"
 2951      00
 2952              	.LASF27:
 2953 05a3 74687265 		.ascii	"thread_t\000"
 2953      61645F74 
 2953      00
 2954              	.LASF100:
 2955 05ac 6D5F6E65 		.ascii	"m_next\000"
 2955      787400
 2956              	.LASF26:
 2957 05b3 73797374 		.ascii	"systime_t\000"
 2957      696D655F 
 2957      7400
 2958              	.LASF43:
 2959 05bd 705F7265 		.ascii	"p_realprio\000"
 2959      616C7072 
 2959      696F00
 2960              	.LASF59:
 2961 05c8 76746675 		.ascii	"vtfunc_t\000"
 2961      6E635F74 
 2961      00
 2962              	.LASF9:
 2963 05d1 5F5F7569 		.ascii	"__uint32_t\000"
 2963      6E743332 
 2963      5F7400
 2964              	.LASF132:
 2965 05dc 5F5F7365 		.ascii	"__set_BASEPRI\000"
 2965      745F4241 
 2965      53455052 
 2965      4900
 2966              	.LASF72:
 2967 05ea 70616E69 		.ascii	"panic_msg\000"
 2967      635F6D73 
 2967      6700
 2968              	.LASF84:
 2969 05f4 6F666673 		.ascii	"offset\000"
 2969      657400
 2970              	.LASF97:
 2971 05fb 63685F6D 		.ascii	"ch_mutex\000"
 2971      75746578 
 2971      00
 2972              	.LASF82:
 2973 0604 636F6E74 		.ascii	"context\000"
 2973      65787400 
 2974              	.LASF18:
 2975 060c 7274636E 		.ascii	"rtcnt_t\000"
 2975      745F7400 
 2976              	.LASF66:
 2977 0614 76745F70 		.ascii	"vt_par\000"
 2977      617200
 2978              	.LASF49:
 2979 061b 74687265 		.ascii	"threads_queue_t\000"
 2979      6164735F 
 2979      71756575 
 2979      655F7400 
 2980              	.LASF104:
ARM GAS  /tmp/ccFBZKBa.s 			page 86


 2981 062b 706F6F6C 		.ascii	"pool_header\000"
 2981      5F686561 
 2981      64657200 
 2982              	.LASF38:
 2983 0637 705F7265 		.ascii	"p_refs\000"
 2983      667300
 2984              	.LASF75:
 2985 063e 726C6973 		.ascii	"rlist\000"
 2985      7400
 2986              	.LASF14:
 2987 0644 75696E74 		.ascii	"uint8_t\000"
 2987      385F7400 
 2988              	.LASF124:
 2989 064c 6368506F 		.ascii	"chPoolAlloc\000"
 2989      6F6C416C 
 2989      6C6F6300 
 2990              	.LASF127:
 2991 0658 6368506F 		.ascii	"chPoolFree\000"
 2991      6F6C4672 
 2991      656500
 2992              	.LASF88:
 2993 0663 77746F62 		.ascii	"wtobjp\000"
 2993      6A7000
 2994              	.LASF34:
 2995 066a 705F6E61 		.ascii	"p_name\000"
 2995      6D6500
 2996              	.LASF115:
 2997 0671 73697A65 		.ascii	"size\000"
 2997      00
 2998              	.LASF46:
 2999 0676 74687265 		.ascii	"threads_list_t\000"
 2999      6164735F 
 2999      6C697374 
 2999      5F7400
 3000              	.LASF37:
 3001 0685 705F666C 		.ascii	"p_flags\000"
 3001      61677300 
 3002              	.LASF112:
 3003 068d 63685379 		.ascii	"chSysUnlock\000"
 3003      73556E6C 
 3003      6F636B00 
 3004              	.LASF120:
 3005 0699 6368506F 		.ascii	"chPoolLoadArray\000"
 3005      6F6C4C6F 
 3005      61644172 
 3005      72617900 
 3006              	.LASF99:
 3007 06a9 6D5F6F77 		.ascii	"m_owner\000"
 3007      6E657200 
 3008              	.LASF31:
 3009 06b1 705F6374 		.ascii	"p_ctx\000"
 3009      7800
 3010              	.LASF65:
 3011 06b7 76745F66 		.ascii	"vt_func\000"
 3011      756E6300 
 3012              		.comm	__gnu_lto_v1,1,1
 3013              		.ident	"GCC: (GNU Tools for ARM Embedded Processors) 4.8.4 20140526 (release) [ARM/embedded-4_8-br
ARM GAS  /tmp/ccFBZKBa.s 			page 87


ARM GAS  /tmp/ccFBZKBa.s 			page 88


DEFINED SYMBOLS
                            *ABS*:00000000 chmempools.c
     /tmp/ccFBZKBa.s:486    .text.port_lock:00000000 $t
     /tmp/ccFBZKBa.s:491    .text.port_lock:00000000 port_lock
     /tmp/ccFBZKBa.s:522    .text.port_unlock:00000000 $t
     /tmp/ccFBZKBa.s:527    .text.port_unlock:00000000 port_unlock
     /tmp/ccFBZKBa.s:556    .text.chSysLock:00000000 $t
     /tmp/ccFBZKBa.s:561    .text.chSysLock:00000000 chSysLock
     /tmp/ccFBZKBa.s:580    .text.chSysUnlock:00000000 $t
     /tmp/ccFBZKBa.s:585    .text.chSysUnlock:00000000 chSysUnlock
     /tmp/ccFBZKBa.s:603    .text.chPoolAdd:00000000 $t
     /tmp/ccFBZKBa.s:608    .text.chPoolAdd:00000000 chPoolAdd
     /tmp/ccFBZKBa.s:862    .text.chPoolFree:00000000 chPoolFree
     /tmp/ccFBZKBa.s:634    .text.chPoolObjectInit:00000000 $t
     /tmp/ccFBZKBa.s:640    .text.chPoolObjectInit:00000000 chPoolObjectInit
     /tmp/ccFBZKBa.s:673    .text.chPoolLoadArray:00000000 $t
     /tmp/ccFBZKBa.s:679    .text.chPoolLoadArray:00000000 chPoolLoadArray
     /tmp/ccFBZKBa.s:723    .text.chPoolAllocI:00000000 $t
     /tmp/ccFBZKBa.s:729    .text.chPoolAllocI:00000000 chPoolAllocI
     /tmp/ccFBZKBa.s:782    .text.chPoolAlloc:00000000 $t
     /tmp/ccFBZKBa.s:788    .text.chPoolAlloc:00000000 chPoolAlloc
     /tmp/ccFBZKBa.s:819    .text.chPoolFreeI:00000000 $t
     /tmp/ccFBZKBa.s:825    .text.chPoolFreeI:00000000 chPoolFreeI
     /tmp/ccFBZKBa.s:856    .text.chPoolFree:00000000 $t
                            *COM*:00000001 __gnu_lto_v1
                     .debug_frame:00000010 $d

NO UNDEFINED SYMBOLS
