ARM GAS  /tmp/ccpJRJbB.s 			page 1


   1              		.syntax unified
   2              		.cpu cortex-m4
   3              		.fpu softvfp
   4              		.eabi_attribute 20, 1
   5              		.eabi_attribute 21, 1
   6              		.eabi_attribute 23, 3
   7              		.eabi_attribute 24, 1
   8              		.eabi_attribute 25, 1
   9              		.eabi_attribute 26, 1
  10              		.eabi_attribute 30, 2
  11              		.eabi_attribute 34, 1
  12              		.eabi_attribute 18, 4
  13              		.thumb
  14              		.file	"chmemcore.c"
  15              		.text
  16              	.Ltext0:
  17              		.section	.gnu.lto_.jmpfuncs.46b8fef4e2645ea8,"",%progbits
  18 0000 789C6362 		.ascii	"x\234cb`b\300\006\270\2404\013\003\003+#\033#;\003\003"
  18      6062C006 
  18      B8A0340B 
  18      03032B23 
  18      1B233B03 
  19 0015 00020A00 		.ascii	"\000\002\012\000'"
  19      27
  20              		.text
  21              		.section	.gnu.lto_.inline.46b8fef4e2645ea8,"",%progbits
  22 0000 789C6362 		.ascii	"x\234cb`b\300\006\222\2414\013\003\003+\013#\003\023"
  22      6062C006 
  22      92A1340B 
  22      03032B0B 
  22      230313
  23 0013 CB027906 		.ascii	"\313\002y\006\266\005\362`\305\254\014|\274\214\214"
  23      B605F260 
  23      C5AC0C7C 
  23      BC8C8C
  24 0022 0C8C4026 		.ascii	"\014\214@&\263\320\201NF\210\004P\005\013H\226\215\201"
  24      B3D0814E 
  24      46880450 
  24      050B4896 
  24      8D81
  25 0034 871B26CB 		.ascii	"\207\033&\313\267 \013U\222\235\201\215\025h\032\333"
  25      B7200B55 
  25      929D818D 
  25      15681ADB 
  26 0044 073DB869 		.ascii	"\007=\270i\014\000\350g\011\333"
  26      0C00E867 
  26      09DB
  27              		.text
  28              		.section	.gnu.lto_.pureconst.46b8fef4e2645ea8,"",%progbits
  29 0000 789C6362 		.ascii	"x\234cb`b\340d\200\000\026\006\011V+6\011v\026\000\003"
  29      6062E064 
  29      80001606 
  29      09562B36 
  29      09761600 
  30 0015 7C0092   		.ascii	"|\000\222"
  31              		.text
  32              		.section	.gnu.lto__core_init.46b8fef4e2645ea8,"",%progbits
ARM GAS  /tmp/ccpJRJbB.s 			page 2


  33 0000 789C8D51 		.ascii	"x\234\215Q=H\034A\024~ov\357\334#?\306\322N\215\365"
  33      3D481C41 
  33      147E6F76 
  33      EFDC233F 
  33      C6D24E8D 
  34 0015 6E4C52A4 		.ascii	"nLR\244\212E\352`\241\011\261Z\326u\361\2668\225;\021"
  34      8A45EA60 
  34      A109B15A 
  34      D675F1B6 
  34      38953B11 
  35 0029 C1E2E67E 		.ascii	"\301\342\346~\022\216\200p\011\206\220\244QDDD\024,"
  35      128E8070 
  35      098690A4 
  35      51444444 
  35      142C
  36 003b 8218702B 		.ascii	"\202\030p+1\205A\323\2469\301\316 )CP'ofo\275s\023C"
  36      318541D3 
  36      A639C1CE 
  36      20294350 
  36      276F666F 
  37 0053 1EECBC99 		.ascii	"\036\354\274\231\367\275o\276o\3370`\020\217v\372\316"
  37      F7BD6FBE 
  37      6FDF3060 
  37      108F76FA 
  37      CE
  38 0064 A83C4E19 		.ascii	"\250<N\0315@V\375\002P0\030\242\334\000B\236a~\020e"
  38      354056FD 
  38      02503018 
  38      A2DC0042 
  38      9E617E10 
  39 0079 ABDE05F3 		.ascii	"\253\336\005\363\234\277\256=?\016\264w\263Ay\216\237"
  39      9CBFAE3D 
  39      3F0EB477 
  39      B341798E 
  39      9F
  40 008a 0A81E823 		.ascii	"\012\201\350#]\333\215\340\"<\243\003v\250\304\364\313"
  40      5DDB8DE0 
  40      223CA303 
  40      76A8C4F4 
  40      CB
  41 009b 3A21976F 		.ascii	":!\227o\035\355\353\273\274\034\010\321\353\243\306"
  41      1DEDEBBB 
  41      BC1C08D1 
  41      EBA3C6
  42 00aa E0FE5F79 		.ascii	"\340\376_y\031\214\023\203o;o\333_\316\025\253\374\234"
  42      198C1383 
  42      6F3B6FDB 
  42      5FCE15AB 
  42      FC9C
  43 00bc 3495E4C3 		.ascii	"4\225\344\303\377\224\334\214I>\276B\262\241\271\306"
  43      FF94DC8C 
  43      493EBE42 
  43      B2A1B9C6 
  44 00cc 829A10DF 		.ascii	"\202\232\020\3377>\035nc\3335\004\007\347\261\213\024"
  44      373E1D6E 
  44      63DB3504 
  44      07E7B18B 
ARM GAS  /tmp/ccpJRJbB.s 			page 3


  44      14
  45 00dd 4956938B 		.ascii	"IV\223\213N\225\005\252\264P^\244l\310b\212\016Kt\240"
  45      4E9505AA 
  45      B4505EA4 
  45      6CC8628A 
  45      0E4B74A0 
  46 00f1 484099F3 		.ascii	"H@\231\363j\207\324\257U\203\203\027o\220\037\362Wu"
  46      6A87D4AF 
  46      55838317 
  46      6F901FF2 
  46      5775
  47 0103 E73A83A7 		.ascii	"\347:\203\247\312A\024\016\256 k\366L\234\257;\234\343"
  47      CA41140E 
  47      AE206BF6 
  47      4C9CAF3B 
  47      9CE3
  48 0115 7A50E142 		.ascii	"zP\341B\344\025e8FY\305\246\247\014\221\001Z\345\233"
  48      E4156538 
  48      4659C5A6 
  48      A70C9101 
  48      5AE59B
  49 0128 3D2188B2 		.ascii	"=!\210\262\266\007\305\223\322\306\314\003\007\2271"
  49      B607C593 
  49      D2C6CC03 
  49      079731
  50 0137 012388D3 		.ascii	"\001#\210\323\360\213\033>&2u\356\036\224*Z\2042j\220"
  50      F08B1B3E 
  50      263275EE 
  50      1E942A5A 
  50      84326A90 
  51 014b C3A09F52 		.ascii	"\303\240\237R\310\326\005\242\021\250\220\237B\210V"
  51      C8D605A2 
  51      11A8909F 
  51      428856
  52 015a 85168F4B 		.ascii	"\205\026\217K\223\021\254S\207\252}\376\221\014k\037"
  52      9311AC53 
  52      87AA7DFE 
  52      910C6B1F 
  53 016a E07D81F3 		.ascii	"\340}\201\363[4l\251X\221\273d\370\242\362\232\244\322"
  53      5B346CA9 
  53      5891BB64 
  53      F8A2F29A 
  53      A4D2
  54 017c 269E229D 		.ascii	"&\236\"\235\224>\316X\321U-\015\207Z\344\260\341\303"
  54      943ECE58 
  54      D1552D0D 
  54      875AE4B0 
  54      E1C3
  55 018e A0863F7D 		.ascii	"\240\206?}d#8E\035\241\217\375\177\372\300\230\217\024"
  55      64233845 
  55      1DA18FFD 
  55      7FFAC098 
  55      8F14
  56 01a0 C001146A 		.ascii	"\300\001\024j\333\267CR\024\003\324HS\224\223\3524M"
  56      DBB74352 
  56      1403D448 
  56      539493EA 
ARM GAS  /tmp/ccpJRJbB.s 			page 4


  56      344D
  57 01b2 EB51DA1F 		.ascii	"\353Q\332\037\362\373\372\255\261\234\225\235\260rY"
  57      F2FBFAAD 
  57      B19C959D 
  57      B07259
  58 01c1 D772D319 		.ascii	"\327r\323\031/\343\216e=\323\205V\333N{\316\270=\344"
  58      2FE38E65 
  58      3DD38556 
  58      DB4E7BCE 
  58      B83DE4
  59 01d4 E43CDB36 		.ascii	"\344<\3336\357\244F\275\251\011\202\315\236\233u\304"
  59      EFA446BD 
  59      A90982CD 
  59      9E9B75C4 
  60 01e4 1B1D26E0 		.ascii	"\033\035&\340\256AY\326\357\335\270\304\270\336\334"
  60      AE4159D6 
  60      EFDDB8C4 
  60      B8DEDC
  61 01f3 F51B8178 		.ascii	"\365\033\201x\342\177"
  61      E27F
  62              		.text
  63              		.section	.gnu.lto_chCoreAlloc.46b8fef4e2645ea8,"",%progbits
  64 0000 789C9D54 		.ascii	"x\234\235TkH\024q\020\237\371\357\336\333GA\037\262"
  64      6B481471 
  64      109FF9EF 
  64      DEDB4741 
  64      1FB2
  65 0012 C2AE282A 		.ascii	"\302\256(*\212\333\300\312\276\004\205P\370A\212,\250"
  65      8ADBC0CA 
  65      BE048550 
  65      F8418A2C 
  65      A8
  66 0023 4FB16DC7 		.ascii	"O\261m\307\335\202\247r\247b\365\301\325\353\375 \211"
  66      DD82A772 
  66      A762F5C1 
  66      D5EBFD20 
  66      89
  67 0034 C05E8612 		.ascii	"\300^\206\022\226\021e\017\242\310\242\373\020\251W"
  67      9611650F 
  67      A2C8A2FB 
  67      10A957
  68 0043 09114141 		.ascii	"\011\021AA\304Q\021E/zaF\264\315\177\367v\3173Q\351"
  68      C4511145 
  68      2F7A6146 
  68      B4CD7FF7 
  68      76CF3351 
  69 0058 606F6667 		.ascii	"`ofg\376\277\371\315\314\177f\0310\030\376+\242g\216"
  69      FEBFF9CD 
  69      CC7F6619 
  69      3018FE2B 
  69      A2678E
  70 006b 13609024 		.ascii	"\023`\220$:\000Ys?@\243\2331\361\255\0134\257\320y\017"
  70      3A005973 
  70      3F40A39B 
  70      31F1AD0B 
  70      34AFD079 
  71 0080 40CB1150 		.ascii	"@\313\021P4\355\"\"W\000\241\201\011\"6lD\036\3049\023"
ARM GAS  /tmp/ccpJRJbB.s 			page 5


  71      34ED2222 
  71      5700A181 
  71      0922366C 
  71      441EC439 
  72 0095 DA35ED70 		.ascii	"\3325\355p\252c\340F\201\326\326\324\254\375\321uT\221"
  72      AA63E046 
  72      81D6D6D4 
  72      ACFDD175 
  72      5491
  73 00a7 E8662128 		.ascii	"\350f!(\010\033\350\005\375\206`b6\277\211L\334I\036"
  73      081BE805 
  73      FD866062 
  73      36BF894C 
  73      DC491E
  74 00ba 2C486690 		.ascii	",Hf\220\002\203y#\"#8\014\332\234\270\226l)\330\227"
  74      02837923 
  74      2223380C 
  74      DA9CB896 
  74      6C29D897 
  75 00ce 818A0C8A 		.ascii	"\201\212\014\212\306G\252]\351\324<m\332o]\027\014\306"
  75      C647AA5D 
  75      E9D43C6D 
  75      DA6F5D17 
  75      0CC6
  76 00e0 65E38235 		.ascii	"e\343\2025g\301\210m\325\377\261\255\031\013\326\305"
  76      67C1886D 
  76      D5FFB1AD 
  76      190BD6C5 
  77 00f0 12295D7F 		.ascii	"\022)]\177\336\335\366\362#N\234$`\004\321\011*:\\ "
  77      DEDDF6F2 
  77      234E9C24 
  77      6004D109 
  77      2A3A5C20 
  78 0104 633BCE04 		.ascii	"c;\316\0047\311\363$=$\317\221\364\222<K\322G\262\203"
  78      37C9F324 
  78      3D24CF91 
  78      F4923C4B 
  78      D247B283 
  79 0118 640E1D16 		.ascii	"d\016\035\026s9\"\217,\247\311\222O/t\325\340\200\035"
  79      7339228F 
  79      2CA7C992 
  79      4F2F74D5 
  79      E0801D
  80 012b 54873FDD 		.ascii	"T\207?\335\372\333=\007\206^\232\223\301\306\261R\003"
  80      FADB3D07 
  80      865E9A93 
  80      C1C6B152 
  80      03
  81 013c EEA7DF3A 		.ascii	"\356\247\337:\372\347\343\260\036\031\227B\0374\271"
  81      FAE7E3B0 
  81      1E199742 
  81      1F34B9
  82 014b AD7A5303 		.ascii	"\255zS\003\273\036\364\340\341\270\326\253\355HP\344"
  82      BB1EF4E0 
  82      E1B8D6AB 
  82      ED4850E4 
  83 015b E92ABA18 		.ascii	"\351*\272\030\354\306\261bs\233\313OJ?4}i\335y\365\200"
ARM GAS  /tmp/ccpJRJbB.s 			page 6


  83      ECC6B162 
  83      739BCB4F 
  83      4A3F347D 
  83      69DD79F5 
  84 0170 904ED7CA 		.ascii	"\220N\327\312;\361\371`g\376\\\031/QE\266\355[\313-"
  84      3BF1F960 
  84      67FE5C19 
  84      2F5145B6 
  84      ED5BCB2D 
  85 0184 DF34FB6D 		.ascii	"\3374\373m\357wJL\306\0134\320\212A\310\350\021\300"
  85      EF774A4C 
  85      C60B34D0 
  85      8A41C8E8 
  85      11C0
  86 0196 985B8417 		.ascii	"\230[\204\027\244\322\"\010\3466\024\302gl\325\216."
  86      A4D22208 
  86      E63614C2 
  86      676CD58E 
  86      2E
  87 01a7 57D19D45 		.ascii	"W\321\235E\237\361\177M\373=f\202f\221\346\035\204x"
  87      9FF17F4D 
  87      FB3D6682 
  87      6691E61D 
  87      8478
  88 01b9 D48710DF 		.ascii	"\324\207\020\337\023\177udJv[\217%\263\333*c\227\221"
  88      137F7564 
  88      4A765B8F 
  88      25B3DB2A 
  88      639791
  89 01cc C6E87D35 		.ascii	"\306\350}5chg\0179L\202L\031\306\321\020:\211\222C\301"
  89      6368670F 
  89      394C824C 
  89      19C6D110 
  89      3A899243 
  90 01e1 05067337 		.ascii	"\005\006s71O\226\261\233\316\204\320E~\303\371S\327"
  90      314F96B1 
  90      9BCE84D0 
  90      457EC3F9 
  90      53D7
  91 01f3 F57C2357 		.ascii	"\365|#Wf\372\254t]\034\324\324\367\364\314 \263@\356"
  91      66FAAC74 
  91      5D1CD4D4 
  91      F7F4CC20 
  91      B340EE
  92 0206 1370BC51 		.ascii	"\023p\274Q\323&\320Tn\207_\332\036\256y#\310\322\315"
  92      D326D054 
  92      6E875FDA 
  92      1EAE7923 
  92      C8D2CD
  93 0219 F0A63323 		.ascii	"\360\2463#\330{\301\302xB\274[d*\265,\336\221\243\300"
  93      D87BC1C2 
  93      7842BC5B 
  93      642AB52C 
  93      DE91A3C0 
  94 022d 68517C21 		.ascii	"hQ|!n\247\"\366\332\246\034#\266\3178\370)^h\231s\311"
  94      6EA722F6 
  94      DAA61C23 
ARM GAS  /tmp/ccpJRJbB.s 			page 7


  94      B6CF38F8 
  94      295E6899 
  95 0243 03D00B77 		.ascii	"\003\320\013w\3374\346\016)67\323\270\365t\023\364\255"
  95      DF34E60E 
  95      293637D3 
  95      B8F57413 
  95      F4AD
  96 0255 E223983A 		.ascii	"\342#\230:\325\201V\325\267\214\252M\226\375q\375\310"
  96      D58156D5 
  96      B78CAA4D 
  96      96FD71FD 
  96      C8
  97 0266 540B9D47 		.ascii	"T\013\235GV\253\035\351\"\306S\001\001->\321\032\371"
  97      56AB1DE9 
  97      22C65301 
  97      012D3ED1 
  97      1AF9
  98 0278 D4BBD368 		.ascii	"\324\273\323h\336\222\214\027\215;\263\206\304\336\204"
  98      DE928C17 
  98      8D3BB386 
  98      C4DE84
  99 0287 D7C33741 		.ascii	"\327\3037A\306\313cN\2031\2120\372&\334\347\233p7{\023"
  99      C6CB634E 
  99      83318A30 
  99      FA26DCE7 
  99      9B70377B 
 100 029c DEFB0AED 		.ascii	"\336\373\012\355\035\317\254\304\217!+\3410W\3309\302"
 100      1DCFACC4 
 100      8F212BE1 
 100      3057D839 
 100      C2
 101 02ad 56C8789D 		.ascii	"V\310x\235\024\233\332\332\002\031ob\241\231\326#hL"
 101      149BDADA 
 101      02196F62 
 101      A199D623 
 101      684C
 102 02bf 7D50CC50 		.ascii	"}P\314P!\344S\006\317 \237#\350\333\302\036<\236D\235"
 102      21E45306 
 102      CF209F23 
 102      E8DBC21E 
 102      3C9E449D 
 103 02d3 154E3EC9 		.ascii	"\025N>\311\341\237\007\344=\342\001f\004\002RIX\335"
 103      E19F07E4 
 103      3DE20166 
 103      04025249 
 103      58DD
 104 02e5 ACAE2E97 		.ascii	"\254\256.\227\252bR\264F\212E\025I\011G\202\021\245"
 104      AA6252B4 
 104      468A4515 
 104      49094782 
 104      11A5
 105 02f7 2A1A0C28 		.ascii	"*\032\014( \306\324mAOe\260\276\206l\201\245\266Vlk"
 105      20C6D46D 
 105      414F65B0 
 105      BE866C81 
 105      A5B6566C 
 106 030c 4BDCC1CA 		.ascii	"K\334\301\312-\\Yl)\213\260z\376?\201\253\253\24251"
ARM GAS  /tmp/ccpJRJbB.s 			page 8


 106      2D5C596C 
 106      298BB07A 
 106      FE3F81AB 
 106      ABA23531 
 107 0320 69C5DAB2 		.ascii	"i\305\332\262\222\262zb\340\3417\325\025G\002ap\324"
 107      92B27A62 
 107      E0E137D5 
 107      15470261 
 107      70D4
 108 0332 C915B5C1 		.ascii	"\311\025\265\301@6\202\202K%e\345\245\345\222Z\251T"
 108      40368282 
 108      4B2565E5 
 108      A5E5925A 
 108      A954
 109 0344 D46E094A 		.ascii	"\324n\011J\006B\211\254\254\255T\010\364o\346\366\271"
 109      064289AC 
 109      ACAD5408 
 109      F46FE6F6 
 109      B9
 110 0355 706C6B8C 		.ascii	"plk\214NL(+_\353\337,\307\202\325Qu\201\177\366B`Qp"
 110      4E4C282B 
 110      5FEBDF2C 
 110      C782D551 
 110      75817FF6 
 111 036d 517A55D1 		.ascii	"QzU\321\255\360\027 \356\300\237"
 111      ADF01720 
 111      EEC09F
 112              		.text
 113              		.section	.gnu.lto_chCoreAllocI.46b8fef4e2645ea8,"",%progbits
 114 0000 789C9D53 		.ascii	"x\234\235SMh\023A\024~of\327M\322\204\212x\251\202\324"
 114      4D681341 
 114      147E6F66 
 114      D74DD284 
 114      8A78A982 
 115 0015 E2D5EC41 		.ascii	"\342\325\354Am=\012\236\364\342A\003zL\327\220\356a"
 115      6D3D0A9E 
 115      F4E24103 
 115      7A4CD790 
 115      EE61
 116 0027 5B497B10 		.ascii	"[I{\020<t\222\355\241E\205Pr\251\026i\321j\375\001\301"
 116      3C7492ED 
 116      A1458550 
 116      72A91669 
 116      D16AFD01 
 117 003c AB8239A8 		.ascii	"\253\2029\250\230\240B\021AoA\021\004\301\263\212\270"
 117      98A04211 
 117      416F4111 
 117      04C1B38A 
 117      B8
 118 004d 7E33C926 		.ascii	"~3\311&V\212\006\027\226\367\366{\337\367\376fV\220"
 118      568A0617 
 118      96F7F67B 
 118      DFF7FE66 
 118      5690
 119 005f A03F9F03 		.ascii	"\240?\237\003x\227%Q\016\226mbQ}ETN\010a}rH\245\344"
 119      78972551 
 119      0E966D62 
ARM GAS  /tmp/ccpJRJbB.s 			page 9


 119      517D4554 
 119      4E08617D 
 120 0077 FA332295 		.ascii	"\3723\"\225\226l\265q\213Y;\3044+\244\305\263gX'\261"
 120      966CB571 
 120      8B593BC4 
 120      342BA4C5 
 120      B3675827 
 121 008c 476855A9 		.ascii	"GhU\251\305\326\323\233\337\304R\255>\267\242~D\021"
 121      C5D6D39B 
 121      DFC452AD 
 121      3EB7A27E 
 121      4411
 122 009e B3CF28B8 		.ascii	"\263\317(\270\217\311c:\215\017\0366FX\233;0\332\252"
 122      8FC9633A 
 122      8D0F1E36 
 122      46589B3B 
 122      30DAAA
 123 00b1 7AB0AE92 		.ascii	"z\260\256\222F'}\226\202\366\367%[\334$C\265\321\377"
 123      46277D96 
 123      82F6F725 
 123      5BDC2443 
 123      B5D1FF
 124 00c4 AB76A4BF 		.ascii	"\253v\244\277j\365\307\315\313C\315\225JU\375\304|\246"
 124      6AF5C7CD 
 124      CB43CD95 
 124      4A55FDC4 
 124      7CA6
 125 00d6 E0F12D95 		.ascii	"\340\361-\225\001\367\244\367E\275\025E\2176n\274\277"
 125      01F7A4F7 
 125      45BD1545 
 125      8F366EBC 
 125      BF
 126 00e7 C33B0699 		.ascii	"\303;\006\231|\266$\007\314\026<\333\006\225\035\312"
 126      7CB62407 
 126      CC163CDB 
 126      06951DCA 
 127 00f7 F32A8F50 		.ascii	"\363*\217P\002\366:l\022v\0156\005{\013v\000L\231\326"
 127      02F63A6C 
 127      12760D36 
 127      057B0B76 
 127      004C99D6 
 128 010b F40C90DB 		.ascii	"\364\014\220\333@\364\316i\016\203\014w\032[j^\032R"
 128      40F4CE69 
 128      0E830C77 
 128      1A5B6A5E 
 128      1A52
 129 011d BDC62C41 		.ascii	"\275\306,A\247\3765\022\3518\036\020I\237i\216\205\266"
 129      A7FE3512 
 129      E9381E10 
 129      499F698E 
 129      85B6
 130 012f F22585F3 		.ascii	"\362%\205\363\341\207\332\256<\337\305\205(\262Ud\251"
 130      E187DAAE 
 130      3CDFC585 
 130      28B25564 
 130      A9
 131 0140 F5DB1C90 		.ascii	"\365\333\034\220\021|\030\216\307!\033Q\023\372\032"
ARM GAS  /tmp/ccpJRJbB.s 			page 10


 131      117C188E 
 131      C7211B51 
 131      13FA1A
 132 014f 45D120C2 		.ascii	"E\321 \302\015\022\355\030\246BX\363+\215\267\270\025"
 132      0D12ED18 
 132      A64258F3 
 132      2B8DB7B8 
 132      15
 133 0160 B1C2B94A 		.ascii	"\261\302\271JW\312Jm\307\356.\320w5\257='`}/u\"\247"
 133      57CA4A6D 
 133      C7EE2ED0 
 133      7735AF3D 
 133      27607D2F 
 134 0177 D319649F 		.ascii	"\323\031d\237e\254I\0245\016\350X\214$\267\316B\177"
 134      65AC4914 
 134      350EE858 
 134      8C24B7CE 
 134      427F
 135 0189 CB9282CC 		.ascii	"\313\222\202\314\364\277\320\205\006L\356\224!~\011"
 135      F4BFD085 
 135      064CEE94 
 135      217E09
 136 0198 F7C4701A 		.ascii	"\367\304p\032\021\242\347\364\344c9\363\033f\367\026"
 136      11A2E7F4 
 136      E46339F3 
 136      1B66F716 
 137 01a8 976349F8 		.ascii	"\227cI\3701d\203*\255kk\334&\345\371\036N&\256r1\214"
 137      3164832A 
 137      AD6B6BDC 
 137      26E5F91E 
 137      4E26AE72 
 138 01be 6ABB6375 		.ascii	"j\273cu\006h\274\216\316\020\375L\000a\\\3172G\263\201"
 138      0668BC8E 
 138      CE10FD4C 
 138      00615CCF 
 138      3247B381 
 139 01d2 3F50C386 		.ascii	"?P\303\206\367\216XSq\252\342\305\353\235\250 \227\337"
 139      F78E5853 
 139      71AAE2C5 
 139      EB9DA820 
 139      97DF
 140 01e4 A4F571B2 		.ascii	"\244\365q\262\346\352\215\356\315f\335\243\023\376\270"
 140      E6EA8DEE 
 140      CD66DDA3 
 140      13FEB8
 141 01f3 7FE2A43B 		.ascii	"\177\342\244;5\355\226f\334\351\222\347z\023A!\360\246"
 141      35ED9666 
 141      DCE992E7 
 141      7A134121 
 141      F0A6
 142 0205 4A85AC47 		.ascii	"J\205\254G\211\302\344Y|e\017\306\316\241\344d\341\374"
 142      89C2E459 
 142      7C650FC6 
 142      CEA1E464 
 142      E1FC
 143 0217 8CF646BB 		.ascii	"\214\366F\273\336X\327;\314\347~\001\250\312\361\321"
 143      DE58D73B 
ARM GAS  /tmp/ccpJRJbB.s 			page 11


 143      CCE77E01 
 143      A8CAF1D1 
 144              		.text
 145              		.section	.gnu.lto_chCoreGetStatusX.46b8fef4e2645ea8,"",%progbits
 146 0000 789C6362 		.ascii	"x\234cb`b@\007\222@,\001\024\366\001\322\214\314\014"
 146      60624007 
 146      92402C01 
 146      14F601D2 
 146      8CCC0C
 147 0013 8C4C13CE 		.ascii	"\214L\023\316104r012\202\030\014\214\014\365L\214\365"
 147      31303472 
 147      30313282 
 147      180C8C0C 
 147      F54C8CF5 
 148 0027 918C20A5 		.ascii	"\221\214 \245,J\014\013\033\032&=8\272\376\"\363\314"
 148      2C4A0C0B 
 148      1B1A263D 
 148      38BAFE22 
 148      F3CC
 149 0039 29075A16 		.ascii	")\007Z\0264\374\371\377\237\2211\223\021h\254\012#C"
 149      34FCF9FF 
 149      9F913193 
 149      1168AC0A 
 149      2343
 150 004b 32234304 		.ascii	"2#C\004\220\303\250\000\246\230XP\355\001\353\235\320"
 150      90C3A800 
 150      A6985850 
 150      ED01EB9D 
 150      D0
 151 005c B0694503 		.ascii	"\260iE\003'X\037s&#3\023\203.Q\332&\241h\003\332fN\236"
 151      27581F73 
 151      26233313 
 151      832E51DA 
 151      26A16803 
 152 0074 6D4E84B4 		.ascii	"mN\204\264\255g:\360\340\377\377=\327\377<<\301(\304"
 152      AD673AF0 
 152      E0FFFF3D 
 152      D7FF3C3C 
 152      C128C4
 153 0087 C1C490C8 		.ascii	"\301\304\220\310\270\220Q\211\201\031H/\006\322,@z)"
 153      B8905189 
 153      8119482F 
 153      06D22C40 
 153      7A29
 154 0099 906605D2 		.ascii	"\220f\005\322\313\2014\033\003\320Tv \0012\205\225\241"
 154      CB81341B 
 154      03D05476 
 154      20013285 
 154      95A1
 155 00ab 0568A302 		.ascii	"\005h\243\002\003\310\006 \010\001\222\240\000\014e"
 155      03C80620 
 155      080192A0 
 155      000C65
 156 00ba 6402D1CC 		.ascii	"d\002\321\314g\031\232N\336\000\206[\"\343JFV\206tF"
 156      67199A4E 
 156      DE00865B 
 156      22E34A46 
ARM GAS  /tmp/ccpJRJbB.s 			page 12


 156      56867446 
 157 00ce A6D90CB3 		.ascii	"\246\331\014\263\032\033\032\004\200\336\251f\370\325"
 157      1A1B1A04 
 157      80DEA966 
 157      F8D5
 158 00dc D00162B1 		.ascii	"\320\001b\261\346\202\265\202\034\306\012u\020P\333"
 158      E682B582 
 158      1CC60A75 
 158      1050DB
 159 00eb 6BB81E66 		.ascii	"k\270\036f\2406\260\220'L\204\005\273)\214\370LaM\007"
 159      A036B090 
 159      274C8405 
 159      BB298CF8 
 159      4C614D07 
 160 00ff B9F72C43 		.ascii	"\271\367,Cs'\\\210\015l6+X\341\273f>\2300;P\206\201"
 160      73275C88 
 160      0D6C362B 
 160      58E1BB66 
 160      3E98303B 
 161 0116 E1220323 		.ascii	"\341\"\003#\\\000b\\\010\320\002\240\237@iIQOO\3379"
 161      5C00625C 
 161      08D002A0 
 161      9F406949 
 161      514F4FDF 
 162 012b 233329D3 		.ascii	"#3)\323?X?\277X\277\250D\277\270(Y?9#7579\277(U/\231"
 162      3F583FBF 
 162      58BFA844 
 162      BFB82859 
 162      3F392337 
 163 0147 8123352F 		.ascii	"\201#5/\005\310\323\263\344\2042\014\015\270\362R+J"
 163      05C8D3B3 
 163      E484320C 
 163      0DB8F252 
 163      2B4A
 164 0159 C04C4304 		.ascii	"\300LC\004\323\010\000j\324\2210"
 164      D308006A 
 164      D49130
 165              		.text
 166              		.section	.gnu.lto_.symbol_nodes.46b8fef4e2645ea8,"",%progbits
 167 0000 789C4DCA 		.ascii	"x\234M\312\273\015\2000\024CQ\333\217\267$\313\270M"
 167      BB0D8030 
 167      144351DB 
 167      8FB724CB 
 167      B84D
 168 0012 C9048CC4 		.ascii	"\311\004\214\304.\374S\022$\244\340\352\036\311\202"
 168      2EFC5312 
 168      24A4E0EA 
 168      1EC982
 169 0021 30E29B76 		.ascii	"0\342\233v\032\230\026\300\236\013\363f+\344J\016\216"
 169      1A9816C0 
 169      9E0BF366 
 169      2BE44A0E 
 169      8E
 170 0032 ACD4AB8D 		.ascii	"\254\324\253\215\321\244\203f\277\352\244\365\343EG"
 170      D1A48366 
 170      BFEAA4F5 
 170      E34547
ARM GAS  /tmp/ccpJRJbB.s 			page 13


 171 0041 271E8A4F 		.ascii	"'\036\212O\032E"
 171      1A45
 172              		.text
 173              		.section	.gnu.lto_.refs.46b8fef4e2645ea8,"",%progbits
 174 0000 789C6362 		.ascii	"x\234cb`bPd\200\000\026\006&FF&&fF\026fV0\207\211\231"
 174      60625064 
 174      80001606 
 174      26464626 
 174      26664616 
 175 001a 0D4233B1 		.ascii	"\015B3\261\203h\006\000\012\332\000l"
 175      83680600 
 175      0ADA006C 
 176              		.text
 177              		.section	.gnu.lto_.decls.46b8fef4e2645ea8,"",%progbits
 178 0000 789CB556 		.ascii	"x\234\265V]l\024U\024\276wv\332\355v\027\304\007\021"
 178      5D6C1455 
 178      14BE7776 
 178      DAED7617 
 178      C40711
 179 0013 9F00833E 		.ascii	"\237\000\203>@\272\243\265\306\372B\251\215B\023QBC"
 179      40BAA3B5 
 179      C6FA42A9 
 179      8D421351 
 179      4243
 180 0025 4282C964 		.ascii	"B\202\311d:;\270\033\366\007wf\201\032\023n\021\033"
 180      3A3BB81B 
 180      F6077766 
 180      811A136E 
 180      111B
 181 0037 2424ACC4 		.ascii	"$$\254\304\012&\002E(\322\204JiP\250?a\213\224\237\372"
 181      0A260245 
 181      28D2844A 
 181      6950A83F 
 181      618B949F 
 182 004c 93AE8A28 		.ascii	"\223\256\212(ZX%\201\320\247&>4\021\342x\356\314\235"
 182      5A582581 
 182      D0A7263E 
 182      3411E278 
 182      EECC9D
 183 005f 9D9DE92C 		.ascii	"\235\235\351,.$\334\344\264w\357\234\363}\337=\367\234"
 183      2E24DCE4 
 183      B477EF9C 
 183      F37DDF3D 
 183      F79C
 184 0071 B9C3210E 		.ascii	"\271\303!\016}\204\021\322a\374V\213\220\337\207P\025"
 184      7D8411D2 
 184      61FC568B 
 184      90DF8750 
 184      15
 185 0082 426831B2 		.ascii	"Bh1\262\007\017v\000\3540\330\000\330\011\266v\012l"
 185      070F7600 
 185      EC30D800 
 185      D809B676 
 185      0A6C
 186 0094 18EC2CD8 		.ascii	"\030\354,\3309\344\034\324\337\217L\254\231`!\2603`"
 186      39E41CD4 
 186      DF8F4CAC 
ARM GAS  /tmp/ccpJRJbB.s 			page 14


 186      996021B0 
 186      3360
 187 00a6 436017C0 		.ascii	"C`\027\300.2?\314|y\206u\216\341\236u\341Q\356 X\237"
 187      2E323FCC 
 187      7C798675 
 187      8EE19E75 
 187      E151EE20 
 188 00bc 0B8F671C 		.ascii	"\013\217g\034M`\243`c`\227J\360\375,\3662\330\025\260"
 188      4D60A360 
 188      6360974A 
 188      F0FD2CF6 
 188      32D815B0 
 189 00d0 71B6871B 		.ascii	"q\266\207\033`\267\300|\214\267\337c\017\324\257\206"
 189      60B7C07C 
 189      8CB7DF63 
 189      0FD4AF86 
 190 00e0 F1589C3C 		.ascii	"\361X\234<\343\252bZJ\3671P\2027\350\201G\363V\355\201"
 190      E3AA625A 
 190      4AF73150 
 190      8237E881 
 190      47F356ED 
 191 00f5 E7C6A17E 		.ascii	"\347\306\241~\034\213\037va\314E\373HO\2410rs\3401\322"
 191      1C8B1F76 
 191      61CC45FB 
 191      484FA130 
 191      7273E031 
 192 010a B325A7EB 		.ascii	"\263%\247\353Mh6\352&0z\272\010\301\232\204\027?\202"
 192      4D6836EA 
 192      26307ABA 
 192      08C19A84 
 192      173F82
 193 011d 566309CF 		.ascii	"Vc\011\317\014\240y\306$\0240H\020\222\360\307x6\233"
 193      0CA079C6 
 193      24143048 
 193      1092F0C7 
 193      78369B
 194 0130 ADF29970 		.ascii	"\255\362\231p\034Z\200\321B\324\007\361YB\376z\024y"
 194      1C5A80D1 
 194      42D407F1 
 194      5942FE7A 
 194      1479
 195 0142 8D27512F 		.ascii	"\215'Q/% G\210\317\200\247\000\007\360\334R\027\011"
 195      25204788 
 195      CF80A700 
 195      07F0DC52 
 195      1709
 196 0154 1FC4DC74 		.ascii	"\037\304\334t\235\271/\317\177\213\311.rG\327}n\235"
 196      9DB92FCF 
 196      7F8BC92E 
 196      7247D77D 
 196      6E9D
 197 0166 4DC1B23A 		.ascii	"M\301\262:?a:}F\032P\000m#d\013\015\\v\001\362\346\025"
 197      3F613A7D 
 197      461A5000 
 197      6D23640B 
 197      0D5C7601 
 198 017d F5043A04 		.ascii	"\365\004:\004;(\214\037\337+\020R#\341>\034\200\330"
ARM GAS  /tmp/ccpJRJbB.s 			page 15


 198      3B288C1F 
 198      DF2B1052 
 198      23E13E1C 
 198      80D8
 199 018f 218C01ED 		.ascii	"!\214\001\355\020^XTY\025p\252\206\337\226\003E3\036"
 199      105E5854 
 199      591570AA 
 199      86DF9603 
 199      45331E
 200 01a2 B309ED88 		.ascii	"\263\011\355\210\207Jse\244+\347\202\\\200\016\022\262"
 200      874A7365 
 200      A42BE782 
 200      5C800E12 
 200      B2
 201 01b3 ABD03B35 		.ascii	"\253\320;5\346\373\220\344x\213\371;\303\3550$\311K"
 201      E6FB90E4 
 201      788BF93B 
 201      C3ED3024 
 201      C94B
 202 01c5 ADE96565 		.ascii	"\255\351eev\0139\326\365\316,\336\310\010\272K\024\223"
 202      760B39D6 
 202      F5CE2CDE 
 202      C808BA4B 
 202      1493
 203 01d7 7C747AA2 		.ascii	"|tz\242\013\223\271\017FC\331\316\202\256\357_b\246"
 203      0B93B90F 
 203      4643D9CE 
 203      82AEEF5F 
 203      62A6
 204 01e9 8F43794F 		.ascii	"\217CyO\245d*\262\314\244\227\360\247\200$\341\201\373"
 204      A5642AB2 
 204      CCA497F0 
 204      A78024E1 
 204      81FB
 205 01fb 12592E8A 		.ascii	"\022Y.\212\211<\356Y\015S\333wXU[\343\252\006\312U\256"
 205      893CEE59 
 205      0D53DB77 
 205      58555BE3 
 205      AA06CA55 
 206 0210 1C3EF328 		.ascii	"\034>\363(\333\253\256\335\025e\016\036!\001K\272\204"
 206      DBABAEDD 
 206      15650E1E 
 206      21014BBA 
 206      84
 207 0221 4FDC5DE6 		.ascii	"O\334]\346\347N\231\217\243\003\244\220\315\345\273"
 207      E74E998F 
 207      A303A490 
 207      CDE5BB
 208 0230 BA31F913 		.ascii	"\2721\371\023\304\375\253\353\370a\224\245:\347\355"
 208      C4FDABEB 
 208      F86194A5 
 208      3AE7ED
 209 023f 99C9CAB0 		.ascii	"\231\311\312\260\320K\346\354\261\313\260\306\202\305"
 209      D04BE6EC 
 209      B1CBB0C6 
 209      82C5
 210 024d 76199EDE 		.ascii	"v\031\236\336\331\277\310(\303/\214b\270\3169\265V\016"
ARM GAS  /tmp/ccpJRJbB.s 			page 16


 210      D9BFC828 
 210      C32F8C62 
 210      B8CE39B5 
 210      560E
 211 025f 7472F7BE 		.ascii	"tr\367\276F\003\350k\003h\322\347\256g\354\252g\354"
 211      4603E86B 
 211      0368D2E7 
 211      AE67ECAA 
 211      67EC
 212 0271 AC671CB0 		.ascii	"\254g\034\260':F\367\345+\341!HB\311\340\320?>\354@"
 212      273A46F7 
 212      E52BE121 
 212      4842C9E0 
 212      D03F3EEC 
 213 0286 CAD969A4 		.ascii	"\312\331i\244)$?\026F\256\275OO\332La\020m\267\373\327"
 213      29243F16 
 213      46AEBD4F 
 213      4FDA4C61 
 213      106DB7FB 
 214 029b 4C4AB9A3 		.ascii	"LJ\271\243>\203\2036\3156\336\332n9\367o\234\304pv?"
 214      3E838336 
 214      CD36DEDA 
 214      6E39F76F 
 214      9CC47076 
 215 02b0 959E9D29 		.ascii	"\225\236\235)\235CY\336\251w\304\2557\247\367^\244\357"
 215      9D4359DE 
 215      A977C4AD 
 215      37A7F75E 
 215      A4EF
 216 02c2 2932093D 		.ascii	")2\011=o\252\340\320\336\377\245?o\343\270\366Hy\313"
 216      6FAAE0D0 
 216      DEFFA53F 
 216      6FE3B8F6 
 216      4879CB
 217 02d5 455DB0F7 		.ascii	"E]\260\367\350\212\242\274\345\242.\332Q\225\277\017"
 217      E88AA2BC 
 217      E5A22EDA 
 217      5195BF0F 
 218 02e5 4FEF1C19 		.ascii	"O\357\034\031\306p\012\360`\324\250\240C\274g)V\000"
 218      C6700AF0 
 218      60D4A8A0 
 218      43BC6729 
 218      5600
 219 02f7 7572F757 		.ascii	"ur\367W\317\033\245\370\275\001\324\317\273K\321\357"
 219      CF1BA5F8 
 219      BD01D4CF 
 219      BB4BD1EF 
 220 0307 2A45BFB3 		.ascii	"*E\277\263\274\374\001{\302^\255\367\350\316:\261g\211"
 220      BCFC017B 
 220      C25EADF7 
 220      E8CE3AB1 
 220      6789
 221 0319 A315E7DC 		.ascii	"\243\025\347\334\245\201\350\235\306I8o(>\305;\033\240"
 221      A581E89D 
 221      C649386F 
 221      283EC53B 
 221      1BA0
ARM GAS  /tmp/ccpJRJbB.s 			page 17


 222 032b 843BCFDA 		.ascii	"\204;\317\332\210\306\347\213}\220g\215\300\340gY\360"
 222      88C6E78B 
 222      7D90678D 
 222      C0E06759 
 222      F0
 223 033c 1C8B1A63 		.ascii	"\034\213\032cma\210!\305C\014\225\257\356\237KxB\001"
 223      6D618821 
 223      C5430C95 
 223      AFEE9F4B 
 223      784201
 224 034f 7B6209B3 		.ascii	"{b\011\263\3375&;\303i\264\374\374\014\347\322=3\377"
 224      DF35263B 
 224      C369B4FC 
 224      FC0CE7D2 
 224      3D33FF
 225 0362 5286B99A 		.ascii	"R\206\271\2321\323\027tn\262p\373\372\330\232\243\203"
 225      31D31774 
 225      6EB270FB 
 225      FAD89AA3 
 225      83
 226 0373 84BC0BED 		.ascii	"\204\274\013\355\263\271s+6?\0318t\215\367|\333\272"
 226      B3B9732B 
 226      363F1938 
 226      748DF77C 
 226      DBBA
 227 0385 BE092EBB 		.ascii	"\276\011.\273\277\011~\235~\013\000\311\340\315\\\007"
 227      BF097E9D 
 227      7E0B00C9 
 227      E0CD5C07 
 228 0395 DC955B89 		.ascii	"\334\225[\211\256o\236o1tWU\302p\305\315\360\273'\203"
 228      AE6F9E6F 
 228      31745755 
 228      C270C5CD 
 228      F0BB2783 
 229 03a9 3E31B603 		.ascii	">1\266\003\277w\254\213\320+q\363\376\\\226\257\374"
 229      BF77AC8B 
 229      D02B71F3 
 229      FE5C96AF 
 229      FC
 230 03ba 1BE9AAF3 		.ascii	"\033\351\252\363\333\303l\034\327G\300\017\016\261\206"
 230      DBC36C1C 
 230      D747C00F 
 230      0EB186
 231 03c9 2787FEA8 		.ascii	"'\207\376\250b\307\310.\332\374\271P\266\330w\023F\304"
 231      62C7C82E 
 231      DAFCB950 
 231      B6D87713 
 231      46C4
 232 03db 78D9AB76 		.ascii	"x\331\253v\264\344\252%\344\357\316\025s\212{\036w\357"
 232      B4E4AA25 
 232      E4EFCE15 
 232      738A7B1E 
 232      77EF
 233 03ed B9E0B9E7 		.ascii	"\271\340\271\347\333\327'_\363:\272\311\212\022{\303"
 233      DBD7275F 
 233      F33ABAC9 
 233      8A127BC3 
ARM GAS  /tmp/ccpJRJbB.s 			page 18


 234 03fd 4D72B3DC 		.ascii	"Mr\263\334\321\2755\355\350\356T\304p\313\3150\341d"
 234      D1BD35ED 
 234      E8EE54C4 
 234      70CBCD30 
 234      E164
 235 040f 40F3C361 		.ascii	"@\363\303a\241%\032k\217\275\332&\244T!\255\011jZ\026"
 235      A1251A6B 
 235      8FBDDA26 
 235      A45421AD 
 235      096A5A16 
 236 0423 E4684249 		.ascii	"\344hBI\310\251\264\022\226Q\255H'b,\031\323\252\227"
 236      C8A9B412 
 236      9651AD48 
 236      27622C19 
 236      D3AA97
 237 0436 BEB26A5E 		.ascii	"\276\262j^\013\352\304Br\255J\355Y!\232J(BZQ\025)-G"
 237      0BEAC442 
 237      72AD4AED 
 237      59219A4A 
 237      28425A51 
 238 044e 85A8948E 		.ascii	"\205\250\224\216l\224\322\212 \245\023\365\302\353\262"
 238      6C94D28A 
 238      20A513F5 
 238      C2EBB2
 239 045d 5C07933A 		.ascii	"\\\007\223:%\321\256D\"J\244\270\220L%\225:Ej\217\325"
 239      25D1AE44 
 239      224AA4B8 
 239      904C2595 
 239      3A456A8F 
 240 0472 35888D75 		.ascii	"5\210\215u\365O=\335\360F\275\020\217\265S\007\301\341"
 240      F54F3DDD 
 240      F046BD10 
 240      8FB55307 
 240      C1E1
 241 0484 2034841B 		.ascii	" 4\204\033\303\015B,)\3073\021EP5\300Y\033\216\242j"
 241      C30D422C 
 241      29C73311 
 241      455035C0 
 241      591B8EA2 
 242 0499 35F6A622 		.ascii	"5\366\246\"jA9\332\002\342\232\343\361\224\314\323\245"
 242      6A4139DA 
 242      02E29AE3 
 242      F194CCD3 
 242      A5
 243 04aa 50C942EB 		.ascii	"P\311B\353,\363\307REk\323$-\243\256V\037\204n\247\336"
 243      2CF3C752 
 243      456BD324 
 243      2DA3AE56 
 243      1F846EA7 
 244 04bf 12A5B1A4 		.ascii	"\022\245\261\244\006J\375\031\370\337(jo?\220\244y\223"
 244      064AFD19 
 244      F8DF286A 
 244      6F3F90A4 
 244      7993
 245 04d1 2724391A 		.ascii	"'$9\032K*\202\010\311\2222qM\324:\326+*\210\011\210"
 245      4B2A8208 
 245      C9923271 
ARM GAS  /tmp/ccpJRJbB.s 			page 19


 245      4DD43AD6 
 245      2B2A8809 
 246 04e6 22933343 		.ascii	"\"\2233C\024\243\212\264^l\227TE\024\375Ie\223\006G"
 246      14A38AB4 
 246      5E6C9754 
 246      4514FD49 
 246      65930647 
 247 04fa 1E62AB4A 		.ascii	"\036b\253J2\"\212\325\360\027\326jh\3043\365\242Vk\006"
 247      32228AD5 
 247      F017D66A 
 247      68C433F5 
 247      A2566B06 
 248 050e D3292F83 		.ascii	"\323)/\203\350\351\245c\361\313Q\265\303\240\223\243"
 248      E8E9A563 
 248      F1CB51B5 
 248      C3A093A3 
 249 051e 6D1DEACB 		.ascii	"m\035\352\313)y\335\242i\276\353SiM\025\232W.oY\276"
 249      2979DDA2 
 249      69BEEB53 
 249      694D159A 
 249      572E6F59 
 250 0533 09028C1A 		.ascii	"\011\002\214\032\333\360\\\202F\321G\"\034\340\272\260"
 250      DBF05C82 
 250      46D14722 
 250      1CE0BAB0 
 251 0543 330A340A 		.ascii	"3\0124\012-\313\333Z\333l\"\032%'^\312$e\010\204=\251"
 251      2DCBDB5A 
 251      DB6C221A 
 251      25275ECA 
 251      24650884 
 252 0559 8A26BED0 		.ascii	"\212&\276\320\334\366\342\212\225\2553\244\370F\251"
 252      DCF6E28A 
 252      95AD33A4 
 252      F846A9
 253 0568 4385C28D 		.ascii	"C\205\302\215C.\2526H\361\214\0224\004\255JR\360\240"
 253      432EAA36 
 253      48F18C12 
 253      3404AD4A 
 253      52F0A0
 254 057b 419331E6 		.ascii	"A\2231\346\377\001\341x^\335"
 254      FF01E178 
 254      5EDD
 255              		.text
 256              		.section	.gnu.lto_.symtab.46b8fef4e2645ea8,"",%progbits
 257 0000 5F636F72 		.ascii	"_core_init\000\000\000\000\000\000\000\000\000\000\000"
 257      655F696E 
 257      69740000 
 257      00000000 
 257      00000000 
 258 0015 00A10000 		.ascii	"\000\241\000\000\000chCoreAlloc\000\000\000\000\000"
 258      00636843 
 258      6F726541 
 258      6C6C6F63 
 258      00000000 
 259 002a 00000000 		.ascii	"\000\000\000\000\000\000\000\246\000\000\000chCoreA"
 259      000000A6 
 259      00000063 
ARM GAS  /tmp/ccpJRJbB.s 			page 20


 259      68436F72 
 259      6541
 260 003c 6C6C6F63 		.ascii	"llocI\000\000\000\000\000\000\000\000\000\000\000\000"
 260      49000000 
 260      00000000 
 260      00000000 
 260      00
 261 004d B0000000 		.ascii	"\260\000\000\000chCoreGetStatusX\000\000\000\000\000"
 261      6368436F 
 261      72654765 
 261      74537461 
 261      74757358 
 262 0066 00000000 		.ascii	"\000\000\000\000\000\000\000\264\000\000\000__heap_"
 262      000000B4 
 262      0000005F 
 262      5F686561 
 262      705F
 263 0078 62617365 		.ascii	"base__\000\000\002\000\000\000\000\000\000\000\000\000"
 263      5F5F0000 
 263      02000000 
 263      00000000 
 263      0000
 264 008a B8000000 		.ascii	"\270\000\000\000__heap_end__\000\000\002\000\000\000"
 264      5F5F6865 
 264      61705F65 
 264      6E645F5F 
 264      00000200 
 265 00a0 00000000 		.ascii	"\000\000\000\000\000\000\304\000\000\000"
 265      0000C400 
 265      0000
 266              		.text
 267              		.section	.gnu.lto_.opts,"",%progbits
 268 0000 272D6D63 		.ascii	"'-mcpu=cortex-m4' '-mno-thumb-interwork' '-mthumb' "
 268      70753D63 
 268      6F727465 
 268      782D6D34 
 268      2720272D 
 269 0033 272D6767 		.ascii	"'-ggdb' '-O2' '-fomit-frame-pointer' '-falign-funct"
 269      64622720 
 269      272D4F32 
 269      2720272D 
 269      666F6D69 
 270 0066 696F6E73 		.ascii	"ions=16' '-ffunction-sections' '-fdata-sections' '-"
 270      3D313627 
 270      20272D66 
 270      66756E63 
 270      74696F6E 
 271 0099 666E6F2D 		.ascii	"fno-common' '-flto'\000"
 271      636F6D6D 
 271      6F6E2720 
 271      272D666C 
 271      746F2700 
 272              		.text
 273              		.cfi_sections	.debug_frame
 274              		.section	.text._core_init,"ax",%progbits
 275              		.align	2
 276              		.p2align 4,,15
ARM GAS  /tmp/ccpJRJbB.s 			page 21


 277              		.global	_core_init
 278              		.thumb
 279              		.thumb_func
 280              		.type	_core_init, %function
 281              	_core_init:
 282              	.LFB241:
 283              		.file 1 "../ChibiOS/os/rt/src/chmemcore.c"
 284              		.loc 1 78 0
 285              		.cfi_startproc
 286              		@ args = 0, pretend = 0, frame = 0
 287              		@ frame_needed = 0, uses_anonymous_args = 0
 288              		@ link register save eliminated.
 289              		.loc 1 84 0
 290 0000 0548     		ldr	r0, .L2
 291              		.loc 1 85 0
 292 0002 064A     		ldr	r2, .L2+4
 293              		.loc 1 84 0
 294 0004 0649     		ldr	r1, .L2+8
 295              		.loc 1 85 0
 296 0006 074B     		ldr	r3, .L2+12
 297              		.loc 1 84 0
 298 0008 20F00700 		bic	r0, r0, #7
 299              		.loc 1 85 0
 300 000c 22F00702 		bic	r2, r2, #7
 301              		.loc 1 84 0
 302 0010 0860     		str	r0, [r1]
 303              		.loc 1 85 0
 304 0012 1A60     		str	r2, [r3]
 305 0014 7047     		bx	lr
 306              	.L3:
 307 0016 00BF     		.align	2
 308              	.L2:
 309 0018 07000000 		.word	__heap_base__+7
 310 001c 00000000 		.word	__heap_end__
 311 0020 00000000 		.word	.LANCHOR0
 312 0024 00000000 		.word	.LANCHOR1
 313              		.cfi_endproc
 314              	.LFE241:
 315              		.size	_core_init, .-_core_init
 316 0028 AFF30080 		.section	.text.chCoreAlloc,"ax",%progbits
 316      AFF30080 
 317              		.align	2
 318              		.p2align 4,,15
 319              		.global	chCoreAlloc
 320              		.thumb
 321              		.thumb_func
 322              		.type	chCoreAlloc, %function
 323              	chCoreAlloc:
 324              	.LFB242:
 325              		.loc 1 109 0
 326              		.cfi_startproc
 327              		@ args = 0, pretend = 0, frame = 0
 328              		@ frame_needed = 0, uses_anonymous_args = 0
 329              		@ link register save eliminated.
 330              	.LVL0:
 331              	.LBB26:
 332              	.LBB27:
ARM GAS  /tmp/ccpJRJbB.s 			page 22


 333              	.LBB28:
 334              	.LBB29:
 335              		.file 2 "../ChibiOS/os/ext/CMSIS/include/core_cmFunc.h"
 336              		.loc 2 548 0
 337 0000 2023     		movs	r3, #32
 338              	@ 548 "../ChibiOS/os/ext/CMSIS/include/core_cmFunc.h" 1
 339 0002 83F31188 		MSR basepri, r3
 340              	@ 0 "" 2
 341              	.LVL1:
 342              		.thumb
 343              	.LBE29:
 344              	.LBE28:
 345              	.LBE27:
 346              	.LBE26:
 347              	.LBB30:
 348              	.LBB31:
 349              		.loc 1 138 0
 350 0006 094A     		ldr	r2, .L7
 351 0008 0949     		ldr	r1, .L7+4
 352 000a 1368     		ldr	r3, [r2]
 353 000c 0968     		ldr	r1, [r1]
 354              		.loc 1 136 0
 355 000e 0730     		adds	r0, r0, #7
 356              	.LVL2:
 357 0010 20F00700 		bic	r0, r0, #7
 358              	.LVL3:
 359              		.loc 1 138 0
 360 0014 C91A     		subs	r1, r1, r3
 361 0016 8842     		cmp	r0, r1
 362              	.LVL4:
 363              		.loc 1 143 0
 364 0018 9BBF     		ittet	ls
 365 001a C018     		addls	r0, r0, r3
 366              	.LVL5:
 367 001c 1060     		strls	r0, [r2]
 368              		.loc 1 140 0
 369 001e 0020     		movhi	r0, #0
 370              	.LVL6:
 371              		.loc 1 145 0
 372 0020 1846     		movls	r0, r3
 373              	.LBE31:
 374              	.LBE30:
 375              	.LBB32:
 376              	.LBB33:
 377              	.LBB34:
 378              	.LBB35:
 379              	.LBB36:
 380              		.loc 2 548 0
 381 0022 0023     		movs	r3, #0
 382              	.LVL7:
 383              	@ 548 "../ChibiOS/os/ext/CMSIS/include/core_cmFunc.h" 1
 384 0024 83F31188 		MSR basepri, r3
 385              	@ 0 "" 2
 386              		.thumb
 387              	.LBE36:
 388              	.LBE35:
 389              	.LBE34:
ARM GAS  /tmp/ccpJRJbB.s 			page 23


 390              	.LBE33:
 391              	.LBE32:
 392              		.loc 1 117 0
 393 0028 7047     		bx	lr
 394              	.L8:
 395 002a 00BF     		.align	2
 396              	.L7:
 397 002c 00000000 		.word	.LANCHOR0
 398 0030 00000000 		.word	.LANCHOR1
 399              		.cfi_endproc
 400              	.LFE242:
 401              		.size	chCoreAlloc, .-chCoreAlloc
 402 0034 AFF30080 		.section	.text.chCoreAllocI,"ax",%progbits
 402      AFF30080 
 402      AFF30080 
 403              		.align	2
 404              		.p2align 4,,15
 405              		.global	chCoreAllocI
 406              		.thumb
 407              		.thumb_func
 408              		.type	chCoreAllocI, %function
 409              	chCoreAllocI:
 410              	.LFB243:
 411              		.loc 1 131 0
 412              		.cfi_startproc
 413              		@ args = 0, pretend = 0, frame = 0
 414              		@ frame_needed = 0, uses_anonymous_args = 0
 415              		@ link register save eliminated.
 416              	.LVL8:
 417              		.loc 1 138 0
 418 0000 074A     		ldr	r2, .L12
 419 0002 0849     		ldr	r1, .L12+4
 420 0004 1368     		ldr	r3, [r2]
 421 0006 0968     		ldr	r1, [r1]
 422              		.loc 1 136 0
 423 0008 0730     		adds	r0, r0, #7
 424              	.LVL9:
 425 000a 20F00700 		bic	r0, r0, #7
 426              	.LVL10:
 427              		.loc 1 138 0
 428 000e C91A     		subs	r1, r1, r3
 429 0010 8842     		cmp	r0, r1
 430              	.LVL11:
 431              		.loc 1 143 0
 432 0012 9DBF     		ittte	ls
 433 0014 C018     		addls	r0, r0, r3
 434              	.LVL12:
 435 0016 1060     		strls	r0, [r2]
 436              		.loc 1 145 0
 437 0018 1846     		movls	r0, r3
 438              		.loc 1 140 0
 439 001a 0020     		movhi	r0, #0
 440              		.loc 1 146 0
 441 001c 7047     		bx	lr
 442              	.L13:
 443 001e 00BF     		.align	2
 444              	.L12:
ARM GAS  /tmp/ccpJRJbB.s 			page 24


 445 0020 00000000 		.word	.LANCHOR0
 446 0024 00000000 		.word	.LANCHOR1
 447              		.cfi_endproc
 448              	.LFE243:
 449              		.size	chCoreAllocI, .-chCoreAllocI
 450 0028 AFF30080 		.section	.text.chCoreGetStatusX,"ax",%progbits
 450      AFF30080 
 451              		.align	2
 452              		.p2align 4,,15
 453              		.global	chCoreGetStatusX
 454              		.thumb
 455              		.thumb_func
 456              		.type	chCoreGetStatusX, %function
 457              	chCoreGetStatusX:
 458              	.LFB244:
 459              		.loc 1 155 0
 460              		.cfi_startproc
 461              		@ args = 0, pretend = 0, frame = 0
 462              		@ frame_needed = 0, uses_anonymous_args = 0
 463              		@ link register save eliminated.
 464              		.loc 1 158 0
 465 0000 024A     		ldr	r2, .L15
 466 0002 034B     		ldr	r3, .L15+4
 467 0004 1068     		ldr	r0, [r2]
 468 0006 1B68     		ldr	r3, [r3]
 469              		.loc 1 160 0
 470 0008 C01A     		subs	r0, r0, r3
 471 000a 7047     		bx	lr
 472              	.L16:
 473              		.align	2
 474              	.L15:
 475 000c 00000000 		.word	.LANCHOR1
 476 0010 00000000 		.word	.LANCHOR0
 477              		.cfi_endproc
 478              	.LFE244:
 479              		.size	chCoreGetStatusX, .-chCoreGetStatusX
 480 0014 AFF30080 		.section	.bss.endmem,"aw",%nobits
 480      AFF30080 
 480      AFF30080 
 481              		.align	2
 482              		.set	.LANCHOR1,. + 0
 483              		.type	endmem, %object
 484              		.size	endmem, 4
 485              	endmem:
 486 0000 00000000 		.space	4
 487              		.section	.bss.nextmem,"aw",%nobits
 488              		.align	2
 489              		.set	.LANCHOR0,. + 0
 490              		.type	nextmem, %object
 491              		.size	nextmem, 4
 492              	nextmem:
 493 0000 00000000 		.space	4
 494              		.text
 495              	.Letext0:
 496              		.file 3 "/nfs/nfs5/home/research/hardware/arm2/gcc-arm-embedded/gcc-arm-none-eabi-4_8-2014q2/lib/g
 497              		.file 4 "/nfs/nfs5/home/research/hardware/arm2/gcc-arm-embedded/gcc-arm-none-eabi-4_8-2014q2/arm-n
 498              		.file 5 "/nfs/nfs5/home/research/hardware/arm2/gcc-arm-embedded/gcc-arm-none-eabi-4_8-2014q2/arm-n
ARM GAS  /tmp/ccpJRJbB.s 			page 25


 499              		.file 6 "../ChibiOS/os/rt/ports/ARMCMx/compilers/GCC/chtypes.h"
 500              		.file 7 "../ChibiOS/os/rt/include/chsystypes.h"
 501              		.file 8 "../ChibiOS/os/rt/include/chschd.h"
 502              		.file 9 "../ChibiOS/os/rt/ports/ARMCMx/chcore.h"
 503              		.file 10 "../ChibiOS/os/rt/ports/ARMCMx/chcore_v7m.h"
 504              		.file 11 "../ChibiOS/os/rt/include/chtm.h"
 505              		.file 12 "../ChibiOS/os/rt/include/chsem.h"
 506              		.file 13 "../ChibiOS/os/rt/include/chmtx.h"
 507              		.file 14 "../ChibiOS/os/rt/include/chsys.h"
 508              		.file 15 "../ChibiOS/os/ext/CMSIS/include/core_cm4.h"