ARM GAS  /tmp/ccYQWmvd.s 			page 1


   1              		.syntax unified
   2              		.cpu cortex-m4
   3              		.fpu softvfp
   4              		.eabi_attribute 20, 1
   5              		.eabi_attribute 21, 1
   6              		.eabi_attribute 23, 3
   7              		.eabi_attribute 24, 1
   8              		.eabi_attribute 25, 1
   9              		.eabi_attribute 26, 1
  10              		.eabi_attribute 30, 6
  11              		.eabi_attribute 34, 1
  12              		.eabi_attribute 18, 4
  13              		.thumb
  14              		.file	"chmsg.c"
  15              		.text
  16              	.Ltext0:
  17              		.section	.gnu.lto_.inline.9c0660f8d10ef39e,"",%progbits
  18 0000 789C6362 		.ascii	"x\234cb`b\300\006$\030!47\003\003\0133\003\003\023\313"
  18      6062C006 
  18      24182134 
  18      3703030B 
  18      33030313 
  19 0015 073D0616 		.ascii	"\007=\006\026\210ZF\014\021&\006N\016 \311\327P\013"
  19      885A460C 
  19      1126064E 
  19      0E20C9D7 
  19      500B
  20 0027 136166E0 		.ascii	"\023af\340`\007\212\360l\310\205\211\2600\260\360\000"
  20      60078AF0 
  20      6CC88589 
  20      B030B0F0 
  20      00
  21 0038 459816C8 		.ascii	"E\230\026\310\303\315\341\002\022\254\330\205\331\030"
  21      C3CDE102 
  21      12ACD885 
  21      D918
  22 0046 585980C2 		.ascii	"XY\200\302l\007\354`\302\354\014l|\250\012\231\201\032"
  22      6C07EC60 
  22      C2EC0C6C 
  22      7CA80A99 
  22      811A
  23 0058 19381884 		.ascii	"\0318\030\204\354P\255\006\353g\342\206\021`U`1.\006"
  23      EC50AD06 
  23      EB67E286 
  23      11605560 
  23      312E06
  24 006b 617B2C4A 		.ascii	"a{,J\301\012\320\224r3p(aq\025B\001\003\000\200C\015"
  24      C10AD094 
  24      72337028 
  24      61711542 
  24      01030080 
  25 0081 51       		.ascii	"Q"
  26              		.text
  27              		.section	.gnu.lto_port_lock.9c0660f8d10ef39e,"",%progbits
  28 0000 789C6362 		.ascii	"x\234cb`b@\007\"@,\310\310\300P\007\342030\002U021\002"
  28      60624007 
  28      22402CC8 
ARM GAS  /tmp/ccYQWmvd.s 			page 2


  28      C8C05007 
  28      E2303330 
  29 001a 05181819 		.ascii	"\005\030\030\031\352\231\030\353#AL\006F%\206\205\015"
  29      EA9918EB 
  29      23414C06 
  29      46258685 
  29      0D
  30 002b 0D931EB4 		.ascii	"\015\223\036\264>{\3144\263\341@\313\202\206?\377\377"
  30      3E7BCC34 
  30      B3E140CB 
  30      82863FFF 
  30      FF
  31 003c 33326632 		.ascii	"32f2\002M\324cdHfd\210\000r\030\025\300\024\023\013"
  31      024DD463 
  31      64486664 
  31      88007218 
  31      15C01413 
  32 0051 AA15EB99 		.ascii	"\252\025\353\231\016<\370\377\377D\347\363\275@\223"
  32      0E3CF8FF 
  32      FF44E7F3 
  32      BD4093
  33 0060 19121917 		.ascii	"\031\022\031\027\002M\003\002V\206\226\206\206\011\012"
  33      024D0302 
  33      56869686 
  33      86090A
  34 006f 0C20DD40 		.ascii	"\014 \335@\020\002&CA\016`>\313\320\264\003H\24732\202"
  34      10022643 
  34      410E603E 
  34      CBD0B403 
  34      48A73332 
  35 0084 CC6300AA 		.ascii	"\314c\000\252a8\307\320\364\361\315\214\307\022p]`F"
  35      6138C7D0 
  35      F4F1CD8C 
  35      C712705D 
  35      6046
  36 0096 C381EE2B 		.ascii	"\303\201\356+\355\2540#\023\031\0273\262\002\215\203"
  36      EDAC3023 
  36      13191733 
  36      B2028D83 
  37 00a6 38190893 		.ascii	"8\031\010\223\231A>f\206x[\216\241dn\303\014\207LFf"
  37      99413E66 
  37      86785B8E 
  37      A1646EC3 
  37      0C874C46 
  38 00bb 102F1DAC 		.ascii	"\020/\035\254\012.U\016\221\202\272\374\"C\343\203\235"
  38      0A2E550E 
  38      9182BAFC 
  38      2243E383 
  38      9D
  39 00cc FA10E360 		.ascii	"\372\020\343` \004\244\001\244Z[OO\3379#3)\323?X?\277"
  39      2004A401 
  39      A45A5B4F 
  39      4FDF3923 
  39      3329D33F 
  40 00e3 58BFA844 		.ascii	"X\277\250D\277 \277\250\244X\3371\310\327\331\267B?"
  40      BF20BFA8 
  40      A458DF31 
ARM GAS  /tmp/ccYQWmvd.s 			page 3


  40      C8D7D9B7 
  40      423F
  41 00f5 392339BF 		.ascii	"9#9\277(5\276\314<W/\203\201\265,1\2474U\017UGjE\211"
  41      2835BECC 
  41      3C572F83 
  41      81B52C31 
  41      A734550F 
  42 010e BEB36FB0 		.ascii	"\276\263o\260g\260~f^rNiJ\252>XGr\256[i^2P\223\200o"
  42      67B07E66 
  42      5E724E69 
  42      4AAA3E58 
  42      4772AE5B 
  43 0129 70904252 		.ascii	"p\220BRbqjAQ\246\216\202\252\001\003S\021\003{njn~Q"
  43      62716A41 
  43      51A68E82 
  43      AA010353 
  43      11037B6E 
  44 0141 2503005A 		.ascii	"%\003\000Z\240au"
  44      A06175
  45              		.text
  46              		.section	.gnu.lto_port_unlock.9c0660f8d10ef39e,"",%progbits
  47 0000 789C6362 		.ascii	"x\234cb`b@\007\"@,\310\310\300P\007\342030\002U021\002"
  47      60624007 
  47      22402CC8 
  47      C8C05007 
  47      E2303330 
  48 001a 05181819 		.ascii	"\005\030\030\031\352\231\030\353#AL\006F%\206\205\015"
  48      EA9918EB 
  48      23414C06 
  48      46258685 
  48      0D
  49 002b 0D931EB4 		.ascii	"\015\223\036\264~z\3144\263\341@\313\202\206?\377\377"
  49      7E7ACC34 
  49      B3E140CB 
  49      82863FFF 
  49      FF
  50 003c 33326632 		.ascii	"32f2\002M\324cdHfd\210\000r\030\025\300\024\023\013"
  50      024DD463 
  50      64486664 
  50      88007218 
  50      15C01413 
  51 0051 AA15EB99 		.ascii	"\252\025\353\231\016<\370\377\377E\347\376}@\223\031"
  51      0E3CF8FF 
  51      FF45E7FE 
  51      7D409319 
  52 0061 12191702 		.ascii	"\022\031\027\002M\003\002V\206\226\206\206\011\012\014"
  52      4D030256 
  52      86968686 
  52      090A0C
  53 0070 20DD4010 		.ascii	" \335@\020\002&CA\016`>\313\320\264\003H\24732\202\314"
  53      02264341 
  53      0E603ECB 
  53      D0B40348 
  53      A7333282 
  54 0085 031B728E 		.ascii	"\003\033r\216\241\351\343\233\031\217%\340\272\300\214"
  54      A1E9E39B 
  54      198F25E0 
ARM GAS  /tmp/ccYQWmvd.s 			page 4


  54      BAC08C
  55 0094 8603A79F 		.ascii	"\206\003\247\237\266\263\302\214Ld\\\314\310\0124\016"
  55      B6B3C28C 
  55      4C645CCC 
  55      C80A340E 
  56 00a4 E264204C 		.ascii	"\342d Lf\006\371\230\031\342m9\206\222\271\0153\034"
  56      6606F998 
  56      19E26D39 
  56      8692B90D 
  56      331C
  57 00b6 32199941 		.ascii	"2\031\231A\274t\260*\270T9D\012\352\362\213\014\215"
  57      BC74B02A 
  57      B8543944 
  57      0AEAF28B 
  57      0C8D
  58 00c8 0FCEEB43 		.ascii	"\017\316\353C\214\203\201\020\220\006\220jm==}\347\214"
  58      8C838110 
  58      9006906A 
  58      6D3D3D7D 
  58      E78C
  59 00da CCA44CFF 		.ascii	"\314\244L\377`\375\374b\375\242\022\375\202\374\242"
  59      60FDFC62 
  59      FDA212FD 
  59      82FCA2
  60 00e9 92627DC7 		.ascii	"\222b}\307 _g\337\012\375\344\214\344\374\242\324\370"
  60      205F67DF 
  60      0AFDE48C 
  60      E4FCA2D4 
  60      F8
  61 00fa 32F35CBD 		.ascii	"2\363\\\275\014\006\326\262\304\234\322T=T\035\251\025"
  61      0C06D6B2 
  61      C49CD254 
  61      3D541DA9 
  61      15
  62 010b 25FACEBE 		.ascii	"%\372\316\276\301\236\301\372\231y\3119\245)\251\372"
  62      C19EC1FA 
  62      9979C939 
  62      A529A9FA 
  63 011b 601DC9B9 		.ascii	"`\035\311\271n\245y\311@M\002\276\301A\012I\211\305"
  63      6EA579C9 
  63      404D02BE 
  63      C1410A49 
  63      89C5
  64 012d A9054599 		.ascii	"\251\005E\231:\012\252\006\014LE\014\354\271\251\271"
  64      3A0AAA06 
  64      0C4C450C 
  64      ECB9A9B9 
  65 013d F945950C 		.ascii	"\371E\225\014\000\233\025a\301"
  65      009B1561 
  65      C1
  66              		.text
  67              		.section	.gnu.lto_queue_insert.9c0660f8d10ef39e,"",%progbits
  68 0000 789C6362 		.ascii	"x\234cb`b@\007\"@\254\014\024V\001q\230\031\030\201"
  68      60624007 
  68      2240AC0C 
  68      14560171 
  68      98191881 
ARM GAS  /tmp/ccYQWmvd.s 			page 5


  69 0014 4C462646 		.ascii	"LF&FF \207\221\241\236\211\261>\022\304d`RbX\330\320"
  69      46208791 
  69      A19E89B1 
  69      3E12C464 
  69      60526258 
  70 002a 30E941EB 		.ascii	"0\351A\353\372^\355\231S\016\264,h\370\363\377?#c&H"
  70      FA5EED99 
  70      530EB42C 
  70      68F8F3FF 
  70      3F236326 
  71 003f 32999121 		.ascii	"2\231\221!\002\310bT\000SL,\250\346C4\036\370\375j\205"
  71      02C86254 
  71      00534C2C 
  71      A8E64334 
  71      1EF8FD6A 
  72 0054 64D782A6 		.ascii	"d\327\202\246\011\015\377\200\372\210\320\266\236\351"
  72      090DFF80 
  72      FA88D0B6 
  72      9EE9
  73 0062 C083FFFF 		.ascii	"\300\203\377\377\347\\?v\354 \343\376\255,\254\214\214"
  73      E75C3F76 
  73      EC20E3FE 
  73      AD2CAC8C 
  73      8C
  74 0073 B98C0C4C 		.ascii	"\271\214\014L@\202\221\231\001\250\235\205\001l\006"
  74      40829199 
  74      01A89D85 
  74      016C06
  75 0082 032B434B 		.ascii	"\003+CKC\303\004\005\260i@\020\002&CA\236`>\313\320"
  75      43C30405 
  75      B0694010 
  75      02264341 
  75      9E603ECB 
  76 0097 74FAC7BA 		.ascii	"t\372\307\272^\271D\306\305\214\254\014\332\014\253"
  76      5EB944C6 
  76      C58CAC0C 
  76      DA0CAB
  77 00a6 1A80801B 		.ascii	"\032\200\200\033\250m6\303,\240\205\314\351\214\214"
  77      A86D36C3 
  77      2CA085CC 
  77      E98C8C
  78 00b5 11109700 		.ascii	"\021\020\227\000A\022\224N\007i\005\352\2745\003\350"
  78      4112944E 
  78      076905EA 
  78      BC3503E8 
  79 00c5 5188CE74 		.ascii	"Q\210\316tFfm\006-\270>\026\240\022\220>V\250>\250F"
  79      46666D06 
  79      2DB83E16 
  79      A012903E 
  79      56A83EA8 
  80 00da 90A69317 		.ascii	"\220\246\223\027\330\211\264\214\011j\0313\304\262\025"
  80      D889B48C 
  80      096A1933 
  80      C4B215
  81 00e9 EB796176 		.ascii	"\353yav\261 \333\205]\033X\317\351\013\334(vY#kb\301"
  81      B120DB85 
  81      5D1B58CF 
ARM GAS  /tmp/ccYQWmvd.s 			page 6


  81      E90BDC28 
  81      7659236B 
  82 00ff E6314688 		.ascii	"\3461F\210\276\033\353{\345Qt\362\022\360\032X\347E"
  82      BE1BEB7B 
  82      E55174F2 
  82      12F01A58 
  82      E745
  83 0111 86C607C0 		.ascii	"\206\306\007\300h\200h\204\201\020\220\014\310MJzz\372"
  83      68806884 
  83      8110900C 
  83      C84D4A7A 
  83      7AFA
  84 0123 CE199949 		.ascii	"\316\031\231I\231\376\301\372\371\305\372E%\372\231"
  84      99FEC1FA 
  84      F9C5FA45 
  84      25FA99
  85 0132 79C939A5 		.ascii	"y\3119\245)\251\372\311\031\305\311\031)z\031\014\000"
  85      29A9FAC9 
  85      19C5C919 
  85      297A190C 
  85      00
  86 0143 DF067E4C 		.ascii	"\337\006~L"
  87              		.text
  88              		.section	.gnu.lto_queue_fifo_remove.9c0660f8d10ef39e,"",%progbits
  89 0000 789C9591 		.ascii	"x\234\225\221=K\003A\020\206gv/*H~\200\210\020\002\""
  89      3D4B0341 
  89      10866776 
  89      2F2A487E 
  89      80881002 
  90 0015 18C8FD02 		.ascii	"\030\310\375\002+\177\200\205\011D\254\362!\271\003"
  90      2B7F8085 
  90      0944ACF2 
  90      21B903
  91 0024 BF30B1CE 		.ascii	"\2770\261\316\032b#\004BP\310\207`\004\021\261Q\014"
  91      1A622304 
  91      4250C887 
  91      600411B1 
  91      510C
  92 0036 F6278820 		.ascii	"\366'\210 \301\302.Z\245\024\322\244\264\020\317\331"
  92      C1C22E5A 
  92      A514D2A4 
  92      B410CFD9 
  93 0046 DB5CBC58 		.ascii	"\333\\\274X\030\035\270\331\275\331y\366}o\216\001\203"
  93      181DB8D9 
  93      BDD979F6 
  93      7D6F8E01 
  93      83
  94 0057 9F314D4F 		.ascii	"\2371MO\231\312s\362E\003\244-2\344\2249\"\225\020r"
  94      99CA73F2 
  94      4503A42D 
  94      32E49439 
  94      22951072 
  95 006b 8C636E05 		.ascii	"\214cn\005\235\363 \234\012Q\356\3547\213\241\352\241"
  95      9DF3209C 
  95      0A51EEEC 
  95      378BA1EA 
  95      A1
ARM GAS  /tmp/ccYQWmvd.s 			page 7


  96 007c 5568880F 		.ascii	"Uh\210\017\333F4\345a\022!F;\0148\013\323\206e\024h"
  96      DB4634E5 
  96      61122146 
  96      3B0C380B 
  96      D3866514 
  97 0091 D5BBD753 		.ascii	"\325\273\327S\007\215|I|\022\367W\254f\235t+\377\307"
  97      078D7C49 
  97      7C12F757 
  97      AC669D74 
  97      2BFFC7
  98 00a4 CAD651F7 		.ascii	"\312\326Q\367\015\253\302k\223\301,\216`\257\230\325"
  98      0DABC26B 
  98      93C12C8E 
  98      60AF98D5 
  99 00b4 B1EDE397 		.ascii	"\261\355\343\227\207\373;l\337jc\210\033\222\213\343"
  99      87FB3B6C 
  99      DF6A6388 
  99      1B928BE3 
 100 00c4 19068103 		.ascii	"\031\006\201\003]\242\311\344\003\307\007\255\005!J"
 100      5DA2C9E4 
 100      03C707AD 
 100      05214A
 101 00d3 0175ECF8 		.ascii	"\001u\354\370\242\21089*\207\311\237 \377\332\276)\316"
 101      A2883839 
 101      2A87C99F 
 101      20FFDABE 
 101      29CE
 102 00e5 C4F11C7D 		.ascii	"\304\361\034}\220F\026\202KA\261J|\035j\344\200\247"
 102      90461682 
 102      4B41B14A 
 102      7C1D6AE4 
 102      80A7
 103 00f7 11A51365 		.ascii	"\021\245\023e$\201\256\023IVh\322.\311C0?\200|tSL\315"
 103      2481AE13 
 103      495668D2 
 103      2EC94330 
 103      3F807C74 
 104 010e C281F01B 		.ascii	"\302\201\360\033z\354\215+\244\257\344\037\241\224\226"
 104      7AEC8D2B 
 104      A4AFE41F 
 104      A19496
 105 011d BF5B8A5D 		.ascii	"\277[\212]4\375\256\226\346\325\372\305`\25379\244\265"
 105      34FDAE96 
 105      E6D5FAC5 
 105      60AB3739 
 105      A4B5
 106 012f E035A879 		.ascii	"\3405\250y\015\262\276\026*\217\357\315\"w\305\344\267"
 106      0DB2BE16 
 106      2A8FEFCD 
 106      2277C5E4 
 106      B7
 107 0140 A8B6A8B4 		.ascii	"\250\266\250\264\302[\2607\001\220\222\255\317\200\203"
 107      C25BB037 
 107      019092AD 
 107      CF8083
 108 014f 2ED51291 		.ascii	".\325\022\221e\331\036\014\207\365E\303L\230K\313\372"
 108      65D91E0C 
ARM GAS  /tmp/ccYQWmvd.s 			page 8


 108      87F545C3 
 108      4C984BCB 
 108      FA
 109 0160 5646DFC9 		.ascii	"VF\337\311\352\346fr}7\265\246'\215L\322H\205\015`\331"
 109      EAE66672 
 109      7D37B5A6 
 109      278D4CD2 
 109      48850D60 
 110 0175 ED2FAFDC 		.ascii	"\355/\257\334\230;"
 110      983B
 111              		.text
 112              		.section	.gnu.lto_chSysLock.9c0660f8d10ef39e,"",%progbits
 113 0000 789C6362 		.ascii	"x\234cb`b@\007\"@\\\006\304\312 \0163\003#P\005#\023"
 113      60624007 
 113      22405C06 
 113      C4CA200E 
 113      33032350 
 114 0017 232390C3 		.ascii	"##\220\303\310P\317\304X\037\311\010V\266\236\351\300"
 114      C850CFC4 
 114      581FC908 
 114      56B69EE9 
 114      C0
 115 0028 83FFFFD7 		.ascii	"\203\377\377\327}\231\266\354\017\343m&\220\030+CKC"
 115      7D99B6EC 
 115      0FE36D26 
 115      90182B43 
 115      4B43
 116 003a C3040506 		.ascii	"\303\004\005\006\206d\260\212\0200\031\012\322\317|"
 116      8664B08A 
 116      1030190A 
 116      D2CF7C
 117 0049 9EA1F9C1 		.ascii	"\236\241\371\301\236n\366D\306\205\214\254@\301j\206"
 117      9E6EF644 
 117      C6858CAC 
 117      40C16A86 
 118 0059 5F0D1D0D 		.ascii	"_\015\035\015\002\231\214@\245\020\3232A\364E\206\306"
 118      02998C40 
 118      A510D332 
 118      41F44586 
 118      C6
 119 006a 07FBB561 		.ascii	"\007\373\265a\212  \004$\001r\244\242\236\236\276sF"
 119      8A202004 
 119      240172A4 
 119      A29E9EBE 
 119      7346
 120 007c 6652A67F 		.ascii	"fR\246\177\260~~\261~Q\211~f^rNiJ\252~rFqe\261^\006"
 120      B07E7EB1 
 120      7E51897E 
 120      665E724E 
 120      694AAA7E 
 121 0097 0300A9F5 		.ascii	"\003\000\251\365'\020"
 121      2710
 122              		.text
 123              		.section	.gnu.lto_chSysUnlock.9c0660f8d10ef39e,"",%progbits
 124 0000 789C6362 		.ascii	"x\234cb`b@\007\322@\334\301\310\300\240\014\342\260"
 124      60624007 
 124      D240DCC1 
ARM GAS  /tmp/ccYQWmvd.s 			page 9


 124      C8C0A00C 
 124      E2B0
 125 0012 30300255 		.ascii	"00\002U0212\003IfF\2400\003#C=\0233c}$\210\315\300\246"
 125      30323132 
 125      03496646 
 125      A0300323 
 125      433D1333 
 126 002d C4B0B0A1 		.ascii	"\304\260\260\241a\322\203\247\337gIv-h\232\320\360\357"
 126      61D283A7 
 126      DF674976 
 126      2D689AD0 
 126      F0EF
 127 003f FF7FC64C 		.ascii	"\377\177\306L\220T2#C\004\220\305\250\000\246\230XP"
 127      90543223 
 127      430490C5 
 127      A800A698 
 127      5850
 128 0051 2D81686B 		.ascii	"-\201hk\330\264\242\201sA\303\237\377\377\231\311\323"
 128      D8B4A281 
 128      7341C39F 
 128      FFFF99C9 
 128      D3
 129 0062 C33C58EC 		.ascii	"\303<X\354\311edX\317t\340\301\377\377ov\356|\364\206"
 129      C9656458 
 129      CF74E0C1 
 129      FFFF6F76 
 129      EE7CF486 
 130 0076 5114640B 		.ascii	"Q\024d\013+CKC\303\004\205\\\250\215@\020\002%\201A"
 130      2B434B43 
 130      C304855C 
 130      A88D4010 
 130      02258141 
 131 008a CA1C0A32 		.ascii	"\312\034\0122\224\371<C\363\203\327\247\331\023\031"
 131      94F93C43 
 131      F383D7A7 
 131      D91319
 132 0099 9731B202 		.ascii	"\2271\262\002\245\252\031~5t4\010d2\262$\203\303\232"
 132      A5AA197E 
 132      35743408 
 132      6432B224 
 132      83C39A
 133 00ac 81211324 		.ascii	"\201!\023$~\221\241\361\301\033m\230\"\010\010\001)"
 133      7E91A1F1 
 133      C11B6D98 
 133      22080801 
 133      29
 134 00bd 00C59EA2 		.ascii	"\000\305\236\242\236\236\276sFfR\246\177\260~~\261~"
 134      9E9EBE73 
 134      466652A6 
 134      7FB07E7E 
 134      B17E
 135 00cf 51897E66 		.ascii	"Q\211~f^rNiJ\252~rFqe\261^\006\003\000\341Gc\351"
 135      5E724E69 
 135      4AAA7E72 
 135      467165B1 
 135      5E060300 
 136              		.text
ARM GAS  /tmp/ccYQWmvd.s 			page 10


 137              		.section	.gnu.lto_chMsgIsPendingI.9c0660f8d10ef39e,"",%progbits
 138 0000 789C6362 		.ascii	"x\234cb`b@\007\322@\274\235\221\201A\031\304aa`\004"
 138      60624007 
 138      D240BC9D 
 138      91814119 
 138      C4616160 
 139 0015 AA606462 		.ascii	"\252`dbd\006\222\314\214@a\006F\206z&f\306\372H\020"
 139      640692CC 
 139      8C406106 
 139      46867A26 
 139      66C6FA48 
 140 002a 9B815989 		.ascii	"\233\201Y\211aaC\303\254\007O_\315\020\357z\3200\241"
 140      616143C3 
 140      AC074F5F 
 140      CD10EF7A 
 140      D030A1
 141 003d E1DFFFFF 		.ascii	"\341\337\377\377\214\231 \251dF\206\010 \213\221\003"
 141      8C9920A9 
 141      64468608 
 141      208B9103 
 142 004d 4C3131A2 		.ascii	"L11\242Z\002\3266\251\341\377\223\200\023\015-\007\376"
 142      5A02D636 
 142      A9E1FF93 
 142      80130D2D 
 142      07FE
 143 005f FFB7CF04 		.ascii	"\377\267\317\004\331\000\323\243\000\321\303\202U\317"
 143      D900D3A3 
 143      00D1C382 
 143      55CF
 144 006d D6A7083D 		.ascii	"\326\247\010=,\204\364\254g:\360\340\377\377?\233W<"
 144      2C84F4AC 
 144      673AF0E0 
 144      FFFF3F9B 
 144      573C
 145 007f 5EC328C8 		.ascii	"^\303(\310\312\310\230\313\010\3641\320.f \301\302\302"
 145      CAC898CB 
 145      08F431D0 
 145      2E6620C1 
 145      C2C2
 146 0091 00762903 		.ascii	"\000v)\003+CKC\303\004\005\260Y@\020\002&CA\036g>\313"
 146      2B434B43 
 146      C30405B0 
 146      59401002 
 146      2643411E 
 147 00a8 D074EBC7 		.ascii	"\320t\353\307\253\037\314\211\214K\030Y\031\322\031"
 147      AB1FCC89 
 147      8C4B1859 
 147      19D219
 148 00b7 99B419B4 		.ascii	"\231\264\031\264\200\332\265\031V5\000Ax&#\353l\206"
 148      80DAB519 
 148      56350041 
 148      782623EB 
 148      6C86
 149 00c9 59407BD9 		.ascii	"Y@{\331\322\031\031A\3663\203mM\202\3726\211\021\346"
 149      D2191941 
 149      F633836D 
 149      4D82FA36 
ARM GAS  /tmp/ccYQWmvd.s 			page 11


 149      8911E6
 150 00dc 6DA039BF 		.ascii	"m\2409\277\232w\301\215a\256f\250\002:\000j\314gF\002"
 150      9A77C18D 
 150      61AE66A8 
 150      023A006A 
 150      CC674602 
 151 00f0 E6408D68 		.ascii	"\346@\215h\276\321\314\0073\201\005\350\226t\2502\240"
 151      BED1CC07 
 151      338105E8 
 151      9674A832 
 151      A0
 152 0101 5B810CE6 		.ascii	"[\201\014\346\323\014\215\034\014\014) ;/20\302\025"
 152      D30C8D1C 
 152      0C0C2920 
 152      3B2F3230 
 152      C215
 153 0113 42948480 		.ascii	"B\224\204\200\204A\221\255\250\247\247\357\234\221\231"
 153      844191AD 
 153      A8A7A7EF 
 153      9C9199
 154 0122 94E91FAC 		.ascii	"\224\351\037\254\237_\254_T\242\237\231\227\234S\232"
 154      9F5FAC5F 
 154      54A29F99 
 154      979C539A 
 155 0132 92AA9F9C 		.ascii	"\222\252\237\234\221[\234\256\227\301\000\000\326$g"
 155      915B9CAE 
 155      97C10000 
 155      D62467
 156 0141 73       		.ascii	"s"
 157              		.text
 158              		.section	.gnu.lto_chMsgReleaseS.9c0660f8d10ef39e,"",%progbits
 159 0000 789C6362 		.ascii	"x\234cb`b@\007\"@\334\006\304\312 \0163\003#P\005#\023"
 159      60624007 
 159      2240DC06 
 159      C4CA200E 
 159      33032350 
 160 0017 232390C3 		.ascii	"##\220\303\310P\317\304X\037\311\010V\266\236\351\300"
 160      C850CFC4 
 160      581FC908 
 160      56B69EE9 
 160      C0
 161 0028 83FFFFD7 		.ascii	"\203\377\377\327]:\276\367\015\343<&fF\306\\F\006& "
 161      5D3ABEF7 
 161      0DE33C26 
 161      6646C65C 
 161      46062620 
 162 003c 01926565 		.ascii	"\001\222eehih\230\240\300\300\220\014V\033\002&CA&1"
 162      68696898 
 162      A0C0C090 
 162      0C561B02 
 162      26434126 
 163 0051 9F67687D 		.ascii	"\237gh}\360\3661{\"\343BFV\240`5\303\257\206\216\006"
 163      F0F6317B 
 163      22E34246 
 163      56A06035 
 163      C3AF868E 
 164 0066 814C46A0 		.ascii	"\201LF\240R\210\271\351\214\214\351\214L\231 \336E\206"
ARM GAS  /tmp/ccYQWmvd.s 			page 12


 164      5288B9E9 
 164      8C8CE98C 
 164      4C9920DE 
 164      4586
 165 0078 C607EF94 		.ascii	"\306\007\357\224aJ! \004$\001r\264\242\236\236\276s"
 165      614A2120 
 165      04240172 
 165      B4A29E9E 
 165      BE73
 166 008a 466652A6 		.ascii	"FfR\246\177\260~~\261~Q\211~f^rNiJ\252~rFnq\272^\006"
 166      7FB07E7E 
 166      B17E5189 
 166      7E665E72 
 166      4E694AAA 
 167 00a6 030092DC 		.ascii	"\003\000\222\334)J"
 167      294A
 168              		.text
 169              		.section	.gnu.lto_chMsgSend.9c0660f8d10ef39e,"",%progbits
 170 0000 789C8D52 		.ascii	"x\234\215R\277k\024A\024~ofg\367\214\271\374PAS\010"
 170      BF6B1441 
 170      147E6F66 
 170      67F78CB9 
 170      FC504153 
 171 0015 47EC0CDC 		.ascii	"G\354\014\334u\376\250\375\003,\222C-s+\\\246X\224\\"
 171      75FEA8FD 
 171      032C9243 
 171      2D732B5C 
 171      A658945C 
 172 0029 2A53642E 		.ascii	"*Sd.\233B\202JHu(\202A\261\260\261\022,,\016\324x\032"
 172      9B42824A 
 172      48752882 
 172      41B1B0B1 
 172      122C2C0E 
 173 0040 E5B09354 		.ascii	"\345\260\223T\213\215\251\274\250\215Dq}3;\273w\361"
 173      8B8DA9BC 
 173      A88D4471 
 173      7D333BBB 
 173      77F1
 174 0052 0EE2C0BD 		.ascii	"\016\342\300\275\231\331\373\276\367}\357\333e\300\340"
 174      99D9FBBE 
 174      F77DEFDB 
 174      65C0E0
 175 0061 DF75867E 		.ascii	"\337u\206~\273\034\340\224\276x\200\204@\206\364\000"
 175      BB1CE094 
 175      BE788084 
 175      4086F400 
 176 0071 39730014 		.ascii	"9s\000\024\023T\034\007iC\201.U\027\221\240\010K\214"
 176      13541C07 
 176      6943812E 
 176      551791A0 
 176      084B8C
 177 0084 3BC2C5A5 		.ascii	";\302\305\245+\372\012b\0226\224Z\217^w\032\023\253"
 177      2BFA0A62 
 177      1236945A 
 177      8F5E771A 
 177      13AB
 178 0096 0F96D7D4 		.ascii	"\017\226\327\324\2378F\251\377\362\021.\323\011\013"
ARM GAS  /tmp/ccYQWmvd.s 			page 13


 178      9F3846A9 
 178      FFF2112E 
 178      D3090B
 179 00a5 66D34D7B 		.ascii	"f\323M{WBk\306\233\267\216\257F*\245\361.-\227\320p"
 179      57426BC6 
 179      9BB78EAF 
 179      462AA5F1 
 179      2E2D97D0 
 180 00ba 00ADD1BC 		.ascii	"\000\255\321\274\377\346\355\006\252uU\337\215\343Q"
 180      FFE6ED06 
 180      AA7555DF 
 180      8DE351
 181 00c9 89CE7FAA 		.ascii	"\211\316\177\252}\333\2743\241\272&\005\203\002\036"
 181      7DDBBC33 
 181      A1BA2605 
 181      83021E
 182 00d8 C00C109E 		.ascii	"\300\014\020\236\262f\024\307\277\237\355|n\343x\016"
 182      B26614C7 
 182      BF9FED7C 
 182      6EE3780E 
 183 00e8 61161FE1 		.ascii	"a\026\037\341$0\014\0209\025b\320\274\202\012w\011\216"
 183      24300C10 
 183      391562D0 
 183      BC820A77 
 183      098E
 184 00fa 1E1843F4 		.ascii	"\036\030C\364dE\251\265B\202\016l\"\264fL-\353\304\371"
 184      6445A9B5 
 184      42820E6C 
 184      22B4664C 
 184      2DEBC4F9 
 185 010e 0758DE6E 		.ascii	"\007X\336n|\335\301Y|LIW\021\247\340\211\242u\211\314"
 185      7CDDC159 
 185      7C4C4957 
 185      11A7E089 
 185      A27589CC 
 186 0122 4DC16989 		.ascii	"M\301i\211\356=\270[WjL\242\267\010{\352\246>\345\002"
 186      EE3DB85B 
 186      576A4CA2 
 186      B7087BEA 
 186      A63EE502 
 187 0136 9D93719B 		.ascii	"\235\223q\2333\036+6\244\012\366\246U\326(\336\2060"
 187      331E2B36 
 187      A40AF6A6 
 187      55D628DE 
 187      8630
 188 0148 7A117A89 		.ascii	"z\021z\211\000@\326\344\220o\301\022\207\000\310\307"
 188      0040D6E4 
 188      906FC112 
 188      8700C8C7 
 189 0158 D6F34EC4 		.ascii	"\326\363N\304\022\2305q\226\346\260\307\274\304\303"
 189      12983571 
 189      96E6B0C7 
 189      BCC4C3
 190 0167 E4841487 		.ascii	"\344\204\024\207\311\244V\026V\221\331\235\233\275\252"
 190      C9A45616 
 190      5691D99D 
 190      9BBDAA
ARM GAS  /tmp/ccYQWmvd.s 			page 14


 191 0176 EFD46C2F 		.ascii	"\357\324l/\374u\233\247C9\213p\203\0222\363\344\263"
 191      FC759BA7 
 191      43398B70 
 191      831232F3 
 191      E4B3
 192 0188 2EBCB74B 		.ascii	".\274\267KO\350m\020}fG|\253C\342\324O\342\250Q\331"
 192      4FE86D10 
 192      7D66477C 
 192      AB43E2D4 
 192      4FE2A851 
 193 019d FED96965 		.ascii	"\376\331ie\321%y\215\015\356/l\363\026\274\372R\317"
 193      D125798D 
 193      0DEE2F6C 
 193      F316BCFA 
 193      52CF
 194 01af 67140DE1 		.ascii	"g\024\015\341#\3732sLf+Q\353!\366\331\030\367\2631\271"
 194      23FB3273 
 194      4C662B51 
 194      EB21F6D9 
 194      18F7B331 
 195 01c4 C4232945 		.ascii	"\304#)EX\312\273p\250\217r\324\267\263\031\251aJ\373"
 195      58CABB70 
 195      A88F72D4 
 195      B7B319A9 
 195      614AFB
 196 01d7 98B5FEFD 		.ascii	"\230\265\376\375\\j\303\265!Ow\363>\177`\336n\026W\030"
 196      5C6AC3B5 
 196      214F77F3 
 196      3E7F60DE 
 196      6E165718 
 197 01eb BD7F39F0 		.ascii	"\275\1779\360\375\212\375\357\367\323\217\023\251\242"
 197      FD8AFDEF 
 197      F7D38F13 
 197      A9A2
 198 01f9 574DF965 		.ascii	"WM\371e}\340[P\247/\351\252\266\372\021\262D\275\004"
 198      7DE05B50 
 198      A72FE9AA 
 198      B6FA11B2 
 198      44BD04
 199 020c 32A33F14 		.ascii	"2\243?\024-{\262X,]\230\223\025yq\272t\255V\232_(\325"
 199      2D7BB258 
 199      2C5D9893 
 199      157971BA 
 199      74AD569A 
 200 0223 E6FD923F 		.ascii	"\346\375\222?\027\324\252E\037\270\277p\375/P8\337="
 200      17D4AA45 
 200      1FB8BF70 
 200      FD2F5038 
 200      DF3D
 201              		.text
 202              		.section	.gnu.lto_chMsgWait.9c0660f8d10ef39e,"",%progbits
 203 0000 789C9D53 		.ascii	"x\234\235S\317k\023A\024~of\177\244\255ic=\345\240\204"
 203      CF6B1341 
 203      147E6F66 
 203      7FA4AD69 
 203      633DE5A0 
 204 0015 1C5BC8FE 		.ascii	"\034[\310\376\011\036\374\003\024l\241zkVH\347P\324"
ARM GAS  /tmp/ccYQWmvd.s 			page 15


 204      091EFC03 
 204      146CA17A 
 204      6B5648E7 
 204      50D4
 205 0027 A6277BE8 		.ascii	"\246'{\350\244\331B\251 U\364`Eh\275\370\343\240W\017"
 205      A4D942A9 
 205      2055F460 
 205      4568BDF8 
 205      E3A0570F 
 206 003b 0A0B226D 		.ascii	"\012\013\"m\025)\336\202\247\010\352\251\240\342%\204"
 206      1529DE82 
 206      A708EAA9 
 206      A0E22584 
 207 004b D8F5BDD9 		.ascii	"\330\365\275\331\354\272j\301\352@f3o\337\367}\357}"
 207      ECBA6AC1 
 207      EA406633 
 207      6FDFF77D 
 207      EF7D
 208 005d F3568080 		.ascii	"\363V\200\200\337\227G\277\363\026@\231\017\016 e\240"
 208      DF9747BF 
 208      F3164099 
 208      0F0E2065 
 208      A0
 209 006e 1012400B 		.ascii	"\020\022@\013\212jK\"=\320B\233v\033\221\222\020\026"
 209      8A6A4B22 
 209      3DD0429B 
 209      761B9192 
 209      1016
 210 0080 85B46C5C 		.ascii	"\205\264l\\<\307'p\313\260\251\365\215\366\307\375\216"
 210      3CC72770 
 210      CBB0A9F5 
 210      8DF6C7FD 
 210      8E
 211 0091 B87D330C 		.ascii	"\270}3\0146t/\212\020\025\277\364\021\246\350\037\226"
 211      36742F8A 
 211      1015BFF4 
 211      11A6E81F 
 211      96
 212 00a2 CC8309B3 		.ascii	"\314\203\011\263+\006\352\307\017\2644 \251P\376\304"
 212      2B06EAC7 
 212      0FB43420 
 212      A950FEC4 
 213 00b2 E4620C1E 		.ascii	"\344b\014\036\210\371\274\274\\h\374#(\374\276u\267"
 213      88F9BCBC 
 213      5C68FC23 
 213      28FCBE75 
 213      B7
 214 00c3 B8BAB1B4 		.ascii	"\270\272\261\264\246\367\251\300\303\327\367\355\303"
 214      A6F7A9C0 
 214      C3D7F7ED 
 214      C3
 215 00d0 996D1D84 		.ascii	"\231m\035\204QtR\261\027\207\300\254\207\267^\355l\""
 215      517452B1 
 215      1787C0AC 
 215      87B75EED 
 215      6C22
 216 00e2 611B5FA2 		.ascii	"a\033_\242h\344\320R\341\327\255kE\235\251P@\011\377"
ARM GAS  /tmp/ccYQWmvd.s 			page 16


 216      68E4D052 
 216      E1D7AD6B 
 216      459DA950 
 216      4009FF
 217 00f5 827C22C2 		.ascii	"\202|\"\302v\024\365\236\357\275\277\212\2439\004\203"
 217      7614F59E 
 217      EFBDBF8A 
 217      A3390483 
 218 0105 224F246F 		.ascii	"\"O$o\026\037m\332,\007\246\361>\226\301\005S\015\005"
 218      161F6DDA 
 218      2C07A6F1 
 218      3E96C105 
 218      530D05
 219 0118 03ADD74A 		.ascii	"\003\255\327Jq\320TGk\302\354\223<\003r\027\232\355"
 219      71D05447 
 219      6BC2EC93 
 219      3C037217 
 219      9AED
 220 012a 6ED39DC6 		.ascii	"n\323\235\306\207|\365\260\000]\275\242\013\012m\037"
 220      877CF5B0 
 220      005DBDA2 
 220      0B0A6D1F 
 221 013a 6377153A 		.ascii	"cw\025:\000o`\351]\207.>N\253!\216\303\030\011\214\303"
 221      006F60E9 
 221      5D872E3E 
 221      4EAB218E 
 221      C318098C 
 222 014f 234DEBB2 		.ascii	"#M\353\262B\367\016\25474\003s)\305\300\254a\340n\006"
 222      42F70EAC 
 222      37340373 
 222      29C5C0AC 
 222      61E06E06 
 223 0163 0C55B57F 		.ascii	"\014U\265\177_UL.n\027\202\320KHE\212\034\3641\236\340"
 223      5F554C2E 
 223      6E1782D0 
 223      4B48458A 
 223      1CF4319E 
 224 0178 1A0FD890 		.ascii	"\032\017\330\220\321\177\326<\221$\312\032\277\336\206"
 224      D17FD63C 
 224      9124CA1A 
 224      BFDE86
 225 0187 60AF914F 		.ascii	"`\257\221Oc,#\263\216M\362\221\372\013\332\275\027\203"
 225      632C23B3 
 225      8E4DF291 
 225      FA0BDABD 
 225      1783
 226 0199 7FF477C4 		.ascii	"\177\364w\304\357g3.?Lm\016'0r^r\303\255\250%\023z+"
 226      EF67332E 
 226      3F4C6D0E 
 226      2730725E 
 226      72C3ADA8 
 227 01b1 6978ECBF 		.ascii	"ix\354\277{%\312n\363\023&\214\366\002\\Q\314k,\274"
 227      7B25CA6E 
 227      F313268C 
 227      F6025C51 
 227      CC6B2CBC 
 228 01c5 4EC011E2 		.ascii	"N\300\021\342\245G\201\324\246\342\2715\370\314\267"
ARM GAS  /tmp/ccYQWmvd.s 			page 17


 228      A54781D4 
 228      A6E2B935 
 228      F8CCB7
 229 01d4 CC763909 		.ascii	"\314v9\011\201\223\212\037\365\321\352\333e+\0345RO"
 229      81938A1F 
 229      F5D1EADB 
 229      652B1C35 
 229      524F
 230 01e6 3B51A7AF 		.ascii	";Q\247\257\325\227\030Rx,Up\262\012\031#\362F\245\331"
 230      D5971852 
 230      782C5570 
 230      B20A1923 
 230      F246A5D9 
 231 01fa 5E7979E0 		.ascii	"^yy\340H\330\277\214\304N\353^1\251\306\255q06\220\262"
 231      48D8BF8C 
 231      C44EEB5E 
 231      31A9C6AD 
 231      71303690 
 232 020f E46B68E4 		.ascii	"\344kh\344\000.p\367o!m\332\215S&8\314}\035\257T\274"
 232      002E70F7 
 232      6F216DDA 
 232      8D532638 
 232      CC7D1DAF 
 233 0225 5333AAAA 		.ascii	"S3\252\252N\237\365.\326\275\271y\257>\347{\376\314"
 233      4E9FF52E 
 233      D6BDB979 
 233      AF3EE77B 
 233      FECC
 234 0237 6CBD56F1 		.ascii	"l\275V\361A\314_\372\001\002\275\373\205"
 234      41CC5FFA 
 234      0102BDFB 
 234      85
 235              		.text
 236              		.section	.gnu.lto_chMsgRelease.9c0660f8d10ef39e,"",%progbits
 237 0000 789C6362 		.ascii	"x\234cb`b@\007\322@,\301\310\300 \017\342\26000\002"
 237      60624007 
 237      D2402CC1 
 237      C8C0200F 
 237      E2B03030 
 238 0015 55303231 		.ascii	"U0212\003IfF\2400\003#C=\0233c}$\210\315\300\244\304"
 238      32034966 
 238      46A03003 
 238      23433D13 
 238      33637D24 
 239 002e B0B0A161 		.ascii	"\260\260\241a\322\203\243\253f\212w=h\230\320\360\357"
 239      D283A3AB 
 239      668A773D 
 239      6898D0F0 
 239      EF
 240 003f FF7FC64C 		.ascii	"\377\177\306L\220T2#C\004\220\305\310\001\246\230\030"
 240      90543223 
 240      430490C5 
 240      C801A698 
 240      18
 241 0050 512DC965 		.ascii	"Q-\311edX\317t\340\301\377\377\177.\177x\264\226Q\010"
 241      6458CF74 
 241      E0C1FFFF 
ARM GAS  /tmp/ccYQWmvd.s 			page 18


 241      7F2E7F78 
 241      B4965108 
 242 0064 68742E23 		.ascii	"ht.#PU.\310:\006V\206\226\206\206\011\012\271Ps\200"
 242      50552EC8 
 242      3A065686 
 242      96868609 
 242      0AB95073 
 243 0079 20044C86 		.ascii	" \004L\206\202d\231\31734?X\331\312\236\310\270\210"
 243      826499CF 
 243      33343F58 
 243      D9CA9EC8 
 243      B888
 244 008b 91152858 		.ascii	"\221\025(X\315\360\253\241\243A \223\2219\231\021bK"
 244      CDF0ABA1 
 244      A3412093 
 244      91399911 
 244      624B
 245 009d 26230BC4 		.ascii	"&#\013\304\226P\220\263\201\352[\037\254n\345\302P\317"
 245      965090B3 
 245      81EA5B1F 
 245      AC6EE5C2 
 245      50CF
 246 00af 9ACC08F1 		.ascii	"\232\314\010\361}:#c:#S&#\033\003\003\310\3545G\261"
 246      7D3A2363 
 246      3A235326 
 246      231B0303 
 246      C8EC3547 
 247 00c4 9ACD8C30 		.ascii	"\232\315\2140\373\"C\343\203\265\2520E\020\020\002\262"
 247      FB2243E3 
 247      83B5AA30 
 247      45101002 
 247      B2
 248 00d5 1C649EAC 		.ascii	"\034d\236\254\236\236\276sFfR\246\177\260~~\261~Q\211"
 248      9E9EBE73 
 248      466652A6 
 248      7FB07E7E 
 248      B17E5189 
 249 00e9 7E7151B2 		.ascii	"~qQ\262~rFnq\272^2\003\000\264\231F\360"
 249      7E72466E 
 249      71BA5E32 
 249      0300B499 
 249      46F0
 250              		.text
 251              		.section	.gnu.lto_.symbol_nodes.9c0660f8d10ef39e,"",%progbits
 252 0000 789C4DCE 		.ascii	"x\234M\316?n\3020\034\305\361\367\354\230\244\011\341"
 252      3F6EC230 
 252      1CC5F1F7 
 252      EC98A409 
 252      E1
 253 0011 0A5C8B95 		.ascii	"\012\\\213\225\223\274(H\210\221\205\015\026\030\340"
 253      93BC2848 
 253      8891850D 
 253      1618E0
 254 0020 1C1C8091 		.ascii	"\034\034\200\221\021\201\272vi\013\035:\360'vD\354\345"
 254      1181BA76 
 254      690B1D3A 
 254      F0277644 
ARM GAS  /tmp/ccYQWmvd.s 			page 19


 254      ECE5
 255 0032 AB8FFDB3 		.ascii	"\253\217\375\263e\003\203\021\021\226y@\300\374\000"
 255      65038311 
 255      11967940 
 255      C0FC00
 256 0041 488BD9D8 		.ascii	"H\213\331\330T\024#.)\023qE\331\210[*\211\270\243\\"
 256      5414232E 
 256      29137145 
 256      D9885B2A 
 256      89B8A35C 
 257 0055 C413D58B 		.ascii	"\304\023\325\213x\246\322\210\337T\326\3628\243\273"
 257      78A6D288 
 257      DF54D6F2 
 257      38A3BB
 258 0064 BE3E2498 		.ascii	"\276>$\230\037\352\243\3335\277T\336\221\377T\021XU"
 258      1FEAA3DB 
 258      35BF54DE 
 258      91FF5411 
 258      5855
 259 0076 E41FD5EF 		.ascii	"\344\037\325\357t\243\312\267l\002\324\347;\255ch\332"
 259      74A3CAB7 
 259      6C02D4E7 
 259      3BAD6368 
 259      DA
 260 0087 C7A46996 		.ascii	"\307\244i\226`\355kP_\232\016\360\351[b2\375\032\332"
 260      60ED6B50 
 260      5F9A0EF0 
 260      E95B6232 
 260      FD1ADA
 261 009a CC61DF34 		.ascii	"\314a\3374O\302\275\274\207\275o\211M3\227[\324\376"
 261      4FC2BDBC 
 261      87BD6F89 
 261      4D33975B 
 261      D4FE
 262 00ac BC9D2BDA 		.ascii	"\274\235+\332\271\"\015\357\026\316\317\343\0115Uo!"
 262      B9220DEF 
 262      16CECFE3 
 262      0935556F 
 262      21
 263              		.text
 264              		.section	.gnu.lto_.refs.9c0660f8d10ef39e,"",%progbits
 265 0000 789C6362 		.ascii	"x\234cb`b\340f\200\000F\016\006N&.\006N \004\000\002"
 265      6062E066 
 265      8000460E 
 265      064E262E 
 265      064E2004 
 266 0016 630040   		.ascii	"c\000@"
 267              		.text
 268              		.section	.gnu.lto_.decls.9c0660f8d10ef39e,"",%progbits
 269 0000 789CBD5B 		.ascii	"x\234\275[\015p\024U\236\357\3273\311dH\010\350\212"
 269      0D701455 
 269      9EEFD733 
 269      C9644808 
 269      E88A
 270 0012 C57ABA46 		.ascii	"\305z\272Fk\327u\265 \250(xU\267\262\313\336)U\347\035"
 270      6BD775B5 
 270      20A82878 
ARM GAS  /tmp/ccYQWmvd.s 			page 20


 270      55B7B2CB 
 270      DE2955E7 
 271 0027 65CADAAB 		.ascii	"e\312\332\253\272\273\232m&M2\307|\331\323!p\267Uv&"
 271      BABB9A6D 
 271      264D32C7 
 271      7CD9D321 
 271      70B75576 
 272 003c 103ED5F0 		.ascii	"\020>\325\360\021\010\012\022\344c\371F@p)\0262\242"
 272      11080A12 
 272      E463F946 
 272      40702916 
 272      32A2
 273 004e 84082CF2 		.ascii	"\204\010,\362\035\276\304\210\200\200\313\207@@\020"
 273      1DBEC488 
 273      8080CB87 
 273      404010
 274 005d C8FDDFEB 		.ascii	"\310\375\337\353\327=\335o\272g\272\203nW\372\365\233"
 274      D73DDD6F 
 274      BA67BA83 
 274      6E57FAF5 
 274      9B
 275 006e EEF7FFBD 		.ascii	"\356\367\377\275\377\367\373\350\016\317\361\334\343"
 275      FFF7FBE8 
 275      0ECFF1DC 
 275      E3
 276 007b 5E8EEB84 		.ascii	"^\216\353\204#\377\005\216\233\343\343\270\"\216\343"
 276      23FF058E 
 276      9BE3E3B8 
 276      228EE3
 277 008a 7ECDA58F 		.ascii	"~\315\245\217b8\347\301\271\010\316%pF\021\307\311p"
 277      6238E7C1 
 277      B908CE25 
 277      704611C7 
 277      C970
 278 009c 56C3F9BF 		.ascii	"V\303\371\277p\326\3029\031\316\351p6\3029\007\316\271"
 278      70D6C239 
 278      19CEE970 
 278      36C23907 
 278      CEB9
 279 00ae 70CE8713 		.ascii	"p\316\207\023\376\270?!\316t`\254<87Rl\334\237\217\347"
 279      FEB83F21 
 279      CE7460AC 
 279      3C383752 
 279      6CDC9F8F 
 280 00c3 383FAF3E 		.ascii	"8?\257>\347i\233B\236\3138\0269\240]dC\213y\317\207"
 280      E7699B42 
 280      9ECB3816 
 280      39A05D64 
 280      438B79CF 
 281 00d8 73B98176 		.ascii	"s\271\201v\005\234}\201\277\0128=P_\013\347\263P_\307"
 281      059C7D81 
 281      BF0A383D 
 281      505F0BE7 
 281      B3505FC7 
 282 00ec A9BC2FA1 		.ascii	"\251\274/\241\230!\3701\202\221\003\353\201\305\323"
 282      9821F831 
 282      829103EB 
ARM GAS  /tmp/ccYQWmvd.s 			page 21


 282      81C5D3
 283 00fb B0302EC6 		.ascii	"\2600.\306\353\217TL\015\017\323`<\011\256\3671<\312"
 283      EB8F544C 
 283      0D0FD360 
 283      3C09AEF7 
 283      313CCA
 284 010e F4592F28 		.ascii	"\364Y/(\336\343\322\362\340\373\3632\305!\372g\373\367"
 284      DEE3D2F2 
 284      E0FBF332 
 284      C521FA67 
 284      FBF7
 285 0120 59D0E376 		.ascii	"Y\320\343v\213h\377\3673}b\373a\232?\2424\006\306\303"
 285      8B68FFF7 
 285      337D62FB 
 285      619A3FA2 
 285      3406C6C3 
 286 0134 32F4A572 		.ascii	"2\364\245r`\222\377B\252,\210\322\340{5p}\220\301\253"
 286      6092FF42 
 286      AA2C88D2 
 286      E07B3570 
 286      7D90C1AB 
 287 0148 A5CF1E82 		.ascii	"\245\317\036\202b\014J\363PK\375\002\327\307\303u\002"
 287      620C4AF3 
 287      504BFD02 
 287      D7C7C375 
 287      02
 288 0159 A34BEC3F 		.ascii	"\243K\354?\275h\277\032\037\270\311\275H\345g\025\\"
 288      BD68BF1A 
 288      1FB8C9BD 
 288      48E56715 
 288      5C
 289 016a 17C3F933 		.ascii	"\027\303\3713>-_\017\224\266\337\303po)\324o\302Y\002"
 289      3E2D5F0F 
 289      94B6DFC3 
 289      706F29D4 
 289      6FC25902 
 290 017e F50570EF 		.ascii	"\365\005p\357\021\2706Q\371V\302\265\031c\303\371\030"
 290      11B83651 
 290      F956C2B5 
 290      1963C3F9 
 290      18
 291 018f 52E5B901 		.ascii	"R\345\271\001\367\357\241:\234L}\032\333{>\365_\254"
 291      F7EFA13A 
 291      9C4C7D1A 
 291      DB7B3EF5 
 291      5FAC
 292 01a1 37EC6B8F 		.ascii	"7\354k\217\002\316T\250OA\252/\377\222\221\031\373\375"
 292      02CE54A8 
 292      4F41AA2F 
 292      FF929119 
 292      FBFD
 293 01b3 7D8C1DFE 		.ascii	"}\214\035\376H\375@\343\325\310\377\343p\376\037\345"
 293      48FD40E3 
 293      D5C8FFE3 
 293      70FE1FE5 
 294 01c3 0FCBD864 		.ascii	"\017\313\330d\320\365\257\340^\014\251rx\015|k\374\346"
 294      D0F5AFE0 
ARM GAS  /tmp/ccYQWmvd.s 			page 22


 294      5E0CA972 
 294      780D7C6B 
 294      FCE6
 295 01d5 D3FE641A 		.ascii	"\323\376d\032{\230\317(\345\025\263\205\371{\202\341"
 295      7B98CF28 
 295      E515B385 
 295      F97B82E1 
 296 01e5 AF91EA00 		.ascii	"\257\221\352\000\031\370\323\3702\332\311K\333\3124"
 296      19F8D3F8 
 296      32DAC94B 
 296      DBCA34
 297 01f4 A6AB694C 		.ascii	"\246\253iL<\011m\336\206\372;\214\315\036\346\336UR"
 297      3C096DDE 
 297      86FA3B8C 
 297      CD1EE6DE 
 297      5552
 298 0206 BBDBC79E 		.ascii	"\273\333\307\236\376\212\237\245\244\306(\220B\024T"
 298      FE8A9FA5 
 298      A4C62890 
 298      421454
 299 0215 723FD7A0 		.ascii	"r?\327\240\300\321T\247(H\026\320\257{q\377\201\004"
 299      C0D154A7 
 299      284816D0 
 299      AF7B71FF 
 299      8104
 300 0227 54ECE74A 		.ascii	"T\354\347JH\245\310O\372\3418\001\275\207\356\247\265"
 300      48A5C84F 
 300      FAE13801 
 300      BD87EEA7 
 300      B5
 301 0238 573D9AA7 		.ascii	"W=\232\247\200\036\236\340\226\000}\275\242$\177\306"
 301      801E9EE0 
 301      96007DBD 
 301      A2247FC6 
 302 0248 591D8F71 		.ascii	"Y\035\217q\013q\007\312b\305C\3401\300<\364\260\261"
 302      0B7107CA 
 302      62C543E0 
 302      31C03CF4 
 302      B0B1
 303 025a 8980E623 		.ascii	"\211\200\346#\223\022TVS\365_\024\325\327\264wv\316"
 303      93125456 
 303      53F55F14 
 303      D5D7B477 
 303      76CE
 304 026c 6DEAA976 		.ascii	"m\352\251v\317s/ h\275\000=\221\025~\021\013\377'+\370"
 304      CF732F20 
 304      68BD003D 
 304      91157E11 
 304      0BFF272B 
 305 0281 F6F52DC7 		.ascii	"\366\365-\307\036\350\222&\226RMx\210\015\271Bn\"H\217"
 305      1EE89226 
 305      96524D78 
 305      880DB942 
 305      6E22488F 
 306 0295 095F6A2D 		.ascii	"\011_j-\276\227\233\202QJZ\301t\224\276\311\253\001"
 306      BE979B82 
 306      514A5AC1 
ARM GAS  /tmp/ccYQWmvd.s 			page 23


 306      7494BEC9 
 306      AB01
 307 02a7 FC0E5AFF 		.ascii	"\374\016Z\377\202[\000\352j\337\264\255\371\037\025"
 307      825B00EA 
 307      6ADFB4AD 
 307      F91F15
 308 02b6 A540402B 		.ascii	"\245@@+\320\275\000\323\200\314\202\345\204\341\271"
 308      D0BD00D3 
 308      80CC82E5 
 308      84E1B9
 309 02c5 7709C9FB 		.ascii	"w\011\311\373@\256\022\022`\245\375\303\272\255\265"
 309      40AE1212 
 309      60A5FDC3 
 309      BAADB5
 310 02d4 A8066450 		.ascii	"\250\006dP\237q\214\276\014\307#\\\023\360\235\232\371"
 310      9F718CBE 
 310      0CC7235C 
 310      13F09D9A 
 310      F9
 311 02e5 E69C9F2A 		.ascii	"\346\234\237*M[\240\375rT\010\270\213u\\+\371iU=h\003"
 311      4D5BA0FD 
 311      725408B8 
 311      8B755C2B 
 311      F969553D 
 312 02fb 33DEDBBB 		.ascii	"3\336\333\273\212\352\005\015l\225k\260\022\023\330"
 312      8AEA050D 
 312      6C956BB0 
 312      1213D8
 313 030a DC5DB309 		.ascii	"\334]\263\011s~n|Z\307\234%\030U\354\347\223>\331\203"
 313      737E6E7C 
 313      5AC79C25 
 313      1855ECE7 
 313      933ED983 
 314 031e 6A89FC7F 		.ascii	"j\211\374\177\0062\236;\317\250\3269\324\321\267\266"
 314      06329E3B 
 314      CFA8D639 
 314      D4D1B7B6 
 315 032e 7E849204 		.ascii	"~\204\222\004j#\201:\313w\025\352\300\314\277<O\314"
 315      6A23813A 
 315      CB7715EA 
 315      C0CCBF3C 
 315      4FCC
 316 0340 BD99005D 		.ascii	"\275\231\000]\367\230\201\004\344\323\325\250\377\326"
 316      F7988104 
 316      E4D3D5A8 
 316      FFD6
 317 034e 1A6034F2 		.ascii	"\032`4\362\230V\360\340\337\203\373\221\233\363\\\322"
 317      9856F0E0 
 317      DF83FB91 
 317      9BF35CD2 
 318 035e EBC07405 		.ascii	"\353\300t\005v~\240\264\257\257\333\351\301\341\345"
 318      767EA0B4 
 318      AFAFDBE9 
 318      C1E1E5
 319 036d A1BEDC94 		.ascii	"\241\276\334\224o\247#\236\233@\372\372\230\365\345"
 319      6FA7239E 
 319      9B40FAFA 
ARM GAS  /tmp/ccYQWmvd.s 			page 24


 319      98F5E5
 320 037c 7D275A7F 		.ascii	"}'Z\177\325\250(=\325G\271]y\335\366\231\304[rF$\257"
 320      D5A8283D 
 320      D547B95D 
 320      79DDF699 
 320      C45B7246 
 321 0392 75FF73D2 		.ascii	"u\377s\322\375\006\322}+\333\375\302\316\217\0201Z\253"
 321      FD06D27D 
 321      2BDBFDC2 
 321      CE8F1031 
 321      5AAB
 322 03a4 A3DEF7EC 		.ascii	"\243\336\367\354\235\236\331\273m\"\241\216\261\357"
 322      9D9ED9BB 
 322      6D22A18E 
 322      B1EF
 323 03b2 C49907E7 		.ascii	"\304\231\007\347\022\021w\222\200\331\352e=\343\205"
 323      12117792 
 323      80D9EA65 
 323      3DE385
 324 03c1 42B3EDE0 		.ascii	"B\263\355\340\267\241\001\317\355\322\231\357R\274\266"
 324      B7A101CF 
 324      EDD299EF 
 324      52BCB6
 325 03d0 2F5CBA9D 		.ascii	"/\\\272\235\014\010\036\215\205=\256\001KLz\330\277"
 325      0C081E8D 
 325      853DAE01 
 325      4B4C7AD8 
 325      BF
 326 03e1 97240015 		.ascii	"\227$\000\025l\277\0230[/J\246\016\032\301\332\\\203"
 326      6CBF1330 
 326      5B2F4AA6 
 326      0E1AC1DA 
 326      5C83
 327 03f3 99393B64 		.ascii	"\2319;d\004;\342\004\254\247=gG\214`\237\273\0063sv"
 327      043BE204 
 327      ACA73D67 
 327      478C609F 
 327      BB063373 
 328 0408 CC08D6EE 		.ascii	"\314\010\326\356\004\254\267=g\307\215`']\203\2319\273"
 328      04ACB73D 
 328      67C78D60 
 328      275D8399 
 328      39BB
 329 041a 64043BE3 		.ascii	"d\004;\343\004\254\304\2023\375\260\033S\267!\335\315"
 329      04ACC482 
 329      33FDB01B 
 329      53B721DD 
 329      CD
 330 042b 79EE1B3D 		.ascii	"y\356\033=\035\270ti.\215q\321u\3722\311\015\343\350"
 330      1DB87469 
 330      2E8D71D1 
 330      75FA32C9 
 330      0DE3E8
 331 043e 5FE7A369 		.ascii	"_\347\243i\265Jk?m,\353p\202\230\305a\326\033\007\306"
 331      B54A6B3F 
 331      6D2CEB70 
 331      8298C561 
ARM GAS  /tmp/ccYQWmvd.s 			page 25


 331      D61B07C6 
 332 0452 DBAEC1CC 		.ascii	"\333\256\301\314f\331\217\301L\231\206\016F\355\013"
 332      66D98FC1 
 332      4C99860E 
 332      46ED0B
 333 0461 53BD1BD3 		.ascii	"S\275\033\323\251\256@\303\302\263A5\257\301\\\215\327"
 333      A9AE40C3 
 333      C2B34135 
 333      AFC15C8D 
 333      D7
 334 0472 1B2BBD7B 		.ascii	"\033+\275{[\267\025\320Y\364\013(\317!\277\316\205Z"
 334      5BB715D0 
 334      59F40B28 
 334      CF21BFCE 
 334      855A
 335 0484 D76A9D64 		.ascii	"\327j\235d\022;6\217\231gjG.R;O\370\332\350\011\023"
 335      123B368F 
 335      99676A47 
 335      2E523B4F 
 335      F8DAE809 
 336 0499 F31CA829 		.ascii	"\363\034\250)K(\\\262SS\252N\031\217jV?\250\323\015"
 336      4B285CB2 
 336      5353AA4E 
 336      198F6A56 
 336      3FA8D30D 
 337 04ad 32FA443A 		.ascii	"2\372D:9?\264\224$\347\213d\330\236\222g9\376;\302:"
 337      393FB494 
 337      24E78B64 
 337      D89E9267 
 337      39FE3BC2 
 338 04c2 FAD667DA 		.ascii	"\372\326g\332d\3422\001\233\335u\260\246\003m\017*^"
 338      64E23201 
 338      9BDD75B0 
 338      A6036D0F 
 338      2A5E
 339 04d4 017510A0 		.ascii	"\001u\020\240\205y\354\220\341g&\023~\363p\357\367\247"
 339      8579EC90 
 339      E1672613 
 339      7EF370EF 
 339      F7A7
 340 04e6 2B9DDA61 		.ascii	"+\235\332a\266\342\217Jcg\371\013F\313\277\357\332\362"
 340      B6E28F4A 
 340      6367F90B 
 340      46CBBFEF 
 340      DAF2
 341 04f8 A60081D9 		.ascii	"\246\000\201\331\375q\317L%U\3431\270z\326\270\200\251"
 341      FD71CF4C 
 341      2555E331 
 341      B87AD6B8 
 341      80A9
 342 050a E38ECDFF 		.ascii	"\343\216\315\377D\306\373\233D\257\033\255\015\344\000"
 342      44C6FB9B 
 342      44AF1BAD 
 342      0DE400
 343 0519 E8E85B2B 		.ascii	"\350\350[+\236$@\267\011\320']\006:0\363\335\201\004"
 343      9E2440B7 
 343      09D0275D 
ARM GAS  /tmp/ccYQWmvd.s 			page 26


 343      063A30F3 
 343      DD8104
 344 052c 08472CCF 		.ascii	"\010G,\317\355\314\2604b,\215\314\026\320\203\216\306"
 344      EDCCB034 
 344      622C8DCC 
 344      16D0838E 
 344      C6
 345 053d DC8FD596 		.ascii	"\334\217\325\226\347\016\262\3462\211\223ed\320\322"
 345      E70EB2E6 
 345      32899365 
 345      64D0D2
 346 054c 6DCBC969 		.ascii	"m\313\311i\350JRi\354\347\302^\223\250\275\306\022\355"
 346      E84A5269 
 346      ECE7C25E 
 346      93A8BDC6 
 346      12ED
 347 055e 1CCFD0CE 		.ascii	"\034\317\320\316m\227\352\341\271\323\256\305(0\213"
 347      6D97EAE1 
 347      B9D3AEC5 
 347      28308B
 348 056d 51F77517 		.ascii	"Q\367u\027\304hV\305\230H\304\270\360\003\210q\315\265"
 348      C46856C5 
 348      9848C4B8 
 348      F0038871 
 348      CDB5
 349 057f 183D0D62 		.ascii	"\030=\015b\300\"\262\345\372tu\360\373\01175\373\344"
 349      C022B2E5 
 349      FA7475F0 
 349      FB093735 
 349      FBE4
 350 0591 1DF3F316 		.ascii	"\035\363\363\026\377\023\323\3149\325\361\031*Qo\347"
 350      FF13D3CC 
 350      39D5F119 
 350      2A516FE7 
 351 05a1 9A362BA9 		.ascii	"\2326+\251i{\015K<\305\321\022o\207\276\304\233JTv\333"
 351      697B0D4B 
 351      3CC5D112 
 351      6F87BEC4 
 351      9B4A5476 
 352 05b6 2AC09C40 		.ascii	"*\300\234@5\035\375\254\027N\244\015\004\2466\277\213"
 352      351DFDAC 
 352      174EA40D 
 352      04A636BF 
 352      8B
 353 05c7 30ED07DA 		.ascii	"0\355\007\332>T\343\264\221\000M\312gM\230\317X0\337"
 353      3E54E3B4 
 353      91004DCA 
 353      674D98CF 
 353      5830DF
 354 05da 6C41F889 		.ascii	"lA\370\211{\372\216$\310\327\351\035\374\303\307\375"
 354      7BFA8E24 
 354      C8D7E91D 
 354      FCC3C7FD 
 355 05ea DDE978AE 		.ascii	"\335\351x\256\201\260\217\255\347r\372\245yO\335\316"
 355      81B08FAD 
 355      E772FAA5 
 355      794FDDCE 
ARM GAS  /tmp/ccYQWmvd.s 			page 27


 356 05fa E9DAD449 		.ascii	"\351\332\324I5\320\354\273BL\246\232\247j{\024/\340"
 356      35D0ECBB 
 356      424CA69A 
 356      A76A7B14 
 356      2FE0
 357 060c C9D3C2BB 		.ascii	"\311\323\302\273\204#\263m\323\254\200Y\263\255\260"
 357      8423B36D 
 357      D3AC8059 
 357      B3ADB0
 358 061b 1976B4CD 		.ascii	"\031v\264\315\233q-\332X\376\036\217\031Z\236a\360\345"
 358      9B712DDA 
 358      58FE1E8F 
 358      195A9E61 
 358      F0E5
 359 062d 8859B6E1 		.ascii	"\210Y\266\341\033\206&v\2414\2177\214\201\315wk\210"
 359      1B862676 
 359      A1348F37 
 359      8C81CD77 
 359      6B88
 360 063f 96CF1943 		.ascii	"\226\317\031Cl\275K\315\315\2326\307\321\012\373\017"
 360      6CBD4BCD 
 360      CD9A36C7 
 360      D10AFB0F 
 361 064f 1A561111 		.ascii	"\032V\021\021\344\257\244\333\245<\263\300\356\270\326"
 361      E4AFA4DB 
 361      A53CB3C0 
 361      EEB8D6
 362 065e 5E47F588 		.ascii	"^G\365\210\237\345\316\025GO\371\225\251E\026\375Y\315"
 362      9FE5CE15 
 362      474FF995 
 362      A94516FD 
 362      59CD
 363 0670 B8368DDB 		.ascii	"\2706\215\333?\005\215!\350+y\274\311v\213\261\222\266"
 363      3F058D21 
 363      E82B79BC 
 363      C9768BB1 
 363      92B6
 364 0682 3131C80E 		.ascii	"11\310\016\210\347&\3730\311j\226q\310\217I\272\311"
 364      88E726FB 
 364      30C96A96 
 364      71C88F49 
 364      BAC9
 365 0694 B6DA01E3 		.ascii	"\266\332\001\343\311\324\267\223\214\233l\002\372\000"
 365      C9D4B793 
 365      8C9B6C02 
 365      FA00
 366 06a2 F114B76B 		.ascii	"\361\024\267kv\270\274C_K\010h\275k\260\022+V5OMK+\240"
 366      76B8BC43 
 366      5F4B0868 
 366      BD6BB012 
 366      2B56354F 
 367 06ba B53C5E03 		.ascii	"\265<^\003|\300?\002\345:(\365\203\347\346\3704\233"
 367      7CC03F02 
 367      E53A28F5 
 367      83E7E6F8 
 367      349B
 368 06cc 5AA92EB7 		.ascii	"Z\251.\267sv\\\373n\206\352\234n2\177\213\276\271G\374"
ARM GAS  /tmp/ccYQWmvd.s 			page 28


 368      73765CFB 
 368      6E86EA9C 
 368      6E327F8B 
 368      BEB947FC 
 369 06e0 79A18F0D 		.ascii	"y\241\217\015<\234\312M\342\270J}\313X\241r\256\032"
 369      3C9CCA4D 
 369      E2B84A7D 
 369      CB58A172 
 369      AE1A
 370 06f2 D9C32EB0 		.ascii	"\331\303.\260\227\030\003{\265\357\256\302\020\374\357"
 370      9718037B 
 370      B5EFAEC2 
 370      10FCEF
 371 0701 C2025577 		.ascii	"\302\002Uw\271\002QA\032\\O\322\363\237I\317\315\254"
 371      B9025141 
 371      1A5C4FD2 
 371      F39F49CF 
 371      CDAC
 372 0713 434FBBD3 		.ascii	"CO\273\323:\216:t\263\243H\354 \221\250E\326W:jW|!\231"
 372      3A8E3A74 
 372      B3A348EC 
 372      2091A845 
 372      D6573A6A 
 373 072b BA71F653 		.ascii	"\272q\366SD\340\324\305\3617,\234S+P\270[\242[\305\250"
 373      44E0D4C5 
 373      F1372C9C 
 373      532B50B8 
 373      5BA25BC5 
 374 0740 FE953A7C 		.ascii	"\376\225:|\012\317[Z\211LW2\\K\325\214\301\265\232\015"
 374      0ACF5B5A 
 374      894C5732 
 374      5C4BD58C 
 374      C1B59A0D 
 375 0754 91F21189 		.ascii	"\221\362\021\211\224-$R>!e\2131^\354\334b\233\321-\276"
 375      942D2452 
 375      3E21658B 
 375      315EECDC 
 375      629BD12D 
 376 0769 772D7789 		.ascii	"w-w\211C\357\333l\354&Ypw\336\267\276\345\232\227\354"
 376      43EFDB6C 
 376      EC265970 
 376      77DEB7BE 
 376      E59A97EC 
 377 077d 18BAD895 		.ascii	"\030\272\330\225\337\261U\013\334]$p'\024\260\332\335"
 377      DFB1550B 
 377      DC5D2470 
 377      2714B0DA 
 377      DD
 378 078e C8CE729D 		.ascii	"\310\316r\235lR7tU\024\375\200\311I\201\203\225f\211"
 378      6C523774 
 378      5514FD80 
 378      C9498183 
 378      956689
 379 07a1 85D6F5E9 		.ascii	"\205\326\365\351\316\035:\312\346\334\351\326_\376\354"
 379      CE1D3ACA 
 379      E6DCE9D6 
 379      5FFEEC
ARM GAS  /tmp/ccYQWmvd.s 			page 29


 380 07b0 ACA123D3 		.ascii	"\254\241#\323~\342kM\005\326#S\226-\363U\204\244-cd"
 380      7EE26B4D 
 380      05D62353 
 380      962DF355 
 380      84A42D63 
 381 07c5 AABBAA8D 		.ascii	"\252\273\252\215Lm\216F\246}\226"
 381      4C6D8E46 
 381      A67D96
 382 07d0 23539BFB 		.ascii	"#S\233\373\221\311\35202(\240\303$D\216\230\207\221"
 382      91C9EA30 
 382      3228A0C3 
 382      24448E98 
 382      8791
 383 07e2 6627DA7F 		.ascii	"f'\332\177\334\316\031\225T\303\301\331H\345_ME\237"
 383      DCCE1995 
 383      54C3C1D9 
 383      48E55F4D 
 383      459F
 384 07f4 B27856A9 		.ascii	"\262xV\251\310\204g\264f2\365\376A2\262\252^\272\337"
 384      C88467B4 
 384      6632F5FE 
 384      4132B2AA 
 384      5EBADF
 385 0807 0973FDEC 		.ascii	"\011s\375\354\301\232gh\312\335L\346\211_8\301\033h"
 385      C19A6768 
 385      CADD4CE6 
 385      895F38C1 
 385      1B68
 386 0819 276C32D5 		.ascii	"'l2\325vp6\305S\337m\235u\215g\346\257c\206i^}\325\011"
 386      767036C5 
 386      53DF6D9D 
 386      758D67E6 
 386      AF638669 
 387 0831 DC20C7B6 		.ascii	"\334 \307\266O\277\233\024\320\032\262\231\270\026\221"
 387      4FBF9B14 
 387      D01AB299 
 387      B81691
 388 0840 8904293F 		.ascii	"\211\004)?$\345\026R\236 \345IR\236&\345yR\336 \345"
 388      24E51652 
 388      9E20E549 
 388      529E26E5 
 388      7952DE20 
 389 0855 18924E27 		.ascii	"\030\222N'\220\362MR\356#\3451R\036'e;)O\220\362\244"
 389      90F24D52 
 389      EE23E531 
 389      521E2765 
 389      3B294F90 
 390 086b 93C4CBCC 		.ascii	"\223\304\313\314\307\255\336\345\252.e\007\3605_h\222"
 390      C7ADDEE5 
 390      AA2E6507 
 390      F0355F68 
 390      92
 391 087c 567B2B4E 		.ascii	"V{+N\274\372\026\023\320?\347\346+\312\324\324\225s"
 391      BCFA1613 
 391      D03FE7E6 
 391      2BCAD4D4 
 391      9573
ARM GAS  /tmp/ccYQWmvd.s 			page 30


 392 088e 87F22073 		.ascii	"\207\362 sz\265\201n\202\0377[\202\036\266\354\205\256"
 392      7AB5816E 
 392      821F375B 
 392      821EB6EC 
 392      85AE
 393 08a0 22545A65 		.ascii	"\"TZeJKQ=R\273\205yi\016B\312\034};~X\031\332[\177;"
 393      4A4B513D 
 393      52BB8579 
 393      690E42CA 
 393      1C7D3B7E 
 394 08ba BE847D3B 		.ascii	"\276\204};~\206\267z\371>\355\233V\217\375\333q\314"
 394      7E86B77A 
 394      F93EED9B 
 394      568FFDDB 
 394      71CC
 395 08cc 989D622E 		.ascii	"\230\235b.\362\246\327\343*3\214~\352\375V\372Qn\210"
 395      F2A6D7E3 
 395      2A338C7E 
 395      EAFD56FA 
 395      516E88
 396 08df 2F69CDFF 		.ascii	"/i\315\377\306\343<t\201w\"aR\271rr\350K\332\242\313"
 396      C6E33C74 
 396      81772261 
 396      52B97272 
 396      E84BDAA2 
 397 08f4 9E8A32F8 		.ascii	"\236\2122\370\255\225\300\355\015\313\366\374\347\362"
 397      AD95C0ED 
 397      0DCBF6FC 
 397      E7F2
 398 0902 358A3241 		.ascii	"5\2122A\271\323\371zM\022i\237\034|\302\260j\375\315"
 398      B9D3F97A 
 398      4D12699F 
 398      1C7CC2B0 
 398      6AFDCD
 399 0915 C1559ED1 		.ascii	"\301U\236\321j\207\245Vg\267e|\322\260\313\021\376u"
 399      6A87A556 
 399      67B7657C 
 399      D2B0CB11 
 399      FE75
 400 0927 16FF3B4B 		.ascii	"\026\377;K!\256\256\274\361S;\253\025p\343\310\216\324"
 400      21AEAEBC 
 400      F1533BAB 
 400      1570E3C8 
 400      8ED4
 401 0939 58A506BD 		.ascii	"X\245\006\275\226eG\212\274 \020\320-\276\000;\262\337"
 401      9665478A 
 401      BC2010D0 
 401      2DBE003B 
 401      B2DF
 402 094b 767B1F37 		.ascii	"v{\0377\300\007\246W\353Z-\313\036\357\367\254s\250"
 402      C007A657 
 402      EB5A2DCB 
 402      1EEFF7AC 
 402      73A8
 403 095d 7168728E 		.ascii	"qhr\216d7K\347\330$\276\2445?G\234\343\246\255s\320"
 403      64374BE7 
 403      D824BEA4 
ARM GAS  /tmp/ccYQWmvd.s 			page 31


 403      353F479C 
 403      E3A6AD73 
 404 0972 D537758E 		.ascii	"\3257u\216\303\307\260\373\253,\232\250L\262S\006\025"
 404      C3C7B0FB 
 404      AB2C9AA8 
 404      4CB25306 
 404      15
 405 0983 8F95DDF6 		.ascii	"\217\225\335\366n\323\355\346\374;\2211\036\013Y\365"
 405      6ED3EDE6 
 405      FC3B9131 
 405      1E0B59F5 
 406 0993 1F53D585 		.ascii	"\037S\325\205\012#\373Tk\3317\260\262\327zr\347\214"
 406      0A23FB54 
 406      6BD937B0 
 406      B2D77A72 
 406      E78C
 407 09a5 7AE5734C 		.ascii	"z\345sL\246\256\374\233\010\260=\031e\307*c`\"\223\345"
 407      A6AEFC9B 
 407      08B03D19 
 407      65C72A63 
 407      602293E5 
 408 09b9 C765EAA8 		.ascii	"\307e\352\250)\325>k\355\215\007f\3024H\271\004\223"
 408      29D53E6B 
 408      ED8D0766 
 408      C23448B9 
 408      0493
 409 09cb 33564D18 		.ascii	"3VM\030\336NOotAO[\254\365t\275\234\321\323dGzzG\323"
 409      DE4E4F6F 
 409      74414F5B 
 409      ACF574BD 
 409      9CD1D364 
 410 09e4 9380267A 		.ascii	"\223\200&z\262\223\231\365\264\252nlO\257v\323\236\214"
 410      B29399F5 
 410      B4AA6E6C 
 410      4FAF76D3 
 410      9E8C
 411 09f6 0A5A6FA5 		.ascii	"\012Zo\245\267\324\027\333\336\200A8\231\352\354l\036"
 411      B7D417DB 
 411      DE804138 
 411      99EAEC6C 
 411      1E
 412 0a07 C4B9C8B3 		.ascii	"\304\271\310\263\015\236\314\017\262vv\263L&Ie\315b"
 412      0D9ECC0F 
 412      B27676B3 
 412      4C264965 
 412      CD62
 413 0a19 C59F4E90 		.ascii	"\305\237N\220\323\263\3639\303\222\317\346\211;`\221"
 413      D3B3F339 
 413      C392CFE6 
 413      893B6091 
 414 0a29 A6DCEAEC 		.ascii	"\246\334\352\354\254\365R\357\346\271\203\326v\370\236"
 414      ACF552EF 
 414      E6B983D6 
 414      76F89E
 415 0a38 B543A323 		.ascii	"\265C\243#;\314e\355`Of\266\303\033\312\330\236Hw\330"
 415      3BCC65ED 
 415      604F66B6 
ARM GAS  /tmp/ccYQWmvd.s 			page 32


 415      C31BCAD8 
 415      9E4877D8 
 416 0a4c 46D66167 		.ascii	"F\326age\012\324^\017s\345c\275\033\327(cH\306G\232"
 416      650AD45E 
 416      0F73E563 
 416      BD1BD728 
 416      6348C647 
 417 0a61 445F65A8 		.ascii	"D_e\250P\305x\327\012#u\354D+\032O\224\342am\227%34"
 417      50C578D7 
 417      0A2375EC 
 417      442B1A4F 
 417      94E2616D 
 418 0a79 B11E7F93 		.ascii	"\261\036\177\223l\351\233<\374\222\015\037\357Y\362"
 418      6CE99B3C 
 418      FC920D1F 
 418      EF59F2
 419 0a88 71F4C419 		.ascii	"q\364\304\0314K\331\202\023\377\353n\234h\201U\3541"
 419      344BD982 
 419      13FFEB6E 
 419      9C688155 
 419      EC31
 420 0a9a 9CDCB1E1 		.ascii	"\234\334\261\341d\221\231\223G\271y\230\223\017O\264"
 420      64919993 
 420      47B97998 
 420      930F4FB4 
 421 0aaa F335CA96 		.ascii	"\3635\312\226F\230\233wv\242\207\265\245\367\370\257"
 421      46989B77 
 421      76A287B5 
 421      A5F7F8AF 
 422 0aba D2A382D2 		.ascii	"\322\243\202\322Kcc7F\320\367\353\256\316\243k\304\305"
 422      4B636337 
 422      46D0F7EB 
 422      AECEA36B 
 422      C4C5
 423 0acc 1E3C959F 		.ascii	"\036<\225\237Xh\375Q\\\026(\236\233A\210\226y2\326E"
 423      5868FD51 
 423      5C16289E 
 423      9B418896 
 423      7932D645 
 424 0ae0 2DDA0607 		.ascii	"-\332\006\007~\226{\203c\365qu]a\261u\320\256o\035<"
 424      7E967B83 
 424      63F57175 
 424      5D61B175 
 424      D0AE6F1D 
 425 0af5 68E07E5B 		.ascii	"h\340~[\333\227\224\373U\204\373&\033\356m\201xn\005"
 425      DB9794FB 
 425      5584FB26 
 425      1BEE6D81 
 425      786E05
 426 0b08 215993C9 		.ascii	"!Y\223\311\373\201:\312\373\032G\274\267\0351\257\211"
 426      FB813ACA 
 426      FB1A47BC 
 426      B71D31AF 
 426      89
 427 0b19 36EAB85D 		.ascii	"6\352\270]\333\2369t\204\254\211\3245\307\307,\230\253"
 427      DB9E3974 
 427      84AC89D4 
ARM GAS  /tmp/ccYQWmvd.s 			page 33


 427      35C7C72C 
 427      98AB
 428 0b2b CD192575 		.ascii	"\315\031%uL\005\373\230|\367\270\3355X\211\211\263+"
 428      4C05FB98 
 428      7CF7B8DD 
 428      35588989 
 428      B32B
 429 0b3d 6F9B3F5E 		.ascii	"o\233?^\334\355\004/\3137\032W\217\030\276\3218\344"
 429      DCED042F 
 429      CB371A57 
 429      8F18BED1 
 429      38E4
 430 0b4f 1ACCCCDC 		.ascii	"\032\314\314\334M#X\273\0230\253/\031\254\016\243\223"
 430      4D2358BB 
 430      1330AB2F 
 430      19AC0EA3 
 430      93
 431 0b60 C092DD83 		.ascii	"\300\222\335\203\327V\353<dUE\312\015\244\334H\312M"
 431      D756EB3C 
 431      645545CA 
 431      0DA4DC48 
 431      CA4D
 432 0b72 A46CF698 		.ascii	"\244l\366\230V\335\347\364(\261t\305\\.\241\2446\330"
 432      56DDE7F4 
 432      28B174C5 
 432      5C2EA1A4 
 432      36D8
 433 0b84 8787D5CE 		.ascii	"\207\207\325\316\032\004\367\3275h,\361\341\217Ix\\"
 433      1A04F7D7 
 433      35682CF1 
 433      E18F4978 
 433      5C
 434 0b95 CA1D1EEC 		.ascii	"\312\035\036\354\336e]\021&i\311\010\217\226;cix\264"
 434      DE655D11 
 434      2669C908 
 434      8F963B63 
 434      6978B4
 435 0ba8 38088F64 		.ascii	"8\010\217d\352\366Lg/1\232\364\376\3573\010\262\355"
 435      EAF64C67 
 435      2F319AF4 
 435      FEEF3308 
 435      B2ED
 436 0bba A4F65661 		.ascii	"\244\366Va\007\021dNQ\356OwM@\020\347\204dW\246 \027"
 436      0711644E 
 436      51EE4F77 
 436      4D4010E7 
 436      846457A6 
 437 0bd0 34417639 		.ascii	"4Av9\022d\323L\315\373\267{\260\217m\326q]\356\335P"
 437      1264D34C 
 437      CDFBB77B 
 437      B08F6DD6 
 437      715DEEDD 
 438 0be5 BCCD6DC4 		.ascii	"\274\315m\304aU\260\026\327`f\357\337\323\346\366\323"
 438      6155B016 
 438      D76066EF 
 438      DFD3E6F6 
 438      D3
ARM GAS  /tmp/ccYQWmvd.s 			page 34


 439 0bf6 DD4DDBD6 		.ascii	"\335M\333\326=A\336\242\036\364\340D\263\213Ql\027\267"
 439      3D41DEA2 
 439      1EF4E044 
 439      B38B516C 
 439      17B7
 440 0c08 080F3991 		.ascii	"\010\0179\221\303~3\031\254r\265\301b\257\335\371`\177"
 440      C37E3319 
 440      AC72B5C1 
 440      62AFDDF9 
 440      607F
 441 0c1a 8C1D625F 		.ascii	"\214\035b_`F\330l*\031w\274\206\276!;J\254\362%\243"
 441      6046D86C 
 441      2A1977BC 
 441      86BE213B 
 441      4AACF225 
 442 0c2f 1466C302 		.ascii	"\024f\303\002\367e\307G\273\247\320\306\2432\236A\202"
 442      F765C747 
 442      BBA7D0C6 
 442      A3329E41 
 442      82
 443 0c40 70AD3593 		.ascii	"p\2555\223\365Ak\035\013\265W\217do\351\262\023@\253"
 443      F5416B1D 
 443      0BB5578F 
 443      646FE9B2 
 443      1340AB
 444 0c53 CC6C7518 		.ascii	"\314lu\030\203G@\273I\376\333C\362\334>R\036 \345\021"
 444      834740BB 
 444      49FEDB43 
 444      F2DC3E52 
 444      1E20E511 
 445 0c67 529E3066 		.ascii	"R\2360f>;\335`\227\327\261\367\222\251gK\227\303\250"
 445      3E3BDD60 
 445      97D7B1F7 
 445      92A9674B 
 445      97C3A8
 446 0c7a FE881E46 		.ascii	"\376\210\036F\002\332\357\032\314\244\310T\303\021m"
 446      02DAEF1A 
 446      CCA4C854 
 446      C3116D
 447 0c89 CB0F4785 		.ascii	"\313\017G\205\200\016;\301\313\362n\344\003\22595\304"
 447      800E3BC1 
 447      CBF26EE4 
 447      03953935 
 447      C4
 448 0c9a 6EE819D5 		.ascii	"n\350\031\325\245\225\255\215\322b0J+1\312\247\304\004"
 448      A595AD8D 
 448      D262304A 
 448      2B31CAA7 
 448      C404
 449 0cac 2749798A 		.ascii	"'Iy\212\224\247\315\003\321\330\356\314@dN\372V\343"
 449      94A7CD03 
 449      D1D8EECC 
 449      40644EFA 
 449      56E3
 450 0cbe A2513FB0 		.ascii	"\242Q?\2606?\016\3628\337x?\257m\274\237#\311{rw\327"
 450      363F0EF2 
 450      38DF783F 
ARM GAS  /tmp/ccYQWmvd.s 			page 35


 450      AF6DBC9F 
 450      23C97B72 
 451 0cd4 1BEFEF10 		.ascii	"\033\357\357\020\222\363\231\223\264\323\332$\355|\356"
 451      92F39993 
 451      B4D3DA24 
 451      ED7CEE
 452 0ce3 E43DA636 		.ascii	"\344=\2466\265\341\235E\351Q\250V\217\3403\310~\241"
 452      B5E19D45 
 452      E951A856 
 452      8FE033C8 
 452      7EA1
 453 0cf5 6CFA3472 		.ascii	"l\3724r\231\316\207K/\265\266\335y\203\355.\022\333"
 453      99CE874B 
 453      2FB5B6DD 
 453      7983ED2E 
 453      12DB
 454 0d07 5D325B6A 		.ascii	"]2[j\035k\251\234\033\365fC\035>\256MJ\325\177y\331"
 454      1D6BA99C 
 454      1BF56643 
 454      1D3EAE4D 
 454      4AD57F79 
 455 0d1c C0E23599 		.ascii	"\300\3425\231\376\301\205VM\233\353\234\011\360\262"
 455      FEC18556 
 455      4D9BEB9C 
 455      09F0B2
 456 0d2b 1BCBCFBA 		.ascii	"\033\313\317\272pv\000\031[\256\023\273\237rkw\262H"
 456      70760019 
 456      5BAE13BB 
 456      9F726B77 
 456      B248
 457 0d3d 636C9EFA 		.ascii	"cl\236\372V,Q\357\346\036\252o\234\"o8\335\2741\373"
 457      562C51EF 
 457      E61EAA6F 
 457      9C226F38 
 457      DDBC31FB 
 458 0d51 8BFA55D8 		.ascii	"\213\372U\330m\022\251\327\272\377 \203\341\035\002"
 458      6D12A9D7 
 458      BAFF2083 
 458      E11D02
 459 0d60 73F38772 		.ascii	"s\363\207r\232\233\006\247\371\2368\315-&\274\213\035"
 459      9A9B06A7 
 459      F99E38CD 
 459      2D26BC8B 
 459      1D
 460 0d71 384DDCD6 		.ascii	"8M\334\326i`\0309=\240FI5\366\273\207\253\327\326~\352"
 460      69601839 
 460      3DA04649 
 460      35F6BB87 
 460      ABD7D67E 
 461 0d86 D7B8B479 		.ascii	"\327\270\264y\252\273\206r\010Q\246j\275\367\220\232"
 461      AABB8672 
 461      0851A66A 
 461      BDF7909A 
 462 0d96 E9B302D2 		.ascii	"\351\263\002\322\304\316\260c\274\351\017\225\213\374"
 462      C4CEB063 
 462      BCE90F95 
 462      8BFC
ARM GAS  /tmp/ccYQWmvd.s 			page 36


 463 0da4 E9CA03BA 		.ascii	"\351\312\003\272\034\343Y9\230~i}\224c\315-3hn\005\321"
 463      1CE35939 
 463      987E697D 
 463      9463CD2D 
 463      33686E05 
 464 0db9 DC4A921E 		.ascii	"\334J\222\036\267\220\362,)\257\222\362\032)\223^\223"
 464      B790F22C 
 464      29AF92F2 
 464      1A29935E 
 464      93
 465 0dca 5E67166B 		.ascii	"^g\026k\356\240\245M\363:\030wQ\347\325\227\347T{M\203"
 465      EEA0A54D 
 465      F33A1877 
 465      51E7D597 
 465      E7547B4D 
 466 0ddf 1A8BD50F 		.ascii	"\032\213\325\017\260)UO\215H\243\031\347Zw\343mt\207"
 466      B029554F 
 466      8D48A319 
 466      E75A77E3 
 466      6D7487
 467 0df2 CC5D9730 		.ascii	"\314]\2270=\017\324\332\371(\316\004\327=O\264\3519"
 467      3D0FD4DA 
 467      F928CE04 
 467      D73D4FB4 
 467      E939
 468 0e04 9FF64CB7 		.ascii	"\237\366L\267\304;.\357\231\214\246\254\252S\360\006"
 468      C43B2EEF 
 468      998CA6AC 
 468      AA53F006 
 469 0e14 EEEB7353 		.ascii	"\356\353sS\365^\347S\267\311^f\352\2661s\237\346\323"
 469      F55EE753 
 469      B7C95E66 
 469      EAB63173 
 469      9FE6D3
 470 0e27 62636492 		.ascii	"bcd\222\226<\327VL\345\247\373a{\324\2277\352\277\221"
 470      963CD756 
 470      4CE5A7FB 
 470      617BD497 
 470      37EABF91 
 471 0e3b 9D221493 		.ascii	"\235\"\024\223\274v[[4\262\351\326\326\225\032\303V"
 471      BC765B5B 
 471      34B2E9D6 
 471      D6951AC3 
 471      56
 472 0e4c 2C2632F9 		.ascii	",&2\371\321\233^\323\036L\0117W\035\214\376\366@M\012"
 472      D19B5ED3 
 472      1E4C0937 
 472      571D8CFE 
 472      F6404D0A 
 473 0e60 8F4594EE 		.ascii	"\217E\224\356\202\361\365\0013g\304\257!\354\024\320"
 473      82F1F501 
 473      3367C4AF 
 473      21EC14D0 
 474 0e70 E0D5471C 		.ascii	"\340\325G\034\274\275\263\033\277&\271\361\337\323\224"
 474      BCBDB31B 
 474      BF26B9F1 
 474      DFD394
ARM GAS  /tmp/ccYQWmvd.s 			page 37


 475 0e7f 64A33286 		.ascii	"d\2432\206l\357\030\315k\030\272\376\240\001\025es\002"
 475      6CEF18CD 
 475      6B18BAFE 
 475      A0011565 
 475      7302
 476 0e91 A695801A 		.ascii	"\246\225\200\032];\301,\033'0\277\233\323Z\341oK\210"
 476      5D3BC12C 
 476      1B2730BF 
 476      9BD35AE1 
 476      6F4B88
 477 0ea4 F2AFA75F 		.ascii	"\362\257\247_\0020L\360\334\325b-\223tC\272F;V~i\326"
 477      02304CF0 
 477      DCD5622D 
 477      937443BA 
 477      463B567E 
 478 0eba E8CD2C1A 		.ascii	"\350\315,\032\035\223e\026>'\255Q\206j\261M\226$\233"
 478      1D936516 
 478      3E27AD51 
 478      866AB14D 
 478      96249B
 479 0ecd 8FB6544B 		.ascii	"\217\266TK\263Xo\256-\325\202,\0346\331R5e\241\232\227"
 479      B3586FAE 
 479      2DD5822C 
 479      1C36D952 
 479      3565A19A 
 480 0ee2 E129B3D6 		.ascii	"\341)\263\326\356\371\207\334\2362T\003\352\226\315"
 480      EEF987DC 
 480      9E325403 
 480      EA96CD
 481 0ef1 53985620 		.ascii	"S\230V \200kOYh\343)\306D\235n\005\325\267\275\314\233"
 481      806B4F59 
 481      68E329C6 
 481      449D6E05 
 481      D5B7BDCC 
 482 0f06 0086099E 		.ascii	"\000\206\011\236K\366\310\364\224\324\334mJI\211\356"
 482      4BF6C8F4 
 482      94D4DC6D 
 482      4A4989EE 
 483 0f16 26933DF6 		.ascii	"&\223=\366n\202\337\205\331q\273\330\326\010\027\263"
 483      6E82DF85 
 483      D971BBD8 
 483      D60817B3 
 484 0f26 502D4953 		.ascii	"P-ISQnfLTx^\347f\272\221\033\325L\251\003\333'(H\251"
 484      516E664C 
 484      54785EE7 
 484      66BA911B 
 484      D54CA903 
 485 0f3f 536AF06B 		.ascii	"Sj\360k\033\033#Uj\035u\317f$\246\025\014l\256\215\264"
 485      1B1B2355 
 485      6A1D75CF 
 485      6624A615 
 485      0C6CAE8D 
 486 0f54 D2C64845 		.ascii	"\322\306HE&#\255d\215dxM\3000\301s\365&#qO\366\355["
 486      2623AD64 
 486      8D64784D 
 486      C030C173 
 486      F5262371 
ARM GAS  /tmp/ccYQWmvd.s 			page 38


 487 0f6c 3AB83234 		.ascii	":\27024,\364\357e\245\261D\251$\227\306c\222\234(\375"
 487      2CF4EF65 
 487      A5B144A9 
 487      2497C663 
 487      929C28FD 
 488 0f80 CD2B2F0F 		.ascii	"\315+/\017~yTi\2602\030\223\304\300\310\001\221\276"
 488      7E795469 
 488      B0321893 
 488      C4C0C801 
 488      91BE
 489 0f92 959C1F3F 		.ascii	"\225\234\037?\012\204c\301\021\371/\376\333\253"
 489      0A8463C1 
 489      11F92FFE 
 489      DBAB
 490 0fa0 2583B942 		.ascii	"%\203\271Br\243*\212o=\232\001\024\212\006\303U\345"
 490      72A32A8A 
 490      6F3D9A01 
 490      148A06C3 
 490      55E5
 491 0fb2 22602482 		.ascii	"\"`$\202\225\345@\377X\266&\243\023\362\350\270\230"
 491      95E540FF 
 491      58B626A3 
 491      13F2E8B8 
 491      98
 492 0fc3 80660572 		.ascii	"\200f\005r\245$\012\345\001\331\037\254\014\250\365"
 492      A5240AE5 
 492      01D91FAC 
 492      0CA8F5
 493 0fd2 FC78202A 		.ascii	"\374x *\216\222\341\022\227\304\221\317\345\3409\026"
 493      8E92E112 
 493      97C491CF 
 493      E5E03916 
 494 0fe2 8987C2A2 		.ascii	"\211\207\302\242\224(}q\360`\200\326p}r\\\012\305\002"
 494      94287D71 
 494      F06080D6 
 494      707D725C 
 494      0AC502
 495 0ff5 D0303A9C 		.ascii	"\3200:\234\234\317\226V\306\"b"
 495      9CCF9656 
 495      C62262
 496 1000 A9242644 		.ascii	"\251$&DA\012V\226V\012Ry\265 \211\245\202\024y\272\264"
 496      410A5696 
 496      560A5279 
 496      B52089A5 
 496      821479BA 
 497 1015 2218EC03 		.ascii	"\"\030\354\003\225>bd\230X^.\226\3537\242\261\250\330"
 497      953E6264 
 497      98585E2E 
 497      96EB37A2 
 497      B1A8D8
 498 1028 47148685 		.ascii	"G\024\206\205\372\364\017\014\354\363t\277\247\372\277"
 498      FAF40F0C 
 498      ECF374BF 
 498      A7FABF
 499 1037 F674A9E9 		.ascii	"\366t\251\351\201.WB.\017Ee,S\025\\\237y: \327\242\277"
 499      812E5742 
 499      2E0F4565 
ARM GAS  /tmp/ccYQWmvd.s 			page 39


 499      2C53155C 
 499      9F793A20 
 500 104e 5FEF1121 		.ascii	"_\357\021!X\031\212\212\245\201rq\270P\025\226\003\232"
 500      58198A8A 
 500      A5817271 
 500      B8501596 
 500      039A
 501 1060 26BA0502 		.ascii	"&\272\005\002\032?D\245\241\230/\030\213\312\240\341"
 501      1A3F44A5 
 501      A1982F18 
 501      8BCAA0E1 
 502 1070 5F3A7107 		.ascii	"_:q\007@P-\017\030AyT\201$V\000\003\001\231\227\372"
 502      40502D0F 
 502      18417954 
 502      81245600 
 502      03019997 
 503 1085 F3D2B3BC 		.ascii	"\363\322\263\274\364\034/\015\340\245\201\274\364\274"
 503      F41C2F0D 
 503      E0A581BC 
 503      F4BC
 504 1093 477AAA1F 		.ascii	"Gz\252\037\234O\361a\011.\317\344\305\003\320\336\207"
 504      9C4FF161 
 504      092ECFE4 
 504      C503D0DE 
 504      87
 505 10a4 8D592D4A 		.ascii	"\215Y-Jp\215\205\313E\311\033\004\321\261\205\205\210"
 505      708D85CB 
 505      45C91B04 
 505      D1B18585 
 505      88
 506 10b5 D82D218F 		.ascii	"\330-!\217\020\302\241\212h@&*{\256\177@\246\334\222"
 506      10C2A18A 
 506      6840262A 
 506      7BAE7F40 
 506      A6DC92
 507 10c8 6A3C000D 		.ascii	"j<\000\015\302\241HH.\220\023\262 \213\001\331\207\037"
 507      C2A14848 
 507      2E9013B2 
 507      208B01D9 
 507      871F
 508 10da 0E046F51 		.ascii	"\016\004oQ\233A\315\207[\3013\237\034\211\225\213\344"
 508      9B41CD87 
 508      5BC1339F 
 508      1C89958B 
 508      E4
 509 10eb F7F0B050 		.ascii	"\367\360\260P\221\360\311\2228<Ad\306\225\274H\242\002"
 509      91F0C992 
 509      383C4164 
 509      C695BC48 
 509      A202
 510 10fd 1E524500 		.ascii	"\036RE\000\271\246\022\251|4<*\020G\205\344 \000\344"
 510      B9A612A9 
 510      7C343C2A 
 510      104785E4 
 510      2000E4
 511 1110 57CBB161 		.ascii	"W\313\261a\377\023\277\227\272%\220\212\222\030\015"
 511      FF13BF97 
ARM GAS  /tmp/ccYQWmvd.s 			page 40


 511      BA25908A 
 511      92180D
 512 111f 02705EB5 		.ascii	"\002p^\265,Kq_B\214\312@P\004\356\232\020#B\274\022"
 512      2C4B715F 
 512      428CCA40 
 512      5004EE9A 
 512      102342BC 
 513 1134 74F44836 		.ascii	"t\364H6_\027q4\365P\361\022\201\327\252\304*\000\353"
 513      5F177134 
 513      F550F112 
 513      81D7AAC4 
 513      2A00EB
 514 1147 A97B3BBD 		.ascii	"\251{;\275\345\243\327\274`\024L\227\227\010\300\025"
 514      E5A3D7BC 
 514      60144C97 
 514      9708C015 
 515 1157 7801EA78 		.ascii	"x\001\352x\001\264\215T\201\301\262u\023\221Ga\257\217"
 515      01B48D54 
 515      81C1B275 
 515      13914761 
 515      AF8F
 516 1169 50B44820 		.ascii	"P\264H V\035\005\255\023:\2202\242\206T\265\014\355"
 516      561D05AD 
 516      133A9032 
 516      A28654B5 
 516      0CED
 517 117b E285E248 		.ascii	"\342\205\342H,\204\220\030\001O\304j\\\361\304\003U"
 517      2C849018 
 517      014FC46A 
 517      5CF1C403 
 517      55
 518 118c C51A43E1 		.ascii	"\305\032C\341P\002x\350a`\021\337\361\307\003\325BH"
 518      500278E8 
 518      616011DF 
 518      F1C703D5 
 518      4248
 519 119e 0E452BC0 		.ascii	"\016E+\3000\240\001\322\021T\305\270\030\005\307\257"
 519      30A001D2 
 519      1154C5B8 
 519      1805C7AF 
 520 11ae 80E7008E 		.ascii	"\200\347\000\216[v\303*\027\302\304\325\340f<\026\013"
 520      5B76C32A 
 520      17C2C4D5 
 520      E0663C16 
 520      0B
 521 11bf 17A97287 		.ascii	"\027\251r\207\242\011Q\222y9\356\221_\213\337\243\336"
 521      A2095192 
 521      7939EE91 
 521      5F8BDFA3 
 521      DE
 522 11d0 1B1E1A1E 		.ascii	"\033\036\032\036\203\366\221\330\310\354z\034\215\235"
 522      83F691D8 
 522      C8EC7A1C 
 522      8D9D
 523 11de 19B244D9 		.ascii	"\031\262D\331\350\304\277B\012*$\265WI:\312\252\230"
 523      E8C4BF42 
 523      0A2A24B5 
ARM GAS  /tmp/ccYQWmvd.s 			page 41


 523      57493ACA 
 523      AA98
 524 11f0 4405D0E5 		.ascii	"D\005\320\345\005~\013\\\200H/'*\206$\206\252\034\017"
 524      057E0B5C 
 524      80482F27 
 524      2A862486 
 524      AA1C0F
 525 1203 E94E7EBF 		.ascii	"\351N~\277\"\206E!!\226y\240\351C\031H\011)HQ\202\270"
 525      22864521 
 525      219679A0 
 525      E9431948 
 525      09294851 
 526 1219 77685F06 		.ascii	"wh_\006\324j\355\367\240\217\"#\006\374(\013V\376^\030"
 526      D46AEDF7 
 526      A08F2223 
 526      06FC280B 
 526      56FE5E18 
 527 122d 2156C5CB 		.ascii	"!V\305\313\272\223\037/\306\312\302\242\030/+$\277^"
 527      BA931F2F 
 527      C6CAC2A2 
 527      182F2B24 
 527      BF5E
 528 123f 01758E1E 		.ascii	"\001u\216\036R\210\235\007r\240\030Q\363\236Z/\302\272"
 528      52889D07 
 528      72A01851 
 528      F39E5A2F 
 528      C2BA
 529 1251 1E4DB50F 		.ascii	"\036M\265\017\304\201\364o\237\244\3325_\"\001\234'"
 529      C481F46F 
 529      9FA4DA35 
 529      5F22019C 
 529      27
 530 1262 91D09268 		.ascii	"\221\320\222hhIjh\371\341n\225\004\336*\347I\230\250"
 530      68496A68 
 530      F9E16E95 
 530      04DE2AE7 
 530      4998A8
 531 1275 D7C89024 		.ascii	"\327\310\220$W\011\341\200\034\212@\202\244\300\367"
 531      5709E180 
 531      1C8A4082 
 531      A4C0F7
 532 1284 03B0C583 		.ascii	"\003\260\305\203\036\246{\252\203\232n\371F\312\304"
 532      1EA67BAA 
 532      839A6EF9 
 532      46CAC4
 533 1293 87F015E7 		.ascii	"\207\360\025\347e?f\032\036@\354\302\235r1,\013P\031"
 533      653F661A 
 533      1E40ECC2 
 533      9D72312C 
 533      0B5019
 534 12a6 5E150D06 		.ascii	"^\025\015\006H\033\\\313\307m\005\251\020.a!!\343\346"
 534      481B5CCB 
 534      C76D05A9 
 534      102E6121 
 534      21E3E6
 535 12b9 700B7757 		.ascii	"p\013wWL\305/\027\207UU\250\276f\274\343\217\013\321"
 535      4CC52F17 
ARM GAS  /tmp/ccYQWmvd.s 			page 42


 535      875555A8 
 535      BE66BCE3 
 535      8F0BD1
 536 12cc 50107B99 		.ascii	"P\020{\231\247|XE\267\210\000\321J\\\261$\213\245e\034"
 536      A77C5845 
 536      B78800D1 
 536      4A5CB124 
 536      8BA5651C 
 537 12e0 683DE548 		.ascii	"h=\345H \010Ie\230$\310\241\030d\026\237$\223\220\312"
 537      20084965 
 537      9824C8A1 
 537      1864169F 
 537      249390CA 
 538 12f4 8F0D1F9E 		.ascii	"\217\015\037\236\020\301\367\"\305\241\362\260H]\033"
 538      10C1F722 
 538      C5A1F2B0 
 538      485D1B
 539 1303 5C9A0F56 		.ascii	"\\\232\017V\3665\243\202\224\245\203_.\033R\226\006"
 539      F635A382 
 539      94A5835F 
 539      2E1B5296 
 539      06
 540 1314 C7E36230 		.ascii	"\307\343b0\362/ \023\364\321=\000\241/\007~\373\233"
 540      F22F2013 
 540      F4D13D00 
 540      A12F077E 
 540      FB9B
 541 1326 B27F1EFA 		.ascii	"\262\177\036\372\312\220\356B\270Z\030\235\000\337\016"
 541      CA90EE42 
 541      B85A189D 
 541      00DF0E
 542 1335 43FECD1B 		.ascii	"C\376\315\033)\204\253\304\202\000\221?\020\350\256"
 542      2984ABC4 
 542      8200913F 
 542      10E8AE
 543 1344 55FA3E3B 		.ascii	"U\372>;\240\337S\351_\317=\363\374@\303\257\376\375"
 543      A0DF53E9 
 543      5FCF3DF3 
 543      FC40C3AF 
 543      FEFD
 544 1356 06FC3F7A 		.ascii	"\006\374?z\"\240\300"
 544      22A0C0
 545              		.text
 546              		.section	.gnu.lto_.symtab.9c0660f8d10ef39e,"",%progbits
 547 0000 63684D73 		.ascii	"chMsgSend\000\000\000\000\000\000\000\000\000\000\000"
 547      6753656E 
 547      64000000 
 547      00000000 
 547      00000000 
 548 0014 008C0100 		.ascii	"\000\214\001\000\000chMsgWait\000\000\000\000\000\000"
 548      0063684D 
 548      73675761 
 548      69740000 
 548      00000000 
 549 0028 00000000 		.ascii	"\000\000\000\000\000\000\224\001\000\000chMsgReleas"
 549      00009401 
 549      00006368 
ARM GAS  /tmp/ccYQWmvd.s 			page 43


 549      4D736752 
 549      656C6561 
 550 003d 65000000 		.ascii	"e\000\000\000\000\000\000\000\000\000\000\000\000\230"
 550      00000000 
 550      00000000 
 550      0098
 551 004b 01000063 		.ascii	"\001\000\000ch\000\000\002\000\000\000\000\000\000\000"
 551      68000002 
 551      00000000 
 551      000000
 552 005a 0000A701 		.ascii	"\000\000\247\001\000\000chSchWakeupS\000\000\002\000"
 552      00006368 
 552      53636857 
 552      616B6575 
 552      70530000 
 553 0070 00000000 		.ascii	"\000\000\000\000\000\000\000\000\235\001\000\000chS"
 553      00000000 
 553      9D010000 
 553      636853
 554 007f 6368476F 		.ascii	"chGoSleepS\000\000\002\000\000\000\000\000\000\000\000"
 554      536C6565 
 554      70530000 
 554      02000000 
 554      00000000 
 555 0094 009F0100 		.ascii	"\000\237\001\000\000chSchReadyI\000\000\002\000\000"
 555      00636853 
 555      63685265 
 555      61647949 
 555      00000200 
 556 00a9 00000000 		.ascii	"\000\000\000\000\000\000\000\243\001\000\000"
 556      000000A3 
 556      010000
 557              		.text
 558              		.section	.gnu.lto_.opts,"",%progbits
 559 0000 272D6D63 		.ascii	"'-mcpu=cortex-m4' '-mno-thumb-interwork' '-mthumb' "
 559      70753D63 
 559      6F727465 
 559      782D6D34 
 559      2720272D 
 560 0033 272D6767 		.ascii	"'-ggdb' '-O0' '-fomit-frame-pointer' '-falign-funct"
 560      64622720 
 560      272D4F30 
 560      2720272D 
 560      666F6D69 
 561 0066 696F6E73 		.ascii	"ions=16' '-ffunction-sections' '-fdata-sections' '-"
 561      3D313627 
 561      20272D66 
 561      66756E63 
 561      74696F6E 
 562 0099 666E6F2D 		.ascii	"fno-common' '-flto'\000"
 562      636F6D6D 
 562      6F6E2720 
 562      272D666C 
 562      746F2700 
 563              		.text
 564              		.cfi_sections	.debug_frame
 565              		.section	.text.port_lock,"ax",%progbits
ARM GAS  /tmp/ccYQWmvd.s 			page 44


 566              		.align	2
 567              		.p2align 4,,15
 568              		.thumb
 569              		.thumb_func
 570              		.type	port_lock, %function
 571              	port_lock:
 572              	.LFB127:
 573              		.file 1 "../ChibiOS/os/rt/ports/ARMCMx/chcore_v7m.h"
 574              		.loc 1 456 0
 575              		.cfi_startproc
 576              		@ args = 0, pretend = 0, frame = 8
 577              		@ frame_needed = 0, uses_anonymous_args = 0
 578              		@ link register save eliminated.
 579 0000 82B0     		sub	sp, sp, #8
 580              		.cfi_def_cfa_offset 8
 581 0002 2023     		movs	r3, #32
 582 0004 0193     		str	r3, [sp, #4]
 583              	.LBB6:
 584              	.LBB7:
 585              		.file 2 "../ChibiOS/os/ext/CMSIS/include/core_cmFunc.h"
 586              		.loc 2 548 0
 587 0006 019B     		ldr	r3, [sp, #4]
 588              	@ 548 "../ChibiOS/os/ext/CMSIS/include/core_cmFunc.h" 1
 589 0008 83F31188 		MSR basepri, r3
 590              	@ 0 "" 2
 591              		.thumb
 592              	.LBE7:
 593              	.LBE6:
 594              		.loc 1 473 0
 595 000c 02B0     		add	sp, sp, #8
 596              		@ sp needed
 597 000e 7047     		bx	lr
 598              		.cfi_endproc
 599              	.LFE127:
 600              		.size	port_lock, .-port_lock
 601              		.section	.text.port_unlock,"ax",%progbits
 602              		.align	2
 603              		.p2align 4,,15
 604              		.thumb
 605              		.thumb_func
 606              		.type	port_unlock, %function
 607              	port_unlock:
 608              	.LFB128:
 609              		.loc 1 480 0
 610              		.cfi_startproc
 611              		@ args = 0, pretend = 0, frame = 8
 612              		@ frame_needed = 0, uses_anonymous_args = 0
 613              		@ link register save eliminated.
 614 0000 82B0     		sub	sp, sp, #8
 615              		.cfi_def_cfa_offset 8
 616 0002 0023     		movs	r3, #0
 617 0004 0193     		str	r3, [sp, #4]
 618              	.LBB8:
 619              	.LBB9:
 620              		.loc 2 548 0
 621 0006 019B     		ldr	r3, [sp, #4]
 622              	@ 548 "../ChibiOS/os/ext/CMSIS/include/core_cmFunc.h" 1
ARM GAS  /tmp/ccYQWmvd.s 			page 45


 623 0008 83F31188 		MSR basepri, r3
 624              	@ 0 "" 2
 625              		.thumb
 626              	.LBE9:
 627              	.LBE8:
 628              		.loc 1 487 0
 629 000c 02B0     		add	sp, sp, #8
 630              		@ sp needed
 631 000e 7047     		bx	lr
 632              		.cfi_endproc
 633              	.LFE128:
 634              		.size	port_unlock, .-port_unlock
 635              		.section	.text.queue_insert,"ax",%progbits
 636              		.align	2
 637              		.p2align 4,,15
 638              		.thumb
 639              		.thumb_func
 640              		.type	queue_insert, %function
 641              	queue_insert:
 642              	.LFB156:
 643              		.file 3 "../ChibiOS/os/rt/include/chschd.h"
 644              		.loc 3 665 0
 645              		.cfi_startproc
 646              		@ args = 0, pretend = 0, frame = 8
 647              		@ frame_needed = 0, uses_anonymous_args = 0
 648              		@ link register save eliminated.
 649 0000 82B0     		sub	sp, sp, #8
 650              		.cfi_def_cfa_offset 8
 651 0002 0190     		str	r0, [sp, #4]
 652 0004 0091     		str	r1, [sp]
 653              		.loc 3 667 0
 654 0006 019B     		ldr	r3, [sp, #4]
 655 0008 009A     		ldr	r2, [sp]
 656 000a 1A60     		str	r2, [r3]
 657              		.loc 3 668 0
 658 000c 009B     		ldr	r3, [sp]
 659 000e 5A68     		ldr	r2, [r3, #4]
 660 0010 019B     		ldr	r3, [sp, #4]
 661 0012 5A60     		str	r2, [r3, #4]
 662              		.loc 3 669 0
 663 0014 019B     		ldr	r3, [sp, #4]
 664 0016 5B68     		ldr	r3, [r3, #4]
 665 0018 019A     		ldr	r2, [sp, #4]
 666 001a 1A60     		str	r2, [r3]
 667              		.loc 3 670 0
 668 001c 009B     		ldr	r3, [sp]
 669 001e 019A     		ldr	r2, [sp, #4]
 670 0020 5A60     		str	r2, [r3, #4]
 671              		.loc 3 671 0
 672 0022 02B0     		add	sp, sp, #8
 673              		@ sp needed
 674 0024 7047     		bx	lr
 675              		.cfi_endproc
 676              	.LFE156:
 677              		.size	queue_insert, .-queue_insert
 678 0026 00BFAFF3 		.section	.text.queue_fifo_remove,"ax",%progbits
 678      0080AFF3 
ARM GAS  /tmp/ccYQWmvd.s 			page 46


 678      0080
 679              		.align	2
 680              		.p2align 4,,15
 681              		.thumb
 682              		.thumb_func
 683              		.type	queue_fifo_remove, %function
 684              	queue_fifo_remove:
 685              	.LFB157:
 686              		.loc 3 673 0
 687              		.cfi_startproc
 688              		@ args = 0, pretend = 0, frame = 16
 689              		@ frame_needed = 0, uses_anonymous_args = 0
 690              		@ link register save eliminated.
 691 0000 84B0     		sub	sp, sp, #16
 692              		.cfi_def_cfa_offset 16
 693 0002 0190     		str	r0, [sp, #4]
 694              		.loc 3 674 0
 695 0004 019B     		ldr	r3, [sp, #4]
 696 0006 1B68     		ldr	r3, [r3]
 697 0008 0393     		str	r3, [sp, #12]
 698              		.loc 3 676 0
 699 000a 039B     		ldr	r3, [sp, #12]
 700 000c 1A68     		ldr	r2, [r3]
 701 000e 019B     		ldr	r3, [sp, #4]
 702 0010 1A60     		str	r2, [r3]
 703              		.loc 3 677 0
 704 0012 019B     		ldr	r3, [sp, #4]
 705 0014 1B68     		ldr	r3, [r3]
 706 0016 019A     		ldr	r2, [sp, #4]
 707 0018 5A60     		str	r2, [r3, #4]
 708              		.loc 3 679 0
 709 001a 039B     		ldr	r3, [sp, #12]
 710              		.loc 3 680 0
 711 001c 1846     		mov	r0, r3
 712 001e 04B0     		add	sp, sp, #16
 713              		@ sp needed
 714 0020 7047     		bx	lr
 715              		.cfi_endproc
 716              	.LFE157:
 717              		.size	queue_fifo_remove, .-queue_fifo_remove
 718 0022 00BFAFF3 		.section	.text.chSysLock,"ax",%progbits
 718      0080AFF3 
 718      0080AFF3 
 718      0080
 719              		.align	2
 720              		.p2align 4,,15
 721              		.thumb
 722              		.thumb_func
 723              		.type	chSysLock, %function
 724              	chSysLock:
 725              	.LFB167:
 726              		.file 4 "../ChibiOS/os/rt/include/chsys.h"
 727              		.loc 4 346 0
 728              		.cfi_startproc
 729              		@ args = 0, pretend = 0, frame = 0
 730              		@ frame_needed = 0, uses_anonymous_args = 0
 731 0000 08B5     		push	{r3, lr}
ARM GAS  /tmp/ccYQWmvd.s 			page 47


 732              		.cfi_def_cfa_offset 8
 733              		.cfi_offset 3, -8
 734              		.cfi_offset 14, -4
 735              		.loc 4 348 0
 736 0002 FFF7FEFF 		bl	port_lock
 737              		.loc 4 351 0
 738 0006 08BD     		pop	{r3, pc}
 739              		.cfi_endproc
 740              	.LFE167:
 741              		.size	chSysLock, .-chSysLock
 742              		.section	.text.chSysUnlock,"ax",%progbits
 743              		.align	2
 744              		.p2align 4,,15
 745              		.thumb
 746              		.thumb_func
 747              		.type	chSysUnlock, %function
 748              	chSysUnlock:
 749              	.LFB168:
 750              		.loc 4 358 0
 751              		.cfi_startproc
 752              		@ args = 0, pretend = 0, frame = 0
 753              		@ frame_needed = 0, uses_anonymous_args = 0
 754 0000 08B5     		push	{r3, lr}
 755              		.cfi_def_cfa_offset 8
 756              		.cfi_offset 3, -8
 757              		.cfi_offset 14, -4
 758              		.loc 4 371 0
 759 0002 FFF7FEFF 		bl	port_unlock
 760              		.loc 4 372 0
 761 0006 08BD     		pop	{r3, pc}
 762              		.cfi_endproc
 763              	.LFE168:
 764              		.size	chSysUnlock, .-chSysUnlock
 765 0008 AFF30080 		.section	.text.chMsgIsPendingI,"ax",%progbits
 765      AFF30080 
 766              		.align	2
 767              		.p2align 4,,15
 768              		.thumb
 769              		.thumb_func
 770              		.type	chMsgIsPendingI, %function
 771              	chMsgIsPendingI:
 772              	.LFB222:
 773              		.file 5 "../ChibiOS/os/rt/include/chmsg.h"
 774              		.loc 5 79 0
 775              		.cfi_startproc
 776              		@ args = 0, pretend = 0, frame = 8
 777              		@ frame_needed = 0, uses_anonymous_args = 0
 778              		@ link register save eliminated.
 779 0000 82B0     		sub	sp, sp, #8
 780              		.cfi_def_cfa_offset 8
 781 0002 0190     		str	r0, [sp, #4]
 782              		.loc 5 83 0
 783 0004 019B     		ldr	r3, [sp, #4]
 784 0006 DA6A     		ldr	r2, [r3, #44]
 785 0008 019B     		ldr	r3, [sp, #4]
 786 000a 2C33     		adds	r3, r3, #44
 787 000c 9A42     		cmp	r2, r3
ARM GAS  /tmp/ccYQWmvd.s 			page 48


 788 000e 0CBF     		ite	eq
 789 0010 0023     		moveq	r3, #0
 790 0012 0123     		movne	r3, #1
 791 0014 DBB2     		uxtb	r3, r3
 792              		.loc 5 84 0
 793 0016 1846     		mov	r0, r3
 794 0018 02B0     		add	sp, sp, #8
 795              		@ sp needed
 796 001a 7047     		bx	lr
 797              		.cfi_endproc
 798              	.LFE222:
 799              		.size	chMsgIsPendingI, .-chMsgIsPendingI
 800 001c AFF30080 		.section	.text.chMsgReleaseS,"ax",%progbits
 801              		.align	2
 802              		.p2align 4,,15
 803              		.thumb
 804              		.thumb_func
 805              		.type	chMsgReleaseS, %function
 806              	chMsgReleaseS:
 807              	.LFB224:
 808              		.loc 5 113 0
 809              		.cfi_startproc
 810              		@ args = 0, pretend = 0, frame = 8
 811              		@ frame_needed = 0, uses_anonymous_args = 0
 812 0000 00B5     		push	{lr}
 813              		.cfi_def_cfa_offset 4
 814              		.cfi_offset 14, -4
 815 0002 83B0     		sub	sp, sp, #12
 816              		.cfi_def_cfa_offset 16
 817 0004 0190     		str	r0, [sp, #4]
 818 0006 0091     		str	r1, [sp]
 819              		.loc 5 117 0
 820 0008 0198     		ldr	r0, [sp, #4]
 821 000a 0099     		ldr	r1, [sp]
 822 000c FFF7FEFF 		bl	chSchWakeupS
 823              		.loc 5 118 0
 824 0010 03B0     		add	sp, sp, #12
 825              		@ sp needed
 826 0012 5DF804FB 		ldr	pc, [sp], #4
 827              		.cfi_endproc
 828              	.LFE224:
 829              		.size	chMsgReleaseS, .-chMsgReleaseS
 830 0016 00BFAFF3 		.section	.text.chMsgSend,"ax",%progbits
 830      0080AFF3 
 830      0080
 831              		.align	2
 832              		.p2align 4,,15
 833              		.global	chMsgSend
 834              		.thumb
 835              		.thumb_func
 836              		.type	chMsgSend, %function
 837              	chMsgSend:
 838              	.LFB241:
 839              		.file 6 "../ChibiOS/os/rt/src/chmsg.c"
 840              		.loc 6 87 0
 841              		.cfi_startproc
 842              		@ args = 0, pretend = 0, frame = 16
ARM GAS  /tmp/ccYQWmvd.s 			page 49


 843              		@ frame_needed = 0, uses_anonymous_args = 0
 844 0000 00B5     		push	{lr}
 845              		.cfi_def_cfa_offset 4
 846              		.cfi_offset 14, -4
 847 0002 85B0     		sub	sp, sp, #20
 848              		.cfi_def_cfa_offset 24
 849 0004 0190     		str	r0, [sp, #4]
 850 0006 0091     		str	r1, [sp]
 851              		.loc 6 88 0
 852 0008 114B     		ldr	r3, .L14
 853 000a 9B69     		ldr	r3, [r3, #24]
 854 000c 0393     		str	r3, [sp, #12]
 855              		.loc 6 92 0
 856 000e FFF7FEFF 		bl	chSysLock
 857              		.loc 6 93 0
 858 0012 039B     		ldr	r3, [sp, #12]
 859 0014 009A     		ldr	r2, [sp]
 860 0016 5A62     		str	r2, [r3, #36]
 861              		.loc 6 94 0
 862 0018 019B     		ldr	r3, [sp, #4]
 863 001a 2C33     		adds	r3, r3, #44
 864 001c 0398     		ldr	r0, [sp, #12]
 865 001e 1946     		mov	r1, r3
 866 0020 FFF7FEFF 		bl	queue_insert
 867              		.loc 6 95 0
 868 0024 019B     		ldr	r3, [sp, #4]
 869 0026 93F82030 		ldrb	r3, [r3, #32]	@ zero_extendqisi2
 870 002a 0E2B     		cmp	r3, #14
 871 002c 02D1     		bne	.L12
 872              		.loc 6 96 0
 873 002e 0198     		ldr	r0, [sp, #4]
 874 0030 FFF7FEFF 		bl	chSchReadyI
 875              	.L12:
 876              		.loc 6 98 0
 877 0034 0C20     		movs	r0, #12
 878 0036 FFF7FEFF 		bl	chSchGoSleepS
 879              		.loc 6 99 0
 880 003a 039B     		ldr	r3, [sp, #12]
 881 003c 5B6A     		ldr	r3, [r3, #36]
 882 003e 0093     		str	r3, [sp]
 883              		.loc 6 100 0
 884 0040 FFF7FEFF 		bl	chSysUnlock
 885              		.loc 6 102 0
 886 0044 009B     		ldr	r3, [sp]
 887              		.loc 6 103 0
 888 0046 1846     		mov	r0, r3
 889 0048 05B0     		add	sp, sp, #20
 890              		@ sp needed
 891 004a 5DF804FB 		ldr	pc, [sp], #4
 892              	.L15:
 893 004e 00BF     		.align	2
 894              	.L14:
 895 0050 00000000 		.word	ch
 896              		.cfi_endproc
 897              	.LFE241:
 898              		.size	chMsgSend, .-chMsgSend
 899 0054 AFF30080 		.section	.text.chMsgWait,"ax",%progbits
ARM GAS  /tmp/ccYQWmvd.s 			page 50


 899      AFF30080 
 899      AFF30080 
 900              		.align	2
 901              		.p2align 4,,15
 902              		.global	chMsgWait
 903              		.thumb
 904              		.thumb_func
 905              		.type	chMsgWait, %function
 906              	chMsgWait:
 907              	.LFB242:
 908              		.loc 6 119 0
 909              		.cfi_startproc
 910              		@ args = 0, pretend = 0, frame = 8
 911              		@ frame_needed = 0, uses_anonymous_args = 0
 912 0000 00B5     		push	{lr}
 913              		.cfi_def_cfa_offset 4
 914              		.cfi_offset 14, -4
 915 0002 83B0     		sub	sp, sp, #12
 916              		.cfi_def_cfa_offset 16
 917              		.loc 6 122 0
 918 0004 FFF7FEFF 		bl	chSysLock
 919              		.loc 6 123 0
 920 0008 0F4B     		ldr	r3, .L19
 921 000a 9B69     		ldr	r3, [r3, #24]
 922 000c 1846     		mov	r0, r3
 923 000e FFF7FEFF 		bl	chMsgIsPendingI
 924 0012 0346     		mov	r3, r0
 925 0014 83F00103 		eor	r3, r3, #1
 926 0018 DBB2     		uxtb	r3, r3
 927 001a 002B     		cmp	r3, #0
 928 001c 02D0     		beq	.L17
 929              		.loc 6 124 0
 930 001e 0E20     		movs	r0, #14
 931 0020 FFF7FEFF 		bl	chSchGoSleepS
 932              	.L17:
 933              		.loc 6 126 0
 934 0024 084B     		ldr	r3, .L19
 935 0026 9B69     		ldr	r3, [r3, #24]
 936 0028 2C33     		adds	r3, r3, #44
 937 002a 1846     		mov	r0, r3
 938 002c FFF7FEFF 		bl	queue_fifo_remove
 939 0030 0190     		str	r0, [sp, #4]
 940              		.loc 6 127 0
 941 0032 019B     		ldr	r3, [sp, #4]
 942 0034 0D22     		movs	r2, #13
 943 0036 83F82020 		strb	r2, [r3, #32]
 944              		.loc 6 128 0
 945 003a FFF7FEFF 		bl	chSysUnlock
 946              		.loc 6 130 0
 947 003e 019B     		ldr	r3, [sp, #4]
 948              		.loc 6 131 0
 949 0040 1846     		mov	r0, r3
 950 0042 03B0     		add	sp, sp, #12
 951              		@ sp needed
 952 0044 5DF804FB 		ldr	pc, [sp], #4
 953              	.L20:
 954              		.align	2
ARM GAS  /tmp/ccYQWmvd.s 			page 51


 955              	.L19:
 956 0048 00000000 		.word	ch
 957              		.cfi_endproc
 958              	.LFE242:
 959              		.size	chMsgWait, .-chMsgWait
 960 004c AFF30080 		.section	.text.chMsgRelease,"ax",%progbits
 961              		.align	2
 962              		.p2align 4,,15
 963              		.global	chMsgRelease
 964              		.thumb
 965              		.thumb_func
 966              		.type	chMsgRelease, %function
 967              	chMsgRelease:
 968              	.LFB243:
 969              		.loc 6 143 0
 970              		.cfi_startproc
 971              		@ args = 0, pretend = 0, frame = 8
 972              		@ frame_needed = 0, uses_anonymous_args = 0
 973 0000 00B5     		push	{lr}
 974              		.cfi_def_cfa_offset 4
 975              		.cfi_offset 14, -4
 976 0002 83B0     		sub	sp, sp, #12
 977              		.cfi_def_cfa_offset 16
 978 0004 0190     		str	r0, [sp, #4]
 979 0006 0091     		str	r1, [sp]
 980              		.loc 6 145 0
 981 0008 FFF7FEFF 		bl	chSysLock
 982              		.loc 6 147 0
 983 000c 0198     		ldr	r0, [sp, #4]
 984 000e 0099     		ldr	r1, [sp]
 985 0010 FFF7FEFF 		bl	chMsgReleaseS
 986              		.loc 6 148 0
 987 0014 FFF7FEFF 		bl	chSysUnlock
 988              		.loc 6 149 0
 989 0018 03B0     		add	sp, sp, #12
 990              		@ sp needed
 991 001a 5DF804FB 		ldr	pc, [sp], #4
 992              		.cfi_endproc
 993              	.LFE243:
 994              		.size	chMsgRelease, .-chMsgRelease
 995 001e 00BF     		.text
 996              	.Letext0:
 997              		.file 7 "/nfs/nfs5/home/research/hardware/arm2/gcc-arm-embedded/gcc-arm-none-eabi-4_8-2014q2/arm-n
 998              		.file 8 "/nfs/nfs5/home/research/hardware/arm2/gcc-arm-embedded/gcc-arm-none-eabi-4_8-2014q2/arm-n
 999              		.file 9 "../ChibiOS/os/rt/ports/ARMCMx/compilers/GCC/chtypes.h"
 1000              		.file 10 "../ChibiOS/os/rt/include/chsystypes.h"
 1001              		.file 11 "../ChibiOS/os/rt/ports/ARMCMx/chcore.h"
 1002              		.file 12 "../ChibiOS/os/rt/include/chtm.h"
 1003              		.file 13 "../ChibiOS/os/rt/include/chsem.h"
 1004              		.file 14 "../ChibiOS/os/rt/include/chmtx.h"
 1005              		.file 15 "../ChibiOS/os/ext/CMSIS/include/core_cm4.h"
 1006              		.section	.debug_info,"",%progbits
 1007              	.Ldebug_info0:
 1008 0000 A9080000 		.4byte	0x8a9
 1009 0004 0400     		.2byte	0x4
 1010 0006 00000000 		.4byte	.Ldebug_abbrev0
 1011 000a 04       		.byte	0x4
ARM GAS  /tmp/ccYQWmvd.s 			page 52


 1012 000b 01       		.uleb128 0x1
 1013 000c 9A010000 		.4byte	.LASF116
 1014 0010 01       		.byte	0x1
 1015 0011 36040000 		.4byte	.LASF117
 1016 0015 DA040000 		.4byte	.LASF118
 1017 0019 00000000 		.4byte	.Ldebug_ranges0+0
 1018 001d 00000000 		.4byte	0
 1019 0021 00000000 		.4byte	.Ldebug_line0
 1020 0025 02       		.uleb128 0x2
 1021 0026 04       		.byte	0x4
 1022 0027 05       		.byte	0x5
 1023 0028 696E7400 		.ascii	"int\000"
 1024 002c 03       		.uleb128 0x3
 1025 002d 04       		.byte	0x4
 1026 002e 07       		.byte	0x7
 1027 002f 7A020000 		.4byte	.LASF0
 1028 0033 03       		.uleb128 0x3
 1029 0034 01       		.byte	0x1
 1030 0035 06       		.byte	0x6
 1031 0036 DB000000 		.4byte	.LASF1
 1032 003a 04       		.uleb128 0x4
 1033 003b 30000000 		.4byte	.LASF5
 1034 003f 07       		.byte	0x7
 1035 0040 1C       		.byte	0x1c
 1036 0041 45000000 		.4byte	0x45
 1037 0045 03       		.uleb128 0x3
 1038 0046 01       		.byte	0x1
 1039 0047 08       		.byte	0x8
 1040 0048 05040000 		.4byte	.LASF2
 1041 004c 03       		.uleb128 0x3
 1042 004d 02       		.byte	0x2
 1043 004e 05       		.byte	0x5
 1044 004f 1D040000 		.4byte	.LASF3
 1045 0053 03       		.uleb128 0x3
 1046 0054 02       		.byte	0x2
 1047 0055 07       		.byte	0x7
 1048 0056 AE020000 		.4byte	.LASF4
 1049 005a 04       		.uleb128 0x4
 1050 005b FF020000 		.4byte	.LASF6
 1051 005f 07       		.byte	0x7
 1052 0060 37       		.byte	0x37
 1053 0061 65000000 		.4byte	0x65
 1054 0065 03       		.uleb128 0x3
 1055 0066 04       		.byte	0x4
 1056 0067 05       		.byte	0x5
 1057 0068 14010000 		.4byte	.LASF7
 1058 006c 04       		.uleb128 0x4
 1059 006d 75050000 		.4byte	.LASF8
 1060 0071 07       		.byte	0x7
 1061 0072 38       		.byte	0x38
 1062 0073 77000000 		.4byte	0x77
 1063 0077 03       		.uleb128 0x3
 1064 0078 04       		.byte	0x4
 1065 0079 07       		.byte	0x7
 1066 007a 25050000 		.4byte	.LASF9
 1067 007e 03       		.uleb128 0x3
 1068 007f 08       		.byte	0x8
ARM GAS  /tmp/ccYQWmvd.s 			page 53


 1069 0080 05       		.byte	0x5
 1070 0081 CD000000 		.4byte	.LASF10
 1071 0085 04       		.uleb128 0x4
 1072 0086 A7030000 		.4byte	.LASF11
 1073 008a 07       		.byte	0x7
 1074 008b 4E       		.byte	0x4e
 1075 008c 90000000 		.4byte	0x90
 1076 0090 03       		.uleb128 0x3
 1077 0091 08       		.byte	0x8
 1078 0092 07       		.byte	0x7
 1079 0093 5F000000 		.4byte	.LASF12
 1080 0097 04       		.uleb128 0x4
 1081 0098 E6050000 		.4byte	.LASF13
 1082 009c 08       		.byte	0x8
 1083 009d 2A       		.byte	0x2a
 1084 009e 3A000000 		.4byte	0x3a
 1085 00a2 04       		.uleb128 0x4
 1086 00a3 FD030000 		.4byte	.LASF14
 1087 00a7 08       		.byte	0x8
 1088 00a8 41       		.byte	0x41
 1089 00a9 5A000000 		.4byte	0x5a
 1090 00ad 04       		.uleb128 0x4
 1091 00ae A9040000 		.4byte	.LASF15
 1092 00b2 08       		.byte	0x8
 1093 00b3 42       		.byte	0x42
 1094 00b4 6C000000 		.4byte	0x6c
 1095 00b8 04       		.uleb128 0x4
 1096 00b9 27000000 		.4byte	.LASF16
 1097 00bd 08       		.byte	0x8
 1098 00be 4E       		.byte	0x4e
 1099 00bf 85000000 		.4byte	0x85
 1100 00c3 04       		.uleb128 0x4
 1101 00c4 A7050000 		.4byte	.LASF17
 1102 00c8 09       		.byte	0x9
 1103 00c9 39       		.byte	0x39
 1104 00ca AD000000 		.4byte	0xad
 1105 00ce 04       		.uleb128 0x4
 1106 00cf DD020000 		.4byte	.LASF18
 1107 00d3 09       		.byte	0x9
 1108 00d4 3C       		.byte	0x3c
 1109 00d5 97000000 		.4byte	0x97
 1110 00d9 04       		.uleb128 0x4
 1111 00da 27010000 		.4byte	.LASF19
 1112 00de 09       		.byte	0x9
 1113 00df 3D       		.byte	0x3d
 1114 00e0 97000000 		.4byte	0x97
 1115 00e4 04       		.uleb128 0x4
 1116 00e5 B2030000 		.4byte	.LASF20
 1117 00e9 09       		.byte	0x9
 1118 00ea 3E       		.byte	0x3e
 1119 00eb 97000000 		.4byte	0x97
 1120 00ef 04       		.uleb128 0x4
 1121 00f0 D1030000 		.4byte	.LASF21
 1122 00f4 09       		.byte	0x9
 1123 00f5 40       		.byte	0x40
 1124 00f6 AD000000 		.4byte	0xad
 1125 00fa 04       		.uleb128 0x4
ARM GAS  /tmp/ccYQWmvd.s 			page 54


 1126 00fb CB020000 		.4byte	.LASF22
 1127 00ff 09       		.byte	0x9
 1128 0100 41       		.byte	0x41
 1129 0101 A2000000 		.4byte	0xa2
 1130 0105 04       		.uleb128 0x4
 1131 0106 F3020000 		.4byte	.LASF23
 1132 010a 09       		.byte	0x9
 1133 010b 43       		.byte	0x43
 1134 010c AD000000 		.4byte	0xad
 1135 0110 04       		.uleb128 0x4
 1136 0111 94010000 		.4byte	.LASF24
 1137 0115 09       		.byte	0x9
 1138 0116 45       		.byte	0x45
 1139 0117 A2000000 		.4byte	0xa2
 1140 011b 04       		.uleb128 0x4
 1141 011c 57050000 		.4byte	.LASF25
 1142 0120 0A       		.byte	0xa
 1143 0121 33       		.byte	0x33
 1144 0122 AD000000 		.4byte	0xad
 1145 0126 04       		.uleb128 0x4
 1146 0127 3C050000 		.4byte	.LASF26
 1147 012b 0A       		.byte	0xa
 1148 012c 3F       		.byte	0x3f
 1149 012d 31010000 		.4byte	0x131
 1150 0131 05       		.uleb128 0x5
 1151 0132 C1020000 		.4byte	.LASF46
 1152 0136 44       		.byte	0x44
 1153 0137 03       		.byte	0x3
 1154 0138 C2       		.byte	0xc2
 1155 0139 1D020000 		.4byte	0x21d
 1156 013d 06       		.uleb128 0x6
 1157 013e 5A040000 		.4byte	.LASF27
 1158 0142 03       		.byte	0x3
 1159 0143 C3       		.byte	0xc3
 1160 0144 28020000 		.4byte	0x228
 1161 0148 00       		.byte	0
 1162 0149 06       		.uleb128 0x6
 1163 014a CA030000 		.4byte	.LASF28
 1164 014e 03       		.byte	0x3
 1165 014f C5       		.byte	0xc5
 1166 0150 28020000 		.4byte	0x228
 1167 0154 04       		.byte	0x4
 1168 0155 06       		.uleb128 0x6
 1169 0156 C6000000 		.4byte	.LASF29
 1170 015a 03       		.byte	0x3
 1171 015b C7       		.byte	0xc7
 1172 015c EF000000 		.4byte	0xef
 1173 0160 08       		.byte	0x8
 1174 0161 06       		.uleb128 0x6
 1175 0162 2D060000 		.4byte	.LASF30
 1176 0166 03       		.byte	0x3
 1177 0167 C8       		.byte	0xc8
 1178 0168 58040000 		.4byte	0x458
 1179 016c 0C       		.byte	0xc
 1180 016d 06       		.uleb128 0x6
 1181 016e 40010000 		.4byte	.LASF31
 1182 0172 03       		.byte	0x3
ARM GAS  /tmp/ccYQWmvd.s 			page 55


 1183 0173 CA       		.byte	0xca
 1184 0174 28020000 		.4byte	0x228
 1185 0178 10       		.byte	0x10
 1186 0179 06       		.uleb128 0x6
 1187 017a 6B030000 		.4byte	.LASF32
 1188 017e 03       		.byte	0x3
 1189 017f CB       		.byte	0xcb
 1190 0180 28020000 		.4byte	0x228
 1191 0184 14       		.byte	0x14
 1192 0185 06       		.uleb128 0x6
 1193 0186 F5050000 		.4byte	.LASF33
 1194 018a 03       		.byte	0x3
 1195 018b D2       		.byte	0xd2
 1196 018c E3050000 		.4byte	0x5e3
 1197 0190 18       		.byte	0x18
 1198 0191 06       		.uleb128 0x6
 1199 0192 8A030000 		.4byte	.LASF34
 1200 0196 03       		.byte	0x3
 1201 0197 D8       		.byte	0xd8
 1202 0198 F5050000 		.4byte	0x5f5
 1203 019c 1C       		.byte	0x1c
 1204 019d 06       		.uleb128 0x6
 1205 019e 27040000 		.4byte	.LASF35
 1206 01a2 03       		.byte	0x3
 1207 01a3 DD       		.byte	0xdd
 1208 01a4 D9000000 		.4byte	0xd9
 1209 01a8 20       		.byte	0x20
 1210 01a9 06       		.uleb128 0x6
 1211 01aa 61040000 		.4byte	.LASF36
 1212 01ae 03       		.byte	0x3
 1213 01af E1       		.byte	0xe1
 1214 01b0 CE000000 		.4byte	0xce
 1215 01b4 21       		.byte	0x21
 1216 01b5 06       		.uleb128 0x6
 1217 01b6 D9050000 		.4byte	.LASF37
 1218 01ba 03       		.byte	0x3
 1219 01bb E6       		.byte	0xe6
 1220 01bc E4000000 		.4byte	0xe4
 1221 01c0 22       		.byte	0x22
 1222 01c1 07       		.uleb128 0x7
 1223 01c2 705F7500 		.ascii	"p_u\000"
 1224 01c6 03       		.byte	0x3
 1225 01c7 3701     		.2byte	0x137
 1226 01c9 12050000 		.4byte	0x512
 1227 01cd 24       		.byte	0x24
 1228 01ce 08       		.uleb128 0x8
 1229 01cf 14030000 		.4byte	.LASF38
 1230 01d3 03       		.byte	0x3
 1231 01d4 3C01     		.2byte	0x13c
 1232 01d6 2E020000 		.4byte	0x22e
 1233 01da 28       		.byte	0x28
 1234 01db 08       		.uleb128 0x8
 1235 01dc 9D020000 		.4byte	.LASF39
 1236 01e0 03       		.byte	0x3
 1237 01e1 4201     		.2byte	0x142
 1238 01e3 52020000 		.4byte	0x252
 1239 01e7 2C       		.byte	0x2c
ARM GAS  /tmp/ccYQWmvd.s 			page 56


 1240 01e8 08       		.uleb128 0x8
 1241 01e9 9E040000 		.4byte	.LASF40
 1242 01ed 03       		.byte	0x3
 1243 01ee 4801     		.2byte	0x148
 1244 01f0 05010000 		.4byte	0x105
 1245 01f4 34       		.byte	0x34
 1246 01f5 08       		.uleb128 0x8
 1247 01f6 13040000 		.4byte	.LASF41
 1248 01fa 03       		.byte	0x3
 1249 01fb 4F01     		.2byte	0x14f
 1250 01fd DD050000 		.4byte	0x5dd
 1251 0201 38       		.byte	0x38
 1252 0202 08       		.uleb128 0x8
 1253 0203 61050000 		.4byte	.LASF42
 1254 0207 03       		.byte	0x3
 1255 0208 5301     		.2byte	0x153
 1256 020a EF000000 		.4byte	0xef
 1257 020e 3C       		.byte	0x3c
 1258 020f 08       		.uleb128 0x8
 1259 0210 E7000000 		.4byte	.LASF43
 1260 0214 03       		.byte	0x3
 1261 0215 5A01     		.2byte	0x15a
 1262 0217 05030000 		.4byte	0x305
 1263 021b 40       		.byte	0x40
 1264 021c 00       		.byte	0
 1265 021d 04       		.uleb128 0x4
 1266 021e 27030000 		.4byte	.LASF44
 1267 0222 0A       		.byte	0xa
 1268 0223 44       		.byte	0x44
 1269 0224 28020000 		.4byte	0x228
 1270 0228 09       		.uleb128 0x9
 1271 0229 04       		.byte	0x4
 1272 022a 26010000 		.4byte	0x126
 1273 022e 04       		.uleb128 0x4
 1274 022f FC050000 		.4byte	.LASF45
 1275 0233 0A       		.byte	0xa
 1276 0234 49       		.byte	0x49
 1277 0235 39020000 		.4byte	0x239
 1278 0239 05       		.uleb128 0x5
 1279 023a CA040000 		.4byte	.LASF47
 1280 023e 04       		.byte	0x4
 1281 023f 03       		.byte	0x3
 1282 0240 B0       		.byte	0xb0
 1283 0241 52020000 		.4byte	0x252
 1284 0245 06       		.uleb128 0x6
 1285 0246 5A040000 		.4byte	.LASF27
 1286 024a 03       		.byte	0x3
 1287 024b B1       		.byte	0xb1
 1288 024c 28020000 		.4byte	0x228
 1289 0250 00       		.byte	0
 1290 0251 00       		.byte	0
 1291 0252 04       		.uleb128 0x4
 1292 0253 C0050000 		.4byte	.LASF48
 1293 0257 0A       		.byte	0xa
 1294 0258 50       		.byte	0x50
 1295 0259 5D020000 		.4byte	0x25d
 1296 025d 05       		.uleb128 0x5
ARM GAS  /tmp/ccYQWmvd.s 			page 57


 1297 025e B5000000 		.4byte	.LASF49
 1298 0262 08       		.byte	0x8
 1299 0263 03       		.byte	0x3
 1300 0264 B7       		.byte	0xb7
 1301 0265 82020000 		.4byte	0x282
 1302 0269 06       		.uleb128 0x6
 1303 026a 5A040000 		.4byte	.LASF27
 1304 026e 03       		.byte	0x3
 1305 026f B8       		.byte	0xb8
 1306 0270 28020000 		.4byte	0x228
 1307 0274 00       		.byte	0
 1308 0275 06       		.uleb128 0x6
 1309 0276 CA030000 		.4byte	.LASF28
 1310 027a 03       		.byte	0x3
 1311 027b B9       		.byte	0xb9
 1312 027c 28020000 		.4byte	0x228
 1313 0280 04       		.byte	0x4
 1314 0281 00       		.byte	0
 1315 0282 04       		.uleb128 0x4
 1316 0283 00000000 		.4byte	.LASF50
 1317 0287 0A       		.byte	0xa
 1318 0288 57       		.byte	0x57
 1319 0289 8D020000 		.4byte	0x28d
 1320 028d 0A       		.uleb128 0xa
 1321 028e E5020000 		.4byte	.LASF51
 1322 0292 1C       		.byte	0x1c
 1323 0293 03       		.byte	0x3
 1324 0294 9201     		.2byte	0x192
 1325 0296 E9020000 		.4byte	0x2e9
 1326 029a 08       		.uleb128 0x8
 1327 029b B9040000 		.4byte	.LASF52
 1328 029f 03       		.byte	0x3
 1329 02a0 9301     		.2byte	0x193
 1330 02a2 52020000 		.4byte	0x252
 1331 02a6 00       		.byte	0
 1332 02a7 08       		.uleb128 0x8
 1333 02a8 2F040000 		.4byte	.LASF53
 1334 02ac 03       		.byte	0x3
 1335 02ad 9401     		.2byte	0x194
 1336 02af EF000000 		.4byte	0xef
 1337 02b3 08       		.byte	0x8
 1338 02b4 08       		.uleb128 0x8
 1339 02b5 73030000 		.4byte	.LASF54
 1340 02b9 03       		.byte	0x3
 1341 02ba 9601     		.2byte	0x196
 1342 02bc 58040000 		.4byte	0x458
 1343 02c0 0C       		.byte	0xc
 1344 02c1 08       		.uleb128 0x8
 1345 02c2 5E010000 		.4byte	.LASF55
 1346 02c6 03       		.byte	0x3
 1347 02c7 9901     		.2byte	0x199
 1348 02c9 28020000 		.4byte	0x228
 1349 02cd 10       		.byte	0x10
 1350 02ce 08       		.uleb128 0x8
 1351 02cf 9F030000 		.4byte	.LASF56
 1352 02d3 03       		.byte	0x3
 1353 02d4 9A01     		.2byte	0x19a
ARM GAS  /tmp/ccYQWmvd.s 			page 58


 1354 02d6 28020000 		.4byte	0x228
 1355 02da 14       		.byte	0x14
 1356 02db 08       		.uleb128 0x8
 1357 02dc 95030000 		.4byte	.LASF57
 1358 02e0 03       		.byte	0x3
 1359 02e1 9D01     		.2byte	0x19d
 1360 02e3 28020000 		.4byte	0x228
 1361 02e7 18       		.byte	0x18
 1362 02e8 00       		.byte	0
 1363 02e9 04       		.uleb128 0x4
 1364 02ea 6C050000 		.4byte	.LASF58
 1365 02ee 0A       		.byte	0xa
 1366 02ef 5C       		.byte	0x5c
 1367 02f0 F4020000 		.4byte	0x2f4
 1368 02f4 09       		.uleb128 0x9
 1369 02f5 04       		.byte	0x4
 1370 02f6 FA020000 		.4byte	0x2fa
 1371 02fa 0B       		.uleb128 0xb
 1372 02fb 05030000 		.4byte	0x305
 1373 02ff 0C       		.uleb128 0xc
 1374 0300 05030000 		.4byte	0x305
 1375 0304 00       		.byte	0
 1376 0305 0D       		.uleb128 0xd
 1377 0306 04       		.byte	0x4
 1378 0307 04       		.uleb128 0x4
 1379 0308 BA030000 		.4byte	.LASF59
 1380 030c 0A       		.byte	0xa
 1381 030d 61       		.byte	0x61
 1382 030e 12030000 		.4byte	0x312
 1383 0312 0A       		.uleb128 0xa
 1384 0313 73040000 		.4byte	.LASF60
 1385 0317 14       		.byte	0x14
 1386 0318 03       		.byte	0x3
 1387 0319 6D01     		.2byte	0x16d
 1388 031b 61030000 		.4byte	0x361
 1389 031f 08       		.uleb128 0x8
 1390 0320 87020000 		.4byte	.LASF61
 1391 0324 03       		.byte	0x3
 1392 0325 6E01     		.2byte	0x16e
 1393 0327 FB050000 		.4byte	0x5fb
 1394 032b 00       		.byte	0
 1395 032c 08       		.uleb128 0x8
 1396 032d 6F010000 		.4byte	.LASF62
 1397 0331 03       		.byte	0x3
 1398 0332 6F01     		.2byte	0x16f
 1399 0334 FB050000 		.4byte	0x5fb
 1400 0338 04       		.byte	0x4
 1401 0339 08       		.uleb128 0x8
 1402 033a C1040000 		.4byte	.LASF63
 1403 033e 03       		.byte	0x3
 1404 033f 7001     		.2byte	0x170
 1405 0341 1B010000 		.4byte	0x11b
 1406 0345 08       		.byte	0x8
 1407 0346 08       		.uleb128 0x8
 1408 0347 33060000 		.4byte	.LASF64
 1409 034b 03       		.byte	0x3
 1410 034c 7101     		.2byte	0x171
ARM GAS  /tmp/ccYQWmvd.s 			page 59


 1411 034e E9020000 		.4byte	0x2e9
 1412 0352 0C       		.byte	0xc
 1413 0353 08       		.uleb128 0x8
 1414 0354 AF050000 		.4byte	.LASF65
 1415 0358 03       		.byte	0x3
 1416 0359 7301     		.2byte	0x173
 1417 035b 05030000 		.4byte	0x305
 1418 035f 10       		.byte	0x10
 1419 0360 00       		.byte	0
 1420 0361 04       		.uleb128 0x4
 1421 0362 92000000 		.4byte	.LASF66
 1422 0366 0A       		.byte	0xa
 1423 0367 66       		.byte	0x66
 1424 0368 6C030000 		.4byte	0x36c
 1425 036c 0A       		.uleb128 0xa
 1426 036d 3A030000 		.4byte	.LASF67
 1427 0371 10       		.byte	0x10
 1428 0372 03       		.byte	0x3
 1429 0373 7D01     		.2byte	0x17d
 1430 0375 AE030000 		.4byte	0x3ae
 1431 0379 08       		.uleb128 0x8
 1432 037a 87020000 		.4byte	.LASF61
 1433 037e 03       		.byte	0x3
 1434 037f 7E01     		.2byte	0x17e
 1435 0381 FB050000 		.4byte	0x5fb
 1436 0385 00       		.byte	0
 1437 0386 08       		.uleb128 0x8
 1438 0387 6F010000 		.4byte	.LASF62
 1439 038b 03       		.byte	0x3
 1440 038c 8001     		.2byte	0x180
 1441 038e FB050000 		.4byte	0x5fb
 1442 0392 04       		.byte	0x4
 1443 0393 08       		.uleb128 0x8
 1444 0394 C1040000 		.4byte	.LASF63
 1445 0398 03       		.byte	0x3
 1446 0399 8201     		.2byte	0x182
 1447 039b 1B010000 		.4byte	0x11b
 1448 039f 08       		.byte	0x8
 1449 03a0 08       		.uleb128 0x8
 1450 03a1 5F030000 		.4byte	.LASF68
 1451 03a5 03       		.byte	0x3
 1452 03a6 8A01     		.2byte	0x18a
 1453 03a8 1B010000 		.4byte	0x11b
 1454 03ac 0C       		.byte	0xc
 1455 03ad 00       		.byte	0
 1456 03ae 04       		.uleb128 0x4
 1457 03af 46000000 		.4byte	.LASF69
 1458 03b3 0A       		.byte	0xa
 1459 03b4 6B       		.byte	0x6b
 1460 03b5 B9030000 		.4byte	0x3b9
 1461 03b9 0A       		.uleb128 0xa
 1462 03ba E7030000 		.4byte	.LASF70
 1463 03be 04       		.byte	0x4
 1464 03bf 03       		.byte	0x3
 1465 03c0 A401     		.2byte	0x1a4
 1466 03c2 D4030000 		.4byte	0x3d4
 1467 03c6 08       		.uleb128 0x8
ARM GAS  /tmp/ccYQWmvd.s 			page 60


 1468 03c7 8E050000 		.4byte	.LASF71
 1469 03cb 03       		.byte	0x3
 1470 03cc AC01     		.2byte	0x1ac
 1471 03ce 01060000 		.4byte	0x601
 1472 03d2 00       		.byte	0
 1473 03d3 00       		.byte	0
 1474 03d4 04       		.uleb128 0x4
 1475 03d5 D1020000 		.4byte	.LASF72
 1476 03d9 0A       		.byte	0xa
 1477 03da 70       		.byte	0x70
 1478 03db DF030000 		.4byte	0x3df
 1479 03df 0E       		.uleb128 0xe
 1480 03e0 0A010000 		.4byte	.LASF73
 1481 03e4 5001     		.2byte	0x150
 1482 03e6 03       		.byte	0x3
 1483 03e7 C401     		.2byte	0x1c4
 1484 03e9 3B040000 		.4byte	0x43b
 1485 03ed 08       		.uleb128 0x8
 1486 03ee E0050000 		.4byte	.LASF74
 1487 03f2 03       		.byte	0x3
 1488 03f3 C801     		.2byte	0x1c8
 1489 03f5 82020000 		.4byte	0x282
 1490 03f9 00       		.byte	0
 1491 03fa 08       		.uleb128 0x8
 1492 03fb F7000000 		.4byte	.LASF75
 1493 03ff 03       		.byte	0x3
 1494 0400 CC01     		.2byte	0x1cc
 1495 0402 61030000 		.4byte	0x361
 1496 0406 1C       		.byte	0x1c
 1497 0407 07       		.uleb128 0x7
 1498 0408 64626700 		.ascii	"dbg\000"
 1499 040c 03       		.byte	0x3
 1500 040d D001     		.2byte	0x1d0
 1501 040f AE030000 		.4byte	0x3ae
 1502 0413 2C       		.byte	0x2c
 1503 0414 08       		.uleb128 0x8
 1504 0415 7F000000 		.4byte	.LASF76
 1505 0419 03       		.byte	0x3
 1506 041a D401     		.2byte	0x1d4
 1507 041c 26010000 		.4byte	0x126
 1508 0420 30       		.byte	0x30
 1509 0421 07       		.uleb128 0x7
 1510 0422 746D00   		.ascii	"tm\000"
 1511 0425 03       		.byte	0x3
 1512 0426 D901     		.2byte	0x1d9
 1513 0428 07050000 		.4byte	0x507
 1514 042c 74       		.byte	0x74
 1515 042d 08       		.uleb128 0x8
 1516 042e 85010000 		.4byte	.LASF77
 1517 0432 03       		.byte	0x3
 1518 0433 E501     		.2byte	0x1e5
 1519 0435 06060000 		.4byte	0x606
 1520 0439 78       		.byte	0x78
 1521 043a 00       		.byte	0
 1522 043b 03       		.uleb128 0x3
 1523 043c 04       		.byte	0x4
 1524 043d 07       		.byte	0x7
ARM GAS  /tmp/ccYQWmvd.s 			page 61


 1525 043e 1E030000 		.4byte	.LASF78
 1526 0442 04       		.uleb128 0x4
 1527 0443 66010000 		.4byte	.LASF79
 1528 0447 0B       		.byte	0xb
 1529 0448 65       		.byte	0x65
 1530 0449 05030000 		.4byte	0x305
 1531 044d 04       		.uleb128 0x4
 1532 044e 09030000 		.4byte	.LASF80
 1533 0452 0B       		.byte	0xb
 1534 0453 6D       		.byte	0x6d
 1535 0454 B8000000 		.4byte	0xb8
 1536 0458 05       		.uleb128 0x5
 1537 0459 9F050000 		.4byte	.LASF81
 1538 045d 04       		.byte	0x4
 1539 045e 0B       		.byte	0xb
 1540 045f 89       		.byte	0x89
 1541 0460 71040000 		.4byte	0x471
 1542 0464 0F       		.uleb128 0xf
 1543 0465 72313300 		.ascii	"r13\000"
 1544 0469 0B       		.byte	0xb
 1545 046a 8A       		.byte	0x8a
 1546 046b EC040000 		.4byte	0x4ec
 1547 046f 00       		.byte	0
 1548 0470 00       		.byte	0
 1549 0471 05       		.uleb128 0x5
 1550 0472 3A000000 		.4byte	.LASF82
 1551 0476 24       		.byte	0x24
 1552 0477 01       		.byte	0x1
 1553 0478 FD       		.byte	0xfd
 1554 0479 EC040000 		.4byte	0x4ec
 1555 047d 07       		.uleb128 0x7
 1556 047e 723400   		.ascii	"r4\000"
 1557 0481 01       		.byte	0x1
 1558 0482 1001     		.2byte	0x110
 1559 0484 42040000 		.4byte	0x442
 1560 0488 00       		.byte	0
 1561 0489 07       		.uleb128 0x7
 1562 048a 723500   		.ascii	"r5\000"
 1563 048d 01       		.byte	0x1
 1564 048e 1101     		.2byte	0x111
 1565 0490 42040000 		.4byte	0x442
 1566 0494 04       		.byte	0x4
 1567 0495 07       		.uleb128 0x7
 1568 0496 723600   		.ascii	"r6\000"
 1569 0499 01       		.byte	0x1
 1570 049a 1201     		.2byte	0x112
 1571 049c 42040000 		.4byte	0x442
 1572 04a0 08       		.byte	0x8
 1573 04a1 07       		.uleb128 0x7
 1574 04a2 723700   		.ascii	"r7\000"
 1575 04a5 01       		.byte	0x1
 1576 04a6 1301     		.2byte	0x113
 1577 04a8 42040000 		.4byte	0x442
 1578 04ac 0C       		.byte	0xc
 1579 04ad 07       		.uleb128 0x7
 1580 04ae 723800   		.ascii	"r8\000"
 1581 04b1 01       		.byte	0x1
ARM GAS  /tmp/ccYQWmvd.s 			page 62


 1582 04b2 1401     		.2byte	0x114
 1583 04b4 42040000 		.4byte	0x442
 1584 04b8 10       		.byte	0x10
 1585 04b9 07       		.uleb128 0x7
 1586 04ba 723900   		.ascii	"r9\000"
 1587 04bd 01       		.byte	0x1
 1588 04be 1501     		.2byte	0x115
 1589 04c0 42040000 		.4byte	0x442
 1590 04c4 14       		.byte	0x14
 1591 04c5 07       		.uleb128 0x7
 1592 04c6 72313000 		.ascii	"r10\000"
 1593 04ca 01       		.byte	0x1
 1594 04cb 1601     		.2byte	0x116
 1595 04cd 42040000 		.4byte	0x442
 1596 04d1 18       		.byte	0x18
 1597 04d2 07       		.uleb128 0x7
 1598 04d3 72313100 		.ascii	"r11\000"
 1599 04d7 01       		.byte	0x1
 1600 04d8 1701     		.2byte	0x117
 1601 04da 42040000 		.4byte	0x442
 1602 04de 1C       		.byte	0x1c
 1603 04df 07       		.uleb128 0x7
 1604 04e0 6C7200   		.ascii	"lr\000"
 1605 04e3 01       		.byte	0x1
 1606 04e4 1801     		.2byte	0x118
 1607 04e6 42040000 		.4byte	0x442
 1608 04ea 20       		.byte	0x20
 1609 04eb 00       		.byte	0
 1610 04ec 09       		.uleb128 0x9
 1611 04ed 04       		.byte	0x4
 1612 04ee 71040000 		.4byte	0x471
 1613 04f2 10       		.uleb128 0x10
 1614 04f3 04       		.byte	0x4
 1615 04f4 0C       		.byte	0xc
 1616 04f5 38       		.byte	0x38
 1617 04f6 07050000 		.4byte	0x507
 1618 04fa 06       		.uleb128 0x6
 1619 04fb 98050000 		.4byte	.LASF83
 1620 04ff 0C       		.byte	0xc
 1621 0500 3C       		.byte	0x3c
 1622 0501 C3000000 		.4byte	0xc3
 1623 0505 00       		.byte	0
 1624 0506 00       		.byte	0
 1625 0507 04       		.uleb128 0x4
 1626 0508 79030000 		.4byte	.LASF84
 1627 050c 0C       		.byte	0xc
 1628 050d 3D       		.byte	0x3d
 1629 050e F2040000 		.4byte	0x4f2
 1630 0512 11       		.uleb128 0x11
 1631 0513 04       		.byte	0x4
 1632 0514 03       		.byte	0x3
 1633 0515 FA       		.byte	0xfa
 1634 0516 7B050000 		.4byte	0x57b
 1635 051a 12       		.uleb128 0x12
 1636 051b 20000000 		.4byte	.LASF85
 1637 051f 03       		.byte	0x3
 1638 0520 0101     		.2byte	0x101
ARM GAS  /tmp/ccYQWmvd.s 			page 63


 1639 0522 FA000000 		.4byte	0xfa
 1640 0526 12       		.uleb128 0x12
 1641 0527 76000000 		.4byte	.LASF86
 1642 052b 03       		.byte	0x3
 1643 052c 0801     		.2byte	0x108
 1644 052e FA000000 		.4byte	0xfa
 1645 0532 12       		.uleb128 0x12
 1646 0533 EE050000 		.4byte	.LASF87
 1647 0537 03       		.byte	0x3
 1648 0538 0F01     		.2byte	0x10f
 1649 053a 05030000 		.4byte	0x305
 1650 053e 12       		.uleb128 0x12
 1651 053f 1A000000 		.4byte	.LASF88
 1652 0543 03       		.byte	0x3
 1653 0544 1601     		.2byte	0x116
 1654 0546 7B050000 		.4byte	0x57b
 1655 054a 12       		.uleb128 0x12
 1656 054b 8A000000 		.4byte	.LASF89
 1657 054f 03       		.byte	0x3
 1658 0550 1B01     		.2byte	0x11b
 1659 0552 FA000000 		.4byte	0xfa
 1660 0556 12       		.uleb128 0x12
 1661 0557 96020000 		.4byte	.LASF90
 1662 055b 03       		.byte	0x3
 1663 055c 2401     		.2byte	0x124
 1664 055e A6050000 		.4byte	0x5a6
 1665 0562 12       		.uleb128 0x12
 1666 0563 B2040000 		.4byte	.LASF91
 1667 0567 03       		.byte	0x3
 1668 0568 2D01     		.2byte	0x12d
 1669 056a DD050000 		.4byte	0x5dd
 1670 056e 12       		.uleb128 0x12
 1671 056f 53040000 		.4byte	.LASF92
 1672 0573 03       		.byte	0x3
 1673 0574 3501     		.2byte	0x135
 1674 0576 05010000 		.4byte	0x105
 1675 057a 00       		.byte	0
 1676 057b 09       		.uleb128 0x9
 1677 057c 04       		.byte	0x4
 1678 057d 1D020000 		.4byte	0x21d
 1679 0581 05       		.uleb128 0x5
 1680 0582 91040000 		.4byte	.LASF93
 1681 0586 0C       		.byte	0xc
 1682 0587 0D       		.byte	0xd
 1683 0588 34       		.byte	0x34
 1684 0589 A6050000 		.4byte	0x5a6
 1685 058d 06       		.uleb128 0x6
 1686 058e 48010000 		.4byte	.LASF94
 1687 0592 0D       		.byte	0xd
 1688 0593 35       		.byte	0x35
 1689 0594 52020000 		.4byte	0x252
 1690 0598 00       		.byte	0
 1691 0599 06       		.uleb128 0x6
 1692 059a A8020000 		.4byte	.LASF95
 1693 059e 0D       		.byte	0xd
 1694 059f 37       		.byte	0x37
 1695 05a0 10010000 		.4byte	0x110
ARM GAS  /tmp/ccYQWmvd.s 			page 64


 1696 05a4 08       		.byte	0x8
 1697 05a5 00       		.byte	0
 1698 05a6 09       		.uleb128 0x9
 1699 05a7 04       		.byte	0x4
 1700 05a8 81050000 		.4byte	0x581
 1701 05ac 05       		.uleb128 0x5
 1702 05ad D0050000 		.4byte	.LASF96
 1703 05b1 10       		.byte	0x10
 1704 05b2 0E       		.byte	0xe
 1705 05b3 39       		.byte	0x39
 1706 05b4 DD050000 		.4byte	0x5dd
 1707 05b8 06       		.uleb128 0x6
 1708 05b9 EF000000 		.4byte	.LASF97
 1709 05bd 0E       		.byte	0xe
 1710 05be 3A       		.byte	0x3a
 1711 05bf 52020000 		.4byte	0x252
 1712 05c3 00       		.byte	0
 1713 05c4 06       		.uleb128 0x6
 1714 05c5 25060000 		.4byte	.LASF98
 1715 05c9 0E       		.byte	0xe
 1716 05ca 3C       		.byte	0x3c
 1717 05cb 28020000 		.4byte	0x228
 1718 05cf 08       		.byte	0x8
 1719 05d0 06       		.uleb128 0x6
 1720 05d1 8F020000 		.4byte	.LASF99
 1721 05d5 0E       		.byte	0xe
 1722 05d6 3E       		.byte	0x3e
 1723 05d7 21060000 		.4byte	0x621
 1724 05db 0C       		.byte	0xc
 1725 05dc 00       		.byte	0
 1726 05dd 09       		.uleb128 0x9
 1727 05de 04       		.byte	0x4
 1728 05df AC050000 		.4byte	0x5ac
 1729 05e3 09       		.uleb128 0x9
 1730 05e4 04       		.byte	0x4
 1731 05e5 E9050000 		.4byte	0x5e9
 1732 05e9 13       		.uleb128 0x13
 1733 05ea EE050000 		.4byte	0x5ee
 1734 05ee 03       		.uleb128 0x3
 1735 05ef 01       		.byte	0x1
 1736 05f0 08       		.byte	0x8
 1737 05f1 37050000 		.4byte	.LASF100
 1738 05f5 09       		.uleb128 0x9
 1739 05f6 04       		.byte	0x4
 1740 05f7 4D040000 		.4byte	0x44d
 1741 05fb 09       		.uleb128 0x9
 1742 05fc 04       		.byte	0x4
 1743 05fd 07030000 		.4byte	0x307
 1744 0601 14       		.uleb128 0x14
 1745 0602 E3050000 		.4byte	0x5e3
 1746 0606 15       		.uleb128 0x15
 1747 0607 4D040000 		.4byte	0x44d
 1748 060b 16060000 		.4byte	0x616
 1749 060f 16       		.uleb128 0x16
 1750 0610 3B040000 		.4byte	0x43b
 1751 0614 1A       		.byte	0x1a
 1752 0615 00       		.byte	0
ARM GAS  /tmp/ccYQWmvd.s 			page 65


 1753 0616 04       		.uleb128 0x4
 1754 0617 77010000 		.4byte	.LASF101
 1755 061b 0E       		.byte	0xe
 1756 061c 34       		.byte	0x34
 1757 061d AC050000 		.4byte	0x5ac
 1758 0621 09       		.uleb128 0x9
 1759 0622 04       		.byte	0x4
 1760 0623 16060000 		.4byte	0x616
 1761 0627 17       		.uleb128 0x17
 1762 0628 80050000 		.4byte	.LASF119
 1763 062c 02       		.byte	0x2
 1764 062d 2202     		.2byte	0x222
 1765 062f 03       		.byte	0x3
 1766 0630 41060000 		.4byte	0x641
 1767 0634 18       		.uleb128 0x18
 1768 0635 7F010000 		.4byte	.LASF120
 1769 0639 02       		.byte	0x2
 1770 063a 2202     		.2byte	0x222
 1771 063c AD000000 		.4byte	0xad
 1772 0640 00       		.byte	0
 1773 0641 19       		.uleb128 0x19
 1774 0642 55000000 		.4byte	.LASF102
 1775 0646 01       		.byte	0x1
 1776 0647 C801     		.2byte	0x1c8
 1777 0649 00000000 		.4byte	.LFB127
 1778 064d 10000000 		.4byte	.LFE127-.LFB127
 1779 0651 01       		.uleb128 0x1
 1780 0652 9C       		.byte	0x9c
 1781 0653 71060000 		.4byte	0x671
 1782 0657 1A       		.uleb128 0x1a
 1783 0658 27060000 		.4byte	0x627
 1784 065c 06000000 		.4byte	.LBB6
 1785 0660 06000000 		.4byte	.LBE6-.LBB6
 1786 0664 01       		.byte	0x1
 1787 0665 D001     		.2byte	0x1d0
 1788 0667 1B       		.uleb128 0x1b
 1789 0668 34060000 		.4byte	0x634
 1790 066c 02       		.uleb128 0x2
 1791 066d 91       		.byte	0x91
 1792 066e 7C       		.sleb128 -4
 1793 066f 00       		.byte	0
 1794 0670 00       		.byte	0
 1795 0671 19       		.uleb128 0x19
 1796 0672 FE000000 		.4byte	.LASF103
 1797 0676 01       		.byte	0x1
 1798 0677 E001     		.2byte	0x1e0
 1799 0679 00000000 		.4byte	.LFB128
 1800 067d 10000000 		.4byte	.LFE128-.LFB128
 1801 0681 01       		.uleb128 0x1
 1802 0682 9C       		.byte	0x9c
 1803 0683 A1060000 		.4byte	0x6a1
 1804 0687 1A       		.uleb128 0x1a
 1805 0688 27060000 		.4byte	0x627
 1806 068c 06000000 		.4byte	.LBB8
 1807 0690 06000000 		.4byte	.LBE8-.LBB8
 1808 0694 01       		.byte	0x1
 1809 0695 E301     		.2byte	0x1e3
ARM GAS  /tmp/ccYQWmvd.s 			page 66


 1810 0697 1B       		.uleb128 0x1b
 1811 0698 34060000 		.4byte	0x634
 1812 069c 02       		.uleb128 0x2
 1813 069d 91       		.byte	0x91
 1814 069e 7C       		.sleb128 -4
 1815 069f 00       		.byte	0
 1816 06a0 00       		.byte	0
 1817 06a1 19       		.uleb128 0x19
 1818 06a2 0D000000 		.4byte	.LASF104
 1819 06a6 03       		.byte	0x3
 1820 06a7 9902     		.2byte	0x299
 1821 06a9 00000000 		.4byte	.LFB156
 1822 06ad 26000000 		.4byte	.LFE156-.LFB156
 1823 06b1 01       		.uleb128 0x1
 1824 06b2 9C       		.byte	0x9c
 1825 06b3 D5060000 		.4byte	0x6d5
 1826 06b7 1C       		.uleb128 0x1c
 1827 06b8 747000   		.ascii	"tp\000"
 1828 06bb 03       		.byte	0x3
 1829 06bc 9902     		.2byte	0x299
 1830 06be 28020000 		.4byte	0x228
 1831 06c2 02       		.uleb128 0x2
 1832 06c3 91       		.byte	0x91
 1833 06c4 7C       		.sleb128 -4
 1834 06c5 1C       		.uleb128 0x1c
 1835 06c6 74717000 		.ascii	"tqp\000"
 1836 06ca 03       		.byte	0x3
 1837 06cb 9902     		.2byte	0x299
 1838 06cd D5060000 		.4byte	0x6d5
 1839 06d1 02       		.uleb128 0x2
 1840 06d2 91       		.byte	0x91
 1841 06d3 78       		.sleb128 -8
 1842 06d4 00       		.byte	0
 1843 06d5 09       		.uleb128 0x9
 1844 06d6 04       		.byte	0x4
 1845 06d7 52020000 		.4byte	0x252
 1846 06db 1D       		.uleb128 0x1d
 1847 06dc 45050000 		.4byte	.LASF106
 1848 06e0 03       		.byte	0x3
 1849 06e1 A102     		.2byte	0x2a1
 1850 06e3 28020000 		.4byte	0x228
 1851 06e7 00000000 		.4byte	.LFB157
 1852 06eb 22000000 		.4byte	.LFE157-.LFB157
 1853 06ef 01       		.uleb128 0x1
 1854 06f0 9C       		.byte	0x9c
 1855 06f1 13070000 		.4byte	0x713
 1856 06f5 1C       		.uleb128 0x1c
 1857 06f6 74717000 		.ascii	"tqp\000"
 1858 06fa 03       		.byte	0x3
 1859 06fb A102     		.2byte	0x2a1
 1860 06fd D5060000 		.4byte	0x6d5
 1861 0701 02       		.uleb128 0x2
 1862 0702 91       		.byte	0x91
 1863 0703 74       		.sleb128 -12
 1864 0704 1E       		.uleb128 0x1e
 1865 0705 747000   		.ascii	"tp\000"
 1866 0708 03       		.byte	0x3
ARM GAS  /tmp/ccYQWmvd.s 			page 67


 1867 0709 A202     		.2byte	0x2a2
 1868 070b 28020000 		.4byte	0x228
 1869 070f 02       		.uleb128 0x2
 1870 0710 91       		.byte	0x91
 1871 0711 7C       		.sleb128 -4
 1872 0712 00       		.byte	0
 1873 0713 1F       		.uleb128 0x1f
 1874 0714 69040000 		.4byte	.LASF121
 1875 0718 04       		.byte	0x4
 1876 0719 5A01     		.2byte	0x15a
 1877 071b 00000000 		.4byte	.LFB167
 1878 071f 08000000 		.4byte	.LFE167-.LFB167
 1879 0723 01       		.uleb128 0x1
 1880 0724 9C       		.byte	0x9c
 1881 0725 20       		.uleb128 0x20
 1882 0726 0B060000 		.4byte	.LASF105
 1883 072a 04       		.byte	0x4
 1884 072b 6601     		.2byte	0x166
 1885 072d 00000000 		.4byte	.LFB168
 1886 0731 08000000 		.4byte	.LFE168-.LFB168
 1887 0735 01       		.uleb128 0x1
 1888 0736 9C       		.byte	0x9c
 1889 0737 45070000 		.4byte	0x745
 1890 073b 21       		.uleb128 0x21
 1891 073c 50010000 		.4byte	.LASF110
 1892 0740 55070000 		.4byte	0x755
 1893 0744 00       		.byte	0
 1894 0745 15       		.uleb128 0x15
 1895 0746 EE050000 		.4byte	0x5ee
 1896 074a 55070000 		.4byte	0x755
 1897 074e 16       		.uleb128 0x16
 1898 074f 3B040000 		.4byte	0x43b
 1899 0753 0B       		.byte	0xb
 1900 0754 00       		.byte	0
 1901 0755 13       		.uleb128 0x13
 1902 0756 45070000 		.4byte	0x745
 1903 075a 22       		.uleb128 0x22
 1904 075b 30010000 		.4byte	.LASF107
 1905 075f 05       		.byte	0x5
 1906 0760 4F       		.byte	0x4f
 1907 0761 81070000 		.4byte	0x781
 1908 0765 00000000 		.4byte	.LFB222
 1909 0769 1C000000 		.4byte	.LFE222-.LFB222
 1910 076d 01       		.uleb128 0x1
 1911 076e 9C       		.byte	0x9c
 1912 076f 81070000 		.4byte	0x781
 1913 0773 23       		.uleb128 0x23
 1914 0774 747000   		.ascii	"tp\000"
 1915 0777 05       		.byte	0x5
 1916 0778 4F       		.byte	0x4f
 1917 0779 28020000 		.4byte	0x228
 1918 077d 02       		.uleb128 0x2
 1919 077e 91       		.byte	0x91
 1920 077f 7C       		.sleb128 -4
 1921 0780 00       		.byte	0
 1922 0781 03       		.uleb128 0x3
 1923 0782 01       		.byte	0x1
ARM GAS  /tmp/ccYQWmvd.s 			page 68


 1924 0783 02       		.byte	0x2
 1925 0784 F7030000 		.4byte	.LASF108
 1926 0788 24       		.uleb128 0x24
 1927 0789 17060000 		.4byte	.LASF109
 1928 078d 05       		.byte	0x5
 1929 078e 71       		.byte	0x71
 1930 078f 00000000 		.4byte	.LFB224
 1931 0793 16000000 		.4byte	.LFE224-.LFB224
 1932 0797 01       		.uleb128 0x1
 1933 0798 9C       		.byte	0x9c
 1934 0799 B9070000 		.4byte	0x7b9
 1935 079d 23       		.uleb128 0x23
 1936 079e 747000   		.ascii	"tp\000"
 1937 07a1 05       		.byte	0x5
 1938 07a2 71       		.byte	0x71
 1939 07a3 28020000 		.4byte	0x228
 1940 07a7 02       		.uleb128 0x2
 1941 07a8 91       		.byte	0x91
 1942 07a9 74       		.sleb128 -12
 1943 07aa 23       		.uleb128 0x23
 1944 07ab 6D736700 		.ascii	"msg\000"
 1945 07af 05       		.byte	0x5
 1946 07b0 71       		.byte	0x71
 1947 07b1 FA000000 		.4byte	0xfa
 1948 07b5 02       		.uleb128 0x2
 1949 07b6 91       		.byte	0x91
 1950 07b7 70       		.sleb128 -16
 1951 07b8 00       		.byte	0
 1952 07b9 25       		.uleb128 0x25
 1953 07ba 1D010000 		.4byte	.LASF112
 1954 07be 06       		.byte	0x6
 1955 07bf 57       		.byte	0x57
 1956 07c0 FA000000 		.4byte	0xfa
 1957 07c4 00000000 		.4byte	.LFB241
 1958 07c8 54000000 		.4byte	.LFE241-.LFB241
 1959 07cc 01       		.uleb128 0x1
 1960 07cd 9C       		.byte	0x9c
 1961 07ce 05080000 		.4byte	0x805
 1962 07d2 23       		.uleb128 0x23
 1963 07d3 747000   		.ascii	"tp\000"
 1964 07d6 06       		.byte	0x6
 1965 07d7 57       		.byte	0x57
 1966 07d8 28020000 		.4byte	0x228
 1967 07dc 02       		.uleb128 0x2
 1968 07dd 91       		.byte	0x91
 1969 07de 6C       		.sleb128 -20
 1970 07df 23       		.uleb128 0x23
 1971 07e0 6D736700 		.ascii	"msg\000"
 1972 07e4 06       		.byte	0x6
 1973 07e5 57       		.byte	0x57
 1974 07e6 FA000000 		.4byte	0xfa
 1975 07ea 02       		.uleb128 0x2
 1976 07eb 91       		.byte	0x91
 1977 07ec 68       		.sleb128 -24
 1978 07ed 26       		.uleb128 0x26
 1979 07ee 63747000 		.ascii	"ctp\000"
 1980 07f2 06       		.byte	0x6
ARM GAS  /tmp/ccYQWmvd.s 			page 69


 1981 07f3 58       		.byte	0x58
 1982 07f4 28020000 		.4byte	0x228
 1983 07f8 02       		.uleb128 0x2
 1984 07f9 91       		.byte	0x91
 1985 07fa 74       		.sleb128 -12
 1986 07fb 21       		.uleb128 0x21
 1987 07fc D9030000 		.4byte	.LASF111
 1988 0800 15080000 		.4byte	0x815
 1989 0804 00       		.byte	0
 1990 0805 15       		.uleb128 0x15
 1991 0806 EE050000 		.4byte	0x5ee
 1992 080a 15080000 		.4byte	0x815
 1993 080e 16       		.uleb128 0x16
 1994 080f 3B040000 		.4byte	0x43b
 1995 0813 09       		.byte	0x9
 1996 0814 00       		.byte	0
 1997 0815 13       		.uleb128 0x13
 1998 0816 05080000 		.4byte	0x805
 1999 081a 25       		.uleb128 0x25
 2000 081b B6050000 		.4byte	.LASF113
 2001 081f 06       		.byte	0x6
 2002 0820 77       		.byte	0x77
 2003 0821 28020000 		.4byte	0x228
 2004 0825 00000000 		.4byte	.LFB242
 2005 0829 4C000000 		.4byte	.LFE242-.LFB242
 2006 082d 01       		.uleb128 0x1
 2007 082e 9C       		.byte	0x9c
 2008 082f 41080000 		.4byte	0x841
 2009 0833 26       		.uleb128 0x26
 2010 0834 747000   		.ascii	"tp\000"
 2011 0837 06       		.byte	0x6
 2012 0838 78       		.byte	0x78
 2013 0839 28020000 		.4byte	0x228
 2014 083d 02       		.uleb128 0x2
 2015 083e 91       		.byte	0x91
 2016 083f 74       		.sleb128 -12
 2017 0840 00       		.byte	0
 2018 0841 27       		.uleb128 0x27
 2019 0842 84040000 		.4byte	.LASF122
 2020 0846 06       		.byte	0x6
 2021 0847 8F       		.byte	0x8f
 2022 0848 00000000 		.4byte	.LFB243
 2023 084c 1E000000 		.4byte	.LFE243-.LFB243
 2024 0850 01       		.uleb128 0x1
 2025 0851 9C       		.byte	0x9c
 2026 0852 7B080000 		.4byte	0x87b
 2027 0856 23       		.uleb128 0x23
 2028 0857 747000   		.ascii	"tp\000"
 2029 085a 06       		.byte	0x6
 2030 085b 8F       		.byte	0x8f
 2031 085c 28020000 		.4byte	0x228
 2032 0860 02       		.uleb128 0x2
 2033 0861 91       		.byte	0x91
 2034 0862 74       		.sleb128 -12
 2035 0863 23       		.uleb128 0x23
 2036 0864 6D736700 		.ascii	"msg\000"
 2037 0868 06       		.byte	0x6
ARM GAS  /tmp/ccYQWmvd.s 			page 70


 2038 0869 8F       		.byte	0x8f
 2039 086a FA000000 		.4byte	0xfa
 2040 086e 02       		.uleb128 0x2
 2041 086f 91       		.byte	0x91
 2042 0870 70       		.sleb128 -16
 2043 0871 21       		.uleb128 0x21
 2044 0872 51030000 		.4byte	.LASF114
 2045 0876 8B080000 		.4byte	0x88b
 2046 087a 00       		.byte	0
 2047 087b 15       		.uleb128 0x15
 2048 087c EE050000 		.4byte	0x5ee
 2049 0880 8B080000 		.4byte	0x88b
 2050 0884 16       		.uleb128 0x16
 2051 0885 3B040000 		.4byte	0x43b
 2052 0889 0C       		.byte	0xc
 2053 088a 00       		.byte	0
 2054 088b 13       		.uleb128 0x13
 2055 088c 7B080000 		.4byte	0x87b
 2056 0890 28       		.uleb128 0x28
 2057 0891 A8000000 		.4byte	.LASF115
 2058 0895 0F       		.byte	0xf
 2059 0896 FA06     		.2byte	0x6fa
 2060 0898 9C080000 		.4byte	0x89c
 2061 089c 14       		.uleb128 0x14
 2062 089d A2000000 		.4byte	0xa2
 2063 08a1 29       		.uleb128 0x29
 2064 08a2 636800   		.ascii	"ch\000"
 2065 08a5 03       		.byte	0x3
 2066 08a6 0B02     		.2byte	0x20b
 2067 08a8 D4030000 		.4byte	0x3d4
 2068 08ac 00       		.byte	0
 2069              		.section	.debug_abbrev,"",%progbits
 2070              	.Ldebug_abbrev0:
 2071 0000 01       		.uleb128 0x1
 2072 0001 11       		.uleb128 0x11
 2073 0002 01       		.byte	0x1
 2074 0003 25       		.uleb128 0x25
 2075 0004 0E       		.uleb128 0xe
 2076 0005 13       		.uleb128 0x13
 2077 0006 0B       		.uleb128 0xb
 2078 0007 03       		.uleb128 0x3
 2079 0008 0E       		.uleb128 0xe
 2080 0009 1B       		.uleb128 0x1b
 2081 000a 0E       		.uleb128 0xe
 2082 000b 55       		.uleb128 0x55
 2083 000c 17       		.uleb128 0x17
 2084 000d 11       		.uleb128 0x11
 2085 000e 01       		.uleb128 0x1
 2086 000f 10       		.uleb128 0x10
 2087 0010 17       		.uleb128 0x17
 2088 0011 00       		.byte	0
 2089 0012 00       		.byte	0
 2090 0013 02       		.uleb128 0x2
 2091 0014 24       		.uleb128 0x24
 2092 0015 00       		.byte	0
 2093 0016 0B       		.uleb128 0xb
 2094 0017 0B       		.uleb128 0xb
ARM GAS  /tmp/ccYQWmvd.s 			page 71


 2095 0018 3E       		.uleb128 0x3e
 2096 0019 0B       		.uleb128 0xb
 2097 001a 03       		.uleb128 0x3
 2098 001b 08       		.uleb128 0x8
 2099 001c 00       		.byte	0
 2100 001d 00       		.byte	0
 2101 001e 03       		.uleb128 0x3
 2102 001f 24       		.uleb128 0x24
 2103 0020 00       		.byte	0
 2104 0021 0B       		.uleb128 0xb
 2105 0022 0B       		.uleb128 0xb
 2106 0023 3E       		.uleb128 0x3e
 2107 0024 0B       		.uleb128 0xb
 2108 0025 03       		.uleb128 0x3
 2109 0026 0E       		.uleb128 0xe
 2110 0027 00       		.byte	0
 2111 0028 00       		.byte	0
 2112 0029 04       		.uleb128 0x4
 2113 002a 16       		.uleb128 0x16
 2114 002b 00       		.byte	0
 2115 002c 03       		.uleb128 0x3
 2116 002d 0E       		.uleb128 0xe
 2117 002e 3A       		.uleb128 0x3a
 2118 002f 0B       		.uleb128 0xb
 2119 0030 3B       		.uleb128 0x3b
 2120 0031 0B       		.uleb128 0xb
 2121 0032 49       		.uleb128 0x49
 2122 0033 13       		.uleb128 0x13
 2123 0034 00       		.byte	0
 2124 0035 00       		.byte	0
 2125 0036 05       		.uleb128 0x5
 2126 0037 13       		.uleb128 0x13
 2127 0038 01       		.byte	0x1
 2128 0039 03       		.uleb128 0x3
 2129 003a 0E       		.uleb128 0xe
 2130 003b 0B       		.uleb128 0xb
 2131 003c 0B       		.uleb128 0xb
 2132 003d 3A       		.uleb128 0x3a
 2133 003e 0B       		.uleb128 0xb
 2134 003f 3B       		.uleb128 0x3b
 2135 0040 0B       		.uleb128 0xb
 2136 0041 01       		.uleb128 0x1
 2137 0042 13       		.uleb128 0x13
 2138 0043 00       		.byte	0
 2139 0044 00       		.byte	0
 2140 0045 06       		.uleb128 0x6
 2141 0046 0D       		.uleb128 0xd
 2142 0047 00       		.byte	0
 2143 0048 03       		.uleb128 0x3
 2144 0049 0E       		.uleb128 0xe
 2145 004a 3A       		.uleb128 0x3a
 2146 004b 0B       		.uleb128 0xb
 2147 004c 3B       		.uleb128 0x3b
 2148 004d 0B       		.uleb128 0xb
 2149 004e 49       		.uleb128 0x49
 2150 004f 13       		.uleb128 0x13
 2151 0050 38       		.uleb128 0x38
ARM GAS  /tmp/ccYQWmvd.s 			page 72


 2152 0051 0B       		.uleb128 0xb
 2153 0052 00       		.byte	0
 2154 0053 00       		.byte	0
 2155 0054 07       		.uleb128 0x7
 2156 0055 0D       		.uleb128 0xd
 2157 0056 00       		.byte	0
 2158 0057 03       		.uleb128 0x3
 2159 0058 08       		.uleb128 0x8
 2160 0059 3A       		.uleb128 0x3a
 2161 005a 0B       		.uleb128 0xb
 2162 005b 3B       		.uleb128 0x3b
 2163 005c 05       		.uleb128 0x5
 2164 005d 49       		.uleb128 0x49
 2165 005e 13       		.uleb128 0x13
 2166 005f 38       		.uleb128 0x38
 2167 0060 0B       		.uleb128 0xb
 2168 0061 00       		.byte	0
 2169 0062 00       		.byte	0
 2170 0063 08       		.uleb128 0x8
 2171 0064 0D       		.uleb128 0xd
 2172 0065 00       		.byte	0
 2173 0066 03       		.uleb128 0x3
 2174 0067 0E       		.uleb128 0xe
 2175 0068 3A       		.uleb128 0x3a
 2176 0069 0B       		.uleb128 0xb
 2177 006a 3B       		.uleb128 0x3b
 2178 006b 05       		.uleb128 0x5
 2179 006c 49       		.uleb128 0x49
 2180 006d 13       		.uleb128 0x13
 2181 006e 38       		.uleb128 0x38
 2182 006f 0B       		.uleb128 0xb
 2183 0070 00       		.byte	0
 2184 0071 00       		.byte	0
 2185 0072 09       		.uleb128 0x9
 2186 0073 0F       		.uleb128 0xf
 2187 0074 00       		.byte	0
 2188 0075 0B       		.uleb128 0xb
 2189 0076 0B       		.uleb128 0xb
 2190 0077 49       		.uleb128 0x49
 2191 0078 13       		.uleb128 0x13
 2192 0079 00       		.byte	0
 2193 007a 00       		.byte	0
 2194 007b 0A       		.uleb128 0xa
 2195 007c 13       		.uleb128 0x13
 2196 007d 01       		.byte	0x1
 2197 007e 03       		.uleb128 0x3
 2198 007f 0E       		.uleb128 0xe
 2199 0080 0B       		.uleb128 0xb
 2200 0081 0B       		.uleb128 0xb
 2201 0082 3A       		.uleb128 0x3a
 2202 0083 0B       		.uleb128 0xb
 2203 0084 3B       		.uleb128 0x3b
 2204 0085 05       		.uleb128 0x5
 2205 0086 01       		.uleb128 0x1
 2206 0087 13       		.uleb128 0x13
 2207 0088 00       		.byte	0
 2208 0089 00       		.byte	0
ARM GAS  /tmp/ccYQWmvd.s 			page 73


 2209 008a 0B       		.uleb128 0xb
 2210 008b 15       		.uleb128 0x15
 2211 008c 01       		.byte	0x1
 2212 008d 27       		.uleb128 0x27
 2213 008e 19       		.uleb128 0x19
 2214 008f 01       		.uleb128 0x1
 2215 0090 13       		.uleb128 0x13
 2216 0091 00       		.byte	0
 2217 0092 00       		.byte	0
 2218 0093 0C       		.uleb128 0xc
 2219 0094 05       		.uleb128 0x5
 2220 0095 00       		.byte	0
 2221 0096 49       		.uleb128 0x49
 2222 0097 13       		.uleb128 0x13
 2223 0098 00       		.byte	0
 2224 0099 00       		.byte	0
 2225 009a 0D       		.uleb128 0xd
 2226 009b 0F       		.uleb128 0xf
 2227 009c 00       		.byte	0
 2228 009d 0B       		.uleb128 0xb
 2229 009e 0B       		.uleb128 0xb
 2230 009f 00       		.byte	0
 2231 00a0 00       		.byte	0
 2232 00a1 0E       		.uleb128 0xe
 2233 00a2 13       		.uleb128 0x13
 2234 00a3 01       		.byte	0x1
 2235 00a4 03       		.uleb128 0x3
 2236 00a5 0E       		.uleb128 0xe
 2237 00a6 0B       		.uleb128 0xb
 2238 00a7 05       		.uleb128 0x5
 2239 00a8 3A       		.uleb128 0x3a
 2240 00a9 0B       		.uleb128 0xb
 2241 00aa 3B       		.uleb128 0x3b
 2242 00ab 05       		.uleb128 0x5
 2243 00ac 01       		.uleb128 0x1
 2244 00ad 13       		.uleb128 0x13
 2245 00ae 00       		.byte	0
 2246 00af 00       		.byte	0
 2247 00b0 0F       		.uleb128 0xf
 2248 00b1 0D       		.uleb128 0xd
 2249 00b2 00       		.byte	0
 2250 00b3 03       		.uleb128 0x3
 2251 00b4 08       		.uleb128 0x8
 2252 00b5 3A       		.uleb128 0x3a
 2253 00b6 0B       		.uleb128 0xb
 2254 00b7 3B       		.uleb128 0x3b
 2255 00b8 0B       		.uleb128 0xb
 2256 00b9 49       		.uleb128 0x49
 2257 00ba 13       		.uleb128 0x13
 2258 00bb 38       		.uleb128 0x38
 2259 00bc 0B       		.uleb128 0xb
 2260 00bd 00       		.byte	0
 2261 00be 00       		.byte	0
 2262 00bf 10       		.uleb128 0x10
 2263 00c0 13       		.uleb128 0x13
 2264 00c1 01       		.byte	0x1
 2265 00c2 0B       		.uleb128 0xb
ARM GAS  /tmp/ccYQWmvd.s 			page 74


 2266 00c3 0B       		.uleb128 0xb
 2267 00c4 3A       		.uleb128 0x3a
 2268 00c5 0B       		.uleb128 0xb
 2269 00c6 3B       		.uleb128 0x3b
 2270 00c7 0B       		.uleb128 0xb
 2271 00c8 01       		.uleb128 0x1
 2272 00c9 13       		.uleb128 0x13
 2273 00ca 00       		.byte	0
 2274 00cb 00       		.byte	0
 2275 00cc 11       		.uleb128 0x11
 2276 00cd 17       		.uleb128 0x17
 2277 00ce 01       		.byte	0x1
 2278 00cf 0B       		.uleb128 0xb
 2279 00d0 0B       		.uleb128 0xb
 2280 00d1 3A       		.uleb128 0x3a
 2281 00d2 0B       		.uleb128 0xb
 2282 00d3 3B       		.uleb128 0x3b
 2283 00d4 0B       		.uleb128 0xb
 2284 00d5 01       		.uleb128 0x1
 2285 00d6 13       		.uleb128 0x13
 2286 00d7 00       		.byte	0
 2287 00d8 00       		.byte	0
 2288 00d9 12       		.uleb128 0x12
 2289 00da 0D       		.uleb128 0xd
 2290 00db 00       		.byte	0
 2291 00dc 03       		.uleb128 0x3
 2292 00dd 0E       		.uleb128 0xe
 2293 00de 3A       		.uleb128 0x3a
 2294 00df 0B       		.uleb128 0xb
 2295 00e0 3B       		.uleb128 0x3b
 2296 00e1 05       		.uleb128 0x5
 2297 00e2 49       		.uleb128 0x49
 2298 00e3 13       		.uleb128 0x13
 2299 00e4 00       		.byte	0
 2300 00e5 00       		.byte	0
 2301 00e6 13       		.uleb128 0x13
 2302 00e7 26       		.uleb128 0x26
 2303 00e8 00       		.byte	0
 2304 00e9 49       		.uleb128 0x49
 2305 00ea 13       		.uleb128 0x13
 2306 00eb 00       		.byte	0
 2307 00ec 00       		.byte	0
 2308 00ed 14       		.uleb128 0x14
 2309 00ee 35       		.uleb128 0x35
 2310 00ef 00       		.byte	0
 2311 00f0 49       		.uleb128 0x49
 2312 00f1 13       		.uleb128 0x13
 2313 00f2 00       		.byte	0
 2314 00f3 00       		.byte	0
 2315 00f4 15       		.uleb128 0x15
 2316 00f5 01       		.uleb128 0x1
 2317 00f6 01       		.byte	0x1
 2318 00f7 49       		.uleb128 0x49
 2319 00f8 13       		.uleb128 0x13
 2320 00f9 01       		.uleb128 0x1
 2321 00fa 13       		.uleb128 0x13
 2322 00fb 00       		.byte	0
ARM GAS  /tmp/ccYQWmvd.s 			page 75


 2323 00fc 00       		.byte	0
 2324 00fd 16       		.uleb128 0x16
 2325 00fe 21       		.uleb128 0x21
 2326 00ff 00       		.byte	0
 2327 0100 49       		.uleb128 0x49
 2328 0101 13       		.uleb128 0x13
 2329 0102 2F       		.uleb128 0x2f
 2330 0103 0B       		.uleb128 0xb
 2331 0104 00       		.byte	0
 2332 0105 00       		.byte	0
 2333 0106 17       		.uleb128 0x17
 2334 0107 2E       		.uleb128 0x2e
 2335 0108 01       		.byte	0x1
 2336 0109 03       		.uleb128 0x3
 2337 010a 0E       		.uleb128 0xe
 2338 010b 3A       		.uleb128 0x3a
 2339 010c 0B       		.uleb128 0xb
 2340 010d 3B       		.uleb128 0x3b
 2341 010e 05       		.uleb128 0x5
 2342 010f 27       		.uleb128 0x27
 2343 0110 19       		.uleb128 0x19
 2344 0111 20       		.uleb128 0x20
 2345 0112 0B       		.uleb128 0xb
 2346 0113 01       		.uleb128 0x1
 2347 0114 13       		.uleb128 0x13
 2348 0115 00       		.byte	0
 2349 0116 00       		.byte	0
 2350 0117 18       		.uleb128 0x18
 2351 0118 05       		.uleb128 0x5
 2352 0119 00       		.byte	0
 2353 011a 03       		.uleb128 0x3
 2354 011b 0E       		.uleb128 0xe
 2355 011c 3A       		.uleb128 0x3a
 2356 011d 0B       		.uleb128 0xb
 2357 011e 3B       		.uleb128 0x3b
 2358 011f 05       		.uleb128 0x5
 2359 0120 49       		.uleb128 0x49
 2360 0121 13       		.uleb128 0x13
 2361 0122 00       		.byte	0
 2362 0123 00       		.byte	0
 2363 0124 19       		.uleb128 0x19
 2364 0125 2E       		.uleb128 0x2e
 2365 0126 01       		.byte	0x1
 2366 0127 03       		.uleb128 0x3
 2367 0128 0E       		.uleb128 0xe
 2368 0129 3A       		.uleb128 0x3a
 2369 012a 0B       		.uleb128 0xb
 2370 012b 3B       		.uleb128 0x3b
 2371 012c 05       		.uleb128 0x5
 2372 012d 27       		.uleb128 0x27
 2373 012e 19       		.uleb128 0x19
 2374 012f 11       		.uleb128 0x11
 2375 0130 01       		.uleb128 0x1
 2376 0131 12       		.uleb128 0x12
 2377 0132 06       		.uleb128 0x6
 2378 0133 40       		.uleb128 0x40
 2379 0134 18       		.uleb128 0x18
ARM GAS  /tmp/ccYQWmvd.s 			page 76


 2380 0135 9742     		.uleb128 0x2117
 2381 0137 19       		.uleb128 0x19
 2382 0138 01       		.uleb128 0x1
 2383 0139 13       		.uleb128 0x13
 2384 013a 00       		.byte	0
 2385 013b 00       		.byte	0
 2386 013c 1A       		.uleb128 0x1a
 2387 013d 1D       		.uleb128 0x1d
 2388 013e 01       		.byte	0x1
 2389 013f 31       		.uleb128 0x31
 2390 0140 13       		.uleb128 0x13
 2391 0141 11       		.uleb128 0x11
 2392 0142 01       		.uleb128 0x1
 2393 0143 12       		.uleb128 0x12
 2394 0144 06       		.uleb128 0x6
 2395 0145 58       		.uleb128 0x58
 2396 0146 0B       		.uleb128 0xb
 2397 0147 59       		.uleb128 0x59
 2398 0148 05       		.uleb128 0x5
 2399 0149 00       		.byte	0
 2400 014a 00       		.byte	0
 2401 014b 1B       		.uleb128 0x1b
 2402 014c 05       		.uleb128 0x5
 2403 014d 00       		.byte	0
 2404 014e 31       		.uleb128 0x31
 2405 014f 13       		.uleb128 0x13
 2406 0150 02       		.uleb128 0x2
 2407 0151 18       		.uleb128 0x18
 2408 0152 00       		.byte	0
 2409 0153 00       		.byte	0
 2410 0154 1C       		.uleb128 0x1c
 2411 0155 05       		.uleb128 0x5
 2412 0156 00       		.byte	0
 2413 0157 03       		.uleb128 0x3
 2414 0158 08       		.uleb128 0x8
 2415 0159 3A       		.uleb128 0x3a
 2416 015a 0B       		.uleb128 0xb
 2417 015b 3B       		.uleb128 0x3b
 2418 015c 05       		.uleb128 0x5
 2419 015d 49       		.uleb128 0x49
 2420 015e 13       		.uleb128 0x13
 2421 015f 02       		.uleb128 0x2
 2422 0160 18       		.uleb128 0x18
 2423 0161 00       		.byte	0
 2424 0162 00       		.byte	0
 2425 0163 1D       		.uleb128 0x1d
 2426 0164 2E       		.uleb128 0x2e
 2427 0165 01       		.byte	0x1
 2428 0166 03       		.uleb128 0x3
 2429 0167 0E       		.uleb128 0xe
 2430 0168 3A       		.uleb128 0x3a
 2431 0169 0B       		.uleb128 0xb
 2432 016a 3B       		.uleb128 0x3b
 2433 016b 05       		.uleb128 0x5
 2434 016c 27       		.uleb128 0x27
 2435 016d 19       		.uleb128 0x19
 2436 016e 49       		.uleb128 0x49
ARM GAS  /tmp/ccYQWmvd.s 			page 77


 2437 016f 13       		.uleb128 0x13
 2438 0170 11       		.uleb128 0x11
 2439 0171 01       		.uleb128 0x1
 2440 0172 12       		.uleb128 0x12
 2441 0173 06       		.uleb128 0x6
 2442 0174 40       		.uleb128 0x40
 2443 0175 18       		.uleb128 0x18
 2444 0176 9742     		.uleb128 0x2117
 2445 0178 19       		.uleb128 0x19
 2446 0179 01       		.uleb128 0x1
 2447 017a 13       		.uleb128 0x13
 2448 017b 00       		.byte	0
 2449 017c 00       		.byte	0
 2450 017d 1E       		.uleb128 0x1e
 2451 017e 34       		.uleb128 0x34
 2452 017f 00       		.byte	0
 2453 0180 03       		.uleb128 0x3
 2454 0181 08       		.uleb128 0x8
 2455 0182 3A       		.uleb128 0x3a
 2456 0183 0B       		.uleb128 0xb
 2457 0184 3B       		.uleb128 0x3b
 2458 0185 05       		.uleb128 0x5
 2459 0186 49       		.uleb128 0x49
 2460 0187 13       		.uleb128 0x13
 2461 0188 02       		.uleb128 0x2
 2462 0189 18       		.uleb128 0x18
 2463 018a 00       		.byte	0
 2464 018b 00       		.byte	0
 2465 018c 1F       		.uleb128 0x1f
 2466 018d 2E       		.uleb128 0x2e
 2467 018e 00       		.byte	0
 2468 018f 03       		.uleb128 0x3
 2469 0190 0E       		.uleb128 0xe
 2470 0191 3A       		.uleb128 0x3a
 2471 0192 0B       		.uleb128 0xb
 2472 0193 3B       		.uleb128 0x3b
 2473 0194 05       		.uleb128 0x5
 2474 0195 27       		.uleb128 0x27
 2475 0196 19       		.uleb128 0x19
 2476 0197 11       		.uleb128 0x11
 2477 0198 01       		.uleb128 0x1
 2478 0199 12       		.uleb128 0x12
 2479 019a 06       		.uleb128 0x6
 2480 019b 40       		.uleb128 0x40
 2481 019c 18       		.uleb128 0x18
 2482 019d 9642     		.uleb128 0x2116
 2483 019f 19       		.uleb128 0x19
 2484 01a0 00       		.byte	0
 2485 01a1 00       		.byte	0
 2486 01a2 20       		.uleb128 0x20
 2487 01a3 2E       		.uleb128 0x2e
 2488 01a4 01       		.byte	0x1
 2489 01a5 03       		.uleb128 0x3
 2490 01a6 0E       		.uleb128 0xe
 2491 01a7 3A       		.uleb128 0x3a
 2492 01a8 0B       		.uleb128 0xb
 2493 01a9 3B       		.uleb128 0x3b
ARM GAS  /tmp/ccYQWmvd.s 			page 78


 2494 01aa 05       		.uleb128 0x5
 2495 01ab 27       		.uleb128 0x27
 2496 01ac 19       		.uleb128 0x19
 2497 01ad 11       		.uleb128 0x11
 2498 01ae 01       		.uleb128 0x1
 2499 01af 12       		.uleb128 0x12
 2500 01b0 06       		.uleb128 0x6
 2501 01b1 40       		.uleb128 0x40
 2502 01b2 18       		.uleb128 0x18
 2503 01b3 9642     		.uleb128 0x2116
 2504 01b5 19       		.uleb128 0x19
 2505 01b6 01       		.uleb128 0x1
 2506 01b7 13       		.uleb128 0x13
 2507 01b8 00       		.byte	0
 2508 01b9 00       		.byte	0
 2509 01ba 21       		.uleb128 0x21
 2510 01bb 34       		.uleb128 0x34
 2511 01bc 00       		.byte	0
 2512 01bd 03       		.uleb128 0x3
 2513 01be 0E       		.uleb128 0xe
 2514 01bf 49       		.uleb128 0x49
 2515 01c0 13       		.uleb128 0x13
 2516 01c1 34       		.uleb128 0x34
 2517 01c2 19       		.uleb128 0x19
 2518 01c3 00       		.byte	0
 2519 01c4 00       		.byte	0
 2520 01c5 22       		.uleb128 0x22
 2521 01c6 2E       		.uleb128 0x2e
 2522 01c7 01       		.byte	0x1
 2523 01c8 03       		.uleb128 0x3
 2524 01c9 0E       		.uleb128 0xe
 2525 01ca 3A       		.uleb128 0x3a
 2526 01cb 0B       		.uleb128 0xb
 2527 01cc 3B       		.uleb128 0x3b
 2528 01cd 0B       		.uleb128 0xb
 2529 01ce 27       		.uleb128 0x27
 2530 01cf 19       		.uleb128 0x19
 2531 01d0 49       		.uleb128 0x49
 2532 01d1 13       		.uleb128 0x13
 2533 01d2 11       		.uleb128 0x11
 2534 01d3 01       		.uleb128 0x1
 2535 01d4 12       		.uleb128 0x12
 2536 01d5 06       		.uleb128 0x6
 2537 01d6 40       		.uleb128 0x40
 2538 01d7 18       		.uleb128 0x18
 2539 01d8 9742     		.uleb128 0x2117
 2540 01da 19       		.uleb128 0x19
 2541 01db 01       		.uleb128 0x1
 2542 01dc 13       		.uleb128 0x13
 2543 01dd 00       		.byte	0
 2544 01de 00       		.byte	0
 2545 01df 23       		.uleb128 0x23
 2546 01e0 05       		.uleb128 0x5
 2547 01e1 00       		.byte	0
 2548 01e2 03       		.uleb128 0x3
 2549 01e3 08       		.uleb128 0x8
 2550 01e4 3A       		.uleb128 0x3a
ARM GAS  /tmp/ccYQWmvd.s 			page 79


 2551 01e5 0B       		.uleb128 0xb
 2552 01e6 3B       		.uleb128 0x3b
 2553 01e7 0B       		.uleb128 0xb
 2554 01e8 49       		.uleb128 0x49
 2555 01e9 13       		.uleb128 0x13
 2556 01ea 02       		.uleb128 0x2
 2557 01eb 18       		.uleb128 0x18
 2558 01ec 00       		.byte	0
 2559 01ed 00       		.byte	0
 2560 01ee 24       		.uleb128 0x24
 2561 01ef 2E       		.uleb128 0x2e
 2562 01f0 01       		.byte	0x1
 2563 01f1 03       		.uleb128 0x3
 2564 01f2 0E       		.uleb128 0xe
 2565 01f3 3A       		.uleb128 0x3a
 2566 01f4 0B       		.uleb128 0xb
 2567 01f5 3B       		.uleb128 0x3b
 2568 01f6 0B       		.uleb128 0xb
 2569 01f7 27       		.uleb128 0x27
 2570 01f8 19       		.uleb128 0x19
 2571 01f9 11       		.uleb128 0x11
 2572 01fa 01       		.uleb128 0x1
 2573 01fb 12       		.uleb128 0x12
 2574 01fc 06       		.uleb128 0x6
 2575 01fd 40       		.uleb128 0x40
 2576 01fe 18       		.uleb128 0x18
 2577 01ff 9642     		.uleb128 0x2116
 2578 0201 19       		.uleb128 0x19
 2579 0202 01       		.uleb128 0x1
 2580 0203 13       		.uleb128 0x13
 2581 0204 00       		.byte	0
 2582 0205 00       		.byte	0
 2583 0206 25       		.uleb128 0x25
 2584 0207 2E       		.uleb128 0x2e
 2585 0208 01       		.byte	0x1
 2586 0209 3F       		.uleb128 0x3f
 2587 020a 19       		.uleb128 0x19
 2588 020b 03       		.uleb128 0x3
 2589 020c 0E       		.uleb128 0xe
 2590 020d 3A       		.uleb128 0x3a
 2591 020e 0B       		.uleb128 0xb
 2592 020f 3B       		.uleb128 0x3b
 2593 0210 0B       		.uleb128 0xb
 2594 0211 27       		.uleb128 0x27
 2595 0212 19       		.uleb128 0x19
 2596 0213 49       		.uleb128 0x49
 2597 0214 13       		.uleb128 0x13
 2598 0215 11       		.uleb128 0x11
 2599 0216 01       		.uleb128 0x1
 2600 0217 12       		.uleb128 0x12
 2601 0218 06       		.uleb128 0x6
 2602 0219 40       		.uleb128 0x40
 2603 021a 18       		.uleb128 0x18
 2604 021b 9642     		.uleb128 0x2116
 2605 021d 19       		.uleb128 0x19
 2606 021e 01       		.uleb128 0x1
 2607 021f 13       		.uleb128 0x13
ARM GAS  /tmp/ccYQWmvd.s 			page 80


 2608 0220 00       		.byte	0
 2609 0221 00       		.byte	0
 2610 0222 26       		.uleb128 0x26
 2611 0223 34       		.uleb128 0x34
 2612 0224 00       		.byte	0
 2613 0225 03       		.uleb128 0x3
 2614 0226 08       		.uleb128 0x8
 2615 0227 3A       		.uleb128 0x3a
 2616 0228 0B       		.uleb128 0xb
 2617 0229 3B       		.uleb128 0x3b
 2618 022a 0B       		.uleb128 0xb
 2619 022b 49       		.uleb128 0x49
 2620 022c 13       		.uleb128 0x13
 2621 022d 02       		.uleb128 0x2
 2622 022e 18       		.uleb128 0x18
 2623 022f 00       		.byte	0
 2624 0230 00       		.byte	0
 2625 0231 27       		.uleb128 0x27
 2626 0232 2E       		.uleb128 0x2e
 2627 0233 01       		.byte	0x1
 2628 0234 3F       		.uleb128 0x3f
 2629 0235 19       		.uleb128 0x19
 2630 0236 03       		.uleb128 0x3
 2631 0237 0E       		.uleb128 0xe
 2632 0238 3A       		.uleb128 0x3a
 2633 0239 0B       		.uleb128 0xb
 2634 023a 3B       		.uleb128 0x3b
 2635 023b 0B       		.uleb128 0xb
 2636 023c 27       		.uleb128 0x27
 2637 023d 19       		.uleb128 0x19
 2638 023e 11       		.uleb128 0x11
 2639 023f 01       		.uleb128 0x1
 2640 0240 12       		.uleb128 0x12
 2641 0241 06       		.uleb128 0x6
 2642 0242 40       		.uleb128 0x40
 2643 0243 18       		.uleb128 0x18
 2644 0244 9642     		.uleb128 0x2116
 2645 0246 19       		.uleb128 0x19
 2646 0247 01       		.uleb128 0x1
 2647 0248 13       		.uleb128 0x13
 2648 0249 00       		.byte	0
 2649 024a 00       		.byte	0
 2650 024b 28       		.uleb128 0x28
 2651 024c 34       		.uleb128 0x34
 2652 024d 00       		.byte	0
 2653 024e 03       		.uleb128 0x3
 2654 024f 0E       		.uleb128 0xe
 2655 0250 3A       		.uleb128 0x3a
 2656 0251 0B       		.uleb128 0xb
 2657 0252 3B       		.uleb128 0x3b
 2658 0253 05       		.uleb128 0x5
 2659 0254 49       		.uleb128 0x49
 2660 0255 13       		.uleb128 0x13
 2661 0256 3F       		.uleb128 0x3f
 2662 0257 19       		.uleb128 0x19
 2663 0258 3C       		.uleb128 0x3c
 2664 0259 19       		.uleb128 0x19
ARM GAS  /tmp/ccYQWmvd.s 			page 81


 2665 025a 00       		.byte	0
 2666 025b 00       		.byte	0
 2667 025c 29       		.uleb128 0x29
 2668 025d 34       		.uleb128 0x34
 2669 025e 00       		.byte	0
 2670 025f 03       		.uleb128 0x3
 2671 0260 08       		.uleb128 0x8
 2672 0261 3A       		.uleb128 0x3a
 2673 0262 0B       		.uleb128 0xb
 2674 0263 3B       		.uleb128 0x3b
 2675 0264 05       		.uleb128 0x5
 2676 0265 49       		.uleb128 0x49
 2677 0266 13       		.uleb128 0x13
 2678 0267 3F       		.uleb128 0x3f
 2679 0268 19       		.uleb128 0x19
 2680 0269 3C       		.uleb128 0x3c
 2681 026a 19       		.uleb128 0x19
 2682 026b 00       		.byte	0
 2683 026c 00       		.byte	0
 2684 026d 00       		.byte	0
 2685              		.section	.debug_aranges,"",%progbits
 2686 0000 6C000000 		.4byte	0x6c
 2687 0004 0200     		.2byte	0x2
 2688 0006 00000000 		.4byte	.Ldebug_info0
 2689 000a 04       		.byte	0x4
 2690 000b 00       		.byte	0
 2691 000c 0000     		.2byte	0
 2692 000e 0000     		.2byte	0
 2693 0010 00000000 		.4byte	.LFB127
 2694 0014 10000000 		.4byte	.LFE127-.LFB127
 2695 0018 00000000 		.4byte	.LFB128
 2696 001c 10000000 		.4byte	.LFE128-.LFB128
 2697 0020 00000000 		.4byte	.LFB156
 2698 0024 26000000 		.4byte	.LFE156-.LFB156
 2699 0028 00000000 		.4byte	.LFB157
 2700 002c 22000000 		.4byte	.LFE157-.LFB157
 2701 0030 00000000 		.4byte	.LFB167
 2702 0034 08000000 		.4byte	.LFE167-.LFB167
 2703 0038 00000000 		.4byte	.LFB168
 2704 003c 08000000 		.4byte	.LFE168-.LFB168
 2705 0040 00000000 		.4byte	.LFB222
 2706 0044 1C000000 		.4byte	.LFE222-.LFB222
 2707 0048 00000000 		.4byte	.LFB224
 2708 004c 16000000 		.4byte	.LFE224-.LFB224
 2709 0050 00000000 		.4byte	.LFB241
 2710 0054 54000000 		.4byte	.LFE241-.LFB241
 2711 0058 00000000 		.4byte	.LFB242
 2712 005c 4C000000 		.4byte	.LFE242-.LFB242
 2713 0060 00000000 		.4byte	.LFB243
 2714 0064 1E000000 		.4byte	.LFE243-.LFB243
 2715 0068 00000000 		.4byte	0
 2716 006c 00000000 		.4byte	0
 2717              		.section	.debug_ranges,"",%progbits
 2718              	.Ldebug_ranges0:
 2719 0000 00000000 		.4byte	.LFB127
 2720 0004 10000000 		.4byte	.LFE127
 2721 0008 00000000 		.4byte	.LFB128
ARM GAS  /tmp/ccYQWmvd.s 			page 82


 2722 000c 10000000 		.4byte	.LFE128
 2723 0010 00000000 		.4byte	.LFB156
 2724 0014 26000000 		.4byte	.LFE156
 2725 0018 00000000 		.4byte	.LFB157
 2726 001c 22000000 		.4byte	.LFE157
 2727 0020 00000000 		.4byte	.LFB167
 2728 0024 08000000 		.4byte	.LFE167
 2729 0028 00000000 		.4byte	.LFB168
 2730 002c 08000000 		.4byte	.LFE168
 2731 0030 00000000 		.4byte	.LFB222
 2732 0034 1C000000 		.4byte	.LFE222
 2733 0038 00000000 		.4byte	.LFB224
 2734 003c 16000000 		.4byte	.LFE224
 2735 0040 00000000 		.4byte	.LFB241
 2736 0044 54000000 		.4byte	.LFE241
 2737 0048 00000000 		.4byte	.LFB242
 2738 004c 4C000000 		.4byte	.LFE242
 2739 0050 00000000 		.4byte	.LFB243
 2740 0054 1E000000 		.4byte	.LFE243
 2741 0058 00000000 		.4byte	0
 2742 005c 00000000 		.4byte	0
 2743              		.section	.debug_line,"",%progbits
 2744              	.Ldebug_line0:
 2745 0000 56030000 		.section	.debug_str,"MS",%progbits,1
 2745      02004C02 
 2745      00000201 
 2745      FB0E0D00 
 2745      01010101 
 2746              	.LASF50:
 2747 0000 72656164 		.ascii	"ready_list_t\000"
 2747      795F6C69 
 2747      73745F74 
 2747      00
 2748              	.LASF104:
 2749 000d 71756575 		.ascii	"queue_insert\000"
 2749      655F696E 
 2749      73657274 
 2749      00
 2750              	.LASF88:
 2751 001a 77747472 		.ascii	"wttrp\000"
 2751      7000
 2752              	.LASF85:
 2753 0020 7264796D 		.ascii	"rdymsg\000"
 2753      736700
 2754              	.LASF16:
 2755 0027 75696E74 		.ascii	"uint64_t\000"
 2755      36345F74 
 2755      00
 2756              	.LASF5:
 2757 0030 5F5F7569 		.ascii	"__uint8_t\000"
 2757      6E74385F 
 2757      7400
 2758              	.LASF82:
 2759 003a 706F7274 		.ascii	"port_intctx\000"
 2759      5F696E74 
 2759      63747800 
 2760              	.LASF69:
ARM GAS  /tmp/ccYQWmvd.s 			page 83


 2761 0046 73797374 		.ascii	"system_debug_t\000"
 2761      656D5F64 
 2761      65627567 
 2761      5F7400
 2762              	.LASF102:
 2763 0055 706F7274 		.ascii	"port_lock\000"
 2763      5F6C6F63 
 2763      6B00
 2764              	.LASF12:
 2765 005f 6C6F6E67 		.ascii	"long long unsigned int\000"
 2765      206C6F6E 
 2765      6720756E 
 2765      7369676E 
 2765      65642069 
 2766              	.LASF86:
 2767 0076 65786974 		.ascii	"exitcode\000"
 2767      636F6465 
 2767      00
 2768              	.LASF76:
 2769 007f 6D61696E 		.ascii	"mainthread\000"
 2769      74687265 
 2769      616400
 2770              	.LASF89:
 2771 008a 73656E74 		.ascii	"sentmsg\000"
 2771      6D736700 
 2772              	.LASF66:
 2773 0092 76697274 		.ascii	"virtual_timers_list_t\000"
 2773      75616C5F 
 2773      74696D65 
 2773      72735F6C 
 2773      6973745F 
 2774              	.LASF115:
 2775 00a8 49544D5F 		.ascii	"ITM_RxBuffer\000"
 2775      52784275 
 2775      66666572 
 2775      00
 2776              	.LASF49:
 2777 00b5 63685F74 		.ascii	"ch_threads_queue\000"
 2777      68726561 
 2777      64735F71 
 2777      75657565 
 2777      00
 2778              	.LASF29:
 2779 00c6 705F7072 		.ascii	"p_prio\000"
 2779      696F00
 2780              	.LASF10:
 2781 00cd 6C6F6E67 		.ascii	"long long int\000"
 2781      206C6F6E 
 2781      6720696E 
 2781      7400
 2782              	.LASF1:
 2783 00db 7369676E 		.ascii	"signed char\000"
 2783      65642063 
 2783      68617200 
 2784              	.LASF43:
 2785 00e7 705F6D70 		.ascii	"p_mpool\000"
 2785      6F6F6C00 
ARM GAS  /tmp/ccYQWmvd.s 			page 84


 2786              	.LASF97:
 2787 00ef 6D5F7175 		.ascii	"m_queue\000"
 2787      65756500 
 2788              	.LASF75:
 2789 00f7 76746C69 		.ascii	"vtlist\000"
 2789      737400
 2790              	.LASF103:
 2791 00fe 706F7274 		.ascii	"port_unlock\000"
 2791      5F756E6C 
 2791      6F636B00 
 2792              	.LASF73:
 2793 010a 63685F73 		.ascii	"ch_system\000"
 2793      79737465 
 2793      6D00
 2794              	.LASF7:
 2795 0114 6C6F6E67 		.ascii	"long int\000"
 2795      20696E74 
 2795      00
 2796              	.LASF112:
 2797 011d 63684D73 		.ascii	"chMsgSend\000"
 2797      6753656E 
 2797      6400
 2798              	.LASF19:
 2799 0127 74737461 		.ascii	"tstate_t\000"
 2799      74655F74 
 2799      00
 2800              	.LASF107:
 2801 0130 63684D73 		.ascii	"chMsgIsPendingI\000"
 2801      67497350 
 2801      656E6469 
 2801      6E674900 
 2802              	.LASF31:
 2803 0140 705F6E65 		.ascii	"p_newer\000"
 2803      77657200 
 2804              	.LASF94:
 2805 0148 735F7175 		.ascii	"s_queue\000"
 2805      65756500 
 2806              	.LASF110:
 2807 0150 5F5F6675 		.ascii	"__func__.5701\000"
 2807      6E635F5F 
 2807      2E353730 
 2807      3100
 2808              	.LASF55:
 2809 015e 725F6E65 		.ascii	"r_newer\000"
 2809      77657200 
 2810              	.LASF79:
 2811 0166 72656761 		.ascii	"regarm_t\000"
 2811      726D5F74 
 2811      00
 2812              	.LASF62:
 2813 016f 76745F70 		.ascii	"vt_prev\000"
 2813      72657600 
 2814              	.LASF101:
 2815 0177 6D757465 		.ascii	"mutex_t\000"
 2815      785F7400 
 2816              	.LASF120:
 2817 017f 76616C75 		.ascii	"value\000"
ARM GAS  /tmp/ccYQWmvd.s 			page 85


 2817      6500
 2818              	.LASF77:
 2819 0185 69646C65 		.ascii	"idle_thread_wa\000"
 2819      5F746872 
 2819      6561645F 
 2819      776100
 2820              	.LASF24:
 2821 0194 636E745F 		.ascii	"cnt_t\000"
 2821      7400
 2822              	.LASF116:
 2823 019a 474E5520 		.ascii	"GNU C 4.8.4 20140526 (release) [ARM/embedded-4_8-br"
 2823      4320342E 
 2823      382E3420 
 2823      32303134 
 2823      30353236 
 2824 01cd 616E6368 		.ascii	"anch revision 211358] -mcpu=cortex-m4 -mno-thumb-in"
 2824      20726576 
 2824      6973696F 
 2824      6E203231 
 2824      31333538 
 2825 0200 74657277 		.ascii	"terwork -mthumb -ggdb -O0 -fomit-frame-pointer -fal"
 2825      6F726B20 
 2825      2D6D7468 
 2825      756D6220 
 2825      2D676764 
 2826 0233 69676E2D 		.ascii	"ign-functions=16 -ffunction-sections -fdata-section"
 2826      66756E63 
 2826      74696F6E 
 2826      733D3136 
 2826      202D6666 
 2827 0266 73202D66 		.ascii	"s -fno-common -flto\000"
 2827      6E6F2D63 
 2827      6F6D6D6F 
 2827      6E202D66 
 2827      6C746F00 
 2828              	.LASF0:
 2829 027a 756E7369 		.ascii	"unsigned int\000"
 2829      676E6564 
 2829      20696E74 
 2829      00
 2830              	.LASF61:
 2831 0287 76745F6E 		.ascii	"vt_next\000"
 2831      65787400 
 2832              	.LASF99:
 2833 028f 6D5F6E65 		.ascii	"m_next\000"
 2833      787400
 2834              	.LASF90:
 2835 0296 77747365 		.ascii	"wtsemp\000"
 2835      6D7000
 2836              	.LASF39:
 2837 029d 705F6D73 		.ascii	"p_msgqueue\000"
 2837      67717565 
 2837      756500
 2838              	.LASF95:
 2839 02a8 735F636E 		.ascii	"s_cnt\000"
 2839      7400
 2840              	.LASF4:
ARM GAS  /tmp/ccYQWmvd.s 			page 86


 2841 02ae 73686F72 		.ascii	"short unsigned int\000"
 2841      7420756E 
 2841      7369676E 
 2841      65642069 
 2841      6E7400
 2842              	.LASF46:
 2843 02c1 63685F74 		.ascii	"ch_thread\000"
 2843      68726561 
 2843      6400
 2844              	.LASF22:
 2845 02cb 6D73675F 		.ascii	"msg_t\000"
 2845      7400
 2846              	.LASF72:
 2847 02d1 63685F73 		.ascii	"ch_system_t\000"
 2847      79737465 
 2847      6D5F7400 
 2848              	.LASF18:
 2849 02dd 746D6F64 		.ascii	"tmode_t\000"
 2849      655F7400 
 2850              	.LASF51:
 2851 02e5 63685F72 		.ascii	"ch_ready_list\000"
 2851      65616479 
 2851      5F6C6973 
 2851      7400
 2852              	.LASF23:
 2853 02f3 6576656E 		.ascii	"eventmask_t\000"
 2853      746D6173 
 2853      6B5F7400 
 2854              	.LASF6:
 2855 02ff 5F5F696E 		.ascii	"__int32_t\000"
 2855      7433325F 
 2855      7400
 2856              	.LASF80:
 2857 0309 73746B61 		.ascii	"stkalign_t\000"
 2857      6C69676E 
 2857      5F7400
 2858              	.LASF38:
 2859 0314 705F7761 		.ascii	"p_waiting\000"
 2859      6974696E 
 2859      6700
 2860              	.LASF78:
 2861 031e 73697A65 		.ascii	"sizetype\000"
 2861      74797065 
 2861      00
 2862              	.LASF44:
 2863 0327 74687265 		.ascii	"thread_reference_t\000"
 2863      61645F72 
 2863      65666572 
 2863      656E6365 
 2863      5F7400
 2864              	.LASF67:
 2865 033a 63685F76 		.ascii	"ch_virtual_timers_list\000"
 2865      69727475 
 2865      616C5F74 
 2865      696D6572 
 2865      735F6C69 
 2866              	.LASF114:
ARM GAS  /tmp/ccYQWmvd.s 			page 87


 2867 0351 5F5F6675 		.ascii	"__func__.6407\000"
 2867      6E635F5F 
 2867      2E363430 
 2867      3700
 2868              	.LASF68:
 2869 035f 76745F6C 		.ascii	"vt_lasttime\000"
 2869      61737474 
 2869      696D6500 
 2870              	.LASF32:
 2871 036b 705F6F6C 		.ascii	"p_older\000"
 2871      64657200 
 2872              	.LASF54:
 2873 0373 725F6374 		.ascii	"r_ctx\000"
 2873      7800
 2874              	.LASF84:
 2875 0379 746D5F63 		.ascii	"tm_calibration_t\000"
 2875      616C6962 
 2875      72617469 
 2875      6F6E5F74 
 2875      00
 2876              	.LASF34:
 2877 038a 705F7374 		.ascii	"p_stklimit\000"
 2877      6B6C696D 
 2877      697400
 2878              	.LASF57:
 2879 0395 725F6375 		.ascii	"r_current\000"
 2879      7272656E 
 2879      7400
 2880              	.LASF56:
 2881 039f 725F6F6C 		.ascii	"r_older\000"
 2881      64657200 
 2882              	.LASF11:
 2883 03a7 5F5F7569 		.ascii	"__uint64_t\000"
 2883      6E743634 
 2883      5F7400
 2884              	.LASF20:
 2885 03b2 74726566 		.ascii	"trefs_t\000"
 2885      735F7400 
 2886              	.LASF59:
 2887 03ba 76697274 		.ascii	"virtual_timer_t\000"
 2887      75616C5F 
 2887      74696D65 
 2887      725F7400 
 2888              	.LASF28:
 2889 03ca 705F7072 		.ascii	"p_prev\000"
 2889      657600
 2890              	.LASF21:
 2891 03d1 74707269 		.ascii	"tprio_t\000"
 2891      6F5F7400 
 2892              	.LASF111:
 2893 03d9 5F5F6675 		.ascii	"__func__.6398\000"
 2893      6E635F5F 
 2893      2E363339 
 2893      3800
 2894              	.LASF70:
 2895 03e7 63685F73 		.ascii	"ch_system_debug\000"
 2895      79737465 
ARM GAS  /tmp/ccYQWmvd.s 			page 88


 2895      6D5F6465 
 2895      62756700 
 2896              	.LASF108:
 2897 03f7 5F426F6F 		.ascii	"_Bool\000"
 2897      6C00
 2898              	.LASF14:
 2899 03fd 696E7433 		.ascii	"int32_t\000"
 2899      325F7400 
 2900              	.LASF2:
 2901 0405 756E7369 		.ascii	"unsigned char\000"
 2901      676E6564 
 2901      20636861 
 2901      7200
 2902              	.LASF41:
 2903 0413 705F6D74 		.ascii	"p_mtxlist\000"
 2903      786C6973 
 2903      7400
 2904              	.LASF3:
 2905 041d 73686F72 		.ascii	"short int\000"
 2905      7420696E 
 2905      7400
 2906              	.LASF35:
 2907 0427 705F7374 		.ascii	"p_state\000"
 2907      61746500 
 2908              	.LASF53:
 2909 042f 725F7072 		.ascii	"r_prio\000"
 2909      696F00
 2910              	.LASF117:
 2911 0436 2E2E2F43 		.ascii	"../ChibiOS/os/rt/src/chmsg.c\000"
 2911      68696269 
 2911      4F532F6F 
 2911      732F7274 
 2911      2F737263 
 2912              	.LASF92:
 2913 0453 65776D61 		.ascii	"ewmask\000"
 2913      736B00
 2914              	.LASF27:
 2915 045a 705F6E65 		.ascii	"p_next\000"
 2915      787400
 2916              	.LASF36:
 2917 0461 705F666C 		.ascii	"p_flags\000"
 2917      61677300 
 2918              	.LASF121:
 2919 0469 63685379 		.ascii	"chSysLock\000"
 2919      734C6F63 
 2919      6B00
 2920              	.LASF60:
 2921 0473 63685F76 		.ascii	"ch_virtual_timer\000"
 2921      69727475 
 2921      616C5F74 
 2921      696D6572 
 2921      00
 2922              	.LASF122:
 2923 0484 63684D73 		.ascii	"chMsgRelease\000"
 2923      6752656C 
 2923      65617365 
 2923      00
ARM GAS  /tmp/ccYQWmvd.s 			page 89


 2924              	.LASF93:
 2925 0491 63685F73 		.ascii	"ch_semaphore\000"
 2925      656D6170 
 2925      686F7265 
 2925      00
 2926              	.LASF40:
 2927 049e 705F6570 		.ascii	"p_epending\000"
 2927      656E6469 
 2927      6E6700
 2928              	.LASF15:
 2929 04a9 75696E74 		.ascii	"uint32_t\000"
 2929      33325F74 
 2929      00
 2930              	.LASF91:
 2931 04b2 77746D74 		.ascii	"wtmtxp\000"
 2931      787000
 2932              	.LASF52:
 2933 04b9 725F7175 		.ascii	"r_queue\000"
 2933      65756500 
 2934              	.LASF63:
 2935 04c1 76745F64 		.ascii	"vt_delta\000"
 2935      656C7461 
 2935      00
 2936              	.LASF47:
 2937 04ca 63685F74 		.ascii	"ch_threads_list\000"
 2937      68726561 
 2937      64735F6C 
 2937      69737400 
 2938              	.LASF118:
 2939 04da 2F6E6673 		.ascii	"/nfs/nfs4/home/irbrown/Courses/P442/P442WifiTrailCo"
 2939      2F6E6673 
 2939      342F686F 
 2939      6D652F69 
 2939      7262726F 
 2940 050d 756E7465 		.ascii	"unterProject/milestone3\000"
 2940      7250726F 
 2940      6A656374 
 2940      2F6D696C 
 2940      6573746F 
 2941              	.LASF9:
 2942 0525 6C6F6E67 		.ascii	"long unsigned int\000"
 2942      20756E73 
 2942      69676E65 
 2942      6420696E 
 2942      7400
 2943              	.LASF100:
 2944 0537 63686172 		.ascii	"char\000"
 2944      00
 2945              	.LASF26:
 2946 053c 74687265 		.ascii	"thread_t\000"
 2946      61645F74 
 2946      00
 2947              	.LASF106:
 2948 0545 71756575 		.ascii	"queue_fifo_remove\000"
 2948      655F6669 
 2948      666F5F72 
 2948      656D6F76 
ARM GAS  /tmp/ccYQWmvd.s 			page 90


 2948      6500
 2949              	.LASF25:
 2950 0557 73797374 		.ascii	"systime_t\000"
 2950      696D655F 
 2950      7400
 2951              	.LASF42:
 2952 0561 705F7265 		.ascii	"p_realprio\000"
 2952      616C7072 
 2952      696F00
 2953              	.LASF58:
 2954 056c 76746675 		.ascii	"vtfunc_t\000"
 2954      6E635F74 
 2954      00
 2955              	.LASF8:
 2956 0575 5F5F7569 		.ascii	"__uint32_t\000"
 2956      6E743332 
 2956      5F7400
 2957              	.LASF119:
 2958 0580 5F5F7365 		.ascii	"__set_BASEPRI\000"
 2958      745F4241 
 2958      53455052 
 2958      4900
 2959              	.LASF71:
 2960 058e 70616E69 		.ascii	"panic_msg\000"
 2960      635F6D73 
 2960      6700
 2961              	.LASF83:
 2962 0598 6F666673 		.ascii	"offset\000"
 2962      657400
 2963              	.LASF81:
 2964 059f 636F6E74 		.ascii	"context\000"
 2964      65787400 
 2965              	.LASF17:
 2966 05a7 7274636E 		.ascii	"rtcnt_t\000"
 2966      745F7400 
 2967              	.LASF65:
 2968 05af 76745F70 		.ascii	"vt_par\000"
 2968      617200
 2969              	.LASF113:
 2970 05b6 63684D73 		.ascii	"chMsgWait\000"
 2970      67576169 
 2970      7400
 2971              	.LASF48:
 2972 05c0 74687265 		.ascii	"threads_queue_t\000"
 2972      6164735F 
 2972      71756575 
 2972      655F7400 
 2973              	.LASF96:
 2974 05d0 63685F6D 		.ascii	"ch_mutex\000"
 2974      75746578 
 2974      00
 2975              	.LASF37:
 2976 05d9 705F7265 		.ascii	"p_refs\000"
 2976      667300
 2977              	.LASF74:
 2978 05e0 726C6973 		.ascii	"rlist\000"
 2978      7400
ARM GAS  /tmp/ccYQWmvd.s 			page 91


 2979              	.LASF13:
 2980 05e6 75696E74 		.ascii	"uint8_t\000"
 2980      385F7400 
 2981              	.LASF87:
 2982 05ee 77746F62 		.ascii	"wtobjp\000"
 2982      6A7000
 2983              	.LASF33:
 2984 05f5 705F6E61 		.ascii	"p_name\000"
 2984      6D6500
 2985              	.LASF45:
 2986 05fc 74687265 		.ascii	"threads_list_t\000"
 2986      6164735F 
 2986      6C697374 
 2986      5F7400
 2987              	.LASF105:
 2988 060b 63685379 		.ascii	"chSysUnlock\000"
 2988      73556E6C 
 2988      6F636B00 
 2989              	.LASF109:
 2990 0617 63684D73 		.ascii	"chMsgReleaseS\000"
 2990      6752656C 
 2990      65617365 
 2990      5300
 2991              	.LASF98:
 2992 0625 6D5F6F77 		.ascii	"m_owner\000"
 2992      6E657200 
 2993              	.LASF30:
 2994 062d 705F6374 		.ascii	"p_ctx\000"
 2994      7800
 2995              	.LASF64:
 2996 0633 76745F66 		.ascii	"vt_func\000"
 2996      756E6300 
 2997              		.comm	__gnu_lto_v1,1,1
 2998              		.ident	"GCC: (GNU Tools for ARM Embedded Processors) 4.8.4 20140526 (release) [ARM/embedded-4_8-br
ARM GAS  /tmp/ccYQWmvd.s 			page 92


DEFINED SYMBOLS
                            *ABS*:00000000 chmsg.c
     /tmp/ccYQWmvd.s:566    .text.port_lock:00000000 $t
     /tmp/ccYQWmvd.s:571    .text.port_lock:00000000 port_lock
     /tmp/ccYQWmvd.s:602    .text.port_unlock:00000000 $t
     /tmp/ccYQWmvd.s:607    .text.port_unlock:00000000 port_unlock
     /tmp/ccYQWmvd.s:636    .text.queue_insert:00000000 $t
     /tmp/ccYQWmvd.s:641    .text.queue_insert:00000000 queue_insert
     /tmp/ccYQWmvd.s:679    .text.queue_fifo_remove:00000000 $t
     /tmp/ccYQWmvd.s:684    .text.queue_fifo_remove:00000000 queue_fifo_remove
     /tmp/ccYQWmvd.s:719    .text.chSysLock:00000000 $t
     /tmp/ccYQWmvd.s:724    .text.chSysLock:00000000 chSysLock
     /tmp/ccYQWmvd.s:743    .text.chSysUnlock:00000000 $t
     /tmp/ccYQWmvd.s:748    .text.chSysUnlock:00000000 chSysUnlock
     /tmp/ccYQWmvd.s:766    .text.chMsgIsPendingI:00000000 $t
     /tmp/ccYQWmvd.s:771    .text.chMsgIsPendingI:00000000 chMsgIsPendingI
     /tmp/ccYQWmvd.s:801    .text.chMsgReleaseS:00000000 $t
     /tmp/ccYQWmvd.s:806    .text.chMsgReleaseS:00000000 chMsgReleaseS
     /tmp/ccYQWmvd.s:831    .text.chMsgSend:00000000 $t
     /tmp/ccYQWmvd.s:837    .text.chMsgSend:00000000 chMsgSend
     /tmp/ccYQWmvd.s:895    .text.chMsgSend:00000050 $d
     /tmp/ccYQWmvd.s:900    .text.chMsgWait:00000000 $t
     /tmp/ccYQWmvd.s:906    .text.chMsgWait:00000000 chMsgWait
     /tmp/ccYQWmvd.s:956    .text.chMsgWait:00000048 $d
     /tmp/ccYQWmvd.s:961    .text.chMsgRelease:00000000 $t
     /tmp/ccYQWmvd.s:967    .text.chMsgRelease:00000000 chMsgRelease
                            *COM*:00000001 __gnu_lto_v1
                     .debug_frame:00000010 $d
     /tmp/ccYQWmvd.s:899    .text.chMsgSend:00000054 $t
     /tmp/ccYQWmvd.s:960    .text.chMsgWait:0000004c $t

UNDEFINED SYMBOLS
chSchWakeupS
chSchReadyI
chSchGoSleepS
ch
