ARM GAS  /tmp/ccnA0Hbj.s 			page 1


   1              		.syntax unified
   2              		.cpu cortex-m4
   3              		.fpu softvfp
   4              		.eabi_attribute 20, 1
   5              		.eabi_attribute 21, 1
   6              		.eabi_attribute 23, 3
   7              		.eabi_attribute 24, 1
   8              		.eabi_attribute 25, 1
   9              		.eabi_attribute 26, 1
  10              		.eabi_attribute 30, 2
  11              		.eabi_attribute 34, 1
  12              		.eabi_attribute 18, 4
  13              		.thumb
  14              		.file	"chmsg.c"
  15              		.text
  16              	.Ltext0:
  17              		.section	.gnu.lto_.jmpfuncs.2f5ce2745aa5bc01,"",%progbits
  18 0000 789C6362 		.ascii	"x\234cb`b\300\0064\24143\0033#S\004c&#\003\017\003\003"
  18      6062C006 
  18      34A13433 
  18      03332353 
  18      04632623 
  19 0018 23035035 		.ascii	"#\003P5\224\313\007\224cf\002)``,\003*\004\0009\234"
  19      94CB0794 
  19      63660229 
  19      60602C03 
  19      2A040039 
  20 002d 025F     		.ascii	"\002_"
  21              		.text
  22              		.section	.gnu.lto_.inline.2f5ce2745aa5bc01,"",%progbits
  23 0000 789C6362 		.ascii	"x\234cb`b\300\006\342\24043\003\203\210\014##\003#\220"
  23      6062C006 
  23      E2A03433 
  23      0383880C 
  23      23230323 
  24 0015 CD247E63 		.ascii	"\315$~c3#\003\347\0153\260\026&n\006\240(\230\234\340"
  24      332303E7 
  24      0D33B016 
  24      266E06A0 
  24      28989CE0 
  25 0029 C7C420C8 		.ascii	"\307\304 \310\017\344H\034\330\315\310\300\266@\036"
  25      0FE4481C 
  25      D8CDC8C0 
  25      B6401E
  26 0038 49013303 		.ascii	"I\0013\003\207\000P\206e\201<\\\202\231\007(9\301o\202"
  26      87005086 
  26      65813C5C 
  26      82990728 
  26      39C16F82 
  27 004c 1F0300E2 		.ascii	"\037\003\000\342\275\012T"
  27      BD0A54
  28              		.text
  29              		.section	.gnu.lto_.pureconst.2f5ce2745aa5bc01,"",%progbits
  30 0000 789C6362 		.ascii	"x\234cb`b`g\200\000f\006+&+f+\000\002\361\000\302"
  30      60626067 
  30      80006606 
  30      2B262B66 
ARM GAS  /tmp/ccnA0Hbj.s 			page 2


  30      2B0002F1 
  31              		.text
  32              		.section	.gnu.lto_chMsgSend.2f5ce2745aa5bc01,"",%progbits
  33 0000 789C8D54 		.ascii	"x\234\215T_hSW\030\377\276{nzc\3324u\203\201\242]\024"
  33      5F685357 
  33      18FFBE7B 
  33      6E7A63DA 
  33      34758381 
  34 0017 04B192EB 		.ascii	"\004\261\222\353|qC\220IA\330CQ\2142\367$\267\307\320"
  34      7C714390 
  34      4941D843 
  34      518C32F7 
  34      24B7C7D0 
  35 002b 5C303626 		.ascii	"\\06&i\251\363\301\233\266\302\306\014\210\356\241*"
  35      69A9F3C1 
  35      9BB6C2C6 
  35      0C88EEA1 
  35      2A
  36 003c 82C5079D 		.ascii	"\202\305\007\235\202\001E\326\241\226\240R\254b\325"
  36      820145D6 
  36      A196A052 
  36      AC62D5
  37 004b 372DFE89 		.ascii	"7-\376\211>\250\260\341\246O\243+\304\357\234s\357m"
  37      3EA8B0E1 
  37      A64FA32B 
  37      C4EF9C73 
  37      EF6D
  38 005d 92CEB609 		.ascii	"\222\316\266\011\271\347\313\271\347\373}\277\363\373"
  38      B9E7CBB9 
  38      E7FB7DBF 
  38      F3FB
  39 006b CEF969A0 		.ascii	"\316\371i\240A\375g=\375\2167\000\374E#\006\000\265"
  39      41FD673D 
  39      FD8E3700 
  39      FC452306 
  39      00B5
  40 007d A31300F9 		.ascii	"\243\023\000\371\240\246\261\261\0108!\375\356&p\232"
  40      A0A6B1B1 
  40      083821FD 
  40      EE26709A 
  41 008d 18EA6A5A 		.ascii	"\030\352jZG\024\001 \034\322\230\216\207~@\201\201+"
  41      47140120 
  41      1CD2988E 
  41      877E4081 
  41      812B
  42 009f 61D8718E 		.ascii	"a\330q\216\225\017\277{\213'\234\322\340\031g\272RA"
  42      950FBF7B 
  42      8B279CD2 
  42      E01967BA 
  42      5241
  43 00b1 B491EA45 		.ascii	"\264\221\352E\0218\302.\372\203Q9hz-\201\242V*W*\323"
  43      1138C22E 
  43      FA835139 
  43      687A2D81 
  43      A2562A57 
  44 00c7 57DFBE7A 		.ascii	"W\337\276z\200\213\277``\3410\341\0050\205`\320\003"
  44      808BBF60 
ARM GAS  /tmp/ccnA0Hbj.s 			page 3


  44      60E130E1 
  44      05308560 
  44      D003
  45 00d9 8360230B 		.ascii	"\203`#\013\321C\017\003\315E(\022i\001\030t\234\243"
  45      D1430F03 
  45      CD452812 
  45      69011874 
  45      9CA3
  46 00eb 51B53A85 		.ascii	"Q\265:\205\2641.\347w\320SP\334IS4\262\373\320?9D\274"
  46      B4312EE7 
  46      77D05350 
  46      DC495334 
  46      B2FBD03F 
  47 0102 2C3C4BDB 		.ascii	",<K\333\353B\326\006\027\034\372|O0m\260\306\306\300"
  47      EB42D606 
  47      171CFA7C 
  47      4F306DB0 
  47      C6C6C0
  48 0115 29389977 		.ascii	")8\231w\234\026\033\033\016\302\224\363\223\210\214"
  48      9C161B1B 
  48      0EC294F3 
  48      93888C
  49 0124 1432C212 		.ascii	"\0242\302\022t\015I\262\023\301\035\335\000\306\241"
  49      740D49B2 
  49      13C11DDD 
  49      00C6A1
  50 0133 BFB45C81 		.ascii	"\277\264\\\201*\016]\"\205f\203\000\256\034'^^_[#GP"
  50      2A0E5D22 
  50      85668300 
  50      AE1C275E 
  50      5E5F5B23 
  51 0149 836DF3C9 		.ascii	"\203m\363\311!\346\202Q\012&\240\377\375\245\201+G\230"
  51      21E68251 
  51      0A26A0FF 
  51      FDA5812B 
  51      4798
  52 015b BB536FCB 		.ascii	"\273So\313\245+7\247Z4\013\317SM\177\356\367_\2577."
  52      A52B37A7 
  52      5A340BCF 
  52      534D7FEE 
  52      F75FAF37 
  53 0170 F3FFFDFC 		.ascii	"\363\377\375\374\234X*n\034EA\215~Lv\212\276\347($\271"
  53      9C582A6E 
  53      1C45418D 
  53      7E4C768A 
  53      BEE72824 
  54 0185 983A0CAD 		.ascii	"\230:\014\2550\202\247\235\241om\\TS~\346\3755\367}"
  54      3082A79D 
  54      A16F6D5C 
  54      54537EE6 
  54      FD35F77D 
  55 0199 48112441 		.ascii	"H\021$A\357\215\374]\326\024\276\253\346\006\033\033"
  55      EF8DFC5D 
  55      D614BEAB 
  55      E6061B1B 
  56 01a9 DD306C63 		.ascii	"\3350lc\023IJ8a\222D\340y\322i\356(\231\220^\001\011"
  56      13494A38 
ARM GAS  /tmp/ccnA0Hbj.s 			page 4


  56      619244E0 
  56      79D269EE 
  56      2899905E 
  57 01bf 3635F05F 		.ascii	"65\360_\201y\335\011\036\204\037m\321#jL\263\217bT\243"
  57      8179DD09 
  57      1E841F6D 
  57      D1236A4C 
  57      B38F6254 
  58 01d4 54E9350E 		.ascii	"T\3515\016.\013%x\351\305\330=t\2169\371\177*\225\210"
  58      2E0B2578 
  58      E9C5D83D 
  58      748E39F9 
  58      7F2A9588 
  59 01e8 3C7CB770 		.ascii	"<|\267p>\271\275\256\225G\371\034PL\203\261\005@\005"
  59      3EB9BDAE 
  59      9547F91C 
  59      504C83B1 
  59      054005
  60 01fb 953A4F5F 		.ascii	"\225:O_?\271x\313\250o\333//\276\262\360\0325\315\302"
  60      3FB978CB 
  60      A86FDB2F 
  60      2FBEB2F0 
  60      1A35CDC2 
  61 020f 3F64EBBC 		.ascii	"?d\353\274\006I\030%^\371\352\304\263\245\001\242\356"
  61      06491825 
  61      5EF9EAC4 
  61      B3A501A2 
  61      EE
  62 0220 9FC97A0D 		.ascii	"\237\311z\015\003\"oT\014^\271\311\241b\241\315\302"
  62      03226F54 
  62      0C5EB9C9 
  62      A162A1CD 
  62      C2
  63 0231 1B52BF88 		.ascii	"\033R\277\210Tn&\275\331\025\217\255V\351\015~\272\314"
  63      546E26BD 
  63      D9158FAD 
  63      56E90D7E 
  63      BACC
  64 0243 1D7F68A8 		.ascii	"\035\177h\250L\267w\215s\2256\252JG\334sP,\304j\000"
  64      4CB7778D 
  64      739536AA 
  64      4A47DC73 
  64      502CC46A 
  65 0258 36D60144 		.ascii	"6\326\001D>\305\235)\200\307\305\302\2275\000\341\205"
  65      3EC59D29 
  65      80C7C5C2 
  65      973500E1 
  65      85
  66 0269 B1F70026 		.ascii	"\261\367\000&\237N\027\226x\207'$7\037\371\377c\023"
  66      9F4E1796 
  66      78872724 
  66      371FF9FF 
  66      6313
  67 027b 74BB7407 		.ascii	"t\273t\007n\277\311\207\375\024\261Do\256\352\342NB"
  67      6EBFC987 
  67      FD14B144 
  67      6FAEEAE2 
ARM GAS  /tmp/ccnA0Hbj.s 			page 5


  67      4E42
  68 028d 1E8BB007 		.ascii	"\036\213\260\0070X\276s\326u\015\000\337\031Z\270\022"
  68      3058BE73 
  68      D6750D00 
  68      DF195AB8 
  68      12
  69 029e 8F720D1B 		.ascii	"\217r\015\033\027{9\272\364\032\221tw 4+\3513.\250\273"
  69      177B39BA 
  69      F41A9174 
  69      7720342B 
  69      E9332EA8 
  70 02b3 B74B6F22 		.ascii	"\267Ko\"\007\373\\\261\377\367\303\327\036\223\260+"
  70      07FB5CB1 
  70      FFF7C3D7 
  70      1E93B02B 
  71 02c3 407CE626 		.ascii	"@|\346&}3\357MZ\344_\204\376\222\241\220\310\"\011\254"
  71      7D33EF4D 
  71      5AE45F84 
  71      FE92A190 
  71      C82209AC 
  72 02d7 DE898647 		.ascii	"\336\211\206G\353\234\310\302\337\244+\314kE\"\370\264"
  72      EB9CC8C2 
  72      DFA42BCC 
  72      6B4522F8 
  72      B4
  73 02e8 154D4E0B 		.ascii	"\025MN\013+zXkE\1776\266\372\376<\343I\257\253<I\232"
  73      2B7A586B 
  73      457F36B6 
  73      FAFE3CE3 
  73      49AFAB3C 
  74 02fe 2A27F0D9 		.ascii	"*'\360\331\266da\221\002\277\264gC\026^\306VE\353\021"
  74      B6646191 
  74      02BFB467 
  74      43165EC6 
  74      5645EB11 
  75 0312 E4CB13DC 		.ascii	"\344\313\023\334\327MM\356\240\353I-\020k\227\307bf"
  75      D74D4DEE 
  75      A0EB492D 
  75      106B97C7 
  75      6266
  76 0324 7BD2EEB4 		.ascii	"{\322\356\264\267\306\315\356\254\231\311\231\331\014"
  76      B7C6CDEE 
  76      AC99C999 
  76      D90C
  77 0332 37793295 		.ascii	"7y2\225\355\212q`<\227n\233\265\"\335\235\311e\315\315"
  77      ED8A7160 
  77      3C976E9B 
  77      B522DD9D 
  77      C965CDCD 
  78 0346 DB3BDA3B 		.ascii	"\333;\332;\372h)\357\316$v\367nH\305\222\020\350\265"
  78      FA6829EF 
  78      CE2476F7 
  78      6E48C592 
  78      10E8B5
  79 0359 F6F62462 		.ascii	"\366\366$b\265\031\211\276\234\331\336\021\377.n\332"
  79      B51989BE 
  79      9CD9DE11 
ARM GAS  /tmp/ccnA0Hbj.s 			page 6


  79      FF2E6EDA 
  80 0369 FBF8DE9E 		.ascii	"\373\370\336\236=\011Sf\360\324\226\236}\234\222V\314"
  80      3D095366 
  80      F0D4969E 
  80      7D9C9256 
  80      CC
  81 037a 2AE0AF4B 		.ascii	"*\340\257Kf\017diEKG|{\264\323\312&\322\031{mt\325:"
  81      660F6469 
  81      454B477C 
  81      7BB4D3CA 
  81      26D2197B 
  82 0392 D03260A4 		.ascii	"\3202`\244\022\251\356\314\001\320ri\226\333\237^9\027"
  82      12A9EECC 
  82      01D07269 
  82      96DB9F5E 
  82      3917
  83 03a4 084FEE21 		.ascii	"\010O\356!\224\217\213\237\313\323"
  83      948F8B9F 
  83      CBD3
  84              		.text
  85              		.section	.gnu.lto_chMsgWait.2f5ce2745aa5bc01,"",%progbits
  86 0000 789C9D55 		.ascii	"x\234\235U]h\024W\024>\347\316\354N\262?1\324\027\025"
  86      5D681457 
  86      143EE7CE 
  86      EC4EB23F 
  86      31D41715 
  87 0014 0DAB2088 		.ascii	"\015\253 \210\261;B\037\304\007A\011\010>\004\301(\255"
  87      B13B421F 
  87      C4074109 
  87      083E04C1 
  87      28AD
  88 0026 4F65322E 		.ascii	"Oe2.\331\001\327\304\335\215h\205z\023#\370\027\214"
  88      D901D7C4 
  88      DD8D6885 
  88      7A1323F8 
  88      178C
  89 0038 A2F80FA6 		.ascii	"\242\370\017\246\266}\250\266b\267R\221\264]j\360\007"
  89      B67DA8B6 
  89      62B75291 
  89      B45D6AF0 
  89      07
  90 0049 698A1441 		.ascii	"i\212\024AEp#\265\025\354\203\301ZB\210Y\317\275wf\366"
  90      457023B5 
  90      15EC83C1 
  90      5A428859 
  90      CFBD7766 
  91 005e 474D42EF 		.ascii	"GMB\35723g\356\334\363\235s\276\373\335\263\014\030"
  91      323367EE 
  91      DCF39D73 
  91      BEFBDDB3 
  91      0C18
  92 0070 548F8FE8 		.ascii	"T\217\217\350\3727\010\020B\000\014\000\262\276!\200"
  92      FA370810 
  92      42000C00 
  92      B2BE2180 
  93 0080 AE1AC6B4 		.ascii	"\256\032\306\264W\006\360\220~\372\006\000\217h\250"
  93      5706F090 
ARM GAS  /tmp/ccnA0Hbj.s 			page 7


  93      7EFA0600 
  93      8F68A8
  94 008f AB791D51 		.ascii	"\253y\035Q\030\200\260\213i:\356\332\210\002\004\027"
  94      1880B08B 
  94      693AEEDA 
  94      88020417 
  95 009f 403FE747 		.ascii	"@?\347G\012{&\236\341I\236\3579\307\307\213ED\007)`"
  95      0A7B269E 
  95      E1499EEF 
  95      39C7C78B 
  95      45440729 
  96 00b4 0CC146F8 		.ascii	"\014\301F\370\204^0&\037L\257\314\340\022\313\027\212"
  96      845E3026 
  96      1F4CAFCC 
  96      E012CB17 
  96      8A
  97 00c5 C5F19FFE 		.ascii	"\305\361\237\376\031>\200\037\314\324\201\274\202\342"
  97      193E801F 
  97      CCD481BC 
  97      82E2
  98 00d3 66D04D0B 		.ascii	"f\320M\013\013+\"\254(X\330O\201\352\304\014\215\000"
  98      0B2B22AC 
  98      2858D84F 
  98      81EAC40C 
  98      8D00
  99 00e5 F470DE17 		.ascii	"\364p\336\027S\223 b\320XOw\221\337\006d\342\251\335"
  99      53932062 
  99      D0584F77 
  99      91DF0664 
  99      E2A9DD
 100 00f8 86EE1A00 		.ascii	"\206\356\032\0007\273\343\303\003K*\262\323\031\254"
 100      37BBE3C3 
 100      034B2AB2 
 100      D319AC
 101 0107 9D2A3B31 		.ascii	"\235*;1\247\307\310\030\202\356\221ow\347\016jn`/\203"
 101      A7C7C818 
 101      82EE916F 
 101      77E70E6A 
 101      6E602F83 
 102 011b FCA55FC7 		.ascii	"\374\245_\307\352\231\205_\3124\334\271\334\321\201"
 102      EA99855F 
 102      CA34DCB9 
 102      DCD181
 103 012a F05CFF6D 		.ascii	"\360\\\377m\337kJ\313\302\363\304\257\215\" \243K\223"
 103      DF6B4ACB 
 103      C2F3C4AF 
 103      8D2220A3 
 103      4B93
 104 013c C4D1EF6B 		.ascii	"\304\321\357k2i_4\2659\015\360#\236\345'V:\264\270<"
 104      32695F34 
 104      B5390DF0 
 104      239EE527 
 104      563AB4B8 
 105 0151 7CE9FB35 		.ascii	"|\351\3735\367{P%\370\033t?\034\235\030e\012\277\015"
 105      F77B5025 
 105      F81B743F 
 105      1C9D1865 
ARM GAS  /tmp/ccnA0Hbj.s 			page 8


 105      0ABF0D
 106 0164 F546584C 		.ascii	"\365FXL\0145\3027\234\306V\007\215\323p\252\213\363"
 106      0C35C237 
 106      9CC65607 
 106      8DD370AA 
 106      8BF3
 107 0176 7A076B76 		.ascii	"z\007kv\302\030\337+\254\332\024z\350\265\022\245\025"
 107      C218DF2B 
 107      ACDA147A 
 107      E8B512A5 
 107      15
 108 0187 C17DBA06 		.ascii	"\301}\272\006\020uyS\201*\376\362\217o\366\316\346\347"
 108      10757953 
 108      812AFEF2 
 108      8F6FF6CE 
 108      E6E7
 109 0199 BAFBF804 		.ascii	"\272\373\370\004\321G!,\374BV2\031}\224\217J\361\321"
 109      D147212C 
 109      FC425632 
 109      197D948F 
 109      4AF1D1
 110 01ac 9307A73E 		.ascii	"\223\007\247>\257\246\356\316\353\221\200\2059\311\234"
 110      AFA6EECE 
 110      EB918085 
 110      39C99C
 111 01bb C78FAEDC 		.ascii	"\307\217\256\334\302\252\200\302\261\241{#\250\225\012"
 111      C2AA80C2 
 111      B1A17B23 
 111      A8950A
 112 01ca FAD8C190 		.ascii	"\372\330\301\220_P\230\340ET/w&`\256\010\346Z\005\277"
 112      5F5098E0 
 112      45542F77 
 112      2660AE08 
 112      E65A05BF 
 113 01de AE2D1318 		.ascii	"\256-\023\030\333}M\263\360\007IQd'|F\212r\021_\342"
 113      DB7D4DB3 
 113      F0074951 
 113      64277C46 
 113      8A72115F 
 114 01f3 F4207DB4 		.ascii	"\364 }\264[0\370\367\360\323\211\245\036\343\344\022"
 114      5B30F8F7 
 114      F0D389A5 
 114      1EE3E412 
 115 0203 2955BC81 		.ascii	")U\274\201\"\2772\264\337\241\2470~=\244\326\000\370"
 115      22BF32B4 
 115      DFA1A730 
 115      7E3DA4D6 
 115      00F8
 116 0215 CC476C05 		.ascii	"\314Gl\005\"\331\212\0121\327y~\272\224\254 \353~\361"
 116      22D98A0A 
 116      31D7797E 
 116      BA94AC20 
 116      EB7EF1
 117 0228 BEE6A107 		.ascii	"\276\346\241\007\275\375\\\374\277\267R\226\377\027"
 117      BDFD5CFC 
 117      BFB75296 
 117      FF17
ARM GAS  /tmp/ccnA0Hbj.s 			page 9


 118 0236 7A884645 		.ascii	"z\210FE\371\207\335\362Q\326\036\254\252\335\033B\015"
 118      F987DDF2 
 118      51D61EAC 
 118      AADD1B42 
 118      0D
 119 0247 CB275383 		.ascii	"\313'S\203\306\340O\234\3520Ql\245\2063\377\335\275"
 119      C6E04F9C 
 119      EA30516C 
 119      A58633FF 
 119      DDBD
 120 0259 78DE70E5 		.ascii	"x\336p\345\240\000\371\367\234\327\312\243\251MS[\276"
 120      A000F9F7 
 120      9CD7CAA3 
 120      A94D535B 
 120      BE
 121 026a 8C0E142D 		.ascii	"\214\016\024-\013\007+T\024T\341\242\256\212.\037z:"
 121      0B072B54 
 121      1454E1A2 
 121      AE8A2E1F 
 121      7A3A
 122 027c E74382F5 		.ascii	"\347C\202\365\371\013\271\245j\213T\251R-\267\324\326"
 122      F90BB9A5 
 122      6A8B54A9 
 122      522DB7D4 
 122      D6
 123 028d 885AE759 		.ascii	"\210Z\347Yx\203\336,\274I\260\204\243\322>\221\353m"
 123      7883DE2C 
 123      BC49B084 
 123      A3D23E91 
 123      EB6D
 124 029f 541FDAB0 		.ascii	"T\037\332\260N\355K\271p\242\345\344\351e\210\344{\373"
 124      4EED4BB9 
 124      70A2E5E4 
 124      E96588E4 
 124      7BFB
 125 02b1 85A13C5D 		.ascii	"\205\241<]\332\243\323\313\246M\310\203\334\357\\\315"
 125      DAA3D3CB 
 125      A64DC883 
 125      DCEF5CCD 
 126 02c1 F59A1500 		.ascii	"\365\232\025\000+\252\202\327\225\007\017\224\001\030"
 126      2BAA82D7 
 126      95070F94 
 126      0118
 127 02cf B2A2174F 		.ascii	"\262\242\027O~\231\245\310\361:\246\304\275:Z\034u\205"
 127      7E99A5C8 
 127      F13AA6C4 
 127      BD3A5A1C 
 127      7585
 128 02e1 E1E2861D 		.ascii	"\341\342\206\035\234\341\313\241\242\242`I\267QESYo"
 128      9CE1CBA1 
 128      A2A26049 
 128      B7514553 
 128      596F
 129 02f3 EDFFB9AA 		.ascii	"\355\377\271\252\267Z\370\325\224;(\273\2330\336\337"
 129      B75AF8D5 
 129      943B28BB 
 129      9B30DEDF 
ARM GAS  /tmp/ccnA0Hbj.s 			page 10


 130 0303 5C1F8E8B 		.ascii	"\\\037\216\213\346\372Ges}\036n\360\377\000J]v\220\225"
 130      E6FA4765 
 130      737D1E6E 
 130      F0FF004A 
 130      5D769095 
 131 0317 F6DF10A8 		.ascii	"\366\337\020\2506\326\274\243\321Zx\201\014?\264\327"
 131      36D6BCA3 
 131      D15A7881 
 131      0C3FB4D7 
 132 0327 582DFC0E 		.ascii	"X-\374\016\033TZw\241\253\260?\341\035\227\250\232\\"
 132      1B545A77 
 132      A1ABB03F 
 132      E11D97A8 
 132      9A5C
 133 0339 4FEAA6F3 		.ascii	"O\352\246\363)\326\316\213\307\315\246\244\323\352\254"
 133      29D6CE8B 
 133      C7CDA6A4 
 133      D3EAAC
 134 0348 6D31DB33 		.ascii	"m1\3333f:kf\322\266i'S\231\266\270\015,\333\321\370"
 134      663A6B66 
 134      D2B66927 
 134      5399B6B8 
 134      0D2CDBD1 
 135 035d D6828EF6 		.ascii	"\326\202\216\366t6c\256Z\327\334\324\274\235V\332\355"
 135      743663AE 
 135      5AD7DCD4 
 135      BC9D56DA 
 135      ED
 136 036e E9C4A7DB 		.ascii	"\351\304\247\333\226\245\342I\010l\2636w&\342\225\036"
 136      96A5E249 
 136      086CB336 
 136      7726E295 
 136      1E
 137 037f 89ED59B3 		.ascii	"\211\355Y\263\251\271eM\213\351l\2617wnJ\230\322\303"
 137      A9B9654D 
 137      8BE96CB1 
 137      37776E4A 
 137      98D2C3
 138 0392 4EADEEDC 		.ascii	"N\255\356\334b\223\323\374\267\002\370\353\222\231\035"
 138      6293D3FC 
 138      B702F8EB 
 138      92991D
 139 03a1 195A51DF 		.ascii	"\031ZQ\337\334\262.\326je\022\035igIl\341R`i0R\211T"
 139      DCB22ED6 
 139      6A65121D 
 139      6967496C 
 139      E1526069 
 140 03b9 7B7AC7A4 		.ascii	"{z\307\244\336\242\206$h\331\255\035\013&\213a'7\321"
 140      DEA28624 
 140      68D9AD1D 
 140      0B268B61 
 140      2737D1
 141 03cc B237EB72 		.ascii	"\2627\353r\370("
 141      F828
 142              		.text
 143              		.section	.gnu.lto_chMsgRelease.2f5ce2745aa5bc01,"",%progbits
 144 0000 789C8D52 		.ascii	"x\234\215RMh\023A\024~o\266\333D{0WA\303Z\350\311\262"
ARM GAS  /tmp/ccnA0Hbj.s 			page 11


 144      4D681341 
 144      147E6FB6 
 144      DB447B30 
 144      5741C35A 
 145 0017 EBCDAB12 		.ascii	"\353\315\253\022\020\004\203\320T\320\223l\327\245\273"
 145      100483D0 
 145      54D0936C 
 145      D7A5BB
 146 0026 D06DC26E 		.ascii	"\320m\302nRZz\350$V\320\"\222\026\017z\020\2149\024"
 146      525A7AE8 
 146      2456D022 
 146      92160F7A 
 146      108C3914 
 147 003a 8B6DA116 		.ascii	"\213m\241\026\274\224v\351\255\024*\202z\020\017\361"
 147      BC9476E9 
 147      AD142A82 
 147      7A100FF1 
 148 004a E4C14BBD 		.ascii	"\344\301K\275I-\254ov\2235I\245u`f\336\274\277\357\275"
 148      492DAC6F 
 148      76933549 
 148      A5756066 
 148      DEBCBFEF 
 149 005f F70D0306 		.ascii	"\367\015\003\006\335\353,mI\002\370N7J\200\254\272\007"
 149      DDEB2C6D 
 149      4902F84E 
 149      374A80AC 
 149      BA07
 150 0071 504E3244 		.ascii	"PN2D!\000\302\014\303\231;\030\372\2562\277\021\004"
 150      2100C20C 
 150      C3993B18 
 150      FAAE32BF 
 150      1104
 151 0083 2B9B732B 		.ascii	"+\233s+_q\211\235\226\320A\350\241CXe\230\345\274\252"
 151      5F71899D 
 151      96D041E8 
 151      A1435865 
 151      98E5BCAA 
 152 0097 38481046 		.ascii	"8H\020F\350>L\247\310q\213TtK;PI\002\364C\215\363\205"
 152      E83E4CA7 
 152      C8718B54 
 152      744B3B50 
 152      4902F443 
 153 00ae C6FCB78D 		.ascii	"\306\374\267\215\301\347\334\237}\311\017\203\000\321"
 153      C1E7DC9F 
 153      7DC90F83 
 153      00D1
 154 00bc 462AED06 		.ascii	"F*\355\006\212\310\333\364@%\274XOg\255B\007\012\011"
 154      8AC8DBF4 
 154      4025BC58 
 154      4F67AD42 
 154      070A09
 155 00cf 7B50F9B9 		.ascii	"{P\371\271t\377\355c\251\211\332\202\367\353\333\007"
 155      74FFED63 
 155      A989DA82 
 155      F7EBDB07 
 156 00df 29A6E32B 		.ascii	")\246\343+\354\217K\362\027\237n\364\235\213_;\037\251"
 156      EC8F4BF2 
ARM GAS  /tmp/ccnA0Hbj.s 			page 12


 156      179F6EF4 
 156      9D8B5F3B 
 156      1FA9
 157 00f1 401D6B28 		.ascii	"@\035k(\023\230\000d\264%\010[E\250\223Hv)\032T\032"
 157      13980064 
 157      B425085B 
 157      45A89348 
 157      76291A54 
 158 0106 D6F1057F 		.ascii	"\326\361\005\177v\305\216\034b\370\277\366wM{\263\320"
 158      76C58E1C 
 158      62F8BFF6 
 158      774D7BB3 
 158      D0
 159 0117 F616FDAD 		.ascii	"\366\026\375\255\271]\344\013\274\274\037\004gl\224"
 159      B95DE40B 
 159      BCBC1F04 
 159      676C94
 160 0126 196CE149 		.ascii	"\031l\341I\015\216\012\240\266$U\276\306\371\251pF\222"
 160      0D8E0AA0 
 160      B62455BE 
 160      C6F9A970 
 160      4692
 161 0138 8DBD0CB6 		.ascii	"\215\275\014\266\377#\005)\336\303\203\375'\213\277"
 161      FF230529 
 161      DEC383FD 
 161      278BBF
 162 0147 7F61F77C 		.ascii	"\177a\367|v?Ud\035Wi<:.\207Cj\215\242\231f\032\016\370"
 162      763F5564 
 162      1D57693C 
 162      3A2E8743 
 162      6A8DA299 
 163 015f 439EB231 		.ascii	"C\236\2621a y\256\221-\252\213\362\332\230\354l\261"
 163      612079AE 
 163      912DAA8B 
 163      F2DA98EC 
 163      6CB1
 164 0171 315FDBEC 		.ascii	"1_\333\354bQ\307z8\321\023i\204ci\374r(h\\\357\244\361"
 164      6251C77A 
 164      38D11369 
 164      846369FC 
 164      7228685C 
 165 0188 475F3AFE 		.ascii	"G_:\376g\261\372\321\3476>{EV\003\023\377\240T\307\327"
 165      67B1FAD1 
 165      E7363E7B 
 165      45560313 
 165      FFA054C7 
 166 019d 24C4D02D 		.ascii	"$\304\320-\012u|\203\351H\363\001\312\215\345\201(U"
 166      0A757C83 
 166      E948F301 
 166      CA8DE581 
 166      2855
 167 01af 6B0DD3BC 		.ascii	"k\015\323\274\351\357\012\327\363\252\252e,{\304\276"
 167      E9EF0AD7 
 167      F3AAAA65 
 167      2C7BC4BE 
 168 01bf 99D3F29E 		.ascii	"\231\323\362\236\346\0265\31754\303r\274Q\325\200\213"
 168      E61635CF 
ARM GAS  /tmp/ccnA0Hbj.s 			page 13


 168      3534C372 
 168      BC51D580 
 168      8B
 169 01d0 47AC85BC 		.ascii	"G\254\205\274[\364\264\253C\331Lv\222\334\214\274k\336"
 169      5BF4B4AB 
 169      43D94C76 
 169      92DC8CBC 
 169      6BDE
 170 01e2 9DB8ECA8 		.ascii	"\235\270\354\250\026\310\023\372X\311T;#\314\311\242"
 170      16C813FA 
 170      58C9543B 
 170      23CCC9A2 
 171 01f2 96C9E6AE 		.ascii	"\226\311\346\256\3474{\334\030+\3353\2650\302p\256\225"
 171      E7347BDC 
 171      182BDD33 
 171      B530C270 
 171      AE95
 172 0204 C60D0ABA 		.ascii	"\306\015\012\272p\004 \366\263\274)\217<R\331\334\220"
 172      700420F6 
 172      B3BC298F 
 172      3C52D9DC 
 172      90
 173 0215 32A27B66 		.ascii	"2\242{f\301\265\007\225\201K\300\\H8\246\223w\247\200"
 173      C1B50795 
 173      814BC05C 
 173      4838A693 
 173      77A780
 174 0228 150B1215 		.ascii	"\025\013\022\025z\\\022\321\207\005\177\000\300\253"
 174      7A5C12D1 
 174      87057F00 
 174      C0AB
 175 0236 FC17     		.ascii	"\374\027"
 176              		.text
 177              		.section	.gnu.lto_.symbol_nodes.2f5ce2745aa5bc01,"",%progbits
 178 0000 789C45C8 		.ascii	"x\234E\310\273\015\2000\020\203a\373.\241d\005F\275"
 178      BB0D8030 
 178      108361FB 
 178      2EA16405 
 178      46BD
 179 0012 48691015 		.ascii	"Hi\020\025\023\260\0053\320\261\003\242\245\341YP \220"
 179      13B00533 
 179      D0B103A2 
 179      A5E15950 
 179      2090
 180 0024 40C4D5FF 		.ascii	"@\304\325\377Y 0|\223\231O\327=`\326\224\364\033\237"
 180      5920307C 
 180      93994FD7 
 180      3D60D694 
 180      F41B9F
 181 0037 822C34A6 		.ascii	"\202,4\246WV\232$\362\240\351\313\020\310\235\346\222"
 181      57569A24 
 181      F2A0E9CB 
 181      10C89DE6 
 181      92
 182 0048 4E9AFFA5 		.ascii	"N\232\377\245\360\030\273N\025\016\261\232\012\025\207"
 182      F018BB4E 
 182      150EB19A 
ARM GAS  /tmp/ccnA0Hbj.s 			page 14


 182      0A1587
 183 0057 B1CD5533 		.ascii	"\261\315U3\304\341\"n\354\374&\254"
 183      C4E1226E 
 183      ECFC26AC 
 184              		.text
 185              		.section	.gnu.lto_.refs.2f5ce2745aa5bc01,"",%progbits
 186 0000 789C6362 		.ascii	"x\234cb`b\340f\200\000F bb\002R\214\014\000\001s\000"
 186      6062E066 
 186      80004620 
 186      62620252 
 186      8C0C0001 
 187 0016 18       		.ascii	"\030"
 188              		.text
 189              		.section	.gnu.lto_.decls.2f5ce2745aa5bc01,"",%progbits
 190 0000 789CBD5B 		.ascii	"x\234\275[\015p\024U\236\357\356\231d2I\010\250\013"
 190      0D701455 
 190      9EEFEE99 
 190      64324908 
 190      A80B
 191 0012 C7BAEE19 		.ascii	"\307\272\356\031,\367\343\334\202Ae\001\257\356\026"
 191      2CF7E3DC 
 191      82416501 
 191      AFEE16
 192 0021 5DEA4EB9 		.ascii	"]\352N\271:w))\313\253\273\253\235k&\235d\226\371\242"
 192      3A772929 
 192      CBABBBAB 
 192      9D6B269D 
 192      6496F9A2 
 193 0035 A743A0EA 		.ascii	"\247C\240\352\252\354\204\360\341\327\222\200\220`\370"
 193      AAEC84F0 
 193      E1D79280 
 193      9060F8
 194 0044 0822EB2A 		.ascii	"\010\"\353*\012+, \356\346\030\225OA\001e\011\011_#"
 194      0A2B2C20 
 194      EEE61895 
 194      4F410165 
 194      09095F23 
 195 0058 123EC40F 		.ascii	"\022>\304\017B@\004\204\334\377\375\373uOwO\367Lw\320"
 195      42400484 
 195      DCFFFDFB 
 195      754F774F 
 195      F74C77D0 
 196 006c EDAAF7FA 		.ascii	"\355\252\367\372\245\347\275\337\373\177\377\337{\335"
 196      A5E7BDDF 
 196      FB7FFFDF 
 196      7BDD
 197 007a E1188EB9 		.ascii	"\341\030\216\271\233c\230>\270~\362O\014\323\340c\030"
 197      9B63983E 
 197      B87EF24F 
 197      0CD3E063 
 197      18
 198 008b 2FC330BF 		.ascii	"/\3030\277\200\302\322B\256B(+\240\374'<\370\015\224"
 198      80C2D242 
 198      AE42282B 
 198      A0FC273C 
 198      F80D94
 199 009e 4A28BF85 		.ascii	"J(\277\205\022c\225>\011\265#\275H\337\357AY\003\245"
ARM GAS  /tmp/ccnA0Hbj.s 			page 15


 199      1263953E 
 199      09B523BD 
 199      48DFEF41 
 199      5903A5
 200 00b1 0C4A2994 		.ascii	"\014J)\224N\332w:TS\241tAi\207\277\017\303\375(\224"
 200      4EDA773A 
 200      5453A174 
 200      416987BF 
 200      0FC3FD28 
 201 00c6 95D02E80 		.ascii	"\225\320.\200\373Z\270\377\000\356\347\341~\034\356"
 201      FB5AB8FF 
 201      00EEE7E1 
 201      7E1CEE
 202 00d5 53A0A4A1 		.ascii	"S\240\244\241TA)\206g\265p\237\013\305\013\3456(\023"
 202      54412986 
 202      67B5709F 
 202      0BC50BE5 
 202      362813
 203 00e8 A06C80E7 		.ascii	"\240l\200\347w\301}\023\334\277\204\342\203\266\237"
 203      77C17D13 
 203      DCBF84E2 
 203      83B69F
 204 00f7 D2F131B4 		.ascii	"\322\3611\264\273\241\234\201\322C\351&\364_\205r\235"
 204      BBA19C81 
 204      D243E926 
 204      F45F8572 
 204      9D
 205 0108 55F87D02 		.ascii	"U\370}\002\356\217\023\342\270l^\010\317\203,x\321\323"
 205      EE8F13E2 
 205      B86C5E08 
 205      CF832C78 
 205      D1D3
 206 011a AEE7E907 		.ascii	"\256\347\351\007\224\2074\345\267\212\362\342\323\321"
 206      948734E5 
 206      B78AF2E2 
 206      D3D1
 207 0128 4E681E46 		.ascii	"Nh\036F\351Vi\366\323\271\364\364\026r\012\255\003\271"
 207      E95669F6 
 207      D3B9F4F4 
 207      16720AAD 
 207      03B9
 208 013a 0CBD56F2 		.ascii	"\014\275V\362\376\015\345\267]G\243J\033\241\233\310"
 208      FE0DE5B7 
 208      5D47A34A 
 208      1BA19BC8 
 209 014a 76306004 		.ascii	"v0`\004\351\270\":F?\327\020N\321\247:\217\007\372\204"
 209      E9B8223A 
 209      463FD710 
 209      4ED1A73A 
 209      8F07FA84 
 210 015e E05E4178 		.ascii	"\340^Ax\342\214\363\335\311,\223\333\322\351\356so~"
 210      E28CF3DD 
 210      C92C93DB 
 210      D2E9EE73 
 210      6F7E
 211 0170 5F6EAB4F 		.ascii	"_n\253O\365\365\215c\2060\013e\270\332f\3132+\371\231"
 211      F5F58D63 
ARM GAS  /tmp/ccnA0Hbj.s 			page 16


 211      86300B65 
 211      B8DA66CB 
 211      322BF999 
 212 0184 B9F48F47 		.ascii	"\271\364\217Gv\002=\377\301\362l\231\237)\307F\251\037"
 212      76023DFF 
 212      C1F26C99 
 212      9F29C746 
 212      A91F
 213 0196 45FE23E6 		.ascii	"E\376#\346%YnL7\255z\366\237e\271\210gW\262~\220>(\342"
 213      25596E4C 
 213      37AD7AF6 
 213      9F65B988 
 213      6757B27E 
 214 01ae 1EE61518 		.ascii	"\036\346\025\030\332(\313/\006L\\\342\345\030\272m\361"
 214      DA28CB2F 
 214      064C5CE2 
 214      E518BA6D 
 214      F1
 215 01bf 8EC1B297 		.ascii	"\216\301\262\227g_F\340C,\313\360\354\357\331{\334\302"
 215      675F46E0 
 215      432CCBF0 
 215      ECEFD97B 
 215      DCC2
 216 01d1 A49BF66E 		.ascii	"\244\233\366n\032\213\024\276\212@\335\234\021\210g"
 216      1A8B14BE 
 216      8A40DD9C 
 216      118867
 217 01e0 0BFD7AFA 		.ascii	"\013\375z\372\360o\265\003A\203?\311L_\023\037c\237"
 217      F06FB503 
 217      41833FC9 
 217      4C5F131F 
 217      639F
 218 01f2 A44FC81F 		.ascii	"\244O\310\037>\346o>\316\212M\002\361\";\004[\036\006"
 218      3EE66F3E 
 218      CE8A4D02 
 218      F1223B04 
 218      5B1E06
 219 0205 155DC23C 		.ascii	"\025]\302<-\313\365T8\2672M\004\257\\'&\331\253\002"
 219      2DCBF554 
 219      38B7324D 
 219      04AF5C27 
 219      26D9AB02 
 220 0219 3C9891D3 		.ascii	"<\230\221\323\226\216-\377\210rZ\313\336\0120\213<F"
 220      968E2DFF 
 220      88725ACB 
 220      DE0A308B 
 220      3C46
 221 022b 39E585E1 		.ascii	"9\345\205\341\230\3458d\035\014W\006\"\260\234^\337"
 221      98E53864 
 221      1D0C5706 
 221      22B09C5E 
 221      DF
 222 023c BA6D265B 		.ascii	"\272m&[\007f\245\374\306\030`\015\3270\246\015\350N"
 222      0766A5FC 
 222      C618600D 
 222      D730A60D 
 222      E84E
ARM GAS  /tmp/ccnA0Hbj.s 			page 17


 223 024e 35FF6E29 		.ascii	"5\377n)\230\345;\320\177\015[\002\270{4\\+\376iS\271"
 223      98E53BD0 
 223      7F0D5B02 
 223      B87B345C 
 223      2BFE6953 
 224 0263 680723DE 		.ascii	"h\007#\336\013\037\2246\362*\330G\256\301\312\015`\313"
 224      0B1F9436 
 224      F22AD847 
 224      AEC1CA0D 
 224      60CB
 225 0275 3F5882C4 		.ascii	"?X\202\304\241\001\326;2\300\025\324E\336B\003\354\362"
 225      A101D63B 
 225      32C015D4 
 225      45DE4203 
 225      ECF2
 226 0287 5858B223 		.ascii	"XX\262#\240\305s\266\275\315\326\243 \333\021\352D\277"
 226      A0C573B6 
 226      BDCDD6A3 
 226      20DB11EA 
 226      44BF
 227 0299 A19AE6FD 		.ascii	"\241\232\346\375\345\001\244)\205@\347<f\247\360\231"
 227      E501A429 
 227      8540E73C 
 227      66A7F099 
 228 02a9 9CC26734 		.ascii	"\234\302g4R\374\2316\210m\016d\276\343\356\034\363\225"
 228      52FC9936 
 228      886D0E64 
 228      BEE3EE1C 
 228      F395
 229 02bb 13C515D9 		.ascii	"\023\305\025\331Y\201\234^\327\272\307\263XN5x\250%"
 229      59819C5E 
 229      D7BAC7B3 
 229      584E3578 
 229      A825
 230 02cd B715DAC9 		.ascii	"\267\025\332\311\210c\256\343\\\333\314\226\334zb\347"
 230      8863AEE3 
 230      5CDBCC96 
 230      DC7A62E7 
 231 02dd 3FB4C8F2 		.ascii	"?\264\310\362 \345\247\374\206\274\341\275f\264\225"
 231      20E5A7FC 
 231      86BCE1BD 
 231      66B495
 232 02ec 7CFED8C6 		.ascii	"|\376\330\306\251\323\337\215\323\277\356%\323\277g"
 232      A9D3DF8D 
 232      D3BFEE25 
 232      D3BF67
 233 02fb 9EBEF793 		.ascii	"\236\276\367\2233\343\224\351\337s4\375\376\017\237"
 233      33E394E9 
 233      DF7334FD 
 233      FE0F9F
 234 030a CF9E9E67 		.ascii	"\317\236\236g\17718\227e\264\2368s\307r\234\344\003"
 234      7F313897 
 234      65B49E38 
 234      73C7729C 
 234      E403
 235 031c F4976EAF 		.ascii	"\364\227n\257\3314\306\225\030\225\007\177\353:p\314"
 235      D934C695 
ARM GAS  /tmp/ccnA0Hbj.s 			page 18


 235      1895077F 
 235      EB3A70CC 
 236 032c 171AF5FD 		.ascii	"\027\032\365\375rW`s\347\277\275\262N\226\237*Ti\350"
 236      72576073 
 236      E7BFBDB2 
 236      4E969F2A 
 236      5469E8
 237 033f 718D586E 		.ascii	"q\215Xn\020\304\201\0171\000(`\027\235\200\331\332Q"
 237      10C4810F 
 237      31002860 
 237      179D80D9 
 237      DA51
 238 0351 7DEAA01E 		.ascii	"}\352\240\036\354\262k0#e\207\364`W\235\200\015\262"
 238      ECB26B30 
 238      236587F4 
 238      60579D80 
 238      0DB2
 239 0363 A7AC4B0F 		.ascii	"\247\254K\017v\3355\230\221\262#z0\271\300\001\330P"
 239      76DD3598 
 239      91B2237A 
 239      30B9C001 
 239      D850
 240 0375 7BCA8EE9 		.ascii	"{\312\216\351\301\032\\\203\031);\257\007\233\353\004"
 240      C11A5C83 
 240      19293BAF 
 240      079BEB04 
 241 0385 ACDC8232 		.ascii	"\254\334\2022\355\262\313\251\273X\315\3169\346\231"
 241      EDB2CBA9 
 241      BB58CDCE 
 241      39E699
 242 0394 023520B8 		.ascii	"\0025 \270\264i&\2031\257\300m\0003\360\015y\364\375"
 242      B4692683 
 242      31AFC06D 
 242      0033F00D 
 242      79F4FD
 243 03a7 95EC8299 		.ascii	"\225\354\202\231\362\316\221j.[\350\0041\207\301l\324"
 243      F2CE916A 
 243      2E5BE804 
 243      3187C16C 
 243      D4
 244 03b8 27C6A5AE 		.ascii	"'\306\245\256\301\214j9@\300\014\241\206\246\243\364"
 244      C18C6A39 
 244      40C00CA1 
 244      86A6A3F4 
 245 03c8 AAD4D096 		.ascii	"\252\324\320\226L\260+R\261\310\352P\211l\260X\344\264"
 245      4CB02B52 
 245      B1C8EA50 
 245      896CB058 
 245      E4B4
 246 03da CEF2D0A1 		.ascii	"\316\362\320\241\326}y\366\034\373#\250?c\375\032\025"
 246      D67D79F6 
 246      1CFB23A8 
 246      3F63FD1A 
 246      15
 247 03eb 4A5B6DF5 		.ascii	"J[m\365\261D\316\253\012\254\326\235\010\220{\250\235"
 247      B144CEAB 
 247      0AACD69D 
ARM GAS  /tmp/ccnA0Hbj.s 			page 19


 247      08907BA8 
 247      9D
 248 03fc 259CD55B 		.ascii	"%\234\325[\302\253N\304\224\303\025\256}\260\344\357"
 248      C2AB4EC4 
 248      94C315AE 
 248      7DB0E4EF 
 249 040c E4748AD5 		.ascii	"\344t\212\325\361\233S8\220\253/\235\363`\256>\217\271"
 249      F19B5338 
 249      90AB2F9D 
 249      F360AE3E 
 249      8FB9
 250 041e FA8D02CB 		.ascii	"\372\215\002\313\244\357\000h\361\234\327\177\206@\275"
 250      A4EF0068 
 250      F19CD77F 
 250      8640BD
 251 042d 08F456BF 		.ascii	"\010\364V\277\201\232\346-S\226\324_!\320;\005\346\024"
 251      819AE62D 
 251      5396D45F 
 251      21D03B05 
 251      E614
 252 043f C19A560F 		.ascii	"\301\232V\017\2541\277k\222\247\202\377\256\372\302"
 252      AC31BF6B 
 252      92A782FF 
 252      AEFAC2
 253 044e D2D1AC2D 		.ascii	"\322\321\254-\003;ycMz\375\341\223\013\330\336z\271"
 253      033B7963 
 253      4D7AFDE1 
 253      930BD8DE 
 253      7AB9
 254 0460 65A40BE9 		.ascii	"e\244\013\351\364P}]C\351\034\310\222N\257K\361p\314"
 254      F4507D5D 
 254      43E91CC8 
 254      924EAF4B 
 254      F170CC
 255 0473 11D76CFC 		.ascii	"\021\327l\374\324\310F\353i\367l\\\241l\020\337\344"
 255      D4C846EB 
 255      69F76C5C 
 255      A16C10DF 
 255      E4
 256 0484 9893DF02 		.ascii	"\230\223\337\002\033\237\271fc\244\216\015\330I\034"
 256      1B9FB966 
 256      63A48E0D 
 256      D8491C
 257 0493 BEFCBC12 		.ascii	"\276\374\274\022\001oc\346\347^\303\021zfq\267\031\026"
 257      016F63E6 
 257      E75EC311 
 257      7A6671B7 
 257      1916
 258 04a5 50A94B7B 		.ascii	"P\251K{\331r\345q\276\305\223\234Z\360\341\022\272\011"
 258      D972E571 
 258      BEC5939C 
 258      5AF0E112 
 258      BA09
 259 04b7 5176B6BD 		.ascii	"Qv\266\275H;\031\333\237U\215\234\372\243\222\265\024"
 259      483B19DB 
 259      9F558D9C 
 259      FAA392B5 
ARM GAS  /tmp/ccnA0Hbj.s 			page 20


 259      14
 260 04c8 B0AB3705 		.ascii	"\260\2537\005V\237\3322_\335!\215#\241{f\341\315\301"
 260      569FDA32 
 260      5FDD218D 
 260      23A17B66 
 260      E1CDC1
 261 04db 61AE3784 		.ascii	"a\2567\204n\323\222q\255M\270S\267\216\315\333\325\215"
 261      6ED39271 
 261      AD4DB853 
 261      B78ECDDB 
 261      D58D
 262 04ed C93C8E10 		.ascii	"\311<\216\020\364t\241\331X\326\260\246U#y\240\353b"
 262      F474A1D9 
 262      58D6B0A6 
 262      552379A0 
 262      EB62
 263 04ff A7C3DF71 		.ascii	"\247\303\337q\272\330\273\364\246\370$\366s\364y5\203"
 263      BAD8BBF4 
 263      A6F824F6 
 263      73F47935 
 263      83
 264 0510 2A8A5879 		.ascii	"*\212Xy\223\222[\274`\251\243\025\376\377\250X\245\310"
 264      93925BBC 
 264      60A9A315 
 264      FEFFA858 
 264      A5C8
 265 0522 C86A9CB6 		.ascii	"\310j\234\266\2313-\360{z\323\263\251\034\311o\371\215"
 265      99332DF0 
 265      7B7AD3B3 
 265      A91CC96F 
 265      F98D
 266 0534 F470B75F 		.ascii	"\364p\267_\236_j1\337\203\372\365\204\246\245\003Ml"
 266      9E5F6A31 
 266      DF83FAF5 
 266      84A6A503 
 266      4D6C
 267 0546 03A2B772 		.ascii	"\003\242\267rd\213\337e\322\222\2721z\320\016\210c>"
 267      648BDF65 
 267      D292BA31 
 267      7AD00E88 
 267      633E
 268 0558 C521CBCC 		.ascii	"\305!\313\314\204\203c\326\323-\3762\007\204\327\247"
 268      848363D6 
 268      D32DFE32 
 268      0784D7A7 
 269 0568 7A9ED16F 		.ascii	"z\236\321o\361yv#\313Q\334\376\351\341\302nm%\303\263"
 269      F1797623 
 269      CB51DCFE 
 269      E9E1C26E 
 269      6D25C3B3 
 270 057c 6FBA062B 		.ascii	"o\272\006+\267\"U\265\324\014\267<\333\306\221\025\310"
 270      B72255B5 
 270      D40CB73C 
 270      DBC69115 
 270      C8
 271 058d 0A6E1839 		.ascii	"\012n\0309t\201Z\2738\346\232\246S+\321\3457\316\236"
 271      74815ABB 
ARM GAS  /tmp/ccnA0Hbj.s 			page 21


 271      38E69AA6 
 271      532BD1E5 
 271      37CE9E
 272 05a0 DEAF1729 		.ascii	"\336\257\027)\306\351\342lk\003=ZX\2051z\246\317\354"
 272      C6E9E26C 
 272      6B033D5A 
 272      5885317A 
 272      A6CFEC
 273 05b3 762F9B63 		.ascii	"v/\233c\264\213\303&\216y\312gb\311\351VI\273\354\334"
 273      B48BC326 
 273      8E79CA67 
 273      62C9E956 
 273      49BBECDC 
 274 05c7 7A91DEAD 		.ascii	"z\221\336\255\347\371n\312\011\301\372\276xI\221\\\336"
 274      E7F96ECA 
 274      09C1FABE 
 274      7849915C 
 274      DE
 275 05d8 832F56BF 		.ascii	"\203/V\277\220\345\230E8\363kfs\356\273\272s\0165\347"
 275      90E59845 
 275      38F36B66 
 275      73EEBBBA 
 275      730E35E7 
 276 05ec D71CF9E1 		.ascii	"\327\034\371\341%\364C\325\257\336\326P\373c\011\365"
 276      25F443D5 
 276      AFDED650 
 276      FB6309F5 
 277 05fc A92B6777 		.ascii	"\251+gw\261\010\247,\314w\231\341\\nX\277\021\334\012"
 277      B108A72C 
 277      CC7799E1 
 277      5C6E58BF 
 277      11DC0A
 278 060f 46B1AE54 		.ascii	"F\261\256Tg7I\227\033\220\247\375Y\246\245HFgZ\257\351"
 278      67374997 
 278      1B90A7FD 
 278      59A6A548 
 278      46675AAF 
 279 0624 FC640DFA 		.ascii	"\374d\015\372\311Z\364\2237\260^\257\367\026;\263\370"
 279      C95AF493 
 279      37B05EAF 
 279      F7163BB3 
 279      F8
 280 0635 93DE2C3A 		.ascii	"\223\336,:]\363]\356\320\372V\353\247I\337\244\365\255"
 280      5DF35DEE 
 280      D0FA56EB 
 280      A749DFA4 
 280      F5AD
 281 0647 3BFC9517 		.ascii	";\374\225\027\317\225\\\234\276\275N\335\366\317\350"
 281      CF955C9C 
 281      BEBD4EDD 
 281      F6CFE8
 282 0656 B6A7B364 		.ascii	"\266\247\263d\333nv['\007d\275\375eD\273`a\342s\260"
 282      DB6E765B 
 282      270764BD 
 282      FD6544BB 
 282      6061E273 
 283 066b BB29B713 		.ascii	"\273)\267\023\0069\353\275A3l\336S6\355\330yO\035\315"
ARM GAS  /tmp/ccnA0Hbj.s 			page 22


 283      0639EBBD 
 283      41336CDE 
 283      5336EDD8 
 283      794F1DCD 
 284 067f 4A6FA3A5 		.ascii	"Jo\243\245\335\360Yg\245\034\307u\317\025\221![\263"
 284      DDF05967 
 284      A51CC775 
 284      CF159121 
 284      5BB3
 285 0691 B252EB45 		.ascii	"\262R\353E5+mu\224\225>\262\314J[\335g%\253KO \317n"
 285      352B6D75 
 285      94953EB2 
 285      CC4A5BDD 
 285      6725AB4B 
 286 06a9 4707D961 		.ascii	"G\007\331aL!K\213\334J\277\\/\375\324\302\203KX\205"
 286      4C214B8B 
 286      DC4ABF5C 
 286      2FFDD4C2 
 286      834B5885 
 287 06bd 7E2510BD 		.ascii	"~%\020\275l\306\263\012D?\265\323f}\352\217\0071\253"
 287      6CC6B30A 
 287      443FB5D3 
 287      667DEA8F 
 287      0731AB
 288 06d0 2A56BACE 		.ascii	"*V\272\316\011q#\355\301\266,R\205\273\032\327\210\355"
 288      097123ED 
 288      C1B62C52 
 288      85BB1AD7 
 288      88ED
 289 06e2 AEF1CA0D 		.ascii	"\256\361\312\015x\035\007\325\005\272r\256\276\303\011"
 289      781D07D5 
 289      05BA72AE 
 289      BEC309
 290 06f1 DE587BFA 		.ascii	"\336X{\372.-2\254\251?t\015W\236K\367\231\267\"\020"
 290      2E2D32AC 
 290      A93F740D 
 290      579E4BF7 
 290      99B72210 
 291 0705 E5F01863 		.ascii	"\345\360\030c\003K\302\342&\2547c\275\025\353\223X\237"
 291      034BC2E2 
 291      26AC3763 
 291      BD15EB93 
 291      589F
 292 0717 C2FA0CD6 		.ascii	"\302\372\014\326_b}\025\353>\254\0330\244\246\260\336"
 292      5F627D15 
 292      EB3EAC1B 
 292      30A4A6B0 
 292      DE
 293 0728 85F56EAC 		.ascii	"\205\365n\254\337\307z/\326\373\235\004\\\323*\234\276"
 293      DFC77A2F 
 293      D6FB9D04 
 293      5CD32A9C 
 293      BE
 294 0739 3F5256C7 		.ascii	"?RV\307\330x\334\243\263\317\256\"\243k\336\315\254"
 294      D878DCA3 
 294      B3CFAE22 
 294      A36BDECD 
ARM GAS  /tmp/ccnA0Hbj.s 			page 23


 294      AC
 295 074a 94E5F9E9 		.ascii	"\224\345\371\351\356s\207\310\311\272WMX'\261\333\012"
 295      EE7387C8 
 295      C9BA574D 
 295      5827B1DB 
 295      0A
 296 075b F64ECB69 		.ascii	"\366N\313i\351^\000\3076\312\255\302#\352Z\374t\236"
 296      E95E00C7 
 296      36CAADC2 
 296      23EA5AFC 
 296      749E
 297 076d 6194A61F 		.ascii	"a\224\246\0373\253H<X;{\326 \257\372\320~\030\345\363"
 297      33AB483C 
 297      583B7BD6 
 297      20AFFAD0 
 297      7E18E5F3 
 298 0781 00677803 		.ascii	"\000gx\003\252\274\377L\035\337\361\234\365\373O\205"
 298      AABCFF4C 
 298      1DDFF19C 
 298      F5FB4F85 
 299 0791 463BA11D 		.ascii	"F;\241\035\346\2060F\351p\3149\223h(\235\365\362\272"
 299      E6863046 
 299      E970CC39 
 299      9368289D 
 299      F5F2BA
 300 07a4 3FC87E75 		.ascii	"?\310~u\373\303\263]\\N2\217X\222\271\345\351\335\260"
 300      FBC3B35D 
 300      5C4E328F 
 300      5892B9E5 
 300      E9DDB0
 301 07b7 1E90BFE9 		.ascii	"\036\220\277\351\353\363\230\311\2649\313'X\3079\303"
 301      EBF398C9 
 301      B439CB27 
 301      58C739C3 
 302 07c7 3B418586 		.ascii	";A\205\206<\012\276d\251"
 302      3C0ABE64 
 302      A9
 303 07d0 60F95AC5 		.ascii	"`\371Z\305#\252\251\034\344HH<f\303\206Q\267\313U\335"
 303      23AAA91C 
 303      E448483C 
 303      66C38651 
 303      B7CB55DD 
 304 07e4 F2ECA13C 		.ascii	"\362\354\241<\303\214\272}N\2365\210E\346\030:\312\340"
 304      C38CBA7D 
 304      4E9E3588 
 304      45E6183A 
 304      CAE0
 305 07f6 4B27B2A5 		.ascii	"K'\262\245\224n\204h\3371\264e\235\334\360\224|\243"
 305      946E8468 
 305      DF31B465 
 305      9DDCF094 
 305      7CA3
 306 0808 EF49D6B9 		.ascii	"\357I\326\271\234N\233\345t\036)6\310\245\336o\326\256"
 306      9C4E9BE5 
 306      741E2936 
 306      C8A5DE6F 
 306      D6AE
ARM GAS  /tmp/ccnA0Hbj.s 			page 24


 307 081a D2F5AC15 		.ascii	"\322\365\254\025%\251\303'\316\260\213\345w\032\344"
 307      25A9C327 
 307      CEB08BE5 
 307      771AE4
 308 0829 BEBE27DD 		.ascii	"\276\276'\335\330\3259+\215\231(i\264\241\344sKJzN\244"
 308      D8D5392B 
 308      8D992869 
 308      B4A1E473 
 308      4B4A7A4E 
 309 083e 32942826 		.ascii	"2\224(&\3011Kl \2764B\334\305\254 \020\233N\244\271"
 309      C1314B6C 
 309      20BE3442 
 309      DCC5AC20 
 309      109B4EA4 
 310 0853 3AF99D16 		.ascii	":\371\235\026H/\260E\270S];\316\375$s`*\017V9\331G\020"
 310      482FB045 
 310      B8535D3B 
 310      CEFD2473 
 310      602A0F56 
 311 086b B4EDE6C5 		.ascii	"\264\355\346\305\025\354L\314\276=\230\215^\361[&\366"
 311      15EC4CCC 
 311      BE3D988D 
 311      5EF15B26 
 311      F6
 312 087c 5C501CB3 		.ascii	"\\P\034\263\001\007]\314N\355\333\325\025\372EG+\364"
 312      01075DCC 
 312      4EEDDBD5 
 312      15FA4547 
 312      2BF4
 313 088e 378E29A9 		.ascii	"7\216)\251\321b\355\233\326\326\276w\350\250\357\350"
 313      D162ED9B 
 313      D6D6BE77 
 313      E8A8EFE8 
 314 089e F89852FF 		.ascii	"\370\230R\3775R\277\305\206z[ \216\331\203C\256e\323"
 314      3552BFC5 
 314      867A5B20 
 314      8ED98343 
 314      AE65D3
 315 08b1 FED7D994 		.ascii	"\376\327\331\224\366k\216h\357\3502\246\365.\015\267"
 315      F66B8E68 
 315      EFE832A6 
 315      F52E0DB7 
 316 08c1 7FFB8B43 		.ascii	"\177\373\213C]\230\326\225\264y\302\014\346jw!\247\216"
 316      5D98D695 
 316      B479C20C 
 316      E66A7721 
 316      A78E
 317 08d3 2860DBF0 		.ascii	"(`\333\360\243\201\263\256\301\312\015\224\365\276`"
 317      A381B3AE 
 317      C1CA0D94 
 317      F5BE60
 318 08e2 7CF3FFA5 		.ascii	"|\363\377\245\023\274\034/8.v\351^p\\v\015f$\356\252"
 318      13BC1C2F 
 318      382E76E9 
 318      5E705C76 
 318      0D6624EE 
 319 08f7 1EACCF09 		.ascii	"\036\254\317\011\230\325k\000\253Ko$<{\035\227\2067"
ARM GAS  /tmp/ccnA0Hbj.s 			page 25


 319      98D56B00 
 319      AB4B6F24 
 319      3C7B1D97 
 319      8637
 320 0909 3089CB1E 		.ascii	"0\211\313\036R\327c\335\200\365l\254\347z\014\013\307"
 320      52D763DD 
 320      80F56CAC 
 320      E77A0C0B 
 320      C7
 321 091a A78A552F 		.ascii	"\247\212U/\2614\305|&!\2476\333\273\207\325\326\020"
 321      B134C57C 
 321      2621A736 
 321      DBBB87D5 
 321      D610
 322 092c 9CFB741D 		.ascii	"\234\373t\035;\013m\370Y\017\321\374\274\342\374\237"
 322      3B0B6DF8 
 322      590FD1FC 
 322      BCE2FC9F 
 323 093c 8B9836DF 		.ascii	"\213\2306\337\253p\310<O\326Y\322\215Y\324=\310o\371"
 323      AB70C83C 
 323      4FD659D2 
 323      8D59D43D 
 323      C86FF9
 324 094f 57EDD79B 		.ascii	"W\355\327\233\235\235\301\265i\363\177O\307H\307I\365"
 324      9D9DC1B5 
 324      69F37F4F 
 324      C748C749 
 324      F5
 325 0960 50EC7964 		.ascii	"P\354yd\344/\371\0311\002\201\237\343\220\346lF\276"
 325      E42FF919 
 325      3102819F 
 325      E390E66C 
 325      46BE
 326 0972 50196976 		.ascii	"P\031iv\304H{\263j\375\013<\304\306\216j\270\375\332"
 326      C4487BB3 
 326      6AFD0B3C 
 326      C4C68E6A 
 326      B8FDDA
 327 0985 99A6FEAF 		.ascii	"\231\246\376\257\003\015V\001\353v\015f\264\376\375"
 327      030D5601 
 327      EB760D66 
 327      B4FEFD
 328 0994 1D6EBF7B 		.ascii	"\035n\277{\331\322\261\341\036\334\345.\367\220@\363"
 328      D9D2B1E1 
 328      1EDCE52E 
 328      F79040F3 
 329 09a4 B949B0FD 		.ascii	"\271I\260\375\334\345^v\302\207\375i\010h\345\342B\213"
 329      DCE55E76 
 329      C287FD69 
 329      0868E5E2 
 329      428B
 330 09b6 C322E7EB 		.ascii	"\303\"\347\353\205U\036S\226\036gJ\322\271D\322|\254"
 330      85551E53 
 330      961E674A 
 330      D2B944D2 
 330      7CAC
 331 09c8 8E1EF0BE 		.ascii	"\216\036\360\276\204Z\221K\214B1\235\273\223\271\354"
ARM GAS  /tmp/ccnA0Hbj.s 			page 26


 331      845A914B 
 331      8C42319D 
 331      BB93B9EC 
 332 09d8 E878C553 		.ascii	"\350x\305SbcQY\277A\200(q+5\203\366Aj\227V\251'\347"
 332      62635159 
 332      BF418028 
 332      712B3583 
 332      F6416A97 
 333 09f0 B83D6A72 		.ascii	"\270=jr\002h\025\231\255.\275\363\360\354b\017\211\177"
 333      02681599 
 333      AD2EBDF3 
 333      F0EC620F 
 333      897F
 334 0a02 2F609C5B 		.ascii	"/`\234[\202\3652\254Wb\275Z\037\371\354dCL^\303n\365"
 334      82F532AC 
 334      5762BD5A 
 334      1FF9EC64 
 334      434C5EC3 
 335 0a18 7034CEF4 		.ascii	"p4\316\364\317\215\032\27347\342\331\245\256\301\014"
 335      CF8D1ABB 
 335      3437E2D9 
 335      A5AEC10C 
 336 0a28 824C2DEC 		.ascii	"\202L-\354Rw\255\304+x\366E'x9\016\367\376\244\020\247"
 336      5277ADC4 
 336      2B78F645 
 336      2778390E 
 336      F7FEA410 
 337 0a3d B8584B09 		.ascii	"\270XK\011\353\022\254<\227R\346\351\224\322\204J\231"
 337      EB12AC3C 
 337      9752E6E9 
 337      94D2844A 
 337      99
 338 0a4e 8F2A781D 		.ascii	"\217*x\035\3535X\2575&\242\227JL\211\310\030\364\255"
 338      EB3558AF 
 338      3526A297 
 338      4A4C89C8 
 338      18F4AD
 339 0a61 F2A25E3E 		.ascii	"\362\242^>rj\3371\340\307\371\331\321\347\352\331\321"
 339      726ADF31 
 339      E0C7F9D9 
 339      D1E7EAD9 
 339      D1
 340 0a72 7A0CDEAB 		.ascii	"z\014\336\253K,\203w\256\263\243\267p\310\306\254\340"
 340      4B2C8377 
 340      AEB3A3B7 
 340      70C8C6AC 
 340      E0
 341 0a83 DD7A4A5D 		.ascii	"\335zJ]\244m\314\037\274\033f\2466\267\376>\223\205"
 341      A46DCC1F 
 341      BC1B66A6 
 341      36B7FE3E 
 341      9385
 342 0a95 666A1EFC 		.ascii	"fj\036\374)\3048;+5|W\360\236F\207K+\265\326\335F\235"
 342      29C4383B 
 342      2B357C57 
 342      F09E4687 
 342      4B2BB5D6 
ARM GAS  /tmp/ccnA0Hbj.s 			page 27


 343 0aac EEDE44DD 		.ascii	"\356\336D\335m6j\352\200YSV\363\031\316\206\214\212"
 343      6D366AEA 
 343      80595356 
 343      F319CE86 
 343      8C8A
 344 0abe EA3CA62E 		.ascii	"\352<\246.J\225\357E\017ei\336\360u(m\332\236\017\311"
 344      4A95EF45 
 344      0F6569DE 
 344      F075286D 
 344      DA9E0FC9 
 345 0ad2 A90B6E34 		.ascii	"\251\013n4\337\274\345\354\030\345\373E\324{C\251K\275"
 345      DFBCE5EC 
 345      18E5FB45 
 345      D47B43A9 
 345      4BBD
 346 0ae4 1311BD6B 		.ascii	"\023\021\275k\322y\252G(W\236\346O\325W\272\361\210"
 346      D279AA47 
 346      28579EE6 
 346      4FD557BA 
 346      F188
 347 0af6 DEC5916F 		.ascii	"\336\305\221o7}\233\276\035=ua\351\267\222\014\227\""
 347      377D9BBE 
 347      1D3D7561 
 347      E9B7920C 
 347      9722
 348 0b08 CCBBDF96 		.ascii	"\314\273\337\226\321\274\2533\232\255h4\333L\356]\352"
 348      D1BCAB33 
 348      9AAD6834 
 348      DB4CEE5D 
 348      EA
 349 0b19 C06812B6 		.ascii	"\300h\022\266:\2064rjL\235\234j\031y\013\323\250\356"
 349      3A863472 
 349      6A4C9D9C 
 349      6A19790B 
 349      D3A8EE
 350 0b2c FDA80C53 		.ascii	"\375\250\014S\263\345\271l\335\033wh#\015\233\232\314"
 350      B3E5B96C 
 350      DD1B7768 
 350      230D9B9A 
 350      CC
 351 0b3d C7893F7C 		.ascii	"\307\211?|\025?N|\037\305\370\262I\214n\260\026\317"
 351      153F4E7C 
 351      1FC5F8B2 
 351      498C6EB0 
 351      16CF
 352 0b4f D9ABBEB4 		.ascii	"\331\253\276\264\336\207`\353\372\017\326\326\264\367"
 352      DE8760EB 
 352      FA0FD6D6 
 352      B4F7
 353 0b5d 0EF2ADFA 		.ascii	"\016\362\255\372G\010\364\347,\345\372M\272\365\033"
 353      4708F4E7 
 353      2CE5FA4D 
 353      BAF51B
 354 0b6c 75EBF767 		.ascii	"u\353\367g\032}\352e\376\326\345;\034C\031K\015P9;\304"
 354      1A7DEA65 
 354      FED6E53B 
 354      1C43194B 
ARM GAS  /tmp/ccnA0Hbj.s 			page 28


 354      0D50393B 
 355 0b81 52803D9E 		.ascii	"R\200=\236[2\262\220\265\250Vj\037\324\016z2\237X\225"
 355      5B32B290 
 355      B5A8566A 
 355      1FD40E7A 
 355      329F5895 
 356 0b95 FA338DDB 		.ascii	"\3723\215\3335#\332n6\"\323\274\264=\335\261\331^\324"
 356      3523DA6E 
 356      3622D3BC 
 356      B43DDDB1 
 356      D95ED4
 357 0ba8 6D9EBEC2 		.ascii	"m\236\276\302\315\323e\334<=\203\031j\035\326\355Xo"
 357      CDD365DC 
 357      3C3D8319 
 357      6A1DD6ED 
 357      586F
 358 0bba C17AB7D1 		.ascii	"\301z\267\321\250\377\252\251K\215\\\306C\0102\305!"
 358      A8FFAAA9 
 358      4B8D5CC6 
 358      430832C5 
 358      21
 359 0bcb 8F763662 		.ascii	"\217v6bZ\242\265\3328\003\031\325\231Y\206\230F\365"
 359      5AA2B5DA 
 359      380319D5 
 359      99598698 
 359      46F5
 360 0bdd E418D595 		.ascii	"\344\030\325\225\031E\335\244\355\301\2262\34535:f\220"
 360      1945DDA4 
 360      EDC19632 
 360      E533353A 
 360      6690
 361 0bef 3A46A5EF 		.ascii	":F\245\357\260k=\035\261\321\023k\234\272\3344\363X"
 361      B06B3D1D 
 361      B1D1136B 
 361      9CBADC34 
 361      F358
 362 0c01 B59F8FE2 		.ascii	"\265\237\217\342\034u=\3631\233\231\013\255EEN\305\354"
 362      1C753DF3 
 362      319B990B 
 362      AD45454E 
 362      C5EC
 363 0c13 A08EDB0A 		.ascii	"\240\216\333\012\370t\216Q\351\314(rN\226:\237\3569"
 363      F8748E51 
 363      E9CC2872 
 363      4E963A9F 
 363      EE39
 364 0c25 B5FFBF5E 		.ascii	"\265\377\277^#\237\034\223\263\303\272\006\027\247\207"
 364      239F1C93 
 364      B3C3BA06 
 364      17A787
 365 0c34 273CD967 		.ascii	"'<\331g\301WM\376\257\235k\312\177\220=\332\261\346"
 365      C1574DFE 
 365      AF9D6BCA 
 365      7F903DDA 
 365      B1E6
 366 0c46 C71ED3B1 		.ascii	"\307\036\323\261\346'\236\254#< \355\302'\251\031\344"
 366      E6279EAC 
ARM GAS  /tmp/ccnA0Hbj.s 			page 29


 366      233C20ED 
 366      C227A919 
 366      E4
 367 0c57 F52239C2 		.ascii	"\365\"9\302\033\246\314\007\371n\200\223\031\272\315"
 367      1BA6CC07 
 367      F96E8093 
 367      19BACD
 368 0c66 339CB29C 		.ascii	"3\234\262\234\241\375\323\375\317\262Mkg\313\215u\351"
 368      A1FDD3FD 
 368      CFB24D6B 
 368      67CB8D75 
 368      E9
 369 0c77 BE2797A7 		.ascii	"\276'\227\247\032\275\316\331?k\336\014\265g\037\236"
 369      1ABDCED9 
 369      3F6BDE0C 
 369      B5671F9E 
 370 0c87 B61B88C5 		.ascii	"\266\033\210\305\236\034\263{\00054z\304\274\177{i#"
 370      9E1CB37B 
 370      0035347A 
 370      C4BC7F7B 
 370      6923
 371 0c99 ABFE5F43 		.ascii	"\253\376_C'\2168\343\261;-n7\234\026\367\326M\034\252"
 371      278E38E3 
 371      B13B2D6E 
 371      379C16F7 
 371      D64D1CAA 
 372 0cad F17CC6CC 		.ascii	"\361|\306\314\3639K\236\327\037>r{\377\024~\301\314"
 372      F3394B9E 
 372      D71F3E72 
 372      7BFF147E 
 372      C1CC
 373 0cbf B1E1589D 		.ascii	"\261\341X\235z\274I\002\307M\352\242<o\022L\307\352"
 373      7ABC4902 
 373      C74DEAA2 
 373      3C6F124C 
 373      C7EA
 374 0cd1 3DB61C67 		.ascii	"=\266\034g\216\325\347\313M\212\250:q\003\371\031B\333"
 374      8ED5E7CB 
 374      4D8AA83A 
 374      7103F919 
 374      42DB
 375 0ce3 0FA40451 		.ascii	"\017\244\004QQu\312:Q\365\230Eu\311RT\347O\365\374w"
 375      5175CA3A 
 375      51F59845 
 375      75C95254 
 375      E74FF5FC 
 376 0cf8 96019E77 		.ascii	"\226\001\236wd\200W\3153\\\2633\361\377\315\232\341"
 376      648057CD 
 376      335CB333 
 376      F1FFCD9A 
 376      E1
 377 0d09 1B47335C 		.ascii	"\033G3\\7\317p\303\223u\210\275o_z\333\027-\354\334"
 377      37CF70C3 
 377      937588BD 
 377      6F5F7ADB 
 377      172DECDC 
 378 0d1d B4DC08DA 		.ascii	"\264\334\010\332\356c\365\221M\267<\237\250\012\256"
ARM GAS  /tmp/ccnA0Hbj.s 			page 30


 378      EE63F591 
 378      4DB73C9F 
 378      A80AAE
 379 0d2c 1847DAC4 		.ascii	"\030G\332\304?S/\236\255\367\272\215\1773\275\326\361"
 379      3F532F9E 
 379      ADF7BA8D 
 379      7F33BDD6 
 379      F1
 380 0d3d 4F9FE532 		.ascii	"O\237\3452\275\3107\356e\246\027c&\"`7^\246&\354bV\023"
 380      BDC837EE 
 380      65A61763 
 380      26226037 
 380      5EA626EC 
 381 0d54 6BDF852B 		.ascii	"k\337\205+\337\327\331\370C\006\033/b\346\340w\240\263"
 381      DFD7D9F8 
 381      43061B2F 
 381      62E6E077 
 381      A0B3
 382 0d66 E43A76AA 		.ascii	"\344:v\252\226fm\276\315\346\331\271\336\"\362aK\231"
 382      96666DBE 
 382      CDE6D9B9 
 382      DE22F261 
 382      4B99
 383 0d78 7181A123 		.ascii	"q\201\241#\227tP\231R\332j+\263\276\310\222\304\034"
 383      97745099 
 383      52DA6A2B 
 383      B3BEC892 
 383      C41C
 384 0d8a 6FFE171E 		.ascii	"o\376\027\036;\312,}\247\335\354;\263\2759}G{\037\327"
 384      3BCA2C7D 
 384      A7DDEC3B 
 384      B3BD397D 
 384      477B1FD7 
 385 0d9e 7984B880 		.ascii	"y\204\270\200B\242a\224\201wJ\340\263^\353\340q\362"
 385      42A26194 
 385      81774AE0 
 385      B35EEBE0 
 385      71F2
 386 0db0 F6CDF6C1 		.ascii	"\366\315\366\301#\327+\236F3\307\235\236,\216;\2549"
 386      23D72B9E 
 386      4633C79D 
 386      9E2C8E3B 
 386      AC39
 387 0dc2 BE423856 		.ascii	"\276B8V\272\177\255\034\032\330r\254w\372z\271\367\344"
 387      BA7FAD1C 
 387      1AD872AC 
 387      77FA7AB9 
 387      F7E4
 388 0dd4 C447326F 		.ascii	"\304G2o \355FQ\002\347\03396e\325\3439\262\352B\257"
 388      20ED4651 
 388      02E71B39 
 388      3665D5E3 
 388      39B2EA42 
 389 0de9 39ABF65D 		.ascii	"9\253\366]\330\365\367\372 \253\276\200:k\315\340f\263"
 389      D8F5F7FA 
 389      20ABBE80 
 389      3A6BCDE0 
ARM GAS  /tmp/ccnA0Hbj.s 			page 31


 389      66B3
 390 0dfb 4A17E556 		.ascii	"J\027\345V)}\313x\324\374\226\321~\230\361-\243!\030"
 390      297DCB78 
 390      D4FC96D1 
 390      7E98F12D 
 390      A32118
 391 0e0e 92410683 		.ascii	"\222A\006\203n\366Z\006\222W\027\347\015$\325\352\244"
 391      6EF65A06 
 391      925717E7 
 391      0D24D5EA 
 391      A4
 392 0e1f 0370A44D 		.ascii	"\003p\244M 1\365\342\331\245\256\003\3112\233@Rj`D\355"
 392      2031F5E2 
 392      D9A5AE03 
 392      C9329B40 
 392      526A6044 
 393 0e34 05CD06AF 		.ascii	"\005\315\006\257\351-\254\211\010\216\271l\010$\314"
 393      E92DAC89 
 393      088EB96C 
 393      0824CC
 394 0e43 0F478C08 		.ascii	"\017G\214\010\214\257\016O\016\377zR \236\014\210R "
 394      8CAF0E4F 
 394      0EFF7A52 
 394      209E0C88 
 394      5220
 395 0e55 298602A1 		.ascii	")\206\002\241\352h\262jD\210\031\235\365k\".J\311\300"
 395      EA68B26A 
 395      4488199D 
 395      F56B222E 
 395      4AC9C0
 396 0e68 438F3D3A 		.ascii	"C\217=:\376\321\351\201P<\232\010G\0041\031xx\374x\030"
 396      FED1E981 
 396      503C9A08 
 396      47043119 
 396      7878FC78 
 397 0e7d 24CD4808 		.ascii	"$\315H\010\311\021\325L\001\214\016J\205\017\377\352"
 397      C911D54C 
 397      018C0E4A 
 397      850FFFEA 
 398 0e8d F1F2F14C 		.ascii	"\361\362\361L2\020\253\304\362\363@u<*\004D!)\360b\250"
 398      3210ABC4 
 398      F2F34075 
 398      3C2A0444 
 398      2129F062 
 399 0ea2 3A50CD8B 		.ascii	":P\315\213\025\265\274(\004x1z_\240*\024\032\016\215"
 399      15B5BC28 
 399      0478317A 
 399      5FA02A14 
 399      1A0E8D
 400 0eb5 E14274B2 		.ascii	"\341Bt\262PQ!Th\017b\361\2300\\\340'\207\207\217\012"
 400      50512154 
 400      680F62F1 
 400      98305CE0 
 400      2787878F 
 401 0eca 8E1D7EDF 		.ascii	"\216\035~\337\310{GM\275/`\370!\020\216\205\"5\025B"
 401      C87B474D 
 401      BD2F60F8 
ARM GAS  /tmp/ccnA0Hbj.s 			page 32


 401      21108E85 
 401      22351542 
 402 0ede 20295584 		.ascii	" )U\204c\022\020\340\203\333\375\367\005\245\231\354"
 402      631210E0 
 402      83DBFDF7 
 402      05A599EC 
 403 0eee DF6EF228 		.ascii	"\337n\362(\037\252\016\307\204@\260B\250\344k\"RP\225"
 403      1FAA0EC7 
 403      8440B042 
 403      A8E46B22 
 403      525095
 404 0f01 863F18A4 		.ascii	"\206?\030\244\344\3748K\234\352\340PurFR\035P$U\213"
 404      E4FC384B 
 404      9CEAE050 
 404      75724652 
 404      1D502455 
 405 0f16 025F1194 		.ascii	"\002_\021\224\374\241\352\240\322\276+\327\310Pu\005"
 405      FCA1EAA0 
 405      D2BE2BD7 
 405      C8507505 
 406 0f26 8C2A4C04 		.ascii	"\214*L\004c\302t\011n\011Q\230\346\223\022b8\036\224"
 406      63C27409 
 406      6E095198 
 406      E6931262 
 406      381E94
 407 0f39 8A6AE8DC 		.ascii	"\212j\350\334\305\301\240\332\304.\341\270/\024\217"
 407      C5C1A0DA 
 407      C42EE1B8 
 407      2F148F
 408 0f48 4930E227 		.ascii	"I0\342'y\224\\\035\212\213\002LPB\036\023VB\322\364"
 408      79945C1D 
 408      8A8B024C 
 408      50421E13 
 408      5642D2F4 
 409 0f5c 9F391913 		.ascii	"\2379\031\023\2346&J\330\021\205*\020YP\342\304Q\234"
 409      9C36264A 
 409      D811852A 
 409      105950E2 
 409      C4519C
 410 0f6f F8734E1C 		.ascii	"\370sN\034\315\211c8q,'>\340\021\357\035\011\345^.\""
 410      CD896338 
 410      712C273E 
 410      E011EF1D 
 410      09E55E2E 
 411 0f84 C2EDFE82 		.ascii	"\302\355\376\202D\020\260}\204\221ZA\204{<R!\210\336"
 411      4410B07D 
 411      84915A41 
 411      847B3C52 
 411      2188DE
 412 0f97 10288B70 		.ascii	"\020(\213p\307G\205\")"
 412      C7478522 
 412      29
 413 0fa0 29F19210 		.ascii	")\361\222\020\224|\204\231\261 \"\205-hAw\374\315'E"
 413      947C8499 
 413      B1202285 
 413      2D684177 
 413      FCCD2745 
ARM GAS  /tmp/ccnA0Hbj.s 			page 33


 414 0fb4 E31502FE 		.ascii	"\343\025\002\376]\031\341\253\222>I\024*\223\3105i\024"
 414      5D19E1AB 
 414      923E4914 
 414      2A93C835 
 414      6914
 415 0fc6 8A1533C0 		.ascii	"\212\0253\300<\213\204\351a)\004\035\013k\245\370\344"
 415      3C8B84E9 
 415      6129041D 
 415      0B6BA5F8 
 415      E4
 416 0fd7 DF266EA5 		.ascii	"\337&n\2452\207.\202(\304B\000PP+Ib\302\227\024b\022"
 416      32872E82 
 416      28C44200 
 416      50502B49 
 416      62C29714 
 417 0fed 0C28055D 		.ascii	"\014(\005]$\205(\237\250\006\316\206\345R\207@\230\036"
 417      2485289F 
 417      A806CE86 
 417      E5528740 
 417      981E
 418 0fff A8       		.ascii	"\250"
 419 1000 E0258353 		.ascii	"\340%\203Sk\204\032\000\033\244\251\222>\362\321{A("
 419      6B841A00 
 419      1BA4A992 
 419      3EF2D17B 
 419      4128
 420 1012 06A65290 		.ascii	"\006\246R\220\014\302\035h\201\321\211\"\350\033\255"
 420      0CC21D68 
 420      81D18922 
 420      E81BAD
 421 1021 01D5E49A 		.ascii	"\001\325\344\232&*M'\206\036\245h\321`\2746\0062\303"
 421      262A4D27 
 421      861EA568 
 421      D160BC36 
 421      0632C3
 422 1034 71C06C54 		.ascii	"q\300lT1\206Z\011\372%J\204i\204\011>9\005~\021jI\303"
 422      31865A09 
 422      FA254A84 
 422      6984093E 
 422      39057E11 
 423 104b 9308D694 		.ascii	"\223\010\326\224\251\004E\302I\240a\240\216D\362\304"
 423      A90445C2 
 423      49A061A0 
 423      8E44F2C4 
 424 105b 9F08D6F2 		.ascii	"\237\010\326\362a)\034\253*N\004A\0028\0214\205\204"
 424      61291CAB 
 424      2A4E0441 
 424      02381134 
 424      8584
 425 106d 10033FAB 		.ascii	"\020\003?\253\202\337\001\234\364,&\242\345#hT\3600"
 425      82DF019C 
 425      F42C26A2 
 425      E5236854 
 425      F030
 426 107f 118F47C0 		.ascii	"\021\217G\300t\037MVM\202\236\234\224\360\300h\345\301"
 426      741F4D56 
 426      4D829E9C 
ARM GAS  /tmp/ccnA0Hbj.s 			page 34


 426      94F0C068 
 426      E5C1
 427 1091 1300588A 		.ascii	"\023\000X\212\255\307\204\210\300'\205\001\241\352I"
 427      ADC78488 
 427      C0278501 
 427      A1EA49
 428 10a0 A1EA87E3 		.ascii	"\241\352\207\343\223\"\202\220\230T\202\177=\006$\314"
 428      93228290 
 428      9854827F 
 428      3D0624CC 
 429 10b0 98508AED 		.ascii	"\230P\212\355'\370)B\015\376\020$\036\"D\025\257P\332"
 429      27F82942 
 429      0DFE1024 
 429      1E224415 
 429      AF50DA
 430 10c3 A584D819 		.ascii	"\245\204\330\031\224|@\012f\376\366\211\212`\012E\264"
 430      947C400A 
 430      66FEF689 
 430      8A600A45 
 430      B4
 431 10d4 F502112D 		.ascii	"\365\002\021-K\244\226%*\226\345\207\2475\"\250[*\020"
 431      4BA49625 
 431      2A96E587 
 431      A73522A8 
 431      5B2A10
 432 10e7 C9A0C1D3 		.ascii	"\311\240\301\323\302\242T\303G\202R8\012Q\215\002\017"
 432      C2A254C3 
 432      47825238 
 432      0A518D02 
 432      0F
 433 10f8 01608B1F 		.ascii	"\001`\213\037\006\032\236)\0326<\362M\223P\011\344N"
 433      061A9E29 
 433      1A363CF2 
 433      4D935009 
 433      E44E
 434 110a 5CD24F88 		.ascii	"\\\322O\210\206\037\300)\341I\205\020\221xhT\326\304"
 434      861FC029 
 434      E1498510 
 434      91786854 
 434      D6C4
 435 111c 4241EC43 		.ascii	"BA\354CZ\205\244//\226\300-\302'%\322\035\036\221\351"
 435      5A85A42F 
 435      2F96C02D 
 435      C22725D2 
 435      1D1E91E9 
 436 1130 CA28FB15 		.ascii	"\312(\373\025\302\344\232*EY\372'\376\004\037\013\207"
 436      C2E49A2A 
 436      4559FA27 
 436      FE041F0B 
 436      87
 437 1141 889A3C15 		.ascii	"\210\232<\025\223\253\212\243<8\005\352\262<\207\015"
 437      93AB8AA3 
 437      3C3805EA 
 437      B23C870D 
 438 1151 49C45207 		.ascii	"I\304R\007I\321`\210\217\204'\213\274\024\216\307\200"
 438      49D16088 
 438      8F84278B 
ARM GAS  /tmp/ccnA0Hbj.s 			page 35


 438      BC148EC7 
 438      80
 439 1162 1651429B 		.ascii	"\026QB\233,\214WV&\005\211\223\242\305Ii\012\364\250"
 439      2C8C5756 
 439      26058993 
 439      A2C54969 
 439      0AF4A8
 440 1175 8AD17832 		.ascii	"\212\321x2z\224\026OH\263,\\\021\021\250\351\200\311"
 440      7A94164F 
 440      48B32C5C 
 440      1111A8E9 
 440      80C9
 441 1187 70A1EA9C 		.ascii	"p\241\352\234\3761\003\203\"hwF\362\337\343\241)~\014"
 441      FE310383 
 441      22687746 
 441      F2DFE3A1 
 441      297E0C
 442 119a 2B11688D 		.ascii	"+\021h\2150\216\002\321\005\306?:i\302\244\314`\022"
 442      308E02D1 
 442      05C63F3A 
 442      69C2A4CC 
 442      6012
 443 11ac 5442D17F 		.ascii	"TB\321\177\005A\001\304\200 8\244\024\374\345C\223\376"
 443      054101C4 
 443      802038A4 
 443      14FCE543 
 443      93FE
 444 11be 65E26313 		.ascii	"e\342c\023\006\360\221Z~F\022\342S\004\242p\3014>R#"
 444      06F0915A 
 444      7E4612E2 
 444      5304A270 
 444      C1343E52 
 445 11d3 942ACE17 		.ascii	"\224*\316\027\216%\005Q\362HS\023%8\353\34312\233\022"
 445      8E250551 
 445      F2485313 
 445      2538EBE3 
 445      31329B12 
 446 11e7 CE6AB05D 		.ascii	"\316j\260]\024D\351\007\203\003\324\306\210\321\367"
 446      1444E907 
 446      8303D4C6 
 446      88D1F7
 447 11f6 3F3026A7 		.ascii	"?0&\247\377A\202\204L\027\374%\030\373@\264\350\011"
 447      FF418284 
 447      4C17FC25 
 447      18FB40B4 
 447      E809
 448 1208 C9898A63 		.ascii	"\311\211\212cL\270E\231\2672\\\031\007\223\214\306\247"
 448      4CB84599 
 448      B7325C19 
 448      07938CC6 
 448      A7
 449 1219 1133CFD8 		.ascii	"\0213\317\330\374$\335,\243F\216\376\177`\010\002\341"
 449      FC24DD2C 
 449      A3468EFE 
 449      7F600802 
 449      E1
 450              		.text
ARM GAS  /tmp/ccnA0Hbj.s 			page 36


 451              		.section	.gnu.lto_.symtab.2f5ce2745aa5bc01,"",%progbits
 452 0000 63684D73 		.ascii	"chMsgSend\000\000\000\000\000\000\000\000\000\000\000"
 452      6753656E 
 452      64000000 
 452      00000000 
 452      00000000 
 453 0014 00A10000 		.ascii	"\000\241\000\000\000chMsgWait\000\000\000\000\000\000"
 453      0063684D 
 453      73675761 
 453      69740000 
 453      00000000 
 454 0028 00000000 		.ascii	"\000\000\000\000\000\000Z\001\000\000chMsgRelease\000"
 454      00005A01 
 454      00006368 
 454      4D736752 
 454      656C6561 
 455 003f 00000000 		.ascii	"\000\000\000\000\000\000\000\000\000\000\000^\001\000"
 455      00000000 
 455      0000005E 
 455      0100
 456 004d 00636800 		.ascii	"\000ch\000\000\002\000\000\000\000\000\000\000\000\000"
 456      00020000 
 456      00000000 
 456      000000
 457 005c 70010000 		.ascii	"p\001\000\000chSchGoSleepS\000\000\002\000\000\000\000"
 457      63685363 
 457      68476F53 
 457      6C656570 
 457      53000002 
 458 0074 00000000 		.ascii	"\000\000\000\000\000f\001\000\000chSchReadyI\000\000"
 458      00660100 
 458      00636853 
 458      63685265 
 458      61647949 
 459 008a 02000000 		.ascii	"\002\000\000\000\000\000\000\000\000\000j\001\000\000"
 459      00000000 
 459      00006A01 
 459      0000
 460 0098 63685363 		.ascii	"chSchWakeupS\000\000\002\000\000\000\000\000\000\000"
 460      6857616B 
 460      65757053 
 460      00000200 
 460      00000000 
 461 00ae 00006E01 		.ascii	"\000\000n\001\000\000"
 461      0000
 462              		.text
 463              		.section	.gnu.lto_.opts,"",%progbits
 464 0000 272D6D63 		.ascii	"'-mcpu=cortex-m4' '-mno-thumb-interwork' '-mthumb' "
 464      70753D63 
 464      6F727465 
 464      782D6D34 
 464      2720272D 
 465 0033 272D6767 		.ascii	"'-ggdb' '-O2' '-fomit-frame-pointer' '-falign-funct"
 465      64622720 
 465      272D4F32 
 465      2720272D 
 465      666F6D69 
ARM GAS  /tmp/ccnA0Hbj.s 			page 37


 466 0066 696F6E73 		.ascii	"ions=16' '-ffunction-sections' '-fdata-sections' '-"
 466      3D313627 
 466      20272D66 
 466      66756E63 
 466      74696F6E 
 467 0099 666E6F2D 		.ascii	"fno-common' '-flto'\000"
 467      636F6D6D 
 467      6F6E2720 
 467      272D666C 
 467      746F2700 
 468              		.text
 469              		.cfi_sections	.debug_frame
 470              		.section	.text.chMsgSend,"ax",%progbits
 471              		.align	2
 472              		.p2align 4,,15
 473              		.global	chMsgSend
 474              		.thumb
 475              		.thumb_func
 476              		.type	chMsgSend, %function
 477              	chMsgSend:
 478              	.LFB241:
 479              		.file 1 "../ChibiOS/os/rt/src/chmsg.c"
 480              		.loc 1 87 0
 481              		.cfi_startproc
 482              		@ args = 0, pretend = 0, frame = 0
 483              		@ frame_needed = 0, uses_anonymous_args = 0
 484              	.LVL0:
 485 0000 38B5     		push	{r3, r4, r5, lr}
 486              		.cfi_def_cfa_offset 16
 487              		.cfi_offset 3, -16
 488              		.cfi_offset 4, -12
 489              		.cfi_offset 5, -8
 490              		.cfi_offset 14, -4
 491              		.loc 1 88 0
 492 0002 0D4B     		ldr	r3, .L5
 493              	.LBB52:
 494              	.LBB53:
 495              	.LBB54:
 496              	.LBB55:
 497              		.file 2 "../ChibiOS/os/ext/CMSIS/include/core_cmFunc.h"
 498              		.loc 2 548 0
 499 0004 2022     		movs	r2, #32
 500              	.LBE55:
 501              	.LBE54:
 502              	.LBE53:
 503              	.LBE52:
 504              		.loc 1 88 0
 505 0006 9C69     		ldr	r4, [r3, #24]
 506              	.LVL1:
 507              	.LBB59:
 508              	.LBB58:
 509              	.LBB57:
 510              	.LBB56:
 511              		.loc 2 548 0
 512              	@ 548 "../ChibiOS/os/ext/CMSIS/include/core_cmFunc.h" 1
 513 0008 82F31188 		MSR basepri, r2
 514              	@ 0 "" 2
ARM GAS  /tmp/ccnA0Hbj.s 			page 38


 515              		.thumb
 516              	.LBE56:
 517              	.LBE57:
 518              	.LBE58:
 519              	.LBE59:
 520              		.loc 1 93 0
 521 000c 2162     		str	r1, [r4, #32]
 522              	.LVL2:
 523              		.loc 1 95 0
 524 000e 017F     		ldrb	r1, [r0, #28]	@ zero_extendqisi2
 525              	.LVL3:
 526              	.LBB60:
 527              	.LBB61:
 528              		.file 3 "../ChibiOS/os/rt/include/chschd.h"
 529              		.loc 3 668 0
 530 0010 C26A     		ldr	r2, [r0, #44]
 531 0012 6260     		str	r2, [r4, #4]
 532              	.LBE61:
 533              	.LBE60:
 534              		.loc 1 94 0
 535 0014 00F12805 		add	r5, r0, #40
 536              	.LVL4:
 537              		.loc 1 95 0
 538 0018 0E29     		cmp	r1, #14
 539              	.LBB63:
 540              	.LBB62:
 541              		.loc 3 667 0
 542 001a 2560     		str	r5, [r4]
 543              		.loc 3 669 0
 544 001c 1460     		str	r4, [r2]
 545              		.loc 3 670 0
 546 001e C462     		str	r4, [r0, #44]
 547              	.LVL5:
 548              	.LBE62:
 549              	.LBE63:
 550              		.loc 1 95 0
 551 0020 07D0     		beq	.L4
 552              	.LVL6:
 553              	.L2:
 554              		.loc 1 98 0
 555 0022 0C20     		movs	r0, #12
 556 0024 FFF7FEFF 		bl	chSchGoSleepS
 557              	.LVL7:
 558              		.loc 1 99 0
 559 0028 206A     		ldr	r0, [r4, #32]
 560              	.LVL8:
 561              	.LBB64:
 562              	.LBB65:
 563              	.LBB66:
 564              	.LBB67:
 565              	.LBB68:
 566              		.loc 2 548 0
 567 002a 0023     		movs	r3, #0
 568              	@ 548 "../ChibiOS/os/ext/CMSIS/include/core_cmFunc.h" 1
 569 002c 83F31188 		MSR basepri, r3
 570              	@ 0 "" 2
 571              		.thumb
ARM GAS  /tmp/ccnA0Hbj.s 			page 39


 572              	.LBE68:
 573              	.LBE67:
 574              	.LBE66:
 575              	.LBE65:
 576              	.LBE64:
 577              		.loc 1 103 0
 578 0030 38BD     		pop	{r3, r4, r5, pc}
 579              	.LVL9:
 580              	.L4:
 581              		.loc 1 96 0
 582 0032 FFF7FEFF 		bl	chSchReadyI
 583              	.LVL10:
 584 0036 F4E7     		b	.L2
 585              	.L6:
 586              		.align	2
 587              	.L5:
 588 0038 00000000 		.word	ch
 589              		.cfi_endproc
 590              	.LFE241:
 591              		.size	chMsgSend, .-chMsgSend
 592 003c AFF30080 		.section	.text.chMsgWait,"ax",%progbits
 593              		.align	2
 594              		.p2align 4,,15
 595              		.global	chMsgWait
 596              		.thumb
 597              		.thumb_func
 598              		.type	chMsgWait, %function
 599              	chMsgWait:
 600              	.LFB242:
 601              		.loc 1 119 0
 602              		.cfi_startproc
 603              		@ args = 0, pretend = 0, frame = 0
 604              		@ frame_needed = 0, uses_anonymous_args = 0
 605              	.LVL11:
 606 0000 10B5     		push	{r4, lr}
 607              		.cfi_def_cfa_offset 8
 608              		.cfi_offset 4, -8
 609              		.cfi_offset 14, -4
 610              	.LBB69:
 611              	.LBB70:
 612              	.LBB71:
 613              	.LBB72:
 614              		.loc 2 548 0
 615 0002 2023     		movs	r3, #32
 616              	@ 548 "../ChibiOS/os/ext/CMSIS/include/core_cmFunc.h" 1
 617 0004 83F31188 		MSR basepri, r3
 618              	@ 0 "" 2
 619              		.thumb
 620              	.LBE72:
 621              	.LBE71:
 622              	.LBE70:
 623              	.LBE69:
 624              		.loc 1 123 0
 625 0008 0B4C     		ldr	r4, .L10
 626 000a A269     		ldr	r2, [r4, #24]
 627              	.LVL12:
 628              	.LBB73:
ARM GAS  /tmp/ccnA0Hbj.s 			page 40


 629              	.LBB74:
 630              		.file 4 "../ChibiOS/os/rt/include/chmsg.h"
 631              		.loc 4 83 0
 632 000c 1346     		mov	r3, r2
 633 000e 53F8280F 		ldr	r0, [r3, #40]!
 634              	.LBE74:
 635              	.LBE73:
 636              		.loc 1 123 0
 637 0012 9842     		cmp	r0, r3
 638 0014 08D0     		beq	.L9
 639              	.LVL13:
 640              	.L8:
 641              	.LBB75:
 642              	.LBB76:
 643              		.loc 3 676 0
 644 0016 0168     		ldr	r1, [r0]
 645 0018 9162     		str	r1, [r2, #40]
 646              	.LBE76:
 647              	.LBE75:
 648              		.loc 1 127 0
 649 001a 0D22     		movs	r2, #13
 650              	.LBB78:
 651              	.LBB77:
 652              		.loc 3 677 0
 653 001c 4B60     		str	r3, [r1, #4]
 654              	.LBE77:
 655              	.LBE78:
 656              	.LBB79:
 657              	.LBB80:
 658              	.LBB81:
 659              	.LBB82:
 660              	.LBB83:
 661              		.loc 2 548 0
 662 001e 0023     		movs	r3, #0
 663              	.LVL14:
 664              	.LBE83:
 665              	.LBE82:
 666              	.LBE81:
 667              	.LBE80:
 668              	.LBE79:
 669              		.loc 1 127 0
 670 0020 0277     		strb	r2, [r0, #28]
 671              	.LVL15:
 672              	.LBB88:
 673              	.LBB87:
 674              	.LBB86:
 675              	.LBB85:
 676              	.LBB84:
 677              		.loc 2 548 0
 678              	@ 548 "../ChibiOS/os/ext/CMSIS/include/core_cmFunc.h" 1
 679 0022 83F31188 		MSR basepri, r3
 680              	@ 0 "" 2
 681              		.thumb
 682              	.LBE84:
 683              	.LBE85:
 684              	.LBE86:
 685              	.LBE87:
ARM GAS  /tmp/ccnA0Hbj.s 			page 41


 686              	.LBE88:
 687              		.loc 1 131 0
 688 0026 10BD     		pop	{r4, pc}
 689              	.LVL16:
 690              	.L9:
 691              		.loc 1 124 0
 692 0028 0E20     		movs	r0, #14
 693 002a FFF7FEFF 		bl	chSchGoSleepS
 694              	.LVL17:
 695 002e A269     		ldr	r2, [r4, #24]
 696 0030 906A     		ldr	r0, [r2, #40]
 697 0032 02F12803 		add	r3, r2, #40
 698 0036 EEE7     		b	.L8
 699              	.L11:
 700              		.align	2
 701              	.L10:
 702 0038 00000000 		.word	ch
 703              		.cfi_endproc
 704              	.LFE242:
 705              		.size	chMsgWait, .-chMsgWait
 706 003c AFF30080 		.section	.text.chMsgRelease,"ax",%progbits
 707              		.align	2
 708              		.p2align 4,,15
 709              		.global	chMsgRelease
 710              		.thumb
 711              		.thumb_func
 712              		.type	chMsgRelease, %function
 713              	chMsgRelease:
 714              	.LFB243:
 715              		.loc 1 143 0
 716              		.cfi_startproc
 717              		@ args = 0, pretend = 0, frame = 0
 718              		@ frame_needed = 0, uses_anonymous_args = 0
 719              	.LVL18:
 720 0000 08B5     		push	{r3, lr}
 721              		.cfi_def_cfa_offset 8
 722              		.cfi_offset 3, -8
 723              		.cfi_offset 14, -4
 724              	.LBB89:
 725              	.LBB90:
 726              	.LBB91:
 727              	.LBB92:
 728              		.loc 2 548 0
 729 0002 2023     		movs	r3, #32
 730              	@ 548 "../ChibiOS/os/ext/CMSIS/include/core_cmFunc.h" 1
 731 0004 83F31188 		MSR basepri, r3
 732              	@ 0 "" 2
 733              	.LVL19:
 734              		.thumb
 735              	.LBE92:
 736              	.LBE91:
 737              	.LBE90:
 738              	.LBE89:
 739              	.LBB93:
 740              	.LBB94:
 741              		.loc 4 117 0
 742 0008 FFF7FEFF 		bl	chSchWakeupS
ARM GAS  /tmp/ccnA0Hbj.s 			page 42


 743              	.LVL20:
 744              	.LBE94:
 745              	.LBE93:
 746              	.LBB95:
 747              	.LBB96:
 748              	.LBB97:
 749              	.LBB98:
 750              	.LBB99:
 751              		.loc 2 548 0
 752 000c 0023     		movs	r3, #0
 753              	@ 548 "../ChibiOS/os/ext/CMSIS/include/core_cmFunc.h" 1
 754 000e 83F31188 		MSR basepri, r3
 755              	@ 0 "" 2
 756              		.thumb
 757 0012 08BD     		pop	{r3, pc}
 758              	.LBE99:
 759              	.LBE98:
 760              	.LBE97:
 761              	.LBE96:
 762              	.LBE95:
 763              		.cfi_endproc
 764              	.LFE243:
 765              		.size	chMsgRelease, .-chMsgRelease
 766 0014 AFF30080 		.text
 766      AFF30080 
 766      AFF30080 
 767              	.Letext0:
 768              		.file 5 "/nfs/nfs5/home/research/hardware/arm2/gcc-arm-embedded/gcc-arm-none-eabi-4_8-2014q2/arm-n
 769              		.file 6 "/nfs/nfs5/home/research/hardware/arm2/gcc-arm-embedded/gcc-arm-none-eabi-4_8-2014q2/arm-n
 770              		.file 7 "../ChibiOS/os/rt/ports/ARMCMx/compilers/GCC/chtypes.h"
 771              		.file 8 "../ChibiOS/os/rt/include/chsystypes.h"
 772              		.file 9 "../ChibiOS/os/rt/ports/ARMCMx/chcore.h"
 773              		.file 10 "../ChibiOS/os/rt/ports/ARMCMx/chcore_v7m.h"
 774              		.file 11 "../ChibiOS/os/rt/include/chtm.h"
 775              		.file 12 "../ChibiOS/os/rt/include/chsem.h"
 776              		.file 13 "../ChibiOS/os/rt/include/chmtx.h"
 777              		.file 14 "../ChibiOS/os/rt/include/chsys.h"
 778              		.file 15 "../ChibiOS/os/ext/CMSIS/include/core_cm4.h"
 779              		.section	.debug_info,"",%progbits
 780              	.Ldebug_info0:
 781 0000 A60A0000 		.4byte	0xaa6
 782 0004 0400     		.2byte	0x4
 783 0006 00000000 		.4byte	.Ldebug_abbrev0
 784 000a 04       		.byte	0x4
 785 000b 01       		.uleb128 0x1
 786 000c 26050000 		.4byte	.LASF118
 787 0010 01       		.byte	0x1
 788 0011 9A030000 		.4byte	.LASF119
 789 0015 94020000 		.4byte	.LASF120
 790 0019 60000000 		.4byte	.Ldebug_ranges0+0x60
 791 001d 00000000 		.4byte	0
 792 0021 00000000 		.4byte	.Ldebug_line0
 793 0025 02       		.uleb128 0x2
 794 0026 04       		.byte	0x4
 795 0027 05       		.byte	0x5
 796 0028 696E7400 		.ascii	"int\000"
 797 002c 03       		.uleb128 0x3
ARM GAS  /tmp/ccnA0Hbj.s 			page 43


 798 002d 04       		.byte	0x4
 799 002e 07       		.byte	0x7
 800 002f 9F010000 		.4byte	.LASF0
 801 0033 03       		.uleb128 0x3
 802 0034 01       		.byte	0x1
 803 0035 06       		.byte	0x6
 804 0036 DB000000 		.4byte	.LASF1
 805 003a 04       		.uleb128 0x4
 806 003b 30000000 		.4byte	.LASF5
 807 003f 05       		.byte	0x5
 808 0040 1C       		.byte	0x1c
 809 0041 45000000 		.4byte	0x45
 810 0045 03       		.uleb128 0x3
 811 0046 01       		.byte	0x1
 812 0047 08       		.byte	0x8
 813 0048 69030000 		.4byte	.LASF2
 814 004c 03       		.uleb128 0x3
 815 004d 02       		.byte	0x2
 816 004e 05       		.byte	0x5
 817 004f 81030000 		.4byte	.LASF3
 818 0053 03       		.uleb128 0x3
 819 0054 02       		.byte	0x2
 820 0055 07       		.byte	0x7
 821 0056 50010000 		.4byte	.LASF4
 822 005a 04       		.uleb128 0x4
 823 005b 2E020000 		.4byte	.LASF6
 824 005f 05       		.byte	0x5
 825 0060 37       		.byte	0x37
 826 0061 65000000 		.4byte	0x65
 827 0065 03       		.uleb128 0x3
 828 0066 04       		.byte	0x4
 829 0067 05       		.byte	0x5
 830 0068 14010000 		.4byte	.LASF7
 831 006c 04       		.uleb128 0x4
 832 006d 9F040000 		.4byte	.LASF8
 833 0071 05       		.byte	0x5
 834 0072 38       		.byte	0x38
 835 0073 77000000 		.4byte	0x77
 836 0077 03       		.uleb128 0x3
 837 0078 04       		.byte	0x4
 838 0079 07       		.byte	0x7
 839 007a 4F040000 		.4byte	.LASF9
 840 007e 03       		.uleb128 0x3
 841 007f 08       		.byte	0x8
 842 0080 05       		.byte	0x5
 843 0081 CD000000 		.4byte	.LASF10
 844 0085 04       		.uleb128 0x4
 845 0086 0B030000 		.4byte	.LASF11
 846 008a 05       		.byte	0x5
 847 008b 4E       		.byte	0x4e
 848 008c 90000000 		.4byte	0x90
 849 0090 03       		.uleb128 0x3
 850 0091 08       		.byte	0x8
 851 0092 07       		.byte	0x7
 852 0093 5F000000 		.4byte	.LASF12
 853 0097 04       		.uleb128 0x4
 854 0098 1E050000 		.4byte	.LASF13
ARM GAS  /tmp/ccnA0Hbj.s 			page 44


 855 009c 06       		.byte	0x6
 856 009d 2A       		.byte	0x2a
 857 009e 3A000000 		.4byte	0x3a
 858 00a2 04       		.uleb128 0x4
 859 00a3 61030000 		.4byte	.LASF14
 860 00a7 06       		.byte	0x6
 861 00a8 41       		.byte	0x41
 862 00a9 5A000000 		.4byte	0x5a
 863 00ad 04       		.uleb128 0x4
 864 00ae 1B040000 		.4byte	.LASF15
 865 00b2 06       		.byte	0x6
 866 00b3 42       		.byte	0x42
 867 00b4 6C000000 		.4byte	0x6c
 868 00b8 04       		.uleb128 0x4
 869 00b9 27000000 		.4byte	.LASF16
 870 00bd 06       		.byte	0x6
 871 00be 4E       		.byte	0x4e
 872 00bf 85000000 		.4byte	0x85
 873 00c3 04       		.uleb128 0x4
 874 00c4 DF040000 		.4byte	.LASF17
 875 00c8 07       		.byte	0x7
 876 00c9 39       		.byte	0x39
 877 00ca AD000000 		.4byte	0xad
 878 00ce 04       		.uleb128 0x4
 879 00cf 0C020000 		.4byte	.LASF18
 880 00d3 07       		.byte	0x7
 881 00d4 3C       		.byte	0x3c
 882 00d5 97000000 		.4byte	0x97
 883 00d9 04       		.uleb128 0x4
 884 00da 27010000 		.4byte	.LASF19
 885 00de 07       		.byte	0x7
 886 00df 3D       		.byte	0x3d
 887 00e0 97000000 		.4byte	0x97
 888 00e4 04       		.uleb128 0x4
 889 00e5 16030000 		.4byte	.LASF20
 890 00e9 07       		.byte	0x7
 891 00ea 3E       		.byte	0x3e
 892 00eb 97000000 		.4byte	0x97
 893 00ef 04       		.uleb128 0x4
 894 00f0 35030000 		.4byte	.LASF21
 895 00f4 07       		.byte	0x7
 896 00f5 40       		.byte	0x40
 897 00f6 AD000000 		.4byte	0xad
 898 00fa 04       		.uleb128 0x4
 899 00fb FA010000 		.4byte	.LASF22
 900 00ff 07       		.byte	0x7
 901 0100 41       		.byte	0x41
 902 0101 A2000000 		.4byte	0xa2
 903 0105 04       		.uleb128 0x4
 904 0106 22020000 		.4byte	.LASF23
 905 010a 07       		.byte	0x7
 906 010b 43       		.byte	0x43
 907 010c AD000000 		.4byte	0xad
 908 0110 04       		.uleb128 0x4
 909 0111 99010000 		.4byte	.LASF24
 910 0115 07       		.byte	0x7
 911 0116 45       		.byte	0x45
ARM GAS  /tmp/ccnA0Hbj.s 			page 45


 912 0117 A2000000 		.4byte	0xa2
 913 011b 04       		.uleb128 0x4
 914 011c 81040000 		.4byte	.LASF25
 915 0120 08       		.byte	0x8
 916 0121 33       		.byte	0x33
 917 0122 AD000000 		.4byte	0xad
 918 0126 04       		.uleb128 0x4
 919 0127 66040000 		.4byte	.LASF26
 920 012b 08       		.byte	0x8
 921 012c 3F       		.byte	0x3f
 922 012d 31010000 		.4byte	0x131
 923 0131 05       		.uleb128 0x5
 924 0132 E3010000 		.4byte	.LASF45
 925 0136 40       		.byte	0x40
 926 0137 03       		.byte	0x3
 927 0138 C2       		.byte	0xc2
 928 0139 11020000 		.4byte	0x211
 929 013d 06       		.uleb128 0x6
 930 013e BE030000 		.4byte	.LASF27
 931 0142 03       		.byte	0x3
 932 0143 C3       		.byte	0xc3
 933 0144 1C020000 		.4byte	0x21c
 934 0148 00       		.byte	0
 935 0149 06       		.uleb128 0x6
 936 014a 2E030000 		.4byte	.LASF28
 937 014e 03       		.byte	0x3
 938 014f C5       		.byte	0xc5
 939 0150 1C020000 		.4byte	0x21c
 940 0154 04       		.byte	0x4
 941 0155 06       		.uleb128 0x6
 942 0156 C6000000 		.4byte	.LASF29
 943 015a 03       		.byte	0x3
 944 015b C7       		.byte	0xc7
 945 015c EF000000 		.4byte	0xef
 946 0160 08       		.byte	0x8
 947 0161 06       		.uleb128 0x6
 948 0162 45060000 		.4byte	.LASF30
 949 0166 03       		.byte	0x3
 950 0167 C8       		.byte	0xc8
 951 0168 4C040000 		.4byte	0x44c
 952 016c 0C       		.byte	0xc
 953 016d 06       		.uleb128 0x6
 954 016e 40010000 		.4byte	.LASF31
 955 0172 03       		.byte	0x3
 956 0173 CA       		.byte	0xca
 957 0174 1C020000 		.4byte	0x21c
 958 0178 10       		.byte	0x10
 959 0179 06       		.uleb128 0x6
 960 017a 8C020000 		.4byte	.LASF32
 961 017e 03       		.byte	0x3
 962 017f CB       		.byte	0xcb
 963 0180 1C020000 		.4byte	0x21c
 964 0184 14       		.byte	0x14
 965 0185 06       		.uleb128 0x6
 966 0186 0D060000 		.4byte	.LASF33
 967 018a 03       		.byte	0x3
 968 018b D2       		.byte	0xd2
ARM GAS  /tmp/ccnA0Hbj.s 			page 46


 969 018c D7050000 		.4byte	0x5d7
 970 0190 18       		.byte	0x18
 971 0191 06       		.uleb128 0x6
 972 0192 8B030000 		.4byte	.LASF34
 973 0196 03       		.byte	0x3
 974 0197 DD       		.byte	0xdd
 975 0198 D9000000 		.4byte	0xd9
 976 019c 1C       		.byte	0x1c
 977 019d 06       		.uleb128 0x6
 978 019e C5030000 		.4byte	.LASF35
 979 01a2 03       		.byte	0x3
 980 01a3 E1       		.byte	0xe1
 981 01a4 CE000000 		.4byte	0xce
 982 01a8 1D       		.byte	0x1d
 983 01a9 06       		.uleb128 0x6
 984 01aa 11050000 		.4byte	.LASF36
 985 01ae 03       		.byte	0x3
 986 01af E6       		.byte	0xe6
 987 01b0 E4000000 		.4byte	0xe4
 988 01b4 1E       		.byte	0x1e
 989 01b5 07       		.uleb128 0x7
 990 01b6 705F7500 		.ascii	"p_u\000"
 991 01ba 03       		.byte	0x3
 992 01bb 3701     		.2byte	0x137
 993 01bd 06050000 		.4byte	0x506
 994 01c1 20       		.byte	0x20
 995 01c2 08       		.uleb128 0x8
 996 01c3 43020000 		.4byte	.LASF37
 997 01c7 03       		.byte	0x3
 998 01c8 3C01     		.2byte	0x13c
 999 01ca 22020000 		.4byte	0x222
 1000 01ce 24       		.byte	0x24
 1001 01cf 08       		.uleb128 0x8
 1002 01d0 C4010000 		.4byte	.LASF38
 1003 01d4 03       		.byte	0x3
 1004 01d5 4201     		.2byte	0x142
 1005 01d7 46020000 		.4byte	0x246
 1006 01db 28       		.byte	0x28
 1007 01dc 08       		.uleb128 0x8
 1008 01dd 10040000 		.4byte	.LASF39
 1009 01e1 03       		.byte	0x3
 1010 01e2 4801     		.2byte	0x148
 1011 01e4 05010000 		.4byte	0x105
 1012 01e8 30       		.byte	0x30
 1013 01e9 08       		.uleb128 0x8
 1014 01ea 77030000 		.4byte	.LASF40
 1015 01ee 03       		.byte	0x3
 1016 01ef 4F01     		.2byte	0x14f
 1017 01f1 D1050000 		.4byte	0x5d1
 1018 01f5 34       		.byte	0x34
 1019 01f6 08       		.uleb128 0x8
 1020 01f7 8B040000 		.4byte	.LASF41
 1021 01fb 03       		.byte	0x3
 1022 01fc 5301     		.2byte	0x153
 1023 01fe EF000000 		.4byte	0xef
 1024 0202 38       		.byte	0x38
 1025 0203 08       		.uleb128 0x8
ARM GAS  /tmp/ccnA0Hbj.s 			page 47


 1026 0204 E7000000 		.4byte	.LASF42
 1027 0208 03       		.byte	0x3
 1028 0209 5A01     		.2byte	0x15a
 1029 020b F9020000 		.4byte	0x2f9
 1030 020f 3C       		.byte	0x3c
 1031 0210 00       		.byte	0
 1032 0211 04       		.uleb128 0x4
 1033 0212 56020000 		.4byte	.LASF43
 1034 0216 08       		.byte	0x8
 1035 0217 44       		.byte	0x44
 1036 0218 1C020000 		.4byte	0x21c
 1037 021c 09       		.uleb128 0x9
 1038 021d 04       		.byte	0x4
 1039 021e 26010000 		.4byte	0x126
 1040 0222 04       		.uleb128 0x4
 1041 0223 14060000 		.4byte	.LASF44
 1042 0227 08       		.byte	0x8
 1043 0228 49       		.byte	0x49
 1044 0229 2D020000 		.4byte	0x22d
 1045 022d 05       		.uleb128 0x5
 1046 022e 3F040000 		.4byte	.LASF46
 1047 0232 04       		.byte	0x4
 1048 0233 03       		.byte	0x3
 1049 0234 B0       		.byte	0xb0
 1050 0235 46020000 		.4byte	0x246
 1051 0239 06       		.uleb128 0x6
 1052 023a BE030000 		.4byte	.LASF27
 1053 023e 03       		.byte	0x3
 1054 023f B1       		.byte	0xb1
 1055 0240 1C020000 		.4byte	0x21c
 1056 0244 00       		.byte	0
 1057 0245 00       		.byte	0
 1058 0246 04       		.uleb128 0x4
 1059 0247 F8040000 		.4byte	.LASF47
 1060 024b 08       		.byte	0x8
 1061 024c 50       		.byte	0x50
 1062 024d 51020000 		.4byte	0x251
 1063 0251 05       		.uleb128 0x5
 1064 0252 B5000000 		.4byte	.LASF48
 1065 0256 08       		.byte	0x8
 1066 0257 03       		.byte	0x3
 1067 0258 B7       		.byte	0xb7
 1068 0259 76020000 		.4byte	0x276
 1069 025d 06       		.uleb128 0x6
 1070 025e BE030000 		.4byte	.LASF27
 1071 0262 03       		.byte	0x3
 1072 0263 B8       		.byte	0xb8
 1073 0264 1C020000 		.4byte	0x21c
 1074 0268 00       		.byte	0
 1075 0269 06       		.uleb128 0x6
 1076 026a 2E030000 		.4byte	.LASF28
 1077 026e 03       		.byte	0x3
 1078 026f B9       		.byte	0xb9
 1079 0270 1C020000 		.4byte	0x21c
 1080 0274 04       		.byte	0x4
 1081 0275 00       		.byte	0
 1082 0276 04       		.uleb128 0x4
ARM GAS  /tmp/ccnA0Hbj.s 			page 48


 1083 0277 00000000 		.4byte	.LASF49
 1084 027b 08       		.byte	0x8
 1085 027c 57       		.byte	0x57
 1086 027d 81020000 		.4byte	0x281
 1087 0281 0A       		.uleb128 0xa
 1088 0282 14020000 		.4byte	.LASF50
 1089 0286 1C       		.byte	0x1c
 1090 0287 03       		.byte	0x3
 1091 0288 9201     		.2byte	0x192
 1092 028a DD020000 		.4byte	0x2dd
 1093 028e 08       		.uleb128 0x8
 1094 028f 2B040000 		.4byte	.LASF51
 1095 0293 03       		.byte	0x3
 1096 0294 9301     		.2byte	0x193
 1097 0296 46020000 		.4byte	0x246
 1098 029a 00       		.byte	0
 1099 029b 08       		.uleb128 0x8
 1100 029c 93030000 		.4byte	.LASF52
 1101 02a0 03       		.byte	0x3
 1102 02a1 9401     		.2byte	0x194
 1103 02a3 EF000000 		.4byte	0xef
 1104 02a7 08       		.byte	0x8
 1105 02a8 08       		.uleb128 0x8
 1106 02a9 DB020000 		.4byte	.LASF53
 1107 02ad 03       		.byte	0x3
 1108 02ae 9601     		.2byte	0x196
 1109 02b0 4C040000 		.4byte	0x44c
 1110 02b4 0C       		.byte	0xc
 1111 02b5 08       		.uleb128 0x8
 1112 02b6 63010000 		.4byte	.LASF54
 1113 02ba 03       		.byte	0x3
 1114 02bb 9901     		.2byte	0x199
 1115 02bd 1C020000 		.4byte	0x21c
 1116 02c1 10       		.byte	0x10
 1117 02c2 08       		.uleb128 0x8
 1118 02c3 03030000 		.4byte	.LASF55
 1119 02c7 03       		.byte	0x3
 1120 02c8 9A01     		.2byte	0x19a
 1121 02ca 1C020000 		.4byte	0x21c
 1122 02ce 14       		.byte	0x14
 1123 02cf 08       		.uleb128 0x8
 1124 02d0 F9020000 		.4byte	.LASF56
 1125 02d4 03       		.byte	0x3
 1126 02d5 9D01     		.2byte	0x19d
 1127 02d7 1C020000 		.4byte	0x21c
 1128 02db 18       		.byte	0x18
 1129 02dc 00       		.byte	0
 1130 02dd 04       		.uleb128 0x4
 1131 02de 96040000 		.4byte	.LASF57
 1132 02e2 08       		.byte	0x8
 1133 02e3 5C       		.byte	0x5c
 1134 02e4 E8020000 		.4byte	0x2e8
 1135 02e8 09       		.uleb128 0x9
 1136 02e9 04       		.byte	0x4
 1137 02ea EE020000 		.4byte	0x2ee
 1138 02ee 0B       		.uleb128 0xb
 1139 02ef F9020000 		.4byte	0x2f9
ARM GAS  /tmp/ccnA0Hbj.s 			page 49


 1140 02f3 0C       		.uleb128 0xc
 1141 02f4 F9020000 		.4byte	0x2f9
 1142 02f8 00       		.byte	0
 1143 02f9 0D       		.uleb128 0xd
 1144 02fa 04       		.byte	0x4
 1145 02fb 04       		.uleb128 0x4
 1146 02fc 1E030000 		.4byte	.LASF58
 1147 0300 08       		.byte	0x8
 1148 0301 61       		.byte	0x61
 1149 0302 06030000 		.4byte	0x306
 1150 0306 0A       		.uleb128 0xa
 1151 0307 D7030000 		.4byte	.LASF59
 1152 030b 14       		.byte	0x14
 1153 030c 03       		.byte	0x3
 1154 030d 6D01     		.2byte	0x16d
 1155 030f 55030000 		.4byte	0x355
 1156 0313 08       		.uleb128 0x8
 1157 0314 AC010000 		.4byte	.LASF60
 1158 0318 03       		.byte	0x3
 1159 0319 6E01     		.2byte	0x16e
 1160 031b E9050000 		.4byte	0x5e9
 1161 031f 00       		.byte	0
 1162 0320 08       		.uleb128 0x8
 1163 0321 74010000 		.4byte	.LASF61
 1164 0325 03       		.byte	0x3
 1165 0326 6F01     		.2byte	0x16f
 1166 0328 E9050000 		.4byte	0x5e9
 1167 032c 04       		.byte	0x4
 1168 032d 08       		.uleb128 0x8
 1169 032e BB010000 		.4byte	.LASF62
 1170 0332 03       		.byte	0x3
 1171 0333 7001     		.2byte	0x170
 1172 0335 1B010000 		.4byte	0x11b
 1173 0339 08       		.byte	0x8
 1174 033a 08       		.uleb128 0x8
 1175 033b 4B060000 		.4byte	.LASF63
 1176 033f 03       		.byte	0x3
 1177 0340 7101     		.2byte	0x171
 1178 0342 DD020000 		.4byte	0x2dd
 1179 0346 0C       		.byte	0xc
 1180 0347 08       		.uleb128 0x8
 1181 0348 E7040000 		.4byte	.LASF64
 1182 034c 03       		.byte	0x3
 1183 034d 7301     		.2byte	0x173
 1184 034f F9020000 		.4byte	0x2f9
 1185 0353 10       		.byte	0x10
 1186 0354 00       		.byte	0
 1187 0355 04       		.uleb128 0x4
 1188 0356 92000000 		.4byte	.LASF65
 1189 035a 08       		.byte	0x8
 1190 035b 66       		.byte	0x66
 1191 035c 60030000 		.4byte	0x360
 1192 0360 0A       		.uleb128 0xa
 1193 0361 69020000 		.4byte	.LASF66
 1194 0365 10       		.byte	0x10
 1195 0366 03       		.byte	0x3
 1196 0367 7D01     		.2byte	0x17d
ARM GAS  /tmp/ccnA0Hbj.s 			page 50


 1197 0369 A2030000 		.4byte	0x3a2
 1198 036d 08       		.uleb128 0x8
 1199 036e AC010000 		.4byte	.LASF60
 1200 0372 03       		.byte	0x3
 1201 0373 7E01     		.2byte	0x17e
 1202 0375 E9050000 		.4byte	0x5e9
 1203 0379 00       		.byte	0
 1204 037a 08       		.uleb128 0x8
 1205 037b 74010000 		.4byte	.LASF61
 1206 037f 03       		.byte	0x3
 1207 0380 8001     		.2byte	0x180
 1208 0382 E9050000 		.4byte	0x5e9
 1209 0386 04       		.byte	0x4
 1210 0387 08       		.uleb128 0x8
 1211 0388 BB010000 		.4byte	.LASF62
 1212 038c 03       		.byte	0x3
 1213 038d 8201     		.2byte	0x182
 1214 038f 1B010000 		.4byte	0x11b
 1215 0393 08       		.byte	0x8
 1216 0394 08       		.uleb128 0x8
 1217 0395 80020000 		.4byte	.LASF67
 1218 0399 03       		.byte	0x3
 1219 039a 8A01     		.2byte	0x18a
 1220 039c 1B010000 		.4byte	0x11b
 1221 03a0 0C       		.byte	0xc
 1222 03a1 00       		.byte	0
 1223 03a2 04       		.uleb128 0x4
 1224 03a3 46000000 		.4byte	.LASF68
 1225 03a7 08       		.byte	0x8
 1226 03a8 6B       		.byte	0x6b
 1227 03a9 AD030000 		.4byte	0x3ad
 1228 03ad 0A       		.uleb128 0xa
 1229 03ae 4B030000 		.4byte	.LASF69
 1230 03b2 04       		.byte	0x4
 1231 03b3 03       		.byte	0x3
 1232 03b4 A401     		.2byte	0x1a4
 1233 03b6 C8030000 		.4byte	0x3c8
 1234 03ba 08       		.uleb128 0x8
 1235 03bb B8040000 		.4byte	.LASF70
 1236 03bf 03       		.byte	0x3
 1237 03c0 AC01     		.2byte	0x1ac
 1238 03c2 EF050000 		.4byte	0x5ef
 1239 03c6 00       		.byte	0
 1240 03c7 00       		.byte	0
 1241 03c8 04       		.uleb128 0x4
 1242 03c9 00020000 		.4byte	.LASF71
 1243 03cd 08       		.byte	0x8
 1244 03ce 70       		.byte	0x70
 1245 03cf D3030000 		.4byte	0x3d3
 1246 03d3 0E       		.uleb128 0xe
 1247 03d4 0A010000 		.4byte	.LASF72
 1248 03d8 5001     		.2byte	0x150
 1249 03da 03       		.byte	0x3
 1250 03db C401     		.2byte	0x1c4
 1251 03dd 2F040000 		.4byte	0x42f
 1252 03e1 08       		.uleb128 0x8
 1253 03e2 18050000 		.4byte	.LASF73
ARM GAS  /tmp/ccnA0Hbj.s 			page 51


 1254 03e6 03       		.byte	0x3
 1255 03e7 C801     		.2byte	0x1c8
 1256 03e9 76020000 		.4byte	0x276
 1257 03ed 00       		.byte	0
 1258 03ee 08       		.uleb128 0x8
 1259 03ef F7000000 		.4byte	.LASF74
 1260 03f3 03       		.byte	0x3
 1261 03f4 CC01     		.2byte	0x1cc
 1262 03f6 55030000 		.4byte	0x355
 1263 03fa 1C       		.byte	0x1c
 1264 03fb 07       		.uleb128 0x7
 1265 03fc 64626700 		.ascii	"dbg\000"
 1266 0400 03       		.byte	0x3
 1267 0401 D001     		.2byte	0x1d0
 1268 0403 A2030000 		.4byte	0x3a2
 1269 0407 2C       		.byte	0x2c
 1270 0408 08       		.uleb128 0x8
 1271 0409 7F000000 		.4byte	.LASF75
 1272 040d 03       		.byte	0x3
 1273 040e D401     		.2byte	0x1d4
 1274 0410 26010000 		.4byte	0x126
 1275 0414 30       		.byte	0x30
 1276 0415 07       		.uleb128 0x7
 1277 0416 746D00   		.ascii	"tm\000"
 1278 0419 03       		.byte	0x3
 1279 041a D901     		.2byte	0x1d9
 1280 041c FB040000 		.4byte	0x4fb
 1281 0420 70       		.byte	0x70
 1282 0421 08       		.uleb128 0x8
 1283 0422 8A010000 		.4byte	.LASF76
 1284 0426 03       		.byte	0x3
 1285 0427 E501     		.2byte	0x1e5
 1286 0429 F4050000 		.4byte	0x5f4
 1287 042d 78       		.byte	0x78
 1288 042e 00       		.byte	0
 1289 042f 03       		.uleb128 0x3
 1290 0430 04       		.byte	0x4
 1291 0431 07       		.byte	0x7
 1292 0432 4D020000 		.4byte	.LASF77
 1293 0436 04       		.uleb128 0x4
 1294 0437 6B010000 		.4byte	.LASF78
 1295 043b 09       		.byte	0x9
 1296 043c 65       		.byte	0x65
 1297 043d F9020000 		.4byte	0x2f9
 1298 0441 04       		.uleb128 0x4
 1299 0442 38020000 		.4byte	.LASF79
 1300 0446 09       		.byte	0x9
 1301 0447 6D       		.byte	0x6d
 1302 0448 B8000000 		.4byte	0xb8
 1303 044c 05       		.uleb128 0x5
 1304 044d D7040000 		.4byte	.LASF80
 1305 0451 04       		.byte	0x4
 1306 0452 09       		.byte	0x9
 1307 0453 89       		.byte	0x89
 1308 0454 65040000 		.4byte	0x465
 1309 0458 0F       		.uleb128 0xf
 1310 0459 72313300 		.ascii	"r13\000"
ARM GAS  /tmp/ccnA0Hbj.s 			page 52


 1311 045d 09       		.byte	0x9
 1312 045e 8A       		.byte	0x8a
 1313 045f E0040000 		.4byte	0x4e0
 1314 0463 00       		.byte	0
 1315 0464 00       		.byte	0
 1316 0465 05       		.uleb128 0x5
 1317 0466 3A000000 		.4byte	.LASF81
 1318 046a 24       		.byte	0x24
 1319 046b 0A       		.byte	0xa
 1320 046c FD       		.byte	0xfd
 1321 046d E0040000 		.4byte	0x4e0
 1322 0471 07       		.uleb128 0x7
 1323 0472 723400   		.ascii	"r4\000"
 1324 0475 0A       		.byte	0xa
 1325 0476 1001     		.2byte	0x110
 1326 0478 36040000 		.4byte	0x436
 1327 047c 00       		.byte	0
 1328 047d 07       		.uleb128 0x7
 1329 047e 723500   		.ascii	"r5\000"
 1330 0481 0A       		.byte	0xa
 1331 0482 1101     		.2byte	0x111
 1332 0484 36040000 		.4byte	0x436
 1333 0488 04       		.byte	0x4
 1334 0489 07       		.uleb128 0x7
 1335 048a 723600   		.ascii	"r6\000"
 1336 048d 0A       		.byte	0xa
 1337 048e 1201     		.2byte	0x112
 1338 0490 36040000 		.4byte	0x436
 1339 0494 08       		.byte	0x8
 1340 0495 07       		.uleb128 0x7
 1341 0496 723700   		.ascii	"r7\000"
 1342 0499 0A       		.byte	0xa
 1343 049a 1301     		.2byte	0x113
 1344 049c 36040000 		.4byte	0x436
 1345 04a0 0C       		.byte	0xc
 1346 04a1 07       		.uleb128 0x7
 1347 04a2 723800   		.ascii	"r8\000"
 1348 04a5 0A       		.byte	0xa
 1349 04a6 1401     		.2byte	0x114
 1350 04a8 36040000 		.4byte	0x436
 1351 04ac 10       		.byte	0x10
 1352 04ad 07       		.uleb128 0x7
 1353 04ae 723900   		.ascii	"r9\000"
 1354 04b1 0A       		.byte	0xa
 1355 04b2 1501     		.2byte	0x115
 1356 04b4 36040000 		.4byte	0x436
 1357 04b8 14       		.byte	0x14
 1358 04b9 07       		.uleb128 0x7
 1359 04ba 72313000 		.ascii	"r10\000"
 1360 04be 0A       		.byte	0xa
 1361 04bf 1601     		.2byte	0x116
 1362 04c1 36040000 		.4byte	0x436
 1363 04c5 18       		.byte	0x18
 1364 04c6 07       		.uleb128 0x7
 1365 04c7 72313100 		.ascii	"r11\000"
 1366 04cb 0A       		.byte	0xa
 1367 04cc 1701     		.2byte	0x117
ARM GAS  /tmp/ccnA0Hbj.s 			page 53


 1368 04ce 36040000 		.4byte	0x436
 1369 04d2 1C       		.byte	0x1c
 1370 04d3 07       		.uleb128 0x7
 1371 04d4 6C7200   		.ascii	"lr\000"
 1372 04d7 0A       		.byte	0xa
 1373 04d8 1801     		.2byte	0x118
 1374 04da 36040000 		.4byte	0x436
 1375 04de 20       		.byte	0x20
 1376 04df 00       		.byte	0
 1377 04e0 09       		.uleb128 0x9
 1378 04e1 04       		.byte	0x4
 1379 04e2 65040000 		.4byte	0x465
 1380 04e6 10       		.uleb128 0x10
 1381 04e7 04       		.byte	0x4
 1382 04e8 0B       		.byte	0xb
 1383 04e9 38       		.byte	0x38
 1384 04ea FB040000 		.4byte	0x4fb
 1385 04ee 06       		.uleb128 0x6
 1386 04ef C2040000 		.4byte	.LASF82
 1387 04f3 0B       		.byte	0xb
 1388 04f4 3C       		.byte	0x3c
 1389 04f5 C3000000 		.4byte	0xc3
 1390 04f9 00       		.byte	0
 1391 04fa 00       		.byte	0
 1392 04fb 04       		.uleb128 0x4
 1393 04fc E1020000 		.4byte	.LASF83
 1394 0500 0B       		.byte	0xb
 1395 0501 3D       		.byte	0x3d
 1396 0502 E6040000 		.4byte	0x4e6
 1397 0506 11       		.uleb128 0x11
 1398 0507 04       		.byte	0x4
 1399 0508 03       		.byte	0x3
 1400 0509 FA       		.byte	0xfa
 1401 050a 6F050000 		.4byte	0x56f
 1402 050e 12       		.uleb128 0x12
 1403 050f 20000000 		.4byte	.LASF84
 1404 0513 03       		.byte	0x3
 1405 0514 0101     		.2byte	0x101
 1406 0516 FA000000 		.4byte	0xfa
 1407 051a 12       		.uleb128 0x12
 1408 051b 76000000 		.4byte	.LASF85
 1409 051f 03       		.byte	0x3
 1410 0520 0801     		.2byte	0x108
 1411 0522 FA000000 		.4byte	0xfa
 1412 0526 12       		.uleb128 0x12
 1413 0527 06060000 		.4byte	.LASF86
 1414 052b 03       		.byte	0x3
 1415 052c 0F01     		.2byte	0x10f
 1416 052e F9020000 		.4byte	0x2f9
 1417 0532 12       		.uleb128 0x12
 1418 0533 1A000000 		.4byte	.LASF87
 1419 0537 03       		.byte	0x3
 1420 0538 1601     		.2byte	0x116
 1421 053a 6F050000 		.4byte	0x56f
 1422 053e 12       		.uleb128 0x12
 1423 053f 8A000000 		.4byte	.LASF88
 1424 0543 03       		.byte	0x3
ARM GAS  /tmp/ccnA0Hbj.s 			page 54


 1425 0544 1B01     		.2byte	0x11b
 1426 0546 FA000000 		.4byte	0xfa
 1427 054a 12       		.uleb128 0x12
 1428 054b B4010000 		.4byte	.LASF89
 1429 054f 03       		.byte	0x3
 1430 0550 2401     		.2byte	0x124
 1431 0552 9A050000 		.4byte	0x59a
 1432 0556 12       		.uleb128 0x12
 1433 0557 24040000 		.4byte	.LASF90
 1434 055b 03       		.byte	0x3
 1435 055c 2D01     		.2byte	0x12d
 1436 055e D1050000 		.4byte	0x5d1
 1437 0562 12       		.uleb128 0x12
 1438 0563 B7030000 		.4byte	.LASF91
 1439 0567 03       		.byte	0x3
 1440 0568 3501     		.2byte	0x135
 1441 056a 05010000 		.4byte	0x105
 1442 056e 00       		.byte	0
 1443 056f 09       		.uleb128 0x9
 1444 0570 04       		.byte	0x4
 1445 0571 11020000 		.4byte	0x211
 1446 0575 05       		.uleb128 0x5
 1447 0576 F5030000 		.4byte	.LASF92
 1448 057a 0C       		.byte	0xc
 1449 057b 0C       		.byte	0xc
 1450 057c 34       		.byte	0x34
 1451 057d 9A050000 		.4byte	0x59a
 1452 0581 06       		.uleb128 0x6
 1453 0582 48010000 		.4byte	.LASF93
 1454 0586 0C       		.byte	0xc
 1455 0587 35       		.byte	0x35
 1456 0588 46020000 		.4byte	0x246
 1457 058c 00       		.byte	0
 1458 058d 06       		.uleb128 0x6
 1459 058e CF010000 		.4byte	.LASF94
 1460 0592 0C       		.byte	0xc
 1461 0593 37       		.byte	0x37
 1462 0594 10010000 		.4byte	0x110
 1463 0598 08       		.byte	0x8
 1464 0599 00       		.byte	0
 1465 059a 09       		.uleb128 0x9
 1466 059b 04       		.byte	0x4
 1467 059c 75050000 		.4byte	0x575
 1468 05a0 05       		.uleb128 0x5
 1469 05a1 08050000 		.4byte	.LASF95
 1470 05a5 10       		.byte	0x10
 1471 05a6 0D       		.byte	0xd
 1472 05a7 39       		.byte	0x39
 1473 05a8 D1050000 		.4byte	0x5d1
 1474 05ac 06       		.uleb128 0x6
 1475 05ad EF000000 		.4byte	.LASF96
 1476 05b1 0D       		.byte	0xd
 1477 05b2 3A       		.byte	0x3a
 1478 05b3 46020000 		.4byte	0x246
 1479 05b7 00       		.byte	0
 1480 05b8 06       		.uleb128 0x6
 1481 05b9 3D060000 		.4byte	.LASF97
ARM GAS  /tmp/ccnA0Hbj.s 			page 55


 1482 05bd 0D       		.byte	0xd
 1483 05be 3C       		.byte	0x3c
 1484 05bf 1C020000 		.4byte	0x21c
 1485 05c3 08       		.byte	0x8
 1486 05c4 06       		.uleb128 0x6
 1487 05c5 F2020000 		.4byte	.LASF98
 1488 05c9 0D       		.byte	0xd
 1489 05ca 3E       		.byte	0x3e
 1490 05cb 0F060000 		.4byte	0x60f
 1491 05cf 0C       		.byte	0xc
 1492 05d0 00       		.byte	0
 1493 05d1 09       		.uleb128 0x9
 1494 05d2 04       		.byte	0x4
 1495 05d3 A0050000 		.4byte	0x5a0
 1496 05d7 09       		.uleb128 0x9
 1497 05d8 04       		.byte	0x4
 1498 05d9 DD050000 		.4byte	0x5dd
 1499 05dd 13       		.uleb128 0x13
 1500 05de E2050000 		.4byte	0x5e2
 1501 05e2 03       		.uleb128 0x3
 1502 05e3 01       		.byte	0x1
 1503 05e4 08       		.byte	0x8
 1504 05e5 61040000 		.4byte	.LASF99
 1505 05e9 09       		.uleb128 0x9
 1506 05ea 04       		.byte	0x4
 1507 05eb FB020000 		.4byte	0x2fb
 1508 05ef 14       		.uleb128 0x14
 1509 05f0 D7050000 		.4byte	0x5d7
 1510 05f4 15       		.uleb128 0x15
 1511 05f5 41040000 		.4byte	0x441
 1512 05f9 04060000 		.4byte	0x604
 1513 05fd 16       		.uleb128 0x16
 1514 05fe 2F040000 		.4byte	0x42f
 1515 0602 1A       		.byte	0x1a
 1516 0603 00       		.byte	0
 1517 0604 04       		.uleb128 0x4
 1518 0605 7C010000 		.4byte	.LASF100
 1519 0609 0D       		.byte	0xd
 1520 060a 34       		.byte	0x34
 1521 060b A0050000 		.4byte	0x5a0
 1522 060f 09       		.uleb128 0x9
 1523 0610 04       		.byte	0x4
 1524 0611 04060000 		.4byte	0x604
 1525 0615 17       		.uleb128 0x17
 1526 0616 AA040000 		.4byte	.LASF104
 1527 061a 02       		.byte	0x2
 1528 061b 2202     		.2byte	0x222
 1529 061d 03       		.byte	0x3
 1530 061e 2F060000 		.4byte	0x62f
 1531 0622 18       		.uleb128 0x18
 1532 0623 84010000 		.4byte	.LASF106
 1533 0627 02       		.byte	0x2
 1534 0628 2202     		.2byte	0x222
 1535 062a AD000000 		.4byte	0xad
 1536 062e 00       		.byte	0
 1537 062f 19       		.uleb128 0x19
 1538 0630 55000000 		.4byte	.LASF101
ARM GAS  /tmp/ccnA0Hbj.s 			page 56


 1539 0634 0A       		.byte	0xa
 1540 0635 C801     		.2byte	0x1c8
 1541 0637 03       		.byte	0x3
 1542 0638 19       		.uleb128 0x19
 1543 0639 FE000000 		.4byte	.LASF102
 1544 063d 0A       		.byte	0xa
 1545 063e E001     		.2byte	0x1e0
 1546 0640 03       		.byte	0x3
 1547 0641 19       		.uleb128 0x19
 1548 0642 CD030000 		.4byte	.LASF103
 1549 0646 0E       		.byte	0xe
 1550 0647 5A01     		.2byte	0x15a
 1551 0649 03       		.byte	0x3
 1552 064a 17       		.uleb128 0x17
 1553 064b 0D000000 		.4byte	.LASF105
 1554 064f 03       		.byte	0x3
 1555 0650 9902     		.2byte	0x299
 1556 0652 03       		.byte	0x3
 1557 0653 6F060000 		.4byte	0x66f
 1558 0657 1A       		.uleb128 0x1a
 1559 0658 747000   		.ascii	"tp\000"
 1560 065b 03       		.byte	0x3
 1561 065c 9902     		.2byte	0x299
 1562 065e 1C020000 		.4byte	0x21c
 1563 0662 1A       		.uleb128 0x1a
 1564 0663 74717000 		.ascii	"tqp\000"
 1565 0667 03       		.byte	0x3
 1566 0668 9902     		.2byte	0x299
 1567 066a 6F060000 		.4byte	0x66f
 1568 066e 00       		.byte	0
 1569 066f 09       		.uleb128 0x9
 1570 0670 04       		.byte	0x4
 1571 0671 46020000 		.4byte	0x246
 1572 0675 17       		.uleb128 0x17
 1573 0676 23060000 		.4byte	.LASF107
 1574 067a 0E       		.byte	0xe
 1575 067b 6601     		.2byte	0x166
 1576 067d 03       		.byte	0x3
 1577 067e 90060000 		.4byte	0x690
 1578 0682 1B       		.uleb128 0x1b
 1579 0683 C9040000 		.4byte	.LASF111
 1580 0687 A0060000 		.4byte	0x6a0
 1581 068b 23060000 		.4byte	.LASF107
 1582 068f 00       		.byte	0
 1583 0690 15       		.uleb128 0x15
 1584 0691 E2050000 		.4byte	0x5e2
 1585 0695 A0060000 		.4byte	0x6a0
 1586 0699 16       		.uleb128 0x16
 1587 069a 2F040000 		.4byte	0x42f
 1588 069e 0B       		.byte	0xb
 1589 069f 00       		.byte	0
 1590 06a0 13       		.uleb128 0x13
 1591 06a1 90060000 		.4byte	0x690
 1592 06a5 1C       		.uleb128 0x1c
 1593 06a6 30010000 		.4byte	.LASF109
 1594 06aa 04       		.byte	0x4
 1595 06ab 4F       		.byte	0x4f
ARM GAS  /tmp/ccnA0Hbj.s 			page 57


 1596 06ac C0060000 		.4byte	0x6c0
 1597 06b0 03       		.byte	0x3
 1598 06b1 C0060000 		.4byte	0x6c0
 1599 06b5 1D       		.uleb128 0x1d
 1600 06b6 747000   		.ascii	"tp\000"
 1601 06b9 04       		.byte	0x4
 1602 06ba 4F       		.byte	0x4f
 1603 06bb 1C020000 		.4byte	0x21c
 1604 06bf 00       		.byte	0
 1605 06c0 03       		.uleb128 0x3
 1606 06c1 01       		.byte	0x1
 1607 06c2 02       		.byte	0x2
 1608 06c3 5B030000 		.4byte	.LASF108
 1609 06c7 1E       		.uleb128 0x1e
 1610 06c8 6F040000 		.4byte	.LASF110
 1611 06cc 03       		.byte	0x3
 1612 06cd A102     		.2byte	0x2a1
 1613 06cf 1C020000 		.4byte	0x21c
 1614 06d3 03       		.byte	0x3
 1615 06d4 F0060000 		.4byte	0x6f0
 1616 06d8 1A       		.uleb128 0x1a
 1617 06d9 74717000 		.ascii	"tqp\000"
 1618 06dd 03       		.byte	0x3
 1619 06de A102     		.2byte	0x2a1
 1620 06e0 6F060000 		.4byte	0x66f
 1621 06e4 1F       		.uleb128 0x1f
 1622 06e5 747000   		.ascii	"tp\000"
 1623 06e8 03       		.byte	0x3
 1624 06e9 A202     		.2byte	0x2a2
 1625 06eb 1C020000 		.4byte	0x21c
 1626 06ef 00       		.byte	0
 1627 06f0 20       		.uleb128 0x20
 1628 06f1 2F060000 		.4byte	.LASF112
 1629 06f5 04       		.byte	0x4
 1630 06f6 71       		.byte	0x71
 1631 06f7 03       		.byte	0x3
 1632 06f8 12070000 		.4byte	0x712
 1633 06fc 1D       		.uleb128 0x1d
 1634 06fd 747000   		.ascii	"tp\000"
 1635 0700 04       		.byte	0x4
 1636 0701 71       		.byte	0x71
 1637 0702 1C020000 		.4byte	0x21c
 1638 0706 1D       		.uleb128 0x1d
 1639 0707 6D736700 		.ascii	"msg\000"
 1640 070b 04       		.byte	0x4
 1641 070c 71       		.byte	0x71
 1642 070d FA000000 		.4byte	0xfa
 1643 0711 00       		.byte	0
 1644 0712 21       		.uleb128 0x21
 1645 0713 1D010000 		.4byte	.LASF113
 1646 0717 01       		.byte	0x1
 1647 0718 57       		.byte	0x57
 1648 0719 FA000000 		.4byte	0xfa
 1649 071d 00000000 		.4byte	.LFB241
 1650 0721 3C000000 		.4byte	.LFE241-.LFB241
 1651 0725 01       		.uleb128 0x1
 1652 0726 9C       		.byte	0x9c
ARM GAS  /tmp/ccnA0Hbj.s 			page 58


 1653 0727 29080000 		.4byte	0x829
 1654 072b 22       		.uleb128 0x22
 1655 072c 747000   		.ascii	"tp\000"
 1656 072f 01       		.byte	0x1
 1657 0730 57       		.byte	0x57
 1658 0731 1C020000 		.4byte	0x21c
 1659 0735 00000000 		.4byte	.LLST0
 1660 0739 22       		.uleb128 0x22
 1661 073a 6D736700 		.ascii	"msg\000"
 1662 073e 01       		.byte	0x1
 1663 073f 57       		.byte	0x57
 1664 0740 FA000000 		.4byte	0xfa
 1665 0744 38000000 		.4byte	.LLST1
 1666 0748 23       		.uleb128 0x23
 1667 0749 63747000 		.ascii	"ctp\000"
 1668 074d 01       		.byte	0x1
 1669 074e 58       		.byte	0x58
 1670 074f 1C020000 		.4byte	0x21c
 1671 0753 01       		.uleb128 0x1
 1672 0754 54       		.byte	0x54
 1673 0755 24       		.uleb128 0x24
 1674 0756 3D030000 		.4byte	.LASF115
 1675 075a 39080000 		.4byte	0x839
 1676 075e 25       		.uleb128 0x25
 1677 075f 41060000 		.4byte	0x641
 1678 0763 04000000 		.4byte	.LBB52
 1679 0767 00000000 		.4byte	.Ldebug_ranges0+0
 1680 076b 01       		.byte	0x1
 1681 076c 5C       		.byte	0x5c
 1682 076d 9A070000 		.4byte	0x79a
 1683 0771 26       		.uleb128 0x26
 1684 0772 2F060000 		.4byte	0x62f
 1685 0776 04000000 		.4byte	.LBB53
 1686 077a 00000000 		.4byte	.Ldebug_ranges0+0
 1687 077e 0E       		.byte	0xe
 1688 077f 5C01     		.2byte	0x15c
 1689 0781 26       		.uleb128 0x26
 1690 0782 15060000 		.4byte	0x615
 1691 0786 04000000 		.4byte	.LBB54
 1692 078a 00000000 		.4byte	.Ldebug_ranges0+0
 1693 078e 0A       		.byte	0xa
 1694 078f D001     		.2byte	0x1d0
 1695 0791 27       		.uleb128 0x27
 1696 0792 22060000 		.4byte	0x622
 1697 0796 20       		.byte	0x20
 1698 0797 00       		.byte	0
 1699 0798 00       		.byte	0
 1700 0799 00       		.byte	0
 1701 079a 25       		.uleb128 0x25
 1702 079b 4A060000 		.4byte	0x64a
 1703 079f 10000000 		.4byte	.LBB60
 1704 07a3 18000000 		.4byte	.Ldebug_ranges0+0x18
 1705 07a7 01       		.byte	0x1
 1706 07a8 5E       		.byte	0x5e
 1707 07a9 BE070000 		.4byte	0x7be
 1708 07ad 28       		.uleb128 0x28
 1709 07ae 62060000 		.4byte	0x662
ARM GAS  /tmp/ccnA0Hbj.s 			page 59


 1710 07b2 7E000000 		.4byte	.LLST2
 1711 07b6 29       		.uleb128 0x29
 1712 07b7 57060000 		.4byte	0x657
 1713 07bb 01       		.uleb128 0x1
 1714 07bc 54       		.byte	0x54
 1715 07bd 00       		.byte	0
 1716 07be 2A       		.uleb128 0x2a
 1717 07bf 75060000 		.4byte	0x675
 1718 07c3 2A000000 		.4byte	.LBB64
 1719 07c7 06000000 		.4byte	.LBE64-.LBB64
 1720 07cb 01       		.byte	0x1
 1721 07cc 64       		.byte	0x64
 1722 07cd 0C080000 		.4byte	0x80c
 1723 07d1 2B       		.uleb128 0x2b
 1724 07d2 2A000000 		.4byte	.LBB65
 1725 07d6 06000000 		.4byte	.LBE65-.LBB65
 1726 07da 2C       		.uleb128 0x2c
 1727 07db 82060000 		.4byte	0x682
 1728 07df 2D       		.uleb128 0x2d
 1729 07e0 38060000 		.4byte	0x638
 1730 07e4 2A000000 		.4byte	.LBB66
 1731 07e8 06000000 		.4byte	.LBE66-.LBB66
 1732 07ec 0E       		.byte	0xe
 1733 07ed 7301     		.2byte	0x173
 1734 07ef 2D       		.uleb128 0x2d
 1735 07f0 15060000 		.4byte	0x615
 1736 07f4 2A000000 		.4byte	.LBB67
 1737 07f8 06000000 		.4byte	.LBE67-.LBB67
 1738 07fc 0A       		.byte	0xa
 1739 07fd E301     		.2byte	0x1e3
 1740 07ff 28       		.uleb128 0x28
 1741 0800 22060000 		.4byte	0x622
 1742 0804 9E000000 		.4byte	.LLST3
 1743 0808 00       		.byte	0
 1744 0809 00       		.byte	0
 1745 080a 00       		.byte	0
 1746 080b 00       		.byte	0
 1747 080c 2E       		.uleb128 0x2e
 1748 080d 28000000 		.4byte	.LVL7
 1749 0811 6E0A0000 		.4byte	0xa6e
 1750 0815 1F080000 		.4byte	0x81f
 1751 0819 2F       		.uleb128 0x2f
 1752 081a 01       		.uleb128 0x1
 1753 081b 50       		.byte	0x50
 1754 081c 01       		.uleb128 0x1
 1755 081d 3C       		.byte	0x3c
 1756 081e 00       		.byte	0
 1757 081f 30       		.uleb128 0x30
 1758 0820 36000000 		.4byte	.LVL10
 1759 0824 800A0000 		.4byte	0xa80
 1760 0828 00       		.byte	0
 1761 0829 15       		.uleb128 0x15
 1762 082a E2050000 		.4byte	0x5e2
 1763 082e 39080000 		.4byte	0x839
 1764 0832 16       		.uleb128 0x16
 1765 0833 2F040000 		.4byte	0x42f
 1766 0837 09       		.byte	0x9
ARM GAS  /tmp/ccnA0Hbj.s 			page 60


 1767 0838 00       		.byte	0
 1768 0839 13       		.uleb128 0x13
 1769 083a 29080000 		.4byte	0x829
 1770 083e 21       		.uleb128 0x21
 1771 083f EE040000 		.4byte	.LASF114
 1772 0843 01       		.byte	0x1
 1773 0844 77       		.byte	0x77
 1774 0845 1C020000 		.4byte	0x21c
 1775 0849 00000000 		.4byte	.LFB242
 1776 084d 3C000000 		.4byte	.LFE242-.LFB242
 1777 0851 01       		.uleb128 0x1
 1778 0852 9C       		.byte	0x9c
 1779 0853 40090000 		.4byte	0x940
 1780 0857 31       		.uleb128 0x31
 1781 0858 747000   		.ascii	"tp\000"
 1782 085b 01       		.byte	0x1
 1783 085c 78       		.byte	0x78
 1784 085d 1C020000 		.4byte	0x21c
 1785 0861 2A       		.uleb128 0x2a
 1786 0862 41060000 		.4byte	0x641
 1787 0866 02000000 		.4byte	.LBB69
 1788 086a 06000000 		.4byte	.LBE69-.LBB69
 1789 086e 01       		.byte	0x1
 1790 086f 7A       		.byte	0x7a
 1791 0870 9D080000 		.4byte	0x89d
 1792 0874 2D       		.uleb128 0x2d
 1793 0875 2F060000 		.4byte	0x62f
 1794 0879 02000000 		.4byte	.LBB70
 1795 087d 06000000 		.4byte	.LBE70-.LBB70
 1796 0881 0E       		.byte	0xe
 1797 0882 5C01     		.2byte	0x15c
 1798 0884 2D       		.uleb128 0x2d
 1799 0885 15060000 		.4byte	0x615
 1800 0889 02000000 		.4byte	.LBB71
 1801 088d 06000000 		.4byte	.LBE71-.LBB71
 1802 0891 0A       		.byte	0xa
 1803 0892 D001     		.2byte	0x1d0
 1804 0894 27       		.uleb128 0x27
 1805 0895 22060000 		.4byte	0x622
 1806 0899 20       		.byte	0x20
 1807 089a 00       		.byte	0
 1808 089b 00       		.byte	0
 1809 089c 00       		.byte	0
 1810 089d 2A       		.uleb128 0x2a
 1811 089e A5060000 		.4byte	0x6a5
 1812 08a2 0C000000 		.4byte	.LBB73
 1813 08a6 06000000 		.4byte	.LBE73-.LBB73
 1814 08aa 01       		.byte	0x1
 1815 08ab 7B       		.byte	0x7b
 1816 08ac BA080000 		.4byte	0x8ba
 1817 08b0 28       		.uleb128 0x28
 1818 08b1 B5060000 		.4byte	0x6b5
 1819 08b5 B2000000 		.4byte	.LLST4
 1820 08b9 00       		.byte	0
 1821 08ba 25       		.uleb128 0x25
 1822 08bb C7060000 		.4byte	0x6c7
 1823 08bf 16000000 		.4byte	.LBB75
ARM GAS  /tmp/ccnA0Hbj.s 			page 61


 1824 08c3 30000000 		.4byte	.Ldebug_ranges0+0x30
 1825 08c7 01       		.byte	0x1
 1826 08c8 7E       		.byte	0x7e
 1827 08c9 E6080000 		.4byte	0x8e6
 1828 08cd 28       		.uleb128 0x28
 1829 08ce D8060000 		.4byte	0x6d8
 1830 08d2 D0000000 		.4byte	.LLST5
 1831 08d6 32       		.uleb128 0x32
 1832 08d7 30000000 		.4byte	.Ldebug_ranges0+0x30
 1833 08db 33       		.uleb128 0x33
 1834 08dc E4060000 		.4byte	0x6e4
 1835 08e0 EF000000 		.4byte	.LLST6
 1836 08e4 00       		.byte	0
 1837 08e5 00       		.byte	0
 1838 08e6 25       		.uleb128 0x25
 1839 08e7 75060000 		.4byte	0x675
 1840 08eb 1E000000 		.4byte	.LBB79
 1841 08ef 48000000 		.4byte	.Ldebug_ranges0+0x48
 1842 08f3 01       		.byte	0x1
 1843 08f4 80       		.byte	0x80
 1844 08f5 30090000 		.4byte	0x930
 1845 08f9 32       		.uleb128 0x32
 1846 08fa 48000000 		.4byte	.Ldebug_ranges0+0x48
 1847 08fe 2C       		.uleb128 0x2c
 1848 08ff 82060000 		.4byte	0x682
 1849 0903 26       		.uleb128 0x26
 1850 0904 38060000 		.4byte	0x638
 1851 0908 1E000000 		.4byte	.LBB81
 1852 090c 48000000 		.4byte	.Ldebug_ranges0+0x48
 1853 0910 0E       		.byte	0xe
 1854 0911 7301     		.2byte	0x173
 1855 0913 26       		.uleb128 0x26
 1856 0914 15060000 		.4byte	0x615
 1857 0918 1E000000 		.4byte	.LBB82
 1858 091c 48000000 		.4byte	.Ldebug_ranges0+0x48
 1859 0920 0A       		.byte	0xa
 1860 0921 E301     		.2byte	0x1e3
 1861 0923 28       		.uleb128 0x28
 1862 0924 22060000 		.4byte	0x622
 1863 0928 02010000 		.4byte	.LLST7
 1864 092c 00       		.byte	0
 1865 092d 00       		.byte	0
 1866 092e 00       		.byte	0
 1867 092f 00       		.byte	0
 1868 0930 34       		.uleb128 0x34
 1869 0931 2E000000 		.4byte	.LVL17
 1870 0935 6E0A0000 		.4byte	0xa6e
 1871 0939 2F       		.uleb128 0x2f
 1872 093a 01       		.uleb128 0x1
 1873 093b 50       		.byte	0x50
 1874 093c 01       		.uleb128 0x1
 1875 093d 3E       		.byte	0x3e
 1876 093e 00       		.byte	0
 1877 093f 00       		.byte	0
 1878 0940 35       		.uleb128 0x35
 1879 0941 E8030000 		.4byte	.LASF121
 1880 0945 01       		.byte	0x1
ARM GAS  /tmp/ccnA0Hbj.s 			page 62


 1881 0946 8F       		.byte	0x8f
 1882 0947 00000000 		.4byte	.LFB243
 1883 094b 14000000 		.4byte	.LFE243-.LFB243
 1884 094f 01       		.uleb128 0x1
 1885 0950 9C       		.byte	0x9c
 1886 0951 3D0A0000 		.4byte	0xa3d
 1887 0955 22       		.uleb128 0x22
 1888 0956 747000   		.ascii	"tp\000"
 1889 0959 01       		.byte	0x1
 1890 095a 8F       		.byte	0x8f
 1891 095b 1C020000 		.4byte	0x21c
 1892 095f 16010000 		.4byte	.LLST8
 1893 0963 22       		.uleb128 0x22
 1894 0964 6D736700 		.ascii	"msg\000"
 1895 0968 01       		.byte	0x1
 1896 0969 8F       		.byte	0x8f
 1897 096a FA000000 		.4byte	0xfa
 1898 096e 37010000 		.4byte	.LLST9
 1899 0972 24       		.uleb128 0x24
 1900 0973 D5010000 		.4byte	.LASF116
 1901 0977 4D0A0000 		.4byte	0xa4d
 1902 097b 2A       		.uleb128 0x2a
 1903 097c 41060000 		.4byte	0x641
 1904 0980 02000000 		.4byte	.LBB89
 1905 0984 06000000 		.4byte	.LBE89-.LBB89
 1906 0988 01       		.byte	0x1
 1907 0989 91       		.byte	0x91
 1908 098a B7090000 		.4byte	0x9b7
 1909 098e 2D       		.uleb128 0x2d
 1910 098f 2F060000 		.4byte	0x62f
 1911 0993 02000000 		.4byte	.LBB90
 1912 0997 06000000 		.4byte	.LBE90-.LBB90
 1913 099b 0E       		.byte	0xe
 1914 099c 5C01     		.2byte	0x15c
 1915 099e 2D       		.uleb128 0x2d
 1916 099f 15060000 		.4byte	0x615
 1917 09a3 02000000 		.4byte	.LBB91
 1918 09a7 06000000 		.4byte	.LBE91-.LBB91
 1919 09ab 0A       		.byte	0xa
 1920 09ac D001     		.2byte	0x1d0
 1921 09ae 27       		.uleb128 0x27
 1922 09af 22060000 		.4byte	0x622
 1923 09b3 20       		.byte	0x20
 1924 09b4 00       		.byte	0
 1925 09b5 00       		.byte	0
 1926 09b6 00       		.byte	0
 1927 09b7 2A       		.uleb128 0x2a
 1928 09b8 F0060000 		.4byte	0x6f0
 1929 09bc 08000000 		.4byte	.LBB93
 1930 09c0 04000000 		.4byte	.LBE93-.LBB93
 1931 09c4 01       		.byte	0x1
 1932 09c5 93       		.byte	0x93
 1933 09c6 F5090000 		.4byte	0x9f5
 1934 09ca 28       		.uleb128 0x28
 1935 09cb 06070000 		.4byte	0x706
 1936 09cf 58010000 		.4byte	.LLST10
 1937 09d3 28       		.uleb128 0x28
ARM GAS  /tmp/ccnA0Hbj.s 			page 63


 1938 09d4 FC060000 		.4byte	0x6fc
 1939 09d8 79010000 		.4byte	.LLST11
 1940 09dc 34       		.uleb128 0x34
 1941 09dd 0C000000 		.4byte	.LVL20
 1942 09e1 960A0000 		.4byte	0xa96
 1943 09e5 2F       		.uleb128 0x2f
 1944 09e6 01       		.uleb128 0x1
 1945 09e7 51       		.byte	0x51
 1946 09e8 03       		.uleb128 0x3
 1947 09e9 F3       		.byte	0xf3
 1948 09ea 01       		.uleb128 0x1
 1949 09eb 51       		.byte	0x51
 1950 09ec 2F       		.uleb128 0x2f
 1951 09ed 01       		.uleb128 0x1
 1952 09ee 50       		.byte	0x50
 1953 09ef 03       		.uleb128 0x3
 1954 09f0 F3       		.byte	0xf3
 1955 09f1 01       		.uleb128 0x1
 1956 09f2 50       		.byte	0x50
 1957 09f3 00       		.byte	0
 1958 09f4 00       		.byte	0
 1959 09f5 36       		.uleb128 0x36
 1960 09f6 75060000 		.4byte	0x675
 1961 09fa 0C000000 		.4byte	.LBB95
 1962 09fe 08000000 		.4byte	.LBE95-.LBB95
 1963 0a02 01       		.byte	0x1
 1964 0a03 94       		.byte	0x94
 1965 0a04 2B       		.uleb128 0x2b
 1966 0a05 0C000000 		.4byte	.LBB96
 1967 0a09 08000000 		.4byte	.LBE96-.LBB96
 1968 0a0d 2C       		.uleb128 0x2c
 1969 0a0e 82060000 		.4byte	0x682
 1970 0a12 2D       		.uleb128 0x2d
 1971 0a13 38060000 		.4byte	0x638
 1972 0a17 0C000000 		.4byte	.LBB97
 1973 0a1b 08000000 		.4byte	.LBE97-.LBB97
 1974 0a1f 0E       		.byte	0xe
 1975 0a20 7301     		.2byte	0x173
 1976 0a22 2D       		.uleb128 0x2d
 1977 0a23 15060000 		.4byte	0x615
 1978 0a27 0C000000 		.4byte	.LBB98
 1979 0a2b 08000000 		.4byte	.LBE98-.LBB98
 1980 0a2f 0A       		.byte	0xa
 1981 0a30 E301     		.2byte	0x1e3
 1982 0a32 27       		.uleb128 0x27
 1983 0a33 22060000 		.4byte	0x622
 1984 0a37 00       		.byte	0
 1985 0a38 00       		.byte	0
 1986 0a39 00       		.byte	0
 1987 0a3a 00       		.byte	0
 1988 0a3b 00       		.byte	0
 1989 0a3c 00       		.byte	0
 1990 0a3d 15       		.uleb128 0x15
 1991 0a3e E2050000 		.4byte	0x5e2
 1992 0a42 4D0A0000 		.4byte	0xa4d
 1993 0a46 16       		.uleb128 0x16
 1994 0a47 2F040000 		.4byte	0x42f
ARM GAS  /tmp/ccnA0Hbj.s 			page 64


 1995 0a4b 0C       		.byte	0xc
 1996 0a4c 00       		.byte	0
 1997 0a4d 13       		.uleb128 0x13
 1998 0a4e 3D0A0000 		.4byte	0xa3d
 1999 0a52 37       		.uleb128 0x37
 2000 0a53 A8000000 		.4byte	.LASF117
 2001 0a57 0F       		.byte	0xf
 2002 0a58 FA06     		.2byte	0x6fa
 2003 0a5a 5E0A0000 		.4byte	0xa5e
 2004 0a5e 14       		.uleb128 0x14
 2005 0a5f A2000000 		.4byte	0xa2
 2006 0a63 38       		.uleb128 0x38
 2007 0a64 636800   		.ascii	"ch\000"
 2008 0a67 03       		.byte	0x3
 2009 0a68 0B02     		.2byte	0x20b
 2010 0a6a C8030000 		.4byte	0x3c8
 2011 0a6e 39       		.uleb128 0x39
 2012 0a6f 02040000 		.4byte	.LASF122
 2013 0a73 03       		.byte	0x3
 2014 0a74 1602     		.2byte	0x216
 2015 0a76 800A0000 		.4byte	0xa80
 2016 0a7a 0C       		.uleb128 0xc
 2017 0a7b D9000000 		.4byte	0xd9
 2018 0a7f 00       		.byte	0
 2019 0a80 3A       		.uleb128 0x3a
 2020 0a81 33040000 		.4byte	.LASF123
 2021 0a85 03       		.byte	0x3
 2022 0a86 1502     		.2byte	0x215
 2023 0a88 1C020000 		.4byte	0x21c
 2024 0a8c 960A0000 		.4byte	0xa96
 2025 0a90 0C       		.uleb128 0xc
 2026 0a91 1C020000 		.4byte	0x21c
 2027 0a95 00       		.byte	0
 2028 0a96 3B       		.uleb128 0x3b
 2029 0a97 ED010000 		.4byte	.LASF124
 2030 0a9b 03       		.byte	0x3
 2031 0a9c 1802     		.2byte	0x218
 2032 0a9e 0C       		.uleb128 0xc
 2033 0a9f 1C020000 		.4byte	0x21c
 2034 0aa3 0C       		.uleb128 0xc
 2035 0aa4 FA000000 		.4byte	0xfa
 2036 0aa8 00       		.byte	0
 2037 0aa9 00       		.byte	0
 2038              		.section	.debug_abbrev,"",%progbits
 2039              	.Ldebug_abbrev0:
 2040 0000 01       		.uleb128 0x1
 2041 0001 11       		.uleb128 0x11
 2042 0002 01       		.byte	0x1
 2043 0003 25       		.uleb128 0x25
 2044 0004 0E       		.uleb128 0xe
 2045 0005 13       		.uleb128 0x13
 2046 0006 0B       		.uleb128 0xb
 2047 0007 03       		.uleb128 0x3
 2048 0008 0E       		.uleb128 0xe
 2049 0009 1B       		.uleb128 0x1b
 2050 000a 0E       		.uleb128 0xe
 2051 000b 55       		.uleb128 0x55
ARM GAS  /tmp/ccnA0Hbj.s 			page 65


 2052 000c 17       		.uleb128 0x17
 2053 000d 11       		.uleb128 0x11
 2054 000e 01       		.uleb128 0x1
 2055 000f 10       		.uleb128 0x10
 2056 0010 17       		.uleb128 0x17
 2057 0011 00       		.byte	0
 2058 0012 00       		.byte	0
 2059 0013 02       		.uleb128 0x2
 2060 0014 24       		.uleb128 0x24
 2061 0015 00       		.byte	0
 2062 0016 0B       		.uleb128 0xb
 2063 0017 0B       		.uleb128 0xb
 2064 0018 3E       		.uleb128 0x3e
 2065 0019 0B       		.uleb128 0xb
 2066 001a 03       		.uleb128 0x3
 2067 001b 08       		.uleb128 0x8
 2068 001c 00       		.byte	0
 2069 001d 00       		.byte	0
 2070 001e 03       		.uleb128 0x3
 2071 001f 24       		.uleb128 0x24
 2072 0020 00       		.byte	0
 2073 0021 0B       		.uleb128 0xb
 2074 0022 0B       		.uleb128 0xb
 2075 0023 3E       		.uleb128 0x3e
 2076 0024 0B       		.uleb128 0xb
 2077 0025 03       		.uleb128 0x3
 2078 0026 0E       		.uleb128 0xe
 2079 0027 00       		.byte	0
 2080 0028 00       		.byte	0
 2081 0029 04       		.uleb128 0x4
 2082 002a 16       		.uleb128 0x16
 2083 002b 00       		.byte	0
 2084 002c 03       		.uleb128 0x3
 2085 002d 0E       		.uleb128 0xe
 2086 002e 3A       		.uleb128 0x3a
 2087 002f 0B       		.uleb128 0xb
 2088 0030 3B       		.uleb128 0x3b
 2089 0031 0B       		.uleb128 0xb
 2090 0032 49       		.uleb128 0x49
 2091 0033 13       		.uleb128 0x13
 2092 0034 00       		.byte	0
 2093 0035 00       		.byte	0
 2094 0036 05       		.uleb128 0x5
 2095 0037 13       		.uleb128 0x13
 2096 0038 01       		.byte	0x1
 2097 0039 03       		.uleb128 0x3
 2098 003a 0E       		.uleb128 0xe
 2099 003b 0B       		.uleb128 0xb
 2100 003c 0B       		.uleb128 0xb
 2101 003d 3A       		.uleb128 0x3a
 2102 003e 0B       		.uleb128 0xb
 2103 003f 3B       		.uleb128 0x3b
 2104 0040 0B       		.uleb128 0xb
 2105 0041 01       		.uleb128 0x1
 2106 0042 13       		.uleb128 0x13
 2107 0043 00       		.byte	0
 2108 0044 00       		.byte	0
ARM GAS  /tmp/ccnA0Hbj.s 			page 66


 2109 0045 06       		.uleb128 0x6
 2110 0046 0D       		.uleb128 0xd
 2111 0047 00       		.byte	0
 2112 0048 03       		.uleb128 0x3
 2113 0049 0E       		.uleb128 0xe
 2114 004a 3A       		.uleb128 0x3a
 2115 004b 0B       		.uleb128 0xb
 2116 004c 3B       		.uleb128 0x3b
 2117 004d 0B       		.uleb128 0xb
 2118 004e 49       		.uleb128 0x49
 2119 004f 13       		.uleb128 0x13
 2120 0050 38       		.uleb128 0x38
 2121 0051 0B       		.uleb128 0xb
 2122 0052 00       		.byte	0
 2123 0053 00       		.byte	0
 2124 0054 07       		.uleb128 0x7
 2125 0055 0D       		.uleb128 0xd
 2126 0056 00       		.byte	0
 2127 0057 03       		.uleb128 0x3
 2128 0058 08       		.uleb128 0x8
 2129 0059 3A       		.uleb128 0x3a
 2130 005a 0B       		.uleb128 0xb
 2131 005b 3B       		.uleb128 0x3b
 2132 005c 05       		.uleb128 0x5
 2133 005d 49       		.uleb128 0x49
 2134 005e 13       		.uleb128 0x13
 2135 005f 38       		.uleb128 0x38
 2136 0060 0B       		.uleb128 0xb
 2137 0061 00       		.byte	0
 2138 0062 00       		.byte	0
 2139 0063 08       		.uleb128 0x8
 2140 0064 0D       		.uleb128 0xd
 2141 0065 00       		.byte	0
 2142 0066 03       		.uleb128 0x3
 2143 0067 0E       		.uleb128 0xe
 2144 0068 3A       		.uleb128 0x3a
 2145 0069 0B       		.uleb128 0xb
 2146 006a 3B       		.uleb128 0x3b
 2147 006b 05       		.uleb128 0x5
 2148 006c 49       		.uleb128 0x49
 2149 006d 13       		.uleb128 0x13
 2150 006e 38       		.uleb128 0x38
 2151 006f 0B       		.uleb128 0xb
 2152 0070 00       		.byte	0
 2153 0071 00       		.byte	0
 2154 0072 09       		.uleb128 0x9
 2155 0073 0F       		.uleb128 0xf
 2156 0074 00       		.byte	0
 2157 0075 0B       		.uleb128 0xb
 2158 0076 0B       		.uleb128 0xb
 2159 0077 49       		.uleb128 0x49
 2160 0078 13       		.uleb128 0x13
 2161 0079 00       		.byte	0
 2162 007a 00       		.byte	0
 2163 007b 0A       		.uleb128 0xa
 2164 007c 13       		.uleb128 0x13
 2165 007d 01       		.byte	0x1
ARM GAS  /tmp/ccnA0Hbj.s 			page 67


 2166 007e 03       		.uleb128 0x3
 2167 007f 0E       		.uleb128 0xe
 2168 0080 0B       		.uleb128 0xb
 2169 0081 0B       		.uleb128 0xb
 2170 0082 3A       		.uleb128 0x3a
 2171 0083 0B       		.uleb128 0xb
 2172 0084 3B       		.uleb128 0x3b
 2173 0085 05       		.uleb128 0x5
 2174 0086 01       		.uleb128 0x1
 2175 0087 13       		.uleb128 0x13
 2176 0088 00       		.byte	0
 2177 0089 00       		.byte	0
 2178 008a 0B       		.uleb128 0xb
 2179 008b 15       		.uleb128 0x15
 2180 008c 01       		.byte	0x1
 2181 008d 27       		.uleb128 0x27
 2182 008e 19       		.uleb128 0x19
 2183 008f 01       		.uleb128 0x1
 2184 0090 13       		.uleb128 0x13
 2185 0091 00       		.byte	0
 2186 0092 00       		.byte	0
 2187 0093 0C       		.uleb128 0xc
 2188 0094 05       		.uleb128 0x5
 2189 0095 00       		.byte	0
 2190 0096 49       		.uleb128 0x49
 2191 0097 13       		.uleb128 0x13
 2192 0098 00       		.byte	0
 2193 0099 00       		.byte	0
 2194 009a 0D       		.uleb128 0xd
 2195 009b 0F       		.uleb128 0xf
 2196 009c 00       		.byte	0
 2197 009d 0B       		.uleb128 0xb
 2198 009e 0B       		.uleb128 0xb
 2199 009f 00       		.byte	0
 2200 00a0 00       		.byte	0
 2201 00a1 0E       		.uleb128 0xe
 2202 00a2 13       		.uleb128 0x13
 2203 00a3 01       		.byte	0x1
 2204 00a4 03       		.uleb128 0x3
 2205 00a5 0E       		.uleb128 0xe
 2206 00a6 0B       		.uleb128 0xb
 2207 00a7 05       		.uleb128 0x5
 2208 00a8 3A       		.uleb128 0x3a
 2209 00a9 0B       		.uleb128 0xb
 2210 00aa 3B       		.uleb128 0x3b
 2211 00ab 05       		.uleb128 0x5
 2212 00ac 01       		.uleb128 0x1
 2213 00ad 13       		.uleb128 0x13
 2214 00ae 00       		.byte	0
 2215 00af 00       		.byte	0
 2216 00b0 0F       		.uleb128 0xf
 2217 00b1 0D       		.uleb128 0xd
 2218 00b2 00       		.byte	0
 2219 00b3 03       		.uleb128 0x3
 2220 00b4 08       		.uleb128 0x8
 2221 00b5 3A       		.uleb128 0x3a
 2222 00b6 0B       		.uleb128 0xb
ARM GAS  /tmp/ccnA0Hbj.s 			page 68


 2223 00b7 3B       		.uleb128 0x3b
 2224 00b8 0B       		.uleb128 0xb
 2225 00b9 49       		.uleb128 0x49
 2226 00ba 13       		.uleb128 0x13
 2227 00bb 38       		.uleb128 0x38
 2228 00bc 0B       		.uleb128 0xb
 2229 00bd 00       		.byte	0
 2230 00be 00       		.byte	0
 2231 00bf 10       		.uleb128 0x10
 2232 00c0 13       		.uleb128 0x13
 2233 00c1 01       		.byte	0x1
 2234 00c2 0B       		.uleb128 0xb
 2235 00c3 0B       		.uleb128 0xb
 2236 00c4 3A       		.uleb128 0x3a
 2237 00c5 0B       		.uleb128 0xb
 2238 00c6 3B       		.uleb128 0x3b
 2239 00c7 0B       		.uleb128 0xb
 2240 00c8 01       		.uleb128 0x1
 2241 00c9 13       		.uleb128 0x13
 2242 00ca 00       		.byte	0
 2243 00cb 00       		.byte	0
 2244 00cc 11       		.uleb128 0x11
 2245 00cd 17       		.uleb128 0x17
 2246 00ce 01       		.byte	0x1
 2247 00cf 0B       		.uleb128 0xb
 2248 00d0 0B       		.uleb128 0xb
 2249 00d1 3A       		.uleb128 0x3a
 2250 00d2 0B       		.uleb128 0xb
 2251 00d3 3B       		.uleb128 0x3b
 2252 00d4 0B       		.uleb128 0xb
 2253 00d5 01       		.uleb128 0x1
 2254 00d6 13       		.uleb128 0x13
 2255 00d7 00       		.byte	0
 2256 00d8 00       		.byte	0
 2257 00d9 12       		.uleb128 0x12
 2258 00da 0D       		.uleb128 0xd
 2259 00db 00       		.byte	0
 2260 00dc 03       		.uleb128 0x3
 2261 00dd 0E       		.uleb128 0xe
 2262 00de 3A       		.uleb128 0x3a
 2263 00df 0B       		.uleb128 0xb
 2264 00e0 3B       		.uleb128 0x3b
 2265 00e1 05       		.uleb128 0x5
 2266 00e2 49       		.uleb128 0x49
 2267 00e3 13       		.uleb128 0x13
 2268 00e4 00       		.byte	0
 2269 00e5 00       		.byte	0
 2270 00e6 13       		.uleb128 0x13
 2271 00e7 26       		.uleb128 0x26
 2272 00e8 00       		.byte	0
 2273 00e9 49       		.uleb128 0x49
 2274 00ea 13       		.uleb128 0x13
 2275 00eb 00       		.byte	0
 2276 00ec 00       		.byte	0
 2277 00ed 14       		.uleb128 0x14
 2278 00ee 35       		.uleb128 0x35
 2279 00ef 00       		.byte	0
ARM GAS  /tmp/ccnA0Hbj.s 			page 69


 2280 00f0 49       		.uleb128 0x49
 2281 00f1 13       		.uleb128 0x13
 2282 00f2 00       		.byte	0
 2283 00f3 00       		.byte	0
 2284 00f4 15       		.uleb128 0x15
 2285 00f5 01       		.uleb128 0x1
 2286 00f6 01       		.byte	0x1
 2287 00f7 49       		.uleb128 0x49
 2288 00f8 13       		.uleb128 0x13
 2289 00f9 01       		.uleb128 0x1
 2290 00fa 13       		.uleb128 0x13
 2291 00fb 00       		.byte	0
 2292 00fc 00       		.byte	0
 2293 00fd 16       		.uleb128 0x16
 2294 00fe 21       		.uleb128 0x21
 2295 00ff 00       		.byte	0
 2296 0100 49       		.uleb128 0x49
 2297 0101 13       		.uleb128 0x13
 2298 0102 2F       		.uleb128 0x2f
 2299 0103 0B       		.uleb128 0xb
 2300 0104 00       		.byte	0
 2301 0105 00       		.byte	0
 2302 0106 17       		.uleb128 0x17
 2303 0107 2E       		.uleb128 0x2e
 2304 0108 01       		.byte	0x1
 2305 0109 03       		.uleb128 0x3
 2306 010a 0E       		.uleb128 0xe
 2307 010b 3A       		.uleb128 0x3a
 2308 010c 0B       		.uleb128 0xb
 2309 010d 3B       		.uleb128 0x3b
 2310 010e 05       		.uleb128 0x5
 2311 010f 27       		.uleb128 0x27
 2312 0110 19       		.uleb128 0x19
 2313 0111 20       		.uleb128 0x20
 2314 0112 0B       		.uleb128 0xb
 2315 0113 01       		.uleb128 0x1
 2316 0114 13       		.uleb128 0x13
 2317 0115 00       		.byte	0
 2318 0116 00       		.byte	0
 2319 0117 18       		.uleb128 0x18
 2320 0118 05       		.uleb128 0x5
 2321 0119 00       		.byte	0
 2322 011a 03       		.uleb128 0x3
 2323 011b 0E       		.uleb128 0xe
 2324 011c 3A       		.uleb128 0x3a
 2325 011d 0B       		.uleb128 0xb
 2326 011e 3B       		.uleb128 0x3b
 2327 011f 05       		.uleb128 0x5
 2328 0120 49       		.uleb128 0x49
 2329 0121 13       		.uleb128 0x13
 2330 0122 00       		.byte	0
 2331 0123 00       		.byte	0
 2332 0124 19       		.uleb128 0x19
 2333 0125 2E       		.uleb128 0x2e
 2334 0126 00       		.byte	0
 2335 0127 03       		.uleb128 0x3
 2336 0128 0E       		.uleb128 0xe
ARM GAS  /tmp/ccnA0Hbj.s 			page 70


 2337 0129 3A       		.uleb128 0x3a
 2338 012a 0B       		.uleb128 0xb
 2339 012b 3B       		.uleb128 0x3b
 2340 012c 05       		.uleb128 0x5
 2341 012d 27       		.uleb128 0x27
 2342 012e 19       		.uleb128 0x19
 2343 012f 20       		.uleb128 0x20
 2344 0130 0B       		.uleb128 0xb
 2345 0131 00       		.byte	0
 2346 0132 00       		.byte	0
 2347 0133 1A       		.uleb128 0x1a
 2348 0134 05       		.uleb128 0x5
 2349 0135 00       		.byte	0
 2350 0136 03       		.uleb128 0x3
 2351 0137 08       		.uleb128 0x8
 2352 0138 3A       		.uleb128 0x3a
 2353 0139 0B       		.uleb128 0xb
 2354 013a 3B       		.uleb128 0x3b
 2355 013b 05       		.uleb128 0x5
 2356 013c 49       		.uleb128 0x49
 2357 013d 13       		.uleb128 0x13
 2358 013e 00       		.byte	0
 2359 013f 00       		.byte	0
 2360 0140 1B       		.uleb128 0x1b
 2361 0141 34       		.uleb128 0x34
 2362 0142 00       		.byte	0
 2363 0143 03       		.uleb128 0x3
 2364 0144 0E       		.uleb128 0xe
 2365 0145 49       		.uleb128 0x49
 2366 0146 13       		.uleb128 0x13
 2367 0147 34       		.uleb128 0x34
 2368 0148 19       		.uleb128 0x19
 2369 0149 1C       		.uleb128 0x1c
 2370 014a 0E       		.uleb128 0xe
 2371 014b 00       		.byte	0
 2372 014c 00       		.byte	0
 2373 014d 1C       		.uleb128 0x1c
 2374 014e 2E       		.uleb128 0x2e
 2375 014f 01       		.byte	0x1
 2376 0150 03       		.uleb128 0x3
 2377 0151 0E       		.uleb128 0xe
 2378 0152 3A       		.uleb128 0x3a
 2379 0153 0B       		.uleb128 0xb
 2380 0154 3B       		.uleb128 0x3b
 2381 0155 0B       		.uleb128 0xb
 2382 0156 27       		.uleb128 0x27
 2383 0157 19       		.uleb128 0x19
 2384 0158 49       		.uleb128 0x49
 2385 0159 13       		.uleb128 0x13
 2386 015a 20       		.uleb128 0x20
 2387 015b 0B       		.uleb128 0xb
 2388 015c 01       		.uleb128 0x1
 2389 015d 13       		.uleb128 0x13
 2390 015e 00       		.byte	0
 2391 015f 00       		.byte	0
 2392 0160 1D       		.uleb128 0x1d
 2393 0161 05       		.uleb128 0x5
ARM GAS  /tmp/ccnA0Hbj.s 			page 71


 2394 0162 00       		.byte	0
 2395 0163 03       		.uleb128 0x3
 2396 0164 08       		.uleb128 0x8
 2397 0165 3A       		.uleb128 0x3a
 2398 0166 0B       		.uleb128 0xb
 2399 0167 3B       		.uleb128 0x3b
 2400 0168 0B       		.uleb128 0xb
 2401 0169 49       		.uleb128 0x49
 2402 016a 13       		.uleb128 0x13
 2403 016b 00       		.byte	0
 2404 016c 00       		.byte	0
 2405 016d 1E       		.uleb128 0x1e
 2406 016e 2E       		.uleb128 0x2e
 2407 016f 01       		.byte	0x1
 2408 0170 03       		.uleb128 0x3
 2409 0171 0E       		.uleb128 0xe
 2410 0172 3A       		.uleb128 0x3a
 2411 0173 0B       		.uleb128 0xb
 2412 0174 3B       		.uleb128 0x3b
 2413 0175 05       		.uleb128 0x5
 2414 0176 27       		.uleb128 0x27
 2415 0177 19       		.uleb128 0x19
 2416 0178 49       		.uleb128 0x49
 2417 0179 13       		.uleb128 0x13
 2418 017a 20       		.uleb128 0x20
 2419 017b 0B       		.uleb128 0xb
 2420 017c 01       		.uleb128 0x1
 2421 017d 13       		.uleb128 0x13
 2422 017e 00       		.byte	0
 2423 017f 00       		.byte	0
 2424 0180 1F       		.uleb128 0x1f
 2425 0181 34       		.uleb128 0x34
 2426 0182 00       		.byte	0
 2427 0183 03       		.uleb128 0x3
 2428 0184 08       		.uleb128 0x8
 2429 0185 3A       		.uleb128 0x3a
 2430 0186 0B       		.uleb128 0xb
 2431 0187 3B       		.uleb128 0x3b
 2432 0188 05       		.uleb128 0x5
 2433 0189 49       		.uleb128 0x49
 2434 018a 13       		.uleb128 0x13
 2435 018b 00       		.byte	0
 2436 018c 00       		.byte	0
 2437 018d 20       		.uleb128 0x20
 2438 018e 2E       		.uleb128 0x2e
 2439 018f 01       		.byte	0x1
 2440 0190 03       		.uleb128 0x3
 2441 0191 0E       		.uleb128 0xe
 2442 0192 3A       		.uleb128 0x3a
 2443 0193 0B       		.uleb128 0xb
 2444 0194 3B       		.uleb128 0x3b
 2445 0195 0B       		.uleb128 0xb
 2446 0196 27       		.uleb128 0x27
 2447 0197 19       		.uleb128 0x19
 2448 0198 20       		.uleb128 0x20
 2449 0199 0B       		.uleb128 0xb
 2450 019a 01       		.uleb128 0x1
ARM GAS  /tmp/ccnA0Hbj.s 			page 72


 2451 019b 13       		.uleb128 0x13
 2452 019c 00       		.byte	0
 2453 019d 00       		.byte	0
 2454 019e 21       		.uleb128 0x21
 2455 019f 2E       		.uleb128 0x2e
 2456 01a0 01       		.byte	0x1
 2457 01a1 3F       		.uleb128 0x3f
 2458 01a2 19       		.uleb128 0x19
 2459 01a3 03       		.uleb128 0x3
 2460 01a4 0E       		.uleb128 0xe
 2461 01a5 3A       		.uleb128 0x3a
 2462 01a6 0B       		.uleb128 0xb
 2463 01a7 3B       		.uleb128 0x3b
 2464 01a8 0B       		.uleb128 0xb
 2465 01a9 27       		.uleb128 0x27
 2466 01aa 19       		.uleb128 0x19
 2467 01ab 49       		.uleb128 0x49
 2468 01ac 13       		.uleb128 0x13
 2469 01ad 11       		.uleb128 0x11
 2470 01ae 01       		.uleb128 0x1
 2471 01af 12       		.uleb128 0x12
 2472 01b0 06       		.uleb128 0x6
 2473 01b1 40       		.uleb128 0x40
 2474 01b2 18       		.uleb128 0x18
 2475 01b3 9742     		.uleb128 0x2117
 2476 01b5 19       		.uleb128 0x19
 2477 01b6 01       		.uleb128 0x1
 2478 01b7 13       		.uleb128 0x13
 2479 01b8 00       		.byte	0
 2480 01b9 00       		.byte	0
 2481 01ba 22       		.uleb128 0x22
 2482 01bb 05       		.uleb128 0x5
 2483 01bc 00       		.byte	0
 2484 01bd 03       		.uleb128 0x3
 2485 01be 08       		.uleb128 0x8
 2486 01bf 3A       		.uleb128 0x3a
 2487 01c0 0B       		.uleb128 0xb
 2488 01c1 3B       		.uleb128 0x3b
 2489 01c2 0B       		.uleb128 0xb
 2490 01c3 49       		.uleb128 0x49
 2491 01c4 13       		.uleb128 0x13
 2492 01c5 02       		.uleb128 0x2
 2493 01c6 17       		.uleb128 0x17
 2494 01c7 00       		.byte	0
 2495 01c8 00       		.byte	0
 2496 01c9 23       		.uleb128 0x23
 2497 01ca 34       		.uleb128 0x34
 2498 01cb 00       		.byte	0
 2499 01cc 03       		.uleb128 0x3
 2500 01cd 08       		.uleb128 0x8
 2501 01ce 3A       		.uleb128 0x3a
 2502 01cf 0B       		.uleb128 0xb
 2503 01d0 3B       		.uleb128 0x3b
 2504 01d1 0B       		.uleb128 0xb
 2505 01d2 49       		.uleb128 0x49
 2506 01d3 13       		.uleb128 0x13
 2507 01d4 02       		.uleb128 0x2
ARM GAS  /tmp/ccnA0Hbj.s 			page 73


 2508 01d5 18       		.uleb128 0x18
 2509 01d6 00       		.byte	0
 2510 01d7 00       		.byte	0
 2511 01d8 24       		.uleb128 0x24
 2512 01d9 34       		.uleb128 0x34
 2513 01da 00       		.byte	0
 2514 01db 03       		.uleb128 0x3
 2515 01dc 0E       		.uleb128 0xe
 2516 01dd 49       		.uleb128 0x49
 2517 01de 13       		.uleb128 0x13
 2518 01df 34       		.uleb128 0x34
 2519 01e0 19       		.uleb128 0x19
 2520 01e1 00       		.byte	0
 2521 01e2 00       		.byte	0
 2522 01e3 25       		.uleb128 0x25
 2523 01e4 1D       		.uleb128 0x1d
 2524 01e5 01       		.byte	0x1
 2525 01e6 31       		.uleb128 0x31
 2526 01e7 13       		.uleb128 0x13
 2527 01e8 52       		.uleb128 0x52
 2528 01e9 01       		.uleb128 0x1
 2529 01ea 55       		.uleb128 0x55
 2530 01eb 17       		.uleb128 0x17
 2531 01ec 58       		.uleb128 0x58
 2532 01ed 0B       		.uleb128 0xb
 2533 01ee 59       		.uleb128 0x59
 2534 01ef 0B       		.uleb128 0xb
 2535 01f0 01       		.uleb128 0x1
 2536 01f1 13       		.uleb128 0x13
 2537 01f2 00       		.byte	0
 2538 01f3 00       		.byte	0
 2539 01f4 26       		.uleb128 0x26
 2540 01f5 1D       		.uleb128 0x1d
 2541 01f6 01       		.byte	0x1
 2542 01f7 31       		.uleb128 0x31
 2543 01f8 13       		.uleb128 0x13
 2544 01f9 52       		.uleb128 0x52
 2545 01fa 01       		.uleb128 0x1
 2546 01fb 55       		.uleb128 0x55
 2547 01fc 17       		.uleb128 0x17
 2548 01fd 58       		.uleb128 0x58
 2549 01fe 0B       		.uleb128 0xb
 2550 01ff 59       		.uleb128 0x59
 2551 0200 05       		.uleb128 0x5
 2552 0201 00       		.byte	0
 2553 0202 00       		.byte	0
 2554 0203 27       		.uleb128 0x27
 2555 0204 05       		.uleb128 0x5
 2556 0205 00       		.byte	0
 2557 0206 31       		.uleb128 0x31
 2558 0207 13       		.uleb128 0x13
 2559 0208 1C       		.uleb128 0x1c
 2560 0209 0B       		.uleb128 0xb
 2561 020a 00       		.byte	0
 2562 020b 00       		.byte	0
 2563 020c 28       		.uleb128 0x28
 2564 020d 05       		.uleb128 0x5
ARM GAS  /tmp/ccnA0Hbj.s 			page 74


 2565 020e 00       		.byte	0
 2566 020f 31       		.uleb128 0x31
 2567 0210 13       		.uleb128 0x13
 2568 0211 02       		.uleb128 0x2
 2569 0212 17       		.uleb128 0x17
 2570 0213 00       		.byte	0
 2571 0214 00       		.byte	0
 2572 0215 29       		.uleb128 0x29
 2573 0216 05       		.uleb128 0x5
 2574 0217 00       		.byte	0
 2575 0218 31       		.uleb128 0x31
 2576 0219 13       		.uleb128 0x13
 2577 021a 02       		.uleb128 0x2
 2578 021b 18       		.uleb128 0x18
 2579 021c 00       		.byte	0
 2580 021d 00       		.byte	0
 2581 021e 2A       		.uleb128 0x2a
 2582 021f 1D       		.uleb128 0x1d
 2583 0220 01       		.byte	0x1
 2584 0221 31       		.uleb128 0x31
 2585 0222 13       		.uleb128 0x13
 2586 0223 11       		.uleb128 0x11
 2587 0224 01       		.uleb128 0x1
 2588 0225 12       		.uleb128 0x12
 2589 0226 06       		.uleb128 0x6
 2590 0227 58       		.uleb128 0x58
 2591 0228 0B       		.uleb128 0xb
 2592 0229 59       		.uleb128 0x59
 2593 022a 0B       		.uleb128 0xb
 2594 022b 01       		.uleb128 0x1
 2595 022c 13       		.uleb128 0x13
 2596 022d 00       		.byte	0
 2597 022e 00       		.byte	0
 2598 022f 2B       		.uleb128 0x2b
 2599 0230 0B       		.uleb128 0xb
 2600 0231 01       		.byte	0x1
 2601 0232 11       		.uleb128 0x11
 2602 0233 01       		.uleb128 0x1
 2603 0234 12       		.uleb128 0x12
 2604 0235 06       		.uleb128 0x6
 2605 0236 00       		.byte	0
 2606 0237 00       		.byte	0
 2607 0238 2C       		.uleb128 0x2c
 2608 0239 34       		.uleb128 0x34
 2609 023a 00       		.byte	0
 2610 023b 31       		.uleb128 0x31
 2611 023c 13       		.uleb128 0x13
 2612 023d 00       		.byte	0
 2613 023e 00       		.byte	0
 2614 023f 2D       		.uleb128 0x2d
 2615 0240 1D       		.uleb128 0x1d
 2616 0241 01       		.byte	0x1
 2617 0242 31       		.uleb128 0x31
 2618 0243 13       		.uleb128 0x13
 2619 0244 11       		.uleb128 0x11
 2620 0245 01       		.uleb128 0x1
 2621 0246 12       		.uleb128 0x12
ARM GAS  /tmp/ccnA0Hbj.s 			page 75


 2622 0247 06       		.uleb128 0x6
 2623 0248 58       		.uleb128 0x58
 2624 0249 0B       		.uleb128 0xb
 2625 024a 59       		.uleb128 0x59
 2626 024b 05       		.uleb128 0x5
 2627 024c 00       		.byte	0
 2628 024d 00       		.byte	0
 2629 024e 2E       		.uleb128 0x2e
 2630 024f 898201   		.uleb128 0x4109
 2631 0252 01       		.byte	0x1
 2632 0253 11       		.uleb128 0x11
 2633 0254 01       		.uleb128 0x1
 2634 0255 31       		.uleb128 0x31
 2635 0256 13       		.uleb128 0x13
 2636 0257 01       		.uleb128 0x1
 2637 0258 13       		.uleb128 0x13
 2638 0259 00       		.byte	0
 2639 025a 00       		.byte	0
 2640 025b 2F       		.uleb128 0x2f
 2641 025c 8A8201   		.uleb128 0x410a
 2642 025f 00       		.byte	0
 2643 0260 02       		.uleb128 0x2
 2644 0261 18       		.uleb128 0x18
 2645 0262 9142     		.uleb128 0x2111
 2646 0264 18       		.uleb128 0x18
 2647 0265 00       		.byte	0
 2648 0266 00       		.byte	0
 2649 0267 30       		.uleb128 0x30
 2650 0268 898201   		.uleb128 0x4109
 2651 026b 00       		.byte	0
 2652 026c 11       		.uleb128 0x11
 2653 026d 01       		.uleb128 0x1
 2654 026e 31       		.uleb128 0x31
 2655 026f 13       		.uleb128 0x13
 2656 0270 00       		.byte	0
 2657 0271 00       		.byte	0
 2658 0272 31       		.uleb128 0x31
 2659 0273 34       		.uleb128 0x34
 2660 0274 00       		.byte	0
 2661 0275 03       		.uleb128 0x3
 2662 0276 08       		.uleb128 0x8
 2663 0277 3A       		.uleb128 0x3a
 2664 0278 0B       		.uleb128 0xb
 2665 0279 3B       		.uleb128 0x3b
 2666 027a 0B       		.uleb128 0xb
 2667 027b 49       		.uleb128 0x49
 2668 027c 13       		.uleb128 0x13
 2669 027d 00       		.byte	0
 2670 027e 00       		.byte	0
 2671 027f 32       		.uleb128 0x32
 2672 0280 0B       		.uleb128 0xb
 2673 0281 01       		.byte	0x1
 2674 0282 55       		.uleb128 0x55
 2675 0283 17       		.uleb128 0x17
 2676 0284 00       		.byte	0
 2677 0285 00       		.byte	0
 2678 0286 33       		.uleb128 0x33
ARM GAS  /tmp/ccnA0Hbj.s 			page 76


 2679 0287 34       		.uleb128 0x34
 2680 0288 00       		.byte	0
 2681 0289 31       		.uleb128 0x31
 2682 028a 13       		.uleb128 0x13
 2683 028b 02       		.uleb128 0x2
 2684 028c 17       		.uleb128 0x17
 2685 028d 00       		.byte	0
 2686 028e 00       		.byte	0
 2687 028f 34       		.uleb128 0x34
 2688 0290 898201   		.uleb128 0x4109
 2689 0293 01       		.byte	0x1
 2690 0294 11       		.uleb128 0x11
 2691 0295 01       		.uleb128 0x1
 2692 0296 31       		.uleb128 0x31
 2693 0297 13       		.uleb128 0x13
 2694 0298 00       		.byte	0
 2695 0299 00       		.byte	0
 2696 029a 35       		.uleb128 0x35
 2697 029b 2E       		.uleb128 0x2e
 2698 029c 01       		.byte	0x1
 2699 029d 3F       		.uleb128 0x3f
 2700 029e 19       		.uleb128 0x19
 2701 029f 03       		.uleb128 0x3
 2702 02a0 0E       		.uleb128 0xe
 2703 02a1 3A       		.uleb128 0x3a
 2704 02a2 0B       		.uleb128 0xb
 2705 02a3 3B       		.uleb128 0x3b
 2706 02a4 0B       		.uleb128 0xb
 2707 02a5 27       		.uleb128 0x27
 2708 02a6 19       		.uleb128 0x19
 2709 02a7 11       		.uleb128 0x11
 2710 02a8 01       		.uleb128 0x1
 2711 02a9 12       		.uleb128 0x12
 2712 02aa 06       		.uleb128 0x6
 2713 02ab 40       		.uleb128 0x40
 2714 02ac 18       		.uleb128 0x18
 2715 02ad 9742     		.uleb128 0x2117
 2716 02af 19       		.uleb128 0x19
 2717 02b0 01       		.uleb128 0x1
 2718 02b1 13       		.uleb128 0x13
 2719 02b2 00       		.byte	0
 2720 02b3 00       		.byte	0
 2721 02b4 36       		.uleb128 0x36
 2722 02b5 1D       		.uleb128 0x1d
 2723 02b6 01       		.byte	0x1
 2724 02b7 31       		.uleb128 0x31
 2725 02b8 13       		.uleb128 0x13
 2726 02b9 11       		.uleb128 0x11
 2727 02ba 01       		.uleb128 0x1
 2728 02bb 12       		.uleb128 0x12
 2729 02bc 06       		.uleb128 0x6
 2730 02bd 58       		.uleb128 0x58
 2731 02be 0B       		.uleb128 0xb
 2732 02bf 59       		.uleb128 0x59
 2733 02c0 0B       		.uleb128 0xb
 2734 02c1 00       		.byte	0
 2735 02c2 00       		.byte	0
ARM GAS  /tmp/ccnA0Hbj.s 			page 77


 2736 02c3 37       		.uleb128 0x37
 2737 02c4 34       		.uleb128 0x34
 2738 02c5 00       		.byte	0
 2739 02c6 03       		.uleb128 0x3
 2740 02c7 0E       		.uleb128 0xe
 2741 02c8 3A       		.uleb128 0x3a
 2742 02c9 0B       		.uleb128 0xb
 2743 02ca 3B       		.uleb128 0x3b
 2744 02cb 05       		.uleb128 0x5
 2745 02cc 49       		.uleb128 0x49
 2746 02cd 13       		.uleb128 0x13
 2747 02ce 3F       		.uleb128 0x3f
 2748 02cf 19       		.uleb128 0x19
 2749 02d0 3C       		.uleb128 0x3c
 2750 02d1 19       		.uleb128 0x19
 2751 02d2 00       		.byte	0
 2752 02d3 00       		.byte	0
 2753 02d4 38       		.uleb128 0x38
 2754 02d5 34       		.uleb128 0x34
 2755 02d6 00       		.byte	0
 2756 02d7 03       		.uleb128 0x3
 2757 02d8 08       		.uleb128 0x8
 2758 02d9 3A       		.uleb128 0x3a
 2759 02da 0B       		.uleb128 0xb
 2760 02db 3B       		.uleb128 0x3b
 2761 02dc 05       		.uleb128 0x5
 2762 02dd 49       		.uleb128 0x49
 2763 02de 13       		.uleb128 0x13
 2764 02df 3F       		.uleb128 0x3f
 2765 02e0 19       		.uleb128 0x19
 2766 02e1 3C       		.uleb128 0x3c
 2767 02e2 19       		.uleb128 0x19
 2768 02e3 00       		.byte	0
 2769 02e4 00       		.byte	0
 2770 02e5 39       		.uleb128 0x39
 2771 02e6 2E       		.uleb128 0x2e
 2772 02e7 01       		.byte	0x1
 2773 02e8 3F       		.uleb128 0x3f
 2774 02e9 19       		.uleb128 0x19
 2775 02ea 03       		.uleb128 0x3
 2776 02eb 0E       		.uleb128 0xe
 2777 02ec 3A       		.uleb128 0x3a
 2778 02ed 0B       		.uleb128 0xb
 2779 02ee 3B       		.uleb128 0x3b
 2780 02ef 05       		.uleb128 0x5
 2781 02f0 27       		.uleb128 0x27
 2782 02f1 19       		.uleb128 0x19
 2783 02f2 3C       		.uleb128 0x3c
 2784 02f3 19       		.uleb128 0x19
 2785 02f4 01       		.uleb128 0x1
 2786 02f5 13       		.uleb128 0x13
 2787 02f6 00       		.byte	0
 2788 02f7 00       		.byte	0
 2789 02f8 3A       		.uleb128 0x3a
 2790 02f9 2E       		.uleb128 0x2e
 2791 02fa 01       		.byte	0x1
 2792 02fb 3F       		.uleb128 0x3f
ARM GAS  /tmp/ccnA0Hbj.s 			page 78


 2793 02fc 19       		.uleb128 0x19
 2794 02fd 03       		.uleb128 0x3
 2795 02fe 0E       		.uleb128 0xe
 2796 02ff 3A       		.uleb128 0x3a
 2797 0300 0B       		.uleb128 0xb
 2798 0301 3B       		.uleb128 0x3b
 2799 0302 05       		.uleb128 0x5
 2800 0303 27       		.uleb128 0x27
 2801 0304 19       		.uleb128 0x19
 2802 0305 49       		.uleb128 0x49
 2803 0306 13       		.uleb128 0x13
 2804 0307 3C       		.uleb128 0x3c
 2805 0308 19       		.uleb128 0x19
 2806 0309 01       		.uleb128 0x1
 2807 030a 13       		.uleb128 0x13
 2808 030b 00       		.byte	0
 2809 030c 00       		.byte	0
 2810 030d 3B       		.uleb128 0x3b
 2811 030e 2E       		.uleb128 0x2e
 2812 030f 01       		.byte	0x1
 2813 0310 3F       		.uleb128 0x3f
 2814 0311 19       		.uleb128 0x19
 2815 0312 03       		.uleb128 0x3
 2816 0313 0E       		.uleb128 0xe
 2817 0314 3A       		.uleb128 0x3a
 2818 0315 0B       		.uleb128 0xb
 2819 0316 3B       		.uleb128 0x3b
 2820 0317 05       		.uleb128 0x5
 2821 0318 27       		.uleb128 0x27
 2822 0319 19       		.uleb128 0x19
 2823 031a 3C       		.uleb128 0x3c
 2824 031b 19       		.uleb128 0x19
 2825 031c 00       		.byte	0
 2826 031d 00       		.byte	0
 2827 031e 00       		.byte	0
 2828              		.section	.debug_loc,"",%progbits
 2829              	.Ldebug_loc0:
 2830              	.LLST0:
 2831 0000 00000000 		.4byte	.LVL0
 2832 0004 22000000 		.4byte	.LVL6
 2833 0008 0100     		.2byte	0x1
 2834 000a 50       		.byte	0x50
 2835 000b 22000000 		.4byte	.LVL6
 2836 000f 32000000 		.4byte	.LVL9
 2837 0013 0300     		.2byte	0x3
 2838 0015 75       		.byte	0x75
 2839 0016 58       		.sleb128 -40
 2840 0017 9F       		.byte	0x9f
 2841 0018 32000000 		.4byte	.LVL9
 2842 001c 35000000 		.4byte	.LVL10-1
 2843 0020 0100     		.2byte	0x1
 2844 0022 50       		.byte	0x50
 2845 0023 35000000 		.4byte	.LVL10-1
 2846 0027 3C000000 		.4byte	.LFE241
 2847 002b 0300     		.2byte	0x3
 2848 002d 75       		.byte	0x75
 2849 002e 58       		.sleb128 -40
ARM GAS  /tmp/ccnA0Hbj.s 			page 79


 2850 002f 9F       		.byte	0x9f
 2851 0030 00000000 		.4byte	0
 2852 0034 00000000 		.4byte	0
 2853              	.LLST1:
 2854 0038 00000000 		.4byte	.LVL0
 2855 003c 10000000 		.4byte	.LVL3
 2856 0040 0100     		.2byte	0x1
 2857 0042 51       		.byte	0x51
 2858 0043 10000000 		.4byte	.LVL3
 2859 0047 20000000 		.4byte	.LVL5
 2860 004b 0200     		.2byte	0x2
 2861 004d 74       		.byte	0x74
 2862 004e 20       		.sleb128 32
 2863 004f 20000000 		.4byte	.LVL5
 2864 0053 2A000000 		.4byte	.LVL8
 2865 0057 0400     		.2byte	0x4
 2866 0059 F3       		.byte	0xf3
 2867 005a 01       		.uleb128 0x1
 2868 005b 51       		.byte	0x51
 2869 005c 9F       		.byte	0x9f
 2870 005d 2A000000 		.4byte	.LVL8
 2871 0061 32000000 		.4byte	.LVL9
 2872 0065 0100     		.2byte	0x1
 2873 0067 50       		.byte	0x50
 2874 0068 32000000 		.4byte	.LVL9
 2875 006c 3C000000 		.4byte	.LFE241
 2876 0070 0400     		.2byte	0x4
 2877 0072 F3       		.byte	0xf3
 2878 0073 01       		.uleb128 0x1
 2879 0074 51       		.byte	0x51
 2880 0075 9F       		.byte	0x9f
 2881 0076 00000000 		.4byte	0
 2882 007a 00000000 		.4byte	0
 2883              	.LLST2:
 2884 007e 0E000000 		.4byte	.LVL2
 2885 0082 18000000 		.4byte	.LVL4
 2886 0086 0300     		.2byte	0x3
 2887 0088 70       		.byte	0x70
 2888 0089 28       		.sleb128 40
 2889 008a 9F       		.byte	0x9f
 2890 008b 18000000 		.4byte	.LVL4
 2891 008f 3C000000 		.4byte	.LFE241
 2892 0093 0100     		.2byte	0x1
 2893 0095 55       		.byte	0x55
 2894 0096 00000000 		.4byte	0
 2895 009a 00000000 		.4byte	0
 2896              	.LLST3:
 2897 009e 2A000000 		.4byte	.LVL8
 2898 00a2 32000000 		.4byte	.LVL9
 2899 00a6 0200     		.2byte	0x2
 2900 00a8 30       		.byte	0x30
 2901 00a9 9F       		.byte	0x9f
 2902 00aa 00000000 		.4byte	0
 2903 00ae 00000000 		.4byte	0
 2904              	.LLST4:
 2905 00b2 0C000000 		.4byte	.LVL12
 2906 00b6 16000000 		.4byte	.LVL13
ARM GAS  /tmp/ccnA0Hbj.s 			page 80


 2907 00ba 0100     		.2byte	0x1
 2908 00bc 52       		.byte	0x52
 2909 00bd 28000000 		.4byte	.LVL16
 2910 00c1 2D000000 		.4byte	.LVL17-1
 2911 00c5 0100     		.2byte	0x1
 2912 00c7 52       		.byte	0x52
 2913 00c8 00000000 		.4byte	0
 2914 00cc 00000000 		.4byte	0
 2915              	.LLST5:
 2916 00d0 16000000 		.4byte	.LVL13
 2917 00d4 20000000 		.4byte	.LVL14
 2918 00d8 0100     		.2byte	0x1
 2919 00da 53       		.byte	0x53
 2920 00db 20000000 		.4byte	.LVL14
 2921 00df 28000000 		.4byte	.LVL16
 2922 00e3 0200     		.2byte	0x2
 2923 00e5 71       		.byte	0x71
 2924 00e6 04       		.sleb128 4
 2925 00e7 00000000 		.4byte	0
 2926 00eb 00000000 		.4byte	0
 2927              	.LLST6:
 2928 00ef 16000000 		.4byte	.LVL13
 2929 00f3 28000000 		.4byte	.LVL16
 2930 00f7 0100     		.2byte	0x1
 2931 00f9 50       		.byte	0x50
 2932 00fa 00000000 		.4byte	0
 2933 00fe 00000000 		.4byte	0
 2934              	.LLST7:
 2935 0102 22000000 		.4byte	.LVL15
 2936 0106 28000000 		.4byte	.LVL16
 2937 010a 0200     		.2byte	0x2
 2938 010c 30       		.byte	0x30
 2939 010d 9F       		.byte	0x9f
 2940 010e 00000000 		.4byte	0
 2941 0112 00000000 		.4byte	0
 2942              	.LLST8:
 2943 0116 00000000 		.4byte	.LVL18
 2944 011a 0B000000 		.4byte	.LVL20-1
 2945 011e 0100     		.2byte	0x1
 2946 0120 50       		.byte	0x50
 2947 0121 0B000000 		.4byte	.LVL20-1
 2948 0125 14000000 		.4byte	.LFE243
 2949 0129 0400     		.2byte	0x4
 2950 012b F3       		.byte	0xf3
 2951 012c 01       		.uleb128 0x1
 2952 012d 50       		.byte	0x50
 2953 012e 9F       		.byte	0x9f
 2954 012f 00000000 		.4byte	0
 2955 0133 00000000 		.4byte	0
 2956              	.LLST9:
 2957 0137 00000000 		.4byte	.LVL18
 2958 013b 0B000000 		.4byte	.LVL20-1
 2959 013f 0100     		.2byte	0x1
 2960 0141 51       		.byte	0x51
 2961 0142 0B000000 		.4byte	.LVL20-1
 2962 0146 14000000 		.4byte	.LFE243
 2963 014a 0400     		.2byte	0x4
ARM GAS  /tmp/ccnA0Hbj.s 			page 81


 2964 014c F3       		.byte	0xf3
 2965 014d 01       		.uleb128 0x1
 2966 014e 51       		.byte	0x51
 2967 014f 9F       		.byte	0x9f
 2968 0150 00000000 		.4byte	0
 2969 0154 00000000 		.4byte	0
 2970              	.LLST10:
 2971 0158 08000000 		.4byte	.LVL19
 2972 015c 0B000000 		.4byte	.LVL20-1
 2973 0160 0100     		.2byte	0x1
 2974 0162 51       		.byte	0x51
 2975 0163 0B000000 		.4byte	.LVL20-1
 2976 0167 14000000 		.4byte	.LFE243
 2977 016b 0400     		.2byte	0x4
 2978 016d F3       		.byte	0xf3
 2979 016e 01       		.uleb128 0x1
 2980 016f 51       		.byte	0x51
 2981 0170 9F       		.byte	0x9f
 2982 0171 00000000 		.4byte	0
 2983 0175 00000000 		.4byte	0
 2984              	.LLST11:
 2985 0179 08000000 		.4byte	.LVL19
 2986 017d 0B000000 		.4byte	.LVL20-1
 2987 0181 0100     		.2byte	0x1
 2988 0183 50       		.byte	0x50
 2989 0184 0B000000 		.4byte	.LVL20-1
 2990 0188 14000000 		.4byte	.LFE243
 2991 018c 0400     		.2byte	0x4
 2992 018e F3       		.byte	0xf3
 2993 018f 01       		.uleb128 0x1
 2994 0190 50       		.byte	0x50
 2995 0191 9F       		.byte	0x9f
 2996 0192 00000000 		.4byte	0
 2997 0196 00000000 		.4byte	0
 2998              		.section	.debug_aranges,"",%progbits
 2999 0000 2C000000 		.4byte	0x2c
 3000 0004 0200     		.2byte	0x2
 3001 0006 00000000 		.4byte	.Ldebug_info0
 3002 000a 04       		.byte	0x4
 3003 000b 00       		.byte	0
 3004 000c 0000     		.2byte	0
 3005 000e 0000     		.2byte	0
 3006 0010 00000000 		.4byte	.LFB241
 3007 0014 3C000000 		.4byte	.LFE241-.LFB241
 3008 0018 00000000 		.4byte	.LFB242
 3009 001c 3C000000 		.4byte	.LFE242-.LFB242
 3010 0020 00000000 		.4byte	.LFB243
 3011 0024 14000000 		.4byte	.LFE243-.LFB243
 3012 0028 00000000 		.4byte	0
 3013 002c 00000000 		.4byte	0
 3014              		.section	.debug_ranges,"",%progbits
 3015              	.Ldebug_ranges0:
 3016 0000 04000000 		.4byte	.LBB52
 3017 0004 06000000 		.4byte	.LBE52
 3018 0008 08000000 		.4byte	.LBB59
 3019 000c 0C000000 		.4byte	.LBE59
 3020 0010 00000000 		.4byte	0
ARM GAS  /tmp/ccnA0Hbj.s 			page 82


 3021 0014 00000000 		.4byte	0
 3022 0018 10000000 		.4byte	.LBB60
 3023 001c 14000000 		.4byte	.LBE60
 3024 0020 1A000000 		.4byte	.LBB63
 3025 0024 20000000 		.4byte	.LBE63
 3026 0028 00000000 		.4byte	0
 3027 002c 00000000 		.4byte	0
 3028 0030 16000000 		.4byte	.LBB75
 3029 0034 1A000000 		.4byte	.LBE75
 3030 0038 1C000000 		.4byte	.LBB78
 3031 003c 1E000000 		.4byte	.LBE78
 3032 0040 00000000 		.4byte	0
 3033 0044 00000000 		.4byte	0
 3034 0048 1E000000 		.4byte	.LBB79
 3035 004c 20000000 		.4byte	.LBE79
 3036 0050 22000000 		.4byte	.LBB88
 3037 0054 26000000 		.4byte	.LBE88
 3038 0058 00000000 		.4byte	0
 3039 005c 00000000 		.4byte	0
 3040 0060 00000000 		.4byte	.LFB241
 3041 0064 3C000000 		.4byte	.LFE241
 3042 0068 00000000 		.4byte	.LFB242
 3043 006c 3C000000 		.4byte	.LFE242
 3044 0070 00000000 		.4byte	.LFB243
 3045 0074 14000000 		.4byte	.LFE243
 3046 0078 00000000 		.4byte	0
 3047 007c 00000000 		.4byte	0
 3048              		.section	.debug_line,"",%progbits
 3049              	.Ldebug_line0:
 3050 0000 1D030000 		.section	.debug_str,"MS",%progbits,1
 3050      02004C02 
 3050      00000201 
 3050      FB0E0D00 
 3050      01010101 
 3051              	.LASF49:
 3052 0000 72656164 		.ascii	"ready_list_t\000"
 3052      795F6C69 
 3052      73745F74 
 3052      00
 3053              	.LASF105:
 3054 000d 71756575 		.ascii	"queue_insert\000"
 3054      655F696E 
 3054      73657274 
 3054      00
 3055              	.LASF87:
 3056 001a 77747472 		.ascii	"wttrp\000"
 3056      7000
 3057              	.LASF84:
 3058 0020 7264796D 		.ascii	"rdymsg\000"
 3058      736700
 3059              	.LASF16:
 3060 0027 75696E74 		.ascii	"uint64_t\000"
 3060      36345F74 
 3060      00
 3061              	.LASF5:
 3062 0030 5F5F7569 		.ascii	"__uint8_t\000"
 3062      6E74385F 
ARM GAS  /tmp/ccnA0Hbj.s 			page 83


 3062      7400
 3063              	.LASF81:
 3064 003a 706F7274 		.ascii	"port_intctx\000"
 3064      5F696E74 
 3064      63747800 
 3065              	.LASF68:
 3066 0046 73797374 		.ascii	"system_debug_t\000"
 3066      656D5F64 
 3066      65627567 
 3066      5F7400
 3067              	.LASF101:
 3068 0055 706F7274 		.ascii	"port_lock\000"
 3068      5F6C6F63 
 3068      6B00
 3069              	.LASF12:
 3070 005f 6C6F6E67 		.ascii	"long long unsigned int\000"
 3070      206C6F6E 
 3070      6720756E 
 3070      7369676E 
 3070      65642069 
 3071              	.LASF85:
 3072 0076 65786974 		.ascii	"exitcode\000"
 3072      636F6465 
 3072      00
 3073              	.LASF75:
 3074 007f 6D61696E 		.ascii	"mainthread\000"
 3074      74687265 
 3074      616400
 3075              	.LASF88:
 3076 008a 73656E74 		.ascii	"sentmsg\000"
 3076      6D736700 
 3077              	.LASF65:
 3078 0092 76697274 		.ascii	"virtual_timers_list_t\000"
 3078      75616C5F 
 3078      74696D65 
 3078      72735F6C 
 3078      6973745F 
 3079              	.LASF117:
 3080 00a8 49544D5F 		.ascii	"ITM_RxBuffer\000"
 3080      52784275 
 3080      66666572 
 3080      00
 3081              	.LASF48:
 3082 00b5 63685F74 		.ascii	"ch_threads_queue\000"
 3082      68726561 
 3082      64735F71 
 3082      75657565 
 3082      00
 3083              	.LASF29:
 3084 00c6 705F7072 		.ascii	"p_prio\000"
 3084      696F00
 3085              	.LASF10:
 3086 00cd 6C6F6E67 		.ascii	"long long int\000"
 3086      206C6F6E 
 3086      6720696E 
 3086      7400
 3087              	.LASF1:
ARM GAS  /tmp/ccnA0Hbj.s 			page 84


 3088 00db 7369676E 		.ascii	"signed char\000"
 3088      65642063 
 3088      68617200 
 3089              	.LASF42:
 3090 00e7 705F6D70 		.ascii	"p_mpool\000"
 3090      6F6F6C00 
 3091              	.LASF96:
 3092 00ef 6D5F7175 		.ascii	"m_queue\000"
 3092      65756500 
 3093              	.LASF74:
 3094 00f7 76746C69 		.ascii	"vtlist\000"
 3094      737400
 3095              	.LASF102:
 3096 00fe 706F7274 		.ascii	"port_unlock\000"
 3096      5F756E6C 
 3096      6F636B00 
 3097              	.LASF72:
 3098 010a 63685F73 		.ascii	"ch_system\000"
 3098      79737465 
 3098      6D00
 3099              	.LASF7:
 3100 0114 6C6F6E67 		.ascii	"long int\000"
 3100      20696E74 
 3100      00
 3101              	.LASF113:
 3102 011d 63684D73 		.ascii	"chMsgSend\000"
 3102      6753656E 
 3102      6400
 3103              	.LASF19:
 3104 0127 74737461 		.ascii	"tstate_t\000"
 3104      74655F74 
 3104      00
 3105              	.LASF109:
 3106 0130 63684D73 		.ascii	"chMsgIsPendingI\000"
 3106      67497350 
 3106      656E6469 
 3106      6E674900 
 3107              	.LASF31:
 3108 0140 705F6E65 		.ascii	"p_newer\000"
 3108      77657200 
 3109              	.LASF93:
 3110 0148 735F7175 		.ascii	"s_queue\000"
 3110      65756500 
 3111              	.LASF4:
 3112 0150 73686F72 		.ascii	"short unsigned int\000"
 3112      7420756E 
 3112      7369676E 
 3112      65642069 
 3112      6E7400
 3113              	.LASF54:
 3114 0163 725F6E65 		.ascii	"r_newer\000"
 3114      77657200 
 3115              	.LASF78:
 3116 016b 72656761 		.ascii	"regarm_t\000"
 3116      726D5F74 
 3116      00
 3117              	.LASF61:
ARM GAS  /tmp/ccnA0Hbj.s 			page 85


 3118 0174 76745F70 		.ascii	"vt_prev\000"
 3118      72657600 
 3119              	.LASF100:
 3120 017c 6D757465 		.ascii	"mutex_t\000"
 3120      785F7400 
 3121              	.LASF106:
 3122 0184 76616C75 		.ascii	"value\000"
 3122      6500
 3123              	.LASF76:
 3124 018a 69646C65 		.ascii	"idle_thread_wa\000"
 3124      5F746872 
 3124      6561645F 
 3124      776100
 3125              	.LASF24:
 3126 0199 636E745F 		.ascii	"cnt_t\000"
 3126      7400
 3127              	.LASF0:
 3128 019f 756E7369 		.ascii	"unsigned int\000"
 3128      676E6564 
 3128      20696E74 
 3128      00
 3129              	.LASF60:
 3130 01ac 76745F6E 		.ascii	"vt_next\000"
 3130      65787400 
 3131              	.LASF89:
 3132 01b4 77747365 		.ascii	"wtsemp\000"
 3132      6D7000
 3133              	.LASF62:
 3134 01bb 76745F64 		.ascii	"vt_delta\000"
 3134      656C7461 
 3134      00
 3135              	.LASF38:
 3136 01c4 705F6D73 		.ascii	"p_msgqueue\000"
 3136      67717565 
 3136      756500
 3137              	.LASF94:
 3138 01cf 735F636E 		.ascii	"s_cnt\000"
 3138      7400
 3139              	.LASF116:
 3140 01d5 5F5F6675 		.ascii	"__func__.6406\000"
 3140      6E635F5F 
 3140      2E363430 
 3140      3600
 3141              	.LASF45:
 3142 01e3 63685F74 		.ascii	"ch_thread\000"
 3142      68726561 
 3142      6400
 3143              	.LASF124:
 3144 01ed 63685363 		.ascii	"chSchWakeupS\000"
 3144      6857616B 
 3144      65757053 
 3144      00
 3145              	.LASF22:
 3146 01fa 6D73675F 		.ascii	"msg_t\000"
 3146      7400
 3147              	.LASF71:
 3148 0200 63685F73 		.ascii	"ch_system_t\000"
ARM GAS  /tmp/ccnA0Hbj.s 			page 86


 3148      79737465 
 3148      6D5F7400 
 3149              	.LASF18:
 3150 020c 746D6F64 		.ascii	"tmode_t\000"
 3150      655F7400 
 3151              	.LASF50:
 3152 0214 63685F72 		.ascii	"ch_ready_list\000"
 3152      65616479 
 3152      5F6C6973 
 3152      7400
 3153              	.LASF23:
 3154 0222 6576656E 		.ascii	"eventmask_t\000"
 3154      746D6173 
 3154      6B5F7400 
 3155              	.LASF6:
 3156 022e 5F5F696E 		.ascii	"__int32_t\000"
 3156      7433325F 
 3156      7400
 3157              	.LASF79:
 3158 0238 73746B61 		.ascii	"stkalign_t\000"
 3158      6C69676E 
 3158      5F7400
 3159              	.LASF37:
 3160 0243 705F7761 		.ascii	"p_waiting\000"
 3160      6974696E 
 3160      6700
 3161              	.LASF77:
 3162 024d 73697A65 		.ascii	"sizetype\000"
 3162      74797065 
 3162      00
 3163              	.LASF43:
 3164 0256 74687265 		.ascii	"thread_reference_t\000"
 3164      61645F72 
 3164      65666572 
 3164      656E6365 
 3164      5F7400
 3165              	.LASF66:
 3166 0269 63685F76 		.ascii	"ch_virtual_timers_list\000"
 3166      69727475 
 3166      616C5F74 
 3166      696D6572 
 3166      735F6C69 
 3167              	.LASF67:
 3168 0280 76745F6C 		.ascii	"vt_lasttime\000"
 3168      61737474 
 3168      696D6500 
 3169              	.LASF32:
 3170 028c 705F6F6C 		.ascii	"p_older\000"
 3170      64657200 
 3171              	.LASF120:
 3172 0294 2F6E6673 		.ascii	"/nfs/nfs4/home/galexeev/classes/P442WifiTrailCounte"
 3172      2F6E6673 
 3172      342F686F 
 3172      6D652F67 
 3172      616C6578 
 3173 02c7 7250726F 		.ascii	"rProject/milestone3\000"
 3173      6A656374 
ARM GAS  /tmp/ccnA0Hbj.s 			page 87


 3173      2F6D696C 
 3173      6573746F 
 3173      6E653300 
 3174              	.LASF53:
 3175 02db 725F6374 		.ascii	"r_ctx\000"
 3175      7800
 3176              	.LASF83:
 3177 02e1 746D5F63 		.ascii	"tm_calibration_t\000"
 3177      616C6962 
 3177      72617469 
 3177      6F6E5F74 
 3177      00
 3178              	.LASF98:
 3179 02f2 6D5F6E65 		.ascii	"m_next\000"
 3179      787400
 3180              	.LASF56:
 3181 02f9 725F6375 		.ascii	"r_current\000"
 3181      7272656E 
 3181      7400
 3182              	.LASF55:
 3183 0303 725F6F6C 		.ascii	"r_older\000"
 3183      64657200 
 3184              	.LASF11:
 3185 030b 5F5F7569 		.ascii	"__uint64_t\000"
 3185      6E743634 
 3185      5F7400
 3186              	.LASF20:
 3187 0316 74726566 		.ascii	"trefs_t\000"
 3187      735F7400 
 3188              	.LASF58:
 3189 031e 76697274 		.ascii	"virtual_timer_t\000"
 3189      75616C5F 
 3189      74696D65 
 3189      725F7400 
 3190              	.LASF28:
 3191 032e 705F7072 		.ascii	"p_prev\000"
 3191      657600
 3192              	.LASF21:
 3193 0335 74707269 		.ascii	"tprio_t\000"
 3193      6F5F7400 
 3194              	.LASF115:
 3195 033d 5F5F6675 		.ascii	"__func__.6397\000"
 3195      6E635F5F 
 3195      2E363339 
 3195      3700
 3196              	.LASF69:
 3197 034b 63685F73 		.ascii	"ch_system_debug\000"
 3197      79737465 
 3197      6D5F6465 
 3197      62756700 
 3198              	.LASF108:
 3199 035b 5F426F6F 		.ascii	"_Bool\000"
 3199      6C00
 3200              	.LASF14:
 3201 0361 696E7433 		.ascii	"int32_t\000"
 3201      325F7400 
 3202              	.LASF2:
ARM GAS  /tmp/ccnA0Hbj.s 			page 88


 3203 0369 756E7369 		.ascii	"unsigned char\000"
 3203      676E6564 
 3203      20636861 
 3203      7200
 3204              	.LASF40:
 3205 0377 705F6D74 		.ascii	"p_mtxlist\000"
 3205      786C6973 
 3205      7400
 3206              	.LASF3:
 3207 0381 73686F72 		.ascii	"short int\000"
 3207      7420696E 
 3207      7400
 3208              	.LASF34:
 3209 038b 705F7374 		.ascii	"p_state\000"
 3209      61746500 
 3210              	.LASF52:
 3211 0393 725F7072 		.ascii	"r_prio\000"
 3211      696F00
 3212              	.LASF119:
 3213 039a 2E2E2F43 		.ascii	"../ChibiOS/os/rt/src/chmsg.c\000"
 3213      68696269 
 3213      4F532F6F 
 3213      732F7274 
 3213      2F737263 
 3214              	.LASF91:
 3215 03b7 65776D61 		.ascii	"ewmask\000"
 3215      736B00
 3216              	.LASF27:
 3217 03be 705F6E65 		.ascii	"p_next\000"
 3217      787400
 3218              	.LASF35:
 3219 03c5 705F666C 		.ascii	"p_flags\000"
 3219      61677300 
 3220              	.LASF103:
 3221 03cd 63685379 		.ascii	"chSysLock\000"
 3221      734C6F63 
 3221      6B00
 3222              	.LASF59:
 3223 03d7 63685F76 		.ascii	"ch_virtual_timer\000"
 3223      69727475 
 3223      616C5F74 
 3223      696D6572 
 3223      00
 3224              	.LASF121:
 3225 03e8 63684D73 		.ascii	"chMsgRelease\000"
 3225      6752656C 
 3225      65617365 
 3225      00
 3226              	.LASF92:
 3227 03f5 63685F73 		.ascii	"ch_semaphore\000"
 3227      656D6170 
 3227      686F7265 
 3227      00
 3228              	.LASF122:
 3229 0402 63685363 		.ascii	"chSchGoSleepS\000"
 3229      68476F53 
 3229      6C656570 
ARM GAS  /tmp/ccnA0Hbj.s 			page 89


 3229      5300
 3230              	.LASF39:
 3231 0410 705F6570 		.ascii	"p_epending\000"
 3231      656E6469 
 3231      6E6700
 3232              	.LASF15:
 3233 041b 75696E74 		.ascii	"uint32_t\000"
 3233      33325F74 
 3233      00
 3234              	.LASF90:
 3235 0424 77746D74 		.ascii	"wtmtxp\000"
 3235      787000
 3236              	.LASF51:
 3237 042b 725F7175 		.ascii	"r_queue\000"
 3237      65756500 
 3238              	.LASF123:
 3239 0433 63685363 		.ascii	"chSchReadyI\000"
 3239      68526561 
 3239      64794900 
 3240              	.LASF46:
 3241 043f 63685F74 		.ascii	"ch_threads_list\000"
 3241      68726561 
 3241      64735F6C 
 3241      69737400 
 3242              	.LASF9:
 3243 044f 6C6F6E67 		.ascii	"long unsigned int\000"
 3243      20756E73 
 3243      69676E65 
 3243      6420696E 
 3243      7400
 3244              	.LASF99:
 3245 0461 63686172 		.ascii	"char\000"
 3245      00
 3246              	.LASF26:
 3247 0466 74687265 		.ascii	"thread_t\000"
 3247      61645F74 
 3247      00
 3248              	.LASF110:
 3249 046f 71756575 		.ascii	"queue_fifo_remove\000"
 3249      655F6669 
 3249      666F5F72 
 3249      656D6F76 
 3249      6500
 3250              	.LASF25:
 3251 0481 73797374 		.ascii	"systime_t\000"
 3251      696D655F 
 3251      7400
 3252              	.LASF41:
 3253 048b 705F7265 		.ascii	"p_realprio\000"
 3253      616C7072 
 3253      696F00
 3254              	.LASF57:
 3255 0496 76746675 		.ascii	"vtfunc_t\000"
 3255      6E635F74 
 3255      00
 3256              	.LASF8:
 3257 049f 5F5F7569 		.ascii	"__uint32_t\000"
ARM GAS  /tmp/ccnA0Hbj.s 			page 90


 3257      6E743332 
 3257      5F7400
 3258              	.LASF104:
 3259 04aa 5F5F7365 		.ascii	"__set_BASEPRI\000"
 3259      745F4241 
 3259      53455052 
 3259      4900
 3260              	.LASF70:
 3261 04b8 70616E69 		.ascii	"panic_msg\000"
 3261      635F6D73 
 3261      6700
 3262              	.LASF82:
 3263 04c2 6F666673 		.ascii	"offset\000"
 3263      657400
 3264              	.LASF111:
 3265 04c9 5F5F6675 		.ascii	"__func__.5700\000"
 3265      6E635F5F 
 3265      2E353730 
 3265      3000
 3266              	.LASF80:
 3267 04d7 636F6E74 		.ascii	"context\000"
 3267      65787400 
 3268              	.LASF17:
 3269 04df 7274636E 		.ascii	"rtcnt_t\000"
 3269      745F7400 
 3270              	.LASF64:
 3271 04e7 76745F70 		.ascii	"vt_par\000"
 3271      617200
 3272              	.LASF114:
 3273 04ee 63684D73 		.ascii	"chMsgWait\000"
 3273      67576169 
 3273      7400
 3274              	.LASF47:
 3275 04f8 74687265 		.ascii	"threads_queue_t\000"
 3275      6164735F 
 3275      71756575 
 3275      655F7400 
 3276              	.LASF95:
 3277 0508 63685F6D 		.ascii	"ch_mutex\000"
 3277      75746578 
 3277      00
 3278              	.LASF36:
 3279 0511 705F7265 		.ascii	"p_refs\000"
 3279      667300
 3280              	.LASF73:
 3281 0518 726C6973 		.ascii	"rlist\000"
 3281      7400
 3282              	.LASF13:
 3283 051e 75696E74 		.ascii	"uint8_t\000"
 3283      385F7400 
 3284              	.LASF118:
 3285 0526 474E5520 		.ascii	"GNU C 4.8.4 20140526 (release) [ARM/embedded-4_8-br"
 3285      4320342E 
 3285      382E3420 
 3285      32303134 
 3285      30353236 
 3286 0559 616E6368 		.ascii	"anch revision 211358] -mcpu=cortex-m4 -mno-thumb-in"
ARM GAS  /tmp/ccnA0Hbj.s 			page 91


 3286      20726576 
 3286      6973696F 
 3286      6E203231 
 3286      31333538 
 3287 058c 74657277 		.ascii	"terwork -mthumb -ggdb -O2 -fomit-frame-pointer -fal"
 3287      6F726B20 
 3287      2D6D7468 
 3287      756D6220 
 3287      2D676764 
 3288 05bf 69676E2D 		.ascii	"ign-functions=16 -ffunction-sections -fdata-section"
 3288      66756E63 
 3288      74696F6E 
 3288      733D3136 
 3288      202D6666 
 3289 05f2 73202D66 		.ascii	"s -fno-common -flto\000"
 3289      6E6F2D63 
 3289      6F6D6D6F 
 3289      6E202D66 
 3289      6C746F00 
 3290              	.LASF86:
 3291 0606 77746F62 		.ascii	"wtobjp\000"
 3291      6A7000
 3292              	.LASF33:
 3293 060d 705F6E61 		.ascii	"p_name\000"
 3293      6D6500
 3294              	.LASF44:
 3295 0614 74687265 		.ascii	"threads_list_t\000"
 3295      6164735F 
 3295      6C697374 
 3295      5F7400
 3296              	.LASF107:
 3297 0623 63685379 		.ascii	"chSysUnlock\000"
 3297      73556E6C 
 3297      6F636B00 
 3298              	.LASF112:
 3299 062f 63684D73 		.ascii	"chMsgReleaseS\000"
 3299      6752656C 
 3299      65617365 
 3299      5300
 3300              	.LASF97:
 3301 063d 6D5F6F77 		.ascii	"m_owner\000"
 3301      6E657200 
 3302              	.LASF30:
 3303 0645 705F6374 		.ascii	"p_ctx\000"
 3303      7800
 3304              	.LASF63:
 3305 064b 76745F66 		.ascii	"vt_func\000"
 3305      756E6300 
 3306              		.comm	__gnu_lto_v1,1,1
 3307              		.ident	"GCC: (GNU Tools for ARM Embedded Processors) 4.8.4 20140526 (release) [ARM/embedded-4_8-br
ARM GAS  /tmp/ccnA0Hbj.s 			page 92


DEFINED SYMBOLS
                            *ABS*:00000000 chmsg.c
     /tmp/ccnA0Hbj.s:471    .text.chMsgSend:00000000 $t
     /tmp/ccnA0Hbj.s:477    .text.chMsgSend:00000000 chMsgSend
     /tmp/ccnA0Hbj.s:588    .text.chMsgSend:00000038 $d
     /tmp/ccnA0Hbj.s:593    .text.chMsgWait:00000000 $t
     /tmp/ccnA0Hbj.s:599    .text.chMsgWait:00000000 chMsgWait
     /tmp/ccnA0Hbj.s:702    .text.chMsgWait:00000038 $d
     /tmp/ccnA0Hbj.s:707    .text.chMsgRelease:00000000 $t
     /tmp/ccnA0Hbj.s:713    .text.chMsgRelease:00000000 chMsgRelease
                            *COM*:00000001 __gnu_lto_v1
                     .debug_frame:00000010 $d
     /tmp/ccnA0Hbj.s:592    .text.chMsgSend:0000003c $t
     /tmp/ccnA0Hbj.s:706    .text.chMsgWait:0000003c $t

UNDEFINED SYMBOLS
chSchGoSleepS
chSchReadyI
ch
chSchWakeupS
