ARM GAS  /tmp/ccYQWmvd.s 			page 1


   1              		.syntax unified
   2              		.cpu cortex-m4
   3              		.fpu softvfp
   4              		.eabi_attribute 20, 1
   5              		.eabi_attribute 21, 1
   6              		.eabi_attribute 23, 3
   7              		.eabi_attribute 24, 1
   8              		.eabi_attribute 25, 1
   9              		.eabi_attribute 26, 1
  10              		.eabi_attribute 30, 6
  11              		.eabi_attribute 34, 1
  12              		.eabi_attribute 18, 4
  13              		.thumb
  14              		.file	"chmsg.c"
  15              		.text
  16              	.Ltext0:
  17              		.section	.gnu.lto_.inline.9c0660f8d10ef39e,"",%progbits
  18 0000 789C6362 		.ascii	"x\234cb`b\300\006$\030!47\003\003\0133\003\003\023\313"
  18      6062C006 
  18      24182134 
  18      3703030B 
  18      33030313 
  19 0015 073D0616 		.ascii	"\007=\006\026\210ZF\014\021&\006N\016 \311\327P\013"
  19      885A460C 
  19      1126064E 
  19      0E20C9D7 
  19      500B
  20 0027 136166E0 		.ascii	"\023af\340`\007\212\360l\310\205\211\2600\260\360\000"
  20      60078AF0 
  20      6CC88589 
  20      B030B0F0 
  20      00
  21 0038 459816C8 		.ascii	"E\230\026\310\303\315\341\002\022\254\330\205\331\030"
  21      C3CDE102 
  21      12ACD885 
  21      D918
  22 0046 585980C2 		.ascii	"XY\200\302l\007\354`\302\354\014l|\250\012\231\201\032"
  22      6C07EC60 
  22      C2EC0C6C 
  22      7CA80A99 
  22      811A
  23 0058 19381884 		.ascii	"\0318\030\204\354P\255\006\353g\342\206\021`U`1.\006"
  23      EC50AD06 
  23      EB67E286 
  23      11605560 
  23      312E06
  24 006b 617B2C4A 		.ascii	"a{,J\301\012\320\224r3p(aq\025B\001\003\000\200C\015"
  24      C10AD094 
  24      72337028 
  24      61711542 
  24      01030080 
  25 0081 51       		.ascii	"Q"
  26              		.text
  27              		.section	.gnu.lto_port_lock.9c0660f8d10ef39e,"",%progbits
  28 0000 789C6362 		.ascii	"x\234cb`b@\007\"@,\310\310\300P\007\342030\002U021\002"
  28      60624007 
  28      22402CC8 
ARM GAS  /tmp/ccYQWmvd.s 			page 2


  28      C8C05007 
  28      E2303330 
  29 001a 05181819 		.ascii	"\005\030\030\031\352\231\030\353#AL\006F%\206\205\015"
  29      EA9918EB 
  29      23414C06 
  29      46258685 
  29      0D
  30 002b 0D931EB4 		.ascii	"\015\223\036\264>{\3144\263\341@\313\202\206?\377\377"
  30      3E7BCC34 
  30      B3E140CB 
  30      82863FFF 
  30      FF
  31 003c 33326632 		.ascii	"32f2\002M\324cdHfd\210\000r\030\025\300\024\023\013"
  31      024DD463 
  31      64486664 
  31      88007218 
  31      15C01413 
  32 0051 AA15EB99 		.ascii	"\252\025\353\231\016<\370\377\377D\347\363\275@\223"
  32      0E3CF8FF 
  32      FF44E7F3 
  32      BD4093
  33 0060 19121917 		.ascii	"\031\022\031\027\002M\003\002V\206\226\206\206\011\012"
  33      024D0302 
  33      56869686 
  33      86090A
  34 006f 0C20DD40 		.ascii	"\014 \335@\020\002&CA\016`>\313\320\264\003H\24732\202"
  34      10022643 
  34      410E603E 
  34      CBD0B403 
  34      48A73332 
  35 0084 CC6300AA 		.ascii	"\314c\000\252a8\307\320\364\361\315\214\307\022p]`F"
  35      6138C7D0 
  35      F4F1CD8C 
  35      C712705D 
  35      6046
  36 0096 C381EE2B 		.ascii	"\303\201\356+\355\2540#\023\031\0273\262\002\215\203"
  36      EDAC3023 
  36      13191733 
  36      B2028D83 
  37 00a6 38190893 		.ascii	"8\031\010\223\231A>f\206x[\216\241dn\303\014\207LFf"
  37      99413E66 
  37      86785B8E 
  37      A1646EC3 
  37      0C874C46 
  38 00bb 102F1DAC 		.ascii	"\020/\035\254\012.U\016\221\202\272\374\"C\343\203\235"
  38      0A2E550E 
  38      9182BAFC 
  38      2243E383 
  38      9D
  39 00cc FA10E360 		.ascii	"\372\020\343` \004\244\001\244Z[OO\3379#3)\323?X?\277"
  39      2004A401 
  39      A45A5B4F 
  39      4FDF3923 
  39      3329D33F 
  40 00e3 58BFA844 		.ascii	"X\277\250D\277 \277\250\244X\3371\310\327\331\267B?"
  40      BF20BFA8 
  40      A458DF31 
ARM GAS  /tmp/ccYQWmvd.s 			page 3


  40      C8D7D9B7 
  40      423F
  41 00f5 392339BF 		.ascii	"9#9\277(5\276\314<W/\203\201\265,1\2474U\017UGjE\211"
  41      2835BECC 
  41      3C572F83 
  41      81B52C31 
  41      A734550F 
  42 010e BEB36FB0 		.ascii	"\276\263o\260g\260~f^rNiJ\252>XGr\256[i^2P\223\200o"
  42      67B07E66 
  42      5E724E69 
  42      4AAA3E58 
  42      4772AE5B 
  43 0129 70904252 		.ascii	"p\220BRbqjAQ\246\216\202\252\001\003S\021\003{njn~Q"
  43      62716A41 
  43      51A68E82 
  43      AA010353 
  43      11037B6E 
  44 0141 2503005A 		.ascii	"%\003\000Z\240au"
  44      A06175
  45              		.text
  46              		.section	.gnu.lto_port_unlock.9c0660f8d10ef39e,"",%progbits
  47 0000 789C6362 		.ascii	"x\234cb`b@\007\"@,\310\310\300P\007\342030\002U021\002"
  47      60624007 
  47      22402CC8 
  47      C8C05007 
  47      E2303330 
  48 001a 05181819 		.ascii	"\005\030\030\031\352\231\030\353#AL\006F%\206\205\015"
  48      EA9918EB 
  48      23414C06 
  48      46258685 
  48      0D
  49 002b 0D931EB4 		.ascii	"\015\223\036\264~z\3144\263\341@\313\202\206?\377\377"
  49      7E7ACC34 
  49      B3E140CB 
  49      82863FFF 
  49      FF
  50 003c 33326632 		.ascii	"32f2\002M\324cdHfd\210\000r\030\025\300\024\023\013"
  50      024DD463 
  50      64486664 
  50      88007218 
  50      15C01413 
  51 0051 AA15EB99 		.ascii	"\252\025\353\231\016<\370\377\377E\347\376}@\223\031"
  51      0E3CF8FF 
  51      FF45E7FE 
  51      7D409319 
  52 0061 12191702 		.ascii	"\022\031\027\002M\003\002V\206\226\206\206\011\012\014"
  52      4D030256 
  52      86968686 
  52      090A0C
  53 0070 20DD4010 		.ascii	" \335@\020\002&CA\016`>\313\320\264\003H\24732\202\314"
  53      02264341 
  53      0E603ECB 
  53      D0B40348 
  53      A7333282 
  54 0085 031B728E 		.ascii	"\003\033r\216\241\351\343\233\031\217%\340\272\300\214"
  54      A1E9E39B 
  54      198F25E0 
ARM GAS  /tmp/ccYQWmvd.s 			page 4


  54      BAC08C
  55 0094 8603A79F 		.ascii	"\206\003\247\237\266\263\302\214Ld\\\314\310\0124\016"
  55      B6B3C28C 
  55      4C645CCC 
  55      C80A340E 
  56 00a4 E264204C 		.ascii	"\342d Lf\006\371\230\031\342m9\206\222\271\0153\034"
  56      6606F998 
  56      19E26D39 
  56      8692B90D 
  56      331C
  57 00b6 32199941 		.ascii	"2\031\231A\274t\260*\270T9D\012\352\362\213\014\215"
  57      BC74B02A 
  57      B8543944 
  57      0AEAF28B 
  57      0C8D
  58 00c8 0FCEEB43 		.ascii	"\017\316\353C\214\203\201\020\220\006\220jm==}\347\214"
  58      8C838110 
  58      9006906A 
  58      6D3D3D7D 
  58      E78C
  59 00da CCA44CFF 		.ascii	"\314\244L\377`\375\374b\375\242\022\375\202\374\242"
  59      60FDFC62 
  59      FDA212FD 
  59      82FCA2
  60 00e9 92627DC7 		.ascii	"\222b}\307 _g\337\012\375\344\214\344\374\242\324\370"
  60      205F67DF 
  60      0AFDE48C 
  60      E4FCA2D4 
  60      F8
  61 00fa 32F35CBD 		.ascii	"2\363\\\275\014\006\326\262\304\234\322T=T\035\251\025"
  61      0C06D6B2 
  61      C49CD254 
  61      3D541DA9 
  61      15
  62 010b 25FACEBE 		.ascii	"%\372\316\276\301\236\301\372\231y\3119\245)\251\372"
  62      C19EC1FA 
  62      9979C939 
  62      A529A9FA 
  63 011b 601DC9B9 		.ascii	"`\035\311\271n\245y\311@M\002\276\301A\012I\211\305"
  63      6EA579C9 
  63      404D02BE 
  63      C1410A49 
  63      89C5
  64 012d A9054599 		.ascii	"\251\005E\231:\012\252\006\014LE\014\354\271\251\271"
  64      3A0AAA06 
  64      0C4C450C 
  64      ECB9A9B9 
  65 013d F945950C 		.ascii	"\371E\225\014\000\233\025a\301"
  65      009B1561 
  65      C1
  66              		.text
  67              		.section	.gnu.lto_queue_insert.9c0660f8d10ef39e,"",%progbits
  68 0000 789C6362 		.ascii	"x\234cb`b@\007\"@\254\014\024V\001q\230\031\030\201"
  68      60624007 
  68      2240AC0C 
  68      14560171 
  68      98191881 
ARM GAS  /tmp/ccYQWmvd.s 			page 5


  69 0014 4C462646 		.ascii	"LF&FF \207\221\241\236\211\261>\022\304d`RbX\330\320"
  69      46208791 
  69      A19E89B1 
  69      3E12C464 
  69      60526258 
  70 002a 30E941EB 		.ascii	"0\351A\353\372^\355\231S\016\264,h\370\363\377?#c&H"
  70      FA5EED99 
  70      530EB42C 
  70      68F8F3FF 
  70      3F236326 
  71 003f 32999121 		.ascii	"2\231\221!\002\310bT\000SL,\250\346C4\036\370\375j\205"
  71      02C86254 
  71      00534C2C 
  71      A8E64334 
  71      1EF8FD6A 
  72 0054 64D782A6 		.ascii	"d\327\202\246\011\015\377\200\372\210\320\266\236\351"
  72      090DFF80 
  72      FA88D0B6 
  72      9EE9
  73 0062 C083FFFF 		.ascii	"\300\203\377\377\347\\?v\354 \343\376\255,\254\214\214"
  73      E75C3F76 
  73      EC20E3FE 
  73      AD2CAC8C 
  73      8C
  74 0073 B98C0C4C 		.ascii	"\271\214\014L@\202\221\231\001\250\235\205\001l\006"
  74      40829199 
  74      01A89D85 
  74      016C06
  75 0082 032B434B 		.ascii	"\003+CKC\303\004\005\260i@\020\002&CA\236`>\313\320"
  75      43C30405 
  75      B0694010 
  75      02264341 
  75      9E603ECB 
  76 0097 74FAC7BA 		.ascii	"t\372\307\272^\271D\306\305\214\254\014\332\014\253"
  76      5EB944C6 
  76      C58CAC0C 
  76      DA0CAB
  77 00a6 1A80801B 		.ascii	"\032\200\200\033\250m6\303,\240\205\314\351\214\214"
  77      A86D36C3 
  77      2CA085CC 
  77      E98C8C
  78 00b5 11109700 		.ascii	"\021\020\227\000A\022\224N\007i\005\352\2745\003\350"
  78      4112944E 
  78      076905EA 
  78      BC3503E8 
  79 00c5 5188CE74 		.ascii	"Q\210\316tFfm\006-\270>\026\240\022\220>V\250>\250F"
  79      46666D06 
  79      2DB83E16 
  79      A012903E 
  79      56A83EA8 
  80 00da 90A69317 		.ascii	"\220\246\223\027\330\211\264\214\011j\0313\304\262\025"
  80      D889B48C 
  80      096A1933 
  80      C4B215
  81 00e9 EB796176 		.ascii	"\353yav\261 \333\205]\033X\317\351\013\334(vY#kb\301"
  81      B120DB85 
  81      5D1B58CF 
ARM GAS  /tmp/ccYQWmvd.s 			page 6


  81      E90BDC28 
  81      7659236B 
  82 00ff E6314688 		.ascii	"\3461F\210\276\033\353{\345Qt\362\022\360\032X\347E"
  82      BE1BEB7B 
  82      E55174F2 
  82      12F01A58 
  82      E745
  83 0111 86C607C0 		.ascii	"\206\306\007\300h\200h\204\201\020\220\014\310MJzz\372"
  83      68806884 
  83      8110900C 
  83      C84D4A7A 
  83      7AFA
  84 0123 CE199949 		.ascii	"\316\031\231I\231\376\301\372\371\305\372E%\372\231"
  84      99FEC1FA 
  84      F9C5FA45 
  84      25FA99
  85 0132 79C939A5 		.ascii	"y\3119\245)\251\372\311\031\305\311\031)z\031\014\000"
  85      29A9FAC9 
  85      19C5C919 
  85      297A190C 
  85      00
  86 0143 DF067E4C 		.ascii	"\337\006~L"
  87              		.text
  88              		.section	.gnu.lto_queue_fifo_remove.9c0660f8d10ef39e,"",%progbits
  89 0000 789C9591 		.ascii	"x\234\225\221=K\003A\020\206gv/*H~\200\210\020\002\""
  89      3D4B0341 
  89      10866776 
  89      2F2A487E 
  89      80881002 
  90 0015 18C8FD02 		.ascii	"\030\310\375\002+\177\200\205\011D\254\362!\271\003"
  90      2B7F8085 
  90      0944ACF2 
  90      21B903
  91 0024 BF30B1CE 		.ascii	"\2770\261\316\032b#\004BP\310\207`\004\021\261Q\014"
  91      1A622304 
  91      4250C887 
  91      600411B1 
  91      510C
  92 0036 F6278820 		.ascii	"\366'\210 \301\302.Z\245\024\322\244\264\020\317\331"
  92      C1C22E5A 
  92      A514D2A4 
  92      B410CFD9 
  93 0046 DB5CBC58 		.ascii	"\333\\\274X\030\035\270\331\275\331y\366}o\216\001\203"
  93      181DB8D9 
  93      BDD979F6 
  93      7D6F8E01 
  93      83
  94 0057 9F314D4F 		.ascii	"\2371MO\231\312s\362E\003\244-2\344\2249\"\225\020r"
  94      99CA73F2 
  94      4503A42D 
  94      32E49439 
  94      22951072 
  95 006b 8C636E05 		.ascii	"\214cn\005\235\363 \234\012Q\356\3547\213\241\352\241"
  95      9DF3209C 
  95      0A51EEEC 
  95      378BA1EA 
  95      A1
ARM GAS  /tmp/ccYQWmvd.s 			page 7


  96 007c 5568880F 		.ascii	"Uh\210\017\333F4\345a\022!F;\0148\013\323\206e\024h"
  96      DB4634E5 
  96      61122146 
  96      3B0C380B 
  96      D3866514 
  97 0091 D5BBD753 		.ascii	"\325\273\327S\007\215|I|\022\367W\254f\235t+\377\307"
  97      078D7C49 
  97      7C12F757 
  97      AC669D74 
  97      2BFFC7
  98 00a4 CAD651F7 		.ascii	"\312\326Q\367\015\253\302k\223\301,\216`\257\230\325"
  98      0DABC26B 
  98      93C12C8E 
  98      60AF98D5 
  99 00b4 B1EDE397 		.ascii	"\261\355\343\227\207\373;l\337jc\210\033\222\213\343"
  99      87FB3B6C 
  99      DF6A6388 
  99      1B928BE3 
 100 00c4 19068103 		.ascii	"\031\006\201\003]\242\311\344\003\307\007\255\005!J"
 100      5DA2C9E4 
 100      03C707AD 
 100      05214A
 101 00d3 0175ECF8 		.ascii	"\001u\354\370\242\21089*\207\311\237 \377\332\276)\316"
 101      A2883839 
 101      2A87C99F 
 101      20FFDABE 
 101      29CE
 102 00e5 C4F11C7D 		.ascii	"\304\361\034}\220F\026\202KA\261J|\035j\344\200\247"
 102      90461682 
 102      4B41B14A 
 102      7C1D6AE4 
 102      80A7
 103 00f7 11A51365 		.ascii	"\021\245\023e$\201\256\023IVh\322.\311C0?\200|tSL\315"
 103      2481AE13 
 103      495668D2 
 103      2EC94330 
 103      3F807C74 
 104 010e C281F01B 		.ascii	"\302\201\360\033z\354\215+\244\257\344\037\241\224\226"
 104      7AEC8D2B 
 104      A4AFE41F 
 104      A19496
 105 011d BF5B8A5D 		.ascii	"\277[\212]4\375\256\226\346\325\372\305`\25379\244\265"
 105      34FDAE96 
 105      E6D5FAC5 
 105      60AB3739 
 105      A4B5
 106 012f E035A879 		.ascii	"\3405\250y\015\262\276\026*\217\357\315\"w\305\344\267"
 106      0DB2BE16 
 106      2A8FEFCD 
 106      2277C5E4 
 106      B7
 107 0140 A8B6A8B4 		.ascii	"\250\266\250\264\302[\2607\001\220\222\255\317\200\203"
 107      C25BB037 
 107      019092AD 
 107      CF8083
 108 014f 2ED51291 		.ascii	".\325\022\221e\331\036\014\207\365E\303L\230K\313\372"
 108      65D91E0C 
ARM GAS  /tmp/ccYQWmvd.s 			page 8


 108      87F545C3 
 108      4C984BCB 
 108      FA
 109 0160 5646DFC9 		.ascii	"VF\337\311\352\346fr}7\265\246'\215L\322H\205\015`\331"
 109      EAE66672 
 109      7D37B5A6 
 109      278D4CD2 
 109      48850D60 
 110 0175 ED2FAFDC 		.ascii	"\355/\257\334\230;"
 110      983B
 111              		.text
 112              		.section	.gnu.lto_chSysLock.9c0660f8d10ef39e,"",%progbits
 113 0000 789C6362 		.ascii	"x\234cb`b@\007\"@\\\006\304\312 \0163\003#P\005#\023"
 113      60624007 
 113      22405C06 
 113      C4CA200E 
 113      33032350 
 114 0017 232390C3 		.ascii	"##\220\303\310P\317\304X\037\311\010V\266\236\351\300"
 114      C850CFC4 
 114      581FC908 
 114      56B69EE9 
 114      C0
 115 0028 83FFFFD7 		.ascii	"\203\377\377\327}\231\266\354\017\343m&\220\030+CKC"
 115      7D99B6EC 
 115      0FE36D26 
 115      90182B43 
 115      4B43
 116 003a C3040506 		.ascii	"\303\004\005\006\206d\260\212\0200\031\012\322\317|"
 116      8664B08A 
 116      1030190A 
 116      D2CF7C
 117 0049 9EA1F9C1 		.ascii	"\236\241\371\301\236n\366D\306\205\214\254@\301j\206"
 117      9E6EF644 
 117      C6858CAC 
 117      40C16A86 
 118 0059 5F0D1D0D 		.ascii	"_\015\035\015\002\231\214@\245\020\3232A\364E\206\306"
 118      02998C40 
 118      A510D332 
 118      41F44586 
 118      C6
 119 006a 07FBB561 		.ascii	"\007\373\265a\212  \004$\001r\244\242\236\236\276sF"
 119      8A202004 
 119      240172A4 
 119      A29E9EBE 
 119      7346
 120 007c 6652A67F 		.ascii	"fR\246\177\260~~\261~Q\211~f^rNiJ\252~rFqe\261^\006"
 120      B07E7EB1 
 120      7E51897E 
 120      665E724E 
 120      694AAA7E 
 121 0097 0300A9F5 		.ascii	"\003\000\251\365'\020"
 121      2710
 122              		.text
 123              		.section	.gnu.lto_chSysUnlock.9c0660f8d10ef39e,"",%progbits
 124 0000 789C6362 		.ascii	"x\234cb`b@\007\322@\334\301\310\300\240\014\342\260"
 124      60624007 
 124      D240DCC1 
ARM GAS  /tmp/ccYQWmvd.s 			page 9


 124      C8C0A00C 
 124      E2B0
 125 0012 30300255 		.ascii	"00\002U0212\003IfF\2400\003#C=\0233c}$\210\315\300\246"
 125      30323132 
 125      03496646 
 125      A0300323 
 125      433D1333 
 126 002d C4B0B0A1 		.ascii	"\304\260\260\241a\322\203\247\337gIv-h\232\320\360\357"
 126      61D283A7 
 126      DF674976 
 126      2D689AD0 
 126      F0EF
 127 003f FF7FC64C 		.ascii	"\377\177\306L\220T2#C\004\220\305\250\000\246\230XP"
 127      90543223 
 127      430490C5 
 127      A800A698 
 127      5850
 128 0051 2D81686B 		.ascii	"-\201hk\330\264\242\201sA\303\237\377\377\231\311\323"
 128      D8B4A281 
 128      7341C39F 
 128      FFFF99C9 
 128      D3
 129 0062 C33C58EC 		.ascii	"\303<X\354\311edX\317t\340\301\377\377ov\356|\364\206"
 129      C9656458 
 129      CF74E0C1 
 129      FFFF6F76 
 129      EE7CF486 
 130 0076 5114640B 		.ascii	"Q\024d\013+CKC\303\004\205\\\250\215@\020\002%\201A"
 130      2B434B43 
 130      C304855C 
 130      A88D4010 
 130      02258141 
 131 008a CA1C0A32 		.ascii	"\312\034\0122\224\371<C\363\203\327\247\331\023\031"
 131      94F93C43 
 131      F383D7A7 
 131      D91319
 132 0099 9731B202 		.ascii	"\2271\262\002\245\252\031~5t4\010d2\262$\203\303\232"
 132      A5AA197E 
 132      35743408 
 132      6432B224 
 132      83C39A
 133 00ac 81211324 		.ascii	"\201!\023$~\221\241\361\301\033m\230\"\010\010\001)"
 133      7E91A1F1 
 133      C11B6D98 
 133      22080801 
 133      29
 134 00bd 00C59EA2 		.ascii	"\000\305\236\242\236\236\276sFfR\246\177\260~~\261~"
 134      9E9EBE73 
 134      466652A6 
 134      7FB07E7E 
 134      B17E
 135 00cf 51897E66 		.ascii	"Q\211~f^rNiJ\252~rFqe\261^\006\003\000\341Gc\351"
 135      5E724E69 
 135      4AAA7E72 
 135      467165B1 
 135      5E060300 
 136              		.text
ARM GAS  /tmp/ccYQWmvd.s 			page 10


 137              		.section	.gnu.lto_chMsgIsPendingI.9c0660f8d10ef39e,"",%progbits
 138 0000 789C6362 		.ascii	"x\234cb`b@\007\322@\274\235\221\201A\031\304aa`\004"
 138      60624007 
 138      D240BC9D 
 138      91814119 
 138      C4616160 
 139 0015 AA606462 		.ascii	"\252`dbd\006\222\314\214@a\006F\206z&f\306\372H\020"
 139      640692CC 
 139      8C406106 
 139      46867A26 
 139      66C6FA48 
 140 002a 9B815989 		.ascii	"\233\201Y\211aaC\303\254\007O_\315\020\357z\3200\241"
 140      616143C3 
 140      AC074F5F 
 140      CD10EF7A 
 140      D030A1
 141 003d E1DFFFFF 		.ascii	"\341\337\377\377\214\231 \251dF\206\010 \213\221\003"
 141      8C9920A9 
 141      64468608 
 141      208B9103 
 142 004d 4C3131A2 		.ascii	"L11\242Z\002\3266\251\341\377\223\200\023\015-\007\376"
 142      5A02D636 
 142      A9E1FF93 
 142      80130D2D 
 142      07FE
 143 005f FFB7CF04 		.ascii	"\377\267\317\004\331\000\323\243\000\321\303\202U\317"
 143      D900D3A3 
 143      00D1C382 
 143      55CF
 144 006d D6A7083D 		.ascii	"\326\247\010=,\204\364\254g:\360\340\377\377?\233W<"
 144      2C84F4AC 
 144      673AF0E0 
 144      FFFF3F9B 
 144      573C
 145 007f 5EC328C8 		.ascii	"^\303(\310\312\310\230\313\010\3641\320.f \301\302\302"
 145      CAC898CB 
 145      08F431D0 
 145      2E6620C1 
 145      C2C2
 146 0091 00762903 		.ascii	"\000v)\003+CKC\303\004\005\260Y@\020\002&CA\036g>\313"
 146      2B434B43 
 146      C30405B0 
 146      59401002 
 146      2643411E 
 147 00a8 D074EBC7 		.ascii	"\320t\353\307\253\037\314\211\214K\030Y\031\322\031"
 147      AB1FCC89 
 147      8C4B1859 
 147      19D219
 148 00b7 99B419B4 		.ascii	"\231\264\031\264\200\332\265\031V5\000Ax&#\353l\206"
 148      80DAB519 
 148      56350041 
 148      782623EB 
 148      6C86
 149 00c9 59407BD9 		.ascii	"Y@{\331\322\031\031A\3663\203mM\202\3726\211\021\346"
 149      D2191941 
 149      F633836D 
 149      4D82FA36 
ARM GAS  /tmp/ccYQWmvd.s 			page 11


 149      8911E6
 150 00dc 6DA039BF 		.ascii	"m\2409\277\232w\301\215a\256f\250\002:\000j\314gF\002"
 150      9A77C18D 
 150      61AE66A8 
 150      023A006A 
 150      CC674602 
 151 00f0 E6408D68 		.ascii	"\346@\215h\276\321\314\0073\201\005\350\226t\2502\240"
 151      BED1CC07 
 151      338105E8 
 151      9674A832 
 151      A0
 152 0101 5B810CE6 		.ascii	"[\201\014\346\323\014\215\034\014\014) ;/20\302\025"
 152      D30C8D1C 
 152      0C0C2920 
 152      3B2F3230 
 152      C215
 153 0113 42948480 		.ascii	"B\224\204\200\204A\221\255\250\247\247\357\234\221\231"
 153      844191AD 
 153      A8A7A7EF 
 153      9C9199
 154 0122 94E91FAC 		.ascii	"\224\351\037\254\237_\254_T\242\237\231\227\234S\232"
 154      9F5FAC5F 
 154      54A29F99 
 154      979C539A 
 155 0132 92AA9F9C 		.ascii	"\222\252\237\234\221[\234\256\227\301\000\000\326$g"
 155      915B9CAE 
 155      97C10000 
 155      D62467
 156 0141 73       		.ascii	"s"
 157              		.text
 158              		.section	.gnu.lto_chMsgReleaseS.9c0660f8d10ef39e,"",%progbits
 159 0000 789C6362 		.ascii	"x\234cb`b@\007\"@\334\006\304\312 \0163\003#P\005#\023"
 159      60624007 
 159      2240DC06 
 159      C4CA200E 
 159      33032350 
 160 0017 232390C3 		.ascii	"##\220\303\310P\317\304X\037\311\010V\266\236\351\300"
 160      C850CFC4 
 160      581FC908 
 160      56B69EE9 
 160      C0
 161 0028 83FFFFD7 		.ascii	"\203\377\377\327]:\276\367\015\343<&fF\306\\F\006& "
 161      5D3ABEF7 
 161      0DE33C26 
 161      6646C65C 
 161      46062620 
 162 003c 01926565 		.ascii	"\001\222eehih\230\240\300\300\220\014V\033\002&CA&1"
 162      68696898 
 162      A0C0C090 
 162      0C561B02 
 162      26434126 
 163 0051 9F67687D 		.ascii	"\237gh}\360\3661{\"\343BFV\240`5\303\257\206\216\006"
 163      F0F6317B 
 163      22E34246 
 163      56A06035 
 163      C3AF868E 
 164 0066 814C46A0 		.ascii	"\201LF\240R\210\271\351\214\214\351\214L\231 \336E\206"
ARM GAS  /tmp/ccYQWmvd.s 			page 12


 164      5288B9E9 
 164      8C8CE98C 
 164      4C9920DE 
 164      4586
 165 0078 C607EF94 		.ascii	"\306\007\357\224aJ! \004$\001r\264\242\236\236\276s"
 165      614A2120 
 165      04240172 
 165      B4A29E9E 
 165      BE73
 166 008a 466652A6 		.ascii	"FfR\246\177\260~~\261~Q\211~f^rNiJ\252~rFnq\272^\006"
 166      7FB07E7E 
 166      B17E5189 
 166      7E665E72 
 166      4E694AAA 
 167 00a6 030092DC 		.ascii	"\003\000\222\334)J"
 167      294A
 168              		.text
 169              		.section	.gnu.lto_chMsgSend.9c0660f8d10ef39e,"",%progbits
 170 0000 789C8D52 		.ascii	"x\234\215R\277k\024A\024~ofg\367\214\271\374PAS\010"
 170      BF6B1441 
 170      147E6F66 
 170      67F78CB9 
 170      FC504153 
 171 0015 47EC0CDC 		.ascii	"G\354\014\334u\376\250\375\003,\222C-s+\\\246X\224\\"
 171      75FEA8FD 
 171      032C9243 
 171      2D732B5C 
 171      A658945C 
 172 0029 2A53642E 		.ascii	"*Sd.\233B\202JHu(\202A\261\260\261\022,,\016\324x\032"
 172      9B42824A 
 172      48752882 
 172      41B1B0B1 
 172      122C2C0E 
 173 0040 E5B09354 		.ascii	"\345\260\223T\213\215\251\274\250\215Dq}3;\273w\361"
 173      8B8DA9BC 
 173      A88D4471 
 173      7D333BBB 
 173      77F1
 174 0052 0EE2C0BD 		.ascii	"\016\342\300\275\231\331\373\276\367}\357\333e\300\340"
 174      99D9FBBE 
 174      F77DEFDB 
 174      65C0E0
 175 0061 DF75867E 		.ascii	"\337u\206~\273\034\340\224\276x\200\204@\206\364\000"
 175      BB1CE094 
 175      BE788084 
 175      4086F400 
 176 0071 39730014 		.ascii	"9s\000\024\023T\034\007iC\201.U\027\221\240\010K\214"
 176      13541C07 
 176      6943812E 
 176      551791A0 
 176      084B8C
 177 0084 3BC2C5A5 		.ascii	";\302\305\245+\372\012b\0226\224Z\217^w\032\023\253"
 177      2BFA0A62 
 177      1236945A 
 177      8F5E771A 
 177      13AB
 178 0096 0F96D7D4 		.ascii	"\017\226\327\324\2378F\251\377\362\021.\323\011\013"
ARM GAS  /tmp/ccYQWmvd.s 			page 13


 178      9F3846A9 
 178      FFF2112E 
 178      D3090B
 179 00a5 66D34D7B 		.ascii	"f\323M{WBk\306\233\267\216\257F*\245\361.-\227\320p"
 179      57426BC6 
 179      9BB78EAF 
 179      462AA5F1 
 179      2E2D97D0 
 180 00ba 00ADD1BC 		.ascii	"\000\255\321\274\377\346\355\006\252uU\337\215\343Q"
 180      FFE6ED06 
 180      AA7555DF 
 180      8DE351
 181 00c9 89CE7FAA 		.ascii	"\211\316\177\252}\333\2743\241\272&\005\203\002\036"
 181      7DDBBC33 
 181      A1BA2605 
 181      83021E
 182 00d8 C00C109E 		.ascii	"\300\014\020\236\262f\024\307\277\237\355|n\343x\016"
 182      B26614C7 
 182      BF9FED7C 
 182      6EE3780E 
 183 00e8 61161FE1 		.ascii	"a\026\037\341$0\014\0209\025b\320\274\202\012w\011\216"
 183      24300C10 
 183      391562D0 
 183      BC820A77 
 183      098E
 184 00fa 1E1843F4 		.ascii	"\036\030C\364dE\251\265B\202\016l\"\264fL-\353\304\371"
 184      6445A9B5 
 184      42820E6C 
 184      22B4664C 
 184      2DEBC4F9 
 185 010e 0758DE6E 		.ascii	"\007X\336n|\335\301Y|LIW\021\247\340\211\242u\211\314"
 185      7CDDC159 
 185      7C4C4957 
 185      11A7E089 
 185      A27589CC 
 186 0122 4DC16989 		.ascii	"M\301i\211\356=\270[WjL\242\267\010{\352\246>\345\002"
 186      EE3DB85B 
 186      576A4CA2 
 186      B7087BEA 
 186      A63EE502 
 187 0136 9D93719B 		.ascii	"\235\223q\2333\036+6\244\012\366\246U\326(\336\2060"
 187      331E2B36 
 187      A40AF6A6 
 187      55D628DE 
 187      8630
 188 0148 7A117A89 		.ascii	"z\021z\211\000@\326\344\220o\301\022\207\000\310\307"
 188      0040D6E4 
 188      906FC112 
 188      8700C8C7 
 189 0158 D6F34EC4 		.ascii	"\326\363N\304\022\2305q\226\346\260\307\274\304\303"
 189      12983571 
 189      96E6B0C7 
 189      BCC4C3
 190 0167 E4841487 		.ascii	"\344\204\024\207\311\244V\026V\221\331\235\233\275\252"
 190      C9A45616 
 190      5691D99D 
 190      9BBDAA
ARM GAS  /tmp/ccYQWmvd.s 			page 14


 191 0176 EFD46C2F 		.ascii	"\357\324l/\374u\233\247C9\213p\203\0222\363\344\263"
 191      FC759BA7 
 191      43398B70 
 191      831232F3 
 191      E4B3
 192 0188 2EBCB74B 		.ascii	".\274\267KO\350m\020}fG|\253C\342\324O\342\250Q\331"
 192      4FE86D10 
 192      7D66477C 
 192      AB43E2D4 
 192      4FE2A851 
 193 019d FED96965 		.ascii	"\376\331ie\321%y\215\015\356/l\363\026\274\372R\317"
 193      D125798D 
 193      0DEE2F6C 
 193      F316BCFA 
 193      52CF
 194 01af 67140DE1 		.ascii	"g\024\015\341#\3732sLf+Q\353!\366\331\030\367\2631\271"
 194      23FB3273 
 194      4C662B51 
 194      EB21F6D9 
 194      18F7B331 
 195 01c4 C4232945 		.ascii	"\304#)EX\312\273p\250\217r\324\267\263\031\251aJ\373"
 195      58CABB70 
 195      A88F72D4 
 195      B7B319A9 
 195      614AFB
 196 01d7 98B5FEFD 		.ascii	"\230\265\376\375\\j\303\265!Ow\363>\177`\336n\026W\030"
 196      5C6AC3B5 
 196      214F77F3 
 196      3E7F60DE 
 196      6E165718 
 197 01eb BD7F39F0 		.ascii	"\275\1779\360\375\212\375\357\367\323\217\023\251\242"
 197      FD8AFDEF 
 197      F7D38F13 
 197      A9A2
 198 01f9 574DF965 		.ascii	"WM\371e}\340[P\247/\351\252\266\372\021\262D\275\004"
 198      7DE05B50 
 198      A72FE9AA 
 198      B6FA11B2 
 198      44BD04
 199 020c 32A33F14 		.ascii	"2\243?\024-{\262X,]\230\223\025yq\272t\255V\232_(\325"
 199      2D7BB258 
 199      2C5D9893 
 199      157971BA 
 199      74AD569A 
 200 0223 E6FD923F 		.ascii	"\346\375\222?\027\324\252E\037\270\277p\375/P8\337="
 200      17D4AA45 
 200      1FB8BF70 
 200      FD2F5038 
 200      DF3D
 201              		.text
 202              		.section	.gnu.lto_chMsgWait.9c0660f8d10ef39e,"",%progbits
 203 0000 789C9D53 		.ascii	"x\234\235S\317k\023A\024~of\177\244\255ic=\345\240\204"
 203      CF6B1341 
 203      147E6F66 
 203      7FA4AD69 
 203      633DE5A0 
 204 0015 1C5BC8FE 		.ascii	"\034[\310\376\011\036\374\003\024l\241zkVH\347P\324"
ARM GAS  /tmp/ccYQWmvd.s 			page 15


 204      091EFC03 
 204      146CA17A 
 204      6B5648E7 
 204      50D4
 205 0027 A6277BE8 		.ascii	"\246'{\350\244\331B\251 U\364`Eh\275\370\343\240W\017"
 205      A4D942A9 
 205      2055F460 
 205      4568BDF8 
 205      E3A0570F 
 206 003b 0A0B226D 		.ascii	"\012\013\"m\025)\336\202\247\010\352\251\240\342%\204"
 206      1529DE82 
 206      A708EAA9 
 206      A0E22584 
 207 004b D8F5BDD9 		.ascii	"\330\365\275\331\354\272j\301\352@f3o\337\367}\357}"
 207      ECBA6AC1 
 207      EA406633 
 207      6FDFF77D 
 207      EF7D
 208 005d F3568080 		.ascii	"\363V\200\200\337\227G\277\363\026@\231\017\016 e\240"
 208      DF9747BF 
 208      F3164099 
 208      0F0E2065 
 208      A0
 209 006e 1012400B 		.ascii	"\020\022@\013\212jK\"=\320B\233v\033\221\222\020\026"
 209      8A6A4B22 
 209      3DD0429B 
 209      761B9192 
 209      1016
 210 0080 85B46C5C 		.ascii	"\205\264l\\<\307'p\313\260\251\365\215\366\307\375\216"
 210      3CC72770 
 210      CBB0A9F5 
 210      8DF6C7FD 
 210      8E
 211 0091 B87D330C 		.ascii	"\270}3\0146t/\212\020\025\277\364\021\246\350\037\226"
 211      36742F8A 
 211      1015BFF4 
 211      11A6E81F 
 211      96
 212 00a2 CC8309B3 		.ascii	"\314\203\011\263+\006\352\307\017\2644 \251P\376\304"
 212      2B06EAC7 
 212      0FB43420 
 212      A950FEC4 
 213 00b2 E4620C1E 		.ascii	"\344b\014\036\210\371\274\274\\h\374#(\374\276u\267"
 213      88F9BCBC 
 213      5C68FC23 
 213      28FCBE75 
 213      B7
 214 00c3 B8BAB1B4 		.ascii	"\270\272\261\264\246\367\251\300\303\327\367\355\303"
 214      A6F7A9C0 
 214      C3D7F7ED 
 214      C3
 215 00d0 996D1D84 		.ascii	"\231m\035\204QtR\261\027\207\300\254\207\267^\355l\""
 215      517452B1 
 215      1787C0AC 
 215      87B75EED 
 215      6C22
 216 00e2 611B5FA2 		.ascii	"a\033_\242h\344\320R\341\327\255kE\235\251P@\011\377"
ARM GAS  /tmp/ccYQWmvd.s 			page 16


 216      68E4D052 
 216      E1D7AD6B 
 216      459DA950 
 216      4009FF
 217 00f5 827C22C2 		.ascii	"\202|\"\302v\024\365\236\357\275\277\212\2439\004\203"
 217      7614F59E 
 217      EFBDBF8A 
 217      A3390483 
 218 0105 224F246F 		.ascii	"\"O$o\026\037m\332,\007\246\361>\226\301\005S\015\005"
 218      161F6DDA 
 218      2C07A6F1 
 218      3E96C105 
 218      530D05
 219 0118 03ADD74A 		.ascii	"\003\255\327Jq\320TGk\302\354\223<\003r\027\232\355"
 219      71D05447 
 219      6BC2EC93 
 219      3C037217 
 219      9AED
 220 012a 6ED39DC6 		.ascii	"n\323\235\306\207|\365\260\000]\275\242\013\012m\037"
 220      877CF5B0 
 220      005DBDA2 
 220      0B0A6D1F 
 221 013a 6377153A 		.ascii	"cw\025:\000o`\351]\207.>N\253!\216\303\030\011\214\303"
 221      006F60E9 
 221      5D872E3E 
 221      4EAB218E 
 221      C318098C 
 222 014f 234DEBB2 		.ascii	"#M\353\262B\367\016\25474\003s)\305\300\254a\340n\006"
 222      42F70EAC 
 222      37340373 
 222      29C5C0AC 
 222      61E06E06 
 223 0163 0C55B57F 		.ascii	"\014U\265\177_UL.n\027\202\320KHE\212\034\3641\236\340"
 223      5F554C2E 
 223      6E1782D0 
 223      4B48458A 
 223      1CF4319E 
 224 0178 1A0FD890 		.ascii	"\032\017\330\220\321\177\326<\221$\312\032\277\336\206"
 224      D17FD63C 
 224      9124CA1A 
 224      BFDE86
 225 0187 60AF914F 		.ascii	"`\257\221Oc,#\263\216M\362\221\372\013\332\275\027\203"
 225      632C23B3 
 225      8E4DF291 
 225      FA0BDABD 
 225      1783
 226 0199 7FF477C4 		.ascii	"\177\364w\304\357g3.?Lm\016'0r^r\303\255\250%\023z+"
 226      EF67332E 
 226      3F4C6D0E 
 226      2730725E 
 226      72C3ADA8 
 227 01b1 6978ECBF 		.ascii	"ix\354\277{%\312n\363\023&\214\366\002\\Q\314k,\274"
 227      7B25CA6E 
 227      F313268C 
 227      F6025C51 
 227      CC6B2CBC 
 228 01c5 4EC011E2 		.ascii	"N\300\021\342\245G\201\324\246\342\2715\370\314\267"
ARM GAS  /tmp/ccYQWmvd.s 			page 17


 228      A54781D4 
 228      A6E2B935 
 228      F8CCB7
 229 01d4 CC763909 		.ascii	"\314v9\011\201\223\212\037\365\321\352\333e+\0345RO"
 229      81938A1F 
 229      F5D1EADB 
 229      652B1C35 
 229      524F
 230 01e6 3B51A7AF 		.ascii	";Q\247\257\325\227\030Rx,Up\262\012\031#\362F\245\331"
 230      D5971852 
 230      782C5570 
 230      B20A1923 
 230      F246A5D9 
 231 01fa 5E7979E0 		.ascii	"^yy\340H\330\277\214\304N\353^1\251\306\255q06\220\262"
 231      48D8BF8C 
 231      C44EEB5E 
 231      31A9C6AD 
 231      71303690 
 232 020f E46B68E4 		.ascii	"\344kh\344\000.p\367o!m\332\215S&8\314}\035\257T\274"
 232      002E70F7 
 232      6F216DDA 
 232      8D532638 
 232      CC7D1DAF 
 233 0225 5333AAAA 		.ascii	"S3\252\252N\237\365.\326\275\271y\257>\347{\376\314"
 233      4E9FF52E 
 233      D6BDB979 
 233      AF3EE77B 
 233      FECC
 234 0237 6CBD56F1 		.ascii	"l\275V\361A\314_\372\001\002\275\373\205"
 234      41CC5FFA 
 234      0102BDFB 
 234      85
 235              		.text
 236              		.section	.gnu.lto_chMsgRelease.9c0660f8d10ef39e,"",%progbits
 237 0000 789C6362 		.ascii	"x\234cb`b@\007\322@,\301\310\300 \017\342\26000\002"
 237      60624007 
 237      D2402CC1 
 237      C8C0200F 
 237      E2B03030 
 238 0015 55303231 		.ascii	"U0212\003IfF\2400\003#C=\0233c}$\210\315\300\244\304"
 238      32034966 
 238      46A03003 
 238      23433D13 
 238      33637D24 
 239 002e B0B0A161 		.ascii	"\260\260\241a\322\203\243\253f\212w=h\230\320\360\357"
 239      D283A3AB 
 239      668A773D 
 239      6898D0F0 
 239      EF
 240 003f FF7FC64C 		.ascii	"\377\177\306L\220T2#C\004\220\305\310\001\246\230\030"
 240      90543223 
 240      430490C5 
 240      C801A698 
 240      18
 241 0050 512DC965 		.ascii	"Q-\311edX\317t\340\301\377\377\177.\177x\264\226Q\010"
 241      6458CF74 
 241      E0C1FFFF 
ARM GAS  /tmp/ccYQWmvd.s 			page 18


 241      7F2E7F78 
 241      B4965108 
 242 0064 68742E23 		.ascii	"ht.#PU.\310:\006V\206\226\206\206\011\012\271Ps\200"
 242      50552EC8 
 242      3A065686 
 242      96868609 
 242      0AB95073 
 243 0079 20044C86 		.ascii	" \004L\206\202d\231\31734?X\331\312\236\310\270\210"
 243      826499CF 
 243      33343F58 
 243      D9CA9EC8 
 243      B888
 244 008b 91152858 		.ascii	"\221\025(X\315\360\253\241\243A \223\2219\231\021bK"
 244      CDF0ABA1 
 244      A3412093 
 244      91399911 
 244      624B
 245 009d 26230BC4 		.ascii	"&#\013\304\226P\220\263\201\352[\037\254n\345\302P\317"
 245      965090B3 
 245      81EA5B1F 
 245      AC6EE5C2 
 245      50CF
 246 00af 9ACC08F1 		.ascii	"\232\314\010\361}:#c:#S&#\033\003\003\310\3545G\261"
 246      7D3A2363 
 246      3A235326 
 246      231B0303 
 246      C8EC3547 
 247 00c4 9ACD8C30 		.ascii	"\232\315\2140\373\"C\343\203\265\2520E\020\020\002\262"
 247      FB2243E3 
 247      83B5AA30 
 247      45101002 
 247      B2
 248 00d5 1C649EAC 		.ascii	"\034d\236\254\236\236\276sFfR\246\177\260~~\261~Q\211"
 248      9E9EBE73 
 248      466652A6 
 248      7FB07E7E 
 248      B17E5189 
 249 00e9 7E7151B2 		.ascii	"~qQ\262~rFnq\272^2\003\000\264\231F\360"
 249      7E72466E 
 249      71BA5E32 
 249      0300B499 
 249      46F0
 250              		.text
 251              		.section	.gnu.lto_.symbol_nodes.9c0660f8d10ef39e,"",%progbits
 252 0000 789C4DCE 		.ascii	"x\234M\316?n\3020\034\305\361\367\354\230\244\011\341"
 252      3F6EC230 
 252      1CC5F1F7 
 252      EC98A409 
 252      E1
 253 0011 0A5C8B95 		.ascii	"\012\\\213\225\223\274(H\210\221\205\015\026\030\340"
 253      93BC2848 
 253      8891850D 
 253      1618E0
 254 0020 1C1C8091 		.ascii	"\034\034\200\221\021\201\272vi\013\035:\360'vD\354\345"
 254      1181BA76 
 254      690B1D3A 
 254      F0277644 
ARM GAS  /tmp/ccYQWmvd.s 			page 19


 254      ECE5
 255 0032 AB8FFDB3 		.ascii	"\253\217\375\263e\003\203\021\021\226y@\300\374\000"
 255      65038311 
 255      11967940 
 255      C0FC00
 256 0041 488BD9D8 		.ascii	"H\213\331\330T\024#.)\023qE\331\210[*\211\270\243\\"
 256      5414232E 
 256      29137145 
 256      D9885B2A 
 256      89B8A35C 
 257 0055 C413D58B 		.ascii	"\304\023\325\213x\246\322\210\337T\326\3628\243\273"
 257      78A6D288 
 257      DF54D6F2 
 257      38A3BB
 258 0064 BE3E2498 		.ascii	"\276>$\230\037\352\243\3335\277T\336\221\377T\021XU"
 258      1FEAA3DB 
 258      35BF54DE 
 258      91FF5411 
 258      5855
 259 0076 E41FD5EF 		.ascii	"\344\037\325\357t\243\312\267l\002\324\347;\255ch\332"
 259      74A3CAB7 
 259      6C02D4E7 
 259      3BAD6368 
 259      DA
 260 0087 C7A46996 		.ascii	"\307\244i\226`\355kP_\232\016\360\351[b2\375\032\332"
 260      60ED6B50 
 260      5F9A0EF0 
 260      E95B6232 
 260      FD1ADA
 261 009a CC61DF34 		.ascii	"\314a\3374O\302\275\274\207\275o\211M3\227[\324\376"
 261      4FC2BDBC 
 261      87BD6F89 
 261      4D33975B 
 261      D4FE
 262 00ac BC9D2BDA 		.ascii	"\274\235+\332\271\"\015\357\026\316\317\343\0115Uo!"
 262      B9220DEF 
 262      16CECFE3 
 262      0935556F 
 262      21
 263              		.text
 264              		.section	.gnu.lto_.refs.9c0660f8d10ef39e,"",%progbits
 265 0000 789C6362 		.ascii	"x\234cb`b\340f\200\000F\016\006N&.\006N \004\000\002"
 265      6062E066 
 265      8000460E 
 265      064E262E 
 265      064E2004 
 266 0016 630040   		.ascii	"c\000@"
 267              		.text
 268              		.section	.gnu.lto_.decls.9c0660f8d10ef39e,"",%progbits
 269 0000 789CBD5B 		.ascii	"x\234\275[\015p\024U\236\357\3273\311dH\010\350\212"
 269      0D701455 
 269      9EEFD733 
 269      C9644808 
 269      E88A
 270 0012 C57ABA46 		.ascii	"\305z\272Fk\327u\265 \250(xU\267\262\313\336)U\347\035"
 270      6BD775B5 
 270      20A82878 
ARM GAS  /tmp/ccYQWmvd.s 			page 20


 270      55B7B2CB 
 270      DE2955E7 
 271 0027 65CADAAB 		.ascii	"e\312\332\253\272\273\232m&M2\307|\331\323!p\267Uv&"
 271      BABB9A6D 
 271      264D32C7 
 271      7CD9D321 
 271      70B75576 
 272 003c 103ED5F0 		.ascii	"\020>\325\360\021\010\012\022\344c\371F@p)\0262\242"
 272      11080A12 
 272      E463F946 
 272      40702916 
 272      32A2
 273 004e 84082CF2 		.ascii	"\204\010,\362\035\276\304\210\200\200\313\207@@\020"
 273      1DBEC488 
 273      8080CB87 
 273      404010
 274 005d C8FDDFEB 		.ascii	"\310\375\337\353\327=\335o\272g\272\203nW\372\365\233"
 274      D73DDD6F 
 274      BA67BA83 
 274      6E57FAF5 
 274      9B
 275 006e EEF7FFBD 		.ascii	"\356\367\377\275\377\367\373\350\016\317\361\334\343"
 275      FFF7FBE8 
 275      0ECFF1DC 
 275      E3
 276 007b 5E8EEB84 		.ascii	"^\216\353\204#\377\005\216\233\343\343\270\"\216\343"
 276      23FF058E 
 276      9BE3E3B8 
 276      228EE3
 277 008a 7ECDA58F 		.ascii	"~\315\245\217b8\347\301\271\010\316%pF\021\307\311p"
 277      6238E7C1 
 277      B908CE25 
 277      704611C7 
 277      C970
 278 009c 56C3F9BF 		.ascii	"V\303\371\277p\326\3029\031\316\351p6\3029\007\316\271"
 278      70D6C239 
 278      19CEE970 
 278      36C23907 
 278      CEB9
 279 00ae 70CE8713 		.ascii	"p\316\207\023\376\270?!\316t`\254<87Rl\334\237\217\347"
 279      FEB83F21 
 279      CE7460AC 
 279      3C383752 
 279      6CDC9F8F 
 280 00c3 383FAF3E 		.ascii	"8?\257>\347i\233B\236\3138\0269\240]dC\213y\317\207"
 280      E7699B42 
 280      9ECB3816 
 280      39A05D64 
 280      438B79CF 
 281 00d8 73B98176 		.ascii	"s\271\201v\005\234}\201\277\0128=P_\013\347\263P_\307"
 281      059C7D81 
 281      BF0A383D 
 281      505F0BE7 
 281      B3505FC7 
 282 00ec A9BC2FA1 		.ascii	"\251\274/\241\230!\3701\202\221\003\353\201\305\323"
 282      9821F831 
 282      829103EB 
ARM GAS  /tmp/ccYQWmvd.s 			page 21


 282      81C5D3
 283 00fb B0302EC6 		.ascii	"\2600.\306\353\217TL\015\017\323`<\011\256\3671<\312"
 283      EB8F544C 
 283      0D0FD360 
 283      3C09AEF7 
 283      313CCA
 284 010e F4592F28 		.ascii	"\364Y/(\336\343\322\362\340\373\3632\305!\372g\373\367"
 284      DEE3D2F2 
 284      E0FBF332 
 284      C521FA67 
 284      FBF7
 285 0120 59D0E376 		.ascii	"Y\320\343v\213h\377\3673}b\373a\232?\2424\006\306\303"
 285      8B68FFF7 
 285      337D62FB 
 285      619A3FA2 
 285      3406C6C3 
 286 0134 32F4A572 		.ascii	"2\364\245r`\222\377B\252,\210\322\340{5p}\220\301\253"
 286      6092FF42 
 286      AA2C88D2 
 286      E07B3570 
 286      7D90C1AB 
 287 0148 A5CF1E82 		.ascii	"\245\317\036\202b\014J\363PK\375\002\327\307\303u\002"
 287      620C4AF3 
 287      504BFD02 
 287      D7C7C375 
 287      02
 288 0159 A34BEC3F 		.ascii	"\243K\354?\275h\277\032\037\270\311\275H\345g\025\\"
 288      BD68BF1A 
 288      1FB8C9BD 
 288      48E56715 
 288      5C
 289 016a 17C3F933 		.ascii	"\027\303\3713>-_\017\224\266\337\303po)\324o\302Y\002"
 289      3E2D5F0F 
 289      94B6DFC3 
 289      706F29D4 
 289      6FC25902 
 290 017e F50570EF 		.ascii	"\365\005p\357\021\2706Q\371V\302\265\031c\303\371\030"
 290      11B83651 
 290      F956C2B5 
 290      1963C3F9 
 290      18
 291 018f 52E5B901 		.ascii	"R\345\271\001\367\357\241:\234L}\032\333{>\365_\254"
 291      F7EFA13A 
 291      9C4C7D1A 
 291      DB7B3EF5 
 291      5FAC
 292 01a1 37EC6B8F 		.ascii	"7\354k\217\002\316T\250OA\252/\377\222\221\031\373\375"
 292      02CE54A8 
 292      4F41AA2F 
 292      FF929119 
 292      FBFD
 293 01b3 7D8C1DFE 		.ascii	"}\214\035\376H\375@\343\325\310\377\343p\376\037\345"
 293      48FD40E3 
 293      D5C8FFE3 
 293      70FE1FE5 
 294 01c3 0FCBD864 		.ascii	"\017\313\330d\320\365\257\340^\014\251rx\015|k\374\346"
 294      D0F5AFE0 
ARM GAS  /tmp/ccYQWmvd.s 			page 22


 294      5E0CA972 
 294      780D7C6B 
 294      FCE6
 295 01d5 D3FE641A 		.ascii	"\323\376d\032{\230\317(\345\025\263\205\371{\202\341"
 295      7B98CF28 
 295      E515B385 
 295      F97B82E1 
 296 01e5 AF91EA00 		.ascii	"\257\221\352\000\031\370\323\3702\332\311K\333\3124"
 296      19F8D3F8 
 296      32DAC94B 
 296      DBCA34
 297 01f4 A6AB694C 		.ascii	"\246\253iL<\011m\336\206\372;\214\315\036\346\336UR"
 297      3C096DDE 
 297      86FA3B8C 
 297      CD1EE6DE 
 297      5552
 298 0206 BBDBC79E 		.ascii	"\273\333\307\236\376\212\237\245\244\306(\220B\024T"
 298      FE8A9FA5 
 298      A4C62890 
 298      421454
 299 0215 723FD7A0 		.ascii	"r?\327\240\300\321T\247(H\026\320\257{q\377\201\004"
 299      C0D154A7 
 299      284816D0 
 299      AF7B71FF 
 299      8104
 300 0227 54ECE74A 		.ascii	"T\354\347JH\245\310O\372\3418\001\275\207\356\247\265"
 300      48A5C84F 
 300      FAE13801 
 300      BD87EEA7 
 300      B5
 301 0238 573D9AA7 		.ascii	"W=\232\247\200\036\236\340\226\000}\275\242$\177\306"
 301      801E9EE0 
 301      96007DBD 
 301      A2247FC6 
 302 0248 591D8F71 		.ascii	"Y\035\217q\013q\007\312b\305C\3401\300<\364\260\261"
 302      0B7107CA 
 302      62C543E0 
 302      31C03CF4 
 302      B0B1
 303 025a 8980E623 		.ascii	"\211\200\346#\223\022TVS\365_\024\325\327\264wv\316"
 303      93125456 
 303      53F55F14 
 303      D5D7B477 
 303      76CE
 304 026c 6DEAA976 		.ascii	"m\352\251v\317s/ h\275\000=\221\025~\021\013\377'+\370"
 304      CF732F20 
 304      68BD003D 
 304      91157E11 
 304      0BFF272B 
 305 0281 F6F52DC7 		.ascii	"\366\365-\307\036\350\222&\226RMx\210\015\271Bn\"H\217"
 305      1EE89226 
 305      96524D78 
 305      880DB942 
 305      6E22488F 
 306 0295 095F6A2D 		.ascii	"\011_j-\276\227\233\202QJZ\301t\224\276\311\253\001"
 306      BE979B82 
 306      514A5AC1 
ARM GAS  /tmp/ccYQWmvd.s 			page 23


 306      7494BEC9 
 306      AB01
 307 02a7 FC0E5AFF 		.ascii	"\374\016Z\377\202[\000\352j\337\264\255\371\037\025"
 307      825B00EA 
 307      6ADFB4AD 
 307      F91F15
 308 02b6 A540402B 		.ascii	"\245@@+\320\275\000\323\200\314\202\345\204\341\271"
 308      D0BD00D3 
 308      80CC82E5 
 308      84E1B9
 309 02c5 7709C9FB 		.ascii	"w\011\311\373@\256\022\022`\245\375\303\272\255\265"
 309      40AE1212 
 309      60A5FDC3 
 309      BAADB5
 310 02d4 A8066450 		.ascii	"\250\006dP\237q\214\276\014\307#\\\023\360\235\232\371"
 310      9F718CBE 
 310      0CC7235C 
 310      13F09D9A 
 310      F9
 311 02e5 E69C9F2A 		.ascii	"\346\234\237*M[\240\375rT\010\270\213u\\+\371iU=h\003"
 311      4D5BA0FD 
 311      725408B8 
 311      8B755C2B 
 311      F969553D 
 312 02fb 33DEDBBB 		.ascii	"3\336\333\273\212\352\005\015l\225k\260\022\023\330"
 312      8AEA050D 
 312      6C956BB0 
 312      1213D8
 313 030a DC5DB309 		.ascii	"\334]\263\011s~n|Z\307\234%\030U\354\347\223>\331\203"
 313      737E6E7C 
 313      5AC79C25 
 313      1855ECE7 
 313      933ED983 
 314 031e 6A89FC7F 		.ascii	"j\211\374\177\0062\236;\317\250\3269\324\321\267\266"
 314      06329E3B 
 314      CFA8D639 
 314      D4D1B7B6 
 315 032e 7E849204 		.ascii	"~\204\222\004j#\201:\313w\025\352\300\314\277<O\314"
 315      6A23813A 
 315      CB7715EA 
 315      C0CCBF3C 
 315      4FCC
 316 0340 BD99005D 		.ascii	"\275\231\000]\367\230\201\004\344\323\325\250\377\326"
 316      F7988104 
 316      E4D3D5A8 
 316      FFD6
 317 034e 1A6034F2 		.ascii	"\032`4\362\230V\360\340\337\203\373\221\233\363\\\322"
 317      9856F0E0 
 317      DF83FB91 
 317      9BF35CD2 
 318 035e EBC07405 		.ascii	"\353\300t\005v~\240\264\257\257\333\351\301\341\345"
 318      767EA0B4 
 318      AFAFDBE9 
 318      C1E1E5
 319 036d A1BEDC94 		.ascii	"\241\276\334\224o\247#\236\233@\372\372\230\365\345"
 319      6FA7239E 
 319      9B40FAFA 
ARM GAS  /tmp/ccYQWmvd.s 			page 24


 319      98F5E5
 320 037c 7D275A7F 		.ascii	"}'Z\177\325\250(=\325G\271]y\335\366\231\304[rF$\257"
 320      D5A8283D 
 320      D547B95D 
 320      79DDF699 
 320      C45B7246 
 321 0392 75FF73D2 		.ascii	"u\377s\322\375\006\322}+\333\375\302\316\217\0201Z\253"
 321      FD06D27D 
 321      2BDBFDC2 
 321      CE8F1031 
 321      5AAB
 322 03a4 A3DEF7EC 		.ascii	"\243\336\367\354\235\236\331\273m\"\241\216\261\357"
 322      9D9ED9BB 
 322      6D22A18E 
 322      B1EF
 323 03b2 C49907E7 		.ascii	"\304\231\007\347\022\021w\222\200\331\352e=\343\205"
 323      12117792 
 323      80D9EA65 
 323      3DE385
 324 03c1 42B3EDE0 		.ascii	"B\263\355\340\267\241\001\317\355\322\231\357R\274\266"
 324      B7A101CF 
 324      EDD299EF 
 324      52BCB6
 325 03d0 2F5CBA9D 		.ascii	"/\\\272\235\014\010\036\215\205=\256\001KLz\330\277"
 325      0C081E8D 
 325      853DAE01 
 325      4B4C7AD8 
 325      BF
 326 03e1 97240015 		.ascii	"\227$\000\025l\277\0230[/J\246\016\032\301\332\\\203"
 326      6CBF1330 
 326      5B2F4AA6 
 326      0E1AC1DA 
 326      5C83
 327 03f3 99393B64 		.ascii	"\2319;d\004;\342\004\254\247=gG\214`\237\273\0063sv"
 327      043BE204 
 327      ACA73D67 
 327      478C609F 
 327      BB063373 
 328 0408 CC08D6EE 		.ascii	"\314\010\326\356\004\254\267=g\307\215`']\203\2319\273"
 328      04ACB73D 
 328      67C78D60 
 328      275D8399 
 328      39BB
 329 041a 64043BE3 		.ascii	"d\004;\343\004\254\304\2023\375\260\033S\267!\335\315"
 329      04ACC482 
 329      33FDB01B 
 329      53B721DD 
 329      CD
 330 042b 79EE1B3D 		.ascii	"y\356\033=\035\270ti.\215q\321u\3722\311\015\343\350"
 330      1DB87469 
 330      2E8D71D1 
 330      75FA32C9 
 330      0DE3E8
 331 043e 5FE7A369 		.ascii	"_\347\243i\265Jk?m,\353p\202\230\305a\326\033\007\306"
 331      B54A6B3F 
 331      6D2CEB70 
 331      8298C561 
ARM GAS  /tmp/ccYQWmvd.s 			page 25


 331      D61B07C6 
 332 0452 DBAEC1CC 		.ascii	"\333\256\301\314f\331\217\301L\231\206\016F\355\013"
 332      66D98FC1 
 332      4C99860E 
 332      46ED0B
 333 0461 53BD1BD3 		.ascii	"S\275\033\323\251\256@\303\302\263A5\257\301\\\215\327"
 333      A9AE40C3 
 333      C2B34135 
 333      AFC15C8D 
 333      D7
 334 0472 1B2BBD7B 		.ascii	"\033+\275{[\267\025\320Y\364\013(\317!\277\316\205Z"
 334      5BB715D0 
 334      59F40B28 
 334      CF21BFCE 
 334      855A
 335 0484 D76A9D64 		.ascii	"\327j\235d\022;6\217\231gjG.R;O\370\332\350\011\023"
 335      123B368F 
 335      99676A47 
 335      2E523B4F 
 335      F8DAE809 
 336 0499 F31CA829 		.ascii	"\363\034\250)K(\\\262SS\252N\031\217jV?\250\323\015"
 336      4B285CB2 
 336      5353AA4E 
 336      198F6A56 
 336      3FA8D30D 
 337 04ad 32FA443A 		.ascii	"2\372D:9?\264\224$\347\213d\330\236\222g9\376;\302:"
 337      393FB494 
 337      24E78B64 
 337      D89E9267 
 337      39FE3BC2 
 338 04c2 FAD667DA 		.ascii	"\372\326g\332d\3422\001\233\335u\260\246\003m\017*^"
 338      64E23201 
 338      9BDD75B0 
 338      A6036D0F 
 338      2A5E
 339 04d4 017510A0 		.ascii	"\001u\020\240\205y\354\220\341g&\023~\363p\357\367\247"
 339      8579EC90 
 339      E1672613 
 339      7EF370EF 
 339      F7A7
 340 04e6 2B9DDA61 		.ascii	"+\235\332a\266\342\217Jcg\371\013F\313\277\357\332\362"
 340      B6E28F4A 
 340      6367F90B 
 340      46CBBFEF 
 340      DAF2
 341 04f8 A60081D9 		.ascii	"\246\000\201\331\375q\317L%U\3431\270z\326\270\200\251"
 341      FD71CF4C 
 341      2555E331 
 341      B87AD6B8 
 341      80A9
 342 050a E38ECDFF 		.ascii	"\343\216\315\377D\306\373\233D\257\033\255\015\344\000"
 342      44C6FB9B 
 342      44AF1BAD 
 342      0DE400
 343 0519 E8E85B2B 		.ascii	"\350\350[+\236$@\267\011\320']\006:0\363\335\201\004"
 343      9E2440B7 
 343      09D0275D 
ARM GAS  /tmp/ccYQWmvd.s 			page 26


 343      063A30F3 
 343      DD8104
 344 052c 08472CCF 		.ascii	"\010G,\317\355\314\2604b,\215\314\026\320\203\216\306"
 344      EDCCB034 
 344      622C8DCC 
 344      16D0838E 
 344      C6
 345 053d DC8FD596 		.ascii	"\334\217\325\226\347\016\262\3462\211\223ed\320\322"
 345      E70EB2E6 
 345      32899365 
 345      64D0D2
 346 054c 6DCBC969 		.ascii	"m\313\311i\350JRi\354\347\302^\223\250\275\306\022\355"
 346      E84A5269 
 346      ECE7C25E 
 346      93A8BDC6 
 346      12ED
 347 055e 1CCFD0CE 		.ascii	"\034\317\320\316m\227\352\341\271\323\256\305(0\213"
 347      6D97EAE1 
 347      B9D3AEC5 
 347      28308B
 348 056d 51F77517 		.ascii	"Q\367u\027\304hV\305\230H\304\270\360\003\210q\315\265"
 348      C46856C5 
 348      9848C4B8 
 348      F0038871 
 348      CDB5
 349 057f 183D0D62 		.ascii	"\030=\015b\300\"\262\345\372tu\360\373\01175\373\344"
 349      C022B2E5 
 349      FA7475F0 
 349      FB093735 
 349      FBE4
 350 0591 1DF3F316 		.ascii	"\035\363\363\026\377\023\323\3149\325\361\031*Qo\347"
 350      FF13D3CC 
 350      39D5F119 
 350      2A516FE7 
 351 05a1 9A362BA9 		.ascii	"\2326+\251i{\015K<\305\321\022o\207\276\304\233JTv\333"
 351      697B0D4B 
 351      3CC5D112 
 351      6F87BEC4 
 351      9B4A5476 
 352 05b6 2AC09C40 		.ascii	"*\300\234@5\035\375\254\027N\244\015\004\2466\277\213"
 352      351DFDAC 
 352      174EA40D 
 352      04A636BF 
 352      8B
 353 05c7 30ED07DA 		.ascii	"0\355\007\332>T\343\264\221\000M\312gM\230\317X0\337"
 353      3E54E3B4 
 353      91004DCA 
 353      674D98CF 
 353      5830DF
 354 05da 6C41F889 		.ascii	"lA\370\211{\372\216$\310\327\351\035\374\303\307\375"
 354      7BFA8E24 
 354      C8D7E91D 
 354      FCC3C7FD 
 355 05ea DDE978AE 		.ascii	"\335\351x\256\201\260\217\255\347r\372\245yO\335\316"
 355      81B08FAD 
 355      E772FAA5 
 355      794FDDCE 
ARM GAS  /tmp/ccYQWmvd.s 			page 27


 356 05fa E9DAD449 		.ascii	"\351\332\324I5\320\354\273BL\246\232\247j{\024/\340"
 356      35D0ECBB 
 356      424CA69A 
 356      A76A7B14 
 356      2FE0
 357 060c C9D3C2BB 		.ascii	"\311\323\302\273\204#\263m\323\254\200Y\263\255\260"
 357      8423B36D 
 357      D3AC8059 
 357      B3ADB0
 358 061b 1976B4CD 		.ascii	"\031v\264\315\233q-\332X\376\036\217\031Z\236a\360\345"
 358      9B712DDA 
 358      58FE1E8F 
 358      195A9E61 
 358      F0E5
 359 062d 8859B6E1 		.ascii	"\210Y\266\341\033\206&v\2414\2177\214\201\315wk\210"
 359      1B862676 
 359      A1348F37 
 359      8C81CD77 
 359      6B88
 360 063f 96CF1943 		.ascii	"\226\317\031Cl\275K\315\315\2326\307\321\012\373\017"
 360      6CBD4BCD 
 360      CD9A36C7 
 360      D10AFB0F 
 361 064f 1A561111 		.ascii	"\032V\021\021\344\257\244\333\245<\263\300\356\270\326"
 361      E4AFA4DB 
 361      A53CB3C0 
 361      EEB8D6
 362 065e 5E47F588 		.ascii	"^G\365\210\237\345\316\025GO\371\225\251E\026\375Y\315"
 362      9FE5CE15 
 362      474FF995 
 362      A94516FD 
 362      59CD
 363 0670 B8368DDB 		.ascii	"\2706\215\333?\005\215!\350+y\274\311v\213\261\222\266"
 363      3F058D21 
 363      E82B79BC 
 363      C9768BB1 
 363      92B6
 364 0682 3131C80E 		.ascii	"11\310\016\210\347&\3730\311j\226q\310\217I\272\311"
 364      88E726FB 
 364      30C96A96 
 364      71C88F49 
 364      BAC9
 365 0694 B6DA01E3 		.ascii	"\266\332\001\343\311\324\267\223\214\233l\002\372\000"
 365      C9D4B793 
 365      8C9B6C02 
 365      FA00
 366 06a2 F114B76B 		.ascii	"\361\024\267kv\270\274C_K\010h\275k\260\022+V5OMK+\240"
 366      76B8BC43 
 366      5F4B0868 
 366      BD6BB012 
 366      2B56354F 
 367 06ba B53C5E03 		.ascii	"\265<^\003|\300?\002\345:(\365\203\347\346\3704\233"
 367      7CC03F02 
 367      E53A28F5 
 367      83E7E6F8 
 367      349B
 368 06cc 5AA92EB7 		.ascii	"Z\251.\267sv\\\373n\206\352\234n2\177\213\276\271G\374"
ARM GAS  /tmp/ccYQWmvd.s 			page 28


 368      73765CFB 
 368      6E86EA9C 
 368      6E327F8B 
 368      BEB947FC 
 369 06e0 79A18F0D 		.ascii	"y\241\217\015<\234\312M\342\270J}\313X\241r\256\032"
 369      3C9CCA4D 
 369      E2B84A7D 
 369      CB58A172 
 369      AE1A
 370 06f2 D9C32EB0 		.ascii	"\331\303.\260\227\030\003{\265\357\256\302\020\374\357"
 370      9718037B 
 370      B5EFAEC2 
 370      10FCEF
 371 0701 C2025577 		.ascii	"\302\002Uw\271\002QA\032\\O\322\363\237I\317\315\254"
 371      B9025141 
 371      1A5C4FD2 
 371      F39F49CF 
 371      CDAC
 372 0713 434FBBD3 		.ascii	"CO\273\323:\216:t\263\243H\354 \221\250E\326W:jW|!\231"
 372      3A8E3A74 
 372      B3A348EC 
 372      2091A845 
 372      D6573A6A 
 373 072b BA71F653 		.ascii	"\272q\366SD\340\324\305\3617,\234S+P\270[\242[\305\250"
 373      44E0D4C5 
 373      F1372C9C 
 373      532B50B8 
 373      5BA25BC5 
 374 0740 FE953A7C 		.ascii	"\376\225:|\012\317[Z\211LW2\\K\325\214\301\265\232\015"
 374      0ACF5B5A 
 374      894C5732 
 374      5C4BD58C 
 374      C1B59A0D 
 375 0754 91F21189 		.ascii	"\221\362\021\211\224-$R>!e\2131^\354\334b\233\321-\276"
 375      942D2452 
 375      3E21658B 
 375      315EECDC 
 375      629BD12D 
 376 0769 772D7789 		.ascii	"w-w\211C\357\333l\354&Ypw\336\267\276\345\232\227\354"
 376      43EFDB6C 
 376      EC265970 
 376      77DEB7BE 
 376      E59A97EC 
 377 077d 18BAD895 		.ascii	"\030\272\330\225\337\261U\013\334]$p'\024\260\332\335"
 377      DFB1550B 
 377      DC5D2470 
 377      2714B0DA 
 377      DD
 378 078e C8CE729D 		.ascii	"\310\316r\235lR7tU\024\375\200\311I\201\203\225f\211"
 378      6C523774 
 378      5514FD80 
 378      C9498183 
 378      956689
 379 07a1 85D6F5E9 		.ascii	"\205\326\365\351\316\035:\312\346\334\351\326_\376\354"
 379      CE1D3ACA 
 379      E6DCE9D6 
 379      5FFEEC
ARM GAS  /tmp/ccYQWmvd.s 			page 29


 380 07b0 ACA123D3 		.ascii	"\254\241#\323~\342kM\005\326#S\226-\363U\204\244-cd"
 380      7EE26B4D 
 380      05D62353 
 380      962DF355 
 380      84A42D63 
 381 07c5 AABBAA8D 		.ascii	"\252\273\252\215Lm\216F\246}\226"
 381      4C6D8E46 
 381      A67D96
 382 07d0 23539BFB 		.ascii	"#S\233\373\221\311\35202(\240\303$D\216\230\207\221"
 382      91C9EA30 
 382      3228A0C3 
 382      24448E98 
 382      8791
 383 07e2 6627DA7F 		.ascii	"f'\332\177\334\316\031\225T\303\301\331H\345_ME\237"
 383      DCCE1995 
 383      54C3C1D9 
 383      48E55F4D 
 383      459F
 384 07f4 B27856A9 		.ascii	"\262xV\251\310\204g\264f2\365\376A2\262\252^\272\337"
 384      C88467B4 
 384      6632F5FE 
 384      4132B2AA 
 384      5EBADF
 385 0807 0973FDEC 		.ascii	"\011s\375\354\301\232gh\312\335L\346\211_8\301\033h"
 385      C19A6768 
 385      CADD4CE6 
 385      895F38C1 
 385      1B68
 386 0819 276C32D5 		.ascii	"'l2\325vp6\305S\337m\235u\215g\346\257c\206i^}\325\011"
 386      767036C5 
 386      53DF6D9D 
 386      758D67E6 
 386      AF638669 
 387 0831 DC20C7B6 		.ascii	"\334 \307\266O\277\233\024\320\032\262\231\270\026\221"
 387      4FBF9B14 
 387      D01AB299 
 387      B81691
 388 0840 8904293F 		.ascii	"\211\004)?$\345\026R\236 \345IR\236&\345yR\336 \345"
 388      24E51652 
 388      9E20E549 
 388      529E26E5 
 388      7952DE20 
 389 0855 18924E27 		.ascii	"\030\222N'\220\362MR\356#\3451R\036'e;)O\220\362\244"
 389      90F24D52 
 389      EE23E531 
 389      521E2765 
 389      3B294F90 
 390 086b 93C4CBCC 		.ascii	"\223\304\313\314\307\255\336\345\252.e\007\3605_h\222"
 390      C7ADDEE5 
 390      AA2E6507 
 390      F0355F68 
 390      92
 391 087c 567B2B4E 		.ascii	"V{+N\274\372\026\023\320?\347\346+\312\324\324\225s"
 391      BCFA1613 
 391      D03FE7E6 
 391      2BCAD4D4 
 391      9573
ARM GAS  /tmp/ccYQWmvd.s 			page 30


 392 088e 87F22073 		.ascii	"\207\362 sz\265\201n\202\0377[\202\036\266\354\205\256"
 392      7AB5816E 
 392      821F375B 
 392      821EB6EC 
 392      85AE
 393 08a0 22545A65 		.ascii	"\"TZeJKQ=R\273\205yi\016B\312\034};~X\031\332[\177;"
 393      4A4B513D 
 393      52BB8579 
 393      690E42CA 
 393      1C7D3B7E 
 394 08ba BE847D3B 		.ascii	"\276\204};~\206\267z\371>\355\233V\217\375\333q\314"
 394      7E86B77A 
 394      F93EED9B 
 394      568FFDDB 
 394      71CC
 395 08cc 989D622E 		.ascii	"\230\235b.\362\246\327\343*3\214~\352\375V\372Qn\210"
 395      F2A6D7E3 
 395      2A338C7E 
 395      EAFD56FA 
 395      516E88
 396 08df 2F69CDFF 		.ascii	"/i\315\377\306\343<t\201w\"aR\271rr\350K\332\242\313"
 396      C6E33C74 
 396      81772261 
 396      52B97272 
 396      E84BDAA2 
 397 08f4 9E8A32F8 		.ascii	"\236\2122\370\255\225\300\355\015\313\366\374\347\362"
 397      AD95C0ED 
 397      0DCBF6FC 
 397      E7F2
 398 0902 358A3241 		.ascii	"5\2122A\271\323\371zM\022i\237\034|\302\260j\375\315"
 398      B9D3F97A 
 398      4D12699F 
 398      1C7CC2B0 
 398      6AFDCD
 399 0915 C1559ED1 		.ascii	"\301U\236\321j\207\245Vg\267e|\322\260\313\021\376u"
 399      6A87A556 
 399      67B7657C 
 399      D2B0CB11 
 399      FE75
 400 0927 16FF3B4B 		.ascii	"\026\377;K!\256\256\274\361S;\253\025p\343\310\216\324"
 400      21AEAEBC 
 400      F1533BAB 
 400      1570E3C8 
 400      8ED4
 401 0939 58A506BD 		.ascii	"X\245\006\275\226eG\212\274 \020\320-\276\000;\262\337"
 401      9665478A 
 401      BC2010D0 
 401      2DBE003B 
 401      B2DF
 402 094b 767B1F37 		.ascii	"v{\0377\300\007\246W\353Z-\313\036\357\367\254s\250"
 402      C007A657 
 402      EB5A2DCB 
 402      1EEFF7AC 
 402      73A8
 403 095d 7168728E 		.ascii	"qhr\216d7K\347\330$\276\2445?G\234\343\246\255s\320"
 403      64374BE7 
 403      D824BEA4 
ARM GAS  /tmp/ccYQWmvd.s 			page 31


 403      353F479C 
 403      E3A6AD73 
 404 0972 D537758E 		.ascii	"\3257u\216\303\307\260\373\253,\232\250L\262S\006\025"
 404      C3C7B0FB 
 404      AB2C9AA8 
 404      4CB25306 
 404      15
 405 0983 8F95DDF6 		.ascii	"\217\225\335\366n\323\355\346\374;\2211\036\013Y\365"
 405      6ED3EDE6 
 405      FC3B9131 
 405      1E0B59F5 
 406 0993 1F53D585 		.ascii	"\037S\325\205\012#\373Tk\3317\260\262\327zr\347\214"
 406      0A23FB54 
 406      6BD937B0 
 406      B2D77A72 
 406      E78C
 407 09a5 7AE5734C 		.ascii	"z\345sL\246\256\374\233\010\260=\031e\307*c`\"\223\345"
 407      A6AEFC9B 
 407      08B03D19 
 407      65C72A63 
 407      602293E5 
 408 09b9 C765EAA8 		.ascii	"\307e\352\250)\325>k\355\215\007f\3024H\271\004\223"
 408      29D53E6B 
 408      ED8D0766 
 408      C23448B9 
 408      0493
 409 09cb 33564D18 		.ascii	"3VM\030\336NOotAO[\254\365t\275\234\321\323dGzzG\323"
 409      DE4E4F6F 
 409      74414F5B 
 409      ACF574BD 
 409      9CD1D364 
 410 09e4 9380267A 		.ascii	"\223\200&z\262\223\231\365\264\252nlO\257v\323\236\214"
 410      B29399F5 
 410      B4AA6E6C 
 410      4FAF76D3 
 410      9E8C
 411 09f6 0A5A6FA5 		.ascii	"\012Zo\245\267\324\027\333\336\200A8\231\352\354l\036"
 411      B7D417DB 
 411      DE804138 
 411      99EAEC6C 
 411      1E
 412 0a07 C4B9C8B3 		.ascii	"\304\271\310\263\015\236\314\017\262vv\263L&Ie\315b"
 412      0D9ECC0F 
 412      B27676B3 
 412      4C264965 
 412      CD62
 413 0a19 C59F4E90 		.ascii	"\305\237N\220\323\263\3639\303\222\317\346\211;`\221"
 413      D3B3F339 
 413      C392CFE6 
 413      893B6091 
 414 0a29 A6DCEAEC 		.ascii	"\246\334\352\354\254\365R\357\346\271\203\326v\370\236"
 414      ACF552EF 
 414      E6B983D6 
 414      76F89E
 415 0a38 B543A323 		.ascii	"\265C\243#;\314e\355`Of\266\303\033\312\330\236Hw\330"
 415      3BCC65ED 
 415      604F66B6 
ARM GAS  /tmp/ccYQWmvd.s 			page 32


 415      C31BCAD8 
 415      9E4877D8 
 416 0a4c 46D66167 		.ascii	"F\326age\012\324^\017s\345c\275\033\327(cH\306G\232"
 416      650AD45E 
 416      0F73E563 
 416      BD1BD728 
 416      6348C647 
 417 0a61 445F65A8 		.ascii	"D_e\250P\305x\327\012#u\354D+\032O\224\342am\227%34"
 417      50C578D7 
 417      0A2375EC 
 417      442B1A4F 
 417      94E2616D 
 418 0a79 B11E7F93 		.ascii	"\261\036\177\223l\351\233<\374\222\015\037\357Y\362"
 418      6CE99B3C 
 418      FC920D1F 
 418      EF59F2
 419 0a88 71F4C419 		.ascii	"q\364\304\0314K\331\202\023\377\353n\234h\201U\3541"
 419      344BD982 
 419      13FFEB6E 
 419      9C688155 
 419      EC31
 420 0a9a 9CDCB1E1 		.ascii	"\234\334\261\341d\221\231\223G\271y\230\223\017O\264"
 420      64919993 
 420      47B97998 
 420      930F4FB4 
 421 0aaa F335CA96 		.ascii	"\3635\312\226F\230\233wv\242\207\265\245\367\370\257"
 421      46989B77 
 421      76A287B5 
 421      A5F7F8AF 
 422 0aba D2A382D2 		.ascii	"\322\243\202\322Kcc7F\320\367\353\256\316\243k\304\305"
 422      4B636337 
 422      46D0F7EB 
 422      AECEA36B 
 422      C4C5
 423 0acc 1E3C959F 		.ascii	"\036<\225\237Xh\375Q\\\026(\236\233A\210\226y2\326E"
 423      5868FD51 
 423      5C16289E 
 423      9B418896 
 423      7932D645 
 424 0ae0 2DDA0607 		.ascii	"-\332\006\007~\226{\203c\365qu]a\261u\320\256o\035<"
 424      7E967B83 
 424      63F57175 
 424      5D61B175 
 424      D0AE6F1D 
 425 0af5 68E07E5B 		.ascii	"h\340~[\333\227\224\373U\204\373&\033\356m\201xn\005"
 425      DB9794FB 
 425      5584FB26 
 425      1BEE6D81 
 425      786E05
 426 0b08 215993C9 		.ascii	"!Y\223\311\373\201:\312\373\032G\274\267\0351\257\211"
 426      FB813ACA 
 426      FB1A47BC 
 426      B71D31AF 
 426      89
 427 0b19 36EAB85D 		.ascii	"6\352\270]\333\2369t\204\254\211\3245\307\307,\230\253"
 427      DB9E3974 
 427      84AC89D4 
ARM GAS  /tmp/ccYQWmvd.s 			page 33


 427      35C7C72C 
 427      98AB
 428 0b2b CD192575 		.ascii	"\315\031%uL\005\373\230|\367\270\3355X\211\211\263+"
 428      4C05FB98 
 428      7CF7B8DD 
 428      35588989 
 428      B32B
 429 0b3d 6F9B3F5E 		.ascii	"o\233?^\334\355\004/\3137\032W\217\030\276\3218\344"
 429      DCED042F 
 429      CB371A57 
 429      8F18BED1 
 429      38E4
 430 0b4f 1ACCCCDC 		.ascii	"\032\314\314\334M#X\273\0230\253/\031\254\016\243\223"
 430      4D2358BB 
 430      1330AB2F 
 430      19AC0EA3 
 430      93
 431 0b60 C092DD83 		.ascii	"\300\222\335\203\327V\353<dUE\312\015\244\334H\312M"
 431      D756EB3C 
 431      645545CA 
 431      0DA4DC48 
 431      CA4D
 432 0b72 A46CF698 		.ascii	"\244l\366\230V\335\347\364(\261t\305\\.\241\2446\330"
 432      56DDE7F4 
 432      28B174C5 
 432      5C2EA1A4 
 432      36D8
 433 0b84 8787D5CE 		.ascii	"\207\207\325\316\032\004\367\3275h,\361\341\217Ix\\"
 433      1A04F7D7 
 433      35682CF1 
 433      E18F4978 
 433      5C
 434 0b95 CA1D1EEC 		.ascii	"\312\035\036\354\336e]\021&i\311\010\217\226;cix\264"
 434      DE655D11 
 434      2669C908 
 434      8F963B63 
 434      6978B4
 435 0ba8 38088F64 		.ascii	"8\010\217d\352\366Lg/1\232\364\376\3573\010\262\355"
 435      EAF64C67 
 435      2F319AF4 
 435      FEEF3308 
 435      B2ED
 436 0bba A4F65661 		.ascii	"\244\366Va\007\021dNQ\356OwM@\020\347\204dW\246 \027"
 436      0711644E 
 436      51EE4F77 
 436      4D4010E7 
 436      846457A6 
 437 0bd0 34417639 		.ascii	"4Av9\022d\323L\315\373\267{\260\217m\326q]\356\335P"
 437      1264D34C 
 437      CDFBB77B 
 437      B08F6DD6 
 437      715DEEDD 
 438 0be5 BCCD6DC4 		.ascii	"\274\315m\304aU\260\026\327`f\357\337\323\346\366\323"
 438      6155B016 
 438      D76066EF 
 438      DFD3E6F6 
 438      D3
ARM GAS  /tmp/ccYQWmvd.s 			page 34


 439 0bf6 DD4DDBD6 		.ascii	"\335M\333\326=A\336\242\036\364\340D\263\213Ql\027\267"
 439      3D41DEA2 
 439      1EF4E044 
 439      B38B516C 
 439      17B7
 440 0c08 080F3991 		.ascii	"\010\0179\221\303~3\031\254r\265\301b\257\335\371`\177"
 440      C37E3319 
 440      AC72B5C1 
 440      62AFDDF9 
 440      607F
 441 0c1a 8C1D625F 		.ascii	"\214\035b_`F\330l*\031w\274\206\276!;J\254\362%\243"
 441      6046D86C 
 441      2A1977BC 
 441      86BE213B 
 441      4AACF225 
 442 0c2f 1466C302 		.ascii	"\024f\303\002\367e\307G\273\247\320\306\2432\236A\202"
 442      F765C747 
 442      BBA7D0C6 
 442      A3329E41 
 442      82
 443 0c40 70AD3593 		.ascii	"p\2555\223\365Ak\035\013\265W\217do\351\262\023@\253"
 443      F5416B1D 
 443      0BB5578F 
 443      646FE9B2 
 443      1340AB
 444 0c53 CC6C7518 		.ascii	"\314lu\030\203G@\273I\376\333C\362\334>R\036 \345\021"
 444      834740BB 
 444      49FEDB43 
 444      F2DC3E52 
 444      1E20E511 
 445 0c67 529E3066 		.ascii	"R\2360f>;\335`\227\327\261\367\222\251gK\227\303\250"
 445      3E3BDD60 
 445      97D7B1F7 
 445      92A9674B 
 445      97C3A8
 446 0c7a FE881E46 		.ascii	"\376\210\036F\002\332\357\032\314\244\310T\303\021m"
 446      02DAEF1A 
 446      CCA4C854 
 446      C3116D
 447 0c89 CB0F4785 		.ascii	"\313\017G\205\200\016;\301\313\362n\344\003\22595\304"
 447      800E3BC1 
 447      CBF26EE4 
 447      03953935 
 447      C4
 448 0c9a 6EE819D5 		.ascii	"n\350\031\325\245\225\255\215\322b0J+1\312\247\304\004"
 448      A595AD8D 
 448      D262304A 
 448      2B31CAA7 
 448      C404
 449 0cac 2749798A 		.ascii	"'Iy\212\224\247\315\003\321\330\356\314@dN\372V\343"
 449      94A7CD03 
 449      D1D8EECC 
 449      40644EFA 
 449      56E3
 450 0cbe A2513FB0 		.ascii	"\242Q?\2606?\016\3628\337x?\257m\274\237#\311{rw\327"
 450      363F0EF2 
 450      38DF783F 
ARM GAS  /tmp/ccYQWmvd.s 			page 35


 450      AF6DBC9F 
 450      23C97B72 
 451 0cd4 1BEFEF10 		.ascii	"\033\357\357\020\222\363\231\223\264\323\332$\355|\356"
 451      92F39993 
 451      B4D3DA24 
 451      ED7CEE
 452 0ce3 E43DA636 		.ascii	"\344=\2466\265\341\235E\351Q\250V\217\3403\310~\241"
 452      B5E19D45 
 452      E951A856 
 452      8FE033C8 
 452      7EA1
 453 0cf5 6CFA3472 		.ascii	"l\3724r\231\316\207K/\265\266\335y\203\355.\022\333"
 453      99CE874B 
 453      2FB5B6DD 
 453      7983ED2E 
 453      12DB
 454 0d07 5D325B6A 		.ascii	"]2[j\035k\251\234\033\365fC\035>\256MJ\325\177y\331"
 454      1D6BA99C 
 454      1BF56643 
 454      1D3EAE4D 
 454      4AD57F79 
 455 0d1c C0E23599 		.ascii	"\300\3425\231\376\301\205VM\233\353\234\011\360\262"
 455      FEC18556 
 455      4D9BEB9C 
 455      09F0B2
 456 0d2b 1BCBCFBA 		.ascii	"\033\313\317\272pv\000\031[\256\023\273\237rkw\262H"
 456      70760019 
 456      5BAE13BB 
 456      9F726B77 
 456      B248
 457 0d3d 636C9EFA 		.ascii	"cl\236\372V,Q\357\346\036\252o\234\"o8\335\2741\373"
 457      562C51EF 
 457      E61EAA6F 
 457      9C226F38 
 457      DDBC31FB 
 458 0d51 8BFA55D8 		.ascii	"\213\372U\330m\022\251\327\272\377 \203\341\035\002"
 458      6D12A9D7 
 458      BAFF2083 
 458      E11D02
 459 0d60 73F38772 		.ascii	"s\363\207r\232\233\006\247\371\2368\315-&\274\213\035"
 459      9A9B06A7 
 459      F99E38CD 
 459      2D26BC8B 
 459      1D
 460 0d71 384DDCD6 		.ascii	"8M\334\326i`\0309=\240FI5\366\273\207\253\327\326~\352"
 460      69601839 
 460      3DA04649 
 460      35F6BB87 
 460      ABD7D67E 
 461 0d86 D7B8B479 		.ascii	"\327\270\264y\252\273\206r\010Q\246j\275\367\220\232"
 461      AABB8672 
 461      0851A66A 
 461      BDF7909A 
 462 0d96 E9B302D2 		.ascii	"\351\263\002\322\304\316\260c\274\351\017\225\213\374"
 462      C4CEB063 
 462      BCE90F95 
 462      8BFC
ARM GAS  /tmp/ccYQWmvd.s 			page 36


 463 0da4 E9CA03BA 		.ascii	"\351\312\003\272\034\343Y9\230~i}\224c\315-3hn\005\321"
 463      1CE35939 
 463      987E697D 
 463      9463CD2D 
 463      33686E05 
 464 0db9 DC4A921E 		.ascii	"\334J\222\036\267\220\362,)\257\222\362\032)\223^\223"
 464      B790F22C 
 464      29AF92F2 
 464      1A29935E 
 464      93
 465 0dca 5E67166B 		.ascii	"^g\026k\356\240\245M\363:\030wQ\347\325\227\347T{M\203"
 465      EEA0A54D 
 465      F33A1877 
 465      51E7D597 
 465      E7547B4D 
 466 0ddf 1A8BD50F 		.ascii	"\032\213\325\017\260)UO\215H\243\031\347Zw\343mt\207"
 466      B029554F 
 466      8D48A319 
 466      E75A77E3 
 466      6D7487
 467 0df2 CC5D9730 		.ascii	"\314]\2270=\017\324\332\371(\316\004\327=O\264\3519"
 467      3D0FD4DA 
 467      F928CE04 
 467      D73D4FB4 
 467      E939
 468 0e04 9FF64CB7 		.ascii	"\237\366L\267\304;.\357\231\214\246\254\252S\360\006"
 468      C43B2EEF 
 468      998CA6AC 
 468      AA53F006 
 469 0e14 EEEB7353 		.ascii	"\356\353sS\365^\347S\267\311^f\352\2661s\237\346\323"
 469      F55EE753 
 469      B7C95E66 
 469      EAB63173 
 469      9FE6D3
 470 0e27 62636492 		.ascii	"bcd\222\226<\327VL\345\247\373a{\324\2277\352\277\221"
 470      963CD756 
 470      4CE5A7FB 
 470      617BD497 
 470      37EABF91 
 471 0e3b 9D221493 		.ascii	"\235\"\024\223\274v[[4\262\351\326\326\225\032\303V"
 471      BC765B5B 
 471      34B2E9D6 
 471      D6951AC3 
 471      56
 472 0e4c 2C2632F9 		.ascii	",&2\371\321\233^\323\036L\0117W\035\214\376\366@M\012"
 472      D19B5ED3 
 472      1E4C0937 
 472      571D8CFE 
 472      F6404D0A 
 473 0e60 8F4594EE 		.ascii	"\217E\224\356\202\361\365\0013g\304\257!\354\024\320"
 473      82F1F501 
 473      3367C4AF 
 473      21EC14D0 
 474 0e70 E0D5471C 		.ascii	"\340\325G\034\274\275\263\033\277&\271\361\337\323\224"
 474      BCBDB31B 
 474      BF26B9F1 
 474      DFD394
ARM GAS  /tmp/ccYQWmvd.s 			page 37


 475 0e7f 64A33286 		.ascii	"d\2432\206l\357\030\315k\030\272\376\240\001\025es\002"
 475      6CEF18CD 
 475      6B18BAFE 
 475      A0011565 
 475      7302
 476 0e91 A695801A 		.ascii	"\246\225\200\032];\301,\033'0\277\233\323Z\341oK\210"
 476      5D3BC12C 
 476      1B2730BF 
 476      9BD35AE1 
 476      6F4B88
 477 0ea4 F2AFA75F 		.ascii	"\362\257\247_\0020L\360\334\325b-\223tC\272F;V~i\326"
 477      02304CF0 
 477      DCD5622D 
 477      937443BA 
 477      463B567E 
 478 0eba E8CD2C1A 		.ascii	"\350\315,\032\035\223e\026>'\255Q\206j\261M\226$\233"
 478      1D936516 
 478      3E27AD51 
 478      866AB14D 
 478      96249B
 479 0ecd 8FB6544B 		.ascii	"\217\266TK\263Xo\256-\325\202,\0346\331R5e\241\232\227"
 479      B3586FAE 
 479      2DD5822C 
 479      1C36D952 
 479      3565A19A 
 480 0ee2 E129B3D6 		.ascii	"\341)\263\326\356\371\207\334\2362T\003\352\226\315"
 480      EEF987DC 
 480      9E325403 
 480      EA96CD
 481 0ef1 53985620 		.ascii	"S\230V \200kOYh\343)\306D\235n\005\325\267\275\314\233"
 481      806B4F59 
 481      68E329C6 
 481      449D6E05 
 481      D5B7BDCC 
 482 0f06 0086099E 		.ascii	"\000\206\011\236K\366\310\364\224\324\334mJI\211\356"
 482      4BF6C8F4 
 482      94D4DC6D 
 482      4A4989EE 
 483 0f16 26933DF6 		.ascii	"&\223=\366n\202\337\205\331q\273\330\326\010\027\263"
 483      6E82DF85 
 483      D971BBD8 
 483      D60817B3 
 484 0f26 502D4953 		.ascii	"P-ISQnfLTx^\347f\272\221\033\325L\251\003\333'(H\251"
 484      516E664C 
 484      54785EE7 
 484      66BA911B 
 484      D54CA903 
 485 0f3f 536AF06B 		.ascii	"Sj\360k\033\033#Uj\035u\317f$\246\025\014l\256\215\264"
 485      1B1B2355 
 485      6A1D75CF 
 485      6624A615 
 485      0C6CAE8D 
 486 0f54 D2C64845 		.ascii	"\322\306HE&#\255d\215dxM\3000\301s\365&#qO\366\355["
 486      2623AD64 
 486      8D64784D 
 486      C030C173 
 486      F5262371 
ARM GAS  /tmp/ccYQWmvd.s 			page 38


 487 0f6c 3AB83234 		.ascii	":\27024,\364\357e\245\261D\251$\227\306c\222\234(\375"
 487      2CF4EF65 
 487      A5B144A9 
 487      2497C663 
 487      929C28FD 
 488 0f80 CD2B2F0F 		.ascii	"\315+/\017~yTi\2602\030\223\304\300\310\001\221\276"
 488      7E795469 
 488      B0321893 
 488      C4C0C801 
 488      91BE
 489 0f92 959C1F3F 		.ascii	"\225\234\037?\012\204c\301\021\371/\376\333\253"
 489      0A8463C1 
 489      11F92FFE 
 489      DBAB
 490 0fa0 2583B942 		.ascii	"%\203\271Br\243*\212o=\232\001\024\212\006\303U\345"
 490      72A32A8A 
 490      6F3D9A01 
 490      148A06C3 
 490      55E5
 491 0fb2 22602482 		.ascii	"\"`$\202\225\345@\377X\266&\243\023\362\350\270\230"
 491      95E540FF 
 491      58B626A3 
 491      13F2E8B8 
 491      98
 492 0fc3 80660572 		.ascii	"\200f\005r\245$\012\345\001\331\037\254\014\250\365"
 492      A5240AE5 
 492      01D91FAC 
 492      0CA8F5
 493 0fd2 FC78202A 		.ascii	"\374x *\216\222\341\022\227\304\221\317\345\3409\026"
 493      8E92E112 
 493      97C491CF 
 493      E5E03916 
 494 0fe2 8987C2A2 		.ascii	"\211\207\302\242\224(}q\360`\200\326p}r\\\012\305\002"
 494      94287D71 
 494      F06080D6 
 494      707D725C 
 494      0AC502
 495 0ff5 D0303A9C 		.ascii	"\3200:\234\234\317\226V\306\"b"
 495      9CCF9656 
 495      C62262
 496 1000 A9242644 		.ascii	"\251$&DA\012V\226V\012Ry\265 \211\245\202\024y\272\264"
 496      410A5696 
 496      560A5279 
 496      B52089A5 
 496      821479BA 
 497 1015 2218EC03 		.ascii	"\"\030\354\003\225>bd\230X^.\226\3537\242\261\250\330"
 497      953E6264 
 497      98585E2E 
 497      96EB37A2 
 497      B1A8D8
 498 1028 47148685 		.ascii	"G\024\206\205\372\364\017\014\354\363t\277\247\372\277"
 498      FAF40F0C 
 498      ECF374BF 
 498      A7FABF
 499 1037 F674A9E9 		.ascii	"\366t\251\351\201.WB.\017Ee,S\025\\\237y: \327\242\277"
 499      812E5742 
 499      2E0F4565 
ARM GAS  /tmp/ccYQWmvd.s 			page 39


 499      2C53155C 
 499      9F793A20 
 500 104e 5FEF1121 		.ascii	"_\357\021!X\031\212\212\245\201rq\270P\025\226\003\232"
 500      58198A8A 
 500      A5817271 
 500      B8501596 
 500      039A
 501 1060 26BA0502 		.ascii	"&\272\005\002\032?D\245\241\230/\030\213\312\240\341"
 501      1A3F44A5 
 501      A1982F18 
 501      8BCAA0E1 
 502 1070 5F3A7107 		.ascii	"_:q\007@P-\017\030AyT\201$V\000\003\001\231\227\372"
 502      40502D0F 
 502      18417954 
 502      81245600 
 502      03019997 
 503 1085 F3D2B3BC 		.ascii	"\363\322\263\274\364\034/\015\340\245\201\274\364\274"
 503      F41C2F0D 
 503      E0A581BC 
 503      F4BC
 504 1093 477AAA1F 		.ascii	"Gz\252\037\234O\361a\011.\317\344\305\003\320\336\207"
 504      9C4FF161 
 504      092ECFE4 
 504      C503D0DE 
 504      87
 505 10a4 8D592D4A 		.ascii	"\215Y-Jp\215\205\313E\311\033\004\321\261\205\205\210"
 505      708D85CB 
 505      45C91B04 
 505      D1B18585 
 505      88
 506 10b5 D82D218F 		.ascii	"\330-!\217\020\302\241\212h@&*{\256\177@\246\334\222"
 506      10C2A18A 
 506      6840262A 
 506      7BAE7F40 
 506      A6DC92
 507 10c8 6A3C000D 		.ascii	"j<\000\015\302\241HH.\220\023\262 \213\001\331\207\037"
 507      C2A14848 
 507      2E9013B2 
 507      208B01D9 
 507      871F
 508 10da 0E046F51 		.ascii	"\016\004oQ\233A\315\207[\3013\237\034\211\225\213\344"
 508      9B41CD87 
 508      5BC1339F 
 508      1C89958B 
 508      E4
 509 10eb F7F0B050 		.ascii	"\367\360\260P\221\360\311\2228<Ad\306\225\274H\242\002"
 509      91F0C992 
 509      383C4164 
 509      C695BC48 
 509      A202
 510 10fd 1E524500 		.ascii	"\036RE\000\271\246\022\251|4<*\020G\205\344 \000\344"
 510      B9A612A9 
 510      7C343C2A 
 510      104785E4 
 510      2000E4
 511 1110 57CBB161 		.ascii	"W\313\261a\377\023\277\227\272%\220\212\222\030\015"
 511      FF13BF97 
ARM GAS  /tmp/ccYQWmvd.s 			page 40


 511      BA25908A 
 511      92180D
 512 111f 02705EB5 		.ascii	"\002p^\265,Kq_B\214\312@P\004\356\232\020#B\274\022"
 512      2C4B715F 
 512      428CCA40 
 512      5004EE9A 
 512      102342BC 
 513 1134 74F44836 		.ascii	"t\364H6_\027q4\365P\361\022\201\327\252\304*\000\353"
 513      5F177134 
 513      F550F112 
 513      81D7AAC4 
 513      2A00EB
 514 1147 A97B3BBD 		.ascii	"\251{;\275\345\243\327\274`\024L\227\227\010\300\025"
 514      E5A3D7BC 
 514      60144C97 
 514      9708C015 
 515 1157 7801EA78 		.ascii	"x\001\352x\001\264\215T\201\301\262u\023\221Ga\257\217"
 515      01B48D54 
 515      81C1B275 
 515      13914761 
 515      AF8F
 516 1169 50B44820 		.ascii	"P\264H V\035\005\255\023:\2202\242\206T\265\014\355"
 516      561D05AD 
 516      133A9032 
 516      A28654B5 
 516      0CED
 517 117b E285E248 		.ascii	"\342\205\342H,\204\220\030\001O\304j\\\361\304\003U"
 517      2C849018 
 517      014FC46A 
 517      5CF1C403 
 517      55
 518 118c C51A43E1 		.ascii	"\305\032C\341P\002x\350a`\021\337\361\307\003\325BH"
 518      500278E8 
 518      616011DF 
 518      F1C703D5 
 518      4248
 519 119e 0E452BC0 		.ascii	"\016E+\3000\240\001\322\021T\305\270\030\005\307\257"
 519      30A001D2 
 519      1154C5B8 
 519      1805C7AF 
 520 11ae 80E7008E 		.ascii	"\200\347\000\216[v\303*\027\302\304\325\340f<\026\013"
 520      5B76C32A 
 520      17C2C4D5 
 520      E0663C16 
 520      0B
 521 11bf 17A97287 		.ascii	"\027\251r\207\242\011Q\222y9\356\221_\213\337\243\336"
 521      A2095192 
 521      7939EE91 
 521      5F8BDFA3 
 521      DE
 522 11d0 1B1E1A1E 		.ascii	"\033\036\032\036\203\366\221\330\310\354z\034\215\235"
 522      83F691D8 
 522      C8EC7A1C 
 522      8D9D
 523 11de 19B244D9 		.ascii	"\031\262D\331\350\304\277B\012*$\265WI:\312\252\230"
 523      E8C4BF42 
 523      0A2A24B5 
ARM GAS  /tmp/ccYQWmvd.s 			page 41


 523      57493ACA 
 523      AA98
 524 11f0 4405D0E5 		.ascii	"D\005\320\345\005~\013\\\200H/'*\206$\206\252\034\017"
 524      057E0B5C 
 524      80482F27 
 524      2A862486 
 524      AA1C0F
 525 1203 E94E7EBF 		.ascii	"\351N~\277\"\206E!!\226y\240\351C\031H\011)HQ\202\270"
 525      22864521 
 525      219679A0 
 525      E9431948 
 525      09294851 
 526 1219 77685F06 		.ascii	"wh_\006\324j\355\367\240\217\"#\006\374(\013V\376^\030"
 526      D46AEDF7 
 526      A08F2223 
 526      06FC280B 
 526      56FE5E18 
 527 122d 2156C5CB 		.ascii	"!V\305\313\272\223\037/\306\312\302\242\030/+$\277^"
 527      BA931F2F 
 527      C6CAC2A2 
 527      182F2B24 
 527      BF5E
 528 123f 01758E1E 		.ascii	"\001u\216\036R\210\235\007r\240\030Q\363\236Z/\302\272"
 528      52889D07 
 528      72A01851 
 528      F39E5A2F 
 528      C2BA
 529 1251 1E4DB50F 		.ascii	"\036M\265\017\304\201\364o\237\244\3325_\"\001\234'"
 529      C481F46F 
 529      9FA4DA35 
 529      5F22019C 
 529      27
 530 1262 91D09268 		.ascii	"\221\320\222hhIjh\371\341n\225\004\336*\347I\230\250"
 530      68496A68 
 530      F9E16E95 
 530      04DE2AE7 
 530      4998A8
 531 1275 D7C89024 		.ascii	"\327\310\220$W\011\341\200\034\212@\202\244\300\367"
 531      5709E180 
 531      1C8A4082 
 531      A4C0F7
 532 1284 03B0C583 		.ascii	"\003\260\305\203\036\246{\252\203\232n\371F\312\304"
 532      1EA67BAA 
 532      839A6EF9 
 532      46CAC4
 533 1293 87F015E7 		.ascii	"\207\360\025\347e?f\032\036@\354\302\235r1,\013P\031"
 533      653F661A 
 533      1E40ECC2 
 533      9D72312C 
 533      0B5019
 534 12a6 5E150D06 		.ascii	"^\025\015\006H\033\\\313\307m\005\251\020.a!!\343\346"
 534      481B5CCB 
 534      C76D05A9 
 534      102E6121 
 534      21E3E6
 535 12b9 700B7757 		.ascii	"p\013wWL\305/\027\207UU\250\276f\274\343\217\013\321"
 535      4CC52F17 
ARM GAS  /tmp/ccYQWmvd.s 			page 42


 535      875555A8 
 535      BE66BCE3 
 535      8F0BD1
 536 12cc 50107B99 		.ascii	"P\020{\231\247|XE\267\210\000\321J\\\261$\213\245e\034"
 536      A77C5845 
 536      B78800D1 
 536      4A5CB124 
 536      8BA5651C 
 537 12e0 683DE548 		.ascii	"h=\345H \010Ie\230$\310\241\030d\026\237$\223\220\312"
 537      20084965 
 537      9824C8A1 
 537      1864169F 
 537      249390CA 
 538 12f4 8F0D1F9E 		.ascii	"\217\015\037\236\020\301\367\"\305\241\362\260H]\033"
 538      10C1F722 
 538      C5A1F2B0 
 538      485D1B
 539 1303 5C9A0F56 		.ascii	"\\\232\017V\3665\243\202\224\245\203_.\033R\226\006"
 539      F635A382 
 539      94A5835F 
 539      2E1B5296 
 539      06
 540 1314 C7E36230 		.ascii	"\307\343b0\362/ \023\364\321=\000\241/\007~\373\233"
 540      F22F2013 
 540      F4D13D00 
 540      A12F077E 
 540      FB9B
 541 1326 B27F1EFA 		.ascii	"\262\177\036\372\312\220\356B\270Z\030\235\000\337\016"
 541      CA90EE42 
 541      B85A189D 
 541      00DF0E
 542 1335 43FECD1B 		.ascii	"C\376\315\033)\204\253\304\202\000\221?\020\350\256"
 542      2984ABC4 
 542      8200913F 
 542      10E8AE
 543 1344 55FA3E3B 		.ascii	"U\372>;\240\337S\351_\317=\363\374@\303\257\376\375"
 543      A0DF53E9 
 543      5FCF3DF3 
 543      FC40C3AF 
 543      FEFD
 544 1356 06FC3F7A 		.ascii	"\006\374?z\"\240\300"
 544      22A0C0
 545              		.text
 546              		.section	.gnu.lto_.symtab.9c0660f8d10ef39e,"",%progbits
 547 0000 63684D73 		.ascii	"chMsgSend\000\000\000\000\000\000\000\000\000\000\000"
 547      6753656E 
 547      64000000 
 547      00000000 
 547      00000000 
 548 0014 008C0100 		.ascii	"\000\214\001\000\000chMsgWait\000\000\000\000\000\000"
 548      0063684D 
 548      73675761 
 548      69740000 
 548      00000000 
 549 0028 00000000 		.ascii	"\000\000\000\000\000\000\224\001\000\000chMsgReleas"
 549      00009401 
 549      00006368 
ARM GAS  /tmp/ccYQWmvd.s 			page 43


 549      4D736752 
 549      656C6561 
 550 003d 65000000 		.ascii	"e\000\000\000\000\000\000\000\000\000\000\000\000\230"
 550      00000000 
 550      00000000 
 550      0098
 551 004b 01000063 		.ascii	"\001\000\000ch\000\000\002\000\000\000\000\000\000\000"
 551      68000002 
 551      00000000 
 551      000000
 552 005a 0000A701 		.ascii	"\000\000\247\001\000\000chSchWakeupS\000\000\002\000"
 552      00006368 
 552      53636857 
 552      616B6575 
 552      70530000 
 553 0070 00000000 		.ascii	"\000\000\000\000\000\000\000\000\235\001\000\000chS"
 553      00000000 
 553      9D010000 
 553      636853
 554 007f 6368476F 		.ascii	"chGoSleepS\000\000\002\000\000\000\000\000\000\000\000"
 554      536C6565 
 554      70530000 
 554      02000000 
 554      00000000 
 555 0094 009F0100 		.ascii	"\000\237\001\000\000chSchReadyI\000\000\002\000\000"
 555      00636853 
 555      63685265 
 555      61647949 
 555      00000200 
 556 00a9 00000000 		.ascii	"\000\000\000\000\000\000\000\243\001\000\000"
 556      000000A3 
 556      010000
 557              		.text
 558              		.section	.gnu.lto_.opts,"",%progbits
 559 0000 272D6D63 		.ascii	"'-mcpu=cortex-m4' '-mno-thumb-interwork' '-mthumb' "
 559      70753D63 
 559      6F727465 
 559      782D6D34 
 559      2720272D 
 560 0033 272D6767 		.ascii	"'-ggdb' '-O0' '-fomit-frame-pointer' '-falign-funct"
 560      64622720 
 560      272D4F30 
 560      2720272D 
 560      666F6D69 
 561 0066 696F6E73 		.ascii	"ions=16' '-ffunction-sections' '-fdata-sections' '-"
 561      3D313627 
 561      20272D66 
 561      66756E63 
 561      74696F6E 
 562 0099 666E6F2D 		.ascii	"fno-common' '-flto'\000"
 562      636F6D6D 
 562      6F6E2720 
 562      272D666C 
 562      746F2700 
 563              		.text
 564              		.cfi_sections	.debug_frame
 565              		.section	.text.port_lock,"ax",%progbits
ARM GAS  /tmp/ccYQWmvd.s 			page 44


 566              		.align	2
 567              		.p2align 4,,15
 568              		.thumb
 569              		.thumb_func
 570              		.type	port_lock, %function
 571              	port_lock:
 572              	.LFB127:
 573              		.file 1 "../ChibiOS/os/rt/ports/ARMCMx/chcore_v7m.h"
 574              		.loc 1 456 0
 575              		.cfi_startproc
 576              		@ args = 0, pretend = 0, frame = 8
 577              		@ frame_needed = 0, uses_anonymous_args = 0
 578              		@ link register save eliminated.
 579 0000 82B0     		sub	sp, sp, #8
 580              		.cfi_def_cfa_offset 8
 581 0002 2023     		movs	r3, #32
 582 0004 0193     		str	r3, [sp, #4]
 583              	.LBB6:
 584              	.LBB7:
 585              		.file 2 "../ChibiOS/os/ext/CMSIS/include/core_cmFunc.h"
 586              		.loc 2 548 0
 587 0006 019B     		ldr	r3, [sp, #4]
 588              	@ 548 "../ChibiOS/os/ext/CMSIS/include/core_cmFunc.h" 1
 589 0008 83F31188 		MSR basepri, r3
 590              	@ 0 "" 2
 591              		.thumb
 592              	.LBE7:
 593              	.LBE6:
 594              		.loc 1 473 0
 595 000c 02B0     		add	sp, sp, #8
 596              		@ sp needed
 597 000e 7047     		bx	lr
 598              		.cfi_endproc
 599              	.LFE127:
 600              		.size	port_lock, .-port_lock
 601              		.section	.text.port_unlock,"ax",%progbits
 602              		.align	2
 603              		.p2align 4,,15
 604              		.thumb
 605              		.thumb_func
 606              		.type	port_unlock, %function
 607              	port_unlock:
 608              	.LFB128:
 609              		.loc 1 480 0
 610              		.cfi_startproc
 611              		@ args = 0, pretend = 0, frame = 8
 612              		@ frame_needed = 0, uses_anonymous_args = 0
 613              		@ link register save eliminated.
 614 0000 82B0     		sub	sp, sp, #8
 615              		.cfi_def_cfa_offset 8
 616 0002 0023     		movs	r3, #0
 617 0004 0193     		str	r3, [sp, #4]
 618              	.LBB8:
 619              	.LBB9:
 620              		.loc 2 548 0
 621 0006 019B     		ldr	r3, [sp, #4]
 622              	@ 548 "../ChibiOS/os/ext/CMSIS/include/core_cmFunc.h" 1
ARM GAS  /tmp/ccYQWmvd.s 			page 45


 623 0008 83F31188 		MSR basepri, r3
 624              	@ 0 "" 2
 625              		.thumb
 626              	.LBE9:
 627              	.LBE8:
 628              		.loc 1 487 0
 629 000c 02B0     		add	sp, sp, #8
 630              		@ sp needed
 631 000e 7047     		bx	lr
 632              		.cfi_endproc
 633              	.LFE128:
 634              		.size	port_unlock, .-port_unlock
 635              		.section	.text.queue_insert,"ax",%progbits
 636              		.align	2
 637              		.p2align 4,,15
 638              		.thumb
 639              		.thumb_func
 640              		.type	queue_insert, %function
 641              	queue_insert:
 642              	.LFB156:
 643              		.file 3 "../ChibiOS/os/rt/include/chschd.h"
 644              		.loc 3 665 0
 645              		.cfi_startproc
 646              		@ args = 0, pretend = 0, frame = 8
 647              		@ frame_needed = 0, uses_anonymous_args = 0
 648              		@ link register save eliminated.
 649 0000 82B0     		sub	sp, sp, #8
 650              		.cfi_def_cfa_offset 8
 651 0002 0190     		str	r0, [sp, #4]
 652 0004 0091     		str	r1, [sp]
 653              		.loc 3 667 0
 654 0006 019B     		ldr	r3, [sp, #4]
 655 0008 009A     		ldr	r2, [sp]
 656 000a 1A60     		str	r2, [r3]
 657              		.loc 3 668 0
 658 000c 009B     		ldr	r3, [sp]
 659 000e 5A68     		ldr	r2, [r3, #4]
 660 0010 019B     		ldr	r3, [sp, #4]
 661 0012 5A60     		str	r2, [r3, #4]
 662              		.loc 3 669 0
 663 0014 019B     		ldr	r3, [sp, #4]
 664 0016 5B68     		ldr	r3, [r3, #4]
 665 0018 019A     		ldr	r2, [sp, #4]
 666 001a 1A60     		str	r2, [r3]
 667              		.loc 3 670 0
 668 001c 009B     		ldr	r3, [sp]
 669 001e 019A     		ldr	r2, [sp, #4]
 670 0020 5A60     		str	r2, [r3, #4]
 671              		.loc 3 671 0
 672 0022 02B0     		add	sp, sp, #8
 673              		@ sp needed
 674 0024 7047     		bx	lr
 675              		.cfi_endproc
 676              	.LFE156:
 677              		.size	queue_insert, .-queue_insert
 678 0026 00BFAFF3 		.section	.text.queue_fifo_remove,"ax",%progbits
 678      0080AFF3 
ARM GAS  /tmp/ccYQWmvd.s 			page 46


 678      0080
 679              		.align	2
 680              		.p2align 4,,15
 681              		.thumb
 682              		.thumb_func
 683              		.type	queue_fifo_remove, %function
 684              	queue_fifo_remove:
 685              	.LFB157:
 686              		.loc 3 673 0
 687              		.cfi_startproc
 688              		@ args = 0, pretend = 0, frame = 16
 689              		@ frame_needed = 0, uses_anonymous_args = 0
 690              		@ link register save eliminated.
 691 0000 84B0     		sub	sp, sp, #16
 692              		.cfi_def_cfa_offset 16
 693 0002 0190     		str	r0, [sp, #4]
 694              		.loc 3 674 0
 695 0004 019B     		ldr	r3, [sp, #4]
 696 0006 1B68     		ldr	r3, [r3]
 697 0008 0393     		str	r3, [sp, #12]
 698              		.loc 3 676 0
 699 000a 039B     		ldr	r3, [sp, #12]
 700 000c 1A68     		ldr	r2, [r3]
 701 000e 019B     		ldr	r3, [sp, #4]
 702 0010 1A60     		str	r2, [r3]
 703              		.loc 3 677 0
 704 0012 019B     		ldr	r3, [sp, #4]
 705 0014 1B68     		ldr	r3, [r3]
 706 0016 019A     		ldr	r2, [sp, #4]
 707 0018 5A60     		str	r2, [r3, #4]
 708              		.loc 3 679 0
 709 001a 039B     		ldr	r3, [sp, #12]
 710              		.loc 3 680 0
 711 001c 1846     		mov	r0, r3
 712 001e 04B0     		add	sp, sp, #16
 713              		@ sp needed
 714 0020 7047     		bx	lr
 715              		.cfi_endproc
 716              	.LFE157:
 717              		.size	queue_fifo_remove, .-queue_fifo_remove
 718 0022 00BFAFF3 		.section	.text.chSysLock,"ax",%progbits
 718      0080AFF3 
 718      0080AFF3 
 718      0080
 719              		.align	2
 720              		.p2align 4,,15
 721              		.thumb
 722              		.thumb_func
 723              		.type	chSysLock, %function
 724              	chSysLock:
 725              	.LFB167:
 726              		.file 4 "../ChibiOS/os/rt/include/chsys.h"
 727              		.loc 4 346 0
 728              		.cfi_startproc
 729              		@ args = 0, pretend = 0, frame = 0
 730              		@ frame_needed = 0, uses_anonymous_args = 0
 731 0000 08B5     		push	{r3, lr}
ARM GAS  /tmp/ccYQWmvd.s 			page 47


 732              		.cfi_def_cfa_offset 8
 733              		.cfi_offset 3, -8
 734              		.cfi_offset 14, -4
 735              		.loc 4 348 0
 736 0002 FFF7FEFF 		bl	port_lock
 737              		.loc 4 351 0
 738 0006 08BD     		pop	{r3, pc}
 739              		.cfi_endproc
 740              	.LFE167:
 741              		.size	chSysLock, .-chSysLock
 742              		.section	.text.chSysUnlock,"ax",%progbits
 743              		.align	2
 744              		.p2align 4,,15
 745              		.thumb
 746              		.thumb_func
 747              		.type	chSysUnlock, %function
 748              	chSysUnlock:
 749              	.LFB168:
 750              		.loc 4 358 0
 751              		.cfi_startproc
 752              		@ args = 0, pretend = 0, frame = 0
 753              		@ frame_needed = 0, uses_anonymous_args = 0
 754 0000 08B5     		push	{r3, lr}
 755              		.cfi_def_cfa_offset 8
 756              		.cfi_offset 3, -8
 757              		.cfi_offset 14, -4
 758              		.loc 4 371 0
 759 0002 FFF7FEFF 		bl	port_unlock
 760              		.loc 4 372 0
 761 0006 08BD     		pop	{r3, pc}
 762              		.cfi_endproc
 763              	.LFE168:
 764              		.size	chSysUnlock, .-chSysUnlock
 765 0008 AFF30080 		.section	.text.chMsgIsPendingI,"ax",%progbits
 765      AFF30080 
 766              		.align	2
 767              		.p2align 4,,15
 768              		.thumb
 769              		.thumb_func
 770              		.type	chMsgIsPendingI, %function
 771              	chMsgIsPendingI:
 772              	.LFB222:
 773              		.file 5 "../ChibiOS/os/rt/include/chmsg.h"
 774              		.loc 5 79 0
 775              		.cfi_startproc
 776              		@ args = 0, pretend = 0, frame = 8
 777              		@ frame_needed = 0, uses_anonymous_args = 0
 778              		@ link register save eliminated.
 779 0000 82B0     		sub	sp, sp, #8
 780              		.cfi_def_cfa_offset 8
 781 0002 0190     		str	r0, [sp, #4]
 782              		.loc 5 83 0
 783 0004 019B     		ldr	r3, [sp, #4]
 784 0006 DA6A     		ldr	r2, [r3, #44]
 785 0008 019B     		ldr	r3, [sp, #4]
 786 000a 2C33     		adds	r3, r3, #44
 787 000c 9A42     		cmp	r2, r3
ARM GAS  /tmp/ccYQWmvd.s 			page 48


 788 000e 0CBF     		ite	eq
 789 0010 0023     		moveq	r3, #0
 790 0012 0123     		movne	r3, #1
 791 0014 DBB2     		uxtb	r3, r3
 792              		.loc 5 84 0
 793 0016 1846     		mov	r0, r3
 794 0018 02B0     		add	sp, sp, #8
 795              		@ sp needed
 796 001a 7047     		bx	lr
 797              		.cfi_endproc
 798              	.LFE222:
 799              		.size	chMsgIsPendingI, .-chMsgIsPendingI
 800 001c AFF30080 		.section	.text.chMsgReleaseS,"ax",%progbits
 801              		.align	2
 802              		.p2align 4,,15
 803              		.thumb
 804              		.thumb_func
 805              		.type	chMsgReleaseS, %function
 806              	chMsgReleaseS:
 807              	.LFB224:
 808              		.loc 5 113 0
 809              		.cfi_startproc
 810              		@ args = 0, pretend = 0, frame = 8
 811              		@ frame_needed = 0, uses_anonymous_args = 0
 812 0000 00B5     		push	{lr}
 813              		.cfi_def_cfa_offset 4
 814              		.cfi_offset 14, -4
 815 0002 83B0     		sub	sp, sp, #12
 816              		.cfi_def_cfa_offset 16
 817 0004 0190     		str	r0, [sp, #4]
 818 0006 0091     		str	r1, [sp]
 819              		.loc 5 117 0
 820 0008 0198     		ldr	r0, [sp, #4]
 821 000a 0099     		ldr	r1, [sp]
 822 000c FFF7FEFF 		bl	chSchWakeupS
 823              		.loc 5 118 0
 824 0010 03B0     		add	sp, sp, #12
 825              		@ sp needed
 826 0012 5DF804FB 		ldr	pc, [sp], #4
 827              		.cfi_endproc
 828              	.LFE224:
 829              		.size	chMsgReleaseS, .-chMsgReleaseS
 830 0016 00BFAFF3 		.section	.text.chMsgSend,"ax",%progbits
 830      0080AFF3 
 830      0080
 831              		.align	2
 832              		.p2align 4,,15
 833              		.global	chMsgSend
 834              		.thumb
 835              		.thumb_func
 836              		.type	chMsgSend, %function
 837              	chMsgSend:
 838              	.LFB241:
 839              		.file 6 "../ChibiOS/os/rt/src/chmsg.c"
 840              		.loc 6 87 0
 841              		.cfi_startproc
 842              		@ args = 0, pretend = 0, frame = 16
ARM GAS  /tmp/ccYQWmvd.s 			page 49


 843              		@ frame_needed = 0, uses_anonymous_args = 0
 844 0000 00B5     		push	{lr}
 845              		.cfi_def_cfa_offset 4
 846              		.cfi_offset 14, -4
 847 0002 85B0     		sub	sp, sp, #20
 848              		.cfi_def_cfa_offset 24
 849 0004 0190     		str	r0, [sp, #4]
 850 0006 0091     		str	r1, [sp]
 851              		.loc 6 88 0
 852 0008 114B     		ldr	r3, .L14
 853 000a 9B69     		ldr	r3, [r3, #24]
 854 000c 0393     		str	r3, [sp, #12]
 855              		.loc 6 92 0
 856 000e FFF7FEFF 		bl	chSysLock
 857              		.loc 6 93 0
 858 0012 039B     		ldr	r3, [sp, #12]
 859 0014 009A     		ldr	r2, [sp]
 860 0016 5A62     		str	r2, [r3, #36]
 861              		.loc 6 94 0
 862 0018 019B     		ldr	r3, [sp, #4]
 863 001a 2C33     		adds	r3, r3, #44
 864 001c 0398     		ldr	r0, [sp, #12]
 865 001e 1946     		mov	r1, r3
 866 0020 FFF7FEFF 		bl	queue_insert
 867              		.loc 6 95 0
 868 0024 019B     		ldr	r3, [sp, #4]
 869 0026 93F82030 		ldrb	r3, [r3, #32]	@ zero_extendqisi2
 870 002a 0E2B     		cmp	r3, #14
 871 002c 02D1     		bne	.L12
 872              		.loc 6 96 0
 873 002e 0198     		ldr	r0, [sp, #4]
 874 0030 FFF7FEFF 		bl	chSchReadyI
 875              	.L12:
 876              		.loc 6 98 0
 877 0034 0C20     		movs	r0, #12
 878 0036 FFF7FEFF 		bl	chSchGoSleepS
 879              		.loc 6 99 0
 880 003a 039B     		ldr	r3, [sp, #12]
 881 003c 5B6A     		ldr	r3, [r3, #36]
 882 003e 0093     		str	r3, [sp]
 883              		.loc 6 100 0
 884 0040 FFF7FEFF 		bl	chSysUnlock
 885              		.loc 6 102 0
 886 0044 009B     		ldr	r3, [sp]
 887              		.loc 6 103 0
 888 0046 1846     		mov	r0, r3
 889 0048 05B0     		add	sp, sp, #20
 890              		@ sp needed
 891 004a 5DF804FB 		ldr	pc, [sp], #4
 892              	.L15:
 893 004e 00BF     		.align	2
 894              	.L14:
 895 0050 00000000 		.word	ch
 896              		.cfi_endproc
 897              	.LFE241:
 898              		.size	chMsgSend, .-chMsgSend
 899 0054 AFF30080 		.section	.text.chMsgWait,"ax",%progbits
ARM GAS  /tmp/ccYQWmvd.s 			page 50


 899      AFF30080 
 899      AFF30080 
 900              		.align	2
 901              		.p2align 4,,15
 902              		.global	chMsgWait
 903              		.thumb
 904              		.thumb_func
 905              		.type	chMsgWait, %function
 906              	chMsgWait:
 907              	.LFB242:
 908              		.loc 6 119 0
 909              		.cfi_startproc
 910              		@ args = 0, pretend = 0, frame = 8
 911              		@ frame_needed = 0, uses_anonymous_args = 0
 912 0000 00B5     		push	{lr}
 913              		.cfi_def_cfa_offset 4
 914              		.cfi_offset 14, -4
 915 0002 83B0     		sub	sp, sp, #12
 916              		.cfi_def_cfa_offset 16
 917              		.loc 6 122 0
 918 0004 FFF7FEFF 		bl	chSysLock
 919              		.loc 6 123 0
 920 0008 0F4B     		ldr	r3, .L19
 921 000a 9B69     		ldr	r3, [r3, #24]
 922 000c 1846     		mov	r0, r3
 923 000e FFF7FEFF 		bl	chMsgIsPendingI
 924 0012 0346     		mov	r3, r0
 925 0014 83F00103 		eor	r3, r3, #1
 926 0018 DBB2     		uxtb	r3, r3
 927 001a 002B     		cmp	r3, #0
 928 001c 02D0     		beq	.L17
 929              		.loc 6 124 0
 930 001e 0E20     		movs	r0, #14
 931 0020 FFF7FEFF 		bl	chSchGoSleepS
 932              	.L17:
 933              		.loc 6 126 0
 934 0024 084B     		ldr	r3, .L19
 935 0026 9B69     		ldr	r3, [r3, #24]
 936 0028 2C33     		adds	r3, r3, #44
 937 002a 1846     		mov	r0, r3
 938 002c FFF7FEFF 		bl	queue_fifo_remove
 939 0030 0190     		str	r0, [sp, #4]
 940              		.loc 6 127 0
 941 0032 019B     		ldr	r3, [sp, #4]
 942 0034 0D22     		movs	r2, #13
 943 0036 83F82020 		strb	r2, [r3, #32]
 944              		.loc 6 128 0
 945 003a FFF7FEFF 		bl	chSysUnlock
 946              		.loc 6 130 0
 947 003e 019B     		ldr	r3, [sp, #4]
 948              		.loc 6 131 0
 949 0040 1846     		mov	r0, r3
 950 0042 03B0     		add	sp, sp, #12
 951              		@ sp needed
 952 0044 5DF804FB 		ldr	pc, [sp], #4
 953              	.L20:
 954              		.align	2
ARM GAS  /tmp/ccYQWmvd.s 			page 51


 955              	.L19:
 956 0048 00000000 		.word	ch
 957              		.cfi_endproc
 958              	.LFE242:
 959              		.size	chMsgWait, .-chMsgWait
 960 004c AFF30080 		.section	.text.chMsgRelease,"ax",%progbits
 961              		.align	2
 962              		.p2align 4,,15
 963              		.global	chMsgRelease
 964              		.thumb
 965              		.thumb_func
 966              		.type	chMsgRelease, %function
 967              	chMsgRelease:
 968              	.LFB243:
 969              		.loc 6 143 0
 970              		.cfi_startproc
 971              		@ args = 0, pretend = 0, frame = 8
 972              		@ frame_needed = 0, uses_anonymous_args = 0
 973 0000 00B5     		push	{lr}
 974              		.cfi_def_cfa_offset 4
 975              		.cfi_offset 14, -4
 976 0002 83B0     		sub	sp, sp, #12
 977              		.cfi_def_cfa_offset 16
 978 0004 0190     		str	r0, [sp, #4]
 979 0006 0091     		str	r1, [sp]
 980              		.loc 6 145 0
 981 0008 FFF7FEFF 		bl	chSysLock
 982              		.loc 6 147 0
 983 000c 0198     		ldr	r0, [sp, #4]
 984 000e 0099     		ldr	r1, [sp]
 985 0010 FFF7FEFF 		bl	chMsgReleaseS
 986              		.loc 6 148 0
 987 0014 FFF7FEFF 		bl	chSysUnlock
 988              		.loc 6 149 0
 989 0018 03B0     		add	sp, sp, #12
 990              		@ sp needed
 991 001a 5DF804FB 		ldr	pc, [sp], #4
 992              		.cfi_endproc
 993              	.LFE243:
 994              		.size	chMsgRelease, .-chMsgRelease
 995 001e 00BF     		.text
 996              	.Letext0:
 997              		.file 7 "/nfs/nfs5/home/research/hardware/arm2/gcc-arm-embedded/gcc-arm-none-eabi-4_8-2014q2/arm-n
 998              		.file 8 "/nfs/nfs5/home/research/hardware/arm2/gcc-arm-embedded/gcc-arm-none-eabi-4_8-2014q2/arm-n
 999              		.file 9 "../ChibiOS/os/rt/ports/ARMCMx/compilers/GCC/chtypes.h"
 1000              		.file 10 "../ChibiOS/os/rt/include/chsystypes.h"
 1001              		.file 11 "../ChibiOS/os/rt/ports/ARMCMx/chcore.h"
 1002              		.file 12 "../ChibiOS/os/rt/include/chtm.h"
 1003              		.file 13 "../ChibiOS/os/rt/include/chsem.h"
 1004              		.file 14 "../ChibiOS/os/rt/include/chmtx.h"
 1005              		.file 15 "../ChibiOS/os/ext/CMSIS/include/core_cm4.h"