ARM GAS  /tmp/ccxhJYru.s 			page 1


   1              		.syntax unified
   2              		.cpu cortex-m4
   3              		.fpu softvfp
   4              		.eabi_attribute 20, 1
   5              		.eabi_attribute 21, 1
   6              		.eabi_attribute 23, 3
   7              		.eabi_attribute 24, 1
   8              		.eabi_attribute 25, 1
   9              		.eabi_attribute 26, 1
  10              		.eabi_attribute 30, 6
  11              		.eabi_attribute 34, 1
  12              		.eabi_attribute 18, 4
  13              		.thumb
  14              		.file	"chprintf.c"
  15              		.text
  16              	.Ltext0:
  17              		.section	.gnu.lto_.inline.4dbd8987f03ee6e1,"",%progbits
  18 0000 789C6362 		.ascii	"x\234cb`b\300\006\326BiV\006\006)\023\006\006&\203\003"
  18      6062C006 
  18      D6426956 
  18      06062913 
  18      06062683 
  19 0015 6BD81858 		.ascii	"k\330\030X \212\031\0318\005\201BL\013\344a\"l\374@"
  19      208A1919 
  19      38058142 
  19      4C0BE461 
  19      226CFC40 
  20 0029 8289E13A 		.ascii	"\202\211\341:\343\004 \227\351\011\323\206-\3020)V>"
  20      E3042097 
  20      E909D386 
  20      2DC23029 
  20      563E
  21 003b 38218883 		.ascii	"8!\210\203`f\340\226A5\217\001\256\223\231\007H\260"
  21      6066E096 
  21      41358F01 
  21      AE939907 
  21      48B0
  22 004d 30481A03 		.ascii	"0H\032\003\025\210|X\315\210C\005\230\305\000\000\342"
  22      15887C58 
  22      CD884305 
  22      98C50000 
  22      E2
  23 005e D50B5F   		.ascii	"\325\013_"
  24              		.text
  25              		.section	.gnu.lto_long_to_string_with_divisor.4dbd8987f03ee6e1,"",%progbits
  26 0000 789CB556 		.ascii	"x\234\265V]h\034U\024\276w~wf7?M\2334I\223t\263I\223"
  26      5D681C55 
  26      14BE777E 
  26      7766373F 
  26      4D9B3449 
  27 0019 1465376A 		.ascii	"\024e7j\005\213\210\210\210\024)\026lA\037\267\251N"
  27      058B8888 
  27      88142916 
  27      6C411FB7 
  27      A94E
  28 002b 1636DA26 		.ascii	"\0266\332&}\360-\263\335\264D\023q)\205\326Z\244\001"
  28      7DF02DB3 
ARM GAS  /tmp/ccxhJYru.s 			page 2


  28      DDB44413 
  28      712985D6 
  28      5AA401
  29 003e C5809625 		.ascii	"\305\200\226%\226\222\326\032\330\242\226\204TT|\220"
  29      9692D61A 
  29      D8A29684 
  29      54547C90 
  30 004e C5166AD1 		.ascii	"\305\026j\321\026i\265\212\210JS\307\357\336\271w2\015"
  30      1669B58A 
  30      884A53C7 
  30      EFDEB977 
  30      320D
  31 0060 0507A103 		.ascii	"\005\007\241\003{\017\367;\347;\347\334\357\236\031"
  31      7B0FF73B 
  31      E73BE7DC 
  31      EF9E19
  32 006f 56210A59 		.ascii	"V!\012Y\371\014\343\367\256E\310V\266\251!\024\021T"
  32      F90CE3F7 
  32      AE45C856 
  32      B6A92114 
  32      1154
  33 0081 5154425C 		.ascii	"QTB\\E\303\242\251T\007\242\361U\247\006VC1\2317\306"
  33      45C3A2A9 
  33      5407A2F1 
  33      55A70656 
  33      43319937 
  34 0096 BC2685A1 		.ascii	"\274&\205\2411\305`\210\305\020\213\332@l\305fH\234"
  34      31C56088 
  34      C5108BDA 
  34      406CC566 
  34      489C
  35 00a8 21719A00 		.ascii	"!q\232\000\222\240\024\005(\031UTM7\314\230e\307\023"
  35      92A01405 
  35      28195554 
  35      4D37CC98 
  35      65C713
  36 00bb 74F40506 		.ascii	"t\364\005\006\222\206\024\231r\335\203\227?\377\356"
  36      92861499 
  36      72DD8397 
  36      3FFFEE
  37 00ca 50CBEBC7 		.ascii	"P\313\353\307\367\225\334\177<\217\346(\272\275\237"
  37      F795DC7F 
  37      3C8FE628 
  37      BABD9F
  38 00d9 92014A9E 		.ascii	"\222\001J\236\307\206&\271aM\205\037\237\351~4\355Z"
  38      C78626B9 
  38      614D851F 
  38      9FE97E34 
  38      ED5A
  39 00eb C7DD25CF 		.ascii	"\307\335%\317Ss,c\024N\345\217\237NOQ\367\200[\370\325"
  39      53732C63 
  39      144EE58F 
  39      9F4E4F51 
  39      F7805BF8 
  40 0100 F3EA7254 		.ascii	"\363\352rT]\246\305|\032\275+\355\317K\223v\2510\356"
  40      5DA6C57C 
  40      1ABD2BED 
ARM GAS  /tmp/ccxhJYru.s 			page 3


  40      CF4B9376 
  40      A930EE
  41 0113 7ADE286F 		.ascii	"z\336(o\261\377\036\266\370\367\324\002Z<([D\265M\367"
  41      B1FF1EB6 
  41      F8F7D402 
  41      5A3C285B 
  41      44B54DF7 
  42 0127 B0DAEDDB 		.ascii	"\260\332\355\333\363\341jZ$Z\311-\037\330_?&k\351\021"
  42      F3E16A5A 
  42      245AC92D 
  42      1FD85F3F 
  42      266BE911 
  43 013b 49E1FE74 		.ascii	"I\341\376t\205l\216v\254J\351|H|M!\217E\224c\356\207"
  43      856C8E76 
  43      AC4AE97C 
  43      487C4D21 
  43      8F459463 
  44 0151 6DF3EE58 		.ascii	"m\363\356X\305\363\036\347\264'\"\322\316\\\334vD\322"
  44      C5F31EE7 
  44      B42722D2 
  44      CE5CDC76 
  44      44D2
  45 0163 A2CDC7D1 		.ascii	"\242\315\307\321\312\341\363\013\377C\305\312\311K\211"
  45      CAE1F30B 
  45      FF43C5CA 
  45      C94B89
  46 0172 E06010E4 		.ascii	"\340`\020\344\251\210\202\234\372q>\\L!OG\"\226*\263"
  46      A988829C 
  46      FA713E5C 
  46      4C214F47 
  46      22962AB3 
  47 0186 DF878986 		.ascii	"\337\207\211\206B\266D#\272\263\273\002%\301z\346\277"
  47      42B64423 
  47      BAB3BB02 
  47      25C17AE6 
  47      BF
  48 0197 5865A572 		.ascii	"Xe\245r\331\363&'\336\271\332L7R2\304\2068KO\321\024"
  48      D9F32627 
  48      DEB9DA4C 
  48      375232C4 
  48      86384B4F 
  49 01ad 5185D560 		.ascii	"Q\205\325`gaua\015\3303\260&\354Y\330\230\260\026\035"
  49      67617561 
  49      0DD833B0 
  49      26EC59D8 
  49      98B0161D 
  50 01c1 A2F8B8F8 		.ascii	"\242\370\270\370\31686JBxj\204\255\005H\352D\232z\330"
  50      CE38364A 
  50      42786A84 
  50      AD0548EA 
  50      449A7AD8 
  51 01d5 29D85500 		.ascii	")\330U\000\325\006\202\327`\265(\270F\330Fa\233\004"
  51      D50682D7 
  51      60B528B8 
  51      46D84661 
  51      9B04
  52 01e7 632D82D4 		.ascii	"c-\202\324fl\336\303\246\2051ZE\265u\260\323\260m\014"
ARM GAS  /tmp/ccxhJYru.s 			page 4


  52      666CDEC3 
  52      A685315A 
  52      45B575B0 
  52      D3B06D0C 
  53 01fb 6C17D53A 		.ascii	"l\027\325:\260\321\326c\321\223@N\000\351\024\011S\260"
  53      B0D1D663 
  53      D193404E 
  53      00E91409 
  53      53B0
  54 020d 65D82E76 		.ascii	"e\330.v\334nlf\260\331 \252\364\260*\275\"\262\217\360"
  54      DC6E6C66 
  54      B0D920AA 
  54      F4B02ABD 
  54      22B28FF0 
  55 0221 09C1D9C7 		.ascii	"\011\301\331\307\240m\322\007\3758\277\262_\212\317"
  55      A06DD207 
  55      FD38BFB2 
  55      5F8ACF
  56 0230 109EED7C 		.ascii	"\020\236\355|\335\301>\322\352\027d\337\342\351o\225"
  56      DDC13ED2 
  56      EA1764DF 
  56      E2E96F95 
  57 0240 2C9DC34B 		.ascii	",\235\303K\347P\333\241\370\376\316\223\317\256\235"
  57      E750DBA1 
  57      F8FECE93 
  57      CFAE9D
  58 024f 9B6B9160 		.ascii	"\233k\221`\234\335\210\021\276\216\035l\2169\367\257"
  58      9CDD8811 
  58      BE8E1D6C 
  58      8E39F7AF 
  59 025f C3091996 		.ascii	"\303\011\031\226\340\\\337\255\011\367t\253\364\326"
  59      E05CDFAD 
  59      09F774AB 
  59      F4D6
  60 026d 208FF4EA 		.ascii	" \217\364\352\334[\234(\236\274O\272\353\034Z\313/\336"
  60      DC5B9C28 
  60      9EBC4FBA 
  60      EB1C5ACB 
  60      2FDE
  61 027f 0FAA1213 		.ascii	"\017\252\022\023\011\325\245\011\003L\355P\015c\031"
  61      09D5A509 
  61      034CED50 
  61      0D6319
  62 028e 7ECE5F8A 		.ascii	"~\316_\212g\027\203~\353\035\006#\327[\252\204\0328"
  62      6717837E 
  62      EB1D0623 
  62      D75BAA84 
  62      1A38
  63 02a0 BA8AA188 		.ascii	"\272\212\241\210\355\220\360jxx\344xq.\210]\003\234"
  63      ED90F06A 
  63      7878E478 
  63      712E885D 
  63      039C
  64 02b2 55D5FB09 		.ascii	"U\325\373\011?\365\325s\277e\003\037wl\016\316\\%\032"
  64      3FF5D573 
  64      BF65031F 
  64      776C0ECE 
ARM GAS  /tmp/ccxhJYru.s 			page 5


  64      5C251A
  65 02c5 DAD42F9C 		.ascii	"\332\324/\234\240\016m\212}\370\245Q%h\316\326/~\000"
  65      A00E6D8A 
  65      7DF8A551 
  65      2568CED6 
  65      2F7E00
  66 02d8 A035F6C9 		.ascii	"\2405\366\311MZ%1\207\232:\266\355\261\013o\332\254"
  66      4D5A2531 
  66      879A3AB6 
  66      EDB10B6F 
  66      DAAC
  67 02ea 67D33FE9 		.ascii	"g\323?\351x\361\332\"\225\211\033en3P3&\005\271\376"
  67      78F1DA22 
  67      95891B65 
  67      6E335033 
  67      2605B9FE 
  68 02fe 4D10D6E4 		.ascii	"M\020\326\344P\215+\342\341\251#\374<\327\203\316\327"
  68      508D2BE2 
  68      E1A923FC 
  68      3CD783CE 
  68      D7
  69 030f 3AECFA00 		.ascii	":\354\372\000m\361\221\267\311\321\202\353\272qL\005"
  69      6DF191B7 
  69      C9D182EB 
  69      BA714C05 
  70 031f A88CE7BF 		.ascii	"\250\214\347\277A\210\024J\334|Tr\233\245ho\004\351"
  70      4188144A 
  70      DC7C5472 
  70      9BA5686F 
  70      04E9
  71 0331 5A382A44 		.ascii	"Z8*D\013\320V8\004\373\367O\003\315\3279\254\337;\350"
  71      0BD05638 
  71      04FBF74F 
  71      03CDD739 
  71      ACDF3BE8 
  72 0345 6D1C5D49 		.ascii	"m\034]Io\207\203\311:v\243`\006\330\212Y\252\022\005"
  72      6F8783C9 
  72      3A76A360 
  72      06D88A59 
  72      AA1205
  73 0358 72184B3F 		.ascii	"r\030K?C\265F\363X\331`rXR\216[\267\0029:\302\003\302"
  73      43B546F3 
  73      58D96072 
  73      58528E5B 
  73      B702393A 
  74 036f A458BEDA 		.ascii	"\244X\276\332\365\360\256\220'\011\021x\217\257\025"
  74      F5F0AE90 
  74      27091178 
  74      8FAF15
  75 037e 9B24D6C9 		.ascii	"\233$\326\311#\223Rs[\214\350\221+\217\310\210\224\303"
  75      23935273 
  75      5B8CE891 
  75      2B8FC888 
  75      94C3
  76 0390 FE5EB0CA 		.ascii	"\376^\260\312A\242.\240\301g\032\341\013_\005G\351v"
  76      41A22EA0 
  76      C1671AE1 
ARM GAS  /tmp/ccxhJYru.s 			page 6


  76      0B5F0547 
  76      E976
  77 03a2 D820DF11 		.ascii	"\330 \337\021\275\001h8\372\343\375\303\322\325\203"
  77      BD016838 
  77      FAE3FDC3 
  77      D2D583
  78 03b1 1BA2FC76 		.ascii	"\033\242\374v\272\227oG\2444\356r\207\251\360\035\366"
  78      BA976F47 
  78      A434EE72 
  78      87A9F01D 
  78      F6
  79 03c2 88C97D7F 		.ascii	"\210\311}\1772(\325\353P\225O\221'\037:\352\213\035"
  79      3228D5EB 
  79      50954F91 
  79      271F3AEA 
  79      8B1D
  80 03d4 48D6CBFD 		.ascii	"H\326\313\375a\255!r\255\205\245\313\236\234i\253\022"
  80      61AD2172 
  80      AD85A5CB 
  80      9E9C69AB 
  80      12
  81 03e5 94E9B46E 		.ascii	"\224\351\264n\224\001\364\332\307f\022U\242C6\013\243"
  81      9401F4DA 
  81      C7661255 
  81      A243360B 
  81      A3
  82 03f6 8D9320E2 		.ascii	"\215\223 \342U&S\\\276\350W\232e\336>$\220*\342O\231"
  82      5526535C 
  82      BEE8579A 
  82      65DE3E24 
  82      902AE24F 
  83 040b BA480A18 		.ascii	"\272H\012\030\210]\254\333\257IP\275\317\017\331\316"
  83      885DACDB 
  83      AF4950BD 
  83      CF0FD9CE 
  84 041b 24657F18 		.ascii	"$e\177\0307\246\323\231'\007s;s\317>\227ye$3\230\315"
  84      37A6D399 
  84      2707733B 
  84      73CF3E97 
  84      79652433 
  85 0431 67F2B99D 		.ascii	"g\362\271\235\231\221\275\303/f\207F2\003\203\273\207"
  85      9991BDC3 
  85      2F668746 
  85      320383BB 
  85      87
  86 0442 732FEF7D 		.ascii	"s/\357})=@\324|\272\037\277\007\264|>\375\240\272'\375"
  86      293D40D4 
  86      7CBA1FBF 
  86      07B47C3E 
  86      FDA0BA27 
  87 0457 90BA3BBD 		.ascii	"\220\272;\275\011\366a\034g\017\315+\371\374\277\233"
  87      09F6611C 
  87      670FCD2B 
  87      F9FCBF9B 
  88 0467 613715   		.ascii	"a7\025"
  89              		.text
  90              		.section	.gnu.lto_ch_ltoa.4dbd8987f03ee6e1,"",%progbits
ARM GAS  /tmp/ccxhJYru.s 			page 7


  91 0000 789C6362 		.ascii	"x\234cb`b@\007\322@\374\030\210\265A\034\026\006F\240"
  91      60624007 
  91      D240FC18 
  91      88B5411C 
  91      160646A0 
  92 0014 0A462646 		.ascii	"\012F&Ff \311\314\310\010\024bd\250gbf\254\217\004\261"
  92      6620C9CC 
  92      C8081462 
  92      64A86762 
  92      66AC8F04 
  93 0029 19189518 		.ascii	"\031\030\225\030\02664\314z\320\372l\206d\327\202\246"
  93      163634CC 
  93      7AD0FA6C 
  93      8664D782 
  93      A6
  94 003a 090DFFFE 		.ascii	"\011\015\377\376\377g\314\004I%32D\000Y\214\012`\212"
  94      FF67CC04 
  94      49253332 
  94      4400598C 
  94      0A608A
  95 004d 8905D592 		.ascii	"\211\005\325\222\365L\007\036\374\377\377f\343\223\307"
  95      F54C071E 
  95      FCFFFF66 
  95      E393C7
  96 005c 33190559 		.ascii	"3\031\005Y\031\031s\031\031\230\200\004\320\212\\\220"
  96      19197319 
  96      19988004 
  96      D08A5C90 
  97 006c 5AB0090C 		.ascii	"Z\260\011\014\254\014-\015\015\023\024\300f\001A\010"
  97      AC0C2D0D 
  97      0D1314C0 
  97      66014108 
  98 007c 980C0539 		.ascii	"\230\014\0059\210\371<C\373\203\031\311\211\214\213"
  98      88F93C43 
  98      FB8319C9 
  98      898C8B
  99 008b 185919D2 		.ascii	"\030Y\031\322\031Y\252\031~5t4\010d22'\203\335\310\000"
  99      1959AA19 
  99      7E357434 
  99      08643232 
  99      2783DDC8 
 100 00a0 14644C67 		.ascii	"\024dLgdJgd\006\331\016\264<\023\250\220\001\242\037"
 100      644A6764 
 100      06D90EB4 
 100      3C13A890 
 100      01A21F
 101 00b3 E815E6D3 		.ascii	"\350\025\346\323\014\215\034\014\014) \366E\006F\270"
 101      0C8D1C0C 
 101      0C2920F6 
 101      450646B8 
 102 00c3 39102521 		.ascii	"9\020%! 3@\001\243\251\247\247\357\234\221\231\224\351"
 102      20334001 
 102      A3A9A7A7 
 102      EF9C9199 
 102      94E9
 103 00d5 1FAC9F5F 		.ascii	"\037\254\237_\254\237\221\230\243\237\223\231\244_\\"
 103      AC9F9198 
ARM GAS  /tmp/ccxhJYru.s 			page 8


 103      A39F9399 
 103      A45F5C
 104 00e4 52949A98 		.ascii	"R\224\232\230[\254\237\234QP\224\231W\222\246\227\314"
 104      5BAC9F9C 
 104      51509499 
 104      5792A697 
 104      CC
 105 00f5 000009A5 		.ascii	"\000\000\011\245;\261"
 105      3BB1
 106              		.text
 107              		.section	.gnu.lto_chvprintf.4dbd8987f03ee6e1,"",%progbits
 108 0000 789CCD3A 		.ascii	"x\234\315:\011TUG\226U\017\370\300gU\221EY\024\024\331"
 108      09545547 
 108      96550FF8 
 108      C0675591 
 108      45591414 
 109 0015 04414150 		.ascii	"\004AAP\300}\327\230E\022\215I\014\242~\177\007q\001"
 109      C07DD798 
 109      45128D49 
 109      0CA27E7F 
 109      077101
 110 0028 A389317E 		.ascii	"\243\2111~\002I\214\240 \270`$q\303\335h&&i::-\246\355"
 110      02498CA0 
 110      20B86024 
 110      71C3DD68 
 110      2626693A 
 111 0040 8E8AD118 		.ascii	"\216\212\321\030\3071?\332\323N\366D\2473\036\343\030"
 111      C7313FDA 
 111      D34EF644 
 111      A7331EE3 
 111      18
 112 0051 636CE6DE 		.ascii	"cl\346\336zU\365\336\373_O\236\236\323\236\346\034\353"
 112      7A55F5DE 
 112      FB5F4F9E 
 112      9ED39EE6 
 112      1CEB
 113 0063 BEBA5BDD 		.ascii	"\276\272[\335{\353\336z\367\325W!\012q\375\013\367 "
 113      7BEBDE7A 
 113      F7D55721 
 113      0A71FD0B 
 113      F720
 114 0075 E4563A21 		.ascii	"\344V:!\357\342d<\241\300A\025\012H\352\241x\022\342"
 114      EFE2643C 
 114      A1C04115 
 114      0A48EAA1 
 114      7812E2
 115 0088 50BC60F0 		.ascii	"P\274`\360\364\244\017\000\306K\261 \306\0331\026:\016"
 115      F4A40F00 
 115      C64BB120 
 115      C61B3116 
 115      3A0E
 116 009a 30DE8A0F 		.ascii	"0\336\212\017b|\021\343C\001P_\305\212\030?\304X)\000"
 116      627C11E3 
 116      4301505F 
 116      C58A183F 
 116      C4582900 
 117 00ae EA47FD61 		.ascii	"\352G\375a\364W\002\020\037\204\370\000%P>\007\322\366"
ARM GAS  /tmp/ccxhJYru.s 			page 9


 117      F4570210 
 117      1F84F800 
 117      25503E07 
 117      D2F6
 118 00c0 400D5282 		.ascii	"@\015R\202\021\323\0161\301\014\323\216v\200\261=\223"
 118      11D30E31 
 118      C10CD38E 
 118      7680B13D 
 118      93
 119 00d1 EDA08420 		.ascii	"\355\240\204 \2653RC\224\216\370\034\206\317\035\225"
 119      B5335243 
 119      948EF81C 
 119      86CF1D95 
 120 00e1 50F91C4A 		.ascii	"P\371\034J;\001g\230\022\216\230\010\304\2043L\004\005"
 120      3B016798 
 120      128E9808 
 120      C484334C 
 120      0405
 121 00f3 31DA8982 		.ascii	"1\332\211\202\006\332Y\211Bj$R#\325\347.\370\034\245"
 121      06DA5989 
 121      426A2452 
 121      23D5E72E 
 121      F81CA5
 122 0106 44E3730C 		.ascii	"D\343s\014>GS\0004\206v\207\261\213\322\025\361q\210"
 122      3E475300 
 122      34867687 
 122      B18BD215 
 122      F17188
 123 0119 EFAAC4CA 		.ascii	"\357\252\304\312\347X\332\015\250ql\354\3068\273{\347"
 123      E758DA0D 
 123      A8716CEC 
 123      C638BB7B 
 123      E7
 124 012a 41F87AC1 		.ascii	"A\370z\301\277l\370\327\027\376e\301\277x\370\327\003"
 124      BF6CF8D7 
 124      17FE65C1 
 124      BF78F8D7 
 124      03
 125 013b 21CD079E 		.ascii	"!\315\007\236\036J\002jHD\015\011\024\000MT\222\020"
 125      1E4A026A 
 125      48440D09 
 125      14004D54 
 125      9210
 126 014d 938C9824 		.ascii	"\223\214\230$\012\200&\323\2360\246\260\261\247\222"
 126      0A8026D3 
 126      9E30A6B0 
 126      B1A792
 127 015c 8AD434A4 		.ascii	"\212\3244\244\246*)\3629\215i\353\245\244#&\0031\351"
 127      A62A29F2 
 127      398D69EB 
 127      A5A42326 
 127      0331E9
 128 016f B4376032 		.ascii	"\2647`2\330\330[\351\203\370L\304\367\241\000h&\343"
 128      D8D85BE9 
 128      83F84CC4 
 128      F7A10068 
 128      26E3
ARM GAS  /tmp/ccxhJYru.s 			page 10


 129 0181 CFA23930 		.ascii	"\317\24290\366ec6\033s\224~\310\331\0379\373\321\\\300"
 129      F6656336 
 129      1B73947E 
 129      C8D91F39 
 129      FBD15CC0 
 130 0195 F467632E 		.ascii	"\364gc.\343\317cc\2762\000y\006\"\317\000\012\200\266"
 130      E3CF6363 
 130      BE320079 
 130      0622CF00 
 130      0A80B6
 131 01a8 106510A2 		.ascii	"\020e\020\242\006#\3520\241\000\351\207D\031\202\270"
 131      0623EA30 
 131      A100E987 
 131      441982B8 
 132 01b8 1188FB13 		.ascii	"\021\210\373\023Q\206\342d8N\216\020e\230\234\374\231"
 132      5186E264 
 132      384E8E10 
 132      65989CFC 
 132      99
 133 01c9 5080F42F 		.ascii	"P\200\364/\204MU\356\217\010\035\005\270\243*8F\224"
 133      844D55EE 
 133      8F081D05 
 133      B8A32A38 
 133      4694
 134 01db 91481A8D 		.ascii	"\221H\032\215\244\343\204\216\005\\\253\012N\020e\014"
 134      A4E3848E 
 134      055CAB0A 
 134      4E10650C 
 135 01eb 92C621E9 		.ascii	"\222\306!\351c\3022\364$\241\024\302K\311\022\305\303"
 135      63C232F4 
 135      24A114C2 
 135      4BC912C5 
 135      C3
 136 01fc D3CBE2ED 		.ascii	"\323\313\342\355\343k\365\363\017\010\014\012n\327\276"
 136      E36BF5F3 
 136      0F080C0A 
 136      6ED7BE
 137 020b 4348C7D0 		.ascii	"CH\307\320\260\360\210N\235#\243\242c\272t\215\215\353"
 137      B0F0884E 
 137      9D23A3A2 
 137      63BA748D 
 137      8DEB
 138 021d D63DBE47 		.ascii	"\326=\276GBbRrJ\317\324\264^\351\031\275\373df\365\315"
 138      42625272 
 138      4ACFD4B4 
 138      5EE919BD 
 138      FB6466F5 
 139 0232 CEE9D73F 		.ascii	"\316\351\327?7/\177@\0139L>$\177\"G\310\237\311_\310"
 139      372F7F40 
 139      0B394C3E 
 139      247F2247 
 139      C89FC95F 
 140 0247 47E42839 		.ascii	"G\344(9F\216\223Vr\202|L`\215%\223p\025\240\304\222"
 140      468E9356 
 140      72827C4C 
 140      608D2593 
 140      7015A0C4 
ARM GAS  /tmp/ccxhJYru.s 			page 11


 141 025c 4D0E47DD 		.ascii	"M\016G\335\305\257\267|O\327\255j\251\334\350\370\265"
 141      C5AFB77C 
 141      4FD7AD6A 
 141      A9DCE8F8 
 141      B5
 142 026d AD8D523B 		.ascii	"\255\215R;\205\262J\241\244\210\222\2110\241]\030\300"
 142      85B24AA1 
 142      A4889289 
 142      30A15D18 
 142      C0
 143 027e E2D1FF31 		.ascii	"\342\321\3771\331\206\226\375\307[7QG\235\243\374\177"
 143      D98696FD 
 143      C75B3751 
 143      479DA3FC 
 143      7F
 144 028f DBDA82EC 		.ascii	"\333\332\202\354\350\205\011\261\272\226\367\217W[k"
 144      E88509B1 
 144      BA96F78F 
 144      575B6B
 145 029e CB973ADA 		.ascii	"\313\227:\332\332\226\330\251\2479!\307;;\034\276\314"
 145      DA96D8A9 
 145      A73921C7 
 145      3B3B1CBE 
 145      CC
 146 02af 460F3BF5 		.ascii	"F\017;\3652\271\320\331e5a\313.:j\035\377\000\327\354"
 146      32B9D0D9 
 146      653561CB 
 146      2E3A6A1D 
 146      FF00D7EC 
 147 02c3 D4A289F9 		.ascii	"\324\242\211\371\250b\364\266b\377u\274\312\372\266"
 147      A862F4B6 
 147      62FF75BC 
 147      CAFAB6
 148 02d2 83DB6756 		.ascii	"\203\333gV\350\346\361\232\210e\033_\022kA\0243LE\261"
 148      E8E6F19A 
 148      88651B5F 
 148      126B4114 
 148      334C45B1 
 149 02e6 AEA5BE75 		.ascii	"\256\245\276u\205^\322\373\036\002bN\246\326 cn\267"
 149      855ED2FB 
 149      1E02624E 
 149      A6D62063 
 149      6EB7
 150 02f8 6A5BD6B5 		.ascii	"j[\326\265\256\321\233gR\314q\355\253\007\217:*[\332"
 150      AED19B67 
 150      52CC71ED 
 150      AB078F3A 
 150      2A5BDA
 151 030b DA06984F 		.ascii	"\332\006\230O\214\375\255\253\\b\230m2\206\007Zk\376"
 151      8CFDADAB 
 151      5C62986D 
 151      3286075A 
 151      6BFE
 152 031d 956378A6 		.ascii	"\225cx\246u\365\335\307\260\256\345o\255\313\357%\177"
 152      75F5DDC7 
 152      B0AEE56F 
 152      ADCBEF25 
ARM GAS  /tmp/ccxhJYru.s 			page 12


 152      7F
 153 032e AFB88531 		.ascii	"\257\270\2051\337T\030k[\256W\275i\260S!CMJ\336j=~/"
 153      DF54186B 
 153      5BAE57BD 
 153      69B05321 
 153      434D4ADE 
 154 0346 4741FDC9 		.ascii	"GA\375\311j\375\202>\012\031gn\307\035\377\256\313\257"
 154      6AFD823E 
 154      0A19676E 
 154      C71DFFAE 
 154      CBAF
 155 0358 7FADEDAE 		.ascii	"\177\255\355\256s\374\341\302\203\015\3026\263\233\266"
 155      73FCE1C2 
 155      830DC236 
 155      B39BB6
 156 0367 7EC5AAFB 		.ascii	"~\305\252\373\223\301Pf'W\337KZ\2359y\237\316\251\272"
 156      93C15066 
 156      2757DF4B 
 156      5A9D3979 
 156      9FCEA9BA 
 157 037b 96732797 		.ascii	"\226s'\227\337\257\245>?\251{\031A\376=l\362\3049s\352"
 157      DFAFA53E 
 157      3FA97B19 
 157      41FE3D6C 
 157      F2C43973 
 158 0390 7E45C320 		.ascii	"~E\303 \343k\322\255\377<\245s\353~\031g5i\234\263\306"
 158      E36BD2AD 
 158      FF3CA573 
 158      EB7E1967 
 158      35699CB3 
 159 03a5 701C9A15 		.ascii	"p\034\232\025\373\333)\327\303\3421\223\247\323O\372"
 159      FBDB29D7 
 159      C3E23193 
 159      A7D34FFA 
 160 03b5 68C0A9F6 		.ascii	"h\300\251\366\20499c\361+\244\320dn\334\254Y\243/0?"
 160      84393963 
 160      F12BA4D0 
 160      646EDCAC 
 160      59A32F30 
 161 03ca 9305B6B2 		.ascii	"\223\005\266\262\356\236\332\225\372O\015a\371'6T\006"
 161      EE9EDA95 
 161      FA4F0D61 
 161      F9273654 
 161      06
 162 03db 1908FF0C 		.ascii	"\031\010\377\014\223g\365\336\035\016\017!f\326\253"
 162      9367F5DE 
 162      1D0E0F21 
 162      66D6AB
 163 03ea C64FEF53 		.ascii	"\306O\357S\223\370\373O\015M\354}\014\3373\377\304\360"
 163      93F8FB4F 
 163      0D4DEC7D 
 163      0CDF33FF 
 163      C4F0
 164 03fc 7D72BFC2 		.ascii	"}r\277\302w\355\243\352\010\207\241(\347\230t\353\300"
 164      77EDA3EA 
 164      0887A128 
 164      E79874EB 
ARM GAS  /tmp/ccxhJYru.s 			page 13


 164      C0
 165 040d 34F90207 		.ascii	"4\371\002\007\251y&\245N?\241\275Z\025RFM\205\303q\316"
 165      A97926A5 
 165      4E3FA1BD 
 165      5A155246 
 165      4D85C371 
 166 0422 20F5AC29 		.ascii	" \365\254))h\207>j\325\3674\012Yl\362\334xOs\015\244"
 166      2968873E 
 166      6AD5F734 
 166      0A596CF2 
 166      DC784F73 
 167 0438 9698943A 		.ascii	"\226\230\224:o\220z\215\232<\334n\270ZYcN\022\316\251"
 167      6F907A8D 
 167      9A3CDC6E 
 167      B85A5963 
 167      4E12CEA9 
 168 044c 57ABC31C 		.ascii	"W\253\303\034\272sJ!+\251\311\200\236\321\002\012b\353"
 168      BA734A21 
 168      2BA9C980 
 168      9ED1020A 
 168      62EB
 169 045e CC89419B 		.ascii	"\314\211A\233\370\252![\374\025\322d\312\330\226\332"
 169      F8AA215B 
 169      FC15D264 
 169      CAD896DA 
 170 046e 9635A3E5 		.ascii	"\2265\243\3457Y\200B\266\351\304\236V\305\374\215b\373"
 170      37598042 
 170      B6E9C49E 
 170      56C5FC8D 
 170      62FB
 171 0480 94968B6D 		.ascii	"\224\226\213mm\215\207\016V_\240\307\225\267\201\177"
 171      6D8D870E 
 171      565FA0C7 
 171      95B7817F 
 172 0490 16B6C230 		.ascii	"\026\266\3020x\340\340\211\203\027\016\026\034\274q"
 172      78E0E089 
 172      83170E16 
 172      1CBC71
 173 049f F0C1C117 		.ascii	"\360\301\301\027\007+\234\365\337\322X\342\307\241?"
 173      072B9CF5 
 173      DFD258E2 
 173      C7A13F
 174 04ae 870100BF 		.ascii	"\207\001\000\277\007\030\310a\020\207\301\034\266\343"
 174      0718C861 
 174      1087C11C 
 174      B6E3
 175 04bc B03DC04B 		.ascii	"\260=\300K\000;p\030\302aG\016C9\014\3430\034\340\377"
 175      003B7018 
 175      C261470E 
 175      43390CE3 
 175      301CE0FF 
 176 04d0 008CE0B0 		.ascii	"\000\214\340\260\023\300\037\001v\3460\222\303(\200"
 176      13C01F01 
 176      76E63092 
 176      C32880
 177 04df 57004673 		.ascii	"W\000Fs\030\303a\027\016\273\002\274\0120\226\3038\016"
 177      18C36117 
ARM GAS  /tmp/ccxhJYru.s 			page 14


 177      0EBB02BC 
 177      0A3096C3 
 177      380E
 178 04f1 BB71D89D 		.ascii	"\273q\330\235\303x\016{\000\274\0060\201\303D\016\223"
 178      C3780E7B 
 178      00BC0630 
 178      81C3440E 
 178      93
 179 0502 384CE630 		.ascii	"8L\3460\205\303\236\000\257\003L\005x\003`\032\300\233"
 179      85C39E00 
 179      AF034C05 
 179      7803601A 
 179      C09B
 180 0514 007B7198 		.ascii	"\000{q\230\316a\006\300f\200\275\271\\\037\012A\315"
 180      CE6106C0 
 180      6680BDB9 
 180      5C1F0A41 
 180      CD
 181 0525 84C92698 		.ascii	"\204\311&\230da\204\373r\317\263\011\344l\016\220i?"
 181      646184FB 
 181      72CFB309 
 181      E46C0E90 
 181      693F
 182 0537 78F2EC0F 		.ascii	"x\362\354\017\203W.\227\312\343Q\317\347Q\035\300W\035"
 182      83572E97 
 182      CAE351CF 
 182      E7511DC0 
 182      571D
 183 0549 084C9641 		.ascii	"\010L\226A\250e0\307\014\341q\033\212\224aH\031\316"
 183      A86530C7 
 183      0CE1711B 
 183      8A946148 
 183      19CE
 184 055b 3123B8A7 		.ascii	"1#\270\247#\001\356\0008\012\211\243\371\342c8\034\013"
 184      2301EE00 
 184      380A89A3 
 184      F9E26338 
 184      1C0B
 185 056d 62DEE370 		.ascii	"b\336\343px\000\315\031\317\321\017\362\250>\004p\037"
 185      7800CD19 
 185      CFD10FF2 
 185      A83E0470 
 185      1F
 186 057e C08751F6 		.ascii	"\300\207Q\366\021N\234\300a\001\212=\212\303c(;\221"
 186      114E9CC0 
 186      61018A3D 
 186      8AC36328 
 186      3B91
 187 0590 A32771D9 		.ascii	"\243'q\331\307\0219\231O\236\340ay\222\303\247x8\247"
 187      C7113999 
 187      4F9EE061 
 187      7992C3A7 
 187      7838A7
 188 05a3 70F8349A 		.ascii	"p\3704\232_\010\223\367a2\025W+\342\352\246\241\232"
 188      5F0893F7 
 188      61321557 
 188      2BE2EAA6 
ARM GAS  /tmp/ccxhJYru.s 			page 15


 188      A19A
 189 05b5 E9DCA719 		.ascii	"\351\334\247\031\000\017\000\264\361\370\314\304\325"
 189      000F00B4 
 189      F1F8CCC4 
 189      D5
 190 05c2 ED38FC0E 		.ascii	"\3558\374\016\331\236A-\305\234w\026\242Kp\230\315\243"
 190      D99E412D 
 190      C59C7716 
 190      A24B7098 
 190      CDA3
 191 05d4 3887C3B9 		.ascii	"8\207\303\271\334\250y\\K)\212\225q\344|\216|\026%\027"
 191      DCA8795C 
 191      4B298A95 
 191      71E47C8E 
 191      7C162517 
 192 05e8 E0B0906F 		.ascii	"\340\260\220o\355s8y\036\207E\034\363\002\300\243\000"
 192      ED733879 
 192      1E87451C 
 192      F302C0A3 
 192      00
 193 05f9 17739917 		.ascii	"\027s\231\0279~\011\237;(w\242\\<\274$\036*(*\252d\343"
 193      397E099F 
 193      3B2877A2 
 193      5C3CBC24 
 193      1E2A282A 
 194 0610 CB38FABE 		.ascii	"\3138\372\276B\271\364\253\014\271\224\215\257\341h"
 194      42B9F4AB 
 194      0CB9948D 
 194      AFE168
 195 061f 5D264855 		.ascii	"]&HUlZM\271\376\345\370p\032\036V\010L\015>\234\201"
 195      6C5A4DB9 
 195      FEE5F870 
 195      1A1E5608 
 195      4C0D3E9C 
 196 0634 875A7C38 		.ascii	"\207Z|8\013\017+)\257\240:\312\023\242^<\254Bm~\253"
 196      0B0F2B29 
 196      AFA03ACA 
 196      13A25E3C 
 196      AC426D7E 
 197 0649 C5740D4E 		.ascii	"\305t\015N-kq\364l\300\321k\035\222\316\003\351u\312"
 197      2D6B71F4 
 197      6CC0D16B 
 197      1D92CE03 
 197      E975CA
 198 065c 43B79EF1 		.ascii	"C\267\236\3614R\236\247o\010\345o2\251\015Lj\243\240"
 198      34529EA7 
 198      6F08E56F 
 198      32A90D4C 
 198      6AA3A0
 199 066f 6E129A37 		.ascii	"n\022\2327\013\266-\214\255\211\261mE\344\027\200\334"
 199      0BB62D8C 
 199      AD89B16D 
 199      45E41780 
 199      DC
 200 0680 26946F67 		.ascii	"&\224og\312w\010\361\235\214y\027c\336-\220{\204\316"
 200      CA7708F1 
 200      9D8C7917 
ARM GAS  /tmp/ccxhJYru.s 			page 16


 200      63DE2D90 
 200      7B84CE
 201 0693 B710EFB1 		.ascii	"\267\020\357\261\227\215\373\004\022\376\274H%\234\267"
 201      978DFB04 
 201      12FEBC48 
 201      259CB7
 202 06a2 5DD470A8 		.ascii	"]\324p\250z\325\210\253Y\241\332\241n\265*\243\352U"
 202      7AD588AB 
 202      59A1DAA1 
 202      6EB52AA3 
 202      EA55
 203 06b4 D350AD29 		.ascii	"\323P\255)5\326\205\364\026\246\037^\245\027\2613}\002"
 203      35D685F4 
 203      16A61F5E 
 203      A517B133 
 203      7D02
 204 06c6 1B0B10E1 		.ascii	"\033\013\020\341\3611y\251\271\241-\273\220\266A\277"
 204      F13179A9 
 204      B9A12DBB 
 204      90B641BF 
 205 06d6 60A3BD27 		.ascii	"`\243\275'\252\227\033\352_\001>\"K\353\317[\276\247"
 205      AA971BEA 
 205      5F013E22 
 205      4BEBCF5B 
 205      BEA7
 206 06e8 8227D386 		.ascii	"\202'\323\206\327\234\037\223\212*\017\201\312\002\254"
 206      D79C1F93 
 206      8A2A0F81 
 206      CA02AC
 207 06f7 7C6700FF 		.ascii	"|g\000\377\007/G\013R\337\365\344\365r\207\303\321\333"
 207      072F470B 
 207      52DFF5E4 
 207      F57287C3 
 207      D1DB
 208 0709 4E033997 		.ascii	"N\0039\227P\177\224\034\371\366\360\277-\363\227\254"
 208      507F941C 
 208      F9F6F0BF 
 208      2DF397AC 
 209 0719 480CD2CE 		.ascii	"H\014\322\316\177'\2416\332G\201\301w\034u\222\036`"
 209      7F27A136 
 209      DA4781C1 
 209      771C7592 
 209      1E60
 210 072b 9E72E250 		.ascii	"\236r\342P\244\215\246\214\243h\234\247j\334\261\035"
 210      A48DA68C 
 210      A3689CA7 
 210      6ADCB11D 
 211 073b DBA46DD9 		.ascii	"\333\244m\3316\332\003-\370\360\222\242\242T\347\373"
 211      36DA032D 
 211      F8F092A2 
 211      A254E7FB 
 212 074b 90FD8EA5 		.ascii	"\220\375\216\245\240<@:\006\315\221\307QRy\371\360{"
 212      A03C403A 
 212      06CD91C7 
 212      515279F9 
 212      F07B
 213 075d AEEB77D7 		.ascii	"\256\353w\327\275\201\012\260[\3035>\377y[\216`\353"
ARM GAS  /tmp/ccxhJYru.s 			page 17


 213      BD810AB0 
 213      5BC3353E 
 213      FF795B8E 
 213      60EB
 214 076f 974C9260 		.ascii	"\227L\222`?\301/`\017\266\321\034\024k\307\370\247J"
 214      3FC12F60 
 214      0FB6D11C 
 214      146BC7F8 
 214      A74A
 215 0781 DF40E671 		.ascii	"\337@\346q!\320?\231\354r\004\333i{U\244\003\250\230"
 215      21D03F99 
 215      EC7204DB 
 215      697B55A4 
 215      03A898
 216 0794 A8B6F94C 		.ascii	"\250\266\371LD\310\234\"^\252\004A\031\034r\300&;\376"
 216      44C89C22 
 216      5EAA0441 
 216      191C72C0 
 216      263BFE
 217 07a7 5400C15E 		.ascii	"T\000\301^ZquU\270\320\230\013n\262\235B\331\037\210"
 217      5A717555 
 217      B8D0980B 
 217      6EB29D42 
 217      D91F88
 218 07ba A3FAC299 		.ascii	"\243\372\302\231H!\253\332\355\255\332\375K\305\255"
 218      4821ABDA 
 218      EDADDAFD 
 218      4BC5AD
 219 07c9 102194B7 		.ascii	"\020!\224\267\210\374\342"
 219      88FCE2
 220 07d0 5077A2A3 		.ascii	"Pw\242\243\032\026a\351/\025[V{\013\266\374;\26257\357"
 220      1A1661E9 
 220      2F155B56 
 220      7B0BB6FC 
 220      3BB23537 
 221 07e5 3AAC08B6 		.ascii	":\254\010\266\001\023\325\357\"\276\337\273W\313\035"
 221      0113D5EF 
 221      22BEDFBB 
 221      57CB1D
 222 07f4 1FA8BA09 		.ascii	"\037\250\272\011\273\235\345\272\333\345\351\222\211"
 222      BB9DE5BA 
 222      DBE5E992 
 222      89
 223 0801 C5BAA721 		.ascii	"\305\272\247!\326>\314\346\212\252\212}\253;\011\276"
 223      D63ECCE6 
 223      8AAA8A7D 
 223      AB3B09BE 
 224 0811 415C8BC8 		.ascii	"A\\\213\310\254\346\206\335\247\245\015\203\231\015"
 224      ACE686DD 
 224      A7A50D83 
 224      990D
 225 081f 542AF0E5 		.ascii	"T*\360\345\011\375\331\356\377\226\0311\004y,]\204\235"
 225      09FDD9EE 
 225      FF961931 
 225      04792C5D 
 225      849D
 226 0831 87343B87 		.ascii	"\2074;\207J;\225;\3339\224\331\331K\227\223\012X\344"
ARM GAS  /tmp/ccxhJYru.s 			page 18


 226      4A3B953B 
 226      DB3994D9 
 226      D94B9793 
 226      0A58E4
 227 0844 FDEBE932 		.ascii	"\375\353\3512\260\315\347\340\331\231N\222\012\301\360"
 227      B0CDE7E0 
 227      D9994E92 
 227      0AC1F0
 228 0853 6E3CBB11 		.ascii	"n<\273\021\362t\260\317\211\263;XnZ\205/_j\276\014\343"
 228      F274B0CF 
 228      89B33B58 
 228      6E5A852F 
 228      5F6ABE0C 
 229 0868 2B495F9A 		.ascii	"+I_\232\367^\221v\016gv\366\222\276\370q_~\336\353\224"
 229      F75E9176 
 229      0E6776F6 
 229      92BEF871 
 229      5F7EDEEB 
 230 087d 3C2374D5 		.ascii	"<#t\325\351$\036\240\316\027\026\035f\255>\007f\204"
 230      E9241EA0 
 230      CE17161D 
 230      66AD3E07 
 230      6684
 231 088f 83AFBE97 		.ascii	"\203\257\276\227\317\316\001U\326\306s\013Q\207?\257"
 231      CFCE0155 
 231      D6C6730B 
 231      51873FAF 
 232 089f DEE67D37 		.ascii	"\336\346}7\244\216\2216L<C\365\216\002\254\261zg\010"
 232      A48E9136 
 232      4C3C43F5 
 232      8E02ACB1 
 232      7A6708
 233 08b2 D2685EBD 		.ascii	"\322h^\275}Y\234F\272\304\351\233\303\267\226\005HV"
 233      7D599C46 
 233      BAC4E99B 
 233      C3B79605 
 233      4856
 234 08c4 E6409A2E 		.ascii	"\346@\232.R\2366\352\341\007\006\216j\177\341\334\013"
 234      529E36EA 
 234      E107068E 
 234      6A7FE1DC 
 234      0B
 235 08d5 4ED2151C 		.ascii	"N\322\025\034\360;x\256\330\006o\342\366'\234eha\200"
 235      F03B78AE 
 235      D8066FE2 
 235      F6279C65 
 235      686180
 236 08e8 5A86A828 		.ascii	"Z\206\250(\324\240((\307\220\032\201j8\227V\264\255"
 236      D4A02828 
 236      C7901A81 
 236      6A389756 
 236      B4AD
 237 08fa EE2CF8C6 		.ascii	"\356,\370\306\2105?\3212 \210\351\203ceek\220Q_\222"
 237      88353FD1 
 237      322088E9 
 237      83636565 
 237      6B90515F 
ARM GAS  /tmp/ccxhJYru.s 			page 19


 238 090f 415F302F 		.ascii	"A_0/\353\346w\264sm,\226\251\003\013\325{\026\365\230"
 238      EBE677B4 
 238      736D2C96 
 238      A9030BD5 
 238      7B16F598 
 239 0923 4AC58F93 		.ascii	"J\305\217\223\206X\215\003>\331\342\202\206Q*\341\266"
 239      86588D03 
 239      3ED9E282 
 239      86512AE1 
 239      B6
 240 0934 A236FC4D 		.ascii	"\2426\374M\022\343\351%\244\037P\303\011|\036\\O\250"
 240      12E3E925 
 240      A41F50C3 
 240      097C1E5C 
 240      4FA8
 241 0946 765E5CAA 		.ascii	"v^\\\252(\021|\343m\370\003'\376M\300\223\305\243\000"
 241      28117CE3 
 241      6DF80327 
 241      FE4DC093 
 241      C5A300
 242 0959 7F83C400 		.ascii	"\177\203\304\000,\253\330\277\246\247\340z\013b\333"
 242      2CABD8BF 
 242      A6A7E07A 
 242      0B62DB
 243 0968 95A58455 		.ascii	"\225\245\204U\325\360\367\212\037\2447{\201\330\236"
 243      D5F0F78A 
 243      1FA4377B 
 243      81D89E
 244 0977 9F1CCF0A 		.ascii	"\237\034\317\012\344>\252J\355\245\352\016\265\207("
 244      E43EAA4A 
 244      EDA5EA0E 
 244      B58728
 245 0986 06FE8A5B 		.ascii	"\006\376\212[2>x\325$\014L\007QB\373\265\224yP\246\035"
 245      323E78D5 
 245      240C4C07 
 245      5142FBB5 
 245      947950A6 
 246 099b 0BED862A 		.ascii	"\013\355\206*\177chS\015\241\015\021I\367\3761Y\250"
 246      7F636853 
 246      0DA10D11 
 246      49F7FE31 
 246      59A8
 247 09ad 0FD9F068 		.ascii	"\017\331\360h2\004\362a\300\032\223Nz\377\010O\272\376"
 247      3204F261 
 247      C01A934E 
 247      7AFF084F 
 247      BAFE
 248 09bf 2CE91E72 		.ascii	",\351\036rK\272\367\252\002%\253[\322yA\276u\200|\203"
 248      4BBAF7AA 
 248      0225AB5B 
 248      D27941BE 
 248      75807C83 
 249 09d3 153A359E 		.ascii	"\025:5\236o\202\367F\024x\320\341\262\0230\223;5\376"
 249      6F82F746 
 249      1478D0E1 
 249      B2133093 
 249      3B35FE
ARM GAS  /tmp/ccxhJYru.s 			page 20


 250 09e6 750F2BCF 		.ascii	"u\017+\317\216\"\357\336\253\0123\350r\311\273P\221"
 250      8E22EFDE 
 250      AB0A33E8 
 250      72C9BB50 
 250      91
 251 09f7 773FAE89 		.ascii	"w?\256\211\022|\023\304\262\272\274\013\023y\367\207"
 251      127C13C4 
 251      B2BABC0B 
 251      1379F787 
 252 0a07 D610A33E 		.ascii	"\326\020\243>c\336\205\213\274\373\275\026\336\0023"
 252      63DE858B 
 252      BCFBBD16 
 252      DE0233
 253 0a16 79F728F0 		.ascii	"y\367(\360\231\317\273G]\362\3561}\336\025\270\345\235"
 253      99CFBB47 
 253      5DF2EE31 
 253      7DDE15B8 
 253      E59D
 254 0a28 CC8F89C0 		.ascii	"\314\217\211\300*\362.\202\345]'\221w[\326&\013\256"
 254      2AF22E82 
 254      E55D2791 
 254      775BD626 
 254      0BAE
 255 0a3a 49361A65 		.ascii	"I6\032eL\273\2552\210\217\3330\2050d\322\364\311\014"
 255      4CBBAD32 
 255      888FDB30 
 255      853064D2 
 255      F4C90C
 256 0a4d 3B49DD1E 		.ascii	";I\335\036x\371M\010=x\036N\317\211\341\3771\031C\322"
 256      78F94D08 
 256      3D781E4E 
 256      CF89E1FF 
 256      311943D2 
 257 0a61 5984EEBC 		.ascii	"Y\204\356\274\226W!,t\305\272m\265h\333\032\241nk\010"
 257      9657212C 
 257      74C5BA6D 
 257      B568DB1A 
 257      A16E6B08 
 258 0a75 A41F60A6 		.ascii	"\244\037`\246A\240\001S\354$\321r\237\243\"\330&Gj\232"
 258      41A00153 
 258      EC24D172 
 258      9FA322D8 
 258      26476A9A 
 259 0a89 3B1A358F 		.ascii	";\0325\2175lJ\224\310\371\003\332\246L\221\257\026\365"
 259      356C4A94 
 259      C8F903DA 
 259      A64C91AF 
 259      16F5
 260 0a9b B5B1561E 		.ascii	"\265\261V\036;O\313\327\206\305\230\231\225\227\313"
 260      3B4FCBD7 
 260      86C59899 
 260      9597CB
 261 0aaa 3325934B 		.ascii	"3%\223K+\203\313D\363\302h\370\243V\030\2056\3540\014"
 261      2B83CB44 
 261      F3C268F8 
 261      A3561885 
 261      36EC300C 
ARM GAS  /tmp/ccxhJYru.s 			page 21


 262 0abe 3B3D15B0 		.ascii	";=\025\260w(\214\"Ca\024\352\227W\227\210\201%0Z\336"
 262      77288C22 
 262      436114EA 
 262      97579788 
 262      8125305A 
 263 0ad3 A0360AEA 		.ascii	"\2406\012\352|jt\203\227\223t\004\267qV\024\335\354"
 263      7C6A7483 
 263      97937404 
 263      B7715614 
 263      DDEC
 264 0ae5 815C5DD4 		.ascii	"\201\\]\324\270|s\370zU\264!.\226\201\006m]y\221Pc\360"
 264      B87C73F8 
 264      7A55B421 
 264      2E968106 
 264      6D5D7991 
 265 0afc 1E3730C5 		.ascii	"\03670\305\252^\311\016\362\011\331\227\250\3648\027"
 265      AA5EC90E 
 265      F209D997 
 265      A8F43817 
 266 0b0c FA932E1D 		.ascii	"\372\223.\035f7\225\376\367\212\027\005\307S6\232\241"
 266      663795FE 
 266      F78A1705 
 266      C753369A 
 266      A1
 267 0b1d 6E7A06A8 		.ascii	"nz\006\250\213=\012\316<\031\307x\273\013\336\233ke"
 267      8B3D0ACE 
 267      3C19C778 
 267      BB0BDE9B 
 267      6B65
 268 0b2f 6AC3FE43 		.ascii	"j\303\376C.\237 \322\223i\313Iuy\245\243\345B\220\035"
 268      2E9F20D2 
 268      9369CB49 
 268      7579A5A3 
 268      E542901D 
 269 0b43 CB9240E7 		.ascii	"\313\222@\347\253vZ\034\337\034\010x\346\355PF\364\322"
 269      AB765A1C 
 269      DF1C0878 
 269      E6ED5046 
 269      F4D2
 270 0b55 130F4AE2 		.ascii	"\023\017J\342(wbs\220 \216gD\213\236\370\266$\0260\242"
 270      28776273 
 270      90208E67 
 270      448B9EF8 
 270      B6241630 
 271 0b6a B79ED820 		.ascii	"\267\236\330 \211\023\031\321GO\374\207\237 \0261\242"
 271      891319D1 
 271      474FFC87 
 271      9F201631 
 271      A2
 272 0b7b AF9EF881 		.ascii	"\257\236\370\2014h\232\273A\177\224D\273;\361\003\271"
 272      34689ABB 
 272      417F9444 
 272      BB3BF103 
 272      B9
 273 0b8c E66C776B 		.ascii	"\346lwk\327H\311RF\264\352\211\357H\311\371\356\256"
 273      D748C952 
 273      46B4EA89 
ARM GAS  /tmp/ccxhJYru.s 			page 22


 273      EF48C9F9 
 273      EEAE
 274 0b9e BC2E890B 		.ascii	"\274.\211\013u\256\250\373\345c\243\3361\220h\226nP"
 274      75AEA8FB 
 274      E563A3DE 
 274      31906896 
 274      6E50
 275 0bb0 9FA136DA 		.ascii	"\237\2416\332\021'!8\351\011\025\025s\371\257P\233O"
 275      11272138 
 275      E9091515 
 275      73F9AF50 
 275      9B4F
 276 0bc2 757B770A 		.ascii	"u{w\012\356e<\354e+)\367Q\267\215y\315\332\273/\264"
 276      EE653CEC 
 276      652B29F7 
 276      51B78D79 
 276      CDDABB2F 
 277 0bd7 9668BABE 		.ascii	"\226h\272\276u;\326\374\3051I\231\001\335\254K\331\330"
 277      753BD6FC 
 277      C5314999 
 277      01DDAC4B 
 277      D9D8
 278 0be9 00AB2F9B 		.ascii	"\000\253/\233\317?\221\035\355L3\007\254\035\370\314"
 278      CF3F911D 
 278      ED4C3307 
 278      AC1DF8CC 
 279 0bf9 1FB07697 		.ascii	"\037\260v\227\003\366w\372\003v\246\333\001;O\360=\003"
 279      03F677FA 
 279      0376A6DB 
 279      013B4FF0 
 279      3D03
 280 0c0b AC7AF5BC 		.ascii	"\254z\365\274\240!\246\026n\277\017_\341\031Q =\\\002"
 280      A021A616 
 280      6EBF0F5F 
 280      E1195120 
 280      3D5C02
 281 0c1e 65E581FA 		.ascii	"e\345\201\372R\013T\261>P\2377\177\251u\351\263\314"
 281      520B54B1 
 281      3E509F37 
 281      7FA975E9 
 281      B3CC
 282 0c30 B85E027C 		.ascii	"\270^\002|\346]/\341\247\322\363B|\266\364\335\207+"
 282      E65D2FE1 
 282      A7D2F342 
 282      7CB6F4DD 
 282      872B
 283 0c42 0AE7ABB0 		.ascii	"\012\347\253\260VZ\236\211\2635\367d\365'\210\317\224"
 283      565A9E89 
 283      B335F764 
 283      F52788CF 
 283      94
 284 0c53 038DF280 		.ascii	"\003\215\362\200\235\203\037 \015\354\224\213\210\206"
 284      9D831F20 
 284      0DEC948B 
 284      8886
 285 0c61 CFE3371C 		.ascii	"\317\3437\034\015\003\355\370\"\322\304\022\305\311"
 285      0D03EDF8 
ARM GAS  /tmp/ccxhJYru.s 			page 23


 285      22D2C412 
 285      C5C9
 286 0c6f BE6185EC 		.ascii	"\276a\205\354?\243\015\007\013\246c\000\254\331\343"
 286      3FA30D07 
 286      0BA66300 
 286      ACD9E3
 287 0c7e C29585A0 		.ascii	"\302\225\205\2402\341\362\225b\024L\022\237\274\337"
 287      32E1F295 
 287      62144C12 
 287      9FBCDF
 288 0c8d 38658CE6 		.ascii	"8e\214\3462\301\2666\355\314J\346\037\226\315\337h1"
 288      32C1B636 
 288      EDCC4AE6 
 288      1F96CDDF 
 288      6831
 289 0c9f 9E6753BF 		.ascii	"\236gS\277\036\235$\006\326J\204\304\236\233T}U\355"
 289      1E9D2406 
 289      D64A84C4 
 289      9E9B547D 
 289      55ED
 290 0cb1 265244B3 		.ascii	"&RD\263\377m\343S\202\177\276\215Z\015\327\250\005\370"
 290      FF6DE353 
 290      827FBE8D 
 290      5A0DD7A8 
 290      05F8
 291 0cc3 BFA83C58 		.ascii	"\277\250<X\350\366J\255\245\352\313\304\302\231Et\330"
 291      E8F64AAD 
 291      A5EACBC4 
 291      C2994574 
 291      D8
 292 0cd4 CB4436B0 		.ascii	"\313D6\260\245n\337\305V\260'\371;H\265\371)\337\371"
 292      A56EDFC5 
 292      56B027F9 
 292      3B48B5F9 
 292      29DFF9
 293 0ce7 3949171B 		.ascii	"9I\027\033\215I\006\213\312R\276\363\302\205Ry\327\""
 293      8D49068B 
 293      CA52BEF3 
 293      C2855279 
 293      D722
 294 0cf9 77185EB7 		.ascii	"w\030^\267]\270\227\374\217.a\253|+-)s\011\037\266\000"
 294      5DB897FC 
 294      8F2E61AB 
 294      7C2B2D29 
 294      73091FB6 
 295 0d0e 69AC05E8 		.ascii	"i\254\005\350\345\222\200^\252}\207Ok\261\357)?\006"
 295      E592805E 
 295      AA7D874F 
 295      6BB1EF29 
 295      3F06
 296 0d20 B53D4A17 		.ascii	"\265=J\027\255\316\017Z\213\375\254\231t\\\000|\346"
 296      ADCE0F5A 
 296      8BFDAC99 
 296      745C007C 
 296      E6
 297 0d31 D37181EB 		.ascii	"\323q\201\353Kr\241LG\177\256\250\263\301\256\014n\327"
 297      4B72A14C 
ARM GAS  /tmp/ccxhJYru.s 			page 24


 297      477FAEA8 
 297      B3C1AE0C 
 297      6ED7
 298 0d43 775AAFFC 		.ascii	"wZ\257\374\234\031\263\236\007>\363f=\357r@,\322\037"
 298      9C19B39E 
 298      073EF366 
 298      3DEF7240 
 298      2CD21F
 299 0d56 10CFE90F 		.ascii	"\020\317\351\017\010\325\252\336jF\177}\330\251E5\015"
 299      08D5AADE 
 299      6A467F7D 
 299      D8A94535 
 299      0D
 300 0d67 D97477E2 		.ascii	"\331tw\342N\222\006\356\2457^\203~}Q\306\273\363Q\256"
 300      4E9206EE 
 300      A5375E83 
 300      7E7D51C6 
 300      BBF351AE 
 301 0d7b 8FB803B9 		.ascii	"\217\270\003\271$\275y\301\375p\\\014X\303\227\2478"
 301      24BD79C1 
 301      FD705C0C 
 301      58C397A7 
 301      38
 302 0d8c 1CB5CB19 		.ascii	"\034\265\313\031\013gQS\220\035(=U\346\235\025\007\336"
 302      0B675153 
 302      901D283D 
 302      55E69D15 
 302      07DE
 303 0d9e 90C5F9A2 		.ascii	"\220\305\371\242\215\246\011\2333a\355S\344\225\213"
 303      8DA6099B 
 303      3361ED53 
 303      E4958B
 304 0dad CDDB2D82 		.ascii	"\315\333-\202\274\004kw)\272\031Y\304/6l\324\317F{\241"
 304      BC046B77 
 304      29BA1959 
 304      C42F366C 
 304      D4CF467B 
 305 0dc2 42AB95D8 		.ascii	"B\253\225\330\261\331BO\000\227\327\373\3273\221`[\237"
 305      B1D9424F 
 305      0097D7FB 
 305      D7339160 
 305      5B9F
 306 0dd4 0BD7A07B 		.ascii	"\013\327\240{\353\005\212{C\016\277\330\347+\346X\226"
 306      EB058A7B 
 306      430EBFD8 
 306      E72BE658 
 306      96
 307 0de5 4BD6F9A8 		.ascii	"K\326\371\250\206\177vU{\0138(33X\006\261\257\213\214"
 307      867F7655 
 307      7B0B3828 
 307      33335806 
 307      B1AF8B8C 
 308 0df9 B72A73F4 		.ascii	"\267*s\364\377\244H\271*b\225\"\331.\"\026.r]\212\274"
 308      FFA448B9 
 308      2A629522 
 308      D92E2216 
 308      2E725D8A 
ARM GAS  /tmp/ccxhJYru.s 			page 25


 309 0e0e A48AF848 		.ascii	"\244\212\370H\221\034\027\021E\324C\315\035\353\301"
 309      911C1711 
 309      45D443CD 
 309      1DEBC1
 310 0e1d 49C2D0DC 		.ascii	"I\302\320\334\254\3137\246\241\015}\233\026\241\336"
 310      ACCB37A6 
 310      A10D7D9B 
 310      16A1DE
 311 0e2c ECAF16A1 		.ascii	"\354\257\026\241\276~\242P~\321\012\245\202\232I\311"
 311      BE7EA250 
 311      7ED10AA5 
 311      829A49C9 
 312 0e3c 4A8A9CE6 		.ascii	"J\212\234\346\223\262\222\272d\345\313T\246\245\257"
 312      93B292BA 
 312      64E5CB54 
 312      A6A5AF
 313 0e4b 50152D57 		.ascii	"P\025-W\202FKV\325+\024\271E\010\372\213[1\235\311\257"
 313      82464B56 
 313      D52B14B9 
 313      4508FA8B 
 313      5B319DC9 
 314 0e60 9A327929 		.ascii	"\2322y)EN\363&/u5\3715\315d\253P\025s[\223\227Q\344"
 314      454EF326 
 314      2F7535F9 
 314      35CD64AB 
 314      5015735B 
 315 0e78 1626E78A 		.ascii	"\026&\347\212\336q\377\206$\301Q\005\034ax\361\366J"
 315      DE71FF86 
 315      24C15105 
 315      1C6178F1 
 315      F64A
 316 0e8a 4B84C055 		.ascii	"K\204\300U\323\333\245p\236\215\246#\277\314\337t\014"
 316      D3DBA570 
 316      9E8DA623 
 316      BFCCDF74 
 316      0C
 317 0e9b 49BFC65B 		.ascii	"I\277\306[\305\270N\377w\027\343\022y.\211\341\2516"
 317      C5B84EFF 
 317      7717E312 
 317      792E89E1 
 317      A936
 318 0ead 2E3FDFD4 		.ascii	".?\337\324Rv9u/\316\025\024\361\372\362<Vk,O\265=Py"
 318      52763975 
 318      2FCE1514 
 318      F1FAF23C 
 318      566B2C4F 
 319 0ec5 447F102A 		.ascii	"D\177\020*\034\313W\035\273Tqi\203t\242\006T\372\253"
 319      1CCB571D 
 319      BB547169 
 319      8374A206 
 319      54FAAB
 320 0ed8 BD875CA6 		.ascii	"\275\207\\\246\026p\201l\351\327*d\263\274\222\252\314"
 320      1670816C 
 320      E9D72A64 
 320      B3BC92AA 
 320      CC
 321 0ee9 B594537E 		.ascii	"\265\224S~\334\220 hux\275\200,\354E\376\265v'VG\335"
ARM GAS  /tmp/ccxhJYru.s 			page 26


 321      DC902068 
 321      7578BD80 
 321      2CEC45FE 
 321      B5762756 
 322 0eff 5EB570D4 		.ascii	"^\265p\324\332\342\033\257@v[\323@lIf\345\002\014e\356"
 322      DAE21BAF 
 322      40765BD3 
 322      406C4966 
 322      E5020C65 
 323 0f14 91C5E85F 		.ascii	"\221\305\350_\336O\213\235\004\276X\362\343\253\317"
 323      DE4F8B9D 
 323      04BE58F2 
 323      E3ABCF
 324 0f23 42C50720 		.ascii	"B\305\007 K~&\3365\346\342\220\007\012\"\240\335\213"
 324      4B7E26DE 
 324      35E6E290 
 324      070A22A0 
 324      DD8B
 325 0f35 AFC67775 		.ascii	"\257\306wuq\332\221\2716\032\236\011<\341\2718\344\261"
 325      71DA91B9 
 325      361A9E09 
 325      3CE1B938 
 325      E4B1
 326 0f47 77EC0079 		.ascii	"w\354\000yY\255\245\\\275\321\220\002\374\037\301\310"
 326      59ADA55C 
 326      BDD19002 
 326      FC1FC1C8 
 327 0f57 74B0E2FA 		.ascii	"t\260\342\372\206\024\301\264\012t\244\362Wj\272\206"
 327      8614C1B4 
 327      0A74A4F2 
 327      576ABA86 
 328 0f67 74ABD058 		.ascii	"t\253\320Xt,\377`\033\336\343\325\323\001'\332\330\005"
 328      742CFF60 
 328      1BDEE3D5 
 328      D30127DA 
 328      D805
 329 0f79 D52055E3 		.ascii	"\325 U\343\316\212\0331Bv50\304\212\025\007\213s\273"
 329      CE8A1B31 
 329      42763530 
 329      C48A1507 
 329      8B73BB
 330 0f8c AD467EBD 		.ascii	"\255F~\275\306\271\205'\016$\006R\024\035tY\325;D\364"
 330      C6B98527 
 330      0E240652 
 330      141D7459 
 330      D53B44F4 
 331 0fa0 025B9AE4 		.ascii	"\002[\232\344f\254\241\262\033\0104v\003\3726j\015\275"
 331      66ACA1B2 
 331      1B083476 
 331      03FA366A 
 331      0DBD
 332 0fb2 CDD5E950 		.ascii	"\315\325\351P\336\020\225O\026l\021.\027\227\3105L\234"
 332      DE10954F 
 332      166C112E 
 332      1797C835 
 332      4C9C
 333 0fc4 349B8FCB 		.ascii	"4\233\217\313\030\256\245w{\235\335@\335\356\263\327"
ARM GAS  /tmp/ccxhJYru.s 			page 27


 333      18AEA577 
 333      7B9DDD40 
 333      DDEEB3D7 
 334 0fd4 D2DB5D68 		.ascii	"\322\333]hk\305m\243\353d\366i\211\377:E\274\341[W\226"
 334      6BC56DA3 
 334      EB64F669 
 334      89FF3A45 
 334      BCE15B57 
 335 0fe9 F97A2D16 		.ascii	"\371z-\026\353\250>\030\206[\362\006\312\257\311\327"
 335      EBA83E18 
 335      865BF206 
 335      CAAFC9D7 
 336 0ff9 53ED9E7C 		.ascii	"S\355\236|w\223\274"
 336      7793BC
 337 1000 716DA4FA 		.ascii	"qm\244\372\213rF}\253\233 \276A1\271\335\333\"5V\303"
 337      8B72467D 
 337      AB9B20BE 
 337      4131B9DD 
 337      DB223556 
 338 1015 79AC3EDB 		.ascii	"y\254>\333\242\305\352\315\273\216\325\006\367X\275"
 338      A2C5EACD 
 338      BB8ED506 
 338      F758BD
 339 1024 79DB5819 		.ascii	"y\333X\031\334\332 \334\212\320\274:\244y\205\031\232"
 339      DCDA20DC 
 339      8AD0BC3A 
 339      A4798519 
 339      9A
 340 1035 60F4EACB 		.ascii	"`\364\352\313&\371\265\263\011\250\335$\025\323\236"
 340      26F9B5B3 
 340      09A8DD24 
 340      15D39E
 341 1044 6A24B7CC 		.ascii	"j$\267\314\014\202m\031\202{3\224\342\206\014k\\9\335"
 341      0C826D19 
 341      827B3394 
 341      E2860C6B 
 341      5C39DD
 342 1057 468386C3 		.ascii	"F\203\206\303'['\214\316\220=m\221\010\207\262x\015"
 342      275B278C 
 342      CE903D6D 
 342      910887B2 
 342      780D
 343 1069 3BB8123E 		.ascii	";\270\022>\223:!\265\033\2449\312\305\241\\\3340\212"
 343      933A21B5 
 343      1BA439CA 
 343      C5A15CDC 
 343      308A
 344 107b CA8757D7 		.ascii	"\312\207W\327G9I\002\204\034)=\220\322H\207\355A\231"
 344      47394902 
 344      841C293D 
 344      90D24887 
 344      ED4199
 345 108e 8D74F84F 		.ascii	"\215t\370O+Y\035\217\340W\024\020\275\300\301\224\257"
 345      2B591D8F 
 345      E0571410 
 345      BDC0C194 
 345      AF
ARM GAS  /tmp/ccxhJYru.s 			page 28


 346 109f D519D718 		.ascii	"\325\031\327\030\314\326b\332\273\203\316\301\252\316"
 346      CCD662DA 
 346      BB83CEC1 
 346      AACE
 347 10ad CA7A9827 		.ascii	"\312z\230'\202:\234\203\232_W\332Q\315H\371\273L?\341"
 347      823A9C83 
 347      9A5F57DA 
 347      51CD48F9 
 347      BB4C3FE1 
 348 10c1 DD96BBDE 		.ascii	"\335\226\273\336\235&\367\335\331\362\233\231\274\025"
 348      9D26F7DD 
 348      D9F29B99 
 348      BC15
 349 10cf EC68E792 		.ascii	"\354h\347\222\311\333(\342o\237\311\333\265L\336z\347"
 349      C9DB28E2 
 349      6F9FC9DB 
 349      B54CDE7A 
 349      E7
 350 10e0 4C6E125B 		.ascii	"Ln\022[\276]\227\311W\233\344/>;`\205$\227\253\225Q"
 350      BE5D97C9 
 350      579BE42F 
 350      3E3B6085 
 350      2497AB95 
 351 10f5 E272F252 		.ascii	"\342r\362R\223\354\3176\003_\344o\264\372\233\335\323"
 351      93ECCF36 
 351      035FE46F 
 351      B4FA9BDD 
 351      D3
 352 1106 A09D8D06 		.ascii	"\240\235\215\006\217\240\350\310\310\203\270\211\260"
 352      8FA0E8C8 
 352      C883B889 
 352      B0
 353 1113 119D71BE 		.ascii	"\021\235q\276\231\216\334S?\313I\222l4\021\347;\350"
 353      998EDC53 
 353      3FCB4992 
 353      6C3411E7 
 353      3BE8
 354 1125 C813F585 		.ascii	"\310\023\365\205\370m0\232}\033\214\341\333\320\260"
 354      F86D309A 
 354      7D1B8CE1 
 354      DBD0B0
 355 1134 4B6EC3CE 		.ascii	"Kn\303\316\273\336\206]\356\333\260\363\267\213d\327"
 355      BBDE865D 
 355      EEDBB0F3 
 355      B78B64D7 
 356 1144 6D8A64FB 		.ascii	"m\212d\373V\031\260\335`m\262\261Hvo\215\024\324=@\215"
 356      5619B0DD 
 356      606DB2B1 
 356      48766F8D 
 356      14D43D40 
 357 1159 BF53E98F 		.ascii	"\277S\351\217\025\277\015\036\372Tvt\361n!\213\267\321"
 357      15BF0D1E 
 357      FA547674 
 357      F16E218B 
 357      B7D1
 358 116b EEA329AA 		.ascii	"\356\243)\252\032\263g\365\\'I\206\015\302\371n:\246"
 358      1AB367F5 
ARM GAS  /tmp/ccxhJYru.s 			page 29


 358      5C274986 
 358      0DC2F96E 
 358      3AA6
 359 117d 717521EA 		.ascii	"qu!\352\031\307S\035Z\253,\013\373\305\310g,$s\212\215"
 359      19C7531D 
 359      5AAB2C0B 
 359      FBC5C867 
 359      2C24738A 
 360 1192 E65A4E9C 		.ascii	"\346ZN\234y\032\354\033\313J\342\001\3367\340u\012\274"
 360      791AEC1B 
 360      CB4AE201 
 360      DE37E075 
 360      0ABC
 361 11a4 924E93F2 		.ascii	"\222N\223\362\213\353\276\326~\322T\027\234\200Q\300"
 361      8BEBBED6 
 361      7ED25417 
 361      9C8051C0 
 362 11b4 AE283135 		.ascii	"\256(155m\310L\373T\373\370G\322f\227\246\315,,N+\266"
 362      356DC84C 
 362      FB54FBF8 
 362      47D26697 
 362      A6CD2C2C 
 363 11cb 4F4D2B2D 		.ascii	"OM+-\2337\275pViZ\321\3149\363\354%e3R\213\210\327\214"
 363      9B37BD70 
 363      56695AD1 
 363      CC39F3EC 
 363      25653352 
 364 11e3 5965A959 		.ascii	"Ye\251Yl\354\313\306l6\346\370\330g\224\315\232\223"
 364      6CECCBC6 
 364      6C36E6F8 
 364      D86794CD 
 364      9A93
 365 11f5 9ADECB13 		.ascii	"\232\336\313\023\206t\0342p\350\215C\037\317\322\324"
 365      86741C32 
 365      70E88D43 
 365      1FCFD2D4 
 366 1205 F44C1CB2 		.ascii	"\364L\034\262p\350K\347\320RZd\231a/.\236>\217\332}"
 366      70E84BE7 
 366      D0525A64 
 366      99612F2E 
 366      9E3E8FDA 
 367 121a E7CC9B5E 		.ascii	"\347\314\233^d/\265\317.\361Z`\237V6\223\226x\333K\247"
 367      642FB5CF 
 367      2EF15A60 
 367      9F563693 
 367      9678DB4B 
 368 122f 14CF2EB1 		.ascii	"\024\317.\261Y\213\247\317(\233RXl\267\225\320b\013"
 368      598BA7CF 
 368      289B5258 
 368      6CB795D0 
 368      620B
 369 1241 E89F3A7F 		.ascii	"\350\237:\177\206wB\311\374\342\342D\362\377\332v\010"
 369      867742C9 
 369      FCE2E244 
 369      F2FFDA76 
 369      08
 370 1252 EF       		.ascii	"\357"
ARM GAS  /tmp/ccxhJYru.s 			page 30


 371              		.text
 372              		.section	.gnu.lto_chprintf.4dbd8987f03ee6e1,"",%progbits
 373 0000 789C8D51 		.ascii	"x\234\215QKK\002Q\024>\347\316L\017[\330\242\215\264"
 373      4B4B0251 
 373      143EE7CE 
 373      4C0F5BD8 
 373      A28DB4
 374 0013 11774138 		.ascii	"\021wA8\233\326m\372\001-R\260U\214\243\216\0274\305"
 374      9BD66DFA 
 374      012D52B0 
 374      558CA38E 
 374      1734C5
 375 0026 994DB5F0 		.ascii	"\231M\265\360*\026\022\004\322*jS\021m[\264t\321\020"
 375      2A161204 
 375      D22A6A53 
 375      116D5BB4 
 375      74D110
 376 0039 04858888 		.ascii	"\004\205\210\210\177@jU\012\265\016j\272wF\215\036P"
 376      7F406A55 
 376      0AB50E6A 
 376      BA77468D 
 376      1E50
 377 004b 17E6DE33 		.ascii	"\027\346\3363\3379\337\371\316\203\000\201\357g\226"
 377      DF39DFF9 
 377      CE830081 
 377      EF6796
 378 005a 7F531C5E 		.ascii	"\177S\034^\024?2 7\221\240\304o\011\221C\010E\"aqU\330"
 378      143F3220 
 378      3791A0C4 
 378      6F099143 
 378      08452261 
 379 0071 2085E084 		.ascii	" \205\340\204\261\203\356M\3750\260{\\\256\261w\307"
 379      B183EE4D 
 379      FD30B07B 
 379      5CAEB177 
 379      C7
 380 0082 412A5C3A 		.ascii	"A*\\:B\214[\030t\037\"\177\025\0214\273f_u\366\002\354"
 380      428C5B18 
 380      741F227F 
 380      151134BB 
 380      665F75F6 
 381 0098 93261198 		.ascii	"\223&\021\230\307\1770Y\315nw\032\310\366Y\351\305q"
 381      C77F3059 
 381      CD6E771A 
 381      C8F659E9 
 381      C571
 382 00aa FC5C8F80 		.ascii	"\374\\\217\200\372\027\361\202\330\367\216\323?z{x\306"
 382      FA17F182 
 382      D8F78ED3 
 382      3F7A7B78 
 382      C6
 383 00bb 190531CB 		.ascii	"\031\0051\313Y\374\342\235ix\206!\336\252[7(P\341\002"
 383      59FCE29D 
 383      69788621 
 383      DEAA5B37 
 383      2850E102 
 384 00cf 410D4F39 		.ascii	"A\015O9\350\271\334n\370\211\270wT\214Dj\301v\367\211"
ARM GAS  /tmp/ccxhJYru.s 			page 31


 384      E8B9DC6E 
 384      F889B877 
 384      548C446A 
 384      C176F789 
 385 00e3 6A788E0A 		.ascii	"jx\216\012\307\266\340\225U\3314EYw\207$\220M\212\312"
 385      C7B6E095 
 385      55D93445 
 385      59778724 
 385      904D8ACA 
 386 00f7 308B1B15 		.ascii	"0\213\033\025\363&Cq\014\240\005;\335\336\243\317\363"
 386      F3264371 
 386      0CA0053B 
 386      DDDEA3CF 
 386      F3
 387 0108 18288D12 		.ascii	"\030(\215\022\214\353\350\355\304@4\220x\011(N\010J"
 387      8CEBE8ED 
 387      C4403490 
 387      7809284E 
 387      084A
 388 011a A5DBFFA9 		.ascii	"\245\333\377\2518\251\213\345\374\256H\321\007\320\204"
 388      38A98BE5 
 388      FCAE48D1 
 388      07D084
 389 0129 F2DD6D9D 		.ascii	"\362\335m\235\014\245dC\3047\341\2727\200<\306\002\\"
 389      0CA56443 
 389      C437E1BA 
 389      37803CC6 
 389      025C
 390 013b B2AAD8C1 		.ascii	"\262\252\330\301`\\QaI\015(q\345\204(\251\0158J\341"
 390      605C5161 
 390      490D2871 
 390      E58428A9 
 390      0D384AE1 
 391 014f 854444AB 		.ascii	"\205DD\253\242\330\271pX]J\3238]^Qs\246\232\3262j\206"
 391      A2D8B970 
 391      585D4AD3 
 391      385D5E51 
 391      73A69AD6 
 392 0166 C655D32A 		.ascii	"\306U\323*$\265\254\251\352\351|\201\256[\251\260\016"
 392      24B5ACA9 
 392      EAE97C81 
 392      AE5BA9B0 
 392      0E
 393 0177 44CBFB53 		.ascii	"D\313\373S\271BV\263\254db-\276a%\315\017\235D\210\000"
 393      B94256B3 
 393      AC64622D 
 393      BE6125CD 
 393      0F9D4488 
 394              		.text
 395              		.section	.gnu.lto_chsnprintf.4dbd8987f03ee6e1,"",%progbits
 396 0000 789C8D54 		.ascii	"x\234\215T\335K\024Q\024?\347\336\331\231\3752-\353"
 396      DD4B1451 
 396      143FE7DE 
 396      D999FD32 
 396      2DEB
 397 0012 C19EC437 		.ascii	"\301\236\3047+\\\210\352\017\250\227\350\245\207\024"
 397      2B5C88EA 
ARM GAS  /tmp/ccxhJYru.s 			page 32


 397      0FA897E8 
 397      A58714
 398 0021 EA49C6C9 		.ascii	"\352I\306\311\326\241\365\003w+\260\007gu-)\004\011"
 398      D6A1F503 
 398      772BB007 
 398      67752D29 
 398      0409
 399 0033 31FB78D0 		.ascii	"1\373x\320\0071\021\023\222P\360e\213\036\264E\304\036"
 399      07311113 
 399      9250F065 
 399      8B1EB445 
 399      C41E
 400 0045 2CA56829 		.ascii	",\245h)\202\302 \243B\224h;\367\316\316\354\372\021"
 400      82C220A3 
 400      4294683B 
 400      F7CECEEC 
 400      FA11
 401 0057 ED853977 		.ascii	"\355\2059w\316\275\277\337\371\235{\316\235a\300`\373"
 401      CEBDBFDF 
 401      F99D7BCE 
 401      9D61C060 
 401      FB
 402 0068 38434FCC 		.ascii	"8CO\314\003pZ8>@B c\034\300b\012\031\205#m\242\"\255"
 402      03705A38 
 402      3E404220 
 402      631CC062 
 402      0A198523 
 403 0080 87A9625D 		.ascii	"\207\251b]\023\353*\322\204\032z\311z\021\211\214\320"
 403      13EB2AD2 
 403      841A7AC9 
 403      7A11898C 
 403      D0
 404 0091 CEB8E251 		.ascii	"\316\270\342Q5/\266_@\031\256\002\206,\353N\272k\375"
 404      352FB65F 
 404      4019AE02 
 404      862CEB4E 
 404      BA6BFD
 405 00a4 25DEEB4B 		.ascii	"%\336\353K&\006\255\337\231\014\242)6\015\204\363\364"
 405      2606ADDF 
 405      990CA229 
 405      360D84F3 
 405      F4
 406 00b5 86E57212 		.ascii	"\206\345r\022Z\371\303&&g\356\366\224\335\032\354\350"
 406      5AF9C326 
 406      2667EEF6 
 406      94DD1AEC 
 406      E8
 407 00c6 B5FE10AF 		.ascii	"\265\376\020\257`\232\365\344\221\345\223Z\334D^\020"
 407      609AF5E4 
 407      91E5935A 
 407      DC445E10 
 408 00d6 6720B9F8 		.ascii	"g \271\370zn\010\211\033_\313d\212MT\012\241%{\223\357"
 408      7A6E0889 
 408      1B5FCB64 
 408      8A4D540A 
 408      A1257B93 
 409 00eb 967ACAAC 		.ascii	"\226z\312\254\\\206\036\006G\2600\346\373\376>\314c"
ARM GAS  /tmp/ccxhJYru.s 			page 33


 409      5C861E06 
 409      47B030E6 
 409      FBFE3ECC 
 409      63
 410 00fc AA0C4239 		.ascii	"\252\014B9\346\240=\263\375\273\226\345\373\322\303"
 410      E6A03DB3 
 410      FDBB96E5 
 410      FBD2C3
 411 010b 7C518DC1 		.ascii	"|Q\215\301\321BD\211\371\243\177K\272^\006'\012b\366"
 411      D1424489 
 411      F9A37F4B 
 411      BA5E0627 
 411      0A62F6
 412 011e 267F2DA5 		.ascii	"&\177-\245\362\313\303\340\344\377\210\023,\371!\223"
 412      F2CBC3E0 
 412      E4FF8813 
 412      2CF92193 
 413 012e 79FB74E3 		.ascii	"y\373t\343\343\027<P\204\240\343\030V\000\303F\004\236"
 413      E3173C50 
 413      84A0E318 
 413      5600C346 
 413      049E
 414 0140 7594ECEC 		.ascii	"u\224\354\354\241ET\311\031%G#\207y\311\031'\307\007"
 414      A14554C9 
 414      19254723 
 414      8779C919 
 414      27C707
 415 0153 D476BF30 		.ascii	"\324v\2770\0012<\010\2625\340\201\004%U\256\3430at\034"
 415      01323C08 
 415      B235E081 
 415      042555AE 
 415      E3306174 
 416 0168 917654DA 		.ascii	"\221vT\3321i\005W\266\220F\265\2645\342j\363YH|}\266"
 416      31690557 
 416      B69046B5 
 416      B435E26A 
 416      F359487C 
 417 017e D1CF759C 		.ascii	"\321\317u\234\240+\035F&2\367\346\247]#\256\014\237"
 417      A02B1D46 
 417      2632F7E6 
 417      A75D23AE 
 417      0C9F
 418 0190 87CEEECE 		.ascii	"\207\316\356\316\365\361J\007\307\035h\206F\261\013"
 418      F5F14A07 
 418      C71D6886 
 418      46B10B
 419 019f 5524B463 		.ascii	"U$\264c\372\3637\346 \225-\021k\304\207\303\027\340"
 419      FAF337E6 
 419      20952D11 
 419      6BC487C3 
 419      17E0
 420 01b1 663AB5AA 		.ascii	"f:\265\252\331\020\200\353\260iu[%&\372\014\371\345"
 420      D91080EB 
 420      B069755B 
 420      2526FA0C 
 420      F9E5
 421 01c3 88953613 		.ascii	"\210\2256\023\375\316A$*\214\2360b6\230\211\001\000"
ARM GAS  /tmp/ccxhJYru.s 			page 34


 421      FDCE4124 
 421      2A8C9E30 
 421      62369889 
 421      0100
 422 01d5 12DAEC9C 		.ascii	"\022\332\354\234y\2549J\252\210Cc\022]\256\034\013\320"
 422      79AC394A 
 422      AA884363 
 422      125DAE1C 
 422      0BD0
 423 01e7 955EB8BC 		.ascii	"\225^\270\274C,h \313\211\0259\265\223(!\243\010\231"
 423      432C6820 
 423      CB891539 
 423      B5932821 
 423      A30899
 424 01fa 3D827E23 		.ascii	"=\202~#\375&\245:*^7@\261!J\003\"55\214\232\035\300"
 424      FD26A53A 
 424      2A5E3740 
 424      B1214A03 
 424      2235358C 
 425 0211 C4124149 		.ascii	"\304\022AI\244\227w*\3565P\371\227\242\211\373\344\211"
 425      A497772A 
 425      EE3550F9 
 425      97A289FB 
 425      E489
 426 0223 5606E8E7 		.ascii	"V\006\350\347\340h\371\016\303!:\257}\226:t\2128\013"
 426      E068F90E 
 426      C3213AAF 
 426      7D963A74 
 426      8A380B
 427 0236 2F3EC58B 		.ascii	"/>\305\213\\P\030\335\337\3302 \365\206\277\235\032"
 427      5C5018DD 
 427      DFD83220 
 427      F586BF9D 
 427      1A
 428 0247 A659517E 		.ascii	"\246YQ~N\241(\271jweez\375\225\033\332\277{h\352\363"
 428      4EA128B9 
 428      6A776565 
 428      7AFD951B 
 428      DABF7B68 
 429 025d 6DF73204 		.ascii	"m\3672\004d\315\3752\257\3515\277\275\374\000\356\307"
 429      64CDFD32 
 429      AFE935BF 
 429      BDFC00EE 
 429      C7
 430 026e A9C8C74D 		.ascii	"\251\310\307M,%\204(\224]\004\361V\232k\263fk\316\015"
 430      2C258428 
 430      945D04F1 
 430      569A6BB3 
 430      666BCE0D 
 431 0282 6C1E74C2 		.ascii	"l\036t\302\005\303\242u\363\360|5{9\354\002\034\203"
 431      05C3A275 
 431      F3F07C35 
 431      7B39EC02 
 431      1C83
 432 0294 49AB5BFC 		.ascii	"I\253[\374+`\333\346H\336\246\352\006\246\020<\005q"
 432      2B60DBE6 
 432      48DEA6EA 
ARM GAS  /tmp/ccxhJYru.s 			page 35


 432      06A6103C 
 432      0571
 433 02a6 9A2E0AE5 		.ascii	"\232.\012\345Ep\217\024\264!\325\342\016\211\212TVU"
 433      45708F14 
 433      B421D5E2 
 433      0E898A54 
 433      5655
 434 02b8 854E3598 		.ascii	"\205N5\230u\346\331s\241\346h\250A\217\204\"f](\032"
 434      75E6D973 
 434      A1E668A8 
 434      418F8422 
 434      665D281A 
 435 02cc 6BADD71B 		.ascii	"k\255\327\033\243!\243\241\245\325l\212]\2522\200\351"
 435      A321A3A1 
 435      A5D56C8A 
 435      5DAA3280 
 435      E9
 436 02dd 2DAC31CA 		.ascii	"-\2541\312i%\0205\333\352k\2575\3276]\211\250\255\365"
 436      69251035 
 436      DBEA6BAF 
 436      35D7365D 
 436      89A8ADF5 
 437 02f1 B1AB7AE4 		.ascii	"\261\253z\344/\364%O\264"
 437      2FF4254F 
 437      B4
 438              		.text
 439              		.section	.gnu.lto_.symbol_nodes.4dbd8987f03ee6e1,"",%progbits
 440 0000 789C4DCC 		.ascii	"x\234M\314;\012\302P\020\205\3413\347\346\261\014\327"
 440      3B0AC250 
 440      1085E133 
 440      E7E6B10C 
 440      D7
 441 0011 E64A2628 		.ascii	"\346J&(H\312\370\356\315\002\004\005\013+\215`i\243"
 441      48CAF8EE 
 441      CD020405 
 441      0B2B8D60 
 441      69A3
 442 0023 582B692D 		.ascii	"X+i-\004;!\342\315\315\3058\3157\177s\010\342\011\177"
 442      043B21E2 
 442      CDCDC538 
 442      CD377F73 
 442      08E2097F 
 443 0037 CCA84076 		.ascii	"\314\250@v\002T/i\227C\252\374\345\210J\237\327T8\246"
 443      02542F69 
 443      9743AAFC 
 443      E5884A9F 
 443      D75438A6 
 444 004b 1A9F479B 		.ascii	"\032\237G\233\023j\320\246\314\250a\223I\"2\245Fm\315"
 444      136AD0A6 
 444      CCA86193 
 444      492232A5 
 444      466DCD
 445 005e A9F1AF8C 		.ascii	"\251\361\257\214\000\275\333G\014\005\305{W\031\367"
 445      00BDDB47 
 445      0C05C57B 
 445      5719F7
 446 006d E4FBCA04 		.ascii	"\344\373\312\004\304y\360\350X\326K\237\253\306\327"
ARM GAS  /tmp/ccxhJYru.s 			page 36


 446      C479F0E8 
 446      58D64B9F 
 446      ABC6D7
 447 007c A671BDB5 		.ascii	"\246q\275\265\032\023\241_\017\030b\341\014q\250\015"
 447      1A13A15F 
 447      0F1862E1 
 447      0C71A80D 
 448 008c 6294CE08 		.ascii	"b\224\316\010\371\275\226(\234!J+\276n#P\263"
 448      F9BD9628 
 448      9C214A2B 
 448      BE6E2350 
 448      B3
 449              		.text
 450              		.section	.gnu.lto_.refs.4dbd8987f03ee6e1,"",%progbits
 451 0000 789C6362 		.ascii	"x\234cb`b`d\200\002\000\000F\000\006"
 451      60626064 
 451      80020000 
 451      460006
 452              		.text
 453              		.section	.gnu.lto_.decls.4dbd8987f03ee6e1,"",%progbits
 454 0000 789CC559 		.ascii	"x\234\305Yk\220\024\325\025\276\267\347\315N\026\244"
 454      6B9014D5 
 454      15BEB7E7 
 454      CD4E16A4 
 455 0010 7C10928A 		.ascii	"|\020\222\212CJ4\212\273\023\010I\361\303\302D\252\000"
 455      434A348A 
 455      BB130849 
 455      F1C3C244 
 455      AA00
 456 0022 AB448C88 		.ascii	"\253D\214\210Z\3461\364\316\364\356t2\217e\246\0274"
 456      5AE631F4 
 456      CEF4EE74 
 456      328F65A6 
 456      1734
 457 0034 7F6C1621 		.ascii	"\177l\026!F,\\\240d\021\",,T\305\002\004\226\310\022"
 457      462C5CA0 
 457      6411222C 
 457      2C54C502 
 457      0496C812 
 458 0048 11D204B2 		.ascii	"\021\322\004\262<\004\2015b\320@M\304 /\2232\376\010"
 458      3C048135 
 458      62D0404D 
 458      C4202F93 
 458      32FE08
 459 005b 446072EE 		.ascii	"D`r\356\355\3333\335\275}gz6e\322U\247\347v\367y\335"
 459      EDDB33DD 
 459      BD7D677A 
 459      3665D255 
 459      A7E776F7 
 460 0071 EF9C7BFB 		.ascii	"\357\234{\373\234\036\001\011\350\210\200P\021\216S"
 460      9C1E0109 
 460      E8888050 
 460      118E53
 461 0080 DF4068A4 		.ascii	"\337@h\244\027!?Bh\"*\037A\240\265@;\2004\240\341\030"
 461      17213F42 
 461      68222A1F 
 461      41A0B540 
ARM GAS  /tmp/ccxhJYru.s 			page 37


 461      3B8034A0 
 462 0096 F880EE04 		.ascii	"\370\200\356\004\272\013\350[\030\0158\010\177\200Q"
 462      BA0BE85B 
 462      180D3808 
 462      7F8051
 463 00a5 3D501868 		.ascii	"=P\030h=P7\020\230\2406\310\201\031\257\017h3\320\026"
 463      3D503710 
 463      98A036C8 
 463      8119AF0F 
 463      6833D016 
 464 00b9 A0ED40DB 		.ascii	"\240\355@\333\200&\333\364\356`r\335&\235S\260~o\035"
 464      8026DBF4 
 464      EE6072DD 
 464      269D53B0 
 464      7E6F1D
 465 00cc E31118DF 		.ascii	"\343\021\030\337Zf\347-\240\335@{\200\246\332\364\221"
 465      5A66E72D 
 465      A0DD407B 
 465      80A6DAF4 
 465      91
 466 00dd B944808A 		.ascii	"\271D\200\212&}D\3460\320E\346\357\375\314^\200\371"
 466      267D44E6 
 466      30D045E6 
 466      EFFDCC5E 
 466      80F9
 467 00ef F820B3F7 		.ascii	"\370 \263\367\020\326\235'?\373\201\366\001=\014\027"
 467      10D69D27 
 467      3FFB81F6 
 467      013D0C17 
 468 00ff 6FC3EF25 		.ascii	"o\303\357%\240\3510\276\217\341\370\010\214\177\010"
 468      A0E930BE 
 468      8FE1F808 
 468      8C7F08
 469 010e F428D063 		.ascii	"\364(\320c@3\201z\341\376\343\360\373\004\220\007\306"
 469      4033817A 
 469      E1FEE3F0 
 469      FB049007 
 469      C6
 470 011f 87802E90 		.ascii	"\207\200.\220\371\2609hl\036\304\247\257\000O\035\320"
 470      F9B03968 
 470      6C1EC4A7 
 470      AF004F1D 
 470      D0
 471 0130 93404381 		.ascii	"\223@C\201\236\002\372\021\320\217\201~\002\364S\240"
 471      9E02FA11 
 471      D08F817E 
 471      02F453A0 
 472 0140 18D02C20 		.ascii	"\030\320, \3216G\022\253:6/c\216\002\334k\002j\006\212"
 472      D1364712 
 472      AB3A362F 
 472      638E02DC 
 472      6B026A06 
 473 0155 03B500ED 		.ascii	"\003\265\000\355\205\373I\370\225\231\274\227\311\222"
 473      85FB49F8 
 473      9599BC97 
 473      C992
 474 0163 F8125FEE 		.ascii	"\370\022_\356d~\336\006\277#\200~n\263C\362\341f\206"
ARM GAS  /tmp/ccxhJYru.s 			page 38


 474      647EDE06 
 474      BF23807E 
 474      6EB343F2 
 474      E16686
 475 0176 9161C788 		.ascii	"\221a\307\2105\261w/\3261\352\007J\301x\014\320\335"
 475      35B1772F 
 475      D631EA07 
 475      4AC1780C 
 475      D0DD
 476 0188 55FC58AF 		.ascii	"U\374X\257C\214&b]\357H\226kf\237\210\376o\302o\004"
 476      438C2662 
 476      5DEF4896 
 476      6B669F88 
 476      FE6FC26F 
 477 019d E80EA0B4 		.ascii	"\350\016\240\264\315\257\333\321jU;^\330\260\354\245"
 477      CDAFDBD1 
 477      6A553B5E 
 477      D8B0ECA5 
 478 01ad AFAA5DED 		.ascii	"\257\252]\355Z\261\370\373\357\243[\321\313*\034]\013"
 478      5AB1F8FB 
 478      EFA35BD1 
 478      CB2A1C5D 
 478      0B
 479 01be 55152B75 		.ascii	"U\025+u\350\005Um'\027S\017\326\207\320\363\344\242"
 479      E805556D 
 479      2717530F 
 479      D687D0F3 
 479      E4A2
 480 01d0 B0411D31 		.ascii	"\260A\0351\202\340-b\270\025\244\203p\210\3722\032\255"
 480      82E02D62 
 480      B815A483 
 480      7088FA32 
 480      1AAD
 481 01e2 07D10E55 		.ascii	"\007\321\016U\025D\274\036\207 V\367:d?9\364\347\344"
 481      1544BC1E 
 481      872056F7 
 481      3A643F39 
 481      F4E7E4
 482 01f5 20E2FAD8 		.ascii	" \342\372\330\030\025qI{\304\320\356eR\335\270\316P"
 482      18157149 
 482      7BC4D0EE 
 482      6552DDB8 
 482      CE50
 483 0207 C1635987 		.ascii	"\301cY\207o\245#\017M\025&S\272\360\207,\317|\326K\375"
 483      6FA5230F 
 483      4D152653 
 483      BAF0872C 
 483      CF7CD64B 
 484 021c A988677A 		.ascii	"\251\210gzJ\236\012h,F\367\240\327\364\211\255\273\313"
 484      4A9E0A68 
 484      2C46F7A0 
 484      D7F489AD 
 484      BBCB
 485 022e 694277A0 		.ascii	"iBw\240nU]\252\236\220\246\352\326\004\222\311\"^\213"
 485      6E555DAA 
 485      9E90A6EA 
 485      D60492C9 
ARM GAS  /tmp/ccxhJYru.s 			page 39


 485      225E8B
 486 0241 6F77F492 		.ascii	"ow\364\222M\203Juh\257^?\214\325\341\324\266@\262\276"
 486      4D834A75 
 486      68AF5E3F 
 486      8CD5E1D4 
 486      B640B2BE 
 487 0255 921CF14F 		.ascii	"\222\034\361O7\246\255\331\3746\025\363\021\261\247"
 487      37A6ADD9 
 487      FC3615F3 
 487      11B1A7
 488 0264 2A8BF942 		.ascii	"*\213\371B%k\333\314\326fU\267\006\211\2046@\330\265"
 488      256BDBCC 
 488      D66655B7 
 488      06898436 
 488      40D8B5
 489 0277 55570FAE 		.ascii	"UW\017\256\245\222z\010\370r,\014\033\26100\325\264"
 489      A5927A08 
 489      F8722C0C 
 489      1BB13030 
 489      D5B4
 490 0289 5FF7853B 		.ascii	"_\367\205;\346\025\212\3055\021K\236\351Zy\021\355\255"
 490      E6158AC5 
 490      35114B9E 
 490      E95A7911 
 490      EDAD
 491 029b 3DA2B610 		.ascii	"=\242\266\020&\311D7\341{\254\361\272\232`\361\022\361"
 491      26C94437 
 491      E17BACF1 
 491      BA9A60F1 
 491      12F1
 492 02ad EBE0AD88 		.ascii	"\353\340\255\210w\270\011\230\372\012\0113X\025\361"
 492      77B80998 
 492      FA0A0933 
 492      5815F1
 493 02bc D62A52E5 		.ascii	"\326*R\345p\251\357\021!\037\021\352\251\"\3443\241"
 493      70A9EF11 
 493      211F11EA 
 493      A922E433 
 493      A1
 494 02cd AEEEFEF8 		.ascii	"\256\356\376\370\221\251e\310yB\014\247]\003!/\034\327"
 494      91A965C8 
 494      79420CA7 
 494      5D03212F 
 494      1CD7
 495 02df 3E3F0011 		.ascii	">?\000\021_\252^+\026\347{\221\015uo\210\013\372^+\350"
 495      5FAA5E2B 
 495      16E77B91 
 495      0D756F88 
 495      0BFA5E2B 
 496 02f4 969D6038 		.ascii	"\226\235`8ZB\265\370\017\326;\257C\272\021t\024N\034"
 496      5A42B5F8 
 496      0FD63BAF 
 496      43BA1174 
 496      144E1C
 497 0307 7867ACAA 		.ascii	"xg\254\252\006E\274\037\017\0075\313\2615\014U\325\020"
 497      0645BC1F 
 497      0F0735CB 
ARM GAS  /tmp/ccxhJYru.s 			page 40


 497      B1350C55 
 497      D510
 498 0319 3F0E80A8 		.ascii	"?\016\200\250.\244\357.\332\366\276\260\352\325\357"
 498      2EA4EF2E 
 498      DAF6BEB0 
 498      EAD5EF
 499 0328 238B3ACB 		.ascii	"#\213:\3131\012u\221\254\355\355\333\004[\333\037\260"
 499      310A7591 
 499      ACEDEDDB 
 499      045BDB1F 
 499      B0
 500 0339 A3FB8081 		.ascii	"\243\373\200\201\311\262\212\015\323\303h\316l\004o"
 500      C9B28A0D 
 500      D3C368CE 
 500      6C046F
 501 0348 196784CB 		.ascii	"\031g\204\313&\342#4\234G\355^.YH\275<\352\312\313e"
 501      26E22334 
 501      9C47ED5E 
 501      2E5948BD 
 501      3CEACACB 
 502 035d 7D872044 		.ascii	"}\207 Da\213\223\226H\261\255W\177R\021\362\316\305"
 502      618B9396 
 502      48B1AD57 
 502      7F5211F2 
 502      CEC5
 503 036f 273FC7ED 		.ascii	"'?\307\355 #\342~\272\003\367\011V\320\215\004C\346"
 503      2023E27E 
 503      BA03F709 
 503      56D08D04 
 503      43E6
 504 0381 6B8381E8 		.ascii	"k\203\201\350\363\205\312\003R\370\014\345\307\346\204"
 504      F385CA03 
 504      52F80CE5 
 504      C7E684
 505 0390 7D61DE5F 		.ascii	"}a\336_\347\230/\2457\2076bE}\205WGGa\327\362\315c "
 505      E7982FA5 
 505      37873662 
 505      457D8557 
 505      474761D7 
 506 03a8 634CAF1A 		.ascii	"cL\257\032\236\200\210O\341\321p\306V\357Ko\022\366"
 506      9E80884F 
 506      E1D170C6 
 506      56EF4B6F 
 506      12F6
 507 03ba 2211D05E 		.ascii	"\"\021\320^\217\025\000\027\272\2313\333W\257\236@\323"
 507      8F150017 
 507      BA9933DB 
 507      57AF9E40 
 507      D3
 508 03cb F72F14C9 		.ascii	"\367/\024\311w\274v$\261\015\311*\276\324\302\313\203"
 508      77BC7624 
 508      B10DC92A 
 508      BED4C2CB 
 508      83
 509 03dc FCFDF20B 		.ascii	"\374\375\362\013\320\014|?\036\270\355\361T\034/\253"
 509      D00C7C3F 
 509      1EB8EDF1 
ARM GAS  /tmp/ccxhJYru.s 			page 41


 509      541C2FAB 
 510 03ec 10D09FE9 		.ascii	"\020\320\237\351\244H\232:\261\263\241E\237%ua\211\357"
 510      A4489A3A 
 510      B1B3A145 
 510      9F257561 
 510      89EF
 511 03fe 1FFB8AAA 		.ascii	"\037\373\212\252=\347\341'\257\356\035\317\233\263."
 511      3DE7E127 
 511      AFEE1DCF 
 511      9BB32E
 512 040d 7348C41F 		.ascii	"sH\304\037T\320r\356\277\207\345#3,gj\206%b\206E\355"
 512      54D072EE 
 512      BF87E523 
 512      332C676A 
 512      86256286 
 513 0423 51D590BF 		.ascii	"Q\325\220\277\312zV]\254\347\256\316O\316{h\016^\246"
 513      CA7A565D 
 513      ACE7AECE 
 513      4FCE7B68 
 513      0E5EA6
 514 0436 39B8D2E7 		.ascii	"9\270\322\347\220\314\256\024\355:y\013\331\220\376"
 514      90CCAE14 
 514      ED3A790B 
 514      D990FE
 515 0445 41D5740D 		.ascii	"A\325t\015VMa\373\231^}M\374\223*\372\215\317\276&\374"
 515      564D61FB 
 515      995E7D4D 
 515      FC932AFA 
 515      8DCFBE26 
 516 045a B635E1B7 		.ascii	"\2665\341\267\3469\\\022KW\310\316\202\237ew\310E\000"
 516      E6395C12 
 516      4B57C8CE 
 516      829F6577 
 516      C84500
 517 046d FDCFE578 		.ascii	"\375\317\345x\231p\211\237\222z\026\272M\251\213\346"
 517      9970899F 
 517      927A16BA 
 517      4DA98BE6 
 518 047d 94EAF1B9 		.ascii	"\224\352\361\271H\251\240Y\0372\247\224\273\225v\271"
 518      48A9A059 
 518      1F32A794 
 518      BB9576B9 
 519 048d C21AF9B7 		.ascii	"\302\032\371\267\303\264\\M\343\252y\032;j\236F\004"
 519      C3B45C4D 
 519      E3AA791A 
 519      3B6A9E46 
 519      04
 520 049e 590F233C 		.ascii	"Y\017#<\">\206G\301\371\257\364|\201\236\257\300\271"
 520      223E8647 
 520      C1F9AFF4 
 520      7C819EAF 
 520      C0B9
 521 04b0 AA3F87CD 		.ascii	"\252?\207\315\376\274I\3759P\373\006\346t\230\313\015"
 521      FEBC49FD 
 521      3950FB06 
 521      E67498CB 
 521      0D
ARM GAS  /tmp/ccxhJYru.s 			page 42


 522 04c1 111FA42F 		.ascii	"\021\037\244/\230Cn\\\332Wvi\220/@\021o\240\346\006"
 522      98436E5C 
 522      DA577669 
 522      902F4011 
 522      6FA0E606 
 523 04d5 D717159D 		.ascii	"\327\027\025\235\366?\267e\332\365K\307\277\276SU\207"
 523      F63FB765 
 523      DAF54BC7 
 523      BFBE5355 
 523      87
 524 04e6 89B85D20 		.ascii	"\211\270] u\332^\177\215u\232\256G\333\366)\216\210"
 524      75DA5E7F 
 524      8D759AAE 
 524      47DBF629 
 524      8E88
 525 04f8 7801D571 		.ascii	"x\001\325q\310o\337\030&\017\267\"=\331Z1\025>\233\243"
 525      C86FDF18 
 525      260FB722 
 525      3DD95A31 
 525      153E9BA3 
 526 050c 7604E96D 		.ascii	"v\004\351m\001}\354\347\366\215SFq\036L.\007\356ya\364"
 526      017DECE7 
 526      F68D5346 
 526      711E4C2E 
 526      07EE7961 
 527 0521 404E5B4B 		.ascii	"@N[K\360w\277SOP\330p\343\274\027V\231W\017\251\200"
 527      F077BF53 
 527      4F50D870 
 527      E3BC1756 
 527      99570FA9 
 528 0536 AE50368D 		.ascii	"\256P6\215[\255\357+5\006K\325\323\244\306/R\261kU\304"
 528      5BADEF2B 
 528      35064BD5 
 528      D3A4C62F 
 528      52B16B55 
 529 054b 8AA67EA2 		.ascii	"\212\246~\242\023z\"l`\257\006*\013\022.\304\332\003"
 529      137A226C 
 529      60AF062A 
 529      0B122EC4 
 529      DA03
 530 055d 55DDB870 		.ascii	"U\335\270p\3010/-\343Q\005)6\375\027\204\001\355A\227"
 530      C1302F2D 
 530      E3510529 
 530      36FD1784 
 530      01ED4197 
 531 0571 A6BDF52E 		.ascii	"\246\275\365.\247#\253\320\033,\023l;\311>sCf\315E\270"
 531      A723ABD0 
 531      1B2C136C 
 531      3BC93E73 
 531      4366CD45 
 532 0586 3B3FE0D8 		.ascii	";?\340\330~\321>j\037m\277^\024H\021\275Tp\203\362\207"
 532      7ED13E6A 
 532      1F6DBF5E 
 532      144811BD 
 532      547083F2 
 533 059b 06CA225E 		.ascii	"\006\312\"^\\E\214y\342\010\026O\212Mq\271#X\037\234"
 533      5C458C79 
ARM GAS  /tmp/ccxhJYru.s 			page 43


 533      E208164F 
 533      8A4D71B9 
 533      23581F9C 
 534 05af AC1DAC55 		.ascii	"\254\035\254Uv\260,\335+\253P\370\340\275\350\014\336"
 534      76B02CDD 
 534      2BAB50F8 
 534      E0BDE80C 
 534      DE
 535 05c0 E944E95B 		.ascii	"\351D\351[C'\345X\311E\241\333\004\336\313\004<\275"
 535      4327E558 
 535      C945A1DB 
 535      04DECB04 
 535      3CBD
 536 05d2 31585545 		.ascii	"1XUE\214z\306\304N\3311\347\213U\302\234'\305\220Zc"
 536      8C7AC6C4 
 536      4ED931E7 
 536      8B55C29C 
 536      27C5905A 
 537 05e7 C5FC09EC 		.ascii	"\305\374\011\354\351\364\222\363\012\257\336\313v\024"
 537      E9F492F3 
 537      0AAFDECB 
 537      7614
 538 05f5 967C7165 		.ascii	"\226|qe\344\212\036\365\271_\2517\212\317b[\014&\336"
 538      E48A1EF5 
 538      B95FA937 
 538      8ACF625B 
 538      0C26DE
 539 0608 C28DC16B 		.ascii	"\302\215\301kB\325f\326\334\343u\225z<\362\325\216\355"
 539      42D566D6 
 539      DCE37595 
 539      7A3CF2D5 
 539      8EED
 540 061a 6E6FF491 		.ascii	"no\364\221\335m\023]\245G\002\216;$_\007qb\213`\353"
 540      DD6D135D 
 540      A547028E 
 540      3B245F07 
 540      71628B60 
 541 062f 115FD53B 		.ascii	"\021_\325;\331-\202\233\036q\333\3025\203\355dO\005"
 541      D92D829B 
 541      1E71DBC2 
 541      3583ED64 
 541      4F05
 542 0641 5C75B2BF 		.ascii	"\\u\262\277\245\221}\303\356\345\027bD\277[\335\307"
 542      A5917DC3 
 542      EEE51762 
 542      44BF5BDD 
 542      C7
 543 0652 EB47C31D 		.ascii	"\353G\303\035\242\336`\210\270\200\015u\203\352,\364"
 543      A2DE6088 
 543      B8800D75 
 543      83EA2CF4 
 544 0662 125A2FCB 		.ascii	"\022Z/\313E|\276fe\021'e\027\251\262\177\271Q\306\257"
 544      457CBE66 
 544      65112765 
 544      17A9B27F 
 544      B951C6AF 
 545 0676 C40C6557 		.ascii	"\304\014eW\251\262k5+\213\330\300+\327C\275\002\251"
ARM GAS  /tmp/ccxhJYru.s 			page 44


 545      A9B26B35 
 545      2B8BD8C0 
 545      2BD743BD 
 545      02A9
 546 0688 8176D2F3 		.ascii	"\201v\322\363\357\350\371M\301E\361\321#\324\225u]\247"
 546      EFE8F94D 
 546      C145F1D1 
 546      23D49575 
 546      5DA7
 547 069a FE6C192C 		.ascii	"\376l\031,\354ZO\037\215\3419\272\265\234\243y^\213"
 547      EC5A4F1F 
 547      8DE139BA 
 547      B59CA379 
 547      5E8B
 548 06ac 3247D8FB 		.ascii	"2G\330\373i\263\333-\270\360\254:\354\372\356\365\251"
 548      69B3DB2D 
 548      B8F0AC3A 
 548      ECFAEEF5 
 548      A9
 549 06bd 1BCF9C60 		.ascii	"\033\317\234`wR\366\231\033e\303\034<s:\314\013]\304"
 549      7752F699 
 549      1B65C31C 
 549      3C733ACC 
 549      0B5DC4
 550 06d0 5B6929B2 		.ascii	"[i)\262\215\006s\027=\357\246\347=\364\254\271\011\357"
 550      8D067317 
 550      3DEFA6E7 
 550      3DF4ACB9 
 550      09EF
 551 06e2 46C15E5B 		.ascii	"F\301^[\226\372]\356k\304\251\361\205b\306\266m\031"
 551      96FA5DEE 
 551      6BC4A9F1 
 551      8562C6B6 
 551      6D19
 552 06f4 0EFFD1BA 		.ascii	"\016\377\321\272\361F\320\032R\220-8\033l\367\322m\325"
 552      F146D01A 
 552      52902D38 
 552      1B6CF7D2 
 552      6DD5
 553 0706 F8DC5B3A 		.ascii	"\370\334[:l\2359\371\344\316\363\376@\331{]\257\326"
 553      6C9D39F9 
 553      E4CEF3FE 
 553      40D97B5D 
 553      AFD6
 554 0718 B3501584 		.ascii	"\263P\025\204\222\336\035f\275A\364KZ'/P\347\341\331"
 554      92DE1D66 
 554      BD41F44B 
 554      5A272F50 
 554      E7E1D9
 555 072b 15BECDB0 		.ascii	"\025\276\315\260\377\030\016\011A\230\325\202 \267X"
 555      FF180E09 
 555      4198D582 
 555      20B758
 556 073a 240C06B4 		.ascii	"$\014\006\264\372\330\030\201\310M\250\203n\211+\352"
 556      FAD81881 
 556      C84DA883 
 556      6E892BEA 
ARM GAS  /tmp/ccxhJYru.s 			page 45


 557 074a F5FA9A59 		.ascii	"\365\372\232Y\233eX\0133%G\204\233\350\310\322$S\016"
 557      9B65580B 
 557      33254784 
 557      9BE8C8D2 
 557      24530E
 558 075d DE9C8F0A 		.ascii	"\336\234\217\012\345\032>\034*\017\014$J\360iT\323\245"
 558      E51A3E1C 
 558      2A0F0C24 
 558      4AF06954 
 558      D3A5
 559 076f 0AF0995A 		.ascii	"\012\360\231ZH\033\350\304-\236\3241\201'U\351;\373"
 559      481BE8C4 
 559      2D9ED431 
 559      812755E9 
 559      3BFB
 560 0781 718E1407 		.ascii	"q\216\024\007\250\011\206|\200\311\367\327\014\324\273"
 560      A809867C 
 560      80C9F7D7 
 560      0CD4BB
 561 0790 1CA08C3F 		.ascii	"\034\240\214?@yr'\270\363\363\363\215\375\211+\324["
 561      40797227 
 561      B8F3F3F3 
 561      8DFD892B 
 561      D45B
 562 07a2 2100EF71 		.ascii	"!\000\357q\245\002|S'\271B>\276\320\373\266\225\322"
 562      A5027C53 
 562      27B9423E 
 562      BED0FBB6 
 562      95D2
 563 07b4 A1ED19AA 		.ascii	"\241\355\031\252\257\023\001-\012\032m\201\221\332C"
 563      AF13012D 
 563      0A1A6D81 
 563      91DA43
 564 07c3 7069419D 		.ascii	"piA\235>\326\336Ej\023\266\2424"
 564      3ED6DE45 
 564      6A13B6A2 
 564      34
 565 07d0 F38A622C 		.ascii	"\363\212b,;\027\253C\204\312\034/U\343\330Z\225cEU\216"
 565      3B17AB43 
 565      84CA1C2F 
 565      55E3D85A 
 565      95634555 
 566 07e5 1B8BAA71 		.ascii	"\033\213\252q,\257\352\351\207\375j\2043\333J\237F*"
 566      2CAFEAE9 
 566      87FD6A84 
 566      33DB4A9F 
 566      462A
 567 07f7 948767AD 		.ascii	"\224\207g\255\345a\030-2\207l\262\363k\201\010\376M"
 567      E561182D 
 567      32876CB2 
 567      F36B8108 
 567      FE4D
 568 0809 0823DBC1 		.ascii	"\010#\333\301c\375\210\233\022\355\234\367\016\335\347"
 568      63FD889B 
 568      12ED9CF7 
 568      0EDDE7
 569 0818 B9527B2B 		.ascii	"\271R{+\344\354'\034)\367\210\\\2607-d\246\256>\026"
ARM GAS  /tmp/ccxhJYru.s 			page 46


 569      E4EC271C 
 569      29F7885C 
 569      B0372D64 
 569      A6AE3E16 
 570 082c 9D1FB0DF 		.ascii	"\235\037\260\337\237Yf\336\357I\337\345\034/\275L\347"
 570      9F5966DE 
 570      EF49DFE5 
 570      1C2FBD4C 
 570      E7
 571 083d E9BD3C40 		.ascii	"\351\275<@o\177\247Y\357J\263^twcctRRn\222\247\317\210"
 571      6F7FA759 
 571      EF4AB35E 
 571      74776363 
 571      7452526E 
 572 0855 66F3D1A4 		.ascii	"f\363\321\244\230\212\246\344\246h^\311Ib:\037\215'"
 572      988AA6E4 
 572      A6685EC9 
 572      49623A1F 
 572      8D27
 573 0867 5B737246 		.ascii	"[srFin\214#o<)\346\276\226\312fZbJ6\006\0142\214\346"
 573      696E8C23 
 573      6F3C29E6 
 573      BE96CA66 
 573      5A624A36 
 574 0880 CA4A3296 		.ascii	"\312J2\226\220\347\310\371l\316?\345\341\231\221I\010"
 574      90E7C8F9 
 574      6CCE3FE5 
 574      E1999149 
 574      08
 575 0891 B77A326D 		.ascii	"\267z2mi_NL\310O\007\330\243@<\031K)Yq\264\325ZN\211"
 575      695F4E4C 
 575      C84F07D8 
 575      A3403C19 
 575      4B295971 
 576 08aa CA9978AA 		.ascii	"\312\231x\252-!\201!f\2621\211n~@\314K3\244\331mRF\221"
 576      2D218121 
 576      66B23189 
 576      6E7E40CC 
 576      4B33A4D9 
 577 08c2 C5D40CFA 		.ascii	"\305\324\014\372\3406\247\233\217O{l\036\216f\232\363"
 577      E036A79B 
 577      8F4F7B6C 
 577      1E8E669A 
 577      F3
 578 08d3 84BE1B4D 		.ascii	"\204\276\033Mf\323R4'\345%1\027O\302\\r\211\271bN\212"
 578      66D35234 
 578      27E52531 
 578      174FC25C 
 578      7289B962 
 579 08e9 8AB9F4B8 		.ascii	"\212\271\364\270hK<\336\000\203\006)\335$%\022R\242"
 579      684B3CDE 
 579      00830629 
 579      DD242512 
 579      52A2
 580 08fb 742393CD 		.ascii	"t#\223\315H\015\222\330$7\214\217Mh\030\367\355\261"
 580      480D92D8 
 580      24378C8F 
ARM GAS  /tmp/ccxhJYru.s 			page 47


 580      4D6818F7 
 580      EDB1
 581 090d E3678FA3 		.ascii	"\343g\217\243\030\000C\324\302\020\035\3378\241q|\311"
 581      180043D4 
 581      C2101DDF 
 581      38A1717C 
 581      C9
 582 091e E5BC027A 		.ascii	"\345\274\002z\232\301_\177^\376\205\024S\362_\206#V"
 582      9AC15F7F 
 582      5EFE8514 
 582      53F25F86 
 582      2356
 583 0930 074CA621 		.ascii	"\007L\246!*`:\320\006\277\023b\312\374/\005\005g\343"
 583      2A603AD0 
 583      06BF1362 
 583      CAFC2F05 
 583      0567E3
 584 0943 69319E94 		.ascii	"i1\236\2243R4\006\263\027\333RJLy\246U\"q\013\305b\314"
 584      33523406 
 584      B317DB52 
 584      4A4C79A6 
 584      5522710B 
 585 095a 1DDFDC9C 		.ascii	"\035\337\334\234\254H^\010Q\342{\003B\336\232\315\001"
 585      AC485E08 
 585      51E27B03 
 585      42DE9ACD 
 585      01
 586 096b 563F7874 		.ascii	"V?xt\332\244iOG\343\331t\253\234\222r\371\350\224I\223"
 586      DAA4694F 
 586      47E3D974 
 586      AB9C9272 
 586      F9E89449 
 587 0980 200B0C5D 		.ascii	" \013\014]\276t\036\362,\000\352\2763.\246\200f6\362"
 587      BE741EF2 
 587      2C00EABE 
 587      332EA680 
 587      6636F2
 588 0993 B4B6299E 		.ascii	"\264\266)\236\026I\361\314I+\377\327\320\213\271\026"
 588      1649F1CC 
 588      492BFFD7 
 588      D08BB916 
 589 09a3 82FF1C31 		.ascii	"\202\377\0341\226\222\363J},\326\222i\213\307\330e\335"
 589      9692F34A 
 589      7D2CD692 
 589      698BC7D8 
 589      65DD
 590 09b5 7D4D6D72 		.ascii	"}MmrJi\2203\023\011*\354n(\236\234\243/'\017\254+Os"
 590      4A699033 
 590      13092AEC 
 590      6E289E9C 
 590      A32F270F 
 591 09cd 5A11C4D6 		.ascii	"Z\021\304\326\240\261\304\206\300\022\310\260\307\260"
 591      A0B1C486 
 591      C012C8B0 
 591      C7B0
 592 09db 16BC24A9 		.ascii	"\026\274$\251\306T^\235i)]^5\341iR:\233{F_\030\344\242"
 592      C6545E9D 
ARM GAS  /tmp/ccxhJYru.s 			page 48


 592      69295D5E 
 592      35E16952 
 592      3A9B7B46 
 593 09f3 B444FC4D 		.ascii	"\264D\374Mm\315\315R\316#e\363\376lss^R\302\351\374"
 593      6DCDCD52 
 593      CE2365F3 
 593      FE6C7373 
 593      5E52C2E9 
 594 0a08 F4A69F49 		.ascii	"\364\246\237Iq\345\301\214\254\370b\017d\263\251\241"
 594      71E5C18C 
 594      ACF8620F 
 594      64B3A9A1 
 595 0a18 6D99BCDC 		.ascii	"m\231\274\334\222\221\0221\010I:\233\371\017w\231\371"
 595      92911231 
 595      08493A9B 
 595      F90F7799 
 595      F9
 596 0a29 2F       		.ascii	"/"
 597              		.text
 598              		.section	.gnu.lto_.symtab.4dbd8987f03ee6e1,"",%progbits
 599 0000 63687670 		.ascii	"chvprintf\000\000\000\000\000\000\000\000\000\000\000"
 599      72696E74 
 599      66000000 
 599      00000000 
 599      00000000 
 600 0014 00C00000 		.ascii	"\000\300\000\000\000chprintf\000\000\000\000\000\000"
 600      00636870 
 600      72696E74 
 600      66000000 
 600      000000
 601 0027 00000000 		.ascii	"\000\000\000\000\000\000\022\001\000\000chsnprintf\000"
 601      00001201 
 601      00006368 
 601      736E7072 
 601      696E7466 
 602 003c 00000000 		.ascii	"\000\000\000\000\000\000\000\000\000\000\000\032\001"
 602      00000000 
 602      0000001A 
 602      01
 603 0049 00006D73 		.ascii	"\000\000msObjectInit\000\000\002\000\000\000\000\000"
 603      4F626A65 
 603      6374496E 
 603      69740000 
 603      02000000 
 604 005f 00000000 		.ascii	"\000\000\000\000(\001\000\000"
 604      28010000 
 605              		.text
 606              		.section	.gnu.lto_.opts,"",%progbits
 607 0000 272D6D63 		.ascii	"'-mcpu=cortex-m4' '-mno-thumb-interwork' '-mthumb' "
 607      70753D63 
 607      6F727465 
 607      782D6D34 
 607      2720272D 
 608 0033 272D6767 		.ascii	"'-ggdb' '-O0' '-fomit-frame-pointer' '-falign-funct"
 608      64622720 
 608      272D4F30 
 608      2720272D 
ARM GAS  /tmp/ccxhJYru.s 			page 49


 608      666F6D69 
 609 0066 696F6E73 		.ascii	"ions=16' '-ffunction-sections' '-fdata-sections' '-"
 609      3D313627 
 609      20272D66 
 609      66756E63 
 609      74696F6E 
 610 0099 666E6F2D 		.ascii	"fno-common' '-flto'\000"
 610      636F6D6D 
 610      6F6E2720 
 610      272D666C 
 610      746F2700 
 611              		.text
 612              		.cfi_sections	.debug_frame
 613              		.section	.text.long_to_string_with_divisor,"ax",%progbits
 614              		.align	2
 615              		.p2align 4,,15
 616              		.thumb
 617              		.thumb_func
 618              		.type	long_to_string_with_divisor, %function
 619              	long_to_string_with_divisor:
 620              	.LFB272:
 621              		.file 1 "../ChibiOS/os/hal/lib/streams/chprintf.c"
 622              		.loc 1 40 0
 623              		.cfi_startproc
 624              		@ args = 0, pretend = 0, frame = 32
 625              		@ frame_needed = 0, uses_anonymous_args = 0
 626              		@ link register save eliminated.
 627 0000 88B0     		sub	sp, sp, #32
 628              		.cfi_def_cfa_offset 32
 629 0002 0390     		str	r0, [sp, #12]
 630 0004 0291     		str	r1, [sp, #8]
 631 0006 0192     		str	r2, [sp, #4]
 632 0008 0093     		str	r3, [sp]
 633              		.loc 1 45 0
 634 000a 029B     		ldr	r3, [sp, #8]
 635 000c 0593     		str	r3, [sp, #20]
 636              		.loc 1 46 0
 637 000e 009B     		ldr	r3, [sp]
 638 0010 002B     		cmp	r3, #0
 639 0012 02D1     		bne	.L2
 640              		.loc 1 47 0
 641 0014 029B     		ldr	r3, [sp, #8]
 642 0016 0493     		str	r3, [sp, #16]
 643 0018 01E0     		b	.L3
 644              	.L2:
 645              		.loc 1 49 0
 646 001a 009B     		ldr	r3, [sp]
 647 001c 0493     		str	r3, [sp, #16]
 648              	.L3:
 649              		.loc 1 52 0
 650 001e 039B     		ldr	r3, [sp, #12]
 651 0020 0B33     		adds	r3, r3, #11
 652 0022 0693     		str	r3, [sp, #24]
 653              	.L5:
 654              		.loc 1 54 0
 655 0024 059B     		ldr	r3, [sp, #20]
 656 0026 019A     		ldr	r2, [sp, #4]
ARM GAS  /tmp/ccxhJYru.s 			page 50


 657 0028 B3FBF2F2 		udiv	r2, r3, r2
 658 002c 0199     		ldr	r1, [sp, #4]
 659 002e 01FB02F2 		mul	r2, r1, r2
 660 0032 9B1A     		subs	r3, r3, r2
 661 0034 0793     		str	r3, [sp, #28]
 662              		.loc 1 55 0
 663 0036 079B     		ldr	r3, [sp, #28]
 664 0038 3033     		adds	r3, r3, #48
 665 003a 0793     		str	r3, [sp, #28]
 666              		.loc 1 56 0
 667 003c 079B     		ldr	r3, [sp, #28]
 668 003e 392B     		cmp	r3, #57
 669 0040 02DD     		ble	.L4
 670              		.loc 1 57 0
 671 0042 079B     		ldr	r3, [sp, #28]
 672 0044 0733     		adds	r3, r3, #7
 673 0046 0793     		str	r3, [sp, #28]
 674              	.L4:
 675              		.loc 1 58 0
 676 0048 069B     		ldr	r3, [sp, #24]
 677 004a 013B     		subs	r3, r3, #1
 678 004c 0693     		str	r3, [sp, #24]
 679 004e 079B     		ldr	r3, [sp, #28]
 680 0050 DAB2     		uxtb	r2, r3
 681 0052 069B     		ldr	r3, [sp, #24]
 682 0054 1A70     		strb	r2, [r3]
 683              		.loc 1 59 0
 684 0056 059A     		ldr	r2, [sp, #20]
 685 0058 019B     		ldr	r3, [sp, #4]
 686 005a B2FBF3F3 		udiv	r3, r2, r3
 687 005e 0593     		str	r3, [sp, #20]
 688              		.loc 1 60 0
 689 0060 049A     		ldr	r2, [sp, #16]
 690 0062 019B     		ldr	r3, [sp, #4]
 691 0064 B2FBF3F3 		udiv	r3, r2, r3
 692 0068 0493     		str	r3, [sp, #16]
 693 006a 049B     		ldr	r3, [sp, #16]
 694 006c 002B     		cmp	r3, #0
 695 006e D9D1     		bne	.L5
 696              		.loc 1 62 0
 697 0070 039B     		ldr	r3, [sp, #12]
 698 0072 0B33     		adds	r3, r3, #11
 699 0074 1A46     		mov	r2, r3
 700 0076 069B     		ldr	r3, [sp, #24]
 701 0078 D31A     		subs	r3, r2, r3
 702 007a 0793     		str	r3, [sp, #28]
 703              	.L6:
 704              		.loc 1 64 0 discriminator 1
 705 007c 039B     		ldr	r3, [sp, #12]
 706 007e 5A1C     		adds	r2, r3, #1
 707 0080 0392     		str	r2, [sp, #12]
 708 0082 069A     		ldr	r2, [sp, #24]
 709 0084 511C     		adds	r1, r2, #1
 710 0086 0691     		str	r1, [sp, #24]
 711 0088 1278     		ldrb	r2, [r2]	@ zero_extendqisi2
 712 008a 1A70     		strb	r2, [r3]
 713              		.loc 1 65 0 discriminator 1
ARM GAS  /tmp/ccxhJYru.s 			page 51


 714 008c 079B     		ldr	r3, [sp, #28]
 715 008e 013B     		subs	r3, r3, #1
 716 0090 0793     		str	r3, [sp, #28]
 717 0092 079B     		ldr	r3, [sp, #28]
 718 0094 002B     		cmp	r3, #0
 719 0096 F1D1     		bne	.L6
 720              		.loc 1 67 0
 721 0098 039B     		ldr	r3, [sp, #12]
 722              		.loc 1 68 0
 723 009a 1846     		mov	r0, r3
 724 009c 08B0     		add	sp, sp, #32
 725              		@ sp needed
 726 009e 7047     		bx	lr
 727              		.cfi_endproc
 728              	.LFE272:
 729              		.size	long_to_string_with_divisor, .-long_to_string_with_divisor
 730              		.section	.text.ch_ltoa,"ax",%progbits
 731              		.align	2
 732              		.p2align 4,,15
 733              		.thumb
 734              		.thumb_func
 735              		.type	ch_ltoa, %function
 736              	ch_ltoa:
 737              	.LFB273:
 738              		.loc 1 70 0
 739              		.cfi_startproc
 740              		@ args = 0, pretend = 0, frame = 16
 741              		@ frame_needed = 0, uses_anonymous_args = 0
 742 0000 00B5     		push	{lr}
 743              		.cfi_def_cfa_offset 4
 744              		.cfi_offset 14, -4
 745 0002 85B0     		sub	sp, sp, #20
 746              		.cfi_def_cfa_offset 24
 747 0004 0390     		str	r0, [sp, #12]
 748 0006 0291     		str	r1, [sp, #8]
 749 0008 0192     		str	r2, [sp, #4]
 750              		.loc 1 72 0
 751 000a 0398     		ldr	r0, [sp, #12]
 752 000c 0299     		ldr	r1, [sp, #8]
 753 000e 019A     		ldr	r2, [sp, #4]
 754 0010 0023     		movs	r3, #0
 755 0012 FFF7FEFF 		bl	long_to_string_with_divisor
 756 0016 0346     		mov	r3, r0
 757              		.loc 1 73 0
 758 0018 1846     		mov	r0, r3
 759 001a 05B0     		add	sp, sp, #20
 760              		@ sp needed
 761 001c 5DF804FB 		ldr	pc, [sp], #4
 762              		.cfi_endproc
 763              	.LFE273:
 764              		.size	ch_ltoa, .-ch_ltoa
 765              		.section	.rodata
 766              		.align	2
 767              	.LC0:
 768 0000 286E756C 		.ascii	"(null)\000"
 768      6C2900
 769 0007 00       		.section	.text.chvprintf,"ax",%progbits
ARM GAS  /tmp/ccxhJYru.s 			page 52


 770              		.align	2
 771              		.p2align 4,,15
 772              		.global	chvprintf
 773              		.thumb
 774              		.thumb_func
 775              		.type	chvprintf, %function
 776              	chvprintf:
 777              	.LFB274:
 778              		.loc 1 121 0
 779              		.cfi_startproc
 780              		@ args = 0, pretend = 0, frame = 64
 781              		@ frame_needed = 0, uses_anonymous_args = 0
 782 0000 00B5     		push	{lr}
 783              		.cfi_def_cfa_offset 4
 784              		.cfi_offset 14, -4
 785 0002 91B0     		sub	sp, sp, #68
 786              		.cfi_def_cfa_offset 72
 787 0004 0390     		str	r0, [sp, #12]
 788 0006 0291     		str	r1, [sp, #8]
 789 0008 0192     		str	r2, [sp, #4]
 790              		.loc 1 124 0
 791 000a 0023     		movs	r3, #0
 792 000c 0993     		str	r3, [sp, #36]
 793              	.L61:
 794              		.loc 1 135 0
 795 000e 029B     		ldr	r3, [sp, #8]
 796 0010 5A1C     		adds	r2, r3, #1
 797 0012 0292     		str	r2, [sp, #8]
 798 0014 1B78     		ldrb	r3, [r3]
 799 0016 8DF83730 		strb	r3, [sp, #55]
 800              		.loc 1 136 0
 801 001a 9DF83730 		ldrb	r3, [sp, #55]	@ zero_extendqisi2
 802 001e 002B     		cmp	r3, #0
 803 0020 01D1     		bne	.L11
 804              		.loc 1 137 0
 805 0022 099B     		ldr	r3, [sp, #36]
 806 0024 10E2     		b	.L62
 807              	.L11:
 808              		.loc 1 138 0
 809 0026 9DF83730 		ldrb	r3, [sp, #55]	@ zero_extendqisi2
 810 002a 252B     		cmp	r3, #37
 811 002c 0BD0     		beq	.L13
 812              		.loc 1 139 0
 813 002e 039B     		ldr	r3, [sp, #12]
 814 0030 1B68     		ldr	r3, [r3]
 815 0032 9B68     		ldr	r3, [r3, #8]
 816 0034 9DF83720 		ldrb	r2, [sp, #55]	@ zero_extendqisi2
 817 0038 0398     		ldr	r0, [sp, #12]
 818 003a 1146     		mov	r1, r2
 819 003c 9847     		blx	r3
 820              		.loc 1 140 0
 821 003e 099B     		ldr	r3, [sp, #36]
 822 0040 0133     		adds	r3, r3, #1
 823 0042 0993     		str	r3, [sp, #36]
 824              		.loc 1 141 0
 825 0044 FFE1     		b	.L14
 826              	.L13:
ARM GAS  /tmp/ccxhJYru.s 			page 53


 827              		.loc 1 143 0
 828 0046 04AB     		add	r3, sp, #16
 829 0048 0F93     		str	r3, [sp, #60]
 830              		.loc 1 144 0
 831 004a 04AB     		add	r3, sp, #16
 832 004c 0E93     		str	r3, [sp, #56]
 833              		.loc 1 145 0
 834 004e 0023     		movs	r3, #0
 835 0050 8DF82230 		strb	r3, [sp, #34]
 836              		.loc 1 146 0
 837 0054 029B     		ldr	r3, [sp, #8]
 838 0056 1B78     		ldrb	r3, [r3]	@ zero_extendqisi2
 839 0058 2D2B     		cmp	r3, #45
 840 005a 05D1     		bne	.L15
 841              		.loc 1 147 0
 842 005c 029B     		ldr	r3, [sp, #8]
 843 005e 0133     		adds	r3, r3, #1
 844 0060 0293     		str	r3, [sp, #8]
 845              		.loc 1 148 0
 846 0062 0123     		movs	r3, #1
 847 0064 8DF82230 		strb	r3, [sp, #34]
 848              	.L15:
 849              		.loc 1 150 0
 850 0068 2023     		movs	r3, #32
 851 006a 8DF83630 		strb	r3, [sp, #54]
 852              		.loc 1 151 0
 853 006e 029B     		ldr	r3, [sp, #8]
 854 0070 1B78     		ldrb	r3, [r3]	@ zero_extendqisi2
 855 0072 302B     		cmp	r3, #48
 856 0074 05D1     		bne	.L16
 857              		.loc 1 152 0
 858 0076 029B     		ldr	r3, [sp, #8]
 859 0078 0133     		adds	r3, r3, #1
 860 007a 0293     		str	r3, [sp, #8]
 861              		.loc 1 153 0
 862 007c 3023     		movs	r3, #48
 863 007e 8DF83630 		strb	r3, [sp, #54]
 864              	.L16:
 865              		.loc 1 155 0
 866 0082 0023     		movs	r3, #0
 867 0084 0A93     		str	r3, [sp, #40]
 868              	.L21:
 869              		.loc 1 157 0
 870 0086 029B     		ldr	r3, [sp, #8]
 871 0088 5A1C     		adds	r2, r3, #1
 872 008a 0292     		str	r2, [sp, #8]
 873 008c 1B78     		ldrb	r3, [r3]
 874 008e 8DF83730 		strb	r3, [sp, #55]
 875              		.loc 1 158 0
 876 0092 9DF83730 		ldrb	r3, [sp, #55]	@ zero_extendqisi2
 877 0096 2F2B     		cmp	r3, #47
 878 0098 09D9     		bls	.L17
 879              		.loc 1 158 0 is_stmt 0 discriminator 1
 880 009a 9DF83730 		ldrb	r3, [sp, #55]	@ zero_extendqisi2
 881 009e 392B     		cmp	r3, #57
 882 00a0 05D8     		bhi	.L17
 883              		.loc 1 159 0 is_stmt 1
ARM GAS  /tmp/ccxhJYru.s 			page 54


 884 00a2 9DF83730 		ldrb	r3, [sp, #55]
 885 00a6 303B     		subs	r3, r3, #48
 886 00a8 8DF83730 		strb	r3, [sp, #55]
 887 00ac 12E0     		b	.L18
 888              	.L17:
 889              		.loc 1 160 0
 890 00ae 9DF83730 		ldrb	r3, [sp, #55]	@ zero_extendqisi2
 891 00b2 2A2B     		cmp	r3, #42
 892 00b4 06D1     		bne	.L19
 893              		.loc 1 161 0
 894 00b6 019B     		ldr	r3, [sp, #4]
 895 00b8 1A1D     		adds	r2, r3, #4
 896 00ba 0192     		str	r2, [sp, #4]
 897 00bc 1B68     		ldr	r3, [r3]
 898 00be 8DF83730 		strb	r3, [sp, #55]
 899 00c2 07E0     		b	.L18
 900              	.L19:
 901              		.loc 1 163 0
 902 00c4 00BF     		nop
 903              		.loc 1 166 0
 904 00c6 0023     		movs	r3, #0
 905 00c8 0B93     		str	r3, [sp, #44]
 906              		.loc 1 167 0
 907 00ca 9DF83730 		ldrb	r3, [sp, #55]	@ zero_extendqisi2
 908 00ce 2E2B     		cmp	r3, #46
 909 00d0 37D1     		bne	.L22
 910 00d2 0AE0     		b	.L26
 911              	.L18:
 912              		.loc 1 164 0
 913 00d4 0A9A     		ldr	r2, [sp, #40]
 914 00d6 1346     		mov	r3, r2
 915 00d8 9B00     		lsls	r3, r3, #2
 916 00da 1344     		add	r3, r3, r2
 917 00dc 5B00     		lsls	r3, r3, #1
 918 00de 1A46     		mov	r2, r3
 919 00e0 9DF83730 		ldrb	r3, [sp, #55]	@ zero_extendqisi2
 920 00e4 1344     		add	r3, r3, r2
 921 00e6 0A93     		str	r3, [sp, #40]
 922              		.loc 1 165 0
 923 00e8 CDE7     		b	.L21
 924              	.L26:
 925              		.loc 1 169 0
 926 00ea 029B     		ldr	r3, [sp, #8]
 927 00ec 5A1C     		adds	r2, r3, #1
 928 00ee 0292     		str	r2, [sp, #8]
 929 00f0 1B78     		ldrb	r3, [r3]
 930 00f2 8DF83730 		strb	r3, [sp, #55]
 931              		.loc 1 170 0
 932 00f6 9DF83730 		ldrb	r3, [sp, #55]	@ zero_extendqisi2
 933 00fa 2F2B     		cmp	r3, #47
 934 00fc 09D9     		bls	.L23
 935              		.loc 1 170 0 is_stmt 0 discriminator 1
 936 00fe 9DF83730 		ldrb	r3, [sp, #55]	@ zero_extendqisi2
 937 0102 392B     		cmp	r3, #57
 938 0104 05D8     		bhi	.L23
 939              		.loc 1 171 0 is_stmt 1
 940 0106 9DF83730 		ldrb	r3, [sp, #55]
ARM GAS  /tmp/ccxhJYru.s 			page 55


 941 010a 303B     		subs	r3, r3, #48
 942 010c 8DF83730 		strb	r3, [sp, #55]
 943 0110 0BE0     		b	.L24
 944              	.L23:
 945              		.loc 1 172 0
 946 0112 9DF83730 		ldrb	r3, [sp, #55]	@ zero_extendqisi2
 947 0116 2A2B     		cmp	r3, #42
 948 0118 06D1     		bne	.L25
 949              		.loc 1 173 0
 950 011a 019B     		ldr	r3, [sp, #4]
 951 011c 1A1D     		adds	r2, r3, #4
 952 011e 0192     		str	r2, [sp, #4]
 953 0120 1B68     		ldr	r3, [r3]
 954 0122 8DF83730 		strb	r3, [sp, #55]
 955 0126 00E0     		b	.L24
 956              	.L25:
 957              		.loc 1 175 0
 958 0128 0BE0     		b	.L22
 959              	.L24:
 960              		.loc 1 176 0
 961 012a 0B9A     		ldr	r2, [sp, #44]
 962 012c 1346     		mov	r3, r2
 963 012e 9B00     		lsls	r3, r3, #2
 964 0130 1344     		add	r3, r3, r2
 965 0132 5B00     		lsls	r3, r3, #1
 966 0134 0B93     		str	r3, [sp, #44]
 967              		.loc 1 177 0
 968 0136 9DF83730 		ldrb	r3, [sp, #55]	@ zero_extendqisi2
 969 013a 0B9A     		ldr	r2, [sp, #44]
 970 013c 1344     		add	r3, r3, r2
 971 013e 0B93     		str	r3, [sp, #44]
 972              		.loc 1 178 0
 973 0140 D3E7     		b	.L26
 974              	.L22:
 975              		.loc 1 181 0
 976 0142 9DF83730 		ldrb	r3, [sp, #55]	@ zero_extendqisi2
 977 0146 6C2B     		cmp	r3, #108
 978 0148 03D0     		beq	.L27
 979              		.loc 1 181 0 is_stmt 0 discriminator 1
 980 014a 9DF83730 		ldrb	r3, [sp, #55]	@ zero_extendqisi2
 981 014e 4C2B     		cmp	r3, #76
 982 0150 0ED1     		bne	.L28
 983              	.L27:
 984              		.loc 1 182 0 is_stmt 1
 985 0152 0123     		movs	r3, #1
 986 0154 8DF82330 		strb	r3, [sp, #35]
 987              		.loc 1 183 0
 988 0158 029B     		ldr	r3, [sp, #8]
 989 015a 1B78     		ldrb	r3, [r3]	@ zero_extendqisi2
 990 015c 002B     		cmp	r3, #0
 991 015e 06D0     		beq	.L29
 992              		.loc 1 184 0
 993 0160 029B     		ldr	r3, [sp, #8]
 994 0162 5A1C     		adds	r2, r3, #1
 995 0164 0292     		str	r2, [sp, #8]
 996 0166 1B78     		ldrb	r3, [r3]
 997 0168 8DF83730 		strb	r3, [sp, #55]
ARM GAS  /tmp/ccxhJYru.s 			page 56


 998              		.loc 1 183 0
 999 016c 13E0     		b	.L30
 1000              	.L29:
 1001              		.loc 1 183 0 is_stmt 0 discriminator 1
 1002 016e 12E0     		b	.L30
 1003              	.L28:
 1004              		.loc 1 187 0 is_stmt 1
 1005 0170 9DF83730 		ldrb	r3, [sp, #55]	@ zero_extendqisi2
 1006 0174 402B     		cmp	r3, #64
 1007 0176 05D9     		bls	.L31
 1008              		.loc 1 187 0 is_stmt 0 discriminator 1
 1009 0178 9DF83730 		ldrb	r3, [sp, #55]	@ zero_extendqisi2
 1010 017c 5A2B     		cmp	r3, #90
 1011 017e 01D8     		bhi	.L31
 1012              		.loc 1 187 0 discriminator 3
 1013 0180 0123     		movs	r3, #1
 1014 0182 00E0     		b	.L32
 1015              	.L31:
 1016              		.loc 1 187 0 discriminator 2
 1017 0184 0023     		movs	r3, #0
 1018              	.L32:
 1019              		.loc 1 187 0 discriminator 4
 1020 0186 8DF82330 		strb	r3, [sp, #35]
 1021 018a 9DF82330 		ldrb	r3, [sp, #35]
 1022 018e 03F00103 		and	r3, r3, #1
 1023 0192 8DF82330 		strb	r3, [sp, #35]
 1024              	.L30:
 1025              		.loc 1 190 0 is_stmt 1
 1026 0196 9DF83730 		ldrb	r3, [sp, #55]	@ zero_extendqisi2
 1027 019a 443B     		subs	r3, r3, #68
 1028 019c 342B     		cmp	r3, #52
 1029 019e 00F2E280 		bhi	.L33
 1030 01a2 01A2     		adr	r2, .L35
 1031 01a4 52F823F0 		ldr	pc, [r2, r3, lsl #2]
 1032              		.p2align 2
 1033              	.L35:
 1034 01a8 DF020000 		.word	.L34+1
 1035 01ac 67030000 		.word	.L33+1
 1036 01b0 67030000 		.word	.L33+1
 1037 01b4 67030000 		.word	.L33+1
 1038 01b8 67030000 		.word	.L33+1
 1039 01bc DF020000 		.word	.L34+1
 1040 01c0 67030000 		.word	.L33+1
 1041 01c4 67030000 		.word	.L33+1
 1042 01c8 67030000 		.word	.L33+1
 1043 01cc 67030000 		.word	.L33+1
 1044 01d0 67030000 		.word	.L33+1
 1045 01d4 31030000 		.word	.L36+1
 1046 01d8 67030000 		.word	.L33+1
 1047 01dc 67030000 		.word	.L33+1
 1048 01e0 67030000 		.word	.L33+1
 1049 01e4 67030000 		.word	.L33+1
 1050 01e8 67030000 		.word	.L33+1
 1051 01ec 29030000 		.word	.L37+1
 1052 01f0 67030000 		.word	.L33+1
 1053 01f4 67030000 		.word	.L33+1
 1054 01f8 21030000 		.word	.L38+1
ARM GAS  /tmp/ccxhJYru.s 			page 57


 1055 01fc 67030000 		.word	.L33+1
 1056 0200 67030000 		.word	.L33+1
 1057 0204 67030000 		.word	.L33+1
 1058 0208 67030000 		.word	.L33+1
 1059 020c 67030000 		.word	.L33+1
 1060 0210 67030000 		.word	.L33+1
 1061 0214 67030000 		.word	.L33+1
 1062 0218 67030000 		.word	.L33+1
 1063 021c 67030000 		.word	.L33+1
 1064 0220 67030000 		.word	.L33+1
 1065 0224 7D020000 		.word	.L39+1
 1066 0228 DF020000 		.word	.L34+1
 1067 022c 67030000 		.word	.L33+1
 1068 0230 67030000 		.word	.L33+1
 1069 0234 67030000 		.word	.L33+1
 1070 0238 67030000 		.word	.L33+1
 1071 023c DF020000 		.word	.L34+1
 1072 0240 67030000 		.word	.L33+1
 1073 0244 67030000 		.word	.L33+1
 1074 0248 67030000 		.word	.L33+1
 1075 024c 67030000 		.word	.L33+1
 1076 0250 67030000 		.word	.L33+1
 1077 0254 31030000 		.word	.L36+1
 1078 0258 67030000 		.word	.L33+1
 1079 025c 67030000 		.word	.L33+1
 1080 0260 67030000 		.word	.L33+1
 1081 0264 97020000 		.word	.L40+1
 1082 0268 67030000 		.word	.L33+1
 1083 026c 29030000 		.word	.L37+1
 1084 0270 67030000 		.word	.L33+1
 1085 0274 67030000 		.word	.L33+1
 1086 0278 21030000 		.word	.L38+1
 1087              		.p2align 1
 1088              	.L39:
 1089              		.loc 1 192 0
 1090 027c 2023     		movs	r3, #32
 1091 027e 8DF83630 		strb	r3, [sp, #54]
 1092              		.loc 1 193 0
 1093 0282 0F9B     		ldr	r3, [sp, #60]
 1094 0284 5A1C     		adds	r2, r3, #1
 1095 0286 0F92     		str	r2, [sp, #60]
 1096 0288 019A     		ldr	r2, [sp, #4]
 1097 028a 111D     		adds	r1, r2, #4
 1098 028c 0191     		str	r1, [sp, #4]
 1099 028e 1268     		ldr	r2, [r2]
 1100 0290 D2B2     		uxtb	r2, r2
 1101 0292 1A70     		strb	r2, [r3]
 1102              		.loc 1 194 0
 1103 0294 6EE0     		b	.L41
 1104              	.L40:
 1105              		.loc 1 196 0
 1106 0296 2023     		movs	r3, #32
 1107 0298 8DF83630 		strb	r3, [sp, #54]
 1108              		.loc 1 197 0
 1109 029c 019B     		ldr	r3, [sp, #4]
 1110 029e 1A1D     		adds	r2, r3, #4
 1111 02a0 0192     		str	r2, [sp, #4]
ARM GAS  /tmp/ccxhJYru.s 			page 58


 1112 02a2 1B68     		ldr	r3, [r3]
 1113 02a4 0E93     		str	r3, [sp, #56]
 1114 02a6 0E9B     		ldr	r3, [sp, #56]
 1115 02a8 002B     		cmp	r3, #0
 1116 02aa 01D1     		bne	.L42
 1117              		.loc 1 198 0
 1118 02ac 684B     		ldr	r3, .L63
 1119 02ae 0E93     		str	r3, [sp, #56]
 1120              	.L42:
 1121              		.loc 1 199 0
 1122 02b0 0B9B     		ldr	r3, [sp, #44]
 1123 02b2 002B     		cmp	r3, #0
 1124 02b4 02D1     		bne	.L43
 1125              		.loc 1 200 0
 1126 02b6 47F6FF73 		movw	r3, #32767
 1127 02ba 0B93     		str	r3, [sp, #44]
 1128              	.L43:
 1129              		.loc 1 201 0
 1130 02bc 0E9B     		ldr	r3, [sp, #56]
 1131 02be 0F93     		str	r3, [sp, #60]
 1132 02c0 02E0     		b	.L44
 1133              	.L46:
 1134              		.loc 1 201 0 is_stmt 0 discriminator 1
 1135 02c2 0F9B     		ldr	r3, [sp, #60]
 1136 02c4 0133     		adds	r3, r3, #1
 1137 02c6 0F93     		str	r3, [sp, #60]
 1138              	.L44:
 1139 02c8 0F9B     		ldr	r3, [sp, #60]
 1140 02ca 1B78     		ldrb	r3, [r3]	@ zero_extendqisi2
 1141 02cc 002B     		cmp	r3, #0
 1142 02ce 05D0     		beq	.L45
 1143              		.loc 1 201 0 discriminator 2
 1144 02d0 0B9B     		ldr	r3, [sp, #44]
 1145 02d2 013B     		subs	r3, r3, #1
 1146 02d4 0B93     		str	r3, [sp, #44]
 1147 02d6 0B9B     		ldr	r3, [sp, #44]
 1148 02d8 002B     		cmp	r3, #0
 1149 02da F2DA     		bge	.L46
 1150              	.L45:
 1151              		.loc 1 203 0 is_stmt 1
 1152 02dc 4AE0     		b	.L41
 1153              	.L34:
 1154              		.loc 1 208 0
 1155 02de 9DF82330 		ldrb	r3, [sp, #35]	@ zero_extendqisi2
 1156 02e2 002B     		cmp	r3, #0
 1157 02e4 05D0     		beq	.L47
 1158              		.loc 1 209 0
 1159 02e6 019B     		ldr	r3, [sp, #4]
 1160 02e8 1A1D     		adds	r2, r3, #4
 1161 02ea 0192     		str	r2, [sp, #4]
 1162 02ec 1B68     		ldr	r3, [r3]
 1163 02ee 0793     		str	r3, [sp, #28]
 1164 02f0 04E0     		b	.L48
 1165              	.L47:
 1166              		.loc 1 211 0
 1167 02f2 019B     		ldr	r3, [sp, #4]
 1168 02f4 1A1D     		adds	r2, r3, #4
ARM GAS  /tmp/ccxhJYru.s 			page 59


 1169 02f6 0192     		str	r2, [sp, #4]
 1170 02f8 1B68     		ldr	r3, [r3]
 1171 02fa 0793     		str	r3, [sp, #28]
 1172              	.L48:
 1173              		.loc 1 212 0
 1174 02fc 079B     		ldr	r3, [sp, #28]
 1175 02fe 002B     		cmp	r3, #0
 1176 0300 07DA     		bge	.L49
 1177              		.loc 1 213 0
 1178 0302 0F9B     		ldr	r3, [sp, #60]
 1179 0304 5A1C     		adds	r2, r3, #1
 1180 0306 0F92     		str	r2, [sp, #60]
 1181 0308 2D22     		movs	r2, #45
 1182 030a 1A70     		strb	r2, [r3]
 1183              		.loc 1 214 0
 1184 030c 079B     		ldr	r3, [sp, #28]
 1185 030e 5B42     		negs	r3, r3
 1186 0310 0793     		str	r3, [sp, #28]
 1187              	.L49:
 1188              		.loc 1 216 0
 1189 0312 0F98     		ldr	r0, [sp, #60]
 1190 0314 0799     		ldr	r1, [sp, #28]
 1191 0316 0A22     		movs	r2, #10
 1192 0318 FFF7FEFF 		bl	ch_ltoa
 1193 031c 0F90     		str	r0, [sp, #60]
 1194              		.loc 1 217 0
 1195 031e 29E0     		b	.L41
 1196              	.L38:
 1197              		.loc 1 230 0
 1198 0320 1023     		movs	r3, #16
 1199 0322 8DF83730 		strb	r3, [sp, #55]
 1200              		.loc 1 231 0
 1201 0326 06E0     		b	.L50
 1202              	.L37:
 1203              		.loc 1 234 0
 1204 0328 0A23     		movs	r3, #10
 1205 032a 8DF83730 		strb	r3, [sp, #55]
 1206              		.loc 1 235 0
 1207 032e 02E0     		b	.L50
 1208              	.L36:
 1209              		.loc 1 238 0
 1210 0330 0823     		movs	r3, #8
 1211 0332 8DF83730 		strb	r3, [sp, #55]
 1212              	.L50:
 1213              		.loc 1 240 0
 1214 0336 9DF82330 		ldrb	r3, [sp, #35]	@ zero_extendqisi2
 1215 033a 002B     		cmp	r3, #0
 1216 033c 05D0     		beq	.L51
 1217              		.loc 1 241 0
 1218 033e 019B     		ldr	r3, [sp, #4]
 1219 0340 1A1D     		adds	r2, r3, #4
 1220 0342 0192     		str	r2, [sp, #4]
 1221 0344 1B68     		ldr	r3, [r3]
 1222 0346 0793     		str	r3, [sp, #28]
 1223 0348 04E0     		b	.L52
 1224              	.L51:
 1225              		.loc 1 243 0
ARM GAS  /tmp/ccxhJYru.s 			page 60


 1226 034a 019B     		ldr	r3, [sp, #4]
 1227 034c 1A1D     		adds	r2, r3, #4
 1228 034e 0192     		str	r2, [sp, #4]
 1229 0350 1B68     		ldr	r3, [r3]
 1230 0352 0793     		str	r3, [sp, #28]
 1231              	.L52:
 1232              		.loc 1 244 0
 1233 0354 9DF83730 		ldrb	r3, [sp, #55]	@ zero_extendqisi2
 1234 0358 0F98     		ldr	r0, [sp, #60]
 1235 035a 0799     		ldr	r1, [sp, #28]
 1236 035c 1A46     		mov	r2, r3
 1237 035e FFF7FEFF 		bl	ch_ltoa
 1238 0362 0F90     		str	r0, [sp, #60]
 1239              		.loc 1 245 0
 1240 0364 06E0     		b	.L41
 1241              	.L33:
 1242              		.loc 1 247 0
 1243 0366 0F9B     		ldr	r3, [sp, #60]
 1244 0368 5A1C     		adds	r2, r3, #1
 1245 036a 0F92     		str	r2, [sp, #60]
 1246 036c 9DF83720 		ldrb	r2, [sp, #55]
 1247 0370 1A70     		strb	r2, [r3]
 1248              		.loc 1 248 0
 1249 0372 00BF     		nop
 1250              	.L41:
 1251              		.loc 1 250 0
 1252 0374 0F9A     		ldr	r2, [sp, #60]
 1253 0376 0E9B     		ldr	r3, [sp, #56]
 1254 0378 D31A     		subs	r3, r2, r3
 1255 037a 0C93     		str	r3, [sp, #48]
 1256              		.loc 1 251 0
 1257 037c 0A9A     		ldr	r2, [sp, #40]
 1258 037e 0C9B     		ldr	r3, [sp, #48]
 1259 0380 D31A     		subs	r3, r2, r3
 1260 0382 0A93     		str	r3, [sp, #40]
 1261 0384 0A9B     		ldr	r3, [sp, #40]
 1262 0386 002B     		cmp	r3, #0
 1263 0388 01DA     		bge	.L53
 1264              		.loc 1 252 0
 1265 038a 0023     		movs	r3, #0
 1266 038c 0A93     		str	r3, [sp, #40]
 1267              	.L53:
 1268              		.loc 1 253 0
 1269 038e 9DF82230 		ldrb	r3, [sp, #34]
 1270 0392 83F00103 		eor	r3, r3, #1
 1271 0396 DBB2     		uxtb	r3, r3
 1272 0398 002B     		cmp	r3, #0
 1273 039a 02D0     		beq	.L54
 1274              		.loc 1 254 0
 1275 039c 0A9B     		ldr	r3, [sp, #40]
 1276 039e 5B42     		negs	r3, r3
 1277 03a0 0A93     		str	r3, [sp, #40]
 1278              	.L54:
 1279              		.loc 1 255 0
 1280 03a2 0A9B     		ldr	r3, [sp, #40]
 1281 03a4 002B     		cmp	r3, #0
 1282 03a6 28DA     		bge	.L55
ARM GAS  /tmp/ccxhJYru.s 			page 61


 1283              		.loc 1 256 0
 1284 03a8 0E9B     		ldr	r3, [sp, #56]
 1285 03aa 1B78     		ldrb	r3, [r3]	@ zero_extendqisi2
 1286 03ac 2D2B     		cmp	r3, #45
 1287 03ae 13D1     		bne	.L56
 1288              		.loc 1 256 0 is_stmt 0 discriminator 1
 1289 03b0 9DF83630 		ldrb	r3, [sp, #54]	@ zero_extendqisi2
 1290 03b4 302B     		cmp	r3, #48
 1291 03b6 0FD1     		bne	.L56
 1292              		.loc 1 257 0 is_stmt 1
 1293 03b8 039B     		ldr	r3, [sp, #12]
 1294 03ba 1B68     		ldr	r3, [r3]
 1295 03bc 9A68     		ldr	r2, [r3, #8]
 1296 03be 0E9B     		ldr	r3, [sp, #56]
 1297 03c0 591C     		adds	r1, r3, #1
 1298 03c2 0E91     		str	r1, [sp, #56]
 1299 03c4 1B78     		ldrb	r3, [r3]	@ zero_extendqisi2
 1300 03c6 0398     		ldr	r0, [sp, #12]
 1301 03c8 1946     		mov	r1, r3
 1302 03ca 9047     		blx	r2
 1303              		.loc 1 258 0
 1304 03cc 099B     		ldr	r3, [sp, #36]
 1305 03ce 0133     		adds	r3, r3, #1
 1306 03d0 0993     		str	r3, [sp, #36]
 1307              		.loc 1 259 0
 1308 03d2 0C9B     		ldr	r3, [sp, #48]
 1309 03d4 013B     		subs	r3, r3, #1
 1310 03d6 0C93     		str	r3, [sp, #48]
 1311              	.L56:
 1312              		.loc 1 262 0 discriminator 1
 1313 03d8 039B     		ldr	r3, [sp, #12]
 1314 03da 1B68     		ldr	r3, [r3]
 1315 03dc 9B68     		ldr	r3, [r3, #8]
 1316 03de 9DF83620 		ldrb	r2, [sp, #54]	@ zero_extendqisi2
 1317 03e2 0398     		ldr	r0, [sp, #12]
 1318 03e4 1146     		mov	r1, r2
 1319 03e6 9847     		blx	r3
 1320              		.loc 1 263 0 discriminator 1
 1321 03e8 099B     		ldr	r3, [sp, #36]
 1322 03ea 0133     		adds	r3, r3, #1
 1323 03ec 0993     		str	r3, [sp, #36]
 1324              		.loc 1 264 0 discriminator 1
 1325 03ee 0A9B     		ldr	r3, [sp, #40]
 1326 03f0 0133     		adds	r3, r3, #1
 1327 03f2 0A93     		str	r3, [sp, #40]
 1328 03f4 0A9B     		ldr	r3, [sp, #40]
 1329 03f6 002B     		cmp	r3, #0
 1330 03f8 EED1     		bne	.L56
 1331              	.L55:
 1332              		.loc 1 266 0
 1333 03fa 0CE0     		b	.L57
 1334              	.L58:
 1335              		.loc 1 267 0
 1336 03fc 039B     		ldr	r3, [sp, #12]
 1337 03fe 1B68     		ldr	r3, [r3]
 1338 0400 9A68     		ldr	r2, [r3, #8]
 1339 0402 0E9B     		ldr	r3, [sp, #56]
ARM GAS  /tmp/ccxhJYru.s 			page 62


 1340 0404 591C     		adds	r1, r3, #1
 1341 0406 0E91     		str	r1, [sp, #56]
 1342 0408 1B78     		ldrb	r3, [r3]	@ zero_extendqisi2
 1343 040a 0398     		ldr	r0, [sp, #12]
 1344 040c 1946     		mov	r1, r3
 1345 040e 9047     		blx	r2
 1346              		.loc 1 268 0
 1347 0410 099B     		ldr	r3, [sp, #36]
 1348 0412 0133     		adds	r3, r3, #1
 1349 0414 0993     		str	r3, [sp, #36]
 1350              	.L57:
 1351              		.loc 1 266 0 discriminator 1
 1352 0416 0C9B     		ldr	r3, [sp, #48]
 1353 0418 013B     		subs	r3, r3, #1
 1354 041a 0C93     		str	r3, [sp, #48]
 1355 041c 0C9B     		ldr	r3, [sp, #48]
 1356 041e 002B     		cmp	r3, #0
 1357 0420 ECDA     		bge	.L58
 1358              		.loc 1 271 0
 1359 0422 0DE0     		b	.L59
 1360              	.L60:
 1361              		.loc 1 272 0
 1362 0424 039B     		ldr	r3, [sp, #12]
 1363 0426 1B68     		ldr	r3, [r3]
 1364 0428 9B68     		ldr	r3, [r3, #8]
 1365 042a 9DF83620 		ldrb	r2, [sp, #54]	@ zero_extendqisi2
 1366 042e 0398     		ldr	r0, [sp, #12]
 1367 0430 1146     		mov	r1, r2
 1368 0432 9847     		blx	r3
 1369              		.loc 1 273 0
 1370 0434 099B     		ldr	r3, [sp, #36]
 1371 0436 0133     		adds	r3, r3, #1
 1372 0438 0993     		str	r3, [sp, #36]
 1373              		.loc 1 274 0
 1374 043a 0A9B     		ldr	r3, [sp, #40]
 1375 043c 013B     		subs	r3, r3, #1
 1376 043e 0A93     		str	r3, [sp, #40]
 1377              	.L59:
 1378              		.loc 1 271 0 discriminator 1
 1379 0440 0A9B     		ldr	r3, [sp, #40]
 1380 0442 002B     		cmp	r3, #0
 1381 0444 EED1     		bne	.L60
 1382              	.L14:
 1383              		.loc 1 276 0
 1384 0446 E2E5     		b	.L61
 1385              	.L62:
 1386              		.loc 1 277 0
 1387 0448 1846     		mov	r0, r3
 1388 044a 11B0     		add	sp, sp, #68
 1389              		@ sp needed
 1390 044c 5DF804FB 		ldr	pc, [sp], #4
 1391              	.L64:
 1392              		.align	2
 1393              	.L63:
 1394 0450 00000000 		.word	.LC0
 1395              		.cfi_endproc
 1396              	.LFE274:
ARM GAS  /tmp/ccxhJYru.s 			page 63


 1397              		.size	chvprintf, .-chvprintf
 1398 0454 AFF30080 		.section	.text.chprintf,"ax",%progbits
 1398      AFF30080 
 1398      AFF30080 
 1399              		.align	2
 1400              		.p2align 4,,15
 1401              		.global	chprintf
 1402              		.thumb
 1403              		.thumb_func
 1404              		.type	chprintf, %function
 1405              	chprintf:
 1406              	.LFB275:
 1407              		.loc 1 302 0
 1408              		.cfi_startproc
 1409              		@ args = 4, pretend = 12, frame = 16
 1410              		@ frame_needed = 0, uses_anonymous_args = 1
 1411 0000 0EB4     		push	{r1, r2, r3}
 1412              		.cfi_def_cfa_offset 12
 1413              		.cfi_offset 1, -12
 1414              		.cfi_offset 2, -8
 1415              		.cfi_offset 3, -4
 1416 0002 00B5     		push	{lr}
 1417              		.cfi_def_cfa_offset 16
 1418              		.cfi_offset 14, -16
 1419 0004 84B0     		sub	sp, sp, #16
 1420              		.cfi_def_cfa_offset 32
 1421 0006 0190     		str	r0, [sp, #4]
 1422              		.loc 1 306 0
 1423 0008 06AB     		add	r3, sp, #24
 1424 000a 0293     		str	r3, [sp, #8]
 1425              		.loc 1 307 0
 1426 000c 0198     		ldr	r0, [sp, #4]
 1427 000e 0599     		ldr	r1, [sp, #20]
 1428 0010 029A     		ldr	r2, [sp, #8]
 1429 0012 FFF7FEFF 		bl	chvprintf
 1430 0016 0390     		str	r0, [sp, #12]
 1431              		.loc 1 310 0
 1432 0018 039B     		ldr	r3, [sp, #12]
 1433              		.loc 1 311 0
 1434 001a 1846     		mov	r0, r3
 1435 001c 04B0     		add	sp, sp, #16
 1436              		@ sp needed
 1437 001e 5DF804EB 		ldr	lr, [sp], #4
 1438 0022 03B0     		add	sp, sp, #12
 1439 0024 7047     		bx	lr
 1440              		.cfi_endproc
 1441              	.LFE275:
 1442              		.size	chprintf, .-chprintf
 1443 0026 00BFAFF3 		.section	.text.chsnprintf,"ax",%progbits
 1443      0080AFF3 
 1443      0080
 1444              		.align	2
 1445              		.p2align 4,,15
 1446              		.global	chsnprintf
 1447              		.thumb
 1448              		.thumb_func
 1449              		.type	chsnprintf, %function
ARM GAS  /tmp/ccxhJYru.s 			page 64


 1450              	chsnprintf:
 1451              	.LFB276:
 1452              		.loc 1 341 0
 1453              		.cfi_startproc
 1454              		@ args = 4, pretend = 8, frame = 48
 1455              		@ frame_needed = 0, uses_anonymous_args = 1
 1456 0000 0CB4     		push	{r2, r3}
 1457              		.cfi_def_cfa_offset 8
 1458              		.cfi_offset 2, -8
 1459              		.cfi_offset 3, -4
 1460 0002 00B5     		push	{lr}
 1461              		.cfi_def_cfa_offset 12
 1462              		.cfi_offset 14, -12
 1463 0004 8DB0     		sub	sp, sp, #52
 1464              		.cfi_def_cfa_offset 64
 1465 0006 0190     		str	r0, [sp, #4]
 1466 0008 0091     		str	r1, [sp]
 1467              		.loc 1 348 0
 1468 000a 009B     		ldr	r3, [sp]
 1469 000c 002B     		cmp	r3, #0
 1470 000e 03D0     		beq	.L68
 1471              		.loc 1 349 0
 1472 0010 009B     		ldr	r3, [sp]
 1473 0012 013B     		subs	r3, r3, #1
 1474 0014 0B93     		str	r3, [sp, #44]
 1475 0016 01E0     		b	.L69
 1476              	.L68:
 1477              		.loc 1 351 0
 1478 0018 0023     		movs	r3, #0
 1479 001a 0B93     		str	r3, [sp, #44]
 1480              	.L69:
 1481              		.loc 1 355 0
 1482 001c 03AB     		add	r3, sp, #12
 1483 001e 1846     		mov	r0, r3
 1484 0020 0199     		ldr	r1, [sp, #4]
 1485 0022 0B9A     		ldr	r2, [sp, #44]
 1486 0024 0023     		movs	r3, #0
 1487 0026 FFF7FEFF 		bl	msObjectInit
 1488              		.loc 1 358 0
 1489 002a 03AB     		add	r3, sp, #12
 1490 002c 0A93     		str	r3, [sp, #40]
 1491              		.loc 1 359 0
 1492 002e 0FAB     		add	r3, sp, #60
 1493 0030 0893     		str	r3, [sp, #32]
 1494              		.loc 1 360 0
 1495 0032 0A98     		ldr	r0, [sp, #40]
 1496 0034 0E99     		ldr	r1, [sp, #56]
 1497 0036 089A     		ldr	r2, [sp, #32]
 1498 0038 FFF7FEFF 		bl	chvprintf
 1499 003c 0990     		str	r0, [sp, #36]
 1500              		.loc 1 364 0
 1501 003e 069A     		ldr	r2, [sp, #24]
 1502 0040 009B     		ldr	r3, [sp]
 1503 0042 9A42     		cmp	r2, r3
 1504 0044 04D2     		bcs	.L70
 1505              		.loc 1 365 0
 1506 0046 069B     		ldr	r3, [sp, #24]
ARM GAS  /tmp/ccxhJYru.s 			page 65


 1507 0048 019A     		ldr	r2, [sp, #4]
 1508 004a 1344     		add	r3, r3, r2
 1509 004c 0022     		movs	r2, #0
 1510 004e 1A70     		strb	r2, [r3]
 1511              	.L70:
 1512              		.loc 1 368 0
 1513 0050 099B     		ldr	r3, [sp, #36]
 1514              		.loc 1 369 0
 1515 0052 1846     		mov	r0, r3
 1516 0054 0DB0     		add	sp, sp, #52
 1517              		@ sp needed
 1518 0056 5DF804EB 		ldr	lr, [sp], #4
 1519 005a 02B0     		add	sp, sp, #8
 1520 005c 7047     		bx	lr
 1521              		.cfi_endproc
 1522              	.LFE276:
 1523              		.size	chsnprintf, .-chsnprintf
 1524 005e 00BF     		.text
 1525              	.Letext0:
 1526              		.file 2 "/nfs/nfs5/home/research/hardware/arm2/gcc-arm-embedded/gcc-arm-none-eabi-4_8-2014q2/lib/g
 1527              		.file 3 "/nfs/nfs5/home/research/hardware/arm2/gcc-arm-embedded/gcc-arm-none-eabi-4_8-2014q2/arm-n
 1528              		.file 4 "/nfs/nfs5/home/research/hardware/arm2/gcc-arm-embedded/gcc-arm-none-eabi-4_8-2014q2/arm-n
 1529              		.file 5 "../ChibiOS/os/rt/ports/ARMCMx/compilers/GCC/chtypes.h"
 1530              		.file 6 "../ChibiOS/os/rt/include/chsystypes.h"
 1531              		.file 7 "../ChibiOS/os/rt/include/chschd.h"
 1532              		.file 8 "../ChibiOS/os/rt/ports/ARMCMx/chcore.h"
 1533              		.file 9 "../ChibiOS/os/rt/ports/ARMCMx/chcore_v7m.h"
 1534              		.file 10 "../ChibiOS/os/rt/include/chtm.h"
 1535              		.file 11 "../ChibiOS/os/rt/include/chsem.h"
 1536              		.file 12 "../ChibiOS/os/rt/include/chmtx.h"
 1537              		.file 13 "../ChibiOS/os/rt/include/chstreams.h"
 1538              		.file 14 "/nfs/nfs5/home/research/hardware/arm2/gcc-arm-embedded/gcc-arm-none-eabi-4_8-2014q2/lib/
 1539              		.file 15 "<built-in>"
 1540              		.file 16 "../ChibiOS/os/hal/lib/streams/memstreams.h"
 1541              		.file 17 "../ChibiOS/os/ext/CMSIS/include/core_cm4.h"