ARM GAS  /tmp/ccC8tU94.s 			page 1


   1              		.syntax unified
   2              		.cpu cortex-m4
   3              		.fpu softvfp
   4              		.eabi_attribute 20, 1
   5              		.eabi_attribute 21, 1
   6              		.eabi_attribute 23, 3
   7              		.eabi_attribute 24, 1
   8              		.eabi_attribute 25, 1
   9              		.eabi_attribute 26, 1
  10              		.eabi_attribute 30, 6
  11              		.eabi_attribute 34, 1
  12              		.eabi_attribute 18, 4
  13              		.thumb
  14              		.file	"chqueues.c"
  15              		.text
  16              	.Ltext0:
  17              		.section	.gnu.lto_.inline.d4c02cca46093858,"",%progbits
  18 0000 789C6362 		.ascii	"x\234cb`b\300\006\214\240\302\"\014\014,\314\014\014"
  18      6062C006 
  18      8CA0C222 
  18      0C0C2CCC 
  18      0C0C
  19 0012 4C2C1FF4 		.ascii	"L,\037\364\030X j\0311D\230\030XY\200$\333\001;\230"
  19      1858206A 
  19      19314498 
  19      18585980 
  19      24DB013B 
  20 0027 0833030B 		.ascii	"\0103\003\013\017P\204i\201<\\\027\027\220`\301.\314"
  20      0F508469 
  20      813C5C17 
  20      179060C1 
  20      2ECC
  21 0039 CAC0CA8B 		.ascii	"\312\300\312\213*\314\304\015$\3300\214eg\340\342\004"
  21      2ACCC40D 
  21      24D8308C 
  21      6567E0E2 
  21      04
  22 004a 8A085CE8 		.ascii	"\212\010\\\350a\204\011q`\012qb\350\343b\340\025\005"
  22      61840971 
  22      600A7162 
  22      E8E362E0 
  22      1505
  23 005c 8A082D98 		.ascii	"\212\010-\230\303\210b\0037\003\2670\220\311\263!\027"
  23      C3886203 
  23      3703B730 
  23      90C9B321 
  23      17
  24 006d EE70A0FB 		.ascii	"\356p\240\373\030x\030$4\201\302\012\027:\231P\304\301"
  24      18781824 
  24      3481C20A 
  24      173A9950 
  24      C4C1
  25 007f 042F83DA 		.ascii	"\004/\203\332=\220~\235\015\317\231P|\001\226\205x\223"
  25      3D907E9D 
  25      0DCF9950 
  25      7C019685 
  25      7893
ARM GAS  /tmp/ccC8tU94.s 			page 2


  26 0091 17CE1200 		.ascii	"\027\316\022\000\022|\014:oA:\314\016leF\321\201_\033"
  26      127C0C3A 
  26      6F413ACC 
  26      0E6C6546 
  26      D1815F1B 
  27 00a5 3F0E470B 		.ascii	"?\016G\0130\360\211\241\211\203\315\020$\331aB\370\374"
  27      30F089A1 
  27      8983CD10 
  27      24D96142 
  27      F8FC
  28 00b7 294C9EAB 		.ascii	")L\236\253\031\000\341V\"\316"
  28      1900E156 
  28      22CE
  29              		.text
  30              		.section	.gnu.lto_port_lock.d4c02cca46093858,"",%progbits
  31 0000 789C6362 		.ascii	"x\234cb`b@\007\"@,\310\310\300P\007\342030\002U021\002"
  31      60624007 
  31      22402CC8 
  31      C8C05007 
  31      E2303330 
  32 001a 05181819 		.ascii	"\005\030\030\031\352\231\030\353#AL\006F%\206\205\015"
  32      EA9918EB 
  32      23414C06 
  32      46258685 
  32      0D
  33 002b 0D931EB4 		.ascii	"\015\223\036\264>{\3144\263\341@\313\202\206?\377\377"
  33      3E7BCC34 
  33      B3E140CB 
  33      82863FFF 
  33      FF
  34 003c 33326632 		.ascii	"32f2\002M\324cdHfd\210\000r\030\025\300\024\023\013"
  34      024DD463 
  34      64486664 
  34      88007218 
  34      15C01413 
  35 0051 AA15EB99 		.ascii	"\252\025\353\231\016<\370\377\377D\347\363\275@\223"
  35      0E3CF8FF 
  35      FF44E7F3 
  35      BD4093
  36 0060 19121917 		.ascii	"\031\022\031\027\002M\003\002V\206\226\206\206\011\012"
  36      024D0302 
  36      56869686 
  36      86090A
  37 006f 0C20DD40 		.ascii	"\014 \335@\020\002&CA\016`>\313\320\264\003H\24732\202"
  37      10022643 
  37      410E603E 
  37      CBD0B403 
  37      48A73332 
  38 0084 CC6300AA 		.ascii	"\314c\000\252a8\307\320\364\361\315\214\307\022p]`F"
  38      6138C7D0 
  38      F4F1CD8C 
  38      C712705D 
  38      6046
  39 0096 C381EE2B 		.ascii	"\303\201\356+\355\2540#\023\031\0273\262\002\215\203"
  39      EDAC3023 
  39      13191733 
  39      B2028D83 
ARM GAS  /tmp/ccC8tU94.s 			page 3


  40 00a6 38190893 		.ascii	"8\031\010\223\231A>f\206x[\216\241dn\303\014\207LFf"
  40      99413E66 
  40      86785B8E 
  40      A1646EC3 
  40      0C874C46 
  41 00bb 102F1DAC 		.ascii	"\020/\035\254\012.U\016\221\202\272\374\"C\343\203\235"
  41      0A2E550E 
  41      9182BAFC 
  41      2243E383 
  41      9D
  42 00cc FA10E360 		.ascii	"\372\020\343` \004\244\001\244Z[OO\3379#3)\323?X?\277"
  42      2004A401 
  42      A45A5B4F 
  42      4FDF3923 
  42      3329D33F 
  43 00e3 58BFA844 		.ascii	"X\277\250D\277 \277\250\244X\3371\310\327\331\267B?"
  43      BF20BFA8 
  43      A458DF31 
  43      C8D7D9B7 
  43      423F
  44 00f5 392339BF 		.ascii	"9#9\277(5\276\314<W/\203\201\265,1\2474U\017UGjE\211"
  44      2835BECC 
  44      3C572F83 
  44      81B52C31 
  44      A734550F 
  45 010e BEB36FB0 		.ascii	"\276\263o\260g\260~f^rNiJ\252>XGr\256[i^2P\223\200o"
  45      67B07E66 
  45      5E724E69 
  45      4AAA3E58 
  45      4772AE5B 
  46 0129 70904252 		.ascii	"p\220BRbqjAQ\246\216\202\252\001\003S\021\003{njn~Q"
  46      62716A41 
  46      51A68E82 
  46      AA010353 
  46      11037B6E 
  47 0141 2503005A 		.ascii	"%\003\000Z\240au"
  47      A06175
  48              		.text
  49              		.section	.gnu.lto_port_unlock.d4c02cca46093858,"",%progbits
  50 0000 789C6362 		.ascii	"x\234cb`b@\007\"@,\310\310\300P\007\342030\002U021\002"
  50      60624007 
  50      22402CC8 
  50      C8C05007 
  50      E2303330 
  51 001a 05181819 		.ascii	"\005\030\030\031\352\231\030\353#AL\006F%\206\205\015"
  51      EA9918EB 
  51      23414C06 
  51      46258685 
  51      0D
  52 002b 0D931EB4 		.ascii	"\015\223\036\264~z\3144\263\341@\313\202\206?\377\377"
  52      7E7ACC34 
  52      B3E140CB 
  52      82863FFF 
  52      FF
  53 003c 33326632 		.ascii	"32f2\002M\324cdHfd\210\000r\030\025\300\024\023\013"
  53      024DD463 
  53      64486664 
ARM GAS  /tmp/ccC8tU94.s 			page 4


  53      88007218 
  53      15C01413 
  54 0051 AA15EB99 		.ascii	"\252\025\353\231\016<\370\377\377E\347\376}@\223\031"
  54      0E3CF8FF 
  54      FF45E7FE 
  54      7D409319 
  55 0061 12191702 		.ascii	"\022\031\027\002M\003\002V\206\226\206\206\011\012\014"
  55      4D030256 
  55      86968686 
  55      090A0C
  56 0070 20DD4010 		.ascii	" \335@\020\002&CA\016`>\313\320\264\003H\24732\202\314"
  56      02264341 
  56      0E603ECB 
  56      D0B40348 
  56      A7333282 
  57 0085 031B728E 		.ascii	"\003\033r\216\241\351\343\233\031\217%\340\272\300\214"
  57      A1E9E39B 
  57      198F25E0 
  57      BAC08C
  58 0094 8603A79F 		.ascii	"\206\003\247\237\266\263\302\214Ld\\\314\310\0124\016"
  58      B6B3C28C 
  58      4C645CCC 
  58      C80A340E 
  59 00a4 E264204C 		.ascii	"\342d Lf\006\371\230\031\342m9\206\222\271\0153\034"
  59      6606F998 
  59      19E26D39 
  59      8692B90D 
  59      331C
  60 00b6 32199941 		.ascii	"2\031\231A\274t\260*\270T9D\012\352\362\213\014\215"
  60      BC74B02A 
  60      B8543944 
  60      0AEAF28B 
  60      0C8D
  61 00c8 0FCEEB43 		.ascii	"\017\316\353C\214\203\201\020\220\006\220jm==}\347\214"
  61      8C838110 
  61      9006906A 
  61      6D3D3D7D 
  61      E78C
  62 00da CCA44CFF 		.ascii	"\314\244L\377`\375\374b\375\242\022\375\202\374\242"
  62      60FDFC62 
  62      FDA212FD 
  62      82FCA2
  63 00e9 92627DC7 		.ascii	"\222b}\307 _g\337\012\375\344\214\344\374\242\324\370"
  63      205F67DF 
  63      0AFDE48C 
  63      E4FCA2D4 
  63      F8
  64 00fa 32F35CBD 		.ascii	"2\363\\\275\014\006\326\262\304\234\322T=T\035\251\025"
  64      0C06D6B2 
  64      C49CD254 
  64      3D541DA9 
  64      15
  65 010b 25FACEBE 		.ascii	"%\372\316\276\301\236\301\372\231y\3119\245)\251\372"
  65      C19EC1FA 
  65      9979C939 
  65      A529A9FA 
  66 011b 601DC9B9 		.ascii	"`\035\311\271n\245y\311@M\002\276\301A\012I\211\305"
ARM GAS  /tmp/ccC8tU94.s 			page 5


  66      6EA579C9 
  66      404D02BE 
  66      C1410A49 
  66      89C5
  67 012d A9054599 		.ascii	"\251\005E\231:\012\252\006\014LE\014\354\271\251\271"
  67      3A0AAA06 
  67      0C4C450C 
  67      ECB9A9B9 
  68 013d F945950C 		.ascii	"\371E\225\014\000\233\025a\301"
  68      009B1561 
  68      C1
  69              		.text
  70              		.section	.gnu.lto_queue_init.d4c02cca46093858,"",%progbits
  71 0000 789C6362 		.ascii	"x\234cb`b@\007\"@|\032\210U@\034f\006F\240\012F&FF "
  71      60624007 
  71      22407C1A 
  71      8855401C 
  71      660646A0 
  72 001a 8791A19E 		.ascii	"\207\221\241\236\211\261>\222\021\254l=\323\201\007"
  72      89B13E92 
  72      11AC6C3D 
  72      D38107
  73 0029 FFFFAFFB 		.ascii	"\377\377\257\373\361\354\3051\306\023\233Y\200*r\301"
  73      F1ECC531 
  73      C6139B59 
  73      802A72C1 
  74 0039 12AC0C2D 		.ascii	"\022\254\014-\015\015\023\024\030\030\222\301\334\020"
  74      0D0D1314 
  74      181892C1 
  74      DC10
  75 0047 30190A32 		.ascii	"0\031\0122\205\371,C\323\351\033\357{\344\023\031\027"
  75      85F92C43 
  75      D3E91BEF 
  75      7BE41319 
  75      17
  76 0058 32B23268 		.ascii	"2\2622h3\254j\000\002\336LF\206\331\014\263\0303\031"
  76      33AC6A00 
  76      02DE4C46 
  76      86D90CB3 
  76      183319
  77 006b 19D31919 		.ascii	"\031\323\031\031#\2004\304II\020k\030\322AV\203t\376"
  77      238034C4 
  77      4949106B 
  77      18D24156 
  77      8374FE
  78 007e 205E2723 		.ascii	" ^'#B\347E\206\306\007@\347A4\302@\010H\006\244XIOO"
  78      42E74586 
  78      C60740E7 
  78      4134C240 
  78      084806A4 
  79 0096 DF392333 		.ascii	"\3379#3)\323?X?\277X\277\250D?3/9\2474%U?9\24389#E/"
  79      29D33F58 
  79      3FBF58BF 
  79      A8443F33 
  79      2F39A734 
  80 00b4 8301006C 		.ascii	"\203\001\000lz9\373"
  80      7A39FB
ARM GAS  /tmp/ccC8tU94.s 			page 6


  81              		.text
  82              		.section	.gnu.lto_chSysLock.d4c02cca46093858,"",%progbits
  83 0000 789C6362 		.ascii	"x\234cb`b@\007\"@\\\006\304\312 \0163\003#P\005#\023"
  83      60624007 
  83      22405C06 
  83      C4CA200E 
  83      33032350 
  84 0017 232390C3 		.ascii	"##\220\303\310P\317\304X\037\311\010V\266\236\351\300"
  84      C850CFC4 
  84      581FC908 
  84      56B69EE9 
  84      C0
  85 0028 83FFFFD7 		.ascii	"\203\377\377\327}\231\266\354\017\343m&\220\030+CKC"
  85      7D99B6EC 
  85      0FE36D26 
  85      90182B43 
  85      4B43
  86 003a C3040506 		.ascii	"\303\004\005\006\206d\260\212\0200\031\012\322\317|"
  86      8664B08A 
  86      1030190A 
  86      D2CF7C
  87 0049 9EA1F9C1 		.ascii	"\236\241\371\301\236n\366D\306\205\214\254@\301j\206"
  87      9E6EF644 
  87      C6858CAC 
  87      40C16A86 
  88 0059 5F0D1D0D 		.ascii	"_\015\035\015\002\231\214@\245\020\3232A\364E\206\306"
  88      02998C40 
  88      A510D332 
  88      41F44586 
  88      C6
  89 006a 07FBB561 		.ascii	"\007\373\265a\212  \004$\001r\244\242\236\236\276sF"
  89      8A202004 
  89      240172A4 
  89      A29E9EBE 
  89      7346
  90 007c 6652A67F 		.ascii	"fR\246\177\260~~\261~Q\211~f^rNiJ\252~rFqe\261^\006"
  90      B07E7EB1 
  90      7E51897E 
  90      665E724E 
  90      694AAA7E 
  91 0097 0300A9F5 		.ascii	"\003\000\251\365'\020"
  91      2710
  92              		.text
  93              		.section	.gnu.lto_chSysUnlock.d4c02cca46093858,"",%progbits
  94 0000 789C6362 		.ascii	"x\234cb`b@\007\322@\334\301\310\300\240\014\342\260"
  94      60624007 
  94      D240DCC1 
  94      C8C0A00C 
  94      E2B0
  95 0012 30300255 		.ascii	"00\002U0212\003IfF\2400\003#C=\0233c}$\210\315\300\246"
  95      30323132 
  95      03496646 
  95      A0300323 
  95      433D1333 
  96 002d C4B0B0A1 		.ascii	"\304\260\260\241a\322\203\247\337gIv-h\232\320\360\357"
  96      61D283A7 
  96      DF674976 
ARM GAS  /tmp/ccC8tU94.s 			page 7


  96      2D689AD0 
  96      F0EF
  97 003f FF7FC64C 		.ascii	"\377\177\306L\220T2#C\004\220\305\250\000\246\230XP"
  97      90543223 
  97      430490C5 
  97      A800A698 
  97      5850
  98 0051 2D81686B 		.ascii	"-\201hk\330\264\242\201sA\303\237\377\377\231\311\323"
  98      D8B4A281 
  98      7341C39F 
  98      FFFF99C9 
  98      D3
  99 0062 C33C58EC 		.ascii	"\303<X\354\311edX\317t\340\301\377\377ov\356|\364\206"
  99      C9656458 
  99      CF74E0C1 
  99      FFFF6F76 
  99      EE7CF486 
 100 0076 5114640B 		.ascii	"Q\024d\013+CKC\303\004\205\\\250\215@\020\002%\201A"
 100      2B434B43 
 100      C304855C 
 100      A88D4010 
 100      02258141 
 101 008a CA1C0A32 		.ascii	"\312\034\0122\224\371<C\363\203\327\247\331\023\031"
 101      94F93C43 
 101      F383D7A7 
 101      D91319
 102 0099 9731B202 		.ascii	"\2271\262\002\245\252\031~5t4\010d2\262$\203\303\232"
 102      A5AA197E 
 102      35743408 
 102      6432B224 
 102      83C39A
 103 00ac 81211324 		.ascii	"\201!\023$~\221\241\361\301\033m\230\"\010\010\001)"
 103      7E91A1F1 
 103      C11B6D98 
 103      22080801 
 103      29
 104 00bd 00C59EA2 		.ascii	"\000\305\236\242\236\236\276sFfR\246\177\260~~\261~"
 104      9E9EBE73 
 104      466652A6 
 104      7FB07E7E 
 104      B17E
 105 00cf 51897E66 		.ascii	"Q\211~f^rNiJ\252~rFqe\261^\006\003\000\341Gc\351"
 105      5E724E69 
 105      4AAA7E72 
 105      467165B1 
 105      5E060300 
 106              		.text
 107              		.section	.gnu.lto_chThdQueueObjectInit.d4c02cca46093858,"",%progbits
 108 0000 789C6362 		.ascii	"x\234cb`b@\007\"@\\\007\304\352 \0163\003#P\005#\023"
 108      60624007 
 108      22405C07 
 108      C4EA200E 
 108      33032350 
 109 0017 232390C3 		.ascii	"##\220\303\310P\317\304X\037\311\010V\266\236\351\300"
 109      C850CFC4 
 109      581FC908 
 109      56B69EE9 
ARM GAS  /tmp/ccC8tU94.s 			page 8


 109      C0
 110 0028 83FFFFD7 		.ascii	"\203\377\377\327\335\271\264\177\016\343i&\240\202\\"
 110      DDB9B47F 
 110      0EE36926 
 110      A0825C
 111 0037 B0382B43 		.ascii	"\2608+CKC\303\004\005\006\206d07\004L\206\202\014a>"
 111      4B43C304 
 111      05068664 
 111      3037044C 
 111      86820C61 
 112 004c CFD0F260 		.ascii	"\317\320\362`\307J\366D\306\205\214\254@\301j\206_\015"
 112      C74AF644 
 112      C6858CAC 
 112      40C16A86 
 112      5F0D
 113 005e 1D0D0299 		.ascii	"\035\015\002\231\214@\245\020#\323\031\0313A\314\213"
 113      8C40A510 
 113      23D31919 
 113      3341CC8B 
 114 006e 0C8D0F76 		.ascii	"\014\215\017vj\302\324A@\010H\002\344XU==}\347\214\314"
 114      6AC2D441 
 114      40084802 
 114      E458553D 
 114      3D7DE78C 
 115 0083 A44CFF60 		.ascii	"\244L\377`\375\374b\375\242\022\375\314\274\344\234"
 115      FDFC62FD 
 115      A212FDCC 
 115      BCE49C
 116 0092 D29454FD 		.ascii	"\322\224T\375\344\214\222\214\242\324\304\224b\275\014"
 116      E48C928C 
 116      A2D4C494 
 116      62BD0C
 117 00a1 06001AB4 		.ascii	"\006\000\032\264)f"
 117      2966
 118              		.text
 119              		.section	.gnu.lto_chIQIsEmptyI.d4c02cca46093858,"",%progbits
 120 0000 789C6362 		.ascii	"x\234cb`b@\007\322@\254\317\310\300\240\006\342\260"
 120      60624007 
 120      D240ACCF 
 120      C8C0A006 
 120      E2B0
 121 0012 30300255 		.ascii	"00\002U0212\003IfF\2400\003#C=\0233c}$\210\315\300\244"
 121      30323132 
 121      03496646 
 121      A0300323 
 121      433D1333 
 122 002d C4B0B0A1 		.ascii	"\304\260\260\241a\326\203\247\273f\211w=h\230\320\360"
 122      61D683A7 
 122      BB668977 
 122      3D6898D0 
 122      F0
 123 003e EFFF7FC6 		.ascii	"\357\377\177\306L\220T2#C\004\220\305\310\001\246\230"
 123      4C905432 
 123      23430490 
 123      C5C801A6 
 123      98
 124 004f 18512D01 		.ascii	"\030Q-\001k\233\324p\371I\300\211\206\226\003\377\377"
ARM GAS  /tmp/ccC8tU94.s 			page 9


 124      6B9BD470 
 124      F949C089 
 124      869603FF 
 124      FF
 125 0060 DB67826C 		.ascii	"\333g\202l\200\351Q\200\350aA\325\263\236\351\300\203"
 125      80E95180 
 125      E86141D5 
 125      B39EE9C0 
 125      83
 126 0071 FFFFFFCC 		.ascii	"\377\377\377\314\336\372\370\015\243\010\013#c.#\320"
 126      DEFAF80D 
 126      A3080B23 
 126      632E23D0 
 127 0081 F5407DCC 		.ascii	"\365@}\314\014`\013\031X\031Z\032\032&(\200\215\001"
 127      0C600B19 
 127      58195A1A 
 127      1A262880 
 127      8D01
 128 0093 82103019 		.ascii	"\202\0200\031\012r?\363Y\206C\267~\354:\305\224\310"
 128      0A723FF3 
 128      598643B7 
 128      7EEC3AC5 
 128      94C8
 129 00a5 B8989195 		.ascii	"\270\230\221\225!\235\221I\233aUC\013\320\016\226\331"
 129      219D9149 
 129      9B615543 
 129      0BD00E96 
 129      D9
 130 00b6 0CB38014 		.ascii	"\014\263\200\024k:##\310J6\260EIp\307\236eh>\337\314"
 130      6B3A2323 
 130      C84A36B0 
 130      454970C7 
 130      9E65683E 
 131 00cc 07D3C50C 		.ascii	"\007\323\305\014\324\010R\305\014\223\016\0051\231O"
 131      D40852C5 
 131      0C930E05 
 131      31994F
 132 00db 33347230 		.ascii	"34r00\244\200\002\347\"\003#\\1DI\010H\030\024\310*"
 132      30A48002 
 132      E7220323 
 132      5C314449 
 132      08481814 
 133 00f1 7A7AFACE 		.ascii	"zz\372\316\031\231I\231\376\301\372\371\305\372E%\372"
 133      19994999 
 133      FEC1FAF9 
 133      C5FA4525 
 133      FA
 134 0102 9979C939 		.ascii	"\231y\3119\245)\251\372\311\031\205\245\251\245\251"
 134      A529A9FA 
 134      C91985A5 
 134      A9A5A9
 135 0111 C57A190C 		.ascii	"\305z\031\014\000\323CK\211"
 135      00D3434B 
 135      89
 136              		.text
 137              		.section	.gnu.lto_chIQIsFullI.d4c02cca46093858,"",%progbits
 138 0000 789C9591 		.ascii	"x\234\225\221\317+DQ\024\307\317\271?\336{\026l$\013"
ARM GAS  /tmp/ccC8tU94.s 			page 10


 138      CF2B4451 
 138      14C7CFB9 
 138      3FDE7B16 
 138      6C240B
 139 0013 1B4929EA 		.ascii	"\033I)\352=K;\013\177\000e\246X2\306\314+\277\231\265"
 139      3D4B3B0B 
 139      7F0065A6 
 139      5832C6CC 
 139      2BBF99B5 
 140 0027 3BCC4252 		.ascii	";\314BRd9V\224\224\015v\226\223,\224,f\211\205\251!"
 140      64395694 
 140      940D7696 
 140      932C942C 
 140      668985A9 
 141 003c 91E42FF0 		.ascii	"\221\344/\360\234{\237\367\014\311\217W\357\334{\337"
 141      9C7B9FF7 
 141      0CC98F57 
 141      EFDC7BDF 
 142 004c F77CCEF9 		.ascii	"\367|\316\371\336\363\0300\370\372\364\321\373@\237"
 142      DEF31830 
 142      F8FAF4D1 
 142      FB409F
 143 005b 5D7D7000 		.ascii	"]}p\000i\213\214q\000\305$\005\301\231\210\367\002-"
 143      698B8C71 
 143      00C52405 
 143      C19988F7 
 143      022D
 144 006d 52A58916 		.ascii	"R\245\211\026\332\024mD\302\020\026\031\027\322\262"
 144      DA146D44 
 144      C2101619 
 144      17D2B2
 145 007c 7171589F 		.ascii	"qqX\237A\266\301\266R\305\312n\265\330\274ZQ\033\352"
 145      41B6C1B6 
 145      52C5CA6E 
 145      B5D8BC5A 
 145      511BEA
 146 008f 3508D0D7 		.ascii	"5\010\320\327R\012a\210v\350\230\205\341g3\006\333P"
 146      520A6188 
 146      76E89885 
 146      E1673306 
 146      DB50
 147 00a1 E5BB8133 		.ascii	"\345\273\2013U(\005A\257\217\234A\007\306Xk\210\211"
 147      55280541 
 147      AF8F9C41 
 147      07C6586B 
 147      8889
 148 00b3 6FB04D75 		.ascii	"o\260Mu}\373\201\011\370\033\263u\367\177\346\246\206"
 148      7DFB8109 
 148      F81BB375 
 148      F77FE6A6 
 148      86
 149 00c4 91BF3107 		.ascii	"\221\2771\007\254T\011\202\265\243\243\352:6\325!\214"
 149      AC540982 
 149      B5A3A3EA 
 149      3A36D521 
 149      8C
 150 00d5 E00EB601 		.ascii	"\340\016\266\001\303I\004\016\324S\350 )H\353]\263\337"
ARM GAS  /tmp/ccC8tU94.s 			page 11


 150      C349040E 
 150      D453E820 
 150      2948EB5D 
 150      B3DF
 151 00e7 5707FC70 		.ascii	"W\007\374p\230P\240\241\264\232F\364$LL\352\037\305"
 151      9850A0A1 
 151      B49A46F4 
 151      244C4CEA 
 151      1FC5
 152 00f9 2F60E9EA 		.ascii	"/`\351\352\270\372\310Fp\217\234d\220wA'\225\333\202"
 152      B8FAC846 
 152      708F9C64 
 152      90774127 
 152      95DB82
 153 010c 2239B132 		.ascii	"\"9\2612\310\264#\333\370\030\215G\255\241\303\306\010"
 153      C8B423DB 
 153      F8188D47 
 153      ADA1C3C6 
 153      08
 154 011d 113F2111 		.ascii	"\021?!\021s\006\247\367\3712\306m2Xs\313$rc\345\344"
 154      7306A7F7 
 154      F932C66D 
 154      325873CB 
 154      247263E5 
 155 0132 EAA525CA 		.ascii	"\352\245%\312\220]\260\257\012T\311\371\2760\213\013"
 155      905DB0AF 
 155      0A54C9F9 
 155      BE308B0B 
 156 0142 179E6A0A 		.ascii	"\027\236j\012K\235#k\307\227\324\235\364={\242\034K"
 156      4B9D236B 
 156      C797D49D 
 156      F43D7BA2 
 156      1C4B
 157 0154 E7708C75 		.ascii	"\347p\214u\371E\267\215\376\301[\241\376\274\334\020"
 157      F945B78D 
 157      FEC15BA1 
 157      FEBCDC10 
 158 0164 653899F0 		.ascii	"e8\231\360b\227\200TN\254\324\023$M.\331\343\347\220"
 158      62978054 
 158      4EACD413 
 158      244D2ED9 
 158      E3E790
 159 0177 7700C674 		.ascii	"w\000\306tJ\031\362%\036Sa\301\204\026\264\375v\327"
 159      4A19F225 
 159      1E5361C1 
 159      8416B4FD 
 159      76D7
 160 0189 F5FAB2FE 		.ascii	"\365\372\262\376\250\337?\350M\317{s\013\236?\225\232"
 160      A8DF3FE8 
 160      4DCF7B73 
 160      0B9E3F95 
 160      9A
 161 019a C88DA5BD 		.ascii	"\310\215\245\275Tv6\227\316\245\347\335,\330\376\370"
 161      54763697 
 161      CEA5E7DD 
 161      2CD8FEF8 
 162 01aa C2E48CDB 		.ascii	"\302\344\214\333\375\006*2\2423"
ARM GAS  /tmp/ccC8tU94.s 			page 12


 162      FD062A32 
 162      A233
 163              		.text
 164              		.section	.gnu.lto_chOQIsEmptyI.d4c02cca46093858,"",%progbits
 165 0000 789C9591 		.ascii	"x\234\225\221;/\004Q\024\307\317\271\217\231Q\320H("
 165      3B2F0451 
 165      14C7CFB9 
 165      8F9951D0 
 165      4828
 166 0012 34221209 		.ascii	"4\"\022\011\311L\242\322)|\000\0226\241\264\017\273"
 166      C94CA2D2 
 166      297C0012 
 166      36A1B40F 
 166      BB
 167 0023 9378B3B5 		.ascii	"\223x\263\265\273l!*Q\332\212\004\211\206\222n#\012"
 167      BB6C212A 
 167      51DA8A04 
 167      8986926E 
 167      230A
 168 0035 098A2D51 		.ascii	"\011\212-Q\330\004\021!\342\023\030\347\3361c\211xL"
 168      D8041121 
 168      E21318E7 
 168      DE316389 
 168      784C
 169 0047 32E7DE3B 		.ascii	"2\347\336;\377\363;\347\177\3170`\360\365\351\243\367"
 169      FFF33BE7 
 169      7FCF3060 
 169      F0F5E9A3 
 169      F7
 170 0058 813EBBFA 		.ascii	"\201>\273\372\340\000\322\026\031\343\000\212I\012\202"
 170      E000D216 
 170      19E3008A 
 170      490A82
 171 0067 3311EF05 		.ascii	"3\021\357\005Z\244J\023-\264)\332\210\204!,0.\244e\343"
 171      5AA44A13 
 171      2DB429DA 
 171      8884212C 
 171      302EA465 
 172 007c C2883E83 		.ascii	"\302\210>\203l\203\015\245\326\253[\333\245\346\225"
 172      6C830DA5 
 172      D6AB5BDB 
 172      A5E695
 173 008b AA5A55AF 		.ascii	"\252ZU\257A\200\276\226R\010\303\264C\307,\014?\233"
 173      4180BE96 
 173      5208C3B4 
 173      43C72C0C 
 173      3F9B
 174 009d 31D8AAAA 		.ascii	"1\330\252\252\334\015\234\250b9\010z}\344\014:0\306"
 174      DC0D9CA8 
 174      6239087A 
 174      7DE40C3A 
 174      30C6
 175 00af 5A434C7C 		.ascii	"ZCL|\203\255\251\253\333\017L\300\337\230\322\335\377"
 175      83ADA9AB 
 175      DB0F4CC0 
 175      DF98D2DD 
 175      FF
ARM GAS  /tmp/ccC8tU94.s 			page 13


 176 00c0 99EB1A46 		.ascii	"\231\353\032F\376\306\354\261r5\010\316*\2077%l\252"
 176      FEC6ECB1 
 176      723508CE 
 176      2A873725 
 176      6CAA
 177 00d2 4318C54D 		.ascii	"C\030\305Ml\003\206\023\010\034\250\247\320AR\220\326"
 177      6C038613 
 177      081CA8A7 
 177      D0415290 
 177      D6
 178 00e3 BB66BFAF 		.ascii	"\273f\277\257\016\370\3410\241HCi5\215\350\03121\241"
 178      0EF8E130 
 178      A1484369 
 178      358DE819 
 178      3231A1
 179 00f6 7F143F87 		.ascii	"\177\024?\207\305\313\203\355G6\212;\344$\213\274\013"
 179      C5CB83ED 
 179      47368A3B 
 179      E4248BBC 
 179      0B
 180 0107 3AA95C09 		.ascii	":\251\\\011\326\311\211\225E\246\035\331\306G2\036\265"
 180      D6C98995 
 180      45A61DD9 
 180      C647321E 
 180      B5
 181 0118 86F61B23 		.ascii	"\206\366\033#D\374\204D\314\011\034\337\027*\030\267"
 181      44FC8444 
 181      CC091CDF 
 181      172A18B7 
 182 0128 C962CD2D 		.ascii	"\311b\315-\023\310\215\225\243\313\227\226(Cv\301\256"
 182      13C88D95 
 182      A3CB9796 
 182      284376C1 
 182      AE
 183 0139 2A5225E7 		.ascii	"*R%\347\373\302,.\\|\252),u\216\254\035_Bw\322\367\354"
 183      FBC22C2E 
 183      5C7CAA29 
 183      2C758EAC 
 183      1D5F4277 
 184 0150 89722C9D 		.ascii	"\211r,\235\3031\326\345\027\3356\372\007o\205\372\363"
 184      C331D6E5 
 184      17DD36FA 
 184      076F85FA 
 184      F3
 185 0161 524394E1 		.ascii	"RC\224\341d\303\213]\000R9\261\\O\2204\271d\217\237"
 185      64C38B5D 
 185      005239B1 
 185      5C4F9034 
 185      B9648F9F 
 186 0175 42C10148 		.ascii	"B\301\001H\353\224\012\024\312<\246\302\202CZ\320\366"
 186      EB940A14 
 186      CA3CA6C2 
 186      82435AD0 
 186      F6
 187 0186 DB5DD7EB 		.ascii	"\333]\327\353\313\371I\277\177\320\233\232\363f\347"
 187      CBF949BF 
 187      7FD09B9A 
ARM GAS  /tmp/ccC8tU94.s 			page 14


 187      F366E7
 188 0195 3D7F3235 		.ascii	"=\17725\236Og\274Tn&\237\311g\346\334\034\330\376\330"
 188      9E4F67BC 
 188      546E269F 
 188      C967E6DC 
 188      1CD8FED8 
 189 01a9 FCC4B4DB 		.ascii	"\374\304\264\333\375\006\373m\2422"
 189      FD06FB6D 
 189      A232
 190              		.text
 191              		.section	.gnu.lto_chOQIsFullI.d4c02cca46093858,"",%progbits
 192 0000 789C6362 		.ascii	"x\234cb`b@\007\322@\254\317\310\300\240\006\342\260"
 192      60624007 
 192      D240ACCF 
 192      C8C0A006 
 192      E2B0
 193 0012 30300255 		.ascii	"00\002U0212\003IfF\2400\003#C=\0233c}$\210\315\300\244"
 193      30323132 
 193      03496646 
 193      A0300323 
 193      433D1333 
 194 002d C4B0B0A1 		.ascii	"\304\260\260\241a\326\203\247\353f\213w=h\230\320\360"
 194      61D683A7 
 194      EB668B77 
 194      3D6898D0 
 194      F0
 195 003e EFFF7FC6 		.ascii	"\357\377\177\306L\220T2#C\004\220\305\310\001\246\230"
 195      4C905432 
 195      23430490 
 195      C5C801A6 
 195      98
 196 004f 18512D01 		.ascii	"\030Q-\001k\233\324p\371I\300\211\206\226\003\377\377"
 196      6B9BD470 
 196      F949C089 
 196      869603FF 
 196      FF
 197 0060 DB67826C 		.ascii	"\333g\202l\200\351Q\200\350aA\325\263\236\351\300\203"
 197      80E95180 
 197      E86141D5 
 197      B39EE9C0 
 197      83
 198 0071 FFFFFF5C 		.ascii	"\377\377\377\\\335\372x\017\243\030\013#c.#\320\365"
 198      DDFA780F 
 198      A3180B23 
 198      632E23D0 
 198      F5
 199 0082 407DCC0C 		.ascii	"@}\314\014`\013\031X\031Z\032\032&(\200\215\001\202"
 199      600B1958 
 199      195A1A1A 
 199      2628808D 
 199      0182
 200 0094 1030190A 		.ascii	"\0200\031\012r?\363Y\206C\267~\254;\315\224\310\270"
 200      723FF359 
 200      8643B77E 
 200      AC3BCD94 
 200      C8B8
 201 00a6 98919521 		.ascii	"\230\221\225!\235\221I\233aUC\013\320\016\226\331\014"
ARM GAS  /tmp/ccC8tU94.s 			page 15


 201      9D91499B 
 201      6155430B 
 201      D00E96D9 
 201      0C
 202 00b7 B380146B 		.ascii	"\263\200\024k:##\310J6\260EIp\307\236eh>\337\314\007"
 202      3A2323C8 
 202      4A36B045 
 202      4970C79E 
 202      65683EDF 
 203 00cd D3C50CD4 		.ascii	"\323\305\014\324\010R\305\014\223\016\0051\231O34r0"
 203      0852C50C 
 203      930E0531 
 203      994F3334 
 203      7230
 204 00df 30A48002 		.ascii	"0\244\200\002\347\"\003#\\1DI\010H\030\024\310*zz\372"
 204      E7220323 
 204      5C314449 
 204      08481814 
 204      C82A7A7A 
 205 00f4 CE199949 		.ascii	"\316\031\231I\231\376\301\372\371\305\372E%\372\231"
 205      99FEC1FA 
 205      F9C5FA45 
 205      25FA99
 206 0103 79C939A5 		.ascii	"y\3119\245)\251\372\311\031\205\245\251\245\251\305"
 206      29A9FAC9 
 206      1985A5A9 
 206      A5A9C5
 207 0112 7A190C00 		.ascii	"z\031\014\000\311\024K\177"
 207      C9144B7F 
 208              		.text
 209              		.section	.gnu.lto_chIQObjectInit.d4c02cca46093858,"",%progbits
 210 0000 789C8D91 		.ascii	"x\234\215\221=K\003A\020\206gv\357\362%\202\202? \304"
 210      3D4B0341 
 210      10866776 
 210      EFF22582 
 210      823F20C4 
 211 0014 52C8FD08 		.ascii	"R\310\375\010\177\200\205\021\264\324#$[\210\230\230"
 211      7F808511 
 211      B4D42324 
 211      5B889898 
 212 0024 42536463 		.ascii	"BSdc\256\010\030!\210\205\037\215\242\225\215\245)\017"
 212      AE081821 
 212      88851F8D 
 212      A2958DA5 
 212      290F
 213 0036 41C14830 		.ascii	"A\301H0v\226\001K!\202U\210\3429{wb\242\007f\340vg\367"
 213      7696014B 
 213      21825588 
 213      E2397B77 
 213      62A20766 
 214 004e E679E7DD 		.ascii	"\346y\347\335]\006\014~\307\024}\357\264\235P\013\016"
 214      5D060C7E 
 214      C7147DEF 
 214      B49D500B 
 214      0E
 215 005f 48293244 		.ascii	"H)2DZ \224\030\226\226T\012,\001\247R\356un\272=v\270"
 215      5A209418 
ARM GAS  /tmp/ccC8tU94.s 			page 16


 215      9696540A 
 215      2C01A752 
 215      EE756EBA 
 216 0076 6F5B27F2 		.ascii	"o['\362\303q\020\205\372i\",R\206qwb\332\260\276\007"
 216      C3711085 
 216      FA69222C 
 216      52867177 
 216      62DAB0BE 
 217 008b DA9FB7B5 		.ascii	"\332\237\267\265X\275\\\225\216S\022\310\377\203.\231"
 217      58BD5C95 
 217      8E5312C8 
 217      FF832E99 
 218 009b DD719CDA 		.ascii	"\335q\234\332\325\371s\023'#\210\253H\316\251\031\247"
 218      D5F97313 
 218      272388AB 
 218      48CEA919 
 218      A7
 219 00ac 0C351A98 		.ascii	"\0145\032\230NK\036\242\214\207iP\270\016\226\224\365"
 219      4E4B1EA2 
 219      8C876950 
 219      B80E9694 
 219      F5
 220 00bd B82B4D91 		.ascii	"\270+M\221r\307\005u\036\336\202\355~\345e\327X\306"
 220      72C70575 
 220      1EDE82ED 
 220      7EE565D7 
 220      58C6
 221 00cf 33D42183 		.ascii	"3\324!\203\254\010[\2446\003\027\222bS\240v\014GdC\317"
 221      AC085BA4 
 221      36031792 
 221      6253A076 
 221      0C476443 
 222 00e4 202A3B21 		.ascii	" *;!\327\304\012\0168z\000\313\366y\200\"\364eUN\010"
 222      D7C40A0E 
 222      387A00CB 
 222      F6798022 
 222      F465554E 
 223 00f9 0C9BE815 		.ascii	"\014\233\350\025\221\246\300\010@\013\256\033\275n\233"
 223      91A6C008 
 223      400BAE1B 
 223      BD6E9B
 224 0108 7995AA81 		.ascii	"y\225\252\201U\226\343\002\243\301\015<X\355DUB>\357"
 224      5596E302 
 224      A3C10D3C 
 224      58ED4455 
 224      423EEF
 225 011b 0F5E0769 		.ascii	"\017^\007i\012\242y0\315\374\326\334#\033\243\223|\230"
 225      0AA27930 
 225      CDFCD6DC 
 225      231BA393 
 225      7C98
 226 012d 7C1A9DD4 		.ascii	"|\032\235\324\006\311\312N\305\371\271U*\345\031U@\222"
 226      06C9CA4E 
 226      C5F9B955 
 226      2AE51955 
 226      4092
 227 013f 77EDD888 		.ascii	"w\355\330\210\202\272/\250\373\307\177\373k%\026L\206"
ARM GAS  /tmp/ccC8tU94.s 			page 17


 227      82BA2FA8 
 227      FBC77FFB 
 227      6B25164C 
 227      86
 228 0150 7C32E41F 		.ascii	"|2\344\037?\200\034\013&\303>I\363#\224;\315\351\357"
 228      3F801C0B 
 228      26C33E49 
 228      F323943B 
 228      CDE9EF
 229 0163 87F522A5 		.ascii	"\207\365\"\245\336E]n<\2314f\263bE\314\315\033ky#\267"
 229      DE455D6E 
 229      3C993466 
 229      B36245CC 
 229      CD1B6B79 
 230 0179 61E473A6 		.ascii	"a\344s\246af\327\013\351B:\2374\341\013\205\366\257"
 230      6166D70B 
 230      E9423A9F 
 230      34E10B85 
 230      F6AF
 231 018b EE       		.ascii	"\356"
 232              		.text
 233              		.section	.gnu.lto_chIQResetI.d4c02cca46093858,"",%progbits
 234 0000 789CAD92 		.ascii	"x\234\255\222\317K\002A\024\200\337\233\335\265\022"
 234      CF4B0241 
 234      1480DF9B 
 234      DDB512
 235 000f 82822EDD 		.ascii	"\202\202.\335\304n\011\356\037\321\037\320!\203:\346"
 235      C46E09EE 
 235      1FD11FD0 
 235      21833AE6 
 236 001f 223A8708 		.ascii	"\":\207\0105/yp4\003\211\240%\012\312.\006\235\272t"
 236      352F7970 
 236      340389A0 
 236      250ACA2E 
 236      069DBA74 
 237 0033 E9207859 		.ascii	"\351 xY\272H\207\250n\021\004K\020t\363\032*mof5+\214"
 237      BA4887A8 
 237      6E11044B 
 237      1074F31A 
 237      2A6D6F66 
 238 004a 3AF460E7 		.ascii	":\364`\347'\337\373\346\355\014\003\006\337c\212\276"
 238      27DFFBE6 
 238      ED0C0306 
 238      DF638ABE 
 239 005a 2A2D87E5 		.ascii	"*-\207\345D\003\244!2D\232 \024\030\026\226Qm\204\341"
 239      4403A421 
 239      32449A20 
 239      14181696 
 239      516D84E1 
 240 006e 44883DF7 		.ascii	"D\210=\367\271\375\302\216\366\235rMt=\017\221\313M"
 240      B9FDC28E 
 240      F69D724D 
 240      743D0F91 
 240      CB4D
 241 0080 0B618946 		.ascii	"\013a\211F\030R\035\323\277\346\367A\347\276\271\023"
 241      18521DD3 
 241      BFE6F741 
ARM GAS  /tmp/ccC8tU94.s 			page 18


 241      E7BEB913 
 242 0090 B48B15E1 		.ascii	"\264\213\025\341y\205\277C\217\315\203\351\355Z\311"
 242      7985BF43 
 242      8FCD83E9 
 242      ED5AC9
 243 009f 166F24E3 		.ascii	"\026o$\343\250\375\206\2353\307\365\274n\343\342\251"
 243      A8FD869D 
 243      33C7F5BC 
 243      6EE3E2A9 
 244 00af 859306E2 		.ascii	"\205\223\006\342*R\301\244\323d\243\203\312\000\006"
 244      2A52C1A4 
 244      D364A383 
 244      CA0006
 245 00be 9485B043 		.ascii	"\224\205\260C*\027EL\265\213\262n\355\032J\017\257T"
 245      2A17454C 
 245      B58BB26E 
 245      ED1A4A0F 
 245      AF54
 246 00d0 E10A9EA2 		.ascii	"\341\012\236\242\001Id\021\230%\362\030\252$\323\223"
 246      01496411 
 246      9825F218 
 246      AA24D393 
 247 00e0 88526A28 		.ascii	"\210Rj(U\034\373R\202\256\354\240\217D\340LP\214\377"
 247      551CFB52 
 247      82AEECA0 
 247      8F44E04C 
 247      508CFF
 248 00f3 08F95452 		.ascii	"\010\371TR\332\244\354\2603\220i\377.c=\231&\271\313"
 248      DAA4ECB0 
 248      339069FF 
 248      2E633D99 
 248      26B9CB
 249 0106 7ABD73CB 		.ascii	"z\275s\313\006d\271(\311\300pRS\275\\\011\364\254\355"
 249      0664B928 
 249      C9C07052 
 249      53BD5C09 
 249      F4ACED
 250 0119 CDC66EA4 		.ascii	"\315\306n\244\177T=\017\033\\\036X\035 \315qdx\232O"
 250      7F543D0F 
 250      1B5C1E58 
 250      1D20CD71 
 250      64789A4F 
 251 012d D773035B 		.ascii	"\327s\003[N\217\007\310C[T\304\004\307Q\353\343\217"
 251      4E8F07C8 
 251      435B54C4 
 251      04C751EB 
 251      E38F
 252 013f E8121CA3 		.ascii	"\350\022\034\243\213\366\003\351\231\004\001\356\240"
 252      8BF603E9 
 252      990401EE 
 252      A0
 253 014c E8B666FA 		.ascii	"\350\266f\372\234\0371\311\310\332B\321\2509\227\342"
 253      9C1F31C9 
 253      C8DA42D1 
 253      A83997E2 
 254 015c 713EBF60 		.ascii	"q>\277`\256e\315\314\272\231\315X\246\225J\347\022\271"
 254      AE65CDCC 
ARM GAS  /tmp/ccC8tU94.s 			page 19


 254      BA99CD58 
 254      A6954AE7 
 254      12B9
 255 016e 44366AC1 		.ascii	"D6j\301;\202\364\237\361"
 255      3B82F49F 
 255      F1
 256              		.text
 257              		.section	.gnu.lto_chIQPutI.d4c02cca46093858,"",%progbits
 258 0000 789C9D54 		.ascii	"x\234\235TMHTQ\024>\347\336\3673\377#\321\306\235\270"
 258      4D485451 
 258      143EE7DE 
 258      F733FF23 
 258      D1C69DB8 
 259 0014 2BC3C165 		.ascii	"+\303\301e\253\026\256Z\025\224`\253\310I\306\267\210"
 259      AB16AE5A 
 259      159460AB 
 259      C849C6B7 
 259      88
 260 0025 C8C94D2E 		.ascii	"\310\311M.\274\243#\310D0\014\225b\033\335hX \324\""
 260      BCA323C8 
 260      44300C95 
 260      621BDD68 
 260      5820D422 
 261 0039 17450F41 		.ascii	"\027E\017A\260\021\321A\002\235\225D\320\306\205\233"
 261      B011D141 
 261      029D9544 
 261      D0C6859B 
 262 0049 C0447A9D 		.ascii	"\300Dz\235{\337\2747\317\020\347\325\205w\336}\367~"
 262      7BDFBC37 
 262      CF10E7D5 
 262      8577DE7D 
 262      F77E
 263 005b DFF9CE3D 		.ascii	"\337\371\316=\367\234\307\200\301\337\243\227\236\273"
 263      F79CC780 
 263      C1DFA397 
 263      9EBB
 264 0069 0640A7FC 		.ascii	"\006@\247\374\210\000\022\002\031\343\000\202id4\216"
 264      88001202 
 264      19E30082 
 264      6964348E 
 265 0079 26AD684C 		.ascii	"&\255hL\227+\206\\\321\221^h\250u\023\221h\010c\214"
 265      972B865C 
 265      D1915E68 
 265      A8751391 
 265      6808638C 
 266 008d 6BBA61E2 		.ascii	"k\272a\342\330\035\371\015\361N\230\027\242\262\277"
 266      D81DF90D 
 266      F14E9817 
 266      A2B2BF
 267 009c B65063D3 		.ascii	"\266Pc\323\317\355\302\2348q\034DKnf\021\372i\206\021"
 267      CFEDC29C 
 267      38711C44 
 267      4B6E6611 
 267      FA698611 
 268 00b0 F562783A 		.ascii	"\365bx:\034E\234\261?T\253\363(*\242p\3508i\013y\223"
 268      1C459CB1 
 268      3F54ABF3 
ARM GAS  /tmp/ccC8tU94.s 			page 20


 268      282AA270 
 268      E838690B 
 269 00c6 D6E1D2B4 		.ascii	"\326\341\322\2643h\025\373Si#H\323\302\321\304\316\367"
 269      336815FB 
 269      53692348 
 269      D3C2D1C4 
 269      CEF7
 270 00d8 9BEBA268 		.ascii	"\233\353\242h;\316\265\320\034\373s\365\224\224\036"
 270      3BCEB5D0 
 270      1CFB73F5 
 270      94941E
 271 00e7 52AA1690 		.ascii	"R\252\026\220\012\313y\367ZDU\006yh\216]+=k/\315\215"
 271      0ACB79F7 
 271      5A445506 
 271      79688E5D 
 271      2B3D6B2F 
 272 00fd 97C56F4A 		.ascii	"\227\305oJ|x\251\237\377\036\236\275S\235\376\017){"
 272      7C78A99F 
 272      FF1E9EBD 
 272      539DFE0F 
 272      297B
 273 010f AFF43248 		.ascii	"\257\3642H3Z\321\226\231\275\3578\007\265\223o\313x"
 273      335AD196 
 273      99BDEF38 
 273      07B5936F 
 273      CB78
 274 0121 A10D81AA 		.ascii	"\241\015\201\252\202\341\003\004N3\320\344\247NF3\244"
 274      82E10304 
 274      4E33D0E4 
 274      A74E4633 
 274      A4
 275 0132 31C9E811 		.ascii	"1\311\350\021i\242\322\304\010\207q9KH\223\224&E\306"
 275      69A2D2C4 
 275      08877139 
 275      4B489394 
 275      2645C6
 276 0145 4883AA2D 		.ascii	"H\203\252-\320\241(D\271C\205@\343\266\262}\262\027"
 276      D0A12844 
 276      B9438540 
 276      E3B6B27D 
 276      B217
 277 0157 F81614F7 		.ascii	"\370\026\024\367g\327b\367\360-\235,\207|\024\216\305"
 277      67D762F7 
 277      F02D9D2C 
 277      877C148E 
 277      C5
 278 0168 9468B3D0 		.ascii	"\224h\263\320\314\242[\2739d\026U3\254C\361\240\220"
 278      CCA25BBB 
 278      39641655 
 278      33AC43F1 
 278      A090
 279 017a F481FD6E 		.ascii	"\364\201\375n\2717G\237\224\342\2330\276r\264p\311\203"
 279      B937479F 
 279      94E29B30 
 279      BE72B470 
 279      C983
 280 018c 6912C6E9 		.ascii	"i\022\306\351n\335\201c\036VS\330\325\372\356b\217\207"
ARM GAS  /tmp/ccC8tU94.s 			page 21


 280      6EDD8163 
 280      1E5653D8 
 280      D5FAEE62 
 280      8F87
 281 019e D5BB6049 		.ascii	"\325\273`I\024\011\037}\005\263\364\212\221\262\244"
 281      14091F7D 
 281      05B3F48A 
 281      91B2A4
 282 01ad C71565C0 		.ascii	"\307\025e\300W\333\204\211\251\211\005\364h\0061%,\212"
 282      57DB8489 
 282      A98905F4 
 282      68063125 
 282      2C8A
 283 01bf 6A6FF5BA 		.ascii	"jo\365\272\273\241\234\025D\262\205\273\234\274\031"
 283      BBA19C15 
 283      44B285BB 
 283      9CBC19
 284 01ce 0ABA7EB4 		.ascii	"\012\272~\264x\325\363hv\301eJ\341\3314\364\243\030"
 284      78D5F368 
 284      76C1654A 
 284      E1D934F4 
 284      A318
 285 01e0 FF52F6F3 		.ascii	"\377R\366\363\026\311\311\377\005E\366\224{KQZ\365\177"
 285      16C9C9FF 
 285      0545F694 
 285      7B4B515A 
 285      F57F
 286 01f2 01840EC4 		.ascii	"\001\204\016\304E#\335B\200\370\212\265q\330\320 p\201"
 286      4523DD42 
 286      80F88AB5 
 286      71D8D020 
 286      7081
 287 0204 78A68589 		.ascii	"x\246\205\211\206c\275\001\214\271\007\230Y\252\371"
 287      8663BD01 
 287      8CB90798 
 287      59AAF9
 288 0213 3989873C 		.ascii	"9\211\207<A};\345Q\022\347Q\274\377*\325\300\217f\015"
 288      417D3BE5 
 288      5112E751 
 288      BCFF2AD5 
 288      C08F660D 
 289 0227 C48915BC 		.ascii	"\304\211\025\274\177\335\275\377\372\312\322/\346a\222"
 289      7FDDBDFF 
 289      FACAD22F 
 289      E66192
 290 0236 E7B9E581 		.ascii	"\347\271\345\201\\n\307N\345\247\247e~\222\236\254\341"
 290      5C6EC74E 
 290      E5A7A765 
 290      7E929EAC 
 290      E1
 291 0247 CA1E4FBC 		.ascii	"\312\036O\274\177q\305\223M\215\302\023j\200\206\263"
 291      7F71C593 
 291      4D8DC213 
 291      6A8086B3 
 292 0257 BC85C9B3 		.ascii	"\274\205\311\263\235\005\232p\013&\355\006\037\300o"
 292      9D059A70 
 292      0B26ED06 
ARM GAS  /tmp/ccC8tU94.s 			page 22


 292      1FC06F
 293 0266 8354B671 		.ascii	"\203T\266qx\362)\211i\240\236jS!\257\354\276i\367\364"
 293      78F22989 
 293      69A09E6A 
 293      5321AFEC 
 293      BE69F7F4 
 294 027a D2AACE9B 		.ascii	"\322\252\316\233\251\240b\340\033P\240\266\271/\371"
 294      A9A062E0 
 294      1B50A0B6 
 294      B92FF9
 295 0289 3535CDB9 		.ascii	"55\315\271\261\357\001Rc\360\217;\027\211g\034|M\310"
 295      B1EF0152 
 295      63F08F3B 
 295      1789671C 
 295      7C4DC8
 296 029c 8EA41DA9 		.ascii	"\216\244\035\251\323\321\335\235\351\035\262\006\254"
 296      D3D1DD9D 
 296      E91DB206 
 296      AC
 297 02a9 1BB7320F 		.ascii	"\033\2672\017\363\231\341\307\231\374p6\223\035z428"
 297      F399E1C7 
 297      99FC7036 
 297      931D7A34 
 297      3238
 298 02bb 3298EFCE 		.ascii	"2\230\357\316\302\037\011ne\217"
 298      C21F096E 
 298      658F
 299              		.text
 300              		.section	.gnu.lto_chIQGetTimeout.d4c02cca46093858,"",%progbits
 301 0000 789C9D55 		.ascii	"x\234\235UMh\023A\024\236\267\233\354n6I\223\376YD\017"
 301      4D681341 
 301      149EB79B 
 301      EC6E3649 
 301      93FE5944 
 302 0015 A5224885 		.ascii	"\245\"H\205\006\361 \236<x\362 \012\266\240\3076\312"
 302      06F1209E 
 302      3C78F220 
 302      0AB6A0C7 
 302      36CA
 303 0027 BA4811AD 		.ascii	"\272H\021\255^\364\320I\223Bi,T\021\352\337\301\036"
 303      5EF4D049 
 303      9342692C 
 303      5411EADF 
 303      C11E
 304 0039 2CE24145 		.ascii	",\342AE\021KE\273\212bK\324VD\260Ui\360\007=\250(*\370"
 304      114B45BB 
 304      8A624BD4 
 304      5644B055 
 304      69F0073D 
 305 0051 BFBE379B 		.ascii	"\277\2767\233\335$\022\354\352@\337Nf\336\367\2757\337"
 305      DD2412EC 
 305      EA40DF4E 
 305      66DEF7BD 
 305      37DF
 306 0063 7B339598 		.ascii	"{3\225\230\304\376\034;\360\357\262\306\3302\372\021"
 306      C4FE1C3B 
 306      F0EFB2C6 
ARM GAS  /tmp/ccC8tU94.s 			page 23


 306      D832FA11 
 307 0073 61801E20 		.ascii	"a\200\036 I2c\\\012\240\011\310\200\037\010\200\212"
 307      4932635C 
 307      0AA009C8 
 307      801F0880 
 307      8A
 308 0084 362829B4 		.ascii	"6()\264\256\322\272\002a\\Q\245 \255h\264\242I!\232"
 308      AED2BA02 
 308      615C51A5 
 308      20AD68B4 
 308      A249219A 
 309 0098 EB340F01 		.ascii	"\3534\017\001~@\027>a\000\244\006\326-\311\201\240\242"
 309      7E40173E 
 309      6100A406 
 309      D62DC981 
 309      A0A2
 310 00aa 6A213D0C 		.ascii	"j!=\014\335[h\215\305\232\3300\347\207\362\247\306\356"
 310      DD5B688D 
 310      C59AD830 
 310      E787F2A7 
 310      C6EE
 311 00bc C3D1C356 		.ascii	"\303\321\303V\346$\377a\333\000&m&\201m\306\0314\212"
 311      E624FF61 
 311      DB00266D 
 311      26816DC6 
 311      19348A
 312 00cf 0F25533A 		.ascii	"\017%S:\034\240\3650{`a\377\311\236A\376\013q\376aO"
 312      1CA0F530 
 312      7B6061FF 
 312      C99E41FE 
 312      0B71FE61 
 313 00e4 7323A530 		.ascii	"s#\2450\331\027\354\210\3651\227\033\006~\210\247\336"
 313      D917EC88 
 313      F531971B 
 313      067E88A7 
 313      DE
 314 00f5 DB76CC24 		.ascii	"\333v\314$a|E{\234\035j\350\317s7Z\260\010\323\034\030"
 314      617C457B 
 314      9C1D6AE8 
 314      CF73375A 
 314      B008D31C 
 315 010a 54847DCF 		.ascii	"T\204}\317\226ES\374E\343\017^l\234\340\031\313\266"
 315      964553FC 
 315      45E30F5E 
 315      6C9CE019 
 315      CBB6
 316 011c D7F8C658 		.ascii	"\327\370\306X?s\003\245z\250>C\315\224\204\362\213\271"
 316      3F7303A5 
 316      7AA83E43 
 316      CD9484F2 
 316      8BB9
 317 012e 709A8744 		.ascii	"p\232\207D\231e\337\030\313\316\376Wz\237\377==\353"
 317      9965DF18 
 317      CBCEFE57 
 317      7A9FFF3D 
 317      3DEB
 318 0140 E0BDA1FF 		.ascii	"\340\275\241\377\010e]\315\0154\360b\2115\211-\001?"
ARM GAS  /tmp/ccC8tU94.s 			page 24


 318      08655DCD 
 318      0D34F062 
 318      8935892D 
 318      013F
 319 0152 551EB49E 		.ascii	"U\036\264\236\344\"\203\251>n\333\335\330P\022[\012"
 319      E42283A9 
 319      3E6EDBDD 
 319      D850125B 
 319      0A
 320 0163 F3043C27 		.ascii	"\363\004<'Yy\333~\362\370\323\363\001\250\255\003F("
 320      5979DB7E 
 320      F2F8D3F3 
 320      01A8AD03 
 320      4628
 321 0175 E80426E3 		.ascii	"\350\004&\343\214\005\310\004\321\004\0254\262\212\033"
 321      8C05C804 
 321      D1041534 
 321      B28A1B
 322 0184 18BD1DCE 		.ascii	"\030\275\035\316C\023\013\221\253\216F\011\223\211\240"
 322      43130B91 
 322      AB8E4609 
 322      9389A0
 323 0193 51A364AA 		.ascii	"Q\243d\252\310\304\320\353,z\305\351G5\231\0322\265"
 323      C8C4D0EB 
 323      2C7AC5E9 
 323      4735991A 
 323      32B5
 324 01a5 4CB43972 		.ascii	"L\2649rf0\331F\307Gh\202\243U\3306z2\344)\226\316\277"
 324      6630D946 
 324      C7476882 
 324      A355D836 
 324      7A32E429 
 325 01bc EE55DBE1 		.ascii	"\356U\333\341\002\3657\333\317\276\361>\0367!\224\004"
 325      02F537DB 
 325      CFBEF13E 
 325      1E372194 
 325      04
 326 01cd E7DC26BD 		.ascii	"\347\334&\275\010wY\317\354(\336u\307\315\000y9k6!|"
 326      087759CF 
 326      EC28DE75 
 326      C7CD0079 
 326      396B3621 
 327 01e2 9C1DC393 		.ascii	"\234\035\303\223F\014\220\350\304Q\341\337\341\3115"
 327      460C90E8 
 327      C451E1DF 
 327      E1C935
 328 01f1 C1326F52 		.ascii	"\3012oRQ\017B.\341RE\332\350\376\312D\375h\354\272G"
 328      510F422E 
 328      E15245DA 
 328      E8FECA44 
 328      FD68ECBA 
 329 0206 1DF0433D 		.ascii	"\035\360C=\3052V\263\233\263A'EG\023\252\234\335VZ\220"
 329      C53256B3 
 329      9BB34127 
 329      454713AA 
 329      9CDD565A 
 330 021b DB6893E8 		.ascii	"\333h\223\350\277\245\257\014\255\367\2048/\204p\261"
ARM GAS  /tmp/ccC8tU94.s 			page 25


 330      BFA5AF0C 
 330      ADF78438 
 330      2F8470B1 
 331 022b 8853F6B3 		.ascii	"\210S\366\263}&\235\350\014\307q\011\243\305*\007/\351"
 331      7D269DE8 
 331      0CC77109 
 331      A3C52A07 
 331      2FE9
 332 023d 8329D66B 		.ascii	"\203)\326k-j\207Q\221\261\346\211\026O\202\363P#\253"
 332      2D6A8751 
 332      91B1E689 
 332      164F82F3 
 332      5023AB
 333 0250 01AA09D5 		.ascii	"\001\252\011\325\244\302\315\227\327\347\262\021\317"
 333      A4C2CD97 
 333      D7E7B211 
 333      CF
 334 025d 9B286BCA 		.ascii	"\233(k\312uP\012\205\370rKw\334\312\013!\227\025br\364"
 334      75500A85 
 334      F8724B77 
 334      DCCA0B21 
 334      97156272 
 335 0272 DA6A972C 		.ascii	"\332j\227,\204|.\211*H2\371\267\267\302\256\226A\217"
 335      847C2E89 
 335      2A4832F9 
 335      B7B7C2AE 
 335      96418F
 336 0285 A5360981 		.ascii	"\2456\011\201Bf\250S]\2418+=\307\315\316\373V\232\224"
 336      4266A853 
 336      5DA1382B 
 336      3DC7CDCE 
 336      FB569A94 
 337 0299 26D4BB31 		.ascii	"&\324\2731;:\276\302u\323I\244\014\272\326WV\310\375"
 337      3B3ABEC2 
 337      75D349A4 
 337      0CBAD657 
 337      56C8FD
 338 02ac 2F7597A5 		.ascii	"/u\227\245\373\322#^I\303\210$\267z\033GL\354\337X\347"
 338      FBD2235E 
 338      49C38824 
 338      B77A1B47 
 338      4CECDF58 
 339 02c1 6C0AC214 		.ascii	"l\012\302\024\217\316CiP\347\210N\031\237\361h#\242"
 339      8FCE4369 
 339      50E7884E 
 339      199FF168 
 339      23A2
 340 02d3 53D4CA38 		.ascii	"S\324\3128\331K\245gr\320\023$\212(\221^Vv\227\252p"
 340      D94BA567 
 340      72D01324 
 340      8A28915E 
 340      567697AA 
 341 02e8 D5BBE6E8 		.ascii	"\325\273\346\350]\222\030\216U\363\0040\250\347\020"
 341      5D92188E 
 341      55F30430 
 341      A8E710
 342 02f7 35D6BBC0 		.ascii	"5\326\273\300%\244\356I!\024\237~\255\300\255\026\223"
ARM GAS  /tmp/ccC8tU94.s 			page 26


 342      25A4EE49 
 342      21149F7E 
 342      ADC0AD16 
 342      93
 343 0308 99FD325E 		.ascii	"\231\3752^\274Fq\237'\230\235\256r!\325\177\203\270"
 343      BC46719F 
 343      27989DAE 
 343      7221D57F 
 343      83B8
 344 031a 4F0E16F7 		.ascii	"O\016\026\367U\361\346\305\015\352\303baC\205[w\344"
 344      55F1E6C5 
 344      0DEAC362 
 344      6143855B 
 344      77E4
 345 032c D957C9F5 		.ascii	"\331W\311\365\251\371\033m\260\230\311\344\264^\246"
 345      A9F91B6D 
 345      B098C9E4 
 345      B45EA6
 346 033b CF8A79F5 		.ascii	"\317\212y\365\251q\303\352\205&\357\277]\361\265)o\362"
 346      A971C3EA 
 346      8526EFBF 
 346      5DF1B529 
 346      6FF2
 347 034d 77E98B27 		.ascii	"w\351\213'\274\022\325\242\250.\013\366\201\234c)l\316"
 347      BC12D5A2 
 347      A82E0BF6 
 347      819C6329 
 347      6CCE
 348 035f ADD41BF7 		.ascii	"\255\324\033\367\305\324p\356\346\014\003\274\022\312"
 348      C5D470EE 
 348      E60C03BC 
 348      12CA
 349 036d 89B9C588 		.ascii	"\211\271\305\210\321\357|\210\320S\200;\324C\215--\211"
 349      D1EF7C88 
 349      D053803B 
 349      D4438D2D 
 349      2D89
 350 037f B5DBCD0E 		.ascii	"\265\333\315\016s\303\246\304\316\256\304\356=\211\256"
 350      73C3A6C4 
 350      CEAEC4EE 
 350      3D89AE
 351 038e DDC94472 		.ascii	"\335\311Dr\373\256\275\333\366n\353jI2\350\220;\273"
 351      FBAEBDDB 
 351      F66EEB6A 
 351      4932E890 
 351      3BBB
 352 03a0 8CDFCF57 		.ascii	"\214\337\317W\347\177"
 352      E77F
 353              		.text
 354              		.section	.gnu.lto_chIQReadTimeout.d4c02cca46093858,"",%progbits
 355 0000 789C9D55 		.ascii	"x\234\235UMl\033U\020\236\331\347\377\237\265\235\270"
 355      4D6C1B55 
 355      109ED9E7 
 355      FF9FB59D 
 355      B8
 356 0011 4D9C0429 		.ascii	"M\234\004)*\027D\301V\016\025\342\324\003'NTj-\205\003"
 356      2A1744C1 
ARM GAS  /tmp/ccC8tU94.s 			page 27


 356      560E15E2 
 356      D403274E 
 356      546A2D85 
 357 0026 87C62D1B 		.ascii	"\207\306-\033\037\002%\241HP\241\254\023W\011\245\255"
 357      1F0225A1 
 357      4850A1AC 
 357      135709A5 
 357      AD
 358 0037 A302525B 		.ascii	"\243\002R[*Z\016\010\204*(U\016\001\016\270U\245\306"
 358      2A5A0E08 
 358      842A2855 
 358      0E010EB8 
 358      55A5C6
 359 004a 2AC5543D 		.ascii	"*\305T=\264\016\005\031\201T!\220@\225P\376*\226\231"
 359      B40E0519 
 359      81542190 
 359      409550FE 
 359      2A9699
 360 005d B77E6B1B 		.ascii	"\267~k\033Y\365\322\225<^\317\233o\276y\337{3\326@\203"
 360      59F5D295 
 360      3C5ECF9B 
 360      6FBE79DF 
 360      7B33D640 
 361 0072 FF3EC7E8 		.ascii	"\377>\307\350\223\016\001<\311?\342\200\024\201\032"
 361      930E013C 
 361      C93FE280 
 361      14811A
 362 0081 0AB2023D 		.ascii	"\012\262\002=d=\232\027\300\324|d<^\244/\364a\220\254"
 362      643D9A17 
 362      C0D47C64 
 362      3C5EA42F 
 362      F46190AC 
 363 0095 5F0BB03F 		.ascii	"_\013\260?\310\376\000\306\310\023\324\374\354\011\261"
 363      C8FE00C6 
 363      C813D4FC 
 363      EC09B1
 364 00a4 27A485F9 		.ascii	"'\244\205\371=\302\357a\244/\214hQ\366\350\354\211\312"
 364      3DC2EF61 
 364      A42F8C68 
 364      51F6E8EC 
 364      89CA
 365 00b6 785DE68F 		.ascii	"x]\346\217!\0221\302\264&<^\237?\020\014\205#Q=\206"
 365      211231C2 
 365      B4263C5E 
 365      9F3F100C 
 365      8523513D 
 366 00cb D3CFB31F 		.ascii	"\323\317\263\037\022\333\340C\323<Q\377hu]\234z\267"
 366      12DBE043 
 366      D33C51FF 
 366      68755D9C 
 366      7AB7
 367 00dd 5C3C67DE 		.ascii	"\\<g\336\267,\304</\346\020F\351\015\207\345\227\346"
 367      B72CC43C 
 367      2FE61046 
 367      E90D87E5 
 367      97E6
 368 00ef 69DF9804 		.ascii	"i\337\230\004.\230\027?1\203\022$\362\274+\027\230\323"
ARM GAS  /tmp/ccC8tU94.s 			page 28


 368      2E98173F 
 368      31831224 
 368      F2BC2B17 
 368      98D3
 369 0101 E56FAA47 		.ascii	"\345o\252GSG\316\315,\230\377\020W\236\313t\001;Q\376"
 369      5347CECD 
 369      2C98FF10 
 369      579ECB74 
 369      013B51FE 
 370 0115 B274A6EF 		.ascii	"\262t\246\357H\335T0o\023\026\260a\330\021v\253\324"
 370      48DD5430 
 370      6F1316B0 
 370      61D81176 
 370      ABD4
 371 0127 C6E673C7 		.ascii	"\306\346s\307f\336\372u\327\262Y,[\326N\327\230r\255"
 371      66DEFA75 
 371      D7B2592C 
 371      5BD64ED7 
 371      9872AD
 372 013a 9DCAAFC1 		.ascii	"\235\312\257\301\243\350\216\355f\013\233\337e\205\177"
 372      A3E88EED 
 372      660B9BDF 
 372      65857F
 373 0149 3F04A6F5 		.ascii	"?\004\246\365\270\334b\276\276\263\353\244\342\011\270"
 373      B8DC62BE 
 373      BEB3EBA4 
 373      E209B8
 374 0158 14FD87D2 		.ascii	"\024\375\207\322\3616%\\R\255\377\377-\225\177\254\236"
 374      F136255C 
 374      52ADFFFF 
 374      2D957FAC 
 374      9E
 375 0169 7908AAF2 		.ascii	"y\010\252\362;\325\343)\263\011\013j\360\230\273\263"
 375      3BD5E329 
 375      B3090B6A 
 375      F098BBB3 
 376 0179 2ABF573A 		.ascii	"*\277W:\326\212\364h\360D7\344\004\302\347Z\271nYG\327"
 376      D68AF468 
 376      F04437E4 
 376      04C2E75A 
 376      B96E5947 
 377 018e 177F790B 		.ascii	"\027\177y\013\223\217 \271h\026L\240&`/^\304m\340\001"
 377      938F20B9 
 377      68164CA0 
 377      26602F5E 
 377      C46DE001 
 378 01a2 4AE5C509 		.ascii	"J\345\305\011\024>\362\\ \217\277\261\022 '\006\311"
 378      143EF25C 
 378      208FBFB1 
 378      12202706 
 378      C9
 379 01b3 50EFD3B5 		.ascii	"P\357\323\265\017\223\201\010\375\364D\351M\350\214"
 379      0F938108 
 379      FDF444E9 
 379      4DE88C
 380 01c2 8B91F1C5 		.ascii	"\213\221\361\305\331$\010\3641\201z\230\240\227<\376"
 380      D92408F4 
ARM GAS  /tmp/ccC8tU94.s 			page 29


 380      31817A98 
 380      A0973CFE 
 381 01d2 249B2D6C 		.ascii	"$\233-l\266\222\011\364\361[?\233\024\233\201\006\311"
 381      B69209F4 
 381      F15B3F9B 
 381      149B8106 
 381      C9
 382 01e3 20D73204 		.ascii	" \3272\004\262\033\301\013E\352\355a\273\014{}\2421"
 382      B21BC10B 
 382      45EAED61 
 382      BB0C7B7D 
 382      A231
 383 01f5 11E8D923 		.ascii	"\021\350\331#m\226G\231\270\0163+K\367~\303\275\270"
 383      6D964799 
 383      B80E332B 
 383      4BF77EC3 
 383      BDB8
 384 0207 480D69A0 		.ascii	"H\015i\240o;|j\322\363\002)\372>\234&)B\006zY\222\260"
 384      6F3B7C6A 
 384      D2F30229 
 384      FA3E9C26 
 384      2942067A 
 385 021e 1462CCB9 		.ascii	"\024b\314\271.\204\\\272}\357\206\203\364\217\332\243"
 385      2E845CBA 
 385      7DEF8683 
 385      F48FDAA3 
 386 022e C07EB23C 		.ascii	"\300~\262<LD\025f\353\337\315\371\355\020\200C\260a"
 386      4C441566 
 386      EBDFCDF9 
 386      ED108043 
 386      B061
 387 0240 CE9BF13C 		.ascii	"\316\233\361<Frh\347\311cT\305\023T,C\361\217K_\224"
 387      467268E7 
 387      C96354C5 
 387      13542C43 
 387      F18F4B5F 
 388 0255 224E359C 		.ascii	"\"N5\2343\330<\206\032\240\201\001A\246G\277\362f\015"
 388      33D83C86 
 388      1AA08101 
 388      41A647BF 
 388      F2660D
 389 0268 340383FC 		.ascii	"4\003\203\374kP_\234\256\201\240\"\304\371\365q\003"
 389      6B505F9C 
 389      AE81A022 
 389      C4F9F571 
 389      03
 390 0279 07F4F356 		.ascii	"\007\364\363V?'\365\312\"\212\365\332U\237*\302\340"
 390      3F27F5CA 
 390      228AF5DA 
 390      559F2AC2 
 390      E0
 391 028a 69407BCA 		.ascii	"i@{\312\243n'\335\303\016\221\345\213\307rl\314\256"
 391      A36E27DD 
 391      C30E91E5 
 391      8BC7726C 
 391      CCAE
 392 029c 7EB05315 		.ascii	"~\260S\025\020>\004o\320i5D9E\325\304:\253\322\322E"
ARM GAS  /tmp/ccC8tU94.s 			page 30


 392      103E046F 
 392      D0693544 
 392      3945D5C4 
 392      3AABD2D2 
 393 02b1 55385C76 		.ascii	"U8\\v\022D\235=\307sh\377\273PV\003#yL\000\360~\013"
 393      12449D3D 
 393      C77368FF 
 393      BB505603 
 393      23794C00 
 394 02c8 3B9C584E 		.ascii	";\234XN(Z\257]\226\373U\252\370\323\\\270\223\212\242"
 394      285AAF5D 
 394      96FB55AA 
 394      F8D35CB8 
 394      938AA2
 395 02db A922955E 		.ascii	"\251\"\225^Y[\2558\347\241\033*W\226%\2242\334\231\323"
 395      595BAD38 
 395      E7A11B2A 
 395      57962594 
 395      32DC99D3 
 396 02ef D572C849 		.ascii	"\325r\310I\323\223k\034\233\024\245\267Q\325SN\340\250"
 396      D3936B1C 
 396      9B14A5B7 
 396      51D5534E 
 396      E0A8
 397 0301 3DAB5BAB 		.ascii	"=\253[\253\012I\251.\257\254m\\r\370b,R\221b\223\235"
 397      0A49A92E 
 397      AFAC6D5C 
 397      72F8622C 
 397      52916293 
 398 0316 15527FAD 		.ascii	"\025R\177\255\327av~\3663\007\026'$\207%-zbr\375\362"
 398      D761767E 
 398      F6330716 
 398      27248725 
 398      2D7A6272 
 399 032c B3F6A24C 		.ascii	"\263\366\242LX0G\272\244\244\034r\367\327\3467\235\254"
 399      583047BA 
 399      A4A41C72 
 399      F7D7E637 
 399      9DAC
 400 033e 09834F84 		.ascii	"\011\203O\204\250\336\026\312\325C^g\340\361\265\277"
 400      A8DE16CA 
 400      D5435E67 
 400      E0F1B5BF 
 401 034e 10524BBD 		.ascii	"\020RK\275\333\341qj\245\316$\302\251{\246\362\275#"
 401      DBE1716A 
 401      A5CE24C2 
 401      A97BA6F2 
 401      BD23
 402 0360 5FD260A5 		.ascii	"_\322`\245\332\010\266\220\267\225\240e\027\364\354"
 402      DA08B690 
 402      B795A065 
 402      17F4EC
 403 036f EE424078 		.ascii	"\356B@x\211\372\352\360k*\341V;^\345\365\267\024\362"
 403      89FAEAF0 
 403      6B2AE156 
 403      3B5EE5F5 
 403      B714F2
ARM GAS  /tmp/ccC8tU94.s 			page 31


 404 0382 57E33A53 		.ascii	"W\343:SD\201\222\207eT\242\031E`{\223K\233?;\242\364"
 404      44819287 
 404      6554A219 
 404      45607B93 
 404      4B9B3F3B 
 405 0398 B9DCE6CA 		.ascii	"\271\334\346\312BLA\372\037\004Q\315N\367\345na\304"
 405      424C41FA 
 405      1F0451CD 
 405      4EF7E56E 
 405      61C4
 406 03aa 612154EB 		.ascii	"a!T\353]\0117\246\314\355\315\212#U\352Ai\275\315J*"
 406      5D0937A6 
 406      CCEDCD8A 
 406      2355EA41 
 406      69BDCD4A 
 407 03bf 0BE13611 		.ascii	"\013\3416\021wt\0251\245h#\215\306Y\233\013um\034\272"
 407      77741531 
 407      A568238D 
 407      C6599B0B 
 407      756D1CBA 
 408 03d3 90BF9FF5 		.ascii	"\220\277\237\365\251\342\006\250q\344,Cu[\377<\333\257"
 408      A9E206A8 
 408      71E42C43 
 408      755BFF3C 
 408      DBAF
 409 03e5 16070DD4 		.ascii	"\026\007\015\324\344\242\272\256\313p\345\256\243\360"
 409      E4A2BAAE 
 409      CB70E5AE 
 409      A3F0
 410 03f3 60DB0CB4 		.ascii	"`\333\014\264\013\211\332\373\257\234\264\236VaCD\242"
 410      0B89DAFB 
 410      AF9CB49E 
 410      56614344 
 410      A2
 411 0404 96F5469D 		.ascii	"\226\365F\235\326Uwc\2228\3055(\320\\\330\307\3017\344"
 411      D6557763 
 411      9238C535 
 411      28D05CD8 
 411      C7C137E4 
 412 0418 AB6193D6 		.ascii	"\253a\223\326\300C}\037\270\277\271\2178\242\337ZC<"
 412      C0437D1F 
 412      B8BFB98F 
 412      38A2DF5A 
 412      433C
 413 042a DC2803F7 		.ascii	"\334(\003\367\311p:\235yf<?\226\177nw\346\345\251\314"
 413      C9703A9D 
 413      79663C3F 
 413      967F6E77 
 413      E6E5A9CC 
 414 043e E4AB99A9 		.ascii	"\344\253\231\251\311\\&7\376\312\301\375\007\367O\245"
 414      C95C2637 
 414      FECAC1FD 
 414      07F74FA5 
 415 044e 73E0193B 		.ascii	"s\340\031;\220\036\021/\275\370:N\376\013H\355;\343"
 415      901E112F 
 415      BDF83A4E 
 415      FE0B48ED 
ARM GAS  /tmp/ccC8tU94.s 			page 32


 415      3BE3
 416              		.text
 417              		.section	.gnu.lto_chOQObjectInit.d4c02cca46093858,"",%progbits
 418 0000 789C8D91 		.ascii	"x\234\215\221\317K\002Q\020\307g\336\333]\315\010:\370"
 418      CF4B0251 
 418      10C767DE 
 418      DB5DCD08 
 418      3AF8
 419 0012 0788B708 		.ascii	"\007\210\267\010\334?\242?\240C\006u\314Et\017\021i"
 419      DC3FA23F 
 419      A0430675 
 419      CC45740F 
 419      1169
 420 0024 1ECA834F 		.ascii	"\036\312\203O\335\203P\007\211\202~\\\212\360\222\220"
 420      DD835007 
 420      89827E5C 
 420      8AF09290 
 421 0034 D7209025 		.ascii	"\327 \220%\350\020&\225\247\216B\177@\267\012\011\266"
 421      E8102695 
 421      A78E427F 
 421      40B70A09 
 421      B6
 422 0045 79BB2B69 		.ascii	"y\273+i-\344\300\2767\263o>\337\231y\217\001\203\337"
 422      2DE4C0BE 
 422      37B36F3E 
 422      DF99798F 
 422      0183DF
 423 0058 16A5EF83 		.ascii	"\026\245\357\203~\307e\300\001\311E\206H\001B\211ai"
 423      7EC765C0 
 423      01C94586 
 423      48014289 
 423      6169
 424 006a 55BAC0E2 		.ascii	"U\272\300\342p.\304~\377\2569`\307\007\266u&\276\034"
 424      702EC47E 
 424      FFAE3960 
 424      C707B675 
 424      26BE1C
 425 007d 07D19487 		.ascii	"\007\321\224\207\006\302\012y\030s7\246\214\353{\240"
 425      06C20A79 
 425      187337A6 
 425      8CEB7BA0 
 426 008d FDDEDB8B 		.ascii	"\375\336\333\213\324\3135\3418%\023\371\177P\213\331"
 426      D4CB35E1 
 426      382513F9 
 426      7F508BD9 
 427 009d 7DC77938 		.ascii	"}\307y8l\274\2661\032F\\G\352\234\212q\362P\241\205"
 427      6CBCB631 
 427      1A465C47 
 427      EA9C8A71 
 427      F250A185 
 428 00b1 A914728D 		.ascii	"\251\024r\215<\036\242E\342*XB\324c\2564Y\322]\227\345"
 428      3C1EA245 
 428      E22A5842 
 428      D463AE34 
 428      59D25D97 
 429 00c6 3CBC0B95 		.ascii	"<\274\013\225A\365\246\241\257\341\005\252\220AV\204"
 429      41F5A6A1 
ARM GAS  /tmp/ccC8tU94.s 			page 33


 429      AFE105AA 
 429      90415684 
 430 00d6 1D529B87 		.ascii	"\035R\233\207KA\266m\242r\012'\324\206\232A\224\355"
 430      4B41B66D 
 430      A2720A27 
 430      D4869A41 
 430      94ED
 431 00e8 686E1329 		.ascii	"hn\023)\034\351\350\021,\333\347\001\2120\02051kb\310"
 431      1CE9E811 
 431      2CDBE701 
 431      8A301035 
 431      316B62C8 
 432 00fc 402F8934 		.ascii	"@/\2114M\014\003t\341\266\363\331\3541/S\026\260\312"
 432      4D0C0374 
 432      E1B6F3D9 
 432      EC312F53 
 432      16B0CA
 433 010f 62C6C4A9 		.ascii	"b\306\304\251\340\002C\230K\262\3229\272\032%\311\210"
 433      E0024398 
 433      4BB2D239 
 433      BA1A25C9 
 433      88
 434 0120 E4C124F3 		.ascii	"\344\301$\363I\305#\257''\3718\37129\251\214\222\325"
 434      49C523AF 
 434      2727F938 
 434      F93239A9 
 434      8C92D5
 435 0133 DDEADBCF 		.ascii	"\335\352\333\317\215R\2522\034\343\376)2\241\240\352"
 435      8D52AA32 
 435      1CE3FE29 
 435      32A1A0EA 
 436 0143 0BAAFEF8 		.ascii	"\013\252\376\370\255\277\255D\202I\315'5\177\374\000"
 436      ADBFAD44 
 436      8249CD27 
 436      357FFC00 
 437 0153 723A980C 		.ascii	"r:\230\014\371$\355\317P\356\267\347\206\217\352YR\276"
 437      F924EDCF 
 437      50EEB7E7 
 437      868FEA59 
 437      52BE
 438 0165 89BCDC58 		.ascii	"\211\274\334X\"\241/d\315\224\271\270\244o\344\365\334"
 438      22A12F64 
 438      CD94B9B8 
 438      A46FE4F5 
 438      DC
 439 0176 969ECF19 		.ascii	"\226\236\317\031\272\221\335,\244\013\351|\302\200o"
 439      BA91DD2C 
 439      A40BE97C 
 439      C2806F
 440 0185 33B2ADE2 		.ascii	"3\262\255\342"
 441              		.text
 442              		.section	.gnu.lto_chOQResetI.d4c02cca46093858,"",%progbits
 443 0000 789C6362 		.ascii	"x\234cb`b@\007\"@\274\210\205\201A\011\304af`\004\252"
 443      60624007 
 443      2240BC88 
 443      85814109 
 443      C4616660 
ARM GAS  /tmp/ccC8tU94.s 			page 34


 444 0016 60646264 		.ascii	"`dbd\004r\030\031\352\231\030\353#AL\006N%\206\205\015"
 444      04721819 
 444      EA9918EB 
 444      23414C06 
 444      4E258685 
 445 002b 0D931E3C 		.ascii	"\015\223\036<\335\376\212i\346\224\003-\013\032\376"
 445      DDFE8A69 
 445      E694032D 
 445      0B1AFE
 446 003a FCFFCFC8 		.ascii	"\374\377\317\310\230\011\222Lfd\210\000\262\030\025"
 446      9809924C 
 446      66648800 
 446      B21815
 447 0049 C014130B 		.ascii	"\300\024\023\013\252\371\020\215\007.\\\356\341\232"
 447      AAF9108D 
 447      072E5CEE 
 447      E19A
 448 0057 D0D8D1F0 		.ascii	"\320\330\321\360\377\177=\361\232.O\236&\331\265\240"
 448      FF7F3DF1 
 448      9A2E4F9E 
 448      26D9B5A0 
 449 0067 6942C33F 		.ascii	"iB\303?\240e\304j\233\320\260iE\003'\330\201\314\231"
 449      A065C46A 
 449      9BD0B069 
 449      450327D8 
 449      81CC99
 450 007a 8CCCC459 		.ascii	"\214\314\304Y\205\242\207v\366P\3566\026\"\203\356\352"
 450      85A28776 
 450      F650EE36 
 450      162283EE 
 450      EA
 451 008b E5A9C841 		.ascii	"\345\251\310A\307JH\333z\246\003\017\376\377\3373{\347"
 451      C74A48DB 
 451      7AA6030F 
 451      FEFFDF33 
 451      7BE7
 452 009d A3D78C22 		.ascii	"\243\327\214\"\334\214\214\271\214\300\264\002\014\012"
 452      DC8C8CB9 
 452      8CC0B402 
 452      0C0A
 453 00ab 6610C102 		.ascii	"f\020\301\002\"X\201\0043\033\210\305\016bq\200\010"
 453      22588104 
 453      331B88C5 
 453      0E627180 
 453      08
 454 00bc 4E20C1C2 		.ascii	"N \301\302\305\0006\037\250\240\005\350C\005\260M@\020"
 454      C500361F 
 454      A8A005E8 
 454      4305B04D 
 454      4010
 455 00ce 02264341 		.ascii	"\002&CA\011\212\371,C\323\255\037\300\244\223\310\270"
 455      098AF92C 
 455      43D3AD1F 
 455      C0A493C8 
 455      B8
 456 00df 0AA8349D 		.ascii	"\012\2504\235\221I\233A\013h\320l\206Y@\247\260\245"
 456      91499B41 
ARM GAS  /tmp/ccC8tU94.s 			page 35


 456      0B68D06C 
 456      865940A7 
 456      B0A5
 457 00f1 3332829C 		.ascii	"32\202\234\304\016vH\022#\314I@M''pA\264h3\254j\000"
 457      C40E7648 
 457      1223CC49 
 457      404D2727 
 457      7041B468 
 458 0109 025E9C9A 		.ascii	"\002^\234\232 \272\322A\266\201,\233\261\013a\0313\325"
 458      20BAD241 
 458      B6812C9B 
 458      B10B6119 
 458      33D5
 459 011b 2D63825A 		.ascii	"-c\202Z\306\014\261l\307\256Gp\313X\360Y\306\214\260"
 459      C60CB16C 
 459      C7AE4770 
 459      CB58F059 
 459      C68CB0
 460 012e EC35334C 		.ascii	"\35453L\007k:(R\201BQ0\0216\"\035\2140\203\035\250\011"
 460      076B3A28 
 460      52814251 
 460      30113622 
 460      1D8C3083 
 461 0145 24D4DC09 		.ascii	"$\324\334\011\027\342\000\233\314\016V\370\016.\312"
 461      17E2009B 
 461      CC0E56F8 
 461      0E2ECA
 462 0154 09940009 		.ascii	"\011\224\000\011\035:y\001\311\263-\215 \317r`\267\220"
 462      1D3A7901 
 462      C9B32D8D 
 462      20CF7260 
 462      B790
 463 0166 05EA594E 		.ascii	"\005\352YN\260Q\277\232W/\327\206\231\306U\315P\005"
 463      B051BF9A 
 463      572FD786 
 463      99C655CD 
 463      5005
 464 0178 8C7B6878 		.ascii	"\214{hx\025f2rb7\202\025\221\316\3163\264\036\200\352"
 464      15663272 
 464      62378215 
 464      91CECE33 
 464      B41E80EA 
 465 018c 6760A866 		.ascii	"g`\250f\370\325\320\321 \220\311\310\225\014\217@.\220"
 465      F8D5D0D1 
 465      2090C9C8 
 465      950C8F40 
 465      2E90
 466 019e 466E60AA 		.ascii	"Fn`\252\205\000F`q\301\303\300p\221\241\361\301kM\230"
 466      85004660 
 466      71C1C3C0 
 466      7091A1F1 
 466      C16B4D98 
 467 01b2 3E080801 		.ascii	">\010\010\001\351\001E\205\202\236\236\276sFfR\246\177"
 467      E9014585 
 467      829E9EBE 
 467      73466652 
 467      A67F
ARM GAS  /tmp/ccC8tU94.s 			page 36


 468 01c4 B07E7EB1 		.ascii	"\260~~\261~Q\211~qQ\262~rFaijij\261^2\003\000\022\002"
 468      7E51897E 
 468      7151B27E 
 468      72466169 
 468      6A696AB1 
 469 01de 080A     		.ascii	"\010\012"
 470              		.text
 471              		.section	.gnu.lto_chOQPutTimeout.d4c02cca46093858,"",%progbits
 472 0000 789C9D56 		.ascii	"x\234\235VKh\024i\020\256\372\273{\272\247\347\231\207"
 472      4B681469 
 472      10AEFABB 
 472      7BBAA7E7 
 472      9987
 473 0012 2C2A4250 		.ascii	",*BP\330\203B\006\327\233\027\017\236<\210\302n@\217"
 473      D8834206 
 473      D79B170F 
 473      9E3C88C2 
 473      6E408F
 474 0025 7194B659 		.ascii	"q\224\266YdY\243\027\005\375'\031A|@\0102\306'zY|\004"
 474      6459A317 
 474      05FD2719 
 474      417C4008 
 474      32C6277A 
 475 003c 154588A0 		.ascii	"\025E\210\240\330\006\017\206A4.\0334\270\354\034\014"
 475      D8060F86 
 475      41342E1B 
 475      34B8EC1C 
 475      0C
 476 004d 828A4F04 		.ascii	"\202\212O\004\215\213mU\277fF\006\323\372C\352\377\273"
 476      8D8B6D55 
 476      BF664606 
 476      D3FA43EA 
 476      FFBB
 477 005f FEFABE7A 		.ascii	"\376\372\276z\314_E\004\010\370z\375N\177\273\014\200"
 477      CC5F4504 
 477      08F87AFD 
 477      4E7FBB0C 
 477      80
 478 0070 9FF9230D 		.ascii	"\237\371#\015H\026(P#\251\010\025@\012:JU\305\024i4"
 478      48162850 
 478      23A90815 
 478      400A3A4A 
 478      55C51469 
 479 0085 A1B026C1 		.ascii	"\241\260&\301\232\204\320\371l\360YG\332\320\020I\326"
 479      9A84D0F9 
 479      6CF05947 
 479      DAD01049 
 479      D6
 480 0096 98AC4922 		.ascii	"\230\254I\"mhz\250\024\"Q#\354\026\212\252%t#i\246p"
 480      6D687AA8 
 480      14225123 
 480      EC168AAA 
 480      25742369 
 481 00ac F77AD641 		.ascii	"\367z\326Av!\234\226r\2506\375\364\231z\344\220S>%\377"
 481      76219C96 
 481      72A836FD 
 481      F4997AE4 
ARM GAS  /tmp/ccC8tU94.s 			page 37


 481      90533E25 
 482 00c1 775D449B 		.ascii	"w]D\233/\213\010\353\350\204]\336\306\2614.\0178\354"
 482      2F8B08EB 
 482      E8845DDE 
 482      C6B1342E 
 482      0F38EC
 483 00d4 FC33593D 		.ascii	"\3743Y=\215rH\226^\273n\316F%\026l\310\2711Y\371i_M"
 483      8D724896 
 483      5EBB6ECE 
 483      4625166C 
 483      C8B93159 
 484 00ec 0ECACFE4 		.ascii	"\016\312\317\344\316F\265\0163|\030\266\204\375[i\362"
 484      CE46B50E 
 484      337C18B6 
 484      84FD5B69 
 484      F2
 485 00fd A6C5F326 		.ascii	"\246\305\363&\377~\262\366\216,;\256\273\"6\306\371"
 485      FF7EB2F6 
 485      8E2C3BAE 
 485      BB2236C6 
 485      F9
 486 010e AF39B144 		.ascii	"\2579\261DLW\023\015\256\342b.\237\221I\257\360Jl\214"
 486      4C57130D 
 486      AEE2622E 
 486      9F9149AF 
 486      F04A6C8C 
 487 0122 F3A67270 		.ascii	"\363\246rp\356\276S\375a\001\343\272z\377\375\3419\357"
 487      EEBE53FD 
 487      6101E3BA 
 487      7AFFFDE1 
 487      39EF
 488 0134 260FFF80 		.ascii	"&\017\377\200+\347cs\204zL\330\247\312\201\357\207\015"
 488      2BE76373 
 488      847A4CD8 
 488      A7CA81EF 
 488      870D
 489 0146 3A37270F 		.ascii	":7'\017\316\225u\230\"`\021\316\202\274(\234\232\353"
 489      CE957598 
 489      226011CE 
 489      82BC289C 
 489      9AEB
 490 0158 5EBF327D 		.ascii	"^\2772}`\004\037\213N\004\206\341\026\004\205N\252J"
 490      60041F8B 
 490      4E0486E1 
 490      1604854E 
 490      AA4A
 491 016a 0234FAA4 		.ascii	"\0024\372\244\204{\361\002.\004\235\015\014\022Z\222"
 491      847BF102 
 491      2E049D0D 
 491      0C125A92 
 492 017a 85492291 		.ascii	"\205I\"\221b\221f\221!S\221\345S\216E\236E\033\011\275"
 492      62916691 
 492      215391E5 
 492      538E459E 
 492      451B09BD 
 493 018e 9D450778 		.ascii	"\235E\007x\275\001\032\224)\332./)Z\277y\262\207{^\271"
 493      BD011A94 
ARM GAS  /tmp/ccC8tU94.s 			page 38


 493      29DA2E2F 
 493      295ABF79 
 493      B2877B5E 
 494 01a3 0703B513 		.ascii	"\007\003\265\023\373\365^\274\304o\024v\302\214\334"
 494      FBF55EBC 
 494      C46F1476 
 494      C28CDC
 495 01b2 2BF3361A 		.ascii	"+\3636\032E\364\233\301\306\244\037x\017S)w\241\177"
 495      45F49BC1 
 495      C6A41F78 
 495      0F532977 
 495      A17F
 496 01c4 66C01D59 		.ascii	"f\300\035Y\035P\3721\002\204x\260P\335\011;(\211%pN"
 496      1D50FA31 
 496      028478B0 
 496      50DD093B 
 496      28892570 
 497 01d9 D2BA4A25 		.ascii	"\322\272J%0\217\301Q\332R\026\012\256H\332\243\333\320"
 497      308FC151 
 497      DA52160A 
 497      AE48DAA3 
 497      DBD0
 498 01eb D86BF760 		.ascii	"\330k\367`\2173\277\027/\023\207\205\211(\210L\021\375"
 498      8F33BF17 
 498      2F138785 
 498      8928884C 
 498      11FD
 499 01fd C945AC16 		.ascii	"\311E\254\026j6f\001\356\300\355\351[\023\225td\315"
 499      6A366601 
 499      EEC0EDE9 
 499      5B139574 
 499      64CD
 500 020f 94B9C60A 		.ascii	"\224\271\306\012\367pc{\211\235\255\232\276YsbJ=1Jg"
 500      F770637B 
 500      899DAD9A 
 500      BE597362 
 500      4A3D314A 
 501 0224 FCE1B3E5 		.ascii	"\374\341\263\345!\231n\361C\363I4\217\244\\;y>\345g"
 501      21996EF1 
 501      43F34934 
 501      8FA45C3B 
 501      793EE567 
 502 0238 67A112B1 		.ascii	"g\241\022\261\344\213\250\006\221\011\033\3338\254\362"
 502      E48BA806 
 502      91091BDB 
 502      38ACF2
 503 0247 8BD2B2C8 		.ascii	"\213\322\262\310p\235?^\032\203Jx\325\033\233z\370\374"
 503      709D3F5E 
 503      1A834A78 
 503      D51B9B7A 
 503      F8FC
 504 0259 97D0CCE0 		.ascii	"\227\320\314\340\"\225\311\264\275u\205\302\022\335"
 504      2295C9B4 
 504      BD7585C2 
 504      12DD
 505 0267 8581BD03 		.ascii	"\205\201\275\003\177a\010K\022\222\315\332]Z9\357~l"
 505      7F61084B 
ARM GAS  /tmp/ccC8tU94.s 			page 39


 505      1292CDDA 
 505      5D5A39EF 
 505      7E6C
 506 0279 957FE911 		.ascii	"\225\177\351\021\226df\026J+\310}\352\303\363\345!\253"
 506      96646616 
 506      4A2BC87D 
 506      EAC3F3E5 
 506      21AB
 507 028b B90416D3 		.ascii	"\271\004\026\323\353i\015\023Q$\375\343\203f\010!+\323"
 507      EB690D13 
 507      5124FDE3 
 507      83660821 
 507      2BD3
 508 029d 8B6EBF12 		.ascii	"\213n\277\022\252\322\244\215F)Y7\304E+7\213\003\213"
 508      AAD2A48D 
 508      46295937 
 508      C4452B37 
 508      8B038B
 509 02b0 BF09557D 		.ascii	"\277\011U}\035\370 \343\022\341t\033;\002\342D`\230"
 509      1DF820E3 
 509      12E1741B 
 509      3B02E244 
 509      6098
 510 02c2 F113187E 		.ascii	"\361\023\030~\371 \252K6f\006S\367\263!$\367-\210\022"
 510      F920AA4B 
 510      36660653 
 510      F7B32124 
 510      F72D8812 
 511 02d6 40E8B77D 		.ascii	"@\350\267}Z\312D^\254\306\347\326\303\263\202\273bj"
 511      5ACA445E 
 511      ACC6E7D6 
 511      C3B382BB 
 511      626A
 512 02e8 F4E58C08 		.ascii	"\364\345\214\010m\362\337\242U\353\221\214\3377\233"
 512      6DF2DFA2 
 512      55EB918C 
 512      DF379B
 513 02f7 EAB374D6 		.ascii	"\352\263t\326\372\344C\267F\340v\370U\275\000m\236\333"
 513      FAE443B7 
 513      46E076F8 
 513      55BD006D 
 513      9EDB
 514 0309 CED60C5A 		.ascii	"\316\326\014Z=\233\027\365l\332\330\244\263\371\245"
 514      3D9B17F5 
 514      6CDAD8A4 
 514      B3F9A5
 515 0318 26C38C5E 		.ascii	"&\303\214^\215E\324\355q\250\251]\234\305\341( L\320"
 515      8D45D4ED 
 515      71A8A95D 
 515      9CC5E128 
 515      204CD0
 516 032b 1E734262 		.ascii	"\036sBb3\350\313\233\325\226\003\247\271/GG\337\316"
 516      33E8CB9B 
 516      D59603A7 
 516      B92F4747 
 516      DFCE
 517 033d 0BBD77B0 		.ascii	"\013\275w\2607\245\036!\375\177\241T\241D5\330\310\352"
ARM GAS  /tmp/ccC8tU94.s 			page 40


 517      37A51E21 
 517      FD7FA154 
 517      A14435D8 
 517      C8EA
 518 034f 09EF68F9 		.ascii	"\011\357h\371\217\373\021 5\262:ru\001\341\314\343\327"
 518      8FFB1120 
 518      35B23A72 
 518      7501E1CC 
 518      E3D7
 519 0361 323CF0E8 		.ascii	"2<\360\350\206+\330\325\335]X\271\331\336`\257\371\265"
 519      862BD8D5 
 519      DD5D58B9 
 519      D9DE60AF 
 519      F9B5
 520 0373 F0475F61 		.ascii	"\360G_a\353\266B\337\326b\241\270\371\317\355\233\266"
 520      EBB642DF 
 520      D662A1B8 
 520      F9CFED9B 
 520      B6
 521 0384 6FEAEB2E 		.ascii	"o\352\353.\202\262\245\317\372\002\326\267\331q"
 521      82B2A5CF 
 521      FA02D6B7 
 521      D971
 522              		.text
 523              		.section	.gnu.lto_chOQGetI.d4c02cca46093858,"",%progbits
 524 0000 789C9D54 		.ascii	"x\234\235TOH\024Q\030\377\276\371\273\377f\327KF7\261"
 524      4F481451 
 524      18FFBEF9 
 524      BBFF66D7 
 524      4B4637B1 
 525 0014 4E1A2E75 		.ascii	"N\032.u\351\330\301S\247\202\022\354\250\233\254s\210"
 525      E9D8C153 
 525      A78212EC 
 525      A89BAC73 
 525      88
 526 0025 C8CD4B1E 		.ascii	"\310\315K\036|\353\256 \205 \022\255\324E/\021\021\011"
 526      7CEBAE20 
 526      852012AD 
 526      D4452F11 
 526      1109
 527 0037 41204538 		.ascii	"A E8x\262L\264:l\316\245%\212\016J\024!\305j;}of\337"
 527      78B24CB4 
 527      3A6CCEA5 
 527      258A0E4A 
 527      1421C56A 
 528 0050 EC18E24E 		.ascii	"\354\030\342N>\230o\346\275\367\373}\337\357}\357\373"
 528      3E986FE6 
 528      BDF7FB7D 
 528      DFEF7DEF 
 528      FB
 529 0061 460209FE 		.ascii	"F\002\011\376\035\335\364\314j\000'\370$\002H\010\224"
 529      1DDDF4CC 
 529      6A0027F8 
 529      24024808 
 529      94
 530 0072 24198049 		.ascii	"$\031\200I\012\031EF\235V\024I\345+\032_Q\221^\250\271"
 530      0A194546 
ARM GAS  /tmp/ccC8tU94.s 			page 41


 530      9D561449 
 530      E52B1A5F 
 530      51915EA8 
 531 0087 EB3A22D1 		.ascii	"\353:\"\321\020F%YQ5\035G/\3639$\332a\216\261\351\312"
 531      10462559 
 531      51351D47 
 531      2FF33924 
 531      DA618EB1 
 532 009d 97AA2D95 		.ascii	"\227\252-\225\356X\371Y\266\3538\210&\337\314 \364\322"
 532      EE58F959 
 532      B6EB3888 
 532      26DFCC20 
 532      F4D2
 533 00af 1746DC97 		.ascii	"\027F\334\227\204{\345\270\304\031k\243\374z\016\331"
 533      847BE5B8 
 533      C4196BA3 
 533      FC7A0ED9 
 534 00bf 34CB7F77 		.ascii	"4\313\177w\234\224\211r\203\326\346\321\224}h\323\326"
 534      9C948972 
 534      83D6E6D1 
 534      947D68D3 
 534      D6
 535 00d0 C7D24A90 		.ascii	"\307\322J\220\246\204\243\261\367\237/,\263\242\345"
 535      A684A3B1 
 535      F79F2F2C 
 535      B3A2E5
 536 00df 38674373 		.ascii	"8gCs\254\037\345\311c\267f\307\246X\215Nf\242\0322\324"
 536      AC1FE5C9 
 536      63B766C7 
 536      A6588D4E 
 536      66A21A32 
 537 00f4 46205458 		.ascii	"F TX\316\323\207,\352fP\016\315\261~\226\016%o\373\377"
 537      CED3872C 
 537      EA66500E 
 537      CDB17E96 
 537      0E256FFB 
 538 0109 E559DBE5 		.ascii	"\345Y\333\345\322!BY;\245\273A\232\026\222\266X\236"
 538      D2214259 
 538      3BA5BB41 
 538      9A1692B6 
 538      589E
 539 011b 3CCA2A4C 		.ascii	"<\312*L\320t\011\216c\223\232\232\227\254\212\343l\275"
 539      D074098E 
 539      63939A9A 
 539      97AC8AE3 
 539      6CBD
 540 012d 78F66902 		.ascii	"x\366i\002[[\020\250\236$\274\212 \323\027(|\252\222"
 540      5B5B10A8 
 540      9E24BC8A 
 540      20D31728 
 540      7CAA92
 541 0140 51346E74 		.ascii	"Q4nt2j\204\233(71\350\303\307\330\016q>Ipcp\223$\243"
 541      326A849B 
 541      283731E8 
 541      C3C7D80E 
 541      713E4970 
 542 0159 A5C02D4C 		.ascii	"\245\300-LP\241\310\330T\233\007tOA\343\222k{x;\311"
ARM GAS  /tmp/ccC8tU94.s 			page 42


 542      50A1C8D8 
 542      549B0774 
 542      4F41E392 
 542      6B7B783B 
 543 016e 6B50AC6C 		.ascii	"kP\254ln\306\372\360\011%'\213\362\010T\331\004k11\222"
 543      6EC6FAF0 
 543      0925278B 
 543      F20854D9 
 543      046B3131 
 544 0183 414F6A16 		.ascii	"AOj\026%\023\243\000\313P\334\312\033>\260\327\353\230"
 544      2513A300 
 544      CB50DCCA 
 544      1B3EB0D7 
 544      EB98
 545 0195 C6E8E101 		.ascii	"\306\350\341\001\345U\030[\230\331\351\0200\205\303"
 545      E555185B 
 545      98D9E910 
 545      3085C3
 546 01a4 E43F4E7D 		.ascii	"\344?N}\340\250\300*.v\311\376\275sZ`\325Nx\304\212"
 546      E0A8C02A 
 546      2E76C9FE 
 546      BD735A60 
 546      D54E78C4 
 547 01b9 848FDD87 		.ascii	"\204\217\335\207{\364\212SdNO\270\224~?\332*\024&\012"
 547      7BF48A53 
 547      644E4FB8 
 547      947E3FDA 
 547      2A14260A 
 548 01cd 0F50D034 		.ascii	"\017P\3204brX\014\335\275\245s\336\206\353,\317\214"
 548      6272580C 
 548      DDBDA573 
 548      DE86EB2C 
 548      CF8C
 549 01df 26EEB2FC 		.ascii	"&\356\262\374rI\264=S\263}\227z'tP&\367\347\241/c\354"
 549      7249B43D 
 549      53B37D97 
 549      7A277450 
 549      26F7E7A1 
 550 01f6 D5545C50 		.ascii	"\325T\\P\"Y\376\317!i\267e\261\024\245U\377\312\011"
 550      2259FECF 
 550      2169B765 
 550      B114A555 
 550      FFCA09
 551 0209 1D1046E3 		.ascii	"\035\020F\343L\223\000Y\236sb=\037o\025\016\371A\362"
 551      4C930059 
 551      9E73623D 
 551      1F6F150E 
 551      F941F2
 552 021c 44A5BF87 		.ascii	"D\245\277\207^\367\2556\304\330\013\265w\376\011\342"
 552      5EF7AD36 
 552      C4D80BB5 
 552      77FE09E2 
 553 022c 214F60AF 		.ascii	"!O`\257'\005%q\020E\374\233\251\010\2766\212\200P\211"
 553      27052571 
 553      1045FC9B 
 553      A908BE36 
 553      8A805089 
ARM GAS  /tmp/ccC8tU94.s 			page 43


 554 0240 6001A85E 		.ascii	"`\001\250^\001\330\037jUI`\214\203\334\312\201\\\256"
 554      01D81F6A 
 554      5549608C 
 554      83DCCA81 
 554      5CAE
 555 0252 C7F6E4E7 		.ascii	"\307\366\344\347T\323\374\030\"\254\346\205\255\026"
 555      54D3FC18 
 555      22ACE685 
 555      AD16
 556 0260 7ECD9F14 		.ascii	"~\315\237\024a\223#p\223\372\240\356,g\242\261\277\263"
 556      61932370 
 556      93FAA0EE 
 556      2C67A2B1 
 556      BFB3
 557 0272 4023AFC1 		.ascii	"@#\257\301\270U\347\003\370}\220\314\324\017O>91\005"
 557      B855E703 
 557      F87D90CC 
 557      D40F4F3E 
 557      393105
 558 0285 D45A2DAE 		.ascii	"\324Z-\256\344o\005g\336\277\355\024\335\217\020D\225"
 558      E46F0567 
 558      DEBFED14 
 558      DD8F1044 
 558      95
 559 0296 20AF403E 		.ascii	" \257@>\002p\205\253}\353~f=\341\033\200\324\026\362"
 559      027085AB 
 559      7DEB7E66 
 559      3DE11B80 
 559      D416F2
 560 02a9 9B974788 		.ascii	"\233\227G\210\243\355.\032\274\037i\207\007i\353\352"
 560      A3ED2E1A 
 560      BC1F6987 
 560      0769EBEA 
 561 02b9 4A770F9A 		.ascii	"Jw\017\232\375\346\371\213\351k\271\364\320\215tn(\223"
 561      FDE6F98B 
 561      E96BB9F4 
 561      D08D746E 
 561      2893
 562 02cb CE0C5E1F 		.ascii	"\316\014^\037\036\030\036\310ue\000\373\377\002?\375"
 562      1E181EC8 
 562      756500FB 
 562      FF023FFD 
 563 02db 7A2E     		.ascii	"z."
 564              		.text
 565              		.section	.gnu.lto_chOQWriteTimeout.d4c02cca46093858,"",%progbits
 566 0000 789C9D56 		.ascii	"x\234\235VOh\034e\024\177of\377\317\356\354\346\337"
 566      4F681C65 
 566      147F6F66 
 566      FFCFEEEC 
 566      E6DF
 567 0012 269BB410 		.ascii	"&\233\264\020\352\245X\315RJ\351\301C\017\236<Y\320"
 567      EAA558CD 
 567      524AE9C1 
 567      430F9E3C 
 567      59D0
 568 0024 403C7848 		.ascii	"@<xH\3268\235C\3246\026\321\036:\233l\240T\267\204\""
 568      D6389D43 
ARM GAS  /tmp/ccC8tU94.s 			page 44


 568      D43616D1 
 568      1E3A9B6C 
 568      A054B784 
 569 0039 344D14EA 		.ascii	"4M\024\352Mz0\245\321lj\212\254\325C\302\262\264E$\335"
 569      4D7A30A5 
 569      D16C6A8A 
 569      ACD543C2 
 569      B2B44524 
 570 004e 4D820B15 		.ascii	"M\202\013\025Ji<\012MS\\\337\233\231ovV\226\356\330"
 570      4A693C0A 
 570      4D535CDF 
 570      9B996F76 
 570      5696EED8 
 571 0062 81BC9979 		.ascii	"\201\274\231y\337\373\275\337{o\336{\033\011$\370\357"
 571      DFFBBDDF 
 571      7B6FDE7B 
 571      1B0924F8 
 571      EF
 572 0073 95A7BF63 		.ascii	"\225\247\277c\021\200W\371%\001H\026(\241LRF\037I\037"
 572      118057F9 
 572      25014816 
 572      28A14C52 
 572      461F491F 
 573 0087 0649FAA5 		.ascii	"\006I\372\245\000\200!\321\243\341\013`\2344A\311\317"
 573      008021D1 
 573      A3E10B60 
 573      9C3441C9 
 573      CF
 574 0098 9A106B42 		.ascii	"\232\020kBR\230\237#\374\034F\272aDRX\023e\215\202t"
 574      52989F23 
 574      FC1C46BA 
 574      61445258 
 574      13658D82 
 575 00ad C3A81463 		.ascii	"\303\250\024c\215\312\232\230\351A5\375\307\021\211"
 575      8DCA9A98 
 575      E94135FD 
 575      C71189
 576 00bc 18E19C24 		.ascii	"\030\341\234$\373\374\201`(\034Q\24215\216\347\336a"
 576      FBFC8160 
 576      281C51A2 
 576      31358EE7 
 576      DE61
 577 00ce 3D741C80 		.ascii	"=t\034\200o\014\343RmfiO\276\362e1w\325xV\257#\352|"
 577      6F0CE352 
 577      6D66694F 
 577      BEF26531 
 577      77D57856 
 578 00e6 984118A1 		.ascii	"\230A\030\241'\0344o\222\25791\0238k\334\370\326\010"
 578      271C346F 
 578      92AF3931 
 578      13386BDC 
 578      F8D608
 579 00f9 9B2059E7 		.ascii	"\233 Y\347\254<`\346\213_o~\221\272puj\326\370\207\270"
 579      AC3C60E6 
 579      8B5F6F7E 
 579      91BA7075 
 579      6AD6F887 
ARM GAS  /tmp/ccC8tU94.s 			page 45


 580 010e 740ED303 		.ascii	"t\016\323\003\354R\361\362\346\345\336\0135C\300\374"
 580      EC52F1F2 
 580      E6E5DE0B 
 580      3543C0FC 
 581 011e 0D58C882 		.ascii	"\015X\310\202aK\330\017\013Ml\001ol\306\306\237'\326"
 581      614BD80F 
 581      0B4D6C01 
 581      6F6CC6C6 
 581      9F27D6
 582 0131 8C5CB15E 		.ascii	"\214\\\261^?\356\031S,4'\026\364H\365\273\213\312+\306"
 582      3FEE1953 
 582      2C342716 
 582      F448F5BB 
 582      8BCA2BC6 
 583 0145 5D77AF98 		.ascii	"]w\257\230\277]<!\011^Bo\260?\266N\314\011X\330c\321"
 583      BF5D3C21 
 583      095E426F 
 583      B03FB64E 
 583      CC0958D8 
 584 015b 6F2E5C7C 		.ascii	"o.\\|\221J\354\376\377J\024W7\277z\001\252\342n\365"
 584      914AECFE 
 584      FF4A1457 
 584      37BF7A01 
 584      AAE26EF5 
 585 016f 62CA68C0 		.ascii	"b\312h\300\"\022\034\364V\217\342\336|\336\215\364I"
 585      22121CF4 
 585      568FE2DE 
 585      7CDE8DF4 
 585      49
 586 0180 F04A3BE4 		.ascii	"\360J;\344\004\302\242T\254\325\353\2676n>\330\303\344"
 586      04C2A254 
 586      ACD5EBB7 
 586      366E3ED8 
 586      C3E4
 587 0192 7E2415ED 		.ascii	"~$\025\355\202\011\224d\030\305\033x\000|@\256\3748"
 587      82099464 
 587      18C51B78 
 587      007C40AE 
 587      FC38
 588 01a4 81728034 		.ascii	"\201r\2004\327I\023\264OB\244\3040\011\332\000\324\366"
 588      D74913B4 
 588      4F42A4C4 
 588      3009DA00 
 588      D4F6
 589 01b6 0A0988D2 		.ascii	"\012\011\210\322\253/FO\262\312\2708\211@\202E\007\211"
 589      AB2F464F 
 589      B2CAB838 
 589      89408245 
 589      0789
 590 01c8 60278B2E 		.ascii	"`'\213.\026\335\344\343\032\371\350a\276$i\302\275\254"
 590      16DDE4E3 
 590      1AF9E861 
 590      BE2469C2 
 590      BDAC
 591 01da EE639162 		.ascii	"\356c\221b\321o\223\014p,\373\300\234F\360C\216f{\320"
 591      D16F930C 
 591      702CFBC0 
ARM GAS  /tmp/ccC8tU94.s 			page 46


 591      9C46F043 
 591      8E667BD0 
 592 01ee 0AC33A9F 		.ascii	"\012\303:\237\2607\002]o\233r\230W\231\\\206\251\352"
 592      B037025D 
 592      6F9B7298 
 592      57995C86 
 592      A9EA
 593 0200 DCE2631C 		.ascii	"\334\342c\034\305\357i 5\014\034\202k\006]\357RE\027"
 593      C5EF6920 
 593      350C1C82 
 593      6B065DEF 
 593      524517
 594 0213 609E4AA1 		.ascii	"`\236J\241h\350\347\222D\315B\2149\355B\310\225\225"
 594      68E8E792 
 594      44CD428C 
 594      39ED42C8 
 594      9595
 595 0225 C5DF1C64 		.ascii	"\305\337\034dp\304Z\005\3265\314\313D\276\003\323\265"
 595      70C45A05 
 595      D635CCCB 
 595      44BE03D3 
 595      B5
 596 0236 F57CD032 		.ascii	"\365|\3202\0018\013O\215\363FB\307X\006-?:\252\302\236"
 596      01380B4F 
 596      8DF34642 
 596      C758062D 
 596      3F3AAAC2 
 597 024b A004A900 		.ascii	"\240\004\251\000j\030\222I\364\250\2676\037a\005$\015"
 597      6A189249 
 597      F4A8B736 
 597      1F610524 
 597      0D
 598 025c C3FC3EA0 		.ascii	"\303\374>\240\356l\217V@&&ykC\327\260_\335\332N1\322"
 598      EE6C8F56 
 598      40262679 
 598      6B43D7B0 
 598      5FDDDA4E 
 599 0272 6FE5F174 		.ascii	"o\345\361tzi\371\270\210F9\013\237Q\231\355l\256Ph\361"
 599      7A69F9B8 
 599      8846390B 
 599      9F5199ED 
 599      6CAE5068 
 600 0287 D6E9B8DA 		.ascii	"\326\351\270\332\377\016\314\024\035\0071'\330D\006"
 600      FF0ECC14 
 600      1D073127 
 600      D84406
 601 0296 AD9F058D 		.ascii	"\255\237\005\215\301Q\035;\000\326 \267\223=\352\330"
 601      C1511D3B 
 601      00D620B7 
 601      933DEAD8 
 602 02a6 B243D9DD 		.ascii	"\262C\331\335/\303\274r\314\364\313y\245U\372r#}\012"
 602      2FC3BC72 
 602      CCF4CB79 
 602      A555FA72 
 602      237D0A
 603 02b9 7DFDFE52 		.ascii	"}\375\376R\311)\244\252\011_\303<\014\344%W+\375\245"
 603      C929A4AA 
ARM GAS  /tmp/ccC8tU94.s 			page 47


 603      095FC33C 
 603      0CE42557 
 603      2BFDA5
 604 02cc 88E388E3 		.ascii	"\210\343\210\343\2463c\327\233R\322\261\313\216\352"
 604      A63363D7 
 604      9B52D2B1 
 604      CB8EEA
 605 02db 98633862 		.ascii	"\230c8b-YwT!\263T\267\253\367\227\177q\370\342\\\244"
 605      2D597754 
 605      21B354B7 
 605      ABF7977F 
 605      71F8E25C 
 606 02f0 1CD976B7 		.ascii	"\034\331v\267\256\220\370M,\303\364\371\351\357\034"
 606      AE90F84D 
 606      2CC3F4F9 
 606      E9EF1C
 607 02ff 5882906C 		.ascii	"X\202\220l\326]\247+n\236\337~\303:4\035f\215\303m\\"
 607      D65DA72B 
 607      6E9EDF7E 
 607      C33A341D 
 607      668DC36D 
 608 0314 920F33FB 		.ascii	"\222\0173\373\352\223\345F\366\035\207\340ej\353\326"
 608      EA93E546 
 608      F61D87E0 
 608      656AEBD6 
 609 0324 38D90965 		.ascii	"8\331\011ej\375nD@:5\376$\024\336\347\262Pu\221\326"
 609      6AFD6E44 
 609      403A35FE 
 609      2414DEE7 
 609      B2507591 
 610 0339 D96E64ED 		.ascii	"\331nd\355\012\214\256#m\0104.&\241JwU\341\260[\343"
 610      0A8CAE23 
 610      6D08342E 
 610      26A14A77 
 610      55E1B05B 
 611 034e 4E69E2E8 		.ascii	"Ni\342\350!\255\233\343\307\231\237\234,\222\226{a\022"
 611      21AD9BE3 
 611      C7999F9C 
 611      2C92967B 
 611      6112
 612 0360 72C57DDD 		.ascii	"r\305}\335\376\222d\221\245X\024\035\223v\260A\233<"
 612      FE926491 
 612      A558141D 
 612      9376B041 
 612      9B3C
 613 0372 695565AE 		.ascii	"iUe\256\360\300\361\327\353\261*\325\331\270\200\364"
 613      F0C0F1D7 
 613      EBB12AD5 
 613      D9B880F4 
 614 0382 3D0F22E6 		.ascii	"=\017\"\346\224:\346a\366\260\303B(w\267\204\355\005"
 614      943AE661 
 614      F6B0C342 
 614      2877B784 
 614      ED05
 615 0394 B1522839 		.ascii	"\261R(9Y\247\236\347\326\337\210d}Vi\252\371\321\266"
 615      59A79EE7 
 615      D6DF8864 
ARM GAS  /tmp/ccC8tU94.s 			page 48


 615      7D5669AA 
 615      F9D1B6
 616 03a7 354F095A 		.ascii	"5O\011Z\372\007I\346V\376\371\336B\324\331K\214\210"
 616      FA0749E6 
 616      56FEF9DE 
 616      42D4D94B 
 616      8C88
 617 03b9 3437B362 		.ascii	"47\263b\017\307\243r@\214\230\306sg\216C\257\260\212"
 617      0FC7A372 
 617      408C98C6 
 617      73678E43 
 617      AFB08A
 618 03cc DA83F838 		.ascii	"\332\203\3708\037i;\210\324\340\205B@p\366\323 \232"
 618      1F693B88 
 618      D4E08542 
 618      4070F6D3 
 618      209A
 619 03de 4B0D45F7 		.ascii	"K\015E\367\257\026\372\304\341\200\206\222y(\332\177"
 619      AF16FAC4 
 619      E1808692 
 619      7928DA7F 
 620 03ee 0D7E7DE8 		.ascii	"\015~}\350|\257\201\246eh\005\022\263\252\271\376d\365"
 620      7CAF81A6 
 620      65680512 
 620      B3AAB9FE 
 620      64F5
 621 0400 3561B68F 		.ascii	"5a\266\217H\304\261j\307\271[\366\266/\211S.A\226Z\353"
 621      48C4B16A 
 621      C7B95BF6 
 621      B62F8953 
 621      2E41965A 
 622 0415 3D36BE67 		.ascii	"=6\276g>j\026i\005|\264G\002;\225q\342\210=\333\336"
 622      3E6A1669 
 622      057CB447 
 622      023B9571 
 622      E2883DDB 
 623 042a CF4B9F3C 		.ascii	"\317K\237<\360\334\015\016\015\245_?\251\217\351o\276"
 623      F0DC0D0E 
 623      0DA55F3F 
 623      A98FE96F 
 623      BE
 624 043b 95FE7032 		.ascii	"\225\376p2}\372\343\364\344\351L:s\362\324\231\3613"
 624      7DFAE3F4 
 624      E4E94C3A 
 624      73F2D499 
 624      F133
 625 044d E3934319 		.ascii	"\343\223C\031\360\215}4tD\376\340\375O\361\223\177\001"
 625      F08D7D34 
 625      7444FEE0 
 625      FD4FF193 
 625      7F01
 626 045f 6A7F3E73 		.ascii	"j\177>s"
 627              		.text
 628              		.section	.gnu.lto_.symbol_nodes.d4c02cca46093858,"",%progbits
 629 0000 789C4DCE 		.ascii	"x\234M\316\313N\3030\020\005\320\271v\322g\2226q\333"
 629      CB4EC330 
 629      1005D0B9 
ARM GAS  /tmp/ccC8tU94.s 			page 49


 629      76D26792 
 629      3671DB
 630 0013 6DBF8DFF 		.ascii	"m\277\215\377@\232\252\225\240b\001\210\012> ,\340;"
 630      409AAA95 
 630      A0620188 
 630      0A3E202C 
 630      E03B
 631 0025 DA3D4BD6 		.ascii	"\332=K\326t\011\252@P\036\345\215\035[t\262\271:\361"
 631      7409AA40 
 631      501EE58D 
 631      1D5B74B2 
 631      B93AF1
 632 0038 1D7B1429 		.ascii	"\035{\024)\332U\344?\365KLt|E\304|:\335Q#0\004\317\300"
 632      DA55E43F 
 632      F54B4C74 
 632      7C45C47C 
 632      3ADD5123 
 633 0050 4AF002AC 		.ascii	"J\360\002\254\005/\301\221\340\002\034\013\336\202k"
 633      052FC191 
 633      E0021C0B 
 633      DE826B
 634 005f 8277E0BA 		.ascii	"\202w\340\272\340=\270!\370\000n\012>\202[\201\327S"
 634      E03DB821 
 634      F8006E0A 
 634      3E825B81 
 634      D753
 635 0071 A827705B 		.ascii	"\250'p[p\015N\004\237\301\251\340\0138\023|\005w\004"
 635      700D4E04 
 635      9FC1A9E0 
 635      0B38137C 
 635      057704
 636 0084 DFC05DC1 		.ascii	"\337\300]\301\0158\027|\007\027\202\037`\263%>\301="
 636      0D38177C 
 636      0717821F 
 636      60B3253E 
 636      C13D
 637 0096 CFD108F8 		.ascii	"\317\321\010\370\002\367\267\372\006\017\376\2455\321"
 637      02F7B7FA 
 637      060FFEA5 
 637      35D1
 638 00a4 F8E6073A 		.ascii	"\370\346\007:\202\317X\371l\305T\272l\367h\261\264\231"
 638      82CF58F9 
 638      6CC554BA 
 638      6CF768B1 
 638      B499
 639 00b6 D4FDFFA4 		.ascii	"\324\375\377\244O\347\007\253\241N\265w:\360\347iD\343"
 639      4FE707AB 
 639      A14EB577 
 639      3AF0E769 
 639      44E3
 640 00c8 3DF7BF46 		.ascii	"=\367\277F\363*#*\017W\303(\245\231;\3164\315]=\013"
 640      F32A232A 
 640      0F57C328 
 640      A5993BCE 
 640      34CD5D3D 
 641 00dd F52CD4B3 		.ascii	"\365,\324\263Pw>r\251\251<\261c\231\037\353\204-\272"
 641      50773E72 
ARM GAS  /tmp/ccC8tU94.s 			page 50


 641      A9A93CB1 
 641      63991FEB 
 641      842DBA
 642 00f0 3D9AECDB 		.ascii	"=\232\354\333\343<\274\232\333k\252\264c\256\2277i\276"
 642      E33CBC9A 
 642      DB6BAAB4 
 642      63AE9737 
 642      69BE
 643 0102 F4AE5ECD 		.ascii	"\364\256^\315ifC\027\015_/\302\322&la\0064qu\023\371"
 643      69664317 
 643      0D5F2FC2 
 643      D2266C61 
 643      06347175 
 644 0118 31D3F4DB 		.ascii	"1\323\364\333\230\260\205\011[\030Z\333k\350\017^F\321"
 644      98B08509 
 644      5B185ADB 
 644      6BE80F5E 
 644      46D1
 645 012a 45       		.ascii	"E"
 646              		.text
 647              		.section	.gnu.lto_.refs.d4c02cca46093858,"",%progbits
 648 0000 789C6362 		.ascii	"x\234cb`b`d\200\002\000\000F\000\006"
 648      60626064 
 648      80020000 
 648      460006
 649              		.text
 650              		.section	.gnu.lto_.decls.d4c02cca46093858,"",%progbits
 651 0000 789CBD5B 		.ascii	"x\234\275[\013t\024U\232\256[\335\235\356\206\020\202"
 651      0B741455 
 651      9AAE5BDD 
 651      9DEE8610 
 651      82
 652 0011 333A8CEB 		.ascii	"3:\214\353\256\321Uw\226Y\010**\263\347\254\3500>2;"
 652      AED15577 
 652      9659082A 
 652      2AB3E7AC 
 652      E8303E32 
 653 0026 3E467467 		.ascii	">Ftg\316\331\343\351):\005\3511\351\356tW\214\354\356"
 653      CED9E3E9 
 653      293A05E9 
 653      31E9EE74 
 653      578CECEE 
 654 003a 39560204 		.ascii	"9V\002\004d\220\015\001\222\020y\004y\314$\222\341\025"
 654      64900D01 
 654      92107904 
 654      79CC2492 
 654      E115
 655 004c 023E200D 		.ascii	"\002> \015H@\020\010\010D\202`\034\005\227\325AA\021"
 655      48401008 
 655      08448260 
 655      1C0597D5 
 655      414111
 656 005f 19D1EC7F 		.ascii	"\031\321\354\177o\335\352\276u\273\252\272:,\323\347"
 656      6FDDEABE 
 656      75BBAABA 
 656      3A2CD3E7 
 657 006f DC7A74DD 		.ascii	"\334zt\335\377\373\337\377\177\253\252[\024D\341G~A"
ARM GAS  /tmp/ccC8tU94.s 			page 51


 657      FFFBDFFF 
 657      7FABAA5B 
 657      1444E147 
 657      7E41
 658 0081 E887CFDB 		.ascii	"\350\207\317\333\343\005\341\222W\020\256\025\004\341"
 658      E305E192 
 658      5710AE15 
 658      04E1
 659 008f 5E21F5F9 		.ascii	"^!\365\371\001\214e0V\301h\201\361\014\022\2040\214"
 659      018C6530 
 659      56C16881 
 659      F10C1284 
 659      308C
 660 00a1 72181530 		.ascii	"r\030\0250V\302h\201\321\016c3\214=0\272a\034\203q\012"
 660      56C26881 
 660      D10E6333 
 660      8C3D30BA 
 660      611C8371 
 661 00b6 C6791848 		.ascii	"\306y\030H\024\004/\214a0~\000\343V\030#`\374\223(\244"
 661      14042F8C 
 661      61307E00 
 661      E3561823 
 661      60FC9328 
 662 00cb 7D302F0F 		.ascii	"}0/\017\214\0350\362`\344\302\270\035\346\335I\347\212"
 662      8C1D30F2 
 662      60E4C2B8 
 662      1DE6DD49 
 662      E78A
 663 00dd 74CE5D26 		.ascii	"t\316]&\264\253\034\320\256\262\240\305\272\271`\264"
 663      B4AB1CD0 
 663      AEB2A0C5 
 663      BAB960B4 
 664 00ed C36883B1 		.ascii	"\303h\203\261\232\316\337\000c\022\326\201\316\301\373"
 664      9ACEDF00 
 664      6312D681 
 664      CEC1FB
 665 00fc 1264A4C5 		.ascii	"\022d\244\3056\301s\357\205\315\313B\212\027\376~Y:"
 665      36C173EF 
 665      85CDCB42 
 665      8A17FE7E 
 665      593A
 666 010e 2B62BF1C 		.ascii	"+b\277\034\312K\227\323kB\217\347\255\242<\307q2\227"
 666      CA4B97D3 
 666      6B428FE7 
 666      ADA23CC7 
 666      713297
 667 0121 539E0FC0 		.ascii	"S\236\017\300\246\225\241\301\337\353r\30699\261\277"
 667      A695A1C1 
 667      DFEB72C6 
 667      3939B1BF 
 668 0131 309F4A94 		.ascii	"0\237J\224\342\213\3555\023\316\377\013\306\177R=g\320"
 668      E28BED35 
 668      13CEFF0B 
 668      C67F523D 
 668      67D0
 669 0143 7D05E5F1 		.ascii	"}\005\345\3612\354\037\344\370c\277\3739,7\2149H\303"
 669      32EC1FE4 
ARM GAS  /tmp/ccC8tU94.s 			page 52


 669      F863BFFB 
 669      392C378C 
 669      3948C3
 670 0156 D4F13036 		.ascii	"\324\36106\266k\035\354\347\243\024\366J\212\375{\330"
 670      B66B1DEC 
 670      E7A314F6 
 670      4A8AFD7B 
 670      D8
 671 0167 3FC461B7 		.ascii	"?\304a\267d\300n\203\375j\033\354\026\212\275\016\366"
 671      64C06E83 
 671      FD6A1BEC 
 671      168ABD0E 
 671      F6
 672 0178 0F73D8ED 		.ascii	"\017s\330\35566\320qY\033\264S\254\016\330\027qX8\336"
 672      3636D071 
 672      591BB453 
 672      AC0ED817 
 672      715838DE 
 673 018c 31FD6AC6 		.ascii	"1\375j\306\217X\3066F\177\335?\030\277\001\30688\366"
 673      8F58C636 
 673      467FDD3F 
 673      18BF01C6 
 673      3838F6
 674 019f C1984EE5 		.ascii	"\301\230N\345}\221\312\216u\250\205Q\017c)\345\271\231"
 674      7D91CA8E 
 674      75A88551 
 674      0F6329E5 
 674      B999
 675 01b1 E619962F 		.ascii	"\346\031\226/\001\373m0v\300\330\011c\027\347[\234w"
 675      01FB6D30 
 675      76C0D809 
 675      6317E75B 
 675      9C77
 676 01c3 83297F5D 		.ascii	"\203)\177]\226\325\234\037\260\\?\027\265\330\273M\324"
 676      96D59C1F 
 676      B05C3F17 
 676      B5D8BB4D 
 676      D4
 677 01d4 7059FE58 		.ascii	"pY\376X\236\351\2247\306\303y\212\331\354\347x\341\374"
 677      9EE99437 
 677      C6C3798A 
 677      D9ECE778 
 677      E1FC
 678 01e6 1EC6D9F0 		.ascii	"\036\306\331\360z*'\346\217\371\376+\320>\213\214\261"
 678      7A2A27E6 
 678      8FF9FE2B 
 678      D03E8B8C 
 678      B1
 679 01f7 E5B19061 		.ascii	"\345\261\220a\006\243\377\213T\006\027\345\203\343\004"
 679      06A3FF8B 
 679      540617E5 
 679      83E304
 680 0206 D70A7C7E 		.ascii	"\327\012|~\004\216\217\302\370\005\347\007\\k\256\203"
 680      048E8FC2 
 680      F805E707 
 680      5C6BAE83 
 681 0216 FD624E77 		.ascii	"\375bNw,S%#\027\346\257\347X\003#W#\225\353\021\270"
ARM GAS  /tmp/ccC8tU94.s 			page 53


 681      2C532523 
 681      17E6AFE7 
 681      58032357 
 681      2395EB11 
 682 022b 3692CAC6 		.ascii	"6\222\312\306\312\217\317\353Q\312g\363\031Y=\224?\316"
 682      CA8FCFEB 
 682      51CA67F3 
 682      19593D94 
 682      3FCE
 683 023d 755CCF70 		.ascii	"u\\\317p\316VP\371?\200\375\237`<\312\311{\212\312\313"
 683      CE5650F9 
 683      3F80FD9F 
 683      603CCAC9 
 683      7B8ACACB 
 684 0251 C60DE631 		.ascii	"\306\015\3461\213\223\027qr\352\262\363\362\262\262"
 684      8B931771 
 684      72EAB2F3 
 684      F2B2B2
 685 0260 7A1CC87B 		.ascii	"z\034\310{\312D^L\363\030\234\377\031\216\317\302\370"
 685      CA445E4C 
 685      F3189CFF 
 685      198ECFC2 
 685      F8
 686 0271 14C6E730 		.ascii	"\024\306\3470\236\344d?o\023\363z\376\\I\314\237gb\376"
 686      9EE4643F 
 686      6F13F37A 
 686      FE5C49CC 
 686      9F6762FE 
 687 0285 2FB0BF0C 		.ascii	"/\260\277\014\343\033\030\337\302\350\347\342\020\367"
 687      E31B18DF 
 687      C2E8E7E2 
 687      10F7
 688 0293 95215CCC 		.ascii	"\225!\\\314\343:\341\241\362\261u\202\217\273\034!]"
 688      E33AE1A1 
 688      F2B17582 
 688      8FBB1C21 
 688      5D
 689 02a4 0E36FE91 		.ascii	"\0166\376\221\230\212\177\017g\003\334\313x\377\361"
 689      988A7F0F 
 689      6703DCCB 
 689      78FFF1
 690 02b3 B1B698F1 		.ascii	"\261\266\230\361\027k\0336\306\236\302vb\374\326@c1"
 690      176B1B36 
 690      C69EC276 
 690      62FCD640 
 690      6331
 691 02c5 87B1159B 		.ascii	"\207\261\025\233\027\365\024\037\363g\375\207k\024\326"
 691      17F5141F 
 691      F367FD87 
 691      6B14D6
 692 02d4 7B089C0F 		.ascii	"{\010\234\017\205\221\007\343\3378\231q\357\315\224"
 692      859107E3 
 692      DF389971 
 692      EFCD94
 693 02e3 B3580656 		.ascii	"\263X\006V&]f\253\234e\343J\317Y\314\247\205\346,\026"
 693      265D66AB 
 693      9C65E34A 
ARM GAS  /tmp/ccC8tU94.s 			page 54


 693      CF59CCA7 
 693      85E62C16 
 694 02f7 E15AD8FC 		.ascii	"\341Z\330\374\212\223\005\257\001\206;\210\377\277\021"
 694      8A9305AF 
 694      01863B88 
 694      FFBF11
 695 0306 5339A0CB 		.ascii	"S9\240\313\302\332T\267%+\363\015\242\246\207nG6\017"
 695      C2DA54B7 
 695      252BF30D 
 695      A2A6876E 
 695      47360F
 696 0319 585B7AA8 		.ascii	"X[z\250\034\274\0351\315\257\341\374&\0307\303(\200"
 696      1CBC1D31 
 696      CDAFE1FC 
 696      261837C3 
 696      2880
 697 032b F1F7309E 		.ascii	"\361\3670\236\346t\270QX\242&\272\373\246\237\376P\\"
 697      E674B851 
 697      58A226BA 
 697      FBA69FFE 
 697      505C
 698 033d A826A6A9 		.ascii	"\250&\246\251\260\204RQ\301u\302\002\025>\3155\252\212"
 698      B0845251 
 698      C175C202 
 698      153ECD35 
 698      AA8A
 699 034f 1409DD7B 		.ascii	"\024\011\335{\255\360k$\241<\277P@\016r\375\304O\202"
 699      ADF06B24 
 699      A13CBF50 
 699      400E72FD 
 699      C44F82
 700 0362 20A197D1 		.ascii	" \241\227\321u\364\350)\227\206(\012\243\2200Bh\001"
 700      75F4E829 
 700      9786280A 
 700      A3903042 
 700      6801
 701 0374 FA5A55AD 		.ascii	"\372ZU\255\376;\301\354s\233\260\0223P\377\240\272\010"
 701      FE3BC1EC 
 701      739BB012 
 701      3350FFA0 
 701      BA08
 702 0386 3C065886 		.ascii	"<\006X\206nd\247Hh92\010\253\211\232\250}?\267\266\252"
 702      6E64A748 
 702      68393208 
 702      AB899AA8 
 702      7D3FB7B6 
 703 039b AFBF7F69 		.ascii	"\257\277\177is\276\306^\024\306!\230\275\002\215\260"
 703      73BEC65E 
 703      14C62198 
 703      BD028DB0 
 704 03ab 855FC5C3 		.ascii	"\205_\305\303\377\336\014\276\257\243\346\344\017\007"
 704      FFDE0CBE 
 704      AFA3E6E4 
 704      0F07
 705 03b9 6489566A 		.ascii	"d\211Vj\011\027\211\027hb\263@{L\370\360\356\274k\204"
 705      09178917 
 705      6862B340 
ARM GAS  /tmp/ccC8tU94.s 			page 55


 705      7B4CF8F0 
 705      EEBC6B84 
 706 03cd B918A560 		.ascii	"\271\030\245`7\204\011\245\277O\247\307\025\345Va\005"
 706      378409A5 
 706      BF4FA7C7 
 706      15E55661 
 706      05
 707 03de 58AB6FCB 		.ascii	"X\253o\313\214\303s\3214\340$\2416t\015\340,@F\315("
 707      8CC373D1 
 707      34E024A1 
 707      36740DE0 
 707      2C4046CD 
 708 03f3 4EF37D56 		.ascii	"N\363}V@\"4\032L\262\026\3105B\002\255\366m\352\272"
 708      4022341A 
 708      4CB216C8 
 708      354202AD 
 708      F66DEABA 
 709 0407 588DAA08 		.ascii	"X\215\252\0104\276&p\006c>7\011\315 x\342\334\357\026"
 709      34BE2670 
 709      06633E37 
 709      09CD2078 
 709      E2DCEF16 
 710 041b FF506DDE 		.ascii	"\377Pm\336\2162\351\321\354\326\371\377,\245\310\033"
 710      8E32E9D1 
 710      ECD6F9FF 
 710      2CA5C81B 
 711 042b BBC6A96E 		.ascii	"\273\306\251n\011m$Jt\230+a\015\"\012\235\204ds\232"
 711      096D244A 
 711      74982B61 
 711      0D220A9D 
 711      8464739A 
 712 043f 12353BA7 		.ascii	"\0225;\247R%6;R\242a\216\246\204\204\332A\021Qx+\211"
 712      5225363B 
 712      52A2618E 
 712      A68484DA 
 712      41115178 
 713 0455 6BE6457A 		.ascii	"k\346Ez\250}\350\004#^\323\376\334ZI\007\353\316\032"
 713      A87DE804 
 713      235ED3FE 
 713      DC5A4907 
 713      EBCE1A
 714 0468 ACC000B6 		.ascii	"\254\300\000\266t\377\"\"\234_\230\231\262\260`\012"
 714      74FF2222 
 714      9C5F9899 
 714      B2B0600A 
 715 0478 46CDFAFE 		.ascii	"F\315\372\376\2347\017\242\251D\377\004\220\211\302"
 715      9C370FA2 
 715      A944FF04 
 715      9089C2
 716 0487 1CD1685A 		.ascii	"\034\321hZ\347P'\352vnC\325\004j\007\201\232\345\032"
 716      E75027EA 
 716      766E43D5 
 716      046A0781 
 716      9AE51A
 717 049a 28544FD3 		.ascii	"(TO\323\033?QU\237\204\272\010P\243\333\010$!o\322\214"
 717      1B3F5155 
 717      9F84BA08 
ARM GAS  /tmp/ccC8tU94.s 			page 56


 717      50A3DB08 
 717      24216FD2 
 718 04af C9737D02 		.ascii	"\311s}\002F#\227\351\001\276\205\033*\\\345\351\242"
 718      462397E9 
 718      01BE851B 
 718      2A5CE5E9 
 718      A2
 719 04c0 B0DCEDC0 		.ascii	"\260\334\355\300u>\2538P\241H\274\355\302E\302\245'"
 719      753EAB38 
 719      50A148BC 
 719      EDC245C2 
 719      A527
 720 04d2 648E958D 		.ascii	"d\216\225\215D\241\225\360\332\313\307\362\221\017w"
 720      44A195F0 
 720      DACBC7F2 
 720      910F77
 721 04e1 FF63A3AA 		.ascii	"\377c\243\252\346k\2272\207\362\306=\015\316\362Q\324"
 721      E66B9732 
 721      87F2C63D 
 721      0DCEF251 
 721      D4
 722 04f2 D9DF42D8 		.ascii	"\331\337B\330\367\022\366\335<\373\225\375\333\020q"
 722      F712F6DD 
 722      3CFB95FD 
 722      DB1071
 723 0501 5AB723EE 		.ascii	"Z\267#\356\007\017\315O\347nY\016i`\034\371\360\177"
 723      070FCD4F 
 723      E76E590E 
 723      69601CF9 
 723      F07F
 724 0513 6E584A54 		.ascii	"nXJT<L\022\346tZd\214\033l\364\035\2343\023D\341\263"
 724      3C4C12E6 
 724      745A648C 
 724      1B6CF41D 
 724      9C331344 
 725 0529 A4F003CA 		.ascii	"\244\360\003\312\327\276\225\255{H[s\351\"\234\317\032"
 725      D7BE95AD 
 725      7B485B73 
 725      E9229CCF 
 725      1A
 726 053a B0C06087 		.ascii	"\260\300`\207\303\207H\001\320\300.8\001\263\214\242"
 726      C3874801 
 726      D0C02E38 
 726      01B38CA2 
 727 054a EAC45116 		.ascii	"\352\304Q\026\354\353\254\301\214\222\275\313\202}\343"
 727      ECEBACC1 
 727      8C92BDCB 
 727      827DE3
 728 0559 042CDF5A 		.ascii	"\004,\337Z\262^\026\354\273\254\301\214\222\275\307"
 728      B25E16EC 
 728      BBACC18C 
 728      92BDC7
 729 0568 8255791C 		.ascii	"\202Uy\034\200\015\267\226\354$\0136=k0\243d\237\263"
 729      800DB796 
 729      EC240B36 
 729      3D6B30A3 
 729      649FB3
ARM GAS  /tmp/ccC8tU94.s 			page 57


 730 057b 602F3801 		.ascii	"`/8\001+0\221,\371\261Z\031\034@\3110\027\205\331\036"
 730      2B30912C 
 730      F9B15A19 
 730      1C40C930 
 730      1785D91E 
 731 058f BD1C6419 		.ascii	"\275\034d\031\322B\012\243\326\223m\3712\350\015}t\337"
 731      D2420AA3 
 731      D6936DF9 
 731      32E80D7D 
 731      74DF
 732 05a1 72346FAA 		.ascii	"r4o\252\272{\264\336\313\352\235 \332\004L\007\333\030"
 732      BA7BB4DE 
 732      CBEA9D20 
 732      DA044C07 
 732      DB18
 733 05b3 97640D66 		.ascii	"\227d\015ft\313a\014f\2504\264\031\365\255L\014oL\225"
 733      74CB610C 
 733      66A834B4 
 733      19F5AD4C 
 733      0C6F4C95 
 734 05c7 3A9F8E85 		.ascii	":\237\216\205\027\327Z]\203\025\247\230\234\254\016"
 734      17D75A5D 
 734      8315A798 
 734      9CAC0E
 735 05d6 1F6E3E57 		.ascii	"\037n>WB\347\320\255\260=\217\374I)\264c\375\250\237"
 735      42E7D0AD 
 735      B03D8FFC 
 735      4929B463 
 735      FDA89F
 736 05e9 DC3EADF2 		.ascii	"\334>\255\362pwj\372'\023\251U$|\306F\302+N\314d\223"
 736      70776AFA 
 736      2713A955 
 736      247CC646 
 736      C22B4ECC 
 737 05ff 0A9F5B99 		.ascii	"\012\237[\231)Q\243\316DU\353n\260]kBq\376\333VR\234"
 737      2951A3CE 
 737      4455EB6E 
 737      B05D6B42 
 737      71FEDB56 
 738 0615 2F92B6BD 		.ascii	"/\222\266\275\336c\332\377\035a\235\250;\240/&\376B"
 738      DE63DAFF 
 738      1D619DA8 
 738      3BA02F26 
 738      FE42
 739 0627 C0B60C1C 		.ascii	"\300\266\014\034\254\271\247\367\006\274v\374\226\000"
 739      ACB9A7F7 
 739      06BC76FC 
 739      9600
 740 0635 7579F896 		.ascii	"uy\370\226\341\347\026\023~c\273\367\373S\007\375\372"
 740      E1E71613 
 740      7E63BBF7 
 740      FB5307FD 
 740      FA
 741 0646 C7E8C5AB 		.ascii	"\307\350\305\253Jc\345\371\257X\317\037\314\332\363"
 741      4A63E5F9 
 741      AF58CF1F 
 741      CCDAF3
ARM GAS  /tmp/ccC8tU94.s 			page 58


 742 0655 8604E9EB 		.ascii	"\206\004\351\353\350:\351jP\023U.&\324m\363\002\226"
 742      E83AE96A 
 742      5013552E 
 742      26D46DF3 
 742      0296
 743 0667 8EFBB7FE 		.ascii	"\216\373\267\376\013\351\367\325\"\266\353{\346\016"
 743      0BE9F7D5 
 743      22B6EB7B 
 743      E60E
 744 0675 720074A2 		.ascii	"r\000t\242\256\355\307\004h:\001:5`\240\236\246%c\011"
 744      AEEDC704 
 744      683A013A 
 744      3560A09E 
 744      A6256309 
 745 0689 D04C02F4 		.ascii	"\320L\002\364\3474O#\316\323\310\350\201d\322\321\234"
 745      E7344F23 
 745      CED3C8E8 
 745      8164D2D1 
 745      9C
 746 069a BB5A7345 		.ascii	"\273ZsE\341\"\357.\203:6\235A/\267]\037\315C_T\253\215"
 746      E122EF2E 
 746      833A369D 
 746      412FB75D 
 746      1FCD435F 
 747 06b1 A3B3F0D7 		.ascii	"\243\263\360\327\034\352\257\027\211u\372\323\254\203"
 747      1CEAAF17 
 747      8975FAD3 
 747      AC83
 748 06bf CD9F9D1A 		.ascii	"\315\237\235\0323r\262U\303gT\243\346\343\001\250\321"
 748      3372B255 
 748      C36754A3 
 748      E6E301A8 
 748      D1
 749 06d0 A9A95147 		.ascii	"\251\251QG\324\370\357\234+W\243!k5\362\0315\310\235"
 749      D4F8EF9C 
 749      2B57A321 
 749      6B35F219 
 749      35C89D
 750 06e3 F07CADF9 		.ascii	"\360|\255\371}O\250\263_\274cy\032\304\357\031V\316"
 750      7D4FA8B3 
 750      5FBC6379 
 750      1AC4EF19 
 750      56CE
 751 06f5 890B0750 		.ascii	"\211\013\007P\201\366u\246e\263\232\230w\210\271\305"
 751      81F675A6 
 751      65B39A98 
 751      7788B9C5 
 752 0705 531DDDE2 		.ascii	"S\035\335\342\355O\336\3425\021\223-\3111I0'P\315'\016"
 752      ED4FDEE2 
 752      3511932D 
 752      C9314930 
 752      2750CD27 
 753 071a 5D8B0BE9 		.ascii	"]\213\013\351b\002\263b\2400}=\275\233\264<m&@\253\323"
 753      6202B362 
 753      A0307D3D 
 753      BD9BB43C 
 753      6D2640AB 
ARM GAS  /tmp/ccC8tU94.s 			page 59


 754 072f 5C98C379 		.ascii	"\\\230\303y0\307\350A8\305\234\276&\005\362y\372\015"
 754      30C7E841 
 754      38C59CBE 
 754      2605F279 
 754      FA0D
 755 0741 3EF10A7F 		.ascii	">\361\012\177u:Q\350 \342c\357e\271\374\322\243\247"
 755      753A51E8 
 755      20E263EF 
 755      65B9FCD2 
 755      A3A7
 756 0753 E6EDF9FA 		.ascii	"\346\355\371\372\322Is\320\226+B\254Nt\326\351\317("
 756      D24973D0 
 756      962B42AC 
 756      4E74D6E9 
 756      CF28
 757 0765 C6E1C553 		.ascii	"\306\341\305S\327\025\302\221\325\266aU\300\335\263"
 757      D715C291 
 757      D5B66155 
 757      C0DDB3
 758 0774 6DB4683B 		.ascii	"m\264h;\311gP]z/o\025\261@\373\322\034\336\216\270\333"
 758      C967505D 
 758      7A2F6F15 
 758      B140FBD2 
 758      1CDE8EB8 
 759 0789 36FC0533 		.ascii	"6\374\0053\305*\225ZD\246\007\366]\251#\272Np\2168}"
 759      C52A955A 
 759      44A607F6 
 759      5DA923BA 
 759      4E708E38 
 760 079e 85965B38 		.ascii	"\205\226[8\317\331\023\257\337\350X\271D\221\263\204"
 760      CFD913AF 
 760      DFE858B9 
 760      4491B384 
 761 07ae ED7A91BB 		.ascii	"\355z\221\273\301\276x\261\257\206\332\021_\313\\+\216"
 761      C1BE78B1 
 761      AF86DA11 
 761      5FCB5C2B 
 761      8E
 762 07bf 9FF2AB75 		.ascii	"\237\362\253u\271\372\223\277\305^\035\325l\251\224"
 762      B9FA93BF 
 762      C55E1DD5 
 762      6CA994
 763 07ce D13C     		.ascii	"\321<"
 764 07d0 8993F2EE 		.ascii	"\211\223\362\356\321\331T\235.\275\352l&\266\\\351\345"
 764      D1D9549D 
 764      2EBDEA6C 
 764      26B65CE9 
 764      E5
 765 07e1 9DBE982F 		.ascii	"\235\276\230/\324Y\245\335+\274:No\225\223\037\253\240"
 765      D459A5DD 
 765      2BBC3A4E 
 765      6F95931F 
 765      ABA0
 766 07f3 5AC706D5 		.ascii	"Z\307\006\325:\357\025\205\000\004\325\331\025ZPe\012"
 766      3AEF1585 
 766      0004D5D9 
 766      155A5065 
ARM GAS  /tmp/ccC8tU94.s 			page 60


 766      0A
 767 0804 0215B137 		.ascii	"\002\025\26172\242\260\231p\356\344\243`\336w\273g\320"
 767      32A2B099 
 767      70EEE4A3 
 767      60DE77BB 
 767      67D0
 768 0816 27969D8E 		.ascii	"'\226\235\216\242\340\202!\012>L\242\016$\012\252\023"
 768      A2E08221 
 768      0A3E4CA2 
 768      0E240AAA 
 768      13
 769 0827 97CEBC85 		.ascii	"\227\316\274\205\010\234vc\366\011\017\347\324\013\024"
 769      089C7663 
 769      F6090FE7 
 769      D40B14
 770 0836 EEB29CAD 		.ascii	"\356\262\234\255a\264\370J\034;\205{\346n\021\353\364"
 770      61B4F84A 
 770      1C3B857B 
 770      E66E11EB 
 770      F4
 771 0847 455A6869 		.ascii	"EZhi\226aB+eF\011m\023\361\235\332v\361&\330\276I\266"
 771      9661422B 
 771      6546096D 
 771      13F19DDA 
 771      76F126D8 
 772 085e 5DB0CD18 		.ascii	"]\260\315\030\026\273\330\260\370&k\275\013\034F\337"
 772      16BBD8B0 
 772      F8266BBD 
 772      0B1C46DF 
 773 086e 56964DB5 		.ascii	"V\226M\265\357\312\242\257\243\353+7yZ\225\305\023\341"
 773      EFCAA2AF 
 773      A3EB2B37 
 773      795A95C5 
 773      13E1
 774 0880 FD3BF5C4 		.ascii	"\375;\365\304\335O\022\367\005\037o\335\035\374:\332"
 774      DD4F12F7 
 774      051F6FDD 
 774      1DFC3ADA 
 775 0890 C903D205 		.ascii	"\311\003\322\005\003U%\371\021\205E>\007w9\005&VO\266"
 775      035525F9 
 775      1185453E 
 775      07773905 
 775      26564FB6 
 776 08a4 DAEF6885 		.ascii	"\332\357h\205\317\370\224U\357]\273\336\256\242\357"
 776      CFF89455 
 776      EF5DBBDE 
 776      AEA2EF
 777 08b3 4F0E9358 		.ascii	"O\016\223Xk\346\254\341\340q\355\032B\322\303'\362\246"
 777      6BE6ACE1 
 777      E071ED1A 
 777      42D2C327 
 777      F2A6
 778 08c5 9A2FF5F7 		.ascii	"\232/\365\367'=\016\022\271:\361\316\357\330W\017\022"
 778      273D0E12 
 778      B93AF1CE 
 778      EFD8570F 
 778      12
ARM GAS  /tmp/ccC8tU94.s 			page 61


 779 08d6 7A038914 		.ascii	"z\003\211\024w\240\02658\261\207I\221c$Ez\331\264\020"
 779      77A01635 
 779      38B18749 
 779      91632445 
 779      7AD9B410 
 780 08ea 854E27D6 		.ascii	"\205N'\326\377\221U0\252\211\005G\027!M~\255\024\275"
 780      FF915530 
 780      AA890547 
 780      17214D7E 
 780      AD14BD
 781 08fd C5E39995 		.ascii	"\305\343\231\225\"\003\036\353\315\352\304\332\243\344"
 781      22031EEB 
 781      CDEAC4DA 
 781      A3E4
 782 090b 099116A5 		.ascii	"\011\221\026\245\207\235\0107\332\032\254\263^7\356"
 782      879D0837 
 782      DA1AACB3 
 782      5E37EE
 783 091a 56B24679 		.ascii	"V\262Fy\337\011\336X+e\253\023=G\027Q<\355\275\312\231"
 783      DF09DE58 
 783      2B65AB13 
 783      3D471751 
 783      3CEDBDCA 
 784 092f ACF18CF2 		.ascii	"\254\361\214\362]\2507\254\351\276t\002w\237c\337\247"
 784      5DA837AC 
 784      E9BE7402 
 784      779F63DF 
 784      A7
 785 0940 DE8B49E8 		.ascii	"\336\213I\3505\362 \353u\204\013\343\026\262\355$\333"
 785      35F220EB 
 785      75840BE3 
 785      16B2ED24 
 785      DB
 786 0951 3D64FBBF 		.ascii	"=d\373\277d\373)\331\236%\333\013d[E\012\351l\262\235"
 786      64FB29D9 
 786      9E25DB0B 
 786      645B450A 
 786      E96CB29D 
 787 0965 4BB6F564 		.ascii	"K\266\365d\373\016\331\276G\266'\311\266\217l\377D\266"
 787      FB0ED9BE 
 787      47B627C9 
 787      B68F6CFF 
 787      44B6
 788 0977 1F3929BC 		.ascii	"\0379)\274\334ZP\017\374\265\003~\347v~o\362\321\"\270"
 788      DC5A500F 
 788      FCB5037E 
 788      E7767E6F 
 788      F2D122B8 
 789 098b 3B6BB002 		.ascii	";k\260\002;K\256e,\271\236Xr\003\261\317i'\232\256N"
 789      3B4BAE65 
 789      2CB99E58 
 789      7203B1CF 
 789      69279AAE 
 790 09a0 2D83536F 		.ascii	"-\203So\277\005\234{\227\271\262s\213\260\\U\353\022"
 790      BF059C7B 
 790      97B9B273 
 790      8BB05C55 
ARM GAS  /tmp/ccC8tU94.s 			page 62


 790      EB12
 791 09b2 974E2772 		.ascii	"\227N'r\240\276\2735R\270!\367\343i-\350FS\026I\006"
 791      A0BEBB35 
 791      52B821F7 
 791      E3692DE8 
 791      46531649 
 792 09c7 F465F631 		.ascii	"\364e\3661\365\361\341\311\227\331-\374\313\354\217"
 792      F5F1E1C9 
 792      97D92DFC 
 792      CBEC8F
 793 09d6 45D397D9 		.ascii	"E\323\227\331\255\007\377\235y\231\255\277/o\363;ya"
 793      AD07FF9D 
 793      7999ADBF 
 793      2F6FF33B 
 793      7961
 794 09e8 FE89C8F1 		.ascii	"\376\211\310\361\370\324\214GbQO\332\373\370M\216\360"
 794      F8D48C47 
 794      62514FDA 
 794      FBF84D8E 
 794      F0
 795 09f9 CFF2F89F 		.ascii	"\317\362\370\237\231\352P\377\307s?7\350\320Jx\234\361"
 795      99EA50FF 
 795      C7733F37 
 795      E8D04A78 
 795      9CF1
 796 0a0b 9BD958BD 		.ascii	"\233\331X\275 ?\254\031NBgD\034+\347\304\001\230\367"
 796      203FAC19 
 796      4E426744 
 796      1C2BE7C4 
 796      0198F7
 797 0a1e 1C2FDA79 		.ascii	"\034/\332yS\321.\257\271\364\210\325o\005|\302\014\362"
 797      53D12EAF 
 797      B9F488D5 
 797      6F057CC2 
 797      0CF2
 798 0a30 8C64BA5A 		.ascii	"\214d\272Z\205\312m\236\221\220G\326\022\272(\372\360"
 798      85CA6D9E 
 798      919047D6 
 798      12BA28FA 
 798      F0
 799 0a41 7BC94196 		.ascii	"{\311A\226\017\234\361\004\374\301\364\332\261~d\367"
 799      0F9CF104 
 799      FCC1F4DA 
 799      B17E64F7 
 800 0a51 D451CCEA 		.ascii	"\324Q\314\3527\011\306w\207t\355\326\350\005\361.\223"
 800      3709C677 
 800      8774EDD6 
 800      E805F12E 
 800      93
 801 0a62 76DA3228 		.ascii	"v\3322(\363\233|3\210~\262\374\353'\030\233\262\305"
 801      F39B7C33 
 801      887EB2FC 
 801      EB27189B 
 801      B2C5
 802 0a74 1085ED84 		.ascii	"\020\205\355\204\244\332el\311\211\327kr\361\363\015"
 802      A4DA656C 
 802      C989D76B 
ARM GAS  /tmp/ccC8tU94.s 			page 63


 802      72F1F30D 
 803 0a84 FC7DE675 		.ascii	"\374}\346u\365\226.c;\333\233\304\034\300\312z\332\324"
 803      F5962E63 
 803      3BDB9BC4 
 803      1CC0CA7A 
 803      DAD4
 804 0a96 C4D62EA8 		.ascii	"\304\326.\250Jd\2356\325\311:\355x\307\007\377\274F"
 804      4A649D36 
 804      D5C93AED 
 804      78C707FF 
 804      BC46
 805 0aa8 55F31DAC 		.ascii	"U\363\035\254\354$\364\202\013W\"\217q\231\346\361\247"
 805      EC24F482 
 805      0B57228F 
 805      7199E6F1 
 805      A7
 806 0ab9 0E92CBB4 		.ascii	"\016\222\313\264w\007\363\253=\017\267\330s\202\362"
 806      7707F3AB 
 806      3D0FB7D8 
 806      7382F2
 807 0ac8 FE60CE16 		.ascii	"\376`\316\026\331\335\026\364}\273f\333\365\257\255"
 807      D9DD16F4 
 807      7DBB66DB 
 807      F5AFAD
 808 0ad7 57D51772 		.ascii	"W\325\027r\270G\015\370\341\236Uh\316q1+\3473YKP\300"
 808      B8470DF8 
 808      E19E5568 
 808      CE71312B 
 808      E733594B 
 809 0aed 4A9038D4 		.ascii	"J\2208\324Ez\004\306\024\205\363N\300l\336e\035e\301"
 809      457A04C6 
 809      1485F34E 
 809      C06CDE65 
 809      1D65C1
 810 0b00 BECE1ACC 		.ascii	"\276\316\032\314(\331\273,\230\232\353\000\314\346\215"
 810      28D9BB2C 
 810      989AEB00 
 810      CCE68D
 811 0b0f CFF1AE45 		.ascii	"\317\361\256E\351O(\234\377B\251\321e]\015\264\364\264"
 811      E94F289C 
 811      FF42A9D1 
 811      655D0DB4 
 811      F4B4
 812 0b21 A26C7299 		.ascii	"\242lr\231\267:\353\210O,\250\371>\316\316\006\242\370"
 812      B73AEB88 
 812      4F2CA8F9 
 812      3ECECE06 
 812      A2F8
 813 0b33 CC5C639C 		.ascii	"\314\\c\234r\254\261`V\254\027\273\006[$w\3325Q\250"
 813      72ACB160 
 813      56AC17BB 
 813      065B2477 
 813      DA3551A8 
 814 0b47 CBDAC046 		.ascii	"\313\332\300Fo\235\2501\254\333^r\002W`\342/\263\017"
 814      6F9DA831 
 814      ACDB5E72 
 814      025760E2 
ARM GAS  /tmp/ccC8tU94.s 			page 64


 814      2FB30F
 815 0b5a 5BC12434 		.ascii	"[\301$4\215\344\370t\027^m\314 \333\027\311\266\226"
 815      8DE4F874 
 815      175E6DCC 
 815      20DB17C9 
 815      B696
 816 0b6c 6CEBC876 		.ascii	"l\353\310v>\331\326\223\355R\327MW\033\325\312\003\337"
 816      3ED9D693 
 816      ED52D74D 
 816      571BD5CA 
 816      03DF
 817 0b7e 8856EB9C 		.ascii	"\210V\353\234\227sM\3279\235\363\332\301\212\242F\011"
 817      97734DD7 
 817      399DF3DA 
 817      C18AA246 
 817      09
 818 0b8f 775464D6 		.ascii	"wTd\326\005\313>L\361I\037\256V\217\275\207\373\260"
 818      05CB3E4C 
 818      F1491FAE 
 818      568FBD87 
 818      FBB0
 819 0ba1 D6E10C54 		.ascii	"\326\341\014T\206\326I\245Y\3462\375\205\340QfE\202"
 819      86D649A5 
 819      59E632FD 
 819      85E05166 
 819      4582
 820 0bb3 5BA0286C 		.ascii	"[\240(l0\225T\355\304\253\005\314_B\313]x\265\260\322"
 820      309554ED 
 820      C4AB05CC 
 820      5F42CB5D 
 820      78B5B0D2 
 821 0bc7 35102919 		.ascii	"5\020)\031*3)W\231J\331\330\233\224\222Ka\014k\345\214"
 821      2A332957 
 821      994AD9D8 
 821      9B94924B 
 821      610C6BE5 
 822 0bdc 569B1C76 		.ascii	"V\233\034v\332\216\017\341\216\336\346\302m\2603\227"
 822      DA8E0FE1 
 822      8EDEE6C2 
 822      6DB03397 
 823 0bec 6F20FDFC 		.ascii	"o \375\374\303\230\253\036_\253-\212\213(\3547\217\257"
 823      C398AB1E 
 823      5FAB2D8A 
 823      8B28EC37 
 823      8FAF
 824 0bfe 85BD34BE 		.ascii	"\205\2754\276V\223\342r\234\314j\261\364\034\3057\365"
 824      5693E272 
 824      9CCC6AB1 
 824      F41CC537 
 824      F5
 825 0c0f 5C8BBDE7 		.ascii	"\\\213\275\347\326\232z\356d/\023_\330!\320B\315\343"
 825      D69A7AEE 
 825      642F135F 
 825      D821D042 
 825      CDE3
 826 0c21 EB20598D 		.ascii	"\353 Y\215\222*\265\236\304W\373\200\244l\267\227rc"
 826      922AB59E 
ARM GAS  /tmp/ccC8tU94.s 			page 65


 826      C457FB80 
 826      A46CB797 
 826      7263
 827 0c33 BA94CD89 		.ascii	"\272\224\315\211\276M\037_\272\276~\252\272[\375\034"
 827      BE4D1F5F 
 827      BABE7EAA 
 827      BA5BFD1C 
 828 0c43 DA3C1F62 		.ascii	"\332<\037b6]\342Uc\204i\221\237<\241m;y>\313\3457\234"
 828      365DE255 
 828      63846991 
 828      9F3CA16D 
 828      3B793ECB 
 829 0c5a 3770D7B5 		.ascii	"7p\327\265_xq~\235=\304\324Z\013\371l\334l\237\215\224"
 829      5F78717E 
 829      9D3DC4D4 
 829      5A0BF96C 
 829      DC6C9F8D 
 830 0c6f EC0826D3 		.ascii	"\354\010&\323\032\354K\004\330\232\214HO\311\276\301"
 830      1AEC4B04 
 830      D89A8C48 
 830      4FC9BEC1 
 831 0c7f 64587C51 		.ascii	"dX|QX\222\201\214(I\203\357\\\327R-\370\264\316\266"
 831      5892818C 
 831      284983EF 
 831      5CD7522D 
 831      F8B4CEB6 
 832 0c93 3C036903 		.ascii	"<\003i\003\303q\023\346H\032\313\0372P\215c\356L\022"
 832      C37113E6 
 832      481ACB1F 
 832      32508D63 
 832      EE4C12
 833 0ca6 EFD74C6D 		.ascii	"\357\327LmFjN\362\346\004\223\0312\264\323\314\377\211"
 833      466A4EF2 
 833      E6049319 
 833      32B4D3CC 
 833      FF89
 834 0cb8 ADBB6894 		.ascii	"\255\273h\224f\361\033\346\275f\276\347\234\327f\356"
 834      66F11BE6 
 834      BD66BEE7 
 834      9CD766EE 
 835 0cc8 BCB9BCF3 		.ascii	"\274\271\274\363\3668*\245\252\372\242:=\037%\225\333"
 835      F6382AA5 
 835      AAFAA23A 
 835      3D1F2595 
 835      DB
 836 0cd9 C32BB7CF 		.ascii	"\303+\267\317T\271\305{\366\"`z\271\277\177\252[\340"
 836      54B9C57B 
 836      F622607A 
 836      B9BF7FAA 
 836      5BE0
 837 0ceb F46BB259 		.ascii	"\364k\262Yu\036\264\015n\3722\232Sx\263\271\302\375"
 837      751EB40D 
 837      6EFA329A 
 837      5378B3B9 
 837      C2FD
 838 0cfd C59CC2DD 		.ascii	"\305\234\302\335\216\242\365\325\247\207\353\277\235"
 838      8EA2F5D5 
ARM GAS  /tmp/ccC8tU94.s 			page 66


 838      A787EBBF 
 838      9D
 839 0d0a D84680BB 		.ascii	"\330F\200\273-\222;)\016\265\323\232\232\351\371nM;"
 839      2D923B29 
 839      0EB5D39A 
 839      9AE9F96E 
 839      4D3B
 840 0d1c C1861B55 		.ascii	"\301\206\033U\364p\272\331\372\272\023\257\355\265\210"
 840      F470BAD9 
 840      FABA13AF 
 840      EDB588
 841 0d2b 093B9BF5 		.ascii	"\011;\233\365\332\330\314\371\223\352-\2736\216 \257"
 841      DAD8CCF9 
 841      93EA2DBB 
 841      368E20AF 
 842 0d3b 914F9094 		.ascii	"\221O\220\224\3331\204o<\003xN\235\356\253}\246\276"
 842      DB31846F 
 842      3C03784E 
 842      9DEEAB7D 
 842      A6BE
 843 0d4d 825A7866 		.ascii	"\202Zxf\344>\270C\361\033=v\314\221\307\216\341\310"
 843      E43EB843 
 843      F11B3D76 
 843      CC91C78E 
 843      E1C8
 844 0d5f D6A47E8F 		.ascii	"\326\244~\217\300[\223\235p\331x\314\212\214\352\321"
 844      C05B939D 
 844      70D978CC 
 844      8A8CEAD1 
 845 0d6f 671AE8FD 		.ascii	"g\032\350\375sfC\271\251N\364\367w\336\307\007:.KVN"
 845      736643B9 
 845      A94EF4F7 
 845      77DEC707 
 845      3A2E4B56 
 846 0d84 3B7D4555 		.ascii	";}EU\234\352\301\031\367#\363DX\312g\376)Gf=\256\227"
 846      9CEAC119 
 846      F723F344 
 846      58CA67FE 
 846      2947663D 
 847 0d9a 6D096DCF 		.ascii	"m\011m\317@\306\224\355\304\334\003\264\376j\245\373"
 847      40C694ED 
 847      C4DC03B4 
 847      FE6AA5FB 
 848 0daa 4B229335 		.ascii	"K\"\2235)S\272\325WuGJ\350\303\014\034YGV\023'\314\322"
 848      2953BAD5 
 848      5775474A 
 848      E8C30C1C 
 848      59475613 
 849 0dc1 790A3684 		.ascii	"y\0126\204\324\370\237\230\272\262\247\316\272f\331"
 849      D4F89F98 
 849      BAB2A7CE 
 849      BA66D9
 850 0dd0 D4E42F78 		.ascii	"\324\344/xO\342\225\302\377o?\376\312\334\261/\361\253"
 850      4FE295C2 
 850      FF6F3FFE 
 850      CADCB12F 
 850      F1AB
ARM GAS  /tmp/ccC8tU94.s 			page 67


 851 0de2 97F3F6AB 		.ascii	"\227\363\366\253\027J\326\303;\326\232\214\355\307\337"
 851      174AD6C3 
 851      3BD69A8C 
 851      EDC7DF
 852 0df1 EAFD5842 		.ascii	"\352\375XBof c\373\361\261C\206~<=\017\331\222\232\365"
 852      6F662063 
 852      FBF1B143 
 852      867E3C3D 
 852      0FD9929A 
 853 0e06 6309EDCE 		.ascii	"c\011\355\316\300\320\320\217{\352\214\375\370<\337"
 853      C0D0D08F 
 853      7BEA8CFD 
 853      F83CDF
 854 0e15 B22E99BA 		.ascii	"\262.\231\272\277\343\235\354\373q\265\333\304\367\234"
 854      BFE39DEC 
 854      FB71B5DB 
 854      C4F79C
 855 0e24 F366E599 		.ascii	"\363f\345\231:o\036\357\274*\267\223\245'\337\2171\225"
 855      3A6F1EEF 
 855      BC2AB793 
 855      A527DF8F 
 855      3195
 856 0e36 41B9696E 		.ascii	"A\271in\263\306\262\351\350\300\372\361L3\005\371~\234"
 856      B3C6B2E9 
 856      E8C0FAF1 
 856      4C3305F9 
 856      7E9C
 857 0e48 A12C2D30 		.ascii	"\241,-07\300b\336\0003\354\015\240G\257\336\237%\324"
 857      37C062DE 
 857      0033EC0D 
 857      A047AFDE 
 857      9F25D4
 858 0e5b C39399F5 		.ascii	"\303\223\231\365g}\371\323\225[\213\214\325\305\232"
 858      677DF9D3 
 858      955B8B8C 
 858      D5C59A
 859 0e6a 9F6D9BB0 		.ascii	"\237m\233\260\"\243\026\233\235n\177\010\2567z\006\320"
 859      22A3169B 
 859      9D6E7F08 
 859      AE377A06 
 859      D0
 860 0e7b D8EB1C44 		.ascii	"\330\353\034D\327\012s\343\316\345\215;\327atq\312Z"
 860      D70A73E3 
 860      CEE58D3B 
 860      D7617471 
 860      CA5A
 861 0e8d 915109E7 		.ascii	"\221Q\011\347\233*{\241i`=\261\321&\330\262\375\271"
 861      9B2A7BA1 
 861      69603DB1 
 861      D126D8B2 
 861      FDB9
 862 0e9f B9846AC8 		.ascii	"\271\204j\310[\327\014?W\264\022\345%7\373\023\252,"
 862      5BD70C3F 
 862      57B412E5 
 862      2537FB13 
 862      AA2C
 863 0eb1 FB709BB9 		.ascii	"\373p\233\271O6\360>ip\024\360\344>\010\313\243\227"
ARM GAS  /tmp/ccC8tU94.s 			page 68


 863      4F36F03E 
 863      697014F0 
 863      E43E08CB 
 863      A397
 864 0ec3 6B6B3222 		.ascii	"kk2\"5\255\273\027\233V\244\372\260\204>\313@\312\366"
 864      35ADBB17 
 864      9B56A4FA 
 864      B0843ECB 
 864      40CAF6
 865 0ed6 E1D7F93E 		.ascii	"\341\327\371>lMf\354\303\330\361\206>lEH\255\274\324"
 865      6C4D66EC 
 865      C3D8F186 
 865      3E6C4548 
 865      ADBCD4
 866 0ee9 A456D5F6 		.ascii	"\244V\325\366\325\377\361\203\021\013\325\355\370\255"
 866      D5FFF183 
 866      110BD5ED 
 866      F8AD
 867 0ef7 CDF359F4 		.ascii	"\315\363Y\364\341Ui\321\203\230R\325dz\353\260\225\363"
 867      E15569D1 
 867      839852D5 
 867      647AEBB0 
 867      95F3
 868 0f09 942E588B 		.ascii	"\224.X\213\231`\211\243{f\253\210\244\361\215\032;Q"
 868      996089A3 
 868      7B66AB88 
 868      A4F18D1A 
 868      3B51
 869 0f1b 386001F0 		.ascii	"8`\001\360\212)\300\221=\220\030\313pb\214\313\246\010"
 869      8A29C091 
 869      3D9018CB 
 869      70628CCB 
 869      A608
 870 0f2d B7D96A66 		.ascii	"\267\331jf\036\203\037X\010\266\326(\3300\241\226Hq"
 870      1E831F58 
 870      08B6D628 
 870      D830A196 
 870      4871
 871 0f3f 5F639EF6 		.ascii	"_c\236\366\357\010*C\276.\203H\351\326\271\207\221#"
 871      EF082A43 
 871      BE2E8348 
 871      E9D6B987 
 871      9123
 872 0f51 C36FD6C8 		.ascii	"\303o\326\310\014+\251\327\273S\377\300\310\365\247"
 872      0C2BA9D7 
 872      BB53FFC0 
 872      C8F5A7
 873 0f60 0E909175 		.ascii	"\016\220\221u\001\307y\254>\317Kq6d\315\271\335\202"
 873      01C779AC 
 873      3ECF4B71 
 873      3664CDB9 
 873      DD82
 874 0f72 730EE38D 		.ascii	"s\016\343\215Dw\337\211\213\007g\243\271kjT\354\322"
 874      4477DF89 
 874      8B0767A3 
 874      B96B6A54 
 874      ECD2
ARM GAS  /tmp/ccC8tU94.s 			page 69


 875 0f84 E797266A 		.ascii	"\347\227&j\335\316\203\255\203w\311\016Rh\014.X9\224"
 875      DDCE83AD 
 875      8377C90E 
 875      52680C2E 
 875      583994
 876 0f97 75019929 		.ascii	"u\001\231)\012\033\206R\375"
 876      0A1B8652 
 876      FD
 877 0fa0 F527505A 		.ascii	"\365'PZ_\322\376\343\271\215Pl\264\3146z\013FK\365\027"
 877      5FD2FEE3 
 877      B98D506C 
 877      B4CC367A 
 877      0B464BF5 
 878 0fb5 55CC1BD1 		.ascii	"U\314\033\321\215\374:`\263\321\321\334\023}\374\036"
 878      8DFC3A60 
 878      B3D1D1DC 
 878      137DFC1E 
 879 0fc5 D84AB7AD 		.ascii	"\330J\267\255\251\332w\263\260L\355\356\356\333\324"
 879      A9DA77B3 
 879      B04CEDEE 
 879      EEDBD4
 880 0fd4 7AE9E979 		.ascii	"z\351\351yju\243:\015B\027\335\310z\356\363\224\347"
 880      6A75A33A 
 880      0D4217DD 
 880      C87AEEF3 
 880      94E7
 881 0fe6 7EA303E5 		.ascii	"~\243\003\345\332\371\227\233%\241mY\373w\273\205\177"
 881      DAF9979B 
 881      25A16D59 
 881      FB77BB85 
 881      7F
 882 0ff7 D9929D9A 		.ascii	"\331\222\235\232\005v\335E\354"
 882      0576DD45 
 882      EC
 883 1000 7A36F5AC 		.ascii	"z6\365\254\232\023B\024\272\251[$\204\337\360r\306j"
 883      9A134214 
 883      BAA95B24 
 883      84DFF072 
 883      C66A
 884 1012 B531D6CE 		.ascii	"\2651\326\316\224\261\012\204\245\370\227H\337\256\371"
 884      94B10A84 
 884      A5F89748 
 884      DFAEF9
 885 1021 E0D1AA84 		.ascii	"\340\321\252\204\232Z\242]`_Vk\223\022K\352UQL\316X"
 885      9A5AA25D 
 885      605F566B 
 885      93124BEA 
 885      55514CCE 
 886 1036 E94A9FD1 		.ascii	"\351J\237\321\321\304\316h1\231\361\265aF;;\203S\000"
 886      D1C4CE68 
 886      3199F1B5 
 886      61463B3B 
 886      835300
 887 1049 D72A2B05 		.ascii	"\327*+\005\366\244\024\340\250\360\223y\313\007Qijw"
 887      F6A414E0 
 887      A8F09379 
 887      CB075169 
ARM GAS  /tmp/ccC8tU94.s 			page 70


 887      6A77
 888 105b 7C7C6984 		.ascii	"||i\204:\315\227\224\247\333F\2366\033y\366\361\310"
 888      3ACD9794 
 888      A7DB469E 
 888      361B79F6 
 888      F1C8
 889 106d 89A639AC 		.ascii	"\211\2469\254\236\307X\\->\023\013\017\274\240\"\265"
 889      9EC7585C 
 889      2D3E130B 
 889      0FBCA022 
 889      B5
 890 107e 46ADC28F 		.ascii	"F\255\302\217R-\242\323\370\273G\313\360\344\247I\350"
 890      522DA2D3 
 890      F8BB47CB 
 890      F0E4A749 
 890      E8
 891 108f 60D6F179 		.ascii	"`\326\361y\310\">\331\177B\247f\341\274vsw\273\274\024"
 891      C8223ED9 
 891      7F42A766 
 891      E1BC7673 
 891      77BBBC14 
 892 10a3 A270D210 		.ascii	"\242p\322\020\240\3242\363\016\251\005\005I\313\234"
 892      A0D432F3 
 892      0EA90505 
 892      49CB9C
 893 10b2 B2B178AB 		.ascii	"\262\261x\253\315\033\274#i\026\237\337\300Z|\206;="
 893      CD1BBC23 
 893      69169FDF 
 893      C05A7C86 
 893      3B3D
 894 10c4 F66A0DB1 		.ascii	"\366j\015\2617\327\235\356\223\376\336\314>\231\231"
 894      37D79DEE 
 894      93FEDECC 
 894      3E9999
 895 10d3 5473989D 		.ascii	"Ts\230\235O\370i\022\352\315\332'\307-|\222o\360\311"
 895      4FF86912 
 895      EACDDA27 
 895      C72D7C92 
 895      6FF0C9
 896 10e6 71DE27CC 		.ascii	"q\336'\314\002\206\227B\024>5\363\311\305\343\254O\032"
 896      02869742 
 896      143E35F3 
 896      C9C5E3AC 
 896      4F1A
 897 10f8 0C65F9C7 		.ascii	"\014e\371\307\243F\025\216/\011M\014=6\2410\022/\214"
 897      A346158E 
 897      2F094D0C 
 897      3D36A130 
 897      122F8C
 898 110b 2985D148 		.ascii	")\205\321HL\211\027\336\377\304#\343\037y\2560X\022"
 898      4C8917DE 
 898      FFC423E3 
 898      1F79AE30 
 898      5812
 899 111d 8CC4E4C0 		.ascii	"\214\304\344\300\263\367\224\215*\021\374\370R\2404"
 899      B3F7948D 
 899      2A11FCF8 
ARM GAS  /tmp/ccC8tU94.s 			page 71


 899      52A034
 900 112c 127C26E7 		.ascii	"\022|&\347\241G\237*\030/\014&_T\204\361W7\247\001\205"
 900      A1479F2A 
 900      182F0C26 
 900      5F5484F1 
 900      5737A701 
 901 1141 C2C1D28A 		.ascii	"\302\301\322\212b\0310\342\301\222b\240\277\315n\312"
 901      621930E2 
 901      C19262A0 
 901      BFCD6ECA 
 902 1151 94B83225 		.ascii	"\224\2702%*\307a\332P\245$&K\305\361@y\205\\!\007\224"
 902      2AC761DA 
 902      50A52426 
 902      4BC5F140 
 902      79855C21 
 903 1167 FC6049C0 		.ascii	"\374`I\300\360\225O;\013(\376\344\225\234h ,?\247\300"
 903      F0954F3B 
 903      0B28FEE4 
 903      959C6820 
 903      2C3FA7C0 
 904 117b 2E1A939F 		.ascii	".\032\223\237\275;\203R\221\262h\250T\216\305\013\037"
 904      BD3B8352 
 904      91B268A8 
 904      548EC50B 
 904      1F
 905 118c 1A3F1E78 		.ascii	"\032?\036x\353\214\275J4\026\212\004`bx\022\031w\025"
 905      EB8CBD4A 
 905      34168A04 
 905      60627812 
 905      197715
 906 119f 9644CAE4 		.ascii	"\226D\312\344\302\230\034\227\245X\260\244\260D\212"
 906      C2981C97 
 906      A558B0A4 
 906      B0448A
 907 11ae 15574A31 		.ascii	"\025WJ1\271P\212\225\335Q89\030\034\011\007#\345\262"
 907      B9508A95 
 907      DD513839 
 907      181C0907 
 907      23E5B2
 908 11c1 897271B1 		.ascii	"\211rq\261\\\234\374\"\034\011\313#eibh\344\230\300"
 908      5C9CFC22 
 908      1C09CB23 
 908      65696268 
 908      E498C0
 909 11d4 D891778C 		.ascii	"\330\221w\214\276}L\371\035\205\206\013I\305\343Jq("
 909      BE7D4CF9 
 909      1D85860B 
 909      49C5E34A 
 909      7128
 910 11e6 AC006F5F 		.ascii	"\254\000o_\005\354\357\274#\240LE\177=\356eR\260$\024"
 910      05ECEFBC 
 910      23A04C45 
 910      7F3DEE65 
 910      52B02414 
 911 11fa 960B03C5 		.ascii	"\226\013\003\305\362$\251\242T\011\350\226\030\024\010"
 911      F224A9A2 
 911      5409E896 
ARM GAS  /tmp/ccC8tU94.s 			page 72


 911      181408
 912 1209 E8F21093 		.ascii	"\350\362\020\223\206\"\336`$\254\200\205\377\301I\274"
 912      8622DE60 
 912      24AC8085 
 912      FFC149BC 
 913 1219 0082161A 		.ascii	"\000\202\026\032\200\021T\236\363\305\344\311 @@\021"
 913      8011549E 
 913      F3C5E4C9 
 913      20404011 
 914 1229 6363C4D8 		.ascii	"cc\304\330]b\354n1v\217\030\033+\306~\342\212\335>\032"
 914      5D62EC6E 
 914      31768F18 
 914      1B2BC67E 
 914      E28ADD3E 
 915 123e C6ED6269 		.ascii	"\306\355bi\014vwz\242\001\230\357\305\316\254\224c\260"
 915      0C76777A 
 915      A20198EF 
 915      C5CEAC94 
 915      63B0
 916 1250 8F9416CB 		.ascii	"\217\224\026\3131w\020T\307\036\226\312\344Aq\345\031"
 916      31771054 
 916      C71E96CA 
 916      E44171E5 
 916      19
 917 1261 A9343439 		.ascii	"\251449\034P\210\311\356\036\023P\250\264\3440\032\200"
 917      1C5088C9 
 917      EE1E1350 
 917      A8B4E430 
 917      1A80
 918 1273 09A5A1B2 		.ascii	"\011\245\241\262\220\342S\342\212\244@\374x\361\305"
 918      90E253E2 
 918      8AA440FC 
 918      78F1C5
 919 1282 B1102DDA 		.ascii	"\261\020-\33248\362\342Yp\315\253\224E\212er>\251T\232"
 919      3438F2E2 
 919      5970CDAB 
 919      94458A65 
 919      723EA954 
 920 1297 1CF72A31 		.ascii	"\034\367*1yR\234\350\214\017<e\361\311p\221\032\002"
 920      79529CE8 
 920      8C0F3C65 
 920      F1C97091 
 920      1A02
 921 12a9 C87593C4 		.ascii	"\310u\223\304\212\247\300%\237\374\\H\011\002@N\245"
 921      8AA7C025 
 921      9FFC5C48 
 921      0902404E 
 921      A5
 922 12ba 1299F8DB 		.ascii	"\022\231\370\333\35054,\201T\216\311\341 \000{*\025"
 922      E835342C 
 922      81548EC9 
 922      E120007B 
 922      2A15
 923 12cc 2516F5C6 		.ascii	"%\026\365\306\345\260\002\004\271\020\256q\271L\212"
 923      E5B00204 
 923      B910AE71 
 923      B94C8A
ARM GAS  /tmp/ccC8tU94.s 			page 73


 924 12db 96808D6E 		.ascii	"\226\200\215n\262K\006\031\247\233\227\206\273'\030"
 924      B24B0619 
 924      A79B9786 
 924      BB2718
 925 12ea 06CF78E2 		.ascii	"\006\317x\342\001\330\003+\270\030\365\001RY\005\370"
 925      01D8032B 
 925      B818F501 
 925      525905F8 
 926 12fa C30EA54C 		.ascii	"\303\016\245Ly\016\243\224i(\260\217T\206\301\250\204"
 926      790EA394 
 926      6928B08F 
 926      5486C1A8 
 926      84
 927 130b 0E9428D3 		.ascii	"\016\224(\3232\246R\201y\321\301\362\263XF)\376\014"
 927      32A65281 
 927      79D1C1F2 
 927      B3584629 
 927      FE0C
 928 131d 5C912BF1 		.ascii	"\\\221+\361\201+\032\250\310\323\363\2564\024\007\031"
 928      812B1AA8 
 928      C8D3F3AE 
 928      34140719 
 929 132d 86329988 		.ascii	"\2062\231\210\277\361G\003\225RH\011\205'\203\335AA"
 929      BFF14703 
 929      95524809 
 929      852783DD 
 929      4141
 930 133f C2080EE5 		.ascii	"\302\010\016\345\250\034\206\270\236\014\327\001\034"
 930      A81C86B8 
 930      9E0CD701 
 930      1C
 931 134c CF1C842D 		.ascii	"\317\034\204-*\225\222H\202/\243\221H\351 -\275C\341"
 931      2A959248 
 931      822FA391 
 931      48E9202D 
 931      BD43E1
 932 135f 90E252CA 		.ascii	"\220\342R\312\243\266\366\230\202\203\022\262}\302\224"
 932      A3B6F698 
 932      828312B2 
 932      7DC294
 933 136e F82FA0D6 		.ascii	"\370/\240\326\014&GO\221\272s\253\015\035\225\025h\277"
 933      0C26474F 
 933      91BA73AB 
 933      0D1D9515 
 933      68BF
 934 1380 1F2C79B2 		.ascii	"\037,y\262\244\370\227\230\343c\023\177+\007\225\"`"
 934      A4F89798 
 934      E363137F 
 934      2B079522 
 934      60
 935 1391 7B8B0D29 		.ascii	"{\213\015)\021\016Sz\002?\005a\207\204\302\321\012E"
 935      110E537A 
 935      023F0561 
 935      8784C2D1 
 935      0A45
 936 13a3 AF4883A0 		.ascii	"\257H\203\240J\320C\237~\350/\327mQuU2\27044\021O\340"
 936      4AD0439F 
ARM GAS  /tmp/ccC8tU94.s 			page 74


 936      7EE82FD7 
 936      6D517555 
 936      32B83434 
 937 13ba 3279CCA8 		.ascii	"2y\314\250\261\243\306\260\325\0042\031\204\316\211"
 937      B1A3C6B0 
 937      D5043219 
 937      84CE89
 938 13c9 87FE0384 		.ascii	"\207\376\003\204\003\231\202\221\012\310\333\230\257"
 938      03998291 
 938      0AC8DB98 
 938      AF
 939 13d6 3C30B162 		.ascii	"<0\261b\022\304\245\247<\240D\242^\0206\026Ub\260\217"
 939      12C4A5A7 
 939      3CA044A2 
 939      5E103616 
 939      5562B08F 
 940 13ea 15C3DE5F 		.ascii	"\025\303\336_\036\216(\241IS@\237\362\200v\230S\016"
 940      1E8E28A1 
 940      4953409F 
 940      F2807698 
 940      530E
 941 13fc 2E0E3F03 		.ascii	".\016?\0031[\364\313\242\370\003eQeJ\221+T\036\035\254"
 941      315BF4CB 
 941      A2F80365 
 941      51654A91 
 941      2B541E1D 
 942 1411 7DF16045 		.ascii	"}\361`EiiQ^\244Ba\314\002s\037K\315\215\220\271\217"
 942      6969515E 
 942      A44261CC 
 942      02731F4B 
 942      CD8D90B9 
 943 1426 E9730BD2 		.ascii	"\351s\013\322\214\035\217\005S\206\016\012y\0308\345"
 943      8C1D8F05 
 943      53860E0A 
 943      791838E5 
 944 1436 1C7162D4 		.ascii	"\034qb\324\215\265p\207\302\223\246\270\261(\203\360"
 944      8DB57087 
 944      C293A6B8 
 944      B12883F0 
 945 1446 8427C096 		.ascii	"\204'\300\226J\221\017\037>^\241\024\241\211~\3349B"
 945      4A910F1F 
 945      3E5EA114 
 945      A1897EDC 
 945      3942
 946 1458 65C09E00 		.ascii	"e\300\236\000<$+O\302\031\010\346U\264\375P\215L*\246"
 946      3C242B4F 
 946      C21908E6 
 946      55B4FD50 
 946      8D4C2AA6 
 947 146c DFA3701E 		.ascii	"\337\243p\036\026+\305\311\035\001\016\203\360w\032"
 947      162BC5C9 
 947      1D010E83 
 947      F0771A
 948 147b 38B90CE0 		.ascii	"8\271\014\340t\276\017\237\002lQ>>\370U,\244\310\364"
 948      74BE0F9F 
 948      026C513E 
 948      3EF8552C 
ARM GAS  /tmp/ccC8tU94.s 			page 75


 948      A4C8F4
 949 148e 4A3E09AA 		.ascii	"J>\011\252\237\311D\205\373A\307a\354\027\217Bv\025"
 949      9FC94485 
 949      FB41C761 
 949      EC178F42 
 949      7615
 950 14a0 6971F740 		.ascii	"iq\367@\230|C\311&\2142\232\002\346\025\216\177dB\321"
 950      987C43C9 
 950      268C329A 
 950      02E6158E 
 950      7F6442D1 
 951 14b4 8454F8E1 		.ascii	"\204T\370\341\236\033,{\260\"\034\004g\016\011@\325"
 951      9E1B2C7B 
 951      B0221C04 
 951      670E0940 
 951      D5
 952 14c5 50023FBD 		.ascii	"P\002?\275\177\302\003\217?Q4D*\255\224\246\304!o\300"
 952      7FC2038F 
 952      3F513444 
 952      2AAD94A6 
 952      C4216FC0 
 953 14d9 26B2E759 		.ascii	"&\262\347Y\251\024\032b 0\011\346\006\002C\364\203Q"
 953      A9141A62 
 953      203009E6 
 953      060243F4 
 953      8351
 954 14eb 77DD33FA 		.ascii	"w\3353\372\366\324\331\335c\356\030\303\236\335=\372"
 954      F6D4D9DD 
 954      63EE18C3 
 954      9EDD3DFA 
 955 14fb FF00D258 		.ascii	"\377\000\322X\016\263"
 955      0EB3
 956              		.text
 957              		.section	.gnu.lto_.symtab.d4c02cca46093858,"",%progbits
 958 0000 63684951 		.ascii	"chIQObjectInit\000\000\000\000\000\000\000\000\000\000"
 958      4F626A65 
 958      6374496E 
 958      69740000 
 958      00000000 
 959 0018 0000B801 		.ascii	"\000\000\270\001\000\000chIQResetI\000\000\000\000\000"
 959      00006368 
 959      49515265 
 959      73657449 
 959      00000000 
 960 002d 00000000 		.ascii	"\000\000\000\000\000\000\000\312\001\000\000chIQPut"
 960      000000CA 
 960      01000063 
 960      68495150 
 960      7574
 961 003f 49000000 		.ascii	"I\000\000\000\000\000\000\000\000\000\000\000\000\320"
 961      00000000 
 961      00000000 
 961      00D0
 962 004d 01000063 		.ascii	"\001\000\000chIQGetTimeout\000\000\000\000\000\000\000"
 962      68495147 
 962      65745469 
 962      6D656F75 
ARM GAS  /tmp/ccC8tU94.s 			page 76


 962      74000000 
 963 0065 00000000 		.ascii	"\000\000\000\000\000\331\001\000\000chIQReadTimeout"
 963      00D90100 
 963      00636849 
 963      51526561 
 963      6454696D 
 964 007d 00000000 		.ascii	"\000\000\000\000\000\000\000\000\000\000\000\000\345"
 964      00000000 
 964      00000000 
 964      E5
 965 008a 01000063 		.ascii	"\001\000\000chOQObjectInit\000\000\000\000\000\000\000"
 965      684F514F 
 965      626A6563 
 965      74496E69 
 965      74000000 
 966 00a2 00000000 		.ascii	"\000\000\000\000\000\362\001\000\000chOQResetI\000\000"
 966      00F20100 
 966      0063684F 
 966      51526573 
 966      65744900 
 967 00b7 00000000 		.ascii	"\000\000\000\000\000\000\000\000\000\000\001\002\000"
 967      00000000 
 967      00000102 
 967      00
 968 00c4 0063684F 		.ascii	"\000chOQPutTimeout\000\000\000\000\000\000\000\000\000"
 968      51507574 
 968      54696D65 
 968      6F757400 
 968      00000000 
 969 00dc 00000007 		.ascii	"\000\000\000\007\002\000\000chOQGetI\000\000\000\000"
 969      02000063 
 969      684F5147 
 969      65744900 
 969      000000
 970 00ef 00000000 		.ascii	"\000\000\000\000\000\000\000\000\021\002\000\000chO"
 970      00000000 
 970      11020000 
 970      63684F
 971 00fe 51577269 		.ascii	"QWriteTimeout\000\000\000\000\000\000\000\000\000\000"
 971      74655469 
 971      6D656F75 
 971      74000000 
 971      00000000 
 972 0115 00001702 		.ascii	"\000\000\027\002\000\000chThdDequeueAllI\000\000\002"
 972      00006368 
 972      54686444 
 972      65717565 
 972      7565416C 
 973 012e 00000000 		.ascii	"\000\000\000\000\000\000\000\000\000%\002\000\000ch"
 973      00000000 
 973      00250200 
 973      006368
 974 013d 54686444 		.ascii	"ThdDequeueNextI\000\000\002\000\000\000\000\000\000"
 974      65717565 
 974      75654E65 
 974      78744900 
 974      00020000 
ARM GAS  /tmp/ccC8tU94.s 			page 77


 975 0155 0000002A 		.ascii	"\000\000\000*\002\000\000chThdEnqueueTimeoutS\000\000"
 975      02000063 
 975      68546864 
 975      456E7175 
 975      65756554 
 976 0172 02000000 		.ascii	"\002\000\000\000\000\000\000\000\000\000,\002\000\000"
 976      00000000 
 976      00002C02 
 976      0000
 977              		.text
 978              		.section	.gnu.lto_.opts,"",%progbits
 979 0000 272D6D63 		.ascii	"'-mcpu=cortex-m4' '-mno-thumb-interwork' '-mthumb' "
 979      70753D63 
 979      6F727465 
 979      782D6D34 
 979      2720272D 
 980 0033 272D6767 		.ascii	"'-ggdb' '-O0' '-fomit-frame-pointer' '-falign-funct"
 980      64622720 
 980      272D4F30 
 980      2720272D 
 980      666F6D69 
 981 0066 696F6E73 		.ascii	"ions=16' '-ffunction-sections' '-fdata-sections' '-"
 981      3D313627 
 981      20272D66 
 981      66756E63 
 981      74696F6E 
 982 0099 666E6F2D 		.ascii	"fno-common' '-flto'\000"
 982      636F6D6D 
 982      6F6E2720 
 982      272D666C 
 982      746F2700 
 983              		.text
 984              		.cfi_sections	.debug_frame
 985              		.section	.text.port_lock,"ax",%progbits
 986              		.align	2
 987              		.p2align 4,,15
 988              		.thumb
 989              		.thumb_func
 990              		.type	port_lock, %function
 991              	port_lock:
 992              	.LFB127:
 993              		.file 1 "../ChibiOS/os/rt/ports/ARMCMx/chcore_v7m.h"
 994              		.loc 1 456 0
 995              		.cfi_startproc
 996              		@ args = 0, pretend = 0, frame = 8
 997              		@ frame_needed = 0, uses_anonymous_args = 0
 998              		@ link register save eliminated.
 999 0000 82B0     		sub	sp, sp, #8
 1000              		.cfi_def_cfa_offset 8
 1001 0002 2023     		movs	r3, #32
 1002 0004 0193     		str	r3, [sp, #4]
 1003              	.LBB6:
 1004              	.LBB7:
 1005              		.file 2 "../ChibiOS/os/ext/CMSIS/include/core_cmFunc.h"
 1006              		.loc 2 548 0
 1007 0006 019B     		ldr	r3, [sp, #4]
 1008              	@ 548 "../ChibiOS/os/ext/CMSIS/include/core_cmFunc.h" 1
ARM GAS  /tmp/ccC8tU94.s 			page 78


 1009 0008 83F31188 		MSR basepri, r3
 1010              	@ 0 "" 2
 1011              		.thumb
 1012              	.LBE7:
 1013              	.LBE6:
 1014              		.loc 1 473 0
 1015 000c 02B0     		add	sp, sp, #8
 1016              		@ sp needed
 1017 000e 7047     		bx	lr
 1018              		.cfi_endproc
 1019              	.LFE127:
 1020              		.size	port_lock, .-port_lock
 1021              		.section	.text.port_unlock,"ax",%progbits
 1022              		.align	2
 1023              		.p2align 4,,15
 1024              		.thumb
 1025              		.thumb_func
 1026              		.type	port_unlock, %function
 1027              	port_unlock:
 1028              	.LFB128:
 1029              		.loc 1 480 0
 1030              		.cfi_startproc
 1031              		@ args = 0, pretend = 0, frame = 8
 1032              		@ frame_needed = 0, uses_anonymous_args = 0
 1033              		@ link register save eliminated.
 1034 0000 82B0     		sub	sp, sp, #8
 1035              		.cfi_def_cfa_offset 8
 1036 0002 0023     		movs	r3, #0
 1037 0004 0193     		str	r3, [sp, #4]
 1038              	.LBB8:
 1039              	.LBB9:
 1040              		.loc 2 548 0
 1041 0006 019B     		ldr	r3, [sp, #4]
 1042              	@ 548 "../ChibiOS/os/ext/CMSIS/include/core_cmFunc.h" 1
 1043 0008 83F31188 		MSR basepri, r3
 1044              	@ 0 "" 2
 1045              		.thumb
 1046              	.LBE9:
 1047              	.LBE8:
 1048              		.loc 1 487 0
 1049 000c 02B0     		add	sp, sp, #8
 1050              		@ sp needed
 1051 000e 7047     		bx	lr
 1052              		.cfi_endproc
 1053              	.LFE128:
 1054              		.size	port_unlock, .-port_unlock
 1055              		.section	.text.queue_init,"ax",%progbits
 1056              		.align	2
 1057              		.p2align 4,,15
 1058              		.thumb
 1059              		.thumb_func
 1060              		.type	queue_init, %function
 1061              	queue_init:
 1062              	.LFB150:
 1063              		.file 3 "../ChibiOS/os/rt/include/chschd.h"
 1064              		.loc 3 604 0
 1065              		.cfi_startproc
ARM GAS  /tmp/ccC8tU94.s 			page 79


 1066              		@ args = 0, pretend = 0, frame = 8
 1067              		@ frame_needed = 0, uses_anonymous_args = 0
 1068              		@ link register save eliminated.
 1069 0000 82B0     		sub	sp, sp, #8
 1070              		.cfi_def_cfa_offset 8
 1071 0002 0190     		str	r0, [sp, #4]
 1072              		.loc 3 606 0
 1073 0004 019B     		ldr	r3, [sp, #4]
 1074 0006 019A     		ldr	r2, [sp, #4]
 1075 0008 1A60     		str	r2, [r3]
 1076              		.loc 3 607 0
 1077 000a 019B     		ldr	r3, [sp, #4]
 1078 000c 019A     		ldr	r2, [sp, #4]
 1079 000e 5A60     		str	r2, [r3, #4]
 1080              		.loc 3 608 0
 1081 0010 02B0     		add	sp, sp, #8
 1082              		@ sp needed
 1083 0012 7047     		bx	lr
 1084              		.cfi_endproc
 1085              	.LFE150:
 1086              		.size	queue_init, .-queue_init
 1087 0014 AFF30080 		.section	.text.chSysLock,"ax",%progbits
 1087      AFF30080 
 1087      AFF30080 
 1088              		.align	2
 1089              		.p2align 4,,15
 1090              		.thumb
 1091              		.thumb_func
 1092              		.type	chSysLock, %function
 1093              	chSysLock:
 1094              	.LFB167:
 1095              		.file 4 "../ChibiOS/os/rt/include/chsys.h"
 1096              		.loc 4 346 0
 1097              		.cfi_startproc
 1098              		@ args = 0, pretend = 0, frame = 0
 1099              		@ frame_needed = 0, uses_anonymous_args = 0
 1100 0000 08B5     		push	{r3, lr}
 1101              		.cfi_def_cfa_offset 8
 1102              		.cfi_offset 3, -8
 1103              		.cfi_offset 14, -4
 1104              		.loc 4 348 0
 1105 0002 FFF7FEFF 		bl	port_lock
 1106              		.loc 4 351 0
 1107 0006 08BD     		pop	{r3, pc}
 1108              		.cfi_endproc
 1109              	.LFE167:
 1110              		.size	chSysLock, .-chSysLock
 1111              		.section	.text.chSysUnlock,"ax",%progbits
 1112              		.align	2
 1113              		.p2align 4,,15
 1114              		.thumb
 1115              		.thumb_func
 1116              		.type	chSysUnlock, %function
 1117              	chSysUnlock:
 1118              	.LFB168:
 1119              		.loc 4 358 0
 1120              		.cfi_startproc
ARM GAS  /tmp/ccC8tU94.s 			page 80


 1121              		@ args = 0, pretend = 0, frame = 0
 1122              		@ frame_needed = 0, uses_anonymous_args = 0
 1123 0000 08B5     		push	{r3, lr}
 1124              		.cfi_def_cfa_offset 8
 1125              		.cfi_offset 3, -8
 1126              		.cfi_offset 14, -4
 1127              		.loc 4 371 0
 1128 0002 FFF7FEFF 		bl	port_unlock
 1129              		.loc 4 372 0
 1130 0006 08BD     		pop	{r3, pc}
 1131              		.cfi_endproc
 1132              	.LFE168:
 1133              		.size	chSysUnlock, .-chSysUnlock
 1134 0008 AFF30080 		.section	.text.chThdQueueObjectInit,"ax",%progbits
 1134      AFF30080 
 1135              		.align	2
 1136              		.p2align 4,,15
 1137              		.thumb
 1138              		.thumb_func
 1139              		.type	chThdQueueObjectInit, %function
 1140              	chThdQueueObjectInit:
 1141              	.LFB195:
 1142              		.file 5 "../ChibiOS/os/rt/include/chthreads.h"
 1143              		.loc 5 278 0
 1144              		.cfi_startproc
 1145              		@ args = 0, pretend = 0, frame = 8
 1146              		@ frame_needed = 0, uses_anonymous_args = 0
 1147 0000 00B5     		push	{lr}
 1148              		.cfi_def_cfa_offset 4
 1149              		.cfi_offset 14, -4
 1150 0002 83B0     		sub	sp, sp, #12
 1151              		.cfi_def_cfa_offset 16
 1152 0004 0190     		str	r0, [sp, #4]
 1153              		.loc 5 280 0
 1154 0006 0198     		ldr	r0, [sp, #4]
 1155 0008 FFF7FEFF 		bl	queue_init
 1156              		.loc 5 281 0
 1157 000c 03B0     		add	sp, sp, #12
 1158              		@ sp needed
 1159 000e 5DF804FB 		ldr	pc, [sp], #4
 1160              		.cfi_endproc
 1161              	.LFE195:
 1162              		.size	chThdQueueObjectInit, .-chThdQueueObjectInit
 1163 0012 00BFAFF3 		.section	.text.chIQIsEmptyI,"ax",%progbits
 1163      0080AFF3 
 1163      0080AFF3 
 1163      0080
 1164              		.align	2
 1165              		.p2align 4,,15
 1166              		.thumb
 1167              		.thumb_func
 1168              		.type	chIQIsEmptyI, %function
 1169              	chIQIsEmptyI:
 1170              	.LFB233:
 1171              		.file 6 "../ChibiOS/os/rt/include/chqueues.h"
 1172              		.loc 6 303 0
 1173              		.cfi_startproc
ARM GAS  /tmp/ccC8tU94.s 			page 81


 1174              		@ args = 0, pretend = 0, frame = 8
 1175              		@ frame_needed = 0, uses_anonymous_args = 0
 1176              		@ link register save eliminated.
 1177 0000 82B0     		sub	sp, sp, #8
 1178              		.cfi_def_cfa_offset 8
 1179 0002 0190     		str	r0, [sp, #4]
 1180              		.loc 6 307 0
 1181 0004 019B     		ldr	r3, [sp, #4]
 1182 0006 9B68     		ldr	r3, [r3, #8]
 1183 0008 002B     		cmp	r3, #0
 1184 000a 14BF     		ite	ne
 1185 000c 0023     		movne	r3, #0
 1186 000e 0123     		moveq	r3, #1
 1187 0010 DBB2     		uxtb	r3, r3
 1188              		.loc 6 308 0
 1189 0012 1846     		mov	r0, r3
 1190 0014 02B0     		add	sp, sp, #8
 1191              		@ sp needed
 1192 0016 7047     		bx	lr
 1193              		.cfi_endproc
 1194              	.LFE233:
 1195              		.size	chIQIsEmptyI, .-chIQIsEmptyI
 1196 0018 AFF30080 		.section	.text.chIQIsFullI,"ax",%progbits
 1196      AFF30080 
 1197              		.align	2
 1198              		.p2align 4,,15
 1199              		.thumb
 1200              		.thumb_func
 1201              		.type	chIQIsFullI, %function
 1202              	chIQIsFullI:
 1203              	.LFB234:
 1204              		.loc 6 320 0
 1205              		.cfi_startproc
 1206              		@ args = 0, pretend = 0, frame = 8
 1207              		@ frame_needed = 0, uses_anonymous_args = 0
 1208              		@ link register save eliminated.
 1209 0000 82B0     		sub	sp, sp, #8
 1210              		.cfi_def_cfa_offset 8
 1211 0002 0190     		str	r0, [sp, #4]
 1212              		.loc 6 325 0
 1213 0004 019B     		ldr	r3, [sp, #4]
 1214 0006 5A69     		ldr	r2, [r3, #20]
 1215 0008 019B     		ldr	r3, [sp, #4]
 1216 000a 9B69     		ldr	r3, [r3, #24]
 1217 000c 9A42     		cmp	r2, r3
 1218 000e 05D1     		bne	.L10
 1219              		.loc 6 325 0 is_stmt 0 discriminator 1
 1220 0010 019B     		ldr	r3, [sp, #4]
 1221 0012 9B68     		ldr	r3, [r3, #8]
 1222 0014 002B     		cmp	r3, #0
 1223 0016 01D0     		beq	.L10
 1224              		.loc 6 325 0 discriminator 3
 1225 0018 0123     		movs	r3, #1
 1226 001a 00E0     		b	.L11
 1227              	.L10:
 1228              		.loc 6 325 0 discriminator 2
 1229 001c 0023     		movs	r3, #0
ARM GAS  /tmp/ccC8tU94.s 			page 82


 1230              	.L11:
 1231              		.loc 6 325 0 discriminator 4
 1232 001e 03F00103 		and	r3, r3, #1
 1233 0022 DBB2     		uxtb	r3, r3
 1234              		.loc 6 327 0 is_stmt 1 discriminator 4
 1235 0024 1846     		mov	r0, r3
 1236 0026 02B0     		add	sp, sp, #8
 1237              		@ sp needed
 1238 0028 7047     		bx	lr
 1239              		.cfi_endproc
 1240              	.LFE234:
 1241              		.size	chIQIsFullI, .-chIQIsFullI
 1242 002a 00BFAFF3 		.section	.text.chOQIsEmptyI,"ax",%progbits
 1242      0080
 1243              		.align	2
 1244              		.p2align 4,,15
 1245              		.thumb
 1246              		.thumb_func
 1247              		.type	chOQIsEmptyI, %function
 1248              	chOQIsEmptyI:
 1249              	.LFB238:
 1250              		.loc 6 388 0
 1251              		.cfi_startproc
 1252              		@ args = 0, pretend = 0, frame = 8
 1253              		@ frame_needed = 0, uses_anonymous_args = 0
 1254              		@ link register save eliminated.
 1255 0000 82B0     		sub	sp, sp, #8
 1256              		.cfi_def_cfa_offset 8
 1257 0002 0190     		str	r0, [sp, #4]
 1258              		.loc 6 393 0
 1259 0004 019B     		ldr	r3, [sp, #4]
 1260 0006 5A69     		ldr	r2, [r3, #20]
 1261 0008 019B     		ldr	r3, [sp, #4]
 1262 000a 9B69     		ldr	r3, [r3, #24]
 1263 000c 9A42     		cmp	r2, r3
 1264 000e 05D1     		bne	.L14
 1265              		.loc 6 393 0 is_stmt 0 discriminator 1
 1266 0010 019B     		ldr	r3, [sp, #4]
 1267 0012 9B68     		ldr	r3, [r3, #8]
 1268 0014 002B     		cmp	r3, #0
 1269 0016 01D0     		beq	.L14
 1270              		.loc 6 393 0 discriminator 3
 1271 0018 0123     		movs	r3, #1
 1272 001a 00E0     		b	.L15
 1273              	.L14:
 1274              		.loc 6 393 0 discriminator 2
 1275 001c 0023     		movs	r3, #0
 1276              	.L15:
 1277              		.loc 6 393 0 discriminator 4
 1278 001e 03F00103 		and	r3, r3, #1
 1279 0022 DBB2     		uxtb	r3, r3
 1280              		.loc 6 395 0 is_stmt 1 discriminator 4
 1281 0024 1846     		mov	r0, r3
 1282 0026 02B0     		add	sp, sp, #8
 1283              		@ sp needed
 1284 0028 7047     		bx	lr
 1285              		.cfi_endproc
ARM GAS  /tmp/ccC8tU94.s 			page 83


 1286              	.LFE238:
 1287              		.size	chOQIsEmptyI, .-chOQIsEmptyI
 1288 002a 00BFAFF3 		.section	.text.chOQIsFullI,"ax",%progbits
 1288      0080
 1289              		.align	2
 1290              		.p2align 4,,15
 1291              		.thumb
 1292              		.thumb_func
 1293              		.type	chOQIsFullI, %function
 1294              	chOQIsFullI:
 1295              	.LFB239:
 1296              		.loc 6 407 0
 1297              		.cfi_startproc
 1298              		@ args = 0, pretend = 0, frame = 8
 1299              		@ frame_needed = 0, uses_anonymous_args = 0
 1300              		@ link register save eliminated.
 1301 0000 82B0     		sub	sp, sp, #8
 1302              		.cfi_def_cfa_offset 8
 1303 0002 0190     		str	r0, [sp, #4]
 1304              		.loc 6 411 0
 1305 0004 019B     		ldr	r3, [sp, #4]
 1306 0006 9B68     		ldr	r3, [r3, #8]
 1307 0008 002B     		cmp	r3, #0
 1308 000a 14BF     		ite	ne
 1309 000c 0023     		movne	r3, #0
 1310 000e 0123     		moveq	r3, #1
 1311 0010 DBB2     		uxtb	r3, r3
 1312              		.loc 6 412 0
 1313 0012 1846     		mov	r0, r3
 1314 0014 02B0     		add	sp, sp, #8
 1315              		@ sp needed
 1316 0016 7047     		bx	lr
 1317              		.cfi_endproc
 1318              	.LFE239:
 1319              		.size	chOQIsFullI, .-chOQIsFullI
 1320 0018 AFF30080 		.section	.text.chIQObjectInit,"ax",%progbits
 1320      AFF30080 
 1321              		.align	2
 1322              		.p2align 4,,15
 1323              		.global	chIQObjectInit
 1324              		.thumb
 1325              		.thumb_func
 1326              		.type	chIQObjectInit, %function
 1327              	chIQObjectInit:
 1328              	.LFB241:
 1329              		.file 7 "../ChibiOS/os/rt/src/chqueues.c"
 1330              		.loc 7 88 0
 1331              		.cfi_startproc
 1332              		@ args = 4, pretend = 0, frame = 16
 1333              		@ frame_needed = 0, uses_anonymous_args = 0
 1334 0000 00B5     		push	{lr}
 1335              		.cfi_def_cfa_offset 4
 1336              		.cfi_offset 14, -4
 1337 0002 85B0     		sub	sp, sp, #20
 1338              		.cfi_def_cfa_offset 24
 1339 0004 0390     		str	r0, [sp, #12]
 1340 0006 0291     		str	r1, [sp, #8]
ARM GAS  /tmp/ccC8tU94.s 			page 84


 1341 0008 0192     		str	r2, [sp, #4]
 1342 000a 0093     		str	r3, [sp]
 1343              		.loc 7 90 0
 1344 000c 039B     		ldr	r3, [sp, #12]
 1345 000e 1846     		mov	r0, r3
 1346 0010 FFF7FEFF 		bl	chThdQueueObjectInit
 1347              		.loc 7 91 0
 1348 0014 039B     		ldr	r3, [sp, #12]
 1349 0016 0022     		movs	r2, #0
 1350 0018 9A60     		str	r2, [r3, #8]
 1351              		.loc 7 92 0
 1352 001a 039B     		ldr	r3, [sp, #12]
 1353 001c 029A     		ldr	r2, [sp, #8]
 1354 001e DA60     		str	r2, [r3, #12]
 1355              		.loc 7 93 0
 1356 0020 039B     		ldr	r3, [sp, #12]
 1357 0022 029A     		ldr	r2, [sp, #8]
 1358 0024 9A61     		str	r2, [r3, #24]
 1359              		.loc 7 94 0
 1360 0026 039B     		ldr	r3, [sp, #12]
 1361 0028 029A     		ldr	r2, [sp, #8]
 1362 002a 5A61     		str	r2, [r3, #20]
 1363              		.loc 7 95 0
 1364 002c 029A     		ldr	r2, [sp, #8]
 1365 002e 019B     		ldr	r3, [sp, #4]
 1366 0030 1A44     		add	r2, r2, r3
 1367 0032 039B     		ldr	r3, [sp, #12]
 1368 0034 1A61     		str	r2, [r3, #16]
 1369              		.loc 7 96 0
 1370 0036 039B     		ldr	r3, [sp, #12]
 1371 0038 009A     		ldr	r2, [sp]
 1372 003a DA61     		str	r2, [r3, #28]
 1373              		.loc 7 97 0
 1374 003c 039B     		ldr	r3, [sp, #12]
 1375 003e 069A     		ldr	r2, [sp, #24]
 1376 0040 1A62     		str	r2, [r3, #32]
 1377              		.loc 7 98 0
 1378 0042 05B0     		add	sp, sp, #20
 1379              		@ sp needed
 1380 0044 5DF804FB 		ldr	pc, [sp], #4
 1381              		.cfi_endproc
 1382              	.LFE241:
 1383              		.size	chIQObjectInit, .-chIQObjectInit
 1384 0048 AFF30080 		.section	.text.chIQResetI,"ax",%progbits
 1384      AFF30080 
 1385              		.align	2
 1386              		.p2align 4,,15
 1387              		.global	chIQResetI
 1388              		.thumb
 1389              		.thumb_func
 1390              		.type	chIQResetI, %function
 1391              	chIQResetI:
 1392              	.LFB242:
 1393              		.loc 7 111 0
 1394              		.cfi_startproc
 1395              		@ args = 0, pretend = 0, frame = 8
 1396              		@ frame_needed = 0, uses_anonymous_args = 0
ARM GAS  /tmp/ccC8tU94.s 			page 85


 1397 0000 00B5     		push	{lr}
 1398              		.cfi_def_cfa_offset 4
 1399              		.cfi_offset 14, -4
 1400 0002 83B0     		sub	sp, sp, #12
 1401              		.cfi_def_cfa_offset 16
 1402 0004 0190     		str	r0, [sp, #4]
 1403              		.loc 7 115 0
 1404 0006 019B     		ldr	r3, [sp, #4]
 1405 0008 DA68     		ldr	r2, [r3, #12]
 1406 000a 019B     		ldr	r3, [sp, #4]
 1407 000c 9A61     		str	r2, [r3, #24]
 1408              		.loc 7 116 0
 1409 000e 019B     		ldr	r3, [sp, #4]
 1410 0010 DA68     		ldr	r2, [r3, #12]
 1411 0012 019B     		ldr	r3, [sp, #4]
 1412 0014 5A61     		str	r2, [r3, #20]
 1413              		.loc 7 117 0
 1414 0016 019B     		ldr	r3, [sp, #4]
 1415 0018 0022     		movs	r2, #0
 1416 001a 9A60     		str	r2, [r3, #8]
 1417              		.loc 7 118 0
 1418 001c 019B     		ldr	r3, [sp, #4]
 1419 001e 1846     		mov	r0, r3
 1420 0020 6FF00101 		mvn	r1, #1
 1421 0024 FFF7FEFF 		bl	chThdDequeueAllI
 1422              		.loc 7 119 0
 1423 0028 03B0     		add	sp, sp, #12
 1424              		@ sp needed
 1425 002a 5DF804FB 		ldr	pc, [sp], #4
 1426              		.cfi_endproc
 1427              	.LFE242:
 1428              		.size	chIQResetI, .-chIQResetI
 1429 002e 00BF     		.section	.text.chIQPutI,"ax",%progbits
 1430              		.align	2
 1431              		.p2align 4,,15
 1432              		.global	chIQPutI
 1433              		.thumb
 1434              		.thumb_func
 1435              		.type	chIQPutI, %function
 1436              	chIQPutI:
 1437              	.LFB243:
 1438              		.loc 7 134 0
 1439              		.cfi_startproc
 1440              		@ args = 0, pretend = 0, frame = 8
 1441              		@ frame_needed = 0, uses_anonymous_args = 0
 1442 0000 00B5     		push	{lr}
 1443              		.cfi_def_cfa_offset 4
 1444              		.cfi_offset 14, -4
 1445 0002 83B0     		sub	sp, sp, #12
 1446              		.cfi_def_cfa_offset 16
 1447 0004 0190     		str	r0, [sp, #4]
 1448 0006 0B46     		mov	r3, r1
 1449 0008 8DF80330 		strb	r3, [sp, #3]
 1450              		.loc 7 138 0
 1451 000c 0198     		ldr	r0, [sp, #4]
 1452 000e FFF7FEFF 		bl	chIQIsFullI
 1453 0012 0346     		mov	r3, r0
ARM GAS  /tmp/ccC8tU94.s 			page 86


 1454 0014 002B     		cmp	r3, #0
 1455 0016 02D0     		beq	.L22
 1456              		.loc 7 139 0
 1457 0018 6FF00303 		mvn	r3, #3
 1458 001c 1CE0     		b	.L23
 1459              	.L22:
 1460              		.loc 7 142 0
 1461 001e 019B     		ldr	r3, [sp, #4]
 1462 0020 9B68     		ldr	r3, [r3, #8]
 1463 0022 5A1C     		adds	r2, r3, #1
 1464 0024 019B     		ldr	r3, [sp, #4]
 1465 0026 9A60     		str	r2, [r3, #8]
 1466              		.loc 7 143 0
 1467 0028 019B     		ldr	r3, [sp, #4]
 1468 002a 5B69     		ldr	r3, [r3, #20]
 1469 002c 591C     		adds	r1, r3, #1
 1470 002e 019A     		ldr	r2, [sp, #4]
 1471 0030 5161     		str	r1, [r2, #20]
 1472 0032 9DF80320 		ldrb	r2, [sp, #3]
 1473 0036 1A70     		strb	r2, [r3]
 1474              		.loc 7 144 0
 1475 0038 019B     		ldr	r3, [sp, #4]
 1476 003a 5A69     		ldr	r2, [r3, #20]
 1477 003c 019B     		ldr	r3, [sp, #4]
 1478 003e 1B69     		ldr	r3, [r3, #16]
 1479 0040 9A42     		cmp	r2, r3
 1480 0042 03D3     		bcc	.L24
 1481              		.loc 7 145 0
 1482 0044 019B     		ldr	r3, [sp, #4]
 1483 0046 DA68     		ldr	r2, [r3, #12]
 1484 0048 019B     		ldr	r3, [sp, #4]
 1485 004a 5A61     		str	r2, [r3, #20]
 1486              	.L24:
 1487              		.loc 7 148 0
 1488 004c 019B     		ldr	r3, [sp, #4]
 1489 004e 1846     		mov	r0, r3
 1490 0050 0021     		movs	r1, #0
 1491 0052 FFF7FEFF 		bl	chThdDequeueNextI
 1492              		.loc 7 150 0
 1493 0056 0023     		movs	r3, #0
 1494              	.L23:
 1495              		.loc 7 151 0
 1496 0058 1846     		mov	r0, r3
 1497 005a 03B0     		add	sp, sp, #12
 1498              		@ sp needed
 1499 005c 5DF804FB 		ldr	pc, [sp], #4
 1500              		.cfi_endproc
 1501              	.LFE243:
 1502              		.size	chIQPutI, .-chIQPutI
 1503              		.section	.text.chIQGetTimeout,"ax",%progbits
 1504              		.align	2
 1505              		.p2align 4,,15
 1506              		.global	chIQGetTimeout
 1507              		.thumb
 1508              		.thumb_func
 1509              		.type	chIQGetTimeout, %function
 1510              	chIQGetTimeout:
ARM GAS  /tmp/ccC8tU94.s 			page 87


 1511              	.LFB244:
 1512              		.loc 7 173 0
 1513              		.cfi_startproc
 1514              		@ args = 0, pretend = 0, frame = 16
 1515              		@ frame_needed = 0, uses_anonymous_args = 0
 1516 0000 00B5     		push	{lr}
 1517              		.cfi_def_cfa_offset 4
 1518              		.cfi_offset 14, -4
 1519 0002 85B0     		sub	sp, sp, #20
 1520              		.cfi_def_cfa_offset 24
 1521 0004 0190     		str	r0, [sp, #4]
 1522 0006 0091     		str	r1, [sp]
 1523              		.loc 7 176 0
 1524 0008 FFF7FEFF 		bl	chSysLock
 1525              		.loc 7 177 0
 1526 000c 019B     		ldr	r3, [sp, #4]
 1527 000e DB69     		ldr	r3, [r3, #28]
 1528 0010 002B     		cmp	r3, #0
 1529 0012 04D0     		beq	.L26
 1530              		.loc 7 178 0
 1531 0014 019B     		ldr	r3, [sp, #4]
 1532 0016 DB69     		ldr	r3, [r3, #28]
 1533 0018 0198     		ldr	r0, [sp, #4]
 1534 001a 9847     		blx	r3
 1535              		.loc 7 181 0
 1536 001c 0DE0     		b	.L27
 1537              	.L26:
 1538 001e 0CE0     		b	.L27
 1539              	.L29:
 1540              	.LBB10:
 1541              		.loc 7 182 0
 1542 0020 019B     		ldr	r3, [sp, #4]
 1543 0022 1846     		mov	r0, r3
 1544 0024 0099     		ldr	r1, [sp]
 1545 0026 FFF7FEFF 		bl	chThdEnqueueTimeoutS
 1546 002a 0390     		str	r0, [sp, #12]
 1547              		.loc 7 183 0
 1548 002c 039B     		ldr	r3, [sp, #12]
 1549 002e 002B     		cmp	r3, #0
 1550 0030 03DA     		bge	.L27
 1551              		.loc 7 184 0
 1552 0032 FFF7FEFF 		bl	chSysUnlock
 1553              		.loc 7 185 0
 1554 0036 039B     		ldr	r3, [sp, #12]
 1555 0038 20E0     		b	.L28
 1556              	.L27:
 1557              	.LBE10:
 1558              		.loc 7 181 0 discriminator 1
 1559 003a 0198     		ldr	r0, [sp, #4]
 1560 003c FFF7FEFF 		bl	chIQIsEmptyI
 1561 0040 0346     		mov	r3, r0
 1562 0042 002B     		cmp	r3, #0
 1563 0044 ECD1     		bne	.L29
 1564              		.loc 7 189 0
 1565 0046 019B     		ldr	r3, [sp, #4]
 1566 0048 9B68     		ldr	r3, [r3, #8]
 1567 004a 5A1E     		subs	r2, r3, #1
ARM GAS  /tmp/ccC8tU94.s 			page 88


 1568 004c 019B     		ldr	r3, [sp, #4]
 1569 004e 9A60     		str	r2, [r3, #8]
 1570              		.loc 7 190 0
 1571 0050 019B     		ldr	r3, [sp, #4]
 1572 0052 9B69     		ldr	r3, [r3, #24]
 1573 0054 591C     		adds	r1, r3, #1
 1574 0056 019A     		ldr	r2, [sp, #4]
 1575 0058 9161     		str	r1, [r2, #24]
 1576 005a 1B78     		ldrb	r3, [r3]
 1577 005c 8DF80B30 		strb	r3, [sp, #11]
 1578              		.loc 7 191 0
 1579 0060 019B     		ldr	r3, [sp, #4]
 1580 0062 9A69     		ldr	r2, [r3, #24]
 1581 0064 019B     		ldr	r3, [sp, #4]
 1582 0066 1B69     		ldr	r3, [r3, #16]
 1583 0068 9A42     		cmp	r2, r3
 1584 006a 03D3     		bcc	.L30
 1585              		.loc 7 192 0
 1586 006c 019B     		ldr	r3, [sp, #4]
 1587 006e DA68     		ldr	r2, [r3, #12]
 1588 0070 019B     		ldr	r3, [sp, #4]
 1589 0072 9A61     		str	r2, [r3, #24]
 1590              	.L30:
 1591              		.loc 7 194 0
 1592 0074 FFF7FEFF 		bl	chSysUnlock
 1593              		.loc 7 196 0
 1594 0078 9DF80B30 		ldrb	r3, [sp, #11]	@ zero_extendqisi2
 1595              	.L28:
 1596              		.loc 7 197 0
 1597 007c 1846     		mov	r0, r3
 1598 007e 05B0     		add	sp, sp, #20
 1599              		@ sp needed
 1600 0080 5DF804FB 		ldr	pc, [sp], #4
 1601              		.cfi_endproc
 1602              	.LFE244:
 1603              		.size	chIQGetTimeout, .-chIQGetTimeout
 1604 0084 AFF30080 		.section	.text.chIQReadTimeout,"ax",%progbits
 1604      AFF30080 
 1604      AFF30080 
 1605              		.align	2
 1606              		.p2align 4,,15
 1607              		.global	chIQReadTimeout
 1608              		.thumb
 1609              		.thumb_func
 1610              		.type	chIQReadTimeout, %function
 1611              	chIQReadTimeout:
 1612              	.LFB245:
 1613              		.loc 7 224 0
 1614              		.cfi_startproc
 1615              		@ args = 0, pretend = 0, frame = 24
 1616              		@ frame_needed = 0, uses_anonymous_args = 0
 1617 0000 00B5     		push	{lr}
 1618              		.cfi_def_cfa_offset 4
 1619              		.cfi_offset 14, -4
 1620 0002 87B0     		sub	sp, sp, #28
 1621              		.cfi_def_cfa_offset 32
 1622 0004 0390     		str	r0, [sp, #12]
ARM GAS  /tmp/ccC8tU94.s 			page 89


 1623 0006 0291     		str	r1, [sp, #8]
 1624 0008 0192     		str	r2, [sp, #4]
 1625 000a 0093     		str	r3, [sp]
 1626              		.loc 7 225 0
 1627 000c 039B     		ldr	r3, [sp, #12]
 1628 000e DB69     		ldr	r3, [r3, #28]
 1629 0010 0493     		str	r3, [sp, #16]
 1630              		.loc 7 226 0
 1631 0012 0023     		movs	r3, #0
 1632 0014 0593     		str	r3, [sp, #20]
 1633              		.loc 7 230 0
 1634 0016 FFF7FEFF 		bl	chSysLock
 1635              	.L38:
 1636              		.loc 7 232 0
 1637 001a 049B     		ldr	r3, [sp, #16]
 1638 001c 002B     		cmp	r3, #0
 1639 001e 03D0     		beq	.L32
 1640              		.loc 7 233 0
 1641 0020 049B     		ldr	r3, [sp, #16]
 1642 0022 0398     		ldr	r0, [sp, #12]
 1643 0024 9847     		blx	r3
 1644              		.loc 7 236 0
 1645 0026 0CE0     		b	.L33
 1646              	.L32:
 1647 0028 0BE0     		b	.L33
 1648              	.L35:
 1649              		.loc 7 237 0
 1650 002a 039B     		ldr	r3, [sp, #12]
 1651 002c 1846     		mov	r0, r3
 1652 002e 0099     		ldr	r1, [sp]
 1653 0030 FFF7FEFF 		bl	chThdEnqueueTimeoutS
 1654 0034 0346     		mov	r3, r0
 1655 0036 002B     		cmp	r3, #0
 1656 0038 03D0     		beq	.L33
 1657              		.loc 7 238 0
 1658 003a FFF7FEFF 		bl	chSysUnlock
 1659              		.loc 7 239 0
 1660 003e 059B     		ldr	r3, [sp, #20]
 1661 0040 2EE0     		b	.L34
 1662              	.L33:
 1663              		.loc 7 236 0 discriminator 1
 1664 0042 0398     		ldr	r0, [sp, #12]
 1665 0044 FFF7FEFF 		bl	chIQIsEmptyI
 1666 0048 0346     		mov	r3, r0
 1667 004a 002B     		cmp	r3, #0
 1668 004c EDD1     		bne	.L35
 1669              		.loc 7 243 0
 1670 004e 039B     		ldr	r3, [sp, #12]
 1671 0050 9B68     		ldr	r3, [r3, #8]
 1672 0052 5A1E     		subs	r2, r3, #1
 1673 0054 039B     		ldr	r3, [sp, #12]
 1674 0056 9A60     		str	r2, [r3, #8]
 1675              		.loc 7 244 0
 1676 0058 029B     		ldr	r3, [sp, #8]
 1677 005a 5A1C     		adds	r2, r3, #1
 1678 005c 0292     		str	r2, [sp, #8]
 1679 005e 039A     		ldr	r2, [sp, #12]
ARM GAS  /tmp/ccC8tU94.s 			page 90


 1680 0060 9269     		ldr	r2, [r2, #24]
 1681 0062 501C     		adds	r0, r2, #1
 1682 0064 0399     		ldr	r1, [sp, #12]
 1683 0066 8861     		str	r0, [r1, #24]
 1684 0068 1278     		ldrb	r2, [r2]	@ zero_extendqisi2
 1685 006a 1A70     		strb	r2, [r3]
 1686              		.loc 7 245 0
 1687 006c 039B     		ldr	r3, [sp, #12]
 1688 006e 9A69     		ldr	r2, [r3, #24]
 1689 0070 039B     		ldr	r3, [sp, #12]
 1690 0072 1B69     		ldr	r3, [r3, #16]
 1691 0074 9A42     		cmp	r2, r3
 1692 0076 03D3     		bcc	.L36
 1693              		.loc 7 246 0
 1694 0078 039B     		ldr	r3, [sp, #12]
 1695 007a DA68     		ldr	r2, [r3, #12]
 1696 007c 039B     		ldr	r3, [sp, #12]
 1697 007e 9A61     		str	r2, [r3, #24]
 1698              	.L36:
 1699              		.loc 7 248 0
 1700 0080 FFF7FEFF 		bl	chSysUnlock
 1701              		.loc 7 250 0
 1702 0084 059B     		ldr	r3, [sp, #20]
 1703 0086 0133     		adds	r3, r3, #1
 1704 0088 0593     		str	r3, [sp, #20]
 1705              		.loc 7 251 0
 1706 008a 019B     		ldr	r3, [sp, #4]
 1707 008c 013B     		subs	r3, r3, #1
 1708 008e 0193     		str	r3, [sp, #4]
 1709 0090 019B     		ldr	r3, [sp, #4]
 1710 0092 002B     		cmp	r3, #0
 1711 0094 01D1     		bne	.L37
 1712              		.loc 7 252 0
 1713 0096 059B     		ldr	r3, [sp, #20]
 1714 0098 02E0     		b	.L34
 1715              	.L37:
 1716              		.loc 7 255 0
 1717 009a FFF7FEFF 		bl	chSysLock
 1718              		.loc 7 256 0
 1719 009e BCE7     		b	.L38
 1720              	.L34:
 1721              		.loc 7 257 0
 1722 00a0 1846     		mov	r0, r3
 1723 00a2 07B0     		add	sp, sp, #28
 1724              		@ sp needed
 1725 00a4 5DF804FB 		ldr	pc, [sp], #4
 1726              		.cfi_endproc
 1727              	.LFE245:
 1728              		.size	chIQReadTimeout, .-chIQReadTimeout
 1729 00a8 AFF30080 		.section	.text.chOQObjectInit,"ax",%progbits
 1729      AFF30080 
 1730              		.align	2
 1731              		.p2align 4,,15
 1732              		.global	chOQObjectInit
 1733              		.thumb
 1734              		.thumb_func
 1735              		.type	chOQObjectInit, %function
ARM GAS  /tmp/ccC8tU94.s 			page 91


 1736              	chOQObjectInit:
 1737              	.LFB246:
 1738              		.loc 7 276 0
 1739              		.cfi_startproc
 1740              		@ args = 4, pretend = 0, frame = 16
 1741              		@ frame_needed = 0, uses_anonymous_args = 0
 1742 0000 00B5     		push	{lr}
 1743              		.cfi_def_cfa_offset 4
 1744              		.cfi_offset 14, -4
 1745 0002 85B0     		sub	sp, sp, #20
 1746              		.cfi_def_cfa_offset 24
 1747 0004 0390     		str	r0, [sp, #12]
 1748 0006 0291     		str	r1, [sp, #8]
 1749 0008 0192     		str	r2, [sp, #4]
 1750 000a 0093     		str	r3, [sp]
 1751              		.loc 7 278 0
 1752 000c 039B     		ldr	r3, [sp, #12]
 1753 000e 1846     		mov	r0, r3
 1754 0010 FFF7FEFF 		bl	chThdQueueObjectInit
 1755              		.loc 7 279 0
 1756 0014 039B     		ldr	r3, [sp, #12]
 1757 0016 019A     		ldr	r2, [sp, #4]
 1758 0018 9A60     		str	r2, [r3, #8]
 1759              		.loc 7 280 0
 1760 001a 039B     		ldr	r3, [sp, #12]
 1761 001c 029A     		ldr	r2, [sp, #8]
 1762 001e DA60     		str	r2, [r3, #12]
 1763              		.loc 7 281 0
 1764 0020 039B     		ldr	r3, [sp, #12]
 1765 0022 029A     		ldr	r2, [sp, #8]
 1766 0024 9A61     		str	r2, [r3, #24]
 1767              		.loc 7 282 0
 1768 0026 039B     		ldr	r3, [sp, #12]
 1769 0028 029A     		ldr	r2, [sp, #8]
 1770 002a 5A61     		str	r2, [r3, #20]
 1771              		.loc 7 283 0
 1772 002c 029A     		ldr	r2, [sp, #8]
 1773 002e 019B     		ldr	r3, [sp, #4]
 1774 0030 1A44     		add	r2, r2, r3
 1775 0032 039B     		ldr	r3, [sp, #12]
 1776 0034 1A61     		str	r2, [r3, #16]
 1777              		.loc 7 284 0
 1778 0036 039B     		ldr	r3, [sp, #12]
 1779 0038 009A     		ldr	r2, [sp]
 1780 003a DA61     		str	r2, [r3, #28]
 1781              		.loc 7 285 0
 1782 003c 039B     		ldr	r3, [sp, #12]
 1783 003e 069A     		ldr	r2, [sp, #24]
 1784 0040 1A62     		str	r2, [r3, #32]
 1785              		.loc 7 286 0
 1786 0042 05B0     		add	sp, sp, #20
 1787              		@ sp needed
 1788 0044 5DF804FB 		ldr	pc, [sp], #4
 1789              		.cfi_endproc
 1790              	.LFE246:
 1791              		.size	chOQObjectInit, .-chOQObjectInit
 1792 0048 AFF30080 		.section	.text.chOQResetI,"ax",%progbits
ARM GAS  /tmp/ccC8tU94.s 			page 92


 1792      AFF30080 
 1793              		.align	2
 1794              		.p2align 4,,15
 1795              		.global	chOQResetI
 1796              		.thumb
 1797              		.thumb_func
 1798              		.type	chOQResetI, %function
 1799              	chOQResetI:
 1800              	.LFB247:
 1801              		.loc 7 299 0
 1802              		.cfi_startproc
 1803              		@ args = 0, pretend = 0, frame = 8
 1804              		@ frame_needed = 0, uses_anonymous_args = 0
 1805 0000 00B5     		push	{lr}
 1806              		.cfi_def_cfa_offset 4
 1807              		.cfi_offset 14, -4
 1808 0002 83B0     		sub	sp, sp, #12
 1809              		.cfi_def_cfa_offset 16
 1810 0004 0190     		str	r0, [sp, #4]
 1811              		.loc 7 303 0
 1812 0006 019B     		ldr	r3, [sp, #4]
 1813 0008 DA68     		ldr	r2, [r3, #12]
 1814 000a 019B     		ldr	r3, [sp, #4]
 1815 000c 9A61     		str	r2, [r3, #24]
 1816              		.loc 7 304 0
 1817 000e 019B     		ldr	r3, [sp, #4]
 1818 0010 DA68     		ldr	r2, [r3, #12]
 1819 0012 019B     		ldr	r3, [sp, #4]
 1820 0014 5A61     		str	r2, [r3, #20]
 1821              		.loc 7 305 0
 1822 0016 019B     		ldr	r3, [sp, #4]
 1823 0018 1B69     		ldr	r3, [r3, #16]
 1824 001a 1A46     		mov	r2, r3
 1825 001c 019B     		ldr	r3, [sp, #4]
 1826 001e DB68     		ldr	r3, [r3, #12]
 1827 0020 D31A     		subs	r3, r2, r3
 1828 0022 1A46     		mov	r2, r3
 1829 0024 019B     		ldr	r3, [sp, #4]
 1830 0026 9A60     		str	r2, [r3, #8]
 1831              		.loc 7 306 0
 1832 0028 019B     		ldr	r3, [sp, #4]
 1833 002a 1846     		mov	r0, r3
 1834 002c 6FF00101 		mvn	r1, #1
 1835 0030 FFF7FEFF 		bl	chThdDequeueAllI
 1836              		.loc 7 307 0
 1837 0034 03B0     		add	sp, sp, #12
 1838              		@ sp needed
 1839 0036 5DF804FB 		ldr	pc, [sp], #4
 1840              		.cfi_endproc
 1841              	.LFE247:
 1842              		.size	chOQResetI, .-chOQResetI
 1843 003a 00BFAFF3 		.section	.text.chOQPutTimeout,"ax",%progbits
 1843      0080
 1844              		.align	2
 1845              		.p2align 4,,15
 1846              		.global	chOQPutTimeout
 1847              		.thumb
ARM GAS  /tmp/ccC8tU94.s 			page 93


 1848              		.thumb_func
 1849              		.type	chOQPutTimeout, %function
 1850              	chOQPutTimeout:
 1851              	.LFB248:
 1852              		.loc 7 331 0
 1853              		.cfi_startproc
 1854              		@ args = 0, pretend = 0, frame = 24
 1855              		@ frame_needed = 0, uses_anonymous_args = 0
 1856 0000 00B5     		push	{lr}
 1857              		.cfi_def_cfa_offset 4
 1858              		.cfi_offset 14, -4
 1859 0002 87B0     		sub	sp, sp, #28
 1860              		.cfi_def_cfa_offset 32
 1861 0004 0390     		str	r0, [sp, #12]
 1862 0006 0B46     		mov	r3, r1
 1863 0008 0192     		str	r2, [sp, #4]
 1864 000a 8DF80B30 		strb	r3, [sp, #11]
 1865              		.loc 7 333 0
 1866 000e FFF7FEFF 		bl	chSysLock
 1867              		.loc 7 334 0
 1868 0012 0CE0     		b	.L42
 1869              	.L44:
 1870              	.LBB11:
 1871              		.loc 7 335 0
 1872 0014 039B     		ldr	r3, [sp, #12]
 1873 0016 1846     		mov	r0, r3
 1874 0018 0199     		ldr	r1, [sp, #4]
 1875 001a FFF7FEFF 		bl	chThdEnqueueTimeoutS
 1876 001e 0590     		str	r0, [sp, #20]
 1877              		.loc 7 336 0
 1878 0020 059B     		ldr	r3, [sp, #20]
 1879 0022 002B     		cmp	r3, #0
 1880 0024 03DA     		bge	.L42
 1881              		.loc 7 337 0
 1882 0026 FFF7FEFF 		bl	chSysUnlock
 1883              		.loc 7 338 0
 1884 002a 059B     		ldr	r3, [sp, #20]
 1885 002c 27E0     		b	.L43
 1886              	.L42:
 1887              	.LBE11:
 1888              		.loc 7 334 0 discriminator 1
 1889 002e 0398     		ldr	r0, [sp, #12]
 1890 0030 FFF7FEFF 		bl	chOQIsFullI
 1891 0034 0346     		mov	r3, r0
 1892 0036 002B     		cmp	r3, #0
 1893 0038 ECD1     		bne	.L44
 1894              		.loc 7 342 0
 1895 003a 039B     		ldr	r3, [sp, #12]
 1896 003c 9B68     		ldr	r3, [r3, #8]
 1897 003e 5A1E     		subs	r2, r3, #1
 1898 0040 039B     		ldr	r3, [sp, #12]
 1899 0042 9A60     		str	r2, [r3, #8]
 1900              		.loc 7 343 0
 1901 0044 039B     		ldr	r3, [sp, #12]
 1902 0046 5B69     		ldr	r3, [r3, #20]
 1903 0048 591C     		adds	r1, r3, #1
 1904 004a 039A     		ldr	r2, [sp, #12]
ARM GAS  /tmp/ccC8tU94.s 			page 94


 1905 004c 5161     		str	r1, [r2, #20]
 1906 004e 9DF80B20 		ldrb	r2, [sp, #11]
 1907 0052 1A70     		strb	r2, [r3]
 1908              		.loc 7 344 0
 1909 0054 039B     		ldr	r3, [sp, #12]
 1910 0056 5A69     		ldr	r2, [r3, #20]
 1911 0058 039B     		ldr	r3, [sp, #12]
 1912 005a 1B69     		ldr	r3, [r3, #16]
 1913 005c 9A42     		cmp	r2, r3
 1914 005e 03D3     		bcc	.L45
 1915              		.loc 7 345 0
 1916 0060 039B     		ldr	r3, [sp, #12]
 1917 0062 DA68     		ldr	r2, [r3, #12]
 1918 0064 039B     		ldr	r3, [sp, #12]
 1919 0066 5A61     		str	r2, [r3, #20]
 1920              	.L45:
 1921              		.loc 7 348 0
 1922 0068 039B     		ldr	r3, [sp, #12]
 1923 006a DB69     		ldr	r3, [r3, #28]
 1924 006c 002B     		cmp	r3, #0
 1925 006e 03D0     		beq	.L46
 1926              		.loc 7 349 0
 1927 0070 039B     		ldr	r3, [sp, #12]
 1928 0072 DB69     		ldr	r3, [r3, #28]
 1929 0074 0398     		ldr	r0, [sp, #12]
 1930 0076 9847     		blx	r3
 1931              	.L46:
 1932              		.loc 7 351 0
 1933 0078 FFF7FEFF 		bl	chSysUnlock
 1934              		.loc 7 353 0
 1935 007c 0023     		movs	r3, #0
 1936              	.L43:
 1937              		.loc 7 354 0
 1938 007e 1846     		mov	r0, r3
 1939 0080 07B0     		add	sp, sp, #28
 1940              		@ sp needed
 1941 0082 5DF804FB 		ldr	pc, [sp], #4
 1942              		.cfi_endproc
 1943              	.LFE248:
 1944              		.size	chOQPutTimeout, .-chOQPutTimeout
 1945 0086 00BFAFF3 		.section	.text.chOQGetI,"ax",%progbits
 1945      0080AFF3 
 1945      0080
 1946              		.align	2
 1947              		.p2align 4,,15
 1948              		.global	chOQGetI
 1949              		.thumb
 1950              		.thumb_func
 1951              		.type	chOQGetI, %function
 1952              	chOQGetI:
 1953              	.LFB249:
 1954              		.loc 7 366 0
 1955              		.cfi_startproc
 1956              		@ args = 0, pretend = 0, frame = 16
 1957              		@ frame_needed = 0, uses_anonymous_args = 0
 1958 0000 00B5     		push	{lr}
 1959              		.cfi_def_cfa_offset 4
ARM GAS  /tmp/ccC8tU94.s 			page 95


 1960              		.cfi_offset 14, -4
 1961 0002 85B0     		sub	sp, sp, #20
 1962              		.cfi_def_cfa_offset 24
 1963 0004 0190     		str	r0, [sp, #4]
 1964              		.loc 7 371 0
 1965 0006 0198     		ldr	r0, [sp, #4]
 1966 0008 FFF7FEFF 		bl	chOQIsEmptyI
 1967 000c 0346     		mov	r3, r0
 1968 000e 002B     		cmp	r3, #0
 1969 0010 02D0     		beq	.L48
 1970              		.loc 7 372 0
 1971 0012 6FF00203 		mvn	r3, #2
 1972 0016 1DE0     		b	.L49
 1973              	.L48:
 1974              		.loc 7 375 0
 1975 0018 019B     		ldr	r3, [sp, #4]
 1976 001a 9B68     		ldr	r3, [r3, #8]
 1977 001c 5A1C     		adds	r2, r3, #1
 1978 001e 019B     		ldr	r3, [sp, #4]
 1979 0020 9A60     		str	r2, [r3, #8]
 1980              		.loc 7 376 0
 1981 0022 019B     		ldr	r3, [sp, #4]
 1982 0024 9B69     		ldr	r3, [r3, #24]
 1983 0026 591C     		adds	r1, r3, #1
 1984 0028 019A     		ldr	r2, [sp, #4]
 1985 002a 9161     		str	r1, [r2, #24]
 1986 002c 1B78     		ldrb	r3, [r3]
 1987 002e 8DF80F30 		strb	r3, [sp, #15]
 1988              		.loc 7 377 0
 1989 0032 019B     		ldr	r3, [sp, #4]
 1990 0034 9A69     		ldr	r2, [r3, #24]
 1991 0036 019B     		ldr	r3, [sp, #4]
 1992 0038 1B69     		ldr	r3, [r3, #16]
 1993 003a 9A42     		cmp	r2, r3
 1994 003c 03D3     		bcc	.L50
 1995              		.loc 7 378 0
 1996 003e 019B     		ldr	r3, [sp, #4]
 1997 0040 DA68     		ldr	r2, [r3, #12]
 1998 0042 019B     		ldr	r3, [sp, #4]
 1999 0044 9A61     		str	r2, [r3, #24]
 2000              	.L50:
 2001              		.loc 7 381 0
 2002 0046 019B     		ldr	r3, [sp, #4]
 2003 0048 1846     		mov	r0, r3
 2004 004a 0021     		movs	r1, #0
 2005 004c FFF7FEFF 		bl	chThdDequeueNextI
 2006              		.loc 7 383 0
 2007 0050 9DF80F30 		ldrb	r3, [sp, #15]	@ zero_extendqisi2
 2008              	.L49:
 2009              		.loc 7 384 0
 2010 0054 1846     		mov	r0, r3
 2011 0056 05B0     		add	sp, sp, #20
 2012              		@ sp needed
 2013 0058 5DF804FB 		ldr	pc, [sp], #4
 2014              		.cfi_endproc
 2015              	.LFE249:
 2016              		.size	chOQGetI, .-chOQGetI
ARM GAS  /tmp/ccC8tU94.s 			page 96


 2017 005c AFF30080 		.section	.text.chOQWriteTimeout,"ax",%progbits
 2018              		.align	2
 2019              		.p2align 4,,15
 2020              		.global	chOQWriteTimeout
 2021              		.thumb
 2022              		.thumb_func
 2023              		.type	chOQWriteTimeout, %function
 2024              	chOQWriteTimeout:
 2025              	.LFB250:
 2026              		.loc 7 411 0
 2027              		.cfi_startproc
 2028              		@ args = 0, pretend = 0, frame = 24
 2029              		@ frame_needed = 0, uses_anonymous_args = 0
 2030 0000 00B5     		push	{lr}
 2031              		.cfi_def_cfa_offset 4
 2032              		.cfi_offset 14, -4
 2033 0002 87B0     		sub	sp, sp, #28
 2034              		.cfi_def_cfa_offset 32
 2035 0004 0390     		str	r0, [sp, #12]
 2036 0006 0291     		str	r1, [sp, #8]
 2037 0008 0192     		str	r2, [sp, #4]
 2038 000a 0093     		str	r3, [sp]
 2039              		.loc 7 412 0
 2040 000c 039B     		ldr	r3, [sp, #12]
 2041 000e DB69     		ldr	r3, [r3, #28]
 2042 0010 0493     		str	r3, [sp, #16]
 2043              		.loc 7 413 0
 2044 0012 0023     		movs	r3, #0
 2045 0014 0593     		str	r3, [sp, #20]
 2046              		.loc 7 417 0
 2047 0016 FFF7FEFF 		bl	chSysLock
 2048              		.loc 7 419 0
 2049 001a 0BE0     		b	.L52
 2050              	.L54:
 2051              		.loc 7 420 0
 2052 001c 039B     		ldr	r3, [sp, #12]
 2053 001e 1846     		mov	r0, r3
 2054 0020 0099     		ldr	r1, [sp]
 2055 0022 FFF7FEFF 		bl	chThdEnqueueTimeoutS
 2056 0026 0346     		mov	r3, r0
 2057 0028 002B     		cmp	r3, #0
 2058 002a 03D0     		beq	.L52
 2059              		.loc 7 421 0
 2060 002c FFF7FEFF 		bl	chSysUnlock
 2061              		.loc 7 422 0
 2062 0030 059B     		ldr	r3, [sp, #20]
 2063 0032 35E0     		b	.L53
 2064              	.L52:
 2065              		.loc 7 419 0 discriminator 1
 2066 0034 0398     		ldr	r0, [sp, #12]
 2067 0036 FFF7FEFF 		bl	chOQIsFullI
 2068 003a 0346     		mov	r3, r0
 2069 003c 002B     		cmp	r3, #0
 2070 003e EDD1     		bne	.L54
 2071              		.loc 7 426 0
 2072 0040 039B     		ldr	r3, [sp, #12]
 2073 0042 9B68     		ldr	r3, [r3, #8]
ARM GAS  /tmp/ccC8tU94.s 			page 97


 2074 0044 5A1E     		subs	r2, r3, #1
 2075 0046 039B     		ldr	r3, [sp, #12]
 2076 0048 9A60     		str	r2, [r3, #8]
 2077              		.loc 7 427 0
 2078 004a 039B     		ldr	r3, [sp, #12]
 2079 004c 5B69     		ldr	r3, [r3, #20]
 2080 004e 591C     		adds	r1, r3, #1
 2081 0050 039A     		ldr	r2, [sp, #12]
 2082 0052 5161     		str	r1, [r2, #20]
 2083 0054 029A     		ldr	r2, [sp, #8]
 2084 0056 511C     		adds	r1, r2, #1
 2085 0058 0291     		str	r1, [sp, #8]
 2086 005a 1278     		ldrb	r2, [r2]	@ zero_extendqisi2
 2087 005c 1A70     		strb	r2, [r3]
 2088              		.loc 7 428 0
 2089 005e 039B     		ldr	r3, [sp, #12]
 2090 0060 5A69     		ldr	r2, [r3, #20]
 2091 0062 039B     		ldr	r3, [sp, #12]
 2092 0064 1B69     		ldr	r3, [r3, #16]
 2093 0066 9A42     		cmp	r2, r3
 2094 0068 03D3     		bcc	.L55
 2095              		.loc 7 429 0
 2096 006a 039B     		ldr	r3, [sp, #12]
 2097 006c DA68     		ldr	r2, [r3, #12]
 2098 006e 039B     		ldr	r3, [sp, #12]
 2099 0070 5A61     		str	r2, [r3, #20]
 2100              	.L55:
 2101              		.loc 7 432 0
 2102 0072 049B     		ldr	r3, [sp, #16]
 2103 0074 002B     		cmp	r3, #0
 2104 0076 02D0     		beq	.L56
 2105              		.loc 7 433 0
 2106 0078 049B     		ldr	r3, [sp, #16]
 2107 007a 0398     		ldr	r0, [sp, #12]
 2108 007c 9847     		blx	r3
 2109              	.L56:
 2110              		.loc 7 435 0
 2111 007e FFF7FEFF 		bl	chSysUnlock
 2112              		.loc 7 437 0
 2113 0082 059B     		ldr	r3, [sp, #20]
 2114 0084 0133     		adds	r3, r3, #1
 2115 0086 0593     		str	r3, [sp, #20]
 2116              		.loc 7 438 0
 2117 0088 019B     		ldr	r3, [sp, #4]
 2118 008a 013B     		subs	r3, r3, #1
 2119 008c 0193     		str	r3, [sp, #4]
 2120 008e 019B     		ldr	r3, [sp, #4]
 2121 0090 002B     		cmp	r3, #0
 2122 0092 01D1     		bne	.L57
 2123              		.loc 7 439 0
 2124 0094 059B     		ldr	r3, [sp, #20]
 2125 0096 03E0     		b	.L53
 2126              	.L57:
 2127              		.loc 7 441 0
 2128 0098 FFF7FEFF 		bl	chSysLock
 2129              		.loc 7 442 0
 2130 009c 00BF     		nop
ARM GAS  /tmp/ccC8tU94.s 			page 98


 2131              		.loc 7 419 0
 2132 009e C9E7     		b	.L52
 2133              	.L53:
 2134              		.loc 7 443 0
 2135 00a0 1846     		mov	r0, r3
 2136 00a2 07B0     		add	sp, sp, #28
 2137              		@ sp needed
 2138 00a4 5DF804FB 		ldr	pc, [sp], #4
 2139              		.cfi_endproc
 2140              	.LFE250:
 2141              		.size	chOQWriteTimeout, .-chOQWriteTimeout
 2142 00a8 AFF30080 		.text
 2142      AFF30080 
 2143              	.Letext0:
 2144              		.file 8 "/nfs/nfs5/home/research/hardware/arm2/gcc-arm-embedded/gcc-arm-none-eabi-4_8-2014q2/lib/g
 2145              		.file 9 "/nfs/nfs5/home/research/hardware/arm2/gcc-arm-embedded/gcc-arm-none-eabi-4_8-2014q2/arm-n
 2146              		.file 10 "/nfs/nfs5/home/research/hardware/arm2/gcc-arm-embedded/gcc-arm-none-eabi-4_8-2014q2/arm-
 2147              		.file 11 "../ChibiOS/os/rt/ports/ARMCMx/compilers/GCC/chtypes.h"
 2148              		.file 12 "../ChibiOS/os/rt/include/chsystypes.h"
 2149              		.file 13 "../ChibiOS/os/rt/ports/ARMCMx/chcore.h"
 2150              		.file 14 "../ChibiOS/os/rt/include/chtm.h"
 2151              		.file 15 "../ChibiOS/os/rt/include/chsem.h"
 2152              		.file 16 "../ChibiOS/os/rt/include/chmtx.h"
 2153              		.file 17 "../ChibiOS/os/ext/CMSIS/include/core_cm4.h"
 2154              		.section	.debug_info,"",%progbits
 2155              	.Ldebug_info0:
 2156 0000 1E0C0000 		.4byte	0xc1e
 2157 0004 0400     		.2byte	0x4
 2158 0006 00000000 		.4byte	.Ldebug_abbrev0
 2159 000a 04       		.byte	0x4
 2160 000b 01       		.uleb128 0x1
 2161 000c 1B020000 		.4byte	.LASF145
 2162 0010 01       		.byte	0x1
 2163 0011 72030000 		.4byte	.LASF146
 2164 0015 CC050000 		.4byte	.LASF147
 2165 0019 00000000 		.4byte	.Ldebug_ranges0+0
 2166 001d 00000000 		.4byte	0
 2167 0021 00000000 		.4byte	.Ldebug_line0
 2168 0025 02       		.uleb128 0x2
 2169 0026 04       		.byte	0x4
 2170 0027 05       		.byte	0x5
 2171 0028 696E7400 		.ascii	"int\000"
 2172 002c 03       		.uleb128 0x3
 2173 002d 21000000 		.4byte	.LASF2
 2174 0031 08       		.byte	0x8
 2175 0032 D4       		.byte	0xd4
 2176 0033 37000000 		.4byte	0x37
 2177 0037 04       		.uleb128 0x4
 2178 0038 04       		.byte	0x4
 2179 0039 07       		.byte	0x7
 2180 003a FB020000 		.4byte	.LASF0
 2181 003e 04       		.uleb128 0x4
 2182 003f 01       		.byte	0x1
 2183 0040 06       		.byte	0x6
 2184 0041 30010000 		.4byte	.LASF1
 2185 0045 03       		.uleb128 0x3
 2186 0046 46000000 		.4byte	.LASF3
ARM GAS  /tmp/ccC8tU94.s 			page 99


 2187 004a 09       		.byte	0x9
 2188 004b 1C       		.byte	0x1c
 2189 004c 50000000 		.4byte	0x50
 2190 0050 04       		.uleb128 0x4
 2191 0051 01       		.byte	0x1
 2192 0052 08       		.byte	0x8
 2193 0053 F2040000 		.4byte	.LASF4
 2194 0057 04       		.uleb128 0x4
 2195 0058 02       		.byte	0x2
 2196 0059 05       		.byte	0x5
 2197 005a 20050000 		.4byte	.LASF5
 2198 005e 04       		.uleb128 0x4
 2199 005f 02       		.byte	0x2
 2200 0060 07       		.byte	0x7
 2201 0061 3B030000 		.4byte	.LASF6
 2202 0065 03       		.uleb128 0x3
 2203 0066 AC030000 		.4byte	.LASF7
 2204 006a 09       		.byte	0x9
 2205 006b 37       		.byte	0x37
 2206 006c 70000000 		.4byte	0x70
 2207 0070 04       		.uleb128 0x4
 2208 0071 04       		.byte	0x4
 2209 0072 05       		.byte	0x5
 2210 0073 7E010000 		.4byte	.LASF8
 2211 0077 03       		.uleb128 0x3
 2212 0078 5C060000 		.4byte	.LASF9
 2213 007c 09       		.byte	0x9
 2214 007d 38       		.byte	0x38
 2215 007e 82000000 		.4byte	0x82
 2216 0082 04       		.uleb128 0x4
 2217 0083 04       		.byte	0x4
 2218 0084 07       		.byte	0x7
 2219 0085 17060000 		.4byte	.LASF10
 2220 0089 04       		.uleb128 0x4
 2221 008a 08       		.byte	0x8
 2222 008b 05       		.byte	0x5
 2223 008c 22010000 		.4byte	.LASF11
 2224 0090 03       		.uleb128 0x3
 2225 0091 84040000 		.4byte	.LASF12
 2226 0095 09       		.byte	0x9
 2227 0096 4E       		.byte	0x4e
 2228 0097 9B000000 		.4byte	0x9b
 2229 009b 04       		.uleb128 0x4
 2230 009c 08       		.byte	0x8
 2231 009d 07       		.byte	0x7
 2232 009e 9F000000 		.4byte	.LASF13
 2233 00a2 03       		.uleb128 0x3
 2234 00a3 E9060000 		.4byte	.LASF14
 2235 00a7 0A       		.byte	0xa
 2236 00a8 2A       		.byte	0x2a
 2237 00a9 45000000 		.4byte	0x45
 2238 00ad 03       		.uleb128 0x3
 2239 00ae EA040000 		.4byte	.LASF15
 2240 00b2 0A       		.byte	0xa
 2241 00b3 41       		.byte	0x41
 2242 00b4 65000000 		.4byte	0x65
 2243 00b8 03       		.uleb128 0x3
ARM GAS  /tmp/ccC8tU94.s 			page 100


 2244 00b9 9B050000 		.4byte	.LASF16
 2245 00bd 0A       		.byte	0xa
 2246 00be 42       		.byte	0x42
 2247 00bf 77000000 		.4byte	0x77
 2248 00c3 03       		.uleb128 0x3
 2249 00c4 2F000000 		.4byte	.LASF17
 2250 00c8 0A       		.byte	0xa
 2251 00c9 4E       		.byte	0x4e
 2252 00ca 90000000 		.4byte	0x90
 2253 00ce 03       		.uleb128 0x3
 2254 00cf 99060000 		.4byte	.LASF18
 2255 00d3 0B       		.byte	0xb
 2256 00d4 39       		.byte	0x39
 2257 00d5 B8000000 		.4byte	0xb8
 2258 00d9 03       		.uleb128 0x3
 2259 00da 6A030000 		.4byte	.LASF19
 2260 00de 0B       		.byte	0xb
 2261 00df 3C       		.byte	0x3c
 2262 00e0 A2000000 		.4byte	0xa2
 2263 00e4 03       		.uleb128 0x3
 2264 00e5 87010000 		.4byte	.LASF20
 2265 00e9 0B       		.byte	0xb
 2266 00ea 3D       		.byte	0x3d
 2267 00eb A2000000 		.4byte	0xa2
 2268 00ef 03       		.uleb128 0x3
 2269 00f0 8F040000 		.4byte	.LASF21
 2270 00f4 0B       		.byte	0xb
 2271 00f5 3E       		.byte	0x3e
 2272 00f6 A2000000 		.4byte	0xa2
 2273 00fa 03       		.uleb128 0x3
 2274 00fb C4040000 		.4byte	.LASF22
 2275 00ff 0B       		.byte	0xb
 2276 0100 40       		.byte	0x40
 2277 0101 B8000000 		.4byte	0xb8
 2278 0105 03       		.uleb128 0x3
 2279 0106 58030000 		.4byte	.LASF23
 2280 010a 0B       		.byte	0xb
 2281 010b 41       		.byte	0x41
 2282 010c AD000000 		.4byte	0xad
 2283 0110 03       		.uleb128 0x3
 2284 0111 A0030000 		.4byte	.LASF24
 2285 0115 0B       		.byte	0xb
 2286 0116 43       		.byte	0x43
 2287 0117 B8000000 		.4byte	0xb8
 2288 011b 03       		.uleb128 0x3
 2289 011c 15020000 		.4byte	.LASF25
 2290 0120 0B       		.byte	0xb
 2291 0121 45       		.byte	0x45
 2292 0122 AD000000 		.4byte	0xad
 2293 0126 03       		.uleb128 0x3
 2294 0127 3E060000 		.4byte	.LASF26
 2295 012b 0C       		.byte	0xc
 2296 012c 33       		.byte	0x33
 2297 012d B8000000 		.4byte	0xb8
 2298 0131 03       		.uleb128 0x3
 2299 0132 2E060000 		.4byte	.LASF27
 2300 0136 0C       		.byte	0xc
ARM GAS  /tmp/ccC8tU94.s 			page 101


 2301 0137 3F       		.byte	0x3f
 2302 0138 3C010000 		.4byte	0x13c
 2303 013c 05       		.uleb128 0x5
 2304 013d 4E030000 		.4byte	.LASF47
 2305 0141 44       		.byte	0x44
 2306 0142 03       		.byte	0x3
 2307 0143 C2       		.byte	0xc2
 2308 0144 28020000 		.4byte	0x228
 2309 0148 06       		.uleb128 0x6
 2310 0149 38050000 		.4byte	.LASF28
 2311 014d 03       		.byte	0x3
 2312 014e C3       		.byte	0xc3
 2313 014f 33020000 		.4byte	0x233
 2314 0153 00       		.byte	0
 2315 0154 06       		.uleb128 0x6
 2316 0155 B1040000 		.4byte	.LASF29
 2317 0159 03       		.byte	0x3
 2318 015a C5       		.byte	0xc5
 2319 015b 33020000 		.4byte	0x233
 2320 015f 04       		.byte	0x4
 2321 0160 06       		.uleb128 0x6
 2322 0161 11010000 		.4byte	.LASF30
 2323 0165 03       		.byte	0x3
 2324 0166 C7       		.byte	0xc7
 2325 0167 FA000000 		.4byte	0xfa
 2326 016b 08       		.byte	0x8
 2327 016c 06       		.uleb128 0x6
 2328 016d 3B070000 		.4byte	.LASF31
 2329 0171 03       		.byte	0x3
 2330 0172 C8       		.byte	0xc8
 2331 0173 63040000 		.4byte	0x463
 2332 0177 0C       		.byte	0xc
 2333 0178 06       		.uleb128 0x6
 2334 0179 AA010000 		.4byte	.LASF32
 2335 017d 03       		.byte	0x3
 2336 017e CA       		.byte	0xca
 2337 017f 33020000 		.4byte	0x233
 2338 0183 10       		.byte	0x10
 2339 0184 06       		.uleb128 0x6
 2340 0185 48040000 		.4byte	.LASF33
 2341 0189 03       		.byte	0x3
 2342 018a CB       		.byte	0xcb
 2343 018b 33020000 		.4byte	0x233
 2344 018f 14       		.byte	0x14
 2345 0190 06       		.uleb128 0x6
 2346 0191 F8060000 		.4byte	.LASF34
 2347 0195 03       		.byte	0x3
 2348 0196 D2       		.byte	0xd2
 2349 0197 EE050000 		.4byte	0x5ee
 2350 019b 18       		.byte	0x18
 2351 019c 06       		.uleb128 0x6
 2352 019d 67040000 		.4byte	.LASF35
 2353 01a1 03       		.byte	0x3
 2354 01a2 D8       		.byte	0xd8
 2355 01a3 00060000 		.4byte	0x600
 2356 01a7 1C       		.byte	0x1c
 2357 01a8 06       		.uleb128 0x6
ARM GAS  /tmp/ccC8tU94.s 			page 102


 2358 01a9 0E050000 		.4byte	.LASF36
 2359 01ad 03       		.byte	0x3
 2360 01ae DD       		.byte	0xdd
 2361 01af E4000000 		.4byte	0xe4
 2362 01b3 20       		.byte	0x20
 2363 01b4 06       		.uleb128 0x6
 2364 01b5 44050000 		.4byte	.LASF37
 2365 01b9 03       		.byte	0x3
 2366 01ba E1       		.byte	0xe1
 2367 01bb D9000000 		.4byte	0xd9
 2368 01bf 21       		.byte	0x21
 2369 01c0 06       		.uleb128 0x6
 2370 01c1 C6060000 		.4byte	.LASF38
 2371 01c5 03       		.byte	0x3
 2372 01c6 E6       		.byte	0xe6
 2373 01c7 EF000000 		.4byte	0xef
 2374 01cb 22       		.byte	0x22
 2375 01cc 07       		.uleb128 0x7
 2376 01cd 705F7500 		.ascii	"p_u\000"
 2377 01d1 03       		.byte	0x3
 2378 01d2 3701     		.2byte	0x137
 2379 01d4 1D050000 		.4byte	0x51d
 2380 01d8 24       		.byte	0x24
 2381 01d9 08       		.uleb128 0x8
 2382 01da E7030000 		.4byte	.LASF39
 2383 01de 03       		.byte	0x3
 2384 01df 3C01     		.2byte	0x13c
 2385 01e1 39020000 		.4byte	0x239
 2386 01e5 28       		.byte	0x28
 2387 01e6 08       		.uleb128 0x8
 2388 01e7 22030000 		.4byte	.LASF40
 2389 01eb 03       		.byte	0x3
 2390 01ec 4201     		.2byte	0x142
 2391 01ee 5D020000 		.4byte	0x25d
 2392 01f2 2C       		.byte	0x2c
 2393 01f3 08       		.uleb128 0x8
 2394 01f4 84050000 		.4byte	.LASF41
 2395 01f8 03       		.byte	0x3
 2396 01f9 4801     		.2byte	0x148
 2397 01fb 10010000 		.4byte	0x110
 2398 01ff 34       		.byte	0x34
 2399 0200 08       		.uleb128 0x8
 2400 0201 16050000 		.4byte	.LASF42
 2401 0205 03       		.byte	0x3
 2402 0206 4F01     		.2byte	0x14f
 2403 0208 E8050000 		.4byte	0x5e8
 2404 020c 38       		.byte	0x38
 2405 020d 08       		.uleb128 0x8
 2406 020e 48060000 		.4byte	.LASF43
 2407 0212 03       		.byte	0x3
 2408 0213 5301     		.2byte	0x153
 2409 0215 FA000000 		.4byte	0xfa
 2410 0219 3C       		.byte	0x3c
 2411 021a 08       		.uleb128 0x8
 2412 021b 3C010000 		.4byte	.LASF44
 2413 021f 03       		.byte	0x3
 2414 0220 5A01     		.2byte	0x15a
ARM GAS  /tmp/ccC8tU94.s 			page 103


 2415 0222 10030000 		.4byte	0x310
 2416 0226 40       		.byte	0x40
 2417 0227 00       		.byte	0
 2418 0228 03       		.uleb128 0x3
 2419 0229 FA030000 		.4byte	.LASF45
 2420 022d 0C       		.byte	0xc
 2421 022e 44       		.byte	0x44
 2422 022f 33020000 		.4byte	0x233
 2423 0233 09       		.uleb128 0x9
 2424 0234 04       		.byte	0x4
 2425 0235 31010000 		.4byte	0x131
 2426 0239 03       		.uleb128 0x3
 2427 023a 11070000 		.4byte	.LASF46
 2428 023e 0C       		.byte	0xc
 2429 023f 49       		.byte	0x49
 2430 0240 44020000 		.4byte	0x244
 2431 0244 05       		.uleb128 0x5
 2432 0245 BC050000 		.4byte	.LASF48
 2433 0249 04       		.byte	0x4
 2434 024a 03       		.byte	0x3
 2435 024b B0       		.byte	0xb0
 2436 024c 5D020000 		.4byte	0x25d
 2437 0250 06       		.uleb128 0x6
 2438 0251 38050000 		.4byte	.LASF28
 2439 0255 03       		.byte	0x3
 2440 0256 B1       		.byte	0xb1
 2441 0257 33020000 		.4byte	0x233
 2442 025b 00       		.byte	0
 2443 025c 00       		.byte	0
 2444 025d 03       		.uleb128 0x3
 2445 025e 56050000 		.4byte	.LASF49
 2446 0262 0C       		.byte	0xc
 2447 0263 50       		.byte	0x50
 2448 0264 68020000 		.4byte	0x268
 2449 0268 05       		.uleb128 0x5
 2450 0269 00010000 		.4byte	.LASF50
 2451 026d 08       		.byte	0x8
 2452 026e 03       		.byte	0x3
 2453 026f B7       		.byte	0xb7
 2454 0270 8D020000 		.4byte	0x28d
 2455 0274 06       		.uleb128 0x6
 2456 0275 38050000 		.4byte	.LASF28
 2457 0279 03       		.byte	0x3
 2458 027a B8       		.byte	0xb8
 2459 027b 33020000 		.4byte	0x233
 2460 027f 00       		.byte	0
 2461 0280 06       		.uleb128 0x6
 2462 0281 B1040000 		.4byte	.LASF29
 2463 0285 03       		.byte	0x3
 2464 0286 B9       		.byte	0xb9
 2465 0287 33020000 		.4byte	0x233
 2466 028b 04       		.byte	0x4
 2467 028c 00       		.byte	0
 2468 028d 03       		.uleb128 0x3
 2469 028e 0F000000 		.4byte	.LASF51
 2470 0292 0C       		.byte	0xc
 2471 0293 57       		.byte	0x57
ARM GAS  /tmp/ccC8tU94.s 			page 104


 2472 0294 98020000 		.4byte	0x298
 2473 0298 0A       		.uleb128 0xa
 2474 0299 92030000 		.4byte	.LASF52
 2475 029d 1C       		.byte	0x1c
 2476 029e 03       		.byte	0x3
 2477 029f 9201     		.2byte	0x192
 2478 02a1 F4020000 		.4byte	0x2f4
 2479 02a5 08       		.uleb128 0x8
 2480 02a6 AB050000 		.4byte	.LASF53
 2481 02aa 03       		.byte	0x3
 2482 02ab 9301     		.2byte	0x193
 2483 02ad 5D020000 		.4byte	0x25d
 2484 02b1 00       		.byte	0
 2485 02b2 08       		.uleb128 0x8
 2486 02b3 2A050000 		.4byte	.LASF54
 2487 02b7 03       		.byte	0x3
 2488 02b8 9401     		.2byte	0x194
 2489 02ba FA000000 		.4byte	0xfa
 2490 02be 08       		.byte	0x8
 2491 02bf 08       		.uleb128 0x8
 2492 02c0 50040000 		.4byte	.LASF55
 2493 02c4 03       		.byte	0x3
 2494 02c5 9601     		.2byte	0x196
 2495 02c7 63040000 		.4byte	0x463
 2496 02cb 0C       		.byte	0xc
 2497 02cc 08       		.uleb128 0x8
 2498 02cd C8010000 		.4byte	.LASF56
 2499 02d1 03       		.byte	0x3
 2500 02d2 9901     		.2byte	0x199
 2501 02d4 33020000 		.4byte	0x233
 2502 02d8 10       		.byte	0x10
 2503 02d9 08       		.uleb128 0x8
 2504 02da 7C040000 		.4byte	.LASF57
 2505 02de 03       		.byte	0x3
 2506 02df 9A01     		.2byte	0x19a
 2507 02e1 33020000 		.4byte	0x233
 2508 02e5 14       		.byte	0x14
 2509 02e6 08       		.uleb128 0x8
 2510 02e7 72040000 		.4byte	.LASF58
 2511 02eb 03       		.byte	0x3
 2512 02ec 9D01     		.2byte	0x19d
 2513 02ee 33020000 		.4byte	0x233
 2514 02f2 18       		.byte	0x18
 2515 02f3 00       		.byte	0
 2516 02f4 03       		.uleb128 0x3
 2517 02f5 53060000 		.4byte	.LASF59
 2518 02f9 0C       		.byte	0xc
 2519 02fa 5C       		.byte	0x5c
 2520 02fb FF020000 		.4byte	0x2ff
 2521 02ff 09       		.uleb128 0x9
 2522 0300 04       		.byte	0x4
 2523 0301 05030000 		.4byte	0x305
 2524 0305 0B       		.uleb128 0xb
 2525 0306 10030000 		.4byte	0x310
 2526 030a 0C       		.uleb128 0xc
 2527 030b 10030000 		.4byte	0x310
 2528 030f 00       		.byte	0
ARM GAS  /tmp/ccC8tU94.s 			page 105


 2529 0310 0D       		.uleb128 0xd
 2530 0311 04       		.byte	0x4
 2531 0312 03       		.uleb128 0x3
 2532 0313 A1040000 		.4byte	.LASF60
 2533 0317 0C       		.byte	0xc
 2534 0318 61       		.byte	0x61
 2535 0319 1D030000 		.4byte	0x31d
 2536 031d 0A       		.uleb128 0xa
 2537 031e 66050000 		.4byte	.LASF61
 2538 0322 14       		.byte	0x14
 2539 0323 03       		.byte	0x3
 2540 0324 6D01     		.2byte	0x16d
 2541 0326 6C030000 		.4byte	0x36c
 2542 032a 08       		.uleb128 0x8
 2543 032b 08030000 		.4byte	.LASF62
 2544 032f 03       		.byte	0x3
 2545 0330 6E01     		.2byte	0x16e
 2546 0332 06060000 		.4byte	0x606
 2547 0336 00       		.byte	0
 2548 0337 08       		.uleb128 0x8
 2549 0338 D9010000 		.4byte	.LASF63
 2550 033c 03       		.byte	0x3
 2551 033d 6F01     		.2byte	0x16f
 2552 033f 06060000 		.4byte	0x606
 2553 0343 04       		.byte	0x4
 2554 0344 08       		.uleb128 0x8
 2555 0345 B3050000 		.4byte	.LASF64
 2556 0349 03       		.byte	0x3
 2557 034a 7001     		.2byte	0x170
 2558 034c 26010000 		.4byte	0x126
 2559 0350 08       		.byte	0x8
 2560 0351 08       		.uleb128 0x8
 2561 0352 41070000 		.4byte	.LASF65
 2562 0356 03       		.byte	0x3
 2563 0357 7101     		.2byte	0x171
 2564 0359 F4020000 		.4byte	0x2f4
 2565 035d 0C       		.byte	0xc
 2566 035e 08       		.uleb128 0x8
 2567 035f A1060000 		.4byte	.LASF66
 2568 0363 03       		.byte	0x3
 2569 0364 7301     		.2byte	0x173
 2570 0366 10030000 		.4byte	0x310
 2571 036a 10       		.byte	0x10
 2572 036b 00       		.byte	0
 2573 036c 03       		.uleb128 0x3
 2574 036d D2000000 		.4byte	.LASF67
 2575 0371 0C       		.byte	0xc
 2576 0372 66       		.byte	0x66
 2577 0373 77030000 		.4byte	0x377
 2578 0377 0A       		.uleb128 0xa
 2579 0378 0D040000 		.4byte	.LASF68
 2580 037c 10       		.byte	0x10
 2581 037d 03       		.byte	0x3
 2582 037e 7D01     		.2byte	0x17d
 2583 0380 B9030000 		.4byte	0x3b9
 2584 0384 08       		.uleb128 0x8
 2585 0385 08030000 		.4byte	.LASF62
ARM GAS  /tmp/ccC8tU94.s 			page 106


 2586 0389 03       		.byte	0x3
 2587 038a 7E01     		.2byte	0x17e
 2588 038c 06060000 		.4byte	0x606
 2589 0390 00       		.byte	0
 2590 0391 08       		.uleb128 0x8
 2591 0392 D9010000 		.4byte	.LASF63
 2592 0396 03       		.byte	0x3
 2593 0397 8001     		.2byte	0x180
 2594 0399 06060000 		.4byte	0x606
 2595 039d 04       		.byte	0x4
 2596 039e 08       		.uleb128 0x8
 2597 039f B3050000 		.4byte	.LASF64
 2598 03a3 03       		.byte	0x3
 2599 03a4 8201     		.2byte	0x182
 2600 03a6 26010000 		.4byte	0x126
 2601 03aa 08       		.byte	0x8
 2602 03ab 08       		.uleb128 0x8
 2603 03ac 3C040000 		.4byte	.LASF69
 2604 03b0 03       		.byte	0x3
 2605 03b1 8A01     		.2byte	0x18a
 2606 03b3 26010000 		.4byte	0x126
 2607 03b7 0C       		.byte	0xc
 2608 03b8 00       		.byte	0
 2609 03b9 03       		.uleb128 0x3
 2610 03ba 5C000000 		.4byte	.LASF70
 2611 03be 0C       		.byte	0xc
 2612 03bf 6B       		.byte	0x6b
 2613 03c0 C4030000 		.4byte	0x3c4
 2614 03c4 0A       		.uleb128 0xa
 2615 03c5 D4040000 		.4byte	.LASF71
 2616 03c9 04       		.byte	0x4
 2617 03ca 03       		.byte	0x3
 2618 03cb A401     		.2byte	0x1a4
 2619 03cd DF030000 		.4byte	0x3df
 2620 03d1 08       		.uleb128 0x8
 2621 03d2 75060000 		.4byte	.LASF72
 2622 03d6 03       		.byte	0x3
 2623 03d7 AC01     		.2byte	0x1ac
 2624 03d9 0C060000 		.4byte	0x60c
 2625 03dd 00       		.byte	0
 2626 03de 00       		.byte	0
 2627 03df 03       		.uleb128 0x3
 2628 03e0 5E030000 		.4byte	.LASF73
 2629 03e4 0C       		.byte	0xc
 2630 03e5 70       		.byte	0x70
 2631 03e6 EA030000 		.4byte	0x3ea
 2632 03ea 0E       		.uleb128 0xe
 2633 03eb 74010000 		.4byte	.LASF74
 2634 03ef 5001     		.2byte	0x150
 2635 03f1 03       		.byte	0x3
 2636 03f2 C401     		.2byte	0x1c4
 2637 03f4 46040000 		.4byte	0x446
 2638 03f8 08       		.uleb128 0x8
 2639 03f9 E3060000 		.4byte	.LASF75
 2640 03fd 03       		.byte	0x3
 2641 03fe C801     		.2byte	0x1c8
 2642 0400 8D020000 		.4byte	0x28d
ARM GAS  /tmp/ccC8tU94.s 			page 107


 2643 0404 00       		.byte	0
 2644 0405 08       		.uleb128 0x8
 2645 0406 4C010000 		.4byte	.LASF76
 2646 040a 03       		.byte	0x3
 2647 040b CC01     		.2byte	0x1cc
 2648 040d 6C030000 		.4byte	0x36c
 2649 0411 1C       		.byte	0x1c
 2650 0412 07       		.uleb128 0x7
 2651 0413 64626700 		.ascii	"dbg\000"
 2652 0417 03       		.byte	0x3
 2653 0418 D001     		.2byte	0x1d0
 2654 041a B9030000 		.4byte	0x3b9
 2655 041e 2C       		.byte	0x2c
 2656 041f 08       		.uleb128 0x8
 2657 0420 BF000000 		.4byte	.LASF77
 2658 0424 03       		.byte	0x3
 2659 0425 D401     		.2byte	0x1d4
 2660 0427 31010000 		.4byte	0x131
 2661 042b 30       		.byte	0x30
 2662 042c 07       		.uleb128 0x7
 2663 042d 746D00   		.ascii	"tm\000"
 2664 0430 03       		.byte	0x3
 2665 0431 D901     		.2byte	0x1d9
 2666 0433 12050000 		.4byte	0x512
 2667 0437 74       		.byte	0x74
 2668 0438 08       		.uleb128 0x8
 2669 0439 06020000 		.4byte	.LASF78
 2670 043d 03       		.byte	0x3
 2671 043e E501     		.2byte	0x1e5
 2672 0440 11060000 		.4byte	0x611
 2673 0444 78       		.byte	0x78
 2674 0445 00       		.byte	0
 2675 0446 04       		.uleb128 0x4
 2676 0447 04       		.byte	0x4
 2677 0448 07       		.byte	0x7
 2678 0449 F1030000 		.4byte	.LASF79
 2679 044d 03       		.uleb128 0x3
 2680 044e D0010000 		.4byte	.LASF80
 2681 0452 0D       		.byte	0xd
 2682 0453 65       		.byte	0x65
 2683 0454 10030000 		.4byte	0x310
 2684 0458 03       		.uleb128 0x3
 2685 0459 B6030000 		.4byte	.LASF81
 2686 045d 0D       		.byte	0xd
 2687 045e 6D       		.byte	0x6d
 2688 045f C3000000 		.4byte	0xc3
 2689 0463 05       		.uleb128 0x5
 2690 0464 91060000 		.4byte	.LASF82
 2691 0468 04       		.byte	0x4
 2692 0469 0D       		.byte	0xd
 2693 046a 89       		.byte	0x89
 2694 046b 7C040000 		.4byte	0x47c
 2695 046f 0F       		.uleb128 0xf
 2696 0470 72313300 		.ascii	"r13\000"
 2697 0474 0D       		.byte	0xd
 2698 0475 8A       		.byte	0x8a
 2699 0476 F7040000 		.4byte	0x4f7
ARM GAS  /tmp/ccC8tU94.s 			page 108


 2700 047a 00       		.byte	0
 2701 047b 00       		.byte	0
 2702 047c 05       		.uleb128 0x5
 2703 047d 50000000 		.4byte	.LASF83
 2704 0481 24       		.byte	0x24
 2705 0482 01       		.byte	0x1
 2706 0483 FD       		.byte	0xfd
 2707 0484 F7040000 		.4byte	0x4f7
 2708 0488 07       		.uleb128 0x7
 2709 0489 723400   		.ascii	"r4\000"
 2710 048c 01       		.byte	0x1
 2711 048d 1001     		.2byte	0x110
 2712 048f 4D040000 		.4byte	0x44d
 2713 0493 00       		.byte	0
 2714 0494 07       		.uleb128 0x7
 2715 0495 723500   		.ascii	"r5\000"
 2716 0498 01       		.byte	0x1
 2717 0499 1101     		.2byte	0x111
 2718 049b 4D040000 		.4byte	0x44d
 2719 049f 04       		.byte	0x4
 2720 04a0 07       		.uleb128 0x7
 2721 04a1 723600   		.ascii	"r6\000"
 2722 04a4 01       		.byte	0x1
 2723 04a5 1201     		.2byte	0x112
 2724 04a7 4D040000 		.4byte	0x44d
 2725 04ab 08       		.byte	0x8
 2726 04ac 07       		.uleb128 0x7
 2727 04ad 723700   		.ascii	"r7\000"
 2728 04b0 01       		.byte	0x1
 2729 04b1 1301     		.2byte	0x113
 2730 04b3 4D040000 		.4byte	0x44d
 2731 04b7 0C       		.byte	0xc
 2732 04b8 07       		.uleb128 0x7
 2733 04b9 723800   		.ascii	"r8\000"
 2734 04bc 01       		.byte	0x1
 2735 04bd 1401     		.2byte	0x114
 2736 04bf 4D040000 		.4byte	0x44d
 2737 04c3 10       		.byte	0x10
 2738 04c4 07       		.uleb128 0x7
 2739 04c5 723900   		.ascii	"r9\000"
 2740 04c8 01       		.byte	0x1
 2741 04c9 1501     		.2byte	0x115
 2742 04cb 4D040000 		.4byte	0x44d
 2743 04cf 14       		.byte	0x14
 2744 04d0 07       		.uleb128 0x7
 2745 04d1 72313000 		.ascii	"r10\000"
 2746 04d5 01       		.byte	0x1
 2747 04d6 1601     		.2byte	0x116
 2748 04d8 4D040000 		.4byte	0x44d
 2749 04dc 18       		.byte	0x18
 2750 04dd 07       		.uleb128 0x7
 2751 04de 72313100 		.ascii	"r11\000"
 2752 04e2 01       		.byte	0x1
 2753 04e3 1701     		.2byte	0x117
 2754 04e5 4D040000 		.4byte	0x44d
 2755 04e9 1C       		.byte	0x1c
 2756 04ea 07       		.uleb128 0x7
ARM GAS  /tmp/ccC8tU94.s 			page 109


 2757 04eb 6C7200   		.ascii	"lr\000"
 2758 04ee 01       		.byte	0x1
 2759 04ef 1801     		.2byte	0x118
 2760 04f1 4D040000 		.4byte	0x44d
 2761 04f5 20       		.byte	0x20
 2762 04f6 00       		.byte	0
 2763 04f7 09       		.uleb128 0x9
 2764 04f8 04       		.byte	0x4
 2765 04f9 7C040000 		.4byte	0x47c
 2766 04fd 10       		.uleb128 0x10
 2767 04fe 04       		.byte	0x4
 2768 04ff 0E       		.byte	0xe
 2769 0500 38       		.byte	0x38
 2770 0501 12050000 		.4byte	0x512
 2771 0505 06       		.uleb128 0x6
 2772 0506 7F060000 		.4byte	.LASF84
 2773 050a 0E       		.byte	0xe
 2774 050b 3C       		.byte	0x3c
 2775 050c CE000000 		.4byte	0xce
 2776 0510 00       		.byte	0
 2777 0511 00       		.byte	0
 2778 0512 03       		.uleb128 0x3
 2779 0513 56040000 		.4byte	.LASF85
 2780 0517 0E       		.byte	0xe
 2781 0518 3D       		.byte	0x3d
 2782 0519 FD040000 		.4byte	0x4fd
 2783 051d 11       		.uleb128 0x11
 2784 051e 04       		.byte	0x4
 2785 051f 03       		.byte	0x3
 2786 0520 FA       		.byte	0xfa
 2787 0521 86050000 		.4byte	0x586
 2788 0525 12       		.uleb128 0x12
 2789 0526 28000000 		.4byte	.LASF86
 2790 052a 03       		.byte	0x3
 2791 052b 0101     		.2byte	0x101
 2792 052d 05010000 		.4byte	0x105
 2793 0531 12       		.uleb128 0x12
 2794 0532 B6000000 		.4byte	.LASF87
 2795 0536 03       		.byte	0x3
 2796 0537 0801     		.2byte	0x108
 2797 0539 05010000 		.4byte	0x105
 2798 053d 12       		.uleb128 0x12
 2799 053e F1060000 		.4byte	.LASF88
 2800 0542 03       		.byte	0x3
 2801 0543 0F01     		.2byte	0x10f
 2802 0545 10030000 		.4byte	0x310
 2803 0549 12       		.uleb128 0x12
 2804 054a 6E010000 		.4byte	.LASF89
 2805 054e 03       		.byte	0x3
 2806 054f 1601     		.2byte	0x116
 2807 0551 86050000 		.4byte	0x586
 2808 0555 12       		.uleb128 0x12
 2809 0556 CA000000 		.4byte	.LASF90
 2810 055a 03       		.byte	0x3
 2811 055b 1B01     		.2byte	0x11b
 2812 055d 05010000 		.4byte	0x105
 2813 0561 12       		.uleb128 0x12
ARM GAS  /tmp/ccC8tU94.s 			page 110


 2814 0562 1B030000 		.4byte	.LASF91
 2815 0566 03       		.byte	0x3
 2816 0567 2401     		.2byte	0x124
 2817 0569 B1050000 		.4byte	0x5b1
 2818 056d 12       		.uleb128 0x12
 2819 056e A4050000 		.4byte	.LASF92
 2820 0572 03       		.byte	0x3
 2821 0573 2D01     		.2byte	0x12d
 2822 0575 E8050000 		.4byte	0x5e8
 2823 0579 12       		.uleb128 0x12
 2824 057a 31050000 		.4byte	.LASF93
 2825 057e 03       		.byte	0x3
 2826 057f 3501     		.2byte	0x135
 2827 0581 10010000 		.4byte	0x110
 2828 0585 00       		.byte	0
 2829 0586 09       		.uleb128 0x9
 2830 0587 04       		.byte	0x4
 2831 0588 28020000 		.4byte	0x228
 2832 058c 05       		.uleb128 0x5
 2833 058d 77050000 		.4byte	.LASF94
 2834 0591 0C       		.byte	0xc
 2835 0592 0F       		.byte	0xf
 2836 0593 34       		.byte	0x34
 2837 0594 B1050000 		.4byte	0x5b1
 2838 0598 06       		.uleb128 0x6
 2839 0599 B2010000 		.4byte	.LASF95
 2840 059d 0F       		.byte	0xf
 2841 059e 35       		.byte	0x35
 2842 059f 5D020000 		.4byte	0x25d
 2843 05a3 00       		.byte	0
 2844 05a4 06       		.uleb128 0x6
 2845 05a5 35030000 		.4byte	.LASF96
 2846 05a9 0F       		.byte	0xf
 2847 05aa 37       		.byte	0x37
 2848 05ab 1B010000 		.4byte	0x11b
 2849 05af 08       		.byte	0x8
 2850 05b0 00       		.byte	0
 2851 05b1 09       		.uleb128 0x9
 2852 05b2 04       		.byte	0x4
 2853 05b3 8C050000 		.4byte	0x58c
 2854 05b7 05       		.uleb128 0x5
 2855 05b8 BD060000 		.4byte	.LASF97
 2856 05bc 10       		.byte	0x10
 2857 05bd 10       		.byte	0x10
 2858 05be 39       		.byte	0x39
 2859 05bf E8050000 		.4byte	0x5e8
 2860 05c3 06       		.uleb128 0x6
 2861 05c4 44010000 		.4byte	.LASF98
 2862 05c8 10       		.byte	0x10
 2863 05c9 3A       		.byte	0x3a
 2864 05ca 5D020000 		.4byte	0x25d
 2865 05ce 00       		.byte	0
 2866 05cf 06       		.uleb128 0x6
 2867 05d0 33070000 		.4byte	.LASF99
 2868 05d4 10       		.byte	0x10
 2869 05d5 3C       		.byte	0x3c
 2870 05d6 33020000 		.4byte	0x233
ARM GAS  /tmp/ccC8tU94.s 			page 111


 2871 05da 08       		.byte	0x8
 2872 05db 06       		.uleb128 0x6
 2873 05dc 37060000 		.4byte	.LASF100
 2874 05e0 10       		.byte	0x10
 2875 05e1 3E       		.byte	0x3e
 2876 05e2 2C060000 		.4byte	0x62c
 2877 05e6 0C       		.byte	0xc
 2878 05e7 00       		.byte	0
 2879 05e8 09       		.uleb128 0x9
 2880 05e9 04       		.byte	0x4
 2881 05ea B7050000 		.4byte	0x5b7
 2882 05ee 09       		.uleb128 0x9
 2883 05ef 04       		.byte	0x4
 2884 05f0 F4050000 		.4byte	0x5f4
 2885 05f4 13       		.uleb128 0x13
 2886 05f5 F9050000 		.4byte	0x5f9
 2887 05f9 04       		.uleb128 0x4
 2888 05fa 01       		.byte	0x1
 2889 05fb 08       		.byte	0x8
 2890 05fc 29060000 		.4byte	.LASF101
 2891 0600 09       		.uleb128 0x9
 2892 0601 04       		.byte	0x4
 2893 0602 58040000 		.4byte	0x458
 2894 0606 09       		.uleb128 0x9
 2895 0607 04       		.byte	0x4
 2896 0608 12030000 		.4byte	0x312
 2897 060c 14       		.uleb128 0x14
 2898 060d EE050000 		.4byte	0x5ee
 2899 0611 15       		.uleb128 0x15
 2900 0612 58040000 		.4byte	0x458
 2901 0616 21060000 		.4byte	0x621
 2902 061a 16       		.uleb128 0x16
 2903 061b 46040000 		.4byte	0x446
 2904 061f 1A       		.byte	0x1a
 2905 0620 00       		.byte	0
 2906 0621 03       		.uleb128 0x3
 2907 0622 EF010000 		.4byte	.LASF102
 2908 0626 10       		.byte	0x10
 2909 0627 34       		.byte	0x34
 2910 0628 B7050000 		.4byte	0x5b7
 2911 062c 09       		.uleb128 0x9
 2912 062d 04       		.byte	0x4
 2913 062e 21060000 		.4byte	0x621
 2914 0632 03       		.uleb128 0x3
 2915 0633 F5000000 		.4byte	.LASF103
 2916 0637 06       		.byte	0x6
 2917 0638 3F       		.byte	0x3f
 2918 0639 3D060000 		.4byte	0x63d
 2919 063d 05       		.uleb128 0x5
 2920 063e FD010000 		.4byte	.LASF104
 2921 0642 24       		.byte	0x24
 2922 0643 06       		.byte	0x6
 2923 0644 4D       		.byte	0x4d
 2924 0645 AA060000 		.4byte	0x6aa
 2925 0649 06       		.uleb128 0x6
 2926 064a 18010000 		.4byte	.LASF105
 2927 064e 06       		.byte	0x6
ARM GAS  /tmp/ccC8tU94.s 			page 112


 2928 064f 4E       		.byte	0x4e
 2929 0650 5D020000 		.4byte	0x25d
 2930 0654 00       		.byte	0
 2931 0655 06       		.uleb128 0x6
 2932 0656 24040000 		.4byte	.LASF106
 2933 065a 06       		.byte	0x6
 2934 065b 4F       		.byte	0x4f
 2935 065c CC060000 		.4byte	0x6cc
 2936 0660 08       		.byte	0x8
 2937 0661 06       		.uleb128 0x6
 2938 0662 99010000 		.4byte	.LASF107
 2939 0666 06       		.byte	0x6
 2940 0667 50       		.byte	0x50
 2941 0668 D1060000 		.4byte	0x6d1
 2942 066c 0C       		.byte	0xc
 2943 066d 06       		.uleb128 0x6
 2944 066e B7060000 		.4byte	.LASF108
 2945 0672 06       		.byte	0x6
 2946 0673 51       		.byte	0x51
 2947 0674 D1060000 		.4byte	0x6d1
 2948 0678 10       		.byte	0x10
 2949 0679 06       		.uleb128 0x6
 2950 067a A2010000 		.4byte	.LASF109
 2951 067e 06       		.byte	0x6
 2952 067f 53       		.byte	0x53
 2953 0680 D1060000 		.4byte	0x6d1
 2954 0684 14       		.byte	0x14
 2955 0685 06       		.uleb128 0x6
 2956 0686 CC040000 		.4byte	.LASF110
 2957 068a 06       		.byte	0x6
 2958 068b 54       		.byte	0x54
 2959 068c D1060000 		.4byte	0x6d1
 2960 0690 18       		.byte	0x18
 2961 0691 06       		.uleb128 0x6
 2962 0692 DA060000 		.4byte	.LASF111
 2963 0696 06       		.byte	0x6
 2964 0697 55       		.byte	0x55
 2965 0698 AA060000 		.4byte	0x6aa
 2966 069c 1C       		.byte	0x1c
 2967 069d 06       		.uleb128 0x6
 2968 069e 2C070000 		.4byte	.LASF112
 2969 06a2 06       		.byte	0x6
 2970 06a3 56       		.byte	0x56
 2971 06a4 10030000 		.4byte	0x310
 2972 06a8 20       		.byte	0x20
 2973 06a9 00       		.byte	0
 2974 06aa 03       		.uleb128 0x3
 2975 06ab 97040000 		.4byte	.LASF113
 2976 06af 06       		.byte	0x6
 2977 06b0 42       		.byte	0x42
 2978 06b1 B5060000 		.4byte	0x6b5
 2979 06b5 09       		.uleb128 0x9
 2980 06b6 04       		.byte	0x4
 2981 06b7 BB060000 		.4byte	0x6bb
 2982 06bb 0B       		.uleb128 0xb
 2983 06bc C6060000 		.4byte	0x6c6
 2984 06c0 0C       		.uleb128 0xc
ARM GAS  /tmp/ccC8tU94.s 			page 113


 2985 06c1 C6060000 		.4byte	0x6c6
 2986 06c5 00       		.byte	0
 2987 06c6 09       		.uleb128 0x9
 2988 06c7 04       		.byte	0x4
 2989 06c8 32060000 		.4byte	0x632
 2990 06cc 14       		.uleb128 0x14
 2991 06cd 2C000000 		.4byte	0x2c
 2992 06d1 09       		.uleb128 0x9
 2993 06d2 04       		.byte	0x4
 2994 06d3 A2000000 		.4byte	0xa2
 2995 06d7 03       		.uleb128 0x3
 2996 06d8 00050000 		.4byte	.LASF114
 2997 06dc 06       		.byte	0x6
 2998 06dd 64       		.byte	0x64
 2999 06de 32060000 		.4byte	0x632
 3000 06e2 03       		.uleb128 0x3
 3001 06e3 5F010000 		.4byte	.LASF115
 3002 06e7 06       		.byte	0x6
 3003 06e8 71       		.byte	0x71
 3004 06e9 32060000 		.4byte	0x632
 3005 06ed 09       		.uleb128 0x9
 3006 06ee 04       		.byte	0x4
 3007 06ef F3060000 		.4byte	0x6f3
 3008 06f3 13       		.uleb128 0x13
 3009 06f4 A2000000 		.4byte	0xa2
 3010 06f8 17       		.uleb128 0x17
 3011 06f9 67060000 		.4byte	.LASF148
 3012 06fd 02       		.byte	0x2
 3013 06fe 2202     		.2byte	0x222
 3014 0700 03       		.byte	0x3
 3015 0701 12070000 		.4byte	0x712
 3016 0705 18       		.uleb128 0x18
 3017 0706 F7010000 		.4byte	.LASF149
 3018 070a 02       		.byte	0x2
 3019 070b 2202     		.2byte	0x222
 3020 070d B8000000 		.4byte	0xb8
 3021 0711 00       		.byte	0
 3022 0712 19       		.uleb128 0x19
 3023 0713 86000000 		.4byte	.LASF116
 3024 0717 01       		.byte	0x1
 3025 0718 C801     		.2byte	0x1c8
 3026 071a 00000000 		.4byte	.LFB127
 3027 071e 10000000 		.4byte	.LFE127-.LFB127
 3028 0722 01       		.uleb128 0x1
 3029 0723 9C       		.byte	0x9c
 3030 0724 42070000 		.4byte	0x742
 3031 0728 1A       		.uleb128 0x1a
 3032 0729 F8060000 		.4byte	0x6f8
 3033 072d 06000000 		.4byte	.LBB6
 3034 0731 06000000 		.4byte	.LBE6-.LBB6
 3035 0735 01       		.byte	0x1
 3036 0736 D001     		.2byte	0x1d0
 3037 0738 1B       		.uleb128 0x1b
 3038 0739 05070000 		.4byte	0x705
 3039 073d 02       		.uleb128 0x2
 3040 073e 91       		.byte	0x91
 3041 073f 7C       		.sleb128 -4
ARM GAS  /tmp/ccC8tU94.s 			page 114


 3042 0740 00       		.byte	0
 3043 0741 00       		.byte	0
 3044 0742 19       		.uleb128 0x19
 3045 0743 53010000 		.4byte	.LASF117
 3046 0747 01       		.byte	0x1
 3047 0748 E001     		.2byte	0x1e0
 3048 074a 00000000 		.4byte	.LFB128
 3049 074e 10000000 		.4byte	.LFE128-.LFB128
 3050 0752 01       		.uleb128 0x1
 3051 0753 9C       		.byte	0x9c
 3052 0754 72070000 		.4byte	0x772
 3053 0758 1A       		.uleb128 0x1a
 3054 0759 F8060000 		.4byte	0x6f8
 3055 075d 06000000 		.4byte	.LBB8
 3056 0761 06000000 		.4byte	.LBE8-.LBB8
 3057 0765 01       		.byte	0x1
 3058 0766 E301     		.2byte	0x1e3
 3059 0768 1B       		.uleb128 0x1b
 3060 0769 05070000 		.4byte	0x705
 3061 076d 02       		.uleb128 0x2
 3062 076e 91       		.byte	0x91
 3063 076f 7C       		.sleb128 -4
 3064 0770 00       		.byte	0
 3065 0771 00       		.byte	0
 3066 0772 19       		.uleb128 0x19
 3067 0773 7B000000 		.4byte	.LASF118
 3068 0777 03       		.byte	0x3
 3069 0778 5C02     		.2byte	0x25c
 3070 077a 00000000 		.4byte	.LFB150
 3071 077e 14000000 		.4byte	.LFE150-.LFB150
 3072 0782 01       		.uleb128 0x1
 3073 0783 9C       		.byte	0x9c
 3074 0784 98070000 		.4byte	0x798
 3075 0788 1C       		.uleb128 0x1c
 3076 0789 74717000 		.ascii	"tqp\000"
 3077 078d 03       		.byte	0x3
 3078 078e 5C02     		.2byte	0x25c
 3079 0790 98070000 		.4byte	0x798
 3080 0794 02       		.uleb128 0x2
 3081 0795 91       		.byte	0x91
 3082 0796 7C       		.sleb128 -4
 3083 0797 00       		.byte	0
 3084 0798 09       		.uleb128 0x9
 3085 0799 04       		.byte	0x4
 3086 079a 5D020000 		.4byte	0x25d
 3087 079e 1D       		.uleb128 0x1d
 3088 079f 4C050000 		.4byte	.LASF150
 3089 07a3 04       		.byte	0x4
 3090 07a4 5A01     		.2byte	0x15a
 3091 07a6 00000000 		.4byte	.LFB167
 3092 07aa 08000000 		.4byte	.LFE167-.LFB167
 3093 07ae 01       		.uleb128 0x1
 3094 07af 9C       		.byte	0x9c
 3095 07b0 1E       		.uleb128 0x1e
 3096 07b1 20070000 		.4byte	.LASF119
 3097 07b5 04       		.byte	0x4
 3098 07b6 6601     		.2byte	0x166
ARM GAS  /tmp/ccC8tU94.s 			page 115


 3099 07b8 00000000 		.4byte	.LFB168
 3100 07bc 08000000 		.4byte	.LFE168-.LFB168
 3101 07c0 01       		.uleb128 0x1
 3102 07c1 9C       		.byte	0x9c
 3103 07c2 D0070000 		.4byte	0x7d0
 3104 07c6 1F       		.uleb128 0x1f
 3105 07c7 BA010000 		.4byte	.LASF135
 3106 07cb E0070000 		.4byte	0x7e0
 3107 07cf 00       		.byte	0
 3108 07d0 15       		.uleb128 0x15
 3109 07d1 F9050000 		.4byte	0x5f9
 3110 07d5 E0070000 		.4byte	0x7e0
 3111 07d9 16       		.uleb128 0x16
 3112 07da 46040000 		.4byte	0x446
 3113 07de 0B       		.byte	0xb
 3114 07df 00       		.byte	0
 3115 07e0 13       		.uleb128 0x13
 3116 07e1 D0070000 		.4byte	0x7d0
 3117 07e5 1E       		.uleb128 0x1e
 3118 07e6 D2030000 		.4byte	.LASF120
 3119 07ea 05       		.byte	0x5
 3120 07eb 1601     		.2byte	0x116
 3121 07ed 00000000 		.4byte	.LFB195
 3122 07f1 12000000 		.4byte	.LFE195-.LFB195
 3123 07f5 01       		.uleb128 0x1
 3124 07f6 9C       		.byte	0x9c
 3125 07f7 0B080000 		.4byte	0x80b
 3126 07fb 1C       		.uleb128 0x1c
 3127 07fc 74717000 		.ascii	"tqp\000"
 3128 0800 05       		.byte	0x5
 3129 0801 1601     		.2byte	0x116
 3130 0803 98070000 		.4byte	0x798
 3131 0807 02       		.uleb128 0x2
 3132 0808 91       		.byte	0x91
 3133 0809 74       		.sleb128 -12
 3134 080a 00       		.byte	0
 3135 080b 20       		.uleb128 0x20
 3136 080c CD060000 		.4byte	.LASF122
 3137 0810 06       		.byte	0x6
 3138 0811 2F01     		.2byte	0x12f
 3139 0813 35080000 		.4byte	0x835
 3140 0817 00000000 		.4byte	.LFB233
 3141 081b 18000000 		.4byte	.LFE233-.LFB233
 3142 081f 01       		.uleb128 0x1
 3143 0820 9C       		.byte	0x9c
 3144 0821 35080000 		.4byte	0x835
 3145 0825 1C       		.uleb128 0x1c
 3146 0826 69717000 		.ascii	"iqp\000"
 3147 082a 06       		.byte	0x6
 3148 082b 2F01     		.2byte	0x12f
 3149 082d 3C080000 		.4byte	0x83c
 3150 0831 02       		.uleb128 0x2
 3151 0832 91       		.byte	0x91
 3152 0833 7C       		.sleb128 -4
 3153 0834 00       		.byte	0
 3154 0835 04       		.uleb128 0x4
 3155 0836 01       		.byte	0x1
ARM GAS  /tmp/ccC8tU94.s 			page 116


 3156 0837 02       		.byte	0x2
 3157 0838 E4040000 		.4byte	.LASF121
 3158 083c 09       		.uleb128 0x9
 3159 083d 04       		.byte	0x4
 3160 083e D7060000 		.4byte	0x6d7
 3161 0842 20       		.uleb128 0x20
 3162 0843 8F050000 		.4byte	.LASF123
 3163 0847 06       		.byte	0x6
 3164 0848 4001     		.2byte	0x140
 3165 084a 35080000 		.4byte	0x835
 3166 084e 00000000 		.4byte	.LFB234
 3167 0852 2A000000 		.4byte	.LFE234-.LFB234
 3168 0856 01       		.uleb128 0x1
 3169 0857 9C       		.byte	0x9c
 3170 0858 6C080000 		.4byte	0x86c
 3171 085c 1C       		.uleb128 0x1c
 3172 085d 69717000 		.ascii	"iqp\000"
 3173 0861 06       		.byte	0x6
 3174 0862 4001     		.2byte	0x140
 3175 0864 3C080000 		.4byte	0x83c
 3176 0868 02       		.uleb128 0x2
 3177 0869 91       		.byte	0x91
 3178 086a 7C       		.sleb128 -4
 3179 086b 00       		.byte	0
 3180 086c 20       		.uleb128 0x20
 3181 086d 04070000 		.4byte	.LASF124
 3182 0871 06       		.byte	0x6
 3183 0872 8401     		.2byte	0x184
 3184 0874 35080000 		.4byte	0x835
 3185 0878 00000000 		.4byte	.LFB238
 3186 087c 2A000000 		.4byte	.LFE238-.LFB238
 3187 0880 01       		.uleb128 0x1
 3188 0881 9C       		.byte	0x9c
 3189 0882 96080000 		.4byte	0x896
 3190 0886 1C       		.uleb128 0x1c
 3191 0887 6F717000 		.ascii	"oqp\000"
 3192 088b 06       		.byte	0x6
 3193 088c 8401     		.2byte	0x184
 3194 088e 96080000 		.4byte	0x896
 3195 0892 02       		.uleb128 0x2
 3196 0893 91       		.byte	0x91
 3197 0894 7C       		.sleb128 -4
 3198 0895 00       		.byte	0
 3199 0896 09       		.uleb128 0x9
 3200 0897 04       		.byte	0x4
 3201 0898 E2060000 		.4byte	0x6e2
 3202 089c 20       		.uleb128 0x20
 3203 089d B8040000 		.4byte	.LASF125
 3204 08a1 06       		.byte	0x6
 3205 08a2 9701     		.2byte	0x197
 3206 08a4 35080000 		.4byte	0x835
 3207 08a8 00000000 		.4byte	.LFB239
 3208 08ac 18000000 		.4byte	.LFE239-.LFB239
 3209 08b0 01       		.uleb128 0x1
 3210 08b1 9C       		.byte	0x9c
 3211 08b2 C6080000 		.4byte	0x8c6
 3212 08b6 1C       		.uleb128 0x1c
ARM GAS  /tmp/ccC8tU94.s 			page 117


 3213 08b7 6F717000 		.ascii	"oqp\000"
 3214 08bb 06       		.byte	0x6
 3215 08bc 9701     		.2byte	0x197
 3216 08be 96080000 		.4byte	0x896
 3217 08c2 02       		.uleb128 0x2
 3218 08c3 91       		.byte	0x91
 3219 08c4 7C       		.sleb128 -4
 3220 08c5 00       		.byte	0
 3221 08c6 21       		.uleb128 0x21
 3222 08c7 90000000 		.4byte	.LASF129
 3223 08cb 07       		.byte	0x7
 3224 08cc 57       		.byte	0x57
 3225 08cd 00000000 		.4byte	.LFB241
 3226 08d1 48000000 		.4byte	.LFE241-.LFB241
 3227 08d5 01       		.uleb128 0x1
 3228 08d6 9C       		.byte	0x9c
 3229 08d7 21090000 		.4byte	0x921
 3230 08db 22       		.uleb128 0x22
 3231 08dc 69717000 		.ascii	"iqp\000"
 3232 08e0 07       		.byte	0x7
 3233 08e1 57       		.byte	0x57
 3234 08e2 3C080000 		.4byte	0x83c
 3235 08e6 02       		.uleb128 0x2
 3236 08e7 91       		.byte	0x91
 3237 08e8 74       		.sleb128 -12
 3238 08e9 22       		.uleb128 0x22
 3239 08ea 627000   		.ascii	"bp\000"
 3240 08ed 07       		.byte	0x7
 3241 08ee 57       		.byte	0x57
 3242 08ef D1060000 		.4byte	0x6d1
 3243 08f3 02       		.uleb128 0x2
 3244 08f4 91       		.byte	0x91
 3245 08f5 70       		.sleb128 -16
 3246 08f6 23       		.uleb128 0x23
 3247 08f7 FF060000 		.4byte	.LASF126
 3248 08fb 07       		.byte	0x7
 3249 08fc 57       		.byte	0x57
 3250 08fd 2C000000 		.4byte	0x2c
 3251 0901 02       		.uleb128 0x2
 3252 0902 91       		.byte	0x91
 3253 0903 6C       		.sleb128 -20
 3254 0904 23       		.uleb128 0x23
 3255 0905 3F050000 		.4byte	.LASF127
 3256 0909 07       		.byte	0x7
 3257 090a 58       		.byte	0x58
 3258 090b AA060000 		.4byte	0x6aa
 3259 090f 02       		.uleb128 0x2
 3260 0910 91       		.byte	0x91
 3261 0911 68       		.sleb128 -24
 3262 0912 23       		.uleb128 0x23
 3263 0913 E1010000 		.4byte	.LASF128
 3264 0917 07       		.byte	0x7
 3265 0918 58       		.byte	0x58
 3266 0919 10030000 		.4byte	0x310
 3267 091d 02       		.uleb128 0x2
 3268 091e 91       		.byte	0x91
 3269 091f 00       		.sleb128 0
ARM GAS  /tmp/ccC8tU94.s 			page 118


 3270 0920 00       		.byte	0
 3271 0921 21       		.uleb128 0x21
 3272 0922 10030000 		.4byte	.LASF130
 3273 0926 07       		.byte	0x7
 3274 0927 6F       		.byte	0x6f
 3275 0928 00000000 		.4byte	.LFB242
 3276 092c 2E000000 		.4byte	.LFE242-.LFB242
 3277 0930 01       		.uleb128 0x1
 3278 0931 9C       		.byte	0x9c
 3279 0932 45090000 		.4byte	0x945
 3280 0936 22       		.uleb128 0x22
 3281 0937 69717000 		.ascii	"iqp\000"
 3282 093b 07       		.byte	0x7
 3283 093c 6F       		.byte	0x6f
 3284 093d 3C080000 		.4byte	0x83c
 3285 0941 02       		.uleb128 0x2
 3286 0942 91       		.byte	0x91
 3287 0943 74       		.sleb128 -12
 3288 0944 00       		.byte	0
 3289 0945 24       		.uleb128 0x24
 3290 0946 E6010000 		.4byte	.LASF131
 3291 094a 07       		.byte	0x7
 3292 094b 86       		.byte	0x86
 3293 094c 05010000 		.4byte	0x105
 3294 0950 00000000 		.4byte	.LFB243
 3295 0954 60000000 		.4byte	.LFE243-.LFB243
 3296 0958 01       		.uleb128 0x1
 3297 0959 9C       		.byte	0x9c
 3298 095a 79090000 		.4byte	0x979
 3299 095e 22       		.uleb128 0x22
 3300 095f 69717000 		.ascii	"iqp\000"
 3301 0963 07       		.byte	0x7
 3302 0964 86       		.byte	0x86
 3303 0965 3C080000 		.4byte	0x83c
 3304 0969 02       		.uleb128 0x2
 3305 096a 91       		.byte	0x91
 3306 096b 74       		.sleb128 -12
 3307 096c 22       		.uleb128 0x22
 3308 096d 6200     		.ascii	"b\000"
 3309 096f 07       		.byte	0x7
 3310 0970 86       		.byte	0x86
 3311 0971 A2000000 		.4byte	0xa2
 3312 0975 02       		.uleb128 0x2
 3313 0976 91       		.byte	0x91
 3314 0977 73       		.sleb128 -13
 3315 0978 00       		.byte	0
 3316 0979 24       		.uleb128 0x24
 3317 097a 49070000 		.4byte	.LASF132
 3318 097e 07       		.byte	0x7
 3319 097f AD       		.byte	0xad
 3320 0980 05010000 		.4byte	0x105
 3321 0984 00000000 		.4byte	.LFB244
 3322 0988 84000000 		.4byte	.LFE244-.LFB244
 3323 098c 01       		.uleb128 0x1
 3324 098d 9C       		.byte	0x9c
 3325 098e D3090000 		.4byte	0x9d3
 3326 0992 22       		.uleb128 0x22
ARM GAS  /tmp/ccC8tU94.s 			page 119


 3327 0993 69717000 		.ascii	"iqp\000"
 3328 0997 07       		.byte	0x7
 3329 0998 AD       		.byte	0xad
 3330 0999 3C080000 		.4byte	0x83c
 3331 099d 02       		.uleb128 0x2
 3332 099e 91       		.byte	0x91
 3333 099f 6C       		.sleb128 -20
 3334 09a0 23       		.uleb128 0x23
 3335 09a1 2D030000 		.4byte	.LASF133
 3336 09a5 07       		.byte	0x7
 3337 09a6 AD       		.byte	0xad
 3338 09a7 26010000 		.4byte	0x126
 3339 09ab 02       		.uleb128 0x2
 3340 09ac 91       		.byte	0x91
 3341 09ad 68       		.sleb128 -24
 3342 09ae 25       		.uleb128 0x25
 3343 09af 6200     		.ascii	"b\000"
 3344 09b1 07       		.byte	0x7
 3345 09b2 AE       		.byte	0xae
 3346 09b3 A2000000 		.4byte	0xa2
 3347 09b7 02       		.uleb128 0x2
 3348 09b8 91       		.byte	0x91
 3349 09b9 73       		.sleb128 -13
 3350 09ba 26       		.uleb128 0x26
 3351 09bb 20000000 		.4byte	.LBB10
 3352 09bf 1A000000 		.4byte	.LBE10-.LBB10
 3353 09c3 25       		.uleb128 0x25
 3354 09c4 6D736700 		.ascii	"msg\000"
 3355 09c8 07       		.byte	0x7
 3356 09c9 B6       		.byte	0xb6
 3357 09ca 05010000 		.4byte	0x105
 3358 09ce 02       		.uleb128 0x2
 3359 09cf 91       		.byte	0x91
 3360 09d0 74       		.sleb128 -12
 3361 09d1 00       		.byte	0
 3362 09d2 00       		.byte	0
 3363 09d3 24       		.uleb128 0x24
 3364 09d4 6B000000 		.4byte	.LASF134
 3365 09d8 07       		.byte	0x7
 3366 09d9 DF       		.byte	0xdf
 3367 09da 2C000000 		.4byte	0x2c
 3368 09de 00000000 		.4byte	.LFB245
 3369 09e2 A8000000 		.4byte	.LFE245-.LFB245
 3370 09e6 01       		.uleb128 0x1
 3371 09e7 9C       		.byte	0x9c
 3372 09e8 450A0000 		.4byte	0xa45
 3373 09ec 22       		.uleb128 0x22
 3374 09ed 69717000 		.ascii	"iqp\000"
 3375 09f1 07       		.byte	0x7
 3376 09f2 DF       		.byte	0xdf
 3377 09f3 3C080000 		.4byte	0x83c
 3378 09f7 02       		.uleb128 0x2
 3379 09f8 91       		.byte	0x91
 3380 09f9 6C       		.sleb128 -20
 3381 09fa 22       		.uleb128 0x22
 3382 09fb 627000   		.ascii	"bp\000"
 3383 09fe 07       		.byte	0x7
ARM GAS  /tmp/ccC8tU94.s 			page 120


 3384 09ff DF       		.byte	0xdf
 3385 0a00 D1060000 		.4byte	0x6d1
 3386 0a04 02       		.uleb128 0x2
 3387 0a05 91       		.byte	0x91
 3388 0a06 68       		.sleb128 -24
 3389 0a07 22       		.uleb128 0x22
 3390 0a08 6E00     		.ascii	"n\000"
 3391 0a0a 07       		.byte	0x7
 3392 0a0b E0       		.byte	0xe0
 3393 0a0c 2C000000 		.4byte	0x2c
 3394 0a10 02       		.uleb128 0x2
 3395 0a11 91       		.byte	0x91
 3396 0a12 64       		.sleb128 -28
 3397 0a13 23       		.uleb128 0x23
 3398 0a14 2D030000 		.4byte	.LASF133
 3399 0a18 07       		.byte	0x7
 3400 0a19 E0       		.byte	0xe0
 3401 0a1a 26010000 		.4byte	0x126
 3402 0a1e 02       		.uleb128 0x2
 3403 0a1f 91       		.byte	0x91
 3404 0a20 60       		.sleb128 -32
 3405 0a21 25       		.uleb128 0x25
 3406 0a22 6E667900 		.ascii	"nfy\000"
 3407 0a26 07       		.byte	0x7
 3408 0a27 E1       		.byte	0xe1
 3409 0a28 AA060000 		.4byte	0x6aa
 3410 0a2c 02       		.uleb128 0x2
 3411 0a2d 91       		.byte	0x91
 3412 0a2e 70       		.sleb128 -16
 3413 0a2f 25       		.uleb128 0x25
 3414 0a30 7200     		.ascii	"r\000"
 3415 0a32 07       		.byte	0x7
 3416 0a33 E2       		.byte	0xe2
 3417 0a34 2C000000 		.4byte	0x2c
 3418 0a38 02       		.uleb128 0x2
 3419 0a39 91       		.byte	0x91
 3420 0a3a 74       		.sleb128 -12
 3421 0a3b 1F       		.uleb128 0x1f
 3422 0a3c 2E040000 		.4byte	.LASF136
 3423 0a40 550A0000 		.4byte	0xa55
 3424 0a44 00       		.byte	0
 3425 0a45 15       		.uleb128 0x15
 3426 0a46 F9050000 		.4byte	0x5f9
 3427 0a4a 550A0000 		.4byte	0xa55
 3428 0a4e 16       		.uleb128 0x16
 3429 0a4f 46040000 		.4byte	0x446
 3430 0a53 0F       		.byte	0xf
 3431 0a54 00       		.byte	0
 3432 0a55 13       		.uleb128 0x13
 3433 0a56 450A0000 		.4byte	0xa45
 3434 0a5a 27       		.uleb128 0x27
 3435 0a5b A8060000 		.4byte	.LASF137
 3436 0a5f 07       		.byte	0x7
 3437 0a60 1301     		.2byte	0x113
 3438 0a62 00000000 		.4byte	.LFB246
 3439 0a66 48000000 		.4byte	.LFE246-.LFB246
 3440 0a6a 01       		.uleb128 0x1
ARM GAS  /tmp/ccC8tU94.s 			page 121


 3441 0a6b 9C       		.byte	0x9c
 3442 0a6c BB0A0000 		.4byte	0xabb
 3443 0a70 1C       		.uleb128 0x1c
 3444 0a71 6F717000 		.ascii	"oqp\000"
 3445 0a75 07       		.byte	0x7
 3446 0a76 1301     		.2byte	0x113
 3447 0a78 96080000 		.4byte	0x896
 3448 0a7c 02       		.uleb128 0x2
 3449 0a7d 91       		.byte	0x91
 3450 0a7e 74       		.sleb128 -12
 3451 0a7f 1C       		.uleb128 0x1c
 3452 0a80 627000   		.ascii	"bp\000"
 3453 0a83 07       		.byte	0x7
 3454 0a84 1301     		.2byte	0x113
 3455 0a86 D1060000 		.4byte	0x6d1
 3456 0a8a 02       		.uleb128 0x2
 3457 0a8b 91       		.byte	0x91
 3458 0a8c 70       		.sleb128 -16
 3459 0a8d 28       		.uleb128 0x28
 3460 0a8e FF060000 		.4byte	.LASF126
 3461 0a92 07       		.byte	0x7
 3462 0a93 1301     		.2byte	0x113
 3463 0a95 2C000000 		.4byte	0x2c
 3464 0a99 02       		.uleb128 0x2
 3465 0a9a 91       		.byte	0x91
 3466 0a9b 6C       		.sleb128 -20
 3467 0a9c 28       		.uleb128 0x28
 3468 0a9d 1C000000 		.4byte	.LASF138
 3469 0aa1 07       		.byte	0x7
 3470 0aa2 1401     		.2byte	0x114
 3471 0aa4 AA060000 		.4byte	0x6aa
 3472 0aa8 02       		.uleb128 0x2
 3473 0aa9 91       		.byte	0x91
 3474 0aaa 68       		.sleb128 -24
 3475 0aab 28       		.uleb128 0x28
 3476 0aac E1010000 		.4byte	.LASF128
 3477 0ab0 07       		.byte	0x7
 3478 0ab1 1401     		.2byte	0x114
 3479 0ab3 10030000 		.4byte	0x310
 3480 0ab7 02       		.uleb128 0x2
 3481 0ab8 91       		.byte	0x91
 3482 0ab9 00       		.sleb128 0
 3483 0aba 00       		.byte	0
 3484 0abb 27       		.uleb128 0x27
 3485 0abc 86060000 		.4byte	.LASF139
 3486 0ac0 07       		.byte	0x7
 3487 0ac1 2B01     		.2byte	0x12b
 3488 0ac3 00000000 		.4byte	.LFB247
 3489 0ac7 3A000000 		.4byte	.LFE247-.LFB247
 3490 0acb 01       		.uleb128 0x1
 3491 0acc 9C       		.byte	0x9c
 3492 0acd E10A0000 		.4byte	0xae1
 3493 0ad1 1C       		.uleb128 0x1c
 3494 0ad2 6F717000 		.ascii	"oqp\000"
 3495 0ad6 07       		.byte	0x7
 3496 0ad7 2B01     		.2byte	0x12b
 3497 0ad9 96080000 		.4byte	0x896
ARM GAS  /tmp/ccC8tU94.s 			page 122


 3498 0add 02       		.uleb128 0x2
 3499 0ade 91       		.byte	0x91
 3500 0adf 74       		.sleb128 -12
 3501 0ae0 00       		.byte	0
 3502 0ae1 29       		.uleb128 0x29
 3503 0ae2 00000000 		.4byte	.LASF140
 3504 0ae6 07       		.byte	0x7
 3505 0ae7 4B01     		.2byte	0x14b
 3506 0ae9 05010000 		.4byte	0x105
 3507 0aed 00000000 		.4byte	.LFB248
 3508 0af1 86000000 		.4byte	.LFE248-.LFB248
 3509 0af5 01       		.uleb128 0x1
 3510 0af6 9C       		.byte	0x9c
 3511 0af7 400B0000 		.4byte	0xb40
 3512 0afb 1C       		.uleb128 0x1c
 3513 0afc 6F717000 		.ascii	"oqp\000"
 3514 0b00 07       		.byte	0x7
 3515 0b01 4B01     		.2byte	0x14b
 3516 0b03 96080000 		.4byte	0x896
 3517 0b07 02       		.uleb128 0x2
 3518 0b08 91       		.byte	0x91
 3519 0b09 6C       		.sleb128 -20
 3520 0b0a 1C       		.uleb128 0x1c
 3521 0b0b 6200     		.ascii	"b\000"
 3522 0b0d 07       		.byte	0x7
 3523 0b0e 4B01     		.2byte	0x14b
 3524 0b10 A2000000 		.4byte	0xa2
 3525 0b14 02       		.uleb128 0x2
 3526 0b15 91       		.byte	0x91
 3527 0b16 6B       		.sleb128 -21
 3528 0b17 28       		.uleb128 0x28
 3529 0b18 2D030000 		.4byte	.LASF133
 3530 0b1c 07       		.byte	0x7
 3531 0b1d 4B01     		.2byte	0x14b
 3532 0b1f 26010000 		.4byte	0x126
 3533 0b23 02       		.uleb128 0x2
 3534 0b24 91       		.byte	0x91
 3535 0b25 64       		.sleb128 -28
 3536 0b26 26       		.uleb128 0x26
 3537 0b27 14000000 		.4byte	.LBB11
 3538 0b2b 1A000000 		.4byte	.LBE11-.LBB11
 3539 0b2f 2A       		.uleb128 0x2a
 3540 0b30 6D736700 		.ascii	"msg\000"
 3541 0b34 07       		.byte	0x7
 3542 0b35 4F01     		.2byte	0x14f
 3543 0b37 05010000 		.4byte	0x105
 3544 0b3b 02       		.uleb128 0x2
 3545 0b3c 91       		.byte	0x91
 3546 0b3d 74       		.sleb128 -12
 3547 0b3e 00       		.byte	0
 3548 0b3f 00       		.byte	0
 3549 0b40 29       		.uleb128 0x29
 3550 0b41 90010000 		.4byte	.LASF141
 3551 0b45 07       		.byte	0x7
 3552 0b46 6E01     		.2byte	0x16e
 3553 0b48 05010000 		.4byte	0x105
 3554 0b4c 00000000 		.4byte	.LFB249
ARM GAS  /tmp/ccC8tU94.s 			page 123


 3555 0b50 5C000000 		.4byte	.LFE249-.LFB249
 3556 0b54 01       		.uleb128 0x1
 3557 0b55 9C       		.byte	0x9c
 3558 0b56 770B0000 		.4byte	0xb77
 3559 0b5a 1C       		.uleb128 0x1c
 3560 0b5b 6F717000 		.ascii	"oqp\000"
 3561 0b5f 07       		.byte	0x7
 3562 0b60 6E01     		.2byte	0x16e
 3563 0b62 96080000 		.4byte	0x896
 3564 0b66 02       		.uleb128 0x2
 3565 0b67 91       		.byte	0x91
 3566 0b68 6C       		.sleb128 -20
 3567 0b69 2A       		.uleb128 0x2a
 3568 0b6a 6200     		.ascii	"b\000"
 3569 0b6c 07       		.byte	0x7
 3570 0b6d 6F01     		.2byte	0x16f
 3571 0b6f A2000000 		.4byte	0xa2
 3572 0b73 02       		.uleb128 0x2
 3573 0b74 91       		.byte	0x91
 3574 0b75 77       		.sleb128 -9
 3575 0b76 00       		.byte	0
 3576 0b77 29       		.uleb128 0x29
 3577 0b78 C1030000 		.4byte	.LASF142
 3578 0b7c 07       		.byte	0x7
 3579 0b7d 9A01     		.2byte	0x19a
 3580 0b7f 2C000000 		.4byte	0x2c
 3581 0b83 00000000 		.4byte	.LFB250
 3582 0b87 A8000000 		.4byte	.LFE250-.LFB250
 3583 0b8b 01       		.uleb128 0x1
 3584 0b8c 9C       		.byte	0x9c
 3585 0b8d F00B0000 		.4byte	0xbf0
 3586 0b91 1C       		.uleb128 0x1c
 3587 0b92 6F717000 		.ascii	"oqp\000"
 3588 0b96 07       		.byte	0x7
 3589 0b97 9A01     		.2byte	0x19a
 3590 0b99 96080000 		.4byte	0x896
 3591 0b9d 02       		.uleb128 0x2
 3592 0b9e 91       		.byte	0x91
 3593 0b9f 6C       		.sleb128 -20
 3594 0ba0 1C       		.uleb128 0x1c
 3595 0ba1 627000   		.ascii	"bp\000"
 3596 0ba4 07       		.byte	0x7
 3597 0ba5 9A01     		.2byte	0x19a
 3598 0ba7 ED060000 		.4byte	0x6ed
 3599 0bab 02       		.uleb128 0x2
 3600 0bac 91       		.byte	0x91
 3601 0bad 68       		.sleb128 -24
 3602 0bae 1C       		.uleb128 0x1c
 3603 0baf 6E00     		.ascii	"n\000"
 3604 0bb1 07       		.byte	0x7
 3605 0bb2 9B01     		.2byte	0x19b
 3606 0bb4 2C000000 		.4byte	0x2c
 3607 0bb8 02       		.uleb128 0x2
 3608 0bb9 91       		.byte	0x91
 3609 0bba 64       		.sleb128 -28
 3610 0bbb 28       		.uleb128 0x28
 3611 0bbc 2D030000 		.4byte	.LASF133
ARM GAS  /tmp/ccC8tU94.s 			page 124


 3612 0bc0 07       		.byte	0x7
 3613 0bc1 9B01     		.2byte	0x19b
 3614 0bc3 26010000 		.4byte	0x126
 3615 0bc7 02       		.uleb128 0x2
 3616 0bc8 91       		.byte	0x91
 3617 0bc9 60       		.sleb128 -32
 3618 0bca 2A       		.uleb128 0x2a
 3619 0bcb 6E667900 		.ascii	"nfy\000"
 3620 0bcf 07       		.byte	0x7
 3621 0bd0 9C01     		.2byte	0x19c
 3622 0bd2 AA060000 		.4byte	0x6aa
 3623 0bd6 02       		.uleb128 0x2
 3624 0bd7 91       		.byte	0x91
 3625 0bd8 70       		.sleb128 -16
 3626 0bd9 2A       		.uleb128 0x2a
 3627 0bda 7700     		.ascii	"w\000"
 3628 0bdc 07       		.byte	0x7
 3629 0bdd 9D01     		.2byte	0x19d
 3630 0bdf 2C000000 		.4byte	0x2c
 3631 0be3 02       		.uleb128 0x2
 3632 0be4 91       		.byte	0x91
 3633 0be5 74       		.sleb128 -12
 3634 0be6 1F       		.uleb128 0x1f
 3635 0be7 38000000 		.4byte	.LASF143
 3636 0beb 000C0000 		.4byte	0xc00
 3637 0bef 00       		.byte	0
 3638 0bf0 15       		.uleb128 0x15
 3639 0bf1 F9050000 		.4byte	0x5f9
 3640 0bf5 000C0000 		.4byte	0xc00
 3641 0bf9 16       		.uleb128 0x16
 3642 0bfa 46040000 		.4byte	0x446
 3643 0bfe 10       		.byte	0x10
 3644 0bff 00       		.byte	0
 3645 0c00 13       		.uleb128 0x13
 3646 0c01 F00B0000 		.4byte	0xbf0
 3647 0c05 2B       		.uleb128 0x2b
 3648 0c06 E8000000 		.4byte	.LASF144
 3649 0c0a 11       		.byte	0x11
 3650 0c0b FA06     		.2byte	0x6fa
 3651 0c0d 110C0000 		.4byte	0xc11
 3652 0c11 14       		.uleb128 0x14
 3653 0c12 AD000000 		.4byte	0xad
 3654 0c16 2C       		.uleb128 0x2c
 3655 0c17 636800   		.ascii	"ch\000"
 3656 0c1a 03       		.byte	0x3
 3657 0c1b 0B02     		.2byte	0x20b
 3658 0c1d DF030000 		.4byte	0x3df
 3659 0c21 00       		.byte	0
 3660              		.section	.debug_abbrev,"",%progbits
 3661              	.Ldebug_abbrev0:
 3662 0000 01       		.uleb128 0x1
 3663 0001 11       		.uleb128 0x11
 3664 0002 01       		.byte	0x1
 3665 0003 25       		.uleb128 0x25
 3666 0004 0E       		.uleb128 0xe
 3667 0005 13       		.uleb128 0x13
 3668 0006 0B       		.uleb128 0xb
ARM GAS  /tmp/ccC8tU94.s 			page 125


 3669 0007 03       		.uleb128 0x3
 3670 0008 0E       		.uleb128 0xe
 3671 0009 1B       		.uleb128 0x1b
 3672 000a 0E       		.uleb128 0xe
 3673 000b 55       		.uleb128 0x55
 3674 000c 17       		.uleb128 0x17
 3675 000d 11       		.uleb128 0x11
 3676 000e 01       		.uleb128 0x1
 3677 000f 10       		.uleb128 0x10
 3678 0010 17       		.uleb128 0x17
 3679 0011 00       		.byte	0
 3680 0012 00       		.byte	0
 3681 0013 02       		.uleb128 0x2
 3682 0014 24       		.uleb128 0x24
 3683 0015 00       		.byte	0
 3684 0016 0B       		.uleb128 0xb
 3685 0017 0B       		.uleb128 0xb
 3686 0018 3E       		.uleb128 0x3e
 3687 0019 0B       		.uleb128 0xb
 3688 001a 03       		.uleb128 0x3
 3689 001b 08       		.uleb128 0x8
 3690 001c 00       		.byte	0
 3691 001d 00       		.byte	0
 3692 001e 03       		.uleb128 0x3
 3693 001f 16       		.uleb128 0x16
 3694 0020 00       		.byte	0
 3695 0021 03       		.uleb128 0x3
 3696 0022 0E       		.uleb128 0xe
 3697 0023 3A       		.uleb128 0x3a
 3698 0024 0B       		.uleb128 0xb
 3699 0025 3B       		.uleb128 0x3b
 3700 0026 0B       		.uleb128 0xb
 3701 0027 49       		.uleb128 0x49
 3702 0028 13       		.uleb128 0x13
 3703 0029 00       		.byte	0
 3704 002a 00       		.byte	0
 3705 002b 04       		.uleb128 0x4
 3706 002c 24       		.uleb128 0x24
 3707 002d 00       		.byte	0
 3708 002e 0B       		.uleb128 0xb
 3709 002f 0B       		.uleb128 0xb
 3710 0030 3E       		.uleb128 0x3e
 3711 0031 0B       		.uleb128 0xb
 3712 0032 03       		.uleb128 0x3
 3713 0033 0E       		.uleb128 0xe
 3714 0034 00       		.byte	0
 3715 0035 00       		.byte	0
 3716 0036 05       		.uleb128 0x5
 3717 0037 13       		.uleb128 0x13
 3718 0038 01       		.byte	0x1
 3719 0039 03       		.uleb128 0x3
 3720 003a 0E       		.uleb128 0xe
 3721 003b 0B       		.uleb128 0xb
 3722 003c 0B       		.uleb128 0xb
 3723 003d 3A       		.uleb128 0x3a
 3724 003e 0B       		.uleb128 0xb
 3725 003f 3B       		.uleb128 0x3b
ARM GAS  /tmp/ccC8tU94.s 			page 126


 3726 0040 0B       		.uleb128 0xb
 3727 0041 01       		.uleb128 0x1
 3728 0042 13       		.uleb128 0x13
 3729 0043 00       		.byte	0
 3730 0044 00       		.byte	0
 3731 0045 06       		.uleb128 0x6
 3732 0046 0D       		.uleb128 0xd
 3733 0047 00       		.byte	0
 3734 0048 03       		.uleb128 0x3
 3735 0049 0E       		.uleb128 0xe
 3736 004a 3A       		.uleb128 0x3a
 3737 004b 0B       		.uleb128 0xb
 3738 004c 3B       		.uleb128 0x3b
 3739 004d 0B       		.uleb128 0xb
 3740 004e 49       		.uleb128 0x49
 3741 004f 13       		.uleb128 0x13
 3742 0050 38       		.uleb128 0x38
 3743 0051 0B       		.uleb128 0xb
 3744 0052 00       		.byte	0
 3745 0053 00       		.byte	0
 3746 0054 07       		.uleb128 0x7
 3747 0055 0D       		.uleb128 0xd
 3748 0056 00       		.byte	0
 3749 0057 03       		.uleb128 0x3
 3750 0058 08       		.uleb128 0x8
 3751 0059 3A       		.uleb128 0x3a
 3752 005a 0B       		.uleb128 0xb
 3753 005b 3B       		.uleb128 0x3b
 3754 005c 05       		.uleb128 0x5
 3755 005d 49       		.uleb128 0x49
 3756 005e 13       		.uleb128 0x13
 3757 005f 38       		.uleb128 0x38
 3758 0060 0B       		.uleb128 0xb
 3759 0061 00       		.byte	0
 3760 0062 00       		.byte	0
 3761 0063 08       		.uleb128 0x8
 3762 0064 0D       		.uleb128 0xd
 3763 0065 00       		.byte	0
 3764 0066 03       		.uleb128 0x3
 3765 0067 0E       		.uleb128 0xe
 3766 0068 3A       		.uleb128 0x3a
 3767 0069 0B       		.uleb128 0xb
 3768 006a 3B       		.uleb128 0x3b
 3769 006b 05       		.uleb128 0x5
 3770 006c 49       		.uleb128 0x49
 3771 006d 13       		.uleb128 0x13
 3772 006e 38       		.uleb128 0x38
 3773 006f 0B       		.uleb128 0xb
 3774 0070 00       		.byte	0
 3775 0071 00       		.byte	0
 3776 0072 09       		.uleb128 0x9
 3777 0073 0F       		.uleb128 0xf
 3778 0074 00       		.byte	0
 3779 0075 0B       		.uleb128 0xb
 3780 0076 0B       		.uleb128 0xb
 3781 0077 49       		.uleb128 0x49
 3782 0078 13       		.uleb128 0x13
ARM GAS  /tmp/ccC8tU94.s 			page 127


 3783 0079 00       		.byte	0
 3784 007a 00       		.byte	0
 3785 007b 0A       		.uleb128 0xa
 3786 007c 13       		.uleb128 0x13
 3787 007d 01       		.byte	0x1
 3788 007e 03       		.uleb128 0x3
 3789 007f 0E       		.uleb128 0xe
 3790 0080 0B       		.uleb128 0xb
 3791 0081 0B       		.uleb128 0xb
 3792 0082 3A       		.uleb128 0x3a
 3793 0083 0B       		.uleb128 0xb
 3794 0084 3B       		.uleb128 0x3b
 3795 0085 05       		.uleb128 0x5
 3796 0086 01       		.uleb128 0x1
 3797 0087 13       		.uleb128 0x13
 3798 0088 00       		.byte	0
 3799 0089 00       		.byte	0
 3800 008a 0B       		.uleb128 0xb
 3801 008b 15       		.uleb128 0x15
 3802 008c 01       		.byte	0x1
 3803 008d 27       		.uleb128 0x27
 3804 008e 19       		.uleb128 0x19
 3805 008f 01       		.uleb128 0x1
 3806 0090 13       		.uleb128 0x13
 3807 0091 00       		.byte	0
 3808 0092 00       		.byte	0
 3809 0093 0C       		.uleb128 0xc
 3810 0094 05       		.uleb128 0x5
 3811 0095 00       		.byte	0
 3812 0096 49       		.uleb128 0x49
 3813 0097 13       		.uleb128 0x13
 3814 0098 00       		.byte	0
 3815 0099 00       		.byte	0
 3816 009a 0D       		.uleb128 0xd
 3817 009b 0F       		.uleb128 0xf
 3818 009c 00       		.byte	0
 3819 009d 0B       		.uleb128 0xb
 3820 009e 0B       		.uleb128 0xb
 3821 009f 00       		.byte	0
 3822 00a0 00       		.byte	0
 3823 00a1 0E       		.uleb128 0xe
 3824 00a2 13       		.uleb128 0x13
 3825 00a3 01       		.byte	0x1
 3826 00a4 03       		.uleb128 0x3
 3827 00a5 0E       		.uleb128 0xe
 3828 00a6 0B       		.uleb128 0xb
 3829 00a7 05       		.uleb128 0x5
 3830 00a8 3A       		.uleb128 0x3a
 3831 00a9 0B       		.uleb128 0xb
 3832 00aa 3B       		.uleb128 0x3b
 3833 00ab 05       		.uleb128 0x5
 3834 00ac 01       		.uleb128 0x1
 3835 00ad 13       		.uleb128 0x13
 3836 00ae 00       		.byte	0
 3837 00af 00       		.byte	0
 3838 00b0 0F       		.uleb128 0xf
 3839 00b1 0D       		.uleb128 0xd
ARM GAS  /tmp/ccC8tU94.s 			page 128


 3840 00b2 00       		.byte	0
 3841 00b3 03       		.uleb128 0x3
 3842 00b4 08       		.uleb128 0x8
 3843 00b5 3A       		.uleb128 0x3a
 3844 00b6 0B       		.uleb128 0xb
 3845 00b7 3B       		.uleb128 0x3b
 3846 00b8 0B       		.uleb128 0xb
 3847 00b9 49       		.uleb128 0x49
 3848 00ba 13       		.uleb128 0x13
 3849 00bb 38       		.uleb128 0x38
 3850 00bc 0B       		.uleb128 0xb
 3851 00bd 00       		.byte	0
 3852 00be 00       		.byte	0
 3853 00bf 10       		.uleb128 0x10
 3854 00c0 13       		.uleb128 0x13
 3855 00c1 01       		.byte	0x1
 3856 00c2 0B       		.uleb128 0xb
 3857 00c3 0B       		.uleb128 0xb
 3858 00c4 3A       		.uleb128 0x3a
 3859 00c5 0B       		.uleb128 0xb
 3860 00c6 3B       		.uleb128 0x3b
 3861 00c7 0B       		.uleb128 0xb
 3862 00c8 01       		.uleb128 0x1
 3863 00c9 13       		.uleb128 0x13
 3864 00ca 00       		.byte	0
 3865 00cb 00       		.byte	0
 3866 00cc 11       		.uleb128 0x11
 3867 00cd 17       		.uleb128 0x17
 3868 00ce 01       		.byte	0x1
 3869 00cf 0B       		.uleb128 0xb
 3870 00d0 0B       		.uleb128 0xb
 3871 00d1 3A       		.uleb128 0x3a
 3872 00d2 0B       		.uleb128 0xb
 3873 00d3 3B       		.uleb128 0x3b
 3874 00d4 0B       		.uleb128 0xb
 3875 00d5 01       		.uleb128 0x1
 3876 00d6 13       		.uleb128 0x13
 3877 00d7 00       		.byte	0
 3878 00d8 00       		.byte	0
 3879 00d9 12       		.uleb128 0x12
 3880 00da 0D       		.uleb128 0xd
 3881 00db 00       		.byte	0
 3882 00dc 03       		.uleb128 0x3
 3883 00dd 0E       		.uleb128 0xe
 3884 00de 3A       		.uleb128 0x3a
 3885 00df 0B       		.uleb128 0xb
 3886 00e0 3B       		.uleb128 0x3b
 3887 00e1 05       		.uleb128 0x5
 3888 00e2 49       		.uleb128 0x49
 3889 00e3 13       		.uleb128 0x13
 3890 00e4 00       		.byte	0
 3891 00e5 00       		.byte	0
 3892 00e6 13       		.uleb128 0x13
 3893 00e7 26       		.uleb128 0x26
 3894 00e8 00       		.byte	0
 3895 00e9 49       		.uleb128 0x49
 3896 00ea 13       		.uleb128 0x13
ARM GAS  /tmp/ccC8tU94.s 			page 129


 3897 00eb 00       		.byte	0
 3898 00ec 00       		.byte	0
 3899 00ed 14       		.uleb128 0x14
 3900 00ee 35       		.uleb128 0x35
 3901 00ef 00       		.byte	0
 3902 00f0 49       		.uleb128 0x49
 3903 00f1 13       		.uleb128 0x13
 3904 00f2 00       		.byte	0
 3905 00f3 00       		.byte	0
 3906 00f4 15       		.uleb128 0x15
 3907 00f5 01       		.uleb128 0x1
 3908 00f6 01       		.byte	0x1
 3909 00f7 49       		.uleb128 0x49
 3910 00f8 13       		.uleb128 0x13
 3911 00f9 01       		.uleb128 0x1
 3912 00fa 13       		.uleb128 0x13
 3913 00fb 00       		.byte	0
 3914 00fc 00       		.byte	0
 3915 00fd 16       		.uleb128 0x16
 3916 00fe 21       		.uleb128 0x21
 3917 00ff 00       		.byte	0
 3918 0100 49       		.uleb128 0x49
 3919 0101 13       		.uleb128 0x13
 3920 0102 2F       		.uleb128 0x2f
 3921 0103 0B       		.uleb128 0xb
 3922 0104 00       		.byte	0
 3923 0105 00       		.byte	0
 3924 0106 17       		.uleb128 0x17
 3925 0107 2E       		.uleb128 0x2e
 3926 0108 01       		.byte	0x1
 3927 0109 03       		.uleb128 0x3
 3928 010a 0E       		.uleb128 0xe
 3929 010b 3A       		.uleb128 0x3a
 3930 010c 0B       		.uleb128 0xb
 3931 010d 3B       		.uleb128 0x3b
 3932 010e 05       		.uleb128 0x5
 3933 010f 27       		.uleb128 0x27
 3934 0110 19       		.uleb128 0x19
 3935 0111 20       		.uleb128 0x20
 3936 0112 0B       		.uleb128 0xb
 3937 0113 01       		.uleb128 0x1
 3938 0114 13       		.uleb128 0x13
 3939 0115 00       		.byte	0
 3940 0116 00       		.byte	0
 3941 0117 18       		.uleb128 0x18
 3942 0118 05       		.uleb128 0x5
 3943 0119 00       		.byte	0
 3944 011a 03       		.uleb128 0x3
 3945 011b 0E       		.uleb128 0xe
 3946 011c 3A       		.uleb128 0x3a
 3947 011d 0B       		.uleb128 0xb
 3948 011e 3B       		.uleb128 0x3b
 3949 011f 05       		.uleb128 0x5
 3950 0120 49       		.uleb128 0x49
 3951 0121 13       		.uleb128 0x13
 3952 0122 00       		.byte	0
 3953 0123 00       		.byte	0
ARM GAS  /tmp/ccC8tU94.s 			page 130


 3954 0124 19       		.uleb128 0x19
 3955 0125 2E       		.uleb128 0x2e
 3956 0126 01       		.byte	0x1
 3957 0127 03       		.uleb128 0x3
 3958 0128 0E       		.uleb128 0xe
 3959 0129 3A       		.uleb128 0x3a
 3960 012a 0B       		.uleb128 0xb
 3961 012b 3B       		.uleb128 0x3b
 3962 012c 05       		.uleb128 0x5
 3963 012d 27       		.uleb128 0x27
 3964 012e 19       		.uleb128 0x19
 3965 012f 11       		.uleb128 0x11
 3966 0130 01       		.uleb128 0x1
 3967 0131 12       		.uleb128 0x12
 3968 0132 06       		.uleb128 0x6
 3969 0133 40       		.uleb128 0x40
 3970 0134 18       		.uleb128 0x18
 3971 0135 9742     		.uleb128 0x2117
 3972 0137 19       		.uleb128 0x19
 3973 0138 01       		.uleb128 0x1
 3974 0139 13       		.uleb128 0x13
 3975 013a 00       		.byte	0
 3976 013b 00       		.byte	0
 3977 013c 1A       		.uleb128 0x1a
 3978 013d 1D       		.uleb128 0x1d
 3979 013e 01       		.byte	0x1
 3980 013f 31       		.uleb128 0x31
 3981 0140 13       		.uleb128 0x13
 3982 0141 11       		.uleb128 0x11
 3983 0142 01       		.uleb128 0x1
 3984 0143 12       		.uleb128 0x12
 3985 0144 06       		.uleb128 0x6
 3986 0145 58       		.uleb128 0x58
 3987 0146 0B       		.uleb128 0xb
 3988 0147 59       		.uleb128 0x59
 3989 0148 05       		.uleb128 0x5
 3990 0149 00       		.byte	0
 3991 014a 00       		.byte	0
 3992 014b 1B       		.uleb128 0x1b
 3993 014c 05       		.uleb128 0x5
 3994 014d 00       		.byte	0
 3995 014e 31       		.uleb128 0x31
 3996 014f 13       		.uleb128 0x13
 3997 0150 02       		.uleb128 0x2
 3998 0151 18       		.uleb128 0x18
 3999 0152 00       		.byte	0
 4000 0153 00       		.byte	0
 4001 0154 1C       		.uleb128 0x1c
 4002 0155 05       		.uleb128 0x5
 4003 0156 00       		.byte	0
 4004 0157 03       		.uleb128 0x3
 4005 0158 08       		.uleb128 0x8
 4006 0159 3A       		.uleb128 0x3a
 4007 015a 0B       		.uleb128 0xb
 4008 015b 3B       		.uleb128 0x3b
 4009 015c 05       		.uleb128 0x5
 4010 015d 49       		.uleb128 0x49
ARM GAS  /tmp/ccC8tU94.s 			page 131


 4011 015e 13       		.uleb128 0x13
 4012 015f 02       		.uleb128 0x2
 4013 0160 18       		.uleb128 0x18
 4014 0161 00       		.byte	0
 4015 0162 00       		.byte	0
 4016 0163 1D       		.uleb128 0x1d
 4017 0164 2E       		.uleb128 0x2e
 4018 0165 00       		.byte	0
 4019 0166 03       		.uleb128 0x3
 4020 0167 0E       		.uleb128 0xe
 4021 0168 3A       		.uleb128 0x3a
 4022 0169 0B       		.uleb128 0xb
 4023 016a 3B       		.uleb128 0x3b
 4024 016b 05       		.uleb128 0x5
 4025 016c 27       		.uleb128 0x27
 4026 016d 19       		.uleb128 0x19
 4027 016e 11       		.uleb128 0x11
 4028 016f 01       		.uleb128 0x1
 4029 0170 12       		.uleb128 0x12
 4030 0171 06       		.uleb128 0x6
 4031 0172 40       		.uleb128 0x40
 4032 0173 18       		.uleb128 0x18
 4033 0174 9642     		.uleb128 0x2116
 4034 0176 19       		.uleb128 0x19
 4035 0177 00       		.byte	0
 4036 0178 00       		.byte	0
 4037 0179 1E       		.uleb128 0x1e
 4038 017a 2E       		.uleb128 0x2e
 4039 017b 01       		.byte	0x1
 4040 017c 03       		.uleb128 0x3
 4041 017d 0E       		.uleb128 0xe
 4042 017e 3A       		.uleb128 0x3a
 4043 017f 0B       		.uleb128 0xb
 4044 0180 3B       		.uleb128 0x3b
 4045 0181 05       		.uleb128 0x5
 4046 0182 27       		.uleb128 0x27
 4047 0183 19       		.uleb128 0x19
 4048 0184 11       		.uleb128 0x11
 4049 0185 01       		.uleb128 0x1
 4050 0186 12       		.uleb128 0x12
 4051 0187 06       		.uleb128 0x6
 4052 0188 40       		.uleb128 0x40
 4053 0189 18       		.uleb128 0x18
 4054 018a 9642     		.uleb128 0x2116
 4055 018c 19       		.uleb128 0x19
 4056 018d 01       		.uleb128 0x1
 4057 018e 13       		.uleb128 0x13
 4058 018f 00       		.byte	0
 4059 0190 00       		.byte	0
 4060 0191 1F       		.uleb128 0x1f
 4061 0192 34       		.uleb128 0x34
 4062 0193 00       		.byte	0
 4063 0194 03       		.uleb128 0x3
 4064 0195 0E       		.uleb128 0xe
 4065 0196 49       		.uleb128 0x49
 4066 0197 13       		.uleb128 0x13
 4067 0198 34       		.uleb128 0x34
ARM GAS  /tmp/ccC8tU94.s 			page 132


 4068 0199 19       		.uleb128 0x19
 4069 019a 00       		.byte	0
 4070 019b 00       		.byte	0
 4071 019c 20       		.uleb128 0x20
 4072 019d 2E       		.uleb128 0x2e
 4073 019e 01       		.byte	0x1
 4074 019f 03       		.uleb128 0x3
 4075 01a0 0E       		.uleb128 0xe
 4076 01a1 3A       		.uleb128 0x3a
 4077 01a2 0B       		.uleb128 0xb
 4078 01a3 3B       		.uleb128 0x3b
 4079 01a4 05       		.uleb128 0x5
 4080 01a5 27       		.uleb128 0x27
 4081 01a6 19       		.uleb128 0x19
 4082 01a7 49       		.uleb128 0x49
 4083 01a8 13       		.uleb128 0x13
 4084 01a9 11       		.uleb128 0x11
 4085 01aa 01       		.uleb128 0x1
 4086 01ab 12       		.uleb128 0x12
 4087 01ac 06       		.uleb128 0x6
 4088 01ad 40       		.uleb128 0x40
 4089 01ae 18       		.uleb128 0x18
 4090 01af 9742     		.uleb128 0x2117
 4091 01b1 19       		.uleb128 0x19
 4092 01b2 01       		.uleb128 0x1
 4093 01b3 13       		.uleb128 0x13
 4094 01b4 00       		.byte	0
 4095 01b5 00       		.byte	0
 4096 01b6 21       		.uleb128 0x21
 4097 01b7 2E       		.uleb128 0x2e
 4098 01b8 01       		.byte	0x1
 4099 01b9 3F       		.uleb128 0x3f
 4100 01ba 19       		.uleb128 0x19
 4101 01bb 03       		.uleb128 0x3
 4102 01bc 0E       		.uleb128 0xe
 4103 01bd 3A       		.uleb128 0x3a
 4104 01be 0B       		.uleb128 0xb
 4105 01bf 3B       		.uleb128 0x3b
 4106 01c0 0B       		.uleb128 0xb
 4107 01c1 27       		.uleb128 0x27
 4108 01c2 19       		.uleb128 0x19
 4109 01c3 11       		.uleb128 0x11
 4110 01c4 01       		.uleb128 0x1
 4111 01c5 12       		.uleb128 0x12
 4112 01c6 06       		.uleb128 0x6
 4113 01c7 40       		.uleb128 0x40
 4114 01c8 18       		.uleb128 0x18
 4115 01c9 9642     		.uleb128 0x2116
 4116 01cb 19       		.uleb128 0x19
 4117 01cc 01       		.uleb128 0x1
 4118 01cd 13       		.uleb128 0x13
 4119 01ce 00       		.byte	0
 4120 01cf 00       		.byte	0
 4121 01d0 22       		.uleb128 0x22
 4122 01d1 05       		.uleb128 0x5
 4123 01d2 00       		.byte	0
 4124 01d3 03       		.uleb128 0x3
ARM GAS  /tmp/ccC8tU94.s 			page 133


 4125 01d4 08       		.uleb128 0x8
 4126 01d5 3A       		.uleb128 0x3a
 4127 01d6 0B       		.uleb128 0xb
 4128 01d7 3B       		.uleb128 0x3b
 4129 01d8 0B       		.uleb128 0xb
 4130 01d9 49       		.uleb128 0x49
 4131 01da 13       		.uleb128 0x13
 4132 01db 02       		.uleb128 0x2
 4133 01dc 18       		.uleb128 0x18
 4134 01dd 00       		.byte	0
 4135 01de 00       		.byte	0
 4136 01df 23       		.uleb128 0x23
 4137 01e0 05       		.uleb128 0x5
 4138 01e1 00       		.byte	0
 4139 01e2 03       		.uleb128 0x3
 4140 01e3 0E       		.uleb128 0xe
 4141 01e4 3A       		.uleb128 0x3a
 4142 01e5 0B       		.uleb128 0xb
 4143 01e6 3B       		.uleb128 0x3b
 4144 01e7 0B       		.uleb128 0xb
 4145 01e8 49       		.uleb128 0x49
 4146 01e9 13       		.uleb128 0x13
 4147 01ea 02       		.uleb128 0x2
 4148 01eb 18       		.uleb128 0x18
 4149 01ec 00       		.byte	0
 4150 01ed 00       		.byte	0
 4151 01ee 24       		.uleb128 0x24
 4152 01ef 2E       		.uleb128 0x2e
 4153 01f0 01       		.byte	0x1
 4154 01f1 3F       		.uleb128 0x3f
 4155 01f2 19       		.uleb128 0x19
 4156 01f3 03       		.uleb128 0x3
 4157 01f4 0E       		.uleb128 0xe
 4158 01f5 3A       		.uleb128 0x3a
 4159 01f6 0B       		.uleb128 0xb
 4160 01f7 3B       		.uleb128 0x3b
 4161 01f8 0B       		.uleb128 0xb
 4162 01f9 27       		.uleb128 0x27
 4163 01fa 19       		.uleb128 0x19
 4164 01fb 49       		.uleb128 0x49
 4165 01fc 13       		.uleb128 0x13
 4166 01fd 11       		.uleb128 0x11
 4167 01fe 01       		.uleb128 0x1
 4168 01ff 12       		.uleb128 0x12
 4169 0200 06       		.uleb128 0x6
 4170 0201 40       		.uleb128 0x40
 4171 0202 18       		.uleb128 0x18
 4172 0203 9642     		.uleb128 0x2116
 4173 0205 19       		.uleb128 0x19
 4174 0206 01       		.uleb128 0x1
 4175 0207 13       		.uleb128 0x13
 4176 0208 00       		.byte	0
 4177 0209 00       		.byte	0
 4178 020a 25       		.uleb128 0x25
 4179 020b 34       		.uleb128 0x34
 4180 020c 00       		.byte	0
 4181 020d 03       		.uleb128 0x3
ARM GAS  /tmp/ccC8tU94.s 			page 134


 4182 020e 08       		.uleb128 0x8
 4183 020f 3A       		.uleb128 0x3a
 4184 0210 0B       		.uleb128 0xb
 4185 0211 3B       		.uleb128 0x3b
 4186 0212 0B       		.uleb128 0xb
 4187 0213 49       		.uleb128 0x49
 4188 0214 13       		.uleb128 0x13
 4189 0215 02       		.uleb128 0x2
 4190 0216 18       		.uleb128 0x18
 4191 0217 00       		.byte	0
 4192 0218 00       		.byte	0
 4193 0219 26       		.uleb128 0x26
 4194 021a 0B       		.uleb128 0xb
 4195 021b 01       		.byte	0x1
 4196 021c 11       		.uleb128 0x11
 4197 021d 01       		.uleb128 0x1
 4198 021e 12       		.uleb128 0x12
 4199 021f 06       		.uleb128 0x6
 4200 0220 00       		.byte	0
 4201 0221 00       		.byte	0
 4202 0222 27       		.uleb128 0x27
 4203 0223 2E       		.uleb128 0x2e
 4204 0224 01       		.byte	0x1
 4205 0225 3F       		.uleb128 0x3f
 4206 0226 19       		.uleb128 0x19
 4207 0227 03       		.uleb128 0x3
 4208 0228 0E       		.uleb128 0xe
 4209 0229 3A       		.uleb128 0x3a
 4210 022a 0B       		.uleb128 0xb
 4211 022b 3B       		.uleb128 0x3b
 4212 022c 05       		.uleb128 0x5
 4213 022d 27       		.uleb128 0x27
 4214 022e 19       		.uleb128 0x19
 4215 022f 11       		.uleb128 0x11
 4216 0230 01       		.uleb128 0x1
 4217 0231 12       		.uleb128 0x12
 4218 0232 06       		.uleb128 0x6
 4219 0233 40       		.uleb128 0x40
 4220 0234 18       		.uleb128 0x18
 4221 0235 9642     		.uleb128 0x2116
 4222 0237 19       		.uleb128 0x19
 4223 0238 01       		.uleb128 0x1
 4224 0239 13       		.uleb128 0x13
 4225 023a 00       		.byte	0
 4226 023b 00       		.byte	0
 4227 023c 28       		.uleb128 0x28
 4228 023d 05       		.uleb128 0x5
 4229 023e 00       		.byte	0
 4230 023f 03       		.uleb128 0x3
 4231 0240 0E       		.uleb128 0xe
 4232 0241 3A       		.uleb128 0x3a
 4233 0242 0B       		.uleb128 0xb
 4234 0243 3B       		.uleb128 0x3b
 4235 0244 05       		.uleb128 0x5
 4236 0245 49       		.uleb128 0x49
 4237 0246 13       		.uleb128 0x13
 4238 0247 02       		.uleb128 0x2
ARM GAS  /tmp/ccC8tU94.s 			page 135


 4239 0248 18       		.uleb128 0x18
 4240 0249 00       		.byte	0
 4241 024a 00       		.byte	0
 4242 024b 29       		.uleb128 0x29
 4243 024c 2E       		.uleb128 0x2e
 4244 024d 01       		.byte	0x1
 4245 024e 3F       		.uleb128 0x3f
 4246 024f 19       		.uleb128 0x19
 4247 0250 03       		.uleb128 0x3
 4248 0251 0E       		.uleb128 0xe
 4249 0252 3A       		.uleb128 0x3a
 4250 0253 0B       		.uleb128 0xb
 4251 0254 3B       		.uleb128 0x3b
 4252 0255 05       		.uleb128 0x5
 4253 0256 27       		.uleb128 0x27
 4254 0257 19       		.uleb128 0x19
 4255 0258 49       		.uleb128 0x49
 4256 0259 13       		.uleb128 0x13
 4257 025a 11       		.uleb128 0x11
 4258 025b 01       		.uleb128 0x1
 4259 025c 12       		.uleb128 0x12
 4260 025d 06       		.uleb128 0x6
 4261 025e 40       		.uleb128 0x40
 4262 025f 18       		.uleb128 0x18
 4263 0260 9642     		.uleb128 0x2116
 4264 0262 19       		.uleb128 0x19
 4265 0263 01       		.uleb128 0x1
 4266 0264 13       		.uleb128 0x13
 4267 0265 00       		.byte	0
 4268 0266 00       		.byte	0
 4269 0267 2A       		.uleb128 0x2a
 4270 0268 34       		.uleb128 0x34
 4271 0269 00       		.byte	0
 4272 026a 03       		.uleb128 0x3
 4273 026b 08       		.uleb128 0x8
 4274 026c 3A       		.uleb128 0x3a
 4275 026d 0B       		.uleb128 0xb
 4276 026e 3B       		.uleb128 0x3b
 4277 026f 05       		.uleb128 0x5
 4278 0270 49       		.uleb128 0x49
 4279 0271 13       		.uleb128 0x13
 4280 0272 02       		.uleb128 0x2
 4281 0273 18       		.uleb128 0x18
 4282 0274 00       		.byte	0
 4283 0275 00       		.byte	0
 4284 0276 2B       		.uleb128 0x2b
 4285 0277 34       		.uleb128 0x34
 4286 0278 00       		.byte	0
 4287 0279 03       		.uleb128 0x3
 4288 027a 0E       		.uleb128 0xe
 4289 027b 3A       		.uleb128 0x3a
 4290 027c 0B       		.uleb128 0xb
 4291 027d 3B       		.uleb128 0x3b
 4292 027e 05       		.uleb128 0x5
 4293 027f 49       		.uleb128 0x49
 4294 0280 13       		.uleb128 0x13
 4295 0281 3F       		.uleb128 0x3f
ARM GAS  /tmp/ccC8tU94.s 			page 136


 4296 0282 19       		.uleb128 0x19
 4297 0283 3C       		.uleb128 0x3c
 4298 0284 19       		.uleb128 0x19
 4299 0285 00       		.byte	0
 4300 0286 00       		.byte	0
 4301 0287 2C       		.uleb128 0x2c
 4302 0288 34       		.uleb128 0x34
 4303 0289 00       		.byte	0
 4304 028a 03       		.uleb128 0x3
 4305 028b 08       		.uleb128 0x8
 4306 028c 3A       		.uleb128 0x3a
 4307 028d 0B       		.uleb128 0xb
 4308 028e 3B       		.uleb128 0x3b
 4309 028f 05       		.uleb128 0x5
 4310 0290 49       		.uleb128 0x49
 4311 0291 13       		.uleb128 0x13
 4312 0292 3F       		.uleb128 0x3f
 4313 0293 19       		.uleb128 0x19
 4314 0294 3C       		.uleb128 0x3c
 4315 0295 19       		.uleb128 0x19
 4316 0296 00       		.byte	0
 4317 0297 00       		.byte	0
 4318 0298 00       		.byte	0
 4319              		.section	.debug_aranges,"",%progbits
 4320 0000 B4000000 		.4byte	0xb4
 4321 0004 0200     		.2byte	0x2
 4322 0006 00000000 		.4byte	.Ldebug_info0
 4323 000a 04       		.byte	0x4
 4324 000b 00       		.byte	0
 4325 000c 0000     		.2byte	0
 4326 000e 0000     		.2byte	0
 4327 0010 00000000 		.4byte	.LFB127
 4328 0014 10000000 		.4byte	.LFE127-.LFB127
 4329 0018 00000000 		.4byte	.LFB128
 4330 001c 10000000 		.4byte	.LFE128-.LFB128
 4331 0020 00000000 		.4byte	.LFB150
 4332 0024 14000000 		.4byte	.LFE150-.LFB150
 4333 0028 00000000 		.4byte	.LFB167
 4334 002c 08000000 		.4byte	.LFE167-.LFB167
 4335 0030 00000000 		.4byte	.LFB168
 4336 0034 08000000 		.4byte	.LFE168-.LFB168
 4337 0038 00000000 		.4byte	.LFB195
 4338 003c 12000000 		.4byte	.LFE195-.LFB195
 4339 0040 00000000 		.4byte	.LFB233
 4340 0044 18000000 		.4byte	.LFE233-.LFB233
 4341 0048 00000000 		.4byte	.LFB234
 4342 004c 2A000000 		.4byte	.LFE234-.LFB234
 4343 0050 00000000 		.4byte	.LFB238
 4344 0054 2A000000 		.4byte	.LFE238-.LFB238
 4345 0058 00000000 		.4byte	.LFB239
 4346 005c 18000000 		.4byte	.LFE239-.LFB239
 4347 0060 00000000 		.4byte	.LFB241
 4348 0064 48000000 		.4byte	.LFE241-.LFB241
 4349 0068 00000000 		.4byte	.LFB242
 4350 006c 2E000000 		.4byte	.LFE242-.LFB242
 4351 0070 00000000 		.4byte	.LFB243
 4352 0074 60000000 		.4byte	.LFE243-.LFB243
ARM GAS  /tmp/ccC8tU94.s 			page 137


 4353 0078 00000000 		.4byte	.LFB244
 4354 007c 84000000 		.4byte	.LFE244-.LFB244
 4355 0080 00000000 		.4byte	.LFB245
 4356 0084 A8000000 		.4byte	.LFE245-.LFB245
 4357 0088 00000000 		.4byte	.LFB246
 4358 008c 48000000 		.4byte	.LFE246-.LFB246
 4359 0090 00000000 		.4byte	.LFB247
 4360 0094 3A000000 		.4byte	.LFE247-.LFB247
 4361 0098 00000000 		.4byte	.LFB248
 4362 009c 86000000 		.4byte	.LFE248-.LFB248
 4363 00a0 00000000 		.4byte	.LFB249
 4364 00a4 5C000000 		.4byte	.LFE249-.LFB249
 4365 00a8 00000000 		.4byte	.LFB250
 4366 00ac A8000000 		.4byte	.LFE250-.LFB250
 4367 00b0 00000000 		.4byte	0
 4368 00b4 00000000 		.4byte	0
 4369              		.section	.debug_ranges,"",%progbits
 4370              	.Ldebug_ranges0:
 4371 0000 00000000 		.4byte	.LFB127
 4372 0004 10000000 		.4byte	.LFE127
 4373 0008 00000000 		.4byte	.LFB128
 4374 000c 10000000 		.4byte	.LFE128
 4375 0010 00000000 		.4byte	.LFB150
 4376 0014 14000000 		.4byte	.LFE150
 4377 0018 00000000 		.4byte	.LFB167
 4378 001c 08000000 		.4byte	.LFE167
 4379 0020 00000000 		.4byte	.LFB168
 4380 0024 08000000 		.4byte	.LFE168
 4381 0028 00000000 		.4byte	.LFB195
 4382 002c 12000000 		.4byte	.LFE195
 4383 0030 00000000 		.4byte	.LFB233
 4384 0034 18000000 		.4byte	.LFE233
 4385 0038 00000000 		.4byte	.LFB234
 4386 003c 2A000000 		.4byte	.LFE234
 4387 0040 00000000 		.4byte	.LFB238
 4388 0044 2A000000 		.4byte	.LFE238
 4389 0048 00000000 		.4byte	.LFB239
 4390 004c 18000000 		.4byte	.LFE239
 4391 0050 00000000 		.4byte	.LFB241
 4392 0054 48000000 		.4byte	.LFE241
 4393 0058 00000000 		.4byte	.LFB242
 4394 005c 2E000000 		.4byte	.LFE242
 4395 0060 00000000 		.4byte	.LFB243
 4396 0064 60000000 		.4byte	.LFE243
 4397 0068 00000000 		.4byte	.LFB244
 4398 006c 84000000 		.4byte	.LFE244
 4399 0070 00000000 		.4byte	.LFB245
 4400 0074 A8000000 		.4byte	.LFE245
 4401 0078 00000000 		.4byte	.LFB246
 4402 007c 48000000 		.4byte	.LFE246
 4403 0080 00000000 		.4byte	.LFB247
 4404 0084 3A000000 		.4byte	.LFE247
 4405 0088 00000000 		.4byte	.LFB248
 4406 008c 86000000 		.4byte	.LFE248
 4407 0090 00000000 		.4byte	.LFB249
 4408 0094 5C000000 		.4byte	.LFE249
 4409 0098 00000000 		.4byte	.LFB250
ARM GAS  /tmp/ccC8tU94.s 			page 138


 4410 009c A8000000 		.4byte	.LFE250
 4411 00a0 00000000 		.4byte	0
 4412 00a4 00000000 		.4byte	0
 4413              		.section	.debug_line,"",%progbits
 4414              	.Ldebug_line0:
 4415 0000 3A050000 		.section	.debug_str,"MS",%progbits,1
 4415      0200E502 
 4415      00000201 
 4415      FB0E0D00 
 4415      01010101 
 4416              	.LASF140:
 4417 0000 63684F51 		.ascii	"chOQPutTimeout\000"
 4417      50757454 
 4417      696D656F 
 4417      757400
 4418              	.LASF51:
 4419 000f 72656164 		.ascii	"ready_list_t\000"
 4419      795F6C69 
 4419      73745F74 
 4419      00
 4420              	.LASF138:
 4421 001c 6F6E6679 		.ascii	"onfy\000"
 4421      00
 4422              	.LASF2:
 4423 0021 73697A65 		.ascii	"size_t\000"
 4423      5F7400
 4424              	.LASF86:
 4425 0028 7264796D 		.ascii	"rdymsg\000"
 4425      736700
 4426              	.LASF17:
 4427 002f 75696E74 		.ascii	"uint64_t\000"
 4427      36345F74 
 4427      00
 4428              	.LASF143:
 4429 0038 5F5F6675 		.ascii	"__func__.6460\000"
 4429      6E635F5F 
 4429      2E363436 
 4429      3000
 4430              	.LASF3:
 4431 0046 5F5F7569 		.ascii	"__uint8_t\000"
 4431      6E74385F 
 4431      7400
 4432              	.LASF83:
 4433 0050 706F7274 		.ascii	"port_intctx\000"
 4433      5F696E74 
 4433      63747800 
 4434              	.LASF70:
 4435 005c 73797374 		.ascii	"system_debug_t\000"
 4435      656D5F64 
 4435      65627567 
 4435      5F7400
 4436              	.LASF134:
 4437 006b 63684951 		.ascii	"chIQReadTimeout\000"
 4437      52656164 
 4437      54696D65 
 4437      6F757400 
 4438              	.LASF118:
ARM GAS  /tmp/ccC8tU94.s 			page 139


 4439 007b 71756575 		.ascii	"queue_init\000"
 4439      655F696E 
 4439      697400
 4440              	.LASF116:
 4441 0086 706F7274 		.ascii	"port_lock\000"
 4441      5F6C6F63 
 4441      6B00
 4442              	.LASF129:
 4443 0090 63684951 		.ascii	"chIQObjectInit\000"
 4443      4F626A65 
 4443      6374496E 
 4443      697400
 4444              	.LASF13:
 4445 009f 6C6F6E67 		.ascii	"long long unsigned int\000"
 4445      206C6F6E 
 4445      6720756E 
 4445      7369676E 
 4445      65642069 
 4446              	.LASF87:
 4447 00b6 65786974 		.ascii	"exitcode\000"
 4447      636F6465 
 4447      00
 4448              	.LASF77:
 4449 00bf 6D61696E 		.ascii	"mainthread\000"
 4449      74687265 
 4449      616400
 4450              	.LASF90:
 4451 00ca 73656E74 		.ascii	"sentmsg\000"
 4451      6D736700 
 4452              	.LASF67:
 4453 00d2 76697274 		.ascii	"virtual_timers_list_t\000"
 4453      75616C5F 
 4453      74696D65 
 4453      72735F6C 
 4453      6973745F 
 4454              	.LASF144:
 4455 00e8 49544D5F 		.ascii	"ITM_RxBuffer\000"
 4455      52784275 
 4455      66666572 
 4455      00
 4456              	.LASF103:
 4457 00f5 696F5F71 		.ascii	"io_queue_t\000"
 4457      75657565 
 4457      5F7400
 4458              	.LASF50:
 4459 0100 63685F74 		.ascii	"ch_threads_queue\000"
 4459      68726561 
 4459      64735F71 
 4459      75657565 
 4459      00
 4460              	.LASF30:
 4461 0111 705F7072 		.ascii	"p_prio\000"
 4461      696F00
 4462              	.LASF105:
 4463 0118 715F7761 		.ascii	"q_waiting\000"
 4463      6974696E 
 4463      6700
ARM GAS  /tmp/ccC8tU94.s 			page 140


 4464              	.LASF11:
 4465 0122 6C6F6E67 		.ascii	"long long int\000"
 4465      206C6F6E 
 4465      6720696E 
 4465      7400
 4466              	.LASF1:
 4467 0130 7369676E 		.ascii	"signed char\000"
 4467      65642063 
 4467      68617200 
 4468              	.LASF44:
 4469 013c 705F6D70 		.ascii	"p_mpool\000"
 4469      6F6F6C00 
 4470              	.LASF98:
 4471 0144 6D5F7175 		.ascii	"m_queue\000"
 4471      65756500 
 4472              	.LASF76:
 4473 014c 76746C69 		.ascii	"vtlist\000"
 4473      737400
 4474              	.LASF117:
 4475 0153 706F7274 		.ascii	"port_unlock\000"
 4475      5F756E6C 
 4475      6F636B00 
 4476              	.LASF115:
 4477 015f 6F757470 		.ascii	"output_queue_t\000"
 4477      75745F71 
 4477      75657565 
 4477      5F7400
 4478              	.LASF89:
 4479 016e 77747472 		.ascii	"wttrp\000"
 4479      7000
 4480              	.LASF74:
 4481 0174 63685F73 		.ascii	"ch_system\000"
 4481      79737465 
 4481      6D00
 4482              	.LASF8:
 4483 017e 6C6F6E67 		.ascii	"long int\000"
 4483      20696E74 
 4483      00
 4484              	.LASF20:
 4485 0187 74737461 		.ascii	"tstate_t\000"
 4485      74655F74 
 4485      00
 4486              	.LASF141:
 4487 0190 63684F51 		.ascii	"chOQGetI\000"
 4487      47657449 
 4487      00
 4488              	.LASF107:
 4489 0199 715F6275 		.ascii	"q_buffer\000"
 4489      66666572 
 4489      00
 4490              	.LASF109:
 4491 01a2 715F7772 		.ascii	"q_wrptr\000"
 4491      70747200 
 4492              	.LASF32:
 4493 01aa 705F6E65 		.ascii	"p_newer\000"
 4493      77657200 
 4494              	.LASF95:
ARM GAS  /tmp/ccC8tU94.s 			page 141


 4495 01b2 735F7175 		.ascii	"s_queue\000"
 4495      65756500 
 4496              	.LASF135:
 4497 01ba 5F5F6675 		.ascii	"__func__.5701\000"
 4497      6E635F5F 
 4497      2E353730 
 4497      3100
 4498              	.LASF56:
 4499 01c8 725F6E65 		.ascii	"r_newer\000"
 4499      77657200 
 4500              	.LASF80:
 4501 01d0 72656761 		.ascii	"regarm_t\000"
 4501      726D5F74 
 4501      00
 4502              	.LASF63:
 4503 01d9 76745F70 		.ascii	"vt_prev\000"
 4503      72657600 
 4504              	.LASF128:
 4505 01e1 6C696E6B 		.ascii	"link\000"
 4505      00
 4506              	.LASF131:
 4507 01e6 63684951 		.ascii	"chIQPutI\000"
 4507      50757449 
 4507      00
 4508              	.LASF102:
 4509 01ef 6D757465 		.ascii	"mutex_t\000"
 4509      785F7400 
 4510              	.LASF149:
 4511 01f7 76616C75 		.ascii	"value\000"
 4511      6500
 4512              	.LASF104:
 4513 01fd 696F5F71 		.ascii	"io_queue\000"
 4513      75657565 
 4513      00
 4514              	.LASF78:
 4515 0206 69646C65 		.ascii	"idle_thread_wa\000"
 4515      5F746872 
 4515      6561645F 
 4515      776100
 4516              	.LASF25:
 4517 0215 636E745F 		.ascii	"cnt_t\000"
 4517      7400
 4518              	.LASF145:
 4519 021b 474E5520 		.ascii	"GNU C 4.8.4 20140526 (release) [ARM/embedded-4_8-br"
 4519      4320342E 
 4519      382E3420 
 4519      32303134 
 4519      30353236 
 4520 024e 616E6368 		.ascii	"anch revision 211358] -mcpu=cortex-m4 -mno-thumb-in"
 4520      20726576 
 4520      6973696F 
 4520      6E203231 
 4520      31333538 
 4521 0281 74657277 		.ascii	"terwork -mthumb -ggdb -O0 -fomit-frame-pointer -fal"
 4521      6F726B20 
 4521      2D6D7468 
 4521      756D6220 
ARM GAS  /tmp/ccC8tU94.s 			page 142


 4521      2D676764 
 4522 02b4 69676E2D 		.ascii	"ign-functions=16 -ffunction-sections -fdata-section"
 4522      66756E63 
 4522      74696F6E 
 4522      733D3136 
 4522      202D6666 
 4523 02e7 73202D66 		.ascii	"s -fno-common -flto\000"
 4523      6E6F2D63 
 4523      6F6D6D6F 
 4523      6E202D66 
 4523      6C746F00 
 4524              	.LASF0:
 4525 02fb 756E7369 		.ascii	"unsigned int\000"
 4525      676E6564 
 4525      20696E74 
 4525      00
 4526              	.LASF62:
 4527 0308 76745F6E 		.ascii	"vt_next\000"
 4527      65787400 
 4528              	.LASF130:
 4529 0310 63684951 		.ascii	"chIQResetI\000"
 4529      52657365 
 4529      744900
 4530              	.LASF91:
 4531 031b 77747365 		.ascii	"wtsemp\000"
 4531      6D7000
 4532              	.LASF40:
 4533 0322 705F6D73 		.ascii	"p_msgqueue\000"
 4533      67717565 
 4533      756500
 4534              	.LASF133:
 4535 032d 74696D65 		.ascii	"timeout\000"
 4535      6F757400 
 4536              	.LASF96:
 4537 0335 735F636E 		.ascii	"s_cnt\000"
 4537      7400
 4538              	.LASF6:
 4539 033b 73686F72 		.ascii	"short unsigned int\000"
 4539      7420756E 
 4539      7369676E 
 4539      65642069 
 4539      6E7400
 4540              	.LASF47:
 4541 034e 63685F74 		.ascii	"ch_thread\000"
 4541      68726561 
 4541      6400
 4542              	.LASF23:
 4543 0358 6D73675F 		.ascii	"msg_t\000"
 4543      7400
 4544              	.LASF73:
 4545 035e 63685F73 		.ascii	"ch_system_t\000"
 4545      79737465 
 4545      6D5F7400 
 4546              	.LASF19:
 4547 036a 746D6F64 		.ascii	"tmode_t\000"
 4547      655F7400 
 4548              	.LASF146:
ARM GAS  /tmp/ccC8tU94.s 			page 143


 4549 0372 2E2E2F43 		.ascii	"../ChibiOS/os/rt/src/chqueues.c\000"
 4549      68696269 
 4549      4F532F6F 
 4549      732F7274 
 4549      2F737263 
 4550              	.LASF52:
 4551 0392 63685F72 		.ascii	"ch_ready_list\000"
 4551      65616479 
 4551      5F6C6973 
 4551      7400
 4552              	.LASF24:
 4553 03a0 6576656E 		.ascii	"eventmask_t\000"
 4553      746D6173 
 4553      6B5F7400 
 4554              	.LASF7:
 4555 03ac 5F5F696E 		.ascii	"__int32_t\000"
 4555      7433325F 
 4555      7400
 4556              	.LASF81:
 4557 03b6 73746B61 		.ascii	"stkalign_t\000"
 4557      6C69676E 
 4557      5F7400
 4558              	.LASF142:
 4559 03c1 63684F51 		.ascii	"chOQWriteTimeout\000"
 4559      57726974 
 4559      6554696D 
 4559      656F7574 
 4559      00
 4560              	.LASF120:
 4561 03d2 63685468 		.ascii	"chThdQueueObjectInit\000"
 4561      64517565 
 4561      75654F62 
 4561      6A656374 
 4561      496E6974 
 4562              	.LASF39:
 4563 03e7 705F7761 		.ascii	"p_waiting\000"
 4563      6974696E 
 4563      6700
 4564              	.LASF79:
 4565 03f1 73697A65 		.ascii	"sizetype\000"
 4565      74797065 
 4565      00
 4566              	.LASF45:
 4567 03fa 74687265 		.ascii	"thread_reference_t\000"
 4567      61645F72 
 4567      65666572 
 4567      656E6365 
 4567      5F7400
 4568              	.LASF68:
 4569 040d 63685F76 		.ascii	"ch_virtual_timers_list\000"
 4569      69727475 
 4569      616C5F74 
 4569      696D6572 
 4569      735F6C69 
 4570              	.LASF106:
 4571 0424 715F636F 		.ascii	"q_counter\000"
 4571      756E7465 
ARM GAS  /tmp/ccC8tU94.s 			page 144


 4571      7200
 4572              	.LASF136:
 4573 042e 5F5F6675 		.ascii	"__func__.6424\000"
 4573      6E635F5F 
 4573      2E363432 
 4573      3400
 4574              	.LASF69:
 4575 043c 76745F6C 		.ascii	"vt_lasttime\000"
 4575      61737474 
 4575      696D6500 
 4576              	.LASF33:
 4577 0448 705F6F6C 		.ascii	"p_older\000"
 4577      64657200 
 4578              	.LASF55:
 4579 0450 725F6374 		.ascii	"r_ctx\000"
 4579      7800
 4580              	.LASF85:
 4581 0456 746D5F63 		.ascii	"tm_calibration_t\000"
 4581      616C6962 
 4581      72617469 
 4581      6F6E5F74 
 4581      00
 4582              	.LASF35:
 4583 0467 705F7374 		.ascii	"p_stklimit\000"
 4583      6B6C696D 
 4583      697400
 4584              	.LASF58:
 4585 0472 725F6375 		.ascii	"r_current\000"
 4585      7272656E 
 4585      7400
 4586              	.LASF57:
 4587 047c 725F6F6C 		.ascii	"r_older\000"
 4587      64657200 
 4588              	.LASF12:
 4589 0484 5F5F7569 		.ascii	"__uint64_t\000"
 4589      6E743634 
 4589      5F7400
 4590              	.LASF21:
 4591 048f 74726566 		.ascii	"trefs_t\000"
 4591      735F7400 
 4592              	.LASF113:
 4593 0497 716E6F74 		.ascii	"qnotify_t\000"
 4593      6966795F 
 4593      7400
 4594              	.LASF60:
 4595 04a1 76697274 		.ascii	"virtual_timer_t\000"
 4595      75616C5F 
 4595      74696D65 
 4595      725F7400 
 4596              	.LASF29:
 4597 04b1 705F7072 		.ascii	"p_prev\000"
 4597      657600
 4598              	.LASF125:
 4599 04b8 63684F51 		.ascii	"chOQIsFullI\000"
 4599      49734675 
 4599      6C6C4900 
 4600              	.LASF22:
ARM GAS  /tmp/ccC8tU94.s 			page 145


 4601 04c4 74707269 		.ascii	"tprio_t\000"
 4601      6F5F7400 
 4602              	.LASF110:
 4603 04cc 715F7264 		.ascii	"q_rdptr\000"
 4603      70747200 
 4604              	.LASF71:
 4605 04d4 63685F73 		.ascii	"ch_system_debug\000"
 4605      79737465 
 4605      6D5F6465 
 4605      62756700 
 4606              	.LASF121:
 4607 04e4 5F426F6F 		.ascii	"_Bool\000"
 4607      6C00
 4608              	.LASF15:
 4609 04ea 696E7433 		.ascii	"int32_t\000"
 4609      325F7400 
 4610              	.LASF4:
 4611 04f2 756E7369 		.ascii	"unsigned char\000"
 4611      676E6564 
 4611      20636861 
 4611      7200
 4612              	.LASF114:
 4613 0500 696E7075 		.ascii	"input_queue_t\000"
 4613      745F7175 
 4613      6575655F 
 4613      7400
 4614              	.LASF36:
 4615 050e 705F7374 		.ascii	"p_state\000"
 4615      61746500 
 4616              	.LASF42:
 4617 0516 705F6D74 		.ascii	"p_mtxlist\000"
 4617      786C6973 
 4617      7400
 4618              	.LASF5:
 4619 0520 73686F72 		.ascii	"short int\000"
 4619      7420696E 
 4619      7400
 4620              	.LASF54:
 4621 052a 725F7072 		.ascii	"r_prio\000"
 4621      696F00
 4622              	.LASF93:
 4623 0531 65776D61 		.ascii	"ewmask\000"
 4623      736B00
 4624              	.LASF28:
 4625 0538 705F6E65 		.ascii	"p_next\000"
 4625      787400
 4626              	.LASF127:
 4627 053f 696E6679 		.ascii	"infy\000"
 4627      00
 4628              	.LASF37:
 4629 0544 705F666C 		.ascii	"p_flags\000"
 4629      61677300 
 4630              	.LASF150:
 4631 054c 63685379 		.ascii	"chSysLock\000"
 4631      734C6F63 
 4631      6B00
 4632              	.LASF49:
ARM GAS  /tmp/ccC8tU94.s 			page 146


 4633 0556 74687265 		.ascii	"threads_queue_t\000"
 4633      6164735F 
 4633      71756575 
 4633      655F7400 
 4634              	.LASF61:
 4635 0566 63685F76 		.ascii	"ch_virtual_timer\000"
 4635      69727475 
 4635      616C5F74 
 4635      696D6572 
 4635      00
 4636              	.LASF94:
 4637 0577 63685F73 		.ascii	"ch_semaphore\000"
 4637      656D6170 
 4637      686F7265 
 4637      00
 4638              	.LASF41:
 4639 0584 705F6570 		.ascii	"p_epending\000"
 4639      656E6469 
 4639      6E6700
 4640              	.LASF123:
 4641 058f 63684951 		.ascii	"chIQIsFullI\000"
 4641      49734675 
 4641      6C6C4900 
 4642              	.LASF16:
 4643 059b 75696E74 		.ascii	"uint32_t\000"
 4643      33325F74 
 4643      00
 4644              	.LASF92:
 4645 05a4 77746D74 		.ascii	"wtmtxp\000"
 4645      787000
 4646              	.LASF53:
 4647 05ab 725F7175 		.ascii	"r_queue\000"
 4647      65756500 
 4648              	.LASF64:
 4649 05b3 76745F64 		.ascii	"vt_delta\000"
 4649      656C7461 
 4649      00
 4650              	.LASF48:
 4651 05bc 63685F74 		.ascii	"ch_threads_list\000"
 4651      68726561 
 4651      64735F6C 
 4651      69737400 
 4652              	.LASF147:
 4653 05cc 2F6E6673 		.ascii	"/nfs/nfs4/home/irbrown/Courses/P442/P442WifiTrailCo"
 4653      2F6E6673 
 4653      342F686F 
 4653      6D652F69 
 4653      7262726F 
 4654 05ff 756E7465 		.ascii	"unterProject/milestone3\000"
 4654      7250726F 
 4654      6A656374 
 4654      2F6D696C 
 4654      6573746F 
 4655              	.LASF10:
 4656 0617 6C6F6E67 		.ascii	"long unsigned int\000"
 4656      20756E73 
 4656      69676E65 
ARM GAS  /tmp/ccC8tU94.s 			page 147


 4656      6420696E 
 4656      7400
 4657              	.LASF101:
 4658 0629 63686172 		.ascii	"char\000"
 4658      00
 4659              	.LASF27:
 4660 062e 74687265 		.ascii	"thread_t\000"
 4660      61645F74 
 4660      00
 4661              	.LASF100:
 4662 0637 6D5F6E65 		.ascii	"m_next\000"
 4662      787400
 4663              	.LASF26:
 4664 063e 73797374 		.ascii	"systime_t\000"
 4664      696D655F 
 4664      7400
 4665              	.LASF43:
 4666 0648 705F7265 		.ascii	"p_realprio\000"
 4666      616C7072 
 4666      696F00
 4667              	.LASF59:
 4668 0653 76746675 		.ascii	"vtfunc_t\000"
 4668      6E635F74 
 4668      00
 4669              	.LASF9:
 4670 065c 5F5F7569 		.ascii	"__uint32_t\000"
 4670      6E743332 
 4670      5F7400
 4671              	.LASF148:
 4672 0667 5F5F7365 		.ascii	"__set_BASEPRI\000"
 4672      745F4241 
 4672      53455052 
 4672      4900
 4673              	.LASF72:
 4674 0675 70616E69 		.ascii	"panic_msg\000"
 4674      635F6D73 
 4674      6700
 4675              	.LASF84:
 4676 067f 6F666673 		.ascii	"offset\000"
 4676      657400
 4677              	.LASF139:
 4678 0686 63684F51 		.ascii	"chOQResetI\000"
 4678      52657365 
 4678      744900
 4679              	.LASF82:
 4680 0691 636F6E74 		.ascii	"context\000"
 4680      65787400 
 4681              	.LASF18:
 4682 0699 7274636E 		.ascii	"rtcnt_t\000"
 4682      745F7400 
 4683              	.LASF66:
 4684 06a1 76745F70 		.ascii	"vt_par\000"
 4684      617200
 4685              	.LASF137:
 4686 06a8 63684F51 		.ascii	"chOQObjectInit\000"
 4686      4F626A65 
 4686      6374496E 
ARM GAS  /tmp/ccC8tU94.s 			page 148


 4686      697400
 4687              	.LASF108:
 4688 06b7 715F746F 		.ascii	"q_top\000"
 4688      7000
 4689              	.LASF97:
 4690 06bd 63685F6D 		.ascii	"ch_mutex\000"
 4690      75746578 
 4690      00
 4691              	.LASF38:
 4692 06c6 705F7265 		.ascii	"p_refs\000"
 4692      667300
 4693              	.LASF122:
 4694 06cd 63684951 		.ascii	"chIQIsEmptyI\000"
 4694      4973456D 
 4694      70747949 
 4694      00
 4695              	.LASF111:
 4696 06da 715F6E6F 		.ascii	"q_notify\000"
 4696      74696679 
 4696      00
 4697              	.LASF75:
 4698 06e3 726C6973 		.ascii	"rlist\000"
 4698      7400
 4699              	.LASF14:
 4700 06e9 75696E74 		.ascii	"uint8_t\000"
 4700      385F7400 
 4701              	.LASF88:
 4702 06f1 77746F62 		.ascii	"wtobjp\000"
 4702      6A7000
 4703              	.LASF34:
 4704 06f8 705F6E61 		.ascii	"p_name\000"
 4704      6D6500
 4705              	.LASF126:
 4706 06ff 73697A65 		.ascii	"size\000"
 4706      00
 4707              	.LASF124:
 4708 0704 63684F51 		.ascii	"chOQIsEmptyI\000"
 4708      4973456D 
 4708      70747949 
 4708      00
 4709              	.LASF46:
 4710 0711 74687265 		.ascii	"threads_list_t\000"
 4710      6164735F 
 4710      6C697374 
 4710      5F7400
 4711              	.LASF119:
 4712 0720 63685379 		.ascii	"chSysUnlock\000"
 4712      73556E6C 
 4712      6F636B00 
 4713              	.LASF112:
 4714 072c 715F6C69 		.ascii	"q_link\000"
 4714      6E6B00
 4715              	.LASF99:
 4716 0733 6D5F6F77 		.ascii	"m_owner\000"
 4716      6E657200 
 4717              	.LASF31:
 4718 073b 705F6374 		.ascii	"p_ctx\000"
ARM GAS  /tmp/ccC8tU94.s 			page 149


 4718      7800
 4719              	.LASF65:
 4720 0741 76745F66 		.ascii	"vt_func\000"
 4720      756E6300 
 4721              	.LASF132:
 4722 0749 63684951 		.ascii	"chIQGetTimeout\000"
 4722      47657454 
 4722      696D656F 
 4722      757400
 4723              		.comm	__gnu_lto_v1,1,1
 4724              		.ident	"GCC: (GNU Tools for ARM Embedded Processors) 4.8.4 20140526 (release) [ARM/embedded-4_8-br
ARM GAS  /tmp/ccC8tU94.s 			page 150


DEFINED SYMBOLS
                            *ABS*:00000000 chqueues.c
     /tmp/ccC8tU94.s:986    .text.port_lock:00000000 $t
     /tmp/ccC8tU94.s:991    .text.port_lock:00000000 port_lock
     /tmp/ccC8tU94.s:1022   .text.port_unlock:00000000 $t
     /tmp/ccC8tU94.s:1027   .text.port_unlock:00000000 port_unlock
     /tmp/ccC8tU94.s:1056   .text.queue_init:00000000 $t
     /tmp/ccC8tU94.s:1061   .text.queue_init:00000000 queue_init
     /tmp/ccC8tU94.s:1088   .text.chSysLock:00000000 $t
     /tmp/ccC8tU94.s:1093   .text.chSysLock:00000000 chSysLock
     /tmp/ccC8tU94.s:1112   .text.chSysUnlock:00000000 $t
     /tmp/ccC8tU94.s:1117   .text.chSysUnlock:00000000 chSysUnlock
     /tmp/ccC8tU94.s:1135   .text.chThdQueueObjectInit:00000000 $t
     /tmp/ccC8tU94.s:1140   .text.chThdQueueObjectInit:00000000 chThdQueueObjectInit
     /tmp/ccC8tU94.s:1164   .text.chIQIsEmptyI:00000000 $t
     /tmp/ccC8tU94.s:1169   .text.chIQIsEmptyI:00000000 chIQIsEmptyI
     /tmp/ccC8tU94.s:1197   .text.chIQIsFullI:00000000 $t
     /tmp/ccC8tU94.s:1202   .text.chIQIsFullI:00000000 chIQIsFullI
     /tmp/ccC8tU94.s:1243   .text.chOQIsEmptyI:00000000 $t
     /tmp/ccC8tU94.s:1248   .text.chOQIsEmptyI:00000000 chOQIsEmptyI
     /tmp/ccC8tU94.s:1289   .text.chOQIsFullI:00000000 $t
     /tmp/ccC8tU94.s:1294   .text.chOQIsFullI:00000000 chOQIsFullI
     /tmp/ccC8tU94.s:1321   .text.chIQObjectInit:00000000 $t
     /tmp/ccC8tU94.s:1327   .text.chIQObjectInit:00000000 chIQObjectInit
     /tmp/ccC8tU94.s:1385   .text.chIQResetI:00000000 $t
     /tmp/ccC8tU94.s:1391   .text.chIQResetI:00000000 chIQResetI
     /tmp/ccC8tU94.s:1430   .text.chIQPutI:00000000 $t
     /tmp/ccC8tU94.s:1436   .text.chIQPutI:00000000 chIQPutI
     /tmp/ccC8tU94.s:1504   .text.chIQGetTimeout:00000000 $t
     /tmp/ccC8tU94.s:1510   .text.chIQGetTimeout:00000000 chIQGetTimeout
     /tmp/ccC8tU94.s:1605   .text.chIQReadTimeout:00000000 $t
     /tmp/ccC8tU94.s:1611   .text.chIQReadTimeout:00000000 chIQReadTimeout
     /tmp/ccC8tU94.s:1730   .text.chOQObjectInit:00000000 $t
     /tmp/ccC8tU94.s:1736   .text.chOQObjectInit:00000000 chOQObjectInit
     /tmp/ccC8tU94.s:1793   .text.chOQResetI:00000000 $t
     /tmp/ccC8tU94.s:1799   .text.chOQResetI:00000000 chOQResetI
     /tmp/ccC8tU94.s:1844   .text.chOQPutTimeout:00000000 $t
     /tmp/ccC8tU94.s:1850   .text.chOQPutTimeout:00000000 chOQPutTimeout
     /tmp/ccC8tU94.s:1946   .text.chOQGetI:00000000 $t
     /tmp/ccC8tU94.s:1952   .text.chOQGetI:00000000 chOQGetI
     /tmp/ccC8tU94.s:2018   .text.chOQWriteTimeout:00000000 $t
     /tmp/ccC8tU94.s:2024   .text.chOQWriteTimeout:00000000 chOQWriteTimeout
                            *COM*:00000001 __gnu_lto_v1
                     .debug_frame:00000010 $d

UNDEFINED SYMBOLS
chThdDequeueAllI
chThdDequeueNextI
chThdEnqueueTimeoutS
