ARM GAS  /tmp/cclnJnxQ.s 			page 1


   1              		.syntax unified
   2              		.cpu cortex-m4
   3              		.fpu softvfp
   4              		.eabi_attribute 20, 1
   5              		.eabi_attribute 21, 1
   6              		.eabi_attribute 23, 3
   7              		.eabi_attribute 24, 1
   8              		.eabi_attribute 25, 1
   9              		.eabi_attribute 26, 1
  10              		.eabi_attribute 30, 6
  11              		.eabi_attribute 34, 1
  12              		.eabi_attribute 18, 4
  13              		.thumb
  14              		.file	"chregistry.c"
  15              		.text
  16              	.Ltext0:
  17              		.section	.gnu.lto_.inline.91253c2fe6d10893,"",%progbits
  18 0000 789C6362 		.ascii	"x\234cb`b\300\006&Bi6\006\006\026f\006\006&\226\017"
  18      6062C006 
  18      26426936 
  18      06061666 
  18      06062696 
  19 0015 7A0C2C10 		.ascii	"z\014,\020\265\214\030\"L\014,<@\222i\201<\\\015\027"
  19      B58C1822 
  19      4C0C2C3C 
  19      40926981 
  19      3C5C0D17 
  20 0029 9060C62E 		.ascii	"\220`\306.\314\302\300)\005\024\346z\020\213\"\014&"
  20      CCC2C029 
  20      0514E67A 
  20      108B220C 
  20      26
  21 003a D81878D5 		.ascii	"\330\030x\325\201r|\015\265p\263\271Q\0240\000\000\242"
  21      81727C0D 
  21      B570B3B9 
  21      51143000 
  21      00A2
  22 004c 3707C8   		.ascii	"7\007\310"
  23              		.text
  24              		.section	.gnu.lto_port_lock.91253c2fe6d10893,"",%progbits
  25 0000 789C6362 		.ascii	"x\234cb`b@\007\"@,\310\310\300P\007\342030\002U021\002"
  25      60624007 
  25      22402CC8 
  25      C8C05007 
  25      E2303330 
  26 001a 05181819 		.ascii	"\005\030\030\031\352\231\030\353#AL\006F%\206\205\015"
  26      EA9918EB 
  26      23414C06 
  26      46258685 
  26      0D
  27 002b 0D931EB4 		.ascii	"\015\223\036\264>{\3144\263\341@\313\202\206?\377\377"
  27      3E7BCC34 
  27      B3E140CB 
  27      82863FFF 
  27      FF
  28 003c 33326632 		.ascii	"32f2\002M\324cdHfd\210\000r\030\025\300\024\023\013"
  28      024DD463 
ARM GAS  /tmp/cclnJnxQ.s 			page 2


  28      64486664 
  28      88007218 
  28      15C01413 
  29 0051 AA15EB99 		.ascii	"\252\025\353\231\016<\370\377\377D\347\363\275@\223"
  29      0E3CF8FF 
  29      FF44E7F3 
  29      BD4093
  30 0060 19121917 		.ascii	"\031\022\031\027\002M\003\002V\206\226\206\206\011\012"
  30      024D0302 
  30      56869686 
  30      86090A
  31 006f 0C20DD40 		.ascii	"\014 \335@\020\002&CA\016`>\313\320\264\003H\24732\202"
  31      10022643 
  31      410E603E 
  31      CBD0B403 
  31      48A73332 
  32 0084 CC6300AA 		.ascii	"\314c\000\252a8\307\320\364\361\315\214\307\022p]`F"
  32      6138C7D0 
  32      F4F1CD8C 
  32      C712705D 
  32      6046
  33 0096 C381EE2B 		.ascii	"\303\201\356+\355\2540#\023\031\0273\262\002\215\203"
  33      EDAC3023 
  33      13191733 
  33      B2028D83 
  34 00a6 38190893 		.ascii	"8\031\010\223\231A>f\206x[\216\241dn\303\014\207LFf"
  34      99413E66 
  34      86785B8E 
  34      A1646EC3 
  34      0C874C46 
  35 00bb 102F1DAC 		.ascii	"\020/\035\254\012.U\016\221\202\272\374\"C\343\203\235"
  35      0A2E550E 
  35      9182BAFC 
  35      2243E383 
  35      9D
  36 00cc FA10E360 		.ascii	"\372\020\343` \004\244\001\244Z[OO\3379#3)\323?X?\277"
  36      2004A401 
  36      A45A5B4F 
  36      4FDF3923 
  36      3329D33F 
  37 00e3 58BFA844 		.ascii	"X\277\250D\277 \277\250\244X\3371\310\327\331\267B?"
  37      BF20BFA8 
  37      A458DF31 
  37      C8D7D9B7 
  37      423F
  38 00f5 392339BF 		.ascii	"9#9\277(5\276\314<W/\203\201\265,1\2474U\017UGjE\211"
  38      2835BECC 
  38      3C572F83 
  38      81B52C31 
  38      A734550F 
  39 010e BEB36FB0 		.ascii	"\276\263o\260g\260~f^rNiJ\252>XGr\256[i^2P\223\200o"
  39      67B07E66 
  39      5E724E69 
  39      4AAA3E58 
  39      4772AE5B 
  40 0129 70904252 		.ascii	"p\220BRbqjAQ\246\216\202\252\001\003S\021\003{njn~Q"
  40      62716A41 
ARM GAS  /tmp/cclnJnxQ.s 			page 3


  40      51A68E82 
  40      AA010353 
  40      11037B6E 
  41 0141 2503005A 		.ascii	"%\003\000Z\240au"
  41      A06175
  42              		.text
  43              		.section	.gnu.lto_port_unlock.91253c2fe6d10893,"",%progbits
  44 0000 789C6362 		.ascii	"x\234cb`b@\007\"@,\310\310\300P\007\342030\002U021\002"
  44      60624007 
  44      22402CC8 
  44      C8C05007 
  44      E2303330 
  45 001a 05181819 		.ascii	"\005\030\030\031\352\231\030\353#AL\006F%\206\205\015"
  45      EA9918EB 
  45      23414C06 
  45      46258685 
  45      0D
  46 002b 0D931EB4 		.ascii	"\015\223\036\264~z\3144\263\341@\313\202\206?\377\377"
  46      7E7ACC34 
  46      B3E140CB 
  46      82863FFF 
  46      FF
  47 003c 33326632 		.ascii	"32f2\002M\324cdHfd\210\000r\030\025\300\024\023\013"
  47      024DD463 
  47      64486664 
  47      88007218 
  47      15C01413 
  48 0051 AA15EB99 		.ascii	"\252\025\353\231\016<\370\377\377E\347\376}@\223\031"
  48      0E3CF8FF 
  48      FF45E7FE 
  48      7D409319 
  49 0061 12191702 		.ascii	"\022\031\027\002M\003\002V\206\226\206\206\011\012\014"
  49      4D030256 
  49      86968686 
  49      090A0C
  50 0070 20DD4010 		.ascii	" \335@\020\002&CA\016`>\313\320\264\003H\24732\202\314"
  50      02264341 
  50      0E603ECB 
  50      D0B40348 
  50      A7333282 
  51 0085 031B728E 		.ascii	"\003\033r\216\241\351\343\233\031\217%\340\272\300\214"
  51      A1E9E39B 
  51      198F25E0 
  51      BAC08C
  52 0094 8603A79F 		.ascii	"\206\003\247\237\266\263\302\214Ld\\\314\310\0124\016"
  52      B6B3C28C 
  52      4C645CCC 
  52      C80A340E 
  53 00a4 E264204C 		.ascii	"\342d Lf\006\371\230\031\342m9\206\222\271\0153\034"
  53      6606F998 
  53      19E26D39 
  53      8692B90D 
  53      331C
  54 00b6 32199941 		.ascii	"2\031\231A\274t\260*\270T9D\012\352\362\213\014\215"
  54      BC74B02A 
  54      B8543944 
  54      0AEAF28B 
ARM GAS  /tmp/cclnJnxQ.s 			page 4


  54      0C8D
  55 00c8 0FCEEB43 		.ascii	"\017\316\353C\214\203\201\020\220\006\220jm==}\347\214"
  55      8C838110 
  55      9006906A 
  55      6D3D3D7D 
  55      E78C
  56 00da CCA44CFF 		.ascii	"\314\244L\377`\375\374b\375\242\022\375\202\374\242"
  56      60FDFC62 
  56      FDA212FD 
  56      82FCA2
  57 00e9 92627DC7 		.ascii	"\222b}\307 _g\337\012\375\344\214\344\374\242\324\370"
  57      205F67DF 
  57      0AFDE48C 
  57      E4FCA2D4 
  57      F8
  58 00fa 32F35CBD 		.ascii	"2\363\\\275\014\006\326\262\304\234\322T=T\035\251\025"
  58      0C06D6B2 
  58      C49CD254 
  58      3D541DA9 
  58      15
  59 010b 25FACEBE 		.ascii	"%\372\316\276\301\236\301\372\231y\3119\245)\251\372"
  59      C19EC1FA 
  59      9979C939 
  59      A529A9FA 
  60 011b 601DC9B9 		.ascii	"`\035\311\271n\245y\311@M\002\276\301A\012I\211\305"
  60      6EA579C9 
  60      404D02BE 
  60      C1410A49 
  60      89C5
  61 012d A9054599 		.ascii	"\251\005E\231:\012\252\006\014LE\014\354\271\251\271"
  61      3A0AAA06 
  61      0C4C450C 
  61      ECB9A9B9 
  62 013d F945950C 		.ascii	"\371E\225\014\000\233\025a\301"
  62      009B1561 
  62      C1
  63              		.text
  64              		.section	.gnu.lto_chSysLock.91253c2fe6d10893,"",%progbits
  65 0000 789C6362 		.ascii	"x\234cb`b@\007\"@\\\006\304\312 \0163\003#P\005#\023"
  65      60624007 
  65      22405C06 
  65      C4CA200E 
  65      33032350 
  66 0017 232390C3 		.ascii	"##\220\303\310P\317\304X\037\311\010V\266\236\351\300"
  66      C850CFC4 
  66      581FC908 
  66      56B69EE9 
  66      C0
  67 0028 83FFFFD7 		.ascii	"\203\377\377\327}\231\266\354\017\343m&\220\030+CKC"
  67      7D99B6EC 
  67      0FE36D26 
  67      90182B43 
  67      4B43
  68 003a C3040506 		.ascii	"\303\004\005\006\206d\260\212\0200\031\012\322\317|"
  68      8664B08A 
  68      1030190A 
  68      D2CF7C
ARM GAS  /tmp/cclnJnxQ.s 			page 5


  69 0049 9EA1F9C1 		.ascii	"\236\241\371\301\236n\366D\306\205\214\254@\301j\206"
  69      9E6EF644 
  69      C6858CAC 
  69      40C16A86 
  70 0059 5F0D1D0D 		.ascii	"_\015\035\015\002\231\214@\245\020\3232A\364E\206\306"
  70      02998C40 
  70      A510D332 
  70      41F44586 
  70      C6
  71 006a 07FBB561 		.ascii	"\007\373\265a\212  \004$\001r\244\242\236\236\276sF"
  71      8A202004 
  71      240172A4 
  71      A29E9EBE 
  71      7346
  72 007c 6652A67F 		.ascii	"fR\246\177\260~~\261~Q\211~f^rNiJ\252~rFqe\261^\006"
  72      B07E7EB1 
  72      7E51897E 
  72      665E724E 
  72      694AAA7E 
  73 0097 0300A9F5 		.ascii	"\003\000\251\365'\020"
  73      2710
  74              		.text
  75              		.section	.gnu.lto_chSysUnlock.91253c2fe6d10893,"",%progbits
  76 0000 789C6362 		.ascii	"x\234cb`b@\007\322@\334\301\310\300\240\014\342\260"
  76      60624007 
  76      D240DCC1 
  76      C8C0A00C 
  76      E2B0
  77 0012 30300255 		.ascii	"00\002U0212\003IfF\2400\003#C=\0233c}$\210\315\300\246"
  77      30323132 
  77      03496646 
  77      A0300323 
  77      433D1333 
  78 002d C4B0B0A1 		.ascii	"\304\260\260\241a\322\203\247\337gIv-h\232\320\360\357"
  78      61D283A7 
  78      DF674976 
  78      2D689AD0 
  78      F0EF
  79 003f FF7FC64C 		.ascii	"\377\177\306L\220T2#C\004\220\305\250\000\246\230XP"
  79      90543223 
  79      430490C5 
  79      A800A698 
  79      5850
  80 0051 2D81686B 		.ascii	"-\201hk\330\264\242\201sA\303\237\377\377\231\311\323"
  80      D8B4A281 
  80      7341C39F 
  80      FFFF99C9 
  80      D3
  81 0062 C33C58EC 		.ascii	"\303<X\354\311edX\317t\340\301\377\377ov\356|\364\206"
  81      C9656458 
  81      CF74E0C1 
  81      FFFF6F76 
  81      EE7CF486 
  82 0076 5114640B 		.ascii	"Q\024d\013+CKC\303\004\205\\\250\215@\020\002%\201A"
  82      2B434B43 
  82      C304855C 
  82      A88D4010 
ARM GAS  /tmp/cclnJnxQ.s 			page 6


  82      02258141 
  83 008a CA1C0A32 		.ascii	"\312\034\0122\224\371<C\363\203\327\247\331\023\031"
  83      94F93C43 
  83      F383D7A7 
  83      D91319
  84 0099 9731B202 		.ascii	"\2271\262\002\245\252\031~5t4\010d2\262$\203\303\232"
  84      A5AA197E 
  84      35743408 
  84      6432B224 
  84      83C39A
  85 00ac 81211324 		.ascii	"\201!\023$~\221\241\361\301\033m\230\"\010\010\001)"
  85      7E91A1F1 
  85      C11B6D98 
  85      22080801 
  85      29
  86 00bd 00C59EA2 		.ascii	"\000\305\236\242\236\236\276sFfR\246\177\260~~\261~"
  86      9E9EBE73 
  86      466652A6 
  86      7FB07E7E 
  86      B17E
  87 00cf 51897E66 		.ascii	"Q\211~f^rNiJ\252~rFqe\261^\006\003\000\341Gc\351"
  87      5E724E69 
  87      4AAA7E72 
  87      467165B1 
  87      5E060300 
  88              		.text
  89              		.section	.gnu.lto_chRegFirstThread.91253c2fe6d10893,"",%progbits
  90 0000 789C8D50 		.ascii	"x\234\215P;H\003A\020\235\331\275\230\250\205b#b#\001"
  90      3B480341 
  90      109DD9BD 
  90      98A88562 
  90      23622301 
  91 0014 11157258 		.ascii	"\021\025rXX[XY\251\250\240\2459%n!J\222F,\334\370\201"
  91      585B5859 
  91      A9A8A0A5 
  91      39256E21 
  91      4A92462C 
  92 002b 60118295 		.ascii	"`\021\202\225\032\220\210\370-\3242\020\2134\026QDl"
  92      1A9088F8 
  92      2DD43210 
  92      8B341651 
  92      446C
  93 003d C522D8D9 		.ascii	"\305\"\330\331Y\212\210\353\314]NQ\004]\270\331\271"
  93      598A88EB 
  93      CC5D4E51 
  93      045DB8D9 
  93      B9
  94 004e B7F3DECC 		.ascii	"\267\363\336\314<\001\002~\236V\372\236\010\356\340"
  94      3C01027E 
  94      9E56FA9E 
  94      08EEE0
  95 005d 1F0B9052 		.ascii	"\037\013\220R\024()JD\202\020\226\204\304\245\011\316"
  95      1428294A 
  95      44821096 
  95      84C4A509 
  95      CE
  96 006e 2110865D 		.ascii	"!\020\206]\2557*\373\007\307\315\353\025\235\325\357"
ARM GAS  /tmp/cclnJnxQ.s 			page 7


  96      AD372AFB 
  96      07C7CDEB 
  96      159DD5EF 
  97 007e C6A0E227 		.ascii	"\306\240\342'\007a\2342\014\271\227\300\357M<\232.>"
  97      07619C32 
  97      0CB997C0 
  97      EF4D3C9A 
  97      2E3E
  98 0090 0C6DEAD5 		.ascii	"\014m\352\325\2221}\377\347\234\036i\231\327o\306\310"
  98      92317DFF 
  98      E79C1E69 
  98      99D76FC6 
  98      C8
  99 00a1 FF72B64B 		.ascii	"\377r\266K\305\253\362.\0227\365lL\203\342e|Z\233G\263"
  99      C5ABF22E 
  99      1237F56C 
  99      4C83E265 
  99      7C5A9B47 
 100 00b6 7E6B55DA 		.ascii	"~kU\332\272\312\264\350\374\262\277\225\024\320\216"
 100      BACAB4E8 
 100      FCB2BF95 
 100      14D08E
 101 00c5 7F30CF44 		.ascii	"\1770\317D\251b\314\305\335\321\343\0166\325 L\342>"
 101      A962CCC5 
 101      DDD1E30E 
 101      36D5204C 
 101      E23E
 102 00d7 86C9659A 		.ascii	"\206\311e\232Ur\2608\004\300\235\201\356U\255\263m^"
 102      5572B038 
 102      04C09D81 
 102      EE55ADB3 
 102      6D5E
 103 00e9 8D3B139D 		.ascii	"\215;\023\235Q7\216\261\357\362\026V*\231\265\340$\036"
 103      51378EB1 
 103      EFF21656 
 103      2A99B5E0 
 103      241E
 104 00fb 6280C045 		.ascii	"b\200\300Ex\325i\335\250\320r\320[T1~\003\313\367/{"
 104      78D569DD 
 104      A8D072D0 
 104      5B54317E 
 104      03CBF72F 
 105 0110 3D5E550C 		.ascii	"=^U\014\261\033N4\235ajRM{\025\326\344`;\245\231\034"
 105      B11B4E34 
 105      9D616A52 
 105      4D7B15D6 
 105      E4603BA5 
 106 0126 FC9409CD 		.ascii	"\374\224\011\315\272*\274G\310\225\213V\355\213\242"
 106      BA2ABC47 
 106      C8958B56 
 106      ED8BA2
 107 0135 EF236B17 		.ascii	"\357#k\027\016:}m\321\015]\012kI\2138u\324\213\271\262"
 107      0E3A7D6D 
 107      D10D5D0A 
 107      6B498B38 
 107      75D48BB9 
 108 014a CA115F9C 		.ascii	"\312\021_\234\362y\320\247\310\030?\334\300JZ\372\220"
ARM GAS  /tmp/cclnJnxQ.s 			page 8


 108      F279D0A7 
 108      C8183FDC 
 108      C04A5AFA 
 108      90
 109 015b 4528136B 		.ascii	"E(\023k\321\253\036\360\036\252\303\326\377\321\200"
 109      D1AB1EF0 
 109      1EAAC3D6 
 109      FFD180
 110 016a F800EC4C 		.ascii	"\370\000\354L\356\362Wg\3047g\312\205\303\026\277o "
 110      EEF25767 
 110      C43767CA 
 110      85C316BF 
 110      6F20
 111 017c E6EF35C6 		.ascii	"\346\3575\306\232\362\032R\264\367\024\203w\200\237"
 111      9AF21A52 
 111      B4F71483 
 111      77809F
 112 018b 555EC928 		.ascii	"U^\311(\303\254\025\216D\354\376\031\025U\203#\366\\"
 112      C3AC158E 
 112      44ECFE19 
 112      15558323 
 112      F65C
 113 019d C28E27ED 		.ascii	"\302\216'\355D\334\261\235\231\370tL%\222\361\205\210"
 113      44DCB19D 
 113      99F8744C 
 113      2592F185 
 113      88
 114 01ae 032239FF 		.ascii	"\003\"9\377\001\363\177\253t"
 114      01F37FAB 
 114      74
 115              		.text
 116              		.section	.gnu.lto_chRegNextThread.91253c2fe6d10893,"",%progbits
 117 0000 789C9D53 		.ascii	"x\234\235S1h\024A\024\375\177f\366v/\026\212\215\004"
 117      31681441 
 117      14FD7F66 
 117      F6762F16 
 117      8A8D04
 118 0013 2CC28120 		.ascii	",\302\201 \006n\261Q\254,\254\254\024\214\240en\023"
 118      066EB151 
 118      AC2CACAC 
 118      148CA065 
 118      6E13
 119 0025 2E539CCA 		.ascii	".S\234\312\335YH\212\314%\027\010F\344\320\346\210M"
 119      DD59488A 
 119      CC251708 
 119      46E4D0E6 
 119      884D
 120 0037 D248B430 		.ascii	"\322H\2640\250 \"A.\240\340\031$\\\025\022\025\0261"
 120      A8202241 
 120      2EA0E019 
 120      245C1512 
 120      151631
 121 004a A89D6594 		.ascii	"\250\235e\224\340\370ggwOc \301\201\375\263\363\367"
 121      E0F86767 
 121      774F6320 
 121      C181FDB3 
 121      F3F7
ARM GAS  /tmp/cclnJnxQ.s 			page 9


 122 005c BDFFDF7F 		.ascii	"\275\377\337\177\273\313\200\301\366u\202\2566\0078"
 122      BBCB80C1 
 122      F67582AE 
 122      360738
 123 006b 6A0E2E20 		.ascii	"j\016. !\2201J(&(\010\216\016eD\024\035\314P\314 \022"
 123      2190314A 
 123      28262808 
 123      8E0E6544 
 123      141DCC50 
 124 0082 14618C71 		.ascii	"\024a\214q\341dp\3542F\324\034\314)u'\334x\372\340\320"
 124      E16470EC 
 124      3246D41C 
 124      CC297527 
 124      DC78FAE0 
 125 0097 CD5035D4 		.ascii	"\315P5\324/\255Q\232G\001\302%\272C/\332\030\376\335"
 125      2FAD519A 
 125      4701C225 
 125      BA432FDA 
 125      18FEDD
 126 00aa DFD25A8F 		.ascii	"\337\322Z\217\247o\375\007Mu>\234o\252zK\353\323{\347"
 126      A76FFD07 
 126      4D753E9C 
 126      6FAA7A4B 
 126      EBD37BE7 
 127 00be 3C9A577C 		.ascii	"<\232W|Vmi\315\367\312\231iu\226\333sH\334\332w\255"
 127      566D69CD 
 127      F7CA9969 
 127      7596DB73 
 127      48DCDA77 
 128 00d3 F74BE45D 		.ascii	"\367K\344]Z\237\245\211\035\247\372\361\366v\257\232"
 128      5A9FA589 
 128      1DA7FAF1 
 128      F676AF9A 
 129 00e3 1D4FA6E2 		.ascii	"\035O\246\342\014\216\340.\314\022\302\002k\205Z/\256"
 129      0C8EE02E 
 129      CC12C202 
 129      6B855A2F 
 129      AE
 130 00f4 7EFEF40D 		.ascii	"~\376\364\015\017f\021\006\361>\346\200a\011\251\261"
 130      0F661106 
 130      F13EE680 
 130      6109A9B1 
 131 0104 3D887877 		.ascii	"=\210xw\200f\310\230\340\232\340A\244\215\322u\245\032"
 131      8066C898 
 131      E09AE041 
 131      A48DD275 
 131      A51A
 132 0116 7D16538A 		.ascii	"}\026S\212\247\2445\020\305\213\346%\363\025\230\010"
 132      A7A43510 
 132      C58BE625 
 132      F3159808 
 133 0126 5F4EBA83 		.ascii	"_N\272\2038o\336-\214\302O5\245\016H\024\001Z\017\244"
 133      386FDE2D 
 133      8CC24F35 
 133      A50E4814 
 133      015A0FA4 
 134 013a C9BF83F1 		.ascii	"\311\277\203\361\365\315\205S\026UD\336\017\017\025"
ARM GAS  /tmp/cclnJnxQ.s 			page 10


 134      F5CD8553 
 134      165544DE 
 134      0F0F15
 135 0149 AD93D4E7 		.ascii	"\255\223\324\347\036\314\220\376L\021\231\231\203G\234"
 135      1ECC90FE 
 135      4C119999 
 135      83479C
 136 0158 426ADF1B 		.ascii	"Bj\337\033x\365e\351\3564O\231\266\201\272.\321\215"
 136      78F565E9 
 136      EE344F99 
 136      B681BA2E 
 136      D18D
 137 016a 8B8C4AF4 		.ascii	"\213\214J\364J\310\012\270\315s\253\221\012r\352\376"
 137      4AC80AB8 
 137      CD73AB91 
 137      0A72EAFE 
 138 017a 7CF3491B 		.ascii	"|\363I\033\223\"\242\333)\302\010\213Yo>[J1N?\034\223"
 138      9322A2DB 
 138      29C2088B 
 138      596F3E5B 
 138      4A314E3F 
 139 0190 984DD5F1 		.ascii	"\230M\325\361?\325%\337?\221\332\215\236\204B\250h\324"
 139      3FD525DF 
 139      3F91DA8D 
 139      9E8442A8 
 139      68D4
 140 01a2 89A954AE 		.ascii	"\211\251T\256KYC\314\242E\237\265\017b\345\307wi@\374"
 140      4B5943CC 
 140      A2459FB5 
 140      0F62E5C7 
 140      776940FC 
 141 01b6 44A2135B 		.ascii	"D\242\023[\375\376\365\216V\263\256\325+P\017?n\374"
 141      FDFEF58E 
 141      56B3AED5 
 141      2B500F3F 
 141      6EFC
 142 01c8 8BEA09E2 		.ascii	"\213\352\011\342\352\344\264\304}V|\363Eo\"\325+Z\003"
 142      EAE4B4C4 
 142      7D567CF3 
 142      456F22D5 
 142      2B5A03
 143 01db D700C921 		.ascii	"\327\000\311!\276\2706D\232\304\326\352a\323\236~X\276"
 143      BEB83644 
 143      9AC4D6EA 
 143      61D39E7E 
 143      58BE
 144 01ed 0C350F60 		.ascii	"\0145\017`\310T\351@-\374:\2342\255\310\001\3037Br\371"
 144      C854E940 
 144      2DFC3A9C 
 144      32ADC801 
 144      C3374272 
 145 0202 BC7F6644 		.ascii	"\274\177fD\026\344\271\013\376\325\212_\256\372\225"
 145      16E4B90B 
 145      FED58A5F 
 145      AEFA95
 146 0211 72E00723 		.ascii	"r\340\007#\345\341\242\254T\3137\362\001\360+\325k\277"
 146      E5E1A2AC 
ARM GAS  /tmp/cclnJnxQ.s 			page 11


 146      54CB37F2 
 146      01F02BD5 
 146      6BBF
 147 0223 012ED4E0 		.ascii	"\001.\324\340j"
 147      6A
 148              		.text
 149              		.section	.gnu.lto_.symbol_nodes.91253c2fe6d10893,"",%progbits
 150 0000 789C4DC8 		.ascii	"x\234M\3101\022\202@\020D\321\356\031X\271\205g\363"
 150      31128240 
 150      1044D1EE 
 150      1958B985 
 150      67F3
 151 0012 24BD4560 		.ascii	"$\275E`\021\232p\002\002\010=\003\00704\326\334D\245"
 151      119A7002 
 151      02083D03 
 151      073034D6 
 151      DC44A5
 152 0025 08D1AD62 		.ascii	"\010\321\255b\203\235\344\317k\203\341\212|\366\203"
 152      839DE4CF 
 152      6B83E18A 
 152      7CF683
 153 0034 80CB0D90 		.ascii	"\200\313\015\220\372\356d\221b\301\221\262\202\023\345"
 153      FAEE6491 
 153      62C191B2 
 153      8213E5
 154 0043 053F5495 		.ascii	"\005?T\225y\357X/L\037\354K\325\305\372&\017\002W*\354"
 154      79EF582F 
 154      4C1FEC4B 
 154      D5C5FA26 
 154      0F02572A 
 155 0058 6B8C7403 		.ascii	"k\214t\003\332\307Fw\356\255,\3271?SCvp\264\347\327"
 155      DAC74677 
 155      EEAD2CD7 
 155      313F5343 
 155      7670B4E7 
 156 006d D1438321 		.ascii	"\321C\203!\025\177\327\0257f"
 156      157FD715 
 156      3766
 157              		.text
 158              		.section	.gnu.lto_.refs.91253c2fe6d10893,"",%progbits
 159 0000 789C6362 		.ascii	"x\234cb`b\340d\200\000F\026\006VF6&V\006\000\001r\000"
 159      6062E064 
 159      80004616 
 159      06564636 
 159      26560600 
 160 0017 26       		.ascii	"&"
 161              		.text
 162              		.section	.gnu.lto_.decls.91253c2fe6d10893,"",%progbits
 163 0000 789CC55B 		.ascii	"x\234\305[{p\024\307\231\237\231\325\023-\222Bb\027"
 163      7B7014C7 
 163      999F99D5 
 163      132D9242 
 163      6217
 164 0012 BEE3CEB2 		.ascii	"\276\343\316\262\317N|\366\201\004\301@\256\352\002"
 164      CF4E7CF6 
 164      8104C140 
 164      AEEA02
ARM GAS  /tmp/cclnJnxQ.s 			page 12


 165 0021 39728953 		.ascii	"9r\211Su\316\271L\\u\377\244\326\303j$\355yWZ\317\216"
 165      75CEB94C 
 165      5C75FFA4 
 165      D6C36A24 
 165      ED79575A 
 166 0037 10E41F8F 		.ascii	"\020\344\037\217\004(\030(\020/\011c@\002\363\0166\010"
 166      04281828 
 166      102F0963 
 166      4002F30E 
 166      3608
 167 0049 1F608C03 		.ascii	"\037`\214\003Cx\030\020X\0100\002\014B\211\001\305q"
 167      43781810 
 167      58083002 
 167      0C428901 
 167      C571
 168 005b 4C300F03 		.ascii	"L0\017\0036A\367\3657\335\2633\2633\253\031a\347\246"
 168      3641F7F5 
 168      37DDB333 
 168      B333AB19 
 168      61E7A6
 169 006e 6A7ABB7B 		.ascii	"jz\273{\272\177\375\365\367\352\257{f\005N\340\206\010"
 169      BA7FFDF5 
 169      F7EAAF7B 
 169      66054EE0 
 169      8608
 170 0080 1CD70BD7 		.ascii	"\034\327\013\327\212q\034\367\313\034\216\313\3468\356"
 170      8A711CF7 
 170      CB1C8ECB 
 170      E638EE
 171 008f 875CF222 		.ascii	"\207\\\362\"\345\025p\257\201{=\334\033\341\336\004"
 171      E51570AF 
 171      817B3DDC 
 171      1BE1DE04 
 172 009f 778CE738 		.ascii	"w\214\3478\005n\350\316M\206\337\323<g\271H\237L\270"
 172      056EE8CE 
 172      4D86DFD3 
 172      3C67B948 
 172      9F4CB8
 173 00b2 35B8F3E1 		.ascii	"5\270\363\341\016\222_h\\(\350\317\005\332f\220\300"
 173      0E925F68 
 173      5C28E8CF 
 173      05DA6690 
 173      C0
 174 00c3 A55C6B3C 		.ascii	"\245\\k<\364]\343\322w=}\376\367\220\254\344\222\355"
 174      F45DE3D2 
 174      773D7DFE 
 174      F790ACE4 
 174      92ED
 175 00d5 D7D3F1EC 		.ascii	"\327\323\361\354\027\231O\026\334\255\246\261\262\035"
 175      17994F16 
 175      DCADA6B1 
 175      B21D
 176 00e3 FA6FA463 		.ascii	"\372o\244c\222i\016\261\215K\370\221G\2371\214V\023"
 176      92690EB1 
 176      8D4BF891 
 176      479F318C 
 176      5613
ARM GAS  /tmp/cclnJnxQ.s 			page 13


 177 00f5 860A0FA6 		.ascii	"\206\012\017\246\300\375(\224\013\340w\013\324\005\340"
 177      C0FD2894 
 177      0BE0770B 
 177      D405E0
 178 0104 7E05F2B3 		.ascii	"~\005\362\263\341\316\347\365\362&.\311c\306\327\177"
 178      E1CEE7F5 
 178      F2262EC9 
 178      63C6D77F 
 179 0114 B28D45F8 		.ascii	"\262\215E\370\036L3\026\301~L\320\307$c=\016\371j\212"
 179      1E4C3316 
 179      C17E4CD0 
 179      C724633D 
 179      0EF96A8A 
 180 0128 DF43C724 		.ascii	"\337C\307$\343eP,6\236B\353\276\013\355_\346\365\261"
 180      E365502C 
 180      369E42EB 
 180      BE0BED5F 
 180      E6F5B1
 181 013b 9FB28DFD 		.ascii	"\237\262\215\3750\267\\\325\216uO\277\374\261\360\232"
 181      30B75CD5 
 181      8E754FBF 
 181      FCB1F09A 
 182 014b AA4D5341 		.ascii	"\252MSAmT\276\350An\221\012WK\275\252\362\212\310\377"
 182      6D54BEE8 
 182      416E910A 
 182      574BBDAA 
 182      F28AC8FF 
 183 015f F001EEBF 		.ascii	"\360\001\356\277y\221\317\317\345\2120\023\314E\\\216"
 183      7991CFCF 
 183      E58A3013 
 183      CC455C8E 
 184 016f 13F995FC 		.ascii	"\023\371\225\374\2034\367B\200qv\030\317=\311\255\207"
 184      8334F742 
 184      80717618 
 184      CF3DC9AD 
 184      87
 185 0180 FE0DAA5A 		.ascii	"\376\015\252Z\367\217\016\002\002\222\270\325d\000u"
 185      F78F0E02 
 185      0292B8D5 
 185      640075
 186 018f 9D1A4078 		.ascii	"\235\032@x\002\260\202\177\330\334D\344\337\340-\304"
 186      02B0827F 
 186      D8DC44E4 
 186      DFE02DC4 
 187 019f EAA46A0D 		.ascii	"\352\244j\015\027\202\015\265\335\275\275\315-\205\372"
 187      17820DB5 
 187      DDBDBDCD 
 187      2D85FA
 188 01ae F0023796 		.ascii	"\360\0027\226\207\326\253\370'\323\302\257\261\303\257"
 188      87D6ABF8 
 188      27D3C2AF 
 188      B1C3AF
 189 01bd 7582EFDE 		.ascii	"u\202\357\336V\177>\323\304\0116D\314\313\020\353\355"
 189      567F3ED3 
 189      C4093644 
 189      CCCB10EB 
 189      ED
ARM GAS  /tmp/cclnJnxQ.s 			page 14


 190 01ce 436C709C 		.ascii	"Clp\234\301\322\316\224\031\324x\201\337h\207\1773\025"
 190      C1D2CE94 
 190      19D47881 
 190      DF68877F 
 190      3315
 191 01e0 BE45EB6E 		.ascii	"\276E\353n:\274\177\013?o\252zP\275\332\333[Ph\221e"
 191      3ABC7F0B 
 191      3F6FAA7A 
 191      50BDDADB 
 191      5B506891 
 192 01f5 1E371364 		.ascii	"\0367\023dB\012\317\034\314\037\304\315#O\212\016\202"
 192      420ACF1C 
 192      CC1FC4CD 
 192      234F8A0E 
 192      82
 193 0206 D251F9B6 		.ascii	"\322Q\371\266d0\001\377\030\000\037\347V\201\020\273"
 193      643001FF 
 193      18001FE7 
 193      568110BB 
 194 0216 97B5EDFE 		.ascii	"\227\265\355\376WU\315\021\371-\374 \240\365(o%\266"
 194      5755CD11 
 194      F92DFC20 
 194      A0F5286F 
 194      25B6
 195 0228 4F18813B 		.ascii	"O\030\201;\205]\266Bw\275#\002\253\335\363\346\356\237"
 195      855DB642 
 195      77BD2302 
 195      ABDDF3E6 
 195      EE9F
 196 023a CAD7025D 		.ascii	"\312\327\002]\3723\316\306\003\323\365\010\327\002t"
 196      FA33CEC6 
 196      03D3F508 
 196      D70274
 197 0249 6B4D7396 		.ascii	"kMs\226=\244\266\374\016\332\267\362y\200;U`\270N\372"
 197      3DA4B6FC 
 197      0EDAB7F2 
 197      79803B55 
 197      60B84EFA 
 198 025d 49B3FA45 		.ascii	"I\263\372E\033X\361\226|\020l\020\031\330L\337`E\026"
 198      1B58F196 
 198      7C106C10 
 198      19D84CDF 
 198      604516
 199 0270 B0E60F96 		.ascii	"\260\346\017\226\"q\271\334\214$\2179G0\312\330\023"
 199      2271B9DC 
 199      8C248F39 
 199      4730CAD8 
 199      13
 200 0281 F3F775F0 		.ascii	"\363\367u\360Sq\376\277\205n\002wP\260\262\326;TG\343"
 200      5371FEBF 
 200      856E0277 
 200      50B0B2D6 
 200      3B5447E3 
 201 0295 FE3D7C1D 		.ascii	"\376=|\035Bi\010\265/\320_\250\235\313\337\373\001\212"
 201      426908B5 
 201      2FD05FA8 
 201      9DCBDFFB 
ARM GAS  /tmp/cclnJnxQ.s 			page 15


 201      018A
 202 02a7 7B2F021D 		.ascii	"{/\002\035\317\260\002\211|\266\301F\243\314\032\020"
 202      CFB00289 
 202      7CB6C146 
 202      A3CC1A10 
 203 02b7 347C4C33 		.ascii	"4|L3d\031*\340\276\341\346\002w>\303\203\350r\334\364"
 203      64192AE0 
 203      BEE1E602 
 203      773EC383 
 203      E872DCF4 
 204 02cb 40ED6E98 		.ascii	"@\355n\230{$@\214>@u\271%\313\215G\002w\021\307:h\327"
 204      7B24408C 
 204      3E4075B9 
 204      25CB8D47 
 204      027711C7 
 205 02e2 E51D3D07 		.ascii	"\345\035=\007\377y\261\252\026\352\217\372V\345\255"
 205      FF79B1AA 
 205      16EA8FFA 
 205      56E5AD
 206 02f1 879B505B 		.ascii	"\207\233P[\372\264H\201\015\377\030\016\2770\223\014"
 206      FAB44881 
 206      0DFF180E 
 206      BF30930C 
 207 0301 7FD43EFC 		.ascii	"\177\324>\374\352\336=<\012\355\250\247\321;\216/L\035"
 207      EADE3D3C 
 207      0AEDA8A7 
 207      D13B8E2F 
 207      4C1D
 208 0313 DDD5D153 		.ascii	"\335\325\321S\305\330\321\363\307!\3158\305\0164\230"
 208      C5D8D1F3 
 208      C721CD38 
 208      C50E3498 
 209 0323 964CBB66 		.ascii	"\226L\273f\214\315\263\312\016\312\246\006\002\267\336"
 209      8CCDB3CA 
 209      0ECAA606 
 209      02B7DE
 210 0332 20BE5FF6 		.ascii	" \276_\366\332\275z\303a\\\246\002\214\204\215\276\001"
 210      DABD7AC3 
 210      615CA602 
 210      8C848DBE 
 210      01
 211 0343 8B2C7C38 		.ascii	"\213,|8y\034\035\200\016\266\311\013\230\253\026\325"
 211      791C1D80 
 211      0EB6C90B 
 211      98AB16D5 
 212 0353 69A7CC60 		.ascii	"i\247\314`[|\203Y);m\006\333\352\005\254\320\235\262"
 212      5B7C8359 
 212      293B6D06 
 212      DBEA05AC 
 212      D09DB2
 213 0366 B366B077 		.ascii	"\263f\260w|\203Y);g\006\333\351\005l\260;e]f\260\335"
 213      7C835929 
 213      3B6706DB 
 213      E9056CB0 
 213      3B655D66 
 214 037c BEC1AC94 		.ascii	"\276\301\254\224]5\203\355\365\002V\344@\231q\271\305"
 214      5D3583ED 
ARM GAS  /tmp/cclnJnxQ.s 			page 16


 214      F50256E4 
 214      409971B9 
 214      C5
 215 038d 3C477843 		.ascii	"<GxC\315\005\356@&s\007>U\232Kb\034\316\364\353\276"
 215      CD05EE40 
 215      2673073E 
 215      559A4B62 
 215      1CCEF4EB 
 216 03a2 2CF38675 		.ascii	",\363\206u\364\350\033\374\002X\361K\330Zv\314\013b"
 216      F4E81BFC 
 216      0258F14B 
 216      D85A76CC 
 216      0B62
 217 03b4 1A85D966 		.ascii	"\032\205\331f^\030O\373\006\263\212\345$\001\263x\032"
 217      5E184FFB 
 217      06B38AE5 
 217      2401B378 
 217      1A
 218 03c5 BA1875AF 		.ascii	"\272\030u\257\326\006/N\272\272\034\206E\002a\335\257"
 218      D6062F4E 
 218      BABA1C86 
 218      450261DD 
 218      AF
 219 03d6 41042918 		.ascii	"A\004)\030\215\325\301\203\235\333\212\374\025\376q"
 219      8DD5C183 
 219      9DDB8AFC 
 219      15FE71
 220 03e5 48FFC2E7 		.ascii	"H\377\302\347\032T\350y\226\353\305mMw\246mG\303\256"
 220      1A54E879 
 220      96EBC56D 
 220      4D77A66D 
 220      47C3AE
 221 03f8 BEBABA69 		.ascii	"\276\272\272i\302\237\315\232p\311\013\233\322\230\302"
 221      C29FCD9A 
 221      70C90B9B 
 221      D298C2
 222 0407 55373669 		.ascii	"U76i\365\352\014\276\266u\210\321o\234Y'\222\316\371"
 222      F5EA0CBE 
 222      B67588D1 
 222      6F9C5927 
 222      92CEF9
 223 041a 1F36A073 		.ascii	"\0376\240s\276\201\313\366\2373\035\327\177OX\035\215"
 223      BE81CBF6 
 223      9F331DD7 
 223      7F4F581D 
 223      8D
 224 042b ED2C98B8 		.ascii	"\355,\230\270\205`\267\372\017\326\262\263k\210\232"
 224      8560B7FA 
 224      0FD6B2B3 
 224      6B889A
 225 043a 21F25F22 		.ascii	"!\362_\"\220\232e_2rm\301D\256u\271\317\315Mfz\331e"
 225      909A655F 
 225      32726DC1 
 225      44AE75B9 
 225      CFCD4D66 
 226 0451 95E237DA 		.ascii	"\225\3427\332\307M\362\327\315\222\237\225\345W\362"
 226      C74DF2D7 
ARM GAS  /tmp/cclnJnxQ.s 			page 17


 226      CD929F95 
 226      E557F2
 227 0460 1603E96E 		.ascii	"\026\003\351nh\357\0124\251Zm\300\244\352i\355\002B"
 227      68EF0A34 
 227      A95A6DC0 
 227      A4EA69ED 
 227      0242
 228 0472 C7E3BBFE 		.ascii	"\307\343\273\376\015\327\373^\344kc\226\243\200<\000"
 228      0DD7FB5E 
 228      E46B6396 
 228      A3803C00 
 229 0482 7534BEF9 		.ascii	"u4\276\371\024\002\325\011\004\250\271\337@;\227/\037"
 229      1402D509 
 229      04A8B9DF 
 229      403B972F 
 229      1F
 230 0493 8340D311 		.ascii	"\203@\323\021hm\212\244y\233\244y\253\004\014\243\243"
 230      686D8AA4 
 230      799BA479 
 230      AB040CA3 
 230      A3
 231 04a4 36F74DB5 		.ascii	"6\367M\265\025\270V\273\270,\323I\26320w\333~q\001\177"
 231      15B856BB 
 231      B82CD349 
 231      B3323077 
 231      DB7E7101 
 232 04b9 BD4E5D5C 		.ascii	"\275N]\\\342C^\363\251\274f\"wv\244p\207\260\337\337"
 232      E2435EF3 
 232      A9BC6622 
 232      7776A470 
 232      87B0DFDF 
 233 04cd 34F6F89E 		.ascii	"4\366\370\236F\216u\032s{\3721\215\335\3724\346\342"
 233      468E751A 
 233      737BFA31 
 233      8DDDFA34 
 233      E6E2
 234 04df 340E7D0D 		.ascii	"4\016}\015\323\350\360=\215B\3234`\023\331~k\241\276"
 234      D3E8F03D 
 234      8D42D334 
 234      6013D97E 
 234      6BA1BE
 235 04f2 F87D9B9B 		.ascii	"\370}\233\233\237>x'\364,\024\276m\211\234\265\233\355"
 235      9F3E7827 
 235      F42C14BE 
 235      6D899CB5 
 235      9BED
 236 0504 64974FAA 		.ascii	"d\227O\252\373\012\233Um\301q\323\026O\365\264\305;"
 236      FB0A9B55 
 236      6DC171D3 
 236      164FF5B4 
 236      C53B
 237 0516 6E6CF19A 		.ascii	"nl\361\232\220e\247\235\014\314\013TK\307\251\007\210"
 237      9065A79D 
 237      0CCC0B54 
 237      4BC7A907 
 237      88
 238 0527 235D8230 		.ascii	"#]\2020]\375\205\351\336\331\265]\267\323e\010t9E\204"
ARM GAS  /tmp/cclnJnxQ.s 			page 18


 238      5DFD85E9 
 238      DED9B55D 
 238      B7D36508 
 238      74394584 
 239 053b 59360966 		.ascii	"Y6\011fY%\010E2\322mt\220\257\320\032R\310\346\376\346"
 239      59250845 
 239      32D26D74 
 239      90AFD01A 
 239      52C8E6FE 
 240 0550 FD04EE2A 		.ascii	"\375\004\356*\222O\244\3473\374b\3323\367\310B\026:"
 240      924FA4E7 
 240      33FC62DA 
 240      33F7C842 
 240      163A
 241 0562 E902BA75 		.ascii	"\351\002\272u_\210u\332\356\371\354\214b,\011\236\324"
 241      5F8875DA 
 241      EEF9EC8C 
 241      622C099E 
 241      D4
 242 0573 ECFB83C3 		.ascii	"\354\373\203\303h\333\022\025\330\366l[\\\226\035vx"
 242      68DB1215 
 242      D8F66C5B 
 242      5C961D76 
 242      78
 243 0584 33EB005B 		.ascii	"3\353\000[\313\327\012\204\240_g\333\005\336\312\333"
 243      CBD70A84 
 243      A05F67DB 
 243      05DECADB 
 244 0594 B66DA4C2 		.ascii	"\266m\244\302\324\304\315\224\326\010\2465p\311}\315"
 244      D4C4CD94 
 244      D608A635 
 244      70C97DCD 
 245 05a4 9398F179 		.ascii	"\223\230\361y\233 Z\356\223s\257-X\346i\207\375\"\303"
 245      9B205AEE 
 245      9373AF2D 
 245      58E66987 
 245      FD22C3
 246 05b7 0AE244D6 		.ascii	"\012\342D\326\341\260\233\004\333\006\373\243\257\272"
 246      E1B09B04 
 246      DB06FBA3 
 246      AFBA
 247 05c5 EB291FC9 		.ascii	"\353)\037\311\263\276}\305G\227r\325\371A\207\361\234"
 247      B3BE7DC5 
 247      479772D5 
 247      F94187F1 
 247      9C
 248 05d6 22AE65B3 		.ascii	"\"\256e\263N\316\343\247!\372\333\0029d\353\264I\211"
 248      4ECEE3A7 
 248      21FADB02 
 248      3964EBB4 
 248      4989
 249 05e8 1D4C8C73 		.ascii	"\035L\214s\003\022\270\036\354\262\315N8\370\307:z\310"
 249      0312B81E 
 249      ECB2CD4E 
 249      38F8C73A 
 249      7AC8
 250 05fa B6CD03E1 		.ascii	"\266\315\003\341u\332\347\263\314\207l\"\277\203\027"
ARM GAS  /tmp/cclnJnxQ.s 			page 19


 250      75DAE7B3 
 250      CC876C22 
 250      BF8317
 251 0609 286EFFE4 		.ascii	"(n\377\344p\255\315\330K\210\374N\337`EN\2442MM\316"
 251      70ADCDD8 
 251      4B88FC4E 
 251      DF60454E 
 251      A4324D4D 
 252 061e 56E4DF11 		.ascii	"V\344\337\021\310\036`\207\360\010\244\357Bj\\\002w"
 252      C81E6087 
 252      F008A4EF 
 252      426A5C02 
 252      77
 253 062f DB90A913 		.ascii	"\333\220\251\023\353\372V\316\217\276\272\335\250+\247"
 253      EBFA56CE 
 253      8FBEBADD 
 253      A82BA7
 254 063e 1FCF7FC0 		.ascii	"\037\317\177\3008\334C}Vs\354\206\267\304\276X\372r"
 254      38DC437D 
 254      5673EC86 
 254      B7C4BE58 
 254      FA72
 255 0650 7DF539B6 		.ascii	"}\3659\266I\365\271k\264_n\206\375\226\331\260g\347"
 255      49F5B96B 
 255      B45F6E86 
 255      FD96D9B0 
 255      67E7
 256 0662 DC971982 		.ascii	"\334\227\031\202\376]Y\245\363\256/CTy\006W\210#/\300"
 256      FE5D59A5 
 256      F3AE2F43 
 256      54790657 
 256      88232FC0 
 257 0676 91F7D915 		.ascii	"\221\367\331\025\372\316\312C\277\246\012\275\317\223"
 257      FACECA43 
 257      BFA60ABD 
 257      CF93
 258 0684 25DE444B 		.ascii	"%\336DKd\226\265\313@\355\217.\324iw>9\304#\234\276"
 258      6496B5CB 
 258      40ED8F2E 
 258      D469773E 
 258      39C4239C 
 259 0699 393E6087 		.ascii	"9>`\207\363*\005\012wW\362\313\030]\277\2643\227H\334"
 259      F32A050A 
 259      7757F2CB 
 259      185DBFB4 
 259      339748DC 
 260 06ad 7214E7F4 		.ascii	"r\024\347\364A\212j\351\2341\251\326>\223\245\034@K"
 260      418A6AE9 
 260      9C31A9D6 
 260      3E93A51C 
 260      404B
 261 06bf 791F2DE5 		.ascii	"y\037-\345\020\246mf{qS\213#f\2658\345{\336E\036\265"
 261      10A66D66 
 261      7B71538B 
 261      2366B538 
 261      E57BDE45 
 262 06d5 6FAF7998 		.ascii	"o\257y\230\363\367\251}\015\355_d\340\211\241\217S\371"
ARM GAS  /tmp/cclnJnxQ.s 			page 20


 262      F3F7A97D 
 262      0DED5F64 
 262      E089A18F 
 262      53F9
 263 06e7 E3FB99E1 		.ascii	"\343\373\231\341\236@\303\275\230\302]\315\276\227\361"
 263      9E40C3BD 
 263      98C25DCD 
 263      BE97F1
 264 06f6 72487DB5 		.ascii	"rH}\265\277S1.\010Nr<\3544\213\034\270n\204;\367\350"
 264      BF53312E 
 264      084E723C 
 264      EC348B1C 
 264      B86E843B 
 265 070c 2ADBE749 		.ascii	"*\333\347I\267\361\362\347H-]\231\316\240\256}\225\343"
 265      B7F1F2E7 
 265      482D5D99 
 265      CEA0AE7D 
 265      95E3
 266 071e BC32A539 		.ascii	"\2742\24592\237\231K\272\234KY\231\346\336`+\3239O+"
 266      329F994B 
 266      BA9C4B59 
 266      99E6DE60 
 266      2BD3394F 
 267 0733 D309C795 		.ascii	"\323\011\307\225\351\234\377\225\311\3512\023(\362]"
 267      E99CFF95 
 267      C9E93213 
 267      28F25D
 268 0742 682217AC 		.ascii	"h\"\027\254\313\310\222\\\017\334\177\302M\031Um\321"
 268      CBC8925C 
 268      0FDC7FC2 
 268      4D19556D 
 268      D1
 269 0753 A9A5BC4E 		.ascii	"\251\245\274N\277\356\212V\331\361\234\\\221\005\317"
 269      BFEE8A56 
 269      D9F19C5C 
 269      9105CF
 270 0762 2CCD3A6D 		.ascii	",\315:m\363)\\Yu-\335\344\205\270\022w\260\335\215\214"
 270      F3295C59 
 270      752DDDE4 
 270      85B81277 
 270      B0DD8D8C 
 271 0776 B97B314E 		.ascii	"\271{1N|\327\013\336\030\267\311\326i\235\247\226R<"
 271      7CD70BDE 
 271      18B7C9D6 
 271      699DA796 
 271      523C
 272 0788 FDDDD63E 		.ascii	"\375\335\326>\337xV\372n6Z\342\352v/p\343<\313>\371"
 272      DF7856FA 
 272      6E365AE2 
 272      EA762F70 
 272      E33CCB3E 
 273 079d 6E52E4B7 		.ascii	"nR\344\267\343a\342;<\006\022\230\276\207\351\373\230"
 273      E361E23B 
 273      3C061298 
 273      BE87E9FB 
 273      98
 274 07ae F660FA09 		.ascii	"\366`\372\011\246\237bz\015\323{\230\276\212\356t\016"
ARM GAS  /tmp/cclnJnxQ.s 			page 21


 274      A69F627A 
 274      0DD37B98 
 274      BE8AEE74 
 274      0E
 275 07bf A60B303D 		.ascii	"\246\0130=\215\351\3571\375\030\323K\230\366`\372\211"
 275      8DE9EF31 
 275      FD18D34B 
 275      98F660FA 
 275      89
 276 07d0 17C7EB31 		.ascii	"\027\307\3531\036\337\354\360.\2763\327\361\315r\035"
 276      1EDFECF0 
 276      2EBE33D7 
 276      F1CD721D 
 277 07e0 7D4BBCB7 		.ascii	"}K\274\267\356\031\026\377C(\301?\354\202\215\217?\025"
 277      EE1916FF 
 277      4328C13F 
 277      EC828D8F 
 277      3F15
 278 07f2 1CDE366B 		.ascii	"\034\3366k_\034\246/\263\355\037\015\020T7J\257\010"
 278      5F1CA62F 
 278      B3ED1F0D 
 278      1054374A 
 278      AF08
 279 0804 3AA501FC 		.ascii	":\245\001\374&\302\230!#\033)\377\243\215\362\307\270"
 279      26C29821 
 279      231B29FF 
 279      A38DF2C7 
 279      B8
 280 0815 375475BE 		.ascii	"7Tu\276\372\272\364\014[zoc\213\317\004g\252\215}\215"
 280      FABAF40C 
 280      5B7A6F63 
 280      8BCF0467 
 280      AA8D7D8D 
 281 0829 3E6175FB 		.ascii	">au\373\305\347Lsu\353E\011\274\232:\327\356\206\356"
 281      C5E74C73 
 281      75EB4509 
 281      BC9A3AD7 
 281      EE86EE
 282 083c 5B9BCE3C 		.ascii	"[\233\316<\264x\213:\355U\365^\357+\274\367\217$nz\230"
 282      B4788B3A 
 282      ED55F55E 
 282      EF2BBCF7 
 282      8F246E7A 
 283 0851 EE8A0176 		.ascii	"\356\212\001vA\351MoY)y\224[A(\231\327~t\360\306:uZ"
 283      41E94D6F 
 283      59297994 
 283      5B412899 
 283      D77E74F0 
 284 0869 2B10D0CB 		.ascii	"+\020\320\313\367\216eA\303\214\217\223g\226\352\003"
 284      F78E6541 
 284      C38C8F93 
 284      6796EA03 
 285 0879 8C8E6304 		.ascii	"\214\216c\004\302\330i\334XAW\267;\350\204\336\032\340"
 285      C2D869DC 
 285      584157B7 
 285      3BE884DE 
 285      1AE0
ARM GAS  /tmp/cclnJnxQ.s 			page 22


 286 088b E8CFD341 		.ascii	"\350\317\323A\201s\300NwS=\372\001\026\232\335\365\024"
 286      8173C04E 
 286      77533DFA 
 286      01169ADD 
 286      F514
 287 089d 9AB576E9 		.ascii	"\232\265v\351\036\321!\350\3516\202\236!&\352\333:\177"
 287      1ED121E8 
 287      E936829E 
 287      2126EADB 
 287      3A7F
 288 08af 4FA95703 		.ascii	"O\251W\003\204\372}.\324\273\002\011\\\007v\231\032"
 288      84FA7D2E 
 288      D4BB0209 
 288      5C077699 
 288      1A
 289 08c0 48A1FDC3 		.ascii	"H\241\375\303zJ;y\3267\355\235g\255\336\374\202\201"
 289      7A4A3B79 
 289      D637ED9D 
 289      67ADDEFC 
 289      8281
 290 08d2 DBBFC0F2 		.ascii	"\333\277\300\362\364Y\364\346\272\267\354\261\203\371"
 290      F459F4E6 
 290      BAB7ECB1 
 290      83F9
 291 08e0 0A2B55ED 		.ascii	"\012+U\355\234\016v\020\277\330\270\342\033\254\310"
 291      9C0E7610 
 291      BFD8B8E2 
 291      1BACC8
 292 08ef 42D9F525 		.ascii	"B\331\365%\326\317.nx\301K\363v\351\306Y\323\333\245"
 292      D6CF2E6E 
 292      78C14BF3 
 292      76E9C659 
 292      D3DBA5
 293 0902 BBBEC1AC 		.ascii	"\273\276\301\254\304}i\006\233\226\347\001\314\351\035"
 293      C47D6906 
 293      9B96E701 
 293      CCE91D
 294 0911 8CD36556 		.ascii	"\214\323eV\022\221\237\036 \253B}\200x\355\031\230\316"
 294      12919F1E 
 294      20AB427D 
 294      8078ED19 
 294      98CE
 295 0923 C47436A6 		.ascii	"\304t6\246s0m\010X\342\2059y\314J\034U\261/\225P\265"
 295      73306D08 
 295      58E28539 
 295      79CC4A1C 
 295      55B12F95 
 296 0939 1DEEE6E1 		.ascii	"\035\356\346\341\264'\000\343\356\251\345\247\243\016"
 296      B42700E3 
 296      EEA9E5A7 
 296      A30E
 297 0947 2F44F358 		.ascii	"/D\363X\230\327\247y\330w]\033\260KS\212y\264\337\233"
 297      98D7A779 
 297      D8775D1B 
 297      B04B538A 
 297      79B4DF9B 
 298 095b 4ECDA3C9 		.ascii	"N\315\243\311\203y\324i\177m\362v\374\322b\214\377\035"
ARM GAS  /tmp/cclnJnxQ.s 			page 23


 298      8379D469 
 298      7F6DF276 
 298      FCD2628C 
 298      FF1D
 299 096d D344DA2E 		.ascii	"\323D\332.\262\363\220\2458\221=}O\304\012\004v\216"
 299      B2F390A5 
 299      38913D7D 
 299      4FC40A04 
 299      768E
 300 097f 5D9A5327 		.ascii	"]\232S'r\205M\244\331\323D~\333\304\264\377\365\000"
 300      72854DA4 
 300      D9D3447E 
 300      DBC4B4FF 
 300      F500
 301 0991 D1B13F18 		.ascii	"\321\261?\030\270\375\332\222h\273:Qau\260?\371\006"
 301      B8FDDA92 
 301      68BB3A51 
 301      6175B03F 
 301      F906
 302 09a3 B36A7F47 		.ascii	"\263j\177G\247\337\217\216\226\265m}\022\317\177\327"
 302      A7DF8F8E 
 302      96B56D7D 
 302      12CF7FD7 
 303 09b3 0688A3B9 		.ascii	"\006\210\243\271fcl?77w\275\314\303}\033\014R\271\261"
 303      66636C3F 
 303      373777BD 
 303      CCC37D1B 
 303      0C52B9B1 
 304 09c7 C8E194C0 		.ascii	"\310\341\224\300\373\032\373f\300\266\306\216\265-\261"
 304      FB1AFB66 
 304      C0B6C68E 
 304      B52DB1
 305 09d6 E95832AB 		.ascii	"\351X2\253\253\226\236\355mD\251L\017Z\231b;r%c\271"
 305      AB969EED 
 305      6D44A94C 
 305      0F5A9962 
 305      3B722563 
 306 09eb C66A813C 		.ascii	"\306j\201<\027\215Jy\006\016\"\350\227k\026\351\003"
 306      178D4A79 
 306      060E22E8 
 306      976B16E9 
 306      03
 307 09fc D76EAE66 		.ascii	"\327n\256f\207\246\030\0257z\001t\362\314N\227\331x"
 307      87A61815 
 307      377A0174 
 307      F2CC4E97 
 307      D978
 308 0a0e 447E05FA 		.ascii	"D~\005\372\277\225\350\347Va\272\006\323\337`\372v\300"
 308      BF95E8E7 
 308      5661BA06 
 308      D3DF60FA 
 308      76C0
 309 0a20 431C4B54 		.ascii	"C\034KT\336\300~# P?\323?3j8k\230\221\310\257\366\015"
 309      DEC07E23 
 309      20503FD3 
 309      3F336A38 
 309      6B9891C8 
ARM GAS  /tmp/cclnJnxQ.s 			page 24


 310 0a37 6661A4B6 		.ascii	"fa\244\266\350,\333\254\020\253\020\371\015^\360\322"
 310      E82CDBAC 
 310      10AB10F9 
 310      0D5EF0D2 
 311 0a47 9CEAFCAF 		.ascii	"\234\352\374\257N\234nb\313\202\274O\260\242tBi2\011"
 311      4E9C6E62 
 311      CB82BC4F 
 311      B0A27442 
 311      693209
 312 0a5a E53514CA 		.ascii	"\3455\024\312\022\024\301VL\267a\272\335\272\020\255"
 312      1214C156 
 312      4CB761BA 
 312      DDBA10AD 
 313 0a6a 0FDA1622 		.ascii	"\017\332\026\"\253\323wZ\027\315\374Q\265c]0\037\357"
 313      ABD3775A 
 313      17CDFC51 
 313      B5635D30 
 313      1FEF
 314 0a7c 47069FB1 		.ascii	"G\006\237\261#\203\235\350\2747\007\035\235w\272#\203"
 314      23839DE8 
 314      BC37071D 
 314      9D77BA23 
 314      83
 315 0a8d DDD86557 		.ascii	"\335\330eWj\220v\231\005i\273\372v\336\323\246j;^_\223"
 315      6A907699 
 315      0569BBFA 
 315      76DED3A6 
 315      6A3B5E5F 
 316 0aa2 5C85A61A 		.ascii	"\\\205\246\032\026\374\031\37087-\265|\324\321n\320"
 316      16FC19F8 
 316      38372DB5 
 316      7CD4D16E 
 316      D0
 317 0ab3 E1534B9D 		.ascii	"\341SK\235e\267\313$;\015e\267\307*\2513vI\365y\304"
 317      65B7CB24 
 317      3B0D65B7 
 317      C72AA933 
 317      7649F579 
 318 0ac8 6015D499 		.ascii	"`\025\324\231.\026\224\352\037\353\236\267\343\265X"
 318      2E1694EA 
 318      1FEB9EB7 
 318      E3B558
 319 0ad7 3ECDA559 		.ascii	">\315\245Y\313\261\000g\001\274\346G\362\255=\237\214"
 319      CBB10067 
 319      01BCE647 
 319      F2AD3D9F 
 319      8C
 320 0ae8 C6B5E520 		.ascii	"\306\265\345 \312\375\325\201>\345NX\324f\223\271\366"
 320      CAFDD581 
 320      3EE54E58 
 320      D46693B9 
 320      F6
 321 0af9 B954A4D7 		.ascii	"\271T\244\327\366\275T\337\271\204g\263~\316\372\336"
 321      F6BD54DF 
 321      B98467B3 
 321      7ECEFADE 
 322 0b09 D3DF677F 		.ascii	"\323\337g\177\200\226\272d\340\327\262\030\256D\230"
ARM GAS  /tmp/cclnJnxQ.s 			page 25


 322      8096BA64 
 322      E0D7B218 
 322      AE4498
 323 0b18 B6AF4B69 		.ascii	"\266\257Ki\332LJs\004\225\346\250\315\274\007zP\232"
 323      DA4C4A73 
 323      0495E6A8 
 323      CDBC077A 
 323      509A
 324 0b2a B8ABD2C0 		.ascii	"\270\253\322\3002ryt\255\252-.\371\026\327\300\366~"
 324      32727974 
 324      ADAA2D2E 
 324      F916D7C0 
 324      F67E
 325 0b3c FA7744B4 		.ascii	"\372wD\264\2716\220\241\320\377\204\210\374\311\300"
 325      B93690A1 
 325      D0FF8488 
 325      FCC9C0
 326 0b4b B7306779 		.ascii	"\2670gy!\202M\334\004\373a \371\211U07\231\371;c\036"
 326      21824DDC 
 326      04FB6120 
 326      F9895530 
 326      3799F93B 
 327 0b61 1BEDF3B0 		.ascii	"\033\355\363\260\215K\363\223=s\356\256\351D\357\036"
 327      8D4BF393 
 327      3D73EEAE 
 327      E944EF1E 
 328 0b71 9EE8F5EA 		.ascii	"\236\350\365\352'3\350$\337\305t?\246\357cz\302\312"
 328      2733E824 
 328      DFC5743F 
 328      A6EF637A 
 328      C2CA
 329 0b83 D79D863A 		.ascii	"\327\235\206:0\267i\335\007\223!:\003\306\376\234\354"
 329      30B769DD 
 329      0793213A 
 329      03C6FE9C 
 329      EC
 330 0b94 CD376BDD 		.ascii	"\3157k\335M3O\356\341\347\253\352A\320\335\336^\376"
 330      4D334FEE 
 330      E1E7ABEA 
 330      41D0DDDE 
 330      5EFE
 331 0ba6 61A6F5E0 		.ascii	"a\246\365\340\265\326%\265q\263\341\201I\334B\325\361"
 331      B5D625B5 
 331      71B3E181 
 331      49DC42D5 
 331      F1
 332 0bb7 AF9F1E7A 		.ascii	"\257\237\036z\210\354nYt\353\332^\344\317\202\"\364"
 332      88EC6E59 
 332      74EBDA5E 
 332      E4CF8222 
 332      F4
 333 0bc8 D90C4F35 		.ascii	"\331\014O5\355\366t\206\330\3239O[\334\217n\346\250"
 333      EDF67486 
 333      D8D3394F 
 333      5BDC8F6E 
 333      E6A8
 334 0bda F541AA15 		.ascii	"\365A\252\025-\343\026\347\353\237\304\271I\370\202"
ARM GAS  /tmp/cclnJnxQ.s 			page 26


 334      2DE316E7 
 334      EB9FC4B9 
 334      49F882
 335 0be9 6F9DE876 		.ascii	"o\235\350v\321\011\026\266\011\334%\224\301\271~\207"
 335      D10916B6 
 335      09DC2594 
 335      C1B97E87 
 336 0bf9 09E77EB9 		.ascii	"\011\347~\271\270\204}\334t\335\216\345\364\251\211"
 336      B8847DDC 
 336      74DD8EE5 
 336      F4A989
 337 0c08 05ABC882 		.ascii	"\005\253\310\202\325e\302\372\3127\326\023\026\254\253"
 337      D565C2FA 
 337      CA37D613 
 337      16ACAB
 338 0c17 E23AF6DD 		.ascii	"\342:\366\335\215Z\257>a\022a!\353m:\265\351h\334\376"
 338      8D5AAF3E 
 338      61126121 
 338      EB6D3AB5 
 338      E968DCFE 
 339 0c2b 2FE8A77A 		.ascii	"/\350\247z\320OM\315w\374J\313\003\320\316\345k\365"
 339      D04F4DCD 
 339      77FC4ACB 
 339      03D0CEE5 
 339      6BF5
 340 0c3d 8FFBFF84 		.ascii	"\217\373\377\204@\263\363\355\016/`\363w\001\253\277"
 340      40B3F3ED 
 340      0E2F60F3 
 340      7701ABBF 
 341 0c4d 0BE42633 		.ascii	"\013\344&3\275\275\001\316_c\201k\312\267\261\315B\244"
 341      BDBD01CE 
 341      5F63816B 
 341      CAB7B1CD 
 341      42A4
 342 0c5f 13DB4ACC 		.ascii	"\023\333J\314l#\026\322\311\177N>Zb\202XiGt\022D\232"
 342      6C2316D2 
 342      C97F4E3E 
 342      5A628258 
 342      69477412 
 343 0c75 50ED8649 		.ascii	"P\355\206I\250o\372\306\262|R\245}a\302\332\341\033"
 343      A86FFAC6 
 343      B27C52A5 
 343      7D61C2DA 
 343      E11B
 344 0c87 ABD08275 		.ascii	"\253\320\202u\333\204\365\276o\254\301\026\254/MX'|"
 344      DB84F5BE 
 344      6FACC116 
 344      AC2F4D58 
 344      277C
 345 0c99 63598DE0 		.ascii	"cY\215\340\256\011\253\3137\226\325\010\356\231\260"
 345      AE09ABCB 
 345      3796D508 
 345      EE99B0
 346 0ca8 3EF58D65 		.ascii	">\365\215e\321\014\255\341@\336\346\027\031\330m\337"
 346      D10CADE1 
 346      40DEE617 
 346      19D86DDF 
ARM GAS  /tmp/cclnJnxQ.s 			page 27


 347 0cb8 60632C60 		.ascii	"`c,`\363\315`\323\012<\200\2459\356j4\203-\364\015f"
 347      F3CD60D3 
 347      0A3C80A5 
 347      39EE6A34 
 347      832DF40D 
 348 0ccd 55B1C566 		.ascii	"U\261\305f\260\025\276\301\254:\266\304\014\366\226"
 348      B015BEC1 
 348      AC3AB6C4 
 348      0CF696
 349 0cdc 6F30AB92 		.ascii	"o0\253\222-5\203\275\353\033\314\252e\233\315`\207|"
 349      2D3583BD 
 349      EB1BCCAA 
 349      659BCD60 
 349      877C
 350 0cee 833DC159 		.ascii	"\203=\301Y/\026\004\234\307\360\251\013\027\373?`z\021"
 350      2F16049C 
 350      C7F0A90B 
 350      17FB3F60 
 350      7A11
 351 0d00 D3CB985E 		.ascii	"\323\313\230^\301\364*\246\3270\275\201\351\027\230"
 351      C1F42AA6 
 351      D730BD81 
 351      E91798
 352 0d0f DEC6F44B 		.ascii	"\336\306\364KL\357bz\017S5\203\244u\230N\303\264\036"
 352      4CEF627A 
 352      0F533583 
 352      A475984E 
 352      C3B41E
 353 0d22 D3191996 		.ascii	"\323\031\031\226`\342\303\002\273\253\325\327`\023\215"
 353      60E2C302 
 353      BBABD5D7 
 353      60138D
 354 0d31 C9A59AFB 		.ascii	"\311\245\232\373\377\242\362\202A\245k@1+C\217xFro\253"
 354      FFA2F282 
 354      41A56B40 
 354      312B438F 
 354      7846726F 
 355 0d46 33B4964C 		.ascii	"3\264\226L\221?\203t\023z\365\272qz(`\030\003\311\220"
 355      913F8374 
 355      137AF5BA 
 355      717A2860 
 355      1803C990 
 356 0d5a B821C6AA 		.ascii	"\270!\306\252x\243JdU\202Q\025aU\001\243\252\222\243"
 356      78A34A64 
 356      55825115 
 356      615501A3 
 356      AA92A3
 357 0d6d 9C201518 		.ascii	"\234 \025\030\221\353,\241\305\007)o\350R\243\016\247"
 357      91EB2CA1 
 357      C507296F 
 357      E852A30E 
 357      A7
 358 0d7e 5CA28F33 		.ascii	"\\\242\2173(\273L\305k\311\342\217)\003i1\207r\222\026"
 358      28BB4CC5 
 358      6BC9E28F 
 358      29036931 
 358      87729216 
ARM GAS  /tmp/cclnJnxQ.s 			page 28


 359 0d92 8394A5B4 		.ascii	"\203\224\245\264XHyK\213\337\241L\246\305\301\224\333"
 359      5848794B 
 359      8BDFA14C 
 359      A6C5C194 
 359      DB
 360 0da3 B43884B2 		.ascii	"\2648\204\262\235\026\213(\377i\221\011\202\026\037"
 360      9D168B28 
 360      FF699109 
 360      82161F
 361 0db2 A51231CD 		.ascii	"\245\0221\315p\206\271\310qna\230e\005%\375\346d\370"
 361      7086B9C8 
 361      716E6198 
 361      650525FD 
 361      E664F8
 362 0dc5 0DC3E666 		.ascii	"\015\303\346f8\207a<\325\013\266/\260\215<\206\265\313"
 362      3887613C 
 362      D50BB62F 
 362      B08D3C86 
 362      B5CB
 363 0dd7 A6380DBE 		.ascii	"\2468\015\276G\236\3472r\026\035\231\376+\267\265\267"
 363      479EE732 
 363      72161D99 
 363      FE2BB7B5 
 363      B7
 364 0de8 63363F6F 		.ascii	"c6?oS\275J\3365\276\322\2545dx?\031\\\220a;\031\324"
 364      53BD4ADE 
 364      35BED2AC 
 364      3564783F 
 364      195C9061 
 365 0dff F09B64CB 		.ascii	"\360\233d\313\333\267\246B\263qbK\201[]H\347O_=v\034"
 365      DBB7A642 
 365      B371624B 
 365      815B5D48 
 365      E74F5F3D 
 366 0e15 0836F0EC 		.ascii	"\0106\360\354\377\225oc\217\371\031n/\037\351\306\221"
 366      FF956F63 
 366      8FF9196E 
 366      2F1FE9C6 
 366      91
 367 0e26 FE8FF77A 		.ascii	"\376\217\367z\355s\203\215\377\361\222N\026\273_\224"
 367      ED73838D 
 367      FFF1924E 
 367      16BB5F94 
 368 0e36 6179C767 		.ascii	"ay\307g;m$\377\020v\233\333\353\031\306Y\005\331}\034"
 368      3B6D24FF 
 368      10769BDB 
 368      EB19C659 
 368      05D97D1C 
 369 0e4a 3BD6BDFD 		.ascii	";\326\275\375\300_\236\256m\320j[\324\273\260\371\340"
 369      C05F9EAE 
 369      6DD06A5B 
 369      D4BBB0F9 
 369      E0
 370 0e5b CD92331D 		.ascii	"\315\2223\035z\274\310\200\202\351\344kk%\362\313}\313"
 370      7ABCC880 
 370      82E9E46B 
 370      6B25F2CB 
ARM GAS  /tmp/cclnJnxQ.s 			page 29


 370      7DCB
 371 0e6d B7D945BE 		.ascii	"\267\331E\276\346/N\223\255H\330\204|\335\230|\025m"
 371      E62F4E93 
 371      AD48D884 
 371      7CDD987C 
 371      156D
 372 0e7f 2342E07E 		.ascii	"#B\340~W\310\366\240\003\370\024f\335q\331\004\223\346"
 372      57C8F6A0 
 372      03F81466 
 372      DD71D904 
 372      93E6
 373 0e91 2B93CC2A 		.ascii	"+\223\314*\342\232\311\306\267if\373 uZ\216!\231M\346"
 373      E29AC9C6 
 373      B76966FB 
 373      20755A8E 
 373      21994DE6 
 374 0ea5 7F58DB90 		.ascii	"\177X\333\220U\227-\010..Id[/\362\352\327\255\327j\273"
 374      55972D08 
 374      2E2E4964 
 374      5B2FF2EA 
 374      D7ADD76A 
 375 0eba F0B4E6B6 		.ascii	"\360\264\346\266\231*\017Q|-\371\347\266\213\350\254"
 375      992A0F51 
 375      7C2DF9E7 
 375      B68BE8AC 
 376 0eca 4777AEB2 		.ascii	"Gw\256\262\2637\023\371u\276\205\267\336Ex\346\277\350"
 376      B33713F9 
 376      75BE85B7 
 376      DE4578E6 
 376      BFE8
 377 0edc 265B41B6 		.ascii	"&[A\266%\203\034\233\232\336\255\333\251\020\270c\026"
 377      25831C9B 
 377      9ADEADDB 
 377      A910B863 
 377      16
 378 0eed E9E972D0 		.ascii	"\351\351r\320N\264\251EE\206\024H\377\344\365\324\260"
 378      4EB4A945 
 378      45861448 
 378      FFE4F5D4 
 378      B0
 379 0efe 61C5E32B 		.ascii	"a\305\343+\"\023#\3775\241\270*Q,+\305\361*YI\024\377"
 379      221323FF 
 379      35A1B82A 
 379      512C2BC5 
 379      F12A5949 
 380 0f14 E8F967C7 		.ascii	"\350\371g\307?;\2718\\\021\256\222\245\320\244\321\261"
 380      3F3BB938 
 380      5C11AE92 
 380      A5D0A4D1 
 380      B1
 381 0f25 61155C2E 		.ascii	"a\025\\.y\024\212V\205_\312\372\351\317_(\032\317\345"
 381      79148A56 
 381      855FCAFA 
 381      E9CF5F28 
 381      1ACFE5
 382 0f38 61457525 		.ascii	"aEu%\251z$\005(R\031\216V\227J\200\221\230\222 \335"
 382      A97A2405 
ARM GAS  /tmp/cclnJnxQ.s 			page 30


 382      2852198E 
 382      56974A80 
 382      91989220 
 383 0f4d C31513A6 		.ascii	"\303\025\023\246$\376\023\332\346a\356\005\354\367h"
 383      24FE13DA 
 383      E661EE05 
 383      ECF768
 384 0f5c 4ABF841C 		.ascii	"J\277\204\034\206>\262T\036I(\362\224aa\356\273\351"
 384      863EB254 
 384      1E4928F2 
 384      946161EE 
 384      BBE9
 385 0f6e A1952971 		.ascii	"\241\225)q\211\340\347(\320I,\015)0PH\317\247\202\233"
 385      89E0E728 
 385      D0492C0D 
 385      29305048 
 385      CFA7829B 
 386 0f82 7A862B4A 		.ascii	"z\206+J\241WV<T)MV\340'.K\223F\365\301\216\252X<\022"
 386      A157563C 
 386      54294D56 
 386      E0272E4B 
 386      9346F5C1 
 387 0f9b 95E444F1 		.ascii	"\225\344D\361O"
 387      4F
 388 0fa0 C78F070C 		.ascii	"\307\217\007\0146t\266\022\227#U!hXY\206\367\323\305"
 388      3674B612 
 388      97235521 
 388      68585986 
 388      F7D3C5
 389 0fb3 155531A9 		.ascii	"\025U1\251X\226\022\222(\207+\212+D\271\264F\224\245"
 389      58961292 
 389      28872B8A 
 389      2B44B9B4 
 389      4694A5
 390 0fc6 62518E8D 		.ascii	"bQ\216\215(.\017\207\207Bf\250\024\233(\225\226J\245"
 390      282E0F87 
 390      874266A8 
 390      149B2895 
 390      964AA5
 391 0fd9 46456555 		.ascii	"FEeU\2454T\022'F\206\216\014\215\031:\242d\370\310\227"
 391      A5345412 
 391      2746868E 
 391      0C8D193A 
 391      A264F8C8 
 392 0fee 47145B1E 		.ascii	"G\024[\036\030\023H(\245\221J\205L\273\032~\277?"
 392      18134828 
 392      A5914A85 
 392      4CBB1A7E 
 392      BF3F
 393 1000 22A44CE5 		.ascii	"\"\244L\345\377v\243\307\304pE\244R*\016\225JebuT\011"
 393      FF76A3C7 
 393      C47045A4 
 393      522A0E95 
 393      4A656275 
 394 1016 314E0C08 		.ascii	"1N\014\010\205\030=\310\322HUv\270\252R\001\016\177"
 394      85183DC8 
 394      D2485576 
ARM GAS  /tmp/cclnJnxQ.s 			page 31


 394      B8AA5201 
 394      0E7F
 395 1028 CF8BA601 		.ascii	"\317\213\246\001\202\256T\200\021V&\347\200\026\000"
 395      82AE5480 
 395      115626E7 
 395      801600
 396 1037 01214590 		.ascii	"\001!E\220G\012\362\323\202<J\220G\013\362\030A\376"
 396      470AF2D3 
 396      823C4A90 
 396      470BF218 
 396      41FE
 397 1049 41401E5E 		.ascii	"A@\036^\002\367p!*\303\317\3673\343!h\237M\204Y#\311"
 397      02F77021 
 397      2AC3CFF7 
 397      33E32168 
 397      9F4D8459 
 398 105f F05B152D 		.ascii	"\360[\025-\225\344\2140L\235HX\214I\003\022\312Kb4R"
 398      95E48C30 
 398      4C9D4858 
 398      8C490312 
 398      CA4B6234 
 399 1074 5E195290 		.ascii	"^\031R\220e\243F\206\024J-f\343!h\020\215\304\"J\216"
 399      65A34686 
 399      144A2D66 
 399      E3216810 
 399      8DC4224A 
 400 1089 92504445 		.ascii	"\222PDE\012)\331\344\341\030P(\275\031\344\262I+x\226"
 400      0A29D9E4 
 400      E1185028 
 400      BD19E4B2 
 400      492B7896 
 401 109d ADC4AA4A 		.ascii	"\255\304\252J%,\227E\305\362D\266\"Ke\011\2343\311d"
 401      252C9745 
 401      C5F244B6 
 401      224B6509 
 401      9C33C964 
 402 10b1 C612E5F0 		.ascii	"\306\022\345\360\2202\002\2723\226\310\245S\340Q\216"
 402      903202BA 
 402      3396C8A5 
 402      53E0518E 
 403 10c1 3439A284 		.ascii	"49\242\204\001 \253F\251\232\370?\361ATs\241\253$K\225"
 403      0120AB46 
 403      A99AF83F 
 403      F1415473 
 403      A1AB244B 
 404 10d6 6100CEAC 		.ascii	"a\000\316\254Q\0249\236\235\220*\025\350\020\004\215"
 404      5114399E 
 404      9D902A15 
 404      E810048D 
 405 10e6 4E483131 		.ascii	"NH11^\001<Jki\0221\324\002\035/\021z\271Z\252\006\260"
 405      5E013C4A 
 405      6B691231 
 405      D4021D2F 
 405      117AB95A 
 406 10fd 42C32068 		.ascii	"B\303 hU6\375\315\014W\202\3502\023!\370\005Z\240w<"
 406      5536FDCD 
 406      0C5782E8 
ARM GAS  /tmp/cclnJnxQ.s 			page 32


 406      321321F8 
 406      055AA077 
 407 1112 07DAC6AA 		.ascii	"\007\332\306\252A`\351\206\211)\223\211\326\307(Z,T"
 407      4160E986 
 407      89299389 
 407      D6C7285A 
 407      2C54
 408 1124 5553095C 		.ascii	"US\011\\\307~0\313\230nR5\012\264\213\347I\223\310$"
 408      C77E30CB 
 408      986E5235 
 408      0AB48BE7 
 408      4993C824 
 409 1138 C4C44BF0 		.ascii	"\304\304K\360D\252!\231@<T\235\317\010\212\202\231\207"
 409      44AA2199 
 409      403C549D 
 409      CF088A82 
 409      9987
 410 114a 94021389 		.ascii	"\224\002\023\211\244&7\036\252\021#J\244\262\034\004"
 410      A426371E 
 410      AA11234A 
 410      A4B21C04 
 411 115a 031CC081 		.ascii	"\003\034\300\201 +\305\245JP\374rx\016\340\244\345\000"
 411      202BC5A5 
 411      4A50FC72 
 411      780EE0A4 
 411      E500
 412 116c C272318A 		.ascii	"\302r1\212\252\006\225\361\252\252(\314\367y\251\374"
 412      AA0695F1 
 412      AAAA28CC 
 412      F779A9FC 
 413 117c 271139A1 		.ascii	"'\0219\241\374\0021\013\260\342\347@\224^\026\224\370"
 413      FC02310B 
 413      B0E2E740 
 413      945E1694 
 413      F8
 414 118d E369A657 		.ascii	"\343i\246W:\005\024&\022\206)\002\343\177QQ\372\274"
 414      3A051426 
 414      12862902 
 414      E37F5151 
 414      FABC
 415 119f 1495C484 		.ascii	"\024\225\304\204\224G\244\000\376F\212\351>F\317\007"
 415      9447A400 
 415      FE468AE9 
 415      3E46CF07 
 416 11af 09E0143A 		.ascii	"\011\340\024:\215\201P\235,g\313:\203\262d\264\204L"
 416      8D81509D 
 416      2C67CB3A 
 416      83B264B4 
 416      844C
 417 11c1 197554A6 		.ascii	"\031uT\246:*\353:\232\013\265\3252\210]\311\224I\247"
 417      3A2AEB3A 
 417      9A0BB5D5 
 417      32885DC9 
 417      9449A7
 418 11d4 07264564 		.ascii	"\007&Ed\245Z\214\206\224H\014<\015\005~\020\200\035"
 418      A55A8C86 
 418      94480C3C 
ARM GAS  /tmp/cclnJnxQ.s 			page 33


 418      0D057E10 
 418      801D
 419 11e6 1E1458EA 		.ascii	"\036\024X\352tI[\252\262')(\014\362K\034\\.!\032\036"
 419      74495BAA 
 419      B2272928 
 419      0CF24B1C 
 419      5C2E211A 
 420 11fb 8011404D 		.ascii	"\200\021@M\251\024UD\310\224UW\206C\330\206\344\262"
 420      A9145544 
 420      C8945557 
 420      8643D886 
 420      E4B2
 421 120d 485B51CE 		.ascii	"H[Q\316\203\237\250\230PHs\250\"\303\345\323\351\227"
 421      839FA898 
 421      504873A8 
 421      22C3E5D3 
 421      E997
 422 121f 4A13ABCB 		.ascii	"J\023\253\313u\241\231kr\343be$L\304\025(\235X> &\202"
 422      75A1996B 
 422      72E36265 
 422      244CC415 
 422      289D583E 
 423 1236 DA23BF8B 		.ascii	"\332#\277\213\3220[!\032[\250\304Ba\260\316\211\262"
 423      D2305B21 
 423      1A5BA8C4 
 423      4261B0CE 
 423      89B2
 424 1248 A844AAC0 		.ascii	"\250D\252\300D\263e\005u3\253\252\254,!)\202\022\313"
 424      44B36505 
 424      7533ABAA 
 424      AC2C2129 
 424      8212CB
 425 125b 8F944625 		.ascii	"\217\224F%\252#\240\033B\270\"\335\272`,\037\025\034"
 425      AA23A01B 
 425      42B822DD 
 425      BA602C1F 
 425      151C
 426 126d 9149A414 		.ascii	"\221I\244\024\370\033)\213\000C\240\364+I\256\"\277"
 426      F81B298B 
 426      0043A0F4 
 426      2B49AE22 
 426      BF
 427 127e 89C8AF24 		.ascii	"\211\310\257$\364\005\303G\031\276\000\263\204\213\300"
 427      F405C347 
 427      19BE00B3 
 427      848BC0
 428 128d 62A08464 		.ascii	"b\240\204d\343\212LZ\022\361\023^\220\374\300\244\272"
 428      E38A4C5A 
 428      12F1135E 
 428      90FCC0A4 
 428      BA
 429 129e E293B210 		.ascii	"\342\223\262\020\320\211B\036@\363 \351 \315\242\270"
 429      D089421E 
 429      40F320E9 
 429      20CDA2B8 
 430 12ae 590165CE 		.ascii	"Y\001e\316:\020\277T@\363\314\373\004\2152\370\031V"
 430      3A10BF54 
ARM GAS  /tmp/cclnJnxQ.s 			page 34


 430      40F3CCFB 
 430      048D32F8 
 430      1956
 431 12c0 4027C37A 		.ascii	"@'\303z\021\017\223o\014)\201\321*\354\021\241\017T"
 431      110F936F 
 431      0C2981D1 
 431      2AEC11A1 
 431      0F54
 432 12d2 93CA87D8 		.ascii	"\223\312\207\3302f\207Y9\005\372P<\376\331\011?\233"
 432      32668759 
 432      3905FA50 
 432      3CFED909 
 432      3F9B
 433 12e4 90641859 		.ascii	"\220d\030Y\345\303\261\237\200\364\011\307B\340m\224"
 433      E5C3B19F 
 433      80F409C7 
 433      42E06D94 
 434 12f4 D0BFFF68 		.ascii	"\320\277\377h\302\177<\367\374\317\006\212\321\032q"
 434      C27F3CF7 
 434      FCCF068A 
 434      D11A71
 435 1303 4A027C58 		.ascii	"J\002|X\024\\~\346$1Z-\345\204PSB\241\201,3\354\351"
 435      145C7EE6 
 435      24315A2D 
 435      E5845053 
 435      42A1812C 
 436 131a D125C393 		.ascii	"\321%\303\223\245Q#KF\374\037b\206\323\213"
 436      A551234B 
 436      46FC1F62 
 436      86D38B
 437              		.text
 438              		.section	.gnu.lto_.symtab.91253c2fe6d10893,"",%progbits
 439 0000 63685265 		.ascii	"chRegFirstThread\000\000\000\000\000\000\000\000\000"
 439      67466972 
 439      73745468 
 439      72656164 
 439      00000000 
 440 0019 000000AF 		.ascii	"\000\000\000\257\000\000\000chRegNextThread\000\000"
 440      00000063 
 440      68526567 
 440      4E657874 
 440      54687265 
 441 0031 00000000 		.ascii	"\000\000\000\000\000\000\000\000\000\000m\001\000\000"
 441      00000000 
 441      00006D01 
 441      0000
 442 003f 63685F64 		.ascii	"ch_debug\000\000\000\000\000\000\000\000\000\000\000"
 442      65627567 
 442      00000000 
 442      00000000 
 442      000000
 443 0052 00D80100 		.ascii	"\000\330\001\000\000ch\000\000\002\000\000\000\000\000"
 443      00636800 
 443      00020000 
 443      000000
 444 0061 00000000 		.ascii	"\000\000\000\000x\001\000\000chThdRelease\000\000\002"
 444      78010000 
ARM GAS  /tmp/cclnJnxQ.s 			page 35


 444      63685468 
 444      6452656C 
 444      65617365 
 445 0078 00000000 		.ascii	"\000\000\000\000\000\000\000\000\000t\001\000\000"
 445      00000000 
 445      00740100 
 445      00
 446              		.text
 447              		.section	.gnu.lto_.opts,"",%progbits
 448 0000 272D6D63 		.ascii	"'-mcpu=cortex-m4' '-mno-thumb-interwork' '-mthumb' "
 448      70753D63 
 448      6F727465 
 448      782D6D34 
 448      2720272D 
 449 0033 272D6767 		.ascii	"'-ggdb' '-O0' '-fomit-frame-pointer' '-falign-funct"
 449      64622720 
 449      272D4F30 
 449      2720272D 
 449      666F6D69 
 450 0066 696F6E73 		.ascii	"ions=16' '-ffunction-sections' '-fdata-sections' '-"
 450      3D313627 
 450      20272D66 
 450      66756E63 
 450      74696F6E 
 451 0099 666E6F2D 		.ascii	"fno-common' '-flto'\000"
 451      636F6D6D 
 451      6F6E2720 
 451      272D666C 
 451      746F2700 
 452              		.text
 453              		.cfi_sections	.debug_frame
 454              		.section	.text.port_lock,"ax",%progbits
 455              		.align	2
 456              		.p2align 4,,15
 457              		.thumb
 458              		.thumb_func
 459              		.type	port_lock, %function
 460              	port_lock:
 461              	.LFB127:
 462              		.file 1 "../ChibiOS/os/rt/ports/ARMCMx/chcore_v7m.h"
 463              		.loc 1 456 0
 464              		.cfi_startproc
 465              		@ args = 0, pretend = 0, frame = 8
 466              		@ frame_needed = 0, uses_anonymous_args = 0
 467              		@ link register save eliminated.
 468 0000 82B0     		sub	sp, sp, #8
 469              		.cfi_def_cfa_offset 8
 470 0002 2023     		movs	r3, #32
 471 0004 0193     		str	r3, [sp, #4]
 472              	.LBB6:
 473              	.LBB7:
 474              		.file 2 "../ChibiOS/os/ext/CMSIS/include/core_cmFunc.h"
 475              		.loc 2 548 0
 476 0006 019B     		ldr	r3, [sp, #4]
 477              	@ 548 "../ChibiOS/os/ext/CMSIS/include/core_cmFunc.h" 1
 478 0008 83F31188 		MSR basepri, r3
 479              	@ 0 "" 2
ARM GAS  /tmp/cclnJnxQ.s 			page 36


 480              		.thumb
 481              	.LBE7:
 482              	.LBE6:
 483              		.loc 1 473 0
 484 000c 02B0     		add	sp, sp, #8
 485              		@ sp needed
 486 000e 7047     		bx	lr
 487              		.cfi_endproc
 488              	.LFE127:
 489              		.size	port_lock, .-port_lock
 490              		.section	.text.port_unlock,"ax",%progbits
 491              		.align	2
 492              		.p2align 4,,15
 493              		.thumb
 494              		.thumb_func
 495              		.type	port_unlock, %function
 496              	port_unlock:
 497              	.LFB128:
 498              		.loc 1 480 0
 499              		.cfi_startproc
 500              		@ args = 0, pretend = 0, frame = 8
 501              		@ frame_needed = 0, uses_anonymous_args = 0
 502              		@ link register save eliminated.
 503 0000 82B0     		sub	sp, sp, #8
 504              		.cfi_def_cfa_offset 8
 505 0002 0023     		movs	r3, #0
 506 0004 0193     		str	r3, [sp, #4]
 507              	.LBB8:
 508              	.LBB9:
 509              		.loc 2 548 0
 510 0006 019B     		ldr	r3, [sp, #4]
 511              	@ 548 "../ChibiOS/os/ext/CMSIS/include/core_cmFunc.h" 1
 512 0008 83F31188 		MSR basepri, r3
 513              	@ 0 "" 2
 514              		.thumb
 515              	.LBE9:
 516              	.LBE8:
 517              		.loc 1 487 0
 518 000c 02B0     		add	sp, sp, #8
 519              		@ sp needed
 520 000e 7047     		bx	lr
 521              		.cfi_endproc
 522              	.LFE128:
 523              		.size	port_unlock, .-port_unlock
 524              		.section	.text.chSysLock,"ax",%progbits
 525              		.align	2
 526              		.p2align 4,,15
 527              		.thumb
 528              		.thumb_func
 529              		.type	chSysLock, %function
 530              	chSysLock:
 531              	.LFB167:
 532              		.file 3 "../ChibiOS/os/rt/include/chsys.h"
 533              		.loc 3 346 0
 534              		.cfi_startproc
 535              		@ args = 0, pretend = 0, frame = 0
 536              		@ frame_needed = 0, uses_anonymous_args = 0
ARM GAS  /tmp/cclnJnxQ.s 			page 37


 537 0000 08B5     		push	{r3, lr}
 538              		.cfi_def_cfa_offset 8
 539              		.cfi_offset 3, -8
 540              		.cfi_offset 14, -4
 541              		.loc 3 348 0
 542 0002 FFF7FEFF 		bl	port_lock
 543              		.loc 3 351 0
 544 0006 08BD     		pop	{r3, pc}
 545              		.cfi_endproc
 546              	.LFE167:
 547              		.size	chSysLock, .-chSysLock
 548              		.section	.text.chSysUnlock,"ax",%progbits
 549              		.align	2
 550              		.p2align 4,,15
 551              		.thumb
 552              		.thumb_func
 553              		.type	chSysUnlock, %function
 554              	chSysUnlock:
 555              	.LFB168:
 556              		.loc 3 358 0
 557              		.cfi_startproc
 558              		@ args = 0, pretend = 0, frame = 0
 559              		@ frame_needed = 0, uses_anonymous_args = 0
 560 0000 08B5     		push	{r3, lr}
 561              		.cfi_def_cfa_offset 8
 562              		.cfi_offset 3, -8
 563              		.cfi_offset 14, -4
 564              		.loc 3 371 0
 565 0002 FFF7FEFF 		bl	port_unlock
 566              		.loc 3 372 0
 567 0006 08BD     		pop	{r3, pc}
 568              		.cfi_endproc
 569              	.LFE168:
 570              		.size	chSysUnlock, .-chSysUnlock
 571              		.global	ch_debug
 572              		.section	.rodata.ch_debug,"a",%progbits
 573              		.align	2
 574              		.type	ch_debug, %object
 575              		.size	ch_debug, 22
 576              	ch_debug:
 577 0000 6D       		.byte	109
 578 0001 61       		.byte	97
 579 0002 69       		.byte	105
 580 0003 6E       		.byte	110
 581 0004 00       		.byte	0
 582 0005 16       		.byte	22
 583 0006 8018     		.short	6272
 584 0008 04       		.byte	4
 585 0009 04       		.byte	4
 586 000a 44       		.byte	68
 587 000b 08       		.byte	8
 588 000c 0C       		.byte	12
 589 000d 10       		.byte	16
 590 000e 14       		.byte	20
 591 000f 18       		.byte	24
 592 0010 1C       		.byte	28
 593 0011 20       		.byte	32
ARM GAS  /tmp/cclnJnxQ.s 			page 38


 594 0012 21       		.byte	33
 595 0013 22       		.byte	34
 596 0014 00       		.byte	0
 597 0015 00       		.byte	0
 598 0016 0000     		.section	.text.chRegFirstThread,"ax",%progbits
 599              		.align	2
 600              		.p2align 4,,15
 601              		.global	chRegFirstThread
 602              		.thumb
 603              		.thumb_func
 604              		.type	chRegFirstThread, %function
 605              	chRegFirstThread:
 606              	.LFB241:
 607              		.file 4 "../ChibiOS/os/rt/src/chregistry.c"
 608              		.loc 4 131 0
 609              		.cfi_startproc
 610              		@ args = 0, pretend = 0, frame = 8
 611              		@ frame_needed = 0, uses_anonymous_args = 0
 612 0000 00B5     		push	{lr}
 613              		.cfi_def_cfa_offset 4
 614              		.cfi_offset 14, -4
 615 0002 83B0     		sub	sp, sp, #12
 616              		.cfi_def_cfa_offset 16
 617              		.loc 4 134 0
 618 0004 FFF7FEFF 		bl	chSysLock
 619              		.loc 4 135 0
 620 0008 084B     		ldr	r3, .L7
 621 000a 1B69     		ldr	r3, [r3, #16]
 622 000c 0193     		str	r3, [sp, #4]
 623              		.loc 4 137 0
 624 000e 019B     		ldr	r3, [sp, #4]
 625 0010 93F82230 		ldrb	r3, [r3, #34]	@ zero_extendqisi2
 626 0014 0133     		adds	r3, r3, #1
 627 0016 DAB2     		uxtb	r2, r3
 628 0018 019B     		ldr	r3, [sp, #4]
 629 001a 83F82220 		strb	r2, [r3, #34]
 630              		.loc 4 139 0
 631 001e FFF7FEFF 		bl	chSysUnlock
 632              		.loc 4 141 0
 633 0022 019B     		ldr	r3, [sp, #4]
 634              		.loc 4 142 0
 635 0024 1846     		mov	r0, r3
 636 0026 03B0     		add	sp, sp, #12
 637              		@ sp needed
 638 0028 5DF804FB 		ldr	pc, [sp], #4
 639              	.L8:
 640              		.align	2
 641              	.L7:
 642 002c 00000000 		.word	ch
 643              		.cfi_endproc
 644              	.LFE241:
 645              		.size	chRegFirstThread, .-chRegFirstThread
 646              		.section	.text.chRegNextThread,"ax",%progbits
 647              		.align	2
 648              		.p2align 4,,15
 649              		.global	chRegNextThread
 650              		.thumb
ARM GAS  /tmp/cclnJnxQ.s 			page 39


 651              		.thumb_func
 652              		.type	chRegNextThread, %function
 653              	chRegNextThread:
 654              	.LFB242:
 655              		.loc 4 155 0
 656              		.cfi_startproc
 657              		@ args = 0, pretend = 0, frame = 16
 658              		@ frame_needed = 0, uses_anonymous_args = 0
 659 0000 00B5     		push	{lr}
 660              		.cfi_def_cfa_offset 4
 661              		.cfi_offset 14, -4
 662 0002 85B0     		sub	sp, sp, #20
 663              		.cfi_def_cfa_offset 24
 664 0004 0190     		str	r0, [sp, #4]
 665              		.loc 4 158 0
 666 0006 FFF7FEFF 		bl	chSysLock
 667              		.loc 4 159 0
 668 000a 019B     		ldr	r3, [sp, #4]
 669 000c 1B69     		ldr	r3, [r3, #16]
 670 000e 0393     		str	r3, [sp, #12]
 671              		.loc 4 161 0
 672 0010 039A     		ldr	r2, [sp, #12]
 673 0012 0C4B     		ldr	r3, .L13
 674 0014 9A42     		cmp	r2, r3
 675 0016 02D1     		bne	.L10
 676              		.loc 4 163 0
 677 0018 0023     		movs	r3, #0
 678 001a 0393     		str	r3, [sp, #12]
 679 001c 07E0     		b	.L11
 680              	.L10:
 681              		.loc 4 168 0
 682 001e 039B     		ldr	r3, [sp, #12]
 683 0020 93F82230 		ldrb	r3, [r3, #34]	@ zero_extendqisi2
 684 0024 0133     		adds	r3, r3, #1
 685 0026 DAB2     		uxtb	r2, r3
 686 0028 039B     		ldr	r3, [sp, #12]
 687 002a 83F82220 		strb	r2, [r3, #34]
 688              	.L11:
 689              		.loc 4 171 0
 690 002e FFF7FEFF 		bl	chSysUnlock
 691              		.loc 4 173 0
 692 0032 0198     		ldr	r0, [sp, #4]
 693 0034 FFF7FEFF 		bl	chThdRelease
 694              		.loc 4 176 0
 695 0038 039B     		ldr	r3, [sp, #12]
 696              		.loc 4 177 0
 697 003a 1846     		mov	r0, r3
 698 003c 05B0     		add	sp, sp, #20
 699              		@ sp needed
 700 003e 5DF804FB 		ldr	pc, [sp], #4
 701              	.L14:
 702 0042 00BF     		.align	2
 703              	.L13:
 704 0044 00000000 		.word	ch
 705              		.cfi_endproc
 706              	.LFE242:
 707              		.size	chRegNextThread, .-chRegNextThread
ARM GAS  /tmp/cclnJnxQ.s 			page 40


 708 0048 AFF30080 		.text
 708      AFF30080 
 709              	.Letext0:
 710              		.file 5 "/nfs/nfs5/home/research/hardware/arm2/gcc-arm-embedded/gcc-arm-none-eabi-4_8-2014q2/lib/g
 711              		.file 6 "/nfs/nfs5/home/research/hardware/arm2/gcc-arm-embedded/gcc-arm-none-eabi-4_8-2014q2/arm-n
 712              		.file 7 "/nfs/nfs5/home/research/hardware/arm2/gcc-arm-embedded/gcc-arm-none-eabi-4_8-2014q2/arm-n
 713              		.file 8 "../ChibiOS/os/rt/ports/ARMCMx/compilers/GCC/chtypes.h"
 714              		.file 9 "../ChibiOS/os/rt/include/chsystypes.h"
 715              		.file 10 "../ChibiOS/os/rt/include/chschd.h"
 716              		.file 11 "../ChibiOS/os/rt/ports/ARMCMx/chcore.h"
 717              		.file 12 "../ChibiOS/os/rt/include/chtm.h"
 718              		.file 13 "../ChibiOS/os/rt/include/chsem.h"
 719              		.file 14 "../ChibiOS/os/rt/include/chmtx.h"
 720              		.file 15 "../ChibiOS/os/rt/include/chregistry.h"
 721              		.file 16 "../ChibiOS/os/ext/CMSIS/include/core_cm4.h"