ARM GAS  /tmp/ccOzWYNS.s 			page 1


   1              		.syntax unified
   2              		.cpu cortex-m4
   3              		.fpu softvfp
   4              		.eabi_attribute 20, 1
   5              		.eabi_attribute 21, 1
   6              		.eabi_attribute 23, 3
   7              		.eabi_attribute 24, 1
   8              		.eabi_attribute 25, 1
   9              		.eabi_attribute 26, 1
  10              		.eabi_attribute 30, 6
  11              		.eabi_attribute 34, 1
  12              		.eabi_attribute 18, 4
  13              		.thumb
  14              		.file	"chschd.c"
  15              		.text
  16              	.Ltext0:
  17              		.section	.gnu.lto_.inline.da6d1e2609e877ea,"",%progbits
  18 0000 789C7591 		.ascii	"x\234u\221\277\022\0011\020\306\277\313\345Np\316\371"
  18      BF120131 
  18      10C6BFCB 
  18      E54E70CE 
  18      F9
  19 0011 EFCC6006 		.ascii	"\357\314`\006\265\202\026\217\300\223x\0043\036@\241"
  19      B582168F 
  19      C0937804 
  19      331E40A1 
  20 0021 32A3BB5E 		.ascii	"2\243\273^\343\021\024*\225Z\345\021\324*{!2\347\"\305"
  20      E311142A 
  20      955AE511 
  20      D42A7B21 
  20      32E722C5 
  21 0035 379B5FBE 		.ascii	"7\233_\276\335M6\014\014\246\265\370\340\006\300m\200"
  21      DD4D360C 
  21      0CA6B5F8 
  21      E006C06D 
  21      80
  22 0046 F1C710FC 		.ascii	"\361\307\020\374\355\265R\204\201{\244,\352~=9\022\333"
  22      EDB55284 
  22      817BA42C 
  22      EA7E3D39 
  22      12DB
  23 0058 8C391C4E 		.ascii	"\2149\034N\330=\315\024v 2D\274\343R\021\027YA\304_"
  23      D83DCD14 
  23      76203244 
  23      BCE35211 
  23      175941C4 
  24 006d AF14C9A4 		.ascii	"\257\024\311\244<Ys\371\234\031\347S]=\270\016\021\261"
  24      3C5973F9 
  24      9C19E753 
  24      5D3DB80E 
  24      11B1
  25 007f 9D2B5280 		.ascii	"\235+R\200\010\222\204\345I|\024}\012[\367\233\245x"
  25      089284E5 
  25      497C147D 
  25      0A5BF79B 
  25      A578
  26 0091 11ED4B7C 		.ascii	"\021\355K|<x\034\254D\033\231\240E2)\001\3021\301\316"
ARM GAS  /tmp/ccOzWYNS.s 			page 2


  26      3C781CAC 
  26      441B99A0 
  26      45322901 
  26      C231C1CE 
  27 00a5 FAF94DB0 		.ascii	"\372\371M\260=e\223Q\011\315s\014\202\353\306J\364\327"
  27      3D659351 
  27      09CD730C 
  27      82EBC64A 
  27      F4D7
  28 00b7 16193974 		.ascii	"\026\0319t\031\224\321>\305\240\027\355\331\237z2\252"
  28      1994D13E 
  28      C5A017ED 
  28      D99F7A32 
  28      AA
  29 00c8 A4C65645 		.ascii	"\244\306VE8\371y\215\266\353\354\032\372S\332\217\242"
  29      38F9798D 
  29      B6EBEC1A 
  29      FA53DA8F 
  29      A2
  30 00d9 9DFDA77E 		.ascii	"\235\375\247~\035\"LNTO\240a\376\004\274\000\255\346"
  30      1D224C4E 
  30      544FA061 
  30      FE04BC00 
  30      ADE6
  31 00eb 2333     		.ascii	"#3"
  32              		.text
  33              		.section	.gnu.lto_port_lock.da6d1e2609e877ea,"",%progbits
  34 0000 789C6362 		.ascii	"x\234cb`b@\007\"@,\310\310\300P\007\342030\002U021\002"
  34      60624007 
  34      22402CC8 
  34      C8C05007 
  34      E2303330 
  35 001a 05181819 		.ascii	"\005\030\030\031\352\231\030\353#AL\006F%\206\205\015"
  35      EA9918EB 
  35      23414C06 
  35      46258685 
  35      0D
  36 002b 0D931EB4 		.ascii	"\015\223\036\264>{\3144\263\341@\313\202\206?\377\377"
  36      3E7BCC34 
  36      B3E140CB 
  36      82863FFF 
  36      FF
  37 003c 33326632 		.ascii	"32f2\002M\324cdHfd\210\000r\030\025\300\024\023\013"
  37      024DD463 
  37      64486664 
  37      88007218 
  37      15C01413 
  38 0051 AA15EB99 		.ascii	"\252\025\353\231\016<\370\377\377D\347\363\275@\223"
  38      0E3CF8FF 
  38      FF44E7F3 
  38      BD4093
  39 0060 19121917 		.ascii	"\031\022\031\027\002M\003\002V\206\226\206\206\011\012"
  39      024D0302 
  39      56869686 
  39      86090A
  40 006f 0C20DD40 		.ascii	"\014 \335@\020\002&CA\016`>\313\320\264\003H\24732\202"
  40      10022643 
ARM GAS  /tmp/ccOzWYNS.s 			page 3


  40      410E603E 
  40      CBD0B403 
  40      48A73332 
  41 0084 CC6300AA 		.ascii	"\314c\000\252a8\307\320\364\361\315\214\307\022p]`F"
  41      6138C7D0 
  41      F4F1CD8C 
  41      C712705D 
  41      6046
  42 0096 C381EE2B 		.ascii	"\303\201\356+\355\2540#\023\031\0273\262\002\215\203"
  42      EDAC3023 
  42      13191733 
  42      B2028D83 
  43 00a6 38190893 		.ascii	"8\031\010\223\231A>f\206x[\216\241dn\303\014\207LFf"
  43      99413E66 
  43      86785B8E 
  43      A1646EC3 
  43      0C874C46 
  44 00bb 102F1DAC 		.ascii	"\020/\035\254\012.U\016\221\202\272\374\"C\343\203\235"
  44      0A2E550E 
  44      9182BAFC 
  44      2243E383 
  44      9D
  45 00cc FA10E360 		.ascii	"\372\020\343` \004\244\001\244Z[OO\3379#3)\323?X?\277"
  45      2004A401 
  45      A45A5B4F 
  45      4FDF3923 
  45      3329D33F 
  46 00e3 58BFA844 		.ascii	"X\277\250D\277 \277\250\244X\3371\310\327\331\267B?"
  46      BF20BFA8 
  46      A458DF31 
  46      C8D7D9B7 
  46      423F
  47 00f5 392339BF 		.ascii	"9#9\277(5\276\314<W/\203\201\265,1\2474U\017UGjE\211"
  47      2835BECC 
  47      3C572F83 
  47      81B52C31 
  47      A734550F 
  48 010e BEB36FB0 		.ascii	"\276\263o\260g\260~f^rNiJ\252>XGr\256[i^2P\223\200o"
  48      67B07E66 
  48      5E724E69 
  48      4AAA3E58 
  48      4772AE5B 
  49 0129 70904252 		.ascii	"p\220BRbqjAQ\246\216\202\252\001\003S\021\003{njn~Q"
  49      62716A41 
  49      51A68E82 
  49      AA010353 
  49      11037B6E 
  50 0141 2503005A 		.ascii	"%\003\000Z\240au"
  50      A06175
  51              		.text
  52              		.section	.gnu.lto_port_unlock.da6d1e2609e877ea,"",%progbits
  53 0000 789C6362 		.ascii	"x\234cb`b@\007\"@,\310\310\300P\007\342030\002U021\002"
  53      60624007 
  53      22402CC8 
  53      C8C05007 
  53      E2303330 
  54 001a 05181819 		.ascii	"\005\030\030\031\352\231\030\353#AL\006F%\206\205\015"
ARM GAS  /tmp/ccOzWYNS.s 			page 4


  54      EA9918EB 
  54      23414C06 
  54      46258685 
  54      0D
  55 002b 0D931EB4 		.ascii	"\015\223\036\264~z\3144\263\341@\313\202\206?\377\377"
  55      7E7ACC34 
  55      B3E140CB 
  55      82863FFF 
  55      FF
  56 003c 33326632 		.ascii	"32f2\002M\324cdHfd\210\000r\030\025\300\024\023\013"
  56      024DD463 
  56      64486664 
  56      88007218 
  56      15C01413 
  57 0051 AA15EB99 		.ascii	"\252\025\353\231\016<\370\377\377E\347\376}@\223\031"
  57      0E3CF8FF 
  57      FF45E7FE 
  57      7D409319 
  58 0061 12191702 		.ascii	"\022\031\027\002M\003\002V\206\226\206\206\011\012\014"
  58      4D030256 
  58      86968686 
  58      090A0C
  59 0070 20DD4010 		.ascii	" \335@\020\002&CA\016`>\313\320\264\003H\24732\202\314"
  59      02264341 
  59      0E603ECB 
  59      D0B40348 
  59      A7333282 
  60 0085 031B728E 		.ascii	"\003\033r\216\241\351\343\233\031\217%\340\272\300\214"
  60      A1E9E39B 
  60      198F25E0 
  60      BAC08C
  61 0094 8603A79F 		.ascii	"\206\003\247\237\266\263\302\214Ld\\\314\310\0124\016"
  61      B6B3C28C 
  61      4C645CCC 
  61      C80A340E 
  62 00a4 E264204C 		.ascii	"\342d Lf\006\371\230\031\342m9\206\222\271\0153\034"
  62      6606F998 
  62      19E26D39 
  62      8692B90D 
  62      331C
  63 00b6 32199941 		.ascii	"2\031\231A\274t\260*\270T9D\012\352\362\213\014\215"
  63      BC74B02A 
  63      B8543944 
  63      0AEAF28B 
  63      0C8D
  64 00c8 0FCEEB43 		.ascii	"\017\316\353C\214\203\201\020\220\006\220jm==}\347\214"
  64      8C838110 
  64      9006906A 
  64      6D3D3D7D 
  64      E78C
  65 00da CCA44CFF 		.ascii	"\314\244L\377`\375\374b\375\242\022\375\202\374\242"
  65      60FDFC62 
  65      FDA212FD 
  65      82FCA2
  66 00e9 92627DC7 		.ascii	"\222b}\307 _g\337\012\375\344\214\344\374\242\324\370"
  66      205F67DF 
  66      0AFDE48C 
ARM GAS  /tmp/ccOzWYNS.s 			page 5


  66      E4FCA2D4 
  66      F8
  67 00fa 32F35CBD 		.ascii	"2\363\\\275\014\006\326\262\304\234\322T=T\035\251\025"
  67      0C06D6B2 
  67      C49CD254 
  67      3D541DA9 
  67      15
  68 010b 25FACEBE 		.ascii	"%\372\316\276\301\236\301\372\231y\3119\245)\251\372"
  68      C19EC1FA 
  68      9979C939 
  68      A529A9FA 
  69 011b 601DC9B9 		.ascii	"`\035\311\271n\245y\311@M\002\276\301A\012I\211\305"
  69      6EA579C9 
  69      404D02BE 
  69      C1410A49 
  69      89C5
  70 012d A9054599 		.ascii	"\251\005E\231:\012\252\006\014LE\014\354\271\251\271"
  70      3A0AAA06 
  70      0C4C450C 
  70      ECB9A9B9 
  71 013d F945950C 		.ascii	"\371E\225\014\000\233\025a\301"
  71      009B1561 
  71      C1
  72              		.text
  73              		.section	.gnu.lto_port_lock_from_isr.da6d1e2609e877ea,"",%progbits
  74 0000 789C6362 		.ascii	"x\234cb`b@\007\"@\\\006\304\272 \0163\003#P\005#\023"
  74      60624007 
  74      22405C06 
  74      C4BA200E 
  74      33032350 
  75 0017 232390C3 		.ascii	"##\220\303\310P\317\304X\037\311\010V\266\236\351\300"
  75      C850CFC4 
  75      581FC908 
  75      56B69EE9 
  75      C0
  76 0028 83FFFFD7 		.ascii	"\203\377\377\327\355\273\277n\015\343?&\220\030+CKC"
  76      EDBBBF6E 
  76      0DE33F26 
  76      90182B43 
  76      4B43
  77 003a C3040506 		.ascii	"\303\004\005\006\206d\260\212\0200\031\012\322\317|"
  77      8664B08A 
  77      1030190A 
  77      D2CF7C
  78 0049 9EA1F9C1 		.ascii	"\236\241\371\301\313~\366D\306\205\214\254@\301j\206"
  78      CB7EF644 
  78      C6858CAC 
  78      40C16A86 
  79 0059 5F0D1D0D 		.ascii	"_\015\035\015\002\231\214@\245\020\3232A\364E\206\306"
  79      02998C40 
  79      A510D332 
  79      41F44586 
  79      C6
  80 006a 07AFF461 		.ascii	"\007\257\364a\212  \004$\001r\244\266\236\236\276sF"
  80      8A202004 
  80      240172A4 
  80      B69E9EBE 
ARM GAS  /tmp/ccOzWYNS.s 			page 6


  80      7346
  81 007c 6652A67F 		.ascii	"fR\246\177\260~~\261~Q\211~A~QI\261\276c\220\257\263"
  81      B07E7EB1 
  81      7E51897E 
  81      417E5149 
  81      B1BE6390 
  82 0092 6F857E72 		.ascii	"o\205~rFr~Qj|\231y\256^\006\003\000`@*\240"
  82      46727E51 
  82      6A7C9979 
  82      AE5E0603 
  82      0060402A 
  83              		.text
  84              		.section	.gnu.lto_port_unlock_from_isr.da6d1e2609e877ea,"",%progbits
  85 0000 789C6362 		.ascii	"x\234cb`b@\007\"@\\\006\304\272 \0163\003#P\005#\023"
  85      60624007 
  85      22405C06 
  85      C4BA200E 
  85      33032350 
  86 0017 232390C3 		.ascii	"##\220\303\310P\317\304X\037\311\010V\266\236\351\300"
  86      C850CFC4 
  86      581FC908 
  86      56B69EE9 
  86      C0
  87 0028 83FFFFD7 		.ascii	"\203\377\377\327}\271\277\376\016\343\177&\220\030+"
  87      7DB9BFFE 
  87      0EE37F26 
  87      90182B
  88 0037 434B43C3 		.ascii	"CKC\303\004\005\006\206d\260\212\0200\031\012\322\317"
  88      04050686 
  88      64B08A10 
  88      30190AD2 
  88      CF
  89 0048 7C9EA1F9 		.ascii	"|\236\241\371\301\237\363\354\211\214\013\031Y\201\202"
  89      C19FF3EC 
  89      898C0B19 
  89      598182
  90 0057 D50CBF1A 		.ascii	"\325\014\277\032:\032\0042\031\201J!\246e\202\350\213"
  90      3A1A0432 
  90      19814A21 
  90      A66582E8 
  90      8B
  91 0068 0C8D0FFE 		.ascii	"\014\215\017\376\352\303\024A@\010H\002\344Hm==}\347"
  91      EAC31441 
  91      40084802 
  91      E4486D3D 
  91      3D7DE7
  92 007b 8CCCA44C 		.ascii	"\214\314\244L\377`\375\374b\375\242\022\375\202\374"
  92      FF60FDFC 
  92      62FDA212 
  92      FD82FC
  93 008a A292627D 		.ascii	"\242\222b}\307 _g\337\012\375\344\214\344\374\242\324"
  93      C7205F67 
  93      DF0AFDE4 
  93      8CE4FCA2 
  93      D4
  94 009b F832F35C 		.ascii	"\3702\363\\\275\014\006\000\303\301+n"
  94      BD0C0600 
ARM GAS  /tmp/ccOzWYNS.s 			page 7


  94      C3C12B6E 
  95              		.text
  96              		.section	.gnu.lto_queue_init.da6d1e2609e877ea,"",%progbits
  97 0000 789C6362 		.ascii	"x\234cb`b@\007\"@|\032\210U@\034f\006F\240\012F&FF "
  97      60624007 
  97      22407C1A 
  97      8855401C 
  97      660646A0 
  98 001a 8791A19E 		.ascii	"\207\221\241\236\211\261>\222\021\254l=\323\201\007"
  98      89B13E92 
  98      11AC6C3D 
  98      D38107
  99 0029 FFFFAFFB 		.ascii	"\377\377\257\373\361\354\3051\306\023\233Y\200*r\301"
  99      F1ECC531 
  99      C6139B59 
  99      802A72C1 
 100 0039 12AC0C2D 		.ascii	"\022\254\014-\015\015\023\024\030\030\222\301\334\020"
 100      0D0D1314 
 100      181892C1 
 100      DC10
 101 0047 30190A32 		.ascii	"0\031\0122\205\371,C\323\351\033\357{\344\023\031\027"
 101      85F92C43 
 101      D3E91BEF 
 101      7BE41319 
 101      17
 102 0058 32B23268 		.ascii	"2\2622h3\254j\000\002\336LF\206\331\014\263\0303\031"
 102      33AC6A00 
 102      02DE4C46 
 102      86D90CB3 
 102      183319
 103 006b 19D31919 		.ascii	"\031\323\031\031#\2004\304II\020k\030\322AV\203t\376"
 103      238034C4 
 103      4949106B 
 103      18D24156 
 103      8374FE
 104 007e 205E2723 		.ascii	" ^'#B\347E\206\306\007@\347A4\302@\010H\006\244XIOO"
 104      42E74586 
 104      C60740E7 
 104      4134C240 
 104      084806A4 
 105 0096 DF392333 		.ascii	"\3379#3)\323?X?\277X\277\250D?3/9\2474%U?9\24389#E/"
 105      29D33F58 
 105      3FBF58BF 
 105      A8443F33 
 105      2F39A734 
 106 00b4 8301006C 		.ascii	"\203\001\000lz9\373"
 106      7A39FB
 107              		.text
 108              		.section	.gnu.lto_queue_fifo_remove.da6d1e2609e877ea,"",%progbits
 109 0000 789C9591 		.ascii	"x\234\225\221=K\003A\020\206gv/*H~\200\210\020\002\""
 109      3D4B0341 
 109      10866776 
 109      2F2A487E 
 109      80881002 
 110 0015 18C8FD02 		.ascii	"\030\310\375\002+\177\200\205\011D\254\362!\271\003"
 110      2B7F8085 
 110      0944ACF2 
ARM GAS  /tmp/ccOzWYNS.s 			page 8


 110      21B903
 111 0024 BF30B1CE 		.ascii	"\2770\261\316\032b#\004BP\310\207`\004\021\261Q\014"
 111      1A622304 
 111      4250C887 
 111      600411B1 
 111      510C
 112 0036 F6278820 		.ascii	"\366'\210 \301\302.Z\245\024\322\244\264\020\317\331"
 112      C1C22E5A 
 112      A514D2A4 
 112      B410CFD9 
 113 0046 DB5CBC58 		.ascii	"\333\\\274X\030\035\270\331\275\331y\366}o\216\001\203"
 113      181DB8D9 
 113      BDD979F6 
 113      7D6F8E01 
 113      83
 114 0057 9F314D4F 		.ascii	"\2371MO\231\312s\362E\003\244-2\344\2249\"\225\020r"
 114      99CA73F2 
 114      4503A42D 
 114      32E49439 
 114      22951072 
 115 006b 8C636E05 		.ascii	"\214cn\005\235\363 \234\012Q\356\3547\213\241\352\241"
 115      9DF3209C 
 115      0A51EEEC 
 115      378BA1EA 
 115      A1
 116 007c 5568880F 		.ascii	"Uh\210\017\333F4\345a\022!F;\0148\013\323\206e\024h"
 116      DB4634E5 
 116      61122146 
 116      3B0C380B 
 116      D3866514 
 117 0091 D5BBD753 		.ascii	"\325\273\327S\007\215|I|\022\367W\254f\235t+\377\307"
 117      078D7C49 
 117      7C12F757 
 117      AC669D74 
 117      2BFFC7
 118 00a4 CAD651F7 		.ascii	"\312\326Q\367\015\253\302k\223\301,\216`\257\230\325"
 118      0DABC26B 
 118      93C12C8E 
 118      60AF98D5 
 119 00b4 B1EDE397 		.ascii	"\261\355\343\227\207\373;l\337jc\210\033\222\213\343"
 119      87FB3B6C 
 119      DF6A6388 
 119      1B928BE3 
 120 00c4 19068103 		.ascii	"\031\006\201\003]\242\311\344\003\307\007\255\005!J"
 120      5DA2C9E4 
 120      03C707AD 
 120      05214A
 121 00d3 0175ECF8 		.ascii	"\001u\354\370\242\21089*\207\311\237 \377\332\276)\316"
 121      A2883839 
 121      2A87C99F 
 121      20FFDABE 
 121      29CE
 122 00e5 C4F11C7D 		.ascii	"\304\361\034}\220F\026\202KA\261J|\035j\344\200\247"
 122      90461682 
 122      4B41B14A 
 122      7C1D6AE4 
 122      80A7
ARM GAS  /tmp/ccOzWYNS.s 			page 9


 123 00f7 11A51365 		.ascii	"\021\245\023e$\201\256\023IVh\322.\311C0?\200|tSL\315"
 123      2481AE13 
 123      495668D2 
 123      2EC94330 
 123      3F807C74 
 124 010e C281F01B 		.ascii	"\302\201\360\033z\354\215+\244\257\344\037\241\224\226"
 124      7AEC8D2B 
 124      A4AFE41F 
 124      A19496
 125 011d BF5B8A5D 		.ascii	"\277[\212]4\375\256\226\346\325\372\305`\25379\244\265"
 125      34FDAE96 
 125      E6D5FAC5 
 125      60AB3739 
 125      A4B5
 126 012f E035A879 		.ascii	"\3405\250y\015\262\276\026*\217\357\315\"w\305\344\267"
 126      0DB2BE16 
 126      2A8FEFCD 
 126      2277C5E4 
 126      B7
 127 0140 A8B6A8B4 		.ascii	"\250\266\250\264\302[\2607\001\220\222\255\317\200\203"
 127      C25BB037 
 127      019092AD 
 127      CF8083
 128 014f 2ED51291 		.ascii	".\325\022\221e\331\036\014\207\365E\303L\230K\313\372"
 128      65D91E0C 
 128      87F545C3 
 128      4C984BCB 
 128      FA
 129 0160 5646DFC9 		.ascii	"VF\337\311\352\346fr}7\265\246'\215L\322H\205\015`\331"
 129      EAE66672 
 129      7D37B5A6 
 129      278D4CD2 
 129      48850D60 
 130 0175 ED2FAFDC 		.ascii	"\355/\257\334\230;"
 130      983B
 131              		.text
 132              		.section	.gnu.lto_queue_dequeue.da6d1e2609e877ea,"",%progbits
 133 0000 789C6362 		.ascii	"x\234cb`b@\007\322@\374\014(\254\002\342\26000\002\231"
 133      60624007 
 133      D240FC0C 
 133      28AC02E2 
 133      B0303002 
 134 0015 8C4C8CCC 		.ascii	"\214L\214\314@\222\231\221\021(\304\310P\317\304\314"
 134      40929991 
 134      1128C4C8 
 134      50CFC4CC 
 135 0025 581F0962 		.ascii	"X\037\011b3\260*1,lh\230\364`\351\356^\326\231S\016"
 135      33B02A31 
 135      2C6C6898 
 135      F460E9EE 
 135      5ED69953 
 136 003a B42C68F8 		.ascii	"\264,h\370\363\377?#c&H2\231\221!\002\310bT\000SL,\250"
 136      F3FF3F23 
 136      63264832 
 136      99912102 
 136      C8625400 
 137 0052 D6403436 		.ascii	"\326@46|}\022p\242\241\345\300\377\377\366D\3539p\367"
ARM GAS  /tmp/ccOzWYNS.s 			page 10


 137      7C7D1270 
 137      A2A1E5C0 
 137      FFFFF644 
 137      EB3970F7 
 138 0066 F50AC9AE 		.ascii	"\365\012\311\256\005M\023\032\376\001\355\242\245U\263"
 138      054D131A 
 138      FE01EDA2 
 138      A555B3
 139 0075 0E7C7C3D 		.ascii	"\016||=\203$\253\3263\035x\360\377\377\236\273\307\266"
 139      8324ABD6 
 139      331D78F0 
 139      FFFF9EBB 
 139      C7B6
 140 0087 CD615CAF 		.ascii	"\315a\\\257\314\316\310\230\313\010\014b\240Ff\020\301"
 140      CCCEC898 
 140      CB080C62 
 140      A0466610 
 140      C1
 141 0098 02225841 		.ascii	"\002\"XA\004\033C&$\374\030Z\032\032&(\200\215\005\202"
 141      041B4326 
 141      24FC185A 
 141      1A1A2628 
 141      808D0582 
 142 00ac 1030190A 		.ascii	"\0200\031\012\012s\346\263\014M\267v\000\2035\221q\031"
 142      0A73E6B3 
 142      0C4DB776 
 142      00833591 
 142      7119
 143 00be 232B433A 		.ascii	"#+C:#\2236\203\026P\323l\206Y@{\231\323\031\031# \016"
 143      23933683 
 143      1650D36C 
 143      8659407B 
 143      99D31919 
 144 00d5 02822446 		.ascii	"\002\202$F\230\375 M\027\370`Z\230\361iaDh9y\201\033"
 144      98FD204D 
 144      17F8605A 
 144      98F16961 
 144      44683979 
 145 00eb A2459B61 		.ascii	"\242E\233aU\003\020X#kb\302\324\224\016J\016 \253n "
 145      55031058 
 145      236B62C2 
 145      D4940E4A 
 145      0E20AB6E 
 146 0100 B98F8548 		.ascii	"\271\217\205H\313\220\334\307J\244\227\360\272\217\005"
 146      CB90DCC7 
 146      4AA497F0 
 146      BA8F05
 147 010f 5313D064 		.ascii	"S\023\320d\260\276\3233\366\3652\303,cK\207\271\"\024"
 147      B0BED333 
 147      F6F532C3 
 147      2C634B87 
 147      B92214
 148 0122 E47CE6D3 		.ascii	"\344|\346\323\014\215\034\014\014) \301\213\014\214"
 148      0C8D1C0C 
 148      0C2920C1 
 148      8B0C8C
 149 0131 70551025 		.ascii	"pU\020%! aP\336P\322\323\323w\316\310L\312\364\017\326"
ARM GAS  /tmp/ccOzWYNS.s 			page 11


 149      21206150 
 149      DE50D2D3 
 149      D377CEC8 
 149      4CCAF40F 
 150 0146 CF2FD62F 		.ascii	"\317/\326/*\321\317\314K\316)MI\325O\316(N\316H\321"
 150      2AD1CFCC 
 150      4BCE294D 
 150      49D54FCE 
 150      284ECE48 
 151 015b CB600000 		.ascii	"\313`\000\000\371\336\244k"
 151      F9DEA46B 
 152              		.text
 153              		.section	.gnu.lto_chSchIsRescRequiredI.da6d1e2609e877ea,"",%progbits
 154 0000 789C9551 		.ascii	"x\234\225Q;K\003A\020\236\331\335\213\211\205X)h\023"
 154      3B4B0341 
 154      109ED9DD 
 154      8B898558 
 154      296813
 155 0013 A29542EE 		.ascii	"\242\225B\356'X\370\003\024L@\355\314Er\013>\300he\221"
 155      2758F803 
 155      144C40ED 
 155      CC45720B 
 155      3EC06865 
 156 0028 8D496113 		.ascii	"\215Ia\023\020\021\204\330h#v\221\210\205\205\220J\004"
 156      101184D8 
 156      68237691 
 156      88858590 
 156      4A04
 157 003a 0D689B2A 		.ascii	"\015h\233*\205Io'\0228g79\215!\240Y\270\331\357\366"
 157      85496F27 
 157      12386737 
 157      398D21A0 
 157      59B8D9EF 
 158 004f E67BEC1C 		.ascii	"\346{\354\034\003\006\275k\222\2362\035O\353\027\001"
 158      0306BD6B 
 158      929E321D 
 158      4FEB1701 
 159 005f 48101972 		.ascii	"H\020\031r\252\034\221\216\0202\214cfEc\260\"p\241T"
 159      AA1C918E 
 159      10328C63 
 159      664563B0 
 159      2270A154 
 160 0073 B1DE6816 		.ascii	"\261\336h\026\370\351I%{\256Z\236\207(\365G\007a\231"
 160      F8E94925 
 160      7BAE5A9E 
 160      8728F547 
 160      076199
 161 0086 1006CDC6 		.ascii	"\020\006\315\306\360\267\215!\036\253\333\267\305G\225"
 161      F0B78D21 
 161      1EABDBB7 
 161      C54795
 162 0095 AF78DE9C 		.ascii	"\257x\336\234\324\036>'\334\346\210\276\234\362\225"
 162      D41E3E27 
 162      DCE688BE 
 162      9CF295
 163 00a4 0A19232E 		.ascii	"\012\031#.Q\374\223s\323\030\334\347\276\213\363\247"
 163      51FC9373 
ARM GAS  /tmp/ccOzWYNS.s 			page 12


 163      D318DCE7 
 163      BE8BF3A7 
 164 00b4 4F8955EA 		.ascii	"O\211U\352\236\327z\177(=\343\335T\000\201|\030\025"
 164      9ED77A7F 
 164      283DE3DD 
 164      5400817C 
 164      1815
 165 00c6 C135121A 		.ascii	"\3015\022\032Y \333C\203\274RGa\243H+fj\\\017\232W\341"
 165      5920DB43 
 165      83BC5247 
 165      61A3482B 
 165      666A5C0F 
 166 00dd A0F6D12C 		.ascii	"\240\366\321,L\254\341%Z\220B\234\205\031\242\233j\231"
 166      4CACE125 
 166      5A90429C 
 166      8519A29B 
 166      6A99
 167 00ef 1A388362 		.ascii	"\0328\203bV\251Q\211C\373\360\251\0165\012n\032\011"
 167      56A95189 
 167      43FBF0A9 
 167      0E350A6E 
 167      1A09
 168 0101 1D2B68C2 		.ascii	"\035+h\302$:\303N vv\377?\223\301\252/\316\214`\210"
 168      243AC34E 
 168      207676FF 
 168      3F93C1AA 
 168      2FCE8C60 
 169 0116 0489384C 		.ascii	"\004\2118LfZ\200w\010\374\207P\273\036\363)\274+\317"
 169      665A8077 
 169      08FC8750 
 169      BB1EF329 
 169      BC2BCF
 170 0129 80494497 		.ascii	"\200ID\227\340\313\270/(z2\360\376\031r\325\334\210"
 170      E0CBB82F 
 170      287A32F0 
 170      FE1972D5 
 170      DC88
 171 013b 4FB12879 		.ascii	"O\261(y\312\227\213\353&\376\004Y\262K\352\333\276\002"
 171      CA978BEB 
 171      26FE0459 
 171      B24BEADB 
 171      BE02
 172 014d 7E37B65B 		.ascii	"~7\266[b\372X\337?\022\215\332\363\256L\310\205%{;m"
 172      62FA58DF 
 172      3F128DDA 
 172      F3AE4CC8 
 172      85257B3B 
 173 0162 EFECDA72 		.ascii	"\357\354\332r\313\331\330K\256\333\216\233v\334d\324"
 173      CBD9D84B 
 173      AEDB8E9B 
 173      76DC64D4 
 174 0172 852F821C 		.ascii	"\205/\202\034\224y"
 174      9479
 175              		.text
 176              		.section	.gnu.lto_chSysLockFromISR.da6d1e2609e877ea,"",%progbits
 177 0000 789C6362 		.ascii	"x\234cb`b@\007\"@\\\006\304\312 \0163\003#P\005#\023"
 177      60624007 
ARM GAS  /tmp/ccOzWYNS.s 			page 13


 177      22405C06 
 177      C4CA200E 
 177      33032350 
 178 0017 232390C3 		.ascii	"##\220\303\310P\317\304X\037\311\010V\266\236\351\300"
 178      C850CFC4 
 178      581FC908 
 178      56B69EE9 
 178      C0
 179 0028 83FFFFD7 		.ascii	"\203\377\377\327M\271\265\366\017\343\013&\220\030+"
 179      4DB9B5F6 
 179      0FE30B26 
 179      90182B
 180 0037 434B43C3 		.ascii	"CKC\303\004\005\006\206d\260\212\0200\031\012\322\317"
 180      04050686 
 180      64B08A10 
 180      30190AD2 
 180      CF
 181 0048 7C9EA1F9 		.ascii	"|\236\241\371A\317Z\356D\306\205\214\254@\301j\206_"
 181      41CF5AEE 
 181      44C6858C 
 181      AC40C16A 
 181      865F
 182 005a 0D1D0D02 		.ascii	"\015\035\015\002\231\214@\245\020\3232A\364E\206\306"
 182      998C40A5 
 182      10D33241 
 182      F44586C6 
 183 006a 07FDBA30 		.ascii	"\007\375\2720E\020\020\002\222\0009RQOO\3379#3)\323"
 183      45101002 
 183      92003952 
 183      514F4FDF 
 183      39233329 
 184 007f 3F583FBF 		.ascii	"?X?\277X\277\250D?3/9\2474%U?9\243\270\262X/\203\001"
 184      58BFA844 
 184      3F332F39 
 184      A7342555 
 184      3F39A3B8 
 185 0098 00967A26 		.ascii	"\000\226z&\320"
 185      D0
 186              		.text
 187              		.section	.gnu.lto_chSysUnlockFromISR.da6d1e2609e877ea,"",%progbits
 188 0000 789C6362 		.ascii	"x\234cb`b@\007\"@\\\006\304\312 \0163\003#P\005#\023"
 188      60624007 
 188      22405C06 
 188      C4CA200E 
 188      33032350 
 189 0017 232390C3 		.ascii	"##\220\303\310P\317\304X\037\311\010V\266\236\351\300"
 189      C850CFC4 
 189      581FC908 
 189      56B69EE9 
 189      C0
 190 0028 83FFFFD7 		.ascii	"\203\377\377\327\335\271\265n\017\343k&\220\030+CKC"
 190      DDB9B56E 
 190      0FE36B26 
 190      90182B43 
 190      4B43
 191 003a C3040506 		.ascii	"\303\004\005\006\206d\260\212\0200\031\012\322\317|"
 191      8664B08A 
ARM GAS  /tmp/ccOzWYNS.s 			page 14


 191      1030190A 
 191      D2CF7C
 192 0049 9EA1F9C1 		.ascii	"\236\241\371\301\256\267\334\211\214\013\031Y\201\202"
 192      AEB7DC89 
 192      8C0B1959 
 192      8182
 193 0057 D50CBF1A 		.ascii	"\325\014\277\032:\032\0042\031\201J!\246e\202\350\213"
 193      3A1A0432 
 193      19814A21 
 193      A66582E8 
 193      8B
 194 0068 0C8D0F76 		.ascii	"\014\215\017v\353\302\024A@\010H\002\344HE==}\347\214"
 194      EBC21441 
 194      40084802 
 194      E448453D 
 194      3D7DE78C 
 195 007c CCA44CFF 		.ascii	"\314\244L\377`\375\374b\375\242\022\375\314\274\344"
 195      60FDFC62 
 195      FDA212FD 
 195      CCBCE4
 196 008b 9CD29454 		.ascii	"\234\322\224T\375\344\214\342\312b\275\014\006\000\321"
 196      FDE48CE2 
 196      CA62BD0C 
 196      0600D1
 197 009a 3F2776   		.ascii	"?'v"
 198              		.text
 199              		.section	.gnu.lto_chVTIsArmedI.da6d1e2609e877ea,"",%progbits
 200 0000 789C5D50 		.ascii	"x\234]P=K\003A\024\234\331\275\223Tvbas\244T\271\373"
 200      3D4B0341 
 200      149CD9BD 
 200      93547662 
 200      6173A454 
 201 0016 0916FE00 		.ascii	"\011\026\376\000\005\023\320\322\\$\267\340\007h\264"
 201      0513D0D2 
 201      5C24B7E0 
 201      0768B4
 202 0025 CD6A5259 		.ascii	"\315jRY\005\313\263\022\261\266\265\011\244\024$\205"
 202      05CBB312 
 202      B1B6B509 
 202      A4142485 
 203 0035 9D8AC5A1 		.ascii	"\235\212\305\241\376\012\213[w7\344 >\330\267o\337\233"
 203      FE0A8B5B 
 203      7737E420 
 203      3ED8B76F 
 203      DF9B
 204 0047 D9199E80 		.ascii	"\331\031\236\200\300\377X\261g\235@\335=\002\320\"("
 204      C0FF58B1 
 204      679D40DD 
 204      3D02D022 
 204      28
 205 0058 286D96B4 		.ascii	"(m\226\264m\020=!\331\333s5D\035wZ\347\305C\231/_\027"
 205      6D103D21 
 205      D9DB7335 
 205      441D775A 
 205      E7C54399 
 206 006f 7AA84B63 		.ascii	"z\250Kc\250\334(%vm\305\232\277\004\347E<\355F\277\377"
 206      A8DC2825 
ARM GAS  /tmp/ccOzWYNS.s 			page 15


 206      766DC59A 
 206      BF04E745 
 206      3CED46BF 
 207 0084 6C3FEBC1 		.ascii	"l?\353\301\330\230\015\345\024f\234h\312\011\3469\217"
 207      D8980DE5 
 207      14669C68 
 207      CA09E639 
 207      8F
 208 0095 625C18F3 		.ascii	"b\\\030\3639\032}\377r) \217h\335[\236\204\027D\210"
 208      391A7DFF 
 208      7229208F 
 208      68DD5B9E 
 208      84174488 
 209 00a9 81D6C3C8 		.ascii	"\201\326\303\310\177c\243\341s\323\371\227\023\\}<\225"
 209      7F63A3E1 
 209      73D3F997 
 209      135C7D3C 
 209      95
 210 00ba 5F629FF7 		.ascii	"_b\237\367\014\321\241X\303\252bp\213\334\352\204\035"
 210      0CD1A158 
 210      C3AA6270 
 210      8BDCEA84 
 210      1D
 211 00cb D2E92D78 		.ascii	"\322\351-x\225V\345t\202\376[\177qF\221\226\345P\225"
 211      9556E574 
 211      82FE5B7F 
 211      71469196 
 211      E55095
 212 00de A9A6732C 		.ascii	"\251\246s,_pY\003\332n3\257`\005\236B\032\256\3556\034"
 212      5F705903 
 212      DA6E33AF 
 212      60059E42 
 212      1AAEED36 
 213 00f3 C571B299 		.ascii	"\305q\262\231\251\226\332\332IN\316\222\323n\242\216"
 213      A996DADA 
 213      494ECE92 
 213      D36EA28E 
 214 0103 D3C3F3F6 		.ascii	"\323\303\363\366A\222f\027\3358\303\037<\305HT"
 214      41926617 
 214      DD38C31F 
 214      3CC54854 
 215              		.text
 216              		.section	.gnu.lto_chSemFastSignalI.da6d1e2609e877ea,"",%progbits
 217 0000 789C6362 		.ascii	"x\234cb`b@\007\"@\354\307\310\300\240\014\342030\002"
 217      60624007 
 217      2240ECC7 
 217      C8C0A00C 
 217      E2303330 
 218 0015 55303231 		.ascii	"U021\002\005\030\030\031\352\231\030\353#AL\006&%\206"
 218      02051818 
 218      19EA9918 
 218      EB23414C 
 218      06262586 
 219 0029 850D0D13 		.ascii	"\205\015\015\023\036\034]\266R\262kA\323\204\206\177"
 219      1E1C5DB6 
 219      52B26B41 
 219      D384867F 
ARM GAS  /tmp/ccOzWYNS.s 			page 16


 220 0039 FFFF3366 		.ascii	"\377\3773f\202\244\222\031\031\"\200,F\0050\305\304"
 220      82A49219 
 220      1922802C 
 220      460530C5 
 220      C4
 221 004a 826A3A44 		.ascii	"\202j:D[\303\316'\001'\032Z\016\374\377oO\204\236\365"
 221      5BC3CE27 
 221      01271A5A 
 221      0EFCFF6F 
 221      4F849EF5 
 222 005e 4C071EFC 		.ascii	"L\007\036\374\377\377\346\342\216\307\263\031\205X\030"
 222      FFFFE6E2 
 222      8EC7B319 
 222      855818
 223 006d 19731981 		.ascii	"\031s\031\201\316\006\352cf\000kf`eh\001\232\251\000"
 223      CE06EA63 
 223      66006B66 
 223      60656801 
 223      9AA900
 224 0080 36060842 		.ascii	"6\006\010B\300d(\310\341\314g\031\232n\335X\246\231"
 224      C06428C8 
 224      E1CC6719 
 224      9A6EDD58 
 224      A699
 225 0092 C8B89891 		.ascii	"\310\270\230\221\225!\235\221I\233A+\223\221y6\303,"
 225      95219D91 
 225      499B412B 
 225      93917936 
 225      C32C
 226 00a4 A0352CE9 		.ascii	"\2405,\351\214\214 \353X\301\226$1\302\254;\313\320"
 226      8C8C20EB 
 226      58C19624 
 226      31C2AC3B 
 226      CBD0
 227 00b6 DCD15C04 		.ascii	"\334\321\\\004\323\302\014\324\005R\305\314\010\226"
 227      D3C20CD4 
 227      0552C5CC 
 227      0896
 228 00c4 6AF28448 		.ascii	"j\362\204Hh3\254j\000\002n\002\246\001\36530\\dh|0["
 228      6833AC6A 
 228      00026E02 
 228      A601F533 
 228      305C6468 
 229 00db 15A20F06 		.ascii	"\025\242\017\006B@!\012\012|E==}\347\214\314\244L\377"
 229      4240210A 
 229      0A7C453D 
 229      3D7DE78C 
 229      CCA44CFF 
 230 00ef 60FDFC62 		.ascii	"`\375\374b\375\242\022\375\314\274\344\234\322\224T"
 230      FDA212FD 
 230      CCBCE49C 
 230      D29454
 231 00fe FDE48CE2 		.ascii	"\375\344\214\342\324\\\275\014\006\0001\036PQ"
 231      D45CBD0C 
 231      0600311E 
 231      5051
 232              		.text
ARM GAS  /tmp/ccOzWYNS.s 			page 17


 233              		.section	.gnu.lto__scheduler_init.da6d1e2609e877ea,"",%progbits
 234 0000 789C6362 		.ascii	"x\234cb`b@\007\"@\314\017\024V\000q\230\031\030\201"
 234      60624007 
 234      2240CC0F 
 234      14560071 
 234      98191881 
 235 0014 4C462646 		.ascii	"LF&FF \207\221\241\236\211\261>\222\021\254l=\323\201"
 235      46208791 
 235      A19E89B1 
 235      3E9211AC 
 235      6C3DD381 
 236 0028 07FFFFAF 		.ascii	"\007\377\377\257\233\3246o\016\343L&\220\030+CKC\303"
 236      9BD4366F 
 236      0EE34C26 
 236      90182B43 
 236      4B43C3
 237 003b 04A0B664 		.ascii	"\004\240\266d\260\212\0200\031\012\322\317|\236\241"
 237      B08A1030 
 237      190AD2CF 
 237      7C9EA1
 238 004a E541F762 		.ascii	"\345A\367b\366D\306\205\214\254@\301j\206_\015\035\015"
 238      F644C685 
 238      8CAC40C1 
 238      6A865F0D 
 238      1D0D
 239 005c 02998C40 		.ascii	"\002\231\214@\245\020\323@\"\034\231\214\214\332\014"
 239      A510D340 
 239      221C998C 
 239      8CDA0C
 240 006b AB1A8020 		.ascii	"\253\032\200 >\223\221\011\312\014\316dd\316edH\202"
 240      3E939109 
 240      CA0CCE64 
 240      64CE6564 
 240      4882
 241 007d A803D210 		.ascii	"\250\003\322\020\006\324\250LF\026\006\206\263\014M"
 241      06D4A84C 
 241      46160686 
 241      B30C4D
 242 008c 3B663CBE 		.ascii	";f<\276\301\004\021\203\3523\317dd\2052\271\201F\314"
 242      C1041183 
 242      EA33CF64 
 242      648532B9 
 242      8146CC
 243 009f 6698D5D8 		.ascii	"f\230\325\330\000\262\222\015n9{.\330\250\010F \023"
 243      00B2920D 
 243      6E397B2E 
 243      D8A80846 
 243      2013
 244 00b1 6A36CC0E 		.ascii	"j6\314\016H\250\200d8@\014\240\005\277\232w\367\350"
 244      48A88064 
 244      38400CA0 
 244      05BF9A77 
 244      F7E8
 245 00c3 A05BC049 		.ascii	"\240[\300I\266\005\314p_w44L\005*\340\202\0325\233\021"
 245      B605CC70 
 245      5F773434 
 245      4C052AE0 
ARM GAS  /tmp/ccOzWYNS.s 			page 18


 245      821A359B 
 246 00d8 D5BF0C70 		.ascii	"\325\277\014p\373\367S\323~\026\222\354\277\310\320"
 246      FBF753D3 
 246      7E1692EC 
 246      BFC8D0
 247 00e7 F860A632 		.ascii	"\370`\2462,\366  \004\024\021\240p\222\323\323\323w"
 247      2CF62020 
 247      041411A0 
 247      7092D3D3 
 247      D377
 248 00f9 CEC84CCA 		.ascii	"\316\310L\312\364\017\326\317/\326/*\321/.J\326O\316"
 248      F40FD6CF 
 248      2FD62F2A 
 248      D12F2E4A 
 248      D64FCE
 249 010c 284ECE48 		.ascii	"(N\316H\321Kf\000\0005\276\201r"
 249      D14B6600 
 249      0035BE81 
 249      72
 250              		.text
 251              		.section	.gnu.lto_chSchReadyI.da6d1e2609e877ea,"",%progbits
 252 0000 789C9593 		.ascii	"x\234\225\223\317k\023A\024\307\337\233\231\375\221"
 252      CF6B1341 
 252      14C7DF9B 
 252      99FD91
 253 000f F6D08307 		.ascii	"\366\320\203\007\315Ej\275\210\205\344&\210\007\017"
 253      CD456ABD 
 253      8885E426 
 253      88070F
 254 001e FE010A36 		.ascii	"\376\001\0126\220\236\264\331B\262\207\2404\336z\350"
 254      909EB4D9 
 254      42B287A0 
 254      34DE7AE8 
 255 002e A4F6203D 		.ascii	"\244\366 =\230P\020\264\202\266\267RD\017*\366\"\254"
 255      985010B4 
 255      82B6B752 
 255      440F2AF6 
 255      22AC
 256 0040 B7C6AA6D 		.ascii	"\267\306\252mo\325\213A\024=\010Z\013IS\304\365Mfw\233"
 256      6FD58B41 
 256      143D085A 
 256      0B4953C4 
 256      F54D6677 
 257 0055 C645E383 		.ascii	"\306E\343\203}3\263\373>\363}\357\315,\003\006\335v"
 257      7D33B3FB 
 257      3EF37DEF 
 257      CD2C0306 
 257      DD76
 258 0067 8A9E1306 		.ascii	"\212\236\023\006\300q\265\260\000)\002\031r\362\034"
 258      C071B5B0 
 258      00290219 
 258      72F21C
 259 0076 0579C1C8 		.ascii	"\005y\301\310KF\021R\030h\322\033\023\221B\021\246\030"
 259      4B461152 
 259      1868D21B 
 259      13914211 
 259      A618
ARM GAS  /tmp/ccOzWYNS.s 			page 19


 260 0088 17868953 		.ascii	"\027\206\211S\243j\011\211!X\224r\256\376\351\333\235"
 260      A36A0989 
 260      21589472 
 260      AEFEE9DB 
 260      9D
 261 0099 C3B37559 		.ascii	"\303\263uY\225\277|\037]\365\311A\310\322\014\355\366"
 261      95BF7C1F 
 261      5DF5C941 
 261      C8D20CED 
 261      F6
 262 00aa C0F0A0BE 		.ascii	"\300\360\240\276\306\344\303%\311\027\344O\337\347="
 262      C6E4C325 
 262      C917E44F 
 262      DFE73D
 263 00b9 33DEFD4A 		.ascii	"3\336\375J%9\2730\035J\361}lPc\"V\252\365\361\302\252"
 263      2539BB30 
 263      1D4AF17D 
 263      6C506322 
 263      56AAF5F1 
 264 00cf 9CF17CFF 		.ascii	"\234\361|\377l\317\214\367\264r\253SJ\364\210=[\177"
 264      6CCF8CF7 
 264      B472AB53 
 264      4AF4883D 
 264      5B7F
 265 00e1 B9882459 		.ascii	"\271\210$Y\376\356\373\003\275b\363\336\363\365\332"
 265      FEEEFB03 
 265      BD62F3DE 
 265      F3F5DA
 266 00f0 FF63735E 		.ascii	"\377cs^\363\315\315\244\354H\222\3011\374\007YDx\304"
 266      F3CDCDA4 
 266      EC4892C1 
 266      31FC0759 
 266      4478C4
 267 0103 BCBAEF3F 		.ascii	"\274\272\357?h>\371\360\036\017\365!\214\341\022\016"
 267      683EF9F0 
 267      1E0FF521 
 267      8CE1120E 
 268 0113 01C32252 		.ascii	"\001\303\"Rw\364B\004\243\001\3241S9\213\234\260\225"
 268      77F44204 
 268      A301D431 
 268      53398B9C 
 268      B095
 269 0125 4B403B41 		.ascii	"K@;A\3726#euP\007\026\2033$\033\011<\335+\236Q\375\346"
 269      FA362365 
 269      75500716 
 269      8333241B 
 269      093CDD2B 
 270 013d AF617A65 		.ascii	"\257aze\367G\013\307p\031\015\030\206eI\326\357\242"
 270      F7470BC7 
 270      70190D18 
 270      866549D6 
 270      EFA2
 271 014f 7117E629 		.ascii	"q\027\346)E3\217,\253{L\226\013\216>\253\357\022\000"
 271      45338F2C 
 271      AB7B4C96 
 271      0B8E3EAB 
 271      EF1200
ARM GAS  /tmp/ccOzWYNS.s 			page 20


 272 0162 D17BD71F 		.ascii	"\321{\327\037\33735\235G>\011{\362\206\224\243.Z\301"
 272      DF33359D 
 272      473E097B 
 272      F28694A3 
 272      2E5AC1
 273 0175 5E932EDA 		.ascii	"^\223.\332\301\364\222\213\211\"\262\034b\260[\327\017"
 273      C1F4928B 
 273      8922B21C 
 273      62B05BD7 
 273      0F
 274 0186 9051322A 		.ascii	"\220Q2*\243w[;/0\334S\004\364i\312\"J\012;\223\342\001"
 274      A3775B3B 
 274      2F30DC53 
 274      04F469CA 
 274      224A0A3B 
 275 019d AFC8DD9D 		.ascii	"\257\310\335\235\355\2104\206\341\244\213}\021$:!\321"
 275      ED883486 
 275      E1A48B7D 
 275      11243A21 
 275      D1
 276 01ae 01550742 		.ascii	"\001U\007B\304\354BX\034\262\0123\237\313V\244\222W"
 276      C4EC4258 
 276      1CB20A33 
 276      9FCB56A4 
 276      9257
 277 01c0 3FA2B6B7 		.ascii	"?\242\266\267\200\324\004\376\252u\204\324\304\327\326"
 277      80D404FE 
 277      AA7584D4 
 277      C4D7D6
 278 01cf 655594A1 		.ascii	"eU\224\241\213\252\2554\266\377h\263\210W\322\025\345"
 278      8BAAAD34 
 278      B6FF68B3 
 278      8857D215 
 278      E5
 279 01e0 D5BADD8E 		.ascii	"\325\272\335\216\306&\013\345\254v\206\"\276(c\277\250"
 279      C6260BE5 
 279      AC768622 
 279      BE2863BF 
 279      A8
 280 01f1 DA86D5A3 		.ascii	"\332\206\325\243\230\021\210YZ\354K#j\240\335\245\025"
 280      98118859 
 280      5AEC4B23 
 280      6AA0DDA5 
 280      15
 281 0202 83B599B5 		.ascii	"\203\265\231\265\215\376\003Zg:!;\2560\246\271\333\315"
 281      8DFE035A 
 281      673A213B 
 281      AE30A6B9 
 281      DBCD
 282 0214 BFB524A6 		.ascii	"\277\265$\246\264\210\334j&\303,\023\371\360\"e\324"
 282      B488DC6A 
 282      26C32C13 
 282      F9F02265 
 282      D4
 283 0225 49F03528 		.ascii	"I\3605(\333\000\343Jk\023\242Z\022:dD]>\025~4\225J\237"
 283      DB00E34A 
 283      6B13A25A 
ARM GAS  /tmp/ccOzWYNS.s 			page 21


 283      123A6444 
 283      5D3E157E 
 284 023d 2BB839F7 		.ascii	"+\2709\367\374\305\364\225Rz\342Z\2724\341\244\235B"
 284      FCC5F495 
 284      527AE25A 
 284      BA34E1A4 
 284      9D42
 285 024f C9298CA7 		.ascii	"\311)\214\247\034`\316\325\337\031\254$\216"
 285      1C60CED5 
 285      DF19AC24 
 285      8E
 286              		.text
 287              		.section	.gnu.lto_wakeup.da6d1e2609e877ea,"",%progbits
 288 0000 789C8D53 		.ascii	"x\234\215S\317k\023A\024~ogf7\233\330Z\033/^\244\326"
 288      CF6B1341 
 288      147E6F67 
 288      66379BD8 
 288      5A1B2F5E 
 289 0016 9BC5060F 		.ascii	"\233\305\006\017\336\005\377\000\017\266P\217\355\026"
 289      DE05FF00 
 289      0FB6508F 
 289      ED16
 290 0024 923988DA 		.ascii	"\2229\210\332\364\346\241\2336\025\021\225\022\254\026"
 290      F4E6A19B 
 290      36151195 
 290      12AC16
 291 0033 F5500F52 		.ascii	"\365P\017R\252`\305S\320\036r\257R\254\027\355)\036"
 291      AA60C553 
 291      D01E72AF 
 291      52AC17ED 
 291      291E
 292 0045 3C248278 		.ascii	"<$\202x\021\244\250\361\315\217\315n\323@:0\2633\363"
 292      11A4A8F1 
 292      CD8FCD6E 
 292      D3403A30 
 292      B333F3
 293 0058 CDF7E67B 		.ascii	"\315\367\346{\337\233u\300\201\3166N\375\202\0008\255"
 293      DF9B75C0 
 293      81CE364E 
 293      FD820038 
 293      AD
 294 0069 1669403A 		.ascii	"\026i@:\201\216\360h\301\250s\352.u\241\326\350\023"
 294      818EF068 
 294      C1A873EA 
 294      2E75A1D6 
 294      E813
 295 007b C63145A3 		.ascii	"\3061E\243@\332EW\317==\2464\352#\322I\2049\207q\341"
 295      40DA4557 
 295      CF3D3DA6 
 295      34EA23D2 
 295      49843987 
 296 0091 7A291FE7 		.ascii	"z)\037\347\256\250\035\020\303\360,\014+\365o/\233\370"
 296      AEA81D10 
 296      C3F02C0C 
 296      2BF56F2F 
 296      9BF8
 297 00a3 E841ADB4 		.ascii	"\350A\255\264\032\376i\265\020\245\002\003\204\011\232"
ARM GAS  /tmp/ccOzWYNS.s 			page 22


 297      1AFE69B5 
 297      10A50203 
 297      84099A
 298 00b2 5118F571 		.ascii	"Q\030\365qp\277@M\\\012\327n-\016\2245\213Id1i\310\220"
 298      70BF404D 
 298      5C0AD76E 
 298      2D0E9435 
 298      8B496431 
 299 00c9 781752A5 		.ascii	"x\027R\245\366w\347\376\211;\253\363K\341?\272L\"?$"
 299      F677E7FE 
 299      893BABF3 
 299      4BE13FBA 
 299      4C223F24 
 300 00dd 6DF9D3C3 		.ascii	"m\371\323\303$M\034\222\366\205n\013c\232\353\300)\354"
 300      244D1C92 
 300      F6856E0B 
 300      639AEBC0 
 300      29EC
 301 00ef C1DC706A 		.ascii	"\301\334pj\365Vks\371\327\327\357x\334C\274\212T\242"
 301      F5566B73 
 301      F9D7D7EF 
 301      78DC43BC 
 301      8A54A2
 302 0102 497C8EC3 		.ascii	"I|\216\303d?\231\303i`\202\006\356\202\026B\225(\223"
 302      643F99C3 
 302      69608206 
 302      EE821642 
 302      952893
 303 0115 1D43E68C 		.ascii	"\035C\346\214\026FmL\217\343\252x\354\003\314o\255\220"
 303      16466D4C 
 303      8FE3AA78 
 303      EC03CC6F 
 303      AD90
 304 0127 CB93B846 		.ascii	"\313\223\270F\204<:yU\223mX\250\277j\244\315&\300M\330"
 304      843C3A79 
 304      55936D58 
 304      A8BF6AA4 
 304      CD26C04D 
 305 013c 0B6F8703 		.ascii	"\013o\207\003\022\275\000\215\337RU\221\270\273\277"
 305      12BD008D 
 305      DF525591 
 305      B8BBBF
 306 014b 135C3602 		.ascii	"\023\\6\002g$\372O\3401iOS,\225\203\253\317O\265\313"
 306      6724FA4F 
 306      E031694F 
 306      532C9583 
 306      ABCF4FB5 
 307 0160 44A41F0B 		.ascii	"D\244\037\013\375\021\205\347Uu\336\203\327\336\270"
 307      FD1185E7 
 307      5575DE83 
 307      D7DEB8
 308 016f 07774BE5 		.ascii	"\007wK\345\260V\315J\314\250\363\323\366F\273\377s\220"
 308      B056CD4A 
 308      CCA8F3D3 
 308      F646BBFF 
 308      7390
 309 0181 F6555CDF 		.ascii	"\366U\\\337\200N\022\334k\203L\203,\011\276\316F \327"
ARM GAS  /tmp/ccOzWYNS.s 			page 23


 309      804E12DC 
 309      6B834C83 
 309      2C09BECE 
 309      4620D7
 310 0194 204F8295 		.ascii	" O\202\2256(4(\222\340\3236\350%\230\366\207P\227\260"
 310      36283428 
 310      92E0D336 
 310      E82598F6 
 310      875097B0 
 311 01a8 2D28A54C 		.ascii	"-(\245L\006Z\221\262\357]#\323\315>'\266\317\320y\007"
 311      065A91B2 
 311      EF5D23D3 
 311      CD3E27B6 
 311      CFD07907 
 312 01bc 9D195F3F 		.ascii	"\235\031_?o\304\276\012\355+\037\201\027!\265s\022\217"
 312      6FC4BE0A 
 312      ED2B1F81 
 312      1721B573 
 312      128F
 313 01ce 74B718ED 		.ascii	"t\267\030\3557\372m)Nu\311\252 F\211\310\031\211}\024"
 313      37FA6D29 
 313      4E75C9AA 
 313      204689C8 
 313      19897D14 
 314 01e2 70C23C6F 		.ascii	"p\302<ojj\326\027'#:\324\010\253\346M\223Ej\\\255FX"
 314      6A6AD617 
 314      27233AD4 
 314      08ABE64D 
 314      93456A5C 
 315 01f9 35377AAA 		.ascii	"57z\252a6\3706\224kg\017X\322\037\330\003\024X\342\321"
 315      6136F836 
 315      946B670F 
 315      58D21FD8 
 315      031458E2 
 316 020e 4887DBA1 		.ascii	"H\207\333\241\203k~}w\035\017D\030\010l*t\277\304cQ"
 316      836B7E7D 
 316      771D0F44 
 316      18086C2A 
 316      74BFC463 
 317 0223 04AF2302 		.ascii	"\004\257#\002F@\312\274\372\352\312\333\035\307\200"
 317      4640CABC 
 317      FAEACADB 
 317      1DC780
 318 0232 3695F312 		.ascii	"6\225\363\022\007\3554\3233\253\330\275l+j8gT6d7\221"
 318      07ED34D3 
 318      33ABD8BD 
 318      6C2B6A38 
 318      67543664 
 319 0248 629F48F5 		.ascii	"b\237H\365D\232\353\207{\"\276ME\275=\322\361\021J\365"
 319      449AEB87 
 319      7B22BE4D 
 319      45BD3DD2 
 319      F1114AF5 
 320 025c CDD808D3 		.ascii	"\315\330\010\323\306\2242\305<9:\232\273X\220S\362\322"
 320      C69432C5 
 320      3C393A9A 
 320      BB589053 
ARM GAS  /tmp/ccOzWYNS.s 			page 24


 320      F2D2
 321 026e E5DCB562 		.ascii	"\345\334\265bnf6W\234\011rA\241\030\024\246G\003pf\257"
 321      6E663657 
 321      9C097241 
 321      A11814A6 
 321      47037066 
 322 0283 FF07A5BE 		.ascii	"\377\007\245\276(\367"
 322      28F7
 323              		.text
 324              		.section	.gnu.lto_chSchGoSleepS.da6d1e2609e877ea,"",%progbits
 325 0000 789CBD55 		.ascii	"x\234\275UMhSA\020\236y\373\336\313O\233\266\376\377"
 325      4D685341 
 325      109E79FB 
 325      DECB4F9B 
 325      B6FEFF
 326 0013 1C4A147B 		.ascii	"\034J\024{\320j\242\010\202\202(\010\202\007Q\254\202"
 326      D06AA208 
 326      82822808 
 326      820751AC 
 326      82
 327 0024 7A91F81A 		.ascii	"z\221\370\032\333\207\255\251I\252\202\207n\264\007"
 327      DB87ADA9 
 327      49AA8287 
 327      6EB407
 328 0033 51D1E2A9 		.ascii	"Q\321\342\251V\024\253\340\277\025\025\304?4\210\202"
 328      5614ABE0 
 328      BF1515C4 
 328      3F348882 
 329 0043 A1DA680F 		.ascii	"\241\332h\017\202?\207\034\364\244\240\202\242\210\370"
 329      823F871C 
 329      F4A4A082 
 329      A288F8
 330 0052 9CDD7D2F 		.ascii	"\234\335}/\246\352!Zq!\273;\2633\337|;3\233\247\201"
 330      A6EA215A 
 330      7121BB3B 
 330      B333DF7C 
 330      3B339BA7 
 331 0067 063F8F39 		.ascii	"\006?\2179\364\273\345\003\340B\360\001\222\005j\310"
 331      F4BBE503 
 331      E042F001 
 331      92056AC8 
 332 0077 6866A8D3 		.ascii	"hf\250\323\254k\006\035j&M\272\201\264\240\211H\246"
 332      AC6B061D 
 332      6A264DBA 
 332      81B4A089 
 332      48A6
 333 0089 081D1AD3 		.ascii	"\010\035\032\323\015\023;\326\010\021B\223\241\227\363"
 333      0D133BD6 
 333      08114293 
 333      A197F3
 334 0098 03857BC7 		.ascii	"\003\205{\307{&\354>\272\243\213\177s\034\264\305\221"
 334      7B26EC3E 
 334      BAA38B7F 
 334      731CB4C5 
 334      91
 335 00a9 85B09A76 		.ascii	"\205\260\232v\030\226\213\246\017\215\257\334\262\027"
 335      18968BA6 
ARM GAS  /tmp/ccOzWYNS.s 			page 25


 335      0F8DAFDC 
 335      B217
 336 00b7 07FB7B91 		.ascii	"\007\373{\221\037\340\231w\216S]\266\033\277\366r\371"
 336      1FE09977 
 336      8E535DB6 
 336      1BBFF672 
 336      F9
 337 00c8 7DDE9975 		.ascii	"}\336\231u\234\005\266\340\\V\250k\203\271\277\010\225"
 337      9C05B6E0 
 337      5C56A86B 
 337      83B9BF08 
 337      95
 338 00d9 BD3EB837 		.ascii	"\275>\2707\330\225\331\305\035\247\243\354X\374\322"
 338      D895D9C5 
 338      1DA7A3EC 
 338      58FCD2
 339 00e8 291E38CA 		.ascii	")\0368\312\277:\016\263E6\377\213O\271\027\372\224\337"
 339      BF3A0EB3 
 339      4536FF8B 
 339      4FB917FA 
 339      94DF
 340 00fa 37819754 		.ascii	"7\201\227TJ\203IX\236\347\215\301\\I\002\015\015\352"
 340      4A834958 
 340      9EE78DC1 
 340      5C49020D 
 340      0DEA
 341 010c CA72ECC9 		.ascii	"\312r\354\311~\334?\244\312fyL\013\227\337_\231q\220"
 341      7EDC3FA4 
 341      CA66794C 
 341      0B97DF5F 
 341      997190
 342 011f 673B7BC5 		.ascii	"g;{\305\015\221\354L\215\314\313\013y\373y\356\217B"
 342      0D91EC4C 
 342      8DCCCB0B 
 342      79FB79EE 
 342      8F42
 343 0131 5ED0B205 		.ascii	"^\320\262\005\307\351\373\220?\371\006sZ5B\014O\343"
 343      C7E9FB90 
 343      3FF90673 
 343      5A35420C 
 343      4FE3
 344 0143 64D0B015 		.ascii	"d\320\260\025\201\001\245I\027\223A\0233\305\316'v~"
 344      8101A549 
 344      17934113 
 344      33C5CE27 
 344      767E
 345 0155 B23A4B56 		.ascii	"\262:KV\001\022\364\240\230*\304Y%\251\373H\035\"\301"
 345      0112F4A0 
 345      982AC459 
 345      25A9FB48 
 345      1D22C1
 346 0168 AC22E13C 		.ascii	"\254\"\341<\0114\014\350\344\274+\254\220%!\032+\345"
 346      09340CE8 
 346      E4BC2BAC 
 346      9025211A 
 346      2BE5
 347 017a BC4A3C40 		.ascii	"\274J<@\366\020v<\373\354\314\215\341E4\240\011\261"
ARM GAS  /tmp/ccOzWYNS.s 			page 26


 347      F610763C 
 347      FBECCC8D 
 347      E14534A0 
 347      09B1
 348 018c 1ECE701A 		.ascii	"\036\316p\032\263\011\263\036\246\331\350;\004=\031"
 348      B309B31E 
 348      A6D9E83B 
 348      043D19
 349 019b CE6B6CF4 		.ascii	"\316kl\364o\207/|\227\330\005Z\345\273\024w\012\310"
 349      6F872F7C 
 349      97D8055A 
 349      E5BB1477 
 349      0AC8
 350 01ad 9BAC4770 		.ascii	"\233\254GpWw\003\004\333\337}\354\216\246p]\320\220"
 350      57770304 
 350      DBDF7DEC 
 350      8EA6705D 
 350      D090
 351 01bf 8D418223 		.ascii	"\215A\202#\267\012\212\264Z\275Y\351\246\376,\232\304"
 351      B70A8AB4 
 351      5ABD59E9 
 351      A6FE2C9A 
 351      C4
 352 01d0 9A87CEC2 		.ascii	"\232\207\316\302>\333\343\303\212A+-\027\\h\3746\206"
 352      3EDBE3C3 
 352      8A412B2D 
 352      175C68FC 
 352      3686
 353 01e2 24BD2A45 		.ascii	"$\275*E\222\010\375\340\300\344\252\020(\035\325\222"
 353      9208FDE0 
 353      C0E4AA10 
 353      281DD592 
 354 01f2 CD128FC9 		.ascii	"\315\022\217\311\264a\335\254I\240\213\234u\237\230"
 354      B461DDAC 
 354      49A08B9C 
 354      759F98
 355 0201 E771D487 		.ascii	"\347q\324\207\013\252\020\273|\036\240!\241j\212\251"
 355      0BAA10BB 
 355      7C1EA021 
 355      A16A8AA9 
 356 0211 D24B5355 		.ascii	"\322KSU\332D\253\004\033Y\302\356\223\023=o\363\237"
 356      DA44AB04 
 356      1B59C2EE 
 356      93133D6F 
 356      F39F
 357 0223 D0B9FA28 		.ascii	"\320\271\372(8\244v\263Jkg\376Z;\241\031!t\003\220y"
 357      38A476B3 
 357      4A6B67FE 
 357      5A3BA119 
 357      21740390 
 358 0238 FFF4E673 		.ascii	"\377\364\346s,v^\237\354<)\362ln@\367z\263hpV\212n\275"
 358      2C765E9F 
 358      EC3C29F2 
 358      6C6E40F7 
 358      7AB36870 
 359 0250 448F2A44 		.ascii	"D\217*D\002[\307\304g\204\251oI-\264\036\346\335\013"
 359      025BC7C4 
ARM GAS  /tmp/ccOzWYNS.s 			page 27


 359      6784A96F 
 359      492DB41E 
 359      E6DD0B
 360 0263 6D1CA90A 		.ascii	"m\034\251\012Q\351Q\315\235{\362\326\214\341\003y\373"
 360      51E951CD 
 360      9D7BF2D6 
 360      8CE10379 
 360      FB
 361 0274 907740C9 		.ascii	"\220w@\311\241T\261~\310\370\001\032\005&\231\036\251"
 361      A154B17E 
 361      C8F8011A 
 361      0526991E 
 361      A9
 362 0285 139E5564 		.ascii	"\023\236Ud\246<\037|\230\022\303\001\351\350#\275T\276"
 362      A63C1F7C 
 362      9812C301 
 362      E9E823BD 
 362      54BE
 363 0297 669ECA4F 		.ascii	"f\236\312OZ\241\332\271\247\250\012\220V\276\345\027"
 363      5AA1DAB9 
 363      A7A80A90 
 363      56BEE517 
 364 02a7 0E3D7215 		.ascii	"\016=r\025\177\255w\030\2249\327\177\337\342\206\233"
 364      7FAD7718 
 364      9439D77F 
 364      DFE2869B 
 365 02b7 DBFB70F7 		.ascii	"\333\373p\367\025\226\300\005K\313IF,\017\272:V\255"
 365      1596C005 
 365      4BCB4946 
 365      2C0FBA3A 
 365      56AD
 366 02c9 2E6B36CA 		.ascii	".k6\312r\273Zh\306\3338\272\0266\253d\214\001\327\330"
 366      72BB5A68 
 366      C6DB38BA 
 366      1636AB64 
 366      8C01D7D8 
 367 02dd C6B11E8A 		.ascii	"\306\261\036\212\251\232\242\310\253b\370\035\221\007"
 367      A99AA2C8 
 367      AB62F81D 
 367      9107
 368 02eb E31752E3 		.ascii	"\343\027R\343,\267\031\233\344em\034\017\360\0302\205"
 368      2CB7199B 
 368      E4656D1C 
 368      0FF01832 
 368      85
 369 02fc 23538BB5 		.ascii	"#S\213\265\224c\245@\021%\254\215D\242\213\232\355\365"
 369      9463A540 
 369      1125AC8D 
 369      44A28B9A 
 369      EDF5
 370 030e F6B28668 		.ascii	"\366\262\206h\"\025M\246\243\251\244\025\265\232SVs"
 370      22154DA6 
 370      A3A9A415 
 370      B59A5356 
 370      73
 371 031f 63C40296 		.ascii	"c\304\002\226H\267\261\344\254\331\221\241f\361m\351"
 371      48B7B1E4 
ARM GAS  /tmp/ccOzWYNS.s 			page 28


 371      ACD991A1 
 371      66F16DE9 
 372 032f E8A2A50D 		.ascii	"\350\242\245\015K\032\242\366&\253\245\2751\036\265"
 372      4B1AA2F6 
 372      26ABA5BD 
 372      311EB5
 373 033e 12C9F83A 		.ascii	"\022\311\370:\253uq\373&+\322\014f2\236joI\207\226\256"
 373      AB7571FB 
 373      262BD20C 
 373      66329E6A 
 373      6F498796 
 374 0353 6808D7CD 		.ascii	"h\010\327\315\234\036nK\265\005\201\315OBu*\035\263"
 374      9C1E6E4B 
 374      B50581CD 
 374      4F42752A 
 374      1DB3
 375 0365 3686135B 		.ascii	"6\206\023[\342\311\015-\211\255\360\035\374\231\302"
 375      E2C90D2D 
 375      89ADF01D 
 375      FC99C2
 376 0374 CE       		.ascii	"\316"
 377              		.text
 378              		.section	.gnu.lto_chSchGoSleepTimeoutS.da6d1e2609e877ea,"",%progbits
 379 0000 789CA554 		.ascii	"x\234\245T=hSQ\024>\347\336\367\227VM\325\0267\255u"
 379      3D685351 
 379      143EE7DE 
 379      F797564D 
 379      D51637AD 
 380 0015 B39020B8 		.ascii	"\263\220 \27098\270\271(\330@:&\257\220\274\241(Mq\260"
 380      3938B8B9 
 380      28D8403A 
 380      26AF90BC 
 380      A1284D71 
 381 002a 436F4AC0 		.ascii	"CoJ\300\342\024\212\004\177\226t(\225\266\340P\204\016"
 381      E2148A04 
 381      7F967428 
 381      95B6E050 
 381      840E
 382 003c 8A4FA74A 		.ascii	"\212O\247J\021\321!B\247\200N\255\210\233R\324\3479"
 382      11D12142 
 382      A7804EAD 
 382      889B52D4 
 382      E739
 383 004e F7BEBC46 		.ascii	"\367\276\274F[\261\340\201\334{\336\273\347\373\276"
 383      5BB1E081 
 383      DC7BDEBB 
 383      E7FBBE
 384 005d F3735F04 		.ascii	"\363s_\004\010\370\323.\323\357\202\005p\206\037R\200"
 384      08F8D32E 
 384      D3EF8205 
 384      70861F52 
 384      80
 385 006e 14814248 		.ascii	"\024\201BH\000%\034Z,),\366m\366-\244\015mtiu\364\352"
 385      00251C5A 
 385      2C292CF6 
 385      6DF62DA4 
 385      0D6D7469 
ARM GAS  /tmp/ccOzWYNS.s 			page 29


 386 0085 A247AB87 		.ascii	"\242G\253\207H`\204i!-\333q=\234\036\345\027`\017\301"
 386      48608469 
 386      212DDB71 
 386      3D9C1EE5 
 386      17600FC1 
 387 0099 BC5273ED 		.ascii	"\274Rs\355\205\255\035\274\1777\2545\325\367(B\014\370"
 387      85AD1DBC 
 387      7F37AC35 
 387      D5F72842 
 387      0CF8
 388 00ab D047C893 		.ascii	"\320G\310\223\207\203zc\221n3\300\360}\253q\342N[\325"
 388      87837A63 
 388      916E33C0 
 388      F07DAB71 
 388      E24E5BD5 
 389 00bf D54FC205 		.ascii	"\325O\302\005(wa\236\201\341>\260{\341\327\326\253y"
 389      2877619E 
 389      81E13EB0 
 389      7BE1D7D6 
 389      AB79
 390 00d1 5473AAFA 		.ascii	"Ts\252\372%\212\322\001Z\007SSO>^]W\2650\212.\0360\303"
 390      258AD201 
 390      5A075353 
 390      4F3E5E5D 
 390      57B5308A 
 391 00e9 B01E3E6F 		.ascii	"\260\036>o5P5g:\031\332\002Nc\202l\232]\364\377\016"
 391      35503567 
 391      3A19DA02 
 391      4E63826C 
 391      9A5DF4FF 
 392 00fe 7D2CC276 		.ascii	"},\302v\024\255\254\376\370\360\024\007\\\304q\244\271"
 392      14ADACFE 
 392      F8F01407 
 392      5CC471A4 
 392      B9
 393 010f 90A4248F 		.ascii	"\220\244$\217\222\245:m~t@\247\0166\324\224\252\017"
 393      92A53A6D 
 393      7E7440A7 
 393      0E36D494 
 393      AA0F
 394 0121 EA84C846 		.ascii	"\352\204\310F\364\232\343A\311u\250}z\361\254!\013\270"
 394      F49AE341 
 394      C975A87D 
 394      7AF1AC21 
 394      0BB8
 395 0133 48A32921 		.ascii	"H\243)!\262\234\023\221\245\273\364r\3348\371\032f6"
 395      B29C1391 
 395      A5BBF472 
 395      DC38F91A 
 395      6636
 396 0145 D7B636AD 		.ascii	"\327\2666\255\230\256\200\0138D\207\006JVB1\014gIW\257"
 396      98AE800B 
 396      38448706 
 396      4A564231 
 396      0C674957 
 397 015a EE437850 		.ascii	"\356CxPU\252/@o\012v\324,{\251q\026\325%\2454q1n\177"
 397      55AA2F40 
ARM GAS  /tmp/ccOzWYNS.s 			page 30


 397      6F0A76D4 
 397      2C7BA971 
 397      16D525A5 
 398 0173 113B7378 		.ascii	"\021;sx\003\267\303S\005|\244)\023`\217\037\007L\301"
 398      03B7C353 
 398      057CA429 
 398      13608F1F 
 398      074CC1
 399 0186 AD007B8D 		.ascii	"\255\000{\215t\034EIs\234\027\340!\037E\362R\004x\230"
 399      741C4549 
 399      739C17E0 
 399      211F45F2 
 399      52047898 
 400 019a E96AEDA5 		.ascii	"\351j\355\245\215\236=\204G|.I'-\003L\233\300\345\345"
 400      8D9E3D84 
 400      477C2E49 
 400      272D034C 
 400      9BC0E5E5 
 401 01ae 5E135842 		.ascii	"^\023XB+\211\354\363\321\372\233t\200G\001\270\205\325"
 401      2B89ECF3 
 401      D1FA9B74 
 401      804701B8 
 401      85D5
 402 01c0 7309306F 		.ascii	"s\0110o\256Yw\363\010/\231\177e{o\"\307|\323\274\375"
 402      AE5977F3 
 402      082F997F 
 402      657B6F22 
 402      C77CD3BC 
 403 01d5 E98F7728 		.ascii	"\351\217w(l\335\377\227\333q}&\354<\254\252Y\2763\211"
 403      6CDDFF97 
 403      DB717D26 
 403      EC3CACAA 
 403      59BE3389 
 404 01e9 92132BAD 		.ascii	"\222\023+\255q\311\213\377(\331@\334x\262\337>\277\303"
 404      71C98BFF 
 404      28D940DC 
 404      78B2DF3E 
 404      BFC3
 405 01fb CE2DB0FF 		.ascii	"\316-\260\377\177\216Ly\243\303\347\014\303\222\"\033"
 405      7F8E4C79 
 405      A3C3E70C 
 405      C392221B 
 406 020b A5FB18BB 		.ascii	"\245\373\030\273\364\205\364\02331\014\220^\336|\322"
 406      F485F413 
 406      33310C90 
 406      5EDE7CD2 
 407 021b 9A41C47B 		.ascii	"\232A\304{w\023s\374/!7\240J\333\030\237\274\205j\230"
 407      771373FC 
 407      2F2137A0 
 407      4ADB189F 
 407      BC856A98 
 408 022f 5C5AC704 		.ascii	"\\Z\307\004\215\2608\243Of2\331K\345\240\030\\\271\226"
 408      8DB038A3 
 408      4F6632D9 
 408      4BE5A018 
 408      5CB996
 409 0242 BD5EC94E 		.ascii	"\275^\311NLf+\023~\326/W\374\362X\306\007qs\362\027"
ARM GAS  /tmp/ccOzWYNS.s 			page 31


 409      4C662B13 
 409      7ED62F57 
 409      FCF258C6 
 409      077173F2 
 410 0257 E0E9F210 		.ascii	"\340\351\362\020"
 411              		.text
 412              		.section	.gnu.lto_chSchWakeupS.da6d1e2609e877ea,"",%progbits
 413 0000 789CCD56 		.ascii	"x\234\315V]\214\023U\024>g\356\314\364o\273]\304\037"
 413      5D8C1355 
 413      143E67EE 
 413      CCF46FBB 
 413      5DC41F
 414 0013 78590BC9 		.ascii	"xY\013\311\276\270\322JL\364\311HBB\342\003\221\270"
 414      BEB8D24A 
 414      4CF4C948 
 414      4242E203 
 414      91B8
 415 0025 40565F48 		.ascii	"@V_H\231\255\335\211[\272\266]5\361\201[\354\003\201"
 415      99ADDD89 
 415      5BBAB65D 
 415      35F1815B 
 415      EC0381
 416 0038 A8041F16 		.ascii	"\250\004\037\026k\226\260B\010!q%\254A\036\210N\262"
 416      6B96B042 
 416      08217125 
 416      AC411E88 
 416      4EB2
 417 004a 3E809B15 		.ascii	">\200\233\025\220D\261,I\023\300\304h\"<I6\206\361\334"
 417      9044B12C 
 417      4913C0C4 
 417      68223C49 
 417      3686F1DC 
 418 005e 7B678671 		.ascii	"{g\206q\351C\255!\341&=s\357\271\347;\367\234\357\234"
 418      E943AD21 
 418      E1263D73 
 418      EFB9E73B 
 418      F79CEF9C 
 419 0072 B9530D34 		.ascii	"\271S\0154X>\206\351\267\024\005\340b\221\000$\013\324"
 419      583E86E9 
 419      B71405E0 
 419      62910024 
 419      0BD4
 420 0084 9091649A 		.ascii	"\220\221d\232Nj\315 \241\353\030'\215\201&I\023#$#\232"
 420      4E6ACD20 
 420      A1EB1827 
 420      8D812649 
 420      13232423 
 421 0099 006931B1 		.ascii	"\000i1\261\033Ez`L\332\304\021\311\021\302n\215\351"
 421      1B457A60 
 421      4CDAC411 
 421      C911C26E 
 421      8DE9
 422 00ab 861989C6 		.ascii	"\206\031\211\306\342\270\373u\241\202\225ka\232\363"
 422      E2B8FB75 
 422      A182956B 
 422      619AF3
 423 00ba 83AD5B4B 		.ascii	"\203\255[K\215\325\373\216\3549\300\357\271.\332b\313"
ARM GAS  /tmp/ccOzWYNS.s 			page 32


 423      8DD5FB8E 
 423      EC39C0EF 
 423      B92EDA62 
 423      CB
 424 00cb 4218A619 		.ascii	"B\030\246\031\246\345C\034\033\036\012\306O\237\340"
 424      A6E5431C 
 424      1B1E0AC6 
 424      4F9FE0
 425 00da B123FC6F 		.ascii	"\261#\374o\327e\335a\330\243u\216\343N~\030\246\241"
 425      D765DD61 
 425      D8A3758E 
 425      E34E7E18 
 425      A6A1
 426 00ec D3F0AEDF 		.ascii	"\323\360\256\337\334r\236\327\035\327}\271\363\360\376"
 426      DC729ED7 
 426      1DD77DB9 
 426      F3F0FE
 427 00fb 0A613A0D 		.ascii	"\012a:\015o\262q\254\213*9S\215\217\272\310\312\371"
 427      6FB271AC 
 427      8B2A3953 
 427      8D8FBAC8 
 427      CAF9
 428 010d BAF9FD34 		.ascii	"\272\371\3754R\244\265\333\256\233\352\256V\372\303"
 428      52A4B5DB 
 428      AE9BEAAE 
 428      56FAC3
 429 011c C01431E0 		.ascii	"\300\0241\340\243\371\361j\036\342C\2035\330qn\241\324"
 429      A3F9F16A 
 429      1EE24383 
 429      35D8716E 
 429      A1D4
 430 012e 0C0D063A 		.ascii	"\014\015\006:\0026\234o'\347\303\244\230\235%\330\232"
 430      02369C6F 
 430      27E7C3A4 
 430      989D25D8 
 430      9A
 431 013f BD7366DD 		.ascii	"\275sf\335\247\334\251O\213$\221\354L\215\314;<\362"
 431      A7DCA94F 
 431      8B2491EC 
 431      4C8DCC3B 
 431      3CF2
 432 0151 DA85FF74 		.ascii	"\332\205\377t\344\227\232\323r\335\231o~\236Y\304\337"
 432      E4979AD3 
 432      72DD996F 
 432      7E9E59C4 
 432      DF
 433 0162 B43EC422 		.ascii	"\264>\304\"\322\355QD\215\001UQ'\001\206\230\231b\026"
 433      D2ED5144 
 433      8D015551 
 433      27018698 
 433      996216
 434 0175 811CCEE0 		.ascii	"\201\034\316\340Z\210\012ML\2108iN\221&A\013\275G\210"
 434      5A880A4D 
 434      4C883869 
 434      4E912641 
 434      0BBD4788 
 435 0189 24696649 		.ascii	"$ifI\323K\0133E\213\323\264\240a@\235\363\003\351\242"
ARM GAS  /tmp/ccOzWYNS.s 			page 33


 435      D34B0B33 
 435      458BD3B4 
 435      A061409D 
 435      F303E9A2 
 436 019d D78834B6 		.ascii	"\327\2104\266z\222.,\266Mt\014[\200=\363g\3575\265\034"
 436      7A922E2C 
 436      B64D740C 
 436      5B803DF3 
 436      67EF35B5 
 437 01b2 9E410306 		.ascii	"\236A\003\006\341$\247\361\242\215\021o\232\2641\372"
 437      E124A7F1 
 437      A28D116F 
 437      9AB431FA 
 438 01c2 1934288D 		.ascii	"\0314(\215X\001qXu5\215\235\301SM\012\302'9k\336u\177"
 438      58017158 
 438      75358D9D 
 438      C1534D0A 
 438      C227396B 
 439 01d9 44E5AC80 		.ascii	"D\345\254\200l\020\236\2611\336\036\357_\253\002t)\341"
 439      6C109EB1 
 439      31DE1EEF 
 439      5FAB0274 
 439      29E1
 440 01eb 43740901 		.ascii	"Ct\011\001)\023\004\254q\336gc\317\373\260\304\367\212"
 440      291304AC 
 440      71DE6763 
 440      CFFBB0C4 
 440      F78A
 441 01fd 59B228C2 		.ascii	"Y\262(\302\226\274&=G\314{\352!\207\267{}\207\306\262"
 441      96BC263D 
 441      47CC7BEA 
 441      2187B77B 
 441      7D87C6B2 
 442 0211 18F47631 		.ascii	"\030\364v1\234\207\372\257\265d\0206\241\356\227k\233"
 442      9C87FAAF 
 442      B5641036 
 442      A1EE976B 
 442      9B
 443 0222 70CC2E42 		.ascii	"p\314.B\275\265\367\013/3\200 \236^+ \200\374\246|\210"
 443      BDB5F70B 
 443      2F338020 
 443      9E5E2B20 
 443      80FCA67C 
 444 0237 A1A86DDE 		.ascii	"\241\250m\336\375|N\367\312\240\352\010\340\273 \204"
 444      FD7C4EF7 
 444      CAA0EA08 
 444      E0BB2084 
 445 0247 E9272BA9 		.ascii	"\351'+\251\376\004\273N\231\242s\236\316\341\234\014"
 445      FE04BB4E 
 445      99A2739E 
 445      CEE19C0C 
 446 0257 3FD22E38 		.ascii	"?\322.8S\006'\252}\350\350\240\262\374\277L\027\204"
 446      530627AA 
 446      7DE8E8A0 
 446      B2FCBF4C 
 446      1784
 447 0269 7391E4D5 		.ascii	"s\221\344\325\2437\320?<\272\214\356H;\272\025G\246"
ARM GAS  /tmp/ccOzWYNS.s 			page 34


 447      A337D03F 
 447      3CBA8CEE 
 447      483BBA15 
 447      47A6
 448 027b E2E8ECD5 		.ascii	"\342\350\354\325\343W4?\"I\304z\033\373\332\367\214"
 448      E357343F 
 448      2249C47A 
 448      1BFBDAF7 
 448      8C
 449 028c 2A8BD0AC 		.ascii	"*\213\320\254\020\272\037\240v\347\227s\3270`xV2,\227"
 449      10BA1FA0 
 449      76E79773 
 449      D7306078 
 449      56322C97 
 450 02a0 DC995FD8 		.ascii	"\334\231_\330\356\277\012\201\301)\257\004s\312\225"
 450      EEBF0A81 
 450      C129AF04 
 450      73CA95
 451 02af E58544CE 		.ascii	"\345\205D\316v0\361\241g\352k\337\017\305)~h\203\215"
 451      7630F1A1 
 451      67EA6BDF 
 451      0FC5297E 
 451      68838D
 452 02c2 8FA94493 		.ascii	"\217\251D\223~c]8\367\323\237/\344\360\262\314\265\327"
 452      7E635D38 
 452      F7D39F2F 
 452      E4F0B2CC 
 452      B5D7
 453 02d4 DFA064E8 		.ascii	"\337\240d\350\363\316\346\241F\337\367\021A\017\231"
 453      F3CEE6A1 
 453      46DFF711 
 453      410F99
 454 02e3 1E1E10C8 		.ascii	"\036\036\020\310\024\231)\344\342\037_\0319\274\"\221"
 454      149929E4 
 454      E21F5F19 
 454      39BC2291 
 455 02f3 9497AAC6 		.ascii	"\224\227\252\306\357\314W\305\013\342\017\301\002|\260"
 455      EFCC57C5 
 455      0BE20FC1 
 455      027CB0
 456 0302 3F502548 		.ascii	"?P%H+/\220E\227n\026\025\300\033\376f\217$ZoO\264\031"
 456      2B2F9045 
 456      976E1615 
 456      C01BFE66 
 456      8F245A6F 
 457 0319 F4F577B7 		.ascii	"\364\365w\2670\344\256'\314\177T\266\265\256\266C-\275"
 457      30E4AE27 
 457      CC7F54B6 
 457      B5AEB643 
 457      2DBD
 458 032b D2F20A2D 		.ascii	"\322\362\012-4\253l|\274\037\336Vl<\001\236\261\215"
 458      34AB6C7C 
 458      BC1FDE56 
 458      6C3C019E 
 458      B18D
 459 033d 4FFA5E62 		.ascii	"O\372^b\322\213\361\200\227\247\254\373mB\321\331\270"
 459      D28BF180 
ARM GAS  /tmp/ccOzWYNS.s 			page 35


 459      97A7ACFB 
 459      6D42D1D9 
 459      B8
 460 034e CA47D03F 		.ascii	"\312G\320?\036v\031j\255\251u\301\253 \307V\321O\202"
 460      1E76196A 
 460      ADA975C1 
 460      AB20C756 
 460      D14F82
 461 0361 FEFE4C26 		.ascii	"\376\376L&\273q\324\336i\277:\224-U\262\345j\266R\266"
 461      BB71D4DE 
 461      69BF3A94 
 461      2D55B2E5 
 461      6AB652B6 
 462 0375 B2D668C5 		.ascii	"\262\326h\305\032\035\311X\300J\325qV^\377|\346\337"
 462      1A1DC958 
 462      C04AD571 
 462      565EFF7C 
 462      E6DF
 463 0387 66F9F7AA 		.ascii	"f\371\367\252\331\215\233\207^\031\312\332\273\254\261"
 463      D98D9B87 
 463      5E19CADA 
 463      BBACB1
 464 0396 89917CD6 		.ascii	"\211\221|\326*\225\363;\254\342\246\211]Vf\024\314r"
 464      2A95F33B 
 464      ACE2A689 
 464      5D566614 
 464      CC72
 465 03a8 BE323156 		.ascii	"\27621VMn~m(=\360\334\263\351\361\312x\034\330KeHU\252"
 465      4D6E7E6D 
 465      283DF0DC 
 465      B3E9F1CA 
 465      781CD84B 
 466 03c0 39EBAD74 		.ascii	"9\353\255t\351\235|\371\315\261\322\273\360\0172\253"
 466      E99D7CF9 
 466      CDB1D2BB 
 466      F00F32AB 
 467 03d0 0FB2     		.ascii	"\017\262"
 468              		.text
 469              		.section	.gnu.lto_chSchIsPreemptionRequired.da6d1e2609e877ea,"",%progbits
 470 0000 789C9592 		.ascii	"x\234\225\222=K\003A\020\206gv\357b\024A+A\004\211A"
 470      3D4B0341 
 470      10866776 
 470      EF621441 
 470      2B410489 
 471 0015 2C1472E8 		.ascii	",\024r\350_\360\007\210\230\200b\225\\ \271B\014\306"
 471      5FF00788 
 471      98806295 
 471      5C20B942 
 471      0CC6
 472 0027 CE229B0F 		.ascii	"\316\"\233\017$\205B\020\033c\223\200\212\330Xj\320"
 472      24854210 
 472      1B639380 
 472      8AD8586A 
 472      D0
 473 0038 22602368 		.ascii	"\"`#h\012[S\030ll\003v*\236\263{\271\030%`\\\270\335"
 473      0A5B5318 
 473      6C6C0376 
ARM GAS  /tmp/ccOzWYNS.s 			page 36


 473      2A9EB37B 
 473      B9182560 
 474 004f 99DD7967 		.ascii	"\231\335yg\236\331=\006\014~\2171\372\236h{J:\032 \231"
 474      9ED93D06 
 474      0C7E8F31 
 474      FA9E687B 
 474      4A3A1A20 
 475 0064 C890D3CC 		.ascii	"\310\220\323\314\021i\013!\3058\246V\244\015\272\037"
 475      11690B21 
 475      C538A656 
 475      A40DBA1F 
 476 0074 CA42EC35 		.ascii	"\312B\3545\216/n\330\301~5W\022\037\266\215h\311C\023"
 476      8E2F6ED8 
 476      C17E3557 
 476      121FB68D 
 476      68C94313 
 477 0088 61992CF4 		.ascii	"a\231,\364\251\205i?\3138\302\352u}g\240\220\316\013"
 477      A985693F 
 477      CB38C2EA 
 477      757D67A0 
 477      90CE0B
 478 009b DB4EF52A 		.ascii	"\333N\365**V_\353\2252\212m\221n\332\366\220%\331\\"
 478      2A565FEB 
 478      95328A6D 
 478      916EDAF6 
 478      9025D95C 
 479 00af 99D79161 		.ascii	"\231\327\221a\327ZW\365\335QQ\312\024\304'1Z\2501\230"
 479      D75A57F5 
 479      DD5151CA 
 479      14C42731 
 479      5AA83198 
 480 00c3 C05E2907 		.ascii	"\300^)\007\333\220$\233\374Kv\316\252\015\333\276\257"
 480      DB90249B 
 480      FC4B76CE 
 480      AA0DDBBE 
 480      AF
 481 00d4 579EDF71 		.ascii	"W\236\337q\304\203@\2551\010\343\021\372\201KG#\347"
 481      C48340AD 
 481      3108E311 
 481      FA814B47 
 481      23E7
 482 00e6 841C1D14 		.ascii	"\204\034\035\024=\2559!\012>'\3029R=\321\010\2529$\237"
 482      3DAD3921 
 482      0A3E27C2 
 482      39523DD1 
 482      08AA3924 
 483 00fb 81D720F3 		.ascii	"\201\327 \363xI7\035\306S\324!\2068\003\323\224M\315"
 483      7849371D 
 483      C653D421 
 483      863803D3 
 483      944DCD
 484 010e BA9A3D87 		.ascii	"\272\232=\207PL\0131la\337\026\274\211\274\264\274k"
 484      504C0B31 
 484      6C61DF16 
 484      BC89BCB4 
 484      BC6B
 485 0120 2A85E4F4 		.ascii	"*\205\344\364*\272H\353z\"\210\255\325\375\013d\201"
ARM GAS  /tmp/ccOzWYNS.s 			page 37


 485      2ABA48EB 
 485      7A2288AD 
 485      D5FD0B64 
 485      81
 486 0131 A6C74DCF 		.ascii	"\246\307M\317f\340L\320X\244\246)/\351\373\251\346\262"
 486      66E04CD0 
 486      58A4A629 
 486      2FE9FBA9 
 486      E6B2
 487 0143 F3BA4AC7 		.ascii	"\363\272J\307;t\267\027\334\025\362\016\256\177\022"
 487      3B74B717 
 487      DC15F20E 
 487      AE7F12
 488 0152 695D49B4 		.ascii	"i]I\264\026\311j'\011\357N\222\255e_\276Qtj#\346f\015"
 488      16C96A27 
 488      09EF4E92 
 488      AD655FBE 
 488      51746A23 
 489 0169 C9307E07 		.ascii	"\3110~\007i\252\032\225\315?\000\266\003\235\220\240"
 489      69AA1A95 
 489      CD3F00B6 
 489      039D90A0 
 490 0179 DC96D731 		.ascii	"\334\226\3271\036\010\030\363q+b-,\031\353Icc\323Hn"
 490      1E0818F3 
 490      712B622D 
 490      2C19EB49 
 490      6363D348 
 491 018e 9886194F 		.ascii	"\230\206\031O\232\361h\300\004\226\230e\211\271/\237"
 491      9AF168C0 
 491      04969865 
 491      89B92F9F 
 492 019e 73A488   		.ascii	"s\244\210"
 493              		.text
 494              		.section	.gnu.lto_chSchDoRescheduleBehind.da6d1e2609e877ea,"",%progbits
 495 0000 789CBD54 		.ascii	"x\234\275TIh\024A\024\375\277\253\273gIb\3345\212a\024"
 495      49681441 
 495      14FDBFAB 
 495      BB674962 
 495      DC358A61 
 496 0015 72719956 		.ascii	"rq\231V\004/\"\010\001\301\203\010\306\200z\221\261"
 496      042F2208 
 496      01C18308 
 496      C6807A91 
 496      B1
 497 0026 33268D89 		.ascii	"3&\215\211\023g&*xH\215F\020\215\022<\271\216\346\""
 497      1367262A 
 497      78488D46 
 497      108D123C 
 497      B98EE622 
 498 003a 128C2B88 		.ascii	"\022\214+\210\007\3059\210dp\211\"\3562\316E\005=\250"
 498      07C53988 
 498      64708922 
 498      EE32CE45 
 498      053DA8
 499 004d 5715DB5F 		.ascii	"W\025\333_U\335c\273\034F\002\026tu\375\375\377\367"
 499      55DD63BB 
 499      1C460216 
ARM GAS  /tmp/ccOzWYNS.s 			page 38


 499      7475FDFD 
 499      FFF7
 500 005f 7F95061A 		.ascii	"\177\225\006\032\374\276\226\3207+\004\300\005\021\002"
 500      FCBE96D0 
 500      372B04C0 
 500      051102
 501 006e 240DD490 		.ascii	"$\015\324\220\321\316P\247]\327\014\022j&m\272\201\364"
 501      D1CE50A7 
 501      5DD70C12 
 501      6A266DBA 
 501      81F4
 502 0080 43139154 		.ascii	"C\023\221T\021z5\246\033&\366\256\027$\324\316\201A"
 502      117A35A6 
 502      1B26F6AE 
 502      1724D4CE 
 502      8141
 503 0092 CE0F97F7 		.ascii	"\316\017\227\367\276;\336\260\377\364\356\001\376\335"
 503      BE3BDEB0 
 503      FFF4EE01 
 503      FEDD
 504 00a0 75D11122 		.ascii	"u\321\021\"\033a\035\2350&\177\232\376k|eV\270\221?"
 504      1B611D9D 
 504      30267F9A 
 504      FE6B7C65 
 504      56B8913F 
 505 00b4 18346355 		.ascii	"\0304cU\232=.\025\007\221\037\346\271O\256[_}\264R\251"
 505      9A3D2E15 
 505      07911FE6 
 505      B94FAE5B 
 505      5F7DB452 
 506 00c9 3F3A90DB 		.ascii	"?:\220\333\307]\267\267\352X\374\362Y\0369\315\277\271"
 506      C75DB7B7 
 506      EA58FCF2 
 506      591E39CD 
 506      BFB9
 507 00db 2E730432 		.ascii	".s\0042\377\305\246\332\202.\225\0165\360\000\352\032"
 507      FFC5A6DA 
 507      822E950E 
 507      35F000EA 
 507      1A
 508 00ec CCC6EA2C 		.ascii	"\314\306\352,_\227\212\001\000\015\015\232\2522<V8\225"
 508      5F978A01 
 508      000D0D9A 
 508      AA323C56 
 508      3895
 509 00fe BF1384DE 		.ascii	"\277\023\204\336\254.\323\362\225\317W\027\034\345\205"
 509      AC2ED3F2 
 509      95CF5717 
 509      1CE585
 510 010d BE415121 		.ascii	"\276AQ!\222\236\251\221zu!o\276,\376S\310\013Z\241\354"
 510      929EA991 
 510      7A75216F 
 510      BE2CFE53 
 510      C80B5AA1 
 511 0122 BAE7F3F9 		.ascii	"\272\347\363\3713\375\370U\253CH\340Y\234C\340\020B"
 511      33FDF855 
 511      AB4348E0 
ARM GAS  /tmp/ccOzWYNS.s 			page 39


 511      599C43E0 
 511      1042
 512 0134 8C36A68B 		.ascii	"\2146\246\213\223!N&\311\206H\026\"B\017\213-\"dQb\017"
 512      93214E26 
 512      C9864816 
 512      22420F8B 
 512      2D226451 
 513 014a 13BB8608 		.ascii	"\023\273\206\010\263\226\210sD\3202\240\217\363\201"
 513      B3968873 
 513      44D032A0 
 513      8FF381
 514 0159 98F227D3 		.ascii	"\230\362'\323\240\265V\356\255\342\012\261{\260\373"
 514      A0B556EE 
 514      ADE20AB1 
 514      7BB0FB
 515 0168 C5B3B74B 		.ascii	"\305\263\267K\023x\021\015hG\234\007C\234\326b\3629"
 515      1378110D 
 515      68479C07 
 515      439CD662 
 515      F239
 516 017a 0FE63A18 		.ascii	"\017\346:\030:\016\307r\234\217w0\274\013\276\360}\342"
 516      3A0EC772 
 516      9C8F7730 
 516      BC0BBEF0 
 516      7DE2
 517 018c 14E9920E 		.ascii	"\024\351\222\016D%\021\231\377&\004\357\357\035`\024"
 517      44251199 
 517      FF2604EF 
 517      EF1D6014 
 518 019c FACA2752 		.ascii	"\372\312'R\276W\255b\032\265=\025\301\011;X#\203\324"
 518      BE57AD62 
 518      1AB53D15 
 518      C1093B58 
 518      2383D4
 519 01af AA50E4F6 		.ascii	"\252P\344\366\247'\365\002(\017TT\035\000\245\272R\321"
 519      A727F502 
 519      280F5454 
 519      1D00A5BA 
 519      52D1
 520 01c1 527D0CF9 		.ascii	"R}\014\371\265\013\357\262\362w\217\320O\222I\177\343"
 520      B50BEFB2 
 520      F2778FD0 
 520      4F92497F 
 520      E3
 521 01d2 C81FD9D5 		.ascii	"\310\037\331\325\023\024\353\324\263 \355X\240[\255"
 521      1314EBD4 
 521      B320ED58 
 521      A05BAD
 522 01e1 8252C0BD 		.ascii	"\202R\300\275\237\351[\353c\315I&t\355A\324\257P\266"
 522      9FE95BEB 
 522      63CD4926 
 522      74ED41D4 
 522      AF50B6
 523 01f4 619183E3 		.ascii	"a\221\203\343+\011\351\301\204\324\004\011\316\004\364"
 523      2B09E9C1 
 523      84D40409 
 523      CE04F4
ARM GAS  /tmp/ccOzWYNS.s 			page 40


 524 0203 F03EEFE1 		.ascii	"\360>\357\341\255\300\225Q'\332\036\216\355b\202'\001"
 524      ADC09551 
 524      27DA1E8E 
 524      ED628227 
 524      01
 525 0214 DC87DCA5 		.ascii	"\334\207\334\245\347\327gV\306bX\216\205$y\241\3704"
 525      E7D76756 
 525      C662588E 
 525      852479A1 
 525      F834
 526 0226 E40F4E45 		.ascii	"\344\017NEaH\222\276c\032 \205\004\305\334\310\304+"
 526      614892BE 
 526      631A2085 
 526      04C5DCC8 
 526      C42B
 527 0238 CDD453DD 		.ascii	"\315\324S\335\010]'\371\221\345\016NV\321\242~E\305"
 527      085D27F9 
 527      91E50E4E 
 527      56D1A27E 
 527      45C5
 528 024a 734F3E9A 		.ascii	"sO>\232\011\274-A\252\361\005\204!\025\300\356@.\014"
 528      09BC2D41 
 528      AAF10584 
 528      2115C0EE 
 528      402E0C
 529 025d D0261020 		.ascii	"\320&\020 \325|\223\260\254%5ey\367\372\262\004\216"
 529      D57C93B0 
 529      AC253565 
 529      79F7FAB2 
 529      048E
 530 026f 484383F8 		.ascii	"HC\203\370\222\371\201\371,\263]dt\017\366\034\250\260"
 530      92F981F9 
 530      2CB35D64 
 530      740FF61C 
 530      A8B0
 531 0281 42C495D7 		.ascii	"B\304\225\327\353\225K\367N\305\337\340\013\303\262"
 531      EB954BF7 
 531      4EC5DFE0 
 531      0BC3B2
 532 0290 35FADFDB 		.ascii	"5\372\337\333kx-\030\201[o0\340.\034\354:)\261Q\320"
 532      6B782D18 
 532      815B6F30 
 532      E02E1CEC 
 532      3A29B151 
 533 02a5 953800F2 		.ascii	"\2258\000\362\024\333\353\206\340Lwpj#lS`L\003O\331"
 533      14DBEB86 
 533      E04C7770 
 533      6A236C53 
 533      604C034F 
 534 02ba C1E9BE17 		.ascii	"\301\351\276\027S\315N%\257\310\330\007g\024\214?\222"
 534      53CD4E25 
 534      AFC8D807 
 534      67148C3F 
 534      92
 535 02cb 6AB0BDA2 		.ascii	"j\260\275\242(\202l\376\014\200\207\220+_\263*\275\224"
 535      28826CFE 
 535      0C808790 
ARM GAS  /tmp/ccOzWYNS.s 			page 41


 535      2B5FB32A 
 535      BD94
 536 02dd 6BADF022 		.ascii	"k\255\360\"Z\330\030\217[\315\035\316&gu\213\225\312"
 536      5AD8188F 
 536      5BCD1DCE 
 536      2667758B 
 536      95CA
 537 02ef 58E9AC95 		.ascii	"X\351\254\225I\333\226\335\221\261;\332\3426\260T\266"
 537      49DB96DD 
 537      91B13BDA 
 537      E236B054 
 537      B6
 538 0300 9BA5172D 		.ascii	"\233\245\027-\216\377\252\226\334\231\265\232W\265\254"
 538      8EFFAA96 
 538      DC99B59A 
 538      57B5AC
 539 030f 6CB19CAD 		.ascii	"l\261\234\255vgO[\322\262S\351\344F\273kE\317V;\336"
 539      76674F5B 
 539      D2B253E9 
 539      E446BB6B 
 539      45CF563B 
 540 0324 01663A99 		.ascii	"\001f:\231\351\351\314\326\255Z\323\022kZ8?\326\235"
 540      E9E9CCD6 
 540      AD5AD312 
 540      6B5A383F 
 540      D69D
 541 0336 E98E025B 		.ascii	"\351\216\002[\226\206\372L6ao\211\245\266'\323\233;"
 541      9686FA4C 
 541      36616F89 
 541      A5B627D3 
 541      9B3B
 542 0348 533BE007 		.ascii	"S;\340\007\371\241\242\362"
 542      F9A1A2F2 
 543              		.text
 544              		.section	.gnu.lto_chSchDoRescheduleAhead.da6d1e2609e877ea,"",%progbits
 545 0000 789CBD56 		.ascii	"x\234\275V]h\034U\024>g~\367'\311\346\247j\203\020\326"
 545      5D681C55 
 545      143E677E 
 545      F727C9E6 
 545      A76A8310 
 546 0015 4240ACEE 		.ascii	"B@\254\356Z\372$R*\024\204\012E1-\264\372P6\2235\031"
 546      5AFA2452 
 546      2A14840A 
 546      45312DB4 
 546      FA503693 
 547 002b 4CBBCBEE 		.ascii	"L\273\313\356F\205>\364n\023\241\370\033\012j\332\252"
 547      46853EF4 
 547      6E13A1F8 
 547      1B0A6ADA 
 547      AA
 548 003c 691E0A45 		.ascii	"i\036\012E\244\226\026\213B\305\205\372\320\245\325"
 548      A496168B 
 548      42C585FA 
 548      D0A5D5
 549 004b 283E346D 		.ascii	"(>4m\012\273H\365\245\202\015\205\266&M\307s\357\235"
 549      0ABB48F5 
 549      A5820D85 
ARM GAS  /tmp/ccOzWYNS.s 			page 42


 549      B6264DC7 
 549      73EF9D
 550 005e 99CCC615 		.ascii	"\231\314\306\025\307\004\274\260\367\316=\367|\347;"
 550      C704BCB0 
 550      F7CE3DF7 
 550      7CE73B
 551 006d 3F77CE8E 		.ascii	"?w\316\216\002\012,\037\317\321\357F\014`\224o\242\200"
 551      020A2C1F 
 551      CFD1EF46 
 551      0C60946F 
 551      A280
 552 007f A4810AAA 		.ascii	"\244\201\012\2524\253\250\321\254)43E\247I\323\321 "
 552      34ABA8D1 
 552      AC293433 
 552      45A749D3 
 552      D120
 553 0091 89A1985C 		.ascii	"\211\241\230\\\022\341\022\023i\301\010\"\201\021\366"
 553      12E11213 
 553      69C10822 
 553      8111F6
 554 00a0 2BAAA61B 		.ascii	"+\252\246\033f\004\367\357\342\002\350X\007S\214\035"
 554      6604F7EF 
 554      E202E858 
 554      07538C1D 
 555 00b0 AABF79FB 		.ascii	"\252\277y\373h\367[\307\016\214\263\373\216\2036?\262"
 555      68F75BC7 
 555      0E8CB3FB 
 555      8E83363F 
 555      B2
 556 00c1 1076D213 		.ascii	"\020v\322\023&\305\302)\202C\302*_N\276\033\204\251"
 556      26C5C229 
 556      8243C22A 
 556      5F4EBE1B 
 556      84A9
 557 00d3 2161DFD4 		.ascii	"!a\337\324\252S\310\016\261\362M\307I\204g\2732\371"
 557      AA53C80E 
 557      B1F24DC7 
 557      498467BB 
 557      32F9
 558 00e5 FE0AD8D8 		.ascii	"\376\012\330\330\237\327_\270\300\306*\216\2639\274"
 558      9FD75FB8 
 558      C0C62A8E 
 558      B339BC
 559 00f4 87B5DA07 		.ascii	"\207\265\332\007+\311\307\334\344\305\225\004v\2471"
 559      2BC9C7DC 
 559      E4C59504 
 559      76A731
 560 0103 1F61033B 		.ascii	"\037a\003;}\202E\217\261{\216\243\332\374\"\374/\230"
 560      7D82458F 
 560      B17B8EA3 
 560      DAFC22FC 
 560      2F98
 561 0115 B0211DAE 		.ascii	"\260!\035\256\275\327\315\002\011T\340\021\014\307v"
 561      BDD7CD02 
 561      0954E011 
 561      0CC776
 562 0124 79C0AF16 		.ascii	"y\300\257\026\241z\303\241x\012\003\031\324\025x4\024"
ARM GAS  /tmp/ccOzWYNS.s 			page 43


 562      A17AC3A1 
 562      780A0319 
 562      D4157834 
 562      14
 563 0135 F048E5A3 		.ascii	"\360H\345\243\306\222\031\341\342\253\177=w\366\211"
 563      C69219E1 
 563      E2AB7F3D 
 563      77F689
 564 0144 C3AC3236 		.ascii	"\303\25426\305\363\202\244g(\360rH\312og\253\377\211"
 564      C5F382A4 
 564      6728F072 
 564      48CA6F67 
 564      ABFF89
 565 0157 F20BA552 		.ascii	"\362\013\245Rw\234\223\037\326\216_BGY\203\220\301\223"
 565      779C931F 
 565      D68E5F42 
 565      47598390 
 565      C193
 566 0169 B88E9293 		.ascii	"\270\216\222\223\301\317iU\2012\245\321\244\352\374"
 566      C1CF6955 
 566      8132A5D1 
 566      A4EAFC
 567 0178 C9708F4D 		.ascii	"\311p\217Mw\215\360\223(\237b\3748\316\247\026\276m"
 567      778DF093 
 567      289F62FC 
 567      38CEA716 
 567      BE6D
 568 018a 258553A4 		.ascii	"%\205S\244\320F\033-\301\247v~\326A\3423$\356\244\215"
 568      D0461B2D 
 568      C1A7767E 
 568      D641E233 
 568      24EEA48D 
 569 019e D1459BD3 		.ascii	"\321E\233\323\264\241\241\303\030c\343I\311)M\013\307"
 569      B4A1A1C3 
 569      1863E349 
 569      C9294D0B 
 569      C7
 570 01af 696C17F3 		.ascii	"il\027\363\016\336\231\324\357\341\300\325\231[Og\360"
 570      0EDE99D4 
 570      EFE1C0D5 
 570      995B4F67 
 570      F0
 571 01c0 2CEA3088 		.ascii	",\3520\210\312z\370\214\321\330H\226\327\303c6\232G"
 571      CA7AF88C 
 571      D1D84896 
 571      D7C36336 
 571      9A47
 572 01d2 E14899B1 		.ascii	"\341H\231\261v\033#\373`\236\035\344O\321=\302\000\217"
 572      761B23FB 
 572      609E1DE4 
 572      4FD13DC2 
 572      008F
 573 01e4 3D2A22EE 		.ascii	"=*\"\356GpW\367\001\246a\254>\223\363\254\252>4f\271"
 573      477057F7 
 573      01A661AC 
 573      3E93F3AC 
 573      AA3E3466 
ARM GAS  /tmp/ccOzWYNS.s 			page 44


 574 01f9 2A5C12B1 		.ascii	"*\\\022\2611.HZ$\025\231]\262$\033\253\264@\241\265"
 574      312E485A 
 574      2415995D 
 574      B2241BAB 
 574      B440A1B5 
 575 020d 0290AB5B 		.ascii	"\002\220\253[\345^\250\257\302\277A\376\316\212\310"
 575      E55EA8AF 
 575      C2BF41FE 
 575      CE8AC8
 576 021c 6FFF8C9E 		.ascii	"o\377\214\236\223\232\260\327F\366\010\227\240T\354"
 576      939AB0D7 
 576      46F60897 
 576      A054EC
 577 022b 949D44E0 		.ascii	"\224\235D\340\324@}w\360\235L\334\235\207=\264\276Z"
 577      D4407D77 
 577      F09D4CDC 
 577      9D873DB4 
 577      BE5A
 578 023d 9F84435F 		.ascii	"\237\204C_\375\030\363\"\024e\330`c\273\357\220\036"
 578      FD18F322 
 578      1465D860 
 578      63BBEF90 
 578      1E
 579 024e 7448DE39 		.ascii	"tH\3369.\351@\027;1\177^i@\267\006\321\312?\240]\346"
 579      2EE94017 
 579      3B317F5E 
 579      6940B706 
 579      D1CA3FA0 
 580 0264 F9D1E39B 		.ascii	"\371\321\343\233\275X\014\3515\333%\352#L\355\023E\022"
 580      BD580CE9 
 580      35DB25EA 
 580      234CED13 
 580      4512
 581 0276 8FBB9B57 		.ascii	"\217\273\233W*\220\036\315M\317\335\371\363~vM\027\375"
 581      2A901ECD 
 581      4DCFDDF9 
 581      F37E764D 
 581      17FD
 582 0288 1439E1FB 		.ascii	"\0249\341\373\204A\237\364\2454\\\235X\270\345##\313"
 582      84419FF4 
 582      A5345C9D 
 582      58B8E523 
 582      23CB
 583 029a EA6236AB 		.ascii	"\352b6\253\013\007\215'<H4L)/\300w\277\225M\237e\320"
 583      0B078D27 
 583      3C48344C 
 583      292FC077 
 583      BF954D9F 
 584 02b0 AD0B8D2B 		.ascii	"\255\013\215+\200\224\004\365\343\305nb\323\316-fxP"
 584      809404F5 
 584      E3C56E62 
 584      D3CE2D66 
 584      7850
 585 02c2 BA0CAA3A 		.ascii	"\272\014\252:\263\260\200\313\263\014\315\231t\367\262"
 585      B3B080CB 
 585      B30CCD99 
 585      74F7B2
ARM GAS  /tmp/ccOzWYNS.s 			page 45


 586 02d1 99D2BFBB 		.ascii	"\231\322\277\273\013\263\212G\027\223\327\245yP\306"
 586      0BB38A47 
 586      1793D7A5 
 586      7950C6
 587 02e0 5250D59B 		.ascii	"RP\325\233fH2\303%\213I\262\203\367U\217+\276\214\253"
 587      664832C3 
 587      258B49B2 
 587      83F7558F 
 587      2BBE8CAB 
 588 02f4 09CCE58A 		.ascii	"\011\314\345\2127pm\012\202\342\315\002S$\356\204\307"
 588      37706D0A 
 588      82E2CD02 
 588      5324EE84 
 588      C7
 589 0305 E502E3FF 		.ascii	"\345\002\343\377\022\231\000\376\000\345\271k\347f\321"
 589      129900FE 
 589      00E5B96B 
 589      E766D1
 590 0314 EF536744 		.ascii	"\357SgD\207\022[V\251.\232^'\363\025N\211\255\333\021"
 590      87125B56 
 590      A92E9A5E 
 590      27F3154E 
 590      89ADDB11 
 591 0328 782F9317 		.ascii	"x/\223\027\217\214\367\253\374;L\225\037c=\220\377\204"
 591      8F8CF7AB 
 591      FC3B4C95 
 591      1F633D90 
 591      FF84
 592 033a 4D3C6363 		.ascii	"M<cc\247\344\352\360\343{\347\362\037F\006\177\021I"
 592      A7E4EAF0 
 592      E37BE7F2 
 592      1F46067F 
 592      1149
 593 034c E9F40EA8 		.ascii	"\351\364\016\250\264\344\225z\021\312\364\3415\300_"
 593      B4E4957A 
 593      11CAF4E1 
 593      35C05F
 594 035b 4652FDB4 		.ascii	"FR\375\264\227#\273\006\271\015\216\274\364;\275\034"
 594      9723BB06 
 594      B90D8EBC 
 594      F43BBD1C 
 595 036b D705B085 		.ascii	"\327\005\260\205\344BxC\365D\255$\345\242\321\267}Q"
 595      E4427843 
 595      F544AD24 
 595      E5A2D1B7 
 595      7D51
 596 037d 1B49C57F 		.ascii	"\033I\305\177\3035\207\3764$\377K\336aB\024Dk^\020s"
 596      C33587FE 
 596      3424FF4B 
 596      DE614214 
 596      446B5E10 
 597 0392 E97AFE8A 		.ascii	"\351z\376\212\001s\211\340\033FJ\3524h\362X6S\321e\272"
 597      017389E0 
 597      1B464AEA 
 597      3468F258 
 597      3653D165 
 598 03a7 2CF77A73 		.ascii	",\367zs\311Z\033\327\364@I&\343\001p\225m|\320\263\022"
ARM GAS  /tmp/ccOzWYNS.s 			page 46


 598      C95A1BD7 
 598      F4404926 
 598      E3017095 
 598      6D7CD0B3 
 599 03bc 9157DAF7 		.ascii	"\221W\332\367\253}\365=l\032\364\2779\365\220\345\366"
 599      AB7DF53D 
 599      6C1AF4BF 
 599      39F590E5 
 599      F6
 600 03cd 1B62A060 		.ascii	"\033b\240`m\\\013\360\023\224\353\367\322~-\305\330"
 600      6D5C0BF0 
 600      1394EBF7 
 600      D27E2DC5 
 600      D8
 601 03de CEADF012 		.ascii	"\316\255\360\022\366\244R\351-Cv\277\375|_:WL\027J\351"
 601      F6A452E9 
 601      2D4376BF 
 601      FD7C5F3A 
 601      574C174A 
 602 03f3 62C14A5B 		.ascii	"b\301J[CEkh e\201\232+\345\025+\257\0266lL5jf\337(\245"
 602      43456B68 
 602      2065819A 
 602      2BE5152B 
 602      AF16366C 
 603 040e B76CEBDB 		.ascii	"\267l\353\333\332\227\266\367Z\303#\003\331\264\225"
 603      DA97B6F7 
 603      5AC32303 
 603      D9B495
 604 041d 2B64775B 		.ascii	"+dw[{\236\035\331k\245\206\300(d\213#\303\245\326m/"
 604      7B9E1DD9 
 604      6BA586C0 
 604      28648B23 
 604      C3A5D66D 
 605 0432 F6257B9F 		.ascii	"\366%{\237|<\231/\346c\240n*@\242X\312X\257&s\257e\013"
 605      7C3C992F 
 605      E663A06E 
 605      2A40A258 
 605      CA58AF26 
 606 044a AF0CE75E 		.ascii	"\257\014\347^\207\277\000\354ywq"
 606      87BF00EC 
 606      797771
 607              		.text
 608              		.section	.gnu.lto_chSchRescheduleS.da6d1e2609e877ea,"",%progbits
 609 0000 789C6362 		.ascii	"x\234cb`b@\007\032@\314\305\310\300\240\000\342\260"
 609      60624007 
 609      1A40CCC5 
 609      C8C0A000 
 609      E2B0
 610 0012 32300255 		.ascii	"20\002U02113040\261\000\011\026fF \305\310\302\010T"
 610      30323131 
 610      33303430 
 610      B1000916 
 610      664620C5 
 611 002a C2C0C850 		.ascii	"\302\300\310P\317\304\314\302X\037\011\34200*1,lh\230"
 611      CFC4CCC2 
 611      581F09E2 
 611      30302A31 
ARM GAS  /tmp/ccOzWYNS.s 			page 47


 611      2C6C6898 
 612 003e F4E0E8BA 		.ascii	"\364\340\350\272\333\314\323\247\034h\\\320\360\347"
 612      DBCCD3A7 
 612      1C685CD0 
 612      F0E7
 613 004c FF7F46C6 		.ascii	"\377\177F\306L\220d2#C\004\220\305\310\001\246\230\030"
 613      4C906432 
 613      23430490 
 613      C5C801A6 
 613      9818
 614 005e 51ED5CCF 		.ascii	"Q\355\\\317t\340\301\377\377o\256~}\270\227Q\014(\011"
 614      74E0C1FF 
 614      FF6FAE7E 
 614      7DB89751 
 614      0C2809
 615 0071 D602B4BC 		.ascii	"\326\002\264\274\245\241a\202\002X3\020\204\200\311"
 615      A5A16182 
 615      02583310 
 615      8480C9
 616 0080 50908398 		.ascii	"P\220\203\230\31734?\330\365\226/\221q\021#+C:#c5\303"
 616      CF33343F 
 616      D8F5962F 
 616      91711123 
 616      2B433A23 
 617 0097 AF868E06 		.ascii	"\257\206\216\006\201LF\346dF\210\331\231 g\236`hy\323"
 617      814C46E6 
 617      644688D9 
 617      9920679E 
 617      606879D3 
 618 00ab C80B5715 		.ascii	"\310\013W\025\001q\013\002\20422C\015\333\0153\214\201"
 618      01710B02 
 618      84323243 
 618      0DDB0D33 
 618      8C81
 619 00bd 016E166B 		.ascii	"\001n\026k2#\023\324,6\230z\240\241\314\027\031\032"
 619      322313D4 
 619      2C36987A 
 619      A0A1CC17 
 619      191A
 620 00cf 1FECD585 		.ascii	"\037\354\325\205)\207\200\020\220\265 \325rzz\372\316"
 620      29878010 
 620      90B520D5 
 620      727A7AFA 
 620      CE
 621 00e0 19994999 		.ascii	"\031\231I\231\376\301\372\371\305\372E%\372\305E\311"
 621      FEC1FAF9 
 621      C5FA4525 
 621      FAC545C9 
 622 00f0 FAC919C5 		.ascii	"\372\311\031\305\311\031)z\311\014\000\177\230D\331"
 622      C919297A 
 622      C90C007F 
 622      9844D9
 623              		.text
 624              		.section	.gnu.lto_chSchDoReschedule.da6d1e2609e877ea,"",%progbits
 625 0000 789C6362 		.ascii	"x\234cb`b@\007\"@\\\011\304\012 \0163\003#P\005#\023"
 625      60624007 
 625      22405C09 
ARM GAS  /tmp/ccOzWYNS.s 			page 48


 625      C40A200E 
 625      33032350 
 626 0017 232390C3 		.ascii	"##\220\303\310P\317\304X\037\311\010V\266\236\351\300"
 626      C850CFC4 
 626      581FC908 
 626      56B69EE9 
 626      C0
 627 0028 83FFFFD7 		.ascii	"\203\377\377\327mx\364\3410\343\236\215, AV\206\226"
 627      6D78F4E1 
 627      30E39E8D 
 627      2C204156 
 627      8696
 628 003a 86860940 		.ascii	"\206\206\011@}\311`%!`2\024d\000\363y\206\346\007\273"
 628      7DC96025 
 628      21603214 
 628      6400F379 
 628      86E607BB 
 629 004e 363E614C 		.ascii	"6>aLd\\\310\310\012\024\255f\370\325\320\321 \220\311"
 629      645CC8C8 
 629      0A14AD66 
 629      F8D5D0D1 
 629      2090C9
 630 0061 08540B31 		.ascii	"\010T\0131/\023D_dh|\0004\014\246\012\002B@2 w\312\351"
 630      2F13445F 
 630      64687C00 
 630      340CA60A 
 630      02424032 
 631 0079 E9E93B67 		.ascii	"\351\351;gd&e\372\007\353\347\027\353\027\225\350\027"
 631      642665FA 
 631      07EBE717 
 631      EB1795E8 
 631      17
 632 008a 1725EB27 		.ascii	"\027%\353'g\024'g\244\350%3\000\000@\323'\345"
 632      67142767 
 632      A4E82533 
 632      000040D3 
 632      27E5
 633              		.text
 634              		.section	.gnu.lto_.symbol_nodes.da6d1e2609e877ea,"",%progbits
 635 0000 789C4DD1 		.ascii	"x\234M\321\313N\302@\024\306\361\363M)\310\275\305\026"
 635      CB4EC240 
 635      14C6F1F3 
 635      4D29C8BD 
 635      C516
 636 0012 5A5CF86C 		.ascii	"Z\\\370l<\311)5Q\324D\335\350\316h`\245\017\340\003"
 636      3CC92935 
 636      51D444DD 
 636      E8CE6860 
 636      A50FE003 
 637 0026 C0CE852B 		.ascii	"\300\316\205+\343Z`\313\306\3735\340L\207\330\323\315"
 637      E35A60CB 
 637      C6FB35E0 
 637      4C87D8D3 
 637      CD
 638 0037 3FBF39D3 		.ascii	"?\2779\323\3114U\244h\250\310>jELtrG\304|:\350\251\004"
 638      C93455A4 
 638      68A8C83E 
ARM GAS  /tmp/ccOzWYNS.s 			page 49


 638      6A454C74 
 638      7247C47C 
 639 004f 0CC13E58 		.ascii	"\014\301>X\011\246`G\360\014\\\020<\007\273\202\027"
 639      09A66047 
 639      F00C5C10 
 639      3C07BB82 
 639      17
 640 0060 E0A2E025 		.ascii	"\340\242\340%\270\224\323}\002\225\230\324\025xCl\272"
 640      B894D37D 
 640      029598D4 
 640      1578436C 
 640      BA
 641 0071 0697056F 		.ascii	"\006\227\005o\300\025\301[pU\360\031\\[\363a\000\365"
 641      C015C15B 
 641      7055F019 
 641      5C5BF361 
 641      00F5
 642 0083 02AE0BBE 		.ascii	"\002\256\013\276\201\033k\336\357\367\324+\270)\246"
 642      811B6BDE 
 642      EFF7D42B 
 642      B829A6
 643 0092 EF604FF0 		.ascii	"\357`O\360\003\354\013~\201[\202\337\340M\301\037p "
 643      03EC0B7E 
 643      815B82DF 
 643      E04DC11F 
 643      7020
 644 00a4 F8090E05 		.ascii	"\370\011\016\005\177\301\355\234X\201;\226I\002,\301"
 644      7FC1ED9C 
 644      58813B96 
 644      49022CC1 
 645 00b4 51AEBEE2 		.ascii	"Q\256\276\3428W\242\270\373/G\377\240\364q\011\307\201"
 645      3857A2B8 
 645      FB2F47FF 
 645      A0F47109 
 645      C781
 646 00c6 6D59D956 		.ascii	"mY\331V\034\333z\301\266Y\246a\326\012\215\247\2465"
 646      1CDB7AC1 
 646      B659A661 
 646      D60A8DA7 
 646      A635
 647 00d8 4AF716DB 		.ascii	"J\367\026\333N\263H\343\254\015\032\036\230\352\271"
 647      4EB348E3 
 647      AC0D1A1E 
 647      98EAB9
 648 00e7 A9E7D2D8 		.ascii	"\251\347\322\330\354\367b\032e\216hn\352o\321\304\254"
 648      ECF7621A 
 648      658E686E 
 648      EA6FD1C4 
 648      AC
 649 00f8 FB1ECDB2 		.ascii	"\373\036\315\262V)5\347\371]\232L\355z\272\253\367\265"
 649      562935E7 
 649      F95D9A4C 
 649      ED7ABAAB 
 649      F7B5
 650 010a F479C6BA 		.ascii	"\364y\306\272\263\2541\355\034\232\365\210F\246\201"
 650      B3AC31ED 
 650      1C9AF588 
ARM GAS  /tmp/ccOzWYNS.s 			page 50


 650      46A681
 651 0119 6BEF1334 		.ascii	"k\357\0234\354}\002=7\347\007\021ML\303\365<\214i~d"
 651      EC7D023D 
 651      37E70711 
 651      4D4CC3F5 
 651      3C8C697E 
 652 012e ACDF3BD6 		.ascii	"\254\337;\326m\227\354\367\264C{\277N\230\231\376\000"
 652      6D97ECF7 
 652      B4437BBF 
 652      4E9899FE 
 652      00
 653 013f DA59DD98 		.ascii	"\332Y\335\230"
 654              		.text
 655              		.section	.gnu.lto_.refs.da6d1e2609e877ea,"",%progbits
 656 0000 789C6362 		.ascii	"x\234cb`b\010g\200\000&v\006\016\006\0166^&\016F d\202"
 656      60620867 
 656      80002676 
 656      060E060E 
 656      365E260E 
 657 0018 603E260E 		.ascii	"`>&\0166\001\0060\217\001\014\231\005\201<~ -\004\342"
 657      36010630 
 657      8F010C99 
 657      05813C7E 
 657      202D04E2 
 658 002c 01D50883 		.ascii	"\001\325\010\203hV\021\204\0326Q\030\233\011\304\007"
 658      68561184 
 658      1A365118 
 658      9B09C407 
 659 003c 00750102 		.ascii	"\000u\001\002?"
 659      3F
 660              		.text
 661              		.section	.gnu.lto_.decls.da6d1e2609e877ea,"",%progbits
 662 0000 789CBD5B 		.ascii	"x\234\275[\011x\024U\236\257\252\356\\$@p\220\305\031"
 662      09781455 
 662      9EAFAAEE 
 662      5C244070 
 662      90C519
 663 0013 6688F3CD 		.ascii	"f\210\363\315\314\316:\237\004\035G\361\333oDeV\301"
 663      CCCE3A9F 
 663      041D47F1 
 663      DB6F4465 
 663      56C1
 664 0025 5D77F988 		.ascii	"]w\371\210\316\314\356\354No\321)H\217\351\203\356\012"
 664      CECCEEEC 
 664      4E6FD129 
 664      488FE983 
 664      EE0A
 665 0037 819DDDB1 		.ascii	"\201\235\335\261\022\222\020\214B$\\r\230 \207\342\027"
 665      1292108C 
 665      42245C72 
 665      982087E2 
 665      17
 666 0048 261CCA11 		.ascii	"&\034\312\02144GB\010\310\025L \230\030EAT\220+r\233"
 666      34344742 
 666      08C8154C 
 666      20981845 
 666      4154902B 
ARM GAS  /tmp/ccOzWYNS.s 			page 51


 667 005e FDBF57AF 		.ascii	"\375\277W\257\252\253^WUW\005\235\372\276WU]\365\177"
 667      AAAB5E57 
 667      5557059D 
 667      FABE5755 
 667      5DF57F
 668 0071 BFF7BFDF 		.ascii	"\277\367\277\337U\3151\034\263?\215az\341\250x\212a"
 668      55CD311C 
 668      B33F8D61 
 668      7AE1A878 
 668      8A61
 669 0083 DE4D6598 		.ascii	"\336Me\230\241\014\303<\302\304\216\037@Y\016e5\224"
 669      A10CC33C 
 669      C2C48E1F 
 669      40590E65 
 669      3594
 670 0095 35506AA1 		.ascii	"5Pj\241\324A\231\3022L!\224\277@)\205R\016\245\002J"
 670      D44199C2 
 670      324C2194 
 670      BF402985 
 670      520EA502 
 671 00aa 2D94CD50 		.ascii	"-\224\315P\352\2414@\331\005\245\005J+\224N(\335PNB"
 671      EAA13440 
 671      D905A505 
 671      4A2B944E 
 671      28DD504E 
 672 00bf 3905E50C 		.ascii	"9\005\345\014\224/\241\\\200\322\003\345\032\024\026"
 672      942FA15C 
 672      80D203E5 
 672      1A1416
 673 00ce 35CA31BA 		.ascii	"5\3121\272\003\265\237\004e/\224\001P2\240<\0014c\011"
 673      03B59F04 
 673      652F9401 
 673      5032A03C 
 673      01346309 
 674 00e2 1D47689E 		.ascii	"\035Gh\236\242\3521\204\357DuW\233\324]C\336\347\300"
 674      A2EA3184 
 674      EF447557 
 674      9BD45D43 
 674      DEE7C0
 675 00f5 E9352646 		.ascii	"\3515&F\277\206\264G\037\265&\364\265\244\015\372@z"
 675      BF86B447 
 675      1FB526F4 
 675      B5A40DFA 
 675      407A
 676 0107 7441A987 		.ascii	"tA\251\207\262\021\312\006B\277\025J>\321\005\242A\327"
 676      B211CA06 
 676      42BF154A 
 676      3ED105A2 
 676      41D7
 677 0119 00ABAF8B 		.ascii	"\000\253\257\213\364\237L\352*r)\030\333\010.\302\331"
 677      F49F4CEA 
 677      2A722918 
 677      DB082EC2 
 677      D9
 678 012a 016517C1 		.ascii	"\001e\027\301@u\020~\001\\\237\241\344E\266tSx\333\010"
 678      4075107E 
 678      015C9FA1 
ARM GAS  /tmp/ccOzWYNS.s 			page 52


 678      E445B674 
 678      5378DB08 
 679 013e 3FBB080E 		.ascii	"?\273\010\016K\350\320\263?\303\365Y\012\003\371B:\\"
 679      4BE8D0B3 
 679      3FC3F559 
 679      0A03F942 
 679      3A5C
 680 0150 25368681 		.ascii	"%6\206\201\360R\010o\251@\317B\371-\224&\202\217l\223"
 680      F052086F 
 680      A940CF42 
 680      F92D9426 
 680      828F6C93 
 681 0164 02BF0770 		.ascii	"\002\277\007p2\277\215P\206rr[\177!m\241\323\357\250"
 681      32BF8D50 
 681      8672725B 
 681      7F216DA1 
 681      D3EFA8
 682 0177 B64A5963 		.ascii	"\266JYc]\243\347k\014t]nB\217\236\327\032\320#_N\241"
 682      5DA3E76B 
 682      0C745D6E 
 682      428F9ED7 
 682      1AD0235F 
 683 018d 645909F7 		.ascii	"dY\011\367\325P\346@\231M\354\363*\271V\020\3745p\375"
 683      D550E640 
 683      994DECF3 
 683      2AB95610 
 683      FC3570FD 
 684 01a1 3DC56B2D 		.ascii	"=\305k-\261U\262F\267\217\300\263uP\352H\375_\223k-"
 684      B155B246 
 684      B78FC0B3 
 684      7550EA48 
 684      FD5F936B 
 685 01b6 B9BE45D9 		.ascii	"\271\276E\331{3\321\355\277s\262\215\025}\256cd]*zM"
 685      7B33D1ED 
 685      BF73B28D 
 685      157DAE63 
 685      645D2A7A 
 686 01cb 213AFF0F 		.ascii	"!:\377\017N\257\333L(\203\241\014\341d>\021\236\342"
 686      4EAFDB4C 
 686      2883A10C 
 686      E1643E11 
 686      9EE2
 687 01dd 5B74BCD5 		.ascii	"[t\274\325\223\266X\015\277\012n*+\333M\313C\023\221"
 687      93B6580D 
 687      BF0A6E2A 
 687      2BDB4DCB 
 687      431391
 688 01f0 2D858DB5 		.ascii	"-\205\215\265\207\374\005\331R\361\275z\342_\177\200"
 688      87FC05D9 
 688      52F1BD7A 
 688      E25F7F80 
 689 0200 77EFB072 		.ascii	"w\357\260r\233<\325.\312\027\203\251vQ\235lx\360\020"
 689      9B3CD52E 
 689      CA1783A9 
 689      76519D6C 
 689      78F010
 690 0213 2BB7AFD8 		.ascii	"+\267\257\330O\341\003\345\252\037\302\375H(\023\341"
ARM GAS  /tmp/ccOzWYNS.s 			page 53


 690      4FE103E5 
 690      AA1FC2FD 
 690      482813E1 
 691 0223 DD5AB87A 		.ascii	"\335Z\270z\341:\015\256YD\357I\204\267aPF@y\020\312"
 691      E13A0DAE 
 691      5944EF49 
 691      84B76150 
 691      46407910 
 692 0238 70F2AE41 		.ascii	"p\362\256A\223\277jIN\253'\266\217\3025\027\260\004"
 692      93BF6A49 
 692      4EAB27B6 
 692      8FC23517 
 692      B004
 693 024a 2893A04C 		.ascii	"(\223\240L\206\222\007\305G\361\215r\334]\214>vP\375"
 693      869207C5 
 693      47F18D72 
 693      DC5D8C3E 
 693      7650FD
 694 025d 9B50DE67 		.ascii	"\233P\336g\344\334\243\365}\205\367?il\031f\211\035"
 694      E4DCA3F5 
 694      7D85F73F 
 694      696C1966 
 694      891D
 695 026f A13C07CF 		.ascii	"\241<\007\317\375P\002P\202P.\302\303)p=KxF:F1\202d"
 695      FD500250 
 695      82502EC2 
 695      C329703D 
 695      4B78463A 
 696 0287 42BA467A 		.ascii	"B\272Fz\276A\344D\274\2408\017sr^E\371\025\345\202="
 696      BE41E444 
 696      BCA0380F 
 696      73725E45 
 696      F915E582 
 697 029c 44E78514 		.ascii	"D\347\205\024\357(7\017\241x\227\210\356\346\020=hy"
 697      EF28370F 
 697      A1789788 
 697      EEE6103D 
 697      6879
 698 02ae 9FC6C9BE 		.ascii	"\237\306\311\276\217b\341:\224\351\360{7\\\377\007\256"
 698      8F62E13A 
 698      94E9F07B 
 698      375CFF07 
 698      AE
 699 02bf 2FC2F5CF 		.ascii	"/\302\365\317p\375\232\225m\262\215\330O\341w\230F\357"
 699      70FD9A95 
 699      6DB28DD8 
 699      4FE17798 
 699      46EF
 700 02d1 2D24DF2B 		.ascii	"-$\337+}D\005\351\003\020\375!\270\036$\374\376/\305"
 700      7D4405E9 
 700      0310FD21 
 700      B81E24FC 
 700      FE2FC5
 701 02e4 6FAB0D5D 		.ascii	"o\253\015]gi\332o\242\370W|#\225M\254k\204\253\360\334"
 701      6769DA6F 
 701      A2F8577C 
 701      23954DAC 
ARM GAS  /tmp/ccOzWYNS.s 			page 54


 701      6B84ABF0 
 702 02f9 48E95DD1 		.ascii	"H\351]\321w+\361\027\255\276\321\363\377\203\337\307"
 702      772BF117 
 702      ADBED1F3 
 702      FF83DFC7 
 703 0309 E0BE83C8 		.ascii	"\340\276\203\310QL\311\201\372\302~\006zob\342se\242"
 703      514CC981 
 703      FAC27E06 
 703      7A6F62E2 
 703      7365A2
 704 031c 3CD9A9C9 		.ascii	"<\331\251\311\2233\250vP\177\373\003\007\276i\344\223"
 704      9333A876 
 704      507FFB03 
 704      07BE69E4 
 704      93
 705 032d A87D455F 		.ascii	"\250}E_\212\376\354\372\250\342\237\212\316\222\011"
 705      8AFEECFA 
 705      A8E29F8A 
 705      CE9209
 706 033c 4F530CF4 		.ascii	"OS\014\364\246\310PB\311p\322a|%\222\301\212\367T\023"
 706      A6C85042 
 706      C970D261 
 706      7C2592C1 
 706      8AF75413 
 707 0350 DE513E43 		.ascii	"\336Q>C\271L\261\373I\2038S\370/\245\370?\305\306\367"
 707      B94CB1FB 
 707      49833853 
 707      F82FA5F8 
 707      3FC5C6F7 
 708 0364 256540F3 		.ascii	"%e@\363<\253\357\217\\\204\026\365{'\251\374\217\216"
 708      3CABEF8F 
 708      5C8416F5 
 708      7B27A9FC 
 708      8F8E
 709 0376 33AC711F 		.ascii	"3\254q\037v\306\204~8\363\252\024=\324]z\352$\367\212"
 709      76C6847E 
 709      38F3AA14 
 709      3DD45D7A 
 709      EA24F78A 
 710 038a 142D9160 		.ascii	"\024-\221`\230'\261YC\230\371\022\0345e\222\304\212"
 710      9827B159 
 710      4398F912 
 710      1C356592 
 710      C48A
 711 039c 3CFBC89D 		.ascii	"<\373\310\235\314\357Y\236\035\220\306d\341\233\214"
 711      CCEF599E 
 711      1D90C664 
 711      E19B8C
 712 03ab 341C8390 		.ascii	"4\034\203\220\235\331\327\330!\344\356Y\227\322\032"
 712      9DD9D7D8 
 712      21E4EE59 
 712      97D21A
 713 03ba E4CF7B98 		.ascii	"\344\317{\2305P\277R\222\212\177\024\337&\034?cV\241"
 713      3550BF52 
 713      928A7F14 
 713      DF261C3F 
 713      6356A1
ARM GAS  /tmp/ccOzWYNS.s 			page 55


 714 03cd 06A43724 		.ascii	"\006\2447$\027\206G\000\313\331\341Z\022\236]\301\352"
 714      17864700 
 714      CBD9E15A 
 714      129E5DC1 
 714      EA
 715 03de 9424B31A 		.ascii	"\224$\263\032\255\3740\243\262\250\273\267\267\272&"
 715      ADFC30A3 
 715      B2A8BBB7 
 715      B7BA26
 716 03ed 536E9E63 		.ascii	"Sn\236cF\263@\275\222\275\307\022~5\015\377\272!|C<"
 716      46B340BD 
 716      92BDC712 
 716      7E350DFF 
 716      BA217C43 
 717 0402 FC3FDB81 		.ascii	"\374?\333\201_C\303\277i\010\1779\036\376\217v\340k"
 717      5F43C3BF 
 717      69087F39 
 717      1EFE8F76 
 717      E06B
 718 0414 69F8B546 		.ascii	"i\370\265F\360\335m3\273\356\352\223\035\327\021;\272"
 718      F0DD6D33 
 718      BBEEEA93 
 718      1DD7113B 
 718      BA
 719 0425 640F4D67 		.ascii	"d\017Mg^\000\333\241\212c\233\007\334\301\274\214P\262"
 719      5E00DBA1 
 719      8A639B07 
 719      DCC1BC8C 
 719      50B2
 720 0437 9AC13149 		.ascii	"\232\3011I\375G\225\372(\026~\312\254\004[ww\276p\364"
 720      FD4795FA 
 720      28167ECA 
 720      AC045B77 
 720      77BE70F4 
 721 044b 65B6045A 		.ascii	"e\266\004Z\342\331\215\354\035\200\363.\253\227\214"
 721      E2D98DEC 
 721      1D80F32E 
 721      AB978C
 722 045a E0D43C6A 		.ascii	"\340\324<j\006\3041\357\341*\233\240\272\\\021CK\335"
 722      06C431EF 
 722      E12A9BA0 
 722      BA5C1143 
 722      4BDD
 723 046c ED7BAE14 		.ascii	"\355{\256\024\263E\030\032\275c(\205i\216\273\231\032"
 723      B345181A 
 723      BD632885 
 723      698EBB99 
 723      1A
 724 047d 603C7AA1 		.ascii	"`<z\241b\331]R\315N6\221\0345n\245\375\337\304\004\371"
 724      62D95D52 
 724      CD4E3691 
 724      1C356EA5 
 724      FDDFC404 
 725 0492 A065B4E4 		.ascii	"\240e\264\344\346\331mX\210.c!\314A8\3464\256\322\020"
 725      E6D96D58 
 725      882E6321 
 725      CC4138E6 
ARM GAS  /tmp/ccOzWYNS.s 			page 56


 725      34AED210 
 726 04a6 27C4CCC6 		.ascii	"'\304\314\306\031D\210\006[B,\234-\013\301\263\365 "
 726      19448806 
 726      5B422C9C 
 726      2D0BC1B3 
 726      F520
 727 04b8 08073944 		.ascii	"\010\0079D\3015\262\"\271\225\017B\240\307[| \243\222"
 727      C135B222 
 727      B9950F42 
 727      A0C75B7C 
 727      20A392
 728 04cb 57C0AE3A 		.ascii	"W\300\256:\006\313\322\201U\037X\212\231Kc\312c\032"
 728      06CBD281 
 728      551F588A 
 728      994B63CA 
 728      631A
 729 04dd 660CC188 		.ascii	"f\014\301\210Z{\347\354>\314\316\300\3627A5\216\331"
 729      5A7BE7EC 
 729      3ECCCEC0 
 729      F2374135 
 729      8ED9
 730 04ef C4E9556B 		.ascii	"\304\351Uk\037\352VU\343\016\266\030C\355\305P\033\\"
 730      1FEA5655 
 730      E30EB618 
 730      43EDC550 
 730      1B5C
 731 0501 7D85BAB2 		.ascii	"}\205\272\262\344\235\207%)\225g\367c\240\250[\017\304"
 731      E49D8725 
 731      299567F7 
 731      63A0A85B 
 731      0FC4
 732 0513 B329AA1A 		.ascii	"\263)\252\032\325\337\012\001B\303\257\311\015\232$"
 732      D5DF0A01 
 732      42C3AFC9 
 732      0D9A24
 733 0522 0F64BE63 		.ascii	"\017d\276cr\216\331\347\266a\272T3?\220 I\354w\241$"
 733      728ED9E7 
 733      B661BA54 
 733      333F9020 
 733      49EC77A1 
 734 0537 E1520232 		.ascii	"\341R\0022\331LG\034s\004\267u\230\366\345\236S\315"
 734      D94C471C 
 734      7304B775 
 734      98F6E59E 
 734      53CD
 735 0549 FFB04892 		.ascii	"\377\260H\2222\345W\211]\371\355\226\205\366\342\221"
 735      32E55789 
 735      5DF9ED96 
 735      85F6E291 
 736 0559 539AFF09 		.ascii	"S\232\377\011n\2768\0115\337F7\277\252w\007\213\215"
 736      6EBE3809 
 736      35DF4637 
 736      BFAA7707 
 736      8B8D
 737 056b D666ABF5 		.ascii	"\326f\253\365\303G\346\305\267n\232\016\211c\364\234"
 737      C347E6C5 
 737      B76E9A0E 
ARM GAS  /tmp/ccOzWYNS.s 			page 57


 737      8963F49C 
 738 057b FA6C5835 		.ascii	"\372lX5\026\261\003\007\314\354$\3323F\247\353m\007"
 738      16B10307 
 738      CCEC24DA 
 738      3346A7EB 
 738      6D07
 739 058d BF35041C 		.ascii	"\2775\004\034\263Pe\276O\361\332\275\352\315\026\334"
 739      B35065BE 
 739      4FF1DABD 
 739      EACD16DC 
 740 059d 29BB1416 		.ascii	")\273\024\026\026;\006\314\322\351\341\350\021\234\000"
 740      163B06CC 
 740      D2E9E1E8 
 740      119C00
 741 05ac 64B06576 		.ascii	"d\260ev\300L\275\2508\332\246\005\253q\014\246\347\354"
 741      C04CBDA8 
 741      38DAA605 
 741      AB710CA6 
 741      E7EC
 742 05be 98166C85 		.ascii	"\230\026l\205\035\260Ls\316:\264`\253\035\203\3519\373"
 742      1DB04C73 
 742      CE3AB460 
 742      AB1D83E9 
 742      39FB
 743 05d0 400BB6C6 		.ascii	"@\013\266\306\016\330Ps\316\272\264`k\035\203\3519;"
 743      0ED85073 
 743      CEBAB460 
 743      6B1D83E9 
 743      393B
 744 05e2 AF055B6F 		.ascii	"\257\005[o\007,\313\2003\3650\033\031\274\317\252n\316"
 744      072CCB80 
 744      33F5301B 
 744      19BCCFAA 
 744      6ECE
 745 05f4 316F2529 		.ascii	"1o%)\351\300\241K31\214-IN\323\227Nn\350G\337[\301V"
 745      E9C0A14B 
 745      33318C2D 
 745      494ED397 
 745      4E6EE847 
 746 060c CD909A47 		.ascii	"\315\220\232G*}Y\203\035D\013\207\331\244\355\030\233"
 746      2A7D5983 
 746      1D440B87 
 746      D9A4ED18 
 746      9B
 747 061d 1C83E9CD 		.ascii	"\034\203\351\315r\024\201\3512\015\351\214\272WE\207"
 747      721481E9 
 747      320DE98C 
 747      BA574587 
 748 062d 2E8AA5BA 		.ascii	".\212\245\272T\005\013\215\312\345\274\006\343eN%\226"
 748      54050B8D 
 748      CAE5BC06 
 748      E3654E25 
 748      96
 749 063e 860E35A6 		.ascii	"\206\0165\246\345\331+\354O\341|\225MS\271\220\357\225"
 749      E5D92BEC 
 749      4FE17C95 
 749      4D53B990 
ARM GAS  /tmp/ccOzWYNS.s 			page 58


 749      EF95
 750 0650 BB5E3C09 		.ascii	"\273^<\0118\220d0\336\227mj]\325\314\023z\264\236\320"
 750      38906430 
 750      DE976D6A 
 750      5DD5CC13 
 750      7AB49ED0 
 751 0664 6A474D16 		.ascii	"jGM\026\241p\336LM\3212\251\234-Z?\314r\254\011\311"
 751      A170DE4C 
 751      4DD132A9 
 751      9C2D5A3F 
 751      CC72AC09 
 752 0679 F9876FE2 		.ascii	"\371\207o\342\344|\013w\333\035I\206\375\277-\254[U"
 752      E47C0B77 
 752      DB1D4986 
 752      FDBF2DAC 
 752      5B55
 753 068b 0795C104 		.ascii	"\007\225\301\004R?\307|\332w\260\232+'\206\241\261\343"
 753      523FC77C 
 753      DA77B09A 
 753      2B2786A1 
 753      B1E3
 754 069d 0C0C742E 		.ascii	"\014\014t.\256\313H\243\006\023i\372\356>--v\323\253"
 754      AECB48A3 
 754      061369FA 
 754      EE3E2D2D 
 754      76D3AB
 755 06b0 1C7A2B7E 		.ascii	"\034z+~\247u\314,\177Sk\371k\216-\257\013\220\356\266"
 755      A775CC2C 
 755      7F536BF9 
 755      6B8E2DAF 
 755      0B90EEB6 
 756 06c4 3D5DAE85 		.ascii	"=]\256\205R\264\310\245qu\313\270\200\241\343\301\206"
 756      52B4C8A5 
 756      7175CBB8 
 756      80A1E3C1 
 756      86
 757 06d5 5FE3FEBE 		.ascii	"_\343\376\276\034\353\265$\331\320@6\200nU\255\375\005"
 757      1CEBB524 
 757      D9D04036 
 757      806E55AD 
 757      FD05
 758 06e7 06AAC040 		.ascii	"\006\252\300@/\365\031\350\312\222WGa\240\331\030h~"
 758      2FF519E8 
 758      CA925747 
 758      61A0D918 
 758      687E
 759 06f9 326D6996 		.ascii	"2mi\226\2624\253\267\200\032t$\346\276+Z\216\251N\246"
 759      B234ABB7 
 759      801A7424 
 759      E6BE2B5A 
 759      8EA94EA6 
 760 070d CCA513C7 		.ascii	"\314\245\023\307\242gP\322\355\236O\252\330K\305\322"
 760      A26750D2 
 760      ED9E4FAA 
 760      D84BC5D2 
 761 071d A2910EEC 		.ascii	"\242\221\016\3545\207\330\253\012k\347\3658\355 \365"
 761      3587D8AB 
ARM GAS  /tmp/ccOzWYNS.s 			page 59


 761      0A6BE7F5 
 761      38ED20F5 
 762 072d 3B13A3CE 		.ascii	";\023\243\316\261\030\251z1f\236\356\203\030\333e1\026"
 762      B118A97A 
 762      31669EEE 
 762      8318DB65 
 762      3116
 763 073f 6131367F 		.ascii	"a16\177\013blw,F\246F\014<\023\236'w~\337c\346Z\017"
 763      0B626C77 
 763      2C46A646 
 763      0C3C139E 
 763      27777EDF 
 764 0757 DE113FCB 		.ascii	"\336\021?\313\270\357\351F\316\321\236\203l\226\374"
 764      B8EFE946 
 764      CED19E83 
 764      6C96FC
 765 0766 38D1B059 		.ascii	"8\321\260Y\212V\035\321L\361$[S\274\203\352\024\257"
 765      8A561DD1 
 765      4CF1245B 
 765      53BC83EA 
 765      14AF
 766 0778 06ABACC9 		.ascii	"\006\253\254\311(\300\354@\325\334j\275\023%\322\025"
 766      28C0EC40 
 766      D5DC6ABD 
 766      1325D215 
 767 0788 18667F5F 		.ascii	"\030f\177_a\272\257\234\330,\307\351j\014t4\316\204"
 767      61BAAF9C 
 767      D82CC7E9 
 767      6A0C7434 
 767      CE84
 768 079a C9940593 		.ascii	"\311\224\005\223\365\026\204\237\250\245\2538A>O\236"
 768      F516849F 
 768      A8A5AB38 
 768      413E4F9E 
 769 07aa A01F29CC 		.ascii	"\240\037)\314\337\274\036\307ta\366\221\365\034\016"
 769      DFBC1EC7 
 769      7461F691 
 769      F51C0E
 770 07b9 BF14EF99 		.ascii	"\277\024\357\231\271\177\2362t\222\015\364\351m!\026"
 770      B97F9E32 
 770      74920DF4 
 770      E96D2116 
 771 07c9 47B7CF55 		.ascii	"G\267\317U\326(F"
 771      D62846
 772 07d0 A3C1D3B9 		.ascii	"\243\301\323\271\333\204\303\243m\335\250\200\232\263"
 772      DB84C3A3 
 772      6DDDA880 
 772      9AB3
 773 07de 6D33E976 		.ascii	"m3\351v\3245\250&\245/_\307!\206z\342\014^\317R\323"
 773      D435A826 
 773      A52F5FC7 
 773      21867AE2 
 773      0C5ECF52 
 774 07f3 36F44043 		.ascii	"6\364@Cb\026Ju\234\246\017,O\271MC\354\351\244\0141"
 774      62164A75 
 774      9CA60F2C 
 774      4FB94D43 
ARM GAS  /tmp/ccOzWYNS.s 			page 60


 774      ECE9A40C 
 775 0808 FBB6108B 		.ascii	"\373\266\020\213\243\257T\331[\361\372o\005+\003\013"
 775      A3AF54D9 
 775      5BF1FA6F 
 775      052B030B 
 776 0818 B20037BB 		.ascii	"\262\0007\273\205\243&\330\013ot\227\021=\242w\211s"
 776      85A326D8 
 776      0B6F7497 
 776      113DA277 
 776      8973
 777 082a C5894FD3 		.ascii	"\305\211O\323\244\271\031\312\312_\243\212j4TJ\250\236"
 777      A4B919CA 
 777      CA5FA38A 
 777      6A34544A 
 777      A89E
 778 083c 6897D03C 		.ascii	"h\227\320<\322I\326iR\262N\003\326\345{)\264\321W\320"
 778      D249D669 
 778      52B24E03 
 778      D6E57B29 
 778      B4D157D0 
 779 0850 89DA51D8 		.ascii	"\211\332Q\330\265\322\342\330\235*\253\207\231Sm\326"
 779      B5D2E2D8 
 779      9D2AAB87 
 779      99536DD6 
 780 0860 3AD5F1DB 		.ascii	":\325\361\333s\001p\252s+e\247J\344\004\022\253\235"
 780      730170AA 
 780      732B65A7 
 780      4AE40412 
 780      AB9D
 781 0872 C8704C37 		.ascii	"\310pL7n\271\221\366\202\215\275\3153\311\212e\243-"
 781      6EB991F6 
 781      828DBDCD 
 781      33C98A65 
 781      A32D
 782 0884 2FE8D179 		.ascii	"/\350\321yAE\252\202\332\027/(\216^;\263\227\305p\362"
 782      4145AA82 
 782      DA172F28 
 782      8E5E3BB3 
 782      97C570F2 
 783 0898 C4AC8A86 		.ascii	"\304\254\212\206\263k\005\002wSp\252\030\331\277\242"
 783      B36B0502 
 783      775370AA 
 783      18D9BFA2 
 784 08a8 C73F457D 		.ascii	"\307?E}\346\001\016\311\264$\225v-Y3\032\327\212\251"
 784      E6010EC9 
 784      B4249576 
 784      2D59331A 
 784      D78AA9
 785 08bb 9167F770 		.ascii	"\221g\367ph\246\326\314\335\015\347\026|\336\017\347"
 785      68A6D6CC 
 785      DD0DE716 
 785      7CDE0FE7 
 786 08cb 846EF19E 		.ascii	"\204n\361\236\326-V8\226;\313\246\367\355\3266\363f"
 786      D62D5638 
 786      963BCBA6 
 786      F7EDD636 
 786      F366
ARM GAS  /tmp/ccOzWYNS.s 			page 61


 787 08dd EAED795F 		.ascii	"\352\355y_\333\236\257\335x\265\312\301\212\360\301"
 787      DB9EAFDD 
 787      78B5CAC1 
 787      8AF0C1
 788 08ec 4625708F 		.ascii	"F%p\217\342\300]\037\247\335\275\3648\332\316\002\351"
 788      E2C05D1F 
 788      A7DDBDF4 
 788      38DACE02 
 788      E9
 789 08fd BB7D1545 		.ascii	"\273}\025E=8fw\252\215YN\226\201\326\325\256\366\033"
 789      3D386677 
 789      AA8D594E 
 789      9681D6D5 
 789      AEF61B
 790 0910 92E113AE 		.ascii	"\222\341\023\256\262*}W\313\376\"\262\177\322\201}\255"
 790      B22A7D57 
 790      CBFE22B2 
 790      7FD2817D 
 790      AD
 791 0921 99D2868D 		.ascii	"\231\322\206\215\345\332v\\\245\223\016\344\366\231"
 791      E5DA765C 
 791      A5930EE4 
 791      F699
 792 092f 9795FD93 		.ascii	"\227\225\375\223N\033\201\\\034m\255\320n=\360\354N"
 792      4E1B815C 
 792      1C6DADD0 
 792      6E3DF0EC 
 792      4E
 793 0940 9623B87D 		.ascii	"\226#\270}\325\250\316\210\235\232\020\371\020\207H"
 793      D5A8CE88 
 793      9D9A10F9 
 793      108748
 794 094f B7362C38 		.ascii	"\2676,8\346\264\035\355\377\334\314\031\245\350\374"
 794      E6B41DED 
 794      FFDCCC19 
 794      A5E8FC
 795 095e B6A5ACCC 		.ascii	"\266\245\254\314\277\234\212.\320xF\251H\207\247\265"
 795      BF9C8A2E 
 795      D07846A9 
 795      4887A7B5 
 796 096e 6671745D 		.ascii	"fqt]\033^!\222\275\364\246\035\346F\232\203m_\240(w"
 796      1B5E2192 
 796      BDF4A61D 
 796      E6469A83 
 796      6D5FA028 
 797 0983 371EA3CC 		.ascii	"7\036\243\314L\263\2017\312L\330\342h{\333R\202'\357"
 797      4CB38137 
 797      CA4CD8E2 
 797      687BDB52 
 797      8227EF
 798 0996 ABBCEC18 		.ascii	"\253\274\354\030O\317_\317\002\335\230n\251\035\270"
 798      4FCF5FCF 
 798      02DD986E 
 798      A91DB8
 799 09a5 476DDB3E 		.ascii	"Gm\333>\266/\306\263Q\274\220\265\203E\211q\027>7\342"
 799      B62FC6B3 
 799      51BC90B5 
ARM GAS  /tmp/ccOzWYNS.s 			page 62


 799      83458971 
 799      173E37E2 
 800 09b9 F3217C3E 		.ascii	"\363!|>\217\317\027\361\3712>\337\300\347\2318\221\316"
 800      8FCF17F1 
 800      F9323EDF 
 800      C0E79938 
 800      91CE
 801 09cb C5E785F8 		.ascii	"\305\347\205\370\274\024\237\217\343\363\307\370\374"
 801      BC149F8F 
 801      E3F3C7F8 
 801      FC
 802 09d8 093E9FC2 		.ascii	"\011>\237\302\347\317\360\371s;\211\227\032\013*\216"
 802      E7CFF0F9 
 802      733B8997 
 802      1A0B2A8E 
 803 09e8 BFA9CF7B 		.ascii	"\277\251\317{n\027\367\251K\213`n\307`YV\232\334\244"
 803      6E17F7A9 
 803      4B8B606E 
 803      C7605956 
 803      9ADCA4
 804 09fb D1E416AC 		.ascii	"\321\344\026\254\311\255X?_\332\221tCl\030\034\333\273"
 804      C9AD583F 
 804      5FDA9174 
 804      436C181C 
 804      DBBB
 805 0a0d 6750ECAD 		.ascii	"gP\354\255L\323\247\235\2370+$in\364\332\251h2\344w"
 805      4CD3A79D 
 805      9F302B24 
 805      696EF4DA 
 805      A96832E4 
 806 0a22 B75C1526 		.ascii	"\267\\\025&\344\230\254\216\035n\330\204\332\000\331"
 806      E498AC8E 
 806      1D6ED884 
 806      DA00D9
 807 0a31 CC3E2E8D 		.ascii	"\314>.\215\037\252nf\327\321\233\331g9\243\275\362\252"
 807      1FAA6E66 
 807      D7D19BD9 
 807      6739A3BD 
 807      F2AA
 808 0a43 2F9A5DE6 		.ascii	"/\232]\346\233\331H\245f\302]\344t\273\33123\224\230"
 808      9BD948A5 
 808      66C25DE4 
 808      74BBD932 
 808      339498
 809 0a56 1B0DC594 		.ascii	"\033\015\305\224\256\011c\025\362\2578d\256\013\234"
 809      AE096315 
 809      F2AF3864 
 809      AE0B9C
 810 0a65 1D098BA5 		.ascii	"\035\011\213\245K\237\214\037\253\314.\314k\021\006"
 810      4B9F8C1F 
 810      ABCC2ECC 
 810      6B1106
 811 0a74 2F1B0ADC 		.ascii	"/\033\012\334\366E3\014x\244\233\275\2753J8\306\201"
 811      F645330C 
 811      78A49BBD 
 811      BD334A38 
 811      C681
ARM GAS  /tmp/ccOzWYNS.s 			page 63


 812 0a86 BC576979 		.ascii	"\274Wiy\353\343\345m4\226\267U\030\253\014\260Z1\305"
 812      EBE3E56D 
 812      3496B755 
 812      18AB0CB0 
 812      5A31C5
 813 0a99 155379EB 		.ascii	"\025Sy\353-\3445\253E\030\274n(o\365\271n\323\257NR"
 813      2DE435AB 
 813      4518BC6E 
 813      286FF5B9 
 813      6ED3AF4E 
 814 0aae 99997895 		.ascii	"\231\231x\225\246T*b\247X\254\322\340Es\236\225\\\251"
 814      A6542A62 
 814      A758ACD2 
 814      E045739E 
 814      955CA9
 815 0ac1 20415B9A 		.ascii	" A[\232\351\2227\"@\007\252/\337+w\026\353\236\275\\"
 815      E9923722 
 815      4007AA2F 
 815      DF2B7716 
 815      EB9EBD5C 
 816 0ad5 FCD72D1F 		.ascii	"\374\327-\037PzT\025\362W\374\275\206\214\315\263\337"
 816      507A5415 
 816      F257FCBD 
 816      868CCDB3 
 816      DF
 817 0ae6 C414A263 		.ascii	"\304\024\242c\232\340\315p\031}\276q\244\356p\236F!"
 817      9AE0CD70 
 817      197DBE71 
 817      A4EE709E 
 817      4621
 818 0af8 CA172255 		.ascii	"\312\027\"U\375\354|\"R\352\242\242\252\314\250\215"
 818      FDEC7C22 
 818      52EAA2A2 
 818      AACCA88D 
 819 0b08 E8071D71 		.ascii	"\350\007\035q_\240\254\264\205_N\343\3172\224\241k\343"
 819      5FA0ACB4 
 819      855F4EE3 
 819      CF3294A1 
 819      6BE3
 820 0b1a 993F9A47 		.ascii	"\231?\232G-R\217\231\266_t9\372\006\245F\035\253\017"
 820      2D528F99 
 820      B65F7439 
 820      FA06A546 
 820      1DAB0F
 821 0b2d 663483A8 		.ascii	"f4\203\250O\224\217P\346\270P\317\177\214\222-!\020"
 821      4F948F50 
 821      E6B850CF 
 821      7F8C922D 
 821      2110
 822 0b3f C77C86AB 		.ascii	"\307|\206\253\314u\305}\204r\256\224\014\242\320\273"
 822      CC75C57D 
 822      8472AE94 
 822      0CA2D0BB 
 823 0b4f C483A877 		.ascii	"\304\203\250w\027*\375\350l\027\212\257k*n\337\372\222"
 823      172AFDE8 
 823      6C178AAF 
 823      6B2A6EDF 
ARM GAS  /tmp/ccOzWYNS.s 			page 64


 823      FA92
 824 0b61 8676DC97 		.ascii	"\206v\334\227\310`E\351N\301\262t`\207\333\235~\277"
 824      C86045E9 
 824      4EC1B274 
 824      6087DB9D 
 824      7EBF
 825 0b73 D1D9F2F6 		.ascii	"\321\331\362\366=x)m\261\013\2152f\245\177+c\365*;r"
 825      3D78296D 
 825      B10B8D32 
 825      66A57F2B 
 825      63F52A3B 
 826 0b88 98CFEAC0 		.ascii	"\230\317\352\300*\227\347\033Lz\355\177\371T\343\242"
 826      2A97E71B 
 826      4C7AED7F 
 826      F954E3A2 
 827 0b98 72E7682A 		.ascii	"r\347h*uZ\251\344\205\256\"\262LR\215\255\262\224R\012"
 827      755AA9E4 
 827      85AE22B2 
 827      4C528DAD 
 827      B294520A 
 828 0bac B57A85DA 		.ascii	"\265z\205\3322\343c\245+\335\304\243\342\336q\314*\307"
 828      32E363A5 
 828      2BDDC4A3 
 828      E2DE71CC 
 828      2AC7
 829 0bbe 5AD3591F 		.ascii	"Z\323Y\037\264\326\263JY\177\302\203\274\265v\000\215"
 829      B4D6B34A 
 829      597FC283 
 829      BCB57600 
 829      8D
 830 0bcf B6508D0E 		.ascii	"\266P\215\016m\360\360\354<\027\032\232\314w\341\341"
 830      6DF0F0EC 
 830      3C171A9A 
 830      CC77E1E1 
 831 0bdf 1A3EBF82 		.ascii	"\032>\277\202\317\257\342\363j\227\215\301\012ry\025"
 831      CFAFE2F3 
 831      6A978DC1 
 831      0A727915 
 832 0bef 5BD7ABBD 		.ascii	"[\327\253\275\225n\324\253u\177\010I\350\363\015\222"
 832      956ED4AB 
 832      757F0849 
 832      E8F30D92 
 833 0bff 94A684CB 		.ascii	"\224\246\204\313\016LW\3412\353\333H\013$\225\037\377"
 833      0E4C57E1 
 833      32EBDB48 
 833      0B24951F 
 833      FF
 834 0c10 008D5694 		.ascii	"\000\215V\224T\256\251e\224\312\3370L\203\013n\234\377"
 834      54AEA965 
 834      94CADF30 
 834      4C830B6E 
 834      9CFF
 835 0c22 799FBEC4 		.ascii	"y\237\276\304[\353,\013\352\326\363\310\202\305\205"
 835      5BEB2C0B 
 835      EAD6F3C8 
 835      82C585
 836 0c31 FED023AE 		.ascii	"\376\320#\256\303\351\2571.J\267\320\353\025[4\223\261"
ARM GAS  /tmp/ccOzWYNS.s 			page 65


 836      C3E9AF31 
 836      2E4AB7D0 
 836      EB155B34 
 836      93B1
 837 0c43 7A3C19DB 		.ascii	"z<\031\333\206\007\314\357\332\031F\326\231Z\346\260"
 837      8607CCEF 
 837      DA1946D6 
 837      995AE6B0 
 838 0c53 A165A2CB 		.ascii	"\241e\242\313^x\033\362\016'\327\344\230\2171U\255\251"
 838      5E781BF2 
 838      0E27D7E4 
 838      988F3155 
 838      ADA9
 839 0c65 5DEA5CA6 		.ascii	"]\352\\\246\243\310Z\272?\332\030o\210\232h\367\222"
 839      A3C85ABA 
 839      3FDA186F 
 839      889A68F7 
 839      92
 840 0c76 ED7B872E 		.ascii	"\355{\207.\000O\227\316C\306Q\273\274\222\014;]\336"
 840      004F97CE 
 840      43C651BB 
 840      BC920C3B 
 840      5DDE
 841 0c88 66BA892D 		.ascii	"f\272\211-\361Mt\037\212\366\034x\011d*\216\366\366"
 841      F14D741F 
 841      8AF61C78 
 841      09642A8E 
 841      F6F6
 842 0c9a 6E7F948C 		.ascii	"n\177\224\214\3068f^\206\341x\253J\031o\361\354M<\276"
 842      C638665E 
 842      86E178AB 
 842      4A196FF1 
 842      EC4D3CBE 
 843 0cae AC37955D 		.ascii	"\2547\225]?\336\332\254\033o\231\325\"|n3\354\372\333"
 843      3FDEDAAC 
 843      1B6F99D5 
 843      227C6E33 
 843      ECFADB
 844 0cc1 8FCCD6F2 		.ascii	"\217\314\326\362\211\262\021\307\324\030\363\331\223"
 844      89B211C7 
 844      D418F3D9 
 844      93
 845 0cce 3B96A486 		.ascii	";\226\244\206\3271A\203)\233\243\265\026\332\246\265"
 845      D7314183 
 845      299BA3B5 
 845      16DAA6B5 
 846 0cde 5003ADBE 		.ascii	"P\003\255\276\355\306\352\233\263O\031\366\272\351Q"
 846      EDC6EA9B 
 846      B34F19F6 
 846      BAE951
 847 0ced AF45A0EC 		.ascii	"\257E\240\354\246\0237\332\034\246\234p\215\261p7\376"
 847      A61337DA 
 847      1CA69C70 
 847      8DB17037 
 847      FE
 848 0cfe 73A8B297 		.ascii	"s\250\262\227\274\031S\3542\011q\231*&\336KRi&\253\312"
 848      BC1953EC 
ARM GAS  /tmp/ccOzWYNS.s 			page 66


 848      32097199 
 848      2A26DE4B 
 848      526926AB 
 849 0d13 B78B96AF 		.ascii	"\267\213\226\257\311P\276\267\333\314\345C\213\377f"
 849      C950BEB7 
 849      DBCCE543 
 849      8BFF66
 850 0d22 02EE3312 		.ascii	"\002\3563\022P\375\201za&.\352\242\306\002/\371\257"
 850      50FD817A 
 850      61262EEA 
 850      A2C6022F 
 850      F9AF
 851 0d34 A18A7E9A 		.ascii	"\241\212~\232]\310\353Z\254\005&\325.!g\225\273\373"
 851      5DC8EB5A 
 851      AC0526D5 
 851      2E216795 
 851      BBFB
 852 0d46 F731708B 		.ascii	"\3671p\213\251\027\020v\210\236\352\312J3\335\262t\214"
 852      A9171076 
 852      889EEACA 
 852      4A33DDB2 
 852      748C
 853 0d58 453522E8 		.ascii	"E5\"\350\001C\265m_\330'\2678Jk\015\205\214\372C\346"
 853      0143B56D 
 853      5FD827B7 
 853      384A6B0D 
 853      858CFA43 
 854 0d6d 88D65A87 		.ascii	"\210\326Z\207\211\233\344\252s\243\323\230\242\325:"
 854      899BE4AA 
 854      73A3D398 
 854      A2D53A
 855 0d7c 5671B54A 		.ascii	"Vq\265Ji=\322\232\274\253\363E\202j5\026\336\325J{W"
 855      693DD29A 
 855      BCABF345 
 855      826A3516 
 855      DED54A7B 
 856 0d91 BB517E8B 		.ascii	"\273Q~\213n9A\306\363Y\362|\205c\2762\316m\364\014\245"
 856      6E3941C6 
 856      F359F27C 
 856      8563BE32 
 856      CE6DF40C 
 857 0da6 D3BA5BEB 		.ascii	"\323\272[\35324\312\253]\261\326\344L:\253\277\235L"
 857      3234CAAB 
 857      5DB1D6E4 
 857      4C3AABBF 
 857      9D4C
 858 0db8 DA4D0BF3 		.ascii	"\332M\013\363\221!\374\202\017i\370\345\266\340O\322"
 858      9121FC82 
 858      0F69F8E5 
 858      B6E04FD2 
 859 0dc8 F09F18C2 		.ascii	"\360\237\030\302\253s\037\025~\213-\370S4\374iCS\254"
 859      AB731F15 
 859      7E8B2DF8 
 859      5334FC69 
 859      4353AC
 860 0ddb FBB839E6 		.ascii	"\373\2709\346\261J\013{m\265p\206n\341s\003\001*\273"
 860      B14A0B7B 
ARM GAS  /tmp/ccOzWYNS.s 			page 67


 860      6DB57086 
 860      6EE17303 
 860      012ABB
 861 0dee 4BAFEF64 		.ascii	"K\257\357d_\221v\242Q\305\363\016b\342\254eL\220~\206"
 861      5F9176A2 
 861      51C5F30E 
 861      62E2AC65 
 861      4C907E86 
 862 0e02 8A891371 		.ascii	"\212\211\023q|\313D\347\015\031;Rw\341\251>0v\221f\254"
 862      7CCB44E7 
 862      0D193B52 
 862      77E1A93E 
 862      30769166 
 863 0e17 277EE1E2 		.ascii	"'~\341\3423\023F.\0332\322\265\361Bv\037\030\371\232"
 863      3313462E 
 863      1B32D2B5 
 863      F142761F 
 863      18F99A
 864 0e2a 6664B62B 		.ascii	"fd\266+\216\221\213&\214\\5b$zu\337\213\022\213\275"
 864      8E918B26 
 864      8C5C3562 
 864      247A75DF 
 864      8B128BBD 
 865 0e3e 6DB87D36 		.ascii	"m\270}6\256\033\261A\247|\365w\265<8\322\316\\\342\355"
 865      AE1BB141 
 865      A77CF577 
 865      B53C38D2 
 865      CE5CE2ED 
 866 0e52 D86BC275 		.ascii	"\330k\302u\257\236\353\0373\313!B`\264t\370}\026\006"
 866      AF9EEB1F 
 866      33CB2142 
 866      60B474F8 
 866      7D1606
 867 0e65 99E533D0 		.ascii	"\231\3453\320n(\020)C\316\362\223\261u\022\351N\205"
 867      6E281029 
 867      43CEF293 
 867      B17512E9 
 867      4E85
 868 0e77 EF430843 		.ascii	"\357C\010C\235\014]^Nvs\212\334h\354\371\302\000\343"
 868      9D0C5D5E 
 868      4E76738A 
 868      DC68ECF9 
 868      C200E3
 869 0e8a A9B70514 		.ascii	"\251\267\005\024\307,\300\225J\334q;\030M\312V$z\227"
 869      C72CC095 
 869      4ADC713B 
 869      184DCA56 
 869      247A97
 870 0e9d 782B727D 		.ascii	"x+r}\227\274\003`0d\356V\347\373\3034\334\267\264\177"
 870      97BC0360 
 870      3064EE56 
 870      E7FBC334 
 870      DCB7B47F 
 871 0eb1 44B82FC7 		.ascii	"D\270/\307\334\327\230po\012\004\223(\\\245\"\236\367"
 871      DCD79870 
 871      6F0A0493 
 871      285CA522 
ARM GAS  /tmp/ccOzWYNS.s 			page 68


 871      9EF7
 872 0ec3 F7CB08EF 		.ascii	"\367\313\010\357\025\266xo\357\320\357^lSqI\303\016"
 872      15B6786F 
 872      EFD0EF5E 
 872      6C537149 
 872      C30E
 873 0ed5 37528F75 		.ascii	"7R\217u\340\205\003yw`\027\015\346h\302-\341\034\312"
 873      E0850379 
 873      7760170D 
 873      E668C22D 
 873      E11CCA
 874 0ee8 CBDF0073 		.ascii	"\313\337\000sL\213c\260,\035g\227\026\353\377\342r\310"
 874      4C8B63B0 
 874      2C1D6797 
 874      16EBFFE2 
 874      72C8
 875 0efa 0E9EC597 		.ascii	"\016\236\305\227\274\227;4_\362\036s\014\246g\356\272"
 875      BC973B34 
 875      5FF21E73 
 875      0CA667EE 
 875      BA
 876 0f0b 16ACDB0E 		.ascii	"\026\254\333\016\230\321\367\256F\207\326Ix\366%7\232"
 876      98D1F7AE 
 876      4687D649 
 876      78F62537 
 876      9A
 877 0f1c 74CD76A3 		.ascii	"t\315v\243IW%>\317\305\347y\370\274\000\237\027\271"
 877      4957253E 
 877      CFC5E779 
 877      F8BC009F 
 877      17B9
 878 0f2e 75FB639F 		.ascii	"u\373c\237\253Qb\350\212\211\\B\212n5\017\017\243=p"
 878      AB5162E8 
 878      8A895C42 
 878      8A6E350F 
 878      0FA33D70 
 879 0f42 08EED345 		.ascii	"\010\356\323El)\366\341\2458<\316'\016\017\372+\203"
 879      6C29F6E1 
 879      A5383CCE 
 879      270E0FFA 
 879      2B83
 880 0f54 B281A84A 		.ascii	"\262\201\250Ju\\x\354\371FYW\253\266\021\036\305\321"
 880      755C78EC 
 880      F9465957 
 880      ABB6111E 
 880      C5D1
 881 0f66 5BBA7535 		.ascii	"[\272u5\320\020\036\321V[\233\306\"<*;\324u5P\264c0"
 881      D0101ED1 
 881      565B9BC6 
 881      223C2A3B 
 881      D4753550 
 882 0f7d BDD3CCEF 		.ascii	"\275\323\314\357P6\343P\266\346\331ev\360,\276ZxKfN"
 882      5036E350 
 882      B6E6D965 
 882      76F02CBE 
 882      5A784B66 
 883 0f92 1E842F53 		.ascii	"\036\204/S5\3500\334\214\235\260Z\343\204"
ARM GAS  /tmp/ccOzWYNS.s 			page 69


 883      35E830DC 
 883      8C9DB05A 
 883      E384
 884 0fa0 CBB113BE 		.ascii	"\313\261\023\276\206\235m\005>\257\304\347Uz\307[3\220"
 884      869D6D05 
 884      3EAFC4E7 
 884      557AC75B 
 884      3390
 885 0fb2 723CBD91 		.ascii	"r<\275\221\215\342@\253\037\230\205\302\000\222\267"
 885      8DE240AB 
 885      1F9885C2 
 885      0092B7
 886 0fc1 BF257E56 		.ascii	"\277%~V\331\022_\203\275n\335@\307[\342\333q\225\332"
 886      D9125F83 
 886      BD6EDD40 
 886      C75BE2DB 
 886      7195DA
 887 0fd4 F8A47C4A 		.ascii	"\370\244|JI\312\265\211\275\256dFt\353\222\325\261\017"
 887      49CAB589 
 887      BDAE6446 
 887      74EB92D5 
 887      B10F
 888 0fe6 AC66A84B 		.ascii	"\254f\250Kz_\263\346\0238\335\007\363\007U>\034z\251"
 888      7A5FB3E6 
 888      1338DD07 
 888      F307553E 
 888      1C7AA9
 889 0ff9 B1ED6A35 		.ascii	"\261\355j5\266\373+"
 889      B6FB2B
 890 1000 B65D9DDE 		.ascii	"\266]\235\336R\307iK\031\265g\272\345-E\217w)\235\220"
 890      52C7694B 
 890      19B567BA 
 890      E52D458F 
 890      77299D90 
 891 1014 FC47C84E 		.ascii	"\374G\310N\032\257F\367\267Gr\253\333\366ft\200\027"
 891      1AAF46F7 
 891      B74772AB 
 891      DBF66674 
 891      8017
 892 1026 9D587E7D 		.ascii	"\235X~}\357\231\207\360b\363&l\367Y\231\016\355\216"
 892      EF9987F0 
 892      62F3266C 
 892      F759990E 
 892      ED8E
 893 1038 54B495B2 		.ascii	"T\264\225\262y\364\202\220%?M\234c\256}\212\277=r\362"
 893      79F48290 
 893      253F4D9C 
 893      63AE7D8A 
 893      BF3D72F2 
 894 104c 2DCB3BF2 		.ascii	"-\313;\362\267\302\357\270Q\244.\246\030\356\343\352"
 894      B7C2EFB8 
 894      51A42EA6 
 894      18EEE3EA 
 895 105c F86B1866 		.ascii	"\370k\030f\353\267\3454[5NS\217\235f\033\025\336\231"
 895      EBB7E534 
 895      5B354E53 
 895      8F9D661B 
ARM GAS  /tmp/ccOzWYNS.s 			page 70


 895      15DE99
 896 106f 369C2664 		.ascii	"6\234&d\3524\220\313O=T$E\027\215\034\304T*c=\371?\032"
 896      EA3490CB 
 896      4F3D5424 
 896      45178D1C 
 896      C4542A63 
 897 1087 843CDA5F 		.ascii	"\204<\332_A9\306\022\246v\272\007\341;\335\007\177\230"
 897      4139C612 
 897      A676BA07 
 897      E13BDD07 
 897      7F98
 898 1099 C4CCB0BB 		.ascii	"\304\314\260\273\334\261\277\257d\244\305n\276\257\312"
 898      DCB1BFAF 
 898      64A4C56E 
 898      BEAFCA
 899 10a8 514BCB41 		.ascii	"QK\313A\265K\356\247\331\326\\\211FseXs3qz\\\202\317"
 899      B54BEEA7 
 899      D9D65C89 
 899      46736558 
 899      7333717A 
 900 10bf 6FE0F346 		.ascii	"o\340\363F|~\033\237w\350\365\272Mu\007\343q/j\242\321"
 900      7C7E1B9F 
 900      77E8F5BA 
 900      4D7507E3 
 900      712F6AA2 
 901 10d4 AD0EC889 		.ascii	"\255\016\310\211\366j\036]4@\376[\016\251\225\251TR"
 901      F66A1E5D 
 901      3440FE5B 
 901      0EA995A9 
 901      5452
 902 10e6 EA3439D6 		.ascii	"\35249\326\335\036\023\335\261\372\246\263\250\226G"
 902      DD1E13DD 
 902      B1FAA6B3 
 902      A89647
 903 10f5 29742904 		.ascii	")t)\004\247\331q\313{MZN&-\223\205\363[+\216\274\310"
 903      A7D971CB 
 903      7B4D5A4E 
 903      262D9385 
 903      F35B2B8E 
 904 110b BE5C5726 		.ascii	"\276\\W&\241\271\323\363\325\321J\267\375\351\323>7"
 904      A1B9D3F3 
 904      D5D14AB7 
 904      FDE9D33E 
 904      37
 905 111c 357DDACB 		.ascii	"5}\332\313\306-\011\236\325E&\246\344\230\033\231D~"
 905      C62D099E 
 905      D54526A6 
 905      E4981B99 
 905      447E
 906 112e B2F273B8 		.ascii	"\262\362s\270)\243\222U\376\\<k\020^\372r\233-\342\220"
 906      29A39255 
 906      FE5C3C6B 
 906      105EFA72 
 906      9B2DE290 
 907 1142 C826D3FA 		.ascii	"\310&\323\372KE\232\025PTI\347G\357\271u\263.j\177\010"
 907      4B459A15 
 907      505449E7 
ARM GAS  /tmp/ccOzWYNS.s 			page 71


 907      47EFB975 
 907      B32E6A7F 
 908 1157 AD1898C9 		.ascii	"\255\030\230\311\326\352V;\223,\246Z\356\302\276\374"
 908      D6EA563B 
 908      932CA65A 
 908      EEC2BEFC 
 909 1167 7E5114F5 		.ascii	"~Q\024\365`\2445\364\321\001\243'\212^\374B\312\312"
 909      60A435F4 
 909      D101A327 
 909      8A5EFC42 
 909      CACA
 910 1179 5229AE68 		.ascii	"R)\256h)\250\306\213L\242\036\325k\243\033\217n9\247"
 910      29A8C68B 
 910      4CA21ED5 
 910      6BA31B8F 
 910      6E39A7
 911 118c C5FD26BE 		.ascii	"\305\375&\276e\230\211\037\366H%\251*M\205\313\274\355"
 911      6598891F 
 911      F64825A9 
 911      2A4D85CB 
 911      BCED
 912 119e 7516821F 		.ascii	"u\026\202\037\217\265M\325*\267\340\270#V\013Mm\017"
 912      8FB54DD5 
 912      2AB7E0B8 
 912      23560B4D 
 912      6D0F
 913 11b0 A1A9ED85 		.ascii	"\241\251\355\205\177\254\222\212\027I%\321\336^v\270"
 913      7FAC928A 
 913      174925D1 
 913      DE5E76B8 
 914 11c0 D6D1359D 		.ascii	"\326\3215\235\270n?\3054\034(*\236\355t\034\016]&\341"
 914      B86E3FC5 
 914      341C282A 
 914      9EED741C 
 914      0E5D26E1 
 915 11d4 A0FD3A3D 		.ascii	"\240\375:=F\005n8\007\273\241f\341\237b\202c\026\015"
 915      46056E38 
 915      07BBA166 
 915      E19F6282 
 915      63160D
 916 11e7 52726A3F 		.ascii	"Rrj?V5\324\366\203ZC\325[\030a\255\305\356\344\307\246"
 916      5635D4F6 
 916      835A43D5 
 916      5B1861AD 
 916      C5EEE4C7 
 917 11fc 4640BB1D 		.ascii	"F@\273\035f\265N\306\271\315\326\326\242\0326\313x\207"
 917      66B54EC6 
 917      B9CDD6D6 
 917      A21A36CB 
 917      7887
 918 120e 80909C9F 		.ascii	"\200\220\234\237+\365\343,)\256'\244XZ\225\210bnB\212"
 918      2BF5E32C 
 918      29AE27A4 
 918      585A9588 
 918      626E428A 
 919 1222 F656ADE2 		.ascii	"\366V\255\342\032,\024w\321B\005\237\307T`\342KC\225"
 919      1A2C1477 
ARM GAS  /tmp/ccOzWYNS.s 			page 72


 919      D142059F 
 919      C75460E2 
 919      4B4395
 920 1235 2A2E52E5 		.ascii	"*.R\345\013\307\276\364\245\211/q&\374Z\030\372\254"
 920      0BC7BEF4 
 920      A5892F71 
 920      26FC5A18 
 920      FAAC
 921 1247 89A14D98 		.ascii	"\211\241M\230\237\246\324\037H\352\177\345\230\371\363"
 921      9FA6D41F 
 921      48EA7FE5 
 921      98F9F3
 922 1256 26CC0F20 		.ascii	"&\314\017 l\230\325;g\352\222g-\344\273\020\253\025"
 922      6C98D53B 
 922      67EA9267 
 922      2DE4BB10 
 922      AB15
 923 1268 EB70FCB7 		.ascii	"\353p\374\2676H\322,\351\233\336\347\213J\356\246\272"
 923      3648D22C 
 923      E99BDEE7 
 923      8B4AEEA6 
 923      BA
 924 1279 9BBD1603 		.ascii	"\233\275\026\003\374K\356\370\357\203V\017\212\353_"
 924      FC4BEEF8 
 924      EF83560F 
 924      8AEB5F
 925 1288 78F6602C 		.ascii	"x\366`,\355\223\265\370\015o\240\315i\271\353\000\213"
 925      ED93B5F8 
 925      0D6FA0CD 
 925      69B9EB00 
 925      8B
 926 1299 98742E04 		.ascii	"\230t.\004\375\262\276\327\300\016Z\031=|B\353\240\273"
 926      FDB2BED7 
 926      C00E5A19 
 926      3D7C42EB 
 926      A0BB
 927 12ab 2C1CF4BA 		.ascii	",\034\364\272\205B\256\232\252q\267E\255k\246\265^\264"
 927      8542AE9A 
 927      AA71B745 
 927      AD6BA6B5 
 927      5EB4
 928 12bd A875DDB4 		.ascii	"\250u\335\264\326\327\026\265n\304\365|\213\267\177"
 928      D6D716B5 
 928      6EC4F57C 
 928      8BB77F
 929 12cc F4076DD7 		.ascii	"\364\007m\327\322\242\225]N\367\321\366\366Y\022+\225"
 929      D2A2955D 
 929      4EF7D1F6 
 929      F659122B 
 929      95
 930 12dd 494568DF 		.ascii	"IEh\337\327$\331\347)M\365\3075M|\234\242\342\331^\307"
 930      D724D9E7 
 930      294DF5C7 
 930      354D7C9C 
 930      A2E2D95E 
 931 12f2 3E2E2519 		.ascii	">.%\031\373x\206\306\2521*\270\375\320\215\226\0154"
 931      FB7886C6 
ARM GAS  /tmp/ccOzWYNS.s 			page 73


 931      AA312AB8 
 931      FDD08D96 
 931      0D34
 932 1304 1B471413 		.ascii	"\033G\024\0230\025\216O\366\225\340\313;\003\272!Ak"
 932      30158E4F 
 932      F695E0CB 
 932      3B03BA21 
 932      416B
 933 1316 7C6203ED 		.ascii	"|b\003\355\035\017j\265\327\031GS\331}\023\200\2644"
 933      1D0F6AB5 
 933      D7194753 
 933      D97D1380 
 933      B434
 934 1328 DDF13492 		.ascii	"\335\3614\222T\236i\274\001C\331\266\327\"=\226%\305"
 934      549E69BC 
 934      0143D9B6 
 934      D7223D96 
 934      25C5
 935 133a FABB5F8C 		.ascii	"\372\273_\214\030\221=&\3177\321\367o9\331\301HvX\314"
 935      18913D26 
 935      CF37D1F7 
 935      6F39D9C1 
 935      487658CC 
 936 134e 0E05C362 		.ascii	"\016\005\303b$\373\261\011O\217yzZ\2667\317\033\014"
 936      24FBB109 
 936      4F8F797A 
 936      5AB637CF 
 936      1B0C
 937 1360 0B9EA90F 		.ascii	"\013\236\251\017\371G\3441i\350\225'?\350}.\371\311"
 937      F947E431 
 937      69E89527 
 937      3FE87D2E 
 937      F9C9
 938 1372 7F7D366B 		.ascii	"\177}6k\014\223\216\037\024\004\320\243;\324\227\236"
 938      0C938E1F 
 938      1404D0A3 
 938      3BD4979E 
 939 1382 49E1A0DF 		.ascii	"I\341\240\337\343\213\204\007k^\253\017\177\034\327"
 939      E38B8407 
 939      6B5EAB0F 
 939      7F1CD7
 940 1391 A02FE0CD 		.ascii	"\240/\340\315/\310\025\240\255\2107/\027\332\371\231"
 940      2FC815A0 
 940      AD88372F 
 940      17DAF999 
 941 13a1 15C9F488 		.ascii	"\025\311\364\2108=$D\200l\240\230\027\026\370\334\210"
 941      383D2444 
 941      806CA098 
 941      1716F8DC 
 941      88
 942 13b2 674A8150 		.ascii	"gJ\201P x\304Lo\236G\367(U\376\345\021\323\3247\311"
 942      2078C44C 
 942      6F9E47F7 
 942      2855FEE5 
 942      11D3D437 
 943 13c7 214F4098 		.ascii	"!O@\230&\302%\024\026\246>\230@\370\240?\344\313\027"
 943      26C22514 
ARM GAS  /tmp/ccOzWYNS.s 			page 74


 943      16A63E98 
 943      40F8A03F 
 943      E4CB17
 944 13da C291EC27 		.ascii	"\302\221\354'\307\214\201\266\225\206S\304P\330\027"
 944      C78C81B6 
 944      958653C4 
 944      50D817
 945 13e9 F4006160 		.ascii	"\364\000a`\022.\277\312\316\013\372\205\354\260\020"
 945      122EBFCA 
 945      CE0BFA85 
 945      ECB010
 946 13f8 11F8B037 		.ascii	"\021\370\2607/;\217\017\347\026\362a!\233\017\373\357"
 946      2F3B8F0F 
 946      E716F261 
 946      219B0FFB 
 946      EF
 947 1409 CF9EECF5 		.ascii	"\317\236\354\365\336\0137\367\012\376\211Bn\256\220"
 947      DE0B37F7 
 947      0AFE8942 
 947      6EAE90
 948 1418 AB3E0804 		.ascii	"\253>\010\004\003\302\275\002?\321w\357\003\236Q\367"
 948      03C2BD02 
 948      3FD177EF 
 948      039E51F7 
 949 1428 DE3FF2BE 		.ascii	"\336?\362\276\007\246\334\237\255{\241\012\036\021s"
 949      07A6DC9F 
 949      AD7BA10A 
 949      1E1173
 950 1437 7D0111DA 		.ascii	"}\001\021\332N-\200\353/\357\367\2103\330\277]\353~"
 950      4E2D80EB 
 950      2FEFF788 
 950      33D8BF5D 
 950      EB7E
 951 1449 DE9BE70B 		.ascii	"\336\233\347\013\010\331\236\\a\022_\220/z\024M\364"
 951      08D99E5C 
 951      61125F90 
 951      2F7A144D 
 951      F4
 952 145a F378147E 		.ascii	"\363x\024~\260J}\301\024o0 \202\206\377\336\216_\001"
 952      B04A7DC1 
 952      146F3020 
 952      8286FFDE 
 952      8E5F01
 953 146d 82EC4280 		.ascii	"\202\354B\200\341\025\247\245\206\205\311\300\200G\344"
 953      E115A7A5 
 953      8685C9C0 
 953      8047E4
 954 147c C20F70E1 		.ascii	"\302\017p\341_q\341\007\271\360C\\x\024\027~\330\025"
 954      5F71E107 
 954      B9F0435C 
 954      7814177E 
 954      D815
 955 148e BE6F2494 		.ascii	"\276o$\224\373\270\3740\\~\231\024\362\000}\0122f\241"
 955      FBB8FC30 
 955      5C7E9914 
 955      F2007D0A 
 955      3266A1
ARM GAS  /tmp/ccOzWYNS.s 			page 75


 956 14a1 10866B30 		.ascii	"\020\206k0?W\010\273\275 :\2620\357\027\372E\304\347"
 956      3F5708BB 
 956      BD203AB2 
 956      30EF17FA 
 956      45C4E7
 957 14b4 F87CDFE4 		.ascii	"\370|\337\344\200G\304*{\360\001\217H\270\305\267!\017"
 957      8047C42A 
 957      7BF0018F 
 957      48B8C5B7 
 957      210F
 958 14c6 10E4FBFC 		.ascii	"\020\344\373\374>1U\214\210\274\010\376\223\202^\216"
 958      3E31558C 
 958      88BC08FE 
 958      93825E8E 
 959 14d6 026F91C9 		.ascii	"\002o\221\311\340.\005Q\301\273\024\321\037\314\025"
 959      E02E0551 
 959      C1BB14D1 
 959      1FCC15
 960 14e5 F0EF49F9 		.ascii	"\360\357I\371\374\344H\212\030\026&E\260\314\350&\311"
 960      FCE4488A 
 960      18162645 
 960      B0CCE826 
 960      C9
 961 14f6 1F990C2F 		.ascii	"\037\231\014/\211\"\240\272\242\222p\356tx\225*L\363"
 961      8922A0BA 
 961      A29270EE 
 961      7478952A 
 961      4CF3
 962 1508 895E0048 		.ascii	"\211^\000H.\024\203\023\377\024\272\203\270%T\025\302"
 962      2E148313 
 962      FF14BA83 
 962      B8255415 
 962      C2
 963 1519 42C00BC0 		.ascii	"B\300\013\300I\205\242\030\016\245D\204\200\010\025"
 963      4985A218 
 963      0EA54484 
 963      800815
 964 1528 32C05D23 		.ascii	"2\300]#\202\237\017\345\201\216\356\266\012\006\001"
 964      829F0FE5 
 964      818EEEB6 
 964      0A0601
 965 1537 85650A71 		.ascii	"\205e\012q\367$o\000,\223\024\361\300\025\232\202\227"
 965      F7246F00 
 965      2C9314F1 
 965      C0159A82 
 965      97
 966 1548 A15440F2 		.ascii	"\241T@\362\027\200=\254P\374\3424\204\342\227Q\340\032"
 966      17803DAC 
 966      50FCE234 
 966      84E29751 
 966      E01A
 967 155a 2C0C8052 		.ascii	",\014\200Rq=\020\302/GL\241\010t\241ta*\342\221\217"
 967      713D10C2 
 967      2F474CA1 
 967      0874A174 
 967      612AE291 
 968 156f 3C076F84 		.ascii	"<\007o\204Bt\343\012y\012\006(q\227\357\213\000\017"
ARM GAS  /tmp/ccOzWYNS.s 			page 76


 968      4274E30A 
 968      790A0628 
 968      7197EF8B 
 968      000F
 969 1581 03359188 		.ascii	"\0035\221\210\236\244\205<\205\274O\364\005&\203\336"
 969      9EA4853C 
 969      85BC4FF4 
 969      052683DE 
 970 1591 4140DC10 		.ascii	"A@\334\020\334\012!!\000~=\031\336\0038\242\354\207"
 970      DC0A2121 
 970      007E3D19 
 970      DE0338A2 
 970      EC87
 971 15a3 34CAE763 		.ascii	"4\312\347cO\202\207\241`0\277\237\034\336\276\200Ot"
 971      4F8287A1 
 971      6030BF9F 
 971      1CDEBE80 
 971      4F74
 972 15b5 89534283 		.ascii	"\211SB\203\344\237\223|\223\202@\352\017N\025\372\313"
 972      E49F937C 
 972      938240EA 
 972      0F4E15FA 
 972      CB
 973 15c6 4F72057C 		.ascii	"Or\005|\345\304P\222\347q\2507\330\233\227\343\315\033"
 973      E5C45092 
 973      E771A837 
 973      D89B97E3 
 973      CD1B
 974 15d8 17992044 		.ascii	"\027\231 D\274\023\340\235/,\344\216\263\324\346t\344"
 974      BC13E09D 
 974      2F2CE48E 
 974      B3D4E674 
 974      E4
 975 15e9 D2904572 		.ascii	"\322\220Er\246G\376\005R\326\023\220\261\306\345L\270"
 975      A647FE05 
 975      52D61390 
 975      B1C6E54C 
 975      B8
 976 15fa 033F7816 		.ascii	"\003?x\026g1\362(\313\002e*\212\322\201S}a\261\200\317"
 976      6731F228 
 976      CB02652A 
 976      8AD28153 
 976      7D61B180 
 977 160f F7883EBF 		.ascii	"\367\210>\277\020\226S\223\356Q\312T\021\253\025]Q&"
 977      10965393 
 977      EE51CA54 
 977      11AB155D 
 977      5126
 978 1621 4A43790D 		.ascii	"JCy\015^\200\267\302\223\\!_\344\341fRA\300\353\301"
 978      5E80B7C2 
 978      935C215F 
 978      E4E16652 
 978      41C0EBC1 
 979 1635 34E82E19 		.ascii	"4\350.\031\321\362a\360\216\337>3.\362X\330\017\362"
 979      D1F261F0 
 979      8EDF3E33 
 979      2EF258D8 
ARM GAS  /tmp/ccOzWYNS.s 			page 77


 979      0FF2
 980 1647 B8A68AA1 		.ascii	"\270\246\212\241t\325WpC9\202\377\011>\"\346\200\357"
 980      74D55770 
 980      433982FF 
 980      093E22E6 
 980      80EF
 981 1659 F3F9E3B8 		.ascii	"\363\371\343\270H\350Gq\334F\302^%\333z\231\201\036"
 981      48E84771 
 981      DC46C25E 
 981      25DB7A99 
 981      811E
 982 166b B811720B 		.ascii	"\270\021r\013 \321a%\247c\275M\000\343M\037\227\\\310"
 982      20D16125 
 982      A763BD4D 
 982      00E34D1F 
 982      975CC8
 983 167e 3F271484 		.ascii	"?'\024\204\330P\177\374\360\311`N\276 \204rR!\354p`"
 983      D8507FFC 
 983      F0C9604E 
 983      BE208472 
 983      5221EC70 
 984 1693 0CD63E7E 		.ascii	"\014\326>~\006\370\017\026\2109n$H\006~\363;\\=\307"
 984      06F80F16 
 984      88396E24 
 984      48067EF3 
 984      3B5C3DC7 
 985 16a7 1510432E 		.ascii	"\025\020C.\260\373]\304$\343\303\0028\247\350\013\006"
 985      B0FB5DC4 
 985      24E3C302 
 985      38A7E80B 
 985      06
 986 16b8 14C3FC1D 		.ascii	"\024\303\374\035~\363\233 2\226\314\314\343\002\244"
 986      7EF39B20 
 986      3296CCCC 
 986      E302A4
 987 16c7 9CDC2171 		.ascii	"\234\334!q\317\037\313\003\3162\011\217\312\303\234"
 987      CF1FCB03 
 987      CE32098F 
 987      CAC39C
 988 16d6 41717419 		.ascii	"Aqt\031\036\234Y\"\205\020{yi\330\206c\371|\021k\017"
 988      1E9C5922 
 988      85107B79 
 988      69D88663 
 988      F97C116B 
 989 16eb D309E2B8 		.ascii	"\323\011\342\270~\362\217\034\270MG1\0076\020\374rw"
 989      7EF28F1C 
 989      B84D4731 
 989      073610FC 
 989      7277
 990 16fd 21DF6720 		.ascii	"!\337g \037\236N\274\032t\340\211\375N\011\313\361\222"
 990      1F9E4EBC 
 990      1A74E089 
 990      FD4E09CB 
 990      F192
 991 170f 1CC6792F 		.ascii	"\034\306y/)\2143R\230d\244\260\234\221\322\340iA\030"
 991      298C3352 
 991      9864A4B0 
ARM GAS  /tmp/ccOzWYNS.s 			page 78


 991      9C91D2E0 
 991      694118
 992 1722 825C4C0A 		.ascii	"\202\\L\012\243Jw\352\234@\011\227!\264w\310/\322\301"
 992      A34A77EA 
 992      9C400997 
 992      21B477C8 
 992      2FD2C1
 993 1735 DEF96049 		.ascii	"\336\371`I\364\010l\217\036\015 ,\346\012\023\013&\313"
 993      F4086C8F 
 993      1E0D202C 
 993      E60A130B 
 993      26CB
 994 1747 71A67D92 		.ascii	"q\246}\222\026\342\003>/\2120W\356\304\311\375\374<"
 994      16E2033E 
 994      2F8A3057 
 994      EEC4C9FD 
 994      FC3C
 995 1759 24221C86 		.ascii	"$\"\034\206V\016+\242\034\222)\372=^\310\227\023\303"
 995      560E2BA2 
 995      1C9229FA 
 995      3D5EC897 
 995      13C3
 996 176b 3C320B38 		.ascii	"<2\0138]X\304\351$98i\022\250\212\023\375\003|\271\371"
 996      5D58C4E9 
 996      24393869 
 996      12A88A13 
 996      FD037CB9 
 997 1780 02096B08 		.ascii	"\002\011k\010g\316\2337B\217\012\356\234=\346\351\234"
 997      67CE9B37 
 997      428F0AEE 
 997      9C3DE6E9 
 997      9C
 998 1791 71393170 		.ascii	"q91p\344\223^\377\023\340\274\320F\177\017d5\321\363"
 998      E4935EFF 
 998      13E0BCD0 
 998      467F0F64 
 998      35D1F3
 999 17a4 F86339FF 		.ascii	"\370c9\3774~\302\270\376|~!?=\002.\227\017]K\322T>\037"
 999      347EC2B8 
 999      FE7C7E21 
 999      3F3D022E 
 999      970F5D4B 
 1000 17bc 3A6C0F76 		.ascii	":l\017vt\217\247\277r3\342\301\007F\336\007\031u2T"
 1000      748FA7BF 
 1000      7233E2C1 
 1000      0746DE07 
 1000      19753254 
 1001 17d0 1C9F335E 		.ascii	"\034\2373^\373\374\376\207\377\037n\223\343m"
 1001      FBFCFE87 
 1001      FF1F6E93 
 1001      E36D
 1002              		.text
 1003              		.section	.gnu.lto_.symtab.da6d1e2609e877ea,"",%progbits
 1004 0000 63680000 		.ascii	"ch\000\000\000\000\000\000\000\000\000\000\000\000\000"
 1004      00000000 
 1004      00000000 
 1004      000000
ARM GAS  /tmp/ccOzWYNS.s 			page 79


 1005 000f 0200005F 		.ascii	"\002\000\000_scheduler_init\000\000\000\000\000\000"
 1005      73636865 
 1005      64756C65 
 1005      725F696E 
 1005      69740000 
 1006 0027 00000000 		.ascii	"\000\000\000\000\000\000\267\001\000\000chSchReadyI"
 1006      0000B701 
 1006      00006368 
 1006      53636852 
 1006      65616479 
 1007 003c 00000000 		.ascii	"\000\000\000\000\000\000\000\000\000\000\000\000\272"
 1007      00000000 
 1007      00000000 
 1007      BA
 1008 0049 01000063 		.ascii	"\001\000\000chSchGoSleepS\000\000\000\000\000\000\000"
 1008      68536368 
 1008      476F536C 
 1008      65657053 
 1008      00000000 
 1009 0060 00000000 		.ascii	"\000\000\000\000\000\303\001\000\000chSchGoSleepTim"
 1009      00C30100 
 1009      00636853 
 1009      6368476F 
 1009      536C6565 
 1010 0078 656F7574 		.ascii	"eoutS\000\000\000\000\000\000\000\000\000\000\000\000"
 1010      53000000 
 1010      00000000 
 1010      00000000 
 1010      00
 1011 0089 CA010000 		.ascii	"\312\001\000\000chSchWakeupS\000\000\000\000\000\000"
 1011      63685363 
 1011      6857616B 
 1011      65757053 
 1011      00000000 
 1012 009f 00000000 		.ascii	"\000\000\000\000\000\000\323\001\000\000chSchIsPree"
 1012      0000D301 
 1012      00006368 
 1012      53636849 
 1012      73507265 
 1013 00b4 6D707469 		.ascii	"mptionRequired\000\000\000\000\000\000\000\000\000\000"
 1013      6F6E5265 
 1013      71756972 
 1013      65640000 
 1013      00000000 
 1014 00cc 0000DD01 		.ascii	"\000\000\335\001\000\000chSchDoRescheduleBehind\000"
 1014      00006368 
 1014      53636844 
 1014      6F526573 
 1014      63686564 
 1015 00ea 00000000 		.ascii	"\000\000\000\000\000\000\000\000\000\000\000\340\001"
 1015      00000000 
 1015      000000E0 
 1015      01
 1016 00f7 00006368 		.ascii	"\000\000chSchDoRescheduleAhead\000\000\000\000\000\000"
 1016      53636844 
 1016      6F526573 
 1016      63686564 
ARM GAS  /tmp/ccOzWYNS.s 			page 80


 1016      756C6541 
 1017 0115 00000000 		.ascii	"\000\000\000\000\000\000\343\001\000\000chSchResche"
 1017      0000E301 
 1017      00006368 
 1017      53636852 
 1017      65736368 
 1018 012a 64756C65 		.ascii	"duleS\000\000\000\000\000\000\000\000\000\000\000\000"
 1018      53000000 
 1018      00000000 
 1018      00000000 
 1018      00
 1019 013b E6010000 		.ascii	"\346\001\000\000chSchDoReschedule\000\000\000\000\000"
 1019      63685363 
 1019      68446F52 
 1019      65736368 
 1019      6564756C 
 1020 0155 00000000 		.ascii	"\000\000\000\000\000\000\000\351\001\000\000_port_s"
 1020      000000E9 
 1020      0100005F 
 1020      706F7274 
 1020      5F73
 1021 0167 77697463 		.ascii	"witch\000\000\002\000\000\000\000\000\000\000\000\000"
 1021      68000002 
 1021      00000000 
 1021      00000000 
 1021      00
 1022 0178 EC010000 		.ascii	"\354\001\000\000chSysHalt\000\000\002\000\000\000\000"
 1022      63685379 
 1022      7348616C 
 1022      74000002 
 1022      00000000 
 1023 018c 00000000 		.ascii	"\000\000\000\000\000\361\001\000\000chVTDoResetI\000"
 1023      00F10100 
 1023      00636856 
 1023      54446F52 
 1023      65736574 
 1024 01a2 00020000 		.ascii	"\000\002\000\000\000\000\000\000\000\000\000\365\001"
 1024      00000000 
 1024      000000F5 
 1024      01
 1025 01af 00006368 		.ascii	"\000\000chVTDoSetI\000\000\002\000\000\000\000\000\000"
 1025      5654446F 
 1025      53657449 
 1025      00000200 
 1025      00000000 
 1026 01c4 000000F9 		.ascii	"\000\000\000\371\001\000\000"
 1026      010000
 1027              		.text
 1028              		.section	.gnu.lto_.opts,"",%progbits
 1029 0000 272D6D63 		.ascii	"'-mcpu=cortex-m4' '-mno-thumb-interwork' '-mthumb' "
 1029      70753D63 
 1029      6F727465 
 1029      782D6D34 
 1029      2720272D 
 1030 0033 272D6767 		.ascii	"'-ggdb' '-O0' '-fomit-frame-pointer' '-falign-funct"
 1030      64622720 
 1030      272D4F30 
ARM GAS  /tmp/ccOzWYNS.s 			page 81


 1030      2720272D 
 1030      666F6D69 
 1031 0066 696F6E73 		.ascii	"ions=16' '-ffunction-sections' '-fdata-sections' '-"
 1031      3D313627 
 1031      20272D66 
 1031      66756E63 
 1031      74696F6E 
 1032 0099 666E6F2D 		.ascii	"fno-common' '-flto'\000"
 1032      636F6D6D 
 1032      6F6E2720 
 1032      272D666C 
 1032      746F2700 
 1033              		.text
 1034              		.cfi_sections	.debug_frame
 1035              		.section	.text.port_lock,"ax",%progbits
 1036              		.align	2
 1037              		.p2align 4,,15
 1038              		.thumb
 1039              		.thumb_func
 1040              		.type	port_lock, %function
 1041              	port_lock:
 1042              	.LFB127:
 1043              		.file 1 "../ChibiOS/os/rt/ports/ARMCMx/chcore_v7m.h"
 1044              		.loc 1 456 0
 1045              		.cfi_startproc
 1046              		@ args = 0, pretend = 0, frame = 8
 1047              		@ frame_needed = 0, uses_anonymous_args = 0
 1048              		@ link register save eliminated.
 1049 0000 82B0     		sub	sp, sp, #8
 1050              		.cfi_def_cfa_offset 8
 1051 0002 2023     		movs	r3, #32
 1052 0004 0193     		str	r3, [sp, #4]
 1053              	.LBB19:
 1054              	.LBB20:
 1055              		.file 2 "../ChibiOS/os/ext/CMSIS/include/core_cmFunc.h"
 1056              		.loc 2 548 0
 1057 0006 019B     		ldr	r3, [sp, #4]
 1058              	@ 548 "../ChibiOS/os/ext/CMSIS/include/core_cmFunc.h" 1
 1059 0008 83F31188 		MSR basepri, r3
 1060              	@ 0 "" 2
 1061              		.thumb
 1062              	.LBE20:
 1063              	.LBE19:
 1064              		.loc 1 473 0
 1065 000c 02B0     		add	sp, sp, #8
 1066              		@ sp needed
 1067 000e 7047     		bx	lr
 1068              		.cfi_endproc
 1069              	.LFE127:
 1070              		.size	port_lock, .-port_lock
 1071              		.section	.text.port_unlock,"ax",%progbits
 1072              		.align	2
 1073              		.p2align 4,,15
 1074              		.thumb
 1075              		.thumb_func
 1076              		.type	port_unlock, %function
 1077              	port_unlock:
ARM GAS  /tmp/ccOzWYNS.s 			page 82


 1078              	.LFB128:
 1079              		.loc 1 480 0
 1080              		.cfi_startproc
 1081              		@ args = 0, pretend = 0, frame = 8
 1082              		@ frame_needed = 0, uses_anonymous_args = 0
 1083              		@ link register save eliminated.
 1084 0000 82B0     		sub	sp, sp, #8
 1085              		.cfi_def_cfa_offset 8
 1086 0002 0023     		movs	r3, #0
 1087 0004 0193     		str	r3, [sp, #4]
 1088              	.LBB21:
 1089              	.LBB22:
 1090              		.loc 2 548 0
 1091 0006 019B     		ldr	r3, [sp, #4]
 1092              	@ 548 "../ChibiOS/os/ext/CMSIS/include/core_cmFunc.h" 1
 1093 0008 83F31188 		MSR basepri, r3
 1094              	@ 0 "" 2
 1095              		.thumb
 1096              	.LBE22:
 1097              	.LBE21:
 1098              		.loc 1 487 0
 1099 000c 02B0     		add	sp, sp, #8
 1100              		@ sp needed
 1101 000e 7047     		bx	lr
 1102              		.cfi_endproc
 1103              	.LFE128:
 1104              		.size	port_unlock, .-port_unlock
 1105              		.section	.text.port_lock_from_isr,"ax",%progbits
 1106              		.align	2
 1107              		.p2align 4,,15
 1108              		.thumb
 1109              		.thumb_func
 1110              		.type	port_lock_from_isr, %function
 1111              	port_lock_from_isr:
 1112              	.LFB129:
 1113              		.loc 1 495 0
 1114              		.cfi_startproc
 1115              		@ args = 0, pretend = 0, frame = 0
 1116              		@ frame_needed = 0, uses_anonymous_args = 0
 1117 0000 08B5     		push	{r3, lr}
 1118              		.cfi_def_cfa_offset 8
 1119              		.cfi_offset 3, -8
 1120              		.cfi_offset 14, -4
 1121              		.loc 1 497 0
 1122 0002 FFF7FEFF 		bl	port_lock
 1123              		.loc 1 498 0
 1124 0006 08BD     		pop	{r3, pc}
 1125              		.cfi_endproc
 1126              	.LFE129:
 1127              		.size	port_lock_from_isr, .-port_lock_from_isr
 1128 0008 AFF30080 		.section	.text.port_unlock_from_isr,"ax",%progbits
 1128      AFF30080 
 1129              		.align	2
 1130              		.p2align 4,,15
 1131              		.thumb
 1132              		.thumb_func
 1133              		.type	port_unlock_from_isr, %function
ARM GAS  /tmp/ccOzWYNS.s 			page 83


 1134              	port_unlock_from_isr:
 1135              	.LFB130:
 1136              		.loc 1 506 0
 1137              		.cfi_startproc
 1138              		@ args = 0, pretend = 0, frame = 0
 1139              		@ frame_needed = 0, uses_anonymous_args = 0
 1140 0000 08B5     		push	{r3, lr}
 1141              		.cfi_def_cfa_offset 8
 1142              		.cfi_offset 3, -8
 1143              		.cfi_offset 14, -4
 1144              		.loc 1 508 0
 1145 0002 FFF7FEFF 		bl	port_unlock
 1146              		.loc 1 509 0
 1147 0006 08BD     		pop	{r3, pc}
 1148              		.cfi_endproc
 1149              	.LFE130:
 1150              		.size	port_unlock_from_isr, .-port_unlock_from_isr
 1151 0008 AFF30080 		.section	.text.queue_init,"ax",%progbits
 1151      AFF30080 
 1152              		.align	2
 1153              		.p2align 4,,15
 1154              		.thumb
 1155              		.thumb_func
 1156              		.type	queue_init, %function
 1157              	queue_init:
 1158              	.LFB150:
 1159              		.file 3 "../ChibiOS/os/rt/include/chschd.h"
 1160              		.loc 3 604 0
 1161              		.cfi_startproc
 1162              		@ args = 0, pretend = 0, frame = 8
 1163              		@ frame_needed = 0, uses_anonymous_args = 0
 1164              		@ link register save eliminated.
 1165 0000 82B0     		sub	sp, sp, #8
 1166              		.cfi_def_cfa_offset 8
 1167 0002 0190     		str	r0, [sp, #4]
 1168              		.loc 3 606 0
 1169 0004 019B     		ldr	r3, [sp, #4]
 1170 0006 019A     		ldr	r2, [sp, #4]
 1171 0008 1A60     		str	r2, [r3]
 1172              		.loc 3 607 0
 1173 000a 019B     		ldr	r3, [sp, #4]
 1174 000c 019A     		ldr	r2, [sp, #4]
 1175 000e 5A60     		str	r2, [r3, #4]
 1176              		.loc 3 608 0
 1177 0010 02B0     		add	sp, sp, #8
 1178              		@ sp needed
 1179 0012 7047     		bx	lr
 1180              		.cfi_endproc
 1181              	.LFE150:
 1182              		.size	queue_init, .-queue_init
 1183 0014 AFF30080 		.section	.text.queue_fifo_remove,"ax",%progbits
 1183      AFF30080 
 1183      AFF30080 
 1184              		.align	2
 1185              		.p2align 4,,15
 1186              		.thumb
 1187              		.thumb_func
ARM GAS  /tmp/ccOzWYNS.s 			page 84


 1188              		.type	queue_fifo_remove, %function
 1189              	queue_fifo_remove:
 1190              	.LFB157:
 1191              		.loc 3 673 0
 1192              		.cfi_startproc
 1193              		@ args = 0, pretend = 0, frame = 16
 1194              		@ frame_needed = 0, uses_anonymous_args = 0
 1195              		@ link register save eliminated.
 1196 0000 84B0     		sub	sp, sp, #16
 1197              		.cfi_def_cfa_offset 16
 1198 0002 0190     		str	r0, [sp, #4]
 1199              		.loc 3 674 0
 1200 0004 019B     		ldr	r3, [sp, #4]
 1201 0006 1B68     		ldr	r3, [r3]
 1202 0008 0393     		str	r3, [sp, #12]
 1203              		.loc 3 676 0
 1204 000a 039B     		ldr	r3, [sp, #12]
 1205 000c 1A68     		ldr	r2, [r3]
 1206 000e 019B     		ldr	r3, [sp, #4]
 1207 0010 1A60     		str	r2, [r3]
 1208              		.loc 3 677 0
 1209 0012 019B     		ldr	r3, [sp, #4]
 1210 0014 1B68     		ldr	r3, [r3]
 1211 0016 019A     		ldr	r2, [sp, #4]
 1212 0018 5A60     		str	r2, [r3, #4]
 1213              		.loc 3 679 0
 1214 001a 039B     		ldr	r3, [sp, #12]
 1215              		.loc 3 680 0
 1216 001c 1846     		mov	r0, r3
 1217 001e 04B0     		add	sp, sp, #16
 1218              		@ sp needed
 1219 0020 7047     		bx	lr
 1220              		.cfi_endproc
 1221              	.LFE157:
 1222              		.size	queue_fifo_remove, .-queue_fifo_remove
 1223 0022 00BFAFF3 		.section	.text.queue_dequeue,"ax",%progbits
 1223      0080AFF3 
 1223      0080AFF3 
 1223      0080
 1224              		.align	2
 1225              		.p2align 4,,15
 1226              		.thumb
 1227              		.thumb_func
 1228              		.type	queue_dequeue, %function
 1229              	queue_dequeue:
 1230              	.LFB159:
 1231              		.loc 3 691 0
 1232              		.cfi_startproc
 1233              		@ args = 0, pretend = 0, frame = 8
 1234              		@ frame_needed = 0, uses_anonymous_args = 0
 1235              		@ link register save eliminated.
 1236 0000 82B0     		sub	sp, sp, #8
 1237              		.cfi_def_cfa_offset 8
 1238 0002 0190     		str	r0, [sp, #4]
 1239              		.loc 3 693 0
 1240 0004 019B     		ldr	r3, [sp, #4]
 1241 0006 5B68     		ldr	r3, [r3, #4]
ARM GAS  /tmp/ccOzWYNS.s 			page 85


 1242 0008 019A     		ldr	r2, [sp, #4]
 1243 000a 1268     		ldr	r2, [r2]
 1244 000c 1A60     		str	r2, [r3]
 1245              		.loc 3 694 0
 1246 000e 019B     		ldr	r3, [sp, #4]
 1247 0010 1B68     		ldr	r3, [r3]
 1248 0012 019A     		ldr	r2, [sp, #4]
 1249 0014 5268     		ldr	r2, [r2, #4]
 1250 0016 5A60     		str	r2, [r3, #4]
 1251              		.loc 3 696 0
 1252 0018 019B     		ldr	r3, [sp, #4]
 1253              		.loc 3 697 0
 1254 001a 1846     		mov	r0, r3
 1255 001c 02B0     		add	sp, sp, #8
 1256              		@ sp needed
 1257 001e 7047     		bx	lr
 1258              		.cfi_endproc
 1259              	.LFE159:
 1260              		.size	queue_dequeue, .-queue_dequeue
 1261              		.section	.text.chSchIsRescRequiredI,"ax",%progbits
 1262              		.align	2
 1263              		.p2align 4,,15
 1264              		.thumb
 1265              		.thumb_func
 1266              		.type	chSchIsRescRequiredI, %function
 1267              	chSchIsRescRequiredI:
 1268              	.LFB160:
 1269              		.loc 3 711 0
 1270              		.cfi_startproc
 1271              		@ args = 0, pretend = 0, frame = 0
 1272              		@ frame_needed = 0, uses_anonymous_args = 0
 1273              		@ link register save eliminated.
 1274              		.loc 3 715 0
 1275 0000 064B     		ldr	r3, .L12
 1276 0002 1B68     		ldr	r3, [r3]
 1277 0004 9A68     		ldr	r2, [r3, #8]
 1278 0006 054B     		ldr	r3, .L12
 1279 0008 9B69     		ldr	r3, [r3, #24]
 1280 000a 9B68     		ldr	r3, [r3, #8]
 1281 000c 9A42     		cmp	r2, r3
 1282 000e 94BF     		ite	ls
 1283 0010 0023     		movls	r3, #0
 1284 0012 0123     		movhi	r3, #1
 1285 0014 DBB2     		uxtb	r3, r3
 1286              		.loc 3 716 0
 1287 0016 1846     		mov	r0, r3
 1288 0018 7047     		bx	lr
 1289              	.L13:
 1290 001a 00BF     		.align	2
 1291              	.L12:
 1292 001c 00000000 		.word	ch
 1293              		.cfi_endproc
 1294              	.LFE160:
 1295              		.size	chSchIsRescRequiredI, .-chSchIsRescRequiredI
 1296              		.section	.text.chSysLockFromISR,"ax",%progbits
 1297              		.align	2
 1298              		.p2align 4,,15
ARM GAS  /tmp/ccOzWYNS.s 			page 86


 1299              		.thumb
 1300              		.thumb_func
 1301              		.type	chSysLockFromISR, %function
 1302              	chSysLockFromISR:
 1303              	.LFB169:
 1304              		.file 4 "../ChibiOS/os/rt/include/chsys.h"
 1305              		.loc 4 386 0
 1306              		.cfi_startproc
 1307              		@ args = 0, pretend = 0, frame = 0
 1308              		@ frame_needed = 0, uses_anonymous_args = 0
 1309 0000 08B5     		push	{r3, lr}
 1310              		.cfi_def_cfa_offset 8
 1311              		.cfi_offset 3, -8
 1312              		.cfi_offset 14, -4
 1313              		.loc 4 388 0
 1314 0002 FFF7FEFF 		bl	port_lock_from_isr
 1315              		.loc 4 391 0
 1316 0006 08BD     		pop	{r3, pc}
 1317              		.cfi_endproc
 1318              	.LFE169:
 1319              		.size	chSysLockFromISR, .-chSysLockFromISR
 1320              		.section	.text.chSysUnlockFromISR,"ax",%progbits
 1321              		.align	2
 1322              		.p2align 4,,15
 1323              		.thumb
 1324              		.thumb_func
 1325              		.type	chSysUnlockFromISR, %function
 1326              	chSysUnlockFromISR:
 1327              	.LFB170:
 1328              		.loc 4 406 0
 1329              		.cfi_startproc
 1330              		@ args = 0, pretend = 0, frame = 0
 1331              		@ frame_needed = 0, uses_anonymous_args = 0
 1332 0000 08B5     		push	{r3, lr}
 1333              		.cfi_def_cfa_offset 8
 1334              		.cfi_offset 3, -8
 1335              		.cfi_offset 14, -4
 1336              		.loc 4 410 0
 1337 0002 FFF7FEFF 		bl	port_unlock_from_isr
 1338              		.loc 4 411 0
 1339 0006 08BD     		pop	{r3, pc}
 1340              		.cfi_endproc
 1341              	.LFE170:
 1342              		.size	chSysUnlockFromISR, .-chSysUnlockFromISR
 1343 0008 AFF30080 		.section	.text.chVTIsArmedI,"ax",%progbits
 1343      AFF30080 
 1344              		.align	2
 1345              		.p2align 4,,15
 1346              		.thumb
 1347              		.thumb_func
 1348              		.type	chVTIsArmedI, %function
 1349              	chVTIsArmedI:
 1350              	.LFB182:
 1351              		.file 5 "../ChibiOS/os/rt/include/chvt.h"
 1352              		.loc 5 373 0
 1353              		.cfi_startproc
 1354              		@ args = 0, pretend = 0, frame = 8
ARM GAS  /tmp/ccOzWYNS.s 			page 87


 1355              		@ frame_needed = 0, uses_anonymous_args = 0
 1356              		@ link register save eliminated.
 1357 0000 82B0     		sub	sp, sp, #8
 1358              		.cfi_def_cfa_offset 8
 1359 0002 0190     		str	r0, [sp, #4]
 1360              		.loc 5 377 0
 1361 0004 019B     		ldr	r3, [sp, #4]
 1362 0006 DB68     		ldr	r3, [r3, #12]
 1363 0008 002B     		cmp	r3, #0
 1364 000a 0CBF     		ite	eq
 1365 000c 0023     		moveq	r3, #0
 1366 000e 0123     		movne	r3, #1
 1367 0010 DBB2     		uxtb	r3, r3
 1368              		.loc 5 378 0
 1369 0012 1846     		mov	r0, r3
 1370 0014 02B0     		add	sp, sp, #8
 1371              		@ sp needed
 1372 0016 7047     		bx	lr
 1373              		.cfi_endproc
 1374              	.LFE182:
 1375              		.size	chVTIsArmedI, .-chVTIsArmedI
 1376 0018 AFF30080 		.section	.text.chSemFastSignalI,"ax",%progbits
 1376      AFF30080 
 1377              		.align	2
 1378              		.p2align 4,,15
 1379              		.thumb
 1380              		.thumb_func
 1381              		.type	chSemFastSignalI, %function
 1382              	chSemFastSignalI:
 1383              	.LFB202:
 1384              		.file 6 "../ChibiOS/os/rt/include/chsem.h"
 1385              		.loc 6 134 0
 1386              		.cfi_startproc
 1387              		@ args = 0, pretend = 0, frame = 8
 1388              		@ frame_needed = 0, uses_anonymous_args = 0
 1389              		@ link register save eliminated.
 1390 0000 82B0     		sub	sp, sp, #8
 1391              		.cfi_def_cfa_offset 8
 1392 0002 0190     		str	r0, [sp, #4]
 1393              		.loc 6 138 0
 1394 0004 019B     		ldr	r3, [sp, #4]
 1395 0006 9B68     		ldr	r3, [r3, #8]
 1396 0008 5A1C     		adds	r2, r3, #1
 1397 000a 019B     		ldr	r3, [sp, #4]
 1398 000c 9A60     		str	r2, [r3, #8]
 1399              		.loc 6 139 0
 1400 000e 02B0     		add	sp, sp, #8
 1401              		@ sp needed
 1402 0010 7047     		bx	lr
 1403              		.cfi_endproc
 1404              	.LFE202:
 1405              		.size	chSemFastSignalI, .-chSemFastSignalI
 1406              		.global	ch
 1407 0012 00BFAFF3 		.section	.bss.ch,"aw",%nobits
 1407      0080AFF3 
 1407      0080AFF3 
 1407      0080
ARM GAS  /tmp/ccOzWYNS.s 			page 88


 1408              		.align	3
 1409              		.type	ch, %object
 1410              		.size	ch, 336
 1411              	ch:
 1412 0000 00000000 		.space	336
 1412      00000000 
 1412      00000000 
 1412      00000000 
 1412      00000000 
 1413              		.section	.text._scheduler_init,"ax",%progbits
 1414              		.align	2
 1415              		.p2align 4,,15
 1416              		.global	_scheduler_init
 1417              		.thumb
 1418              		.thumb_func
 1419              		.type	_scheduler_init, %function
 1420              	_scheduler_init:
 1421              	.LFB241:
 1422              		.file 7 "../ChibiOS/os/rt/src/chschd.c"
 1423              		.loc 7 65 0
 1424              		.cfi_startproc
 1425              		@ args = 0, pretend = 0, frame = 0
 1426              		@ frame_needed = 0, uses_anonymous_args = 0
 1427 0000 08B5     		push	{r3, lr}
 1428              		.cfi_def_cfa_offset 8
 1429              		.cfi_offset 3, -8
 1430              		.cfi_offset 14, -4
 1431              		.loc 7 67 0
 1432 0002 0648     		ldr	r0, .L20
 1433 0004 FFF7FEFF 		bl	queue_init
 1434              		.loc 7 68 0
 1435 0008 044B     		ldr	r3, .L20
 1436 000a 0022     		movs	r2, #0
 1437 000c 9A60     		str	r2, [r3, #8]
 1438              		.loc 7 70 0
 1439 000e 034B     		ldr	r3, .L20
 1440 0010 024A     		ldr	r2, .L20
 1441 0012 1A61     		str	r2, [r3, #16]
 1442              		.loc 7 71 0
 1443 0014 014B     		ldr	r3, .L20
 1444 0016 014A     		ldr	r2, .L20
 1445 0018 5A61     		str	r2, [r3, #20]
 1446              		.loc 7 73 0
 1447 001a 08BD     		pop	{r3, pc}
 1448              	.L21:
 1449              		.align	2
 1450              	.L20:
 1451 001c 00000000 		.word	ch
 1452              		.cfi_endproc
 1453              	.LFE241:
 1454              		.size	_scheduler_init, .-_scheduler_init
 1455              		.section	.text.chSchReadyI,"ax",%progbits
 1456              		.align	2
 1457              		.p2align 4,,15
 1458              		.global	chSchReadyI
 1459              		.thumb
 1460              		.thumb_func
ARM GAS  /tmp/ccOzWYNS.s 			page 89


 1461              		.type	chSchReadyI, %function
 1462              	chSchReadyI:
 1463              	.LFB242:
 1464              		.loc 7 218 0
 1465              		.cfi_startproc
 1466              		@ args = 0, pretend = 0, frame = 16
 1467              		@ frame_needed = 0, uses_anonymous_args = 0
 1468              		@ link register save eliminated.
 1469 0000 84B0     		sub	sp, sp, #16
 1470              		.cfi_def_cfa_offset 16
 1471 0002 0190     		str	r0, [sp, #4]
 1472              		.loc 7 227 0
 1473 0004 019B     		ldr	r3, [sp, #4]
 1474 0006 0022     		movs	r2, #0
 1475 0008 83F82020 		strb	r2, [r3, #32]
 1476              		.loc 7 228 0
 1477 000c 0E4B     		ldr	r3, .L25
 1478 000e 0393     		str	r3, [sp, #12]
 1479              	.L23:
 1480              		.loc 7 230 0 discriminator 1
 1481 0010 039B     		ldr	r3, [sp, #12]
 1482 0012 1B68     		ldr	r3, [r3]
 1483 0014 0393     		str	r3, [sp, #12]
 1484              		.loc 7 231 0 discriminator 1
 1485 0016 039B     		ldr	r3, [sp, #12]
 1486 0018 9A68     		ldr	r2, [r3, #8]
 1487 001a 019B     		ldr	r3, [sp, #4]
 1488 001c 9B68     		ldr	r3, [r3, #8]
 1489 001e 9A42     		cmp	r2, r3
 1490 0020 F6D2     		bcs	.L23
 1491              		.loc 7 233 0
 1492 0022 019B     		ldr	r3, [sp, #4]
 1493 0024 039A     		ldr	r2, [sp, #12]
 1494 0026 1A60     		str	r2, [r3]
 1495              		.loc 7 234 0
 1496 0028 039B     		ldr	r3, [sp, #12]
 1497 002a 5A68     		ldr	r2, [r3, #4]
 1498 002c 019B     		ldr	r3, [sp, #4]
 1499 002e 5A60     		str	r2, [r3, #4]
 1500              		.loc 7 235 0
 1501 0030 019B     		ldr	r3, [sp, #4]
 1502 0032 5B68     		ldr	r3, [r3, #4]
 1503 0034 019A     		ldr	r2, [sp, #4]
 1504 0036 1A60     		str	r2, [r3]
 1505              		.loc 7 236 0
 1506 0038 039B     		ldr	r3, [sp, #12]
 1507 003a 019A     		ldr	r2, [sp, #4]
 1508 003c 5A60     		str	r2, [r3, #4]
 1509              		.loc 7 238 0
 1510 003e 019B     		ldr	r3, [sp, #4]
 1511              		.loc 7 239 0
 1512 0040 1846     		mov	r0, r3
 1513 0042 04B0     		add	sp, sp, #16
 1514              		@ sp needed
 1515 0044 7047     		bx	lr
 1516              	.L26:
 1517 0046 00BF     		.align	2
ARM GAS  /tmp/ccOzWYNS.s 			page 90


 1518              	.L25:
 1519 0048 00000000 		.word	ch
 1520              		.cfi_endproc
 1521              	.LFE242:
 1522              		.size	chSchReadyI, .-chSchReadyI
 1523 004c AFF30080 		.section	.rodata
 1524              		.align	2
 1525              	.LC0:
 1526 0000 73746163 		.ascii	"stack overflow\000"
 1526      6B206F76 
 1526      6572666C 
 1526      6F7700
 1527 000f 00       		.section	.text.chSchGoSleepS,"ax",%progbits
 1528              		.align	2
 1529              		.p2align 4,,15
 1530              		.global	chSchGoSleepS
 1531              		.thumb
 1532              		.thumb_func
 1533              		.type	chSchGoSleepS, %function
 1534              	chSchGoSleepS:
 1535              	.LFB243:
 1536              		.loc 7 250 0
 1537              		.cfi_startproc
 1538              		@ args = 0, pretend = 0, frame = 16
 1539              		@ frame_needed = 0, uses_anonymous_args = 0
 1540 0000 10B5     		push	{r4, lr}
 1541              		.cfi_def_cfa_offset 8
 1542              		.cfi_offset 4, -8
 1543              		.cfi_offset 14, -4
 1544 0002 84B0     		sub	sp, sp, #16
 1545              		.cfi_def_cfa_offset 24
 1546 0004 0346     		mov	r3, r0
 1547 0006 8DF80730 		strb	r3, [sp, #7]
 1548              		.loc 7 255 0
 1549 000a 154B     		ldr	r3, .L30
 1550 000c 9B69     		ldr	r3, [r3, #24]
 1551 000e 0393     		str	r3, [sp, #12]
 1552              		.loc 7 256 0
 1553 0010 039B     		ldr	r3, [sp, #12]
 1554 0012 9DF80720 		ldrb	r2, [sp, #7]
 1555 0016 83F82020 		strb	r2, [r3, #32]
 1556              		.loc 7 262 0
 1557 001a 1148     		ldr	r0, .L30
 1558 001c FFF7FEFF 		bl	queue_fifo_remove
 1559 0020 0246     		mov	r2, r0
 1560 0022 0F4B     		ldr	r3, .L30
 1561 0024 9A61     		str	r2, [r3, #24]
 1562              		.loc 7 268 0
 1563 0026 0E4B     		ldr	r3, .L30
 1564 0028 9B69     		ldr	r3, [r3, #24]
 1565 002a 0122     		movs	r2, #1
 1566 002c 83F82020 		strb	r2, [r3, #32]
 1567              	.LBB23:
 1568              	.LBB24:
 1569              	.LBB25:
 1570              		.loc 2 430 0
 1571              	@ 430 "../ChibiOS/os/ext/CMSIS/include/core_cmFunc.h" 1
ARM GAS  /tmp/ccOzWYNS.s 			page 91


 1572 0030 EFF30983 		MRS r3, psp
 1573              	
 1574              	@ 0 "" 2
 1575              		.thumb
 1576 0034 1C46     		mov	r4, r3
 1577              		.loc 2 431 0
 1578 0036 2346     		mov	r3, r4
 1579              	.LBE25:
 1580              	.LBE24:
 1581              		.loc 7 269 0
 1582 0038 0293     		str	r3, [sp, #8]
 1583 003a 029B     		ldr	r3, [sp, #8]
 1584 003c A3F12402 		sub	r2, r3, #36
 1585 0040 039B     		ldr	r3, [sp, #12]
 1586 0042 DB69     		ldr	r3, [r3, #28]
 1587 0044 9A42     		cmp	r2, r3
 1588 0046 02D2     		bcs	.L29
 1589              		.loc 7 269 0 is_stmt 0 discriminator 1
 1590 0048 0648     		ldr	r0, .L30+4
 1591 004a FFF7FEFF 		bl	chSysHalt
 1592              	.L29:
 1593              		.loc 7 269 0 discriminator 2
 1594 004e 044B     		ldr	r3, .L30
 1595 0050 9B69     		ldr	r3, [r3, #24]
 1596 0052 1846     		mov	r0, r3
 1597 0054 0399     		ldr	r1, [sp, #12]
 1598 0056 FFF7FEFF 		bl	_port_switch
 1599              	.LBE23:
 1600              		.loc 7 270 0 is_stmt 1 discriminator 2
 1601 005a 04B0     		add	sp, sp, #16
 1602              		@ sp needed
 1603 005c 10BD     		pop	{r4, pc}
 1604              	.L31:
 1605 005e 00BF     		.align	2
 1606              	.L30:
 1607 0060 00000000 		.word	ch
 1608 0064 00000000 		.word	.LC0
 1609              		.cfi_endproc
 1610              	.LFE243:
 1611              		.size	chSchGoSleepS, .-chSchGoSleepS
 1612 0068 AFF30080 		.section	.text.wakeup,"ax",%progbits
 1612      AFF30080 
 1613              		.align	2
 1614              		.p2align 4,,15
 1615              		.thumb
 1616              		.thumb_func
 1617              		.type	wakeup, %function
 1618              	wakeup:
 1619              	.LFB244:
 1620              		.loc 7 275 0
 1621              		.cfi_startproc
 1622              		@ args = 0, pretend = 0, frame = 16
 1623              		@ frame_needed = 0, uses_anonymous_args = 0
 1624 0000 00B5     		push	{lr}
 1625              		.cfi_def_cfa_offset 4
 1626              		.cfi_offset 14, -4
 1627 0002 85B0     		sub	sp, sp, #20
ARM GAS  /tmp/ccOzWYNS.s 			page 92


 1628              		.cfi_def_cfa_offset 24
 1629 0004 0190     		str	r0, [sp, #4]
 1630              		.loc 7 276 0
 1631 0006 019B     		ldr	r3, [sp, #4]
 1632 0008 0393     		str	r3, [sp, #12]
 1633              		.loc 7 278 0
 1634 000a FFF7FEFF 		bl	chSysLockFromISR
 1635              		.loc 7 279 0
 1636 000e 039B     		ldr	r3, [sp, #12]
 1637 0010 93F82030 		ldrb	r3, [r3, #32]	@ zero_extendqisi2
 1638 0014 072B     		cmp	r3, #7
 1639 0016 24D8     		bhi	.L41
 1640 0018 01A2     		adr	r2, .L35
 1641 001a 52F823F0 		ldr	pc, [r2, r3, lsl #2]
 1642 001e 00BF     		.p2align 2
 1643              	.L35:
 1644 0020 41000000 		.word	.L34+1
 1645 0024 63000000 		.word	.L41+1
 1646 0028 63000000 		.word	.L41+1
 1647 002c 47000000 		.word	.L36+1
 1648 0030 5B000000 		.word	.L37+1
 1649 0034 51000000 		.word	.L38+1
 1650 0038 63000000 		.word	.L41+1
 1651 003c 5B000000 		.word	.L37+1
 1652              		.p2align 1
 1653              	.L34:
 1654              		.loc 7 283 0
 1655 0040 FFF7FEFF 		bl	chSysUnlockFromISR
 1656              		.loc 7 284 0
 1657 0044 17E0     		b	.L32
 1658              	.L36:
 1659              		.loc 7 286 0
 1660 0046 039B     		ldr	r3, [sp, #12]
 1661 0048 5B6A     		ldr	r3, [r3, #36]
 1662 004a 0022     		movs	r2, #0
 1663 004c 1A60     		str	r2, [r3]
 1664              		.loc 7 287 0
 1665 004e 09E0     		b	.L40
 1666              	.L38:
 1667              		.loc 7 290 0
 1668 0050 039B     		ldr	r3, [sp, #12]
 1669 0052 5B6A     		ldr	r3, [r3, #36]
 1670 0054 1846     		mov	r0, r3
 1671 0056 FFF7FEFF 		bl	chSemFastSignalI
 1672              	.L37:
 1673              		.loc 7 298 0
 1674 005a 0398     		ldr	r0, [sp, #12]
 1675 005c FFF7FEFF 		bl	queue_dequeue
 1676              		.loc 7 299 0
 1677 0060 00E0     		b	.L40
 1678              	.L41:
 1679              		.loc 7 302 0
 1680 0062 00BF     		nop
 1681              	.L40:
 1682              		.loc 7 304 0
 1683 0064 039B     		ldr	r3, [sp, #12]
 1684 0066 4FF0FF32 		mov	r2, #-1
ARM GAS  /tmp/ccOzWYNS.s 			page 93


 1685 006a 5A62     		str	r2, [r3, #36]
 1686              		.loc 7 305 0
 1687 006c 0398     		ldr	r0, [sp, #12]
 1688 006e FFF7FEFF 		bl	chSchReadyI
 1689              		.loc 7 306 0
 1690 0072 FFF7FEFF 		bl	chSysUnlockFromISR
 1691              	.L32:
 1692              		.loc 7 307 0
 1693 0076 05B0     		add	sp, sp, #20
 1694              		@ sp needed
 1695 0078 5DF804FB 		ldr	pc, [sp], #4
 1696              		.cfi_endproc
 1697              	.LFE244:
 1698              		.size	wakeup, .-wakeup
 1699 007c AFF30080 		.section	.text.chSchGoSleepTimeoutS,"ax",%progbits
 1700              		.align	2
 1701              		.p2align 4,,15
 1702              		.global	chSchGoSleepTimeoutS
 1703              		.thumb
 1704              		.thumb_func
 1705              		.type	chSchGoSleepTimeoutS, %function
 1706              	chSchGoSleepTimeoutS:
 1707              	.LFB245:
 1708              		.loc 7 330 0
 1709              		.cfi_startproc
 1710              		@ args = 0, pretend = 0, frame = 32
 1711              		@ frame_needed = 0, uses_anonymous_args = 0
 1712 0000 00B5     		push	{lr}
 1713              		.cfi_def_cfa_offset 4
 1714              		.cfi_offset 14, -4
 1715 0002 89B0     		sub	sp, sp, #36
 1716              		.cfi_def_cfa_offset 40
 1717 0004 0346     		mov	r3, r0
 1718 0006 0091     		str	r1, [sp]
 1719 0008 8DF80730 		strb	r3, [sp, #7]
 1720              		.loc 7 334 0
 1721 000c 009B     		ldr	r3, [sp]
 1722 000e B3F1FF3F 		cmp	r3, #-1
 1723 0012 19D0     		beq	.L43
 1724              	.LBB26:
 1725              		.loc 7 337 0
 1726 0014 124B     		ldr	r3, .L47
 1727 0016 9B69     		ldr	r3, [r3, #24]
 1728 0018 03AA     		add	r2, sp, #12
 1729 001a 1046     		mov	r0, r2
 1730 001c 0099     		ldr	r1, [sp]
 1731 001e 114A     		ldr	r2, .L47+4
 1732 0020 FFF7FEFF 		bl	chVTDoSetI
 1733              		.loc 7 338 0
 1734 0024 9DF80730 		ldrb	r3, [sp, #7]	@ zero_extendqisi2
 1735 0028 1846     		mov	r0, r3
 1736 002a FFF7FEFF 		bl	chSchGoSleepS
 1737              		.loc 7 339 0
 1738 002e 03AB     		add	r3, sp, #12
 1739 0030 1846     		mov	r0, r3
 1740 0032 FFF7FEFF 		bl	chVTIsArmedI
 1741 0036 0346     		mov	r3, r0
ARM GAS  /tmp/ccOzWYNS.s 			page 94


 1742 0038 002B     		cmp	r3, #0
 1743 003a 04D0     		beq	.L44
 1744              		.loc 7 340 0
 1745 003c 03AB     		add	r3, sp, #12
 1746 003e 1846     		mov	r0, r3
 1747 0040 FFF7FEFF 		bl	chVTDoResetI
 1748              	.LBE26:
 1749 0044 05E0     		b	.L45
 1750              	.L44:
 1751 0046 04E0     		b	.L45
 1752              	.L43:
 1753              		.loc 7 344 0
 1754 0048 9DF80730 		ldrb	r3, [sp, #7]	@ zero_extendqisi2
 1755 004c 1846     		mov	r0, r3
 1756 004e FFF7FEFF 		bl	chSchGoSleepS
 1757              	.L45:
 1758              		.loc 7 347 0
 1759 0052 034B     		ldr	r3, .L47
 1760 0054 9B69     		ldr	r3, [r3, #24]
 1761 0056 5B6A     		ldr	r3, [r3, #36]
 1762              		.loc 7 348 0
 1763 0058 1846     		mov	r0, r3
 1764 005a 09B0     		add	sp, sp, #36
 1765              		@ sp needed
 1766 005c 5DF804FB 		ldr	pc, [sp], #4
 1767              	.L48:
 1768              		.align	2
 1769              	.L47:
 1770 0060 00000000 		.word	ch
 1771 0064 00000000 		.word	wakeup
 1772              		.cfi_endproc
 1773              	.LFE245:
 1774              		.size	chSchGoSleepTimeoutS, .-chSchGoSleepTimeoutS
 1775 0068 AFF30080 		.section	.text.chSchWakeupS,"ax",%progbits
 1775      AFF30080 
 1776              		.align	2
 1777              		.p2align 4,,15
 1778              		.global	chSchWakeupS
 1779              		.thumb
 1780              		.thumb_func
 1781              		.type	chSchWakeupS, %function
 1782              	chSchWakeupS:
 1783              	.LFB246:
 1784              		.loc 7 367 0
 1785              		.cfi_startproc
 1786              		@ args = 0, pretend = 0, frame = 16
 1787              		@ frame_needed = 0, uses_anonymous_args = 0
 1788 0000 10B5     		push	{r4, lr}
 1789              		.cfi_def_cfa_offset 8
 1790              		.cfi_offset 4, -8
 1791              		.cfi_offset 14, -4
 1792 0002 84B0     		sub	sp, sp, #16
 1793              		.cfi_def_cfa_offset 24
 1794 0004 0190     		str	r0, [sp, #4]
 1795 0006 0091     		str	r1, [sp]
 1796              		.loc 7 377 0
 1797 0008 019B     		ldr	r3, [sp, #4]
ARM GAS  /tmp/ccOzWYNS.s 			page 95


 1798 000a 009A     		ldr	r2, [sp]
 1799 000c 5A62     		str	r2, [r3, #36]
 1800              		.loc 7 383 0
 1801 000e 019B     		ldr	r3, [sp, #4]
 1802 0010 9A68     		ldr	r2, [r3, #8]
 1803 0012 154B     		ldr	r3, .L54
 1804 0014 9B69     		ldr	r3, [r3, #24]
 1805 0016 9B68     		ldr	r3, [r3, #8]
 1806 0018 9A42     		cmp	r2, r3
 1807 001a 03D8     		bhi	.L50
 1808              		.loc 7 384 0
 1809 001c 0198     		ldr	r0, [sp, #4]
 1810 001e FFF7FEFF 		bl	chSchReadyI
 1811 0022 1FE0     		b	.L49
 1812              	.L50:
 1813              	.LBB27:
 1814              		.loc 7 387 0
 1815 0024 104B     		ldr	r3, .L54
 1816 0026 9B69     		ldr	r3, [r3, #24]
 1817 0028 1846     		mov	r0, r3
 1818 002a FFF7FEFF 		bl	chSchReadyI
 1819 002e 0390     		str	r0, [sp, #12]
 1820              		.loc 7 388 0
 1821 0030 0D4B     		ldr	r3, .L54
 1822 0032 019A     		ldr	r2, [sp, #4]
 1823 0034 9A61     		str	r2, [r3, #24]
 1824              		.loc 7 394 0
 1825 0036 019B     		ldr	r3, [sp, #4]
 1826 0038 0122     		movs	r2, #1
 1827 003a 83F82020 		strb	r2, [r3, #32]
 1828              	.LBB28:
 1829              	.LBB29:
 1830              	.LBB30:
 1831              		.loc 2 430 0
 1832              	@ 430 "../ChibiOS/os/ext/CMSIS/include/core_cmFunc.h" 1
 1833 003e EFF30983 		MRS r3, psp
 1834              	
 1835              	@ 0 "" 2
 1836              		.thumb
 1837 0042 1C46     		mov	r4, r3
 1838              		.loc 2 431 0
 1839 0044 2346     		mov	r3, r4
 1840              	.LBE30:
 1841              	.LBE29:
 1842              		.loc 7 395 0
 1843 0046 0293     		str	r3, [sp, #8]
 1844 0048 029B     		ldr	r3, [sp, #8]
 1845 004a A3F12402 		sub	r2, r3, #36
 1846 004e 039B     		ldr	r3, [sp, #12]
 1847 0050 DB69     		ldr	r3, [r3, #28]
 1848 0052 9A42     		cmp	r2, r3
 1849 0054 02D2     		bcs	.L53
 1850              		.loc 7 395 0 is_stmt 0 discriminator 1
 1851 0056 0548     		ldr	r0, .L54+4
 1852 0058 FFF7FEFF 		bl	chSysHalt
 1853              	.L53:
 1854              		.loc 7 395 0 discriminator 2
ARM GAS  /tmp/ccOzWYNS.s 			page 96


 1855 005c 0198     		ldr	r0, [sp, #4]
 1856 005e 0399     		ldr	r1, [sp, #12]
 1857 0060 FFF7FEFF 		bl	_port_switch
 1858              	.L49:
 1859              	.LBE28:
 1860              	.LBE27:
 1861              		.loc 7 397 0 is_stmt 1
 1862 0064 04B0     		add	sp, sp, #16
 1863              		@ sp needed
 1864 0066 10BD     		pop	{r4, pc}
 1865              	.L55:
 1866              		.align	2
 1867              	.L54:
 1868 0068 00000000 		.word	ch
 1869 006c 00000000 		.word	.LC0
 1870              		.cfi_endproc
 1871              	.LFE246:
 1872              		.size	chSchWakeupS, .-chSchWakeupS
 1873              		.section	.text.chSchRescheduleS,"ax",%progbits
 1874              		.align	2
 1875              		.p2align 4,,15
 1876              		.global	chSchRescheduleS
 1877              		.thumb
 1878              		.thumb_func
 1879              		.type	chSchRescheduleS, %function
 1880              	chSchRescheduleS:
 1881              	.LFB247:
 1882              		.loc 7 406 0
 1883              		.cfi_startproc
 1884              		@ args = 0, pretend = 0, frame = 0
 1885              		@ frame_needed = 0, uses_anonymous_args = 0
 1886 0000 08B5     		push	{r3, lr}
 1887              		.cfi_def_cfa_offset 8
 1888              		.cfi_offset 3, -8
 1889              		.cfi_offset 14, -4
 1890              		.loc 7 410 0
 1891 0002 FFF7FEFF 		bl	chSchIsRescRequiredI
 1892 0006 0346     		mov	r3, r0
 1893 0008 002B     		cmp	r3, #0
 1894 000a 01D0     		beq	.L56
 1895              		.loc 7 411 0
 1896 000c FFF7FEFF 		bl	chSchDoRescheduleAhead
 1897              	.L56:
 1898              		.loc 7 413 0
 1899 0010 08BD     		pop	{r3, pc}
 1900              		.cfi_endproc
 1901              	.LFE247:
 1902              		.size	chSchRescheduleS, .-chSchRescheduleS
 1903 0012 00BFAFF3 		.section	.text.chSchIsPreemptionRequired,"ax",%progbits
 1903      0080AFF3 
 1903      0080AFF3 
 1903      0080
 1904              		.align	2
 1905              		.p2align 4,,15
 1906              		.global	chSchIsPreemptionRequired
 1907              		.thumb
 1908              		.thumb_func
ARM GAS  /tmp/ccOzWYNS.s 			page 97


 1909              		.type	chSchIsPreemptionRequired, %function
 1910              	chSchIsPreemptionRequired:
 1911              	.LFB248:
 1912              		.loc 7 428 0
 1913              		.cfi_startproc
 1914              		@ args = 0, pretend = 0, frame = 8
 1915              		@ frame_needed = 0, uses_anonymous_args = 0
 1916              		@ link register save eliminated.
 1917 0000 82B0     		sub	sp, sp, #8
 1918              		.cfi_def_cfa_offset 8
 1919              		.loc 7 429 0
 1920 0002 094B     		ldr	r3, .L60
 1921 0004 1B68     		ldr	r3, [r3]
 1922 0006 9B68     		ldr	r3, [r3, #8]
 1923 0008 0193     		str	r3, [sp, #4]
 1924              		.loc 7 430 0
 1925 000a 074B     		ldr	r3, .L60
 1926 000c 9B69     		ldr	r3, [r3, #24]
 1927 000e 9B68     		ldr	r3, [r3, #8]
 1928 0010 0093     		str	r3, [sp]
 1929              		.loc 7 441 0
 1930 0012 019A     		ldr	r2, [sp, #4]
 1931 0014 009B     		ldr	r3, [sp]
 1932 0016 9A42     		cmp	r2, r3
 1933 0018 94BF     		ite	ls
 1934 001a 0023     		movls	r3, #0
 1935 001c 0123     		movhi	r3, #1
 1936 001e DBB2     		uxtb	r3, r3
 1937              		.loc 7 443 0
 1938 0020 1846     		mov	r0, r3
 1939 0022 02B0     		add	sp, sp, #8
 1940              		@ sp needed
 1941 0024 7047     		bx	lr
 1942              	.L61:
 1943 0026 00BF     		.align	2
 1944              	.L60:
 1945 0028 00000000 		.word	ch
 1946              		.cfi_endproc
 1947              	.LFE248:
 1948              		.size	chSchIsPreemptionRequired, .-chSchIsPreemptionRequired
 1949 002c AFF30080 		.section	.text.chSchDoRescheduleBehind,"ax",%progbits
 1950              		.align	2
 1951              		.p2align 4,,15
 1952              		.global	chSchDoRescheduleBehind
 1953              		.thumb
 1954              		.thumb_func
 1955              		.type	chSchDoRescheduleBehind, %function
 1956              	chSchDoRescheduleBehind:
 1957              	.LFB249:
 1958              		.loc 7 455 0
 1959              		.cfi_startproc
 1960              		@ args = 0, pretend = 0, frame = 8
 1961              		@ frame_needed = 0, uses_anonymous_args = 0
 1962 0000 10B5     		push	{r4, lr}
 1963              		.cfi_def_cfa_offset 8
 1964              		.cfi_offset 4, -8
 1965              		.cfi_offset 14, -4
ARM GAS  /tmp/ccOzWYNS.s 			page 98


 1966 0002 82B0     		sub	sp, sp, #8
 1967              		.cfi_def_cfa_offset 16
 1968              		.loc 7 458 0
 1969 0004 134B     		ldr	r3, .L65
 1970 0006 9B69     		ldr	r3, [r3, #24]
 1971 0008 0193     		str	r3, [sp, #4]
 1972              		.loc 7 460 0
 1973 000a 1248     		ldr	r0, .L65
 1974 000c FFF7FEFF 		bl	queue_fifo_remove
 1975 0010 0246     		mov	r2, r0
 1976 0012 104B     		ldr	r3, .L65
 1977 0014 9A61     		str	r2, [r3, #24]
 1978              		.loc 7 466 0
 1979 0016 0F4B     		ldr	r3, .L65
 1980 0018 9B69     		ldr	r3, [r3, #24]
 1981 001a 0122     		movs	r2, #1
 1982 001c 83F82020 		strb	r2, [r3, #32]
 1983              		.loc 7 470 0
 1984 0020 0198     		ldr	r0, [sp, #4]
 1985 0022 FFF7FEFF 		bl	chSchReadyI
 1986              	.LBB31:
 1987              	.LBB32:
 1988              	.LBB33:
 1989              		.loc 2 430 0
 1990              	@ 430 "../ChibiOS/os/ext/CMSIS/include/core_cmFunc.h" 1
 1991 0026 EFF30983 		MRS r3, psp
 1992              	
 1993              	@ 0 "" 2
 1994              		.thumb
 1995 002a 1C46     		mov	r4, r3
 1996              		.loc 2 431 0
 1997 002c 2346     		mov	r3, r4
 1998              	.LBE33:
 1999              	.LBE32:
 2000              		.loc 7 471 0
 2001 002e 0093     		str	r3, [sp]
 2002 0030 009B     		ldr	r3, [sp]
 2003 0032 A3F12402 		sub	r2, r3, #36
 2004 0036 019B     		ldr	r3, [sp, #4]
 2005 0038 DB69     		ldr	r3, [r3, #28]
 2006 003a 9A42     		cmp	r2, r3
 2007 003c 02D2     		bcs	.L64
 2008              		.loc 7 471 0 is_stmt 0 discriminator 1
 2009 003e 0648     		ldr	r0, .L65+4
 2010 0040 FFF7FEFF 		bl	chSysHalt
 2011              	.L64:
 2012              		.loc 7 471 0 discriminator 2
 2013 0044 034B     		ldr	r3, .L65
 2014 0046 9B69     		ldr	r3, [r3, #24]
 2015 0048 1846     		mov	r0, r3
 2016 004a 0199     		ldr	r1, [sp, #4]
 2017 004c FFF7FEFF 		bl	_port_switch
 2018              	.LBE31:
 2019              		.loc 7 472 0 is_stmt 1 discriminator 2
 2020 0050 02B0     		add	sp, sp, #8
 2021              		@ sp needed
 2022 0052 10BD     		pop	{r4, pc}
ARM GAS  /tmp/ccOzWYNS.s 			page 99


 2023              	.L66:
 2024              		.align	2
 2025              	.L65:
 2026 0054 00000000 		.word	ch
 2027 0058 00000000 		.word	.LC0
 2028              		.cfi_endproc
 2029              	.LFE249:
 2030              		.size	chSchDoRescheduleBehind, .-chSchDoRescheduleBehind
 2031 005c AFF30080 		.section	.text.chSchDoRescheduleAhead,"ax",%progbits
 2032              		.align	2
 2033              		.p2align 4,,15
 2034              		.global	chSchDoRescheduleAhead
 2035              		.thumb
 2036              		.thumb_func
 2037              		.type	chSchDoRescheduleAhead, %function
 2038              	chSchDoRescheduleAhead:
 2039              	.LFB250:
 2040              		.loc 7 483 0
 2041              		.cfi_startproc
 2042              		@ args = 0, pretend = 0, frame = 16
 2043              		@ frame_needed = 0, uses_anonymous_args = 0
 2044 0000 10B5     		push	{r4, lr}
 2045              		.cfi_def_cfa_offset 8
 2046              		.cfi_offset 4, -8
 2047              		.cfi_offset 14, -4
 2048 0002 84B0     		sub	sp, sp, #16
 2049              		.cfi_def_cfa_offset 24
 2050              		.loc 7 486 0
 2051 0004 204B     		ldr	r3, .L71
 2052 0006 9B69     		ldr	r3, [r3, #24]
 2053 0008 0293     		str	r3, [sp, #8]
 2054              		.loc 7 488 0
 2055 000a 1F48     		ldr	r0, .L71
 2056 000c FFF7FEFF 		bl	queue_fifo_remove
 2057 0010 0246     		mov	r2, r0
 2058 0012 1D4B     		ldr	r3, .L71
 2059 0014 9A61     		str	r2, [r3, #24]
 2060              		.loc 7 494 0
 2061 0016 1C4B     		ldr	r3, .L71
 2062 0018 9B69     		ldr	r3, [r3, #24]
 2063 001a 0122     		movs	r2, #1
 2064 001c 83F82020 		strb	r2, [r3, #32]
 2065              		.loc 7 496 0
 2066 0020 029B     		ldr	r3, [sp, #8]
 2067 0022 0022     		movs	r2, #0
 2068 0024 83F82020 		strb	r2, [r3, #32]
 2069              		.loc 7 497 0
 2070 0028 174B     		ldr	r3, .L71
 2071 002a 0393     		str	r3, [sp, #12]
 2072              	.L68:
 2073              		.loc 7 499 0 discriminator 1
 2074 002c 039B     		ldr	r3, [sp, #12]
 2075 002e 1B68     		ldr	r3, [r3]
 2076 0030 0393     		str	r3, [sp, #12]
 2077              		.loc 7 500 0 discriminator 1
 2078 0032 039B     		ldr	r3, [sp, #12]
 2079 0034 9A68     		ldr	r2, [r3, #8]
ARM GAS  /tmp/ccOzWYNS.s 			page 100


 2080 0036 029B     		ldr	r3, [sp, #8]
 2081 0038 9B68     		ldr	r3, [r3, #8]
 2082 003a 9A42     		cmp	r2, r3
 2083 003c F6D8     		bhi	.L68
 2084              		.loc 7 502 0
 2085 003e 029B     		ldr	r3, [sp, #8]
 2086 0040 039A     		ldr	r2, [sp, #12]
 2087 0042 1A60     		str	r2, [r3]
 2088              		.loc 7 503 0
 2089 0044 039B     		ldr	r3, [sp, #12]
 2090 0046 5A68     		ldr	r2, [r3, #4]
 2091 0048 029B     		ldr	r3, [sp, #8]
 2092 004a 5A60     		str	r2, [r3, #4]
 2093              		.loc 7 504 0
 2094 004c 029B     		ldr	r3, [sp, #8]
 2095 004e 5B68     		ldr	r3, [r3, #4]
 2096 0050 029A     		ldr	r2, [sp, #8]
 2097 0052 1A60     		str	r2, [r3]
 2098              		.loc 7 505 0
 2099 0054 039B     		ldr	r3, [sp, #12]
 2100 0056 029A     		ldr	r2, [sp, #8]
 2101 0058 5A60     		str	r2, [r3, #4]
 2102              	.LBB34:
 2103              	.LBB35:
 2104              	.LBB36:
 2105              		.loc 2 430 0
 2106              	@ 430 "../ChibiOS/os/ext/CMSIS/include/core_cmFunc.h" 1
 2107 005a EFF30983 		MRS r3, psp
 2108              	
 2109              	@ 0 "" 2
 2110              		.thumb
 2111 005e 1C46     		mov	r4, r3
 2112              		.loc 2 431 0
 2113 0060 2346     		mov	r3, r4
 2114              	.LBE36:
 2115              	.LBE35:
 2116              		.loc 7 507 0
 2117 0062 0193     		str	r3, [sp, #4]
 2118 0064 019B     		ldr	r3, [sp, #4]
 2119 0066 A3F12402 		sub	r2, r3, #36
 2120 006a 029B     		ldr	r3, [sp, #8]
 2121 006c DB69     		ldr	r3, [r3, #28]
 2122 006e 9A42     		cmp	r2, r3
 2123 0070 02D2     		bcs	.L70
 2124              		.loc 7 507 0 is_stmt 0 discriminator 1
 2125 0072 0648     		ldr	r0, .L71+4
 2126 0074 FFF7FEFF 		bl	chSysHalt
 2127              	.L70:
 2128              		.loc 7 507 0 discriminator 2
 2129 0078 034B     		ldr	r3, .L71
 2130 007a 9B69     		ldr	r3, [r3, #24]
 2131 007c 1846     		mov	r0, r3
 2132 007e 0299     		ldr	r1, [sp, #8]
 2133 0080 FFF7FEFF 		bl	_port_switch
 2134              	.LBE34:
 2135              		.loc 7 508 0 is_stmt 1 discriminator 2
 2136 0084 04B0     		add	sp, sp, #16
ARM GAS  /tmp/ccOzWYNS.s 			page 101


 2137              		@ sp needed
 2138 0086 10BD     		pop	{r4, pc}
 2139              	.L72:
 2140              		.align	2
 2141              	.L71:
 2142 0088 00000000 		.word	ch
 2143 008c 00000000 		.word	.LC0
 2144              		.cfi_endproc
 2145              	.LFE250:
 2146              		.size	chSchDoRescheduleAhead, .-chSchDoRescheduleAhead
 2147              		.section	.text.chSchDoReschedule,"ax",%progbits
 2148              		.align	2
 2149              		.p2align 4,,15
 2150              		.global	chSchDoReschedule
 2151              		.thumb
 2152              		.thumb_func
 2153              		.type	chSchDoReschedule, %function
 2154              	chSchDoReschedule:
 2155              	.LFB251:
 2156              		.loc 7 520 0
 2157              		.cfi_startproc
 2158              		@ args = 0, pretend = 0, frame = 0
 2159              		@ frame_needed = 0, uses_anonymous_args = 0
 2160 0000 08B5     		push	{r3, lr}
 2161              		.cfi_def_cfa_offset 8
 2162              		.cfi_offset 3, -8
 2163              		.cfi_offset 14, -4
 2164              		.loc 7 538 0
 2165 0002 FFF7FEFF 		bl	chSchDoRescheduleAhead
 2166              		.loc 7 540 0
 2167 0006 08BD     		pop	{r3, pc}
 2168              		.cfi_endproc
 2169              	.LFE251:
 2170              		.size	chSchDoReschedule, .-chSchDoReschedule
 2171              		.text
 2172              	.Letext0:
 2173              		.file 8 "/nfs/nfs5/home/research/hardware/arm2/gcc-arm-embedded/gcc-arm-none-eabi-4_8-2014q2/lib/g
 2174              		.file 9 "/nfs/nfs5/home/research/hardware/arm2/gcc-arm-embedded/gcc-arm-none-eabi-4_8-2014q2/arm-n
 2175              		.file 10 "/nfs/nfs5/home/research/hardware/arm2/gcc-arm-embedded/gcc-arm-none-eabi-4_8-2014q2/arm-
 2176              		.file 11 "../ChibiOS/os/rt/ports/ARMCMx/compilers/GCC/chtypes.h"
 2177              		.file 12 "../ChibiOS/os/rt/include/chsystypes.h"
 2178              		.file 13 "../ChibiOS/os/rt/ports/ARMCMx/chcore.h"
 2179              		.file 14 "../ChibiOS/os/rt/include/chtm.h"
 2180              		.file 15 "../ChibiOS/os/rt/include/chmtx.h"
 2181              		.file 16 "../ChibiOS/os/ext/CMSIS/include/core_cm4.h"
 2182              		.section	.debug_info,"",%progbits
 2183              	.Ldebug_info0:
 2184 0000 5D0B0000 		.4byte	0xb5d
 2185 0004 0400     		.2byte	0x4
 2186 0006 00000000 		.4byte	.Ldebug_abbrev0
 2187 000a 04       		.byte	0x4
 2188 000b 01       		.uleb128 0x1
 2189 000c F7010000 		.4byte	.LASF132
 2190 0010 01       		.byte	0x1
 2191 0011 00050000 		.4byte	.LASF133
 2192 0015 95050000 		.4byte	.LASF134
 2193 0019 00000000 		.4byte	.Ldebug_ranges0+0
ARM GAS  /tmp/ccOzWYNS.s 			page 102


 2194 001d 00000000 		.4byte	0
 2195 0021 00000000 		.4byte	.Ldebug_line0
 2196 0025 02       		.uleb128 0x2
 2197 0026 04       		.byte	0x4
 2198 0027 05       		.byte	0x5
 2199 0028 696E7400 		.ascii	"int\000"
 2200 002c 03       		.uleb128 0x3
 2201 002d 0D000000 		.4byte	.LASF2
 2202 0031 08       		.byte	0x8
 2203 0032 D4       		.byte	0xd4
 2204 0033 37000000 		.4byte	0x37
 2205 0037 04       		.uleb128 0x4
 2206 0038 04       		.byte	0x4
 2207 0039 07       		.byte	0x7
 2208 003a D7020000 		.4byte	.LASF0
 2209 003e 04       		.uleb128 0x4
 2210 003f 01       		.byte	0x1
 2211 0040 06       		.byte	0x6
 2212 0041 01010000 		.4byte	.LASF1
 2213 0045 03       		.uleb128 0x3
 2214 0046 3B000000 		.4byte	.LASF3
 2215 004a 09       		.byte	0x9
 2216 004b 1C       		.byte	0x1c
 2217 004c 50000000 		.4byte	0x50
 2218 0050 04       		.uleb128 0x4
 2219 0051 01       		.byte	0x1
 2220 0052 08       		.byte	0x8
 2221 0053 9B040000 		.4byte	.LASF4
 2222 0057 04       		.uleb128 0x4
 2223 0058 02       		.byte	0x2
 2224 0059 05       		.byte	0x5
 2225 005a B2040000 		.4byte	.LASF5
 2226 005e 04       		.uleb128 0x4
 2227 005f 02       		.byte	0x2
 2228 0060 07       		.byte	0x7
 2229 0061 29030000 		.4byte	.LASF6
 2230 0065 03       		.uleb128 0x3
 2231 0066 F7050000 		.4byte	.LASF7
 2232 006a 09       		.byte	0x9
 2233 006b 37       		.byte	0x37
 2234 006c 70000000 		.4byte	0x70
 2235 0070 04       		.uleb128 0x4
 2236 0071 04       		.byte	0x4
 2237 0072 05       		.byte	0x5
 2238 0073 40010000 		.4byte	.LASF8
 2239 0077 03       		.uleb128 0x3
 2240 0078 4F060000 		.4byte	.LASF9
 2241 007c 09       		.byte	0x9
 2242 007d 38       		.byte	0x38
 2243 007e 82000000 		.4byte	0x82
 2244 0082 04       		.uleb128 0x4
 2245 0083 04       		.byte	0x4
 2246 0084 07       		.byte	0x7
 2247 0085 E0050000 		.4byte	.LASF10
 2248 0089 04       		.uleb128 0x4
 2249 008a 08       		.byte	0x8
 2250 008b 05       		.byte	0x5
ARM GAS  /tmp/ccOzWYNS.s 			page 103


 2251 008c F3000000 		.4byte	.LASF11
 2252 0090 03       		.uleb128 0x3
 2253 0091 38040000 		.4byte	.LASF12
 2254 0095 09       		.byte	0x9
 2255 0096 4E       		.byte	0x4e
 2256 0097 9B000000 		.4byte	0x9b
 2257 009b 04       		.uleb128 0x4
 2258 009c 08       		.byte	0x8
 2259 009d 07       		.byte	0x7
 2260 009e 75000000 		.4byte	.LASF13
 2261 00a2 03       		.uleb128 0x3
 2262 00a3 D3060000 		.4byte	.LASF14
 2263 00a7 0A       		.byte	0xa
 2264 00a8 2A       		.byte	0x2a
 2265 00a9 45000000 		.4byte	0x45
 2266 00ad 03       		.uleb128 0x3
 2267 00ae 93040000 		.4byte	.LASF15
 2268 00b2 0A       		.byte	0xa
 2269 00b3 41       		.byte	0x41
 2270 00b4 65000000 		.4byte	0x65
 2271 00b8 03       		.uleb128 0x3
 2272 00b9 61050000 		.4byte	.LASF16
 2273 00bd 0A       		.byte	0xa
 2274 00be 42       		.byte	0x42
 2275 00bf 77000000 		.4byte	0x77
 2276 00c3 03       		.uleb128 0x3
 2277 00c4 1B000000 		.4byte	.LASF17
 2278 00c8 0A       		.byte	0xa
 2279 00c9 4E       		.byte	0x4e
 2280 00ca 90000000 		.4byte	0x90
 2281 00ce 03       		.uleb128 0x3
 2282 00cf 81060000 		.4byte	.LASF18
 2283 00d3 0B       		.byte	0xb
 2284 00d4 39       		.byte	0x39
 2285 00d5 B8000000 		.4byte	0xb8
 2286 00d9 03       		.uleb128 0x3
 2287 00da E3040000 		.4byte	.LASF19
 2288 00de 0B       		.byte	0xb
 2289 00df 3C       		.byte	0x3c
 2290 00e0 A2000000 		.4byte	0xa2
 2291 00e4 03       		.uleb128 0x3
 2292 00e5 57010000 		.4byte	.LASF20
 2293 00e9 0B       		.byte	0xb
 2294 00ea 3D       		.byte	0x3d
 2295 00eb A2000000 		.4byte	0xa2
 2296 00ef 03       		.uleb128 0x3
 2297 00f0 43040000 		.4byte	.LASF21
 2298 00f4 0B       		.byte	0xb
 2299 00f5 3E       		.byte	0x3e
 2300 00f6 A2000000 		.4byte	0xa2
 2301 00fa 03       		.uleb128 0x3
 2302 00fb 62040000 		.4byte	.LASF22
 2303 00ff 0B       		.byte	0xb
 2304 0100 40       		.byte	0x40
 2305 0101 B8000000 		.4byte	0xb8
 2306 0105 03       		.uleb128 0x3
 2307 0106 53030000 		.4byte	.LASF23
ARM GAS  /tmp/ccOzWYNS.s 			page 104


 2308 010a 0B       		.byte	0xb
 2309 010b 41       		.byte	0x41
 2310 010c AD000000 		.4byte	0xad
 2311 0110 03       		.uleb128 0x3
 2312 0111 76030000 		.4byte	.LASF24
 2313 0115 0B       		.byte	0xb
 2314 0116 43       		.byte	0x43
 2315 0117 B8000000 		.4byte	0xb8
 2316 011b 03       		.uleb128 0x3
 2317 011c F1010000 		.4byte	.LASF25
 2318 0120 0B       		.byte	0xb
 2319 0121 45       		.byte	0x45
 2320 0122 AD000000 		.4byte	0xad
 2321 0126 03       		.uleb128 0x3
 2322 0127 31060000 		.4byte	.LASF26
 2323 012b 0C       		.byte	0xc
 2324 012c 33       		.byte	0x33
 2325 012d B8000000 		.4byte	0xb8
 2326 0131 03       		.uleb128 0x3
 2327 0132 16060000 		.4byte	.LASF27
 2328 0136 0C       		.byte	0xc
 2329 0137 3F       		.byte	0x3f
 2330 0138 3C010000 		.4byte	0x13c
 2331 013c 05       		.uleb128 0x5
 2332 013d 3C030000 		.4byte	.LASF47
 2333 0141 44       		.byte	0x44
 2334 0142 03       		.byte	0x3
 2335 0143 C2       		.byte	0xc2
 2336 0144 28020000 		.4byte	0x228
 2337 0148 06       		.uleb128 0x6
 2338 0149 DC040000 		.4byte	.LASF28
 2339 014d 03       		.byte	0x3
 2340 014e C3       		.byte	0xc3
 2341 014f 33020000 		.4byte	0x233
 2342 0153 00       		.byte	0
 2343 0154 06       		.uleb128 0x6
 2344 0155 5B040000 		.4byte	.LASF29
 2345 0159 03       		.byte	0x3
 2346 015a C5       		.byte	0xc5
 2347 015b 33020000 		.4byte	0x233
 2348 015f 04       		.byte	0x4
 2349 0160 06       		.uleb128 0x6
 2350 0161 DC000000 		.4byte	.LASF30
 2351 0165 03       		.byte	0x3
 2352 0166 C7       		.byte	0xc7
 2353 0167 FA000000 		.4byte	0xfa
 2354 016b 08       		.byte	0x8
 2355 016c 06       		.uleb128 0x6
 2356 016d 47070000 		.4byte	.LASF31
 2357 0171 03       		.byte	0x3
 2358 0172 C8       		.byte	0xc8
 2359 0173 63040000 		.4byte	0x463
 2360 0177 0C       		.byte	0xc
 2361 0178 06       		.uleb128 0x6
 2362 0179 7A010000 		.4byte	.LASF32
 2363 017d 03       		.byte	0x3
 2364 017e CA       		.byte	0xca
ARM GAS  /tmp/ccOzWYNS.s 			page 105


 2365 017f 33020000 		.4byte	0x233
 2366 0183 10       		.byte	0x10
 2367 0184 06       		.uleb128 0x6
 2368 0185 F7030000 		.4byte	.LASF33
 2369 0189 03       		.byte	0x3
 2370 018a CB       		.byte	0xcb
 2371 018b 33020000 		.4byte	0x233
 2372 018f 14       		.byte	0x14
 2373 0190 06       		.uleb128 0x6
 2374 0191 F8060000 		.4byte	.LASF34
 2375 0195 03       		.byte	0x3
 2376 0196 D2       		.byte	0xd2
 2377 0197 EE050000 		.4byte	0x5ee
 2378 019b 18       		.byte	0x18
 2379 019c 06       		.uleb128 0x6
 2380 019d 16040000 		.4byte	.LASF35
 2381 01a1 03       		.byte	0x3
 2382 01a2 D8       		.byte	0xd8
 2383 01a3 00060000 		.4byte	0x600
 2384 01a7 1C       		.byte	0x1c
 2385 01a8 06       		.uleb128 0x6
 2386 01a9 BC040000 		.4byte	.LASF36
 2387 01ad 03       		.byte	0x3
 2388 01ae DD       		.byte	0xdd
 2389 01af E4000000 		.4byte	0xe4
 2390 01b3 20       		.byte	0x20
 2391 01b4 06       		.uleb128 0x6
 2392 01b5 EB040000 		.4byte	.LASF37
 2393 01b9 03       		.byte	0x3
 2394 01ba E1       		.byte	0xe1
 2395 01bb D9000000 		.4byte	0xd9
 2396 01bf 21       		.byte	0x21
 2397 01c0 06       		.uleb128 0x6
 2398 01c1 C6060000 		.4byte	.LASF38
 2399 01c5 03       		.byte	0x3
 2400 01c6 E6       		.byte	0xe6
 2401 01c7 EF000000 		.4byte	0xef
 2402 01cb 22       		.byte	0x22
 2403 01cc 07       		.uleb128 0x7
 2404 01cd 705F7500 		.ascii	"p_u\000"
 2405 01d1 03       		.byte	0x3
 2406 01d2 3701     		.2byte	0x137
 2407 01d4 1D050000 		.4byte	0x51d
 2408 01d8 24       		.byte	0x24
 2409 01d9 08       		.uleb128 0x8
 2410 01da 94030000 		.4byte	.LASF39
 2411 01de 03       		.byte	0x3
 2412 01df 3C01     		.2byte	0x13c
 2413 01e1 39020000 		.4byte	0x239
 2414 01e5 28       		.byte	0x28
 2415 01e6 08       		.uleb128 0x8
 2416 01e7 0A030000 		.4byte	.LASF40
 2417 01eb 03       		.byte	0x3
 2418 01ec 4201     		.2byte	0x142
 2419 01ee 5D020000 		.4byte	0x25d
 2420 01f2 2C       		.byte	0x2c
 2421 01f3 08       		.uleb128 0x8
ARM GAS  /tmp/ccOzWYNS.s 			page 106


 2422 01f4 56050000 		.4byte	.LASF41
 2423 01f8 03       		.byte	0x3
 2424 01f9 4801     		.2byte	0x148
 2425 01fb 10010000 		.4byte	0x110
 2426 01ff 34       		.byte	0x34
 2427 0200 08       		.uleb128 0x8
 2428 0201 6C030000 		.4byte	.LASF42
 2429 0205 03       		.byte	0x3
 2430 0206 4F01     		.2byte	0x14f
 2431 0208 E8050000 		.4byte	0x5e8
 2432 020c 38       		.byte	0x38
 2433 020d 08       		.uleb128 0x8
 2434 020e 3B060000 		.4byte	.LASF43
 2435 0212 03       		.byte	0x3
 2436 0213 5301     		.2byte	0x153
 2437 0215 FA000000 		.4byte	0xfa
 2438 0219 3C       		.byte	0x3c
 2439 021a 08       		.uleb128 0x8
 2440 021b 0D010000 		.4byte	.LASF44
 2441 021f 03       		.byte	0x3
 2442 0220 5A01     		.2byte	0x15a
 2443 0222 10030000 		.4byte	0x310
 2444 0226 40       		.byte	0x40
 2445 0227 00       		.byte	0
 2446 0228 03       		.uleb128 0x3
 2447 0229 A7030000 		.4byte	.LASF45
 2448 022d 0C       		.byte	0xc
 2449 022e 44       		.byte	0x44
 2450 022f 33020000 		.4byte	0x233
 2451 0233 09       		.uleb128 0x9
 2452 0234 04       		.byte	0x4
 2453 0235 31010000 		.4byte	0x131
 2454 0239 03       		.uleb128 0x3
 2455 023a FF060000 		.4byte	.LASF46
 2456 023e 0C       		.byte	0xc
 2457 023f 49       		.byte	0x49
 2458 0240 44020000 		.4byte	0x244
 2459 0244 05       		.uleb128 0x5
 2460 0245 85050000 		.4byte	.LASF48
 2461 0249 04       		.byte	0x4
 2462 024a 03       		.byte	0x3
 2463 024b B0       		.byte	0xb0
 2464 024c 5D020000 		.4byte	0x25d
 2465 0250 06       		.uleb128 0x6
 2466 0251 DC040000 		.4byte	.LASF28
 2467 0255 03       		.byte	0x3
 2468 0256 B1       		.byte	0xb1
 2469 0257 33020000 		.4byte	0x233
 2470 025b 00       		.byte	0
 2471 025c 00       		.byte	0
 2472 025d 03       		.uleb128 0x3
 2473 025e AD060000 		.4byte	.LASF49
 2474 0262 0C       		.byte	0xc
 2475 0263 50       		.byte	0x50
 2476 0264 68020000 		.4byte	0x268
 2477 0268 05       		.uleb128 0x5
 2478 0269 CB000000 		.4byte	.LASF50
ARM GAS  /tmp/ccOzWYNS.s 			page 107


 2479 026d 08       		.byte	0x8
 2480 026e 03       		.byte	0x3
 2481 026f B7       		.byte	0xb7
 2482 0270 8D020000 		.4byte	0x28d
 2483 0274 06       		.uleb128 0x6
 2484 0275 DC040000 		.4byte	.LASF28
 2485 0279 03       		.byte	0x3
 2486 027a B8       		.byte	0xb8
 2487 027b 33020000 		.4byte	0x233
 2488 027f 00       		.byte	0
 2489 0280 06       		.uleb128 0x6
 2490 0281 5B040000 		.4byte	.LASF29
 2491 0285 03       		.byte	0x3
 2492 0286 B9       		.byte	0xb9
 2493 0287 33020000 		.4byte	0x233
 2494 028b 04       		.byte	0x4
 2495 028c 00       		.byte	0
 2496 028d 03       		.uleb128 0x3
 2497 028e 00000000 		.4byte	.LASF51
 2498 0292 0C       		.byte	0xc
 2499 0293 57       		.byte	0x57
 2500 0294 98020000 		.4byte	0x298
 2501 0298 0A       		.uleb128 0xa
 2502 0299 15030000 		.4byte	.LASF52
 2503 029d 1C       		.byte	0x1c
 2504 029e 03       		.byte	0x3
 2505 029f 9201     		.2byte	0x192
 2506 02a1 F4020000 		.4byte	0x2f4
 2507 02a5 08       		.uleb128 0x8
 2508 02a6 71050000 		.4byte	.LASF53
 2509 02aa 03       		.byte	0x3
 2510 02ab 9301     		.2byte	0x193
 2511 02ad 5D020000 		.4byte	0x25d
 2512 02b1 00       		.byte	0
 2513 02b2 08       		.uleb128 0x8
 2514 02b3 8D030000 		.4byte	.LASF54
 2515 02b7 03       		.byte	0x3
 2516 02b8 9401     		.2byte	0x194
 2517 02ba FA000000 		.4byte	0xfa
 2518 02be 08       		.byte	0x8
 2519 02bf 08       		.uleb128 0x8
 2520 02c0 FF030000 		.4byte	.LASF55
 2521 02c4 03       		.byte	0x3
 2522 02c5 9601     		.2byte	0x196
 2523 02c7 63040000 		.4byte	0x463
 2524 02cb 0C       		.byte	0xc
 2525 02cc 08       		.uleb128 0x8
 2526 02cd A9010000 		.4byte	.LASF56
 2527 02d1 03       		.byte	0x3
 2528 02d2 9901     		.2byte	0x199
 2529 02d4 33020000 		.4byte	0x233
 2530 02d8 10       		.byte	0x10
 2531 02d9 08       		.uleb128 0x8
 2532 02da 30040000 		.4byte	.LASF57
 2533 02de 03       		.byte	0x3
 2534 02df 9A01     		.2byte	0x19a
 2535 02e1 33020000 		.4byte	0x233
ARM GAS  /tmp/ccOzWYNS.s 			page 108


 2536 02e5 14       		.byte	0x14
 2537 02e6 08       		.uleb128 0x8
 2538 02e7 26040000 		.4byte	.LASF58
 2539 02eb 03       		.byte	0x3
 2540 02ec 9D01     		.2byte	0x19d
 2541 02ee 33020000 		.4byte	0x233
 2542 02f2 18       		.byte	0x18
 2543 02f3 00       		.byte	0
 2544 02f4 03       		.uleb128 0x3
 2545 02f5 46060000 		.4byte	.LASF59
 2546 02f9 0C       		.byte	0xc
 2547 02fa 5C       		.byte	0x5c
 2548 02fb FF020000 		.4byte	0x2ff
 2549 02ff 09       		.uleb128 0x9
 2550 0300 04       		.byte	0x4
 2551 0301 05030000 		.4byte	0x305
 2552 0305 0B       		.uleb128 0xb
 2553 0306 10030000 		.4byte	0x310
 2554 030a 0C       		.uleb128 0xc
 2555 030b 10030000 		.4byte	0x310
 2556 030f 00       		.byte	0
 2557 0310 0D       		.uleb128 0xd
 2558 0311 04       		.byte	0x4
 2559 0312 03       		.uleb128 0x3
 2560 0313 4B040000 		.4byte	.LASF60
 2561 0317 0C       		.byte	0xc
 2562 0318 61       		.byte	0x61
 2563 0319 1D030000 		.4byte	0x31d
 2564 031d 0A       		.uleb128 0xa
 2565 031e 2A050000 		.4byte	.LASF61
 2566 0322 14       		.byte	0x14
 2567 0323 03       		.byte	0x3
 2568 0324 6D01     		.2byte	0x16d
 2569 0326 6C030000 		.4byte	0x36c
 2570 032a 08       		.uleb128 0x8
 2571 032b EB020000 		.4byte	.LASF62
 2572 032f 03       		.byte	0x3
 2573 0330 6E01     		.2byte	0x16e
 2574 0332 06060000 		.4byte	0x606
 2575 0336 00       		.byte	0
 2576 0337 08       		.uleb128 0x8
 2577 0338 CC010000 		.4byte	.LASF63
 2578 033c 03       		.byte	0x3
 2579 033d 6F01     		.2byte	0x16f
 2580 033f 06060000 		.4byte	0x606
 2581 0343 04       		.byte	0x4
 2582 0344 08       		.uleb128 0x8
 2583 0345 01030000 		.4byte	.LASF64
 2584 0349 03       		.byte	0x3
 2585 034a 7001     		.2byte	0x170
 2586 034c 26010000 		.4byte	0x126
 2587 0350 08       		.byte	0x8
 2588 0351 08       		.uleb128 0x8
 2589 0352 4D070000 		.4byte	.LASF65
 2590 0356 03       		.byte	0x3
 2591 0357 7101     		.2byte	0x171
 2592 0359 F4020000 		.4byte	0x2f4
ARM GAS  /tmp/ccOzWYNS.s 			page 109


 2593 035d 0C       		.byte	0xc
 2594 035e 08       		.uleb128 0x8
 2595 035f A6060000 		.4byte	.LASF66
 2596 0363 03       		.byte	0x3
 2597 0364 7301     		.2byte	0x173
 2598 0366 10030000 		.4byte	0x310
 2599 036a 10       		.byte	0x10
 2600 036b 00       		.byte	0
 2601 036c 03       		.uleb128 0x3
 2602 036d A8000000 		.4byte	.LASF67
 2603 0371 0C       		.byte	0xc
 2604 0372 66       		.byte	0x66
 2605 0373 77030000 		.4byte	0x377
 2606 0377 0A       		.uleb128 0xa
 2607 0378 BA030000 		.4byte	.LASF68
 2608 037c 10       		.byte	0x10
 2609 037d 03       		.byte	0x3
 2610 037e 7D01     		.2byte	0x17d
 2611 0380 B9030000 		.4byte	0x3b9
 2612 0384 08       		.uleb128 0x8
 2613 0385 EB020000 		.4byte	.LASF62
 2614 0389 03       		.byte	0x3
 2615 038a 7E01     		.2byte	0x17e
 2616 038c 06060000 		.4byte	0x606
 2617 0390 00       		.byte	0
 2618 0391 08       		.uleb128 0x8
 2619 0392 CC010000 		.4byte	.LASF63
 2620 0396 03       		.byte	0x3
 2621 0397 8001     		.2byte	0x180
 2622 0399 06060000 		.4byte	0x606
 2623 039d 04       		.byte	0x4
 2624 039e 08       		.uleb128 0x8
 2625 039f 01030000 		.4byte	.LASF64
 2626 03a3 03       		.byte	0x3
 2627 03a4 8201     		.2byte	0x182
 2628 03a6 26010000 		.4byte	0x126
 2629 03aa 08       		.byte	0x8
 2630 03ab 08       		.uleb128 0x8
 2631 03ac DB060000 		.4byte	.LASF69
 2632 03b0 03       		.byte	0x3
 2633 03b1 8A01     		.2byte	0x18a
 2634 03b3 26010000 		.4byte	0x126
 2635 03b7 0C       		.byte	0xc
 2636 03b8 00       		.byte	0
 2637 03b9 03       		.uleb128 0x3
 2638 03ba 51000000 		.4byte	.LASF70
 2639 03be 0C       		.byte	0xc
 2640 03bf 6B       		.byte	0x6b
 2641 03c0 C4030000 		.4byte	0x3c4
 2642 03c4 0A       		.uleb128 0xa
 2643 03c5 7D040000 		.4byte	.LASF71
 2644 03c9 04       		.byte	0x4
 2645 03ca 03       		.byte	0x3
 2646 03cb A401     		.2byte	0x1a4
 2647 03cd DF030000 		.4byte	0x3df
 2648 03d1 08       		.uleb128 0x8
 2649 03d2 68060000 		.4byte	.LASF72
ARM GAS  /tmp/ccOzWYNS.s 			page 110


 2650 03d6 03       		.byte	0x3
 2651 03d7 AC01     		.2byte	0x1ac
 2652 03d9 0C060000 		.4byte	0x60c
 2653 03dd 00       		.byte	0
 2654 03de 00       		.byte	0
 2655 03df 03       		.uleb128 0x3
 2656 03e0 59030000 		.4byte	.LASF73
 2657 03e4 0C       		.byte	0xc
 2658 03e5 70       		.byte	0x70
 2659 03e6 EA030000 		.4byte	0x3ea
 2660 03ea 0E       		.uleb128 0xe
 2661 03eb 36010000 		.4byte	.LASF74
 2662 03ef 5001     		.2byte	0x150
 2663 03f1 03       		.byte	0x3
 2664 03f2 C401     		.2byte	0x1c4
 2665 03f4 46040000 		.4byte	0x446
 2666 03f8 08       		.uleb128 0x8
 2667 03f9 CD060000 		.4byte	.LASF75
 2668 03fd 03       		.byte	0x3
 2669 03fe C801     		.2byte	0x1c8
 2670 0400 8D020000 		.4byte	0x28d
 2671 0404 00       		.byte	0
 2672 0405 08       		.uleb128 0x8
 2673 0406 1D010000 		.4byte	.LASF76
 2674 040a 03       		.byte	0x3
 2675 040b CC01     		.2byte	0x1cc
 2676 040d 6C030000 		.4byte	0x36c
 2677 0411 1C       		.byte	0x1c
 2678 0412 07       		.uleb128 0x7
 2679 0413 64626700 		.ascii	"dbg\000"
 2680 0417 03       		.byte	0x3
 2681 0418 D001     		.2byte	0x1d0
 2682 041a B9030000 		.4byte	0x3b9
 2683 041e 2C       		.byte	0x2c
 2684 041f 08       		.uleb128 0x8
 2685 0420 95000000 		.4byte	.LASF77
 2686 0424 03       		.byte	0x3
 2687 0425 D401     		.2byte	0x1d4
 2688 0427 31010000 		.4byte	0x131
 2689 042b 30       		.byte	0x30
 2690 042c 07       		.uleb128 0x7
 2691 042d 746D00   		.ascii	"tm\000"
 2692 0430 03       		.byte	0x3
 2693 0431 D901     		.2byte	0x1d9
 2694 0433 12050000 		.4byte	0x512
 2695 0437 74       		.byte	0x74
 2696 0438 08       		.uleb128 0x8
 2697 0439 E2010000 		.4byte	.LASF78
 2698 043d 03       		.byte	0x3
 2699 043e E501     		.2byte	0x1e5
 2700 0440 11060000 		.4byte	0x611
 2701 0444 78       		.byte	0x78
 2702 0445 00       		.byte	0
 2703 0446 04       		.uleb128 0x4
 2704 0447 04       		.byte	0x4
 2705 0448 07       		.byte	0x7
 2706 0449 9E030000 		.4byte	.LASF79
ARM GAS  /tmp/ccOzWYNS.s 			page 111


 2707 044d 03       		.uleb128 0x3
 2708 044e B1010000 		.4byte	.LASF80
 2709 0452 0D       		.byte	0xd
 2710 0453 65       		.byte	0x65
 2711 0454 10030000 		.4byte	0x310
 2712 0458 03       		.uleb128 0x3
 2713 0459 82030000 		.4byte	.LASF81
 2714 045d 0D       		.byte	0xd
 2715 045e 6D       		.byte	0x6d
 2716 045f C3000000 		.4byte	0xc3
 2717 0463 05       		.uleb128 0x5
 2718 0464 79060000 		.4byte	.LASF82
 2719 0468 04       		.byte	0x4
 2720 0469 0D       		.byte	0xd
 2721 046a 89       		.byte	0x89
 2722 046b 7C040000 		.4byte	0x47c
 2723 046f 0F       		.uleb128 0xf
 2724 0470 72313300 		.ascii	"r13\000"
 2725 0474 0D       		.byte	0xd
 2726 0475 8A       		.byte	0x8a
 2727 0476 F7040000 		.4byte	0x4f7
 2728 047a 00       		.byte	0
 2729 047b 00       		.byte	0
 2730 047c 05       		.uleb128 0x5
 2731 047d 45000000 		.4byte	.LASF83
 2732 0481 24       		.byte	0x24
 2733 0482 01       		.byte	0x1
 2734 0483 FD       		.byte	0xfd
 2735 0484 F7040000 		.4byte	0x4f7
 2736 0488 07       		.uleb128 0x7
 2737 0489 723400   		.ascii	"r4\000"
 2738 048c 01       		.byte	0x1
 2739 048d 1001     		.2byte	0x110
 2740 048f 4D040000 		.4byte	0x44d
 2741 0493 00       		.byte	0
 2742 0494 07       		.uleb128 0x7
 2743 0495 723500   		.ascii	"r5\000"
 2744 0498 01       		.byte	0x1
 2745 0499 1101     		.2byte	0x111
 2746 049b 4D040000 		.4byte	0x44d
 2747 049f 04       		.byte	0x4
 2748 04a0 07       		.uleb128 0x7
 2749 04a1 723600   		.ascii	"r6\000"
 2750 04a4 01       		.byte	0x1
 2751 04a5 1201     		.2byte	0x112
 2752 04a7 4D040000 		.4byte	0x44d
 2753 04ab 08       		.byte	0x8
 2754 04ac 07       		.uleb128 0x7
 2755 04ad 723700   		.ascii	"r7\000"
 2756 04b0 01       		.byte	0x1
 2757 04b1 1301     		.2byte	0x113
 2758 04b3 4D040000 		.4byte	0x44d
 2759 04b7 0C       		.byte	0xc
 2760 04b8 07       		.uleb128 0x7
 2761 04b9 723800   		.ascii	"r8\000"
 2762 04bc 01       		.byte	0x1
 2763 04bd 1401     		.2byte	0x114
ARM GAS  /tmp/ccOzWYNS.s 			page 112


 2764 04bf 4D040000 		.4byte	0x44d
 2765 04c3 10       		.byte	0x10
 2766 04c4 07       		.uleb128 0x7
 2767 04c5 723900   		.ascii	"r9\000"
 2768 04c8 01       		.byte	0x1
 2769 04c9 1501     		.2byte	0x115
 2770 04cb 4D040000 		.4byte	0x44d
 2771 04cf 14       		.byte	0x14
 2772 04d0 07       		.uleb128 0x7
 2773 04d1 72313000 		.ascii	"r10\000"
 2774 04d5 01       		.byte	0x1
 2775 04d6 1601     		.2byte	0x116
 2776 04d8 4D040000 		.4byte	0x44d
 2777 04dc 18       		.byte	0x18
 2778 04dd 07       		.uleb128 0x7
 2779 04de 72313100 		.ascii	"r11\000"
 2780 04e2 01       		.byte	0x1
 2781 04e3 1701     		.2byte	0x117
 2782 04e5 4D040000 		.4byte	0x44d
 2783 04e9 1C       		.byte	0x1c
 2784 04ea 07       		.uleb128 0x7
 2785 04eb 6C7200   		.ascii	"lr\000"
 2786 04ee 01       		.byte	0x1
 2787 04ef 1801     		.2byte	0x118
 2788 04f1 4D040000 		.4byte	0x44d
 2789 04f5 20       		.byte	0x20
 2790 04f6 00       		.byte	0
 2791 04f7 09       		.uleb128 0x9
 2792 04f8 04       		.byte	0x4
 2793 04f9 7C040000 		.4byte	0x47c
 2794 04fd 10       		.uleb128 0x10
 2795 04fe 04       		.byte	0x4
 2796 04ff 0E       		.byte	0xe
 2797 0500 38       		.byte	0x38
 2798 0501 12050000 		.4byte	0x512
 2799 0505 06       		.uleb128 0x6
 2800 0506 72060000 		.4byte	.LASF84
 2801 050a 0E       		.byte	0xe
 2802 050b 3C       		.byte	0x3c
 2803 050c CE000000 		.4byte	0xce
 2804 0510 00       		.byte	0
 2805 0511 00       		.byte	0
 2806 0512 03       		.uleb128 0x3
 2807 0513 05040000 		.4byte	.LASF85
 2808 0517 0E       		.byte	0xe
 2809 0518 3D       		.byte	0x3d
 2810 0519 FD040000 		.4byte	0x4fd
 2811 051d 11       		.uleb128 0x11
 2812 051e 04       		.byte	0x4
 2813 051f 03       		.byte	0x3
 2814 0520 FA       		.byte	0xfa
 2815 0521 86050000 		.4byte	0x586
 2816 0525 12       		.uleb128 0x12
 2817 0526 14000000 		.4byte	.LASF86
 2818 052a 03       		.byte	0x3
 2819 052b 0101     		.2byte	0x101
 2820 052d 05010000 		.4byte	0x105
ARM GAS  /tmp/ccOzWYNS.s 			page 113


 2821 0531 12       		.uleb128 0x12
 2822 0532 8C000000 		.4byte	.LASF87
 2823 0536 03       		.byte	0x3
 2824 0537 0801     		.2byte	0x108
 2825 0539 05010000 		.4byte	0x105
 2826 053d 12       		.uleb128 0x12
 2827 053e 65030000 		.4byte	.LASF88
 2828 0542 03       		.byte	0x3
 2829 0543 0F01     		.2byte	0x10f
 2830 0545 10030000 		.4byte	0x310
 2831 0549 12       		.uleb128 0x12
 2832 054a 30010000 		.4byte	.LASF89
 2833 054e 03       		.byte	0x3
 2834 054f 1601     		.2byte	0x116
 2835 0551 86050000 		.4byte	0x586
 2836 0555 12       		.uleb128 0x12
 2837 0556 A0000000 		.4byte	.LASF90
 2838 055a 03       		.byte	0x3
 2839 055b 1B01     		.2byte	0x11b
 2840 055d 05010000 		.4byte	0x105
 2841 0561 12       		.uleb128 0x12
 2842 0562 FA020000 		.4byte	.LASF91
 2843 0566 03       		.byte	0x3
 2844 0567 2401     		.2byte	0x124
 2845 0569 B1050000 		.4byte	0x5b1
 2846 056d 12       		.uleb128 0x12
 2847 056e 6A050000 		.4byte	.LASF92
 2848 0572 03       		.byte	0x3
 2849 0573 2D01     		.2byte	0x12d
 2850 0575 E8050000 		.4byte	0x5e8
 2851 0579 12       		.uleb128 0x12
 2852 057a D5040000 		.4byte	.LASF93
 2853 057e 03       		.byte	0x3
 2854 057f 3501     		.2byte	0x135
 2855 0581 10010000 		.4byte	0x110
 2856 0585 00       		.byte	0
 2857 0586 09       		.uleb128 0x9
 2858 0587 04       		.byte	0x4
 2859 0588 28020000 		.4byte	0x228
 2860 058c 05       		.uleb128 0x5
 2861 058d 3B050000 		.4byte	.LASF94
 2862 0591 0C       		.byte	0xc
 2863 0592 06       		.byte	0x6
 2864 0593 34       		.byte	0x34
 2865 0594 B1050000 		.4byte	0x5b1
 2866 0598 06       		.uleb128 0x6
 2867 0599 82010000 		.4byte	.LASF95
 2868 059d 06       		.byte	0x6
 2869 059e 35       		.byte	0x35
 2870 059f 5D020000 		.4byte	0x25d
 2871 05a3 00       		.byte	0
 2872 05a4 06       		.uleb128 0x6
 2873 05a5 23030000 		.4byte	.LASF96
 2874 05a9 06       		.byte	0x6
 2875 05aa 37       		.byte	0x37
 2876 05ab 1B010000 		.4byte	0x11b
 2877 05af 08       		.byte	0x8
ARM GAS  /tmp/ccOzWYNS.s 			page 114


 2878 05b0 00       		.byte	0
 2879 05b1 09       		.uleb128 0x9
 2880 05b2 04       		.byte	0x4
 2881 05b3 8C050000 		.4byte	0x58c
 2882 05b7 05       		.uleb128 0x5
 2883 05b8 BD060000 		.4byte	.LASF97
 2884 05bc 10       		.byte	0x10
 2885 05bd 0F       		.byte	0xf
 2886 05be 39       		.byte	0x39
 2887 05bf E8050000 		.4byte	0x5e8
 2888 05c3 06       		.uleb128 0x6
 2889 05c4 15010000 		.4byte	.LASF98
 2890 05c8 0F       		.byte	0xf
 2891 05c9 3A       		.byte	0x3a
 2892 05ca 5D020000 		.4byte	0x25d
 2893 05ce 00       		.byte	0
 2894 05cf 06       		.uleb128 0x6
 2895 05d0 38070000 		.4byte	.LASF99
 2896 05d4 0F       		.byte	0xf
 2897 05d5 3C       		.byte	0x3c
 2898 05d6 33020000 		.4byte	0x233
 2899 05da 08       		.byte	0x8
 2900 05db 06       		.uleb128 0x6
 2901 05dc F3020000 		.4byte	.LASF100
 2902 05e0 0F       		.byte	0xf
 2903 05e1 3E       		.byte	0x3e
 2904 05e2 37060000 		.4byte	0x637
 2905 05e6 0C       		.byte	0xc
 2906 05e7 00       		.byte	0
 2907 05e8 09       		.uleb128 0x9
 2908 05e9 04       		.byte	0x4
 2909 05ea B7050000 		.4byte	0x5b7
 2910 05ee 09       		.uleb128 0x9
 2911 05ef 04       		.byte	0x4
 2912 05f0 F4050000 		.4byte	0x5f4
 2913 05f4 13       		.uleb128 0x13
 2914 05f5 F9050000 		.4byte	0x5f9
 2915 05f9 04       		.uleb128 0x4
 2916 05fa 01       		.byte	0x1
 2917 05fb 08       		.byte	0x8
 2918 05fc F2050000 		.4byte	.LASF101
 2919 0600 09       		.uleb128 0x9
 2920 0601 04       		.byte	0x4
 2921 0602 58040000 		.4byte	0x458
 2922 0606 09       		.uleb128 0x9
 2923 0607 04       		.byte	0x4
 2924 0608 12030000 		.4byte	0x312
 2925 060c 14       		.uleb128 0x14
 2926 060d EE050000 		.4byte	0x5ee
 2927 0611 15       		.uleb128 0x15
 2928 0612 58040000 		.4byte	0x458
 2929 0616 21060000 		.4byte	0x621
 2930 061a 16       		.uleb128 0x16
 2931 061b 46040000 		.4byte	0x446
 2932 061f 1A       		.byte	0x1a
 2933 0620 00       		.byte	0
 2934 0621 03       		.uleb128 0x3
ARM GAS  /tmp/ccOzWYNS.s 			page 115


 2935 0622 1E050000 		.4byte	.LASF102
 2936 0626 06       		.byte	0x6
 2937 0627 38       		.byte	0x38
 2938 0628 8C050000 		.4byte	0x58c
 2939 062c 03       		.uleb128 0x3
 2940 062d D4010000 		.4byte	.LASF103
 2941 0631 0F       		.byte	0xf
 2942 0632 34       		.byte	0x34
 2943 0633 B7050000 		.4byte	0x5b7
 2944 0637 09       		.uleb128 0x9
 2945 0638 04       		.byte	0x4
 2946 0639 2C060000 		.4byte	0x62c
 2947 063d 17       		.uleb128 0x17
 2948 063e 5A060000 		.4byte	.LASF135
 2949 0642 02       		.byte	0x2
 2950 0643 2202     		.2byte	0x222
 2951 0645 03       		.byte	0x3
 2952 0646 57060000 		.4byte	0x657
 2953 064a 18       		.uleb128 0x18
 2954 064b DC010000 		.4byte	.LASF136
 2955 064f 02       		.byte	0x2
 2956 0650 2202     		.2byte	0x222
 2957 0652 B8000000 		.4byte	0xb8
 2958 0656 00       		.byte	0
 2959 0657 19       		.uleb128 0x19
 2960 0658 9C060000 		.4byte	.LASF137
 2961 065c 02       		.byte	0x2
 2962 065d AA01     		.2byte	0x1aa
 2963 065f B8000000 		.4byte	0xb8
 2964 0663 03       		.byte	0x3
 2965 0664 75060000 		.4byte	0x675
 2966 0668 1A       		.uleb128 0x1a
 2967 0669 40070000 		.4byte	.LASF138
 2968 066d 02       		.byte	0x2
 2969 066e AC01     		.2byte	0x1ac
 2970 0670 B8000000 		.4byte	0xb8
 2971 0674 00       		.byte	0
 2972 0675 1B       		.uleb128 0x1b
 2973 0676 6B000000 		.4byte	.LASF104
 2974 067a 01       		.byte	0x1
 2975 067b C801     		.2byte	0x1c8
 2976 067d 00000000 		.4byte	.LFB127
 2977 0681 10000000 		.4byte	.LFE127-.LFB127
 2978 0685 01       		.uleb128 0x1
 2979 0686 9C       		.byte	0x9c
 2980 0687 A5060000 		.4byte	0x6a5
 2981 068b 1C       		.uleb128 0x1c
 2982 068c 3D060000 		.4byte	0x63d
 2983 0690 06000000 		.4byte	.LBB19
 2984 0694 06000000 		.4byte	.LBE19-.LBB19
 2985 0698 01       		.byte	0x1
 2986 0699 D001     		.2byte	0x1d0
 2987 069b 1D       		.uleb128 0x1d
 2988 069c 4A060000 		.4byte	0x64a
 2989 06a0 02       		.uleb128 0x2
 2990 06a1 91       		.byte	0x91
 2991 06a2 7C       		.sleb128 -4
ARM GAS  /tmp/ccOzWYNS.s 			page 116


 2992 06a3 00       		.byte	0
 2993 06a4 00       		.byte	0
 2994 06a5 1B       		.uleb128 0x1b
 2995 06a6 24010000 		.4byte	.LASF105
 2996 06aa 01       		.byte	0x1
 2997 06ab E001     		.2byte	0x1e0
 2998 06ad 00000000 		.4byte	.LFB128
 2999 06b1 10000000 		.4byte	.LFE128-.LFB128
 3000 06b5 01       		.uleb128 0x1
 3001 06b6 9C       		.byte	0x9c
 3002 06b7 D5060000 		.4byte	0x6d5
 3003 06bb 1C       		.uleb128 0x1c
 3004 06bc 3D060000 		.4byte	0x63d
 3005 06c0 06000000 		.4byte	.LBB21
 3006 06c4 06000000 		.4byte	.LBE21-.LBB21
 3007 06c8 01       		.byte	0x1
 3008 06c9 E301     		.2byte	0x1e3
 3009 06cb 1D       		.uleb128 0x1d
 3010 06cc 4A060000 		.4byte	0x64a
 3011 06d0 02       		.uleb128 0x2
 3012 06d1 91       		.byte	0x91
 3013 06d2 7C       		.sleb128 -4
 3014 06d3 00       		.byte	0
 3015 06d4 00       		.byte	0
 3016 06d5 1E       		.uleb128 0x1e
 3017 06d6 89060000 		.4byte	.LASF106
 3018 06da 01       		.byte	0x1
 3019 06db EF01     		.2byte	0x1ef
 3020 06dd 00000000 		.4byte	.LFB129
 3021 06e1 08000000 		.4byte	.LFE129-.LFB129
 3022 06e5 01       		.uleb128 0x1
 3023 06e6 9C       		.byte	0x9c
 3024 06e7 1E       		.uleb128 0x1e
 3025 06e8 01060000 		.4byte	.LASF107
 3026 06ec 01       		.byte	0x1
 3027 06ed FA01     		.2byte	0x1fa
 3028 06ef 00000000 		.4byte	.LFB130
 3029 06f3 08000000 		.4byte	.LFE130-.LFB130
 3030 06f7 01       		.uleb128 0x1
 3031 06f8 9C       		.byte	0x9c
 3032 06f9 1B       		.uleb128 0x1b
 3033 06fa 60000000 		.4byte	.LASF108
 3034 06fe 03       		.byte	0x3
 3035 06ff 5C02     		.2byte	0x25c
 3036 0701 00000000 		.4byte	.LFB150
 3037 0705 14000000 		.4byte	.LFE150-.LFB150
 3038 0709 01       		.uleb128 0x1
 3039 070a 9C       		.byte	0x9c
 3040 070b 1F070000 		.4byte	0x71f
 3041 070f 1F       		.uleb128 0x1f
 3042 0710 74717000 		.ascii	"tqp\000"
 3043 0714 03       		.byte	0x3
 3044 0715 5C02     		.2byte	0x25c
 3045 0717 1F070000 		.4byte	0x71f
 3046 071b 02       		.uleb128 0x2
 3047 071c 91       		.byte	0x91
 3048 071d 7C       		.sleb128 -4
ARM GAS  /tmp/ccOzWYNS.s 			page 117


 3049 071e 00       		.byte	0
 3050 071f 09       		.uleb128 0x9
 3051 0720 04       		.byte	0x4
 3052 0721 5D020000 		.4byte	0x25d
 3053 0725 20       		.uleb128 0x20
 3054 0726 1F060000 		.4byte	.LASF109
 3055 072a 03       		.byte	0x3
 3056 072b A102     		.2byte	0x2a1
 3057 072d 33020000 		.4byte	0x233
 3058 0731 00000000 		.4byte	.LFB157
 3059 0735 22000000 		.4byte	.LFE157-.LFB157
 3060 0739 01       		.uleb128 0x1
 3061 073a 9C       		.byte	0x9c
 3062 073b 5D070000 		.4byte	0x75d
 3063 073f 1F       		.uleb128 0x1f
 3064 0740 74717000 		.ascii	"tqp\000"
 3065 0744 03       		.byte	0x3
 3066 0745 A102     		.2byte	0x2a1
 3067 0747 1F070000 		.4byte	0x71f
 3068 074b 02       		.uleb128 0x2
 3069 074c 91       		.byte	0x91
 3070 074d 74       		.sleb128 -12
 3071 074e 21       		.uleb128 0x21
 3072 074f 747000   		.ascii	"tp\000"
 3073 0752 03       		.byte	0x3
 3074 0753 A202     		.2byte	0x2a2
 3075 0755 33020000 		.4byte	0x233
 3076 0759 02       		.uleb128 0x2
 3077 075a 91       		.byte	0x91
 3078 075b 7C       		.sleb128 -4
 3079 075c 00       		.byte	0
 3080 075d 20       		.uleb128 0x20
 3081 075e 49010000 		.4byte	.LASF110
 3082 0762 03       		.byte	0x3
 3083 0763 B302     		.2byte	0x2b3
 3084 0765 33020000 		.4byte	0x233
 3085 0769 00000000 		.4byte	.LFB159
 3086 076d 20000000 		.4byte	.LFE159-.LFB159
 3087 0771 01       		.uleb128 0x1
 3088 0772 9C       		.byte	0x9c
 3089 0773 86070000 		.4byte	0x786
 3090 0777 1F       		.uleb128 0x1f
 3091 0778 747000   		.ascii	"tp\000"
 3092 077b 03       		.byte	0x3
 3093 077c B302     		.2byte	0x2b3
 3094 077e 33020000 		.4byte	0x233
 3095 0782 02       		.uleb128 0x2
 3096 0783 91       		.byte	0x91
 3097 0784 7C       		.sleb128 -4
 3098 0785 00       		.byte	0
 3099 0786 22       		.uleb128 0x22
 3100 0787 23070000 		.4byte	.LASF139
 3101 078b 03       		.byte	0x3
 3102 078c C702     		.2byte	0x2c7
 3103 078e 9C070000 		.4byte	0x79c
 3104 0792 00000000 		.4byte	.LFB160
 3105 0796 20000000 		.4byte	.LFE160-.LFB160
ARM GAS  /tmp/ccOzWYNS.s 			page 118


 3106 079a 01       		.uleb128 0x1
 3107 079b 9C       		.byte	0x9c
 3108 079c 04       		.uleb128 0x4
 3109 079d 01       		.byte	0x1
 3110 079e 02       		.byte	0x2
 3111 079f 8D040000 		.4byte	.LASF111
 3112 07a3 1E       		.uleb128 0x1e
 3113 07a4 E7060000 		.4byte	.LASF112
 3114 07a8 04       		.byte	0x4
 3115 07a9 8201     		.2byte	0x182
 3116 07ab 00000000 		.4byte	.LFB169
 3117 07af 08000000 		.4byte	.LFE169-.LFB169
 3118 07b3 01       		.uleb128 0x1
 3119 07b4 9C       		.byte	0x9c
 3120 07b5 1E       		.uleb128 0x1e
 3121 07b6 6A040000 		.4byte	.LASF113
 3122 07ba 04       		.byte	0x4
 3123 07bb 9601     		.2byte	0x196
 3124 07bd 00000000 		.4byte	.LFB170
 3125 07c1 08000000 		.4byte	.LFE170-.LFB170
 3126 07c5 01       		.uleb128 0x1
 3127 07c6 9C       		.byte	0x9c
 3128 07c7 20       		.uleb128 0x20
 3129 07c8 F3040000 		.4byte	.LASF114
 3130 07cc 05       		.byte	0x5
 3131 07cd 7501     		.2byte	0x175
 3132 07cf 9C070000 		.4byte	0x79c
 3133 07d3 00000000 		.4byte	.LFB182
 3134 07d7 18000000 		.4byte	.LFE182-.LFB182
 3135 07db 01       		.uleb128 0x1
 3136 07dc 9C       		.byte	0x9c
 3137 07dd F1070000 		.4byte	0x7f1
 3138 07e1 1F       		.uleb128 0x1f
 3139 07e2 76747000 		.ascii	"vtp\000"
 3140 07e6 05       		.byte	0x5
 3141 07e7 7501     		.2byte	0x175
 3142 07e9 06060000 		.4byte	0x606
 3143 07ed 02       		.uleb128 0x2
 3144 07ee 91       		.byte	0x91
 3145 07ef 7C       		.sleb128 -4
 3146 07f0 00       		.byte	0
 3147 07f1 23       		.uleb128 0x23
 3148 07f2 C4040000 		.4byte	.LASF115
 3149 07f6 06       		.byte	0x6
 3150 07f7 86       		.byte	0x86
 3151 07f8 00000000 		.4byte	.LFB202
 3152 07fc 12000000 		.4byte	.LFE202-.LFB202
 3153 0800 01       		.uleb128 0x1
 3154 0801 9C       		.byte	0x9c
 3155 0802 14080000 		.4byte	0x814
 3156 0806 24       		.uleb128 0x24
 3157 0807 737000   		.ascii	"sp\000"
 3158 080a 06       		.byte	0x6
 3159 080b 86       		.byte	0x86
 3160 080c 14080000 		.4byte	0x814
 3161 0810 02       		.uleb128 0x2
 3162 0811 91       		.byte	0x91
ARM GAS  /tmp/ccOzWYNS.s 			page 119


 3163 0812 7C       		.sleb128 -4
 3164 0813 00       		.byte	0
 3165 0814 09       		.uleb128 0x9
 3166 0815 04       		.byte	0x4
 3167 0816 21060000 		.4byte	0x621
 3168 081a 25       		.uleb128 0x25
 3169 081b E3000000 		.4byte	.LASF125
 3170 081f 07       		.byte	0x7
 3171 0820 41       		.byte	0x41
 3172 0821 00000000 		.4byte	.LFB241
 3173 0825 20000000 		.4byte	.LFE241-.LFB241
 3174 0829 01       		.uleb128 0x1
 3175 082a 9C       		.byte	0x9c
 3176 082b 26       		.uleb128 0x26
 3177 082c 79050000 		.4byte	.LASF118
 3178 0830 07       		.byte	0x7
 3179 0831 DA       		.byte	0xda
 3180 0832 33020000 		.4byte	0x233
 3181 0836 00000000 		.4byte	.LFB242
 3182 083a 4C000000 		.4byte	.LFE242-.LFB242
 3183 083e 01       		.uleb128 0x1
 3184 083f 9C       		.byte	0x9c
 3185 0840 68080000 		.4byte	0x868
 3186 0844 24       		.uleb128 0x24
 3187 0845 747000   		.ascii	"tp\000"
 3188 0848 07       		.byte	0x7
 3189 0849 DA       		.byte	0xda
 3190 084a 33020000 		.4byte	0x233
 3191 084e 02       		.uleb128 0x2
 3192 084f 91       		.byte	0x91
 3193 0850 74       		.sleb128 -12
 3194 0851 27       		.uleb128 0x27
 3195 0852 637000   		.ascii	"cp\000"
 3196 0855 07       		.byte	0x7
 3197 0856 DB       		.byte	0xdb
 3198 0857 33020000 		.4byte	0x233
 3199 085b 02       		.uleb128 0x2
 3200 085c 91       		.byte	0x91
 3201 085d 7C       		.sleb128 -4
 3202 085e 28       		.uleb128 0x28
 3203 085f 8A010000 		.4byte	.LASF123
 3204 0863 78080000 		.4byte	0x878
 3205 0867 00       		.byte	0
 3206 0868 15       		.uleb128 0x15
 3207 0869 F9050000 		.4byte	0x5f9
 3208 086d 78080000 		.4byte	0x878
 3209 0871 16       		.uleb128 0x16
 3210 0872 46040000 		.4byte	0x446
 3211 0876 0B       		.byte	0xb
 3212 0877 00       		.byte	0
 3213 0878 13       		.uleb128 0x13
 3214 0879 68080000 		.4byte	0x868
 3215 087d 29       		.uleb128 0x29
 3216 087e 48050000 		.4byte	.LASF121
 3217 0882 07       		.byte	0x7
 3218 0883 FA       		.byte	0xfa
 3219 0884 00000000 		.4byte	.LFB243
ARM GAS  /tmp/ccOzWYNS.s 			page 120


 3220 0888 68000000 		.4byte	.LFE243-.LFB243
 3221 088c 01       		.uleb128 0x1
 3222 088d 9C       		.byte	0x9c
 3223 088e EA080000 		.4byte	0x8ea
 3224 0892 2A       		.uleb128 0x2a
 3225 0893 A9040000 		.4byte	.LASF116
 3226 0897 07       		.byte	0x7
 3227 0898 FA       		.byte	0xfa
 3228 0899 E4000000 		.4byte	0xe4
 3229 089d 02       		.uleb128 0x2
 3230 089e 91       		.byte	0x91
 3231 089f 6F       		.sleb128 -17
 3232 08a0 27       		.uleb128 0x27
 3233 08a1 6F747000 		.ascii	"otp\000"
 3234 08a5 07       		.byte	0x7
 3235 08a6 FB       		.byte	0xfb
 3236 08a7 33020000 		.4byte	0x233
 3237 08ab 02       		.uleb128 0x2
 3238 08ac 91       		.byte	0x91
 3239 08ad 74       		.sleb128 -12
 3240 08ae 2B       		.uleb128 0x2b
 3241 08af 30000000 		.4byte	.LBB23
 3242 08b3 2A000000 		.4byte	.LBE23-.LBB23
 3243 08b7 21       		.uleb128 0x21
 3244 08b8 72313300 		.ascii	"r13\000"
 3245 08bc 07       		.byte	0x7
 3246 08bd 0D01     		.2byte	0x10d
 3247 08bf F7040000 		.4byte	0x4f7
 3248 08c3 02       		.uleb128 0x2
 3249 08c4 91       		.byte	0x91
 3250 08c5 70       		.sleb128 -16
 3251 08c6 1C       		.uleb128 0x1c
 3252 08c7 57060000 		.4byte	0x657
 3253 08cb 30000000 		.4byte	.LBB24
 3254 08cf 08000000 		.4byte	.LBE24-.LBB24
 3255 08d3 07       		.byte	0x7
 3256 08d4 0D01     		.2byte	0x10d
 3257 08d6 2B       		.uleb128 0x2b
 3258 08d7 30000000 		.4byte	.LBB25
 3259 08db 08000000 		.4byte	.LBE25-.LBB25
 3260 08df 2C       		.uleb128 0x2c
 3261 08e0 68060000 		.4byte	0x668
 3262 08e4 01       		.uleb128 0x1
 3263 08e5 54       		.byte	0x54
 3264 08e6 00       		.byte	0
 3265 08e7 00       		.byte	0
 3266 08e8 00       		.byte	0
 3267 08e9 00       		.byte	0
 3268 08ea 2D       		.uleb128 0x2d
 3269 08eb E4020000 		.4byte	.LASF117
 3270 08ef 07       		.byte	0x7
 3271 08f0 1301     		.2byte	0x113
 3272 08f2 00000000 		.4byte	.LFB244
 3273 08f6 7C000000 		.4byte	.LFE244-.LFB244
 3274 08fa 01       		.uleb128 0x1
 3275 08fb 9C       		.byte	0x9c
 3276 08fc 1C090000 		.4byte	0x91c
ARM GAS  /tmp/ccOzWYNS.s 			page 121


 3277 0900 1F       		.uleb128 0x1f
 3278 0901 7000     		.ascii	"p\000"
 3279 0903 07       		.byte	0x7
 3280 0904 1301     		.2byte	0x113
 3281 0906 10030000 		.4byte	0x310
 3282 090a 02       		.uleb128 0x2
 3283 090b 91       		.byte	0x91
 3284 090c 6C       		.sleb128 -20
 3285 090d 21       		.uleb128 0x21
 3286 090e 747000   		.ascii	"tp\000"
 3287 0911 07       		.byte	0x7
 3288 0912 1401     		.2byte	0x114
 3289 0914 33020000 		.4byte	0x233
 3290 0918 02       		.uleb128 0x2
 3291 0919 91       		.byte	0x91
 3292 091a 74       		.sleb128 -12
 3293 091b 00       		.byte	0
 3294 091c 2E       		.uleb128 0x2e
 3295 091d 0E070000 		.4byte	.LASF119
 3296 0921 07       		.byte	0x7
 3297 0922 4A01     		.2byte	0x14a
 3298 0924 05010000 		.4byte	0x105
 3299 0928 00000000 		.4byte	.LFB245
 3300 092c 68000000 		.4byte	.LFE245-.LFB245
 3301 0930 01       		.uleb128 0x1
 3302 0931 9C       		.byte	0x9c
 3303 0932 6D090000 		.4byte	0x96d
 3304 0936 2F       		.uleb128 0x2f
 3305 0937 A9040000 		.4byte	.LASF116
 3306 093b 07       		.byte	0x7
 3307 093c 4A01     		.2byte	0x14a
 3308 093e E4000000 		.4byte	0xe4
 3309 0942 02       		.uleb128 0x2
 3310 0943 91       		.byte	0x91
 3311 0944 5F       		.sleb128 -33
 3312 0945 2F       		.uleb128 0x2f
 3313 0946 21040000 		.4byte	.LASF120
 3314 094a 07       		.byte	0x7
 3315 094b 4A01     		.2byte	0x14a
 3316 094d 26010000 		.4byte	0x126
 3317 0951 02       		.uleb128 0x2
 3318 0952 91       		.byte	0x91
 3319 0953 58       		.sleb128 -40
 3320 0954 2B       		.uleb128 0x2b
 3321 0955 14000000 		.4byte	.LBB26
 3322 0959 30000000 		.4byte	.LBE26-.LBB26
 3323 095d 21       		.uleb128 0x21
 3324 095e 767400   		.ascii	"vt\000"
 3325 0961 07       		.byte	0x7
 3326 0962 4F01     		.2byte	0x14f
 3327 0964 12030000 		.4byte	0x312
 3328 0968 02       		.uleb128 0x2
 3329 0969 91       		.byte	0x91
 3330 096a 64       		.sleb128 -28
 3331 096b 00       		.byte	0
 3332 096c 00       		.byte	0
 3333 096d 30       		.uleb128 0x30
ARM GAS  /tmp/ccOzWYNS.s 			page 122


 3334 096e 46030000 		.4byte	.LASF122
 3335 0972 07       		.byte	0x7
 3336 0973 6F01     		.2byte	0x16f
 3337 0975 00000000 		.4byte	.LFB246
 3338 0979 70000000 		.4byte	.LFE246-.LFB246
 3339 097d 01       		.uleb128 0x1
 3340 097e 9C       		.byte	0x9c
 3341 097f FF090000 		.4byte	0x9ff
 3342 0983 1F       		.uleb128 0x1f
 3343 0984 6E747000 		.ascii	"ntp\000"
 3344 0988 07       		.byte	0x7
 3345 0989 6F01     		.2byte	0x16f
 3346 098b 33020000 		.4byte	0x233
 3347 098f 02       		.uleb128 0x2
 3348 0990 91       		.byte	0x91
 3349 0991 6C       		.sleb128 -20
 3350 0992 1F       		.uleb128 0x1f
 3351 0993 6D736700 		.ascii	"msg\000"
 3352 0997 07       		.byte	0x7
 3353 0998 6F01     		.2byte	0x16f
 3354 099a 05010000 		.4byte	0x105
 3355 099e 02       		.uleb128 0x2
 3356 099f 91       		.byte	0x91
 3357 09a0 68       		.sleb128 -24
 3358 09a1 28       		.uleb128 0x28
 3359 09a2 E9030000 		.4byte	.LASF124
 3360 09a6 0F0A0000 		.4byte	0xa0f
 3361 09aa 2B       		.uleb128 0x2b
 3362 09ab 24000000 		.4byte	.LBB27
 3363 09af 40000000 		.4byte	.LBE27-.LBB27
 3364 09b3 21       		.uleb128 0x21
 3365 09b4 6F747000 		.ascii	"otp\000"
 3366 09b8 07       		.byte	0x7
 3367 09b9 8301     		.2byte	0x183
 3368 09bb 33020000 		.4byte	0x233
 3369 09bf 02       		.uleb128 0x2
 3370 09c0 91       		.byte	0x91
 3371 09c1 74       		.sleb128 -12
 3372 09c2 2B       		.uleb128 0x2b
 3373 09c3 3E000000 		.4byte	.LBB28
 3374 09c7 26000000 		.4byte	.LBE28-.LBB28
 3375 09cb 21       		.uleb128 0x21
 3376 09cc 72313300 		.ascii	"r13\000"
 3377 09d0 07       		.byte	0x7
 3378 09d1 8B01     		.2byte	0x18b
 3379 09d3 F7040000 		.4byte	0x4f7
 3380 09d7 02       		.uleb128 0x2
 3381 09d8 91       		.byte	0x91
 3382 09d9 70       		.sleb128 -16
 3383 09da 1C       		.uleb128 0x1c
 3384 09db 57060000 		.4byte	0x657
 3385 09df 3E000000 		.4byte	.LBB29
 3386 09e3 08000000 		.4byte	.LBE29-.LBB29
 3387 09e7 07       		.byte	0x7
 3388 09e8 8B01     		.2byte	0x18b
 3389 09ea 2B       		.uleb128 0x2b
 3390 09eb 3E000000 		.4byte	.LBB30
ARM GAS  /tmp/ccOzWYNS.s 			page 123


 3391 09ef 08000000 		.4byte	.LBE30-.LBB30
 3392 09f3 2C       		.uleb128 0x2c
 3393 09f4 68060000 		.4byte	0x668
 3394 09f8 01       		.uleb128 0x1
 3395 09f9 54       		.byte	0x54
 3396 09fa 00       		.byte	0
 3397 09fb 00       		.byte	0
 3398 09fc 00       		.byte	0
 3399 09fd 00       		.byte	0
 3400 09fe 00       		.byte	0
 3401 09ff 15       		.uleb128 0x15
 3402 0a00 F9050000 		.4byte	0x5f9
 3403 0a04 0F0A0000 		.4byte	0xa0f
 3404 0a08 16       		.uleb128 0x16
 3405 0a09 46040000 		.4byte	0x446
 3406 0a0d 0C       		.byte	0xc
 3407 0a0e 00       		.byte	0
 3408 0a0f 13       		.uleb128 0x13
 3409 0a10 FF090000 		.4byte	0x9ff
 3410 0a14 31       		.uleb128 0x31
 3411 0a15 98010000 		.4byte	.LASF126
 3412 0a19 07       		.byte	0x7
 3413 0a1a 9601     		.2byte	0x196
 3414 0a1c 00000000 		.4byte	.LFB247
 3415 0a20 12000000 		.4byte	.LFE247-.LFB247
 3416 0a24 01       		.uleb128 0x1
 3417 0a25 9C       		.byte	0x9c
 3418 0a26 32       		.uleb128 0x32
 3419 0a27 60010000 		.4byte	.LASF127
 3420 0a2b 07       		.byte	0x7
 3421 0a2c AC01     		.2byte	0x1ac
 3422 0a2e 9C070000 		.4byte	0x79c
 3423 0a32 00000000 		.4byte	.LFB248
 3424 0a36 2C000000 		.4byte	.LFE248-.LFB248
 3425 0a3a 01       		.uleb128 0x1
 3426 0a3b 9C       		.byte	0x9c
 3427 0a3c 5D0A0000 		.4byte	0xa5d
 3428 0a40 21       		.uleb128 0x21
 3429 0a41 703100   		.ascii	"p1\000"
 3430 0a44 07       		.byte	0x7
 3431 0a45 AD01     		.2byte	0x1ad
 3432 0a47 FA000000 		.4byte	0xfa
 3433 0a4b 02       		.uleb128 0x2
 3434 0a4c 91       		.byte	0x91
 3435 0a4d 7C       		.sleb128 -4
 3436 0a4e 21       		.uleb128 0x21
 3437 0a4f 703200   		.ascii	"p2\000"
 3438 0a52 07       		.byte	0x7
 3439 0a53 AE01     		.2byte	0x1ae
 3440 0a55 FA000000 		.4byte	0xfa
 3441 0a59 02       		.uleb128 0x2
 3442 0a5a 91       		.byte	0x91
 3443 0a5b 78       		.sleb128 -8
 3444 0a5c 00       		.byte	0
 3445 0a5d 30       		.uleb128 0x30
 3446 0a5e D1030000 		.4byte	.LASF128
 3447 0a62 07       		.byte	0x7
ARM GAS  /tmp/ccOzWYNS.s 			page 124


 3448 0a63 C701     		.2byte	0x1c7
 3449 0a65 00000000 		.4byte	.LFB249
 3450 0a69 5C000000 		.4byte	.LFE249-.LFB249
 3451 0a6d 01       		.uleb128 0x1
 3452 0a6e 9C       		.byte	0x9c
 3453 0a6f BE0A0000 		.4byte	0xabe
 3454 0a73 21       		.uleb128 0x21
 3455 0a74 6F747000 		.ascii	"otp\000"
 3456 0a78 07       		.byte	0x7
 3457 0a79 C801     		.2byte	0x1c8
 3458 0a7b 33020000 		.4byte	0x233
 3459 0a7f 02       		.uleb128 0x2
 3460 0a80 91       		.byte	0x91
 3461 0a81 74       		.sleb128 -12
 3462 0a82 2B       		.uleb128 0x2b
 3463 0a83 26000000 		.4byte	.LBB31
 3464 0a87 2A000000 		.4byte	.LBE31-.LBB31
 3465 0a8b 21       		.uleb128 0x21
 3466 0a8c 72313300 		.ascii	"r13\000"
 3467 0a90 07       		.byte	0x7
 3468 0a91 D701     		.2byte	0x1d7
 3469 0a93 F7040000 		.4byte	0x4f7
 3470 0a97 02       		.uleb128 0x2
 3471 0a98 91       		.byte	0x91
 3472 0a99 70       		.sleb128 -16
 3473 0a9a 1C       		.uleb128 0x1c
 3474 0a9b 57060000 		.4byte	0x657
 3475 0a9f 26000000 		.4byte	.LBB32
 3476 0aa3 08000000 		.4byte	.LBE32-.LBB32
 3477 0aa7 07       		.byte	0x7
 3478 0aa8 D701     		.2byte	0x1d7
 3479 0aaa 2B       		.uleb128 0x2b
 3480 0aab 26000000 		.4byte	.LBB33
 3481 0aaf 08000000 		.4byte	.LBE33-.LBB33
 3482 0ab3 2C       		.uleb128 0x2c
 3483 0ab4 68060000 		.4byte	0x668
 3484 0ab8 01       		.uleb128 0x1
 3485 0ab9 54       		.byte	0x54
 3486 0aba 00       		.byte	0
 3487 0abb 00       		.byte	0
 3488 0abc 00       		.byte	0
 3489 0abd 00       		.byte	0
 3490 0abe 30       		.uleb128 0x30
 3491 0abf 24000000 		.4byte	.LASF129
 3492 0ac3 07       		.byte	0x7
 3493 0ac4 E301     		.2byte	0x1e3
 3494 0ac6 00000000 		.4byte	.LFB250
 3495 0aca 90000000 		.4byte	.LFE250-.LFB250
 3496 0ace 01       		.uleb128 0x1
 3497 0acf 9C       		.byte	0x9c
 3498 0ad0 2D0B0000 		.4byte	0xb2d
 3499 0ad4 21       		.uleb128 0x21
 3500 0ad5 6F747000 		.ascii	"otp\000"
 3501 0ad9 07       		.byte	0x7
 3502 0ada E401     		.2byte	0x1e4
 3503 0adc 33020000 		.4byte	0x233
 3504 0ae0 02       		.uleb128 0x2
ARM GAS  /tmp/ccOzWYNS.s 			page 125


 3505 0ae1 91       		.byte	0x91
 3506 0ae2 70       		.sleb128 -16
 3507 0ae3 21       		.uleb128 0x21
 3508 0ae4 637000   		.ascii	"cp\000"
 3509 0ae7 07       		.byte	0x7
 3510 0ae8 E401     		.2byte	0x1e4
 3511 0aea 33020000 		.4byte	0x233
 3512 0aee 02       		.uleb128 0x2
 3513 0aef 91       		.byte	0x91
 3514 0af0 74       		.sleb128 -12
 3515 0af1 2B       		.uleb128 0x2b
 3516 0af2 5A000000 		.4byte	.LBB34
 3517 0af6 2A000000 		.4byte	.LBE34-.LBB34
 3518 0afa 21       		.uleb128 0x21
 3519 0afb 72313300 		.ascii	"r13\000"
 3520 0aff 07       		.byte	0x7
 3521 0b00 FB01     		.2byte	0x1fb
 3522 0b02 F7040000 		.4byte	0x4f7
 3523 0b06 02       		.uleb128 0x2
 3524 0b07 91       		.byte	0x91
 3525 0b08 6C       		.sleb128 -20
 3526 0b09 1C       		.uleb128 0x1c
 3527 0b0a 57060000 		.4byte	0x657
 3528 0b0e 5A000000 		.4byte	.LBB35
 3529 0b12 08000000 		.4byte	.LBE35-.LBB35
 3530 0b16 07       		.byte	0x7
 3531 0b17 FB01     		.2byte	0x1fb
 3532 0b19 2B       		.uleb128 0x2b
 3533 0b1a 5A000000 		.4byte	.LBB36
 3534 0b1e 08000000 		.4byte	.LBE36-.LBB36
 3535 0b22 2C       		.uleb128 0x2c
 3536 0b23 68060000 		.4byte	0x668
 3537 0b27 01       		.uleb128 0x1
 3538 0b28 54       		.byte	0x54
 3539 0b29 00       		.byte	0
 3540 0b2a 00       		.byte	0
 3541 0b2b 00       		.byte	0
 3542 0b2c 00       		.byte	0
 3543 0b2d 31       		.uleb128 0x31
 3544 0b2e BA010000 		.4byte	.LASF130
 3545 0b32 07       		.byte	0x7
 3546 0b33 0802     		.2byte	0x208
 3547 0b35 00000000 		.4byte	.LFB251
 3548 0b39 08000000 		.4byte	.LFE251-.LFB251
 3549 0b3d 01       		.uleb128 0x1
 3550 0b3e 9C       		.byte	0x9c
 3551 0b3f 33       		.uleb128 0x33
 3552 0b40 BE000000 		.4byte	.LASF131
 3553 0b44 10       		.byte	0x10
 3554 0b45 FA06     		.2byte	0x6fa
 3555 0b47 4B0B0000 		.4byte	0xb4b
 3556 0b4b 14       		.uleb128 0x14
 3557 0b4c AD000000 		.4byte	0xad
 3558 0b50 34       		.uleb128 0x34
 3559 0b51 636800   		.ascii	"ch\000"
 3560 0b54 07       		.byte	0x7
 3561 0b55 2A       		.byte	0x2a
ARM GAS  /tmp/ccOzWYNS.s 			page 126


 3562 0b56 DF030000 		.4byte	0x3df
 3563 0b5a 05       		.uleb128 0x5
 3564 0b5b 03       		.byte	0x3
 3565 0b5c 00000000 		.4byte	ch
 3566 0b60 00       		.byte	0
 3567              		.section	.debug_abbrev,"",%progbits
 3568              	.Ldebug_abbrev0:
 3569 0000 01       		.uleb128 0x1
 3570 0001 11       		.uleb128 0x11
 3571 0002 01       		.byte	0x1
 3572 0003 25       		.uleb128 0x25
 3573 0004 0E       		.uleb128 0xe
 3574 0005 13       		.uleb128 0x13
 3575 0006 0B       		.uleb128 0xb
 3576 0007 03       		.uleb128 0x3
 3577 0008 0E       		.uleb128 0xe
 3578 0009 1B       		.uleb128 0x1b
 3579 000a 0E       		.uleb128 0xe
 3580 000b 55       		.uleb128 0x55
 3581 000c 17       		.uleb128 0x17
 3582 000d 11       		.uleb128 0x11
 3583 000e 01       		.uleb128 0x1
 3584 000f 10       		.uleb128 0x10
 3585 0010 17       		.uleb128 0x17
 3586 0011 00       		.byte	0
 3587 0012 00       		.byte	0
 3588 0013 02       		.uleb128 0x2
 3589 0014 24       		.uleb128 0x24
 3590 0015 00       		.byte	0
 3591 0016 0B       		.uleb128 0xb
 3592 0017 0B       		.uleb128 0xb
 3593 0018 3E       		.uleb128 0x3e
 3594 0019 0B       		.uleb128 0xb
 3595 001a 03       		.uleb128 0x3
 3596 001b 08       		.uleb128 0x8
 3597 001c 00       		.byte	0
 3598 001d 00       		.byte	0
 3599 001e 03       		.uleb128 0x3
 3600 001f 16       		.uleb128 0x16
 3601 0020 00       		.byte	0
 3602 0021 03       		.uleb128 0x3
 3603 0022 0E       		.uleb128 0xe
 3604 0023 3A       		.uleb128 0x3a
 3605 0024 0B       		.uleb128 0xb
 3606 0025 3B       		.uleb128 0x3b
 3607 0026 0B       		.uleb128 0xb
 3608 0027 49       		.uleb128 0x49
 3609 0028 13       		.uleb128 0x13
 3610 0029 00       		.byte	0
 3611 002a 00       		.byte	0
 3612 002b 04       		.uleb128 0x4
 3613 002c 24       		.uleb128 0x24
 3614 002d 00       		.byte	0
 3615 002e 0B       		.uleb128 0xb
 3616 002f 0B       		.uleb128 0xb
 3617 0030 3E       		.uleb128 0x3e
 3618 0031 0B       		.uleb128 0xb
ARM GAS  /tmp/ccOzWYNS.s 			page 127


 3619 0032 03       		.uleb128 0x3
 3620 0033 0E       		.uleb128 0xe
 3621 0034 00       		.byte	0
 3622 0035 00       		.byte	0
 3623 0036 05       		.uleb128 0x5
 3624 0037 13       		.uleb128 0x13
 3625 0038 01       		.byte	0x1
 3626 0039 03       		.uleb128 0x3
 3627 003a 0E       		.uleb128 0xe
 3628 003b 0B       		.uleb128 0xb
 3629 003c 0B       		.uleb128 0xb
 3630 003d 3A       		.uleb128 0x3a
 3631 003e 0B       		.uleb128 0xb
 3632 003f 3B       		.uleb128 0x3b
 3633 0040 0B       		.uleb128 0xb
 3634 0041 01       		.uleb128 0x1
 3635 0042 13       		.uleb128 0x13
 3636 0043 00       		.byte	0
 3637 0044 00       		.byte	0
 3638 0045 06       		.uleb128 0x6
 3639 0046 0D       		.uleb128 0xd
 3640 0047 00       		.byte	0
 3641 0048 03       		.uleb128 0x3
 3642 0049 0E       		.uleb128 0xe
 3643 004a 3A       		.uleb128 0x3a
 3644 004b 0B       		.uleb128 0xb
 3645 004c 3B       		.uleb128 0x3b
 3646 004d 0B       		.uleb128 0xb
 3647 004e 49       		.uleb128 0x49
 3648 004f 13       		.uleb128 0x13
 3649 0050 38       		.uleb128 0x38
 3650 0051 0B       		.uleb128 0xb
 3651 0052 00       		.byte	0
 3652 0053 00       		.byte	0
 3653 0054 07       		.uleb128 0x7
 3654 0055 0D       		.uleb128 0xd
 3655 0056 00       		.byte	0
 3656 0057 03       		.uleb128 0x3
 3657 0058 08       		.uleb128 0x8
 3658 0059 3A       		.uleb128 0x3a
 3659 005a 0B       		.uleb128 0xb
 3660 005b 3B       		.uleb128 0x3b
 3661 005c 05       		.uleb128 0x5
 3662 005d 49       		.uleb128 0x49
 3663 005e 13       		.uleb128 0x13
 3664 005f 38       		.uleb128 0x38
 3665 0060 0B       		.uleb128 0xb
 3666 0061 00       		.byte	0
 3667 0062 00       		.byte	0
 3668 0063 08       		.uleb128 0x8
 3669 0064 0D       		.uleb128 0xd
 3670 0065 00       		.byte	0
 3671 0066 03       		.uleb128 0x3
 3672 0067 0E       		.uleb128 0xe
 3673 0068 3A       		.uleb128 0x3a
 3674 0069 0B       		.uleb128 0xb
 3675 006a 3B       		.uleb128 0x3b
ARM GAS  /tmp/ccOzWYNS.s 			page 128


 3676 006b 05       		.uleb128 0x5
 3677 006c 49       		.uleb128 0x49
 3678 006d 13       		.uleb128 0x13
 3679 006e 38       		.uleb128 0x38
 3680 006f 0B       		.uleb128 0xb
 3681 0070 00       		.byte	0
 3682 0071 00       		.byte	0
 3683 0072 09       		.uleb128 0x9
 3684 0073 0F       		.uleb128 0xf
 3685 0074 00       		.byte	0
 3686 0075 0B       		.uleb128 0xb
 3687 0076 0B       		.uleb128 0xb
 3688 0077 49       		.uleb128 0x49
 3689 0078 13       		.uleb128 0x13
 3690 0079 00       		.byte	0
 3691 007a 00       		.byte	0
 3692 007b 0A       		.uleb128 0xa
 3693 007c 13       		.uleb128 0x13
 3694 007d 01       		.byte	0x1
 3695 007e 03       		.uleb128 0x3
 3696 007f 0E       		.uleb128 0xe
 3697 0080 0B       		.uleb128 0xb
 3698 0081 0B       		.uleb128 0xb
 3699 0082 3A       		.uleb128 0x3a
 3700 0083 0B       		.uleb128 0xb
 3701 0084 3B       		.uleb128 0x3b
 3702 0085 05       		.uleb128 0x5
 3703 0086 01       		.uleb128 0x1
 3704 0087 13       		.uleb128 0x13
 3705 0088 00       		.byte	0
 3706 0089 00       		.byte	0
 3707 008a 0B       		.uleb128 0xb
 3708 008b 15       		.uleb128 0x15
 3709 008c 01       		.byte	0x1
 3710 008d 27       		.uleb128 0x27
 3711 008e 19       		.uleb128 0x19
 3712 008f 01       		.uleb128 0x1
 3713 0090 13       		.uleb128 0x13
 3714 0091 00       		.byte	0
 3715 0092 00       		.byte	0
 3716 0093 0C       		.uleb128 0xc
 3717 0094 05       		.uleb128 0x5
 3718 0095 00       		.byte	0
 3719 0096 49       		.uleb128 0x49
 3720 0097 13       		.uleb128 0x13
 3721 0098 00       		.byte	0
 3722 0099 00       		.byte	0
 3723 009a 0D       		.uleb128 0xd
 3724 009b 0F       		.uleb128 0xf
 3725 009c 00       		.byte	0
 3726 009d 0B       		.uleb128 0xb
 3727 009e 0B       		.uleb128 0xb
 3728 009f 00       		.byte	0
 3729 00a0 00       		.byte	0
 3730 00a1 0E       		.uleb128 0xe
 3731 00a2 13       		.uleb128 0x13
 3732 00a3 01       		.byte	0x1
ARM GAS  /tmp/ccOzWYNS.s 			page 129


 3733 00a4 03       		.uleb128 0x3
 3734 00a5 0E       		.uleb128 0xe
 3735 00a6 0B       		.uleb128 0xb
 3736 00a7 05       		.uleb128 0x5
 3737 00a8 3A       		.uleb128 0x3a
 3738 00a9 0B       		.uleb128 0xb
 3739 00aa 3B       		.uleb128 0x3b
 3740 00ab 05       		.uleb128 0x5
 3741 00ac 01       		.uleb128 0x1
 3742 00ad 13       		.uleb128 0x13
 3743 00ae 00       		.byte	0
 3744 00af 00       		.byte	0
 3745 00b0 0F       		.uleb128 0xf
 3746 00b1 0D       		.uleb128 0xd
 3747 00b2 00       		.byte	0
 3748 00b3 03       		.uleb128 0x3
 3749 00b4 08       		.uleb128 0x8
 3750 00b5 3A       		.uleb128 0x3a
 3751 00b6 0B       		.uleb128 0xb
 3752 00b7 3B       		.uleb128 0x3b
 3753 00b8 0B       		.uleb128 0xb
 3754 00b9 49       		.uleb128 0x49
 3755 00ba 13       		.uleb128 0x13
 3756 00bb 38       		.uleb128 0x38
 3757 00bc 0B       		.uleb128 0xb
 3758 00bd 00       		.byte	0
 3759 00be 00       		.byte	0
 3760 00bf 10       		.uleb128 0x10
 3761 00c0 13       		.uleb128 0x13
 3762 00c1 01       		.byte	0x1
 3763 00c2 0B       		.uleb128 0xb
 3764 00c3 0B       		.uleb128 0xb
 3765 00c4 3A       		.uleb128 0x3a
 3766 00c5 0B       		.uleb128 0xb
 3767 00c6 3B       		.uleb128 0x3b
 3768 00c7 0B       		.uleb128 0xb
 3769 00c8 01       		.uleb128 0x1
 3770 00c9 13       		.uleb128 0x13
 3771 00ca 00       		.byte	0
 3772 00cb 00       		.byte	0
 3773 00cc 11       		.uleb128 0x11
 3774 00cd 17       		.uleb128 0x17
 3775 00ce 01       		.byte	0x1
 3776 00cf 0B       		.uleb128 0xb
 3777 00d0 0B       		.uleb128 0xb
 3778 00d1 3A       		.uleb128 0x3a
 3779 00d2 0B       		.uleb128 0xb
 3780 00d3 3B       		.uleb128 0x3b
 3781 00d4 0B       		.uleb128 0xb
 3782 00d5 01       		.uleb128 0x1
 3783 00d6 13       		.uleb128 0x13
 3784 00d7 00       		.byte	0
 3785 00d8 00       		.byte	0
 3786 00d9 12       		.uleb128 0x12
 3787 00da 0D       		.uleb128 0xd
 3788 00db 00       		.byte	0
 3789 00dc 03       		.uleb128 0x3
ARM GAS  /tmp/ccOzWYNS.s 			page 130


 3790 00dd 0E       		.uleb128 0xe
 3791 00de 3A       		.uleb128 0x3a
 3792 00df 0B       		.uleb128 0xb
 3793 00e0 3B       		.uleb128 0x3b
 3794 00e1 05       		.uleb128 0x5
 3795 00e2 49       		.uleb128 0x49
 3796 00e3 13       		.uleb128 0x13
 3797 00e4 00       		.byte	0
 3798 00e5 00       		.byte	0
 3799 00e6 13       		.uleb128 0x13
 3800 00e7 26       		.uleb128 0x26
 3801 00e8 00       		.byte	0
 3802 00e9 49       		.uleb128 0x49
 3803 00ea 13       		.uleb128 0x13
 3804 00eb 00       		.byte	0
 3805 00ec 00       		.byte	0
 3806 00ed 14       		.uleb128 0x14
 3807 00ee 35       		.uleb128 0x35
 3808 00ef 00       		.byte	0
 3809 00f0 49       		.uleb128 0x49
 3810 00f1 13       		.uleb128 0x13
 3811 00f2 00       		.byte	0
 3812 00f3 00       		.byte	0
 3813 00f4 15       		.uleb128 0x15
 3814 00f5 01       		.uleb128 0x1
 3815 00f6 01       		.byte	0x1
 3816 00f7 49       		.uleb128 0x49
 3817 00f8 13       		.uleb128 0x13
 3818 00f9 01       		.uleb128 0x1
 3819 00fa 13       		.uleb128 0x13
 3820 00fb 00       		.byte	0
 3821 00fc 00       		.byte	0
 3822 00fd 16       		.uleb128 0x16
 3823 00fe 21       		.uleb128 0x21
 3824 00ff 00       		.byte	0
 3825 0100 49       		.uleb128 0x49
 3826 0101 13       		.uleb128 0x13
 3827 0102 2F       		.uleb128 0x2f
 3828 0103 0B       		.uleb128 0xb
 3829 0104 00       		.byte	0
 3830 0105 00       		.byte	0
 3831 0106 17       		.uleb128 0x17
 3832 0107 2E       		.uleb128 0x2e
 3833 0108 01       		.byte	0x1
 3834 0109 03       		.uleb128 0x3
 3835 010a 0E       		.uleb128 0xe
 3836 010b 3A       		.uleb128 0x3a
 3837 010c 0B       		.uleb128 0xb
 3838 010d 3B       		.uleb128 0x3b
 3839 010e 05       		.uleb128 0x5
 3840 010f 27       		.uleb128 0x27
 3841 0110 19       		.uleb128 0x19
 3842 0111 20       		.uleb128 0x20
 3843 0112 0B       		.uleb128 0xb
 3844 0113 01       		.uleb128 0x1
 3845 0114 13       		.uleb128 0x13
 3846 0115 00       		.byte	0
ARM GAS  /tmp/ccOzWYNS.s 			page 131


 3847 0116 00       		.byte	0
 3848 0117 18       		.uleb128 0x18
 3849 0118 05       		.uleb128 0x5
 3850 0119 00       		.byte	0
 3851 011a 03       		.uleb128 0x3
 3852 011b 0E       		.uleb128 0xe
 3853 011c 3A       		.uleb128 0x3a
 3854 011d 0B       		.uleb128 0xb
 3855 011e 3B       		.uleb128 0x3b
 3856 011f 05       		.uleb128 0x5
 3857 0120 49       		.uleb128 0x49
 3858 0121 13       		.uleb128 0x13
 3859 0122 00       		.byte	0
 3860 0123 00       		.byte	0
 3861 0124 19       		.uleb128 0x19
 3862 0125 2E       		.uleb128 0x2e
 3863 0126 01       		.byte	0x1
 3864 0127 03       		.uleb128 0x3
 3865 0128 0E       		.uleb128 0xe
 3866 0129 3A       		.uleb128 0x3a
 3867 012a 0B       		.uleb128 0xb
 3868 012b 3B       		.uleb128 0x3b
 3869 012c 05       		.uleb128 0x5
 3870 012d 27       		.uleb128 0x27
 3871 012e 19       		.uleb128 0x19
 3872 012f 49       		.uleb128 0x49
 3873 0130 13       		.uleb128 0x13
 3874 0131 20       		.uleb128 0x20
 3875 0132 0B       		.uleb128 0xb
 3876 0133 01       		.uleb128 0x1
 3877 0134 13       		.uleb128 0x13
 3878 0135 00       		.byte	0
 3879 0136 00       		.byte	0
 3880 0137 1A       		.uleb128 0x1a
 3881 0138 34       		.uleb128 0x34
 3882 0139 00       		.byte	0
 3883 013a 03       		.uleb128 0x3
 3884 013b 0E       		.uleb128 0xe
 3885 013c 3A       		.uleb128 0x3a
 3886 013d 0B       		.uleb128 0xb
 3887 013e 3B       		.uleb128 0x3b
 3888 013f 05       		.uleb128 0x5
 3889 0140 49       		.uleb128 0x49
 3890 0141 13       		.uleb128 0x13
 3891 0142 00       		.byte	0
 3892 0143 00       		.byte	0
 3893 0144 1B       		.uleb128 0x1b
 3894 0145 2E       		.uleb128 0x2e
 3895 0146 01       		.byte	0x1
 3896 0147 03       		.uleb128 0x3
 3897 0148 0E       		.uleb128 0xe
 3898 0149 3A       		.uleb128 0x3a
 3899 014a 0B       		.uleb128 0xb
 3900 014b 3B       		.uleb128 0x3b
 3901 014c 05       		.uleb128 0x5
 3902 014d 27       		.uleb128 0x27
 3903 014e 19       		.uleb128 0x19
ARM GAS  /tmp/ccOzWYNS.s 			page 132


 3904 014f 11       		.uleb128 0x11
 3905 0150 01       		.uleb128 0x1
 3906 0151 12       		.uleb128 0x12
 3907 0152 06       		.uleb128 0x6
 3908 0153 40       		.uleb128 0x40
 3909 0154 18       		.uleb128 0x18
 3910 0155 9742     		.uleb128 0x2117
 3911 0157 19       		.uleb128 0x19
 3912 0158 01       		.uleb128 0x1
 3913 0159 13       		.uleb128 0x13
 3914 015a 00       		.byte	0
 3915 015b 00       		.byte	0
 3916 015c 1C       		.uleb128 0x1c
 3917 015d 1D       		.uleb128 0x1d
 3918 015e 01       		.byte	0x1
 3919 015f 31       		.uleb128 0x31
 3920 0160 13       		.uleb128 0x13
 3921 0161 11       		.uleb128 0x11
 3922 0162 01       		.uleb128 0x1
 3923 0163 12       		.uleb128 0x12
 3924 0164 06       		.uleb128 0x6
 3925 0165 58       		.uleb128 0x58
 3926 0166 0B       		.uleb128 0xb
 3927 0167 59       		.uleb128 0x59
 3928 0168 05       		.uleb128 0x5
 3929 0169 00       		.byte	0
 3930 016a 00       		.byte	0
 3931 016b 1D       		.uleb128 0x1d
 3932 016c 05       		.uleb128 0x5
 3933 016d 00       		.byte	0
 3934 016e 31       		.uleb128 0x31
 3935 016f 13       		.uleb128 0x13
 3936 0170 02       		.uleb128 0x2
 3937 0171 18       		.uleb128 0x18
 3938 0172 00       		.byte	0
 3939 0173 00       		.byte	0
 3940 0174 1E       		.uleb128 0x1e
 3941 0175 2E       		.uleb128 0x2e
 3942 0176 00       		.byte	0
 3943 0177 03       		.uleb128 0x3
 3944 0178 0E       		.uleb128 0xe
 3945 0179 3A       		.uleb128 0x3a
 3946 017a 0B       		.uleb128 0xb
 3947 017b 3B       		.uleb128 0x3b
 3948 017c 05       		.uleb128 0x5
 3949 017d 27       		.uleb128 0x27
 3950 017e 19       		.uleb128 0x19
 3951 017f 11       		.uleb128 0x11
 3952 0180 01       		.uleb128 0x1
 3953 0181 12       		.uleb128 0x12
 3954 0182 06       		.uleb128 0x6
 3955 0183 40       		.uleb128 0x40
 3956 0184 18       		.uleb128 0x18
 3957 0185 9642     		.uleb128 0x2116
 3958 0187 19       		.uleb128 0x19
 3959 0188 00       		.byte	0
 3960 0189 00       		.byte	0
ARM GAS  /tmp/ccOzWYNS.s 			page 133


 3961 018a 1F       		.uleb128 0x1f
 3962 018b 05       		.uleb128 0x5
 3963 018c 00       		.byte	0
 3964 018d 03       		.uleb128 0x3
 3965 018e 08       		.uleb128 0x8
 3966 018f 3A       		.uleb128 0x3a
 3967 0190 0B       		.uleb128 0xb
 3968 0191 3B       		.uleb128 0x3b
 3969 0192 05       		.uleb128 0x5
 3970 0193 49       		.uleb128 0x49
 3971 0194 13       		.uleb128 0x13
 3972 0195 02       		.uleb128 0x2
 3973 0196 18       		.uleb128 0x18
 3974 0197 00       		.byte	0
 3975 0198 00       		.byte	0
 3976 0199 20       		.uleb128 0x20
 3977 019a 2E       		.uleb128 0x2e
 3978 019b 01       		.byte	0x1
 3979 019c 03       		.uleb128 0x3
 3980 019d 0E       		.uleb128 0xe
 3981 019e 3A       		.uleb128 0x3a
 3982 019f 0B       		.uleb128 0xb
 3983 01a0 3B       		.uleb128 0x3b
 3984 01a1 05       		.uleb128 0x5
 3985 01a2 27       		.uleb128 0x27
 3986 01a3 19       		.uleb128 0x19
 3987 01a4 49       		.uleb128 0x49
 3988 01a5 13       		.uleb128 0x13
 3989 01a6 11       		.uleb128 0x11
 3990 01a7 01       		.uleb128 0x1
 3991 01a8 12       		.uleb128 0x12
 3992 01a9 06       		.uleb128 0x6
 3993 01aa 40       		.uleb128 0x40
 3994 01ab 18       		.uleb128 0x18
 3995 01ac 9742     		.uleb128 0x2117
 3996 01ae 19       		.uleb128 0x19
 3997 01af 01       		.uleb128 0x1
 3998 01b0 13       		.uleb128 0x13
 3999 01b1 00       		.byte	0
 4000 01b2 00       		.byte	0
 4001 01b3 21       		.uleb128 0x21
 4002 01b4 34       		.uleb128 0x34
 4003 01b5 00       		.byte	0
 4004 01b6 03       		.uleb128 0x3
 4005 01b7 08       		.uleb128 0x8
 4006 01b8 3A       		.uleb128 0x3a
 4007 01b9 0B       		.uleb128 0xb
 4008 01ba 3B       		.uleb128 0x3b
 4009 01bb 05       		.uleb128 0x5
 4010 01bc 49       		.uleb128 0x49
 4011 01bd 13       		.uleb128 0x13
 4012 01be 02       		.uleb128 0x2
 4013 01bf 18       		.uleb128 0x18
 4014 01c0 00       		.byte	0
 4015 01c1 00       		.byte	0
 4016 01c2 22       		.uleb128 0x22
 4017 01c3 2E       		.uleb128 0x2e
ARM GAS  /tmp/ccOzWYNS.s 			page 134


 4018 01c4 00       		.byte	0
 4019 01c5 03       		.uleb128 0x3
 4020 01c6 0E       		.uleb128 0xe
 4021 01c7 3A       		.uleb128 0x3a
 4022 01c8 0B       		.uleb128 0xb
 4023 01c9 3B       		.uleb128 0x3b
 4024 01ca 05       		.uleb128 0x5
 4025 01cb 27       		.uleb128 0x27
 4026 01cc 19       		.uleb128 0x19
 4027 01cd 49       		.uleb128 0x49
 4028 01ce 13       		.uleb128 0x13
 4029 01cf 11       		.uleb128 0x11
 4030 01d0 01       		.uleb128 0x1
 4031 01d1 12       		.uleb128 0x12
 4032 01d2 06       		.uleb128 0x6
 4033 01d3 40       		.uleb128 0x40
 4034 01d4 18       		.uleb128 0x18
 4035 01d5 9742     		.uleb128 0x2117
 4036 01d7 19       		.uleb128 0x19
 4037 01d8 00       		.byte	0
 4038 01d9 00       		.byte	0
 4039 01da 23       		.uleb128 0x23
 4040 01db 2E       		.uleb128 0x2e
 4041 01dc 01       		.byte	0x1
 4042 01dd 03       		.uleb128 0x3
 4043 01de 0E       		.uleb128 0xe
 4044 01df 3A       		.uleb128 0x3a
 4045 01e0 0B       		.uleb128 0xb
 4046 01e1 3B       		.uleb128 0x3b
 4047 01e2 0B       		.uleb128 0xb
 4048 01e3 27       		.uleb128 0x27
 4049 01e4 19       		.uleb128 0x19
 4050 01e5 11       		.uleb128 0x11
 4051 01e6 01       		.uleb128 0x1
 4052 01e7 12       		.uleb128 0x12
 4053 01e8 06       		.uleb128 0x6
 4054 01e9 40       		.uleb128 0x40
 4055 01ea 18       		.uleb128 0x18
 4056 01eb 9742     		.uleb128 0x2117
 4057 01ed 19       		.uleb128 0x19
 4058 01ee 01       		.uleb128 0x1
 4059 01ef 13       		.uleb128 0x13
 4060 01f0 00       		.byte	0
 4061 01f1 00       		.byte	0
 4062 01f2 24       		.uleb128 0x24
 4063 01f3 05       		.uleb128 0x5
 4064 01f4 00       		.byte	0
 4065 01f5 03       		.uleb128 0x3
 4066 01f6 08       		.uleb128 0x8
 4067 01f7 3A       		.uleb128 0x3a
 4068 01f8 0B       		.uleb128 0xb
 4069 01f9 3B       		.uleb128 0x3b
 4070 01fa 0B       		.uleb128 0xb
 4071 01fb 49       		.uleb128 0x49
 4072 01fc 13       		.uleb128 0x13
 4073 01fd 02       		.uleb128 0x2
 4074 01fe 18       		.uleb128 0x18
ARM GAS  /tmp/ccOzWYNS.s 			page 135


 4075 01ff 00       		.byte	0
 4076 0200 00       		.byte	0
 4077 0201 25       		.uleb128 0x25
 4078 0202 2E       		.uleb128 0x2e
 4079 0203 00       		.byte	0
 4080 0204 3F       		.uleb128 0x3f
 4081 0205 19       		.uleb128 0x19
 4082 0206 03       		.uleb128 0x3
 4083 0207 0E       		.uleb128 0xe
 4084 0208 3A       		.uleb128 0x3a
 4085 0209 0B       		.uleb128 0xb
 4086 020a 3B       		.uleb128 0x3b
 4087 020b 0B       		.uleb128 0xb
 4088 020c 27       		.uleb128 0x27
 4089 020d 19       		.uleb128 0x19
 4090 020e 11       		.uleb128 0x11
 4091 020f 01       		.uleb128 0x1
 4092 0210 12       		.uleb128 0x12
 4093 0211 06       		.uleb128 0x6
 4094 0212 40       		.uleb128 0x40
 4095 0213 18       		.uleb128 0x18
 4096 0214 9642     		.uleb128 0x2116
 4097 0216 19       		.uleb128 0x19
 4098 0217 00       		.byte	0
 4099 0218 00       		.byte	0
 4100 0219 26       		.uleb128 0x26
 4101 021a 2E       		.uleb128 0x2e
 4102 021b 01       		.byte	0x1
 4103 021c 3F       		.uleb128 0x3f
 4104 021d 19       		.uleb128 0x19
 4105 021e 03       		.uleb128 0x3
 4106 021f 0E       		.uleb128 0xe
 4107 0220 3A       		.uleb128 0x3a
 4108 0221 0B       		.uleb128 0xb
 4109 0222 3B       		.uleb128 0x3b
 4110 0223 0B       		.uleb128 0xb
 4111 0224 27       		.uleb128 0x27
 4112 0225 19       		.uleb128 0x19
 4113 0226 49       		.uleb128 0x49
 4114 0227 13       		.uleb128 0x13
 4115 0228 11       		.uleb128 0x11
 4116 0229 01       		.uleb128 0x1
 4117 022a 12       		.uleb128 0x12
 4118 022b 06       		.uleb128 0x6
 4119 022c 40       		.uleb128 0x40
 4120 022d 18       		.uleb128 0x18
 4121 022e 9742     		.uleb128 0x2117
 4122 0230 19       		.uleb128 0x19
 4123 0231 01       		.uleb128 0x1
 4124 0232 13       		.uleb128 0x13
 4125 0233 00       		.byte	0
 4126 0234 00       		.byte	0
 4127 0235 27       		.uleb128 0x27
 4128 0236 34       		.uleb128 0x34
 4129 0237 00       		.byte	0
 4130 0238 03       		.uleb128 0x3
 4131 0239 08       		.uleb128 0x8
ARM GAS  /tmp/ccOzWYNS.s 			page 136


 4132 023a 3A       		.uleb128 0x3a
 4133 023b 0B       		.uleb128 0xb
 4134 023c 3B       		.uleb128 0x3b
 4135 023d 0B       		.uleb128 0xb
 4136 023e 49       		.uleb128 0x49
 4137 023f 13       		.uleb128 0x13
 4138 0240 02       		.uleb128 0x2
 4139 0241 18       		.uleb128 0x18
 4140 0242 00       		.byte	0
 4141 0243 00       		.byte	0
 4142 0244 28       		.uleb128 0x28
 4143 0245 34       		.uleb128 0x34
 4144 0246 00       		.byte	0
 4145 0247 03       		.uleb128 0x3
 4146 0248 0E       		.uleb128 0xe
 4147 0249 49       		.uleb128 0x49
 4148 024a 13       		.uleb128 0x13
 4149 024b 34       		.uleb128 0x34
 4150 024c 19       		.uleb128 0x19
 4151 024d 00       		.byte	0
 4152 024e 00       		.byte	0
 4153 024f 29       		.uleb128 0x29
 4154 0250 2E       		.uleb128 0x2e
 4155 0251 01       		.byte	0x1
 4156 0252 3F       		.uleb128 0x3f
 4157 0253 19       		.uleb128 0x19
 4158 0254 03       		.uleb128 0x3
 4159 0255 0E       		.uleb128 0xe
 4160 0256 3A       		.uleb128 0x3a
 4161 0257 0B       		.uleb128 0xb
 4162 0258 3B       		.uleb128 0x3b
 4163 0259 0B       		.uleb128 0xb
 4164 025a 27       		.uleb128 0x27
 4165 025b 19       		.uleb128 0x19
 4166 025c 11       		.uleb128 0x11
 4167 025d 01       		.uleb128 0x1
 4168 025e 12       		.uleb128 0x12
 4169 025f 06       		.uleb128 0x6
 4170 0260 40       		.uleb128 0x40
 4171 0261 18       		.uleb128 0x18
 4172 0262 9642     		.uleb128 0x2116
 4173 0264 19       		.uleb128 0x19
 4174 0265 01       		.uleb128 0x1
 4175 0266 13       		.uleb128 0x13
 4176 0267 00       		.byte	0
 4177 0268 00       		.byte	0
 4178 0269 2A       		.uleb128 0x2a
 4179 026a 05       		.uleb128 0x5
 4180 026b 00       		.byte	0
 4181 026c 03       		.uleb128 0x3
 4182 026d 0E       		.uleb128 0xe
 4183 026e 3A       		.uleb128 0x3a
 4184 026f 0B       		.uleb128 0xb
 4185 0270 3B       		.uleb128 0x3b
 4186 0271 0B       		.uleb128 0xb
 4187 0272 49       		.uleb128 0x49
 4188 0273 13       		.uleb128 0x13
ARM GAS  /tmp/ccOzWYNS.s 			page 137


 4189 0274 02       		.uleb128 0x2
 4190 0275 18       		.uleb128 0x18
 4191 0276 00       		.byte	0
 4192 0277 00       		.byte	0
 4193 0278 2B       		.uleb128 0x2b
 4194 0279 0B       		.uleb128 0xb
 4195 027a 01       		.byte	0x1
 4196 027b 11       		.uleb128 0x11
 4197 027c 01       		.uleb128 0x1
 4198 027d 12       		.uleb128 0x12
 4199 027e 06       		.uleb128 0x6
 4200 027f 00       		.byte	0
 4201 0280 00       		.byte	0
 4202 0281 2C       		.uleb128 0x2c
 4203 0282 34       		.uleb128 0x34
 4204 0283 00       		.byte	0
 4205 0284 31       		.uleb128 0x31
 4206 0285 13       		.uleb128 0x13
 4207 0286 02       		.uleb128 0x2
 4208 0287 18       		.uleb128 0x18
 4209 0288 00       		.byte	0
 4210 0289 00       		.byte	0
 4211 028a 2D       		.uleb128 0x2d
 4212 028b 2E       		.uleb128 0x2e
 4213 028c 01       		.byte	0x1
 4214 028d 03       		.uleb128 0x3
 4215 028e 0E       		.uleb128 0xe
 4216 028f 3A       		.uleb128 0x3a
 4217 0290 0B       		.uleb128 0xb
 4218 0291 3B       		.uleb128 0x3b
 4219 0292 05       		.uleb128 0x5
 4220 0293 27       		.uleb128 0x27
 4221 0294 19       		.uleb128 0x19
 4222 0295 11       		.uleb128 0x11
 4223 0296 01       		.uleb128 0x1
 4224 0297 12       		.uleb128 0x12
 4225 0298 06       		.uleb128 0x6
 4226 0299 40       		.uleb128 0x40
 4227 029a 18       		.uleb128 0x18
 4228 029b 9642     		.uleb128 0x2116
 4229 029d 19       		.uleb128 0x19
 4230 029e 01       		.uleb128 0x1
 4231 029f 13       		.uleb128 0x13
 4232 02a0 00       		.byte	0
 4233 02a1 00       		.byte	0
 4234 02a2 2E       		.uleb128 0x2e
 4235 02a3 2E       		.uleb128 0x2e
 4236 02a4 01       		.byte	0x1
 4237 02a5 3F       		.uleb128 0x3f
 4238 02a6 19       		.uleb128 0x19
 4239 02a7 03       		.uleb128 0x3
 4240 02a8 0E       		.uleb128 0xe
 4241 02a9 3A       		.uleb128 0x3a
 4242 02aa 0B       		.uleb128 0xb
 4243 02ab 3B       		.uleb128 0x3b
 4244 02ac 05       		.uleb128 0x5
 4245 02ad 27       		.uleb128 0x27
ARM GAS  /tmp/ccOzWYNS.s 			page 138


 4246 02ae 19       		.uleb128 0x19
 4247 02af 49       		.uleb128 0x49
 4248 02b0 13       		.uleb128 0x13
 4249 02b1 11       		.uleb128 0x11
 4250 02b2 01       		.uleb128 0x1
 4251 02b3 12       		.uleb128 0x12
 4252 02b4 06       		.uleb128 0x6
 4253 02b5 40       		.uleb128 0x40
 4254 02b6 18       		.uleb128 0x18
 4255 02b7 9642     		.uleb128 0x2116
 4256 02b9 19       		.uleb128 0x19
 4257 02ba 01       		.uleb128 0x1
 4258 02bb 13       		.uleb128 0x13
 4259 02bc 00       		.byte	0
 4260 02bd 00       		.byte	0
 4261 02be 2F       		.uleb128 0x2f
 4262 02bf 05       		.uleb128 0x5
 4263 02c0 00       		.byte	0
 4264 02c1 03       		.uleb128 0x3
 4265 02c2 0E       		.uleb128 0xe
 4266 02c3 3A       		.uleb128 0x3a
 4267 02c4 0B       		.uleb128 0xb
 4268 02c5 3B       		.uleb128 0x3b
 4269 02c6 05       		.uleb128 0x5
 4270 02c7 49       		.uleb128 0x49
 4271 02c8 13       		.uleb128 0x13
 4272 02c9 02       		.uleb128 0x2
 4273 02ca 18       		.uleb128 0x18
 4274 02cb 00       		.byte	0
 4275 02cc 00       		.byte	0
 4276 02cd 30       		.uleb128 0x30
 4277 02ce 2E       		.uleb128 0x2e
 4278 02cf 01       		.byte	0x1
 4279 02d0 3F       		.uleb128 0x3f
 4280 02d1 19       		.uleb128 0x19
 4281 02d2 03       		.uleb128 0x3
 4282 02d3 0E       		.uleb128 0xe
 4283 02d4 3A       		.uleb128 0x3a
 4284 02d5 0B       		.uleb128 0xb
 4285 02d6 3B       		.uleb128 0x3b
 4286 02d7 05       		.uleb128 0x5
 4287 02d8 27       		.uleb128 0x27
 4288 02d9 19       		.uleb128 0x19
 4289 02da 11       		.uleb128 0x11
 4290 02db 01       		.uleb128 0x1
 4291 02dc 12       		.uleb128 0x12
 4292 02dd 06       		.uleb128 0x6
 4293 02de 40       		.uleb128 0x40
 4294 02df 18       		.uleb128 0x18
 4295 02e0 9642     		.uleb128 0x2116
 4296 02e2 19       		.uleb128 0x19
 4297 02e3 01       		.uleb128 0x1
 4298 02e4 13       		.uleb128 0x13
 4299 02e5 00       		.byte	0
 4300 02e6 00       		.byte	0
 4301 02e7 31       		.uleb128 0x31
 4302 02e8 2E       		.uleb128 0x2e
ARM GAS  /tmp/ccOzWYNS.s 			page 139


 4303 02e9 00       		.byte	0
 4304 02ea 3F       		.uleb128 0x3f
 4305 02eb 19       		.uleb128 0x19
 4306 02ec 03       		.uleb128 0x3
 4307 02ed 0E       		.uleb128 0xe
 4308 02ee 3A       		.uleb128 0x3a
 4309 02ef 0B       		.uleb128 0xb
 4310 02f0 3B       		.uleb128 0x3b
 4311 02f1 05       		.uleb128 0x5
 4312 02f2 27       		.uleb128 0x27
 4313 02f3 19       		.uleb128 0x19
 4314 02f4 11       		.uleb128 0x11
 4315 02f5 01       		.uleb128 0x1
 4316 02f6 12       		.uleb128 0x12
 4317 02f7 06       		.uleb128 0x6
 4318 02f8 40       		.uleb128 0x40
 4319 02f9 18       		.uleb128 0x18
 4320 02fa 9642     		.uleb128 0x2116
 4321 02fc 19       		.uleb128 0x19
 4322 02fd 00       		.byte	0
 4323 02fe 00       		.byte	0
 4324 02ff 32       		.uleb128 0x32
 4325 0300 2E       		.uleb128 0x2e
 4326 0301 01       		.byte	0x1
 4327 0302 3F       		.uleb128 0x3f
 4328 0303 19       		.uleb128 0x19
 4329 0304 03       		.uleb128 0x3
 4330 0305 0E       		.uleb128 0xe
 4331 0306 3A       		.uleb128 0x3a
 4332 0307 0B       		.uleb128 0xb
 4333 0308 3B       		.uleb128 0x3b
 4334 0309 05       		.uleb128 0x5
 4335 030a 27       		.uleb128 0x27
 4336 030b 19       		.uleb128 0x19
 4337 030c 49       		.uleb128 0x49
 4338 030d 13       		.uleb128 0x13
 4339 030e 11       		.uleb128 0x11
 4340 030f 01       		.uleb128 0x1
 4341 0310 12       		.uleb128 0x12
 4342 0311 06       		.uleb128 0x6
 4343 0312 40       		.uleb128 0x40
 4344 0313 18       		.uleb128 0x18
 4345 0314 9742     		.uleb128 0x2117
 4346 0316 19       		.uleb128 0x19
 4347 0317 01       		.uleb128 0x1
 4348 0318 13       		.uleb128 0x13
 4349 0319 00       		.byte	0
 4350 031a 00       		.byte	0
 4351 031b 33       		.uleb128 0x33
 4352 031c 34       		.uleb128 0x34
 4353 031d 00       		.byte	0
 4354 031e 03       		.uleb128 0x3
 4355 031f 0E       		.uleb128 0xe
 4356 0320 3A       		.uleb128 0x3a
 4357 0321 0B       		.uleb128 0xb
 4358 0322 3B       		.uleb128 0x3b
 4359 0323 05       		.uleb128 0x5
ARM GAS  /tmp/ccOzWYNS.s 			page 140


 4360 0324 49       		.uleb128 0x49
 4361 0325 13       		.uleb128 0x13
 4362 0326 3F       		.uleb128 0x3f
 4363 0327 19       		.uleb128 0x19
 4364 0328 3C       		.uleb128 0x3c
 4365 0329 19       		.uleb128 0x19
 4366 032a 00       		.byte	0
 4367 032b 00       		.byte	0
 4368 032c 34       		.uleb128 0x34
 4369 032d 34       		.uleb128 0x34
 4370 032e 00       		.byte	0
 4371 032f 03       		.uleb128 0x3
 4372 0330 08       		.uleb128 0x8
 4373 0331 3A       		.uleb128 0x3a
 4374 0332 0B       		.uleb128 0xb
 4375 0333 3B       		.uleb128 0x3b
 4376 0334 0B       		.uleb128 0xb
 4377 0335 49       		.uleb128 0x49
 4378 0336 13       		.uleb128 0x13
 4379 0337 3F       		.uleb128 0x3f
 4380 0338 19       		.uleb128 0x19
 4381 0339 02       		.uleb128 0x2
 4382 033a 18       		.uleb128 0x18
 4383 033b 00       		.byte	0
 4384 033c 00       		.byte	0
 4385 033d 00       		.byte	0
 4386              		.section	.debug_aranges,"",%progbits
 4387 0000 CC000000 		.4byte	0xcc
 4388 0004 0200     		.2byte	0x2
 4389 0006 00000000 		.4byte	.Ldebug_info0
 4390 000a 04       		.byte	0x4
 4391 000b 00       		.byte	0
 4392 000c 0000     		.2byte	0
 4393 000e 0000     		.2byte	0
 4394 0010 00000000 		.4byte	.LFB127
 4395 0014 10000000 		.4byte	.LFE127-.LFB127
 4396 0018 00000000 		.4byte	.LFB128
 4397 001c 10000000 		.4byte	.LFE128-.LFB128
 4398 0020 00000000 		.4byte	.LFB129
 4399 0024 08000000 		.4byte	.LFE129-.LFB129
 4400 0028 00000000 		.4byte	.LFB130
 4401 002c 08000000 		.4byte	.LFE130-.LFB130
 4402 0030 00000000 		.4byte	.LFB150
 4403 0034 14000000 		.4byte	.LFE150-.LFB150
 4404 0038 00000000 		.4byte	.LFB157
 4405 003c 22000000 		.4byte	.LFE157-.LFB157
 4406 0040 00000000 		.4byte	.LFB159
 4407 0044 20000000 		.4byte	.LFE159-.LFB159
 4408 0048 00000000 		.4byte	.LFB160
 4409 004c 20000000 		.4byte	.LFE160-.LFB160
 4410 0050 00000000 		.4byte	.LFB169
 4411 0054 08000000 		.4byte	.LFE169-.LFB169
 4412 0058 00000000 		.4byte	.LFB170
 4413 005c 08000000 		.4byte	.LFE170-.LFB170
 4414 0060 00000000 		.4byte	.LFB182
 4415 0064 18000000 		.4byte	.LFE182-.LFB182
 4416 0068 00000000 		.4byte	.LFB202
ARM GAS  /tmp/ccOzWYNS.s 			page 141


 4417 006c 12000000 		.4byte	.LFE202-.LFB202
 4418 0070 00000000 		.4byte	.LFB241
 4419 0074 20000000 		.4byte	.LFE241-.LFB241
 4420 0078 00000000 		.4byte	.LFB242
 4421 007c 4C000000 		.4byte	.LFE242-.LFB242
 4422 0080 00000000 		.4byte	.LFB243
 4423 0084 68000000 		.4byte	.LFE243-.LFB243
 4424 0088 00000000 		.4byte	.LFB244
 4425 008c 7C000000 		.4byte	.LFE244-.LFB244
 4426 0090 00000000 		.4byte	.LFB245
 4427 0094 68000000 		.4byte	.LFE245-.LFB245
 4428 0098 00000000 		.4byte	.LFB246
 4429 009c 70000000 		.4byte	.LFE246-.LFB246
 4430 00a0 00000000 		.4byte	.LFB247
 4431 00a4 12000000 		.4byte	.LFE247-.LFB247
 4432 00a8 00000000 		.4byte	.LFB248
 4433 00ac 2C000000 		.4byte	.LFE248-.LFB248
 4434 00b0 00000000 		.4byte	.LFB249
 4435 00b4 5C000000 		.4byte	.LFE249-.LFB249
 4436 00b8 00000000 		.4byte	.LFB250
 4437 00bc 90000000 		.4byte	.LFE250-.LFB250
 4438 00c0 00000000 		.4byte	.LFB251
 4439 00c4 08000000 		.4byte	.LFE251-.LFB251
 4440 00c8 00000000 		.4byte	0
 4441 00cc 00000000 		.4byte	0
 4442              		.section	.debug_ranges,"",%progbits
 4443              	.Ldebug_ranges0:
 4444 0000 00000000 		.4byte	.LFB127
 4445 0004 10000000 		.4byte	.LFE127
 4446 0008 00000000 		.4byte	.LFB128
 4447 000c 10000000 		.4byte	.LFE128
 4448 0010 00000000 		.4byte	.LFB129
 4449 0014 08000000 		.4byte	.LFE129
 4450 0018 00000000 		.4byte	.LFB130
 4451 001c 08000000 		.4byte	.LFE130
 4452 0020 00000000 		.4byte	.LFB150
 4453 0024 14000000 		.4byte	.LFE150
 4454 0028 00000000 		.4byte	.LFB157
 4455 002c 22000000 		.4byte	.LFE157
 4456 0030 00000000 		.4byte	.LFB159
 4457 0034 20000000 		.4byte	.LFE159
 4458 0038 00000000 		.4byte	.LFB160
 4459 003c 20000000 		.4byte	.LFE160
 4460 0040 00000000 		.4byte	.LFB169
 4461 0044 08000000 		.4byte	.LFE169
 4462 0048 00000000 		.4byte	.LFB170
 4463 004c 08000000 		.4byte	.LFE170
 4464 0050 00000000 		.4byte	.LFB182
 4465 0054 18000000 		.4byte	.LFE182
 4466 0058 00000000 		.4byte	.LFB202
 4467 005c 12000000 		.4byte	.LFE202
 4468 0060 00000000 		.4byte	.LFB241
 4469 0064 20000000 		.4byte	.LFE241
 4470 0068 00000000 		.4byte	.LFB242
 4471 006c 4C000000 		.4byte	.LFE242
 4472 0070 00000000 		.4byte	.LFB243
 4473 0074 68000000 		.4byte	.LFE243
ARM GAS  /tmp/ccOzWYNS.s 			page 142


 4474 0078 00000000 		.4byte	.LFB244
 4475 007c 7C000000 		.4byte	.LFE244
 4476 0080 00000000 		.4byte	.LFB245
 4477 0084 68000000 		.4byte	.LFE245
 4478 0088 00000000 		.4byte	.LFB246
 4479 008c 70000000 		.4byte	.LFE246
 4480 0090 00000000 		.4byte	.LFB247
 4481 0094 12000000 		.4byte	.LFE247
 4482 0098 00000000 		.4byte	.LFB248
 4483 009c 2C000000 		.4byte	.LFE248
 4484 00a0 00000000 		.4byte	.LFB249
 4485 00a4 5C000000 		.4byte	.LFE249
 4486 00a8 00000000 		.4byte	.LFB250
 4487 00ac 90000000 		.4byte	.LFE250
 4488 00b0 00000000 		.4byte	.LFB251
 4489 00b4 08000000 		.4byte	.LFE251
 4490 00b8 00000000 		.4byte	0
 4491 00bc 00000000 		.4byte	0
 4492              		.section	.debug_line,"",%progbits
 4493              	.Ldebug_line0:
 4494 0000 6E050000 		.section	.debug_str,"MS",%progbits,1
 4494      0200D002 
 4494      00000201 
 4494      FB0E0D00 
 4494      01010101 
 4495              	.LASF51:
 4496 0000 72656164 		.ascii	"ready_list_t\000"
 4496      795F6C69 
 4496      73745F74 
 4496      00
 4497              	.LASF2:
 4498 000d 73697A65 		.ascii	"size_t\000"
 4498      5F7400
 4499              	.LASF86:
 4500 0014 7264796D 		.ascii	"rdymsg\000"
 4500      736700
 4501              	.LASF17:
 4502 001b 75696E74 		.ascii	"uint64_t\000"
 4502      36345F74 
 4502      00
 4503              	.LASF129:
 4504 0024 63685363 		.ascii	"chSchDoRescheduleAhead\000"
 4504      68446F52 
 4504      65736368 
 4504      6564756C 
 4504      65416865 
 4505              	.LASF3:
 4506 003b 5F5F7569 		.ascii	"__uint8_t\000"
 4506      6E74385F 
 4506      7400
 4507              	.LASF83:
 4508 0045 706F7274 		.ascii	"port_intctx\000"
 4508      5F696E74 
 4508      63747800 
 4509              	.LASF70:
 4510 0051 73797374 		.ascii	"system_debug_t\000"
 4510      656D5F64 
ARM GAS  /tmp/ccOzWYNS.s 			page 143


 4510      65627567 
 4510      5F7400
 4511              	.LASF108:
 4512 0060 71756575 		.ascii	"queue_init\000"
 4512      655F696E 
 4512      697400
 4513              	.LASF104:
 4514 006b 706F7274 		.ascii	"port_lock\000"
 4514      5F6C6F63 
 4514      6B00
 4515              	.LASF13:
 4516 0075 6C6F6E67 		.ascii	"long long unsigned int\000"
 4516      206C6F6E 
 4516      6720756E 
 4516      7369676E 
 4516      65642069 
 4517              	.LASF87:
 4518 008c 65786974 		.ascii	"exitcode\000"
 4518      636F6465 
 4518      00
 4519              	.LASF77:
 4520 0095 6D61696E 		.ascii	"mainthread\000"
 4520      74687265 
 4520      616400
 4521              	.LASF90:
 4522 00a0 73656E74 		.ascii	"sentmsg\000"
 4522      6D736700 
 4523              	.LASF67:
 4524 00a8 76697274 		.ascii	"virtual_timers_list_t\000"
 4524      75616C5F 
 4524      74696D65 
 4524      72735F6C 
 4524      6973745F 
 4525              	.LASF131:
 4526 00be 49544D5F 		.ascii	"ITM_RxBuffer\000"
 4526      52784275 
 4526      66666572 
 4526      00
 4527              	.LASF50:
 4528 00cb 63685F74 		.ascii	"ch_threads_queue\000"
 4528      68726561 
 4528      64735F71 
 4528      75657565 
 4528      00
 4529              	.LASF30:
 4530 00dc 705F7072 		.ascii	"p_prio\000"
 4530      696F00
 4531              	.LASF125:
 4532 00e3 5F736368 		.ascii	"_scheduler_init\000"
 4532      6564756C 
 4532      65725F69 
 4532      6E697400 
 4533              	.LASF11:
 4534 00f3 6C6F6E67 		.ascii	"long long int\000"
 4534      206C6F6E 
 4534      6720696E 
 4534      7400
ARM GAS  /tmp/ccOzWYNS.s 			page 144


 4535              	.LASF1:
 4536 0101 7369676E 		.ascii	"signed char\000"
 4536      65642063 
 4536      68617200 
 4537              	.LASF44:
 4538 010d 705F6D70 		.ascii	"p_mpool\000"
 4538      6F6F6C00 
 4539              	.LASF98:
 4540 0115 6D5F7175 		.ascii	"m_queue\000"
 4540      65756500 
 4541              	.LASF76:
 4542 011d 76746C69 		.ascii	"vtlist\000"
 4542      737400
 4543              	.LASF105:
 4544 0124 706F7274 		.ascii	"port_unlock\000"
 4544      5F756E6C 
 4544      6F636B00 
 4545              	.LASF89:
 4546 0130 77747472 		.ascii	"wttrp\000"
 4546      7000
 4547              	.LASF74:
 4548 0136 63685F73 		.ascii	"ch_system\000"
 4548      79737465 
 4548      6D00
 4549              	.LASF8:
 4550 0140 6C6F6E67 		.ascii	"long int\000"
 4550      20696E74 
 4550      00
 4551              	.LASF110:
 4552 0149 71756575 		.ascii	"queue_dequeue\000"
 4552      655F6465 
 4552      71756575 
 4552      6500
 4553              	.LASF20:
 4554 0157 74737461 		.ascii	"tstate_t\000"
 4554      74655F74 
 4554      00
 4555              	.LASF127:
 4556 0160 63685363 		.ascii	"chSchIsPreemptionRequired\000"
 4556      68497350 
 4556      7265656D 
 4556      7074696F 
 4556      6E526571 
 4557              	.LASF32:
 4558 017a 705F6E65 		.ascii	"p_newer\000"
 4558      77657200 
 4559              	.LASF95:
 4560 0182 735F7175 		.ascii	"s_queue\000"
 4560      65756500 
 4561              	.LASF123:
 4562 018a 5F5F6675 		.ascii	"__func__.6401\000"
 4562      6E635F5F 
 4562      2E363430 
 4562      3100
 4563              	.LASF126:
 4564 0198 63685363 		.ascii	"chSchRescheduleS\000"
 4564      68526573 
ARM GAS  /tmp/ccOzWYNS.s 			page 145


 4564      63686564 
 4564      756C6553 
 4564      00
 4565              	.LASF56:
 4566 01a9 725F6E65 		.ascii	"r_newer\000"
 4566      77657200 
 4567              	.LASF80:
 4568 01b1 72656761 		.ascii	"regarm_t\000"
 4568      726D5F74 
 4568      00
 4569              	.LASF130:
 4570 01ba 63685363 		.ascii	"chSchDoReschedule\000"
 4570      68446F52 
 4570      65736368 
 4570      6564756C 
 4570      6500
 4571              	.LASF63:
 4572 01cc 76745F70 		.ascii	"vt_prev\000"
 4572      72657600 
 4573              	.LASF103:
 4574 01d4 6D757465 		.ascii	"mutex_t\000"
 4574      785F7400 
 4575              	.LASF136:
 4576 01dc 76616C75 		.ascii	"value\000"
 4576      6500
 4577              	.LASF78:
 4578 01e2 69646C65 		.ascii	"idle_thread_wa\000"
 4578      5F746872 
 4578      6561645F 
 4578      776100
 4579              	.LASF25:
 4580 01f1 636E745F 		.ascii	"cnt_t\000"
 4580      7400
 4581              	.LASF132:
 4582 01f7 474E5520 		.ascii	"GNU C 4.8.4 20140526 (release) [ARM/embedded-4_8-br"
 4582      4320342E 
 4582      382E3420 
 4582      32303134 
 4582      30353236 
 4583 022a 616E6368 		.ascii	"anch revision 211358] -mcpu=cortex-m4 -mno-thumb-in"
 4583      20726576 
 4583      6973696F 
 4583      6E203231 
 4583      31333538 
 4584 025d 74657277 		.ascii	"terwork -mthumb -ggdb -O0 -fomit-frame-pointer -fal"
 4584      6F726B20 
 4584      2D6D7468 
 4584      756D6220 
 4584      2D676764 
 4585 0290 69676E2D 		.ascii	"ign-functions=16 -ffunction-sections -fdata-section"
 4585      66756E63 
 4585      74696F6E 
 4585      733D3136 
 4585      202D6666 
 4586 02c3 73202D66 		.ascii	"s -fno-common -flto\000"
 4586      6E6F2D63 
 4586      6F6D6D6F 
ARM GAS  /tmp/ccOzWYNS.s 			page 146


 4586      6E202D66 
 4586      6C746F00 
 4587              	.LASF0:
 4588 02d7 756E7369 		.ascii	"unsigned int\000"
 4588      676E6564 
 4588      20696E74 
 4588      00
 4589              	.LASF117:
 4590 02e4 77616B65 		.ascii	"wakeup\000"
 4590      757000
 4591              	.LASF62:
 4592 02eb 76745F6E 		.ascii	"vt_next\000"
 4592      65787400 
 4593              	.LASF100:
 4594 02f3 6D5F6E65 		.ascii	"m_next\000"
 4594      787400
 4595              	.LASF91:
 4596 02fa 77747365 		.ascii	"wtsemp\000"
 4596      6D7000
 4597              	.LASF64:
 4598 0301 76745F64 		.ascii	"vt_delta\000"
 4598      656C7461 
 4598      00
 4599              	.LASF40:
 4600 030a 705F6D73 		.ascii	"p_msgqueue\000"
 4600      67717565 
 4600      756500
 4601              	.LASF52:
 4602 0315 63685F72 		.ascii	"ch_ready_list\000"
 4602      65616479 
 4602      5F6C6973 
 4602      7400
 4603              	.LASF96:
 4604 0323 735F636E 		.ascii	"s_cnt\000"
 4604      7400
 4605              	.LASF6:
 4606 0329 73686F72 		.ascii	"short unsigned int\000"
 4606      7420756E 
 4606      7369676E 
 4606      65642069 
 4606      6E7400
 4607              	.LASF47:
 4608 033c 63685F74 		.ascii	"ch_thread\000"
 4608      68726561 
 4608      6400
 4609              	.LASF122:
 4610 0346 63685363 		.ascii	"chSchWakeupS\000"
 4610      6857616B 
 4610      65757053 
 4610      00
 4611              	.LASF23:
 4612 0353 6D73675F 		.ascii	"msg_t\000"
 4612      7400
 4613              	.LASF73:
 4614 0359 63685F73 		.ascii	"ch_system_t\000"
 4614      79737465 
 4614      6D5F7400 
ARM GAS  /tmp/ccOzWYNS.s 			page 147


 4615              	.LASF88:
 4616 0365 77746F62 		.ascii	"wtobjp\000"
 4616      6A7000
 4617              	.LASF42:
 4618 036c 705F6D74 		.ascii	"p_mtxlist\000"
 4618      786C6973 
 4618      7400
 4619              	.LASF24:
 4620 0376 6576656E 		.ascii	"eventmask_t\000"
 4620      746D6173 
 4620      6B5F7400 
 4621              	.LASF81:
 4622 0382 73746B61 		.ascii	"stkalign_t\000"
 4622      6C69676E 
 4622      5F7400
 4623              	.LASF54:
 4624 038d 725F7072 		.ascii	"r_prio\000"
 4624      696F00
 4625              	.LASF39:
 4626 0394 705F7761 		.ascii	"p_waiting\000"
 4626      6974696E 
 4626      6700
 4627              	.LASF79:
 4628 039e 73697A65 		.ascii	"sizetype\000"
 4628      74797065 
 4628      00
 4629              	.LASF45:
 4630 03a7 74687265 		.ascii	"thread_reference_t\000"
 4630      61645F72 
 4630      65666572 
 4630      656E6365 
 4630      5F7400
 4631              	.LASF68:
 4632 03ba 63685F76 		.ascii	"ch_virtual_timers_list\000"
 4632      69727475 
 4632      616C5F74 
 4632      696D6572 
 4632      735F6C69 
 4633              	.LASF128:
 4634 03d1 63685363 		.ascii	"chSchDoRescheduleBehind\000"
 4634      68446F52 
 4634      65736368 
 4634      6564756C 
 4634      65426568 
 4635              	.LASF124:
 4636 03e9 5F5F6675 		.ascii	"__func__.6429\000"
 4636      6E635F5F 
 4636      2E363432 
 4636      3900
 4637              	.LASF33:
 4638 03f7 705F6F6C 		.ascii	"p_older\000"
 4638      64657200 
 4639              	.LASF55:
 4640 03ff 725F6374 		.ascii	"r_ctx\000"
 4640      7800
 4641              	.LASF85:
 4642 0405 746D5F63 		.ascii	"tm_calibration_t\000"
ARM GAS  /tmp/ccOzWYNS.s 			page 148


 4642      616C6962 
 4642      72617469 
 4642      6F6E5F74 
 4642      00
 4643              	.LASF35:
 4644 0416 705F7374 		.ascii	"p_stklimit\000"
 4644      6B6C696D 
 4644      697400
 4645              	.LASF120:
 4646 0421 74696D65 		.ascii	"time\000"
 4646      00
 4647              	.LASF58:
 4648 0426 725F6375 		.ascii	"r_current\000"
 4648      7272656E 
 4648      7400
 4649              	.LASF57:
 4650 0430 725F6F6C 		.ascii	"r_older\000"
 4650      64657200 
 4651              	.LASF12:
 4652 0438 5F5F7569 		.ascii	"__uint64_t\000"
 4652      6E743634 
 4652      5F7400
 4653              	.LASF21:
 4654 0443 74726566 		.ascii	"trefs_t\000"
 4654      735F7400 
 4655              	.LASF60:
 4656 044b 76697274 		.ascii	"virtual_timer_t\000"
 4656      75616C5F 
 4656      74696D65 
 4656      725F7400 
 4657              	.LASF29:
 4658 045b 705F7072 		.ascii	"p_prev\000"
 4658      657600
 4659              	.LASF22:
 4660 0462 74707269 		.ascii	"tprio_t\000"
 4660      6F5F7400 
 4661              	.LASF113:
 4662 046a 63685379 		.ascii	"chSysUnlockFromISR\000"
 4662      73556E6C 
 4662      6F636B46 
 4662      726F6D49 
 4662      535200
 4663              	.LASF71:
 4664 047d 63685F73 		.ascii	"ch_system_debug\000"
 4664      79737465 
 4664      6D5F6465 
 4664      62756700 
 4665              	.LASF111:
 4666 048d 5F426F6F 		.ascii	"_Bool\000"
 4666      6C00
 4667              	.LASF15:
 4668 0493 696E7433 		.ascii	"int32_t\000"
 4668      325F7400 
 4669              	.LASF4:
 4670 049b 756E7369 		.ascii	"unsigned char\000"
 4670      676E6564 
 4670      20636861 
ARM GAS  /tmp/ccOzWYNS.s 			page 149


 4670      7200
 4671              	.LASF116:
 4672 04a9 6E657773 		.ascii	"newstate\000"
 4672      74617465 
 4672      00
 4673              	.LASF5:
 4674 04b2 73686F72 		.ascii	"short int\000"
 4674      7420696E 
 4674      7400
 4675              	.LASF36:
 4676 04bc 705F7374 		.ascii	"p_state\000"
 4676      61746500 
 4677              	.LASF115:
 4678 04c4 63685365 		.ascii	"chSemFastSignalI\000"
 4678      6D466173 
 4678      74536967 
 4678      6E616C49 
 4678      00
 4679              	.LASF93:
 4680 04d5 65776D61 		.ascii	"ewmask\000"
 4680      736B00
 4681              	.LASF28:
 4682 04dc 705F6E65 		.ascii	"p_next\000"
 4682      787400
 4683              	.LASF19:
 4684 04e3 746D6F64 		.ascii	"tmode_t\000"
 4684      655F7400 
 4685              	.LASF37:
 4686 04eb 705F666C 		.ascii	"p_flags\000"
 4686      61677300 
 4687              	.LASF114:
 4688 04f3 63685654 		.ascii	"chVTIsArmedI\000"
 4688      49734172 
 4688      6D656449 
 4688      00
 4689              	.LASF133:
 4690 0500 2E2E2F43 		.ascii	"../ChibiOS/os/rt/src/chschd.c\000"
 4690      68696269 
 4690      4F532F6F 
 4690      732F7274 
 4690      2F737263 
 4691              	.LASF102:
 4692 051e 73656D61 		.ascii	"semaphore_t\000"
 4692      70686F72 
 4692      655F7400 
 4693              	.LASF61:
 4694 052a 63685F76 		.ascii	"ch_virtual_timer\000"
 4694      69727475 
 4694      616C5F74 
 4694      696D6572 
 4694      00
 4695              	.LASF94:
 4696 053b 63685F73 		.ascii	"ch_semaphore\000"
 4696      656D6170 
 4696      686F7265 
 4696      00
 4697              	.LASF121:
ARM GAS  /tmp/ccOzWYNS.s 			page 150


 4698 0548 63685363 		.ascii	"chSchGoSleepS\000"
 4698      68476F53 
 4698      6C656570 
 4698      5300
 4699              	.LASF41:
 4700 0556 705F6570 		.ascii	"p_epending\000"
 4700      656E6469 
 4700      6E6700
 4701              	.LASF16:
 4702 0561 75696E74 		.ascii	"uint32_t\000"
 4702      33325F74 
 4702      00
 4703              	.LASF92:
 4704 056a 77746D74 		.ascii	"wtmtxp\000"
 4704      787000
 4705              	.LASF53:
 4706 0571 725F7175 		.ascii	"r_queue\000"
 4706      65756500 
 4707              	.LASF118:
 4708 0579 63685363 		.ascii	"chSchReadyI\000"
 4708      68526561 
 4708      64794900 
 4709              	.LASF48:
 4710 0585 63685F74 		.ascii	"ch_threads_list\000"
 4710      68726561 
 4710      64735F6C 
 4710      69737400 
 4711              	.LASF134:
 4712 0595 2F6E6673 		.ascii	"/nfs/nfs4/home/irbrown/Courses/P442/P442WifiTrailCo"
 4712      2F6E6673 
 4712      342F686F 
 4712      6D652F69 
 4712      7262726F 
 4713 05c8 756E7465 		.ascii	"unterProject/milestone3\000"
 4713      7250726F 
 4713      6A656374 
 4713      2F6D696C 
 4713      6573746F 
 4714              	.LASF10:
 4715 05e0 6C6F6E67 		.ascii	"long unsigned int\000"
 4715      20756E73 
 4715      69676E65 
 4715      6420696E 
 4715      7400
 4716              	.LASF101:
 4717 05f2 63686172 		.ascii	"char\000"
 4717      00
 4718              	.LASF7:
 4719 05f7 5F5F696E 		.ascii	"__int32_t\000"
 4719      7433325F 
 4719      7400
 4720              	.LASF107:
 4721 0601 706F7274 		.ascii	"port_unlock_from_isr\000"
 4721      5F756E6C 
 4721      6F636B5F 
 4721      66726F6D 
 4721      5F697372 
ARM GAS  /tmp/ccOzWYNS.s 			page 151


 4722              	.LASF27:
 4723 0616 74687265 		.ascii	"thread_t\000"
 4723      61645F74 
 4723      00
 4724              	.LASF109:
 4725 061f 71756575 		.ascii	"queue_fifo_remove\000"
 4725      655F6669 
 4725      666F5F72 
 4725      656D6F76 
 4725      6500
 4726              	.LASF26:
 4727 0631 73797374 		.ascii	"systime_t\000"
 4727      696D655F 
 4727      7400
 4728              	.LASF43:
 4729 063b 705F7265 		.ascii	"p_realprio\000"
 4729      616C7072 
 4729      696F00
 4730              	.LASF59:
 4731 0646 76746675 		.ascii	"vtfunc_t\000"
 4731      6E635F74 
 4731      00
 4732              	.LASF9:
 4733 064f 5F5F7569 		.ascii	"__uint32_t\000"
 4733      6E743332 
 4733      5F7400
 4734              	.LASF135:
 4735 065a 5F5F7365 		.ascii	"__set_BASEPRI\000"
 4735      745F4241 
 4735      53455052 
 4735      4900
 4736              	.LASF72:
 4737 0668 70616E69 		.ascii	"panic_msg\000"
 4737      635F6D73 
 4737      6700
 4738              	.LASF84:
 4739 0672 6F666673 		.ascii	"offset\000"
 4739      657400
 4740              	.LASF82:
 4741 0679 636F6E74 		.ascii	"context\000"
 4741      65787400 
 4742              	.LASF18:
 4743 0681 7274636E 		.ascii	"rtcnt_t\000"
 4743      745F7400 
 4744              	.LASF106:
 4745 0689 706F7274 		.ascii	"port_lock_from_isr\000"
 4745      5F6C6F63 
 4745      6B5F6672 
 4745      6F6D5F69 
 4745      737200
 4746              	.LASF137:
 4747 069c 5F5F6765 		.ascii	"__get_PSP\000"
 4747      745F5053 
 4747      5000
 4748              	.LASF66:
 4749 06a6 76745F70 		.ascii	"vt_par\000"
 4749      617200
ARM GAS  /tmp/ccOzWYNS.s 			page 152


 4750              	.LASF49:
 4751 06ad 74687265 		.ascii	"threads_queue_t\000"
 4751      6164735F 
 4751      71756575 
 4751      655F7400 
 4752              	.LASF97:
 4753 06bd 63685F6D 		.ascii	"ch_mutex\000"
 4753      75746578 
 4753      00
 4754              	.LASF38:
 4755 06c6 705F7265 		.ascii	"p_refs\000"
 4755      667300
 4756              	.LASF75:
 4757 06cd 726C6973 		.ascii	"rlist\000"
 4757      7400
 4758              	.LASF14:
 4759 06d3 75696E74 		.ascii	"uint8_t\000"
 4759      385F7400 
 4760              	.LASF69:
 4761 06db 76745F6C 		.ascii	"vt_lasttime\000"
 4761      61737474 
 4761      696D6500 
 4762              	.LASF112:
 4763 06e7 63685379 		.ascii	"chSysLockFromISR\000"
 4763      734C6F63 
 4763      6B46726F 
 4763      6D495352 
 4763      00
 4764              	.LASF34:
 4765 06f8 705F6E61 		.ascii	"p_name\000"
 4765      6D6500
 4766              	.LASF46:
 4767 06ff 74687265 		.ascii	"threads_list_t\000"
 4767      6164735F 
 4767      6C697374 
 4767      5F7400
 4768              	.LASF119:
 4769 070e 63685363 		.ascii	"chSchGoSleepTimeoutS\000"
 4769      68476F53 
 4769      6C656570 
 4769      54696D65 
 4769      6F757453 
 4770              	.LASF139:
 4771 0723 63685363 		.ascii	"chSchIsRescRequiredI\000"
 4771      68497352 
 4771      65736352 
 4771      65717569 
 4771      72656449 
 4772              	.LASF99:
 4773 0738 6D5F6F77 		.ascii	"m_owner\000"
 4773      6E657200 
 4774              	.LASF138:
 4775 0740 72657375 		.ascii	"result\000"
 4775      6C7400
 4776              	.LASF31:
 4777 0747 705F6374 		.ascii	"p_ctx\000"
 4777      7800
ARM GAS  /tmp/ccOzWYNS.s 			page 153


 4778              	.LASF65:
 4779 074d 76745F66 		.ascii	"vt_func\000"
 4779      756E6300 
 4780              		.comm	__gnu_lto_v1,1,1
 4781              		.ident	"GCC: (GNU Tools for ARM Embedded Processors) 4.8.4 20140526 (release) [ARM/embedded-4_8-br
ARM GAS  /tmp/ccOzWYNS.s 			page 154


DEFINED SYMBOLS
                            *ABS*:00000000 chschd.c
     /tmp/ccOzWYNS.s:1036   .text.port_lock:00000000 $t
     /tmp/ccOzWYNS.s:1041   .text.port_lock:00000000 port_lock
     /tmp/ccOzWYNS.s:1072   .text.port_unlock:00000000 $t
     /tmp/ccOzWYNS.s:1077   .text.port_unlock:00000000 port_unlock
     /tmp/ccOzWYNS.s:1106   .text.port_lock_from_isr:00000000 $t
     /tmp/ccOzWYNS.s:1111   .text.port_lock_from_isr:00000000 port_lock_from_isr
     /tmp/ccOzWYNS.s:1129   .text.port_unlock_from_isr:00000000 $t
     /tmp/ccOzWYNS.s:1134   .text.port_unlock_from_isr:00000000 port_unlock_from_isr
     /tmp/ccOzWYNS.s:1152   .text.queue_init:00000000 $t
     /tmp/ccOzWYNS.s:1157   .text.queue_init:00000000 queue_init
     /tmp/ccOzWYNS.s:1184   .text.queue_fifo_remove:00000000 $t
     /tmp/ccOzWYNS.s:1189   .text.queue_fifo_remove:00000000 queue_fifo_remove
     /tmp/ccOzWYNS.s:1224   .text.queue_dequeue:00000000 $t
     /tmp/ccOzWYNS.s:1229   .text.queue_dequeue:00000000 queue_dequeue
     /tmp/ccOzWYNS.s:1262   .text.chSchIsRescRequiredI:00000000 $t
     /tmp/ccOzWYNS.s:1267   .text.chSchIsRescRequiredI:00000000 chSchIsRescRequiredI
     /tmp/ccOzWYNS.s:1292   .text.chSchIsRescRequiredI:0000001c $d
     /tmp/ccOzWYNS.s:1411   .bss.ch:00000000 ch
     /tmp/ccOzWYNS.s:1297   .text.chSysLockFromISR:00000000 $t
     /tmp/ccOzWYNS.s:1302   .text.chSysLockFromISR:00000000 chSysLockFromISR
     /tmp/ccOzWYNS.s:1321   .text.chSysUnlockFromISR:00000000 $t
     /tmp/ccOzWYNS.s:1326   .text.chSysUnlockFromISR:00000000 chSysUnlockFromISR
     /tmp/ccOzWYNS.s:1344   .text.chVTIsArmedI:00000000 $t
     /tmp/ccOzWYNS.s:1349   .text.chVTIsArmedI:00000000 chVTIsArmedI
     /tmp/ccOzWYNS.s:1377   .text.chSemFastSignalI:00000000 $t
     /tmp/ccOzWYNS.s:1382   .text.chSemFastSignalI:00000000 chSemFastSignalI
     /tmp/ccOzWYNS.s:1408   .bss.ch:00000000 $d
     /tmp/ccOzWYNS.s:1414   .text._scheduler_init:00000000 $t
     /tmp/ccOzWYNS.s:1420   .text._scheduler_init:00000000 _scheduler_init
     /tmp/ccOzWYNS.s:1451   .text._scheduler_init:0000001c $d
     /tmp/ccOzWYNS.s:1456   .text.chSchReadyI:00000000 $t
     /tmp/ccOzWYNS.s:1462   .text.chSchReadyI:00000000 chSchReadyI
     /tmp/ccOzWYNS.s:1519   .text.chSchReadyI:00000048 $d
     /tmp/ccOzWYNS.s:1524   .rodata:00000000 $d
     /tmp/ccOzWYNS.s:1528   .text.chSchGoSleepS:00000000 $t
     /tmp/ccOzWYNS.s:1534   .text.chSchGoSleepS:00000000 chSchGoSleepS
     /tmp/ccOzWYNS.s:1607   .text.chSchGoSleepS:00000060 $d
     /tmp/ccOzWYNS.s:1613   .text.wakeup:00000000 $t
     /tmp/ccOzWYNS.s:1618   .text.wakeup:00000000 wakeup
     /tmp/ccOzWYNS.s:1644   .text.wakeup:00000020 $d
     /tmp/ccOzWYNS.s:1652   .text.wakeup:00000040 $t
     /tmp/ccOzWYNS.s:1700   .text.chSchGoSleepTimeoutS:00000000 $t
     /tmp/ccOzWYNS.s:1706   .text.chSchGoSleepTimeoutS:00000000 chSchGoSleepTimeoutS
     /tmp/ccOzWYNS.s:1770   .text.chSchGoSleepTimeoutS:00000060 $d
     /tmp/ccOzWYNS.s:1776   .text.chSchWakeupS:00000000 $t
     /tmp/ccOzWYNS.s:1782   .text.chSchWakeupS:00000000 chSchWakeupS
     /tmp/ccOzWYNS.s:1868   .text.chSchWakeupS:00000068 $d
     /tmp/ccOzWYNS.s:1874   .text.chSchRescheduleS:00000000 $t
     /tmp/ccOzWYNS.s:1880   .text.chSchRescheduleS:00000000 chSchRescheduleS
     /tmp/ccOzWYNS.s:2038   .text.chSchDoRescheduleAhead:00000000 chSchDoRescheduleAhead
     /tmp/ccOzWYNS.s:1904   .text.chSchIsPreemptionRequired:00000000 $t
     /tmp/ccOzWYNS.s:1910   .text.chSchIsPreemptionRequired:00000000 chSchIsPreemptionRequired
     /tmp/ccOzWYNS.s:1945   .text.chSchIsPreemptionRequired:00000028 $d
     /tmp/ccOzWYNS.s:1950   .text.chSchDoRescheduleBehind:00000000 $t
     /tmp/ccOzWYNS.s:1956   .text.chSchDoRescheduleBehind:00000000 chSchDoRescheduleBehind
ARM GAS  /tmp/ccOzWYNS.s 			page 155


     /tmp/ccOzWYNS.s:2026   .text.chSchDoRescheduleBehind:00000054 $d
     /tmp/ccOzWYNS.s:2032   .text.chSchDoRescheduleAhead:00000000 $t
     /tmp/ccOzWYNS.s:2142   .text.chSchDoRescheduleAhead:00000088 $d
     /tmp/ccOzWYNS.s:2148   .text.chSchDoReschedule:00000000 $t
     /tmp/ccOzWYNS.s:2154   .text.chSchDoReschedule:00000000 chSchDoReschedule
                            *COM*:00000001 __gnu_lto_v1
                     .debug_frame:00000010 $d
     /tmp/ccOzWYNS.s:1523   .text.chSchReadyI:0000004c $t
     /tmp/ccOzWYNS.s:1612   .text.chSchGoSleepS:00000068 $t
     /tmp/ccOzWYNS.s:1775   .text.chSchGoSleepTimeoutS:00000068 $t
     /tmp/ccOzWYNS.s:1949   .text.chSchIsPreemptionRequired:0000002c $t
     /tmp/ccOzWYNS.s:2031   .text.chSchDoRescheduleBehind:0000005c $t

UNDEFINED SYMBOLS
chSysHalt
_port_switch
chVTDoSetI
chVTDoResetI
