ARM GAS  /tmp/ccHSAuwK.s 			page 1


   1              		.syntax unified
   2              		.cpu cortex-m4
   3              		.fpu softvfp
   4              		.eabi_attribute 20, 1
   5              		.eabi_attribute 21, 1
   6              		.eabi_attribute 23, 3
   7              		.eabi_attribute 24, 1
   8              		.eabi_attribute 25, 1
   9              		.eabi_attribute 26, 1
  10              		.eabi_attribute 30, 6
  11              		.eabi_attribute 34, 1
  12              		.eabi_attribute 18, 4
  13              		.thumb
  14              		.file	"chtm.c"
  15              		.text
  16              	.Ltext0:
  17              		.section	.gnu.lto_.inline.31eb28ea4b038451,"",%progbits
  18 0000 789C6362 		.ascii	"x\234cb`b\300\006VBiv\006\006\026f\006\006&\226\017"
  18      6062C006 
  18      56426976 
  18      06061666 
  18      06062696 
  19 0015 7A0C2C10 		.ascii	"z\014,\020\265\214\0142\322@\021\223\017K\231aBL\014"
  19      B58C0C32 
  19      D2401193 
  19      0F4B9961 
  19      424C0C
  20 0028 9C1C4092 		.ascii	"\234\034@\222\257\241\026&\302\314\300\306\207\252\215"
  20      AFA11626 
  20      C2CCC0C6 
  20      87AA8D
  21 0037 891B48B0 		.ascii	"\211\033H\2600pI\243\012\263\360\302\344\330\030x\324"
  21      307049A3 
  21      0AB3F0C2 
  21      E4D81878 
  21      D4
  22 0048 804C8E09 		.ascii	"\200L\216\011~(Z\020\004;\003\267\014\220\311v\300\016"
  22      7E285A10 
  22      043B03B7 
  22      0C90C976 
  22      C00E
  23 005a 53330300 		.ascii	"S3\003\000J\323\012|"
  23      4AD30A7C 
  24              		.text
  25              		.section	.gnu.lto_port_rt_get_counter_value.31eb28ea4b038451,"",%progbits
  26 0000 789C6362 		.ascii	"x\234cb`b@\007\322@l\310\310\300\240\013\342\26000\002"
  26      60624007 
  26      D2406CC8 
  26      C8C0A00B 
  26      E2B03030 
  27 0015 55303231 		.ascii	"U0212\003IfF\2400\003#C=\0233c}$\210\315\300\244\304"
  27      32034966 
  27      46A03003 
  27      23433D13 
  27      33637D24 
  28 002e B0B0A161 		.ascii	"\260\260\241a\326\203\243\373z\230gN9\320\262\240\341"
  28      D683A3FB 
ARM GAS  /tmp/ccHSAuwK.s 			page 2


  28      7A98674E 
  28      39D0B2A0 
  28      E1
  29 003f CFFFFF8C 		.ascii	"\317\377\377\214\214\231 \311dF\206\010 \213Q\001L1"
  29      8C9920C9 
  29      64468608 
  29      208B5101 
  29      4C31
  30 0051 B1A05A03 		.ascii	"\261\240Z\003\3268\251a\367\223\200\023\015-\007\376"
  30      D638A961 
  30      F7938013 
  30      0D2D07FE 
  31 0061 FFB7CF04 		.ascii	"\377\267\317\004\331\201_\317z\246\003\017\376\377\357"
  31      D9815FCF 
  31      7AA6030F 
  31      FEFFEF
  32 0070 997F6CFB 		.ascii	"\231\177l\373\036\306~efF\006\240\036&\006\260e\014"
  32      1EC67E65 
  32      664606A0 
  32      1E2606B0 
  32      650C
  33 0082 AC0C2D0D 		.ascii	"\254\014-\015\015\023\024\300F\000A\010\230\014\005"
  33      0D1314C0 
  33      46004108 
  33      980C05
  34 0091 B99EF92C 		.ascii	"\271\236\371,C\323\216\033\373zd\023\031\0273\2622\244"
  34      43D38E1B 
  34      FB7A6413 
  34      191733B2 
  34      32A4
  35 00a3 333282CC 		.ascii	"32\202\314fnX\320\320\300\007Ts\226\341\320\255\002"
  35      666E58D0 
  35      D0C00754 
  35      7396E1D0 
  35      AD02
  36 00b5 98149336 		.ascii	"\230\024\2236\303\252\206\226\306\006\353LF\226\331"
  36      C3AA8696 
  36      C606EB4C 
  36      4696D9
  37 00c4 0CB380EA 		.ascii	"\014\263\200\352Xa\352\301.HbDvO(H\224\3714C#\007\003"
  37      5861EAC1 
  37      2E486244 
  37      764F2848 
  37      94F93443 
  38 00db 430A48E6 		.ascii	"C\012H\346\"C\343\001f\270Y\020E!\240P\003\261\265\365"
  38      2243E301 
  38      66B85910 
  38      4521A050 
  38      03B1B5F5 
  39 00ef F4F49D33 		.ascii	"\364\364\23532\2232\375\203\365\363\213\365\213J\364"
  39      329332FD 
  39      83F5F38B 
  39      F58B4AF4 
  40 00ff 0BF28B4A 		.ascii	"\013\362\213J\212\365\035\203|\235}+\364\2233\222\363"
  40      8AF51D83 
  40      7C9D7D2B 
  40      F4933392 
ARM GAS  /tmp/ccHSAuwK.s 			page 3


  40      F3
  41 0110 8B52E3CB 		.ascii	"\213R\343\313\314s\3652\030\000$\264Q "
  41      CC73F532 
  41      180024B4 
  41      5120
  42              		.text
  43              		.section	.gnu.lto_tm_stop.31eb28ea4b038451,"",%progbits
  44 0000 789CBD93 		.ascii	"x\234\275\223Mh\023Q\020\307g\366#\233&M\223F\024\205"
  44      4D681351 
  44      10C767F6 
  44      239B264D 
  44      93461485 
  45 0014 22456F16 		.ascii	"\"Eo\026\022\274\013\012\236<Y\260\005=\332\200\351"
  45      12BC0B0A 
  45      9E3C59B0 
  45      053DDA80 
  45      E9
  46 0025 1E8AD0F6 		.ascii	"\036\212\320\366\336\227\244H-\010\261\202-\012\325"
  46      DE97A448 
  46      2D08B182 
  46      2D0AD5
  47 0034 1EF420A8 		.ascii	"\036\364 \250E\021\324\323\036<4H\301^\374\010\264\206"
  47      4511D4D3 
  47      1E3C3448 
  47      C15EFC08 
  47      B486
  48 0046 62442F92 		.ascii	"bD/\222\213\030Q\334\316\354\356\313\326\032\222M\016"
  48      8B1851DC 
  48      CEECEECB 
  48      D61A924D 
  48      0E
  49 0057 3ED8791F 		.ascii	">\330y\037\363~3\377\331\367\236\002\012\354m'\350{"
  49      F37E33FF 
  49      D9F79E02 
  49      0AEC6D27 
  49      E87B
  50 0069 61001CE6 		.ascii	"a\000\034\346\211\001H;PQT\000\241hd4\025\251CM\321"
  50      8901483B 
  50      50515400 
  50      A1686434 
  50      15A9434D 
  51 007e 7925C42B 		.ascii	"y%\304+:R\207!D\002\020f\024U\323C8s\201\247\020?\002"
  51      3A528721 
  51      44021066 
  51      1455D343 
  51      387381A7 
  52 0095 2B422C54 		.ascii	"+B,T\356-\277^A\261 r5\333\216\233\354\312 \234G\023"
  52      EE2DBF5E 
  52      41B12072 
  52      35DB8E9B 
  52      ECCA209C 
  53 00ab 71D0E938 		.ascii	"q\320\3518\366\356\346b\342\351\247\34151k\331\366\311"
  53      F6EEE662 
  53      E2E9A7E1 
  53      35316BD9 
  53      F6C9
  54 00bd C08CF5BD 		.ascii	"\300\214\365\275Z\352&\325\207\316S\211\033\325\316"
ARM GAS  /tmp/ccHSAuwK.s 			page 4


  54      5AEA26D5 
  54      87CE5389 
  54      1BD5CE
  55 00cc E5FD78B8 		.ascii	"\345\375x\270A\362\266EQ\374\261m\332\246\372\334)\227"
  55      41F2B645 
  55      51FCB16D 
  55      DAA6FADC 
  55      2997
  56 00de 0B37CDB5 		.ascii	"\0137\315\265\330y.\261\371ex\256`\211\272m\033\301"
  56      D8792EB1 
  56      F96578AE 
  56      6089BA6D 
  56      1BC1
  57 00f0 13BDEB02 		.ascii	"\023\275\353\002\262~~]\353\346\247ovq\276\277\236u"
  57      B27E7E5D 
  57      EBE6A76F 
  57      7671BEBF 
  57      9E75
  58 0102 73BE96FD 		.ascii	"s\276\226\375\377\024^\277r\363\320\374\335\274<\341"
  58      FF145EBF 
  58      72F3D0FC 
  58      DDBC3CE1 
  59 0112 B6D863C5 		.ascii	"\266\330c\305\252\330\366\357k\213o\017\342>\304\011"
  59      AAD8F6EF 
  59      6B8B6F0F 
  59      E23EC409 
  60 0122 A4674998 		.ascii	"\244gI\230\312Fc\243\323\032=2\032\0314\242#\240Q\017"
  60      CA4663A3 
  60      D31A3D32 
  60      1A1934A2 
  60      23A0510F 
  61 0136 1935C2A3 		.ascii	"\0315\302\243(\217z\331\304x\332\307&\316&\301\246\237"
  61      288F7AD9 
  61      C478DAC7 
  61      26CE26C1 
  61      A69F
  62 0148 4D121C19 		.ascii	"M\022\034\031\240\303\254\020\305AG\020\265\021\307"
  62      A0C3AC10 
  62      C5414710 
  62      B511C7
  63 0157 8EF21B57 		.ascii	"\216\362\033W\327!_~\276\254^\304U\324!\213\312\020"
  63      D7215F7E 
  63      BEAC5EC4 
  63      55D4218B 
  63      CA10
  64 0169 1C3351BB 		.ascii	"\0343Q\273\015\267H\260\236Ed\341!G\356\030J\341\353"
  64      0DB748B0 
  64      9E4564E1 
  64      2147EE18 
  64      4AE1EB
  65 017c 50982B5C 		.ascii	"P\230+\\\222\210J\024\357\322\320q\345\317\270\216!"
  65      92884A14 
  65      EFD2D071 
  65      E5CFB88E 
  65      21
  66 018d 7820A8C5 		.ascii	"x \250\305\332D\313\362]c\021\357\267\006dD\315\021"
  66      DA44CBF2 
ARM GAS  /tmp/ccHSAuwK.s 			page 5


  66      5D6311EF 
  66      B7066444 
  66      CD11
  67 019f 6134C7D0 		.ascii	"a4\307\320\027q\265\360\004%\023\312\362N\315[\277\257"
  67      1771B5F0 
  67      042513CA 
  67      F24ECD5B 
  67      BFAF
  68 01b1 C8F5B0E3 		.ascii	"\310\365\260\3432\234\034\245Uc\257\266\226I\210v\265"
  68      329C1CA5 
  68      5563AFB6 
  68      96498876 
  68      B5
  69 01c2 D5B7F6CB 		.ascii	"\325\267\366\313x=.\23301\334\034U\032\372\362\345Z"
  69      783D2E9B 
  69      3031DC1C 
  69      551AFAF2 
  69      E55A
  70 01d4 52629160 		.ascii	"Rb\221`%\345\277\025^6J\212\022\346\375\354G\215\305"
  70      25E5BF15 
  70      5E364A8A 
  70      12E6FDEC 
  70      478DC5
  71 01e7 5E9240AE 		.ascii	"^\222@\256\177\377t;E\204\272\242\226\356\304d\260X"
  71      7FFF743B 
  71      4584BAA2 
  71      96EEC464 
  71      B058
  72 01f9 4055E537 		.ascii	"@U\3457Q\211\364\265BT\017Y\203W\237s~\026\242\374["
  72      5189F4B5 
  72      42540F59 
  72      83579F73 
  72      7E16A2FC 
  73 020e 3FCABBDC 		.ascii	"?\312\273\334k\367\361\200\334\022\017(\244T\214\374"
  73      6BF7F180 
  73      DC120F28 
  73      A4548CFC 
  74 021e 7582C7DB 		.ascii	"u\202\307\333H\241\3102\253\346e\255\373\345':/\277"
  74      48A1C832 
  74      ABE665AD 
  74      FBE5273A 
  74      2FBF
  75 0230 BF1522DF 		.ascii	"\277\025\"\3377\225_\365\313O\020\265\273|\335\023\262"
  75      37955FF5 
  75      CB4F10B5 
  75      BB7CDD13 
  75      B2
  76 0241 B45D69DC 		.ascii	"\264]i\334\322d\320\372kF\300\3725\257\376\244LK\016"
  76      D264D0FA 
  76      6B46C0FA 
  76      35AFFEA4 
  76      4C4B0E
  77 0254 75037295 		.ascii	"u\003r\225\371\243n\004\331F8>_\221\201T*}z\334\034"
  77      F9A36E04 
  77      D946383E 
  77      5F918154 
  77      2A7D7ADC 
ARM GAS  /tmp/ccHSAuwK.s 			page 6


  78 0269 33CF9E4B 		.ascii	"3\317\236K_\236JON\247\247&3\351\314\370\364D*\003;"
  78      5F9E4A4F 
  78      4EA7A726 
  78      33E9CCF8 
  78      F4442A03 
  79 027e 863EA0C8 		.ascii	"\206>\240\310"
  80              		.text
  81              		.section	.gnu.lto_chTMObjectInit.31eb28ea4b038451,"",%progbits
  82 0000 789C6362 		.ascii	"x\234cb`b@\007\"@\334\317\310\300 \007\342030\002U0"
  82      60624007 
  82      2240DCCF 
  82      C8C02007 
  82      E2303330 
  83 0017 32310205 		.ascii	"21\002\005\030\030\031\352\231\030\353#\031\301\312"
  83      181819EA 
  83      9918EB23 
  83      19C1CA
  84 0026 D6331D78 		.ascii	"\3263\035x\360\377\377\272I\355\353{\030\3472\001\025"
  84      F0FFFFBA 
  84      49EDEB7B 
  84      18E73201 
  84      15
  85 0037 E482C559 		.ascii	"\344\202\305Y\031Z\032\032&(00$\203\271!`2\024d\010"
  85      195A1A1A 
  85      26283030 
  85      2483B921 
  85      60321464 
  86 004c F35986A6 		.ascii	"\363Y\206\246\035?>\335`Jd\\\310\310\312\240\315\260"
  86      1D3F3EDD 
  86      604A645C 
  86      C8C8CAA0 
  86      CDB0
  87 005e AA010878 		.ascii	"\252\001\010x3\031\031f3\314b\314ddLgd\214\000\322\020"
  87      33191966 
  87      33CC62CC 
  87      64644C67 
  87      648C00D2 
  88 0073 1725416C 		.ascii	"\027%Ala\000\2110\377\007\002~ \007d\302\214\317D\233"
  88      61008930 
  88      FF07027E 
  88      200764C2 
  88      8CCF449B 
  89 0087 C0883081 		.ascii	"\300\2100\201\001\252{\007\361\272\2310u\337\300\242"
  89      01AA7B07 
  89      F1BA9930 
  89      75DFC0A2 
  90 0097 9B05BB6E 		.ascii	"\233\005\273nfL\335?\260\350f\305\256\233\005\256\233"
  90      664CDD3F 
  90      B0E866C5 
  90      AE9B05AE 
  90      9B
  91 00a8 0DC4B8C8 		.ascii	"\015\304\270\310\320\370\340\2062D/\014\204\200\274"
  91      D0F8E086 
  91      32442F0C 
  91      8480BC
  92 00b7 07522FA3 		.ascii	"\007R/\243\247\247\357\234\221\231\224\351\037\254\237"
  92      A7A7EF9C 
ARM GAS  /tmp/ccHSAuwK.s 			page 7


  92      919994E9 
  92      1FAC9F
  93 00c6 5FAC5F54 		.ascii	"_\254_T\242_\\\224\254\237\234Q\222\253\227\314\000"
  93      A25F5C94 
  93      AC9F9C51 
  93      92AB97CC 
  93      00
  94 00d7 003B8A60 		.ascii	"\000;\212`z"
  94      7A
  95              		.text
  96              		.section	.gnu.lto_chTMStartMeasurementX.31eb28ea4b038451,"",%progbits
  97 0000 789C6362 		.ascii	"x\234cb`b@\007\"@\374\021\210\345@\034f\006F\240\012"
  97      60624007 
  97      2240FC11 
  97      88E5401C 
  97      660646A0 
  98 0015 46264646 		.ascii	"F&FF \207\221\241\236\211\261>\022\304d`TbX\330\320"
  98      208791A1 
  98      9E89B13E 
  98      12C46460 
  98      546258D8 
  99 002a 30E941EB 		.ascii	"0\351A\353\357\037\2143\247\034hY\320\360\347\377\177"
  99      EF1F8C33 
  99      A71C6859 
  99      D0F0E7FF 
  99      7F
 100 003b 46C64C90 		.ascii	"F\306L\220d2#C\004\220\305\250\000\246\230XP\315_\317"
 100      64322343 
 100      0490C5A8 
 100      00A69858 
 100      50CD5FCF 
 101 004f 74E0C1FF 		.ascii	"t\340\301\377\377k\366\376x\374\226Q\220\231\221\001"
 101      FF6BF6FE 
 101      78FC9651 
 101      90999101 
 102 005f A8858931 		.ascii	"\250\205\2111\027l(+CKC\303\004\005\260\011@\020\002"
 102      176C282B 
 102      434B43C3 
 102      0405B009 
 102      401002
 103 0072 2643412E 		.ascii	"&CA.`>\317\320\374\340\315c\366D\306E\214\254\014\351"
 103      603ECFD0 
 103      FCE0CD63 
 103      F644C645 
 103      8CAC0CE9 
 104 0086 8C8CD50C 		.ascii	"\214\214\325\014\277\032:\032\0042\031\231\223\301n"
 104      BF1A3A1A 
 104      04321999 
 104      93C16E
 105 0095 63009A03 		.ascii	"c\000\232\003\264\350,C\323\311\015PU\332\014\253\032"
 105      B4E82C43 
 105      D3C90D50 
 105      55DA0CAB 
 105      1A
 106 00a6 80803793 		.ascii	"\200\2007\223\221u6\303,\240K\330\322\031\231@.b\007"
 106      917536C3 
 106      2CA04BD8 
ARM GAS  /tmp/ccHSAuwK.s 			page 8


 106      D2199940 
 106      2E6207
 107 00b9 AB4F8268 		.ascii	"\253O\202h\003\031\306\300p\221\241\361\301[e\210>\030"
 107      0319C6C0 
 107      7091A1F1 
 107      C15B6588 
 107      3E18
 108 00cb 08014980 		.ascii	"\010\001I\200\302GFOO\3379#3)\323?X?\277X\277\250D\277"
 108      C247464F 
 108      4FDF3923 
 108      3329D33F 
 108      583FBF58 
 109 00e3 B828593F 		.ascii	"\270(Y?9\243$W/\231\001\000\304s@q"
 109      39A32457 
 109      2F990100 
 109      C4734071 
 110              		.text
 111              		.section	.gnu.lto_chTMStopMeasurementX.31eb28ea4b038451,"",%progbits
 112 0000 789C8D50 		.ascii	"x\234\215P\261J\003A\020}\263\233\213\211\225\210\225"
 112      B14A0341 
 112      107DB39B 
 112      8B899588 
 112      95
 113 0011 8804C1C6 		.ascii	"\210\004\301\306\300\355G\370\001\026FP;\263E\262\305"
 113      C0ED47F8 
 113      01164650 
 113      3BB345B2 
 113      C5
 114 0022 2124D759 		.ascii	"!$\327Yd\243A4\225\210\215\332\250A\020\033\301^\274"
 114      64A34134 
 114      95888DDA 
 114      A841101B 
 114      C15EBC
 115 0035 C65242FE 		.ascii	"\306RB\376\340\300_\260\222\3009\273g\002Z9\2603\263"
 115      E0C05FB0 
 115      92C039BB 
 115      67025A39 
 115      B033B3
 116 0048 BBEFBD79 		.ascii	"\273\357\275y\273\002\002\177c\201WL\300\262\333H\020"
 116      BB02027F 
 116      6381574C 
 116      C0B2DB48 
 116      10
 117 0059 2348101F 		.ascii	"#H\020\037\200\320\021\324\331q-\304\012n\255=O\357"
 117      80D011D4 
 117      D9712DC4 
 117      0A6EAD3D 
 117      4FEF
 118 006b EF467479 		.ascii	"\357Fty\221\364n\3548\313\210\214\273\324\204m\356\250"
 118      91F46EEC 
 118      38CB888C 
 118      BBD4846D 
 118      EEA8
 119 007d E28B28FC 		.ascii	"\342\213(\374\326\317\211\366\371\301\226=I\376\203"
 119      D6CF89F6 
 119      F9C1963D 
 119      49FE83
ARM GAS  /tmp/ccHSAuwK.s 			page 9


 120 008c F3249234 		.ascii	"\363$\2224\313\306\257\237\037}\232/\020\230\"\\\222"
 120      CBC6AF9F 
 120      1F7D9A2F 
 120      1098225C 
 120      92
 121 009d 14793701 		.ascii	"\024y7\001z\326\236U\274\014G\315\347-g]\016q\224\236"
 121      7AD69E55 
 121      BC0C47CD 
 121      E72D675D 
 121      0E71949E 
 122 00b1 BE15F768 		.ascii	"\276\025\367h@\001\032D\007\370\262'v\316\220\324\376"
 122      40011A44 
 122      07F8B227 
 122      76CE90D4 
 122      FE
 123 00c2 51601D9E 		.ascii	"Q`\035\236\366\216\303\335\011FT\261f(\250\342\321r"
 123      F68EC3DD 
 123      094654B1 
 123      6628A8E2 
 123      D172
 124 00d4 BCB09FE2 		.ascii	"\274\260\237\3425\256\272\326\261f\246\374R\344\371"
 124      35AEBAD6 
 124      B166A6FC 
 124      52E4F9
 125 00e3 CE6EC9EB 		.ascii	"\316n\311\353\324s9\256?\015\2068N\026sU`J,k\312\177"
 125      D47339AE 
 125      3F0D8638 
 125      4E167355 
 125      604A2C6B 
 126 00f9 BD41920D 		.ascii	"\275A\222\015\361<C\263\300\010\335\264\277:A\347Qs"
 126      F13C43B3 
 126      C008DDB4 
 126      BF3A41E7 
 126      5173
 127 010b 520EBC14 		.ascii	"R\016\274\024\206j\275i\352fcS\355\267U+V\355\226V\272"
 127      866ABD69 
 127      EA666353 
 127      EDB7552B 
 127      56ED9656 
 128 0120 1947A1C6 		.ascii	"\031G\241\3067G\222X\375"
 128      37479258 
 128      FD
 129              		.text
 130              		.section	.gnu.lto__tm_init.31eb28ea4b038451,"",%progbits
 131 0000 789C6362 		.ascii	"x\234cb`b@\007\"@\\\011\024V\004q\230\031\030\201LF"
 131      60624007 
 131      22405C09 
 131      14560471 
 131      98191881 
 132 0016 26464620 		.ascii	"&FF \207\221\241\236\211\261>\022\304d`RbX\330\3200"
 132      8791A19E 
 132      89B13E12 
 132      C4646052 
 132      6258D8D0 
 133 002b E9C1D3D7 		.ascii	"\351\301\323\327\017\230fN9\320\262\240\341\317\377"
 133      0F98664E 
 133      39D0B2A0 
ARM GAS  /tmp/ccHSAuwK.s 			page 10


 133      E1CFFF
 134 003a FF8C8C99 		.ascii	"\377\214\214\231 \311dF\206\010 \213Q\001L1\261\240"
 134      20C96446 
 134      8608208B 
 134      51014C31 
 134      B1A0
 135 004c 9A0FD278 		.ascii	"\232\017\322x`\302\201\275m\323\031\033\026\36444=\370"
 135      60C281BD 
 135      6DD3191B 
 135      16F43434 
 135      3DF8
 136 005e FF5F3E93 		.ascii	"\377_>\223\221\231\211A\236\021\256\363\000\204f\222"
 136      91998941 
 136      9E11AEF3 
 136      00846692 
 137 006e 40D5BA9E 		.ascii	"@\325\272\236\351\000P\365\235\315[\036\356`\024dbd"
 137      E90050F5 
 137      9DCD5B1E 
 137      EE601464 
 137      6264
 138 0080 00DBC6C0 		.ascii	"\000\333\306\300\312\320\322\3200A!\221q\021\243\022"
 138      CAD0D2D0 
 138      30412191 
 138      7111A312 
 139 0090 C4762008 		.ascii	"\304v \010\001\223\241 \3273\237eh\332\361\343\325\001"
 139      0193A120 
 139      D7339F65 
 139      68DAF1E3 
 139      D501
 140 00a2 A644C625 		.ascii	"\246D\306%\214\254\014\332\014\253\032\200\3000\223"
 140      8CAC0CDA 
 140      0CAB1A80 
 140      C03093
 141 00b1 9105CAE4 		.ascii	"\221\005\312\344\316dd\235\3150\253\261\241A \223\221"
 141      CE64649D 
 141      CD30ABB1 
 141      A1412093 
 141      91
 142 00c2 AD9AE157 		.ascii	"\255\232\341WC\007\210\305\236\0136\003\344\020v\260"
 142      430788C5 
 142      9E0B3603 
 142      E41076B0 
 143 00d2 F5498C0C 		.ascii	"\365I\214\014P\032\302\210\200x\227\201\341<C\313\203"
 143      501AC288 
 143      80789781 
 143      E13C43CB 
 143      83
 144 00e3 358BB920 		.ascii	"5\213\271 \34630\300M\340H\206\252\254f\250\312d\344"
 144      E63330C0 
 144      4DE04886 
 144      AAAC66A8 
 144      CA64E4
 145 00f6 84B810AA 		.ascii	"\204\270\020\252*\223\221\013\242qm3\0376\215L\0045"
 145      2A93910B 
 145      A2716D33 
 145      1F368D4C 
 145      0435
ARM GAS  /tmp/ccHSAuwK.s 			page 11


 146 0108 AE7BCC8D 		.ascii	"\256{\314\215M#3^\215\300\260\270\365\003\030g\020\261"
 146      4D23335E 
 146      8DC0B0B8 
 146      F5031867 
 146      10B1
 147 011a 7446466D 		.ascii	"tFFm\006-`H@\024&1\302\222\003P\331\311\011\\\324\016"
 147      062D6048 
 147      40142631 
 147      C2920350 
 147      D9C9095C 
 148 0130 B074107D 		.ascii	"\260t\020}\226\341\320k\250\365\020[M\03067t\000\365"
 148      96E1D06B 
 148      A8F5105B 
 148      4D183637 
 148      7400F5
 149 0143 801C7E91 		.ascii	"\200\034~\221\241\361\301\016e\230\267  \004\244\013"
 149      A1F1C10E 
 149      6598B720 
 149      2004A40B 
 150 0153 E430193D 		.ascii	"\3440\031==}\347\214\314\244L\377`\375\374b\375\242"
 150      3D7DE78C 
 150      CCA44CFF 
 150      60FDFC62 
 150      FDA2
 151 0165 12FDE2A2 		.ascii	"\022\375\342\242d\375\344\214\222\\\275d\006\246\222"
 151      64FDE48C 
 151      925CBD64 
 151      06A692
 152 0174 5C008F7F 		.ascii	"\\\000\217\177\231\365"
 152      99F5
 153              		.text
 154              		.section	.gnu.lto_chTMChainMeasurementToX.31eb28ea4b038451,"",%progbits
 155 0000 789C8D90 		.ascii	"x\234\215\2201K\303@\024\307\377\357\222Xu\321\301E"
 155      314BC340 
 155      14C7FFEF 
 155      925875D1 
 155      C145
 156 0012 1129828B 		.ascii	"\021)\202\213\205\344C\370\001\034\254Pq\2627\264\031"
 156      85E443F8 
 156      011CAC50 
 156      71B237B4 
 156      19
 157 0023 8AD07673 		.ascii	"\212\320vs\350\265\266\"\245B\021\027\265BE'#\270:\306"
 157      E8B5B622 
 157      A5421117 
 157      B5424527 
 157      23B83AC6 
 158 0037 D1416A07 		.ascii	"\321Aj\007\027\027\3631D\304\370.g\005\005\301\007I"
 158      1717F331 
 158      44C4F82E 
 158      670505C1 
 158      0749
 159 0049 DEE5DEEF 		.ascii	"\336\345\336\357w\377D@\340w\315\360uF\300\202^X \236"
 159      77FF4440 
 159      E077CDF0 
 159      7546C082 
 159      5E58209E 
ARM GAS  /tmp/ccHSAuwK.s 			page 12


 160 005d 2041FC02 		.ascii	" A\374\002\204\232\240\332\206n!\026q\256\324a\324\012"
 160      849AA0DA 
 160      866E2116 
 160      71AED461 
 160      D40A
 161 006f EEC4F151 		.ascii	"\356\304\361Q\330\354\253\3678&\362\365\246$\344\270"
 161      D8ECABF7 
 161      3826F2F5 
 161      A624E4B8 
 162 007f A374F210 		.ascii	"\243t\362\020\366O\277\001\303\227\366\301l\273\337"
 162      F64FBF01 
 162      C397F6C1 
 162      6CBBDF
 163 008e E8AA0FE6 		.ascii	"\350\252\017\346\376\201\335\2100\212\343\336\323e\247"
 163      FE81DD88 
 163      308AE3DE 
 163      D365A7
 164 009d 43817008 		.ascii	"C\201p\010\314\010*\021G\344\316\346N;\0344\225\352"
 164      CC082A11 
 164      47E4CEE6 
 164      4E3B1C34 
 164      95EA
 165 00af A6131957 		.ascii	"\246\023\031W6\271\257\353o\260\006\330\215\256[\223"
 165      36B9AFEB 
 165      6FB006D8 
 165      8DAE5B93 
 166 00bf 5B74410E 		.ascii	"[tA\016\012D;xS\373j\332'K&(\330\303g>\240q\377\230"
 166      0A443B78 
 166      53FB6ADA 
 166      274B2628 
 166      D8C3673E 
 167 00d7 3253195C 		.ascii	"2S\031\\)\256)\237\234S\234p\250\261\002\011\035.\225"
 167      29AE299F 
 167      9C539C70 
 167      A8B10209 
 167      1D2E95
 168 00ea CCE70DA6 		.ascii	"\314\347\015\246e\011\367\374\032\014i\344\2672X6\\"
 168      6509F7FC 
 168      1A0C69E4 
 168      B7325836 
 168      5C
 169 00fb 9D159B7F 		.ascii	"\235\025\233\177\261\300\000{\341\234\241\200\357P\343"
 169      B1C0007B 
 169      E19CA180 
 169      EF50E3
 170 010a 92C497DC 		.ascii	"\222\304\227\334fY\316\374\"\237&\200!\352\321\355\322"
 170      6659CEFC 
 170      229F2680 
 170      21EAD1ED 
 170      D2
 171 011b 883095D5 		.ascii	"\2100\225\325\02140\357\272\336J\321\317\373\253k\336"
 171      113430EF 
 171      BADE4AD1 
 171      CFFBAB6B 
 171      DE
 172 012c 76C52B57 		.ascii	"v\305+W\275JYz\262X-\271\022\237~\374b_"
 172      BD4A597A 
ARM GAS  /tmp/ccHSAuwK.s 			page 13


 172      B2582DB9 
 172      129F7EFC 
 172      625F
 173              		.text
 174              		.section	.gnu.lto_.symbol_nodes.31eb28ea4b038451,"",%progbits
 175 0000 789C4DCA 		.ascii	"x\234M\312\271\015\204@\020D\321\252\356\001\342$\222"
 175      B90D8440 
 175      1044D1AA 
 175      EE01E224 
 175      92
 176 0011 92701613 		.ascii	"\222p\026\023\207\004\010\201\020\010\000\023\033m\006"
 176      87040881 
 176      10080013 
 176      1B6D06
 177 0020 7BE2210E 		.ascii	"{\342!\016\015b\332\371\375\2442\030z\304\263\007\005"
 177      0D62DAF9 
 177      FDA43218 
 177      7AC4B307 
 177      05
 178 0031 342320B5 		.ascii	"4# \265ui/\212\011?\224EN5\355Ky\302\037\025nf\013\367"
 178      75692F8A 
 178      093F9445 
 178      4E35ED4B 
 178      79C21F15 
 179 0049 0FF6A6B2 		.ascii	"\017\366\246\262d\364\247\362\233\356@5\257\364p\225"
 179      64F4A7F2 
 179      9BEE4035 
 179      AFF47095 
 180 0059 188EE686 		.ascii	"\030\216\346\206\356\254G\007<\217\026qW\36046\346T"
 180      EEAC4707 
 180      3C8F1671 
 180      57F03436 
 180      E654
 181 006b 3B23     		.ascii	";#"
 182              		.text
 183              		.section	.gnu.lto_.refs.31eb28ea4b038451,"",%progbits
 184 0000 789C6362 		.ascii	"x\234cb`b\340f\200\000F\026\006V&6FVFV\006\000\001\363"
 184      6062E066 
 184      80004616 
 184      06562636 
 184      46564656 
 185 0018 002E     		.ascii	"\000."
 186              		.text
 187              		.section	.gnu.lto_.decls.31eb28ea4b038451,"",%progbits
 188 0000 789CBD5B 		.ascii	"x\234\275[\013p\024\307\231\236\231]\355j%\031\010\011"
 188      0B7014C7 
 188      999E995D 
 188      ED6A2519 
 188      0809
 189 0012 3EEC908B 		.ascii	">\354\220\213\234\312\353\222\203\345\025\033_\022\033"
 189      9CCAEB92 
 189      83E5151B 
 189      5F121B
 190 0021 974C622A 		.ascii	"\227Lb*\346Q\200s\\\325]6\303j\220\326\336WfG\010W\245"
 190      E6518073 
 190      5CD55D36 
 190      C36A90D6 
ARM GAS  /tmp/ccHSAuwK.s 			page 14


 190      DE576647 
 191 0038 EA06C916 		.ascii	"\352\006\311\026\030\203\221\005\030\233\360\020`aB"
 191      18839105 
 191      189BF010 
 191      606142
 192 0047 8060C032 		.ascii	"\200`\3002\310 \006\363\022\362C\200\014H\302\310K\014"
 192      C82006F3 
 192      12F24380 
 192      0C48C2C8 
 192      4B0C
 193 0059 75103046 		.ascii	"u\0200F\020\036\"\030]\367?\217\235\236\235\331\235"
 193      101E2218 
 193      5DF73F8F 
 193      9D9E9DD9 
 193      9D
 194 006a 112453EA 		.ascii	"\021$S\352\177g\246\247\277\376_\375\367\337=#\206b"
 194      7F67A6A7 
 194      BFFE5FFD 
 194      F7DF3D23 
 194      8662
 195 007c A80F198A 		.ascii	"\250\017\031\212\352A\307\236'(\352C/E\345R\024\365"
 195      EA41C79E 
 195      2728EA43 
 195      2F45E552 
 195      14F5
 196 008e 18953AD0 		.ascii	"\030\225:\320-j\025*\177F\245\015\225NT\316\240r\036"
 196      2D6A152A 
 196      7F46A50D 
 196      954E54CE 
 196      A0721E
 197 00a1 952F50A1 		.ascii	"\225/P\241Q\271I\221\007~\336\203\312\032T\372\240R"
 197      51B94991 
 197      077EDE83 
 197      CA1A54FA 
 197      A052
 198 00b3 800A83FA 		.ascii	"\200\012\203\372\361\241\342b\3446\371\312\357*\005"
 198      F1A1E262 
 198      E436F9CA 
 198      EF2A05
 199 00c2 E33F1812 		.ascii	"\343?\030\022\003\367\347S\372W1\360\365nT\266\242\262"
 199      03F7E753 
 199      FA5731F0 
 199      F56E54B6 
 199      A2B2
 200 00d4 45C1DF87 		.ascii	"E\301\337\207J\016*\215\250\354De/*\015\250lWp1\216"
 200      4A0E2A8D 
 200      A8EC4465 
 200      2F2A0DA8 
 200      6C577031 
 201 00e9 0B9523A8 		.ascii	"\013\225#\250\264\242r\314\300k\233\322\307\032\035"
 201      B4A272CC 
 201      C06B9BD2 
 201      C71A1D
 202 00f8 AE57E967 		.ascii	"\256W\351g\237\322g\216\202\327\240\364\321\250\364"
 202      9FD2678E 
 202      82D7A0F4 
 202      D1A8F4
ARM GAS  /tmp/ccHSAuwK.s 			page 15


 203 0107 432BEDF1 		.ascii	"C+\355\361\357\247\006\\\254\247\\\003\377?E2\2566\364"
 203      EFA7065C 
 203      ACA75C03 
 203      FF3F4532 
 203      AE36F4
 204 011a 452B988C 		.ascii	"E+\230\214\322F\325\307_\014xX\347\371\031\360\256\243"
 204      D246D5C7 
 204      5F0C7858 
 204      E7F919F0 
 204      AEA3
 205 012c 46DDE8F7 		.ascii	"F\335\350\367g\350\336\317Q\331\254`^C\367\377N\313"
 205      67E8DECF 
 205      51D9AC60 
 205      5E43F7FF 
 205      4ECB
 206 013e 3A3843A5 		.ascii	":8C\245l\211\353\376\217J\267\335y\223~\266\232\364"
 206      6C89EBFE 
 206      8F4AB7DD 
 206      79937EB6 
 206      9AF4
 207 0150 F11823F3 		.ascii	"\361\030#\363\337\256\350W\355\007\313\342Vp\364\376"
 207      DFAEE857 
 207      ED07CBE2 
 207      5670F4FE 
 208 0160 62E627D8 		.ascii	"b\346'\330\177\362l\350H\225G\325\225Ki\253\227\345"
 208      7FF26CE8 
 208      489547D5 
 208      954B69AB 
 208      97E5
 209 0172 1A2A570D 		.ascii	"\032*W\015\370\337\246V\210\322\341\344\213\215\363"
 209      F8DFA656 
 209      88D2E1E4 
 209      8B8DF3
 210 0181 FC6F88D2 		.ascii	"\374o\210\322\013\"rs\221.\274\237Z,\242\243\266J\024"
 210      0B227273 
 210      912EBC9F 
 210      5A2CA2A3 
 210      B64A14
 211 0194 69C147CD 		.ascii	"i\301G\315\021\305\012|\361T\023ba*\315\322}|T!\234"
 211      11C50A7C 
 211      F1541362 
 211      612ACDD2 
 211      7D7C5421 
 212 01a9 14F84092 		.ascii	"\024\370@\222\357Qo\212bur\327\331\013.Q\314e\3515\264"
 212      EF516F8A 
 212      627572D7 
 212      D90B2E51 
 212      CC65E935 
 213 01be 0FF5C8D1 		.ascii	"\017\365\310\321\324\217\250?\"\234jQ\\\375\010M\245"
 213      D48FA83F 
 213      229C6A51 
 213      5CFD084D 
 213      A5
 214 01cf 1FF6A1DB 		.ascii	"\037\366\241\333g\357\337CW vX\372-\000?G\323\024K\257"
 214      67EFDF43 
 214      57207658 
 214      FA2D003F 
ARM GAS  /tmp/ccHSAuwK.s 			page 16


 214      47D3144B 
 215 01e4 A57FE418 		.ascii	"\245\177\344\030\252u\301\316G\201\313\365\000t\235"
 215      AA75C1CE 
 215      4781CBF5 
 215      00749D
 216 01f3 218158DA 		.ascii	"!\201X\332\353\323\363\010\327\352\003\030\015\252\225"
 216      EBD3F308 
 216      D7EA0318 
 216      0DAA95
 217 0202 131C16FA 		.ascii	"\023\034\026\372R\377\340\307\315d\301-W\323\367+g\317"
 217      52FFE0C7 
 217      CD64C12D 
 217      57D3F72B 
 217      67CF
 218 0214 B8643486 		.ascii	"\270d4\206\232\345\"\245\241\250\357SuH1\262\205\027"
 218      9AE522A5 
 218      A1A8EF53 
 218      754831B2 
 218      8517
 219 0226 496ED938 		.ascii	"In\3318\270\321*\372\333\026\320P\275\221&\302\215\342"
 219      B8D12AFA 
 219      DB16D050 
 219      BD9126C2 
 219      8DE2
 220 0238 28373AEA 		.ascii	"(7:\352\377\335\312QX\372\261\001\226\314nV\230u\201"
 220      FFDDCA51 
 220      58FAB101 
 220      96CC6E56 
 220      987581
 221 024b 2BA2F133 		.ascii	"+\242\36137e\256\376\324\253\030\245p\316\347\264&\255"
 221      3765AEFE 
 221      D4AB18A5 
 221      70CEE7B4 
 221      26AD
 222 025d 44AB0803 		.ascii	"D\253\010\003S\246\353\372C\31300\335V\272?\302i7\010"
 222      53A6EBFA 
 222      43CB3030 
 222      DD56BA3F 
 222      C2693708 
 223 0271 9B1D0773 		.ascii	"\233\035\007sR\217\332\312\255\000U\224\336>P \272\345"
 223      528FDACA 
 223      AD005594 
 223      DE3E5020 
 223      BAE5
 224 0283 FB944179 		.ascii	"\373\224Ay\272\343!\252\026q,m=\260\354\001\261\366"
 224      BAE321AA 
 224      16712C6D 
 224      3DB0EC01 
 224      B1F6
 225 0295 7D5A75F2 		.ascii	"}Zu\362\213\300\003nk&\271r*\037\312\003$\336\266\003"
 225      8BC0036E 
 225      6B26B972 
 225      2A1FCA03 
 225      24DEB603 
 226 02a9 05D5AC0A 		.ascii	"\005\325\254\012\326\345\030\254\220\000\253\327\203"
 226      D6E518AC 
 226      9000ABD7 
ARM GAS  /tmp/ccHSAuwK.s 			page 17


 226      83
 227 02b6 DDB00396 		.ascii	"\335\260\003\226k\315\331v\014\346`\360\357\230\367"
 227      6BCDD976 
 227      0CE660F0 
 227      EF98F7
 228 02c5 73B0CD6E 		.ascii	"s\260\315n\350\375\266\3138\254\336\242\035\217+\206"
 228      E8FDB6CB 
 228      38ACDEA2 
 228      1D8F2B86 
 229 02d5 AA743B15 		.ascii	"\252t;\025\202\320H\262\353\344\307\257\322k*\3059\225"
 229      82D048B2 
 229      EBE4C7AF 
 229      D26B2AC5 
 229      3995
 230 02e7 1E4514A9 		.ascii	"\036E\024\251J\234C\317z{\220\326`\264\036F\025\346"
 230      4A9C43CF 
 230      7A7B90D6 
 230      60B41E46 
 230      15E6
 231 02f9 BC12C9F6 		.ascii	"\274\022\311\366\2010/\272M\203\215-\250\366\331-j\344"
 231      81302FBA 
 231      4D838D2D 
 231      A8F6D92D 
 231      6AE4
 232 030b 3A0860AF 		.ascii	":\010`\257\364\036\254\266\265e\020v\325f\000Z\3426"
 232      F41EACB6 
 232      B5651076 
 232      D566005A 
 232      E236
 233 031d AAD867D0 		.ascii	"\252\330g\320\260\217\324\260\317\227:\351Q\0172.\377"
 233      B08FD4B0 
 233      CF973AE9 
 233      510F322E 
 233      FF
 234 032e 43DB30D4 		.ascii	"C\3330\324j\2439\011!\225\323~&>iv\350\2072K\277K\177"
 234      6AA33909 
 234      2195D37E 
 234      263E6976 
 234      E887324B 
 235 0345 0FD1EDF4 		.ascii	"\017\321\355\364C\2106\000\335\011\264\021\350^D\265"
 235      43883600 
 235      DD09B411 
 235      E85E44B5 
 236 0355 C32A466D 		.ascii	"\303*Fm\241\363\325G\2240\245F\313\264\353T\314\245"
 236      A1F3D547 
 236      9430A546 
 236      CBB4EB54 
 236      CCA5
 237 0367 B05C1B0D 		.ascii	"\260\\\033\015\246\370.\265F\024kp\264,E\321\322-C3"
 237      A6F82EB5 
 237      46146B70 
 237      B42C45D1 
 237      D22D4333 
 238 037b D43BF0D8 		.ascii	"\324;\360\330\237-\002\257\302\200\334V:\365v3-\366"
 238      9F2D02AF 
 238      C280DC56 
 238      3AF57633 
ARM GAS  /tmp/ccHSAuwK.s 			page 18


 238      2DF6
 239 038d 5707F38E 		.ascii	"W\007\363\216,-\201-\245e'\367\224\332l\227\235f\312"
 239      2C2D812D 
 239      A56527F7 
 239      94DA6C97 
 239      9D66CA
 240 03a0 1C214A27 		.ascii	"\034!J'\337\236UK\213\036\210\343\224\322\216\320\367"
 240      DF9E554B 
 240      8B1E88E3 
 240      94D28ED0 
 240      F7
 241 03b1 E1F43921 		.ascii	"\341\3649!yXZ8\373\003Z\254\021o\367\364T\272)\3733"
 241      79585A38 
 241      FB035AAC 
 241      116FF7F4 
 241      54BA29FB 
 242 03c6 423B3923 		.ascii	"B;9#\310\322\033\364\272\317T\257\342V,\241\374\370"
 242      C8D21BF4 
 242      BACF54AF 
 242      E2562CA1 
 242      FCF8
 243 03d8 51C4124B 		.ascii	"Q\304\022K\267eV\251*\2418_|\261\037\255\311\327f\224"
 243      B76556A9 
 243      2AA1385F 
 243      7CB11FAD 
 243      C9D76694 
 244 03ec EFA4A97C 		.ascii	"\357\244\251|\307\016.@!\277B\352\351\331=Z\341\233"
 244      C70E2E40 
 244      21BF42EA 
 244      E9D93D5A 
 244      E19B
 245 03fe A15A09CE 		.ascii	"\241Z\011\316@\006\206:\357\246\011>\257\032\371\354"
 245      4006863A 
 245      EFA6093E 
 245      AF1AF9EC 
 246 040e B4C9E76E 		.ascii	"\264\311\347nq\342@\215\315N#\233\237\231\262y\347`"
 246      71E2408D 
 246      CD4E239B 
 246      9F99B279 
 246      E760
 247 0420 41F5AC64 		.ascii	"A\365\254dO\317\312B\225\307+\351<\262\364i\265\261"
 247      4FCFCA42 
 247      95C72BE9 
 247      3CB2F469 
 247      B5B1
 248 0432 C2639791 		.ascii	"\302c\227\221\3073\275\341\361\214\221\307\263\351<"
 248      C733BDE1 
 248      F18C91C7 
 248      B3E93C
 249 0441 D64AD27B 		.ascii	"\326J\322{U\275r\225\277\232d:\263sL3\035t\254\023]"
 249      55BD7295 
 249      BF9A643A 
 249      B3734C33 
 249      1D74AC13 
 250 0456 1A5FE78D 		.ascii	"\032_\347\215|]0\345\353H\263\316\304\366\371\272d\346"
 250      7C5D30E5 
 250      EB48B3CE 
ARM GAS  /tmp/ccHSAuwK.s 			page 19


 250      C4F6F9BA 
 250      64E6
 251 0468 C2C40595 		.ascii	"\302\304\005\225\026*\252sl\030\345\206j\024\206Z\007"
 251      162AAA73 
 251      6C18E586 
 251      6A14865A 
 251      07
 252 0479 CF7F612B 		.ascii	"\317\177a+f\034m.\250\246\325\206\033\3554\324\306\376"
 252      661C6D2E 
 252      A8A6D586 
 252      1BED34D4 
 252      C6FE
 253 048b 91E6BE73 		.ascii	"\221\346\276s\177\253\251\355\013\243\332\272H\265}"
 253      7FABA9ED 
 253      0BA3DABA 
 253      48B57D
 254 049a 875A2526 		.ascii	"\207Z%&\253\223\307.\264\275D\357\251\023\245j\244\253"
 254      AB93C72E 
 254      B4BD44EF 
 254      A913A56A 
 254      A4AB
 255 04ac CB744F8F 		.ascii	"\313tO\217\327,\005\023\007\250\035\037\306 \312\274"
 255      D72C0513 
 255      07A81D1F 
 255      C620CABC 
 256 04bc 78F292F4 		.ascii	"x\362\222\364\257\015\242\330\217\245\273!\231\273\235"
 256      AF0DA2D8 
 256      8FA5BB21 
 256      99BB9D
 257 04cb 933D9933 		.ascii	"\223=\2313 1\324\034\017nt\333\220\321!\276\2223_\007"
 257      2031D41C 
 257      0F6E74DB 
 257      90D121BE 
 257      92335F07 
 258 04df ECDB3692 		.ascii	"\354\3336\222:\224\001v.\243qR\247\366\251Ku\222Z\376"
 258      3A940176 
 258      2EA37152 
 258      A7F6A94B 
 258      75925AFE 
 259 04f3 3848CFFB 		.ascii	"8H\317\373\315\007\033\001_d0\3575\036s\336-q\030j%"
 259      CD071B01 
 259      5F6430EF 
 259      351E73DE 
 259      2D71186A 
 260 0508 34A964D2 		.ascii	"4\251d\3228?\374\254\3149\256\312\316\371\211\016K\316"
 260      383FFCAC 
 260      CC39AECA 
 260      CEF9890E 
 260      4BCE
 261 051a CD9211A4 		.ascii	"\315\222\021\244\364\007\017\001\374l`|\2439\343\265"
 261      F4070F01 
 261      FC6C607C 
 261      A339E3B5 
 262 052a A3AD70D0 		.ascii	"\243\255p\320\224\002M\346\2463~s\210\314\370\\\033"
 262      94024DE6 
 262      A6337E73 
 262      88CCF85C 
ARM GAS  /tmp/ccHSAuwK.s 			page 20


 262      1B
 263 053b 8C57485D 		.ascii	"\214WH]//\207<\332t!\240\353\275\326\255v\377dJ\214"
 263      2F2F873C 
 263      DA7421A0 
 263      EBBDD6AD 
 263      76FF644A 
 264 0550 8E4B37BD 		.ascii	"\216K7\275\220\236-\000)>\316\256~\022\206\241N@\223"
 264      909E2D00 
 264      293ECEAE 
 264      7E1286A1 
 264      4E4093
 265 0563 1A13F58F 		.ascii	"\032\023\365\217\222\245\250\261%\305\222W\226+\253"
 265      92A5A8B1 
 265      25C59257 
 265      962BAB
 266 0572 8157183C 		.ascii	"\201W\030<\346Nk\260\275[\015,\375\030\022x\031\354"
 266      E64E6BB0 
 266      BD5B0D2C 
 266      FD181278 
 266      19EC
 267 0584 9C63B042 		.ascii	"\234c\260B\002l\345\307\362R\305A\016\277J\311\341\227"
 267      026CE5C7 
 267      F252C541 
 267      0EBF4AC9 
 267      E197
 268 0596 32387BF8 		.ascii	"28{\370\322sOr\370\033v\344\260\\\210`\243H\217\356"
 268      D2734F72 
 268      F81B76E4 
 268      B05C8860 
 268      A3488FEE 
 269 05aa D8228A2F 		.ascii	"\330\"\212/yT\367\364X\311\301Pw\240\263\225F\303.\277"
 269      7954F7F4 
 269      58C9C150 
 269      77A0B395 
 269      46C32EBF 
 270 05be D5F46FB2 		.ascii	"\325\364o\262aW\3322\354;\315K\354\271'\243v\377]\350"
 270      6157DA32 
 270      EC3BCD4B 
 270      ECB927A3 
 270      76FF5DE8 
 271 05d2 7E931777 		.ascii	"~\223\027w\377\246\261\373\272\236=4(\366M[\275\037"
 271      FFA6B1FB 
 271      BA9E3D34 
 271      28F64D5B 
 271      BD1F
 272 05e4 39BA28BD 		.ascii	"9\272(\275w\313\231H1\336\362[\347\006\255\004\021\327"
 272      77CB9948 
 272      31DEF25B 
 272      E706AD04 
 272      11D7
 273 05f6 81FB3478 		.ascii	"\201\3734x\215\326{<_\337\027\\\353\036`\250\275\032"
 273      8DD67B3C 
 273      5FDF175C 
 273      EB1E60A8 
 273      BD1A
 274 0608 F3BDF2DE 		.ascii	"\363\275\362\336d\335\372f\006o\016\270T\026\0168\006"
 274      64DDFA66 
ARM GAS  /tmp/ccHSAuwK.s 			page 21


 274      066F0EB8 
 274      54160E38 
 274      06
 275 0619 243DF893 		.ascii	"$=\370\223\2430\034d\260Cv\3002\254g\217\353\301>t\014"
 275      A3301C64 
 275      B04376C0 
 275      32AC678F 
 275      EBC13E74 
 276 062e 4672D6A6 		.ascii	"Fr\326\246\007k\261\003f\266\252Q\300:\364`G\035\203"
 276      076BB103 
 276      66B6AA51 
 276      C03AF460 
 276      471D83
 277 0641 919C7DAA 		.ascii	"\221\234}\252\007;f\007l\2405g\235z\260v\307`$g\227"
 277      073B6607 
 277      6CA03567 
 277      9D7AB076 
 277      C7602467 
 278 0656 F560A7EC 		.ascii	"\365`\247\354\200\025\232p\246\035VI\331\032Fss\206"
 278      80159A70 
 278      A61D5649 
 278      D91A4673 
 278      7386
 279 0668 4A7AD570 		.ascii	"Jz\325p\340\320\245\251\024\306\031\257\323\370E\310"
 279      E0D0A5A9 
 279      14C619AF 
 279      D3F845C8 
 280 0678 8D279547 		.ascii	"\215'\225G\033 ~\251\221\375\257v\02038L\275~\232\270"
 280      1B207EA9 
 280      91FDAF76 
 280      1033384C 
 280      BD7E9AB8 
 281 068c E2188C34 		.ascii	"\342\030\2144\313'\030\214\2104\312\204\221\254\223"
 281      CB27188C 
 281      8834CA84 
 281      91AC93
 282 069b 06BE9E0A 		.ascii	"\006\276\236\012u\271*\026^\343\310q\255Z\024\031\355"
 282      75B92A16 
 282      5EE3C871 
 282      AD5A1419 
 282      ED
 283 06ac 6171E040 		.ascii	"aq\340@\363gYz?\203\327\346\007\030\237\306\205|\256"
 283      F367597A 
 283      3F83D7E6 
 283      07189FC6 
 283      857CAE
 284 06bf 9EC99B03 		.ascii	"\236\311\233\003\267\274f{\304\000\220\271\251\225'"
 284      B7BC667B 
 284      C40090B9 
 284      A99527
 285 06ce ECD57B42 		.ascii	"\354\325{B\217\0355e\030\012\227\255\324dk\027\010\005"
 285      8F1D3565 
 285      180A97AD 
 285      D4646B17 
 285      0805
 286 06e0 E76FAD87 		.ascii	"\347o\255\207\340\374\001L\255U\271\306\340|\3208\265"
 286      E0FC014C 
ARM GAS  /tmp/ccHSAuwK.s 			page 22


 286      AD55B9C6 
 286      E07CD038 
 286      B5
 287 06f1 DADC54B1 		.ascii	"\332\334T\261\022\276Y/\374\253\271N\2057\272\360\271"
 287      12BE592F 
 287      FCABB94E 
 287      8537BAF0 
 287      B9
 288 0702 9FEED824 		.ascii	"\237\356\330$\212\332.\0326wF\337@\311\3045e\017\355"
 288      8ADA2E1A 
 288      367746DF 
 288      40C9C435 
 288      650FED
 289 0715 3048BCCC 		.ascii	"0H\274\314 \261}\240\366\331\033\177\014@\255\000T\327"
 289      20B17DA0 
 289      F6D91B7F 
 289      0C40AD00 
 289      54D7
 290 0727 6BA0D605 		.ascii	"k\240\326\005+F\001\320q\000\332\230f\003\243\011h\322"
 290      2B4601D0 
 290      7100DA98 
 290      6603A309 
 290      68D2
 291 0739 04B42F75 		.ascii	"\004\264/u\222\266\007v\017\237e\250w\215\366\"\304"
 291      92B60776 
 291      0F9F65A8 
 291      778DF622 
 291      C4
 292 074a C9101D35 		.ascii	"\311\020\0355{5\375\314\261\275\272\024{\235\004\355"
 292      7B35FDCC 
 292      B1BDBA14 
 292      7B9D04ED 
 293 075a EC4ED34E 		.ascii	"\354N\323N+\343L=\014u\320\261\030\271\0061.;\027\243"
 293      2BE34C3D 
 293      0C75D0B1 
 293      18B90631 
 293      2E3B17A3 
 294 076e 5B112309 		.ascii	"[\021#\011b\264\334\0031N8\026\243\237N\014X\033\215"
 294      62B4DC03 
 294      314E3816 
 294      A39F4E0C 
 294      581B8D
 295 0781 9713D8AF 		.ascii	"\227\023\330\257S5\231\023X\330:a\276Nd\217\322\265"
 295      53359913 
 295      58D83A61 
 295      BE4E648F 
 295      D2B5
 296 0793 16BA50BE 		.ascii	"\026\272P\276\235}A\270\360\250.\351\027m%\375uJ\322"
 296      9D7D41B8 
 296      F0A82EE9 
 296      176D25FD 
 296      754AD2
 297 07a6 7F0E14D6 		.ascii	"\177\016\024\326i6\274\354\000\325\266\037\034\2007"
 297      6936BCEC 
 297      00D5B61F 
 297      1C8037
 298 07b5 A72F00CC 		.ascii	"\247/\000\314\231\336\302$[[\336\225G\351%\000\272\230"
ARM GAS  /tmp/ccHSAuwK.s 			page 23


 298      99DEC224 
 298      5B5BDE95 
 298      47E92500 
 298      BA98
 299 07c7 66408FC1 		.ascii	"f@\217\301~\036\322~\350"
 299      7E1ED27E 
 299      E8
 300 07d0 12F77413 		.ascii	"\022\367t\023\342\343\377*w\360\205\227\372\247\267"
 300      E2E3FF2A 
 300      77F08597 
 300      FAA7B7
 301 07df 63A8EBC0 		.ascii	"c\250\353\300>\266]orjX\374\214\335\241$\017\262\201"
 301      3EB65D6F 
 301      726A58FC 
 301      8CDDA124 
 301      0FB281
 302 07f2 BEBA2BC4 		.ascii	"\276\272+\304\012iw\215\272f}\034\247\017U\276\273\203"
 302      0A69778D 
 302      BA667D1C 
 302      A70F55BE 
 302      BB83
 303 0804 837C9398 		.ascii	"\203|\223\230\027\015\253\226\005\026\263\216\266%\221"
 303      170DAB96 
 303      0516B38E 
 303      B62591
 304 0813 1CB80166 		.ascii	"\034\270\001f\306\233\220\316\314\367\031\355\375\012"
 304      C69B90CE 
 304      CCF719ED 
 304      FD0A
 305 0821 6358B7E0 		.ascii	"cX\267\340\033\272G\254\306\321\015\375\014X{Wbb;\264"
 305      1BBA47AC 
 305      C6D10DFD 
 305      0C587B57 
 305      62623BB4 
 306 0835 FD8AB4C3 		.ascii	"\375\212\264\303\332\273T\334\033\013\355\355\200\374"
 306      DABB54DC 
 306      1B0BEDED 
 306      80FC
 307 0843 56C5826F 		.ascii	"V\305\202oD\250M\320\255\3502\2540o\374\351t\225\362"
 307      44A84DD0 
 307      ADE832AC 
 307      306FFCE9 
 307      7495F2
 308 0856 9A09D765 		.ascii	"\232\011\327e\017\024'\317\372\304\232\002u#\350\224"
 308      0F1427CF 
 308      FAC49A02 
 308      7523E894 
 309 0866 866A96C4 		.ascii	"\206j\226\304dU\217\324\3115\015u\020r\336QBN\225\013"
 309      64558FD4 
 309      C9350D75 
 309      1072DE51 
 309      424E950B 
 310 087a 6BF26C9A 		.ascii	"k\362l\232\311/\030c\264\2431w\301(\214\335\225\242"
 310      C92F1863 
 310      B4A33177 
 310      C1288CDD 
 310      95A2
ARM GAS  /tmp/ccHSAuwK.s 			page 24


 311 088c 7658B954 		.ascii	"vX\271T\217\336\245\272\356\316\001pR5N^\027ds\001Q"
 311      8FDEA5BA 
 311      EECE0170 
 311      52354E5E 
 311      17647301 
 312 08a1 DB3CEC07 		.ascii	"\333<\354\007=\337\204\236\347\033}`\341\226C\263\351"
 312      3DDF849E 
 312      E71B7D60 
 312      E19643B3 
 312      E9
 313 08b2 59E003F3 		.ascii	"Y\340\003\363m\371\3005\302\007\326\344\251\250\275"
 313      6DF9C035 
 313      C207D6E4 
 313      A9A8BD
 314 08c1 F1810AA9 		.ascii	"\361\201\012\251\373\374!\032\340\344u\311\237\214p"
 314      FBFC211A 
 314      E0E475C9 
 314      9F8C70
 315 08d0 0ED7EBB7 		.ascii	"\016\327\353\267\221K9S\214\354]R\373Y<]\276\346\302"
 315      914B3953 
 315      8CEC5D52 
 315      FB593C5D 
 315      BEE6C2
 316 08e3 326DCD33 		.ascii	"2m\3153\272\226\254\031\235k\245\324\210b\225\013/T"
 316      BA96AC19 
 316      9D6BA5D4 
 316      8862950B 
 316      2F54
 317 08f5 AA5DF895 		.ascii	"\252]\370\225a\015\320E.\033/\016\027\273tn\361\236"
 317      610DD045 
 317      2E1B2F0E 
 317      17BB746E 
 317      F19E
 318 0907 63B90B6D 		.ascii	"c\271\013mz\337<}7\357\347\335\235\367}r\341\334x\330"
 318      7ADF3C7D 
 318      37EFE7DD 
 318      9DF77D72 
 318      E1DC78D8 
 319 091b AC71B03D 		.ascii	"\254q\260=\270Q\031\266\313`\330\036J\323m\257\266\007"
 319      B85119B6 
 319      CB60D81E 
 319      4AD36DAF 
 319      B607
 320 092d 8FF55610 		.ascii	"\217\365V\020\355`\250O\363l\254o\012Mt\256E\367\344"
 320      ED60A84F 
 320      F36CAC6F 
 320      0A4D74AE 
 320      45F7E4
 321 0940 049B5B8C 		.ascii	"\004\233[\214\332\264\325\364@\023L[\253\301\321\222"
 321      DAB4D5F4 
 321      40134C5B 
 321      ABC1D192 
 322 0950 0665D8D8 		.ascii	"\006e\330\330\252\374\022\232\324\031G1\232\361\225"
 322      AAFC129A 
 322      D4194731 
 322      9AF195
 323 095f 9DF43A1B 		.ascii	"\235\364:\033\203\270Bj}Y\277\007\215\034\237a\024\330"
ARM GAS  /tmp/ccHSAuwK.s 			page 25


 323      83B8426A 
 323      7D59BF07 
 323      8D1C9F61 
 323      14D8
 324 0971 DEEA9330 		.ascii	"\336\352\2230a\235nx\274\005\303c\235~H\240\205\265"
 324      619D6E78 
 324      BC05C363 
 324      9D7E48A0 
 324      85B5
 325 0983 1DDDFFD0 		.ascii	"\035\335\377\320\312\021Ei\361q\371\025\206\032\206"
 325      CA114569 
 325      F171F915 
 325      861A86
 326 0992 5ECA37E0 		.ascii	"^\3127\340\231\205!\002Oo\313\012i\363q\330\034\221"
 326      99852102 
 326      4F6FCB0A 
 326      69F371D8 
 326      1C91
 327 09a4 7D749111 		.ascii	"}t\221\021\314\214\271\241\326`\273_S\225\213\007\037"
 327      CC8CB9A1 
 327      D660BB5F 
 327      53958B07 
 327      1F
 328 09b5 43ADB483 		.ascii	"C\255\264\2037\312J\330\012\351\304q\365\363!y\213\375"
 328      37CA4AD8 
 328      0AE9C471 
 328      F5F32179 
 328      8BFD
 329 09c7 8F8EF148 		.ascii	"\217\216\361H\376\256\275F$s\333\354\300\215\266m\373"
 329      FEAEBD46 
 329      2473DBEC 
 329      C08DB66D 
 329      FB
 330 09d8 D4FB1114 		.ascii	"\324\373\021\024\010a\017g1\203\203\342\022\240o\000"
 330      08610F67 
 330      318383E2 
 330      12A06F00 
 331 09e8 5D01B411 		.ascii	"]\001\264\021\250\004\364}\240\207\200\266\000\355\000"
 331      A804F47D 
 331      A08780B6 
 331      00ED00
 332 09f7 FA19D033 		.ascii	"\372\031\3203@WAp]\017t\003\320M@7\003\335b'\350\032"
 332      40574170 
 332      5D0F7403 
 332      D04D4037 
 332      03DD6227 
 333 0a0d B240D5F1 		.ascii	"\262@\325\361\347\366\372\345\313\225\017\264]5\226"
 333      E7F6FAE5 
 333      CB950FB4 
 333      5D3596
 334 0a1c 7EDD3158 		.ascii	"~\3351Xa&M\316\325ir\036hr>\350a\0339\226v\346\253o"
 334      61264DCE 
 334      D569721E 
 334      68723EE8 
 334      611B3996 
 335 0a34 057B3705 		.ascii	"\005{7\005\267w\220\356\265\317\210\347h\016\026\245"
 335      B77790EE 
ARM GAS  /tmp/ccHSAuwK.s 			page 26


 335      B5CF88E7 
 335      680E16A5 
 336 0a44 4F3B4025 		.ascii	"O;@%+a`~\340\030\214\364\325\253K\311\227eG\354\340"
 336      2B61607E 
 336      E0188CF4 
 336      D5AB4BC9 
 336      976547EC 
 337 0a59 65D805FD 		.ascii	"e\330\005\375[\207n\027\264\3351\030\311\334-=\330i"
 337      5B876E17 
 337      B4DD3118 
 337      C9DC2D3D 
 337      D869
 338 0a6b 3B60667B 		.ascii	";`f{\205\346\306\257\324\031\377E0~\025\030\277\036"
 338      85E6C6AF 
 338      D419FF45 
 338      307E1518 
 338      BF1E
 339 0a7d 9C7D3BD0 		.ascii	"\234};\320\006\240;\2016\222Nq!_}\311\255tF\276K\316"
 339      06A03B81 
 339      36924E71 
 339      215F7DC9 
 339      AD7446BE 
 340 0a93 9E9CEFB0 		.ascii	"\236\234\357\260~\275m\226@\241\271\355\362\2406\230"
 340      7EBD6D96 
 340      40A1B9ED 
 340      F2A03698 
 341 0aa3 81DE87B9 		.ascii	"\201\336\207\271\255+?\353\373Uc\206:\273\0007\331\237"
 341      AD2B3FEB 
 341      FB556386 
 341      3ABB0037 
 341      D99F
 342 0ab5 3EB79D0B 		.ascii	">\267\235\013\310s\333~[s\333WKl\276%\326\272\377\206"
 342      C873DB7E 
 342      5B73DB57 
 342      4B6CBE25 
 342      D6BAFF86 
 343 0ac9 5E8CA641 		.ascii	"^\214\246A\362\313\356f\020cEA\366\327\304\004\016Z"
 343      F2CBEE66 
 343      10634541 
 343      F6D7C404 
 343      0E5A
 344 0adb 6C41938F 		.ascii	"lA\223\217L\304\370\037Y\214\217l\211\261k\211\352\371"
 344      4CC4F81F 
 344      598C8F6C 
 344      89B16B89 
 344      EAF9
 345 0aed 876016D9 		.ascii	"\207`\026\331\255\301\366.R5\236\000g\225\301\016:\006"
 345      ADC1F62E 
 345      52359E00 
 345      6795C10E 
 345      3A06
 346 0aff 233DFFC8 		.ascii	"#=\377\310\011\247\257\211O^j[\253\2545\217\301,\333"
 346      09A7AF89 
 346      4F5E6A5B 
 346      ABAC358F 
 346      C12CDB
 347 0b12 62D06C2F 		.ascii	"b\320l/3\301v;\222X\257\030\360\256\347ov\244/\250\354"
ARM GAS  /tmp/ccHSAuwK.s 			page 27


 347      33C1763B 
 347      9258AF18 
 347      F0AEE76F 
 347      76A42FA8 
 348 0b27 7FCF73D2 		.ascii	"\177\317s\322e\370\236\347q\303\027i\031\225\222\374"
 348      65F89EE7 
 348      71C31769 
 348      199592FC 
 349 0b37 E63AF089 		.ascii	"\346:\360\211\0160\313_\014:1\354\212\340\256\254\330"
 349      0E30CB5F 
 349      0C3A31EC 
 349      8AE0AEAC 
 349      D8
 350 0b48 F8CC956F 		.ascii	"\370\314\225o\341Riu(:8V\032a~\274\261\361\033\365\355"
 350      E1526975 
 350      283A3856 
 350      1A617EBC 
 350      B1F11BF5 
 351 0b5d 14E41057 		.ascii	"\024\344\020W\355\000\332\377F\363#]\376\330\002\371"
 351      ED00DAFF 
 351      46F3235D 
 351      FED802F9 
 352 0b6d E3610872 		.ascii	"\343a\010rG\201~\002\264\035\350i;\263\376\241\324\032"
 352      47817E02 
 352      B41DE869 
 352      3BB3FEA1 
 352      D41A
 353 0b7f 88A58FB8 		.ascii	"\210\245\217\270\030%\312\364n\034Uwh\343\210\245[\035"
 353      1825CAF4 
 353      6E1C5577 
 353      68E388A5 
 353      5B1D
 354 0b91 83118A94 		.ascii	"\203\021\212\224\026ks/\036\024,\335f\007/\303\372w"
 354      166B732F 
 354      1E142CDD 
 354      66072FC3 
 354      FA77
 355 0ba3 9BCC9C3C 		.ascii	"\233\314\234<\302ni\361\324\241\225\315\215\262_g\224"
 355      C26E69F1 
 355      D4A195CD 
 355      8DB25F67 
 355      94
 356 0bb4 83609426 		.ascii	"\203`\224&0\301\347@\317\000=K\316BU\367\031f!2\344"
 356      30C1E740 
 356      CF003D4B 
 356      CE4255F7 
 356      19662132 
 357 0bc9 9B4D8A7A 		.ascii	"\233M\212z\375\210\322\341N$\217\375\345U\333\267\344"
 357      FD88D2E1 
 357      4E248FFD 
 357      E555DBB7 
 357      E4
 358 0bda E5D57988 		.ascii	"\345\325y\210\335\363\357s\274\274Z\006M.\246\307\356"
 358      DDF3EF73 
 358      BCBC5A06 
 358      4D2EA6C7 
 358      EE
ARM GAS  /tmp/ccHSAuwK.s 			page 28


 359 0beb 64588EDD 		.ascii	"dX\216\335\027\263\307\356\027*\245\035\177X\233\232"
 359      17B3C7EE 
 359      172AA51D 
 359      7F589B9A 
 360 0bfb 822AB5F1 		.ascii	"\202*\265\361\273\017\345WV>J\274w\334\240\261\341\320"
 360      BB0FE557 
 360      563E4ABC 
 360      77DCA0B1 
 360      E1D0
 361 0c0d 47CD2D77 		.ascii	"G\315-wQg\271K`\271/I;\325\033\355\224u9F\232\251\275"
 361      5167B94B 
 361      60B92F49 
 361      3BD51BED 
 361      94753946 
 362 0c24 535D8EC9 		.ascii	"S]\216\311\037W5\030\361\310O\251\224Sb\011E\021\200"
 362      1F573518 
 362      F1C84FA9 
 362      94536209 
 362      451180
 363 0c37 579CD8BD 		.ascii	"W\234\330\275\353d\243\374\366\346:\230}\277S\263c\025"
 363      EB64A3FC 
 363      F6E63A98 
 363      7DBF53B3 
 363      6315
 364 0c49 751B4C2E 		.ascii	"u\033L.uq\205\362\335\3543u\367Ye\017k\015\274\025:"
 364      757185F2 
 364      DDEC3375 
 364      F759650F 
 364      6B0DBC15 
 365 0c5e 0E5FC476 		.ascii	"\016_\304v\337+\343u\353\214w\013\214\367w\322x\307"
 365      DF2BE375 
 365      EB8C770B 
 365      8CF777D2 
 365      78C7
 366 0c70 ED182F6E 		.ascii	"\355\030/ni<\234\230\374~\241\210\377\333\341kT5$7s"
 366      693C9C98 
 366      FC7EA188 
 366      FFDBE16B 
 366      54352437 
 367 0c85 3EA7E577 		.ascii	">\247\345w\316\312\363\322}*L\033\255pu\307\36558#\366"
 367      CECAF3D2 
 367      7D2A4C1B 
 367      AD7075C7 
 367      F5353823 
 368 0c9a 6FE1112B 		.ascii	"o\341\021+\015\367\270R\257\343\013|\251\223\0075A\332"
 368      0DF7B852 
 368      AFE30B7C 
 368      A9930735 
 368      41DA
 369 0cac 8D8218FA 		.ascii	"\215\202\030\372U\316g\332V\335m\335\247\376w\340S\377"
 369      55CE67DA 
 369      56DD6DDD 
 369      A7FE77E0 
 369      53FF
 370 0cbe 1EF8B07F 		.ascii	"\036\370\260\177\017\304\252s@\257\002\275\006\364+"
 370      0FC4AA73 
 370      40AF02BD 
ARM GAS  /tmp/ccHSAuwK.s 			page 29


 370      06F42B
 371 0ccd 52B1E734 		.ascii	"R\261\3474GR\243\027\371))\356b\226[\373\3065[\276\231"
 371      4752A317 
 371      F92929EE 
 371      62965BFB 
 371      C6355BBE 
 372 0ce2 CC515BFF 		.ascii	"\314Q[\3777\245\371n\375\227\335\247\224\355\327J7\366"
 372      37A5F96E 
 372      FD97DDA7 
 372      94EDD74A 
 372      37F6
 373 0cf4 DE257DB2 		.ascii	"\336%}\262&\234$\020\346\242\312m\360\336S\327\233\344"
 373      269C2410 
 373      E6A2CA6D 
 373      F0DE53D7 
 373      9BE4
 374 0d06 6FC7704D 		.ascii	"o\307pM\366x\325u\275\211I\355\353Uf\314\347Xz\035\250"
 374      F678D575 
 374      BD8949ED 
 374      EB5566CC 
 374      E7587A1D 
 375 0d1b D24E7256 		.ascii	"\322NrV\013\302`\036z1\327\"\276\256`1\360\310z\311"
 375      0BC2601E 
 375      7A31D722 
 375      BEAE6031 
 375      F0C87AC9 
 376 0d2f 0D6FF11D 		.ascii	"\015o\361\035\303\025\022p\177#\3416\330\201\263\232"
 376      C3151270 
 376      7F23E136 
 376      D881B39A 
 377 0d3f 6C11DC75 		.ascii	"l\021\334u\022n\253c8\222\273\233$\\\203\0358\253\225"
 377      126EAB63 
 377      3892BB9B 
 377      245C831D 
 377      38AB95
 378 0d52 2E82BB45 		.ascii	".\202\273E\302\355u\014Grw\233\204k\266\003g\365e\314"
 378      C2ED750C 
 378      4772779B 
 378      846BB603 
 378      67F565CC 
 379 0d66 A24AE98E 		.ascii	"\242J\351\216\014\247\371\233tO\374\355\250c\256H!\253"
 379      0CA7F99B 
 379      744FFCED 
 379      A863AE48 
 379      21AB
 380 0d78 6F10429E 		.ascii	"o\020B\236\260\003Whm\202\032\022\356\224c8\222\273"
 380      B0035768 
 380      6D821A12 
 380      EE946338 
 380      92BB
 381 0d8a 4524DCE7 		.ascii	"E$\334\347v\3402\354\241\276&\303)A\037O\217\362\022"
 381      76E032EC 
 381      A1BE26C3 
 381      29411F4F 
 381      8FF212
 382 0d9d CC2A80AF 		.ascii	"\314*\200\257r;\015\371\253\335\346!_=\030\352\013\307"
 382      723B0DF9 
ARM GAS  /tmp/ccHSAuwK.s 			page 30


 382      ABDDE621 
 382      5F3D18EA 
 382      0BC7
 383 0daf 32902A79 		.ascii	"2\220*y\235T\311\015;pVi\007\202[J\302}\345\030\216"
 383      9D54C90D 
 383      3B705669 
 383      07825B4A 
 383      C27DE518 
 384 0dc4 E46E1909 		.ascii	"\344n\031\011W\331\327\006\234\345>\260(\255P\341\260"
 384      57D9D706 
 384      9CE53EB0 
 384      28AD50E1 
 384      B0
 385 0dd5 25507AEB 		.ascii	"%Pz\353\030\216\344n3\311\335\022;p\243\255u\267\205"
 385      188EE46E 
 385      33C9DD12 
 385      3B70A3AD 
 385      75B785
 386 0de8 845BEE18 		.ascii	"\204[\356\030\216\344n\033\011\267\306\016\334S\326"
 386      8EE46E1B 
 386      09B7C60E 
 386      DC53D6
 387 0df7 BAAB2775 		.ascii	"\272\253'u\267\3211\034\311\335v\222\273w\355\300M\264"
 387      B7D1311C 
 387      C9DD7692 
 387      BB77EDC0 
 387      4DB4
 388 0e09 D65D0309 		.ascii	"\326]\003\011\267\3131\034\311\335N\022n\257\035\270"
 388      B7CB311C 
 388      C9DD4E12 
 388      6EAF1DB8 
 389 0e19 A926DC99 		.ascii	"\251&\334\231\035\372d\203\245g\273qh\236\343\306\331"
 389      1DFA6483 
 389      A567BB71 
 389      689EE3C6 
 389      D9
 390 0e2a D3CB40E7 		.ascii	"\323\313@\347\003]\000\364U\240\013\201.\006\272\004"
 390      035D00F4 
 390      55A00B81 
 390      2E06BA04 
 391 0e3a E852A0CB 		.ascii	"\350R\240\313\200\256\000Z\013\364M\240k\201\256\003"
 391      80AE005A 
 391      0BF44DA0 
 391      6B81AE03 
 392 0e4a BA1EE806 		.ascii	"\272\036\350\006\240\233\200n\006\272\005\3506\240\365"
 392      A09B806E 
 392      06BA05E8 
 392      36A0F5
 393 0e59 40B7BB6D 		.ascii	"@\267\273ml\004T\270\265EV!\265\022'\277g\033\347\321"
 393      6C0454B8 
 393      B5455621 
 393      B51227BF 
 393      671BE7D1 
 394 0e6d E20BB9DA 		.ascii	"\342\013\271\332?1\255\322\377\023\223a\373\005\377"
 394      3F31ADD2 
 394      FF139361 
 394      FB05FF
ARM GAS  /tmp/ccHSAuwK.s 			page 31


 395 0e7c EFBC15F2 		.ascii	"\357\274\025\362{)dC\253n\213\304\034\267\332i\331j"
 395      7B296443 
 395      AB6E8BC4 
 395      1CB7DA69 
 395      D96A
 396 0e8e 7386BE76 		.ascii	"s\206\276vY\266j\317\320\2521\325\212\372\361\220!\376"
 396      59B66ACF 
 396      D0AA31D5 
 396      8AFAF190 
 396      21FE
 397 0ea0 A2D2D0B4 		.ascii	"\242\322\320\264\320\204\311\376X\302\317\013\376x\214"
 397      D084C9FE 
 397      58C2CF0B 
 397      FE788C
 398 0eaf 1712FE27 		.ascii	"\027\022\376'&\215+\0327\323\037,\015\306x.0\343\221"
 398      268D2B1A 
 398      37D31F2C 
 398      0DC6782E 
 398      30E391
 399 0ec2 C89052EA 		.ascii	"\310\220R\352\341,\317\306\"\361P\230\343\023\376_\026"
 399      E12CCFC6 
 399      22F15098 
 399      E313FE5F 
 399      16
 400 0ed3 15A196C2 		.ascii	"\025\241\226\302\363q.\201\232yy!\030\025\002\202\347"
 400      F3712E81 
 400      9A797921 
 400      18150282 
 400      E7
 401 0ee4 97E39F29 		.ascii	"\227\343\237),\242\022\376\350t(?\361\227\306\"\234"
 401      2CA212FE 
 401      E874283F 
 401      F197C622 
 401      9C
 402 0ef5 9FE7121C 		.ascii	"\237\347\022\034\313\007K\375\245,_\\\316\362\234\237"
 402      CB074BFD 
 402      A52C5F5C 
 402      CEF29C9F 
 403 0f05 E523C3FD 		.ascii	"\345#\303\375%\301\340`t2\230\213L\343\212\213\271b"
 403      25C1E060 
 403      7432988B 
 403      4CE38A8B 
 403      B962
 404 0f17 ED463416 		.ascii	"\355F4\026\345\006s\354\264\320\340\221\201Q\203\207"
 404      E50673EC 
 404      B4D0E091 
 404      81518387 
 405 0f27 0F1D36F2 		.ascii	"\017\0356\362w\303\375D\205?\024\015\206\313\2129\177"
 405      77C3FD44 
 405      853F140D 
 405      86CB8A39 
 405      7F
 406 0f38 42280E45 		.ascii	"B(\016E\005\304Bn\031\372\0351< T\322\377\274\336#l"
 406      05C4426E 
 406      19FA1D31 
 406      3C2054D2 
 406      FFBCDE23 
ARM GAS  /tmp/ccHSAuwK.s 			page 32


 407 0f4d B03414E5 		.ascii	"\2604\024\345\374\201bn:[\026F\032P\024\222\027\010"
 407      FC81626E 
 407      3A5B1646 
 407      1A501492 
 407      1708
 408 0f5f A8FC3C80 		.ascii	"\250\374<\2005\030@\177%\234\020\010\306\312\242\002"
 408      3518407F 
 408      259C1008 
 408      C6CAA202 
 409 0f6f C70766B0 		.ascii	"\307\007f\260\3412nP\232\262\023|\020k52$H\025\246U"
 409      E1326E50 
 409      9AB2137C 
 409      106B3532 
 409      244815A6 
 410 0f84 AA9DC203 		.ascii	"\252\235\302\003\245T\177!\024\341\002\021\216M\224"
 410      A5547F21 
 410      14E10211 
 410      8E4D94
 411 0f93 F15C84C3 		.ascii	"\361\\\204\303\352wO\343\022BNy\214"
 411      EA774FE3 
 411      12424E79 
 411      8C
 412 0fa0 4F08EE30 		.ascii	"O\010\3560\233\020<e`\025:\232\313\013\360\264\000Z"
 412      9B103C65 
 412      60153A9A 
 412      CB0BF0B4 
 412      005A
 413 0fb2 7A786440 		.ascii	"zxd@P\030\204\323`Y\244,\314\012\241\031\234W\210\004"
 413      501884D3 
 413      6059A42C 
 413      CC0AA119 
 413      9C578804 
 414 0fc6 12422CEE 		.ascii	"\022B,\356\022\"qW4V\356\211M\237\236\340\204>\301\322"
 414      12227157 
 414      3456EE89 
 414      4D9F9EE0 
 414      843EC1D2 
 415 0fda 29E3264C 		.ascii	")\343&L{\226\013\012c\243!a\000\276\234,\260\2740.\325"
 415      7B960B0A 
 415      63A32161 
 415      00BE9C2C 
 415      B0BC302E 
 416 0fef FBD4DC68 		.ascii	"\373\324\334h,\024\015#m|C\256\216\305\211\332\000"
 416      2C140D23 
 416      6D7C43AE 
 416      8EC589DA 
 416      00
 417 1000 820EA1C6 		.ascii	"\202\016\241\306\377\202k\213J\331PTW=%6\325\215\272"
 417      FF826B8B 
 417      4AD95054 
 417      573D2536 
 417      D58DBA
 418 1013 1C86C9F0 		.ascii	"\034\206\311\360\357d\220<\021,-F\262\177?\323#\317"
 418      EF64903C 
 418      112C2D46 
 418      B27F3FD3 
 418      23CF
ARM GAS  /tmp/ccHSAuwK.s 			page 33


 419 1025 27542BE4 		.ascii	"'T+\344\007K\003\370\222\213\004\004\237v^\300sl\361"
 419      074B03F8 
 419      928B0404 
 419      9F765EC0 
 419      736CF1
 420 1038 F3817028 		.ascii	"\363\201p(\201ts\037\272\235\272\356+\224\342\213D\340"
 420      8174731F 
 420      BA9DBAEE 
 420      2B94E28B 
 420      44E0
 421 104a 77655C19 		.ascii	"we\\\031RW?TK\334\312\225\257d8\371\334\023\017D\271"
 421      52573F54 
 421      4BDCCA95 
 421      AF6438F9 
 421      DC130F44 
 422 105f 9902FA89 		.ascii	"\231\002\372\211\363\334\014\257\020\347C\261\200|\031"
 422      F3DC0CAF 
 422      10E743B1 
 422      807C19
 423 106e 8A798331 		.ascii	"\212y\2031d\357\231\302\017\354\214A\31418\0132LP\230"
 423      64EF99C2 
 423      0FEC8C41 
 423      CC31380B 
 423      324C5098 
 424 1082 99CB7325 		.ascii	"\231\313s%\310\355\002\002\303\217d\370\2370\374\303"
 424      C8ED0202 
 424      C38F64F8 
 424      9F30FCC3 
 425 1092 0CFF08C3 		.ascii	"\014\377\010\303\217b\370G]\374\260\241\250\014c\302"
 425      8F62F847 
 425      5DFCB0A1 
 425      A80C63C2 
 426 10a2 3CFA1991 		.ascii	"<\372\031\221\023\017\240\347\275\230\221r\216G\277"
 426      130FA0E7 
 426      BD989172 
 426      8E47BF
 427 10b1 B17031C7 		.ascii	"\261p1\307\273\203\310\3411wl\204\313K\010\317\261\341"
 427      BB83C8E1 
 427      31776C84 
 427      CB4B08CF 
 427      B1E1
 428 10c3 50491499 		.ascii	"PI\024\231;\216L\374\\8\024\011\011\271BB`\005$\247"
 428      3B8E4CFC 
 428      5C381409 
 428      09B94242 
 428      600524A7 
 429 10d7 17FBC228 		.ascii	"\027\373\302($\225\354\025\350\314\213\237Bu\310#b\305"
 429      2495EC15 
 429      E8CC8B9F 
 429      4275C823 
 429      62C5
 430 10e9 1C5C4F0F 		.ascii	"\034\\O\017\263%\011\257\300s\323\023 \037>\311\211"
 430      B32509AF 
 430      C073D313 
 430      201F3EC9 
 430      89
 431 10fa 244A50A5 		.ascii	"$JP\245\342\352\250\271r\346\341\213\237GU\271\334\314"
ARM GAS  /tmp/ccHSAuwK.s 			page 34


 431      E2EAA8B9 
 431      72E6E18B 
 431      9F4755B9 
 431      DCCC
 432 110c 90104400 		.ascii	"\220\020D\000\236r!6\355\331x\177E}\250)\307s\321 \002"
 432      9E722136 
 432      EDD9787F 
 432      457DA829 
 432      C773D120 
 433 1121 CE291704 		.ascii	"\316)\027\004>\356M /@\015\012\260\225\270\010\033/"
 433      3EEE4D20 
 433      2F400D0A 
 433      B095B808 
 433      1B2F
 434 1133 45FA7828 		.ascii	"E\372x(\223\2259<\006\274\212Yr\300\317s\022\001\364"
 434      9395393C 
 434      06BC8A59 
 434      72C0CF73 
 434      1201F4
 435 1146 8BBA4295 		.ascii	"\213\272B\225\361\\\204\024)C\272\317\204\022\021fb"
 435      F15C8414 
 435      2943BACF 
 435      84121166 
 435      62
 436 1157 94888C82 		.ascii	"\224\210\214\202~c\345Q\244@h\207\204\210\310\226-\027"
 436      7E63E551 
 436      A4406887 
 436      8488C896 
 436      2D17
 437 1169 D073F17C 		.ascii	"\320s\361|n\006\346\221M<\207j\270r|\342\212\007\312"
 437      6E06E691 
 437      4D3C876A 
 437      B8727CE2 
 437      8A07CA
 438 117c FAA8FE21 		.ascii	"\372\250\376!\373S_\235\307\340;\276x\240\234\015\011"
 438      FB535F9D 
 438      C7E03BBE 
 438      78A09C0D 
 438      09
 439 118d A16809D2 		.ascii	"\241h\011\322;\022\020:B\247\\\234\213\242\310U\202"
 439      3B12103A 
 439      42A75C9C 
 439      8BA2C855 
 439      82
 440 119e EA11387E 		.ascii	"\352\0218~2\017k\224\015\203\327\240\233\361X,\354\345"
 440      320F6B94 
 440      0D83D7A0 
 440      9BF1582C 
 440      ECE5
 441 11b0 65C63C3C 		.ascii	"e\306<<8S\016\017f\346\0253\363\262\231}\350n\031\217"
 441      38530E0F 
 441      66E61533 
 441      F3B2997D 
 441      E86E198F 
 442 11c4 B429E4F0 		.ascii	"\264)\344\360\030g\300\214\020/\224\261\341\000\036"
 442      1867C08C 
 442      102F94B1 
ARM GAS  /tmp/ccHSAuwK.s 			page 35


 442      E1001E
 443 11d3 F1BCCAD7 		.ascii	"\361\274\312\327\375\210/\223\212\276\304=\331\341\211"
 443      FD882F93 
 443      8ABEC43D 
 443      D9E189
 444 11e2 5BDE1902 		.ascii	"[\336\031\002(\001\377b\377\366\3411$\207\022t\247\230"
 444      2801FF62 
 444      FFF6E131 
 444      24871274 
 444      A798
 445 11f4 0B0B2C3A 		.ascii	"\013\013,:\231^\026\015\006\340\031|\346\301\317\262"
 445      995E160D 
 445      06E0197C 
 445      E6C1CFB2 
 446 1204 7C3EFAC1 		.ascii	"|>\372\301Q\010?\216n\341\356\372(\243\261\230\233V"
 446      51083F8E 
 446      6EE1EEFA 
 446      28A3B198 
 446      9B56
 447 1216 56222B4B 		.ascii	"V\"+K\177\307\027g\243\241 V\223\253xZI^\004\005\011"
 447      7FC71767 
 447      A3A12056 
 447      93AB785A 
 447      495E0405 
 448 122b 5997FD50 		.ascii	"Y\227\375P\360\010\"\377\235\306\2430\025CN\314\010"
 448      F00822FF 
 448      9DC6A330 
 448      15434ECC 
 448      08
 449 123c 913EA1E2 		.ascii	"\221>\241\3420\247\350\032\351\230\011\226\032&:\304"
 449      30A7E81A 
 449      E9980996 
 449      1A263AC4 
 450 124c B5BF68DC 		.ascii	"\265\277h\334\344\261\223S\006\307\023]02\022O\027O"
 450      E4B19353 
 450      06C7135D 
 450      3032124F 
 450      174F
 451 125e FEE794C0 		.ascii	"\376\347\224\300\024\024'\334ES&=\355)\372\257\242\242"
 451      141427DC 
 451      4553263D 
 451      ED29FAAF 
 451      A2A2
 452 1270 F1533C45 		.ascii	"\361S<E\023\307\342\2371S\361U\356\344\247\307\214\231"
 452      13C7E29F 
 452      3153F155 
 452      EEE4A7C7 
 452      8C99
 453 1282 88AF9F9E 		.ascii	"\210\257\237\236\374\014\372\361\376b\302\323O\242_"
 453      FC0CFAF1 
 453      FE62C2D3 
 453      4FA25F
 454 1291 F7C4A2C9 		.ascii	"\367\304\242\311\223r\212&\214\23384g\334\023\223\177"
 454      93728A26 
 454      8C9B3834 
 454      67DC1393 
 454      7F
ARM GAS  /tmp/ccHSAuwK.s 			page 36


 455 12a2 35D4F78B 		.ascii	"5\324\367\213g\306\027M\031;a\374P\337\2441\223\307"
 455      67C6174D 
 455      193B61FC 
 455      50DFA431 
 455      93C7
 456 12b4 4CFAF598 		.ascii	"L\372\365\230'\207B\3750\250\037\246\325\017\323\352"
 456      278742FD 
 456      30A81FA6 
 456      D50FD3EA 
 457 12c4 8741FD70 		.ascii	"\207A\375p\250\037\256\325\017\327\352\207C\375\010"
 457      A81FAED5 
 457      0FD7EA87 
 457      43FD08
 458 12d3 A81FA1D5 		.ascii	"\250\037\241\325\217\370\177\343\234\010\201"
 458      8FF87FE3 
 458      9C0881
 459              		.text
 460              		.section	.gnu.lto_.symtab.31eb28ea4b038451,"",%progbits
 461 0000 6368544D 		.ascii	"chTMObjectInit\000\000\000\000\000\000\000\000\000\000"
 461      4F626A65 
 461      6374496E 
 461      69740000 
 461      00000000 
 462 0018 0000D800 		.ascii	"\000\000\330\000\000\000chTMStartMeasurementX\000\000"
 462      00006368 
 462      544D5374 
 462      6172744D 
 462      65617375 
 463 0035 00000000 		.ascii	"\000\000\000\000\000\000\000\000\000\000\336\000\000"
 463      00000000 
 463      0000DE00 
 463      00
 464 0042 00636854 		.ascii	"\000chTMStopMeasurementX\000\000\000\000\000\000\000"
 464      4D53746F 
 464      704D6561 
 464      73757265 
 464      6D656E74 
 465 005e 00000000 		.ascii	"\000\000\000\000\000\344\000\000\000_tm_init\000\000"
 465      00E40000 
 465      005F746D 
 465      5F696E69 
 465      740000
 466 0071 00000000 		.ascii	"\000\000\000\000\000\000\000\000\000\000\351\000\000"
 466      00000000 
 466      0000E900 
 466      00
 467 007e 00636854 		.ascii	"\000chTMChainMeasurementToX\000\000\000\000\000\000"
 467      4D436861 
 467      696E4D65 
 467      61737572 
 467      656D656E 
 468 009c 00000000 		.ascii	"\000\000\000\000\000\000\355\000\000\000ch\000\000\002"
 468      0000ED00 
 468      00006368 
 468      000002
 469 00ab 00000000 		.ascii	"\000\000\000\000\000\000\000\000\000\370\000\000\000"
 469      00000000 
ARM GAS  /tmp/ccHSAuwK.s 			page 37


 469      00F80000 
 469      00
 470              		.text
 471              		.section	.gnu.lto_.opts,"",%progbits
 472 0000 272D6D63 		.ascii	"'-mcpu=cortex-m4' '-mno-thumb-interwork' '-mthumb' "
 472      70753D63 
 472      6F727465 
 472      782D6D34 
 472      2720272D 
 473 0033 272D6767 		.ascii	"'-ggdb' '-O0' '-fomit-frame-pointer' '-falign-funct"
 473      64622720 
 473      272D4F30 
 473      2720272D 
 473      666F6D69 
 474 0066 696F6E73 		.ascii	"ions=16' '-ffunction-sections' '-fdata-sections' '-"
 474      3D313627 
 474      20272D66 
 474      66756E63 
 474      74696F6E 
 475 0099 666E6F2D 		.ascii	"fno-common' '-flto'\000"
 475      636F6D6D 
 475      6F6E2720 
 475      272D666C 
 475      746F2700 
 476              		.text
 477              		.cfi_sections	.debug_frame
 478              		.section	.text.port_rt_get_counter_value,"ax",%progbits
 479              		.align	2
 480              		.p2align 4,,15
 481              		.thumb
 482              		.thumb_func
 483              		.type	port_rt_get_counter_value, %function
 484              	port_rt_get_counter_value:
 485              	.LFB135:
 486              		.file 1 "../ChibiOS/os/rt/ports/ARMCMx/chcore_v7m.h"
 487              		.loc 1 568 0
 488              		.cfi_startproc
 489              		@ args = 0, pretend = 0, frame = 0
 490              		@ frame_needed = 0, uses_anonymous_args = 0
 491              		@ link register save eliminated.
 492              		.loc 1 570 0
 493 0000 014B     		ldr	r3, .L3
 494 0002 5B68     		ldr	r3, [r3, #4]
 495              		.loc 1 571 0
 496 0004 1846     		mov	r0, r3
 497 0006 7047     		bx	lr
 498              	.L4:
 499              		.align	2
 500              	.L3:
 501 0008 001000E0 		.word	-536866816
 502              		.cfi_endproc
 503              	.LFE135:
 504              		.size	port_rt_get_counter_value, .-port_rt_get_counter_value
 505 000c AFF30080 		.section	.text.tm_stop,"ax",%progbits
 506              		.align	2
 507              		.p2align 4,,15
 508              		.thumb
ARM GAS  /tmp/ccHSAuwK.s 			page 38


 509              		.thumb_func
 510              		.type	tm_stop, %function
 511              	tm_stop:
 512              	.LFB241:
 513              		.file 2 "../ChibiOS/os/rt/src/chtm.c"
 514              		.loc 2 55 0
 515              		.cfi_startproc
 516              		@ args = 0, pretend = 0, frame = 16
 517              		@ frame_needed = 0, uses_anonymous_args = 0
 518              		@ link register save eliminated.
 519 0000 84B0     		sub	sp, sp, #16
 520              		.cfi_def_cfa_offset 16
 521 0002 0390     		str	r0, [sp, #12]
 522 0004 0291     		str	r1, [sp, #8]
 523 0006 0192     		str	r2, [sp, #4]
 524              		.loc 2 57 0
 525 0008 039B     		ldr	r3, [sp, #12]
 526 000a DB68     		ldr	r3, [r3, #12]
 527 000c 5A1C     		adds	r2, r3, #1
 528 000e 039B     		ldr	r3, [sp, #12]
 529 0010 DA60     		str	r2, [r3, #12]
 530              		.loc 2 58 0
 531 0012 039B     		ldr	r3, [sp, #12]
 532 0014 9B68     		ldr	r3, [r3, #8]
 533 0016 029A     		ldr	r2, [sp, #8]
 534 0018 D21A     		subs	r2, r2, r3
 535 001a 019B     		ldr	r3, [sp, #4]
 536 001c D21A     		subs	r2, r2, r3
 537 001e 039B     		ldr	r3, [sp, #12]
 538 0020 9A60     		str	r2, [r3, #8]
 539              		.loc 2 59 0
 540 0022 039B     		ldr	r3, [sp, #12]
 541 0024 D3E90401 		ldrd	r0, [r3, #16]
 542 0028 039B     		ldr	r3, [sp, #12]
 543 002a 9B68     		ldr	r3, [r3, #8]
 544 002c 1A46     		mov	r2, r3
 545 002e 4FF00003 		mov	r3, #0
 546 0032 1218     		adds	r2, r2, r0
 547 0034 43EB0103 		adc	r3, r3, r1
 548 0038 0399     		ldr	r1, [sp, #12]
 549 003a C1E90423 		strd	r2, [r1, #16]
 550              		.loc 2 60 0
 551 003e 039B     		ldr	r3, [sp, #12]
 552 0040 9A68     		ldr	r2, [r3, #8]
 553 0042 039B     		ldr	r3, [sp, #12]
 554 0044 5B68     		ldr	r3, [r3, #4]
 555 0046 9A42     		cmp	r2, r3
 556 0048 03D9     		bls	.L6
 557              		.loc 2 61 0
 558 004a 039B     		ldr	r3, [sp, #12]
 559 004c 9A68     		ldr	r2, [r3, #8]
 560 004e 039B     		ldr	r3, [sp, #12]
 561 0050 5A60     		str	r2, [r3, #4]
 562              	.L6:
 563              		.loc 2 63 0
 564 0052 039B     		ldr	r3, [sp, #12]
 565 0054 9A68     		ldr	r2, [r3, #8]
ARM GAS  /tmp/ccHSAuwK.s 			page 39


 566 0056 039B     		ldr	r3, [sp, #12]
 567 0058 1B68     		ldr	r3, [r3]
 568 005a 9A42     		cmp	r2, r3
 569 005c 03D2     		bcs	.L5
 570              		.loc 2 64 0
 571 005e 039B     		ldr	r3, [sp, #12]
 572 0060 9A68     		ldr	r2, [r3, #8]
 573 0062 039B     		ldr	r3, [sp, #12]
 574 0064 1A60     		str	r2, [r3]
 575              	.L5:
 576              		.loc 2 66 0
 577 0066 04B0     		add	sp, sp, #16
 578              		@ sp needed
 579 0068 7047     		bx	lr
 580              		.cfi_endproc
 581              	.LFE241:
 582              		.size	tm_stop, .-tm_stop
 583 006a 00BFAFF3 		.section	.text._tm_init,"ax",%progbits
 583      0080
 584              		.align	2
 585              		.p2align 4,,15
 586              		.global	_tm_init
 587              		.thumb
 588              		.thumb_func
 589              		.type	_tm_init, %function
 590              	_tm_init:
 591              	.LFB242:
 592              		.loc 2 77 0
 593              		.cfi_startproc
 594              		@ args = 0, pretend = 0, frame = 24
 595              		@ frame_needed = 0, uses_anonymous_args = 0
 596 0000 00B5     		push	{lr}
 597              		.cfi_def_cfa_offset 4
 598              		.cfi_offset 14, -4
 599 0002 87B0     		sub	sp, sp, #28
 600              		.cfi_def_cfa_offset 32
 601              		.loc 2 83 0
 602 0004 0A4B     		ldr	r3, .L9
 603 0006 0022     		movs	r2, #0
 604 0008 5A67     		str	r2, [r3, #116]
 605              		.loc 2 84 0
 606 000a 6B46     		mov	r3, sp
 607 000c 1846     		mov	r0, r3
 608 000e FFF7FEFF 		bl	chTMObjectInit
 609              		.loc 2 85 0
 610 0012 6B46     		mov	r3, sp
 611 0014 1846     		mov	r0, r3
 612 0016 FFF7FEFF 		bl	chTMStartMeasurementX
 613              		.loc 2 86 0
 614 001a 6B46     		mov	r3, sp
 615 001c 1846     		mov	r0, r3
 616 001e FFF7FEFF 		bl	chTMStopMeasurementX
 617              		.loc 2 87 0
 618 0022 029A     		ldr	r2, [sp, #8]
 619 0024 024B     		ldr	r3, .L9
 620 0026 5A67     		str	r2, [r3, #116]
 621              		.loc 2 88 0
ARM GAS  /tmp/ccHSAuwK.s 			page 40


 622 0028 07B0     		add	sp, sp, #28
 623              		@ sp needed
 624 002a 5DF804FB 		ldr	pc, [sp], #4
 625              	.L10:
 626 002e 00BF     		.align	2
 627              	.L9:
 628 0030 00000000 		.word	ch
 629              		.cfi_endproc
 630              	.LFE242:
 631              		.size	_tm_init, .-_tm_init
 632 0034 AFF30080 		.section	.text.chTMObjectInit,"ax",%progbits
 632      AFF30080 
 632      AFF30080 
 633              		.align	2
 634              		.p2align 4,,15
 635              		.global	chTMObjectInit
 636              		.thumb
 637              		.thumb_func
 638              		.type	chTMObjectInit, %function
 639              	chTMObjectInit:
 640              	.LFB243:
 641              		.loc 2 97 0
 642              		.cfi_startproc
 643              		@ args = 0, pretend = 0, frame = 8
 644              		@ frame_needed = 0, uses_anonymous_args = 0
 645              		@ link register save eliminated.
 646 0000 82B0     		sub	sp, sp, #8
 647              		.cfi_def_cfa_offset 8
 648 0002 0190     		str	r0, [sp, #4]
 649              		.loc 2 99 0
 650 0004 019B     		ldr	r3, [sp, #4]
 651 0006 4FF0FF32 		mov	r2, #-1
 652 000a 1A60     		str	r2, [r3]
 653              		.loc 2 100 0
 654 000c 019B     		ldr	r3, [sp, #4]
 655 000e 0022     		movs	r2, #0
 656 0010 5A60     		str	r2, [r3, #4]
 657              		.loc 2 101 0
 658 0012 019B     		ldr	r3, [sp, #4]
 659 0014 0022     		movs	r2, #0
 660 0016 9A60     		str	r2, [r3, #8]
 661              		.loc 2 102 0
 662 0018 019B     		ldr	r3, [sp, #4]
 663 001a 0022     		movs	r2, #0
 664 001c DA60     		str	r2, [r3, #12]
 665              		.loc 2 103 0
 666 001e 0199     		ldr	r1, [sp, #4]
 667 0020 4FF00002 		mov	r2, #0
 668 0024 4FF00003 		mov	r3, #0
 669 0028 C1E90423 		strd	r2, [r1, #16]
 670              		.loc 2 104 0
 671 002c 02B0     		add	sp, sp, #8
 672              		@ sp needed
 673 002e 7047     		bx	lr
 674              		.cfi_endproc
 675              	.LFE243:
 676              		.size	chTMObjectInit, .-chTMObjectInit
ARM GAS  /tmp/ccHSAuwK.s 			page 41


 677              		.section	.text.chTMStartMeasurementX,"ax",%progbits
 678              		.align	2
 679              		.p2align 4,,15
 680              		.global	chTMStartMeasurementX
 681              		.thumb
 682              		.thumb_func
 683              		.type	chTMStartMeasurementX, %function
 684              	chTMStartMeasurementX:
 685              	.LFB244:
 686              		.loc 2 114 0
 687              		.cfi_startproc
 688              		@ args = 0, pretend = 0, frame = 8
 689              		@ frame_needed = 0, uses_anonymous_args = 0
 690 0000 00B5     		push	{lr}
 691              		.cfi_def_cfa_offset 4
 692              		.cfi_offset 14, -4
 693 0002 83B0     		sub	sp, sp, #12
 694              		.cfi_def_cfa_offset 16
 695 0004 0190     		str	r0, [sp, #4]
 696              		.loc 2 116 0
 697 0006 FFF7FEFF 		bl	port_rt_get_counter_value
 698 000a 0246     		mov	r2, r0
 699 000c 019B     		ldr	r3, [sp, #4]
 700 000e 9A60     		str	r2, [r3, #8]
 701              		.loc 2 117 0
 702 0010 03B0     		add	sp, sp, #12
 703              		@ sp needed
 704 0012 5DF804FB 		ldr	pc, [sp], #4
 705              		.cfi_endproc
 706              	.LFE244:
 707              		.size	chTMStartMeasurementX, .-chTMStartMeasurementX
 708 0016 00BFAFF3 		.section	.text.chTMStopMeasurementX,"ax",%progbits
 708      0080AFF3 
 708      0080
 709              		.align	2
 710              		.p2align 4,,15
 711              		.global	chTMStopMeasurementX
 712              		.thumb
 713              		.thumb_func
 714              		.type	chTMStopMeasurementX, %function
 715              	chTMStopMeasurementX:
 716              	.LFB245:
 717              		.loc 2 127 0
 718              		.cfi_startproc
 719              		@ args = 0, pretend = 0, frame = 8
 720              		@ frame_needed = 0, uses_anonymous_args = 0
 721 0000 00B5     		push	{lr}
 722              		.cfi_def_cfa_offset 4
 723              		.cfi_offset 14, -4
 724 0002 83B0     		sub	sp, sp, #12
 725              		.cfi_def_cfa_offset 16
 726 0004 0190     		str	r0, [sp, #4]
 727              		.loc 2 129 0
 728 0006 FFF7FEFF 		bl	port_rt_get_counter_value
 729 000a 0246     		mov	r2, r0
 730 000c 044B     		ldr	r3, .L14
 731 000e 5B6F     		ldr	r3, [r3, #116]
ARM GAS  /tmp/ccHSAuwK.s 			page 42


 732 0010 0198     		ldr	r0, [sp, #4]
 733 0012 1146     		mov	r1, r2
 734 0014 1A46     		mov	r2, r3
 735 0016 FFF7FEFF 		bl	tm_stop
 736              		.loc 2 130 0
 737 001a 03B0     		add	sp, sp, #12
 738              		@ sp needed
 739 001c 5DF804FB 		ldr	pc, [sp], #4
 740              	.L15:
 741              		.align	2
 742              	.L14:
 743 0020 00000000 		.word	ch
 744              		.cfi_endproc
 745              	.LFE245:
 746              		.size	chTMStopMeasurementX, .-chTMStopMeasurementX
 747 0024 AFF30080 		.section	.text.chTMChainMeasurementToX,"ax",%progbits
 747      AFF30080 
 747      AFF30080 
 748              		.align	2
 749              		.p2align 4,,15
 750              		.global	chTMChainMeasurementToX
 751              		.thumb
 752              		.thumb_func
 753              		.type	chTMChainMeasurementToX, %function
 754              	chTMChainMeasurementToX:
 755              	.LFB246:
 756              		.loc 2 145 0
 757              		.cfi_startproc
 758              		@ args = 0, pretend = 0, frame = 8
 759              		@ frame_needed = 0, uses_anonymous_args = 0
 760 0000 00B5     		push	{lr}
 761              		.cfi_def_cfa_offset 4
 762              		.cfi_offset 14, -4
 763 0002 83B0     		sub	sp, sp, #12
 764              		.cfi_def_cfa_offset 16
 765 0004 0190     		str	r0, [sp, #4]
 766 0006 0091     		str	r1, [sp]
 767              		.loc 2 148 0
 768 0008 FFF7FEFF 		bl	port_rt_get_counter_value
 769 000c 0246     		mov	r2, r0
 770 000e 009B     		ldr	r3, [sp]
 771 0010 9A60     		str	r2, [r3, #8]
 772              		.loc 2 151 0
 773 0012 009B     		ldr	r3, [sp]
 774 0014 9B68     		ldr	r3, [r3, #8]
 775 0016 0198     		ldr	r0, [sp, #4]
 776 0018 1946     		mov	r1, r3
 777 001a 0022     		movs	r2, #0
 778 001c FFF7FEFF 		bl	tm_stop
 779              		.loc 2 152 0
 780 0020 03B0     		add	sp, sp, #12
 781              		@ sp needed
 782 0022 5DF804FB 		ldr	pc, [sp], #4
 783              		.cfi_endproc
 784              	.LFE246:
 785              		.size	chTMChainMeasurementToX, .-chTMChainMeasurementToX
 786 0026 00BFAFF3 		.text
ARM GAS  /tmp/ccHSAuwK.s 			page 43


 786      0080AFF3 
 786      0080
 787              	.Letext0:
 788              		.file 3 "/nfs/nfs5/home/research/hardware/arm2/gcc-arm-embedded/gcc-arm-none-eabi-4_8-2014q2/arm-n
 789              		.file 4 "/nfs/nfs5/home/research/hardware/arm2/gcc-arm-embedded/gcc-arm-none-eabi-4_8-2014q2/arm-n
 790              		.file 5 "../ChibiOS/os/rt/ports/ARMCMx/compilers/GCC/chtypes.h"
 791              		.file 6 "../ChibiOS/os/rt/include/chsystypes.h"
 792              		.file 7 "../ChibiOS/os/rt/include/chschd.h"
 793              		.file 8 "../ChibiOS/os/ext/CMSIS/include/core_cm4.h"
 794              		.file 9 "../ChibiOS/os/rt/ports/ARMCMx/chcore.h"
 795              		.file 10 "../ChibiOS/os/rt/include/chtm.h"
 796              		.file 11 "../ChibiOS/os/rt/include/chsem.h"
 797              		.file 12 "../ChibiOS/os/rt/include/chmtx.h"