ARM GAS  /tmp/ccHSAuwK.s 			page 1


   1              		.syntax unified
   2              		.cpu cortex-m4
   3              		.fpu softvfp
   4              		.eabi_attribute 20, 1
   5              		.eabi_attribute 21, 1
   6              		.eabi_attribute 23, 3
   7              		.eabi_attribute 24, 1
   8              		.eabi_attribute 25, 1
   9              		.eabi_attribute 26, 1
  10              		.eabi_attribute 30, 6
  11              		.eabi_attribute 34, 1
  12              		.eabi_attribute 18, 4
  13              		.thumb
  14              		.file	"chtm.c"
  15              		.text
  16              	.Ltext0:
  17              		.section	.gnu.lto_.inline.31eb28ea4b038451,"",%progbits
  18 0000 789C6362 		.ascii	"x\234cb`b\300\006VBiv\006\006\026f\006\006&\226\017"
  18      6062C006 
  18      56426976 
  18      06061666 
  18      06062696 
  19 0015 7A0C2C10 		.ascii	"z\014,\020\265\214\0142\322@\021\223\017K\231aBL\014"
  19      B58C0C32 
  19      D2401193 
  19      0F4B9961 
  19      424C0C
  20 0028 9C1C4092 		.ascii	"\234\034@\222\257\241\026&\302\314\300\306\207\252\215"
  20      AFA11626 
  20      C2CCC0C6 
  20      87AA8D
  21 0037 891B48B0 		.ascii	"\211\033H\2600pI\243\012\263\360\302\344\330\030x\324"
  21      307049A3 
  21      0AB3F0C2 
  21      E4D81878 
  21      D4
  22 0048 804C8E09 		.ascii	"\200L\216\011~(Z\020\004;\003\267\014\220\311v\300\016"
  22      7E285A10 
  22      043B03B7 
  22      0C90C976 
  22      C00E
  23 005a 53330300 		.ascii	"S3\003\000J\323\012|"
  23      4AD30A7C 
  24              		.text
  25              		.section	.gnu.lto_port_rt_get_counter_value.31eb28ea4b038451,"",%progbits
  26 0000 789C6362 		.ascii	"x\234cb`b@\007\322@l\310\310\300\240\013\342\26000\002"
  26      60624007 
  26      D2406CC8 
  26      C8C0A00B 
  26      E2B03030 
  27 0015 55303231 		.ascii	"U0212\003IfF\2400\003#C=\0233c}$\210\315\300\244\304"
  27      32034966 
  27      46A03003 
  27      23433D13 
  27      33637D24 
  28 002e B0B0A161 		.ascii	"\260\260\241a\326\203\243\373z\230gN9\320\262\240\341"
  28      D683A3FB 
ARM GAS  /tmp/ccHSAuwK.s 			page 2


  28      7A98674E 
  28      39D0B2A0 
  28      E1
  29 003f CFFFFF8C 		.ascii	"\317\377\377\214\214\231 \311dF\206\010 \213Q\001L1"
  29      8C9920C9 
  29      64468608 
  29      208B5101 
  29      4C31
  30 0051 B1A05A03 		.ascii	"\261\240Z\003\3268\251a\367\223\200\023\015-\007\376"
  30      D638A961 
  30      F7938013 
  30      0D2D07FE 
  31 0061 FFB7CF04 		.ascii	"\377\267\317\004\331\201_\317z\246\003\017\376\377\357"
  31      D9815FCF 
  31      7AA6030F 
  31      FEFFEF
  32 0070 997F6CFB 		.ascii	"\231\177l\373\036\306~efF\006\240\036&\006\260e\014"
  32      1EC67E65 
  32      664606A0 
  32      1E2606B0 
  32      650C
  33 0082 AC0C2D0D 		.ascii	"\254\014-\015\015\023\024\300F\000A\010\230\014\005"
  33      0D1314C0 
  33      46004108 
  33      980C05
  34 0091 B99EF92C 		.ascii	"\271\236\371,C\323\216\033\373zd\023\031\0273\2622\244"
  34      43D38E1B 
  34      FB7A6413 
  34      191733B2 
  34      32A4
  35 00a3 333282CC 		.ascii	"32\202\314fnX\320\320\300\007Ts\226\341\320\255\002"
  35      666E58D0 
  35      D0C00754 
  35      7396E1D0 
  35      AD02
  36 00b5 98149336 		.ascii	"\230\024\2236\303\252\206\226\306\006\353LF\226\331"
  36      C3AA8696 
  36      C606EB4C 
  36      4696D9
  37 00c4 0CB380EA 		.ascii	"\014\263\200\352Xa\352\301.HbDvO(H\224\3714C#\007\003"
  37      5861EAC1 
  37      2E486244 
  37      764F2848 
  37      94F93443 
  38 00db 430A48E6 		.ascii	"C\012H\346\"C\343\001f\270Y\020E!\240P\003\261\265\365"
  38      2243E301 
  38      66B85910 
  38      4521A050 
  38      03B1B5F5 
  39 00ef F4F49D33 		.ascii	"\364\364\23532\2232\375\203\365\363\213\365\213J\364"
  39      329332FD 
  39      83F5F38B 
  39      F58B4AF4 
  40 00ff 0BF28B4A 		.ascii	"\013\362\213J\212\365\035\203|\235}+\364\2233\222\363"
  40      8AF51D83 
  40      7C9D7D2B 
  40      F4933392 
ARM GAS  /tmp/ccHSAuwK.s 			page 3


  40      F3
  41 0110 8B52E3CB 		.ascii	"\213R\343\313\314s\3652\030\000$\264Q "
  41      CC73F532 
  41      180024B4 
  41      5120
  42              		.text
  43              		.section	.gnu.lto_tm_stop.31eb28ea4b038451,"",%progbits
  44 0000 789CBD93 		.ascii	"x\234\275\223Mh\023Q\020\307g\366#\233&M\223F\024\205"
  44      4D681351 
  44      10C767F6 
  44      239B264D 
  44      93461485 
  45 0014 22456F16 		.ascii	"\"Eo\026\022\274\013\012\236<Y\260\005=\332\200\351"
  45      12BC0B0A 
  45      9E3C59B0 
  45      053DDA80 
  45      E9
  46 0025 1E8AD0F6 		.ascii	"\036\212\320\366\336\227\244H-\010\261\202-\012\325"
  46      DE97A448 
  46      2D08B182 
  46      2D0AD5
  47 0034 1EF420A8 		.ascii	"\036\364 \250E\021\324\323\036<4H\301^\374\010\264\206"
  47      4511D4D3 
  47      1E3C3448 
  47      C15EFC08 
  47      B486
  48 0046 62442F92 		.ascii	"bD/\222\213\030Q\334\316\354\356\313\326\032\222M\016"
  48      8B1851DC 
  48      CEECEECB 
  48      D61A924D 
  48      0E
  49 0057 3ED8791F 		.ascii	">\330y\037\363~3\377\331\367\236\002\012\354m'\350{"
  49      F37E33FF 
  49      D9F79E02 
  49      0AEC6D27 
  49      E87B
  50 0069 61001CE6 		.ascii	"a\000\034\346\211\001H;PQT\000\241hd4\025\251CM\321"
  50      8901483B 
  50      50515400 
  50      A1686434 
  50      15A9434D 
  51 007e 7925C42B 		.ascii	"y%\304+:R\207!D\002\020f\024U\323C8s\201\247\020?\002"
  51      3A528721 
  51      44021066 
  51      1455D343 
  51      387381A7 
  52 0095 2B422C54 		.ascii	"+B,T\356-\277^A\261 r5\333\216\233\354\312 \234G\023"
  52      EE2DBF5E 
  52      41B12072 
  52      35DB8E9B 
  52      ECCA209C 
  53 00ab 71D0E938 		.ascii	"q\320\3518\366\356\346b\342\351\247\34151k\331\366\311"
  53      F6EEE662 
  53      E2E9A7E1 
  53      35316BD9 
  53      F6C9
  54 00bd C08CF5BD 		.ascii	"\300\214\365\275Z\352&\325\207\316S\211\033\325\316"
ARM GAS  /tmp/ccHSAuwK.s 			page 4


  54      5AEA26D5 
  54      87CE5389 
  54      1BD5CE
  55 00cc E5FD78B8 		.ascii	"\345\375x\270A\362\266EQ\374\261m\332\246\372\334)\227"
  55      41F2B645 
  55      51FCB16D 
  55      DAA6FADC 
  55      2997
  56 00de 0B37CDB5 		.ascii	"\0137\315\265\330y.\261\371ex\256`\211\272m\033\301"
  56      D8792EB1 
  56      F96578AE 
  56      6089BA6D 
  56      1BC1
  57 00f0 13BDEB02 		.ascii	"\023\275\353\002\262~~]\353\346\247ovq\276\277\236u"
  57      B27E7E5D 
  57      EBE6A76F 
  57      7671BEBF 
  57      9E75
  58 0102 73BE96FD 		.ascii	"s\276\226\375\377\024^\277r\363\320\374\335\274<\341"
  58      FF145EBF 
  58      72F3D0FC 
  58      DDBC3CE1 
  59 0112 B6D863C5 		.ascii	"\266\330c\305\252\330\366\357k\213o\017\342>\304\011"
  59      AAD8F6EF 
  59      6B8B6F0F 
  59      E23EC409 
  60 0122 A4674998 		.ascii	"\244gI\230\312Fc\243\323\032=2\032\0314\242#\240Q\017"
  60      CA4663A3 
  60      D31A3D32 
  60      1A1934A2 
  60      23A0510F 
  61 0136 1935C2A3 		.ascii	"\0315\302\243(\217z\331\304x\332\307&\316&\301\246\237"
  61      288F7AD9 
  61      C478DAC7 
  61      26CE26C1 
  61      A69F
  62 0148 4D121C19 		.ascii	"M\022\034\031\240\303\254\020\305AG\020\265\021\307"
  62      A0C3AC10 
  62      C5414710 
  62      B511C7
  63 0157 8EF21B57 		.ascii	"\216\362\033W\327!_~\276\254^\304U\324!\213\312\020"
  63      D7215F7E 
  63      BEAC5EC4 
  63      55D4218B 
  63      CA10
  64 0169 1C3351BB 		.ascii	"\0343Q\273\015\267H\260\236Ed\341!G\356\030J\341\353"
  64      0DB748B0 
  64      9E4564E1 
  64      2147EE18 
  64      4AE1EB
  65 017c 50982B5C 		.ascii	"P\230+\\\222\210J\024\357\322\320q\345\317\270\216!"
  65      92884A14 
  65      EFD2D071 
  65      E5CFB88E 
  65      21
  66 018d 7820A8C5 		.ascii	"x \250\305\332D\313\362]c\021\357\267\006dD\315\021"
  66      DA44CBF2 
ARM GAS  /tmp/ccHSAuwK.s 			page 5


  66      5D6311EF 
  66      B7066444 
  66      CD11
  67 019f 6134C7D0 		.ascii	"a4\307\320\027q\265\360\004%\023\312\362N\315[\277\257"
  67      1771B5F0 
  67      042513CA 
  67      F24ECD5B 
  67      BFAF
  68 01b1 C8F5B0E3 		.ascii	"\310\365\260\3432\234\034\245Uc\257\266\226I\210v\265"
  68      329C1CA5 
  68      5563AFB6 
  68      96498876 
  68      B5
  69 01c2 D5B7F6CB 		.ascii	"\325\267\366\313x=.\23301\334\034U\032\372\362\345Z"
  69      783D2E9B 
  69      3031DC1C 
  69      551AFAF2 
  69      E55A
  70 01d4 52629160 		.ascii	"Rb\221`%\345\277\025^6J\212\022\346\375\354G\215\305"
  70      25E5BF15 
  70      5E364A8A 
  70      12E6FDEC 
  70      478DC5
  71 01e7 5E9240AE 		.ascii	"^\222@\256\177\377t;E\204\272\242\226\356\304d\260X"
  71      7FFF743B 
  71      4584BAA2 
  71      96EEC464 
  71      B058
  72 01f9 4055E537 		.ascii	"@U\3457Q\211\364\265BT\017Y\203W\237s~\026\242\374["
  72      5189F4B5 
  72      42540F59 
  72      83579F73 
  72      7E16A2FC 
  73 020e 3FCABBDC 		.ascii	"?\312\273\334k\367\361\200\334\022\017(\244T\214\374"
  73      6BF7F180 
  73      DC120F28 
  73      A4548CFC 
  74 021e 7582C7DB 		.ascii	"u\202\307\333H\241\3102\253\346e\255\373\345':/\277"
  74      48A1C832 
  74      ABE665AD 
  74      FBE5273A 
  74      2FBF
  75 0230 BF1522DF 		.ascii	"\277\025\"\3377\225_\365\313O\020\265\273|\335\023\262"
  75      37955FF5 
  75      CB4F10B5 
  75      BB7CDD13 
  75      B2
  76 0241 B45D69DC 		.ascii	"\264]i\334\322d\320\372kF\300\3725\257\376\244LK\016"
  76      D264D0FA 
  76      6B46C0FA 
  76      35AFFEA4 
  76      4C4B0E
  77 0254 75037295 		.ascii	"u\003r\225\371\243n\004\331F8>_\221\201T*}z\334\034"
  77      F9A36E04 
  77      D946383E 
  77      5F918154 
  77      2A7D7ADC 
ARM GAS  /tmp/ccHSAuwK.s 			page 6


  78 0269 33CF9E4B 		.ascii	"3\317\236K_\236JON\247\247&3\351\314\370\364D*\003;"
  78      5F9E4A4F 
  78      4EA7A726 
  78      33E9CCF8 
  78      F4442A03 
  79 027e 863EA0C8 		.ascii	"\206>\240\310"
  80              		.text
  81              		.section	.gnu.lto_chTMObjectInit.31eb28ea4b038451,"",%progbits
  82 0000 789C6362 		.ascii	"x\234cb`b@\007\"@\334\317\310\300 \007\342030\002U0"
  82      60624007 
  82      2240DCCF 
  82      C8C02007 
  82      E2303330 
  83 0017 32310205 		.ascii	"21\002\005\030\030\031\352\231\030\353#\031\301\312"
  83      181819EA 
  83      9918EB23 
  83      19C1CA
  84 0026 D6331D78 		.ascii	"\3263\035x\360\377\377\272I\355\353{\030\3472\001\025"
  84      F0FFFFBA 
  84      49EDEB7B 
  84      18E73201 
  84      15
  85 0037 E482C559 		.ascii	"\344\202\305Y\031Z\032\032&(00$\203\271!`2\024d\010"
  85      195A1A1A 
  85      26283030 
  85      2483B921 
  85      60321464 
  86 004c F35986A6 		.ascii	"\363Y\206\246\035?>\335`Jd\\\310\310\312\240\315\260"
  86      1D3F3EDD 
  86      604A645C 
  86      C8C8CAA0 
  86      CDB0
  87 005e AA010878 		.ascii	"\252\001\010x3\031\031f3\314b\314ddLgd\214\000\322\020"
  87      33191966 
  87      33CC62CC 
  87      64644C67 
  87      648C00D2 
  88 0073 1725416C 		.ascii	"\027%Ala\000\2110\377\007\002~ \007d\302\214\317D\233"
  88      61008930 
  88      FF07027E 
  88      200764C2 
  88      8CCF449B 
  89 0087 C0883081 		.ascii	"\300\2100\201\001\252{\007\361\272\2310u\337\300\242"
  89      01AA7B07 
  89      F1BA9930 
  89      75DFC0A2 
  90 0097 9B05BB6E 		.ascii	"\233\005\273nfL\335?\260\350f\305\256\233\005\256\233"
  90      664CDD3F 
  90      B0E866C5 
  90      AE9B05AE 
  90      9B
  91 00a8 0DC4B8C8 		.ascii	"\015\304\270\310\320\370\340\2062D/\014\204\200\274"
  91      D0F8E086 
  91      32442F0C 
  91      8480BC
  92 00b7 07522FA3 		.ascii	"\007R/\243\247\247\357\234\221\231\224\351\037\254\237"
  92      A7A7EF9C 
ARM GAS  /tmp/ccHSAuwK.s 			page 7


  92      919994E9 
  92      1FAC9F
  93 00c6 5FAC5F54 		.ascii	"_\254_T\242_\\\224\254\237\234Q\222\253\227\314\000"
  93      A25F5C94 
  93      AC9F9C51 
  93      92AB97CC 
  93      00
  94 00d7 003B8A60 		.ascii	"\000;\212`z"
  94      7A
  95              		.text
  96              		.section	.gnu.lto_chTMStartMeasurementX.31eb28ea4b038451,"",%progbits
  97 0000 789C6362 		.ascii	"x\234cb`b@\007\"@\374\021\210\345@\034f\006F\240\012"
  97      60624007 
  97      2240FC11 
  97      88E5401C 
  97      660646A0 
  98 0015 46264646 		.ascii	"F&FF \207\221\241\236\211\261>\022\304d`TbX\330\320"
  98      208791A1 
  98      9E89B13E 
  98      12C46460 
  98      546258D8 
  99 002a 30E941EB 		.ascii	"0\351A\353\357\037\2143\247\034hY\320\360\347\377\177"
  99      EF1F8C33 
  99      A71C6859 
  99      D0F0E7FF 
  99      7F
 100 003b 46C64C90 		.ascii	"F\306L\220d2#C\004\220\305\250\000\246\230XP\315_\317"
 100      64322343 
 100      0490C5A8 
 100      00A69858 
 100      50CD5FCF 
 101 004f 74E0C1FF 		.ascii	"t\340\301\377\377k\366\376x\374\226Q\220\231\221\001"
 101      FF6BF6FE 
 101      78FC9651 
 101      90999101 
 102 005f A8858931 		.ascii	"\250\205\2111\027l(+CKC\303\004\005\260\011@\020\002"
 102      176C282B 
 102      434B43C3 
 102      0405B009 
 102      401002
 103 0072 2643412E 		.ascii	"&CA.`>\317\320\374\340\315c\366D\306E\214\254\014\351"
 103      603ECFD0 
 103      FCE0CD63 
 103      F644C645 
 103      8CAC0CE9 
 104 0086 8C8CD50C 		.ascii	"\214\214\325\014\277\032:\032\0042\031\231\223\301n"
 104      BF1A3A1A 
 104      04321999 
 104      93C16E
 105 0095 63009A03 		.ascii	"c\000\232\003\264\350,C\323\311\015PU\332\014\253\032"
 105      B4E82C43 
 105      D3C90D50 
 105      55DA0CAB 
 105      1A
 106 00a6 80803793 		.ascii	"\200\2007\223\221u6\303,\240K\330\322\031\231@.b\007"
 106      917536C3 
 106      2CA04BD8 
ARM GAS  /tmp/ccHSAuwK.s 			page 8


 106      D2199940 
 106      2E6207
 107 00b9 AB4F8268 		.ascii	"\253O\202h\003\031\306\300p\221\241\361\301[e\210>\030"
 107      0319C6C0 
 107      7091A1F1 
 107      C15B6588 
 107      3E18
 108 00cb 08014980 		.ascii	"\010\001I\200\302GFOO\3379#3)\323?X?\277X\277\250D\277"
 108      C247464F 
 108      4FDF3923 
 108      3329D33F 
 108      583FBF58 
 109 00e3 B828593F 		.ascii	"\270(Y?9\243$W/\231\001\000\304s@q"
 109      39A32457 
 109      2F990100 
 109      C4734071 
 110              		.text
 111              		.section	.gnu.lto_chTMStopMeasurementX.31eb28ea4b038451,"",%progbits
 112 0000 789C8D50 		.ascii	"x\234\215P\261J\003A\020}\263\233\213\211\225\210\225"
 112      B14A0341 
 112      107DB39B 
 112      8B899588 
 112      95
 113 0011 8804C1C6 		.ascii	"\210\004\301\306\300\355G\370\001\026FP;\263E\262\305"
 113      C0ED47F8 
 113      01164650 
 113      3BB345B2 
 113      C5
 114 0022 2124D759 		.ascii	"!$\327Yd\243A4\225\210\215\332\250A\020\033\301^\274"
 114      64A34134 
 114      95888DDA 
 114      A841101B 
 114      C15EBC
 115 0035 C65242FE 		.ascii	"\306RB\376\340\300_\260\222\3009\273g\002Z9\2603\263"
 115      E0C05FB0 
 115      92C039BB 
 115      67025A39 
 115      B033B3
 116 0048 BBEFBD79 		.ascii	"\273\357\275y\273\002\002\177c\201WL\300\262\333H\020"
 116      BB02027F 
 116      6381574C 
 116      C0B2DB48 
 116      10
 117 0059 2348101F 		.ascii	"#H\020\037\200\320\021\324\331q-\304\012n\255=O\357"
 117      80D011D4 
 117      D9712DC4 
 117      0A6EAD3D 
 117      4FEF
 118 006b EF467479 		.ascii	"\357Fty\221\364n\3548\313\210\214\273\324\204m\356\250"
 118      91F46EEC 
 118      38CB888C 
 118      BBD4846D 
 118      EEA8
 119 007d E28B28FC 		.ascii	"\342\213(\374\326\317\211\366\371\301\226=I\376\203"
 119      D6CF89F6 
 119      F9C1963D 
 119      49FE83
ARM GAS  /tmp/ccHSAuwK.s 			page 9


 120 008c F3249234 		.ascii	"\363$\2224\313\306\257\237\037}\232/\020\230\"\\\222"
 120      CBC6AF9F 
 120      1F7D9A2F 
 120      1098225C 
 120      92
 121 009d 14793701 		.ascii	"\024y7\001z\326\236U\274\014G\315\347-g]\016q\224\236"
 121      7AD69E55 
 121      BC0C47CD 
 121      E72D675D 
 121      0E71949E 
 122 00b1 BE15F768 		.ascii	"\276\025\367h@\001\032D\007\370\262'v\316\220\324\376"
 122      40011A44 
 122      07F8B227 
 122      76CE90D4 
 122      FE
 123 00c2 51601D9E 		.ascii	"Q`\035\236\366\216\303\335\011FT\261f(\250\342\321r"
 123      F68EC3DD 
 123      094654B1 
 123      6628A8E2 
 123      D172
 124 00d4 BCB09FE2 		.ascii	"\274\260\237\3425\256\272\326\261f\246\374R\344\371"
 124      35AEBAD6 
 124      B166A6FC 
 124      52E4F9
 125 00e3 CE6EC9EB 		.ascii	"\316n\311\353\324s9\256?\015\2068N\026sU`J,k\312\177"
 125      D47339AE 
 125      3F0D8638 
 125      4E167355 
 125      604A2C6B 
 126 00f9 BD41920D 		.ascii	"\275A\222\015\361<C\263\300\010\335\264\277:A\347Qs"
 126      F13C43B3 
 126      C008DDB4 
 126      BF3A41E7 
 126      5173
 127 010b 520EBC14 		.ascii	"R\016\274\024\206j\275i\352fcS\355\267U+V\355\226V\272"
 127      866ABD69 
 127      EA666353 
 127      EDB7552B 
 127      56ED9656 
 128 0120 1947A1C6 		.ascii	"\031G\241\3067G\222X\375"
 128      37479258 
 128      FD
 129              		.text
 130              		.section	.gnu.lto__tm_init.31eb28ea4b038451,"",%progbits
 131 0000 789C6362 		.ascii	"x\234cb`b@\007\"@\\\011\024V\004q\230\031\030\201LF"
 131      60624007 
 131      22405C09 
 131      14560471 
 131      98191881 
 132 0016 26464620 		.ascii	"&FF \207\221\241\236\211\261>\022\304d`RbX\330\3200"
 132      8791A19E 
 132      89B13E12 
 132      C4646052 
 132      6258D8D0 
 133 002b E9C1D3D7 		.ascii	"\351\301\323\327\017\230fN9\320\262\240\341\317\377"
 133      0F98664E 
 133      39D0B2A0 
ARM GAS  /tmp/ccHSAuwK.s 			page 10


 133      E1CFFF
 134 003a FF8C8C99 		.ascii	"\377\214\214\231 \311dF\206\010 \213Q\001L1\261\240"
 134      20C96446 
 134      8608208B 
 134      51014C31 
 134      B1A0
 135 004c 9A0FD278 		.ascii	"\232\017\322x`\302\201\275m\323\031\033\026\36444=\370"
 135      60C281BD 
 135      6DD3191B 
 135      16F43434 
 135      3DF8
 136 005e FF5F3E93 		.ascii	"\377_>\223\221\231\211A\236\021\256\363\000\204f\222"
 136      91998941 
 136      9E11AEF3 
 136      00846692 
 137 006e 40D5BA9E 		.ascii	"@\325\272\236\351\000P\365\235\315[\036\356`\024dbd"
 137      E90050F5 
 137      9DCD5B1E 
 137      EE601464 
 137      6264
 138 0080 00DBC6C0 		.ascii	"\000\333\306\300\312\320\322\3200A!\221q\021\243\022"
 138      CAD0D2D0 
 138      30412191 
 138      7111A312 
 139 0090 C4762008 		.ascii	"\304v \010\001\223\241 \3273\237eh\332\361\343\325\001"
 139      0193A120 
 139      D7339F65 
 139      68DAF1E3 
 139      D501
 140 00a2 A644C625 		.ascii	"\246D\306%\214\254\014\332\014\253\032\200\3000\223"
 140      8CAC0CDA 
 140      0CAB1A80 
 140      C03093
 141 00b1 9105CAE4 		.ascii	"\221\005\312\344\316dd\235\3150\253\261\241A \223\221"
 141      CE64649D 
 141      CD30ABB1 
 141      A1412093 
 141      91
 142 00c2 AD9AE157 		.ascii	"\255\232\341WC\007\210\305\236\0136\003\344\020v\260"
 142      430788C5 
 142      9E0B3603 
 142      E41076B0 
 143 00d2 F5498C0C 		.ascii	"\365I\214\014P\032\302\210\200x\227\201\341<C\313\203"
 143      501AC288 
 143      80789781 
 143      E13C43CB 
 143      83
 144 00e3 358BB920 		.ascii	"5\213\271 \34630\300M\340H\206\252\254f\250\312d\344"
 144      E63330C0 
 144      4DE04886 
 144      AAAC66A8 
 144      CA64E4
 145 00f6 84B810AA 		.ascii	"\204\270\020\252*\223\221\013\242qm3\0376\215L\0045"
 145      2A93910B 
 145      A2716D33 
 145      1F368D4C 
 145      0435
ARM GAS  /tmp/ccHSAuwK.s 			page 11


 146 0108 AE7BCC8D 		.ascii	"\256{\314\215M#3^\215\300\260\270\365\003\030g\020\261"
 146      4D23335E 
 146      8DC0B0B8 
 146      F5031867 
 146      10B1
 147 011a 7446466D 		.ascii	"tFFm\006-`H@\024&1\302\222\003P\331\311\011\\\324\016"
 147      062D6048 
 147      40142631 
 147      C2920350 
 147      D9C9095C 
 148 0130 B074107D 		.ascii	"\260t\020}\226\341\320k\250\365\020[M\03067t\000\365"
 148      96E1D06B 
 148      A8F5105B 
 148      4D183637 
 148      7400F5
 149 0143 801C7E91 		.ascii	"\200\034~\221\241\361\301\016e\230\267  \004\244\013"
 149      A1F1C10E 
 149      6598B720 
 149      2004A40B 
 150 0153 E430193D 		.ascii	"\3440\031==}\347\214\314\244L\377`\375\374b\375\242"
 150      3D7DE78C 
 150      CCA44CFF 
 150      60FDFC62 
 150      FDA2
 151 0165 12FDE2A2 		.ascii	"\022\375\342\242d\375\344\214\222\\\275d\006\246\222"
 151      64FDE48C 
 151      925CBD64 
 151      06A692
 152 0174 5C008F7F 		.ascii	"\\\000\217\177\231\365"
 152      99F5
 153              		.text
 154              		.section	.gnu.lto_chTMChainMeasurementToX.31eb28ea4b038451,"",%progbits
 155 0000 789C8D90 		.ascii	"x\234\215\2201K\303@\024\307\377\357\222Xu\321\301E"
 155      314BC340 
 155      14C7FFEF 
 155      925875D1 
 155      C145
 156 0012 1129828B 		.ascii	"\021)\202\213\205\344C\370\001\034\254Pq\2627\264\031"
 156      85E443F8 
 156      011CAC50 
 156      71B237B4 
 156      19
 157 0023 8AD07673 		.ascii	"\212\320vs\350\265\266\"\245B\021\027\265BE'#\270:\306"
 157      E8B5B622 
 157      A5421117 
 157      B5424527 
 157      23B83AC6 
 158 0037 D1416A07 		.ascii	"\321Aj\007\027\027\3631D\304\370.g\005\005\301\007I"
 158      1717F331 
 158      44C4F82E 
 158      670505C1 
 158      0749
 159 0049 DEE5DEEF 		.ascii	"\336\345\336\357w\377D@\340w\315\360uF\300\202^X \236"
 159      77FF4440 
 159      E077CDF0 
 159      7546C082 
 159      5E58209E 
ARM GAS  /tmp/ccHSAuwK.s 			page 12


 160 005d 2041FC02 		.ascii	" A\374\002\204\232\240\332\206n!\026q\256\324a\324\012"
 160      849AA0DA 
 160      866E2116 
 160      71AED461 
 160      D40A
 161 006f EEC4F151 		.ascii	"\356\304\361Q\330\354\253\3678&\362\365\246$\344\270"
 161      D8ECABF7 
 161      3826F2F5 
 161      A624E4B8 
 162 007f A374F210 		.ascii	"\243t\362\020\366O\277\001\303\227\366\301l\273\337"
 162      F64FBF01 
 162      C397F6C1 
 162      6CBBDF
 163 008e E8AA0FE6 		.ascii	"\350\252\017\346\376\201\335\2100\212\343\336\323e\247"
 163      FE81DD88 
 163      308AE3DE 
 163      D365A7
 164 009d 43817008 		.ascii	"C\201p\010\314\010*\021G\344\316\346N;\0344\225\352"
 164      CC082A11 
 164      47E4CEE6 
 164      4E3B1C34 
 164      95EA
 165 00af A6131957 		.ascii	"\246\023\031W6\271\257\353o\260\006\330\215\256[\223"
 165      36B9AFEB 
 165      6FB006D8 
 165      8DAE5B93 
 166 00bf 5B74410E 		.ascii	"[tA\016\012D;xS\373j\332'K&(\330\303g>\240q\377\230"
 166      0A443B78 
 166      53FB6ADA 
 166      274B2628 
 166      D8C3673E 
 167 00d7 3253195C 		.ascii	"2S\031\\)\256)\237\234S\234p\250\261\002\011\035.\225"
 167      29AE299F 
 167      9C539C70 
 167      A8B10209 
 167      1D2E95
 168 00ea CCE70DA6 		.ascii	"\314\347\015\246e\011\367\374\032\014i\344\2672X6\\"
 168      6509F7FC 
 168      1A0C69E4 
 168      B7325836 
 168      5C
 169 00fb 9D159B7F 		.ascii	"\235\025\233\177\261\300\000{\341\234\241\200\357P\343"
 169      B1C0007B 
 169      E19CA180 
 169      EF50E3
 170 010a 92C497DC 		.ascii	"\222\304\227\334fY\316\374\"\237&\200!\352\321\355\322"
 170      6659CEFC 
 170      229F2680 
 170      21EAD1ED 
 170      D2
 171 011b 883095D5 		.ascii	"\2100\225\325\02140\357\272\336J\321\317\373\253k\336"
 171      113430EF 
 171      BADE4AD1 
 171      CFFBAB6B 
 171      DE
 172 012c 76C52B57 		.ascii	"v\305+W\275JYz\262X-\271\022\237~\374b_"
 172      BD4A597A 
ARM GAS  /tmp/ccHSAuwK.s 			page 13


 172      B2582DB9 
 172      129F7EFC 
 172      625F
 173              		.text
 174              		.section	.gnu.lto_.symbol_nodes.31eb28ea4b038451,"",%progbits
 175 0000 789C4DCA 		.ascii	"x\234M\312\271\015\204@\020D\321\252\356\001\342$\222"
 175      B90D8440 
 175      1044D1AA 
 175      EE01E224 
 175      92
 176 0011 92701613 		.ascii	"\222p\026\023\207\004\010\201\020\010\000\023\033m\006"
 176      87040881 
 176      10080013 
 176      1B6D06
 177 0020 7BE2210E 		.ascii	"{\342!\016\015b\332\371\375\2442\030z\304\263\007\005"
 177      0D62DAF9 
 177      FDA43218 
 177      7AC4B307 
 177      05
 178 0031 342320B5 		.ascii	"4# \265ui/\212\011?\224EN5\355Ky\302\037\025nf\013\367"
 178      75692F8A 
 178      093F9445 
 178      4E35ED4B 
 178      79C21F15 
 179 0049 0FF6A6B2 		.ascii	"\017\366\246\262d\364\247\362\233\356@5\257\364p\225"
 179      64F4A7F2 
 179      9BEE4035 
 179      AFF47095 
 180 0059 188EE686 		.ascii	"\030\216\346\206\356\254G\007<\217\026qW\36046\346T"
 180      EEAC4707 
 180      3C8F1671 
 180      57F03436 
 180      E654
 181 006b 3B23     		.ascii	";#"
 182              		.text
 183              		.section	.gnu.lto_.refs.31eb28ea4b038451,"",%progbits
 184 0000 789C6362 		.ascii	"x\234cb`b\340f\200\000F\026\006V&6FVFV\006\000\001\363"
 184      6062E066 
 184      80004616 
 184      06562636 
 184      46564656 
 185 0018 002E     		.ascii	"\000."
 186              		.text
 187              		.section	.gnu.lto_.decls.31eb28ea4b038451,"",%progbits
 188 0000 789CBD5B 		.ascii	"x\234\275[\013p\024\307\231\236\231]\355j%\031\010\011"
 188      0B7014C7 
 188      999E995D 
 188      ED6A2519 
 188      0809
 189 0012 3EEC908B 		.ascii	">\354\220\213\234\312\353\222\203\345\025\033_\022\033"
 189      9CCAEB92 
 189      83E5151B 
 189      5F121B
 190 0021 974C622A 		.ascii	"\227Lb*\346Q\200s\\\325]6\303j\220\326\336WfG\010W\245"
 190      E6518073 
 190      5CD55D36 
 190      C36A90D6 
ARM GAS  /tmp/ccHSAuwK.s 			page 14


 190      DE576647 
 191 0038 EA06C916 		.ascii	"\352\006\311\026\030\203\221\005\030\233\360\020`aB"
 191      18839105 
 191      189BF010 
 191      606142
 192 0047 8060C032 		.ascii	"\200`\3002\310 \006\363\022\362C\200\014H\302\310K\014"
 192      C82006F3 
 192      12F24380 
 192      0C48C2C8 
 192      4B0C
 193 0059 75103046 		.ascii	"u\0200F\020\036\"\030]\367?\217\235\236\235\331\235"
 193      101E2218 
 193      5DF73F8F 
 193      9D9E9DD9 
 193      9D
 194 006a 112453EA 		.ascii	"\021$S\352\177g\246\247\277\376_\375\367\337=#\206b"
 194      7F67A6A7 
 194      BFFE5FFD 
 194      F7DF3D23 
 194      8662
 195 007c A80F198A 		.ascii	"\250\017\031\212\352A\307\236'(\352C/E\345R\024\365"
 195      EA41C79E 
 195      2728EA43 
 195      2F45E552 
 195      14F5
 196 008e 18953AD0 		.ascii	"\030\225:\320-j\025*\177F\245\015\225NT\316\240r\036"
 196      2D6A152A 
 196      7F46A50D 
 196      954E54CE 
 196      A0721E
 197 00a1 952F50A1 		.ascii	"\225/P\241Q\271I\221\007~\336\203\312\032T\372\240R"
 197      51B94991 
 197      077EDE83 
 197      CA1A54FA 
 197      A052
 198 00b3 800A83FA 		.ascii	"\200\012\203\372\361\241\342b\3446\371\312\357*\005"
 198      F1A1E262 
 198      E436F9CA 
 198      EF2A05
 199 00c2 E33F1812 		.ascii	"\343?\030\022\003\367\347S\372W1\360\365nT\266\242\262"
 199      03F7E753 
 199      FA5731F0 
 199      F56E54B6 
 199      A2B2
 200 00d4 45C1DF87 		.ascii	"E\301\337\207J\016*\215\250\354De/*\015\250lWp1\216"
 200      4A0E2A8D 
 200      A8EC4465 
 200      2F2A0DA8 
 200      6C577031 
 201 00e9 0B9523A8 		.ascii	"\013\225#\250\264\242r\314\300k\233\322\307\032\035"
 201      B4A272CC 
 201      C06B9BD2 
 201      C71A1D
 202 00f8 AE57E967 		.ascii	"\256W\351g\237\322g\216\202\327\240\364\321\250\364"
 202      9FD2678E 
 202      82D7A0F4 
 202      D1A8F4
ARM GAS  /tmp/ccHSAuwK.s 			page 15


 203 0107 432BEDF1 		.ascii	"C+\355\361\357\247\006\\\254\247\\\003\377?E2\2566\364"
 203      EFA7065C 
 203      ACA75C03 
 203      FF3F4532 
 203      AE36F4
 204 011a 452B988C 		.ascii	"E+\230\214\322F\325\307_\014xX\347\371\031\360\256\243"
 204      D246D5C7 
 204      5F0C7858 
 204      E7F919F0 
 204      AEA3
 205 012c 46DDE8F7 		.ascii	"F\335\350\367g\350\336\317Q\331\254`^C\367\377N\313"
 205      67E8DECF 
 205      51D9AC60 
 205      5E43F7FF 
 205      4ECB
 206 013e 3A3843A5 		.ascii	":8C\245l\211\353\376\217J\267\335y\223~\266\232\364"
 206      6C89EBFE 
 206      8F4AB7DD 
 206      79937EB6 
 206      9AF4
 207 0150 F11823F3 		.ascii	"\361\030#\363\337\256\350W\355\007\313\342Vp\364\376"
 207      DFAEE857 
 207      ED07CBE2 
 207      5670F4FE 
 208 0160 62E627D8 		.ascii	"b\346'\330\177\362l\350H\225G\325\225Ki\253\227\345"
 208      7FF26CE8 
 208      489547D5 
 208      954B69AB 
 208      97E5
 209 0172 1A2A570D 		.ascii	"\032*W\015\370\337\246V\210\322\341\344\213\215\363"
 209      F8DFA656 
 209      88D2E1E4 
 209      8B8DF3
 210 0181 FC6F88D2 		.ascii	"\374o\210\322\013\"rs\221.\274\237Z,\242\243\266J\024"
 210      0B227273 
 210      912EBC9F 
 210      5A2CA2A3 
 210      B64A14
 211 0194 69C147CD 		.ascii	"i\301G\315\021\305\012|\361T\023ba*\315\322}|T!\234"
 211      11C50A7C 
 211      F1541362 
 211      612ACDD2 
 211      7D7C5421 
 212 01a9 14F84092 		.ascii	"\024\370@\222\357Qo\212bur\327\331\013.Q\314e\3515\264"
 212      EF516F8A 
 212      627572D7 
 212      D90B2E51 
 212      CC65E935 
 213 01be 0FF5C8D1 		.ascii	"\017\365\310\321\324\217\250?\"\234jQ\\\375\010M\245"
 213      D48FA83F 
 213      229C6A51 
 213      5CFD084D 
 213      A5
 214 01cf 1FF6A1DB 		.ascii	"\037\366\241\333g\357\337CW vX\372-\000?G\323\024K\257"
 214      67EFDF43 
 214      57207658 
 214      FA2D003F 
ARM GAS  /tmp/ccHSAuwK.s 			page 16


 214      47D3144B 
 215 01e4 A57FE418 		.ascii	"\245\177\344\030\252u\301\316G\201\313\365\000t\235"
 215      AA75C1CE 
 215      4781CBF5 
 215      00749D
 216 01f3 218158DA 		.ascii	"!\201X\332\353\323\363\010\327\352\003\030\015\252\225"
 216      EBD3F308 
 216      D7EA0318 
 216      0DAA95
 217 0202 131C16FA 		.ascii	"\023\034\026\372R\377\340\307\315d\301-W\323\367+g\317"
 217      52FFE0C7 
 217      CD64C12D 
 217      57D3F72B 
 217      67CF
 218 0214 B8643486 		.ascii	"\270d4\206\232\345\"\245\241\250\357SuH1\262\205\027"
 218      9AE522A5 
 218      A1A8EF53 
 218      754831B2 
 218      8517
 219 0226 496ED938 		.ascii	"In\3318\270\321*\372\333\026\320P\275\221&\302\215\342"
 219      B8D12AFA 
 219      DB16D050 
 219      BD9126C2 
 219      8DE2
 220 0238 28373AEA 		.ascii	"(7:\352\377\335\312QX\372\261\001\226\314nV\230u\201"
 220      FFDDCA51 
 220      58FAB101 
 220      96CC6E56 
 220      987581
 221 024b 2BA2F133 		.ascii	"+\242\36137e\256\376\324\253\030\245p\316\347\264&\255"
 221      3765AEFE 
 221      D4AB18A5 
 221      70CEE7B4 
 221      26AD
 222 025d 44AB0803 		.ascii	"D\253\010\003S\246\353\372C\31300\335V\272?\302i7\010"
 222      53A6EBFA 
 222      43CB3030 
 222      DD56BA3F 
 222      C2693708 
 223 0271 9B1D0773 		.ascii	"\233\035\007sR\217\332\312\255\000U\224\336>P \272\345"
 223      528FDACA 
 223      AD005594 
 223      DE3E5020 
 223      BAE5
 224 0283 FB944179 		.ascii	"\373\224Ay\272\343!\252\026q,m=\260\354\001\261\366"
 224      BAE321AA 
 224      16712C6D 
 224      3DB0EC01 
 224      B1F6
 225 0295 7D5A75F2 		.ascii	"}Zu\362\213\300\003nk&\271r*\037\312\003$\336\266\003"
 225      8BC0036E 
 225      6B26B972 
 225      2A1FCA03 
 225      24DEB603 
 226 02a9 05D5AC0A 		.ascii	"\005\325\254\012\326\345\030\254\220\000\253\327\203"
 226      D6E518AC 
 226      9000ABD7 
ARM GAS  /tmp/ccHSAuwK.s 			page 17


 226      83
 227 02b6 DDB00396 		.ascii	"\335\260\003\226k\315\331v\014\346`\360\357\230\367"
 227      6BCDD976 
 227      0CE660F0 
 227      EF98F7
 228 02c5 73B0CD6E 		.ascii	"s\260\315n\350\375\266\3138\254\336\242\035\217+\206"
 228      E8FDB6CB 
 228      38ACDEA2 
 228      1D8F2B86 
 229 02d5 AA743B15 		.ascii	"\252t;\025\202\320H\262\353\344\307\257\322k*\3059\225"
 229      82D048B2 
 229      EBE4C7AF 
 229      D26B2AC5 
 229      3995
 230 02e7 1E4514A9 		.ascii	"\036E\024\251J\234C\317z{\220\326`\264\036F\025\346"
 230      4A9C43CF 
 230      7A7B90D6 
 230      60B41E46 
 230      15E6
 231 02f9 BC12C9F6 		.ascii	"\274\022\311\366\2010/\272M\203\215-\250\366\331-j\344"
 231      81302FBA 
 231      4D838D2D 
 231      A8F6D92D 
 231      6AE4
 232 030b 3A0860AF 		.ascii	":\010`\257\364\036\254\266\265e\020v\325f\000Z\3426"
 232      F41EACB6 
 232      B5651076 
 232      D566005A 
 232      E236
 233 031d AAD867D0 		.ascii	"\252\330g\320\260\217\324\260\317\227:\351Q\0172.\377"
 233      B08FD4B0 
 233      CF973AE9 
 233      510F322E 
 233      FF
 234 032e 43DB30D4 		.ascii	"C\3330\324j\2439\011!\225\323~&>iv\350\2072K\277K\177"
 234      6AA33909 
 234      2195D37E 
 234      263E6976 
 234      E887324B 
 235 0345 0FD1EDF4 		.ascii	"\017\321\355\364C\2106\000\335\011\264\021\350^D\265"
 235      43883600 
 235      DD09B411 
 235      E85E44B5 
 236 0355 C32A466D 		.ascii	"\303*Fm\241\363\325G\2240\245F\313\264\353T\314\245"
 236      A1F3D547 
 236      9430A546 
 236      CBB4EB54 
 236      CCA5
 237 0367 B05C1B0D 		.ascii	"\260\\\033\015\246\370.\265F\024kp\264,E\321\322-C3"
 237      A6F82EB5 
 237      46146B70 
 237      B42C45D1 
 237      D22D4333 
 238 037b D43BF0D8 		.ascii	"\324;\360\330\237-\002\257\302\200\334V:\365v3-\366"
 238      9F2D02AF 
 238      C280DC56 
 238      3AF57633 
ARM GAS  /tmp/ccHSAuwK.s 			page 18


 238      2DF6
 239 038d 5707F38E 		.ascii	"W\007\363\216,-\201-\245e'\367\224\332l\227\235f\312"
 239      2C2D812D 
 239      A56527F7 
 239      94DA6C97 
 239      9D66CA
 240 03a0 1C214A27 		.ascii	"\034!J'\337\236UK\213\036\210\343\224\322\216\320\367"
 240      DF9E554B 
 240      8B1E88E3 
 240      94D28ED0 
 240      F7
 241 03b1 E1F43921 		.ascii	"\341\3649!yXZ8\373\003Z\254\021o\367\364T\272)\3733"
 241      79585A38 
 241      FB035AAC 
 241      116FF7F4 
 241      54BA29FB 
 242 03c6 423B3923 		.ascii	"B;9#\310\322\033\364\272\317T\257\342V,\241\374\370"
 242      C8D21BF4 
 242      BACF54AF 
 242      E2562CA1 
 242      FCF8
 243 03d8 51C4124B 		.ascii	"Q\304\022K\267eV\251*\2418_|\261\037\255\311\327f\224"
 243      B76556A9 
 243      2AA1385F 
 243      7CB11FAD 
 243      C9D76694 
 244 03ec EFA4A97C 		.ascii	"\357\244\251|\307\016.@!\277B\352\351\331=Z\341\233"
 244      C70E2E40 
 244      21BF42EA 
 244      E9D93D5A 
 244      E19B
 245 03fe A15A09CE 		.ascii	"\241Z\011\316@\006\206:\357\246\011>\257\032\371\354"
 245      4006863A 
 245      EFA6093E 
 245      AF1AF9EC 
 246 040e B4C9E76E 		.ascii	"\264\311\347nq\342@\215\315N#\233\237\231\262y\347`"
 246      71E2408D 
 246      CD4E239B 
 246      9F99B279 
 246      E760
 247 0420 41F5AC64 		.ascii	"A\365\254dO\317\312B\225\307+\351<\262\364i\265\261"
 247      4FCFCA42 
 247      95C72BE9 
 247      3CB2F469 
 247      B5B1
 248 0432 C2639791 		.ascii	"\302c\227\221\3073\275\341\361\214\221\307\263\351<"
 248      C733BDE1 
 248      F18C91C7 
 248      B3E93C
 249 0441 D64AD27B 		.ascii	"\326J\322{U\275r\225\277\232d:\263sL3\035t\254\023]"
 249      55BD7295 
 249      BF9A643A 
 249      B3734C33 
 249      1D74AC13 
 250 0456 1A5FE78D 		.ascii	"\032_\347\215|]0\345\353H\263\316\304\366\371\272d\346"
 250      7C5D30E5 
 250      EB48B3CE 
ARM GAS  /tmp/ccHSAuwK.s 			page 19


 250      C4F6F9BA 
 250      64E6
 251 0468 C2C40595 		.ascii	"\302\304\005\225\026*\252sl\030\345\206j\024\206Z\007"
 251      162AAA73 
 251      6C18E586 
 251      6A14865A 
 251      07
 252 0479 CF7F612B 		.ascii	"\317\177a+f\034m.\250\246\325\206\033\3554\324\306\376"
 252      661C6D2E 
 252      A8A6D586 
 252      1BED34D4 
 252      C6FE
 253 048b 91E6BE73 		.ascii	"\221\346\276s\177\253\251\355\013\243\332\272H\265}"
 253      7FABA9ED 
 253      0BA3DABA 
 253      48B57D
 254 049a 875A2526 		.ascii	"\207Z%&\253\223\307.\264\275D\357\251\023\245j\244\253"
 254      AB93C72E 
 254      B4BD44EF 
 254      A913A56A 
 254      A4AB
 255 04ac CB744F8F 		.ascii	"\313tO\217\327,\005\023\007\250\035\037\306 \312\274"
 255      D72C0513 
 255      07A81D1F 
 255      C620CABC 
 256 04bc 78F292F4 		.ascii	"x\362\222\364\257\015\242\330\217\245\273!\231\273\235"
 256      AF0DA2D8 
 256      8FA5BB21 
 256      99BB9D
 257 04cb 933D9933 		.ascii	"\223=\2313 1\324\034\017nt\333\220\321!\276\2223_\007"
 257      2031D41C 
 257      0F6E74DB 
 257      90D121BE 
 257      92335F07 
 258 04df ECDB3692 		.ascii	"\354\3336\222:\224\001v.\243qR\247\366\251Ku\222Z\376"
 258      3A940176 
 258      2EA37152 
 258      A7F6A94B 
 258      75925AFE 
 259 04f3 3848CFFB 		.ascii	"8H\317\373\315\007\033\001_d0\3575\036s\336-q\030j%"
 259      CD071B01 
 259      5F6430EF 
 259      351E73DE 
 259      2D71186A 
 260 0508 34A964D2 		.ascii	"4\251d\3228?\374\254\3149\256\312\316\371\211\016K\316"
 260      383FFCAC 
 260      CC39AECA 
 260      CEF9890E 
 260      4BCE
 261 051a CD9211A4 		.ascii	"\315\222\021\244\364\007\017\001\374l`|\2439\343\265"
 261      F4070F01 
 261      FC6C607C 
 261      A339E3B5 
 262 052a A3AD70D0 		.ascii	"\243\255p\320\224\002M\346\2463~s\210\314\370\\\033"
 262      94024DE6 
 262      A6337E73 
 262      88CCF85C 
ARM GAS  /tmp/ccHSAuwK.s 			page 20


 262      1B
 263 053b 8C57485D 		.ascii	"\214WH]//\207<\332t!\240\353\275\326\255v\377dJ\214"
 263      2F2F873C 
 263      DA7421A0 
 263      EBBDD6AD 
 263      76FF644A 
 264 0550 8E4B37BD 		.ascii	"\216K7\275\220\236-\000)>\316\256~\022\206\241N@\223"
 264      909E2D00 
 264      293ECEAE 
 264      7E1286A1 
 264      4E4093
 265 0563 1A13F58F 		.ascii	"\032\023\365\217\222\245\250\261%\305\222W\226+\253"
 265      92A5A8B1 
 265      25C59257 
 265      962BAB
 266 0572 8157183C 		.ascii	"\201W\030<\346Nk\260\275[\015,\375\030\022x\031\354"
 266      E64E6BB0 
 266      BD5B0D2C 
 266      FD181278 
 266      19EC
 267 0584 9C63B042 		.ascii	"\234c\260B\002l\345\307\362R\305A\016\277J\311\341\227"
 267      026CE5C7 
 267      F252C541 
 267      0EBF4AC9 
 267      E197
 268 0596 32387BF8 		.ascii	"28{\370\322sOr\370\033v\344\260\\\210`\243H\217\356"
 268      D2734F72 
 268      F81B76E4 
 268      B05C8860 
 268      A3488FEE 
 269 05aa D8228A2F 		.ascii	"\330\"\212/yT\367\364X\311\301Pw\240\263\225F\303.\277"
 269      7954F7F4 
 269      58C9C150 
 269      77A0B395 
 269      46C32EBF 
 270 05be D5F46FB2 		.ascii	"\325\364o\262aW\3322\354;\315K\354\271'\243v\377]\350"
 270      6157DA32 
 270      EC3BCD4B 
 270      ECB927A3 
 270      76FF5DE8 
 271 05d2 7E931777 		.ascii	"~\223\027w\377\246\261\373\272\236=4(\366M[\275\037"
 271      FFA6B1FB 
 271      BA9E3D34 
 271      28F64D5B 
 271      BD1F
 272 05e4 39BA28BD 		.ascii	"9\272(\275w\313\231H1\336\362[\347\006\255\004\021\327"
 272      77CB9948 
 272      31DEF25B 
 272      E706AD04 
 272      11D7
 273 05f6 81FB3478 		.ascii	"\201\3734x\215\326{<_\337\027\\\353\036`\250\275\032"
 273      8DD67B3C 
 273      5FDF175C 
 273      EB1E60A8 
 273      BD1A
 274 0608 F3BDF2DE 		.ascii	"\363\275\362\336d\335\372f\006o\016\270T\026\0168\006"
 274      64DDFA66 
ARM GAS  /tmp/ccHSAuwK.s 			page 21


 274      066F0EB8 
 274      54160E38 
 274      06
 275 0619 243DF893 		.ascii	"$=\370\223\2430\034d\260Cv\3002\254g\217\353\301>t\014"
 275      A3301C64 
 275      B04376C0 
 275      32AC678F 
 275      EBC13E74 
 276 062e 4672D6A6 		.ascii	"Fr\326\246\007k\261\003f\266\252Q\300:\364`G\035\203"
 276      076BB103 
 276      66B6AA51 
 276      C03AF460 
 276      471D83
 277 0641 919C7DAA 		.ascii	"\221\234}\252\007;f\007l\2405g\235z\260v\307`$g\227"
 277      073B6607 
 277      6CA03567 
 277      9D7AB076 
 277      C7602467 
 278 0656 F560A7EC 		.ascii	"\365`\247\354\200\025\232p\246\035VI\331\032Fss\206"
 278      80159A70 
 278      A61D5649 
 278      D91A4673 
 278      7386
 279 0668 4A7AD570 		.ascii	"Jz\325p\340\320\245\251\024\306\031\257\323\370E\310"
 279      E0D0A5A9 
 279      14C619AF 
 279      D3F845C8 
 280 0678 8D279547 		.ascii	"\215'\225G\033 ~\251\221\375\257v\02038L\275~\232\270"
 280      1B207EA9 
 280      91FDAF76 
 280      1033384C 
 280      BD7E9AB8 
 281 068c E2188C34 		.ascii	"\342\030\2144\313'\030\214\2104\312\204\221\254\223"
 281      CB27188C 
 281      8834CA84 
 281      91AC93
 282 069b 06BE9E0A 		.ascii	"\006\276\236\012u\271*\026^\343\310q\255Z\024\031\355"
 282      75B92A16 
 282      5EE3C871 
 282      AD5A1419 
 282      ED
 283 06ac 6171E040 		.ascii	"aq\340@\363gYz?\203\327\346\007\030\237\306\205|\256"
 283      F367597A 
 283      3F83D7E6 
 283      07189FC6 
 283      857CAE
 284 06bf 9EC99B03 		.ascii	"\236\311\233\003\267\274f{\304\000\220\271\251\225'"
 284      B7BC667B 
 284      C40090B9 
 284      A99527
 285 06ce ECD57B42 		.ascii	"\354\325{B\217\0355e\030\012\227\255\324dk\027\010\005"
 285      8F1D3565 
 285      180A97AD 
 285      D4646B17 
 285      0805
 286 06e0 E76FAD87 		.ascii	"\347o\255\207\340\374\001L\255U\271\306\340|\3208\265"
 286      E0FC014C 
ARM GAS  /tmp/ccHSAuwK.s 			page 22


 286      AD55B9C6 
 286      E07CD038 
 286      B5
 287 06f1 DADC54B1 		.ascii	"\332\334T\261\022\276Y/\374\253\271N\2057\272\360\271"
 287      12BE592F 
 287      FCABB94E 
 287      8537BAF0 
 287      B9
 288 0702 9FEED824 		.ascii	"\237\356\330$\212\332.\0326wF\337@\311\3045e\017\355"
 288      8ADA2E1A 
 288      367746DF 
 288      40C9C435 
 288      650FED
 289 0715 3048BCCC 		.ascii	"0H\274\314 \261}\240\366\331\033\177\014@\255\000T\327"
 289      20B17DA0 
 289      F6D91B7F 
 289      0C40AD00 
 289      54D7
 290 0727 6BA0D605 		.ascii	"k\240\326\005+F\001\320q\000\332\230f\003\243\011h\322"
 290      2B4601D0 
 290      7100DA98 
 290      6603A309 
 290      68D2
 291 0739 04B42F75 		.ascii	"\004\264/u\222\266\007v\017\237e\250w\215\366\"\304"
 291      92B60776 
 291      0F9F65A8 
 291      778DF622 
 291      C4
 292 074a C9101D35 		.ascii	"\311\020\0355{5\375\314\261\275\272\024{\235\004\355"
 292      7B35FDCC 
 292      B1BDBA14 
 292      7B9D04ED 
 293 075a EC4ED34E 		.ascii	"\354N\323N+\343L=\014u\320\261\030\271\0061.;\027\243"
 293      2BE34C3D 
 293      0C75D0B1 
 293      18B90631 
 293      2E3B17A3 
 294 076e 5B112309 		.ascii	"[\021#\011b\264\334\0031N8\026\243\237N\014X\033\215"
 294      62B4DC03 
 294      314E3816 
 294      A39F4E0C 
 294      581B8D
 295 0781 9713D8AF 		.ascii	"\227\023\330\257S5\231\023X\330:a\276Nd\217\322\265"
 295      53359913 
 295      58D83A61 
 295      BE4E648F 
 295      D2B5
 296 0793 16BA50BE 		.ascii	"\026\272P\276\235}A\270\360\250.\351\027m%\375uJ\322"
 296      9D7D41B8 
 296      F0A82EE9 
 296      176D25FD 
 296      754AD2
 297 07a6 7F0E14D6 		.ascii	"\177\016\024\326i6\274\354\000\325\266\037\034\2007"
 297      6936BCEC 
 297      00D5B61F 
 297      1C8037
 298 07b5 A72F00CC 		.ascii	"\247/\000\314\231\336\302$[[\336\225G\351%\000\272\230"
ARM GAS  /tmp/ccHSAuwK.s 			page 23


 298      99DEC224 
 298      5B5BDE95 
 298      47E92500 
 298      BA98
 299 07c7 66408FC1 		.ascii	"f@\217\301~\036\322~\350"
 299      7E1ED27E 
 299      E8
 300 07d0 12F77413 		.ascii	"\022\367t\023\342\343\377*w\360\205\227\372\247\267"
 300      E2E3FF2A 
 300      77F08597 
 300      FAA7B7
 301 07df 63A8EBC0 		.ascii	"c\250\353\300>\266]orjX\374\214\335\241$\017\262\201"
 301      3EB65D6F 
 301      726A58FC 
 301      8CDDA124 
 301      0FB281
 302 07f2 BEBA2BC4 		.ascii	"\276\272+\304\012iw\215\272f}\034\247\017U\276\273\203"
 302      0A69778D 
 302      BA667D1C 
 302      A70F55BE 
 302      BB83
 303 0804 837C9398 		.ascii	"\203|\223\230\027\015\253\226\005\026\263\216\266%\221"
 303      170DAB96 
 303      0516B38E 
 303      B62591
 304 0813 1CB80166 		.ascii	"\034\270\001f\306\233\220\316\314\367\031\355\375\012"
 304      C69B90CE 
 304      CCF719ED 
 304      FD0A
 305 0821 6358B7E0 		.ascii	"cX\267\340\033\272G\254\306\321\015\375\014X{Wbb;\264"
 305      1BBA47AC 
 305      C6D10DFD 
 305      0C587B57 
 305      62623BB4 
 306 0835 FD8AB4C3 		.ascii	"\375\212\264\303\332\273T\334\033\013\355\355\200\374"
 306      DABB54DC 
 306      1B0BEDED 
 306      80FC
 307 0843 56C5826F 		.ascii	"V\305\202oD\250M\320\255\3502\2540o\374\351t\225\362"
 307      44A84DD0 
 307      ADE832AC 
 307      306FFCE9 
 307      7495F2
 308 0856 9A09D765 		.ascii	"\232\011\327e\017\024'\317\372\304\232\002u#\350\224"
 308      0F1427CF 
 308      FAC49A02 
 308      7523E894 
 309 0866 866A96C4 		.ascii	"\206j\226\304dU\217\324\3115\015u\020r\336QBN\225\013"
 309      64558FD4 
 309      C9350D75 
 309      1072DE51 
 309      424E950B 
 310 087a 6BF26C9A 		.ascii	"k\362l\232\311/\030c\264\2431w\301(\214\335\225\242"
 310      C92F1863 
 310      B4A33177 
 310      C1288CDD 
 310      95A2
ARM GAS  /tmp/ccHSAuwK.s 			page 24


 311 088c 7658B954 		.ascii	"vX\271T\217\336\245\272\356\316\001pR5N^\027ds\001Q"
 311      8FDEA5BA 
 311      EECE0170 
 311      52354E5E 
 311      17647301 
 312 08a1 DB3CEC07 		.ascii	"\333<\354\007=\337\204\236\347\033}`\341\226C\263\351"
 312      3DDF849E 
 312      E71B7D60 
 312      E19643B3 
 312      E9
 313 08b2 59E003F3 		.ascii	"Y\340\003\363m\371\3005\302\007\326\344\251\250\275"
 313      6DF9C035 
 313      C207D6E4 
 313      A9A8BD
 314 08c1 F1810AA9 		.ascii	"\361\201\012\251\373\374!\032\340\344u\311\237\214p"
 314      FBFC211A 
 314      E0E475C9 
 314      9F8C70
 315 08d0 0ED7EBB7 		.ascii	"\016\327\353\267\221K9S\214\354]R\373Y<]\276\346\302"
 315      914B3953 
 315      8CEC5D52 
 315      FB593C5D 
 315      BEE6C2
 316 08e3 326DCD33 		.ascii	"2m\3153\272\226\254\031\235k\245\324\210b\225\013/T"
 316      BA96AC19 
 316      9D6BA5D4 
 316      8862950B 
 316      2F54
 317 08f5 AA5DF895 		.ascii	"\252]\370\225a\015\320E.\033/\016\027\273tn\361\236"
 317      610DD045 
 317      2E1B2F0E 
 317      17BB746E 
 317      F19E
 318 0907 63B90B6D 		.ascii	"c\271\013mz\337<}7\357\347\335\235\367}r\341\334x\330"
 318      7ADF3C7D 
 318      37EFE7DD 
 318      9DF77D72 
 318      E1DC78D8 
 319 091b AC71B03D 		.ascii	"\254q\260=\270Q\031\266\313`\330\036J\323m\257\266\007"
 319      B85119B6 
 319      CB60D81E 
 319      4AD36DAF 
 319      B607
 320 092d 8FF55610 		.ascii	"\217\365V\020\355`\250O\363l\254o\012Mt\256E\367\344"
 320      ED60A84F 
 320      F36CAC6F 
 320      0A4D74AE 
 320      45F7E4
 321 0940 049B5B8C 		.ascii	"\004\233[\214\332\264\325\364@\023L[\253\301\321\222"
 321      DAB4D5F4 
 321      40134C5B 
 321      ABC1D192 
 322 0950 0665D8D8 		.ascii	"\006e\330\330\252\374\022\232\324\031G1\232\361\225"
 322      AAFC129A 
 322      D4194731 
 322      9AF195
 323 095f 9DF43A1B 		.ascii	"\235\364:\033\203\270Bj}Y\277\007\215\034\237a\024\330"
ARM GAS  /tmp/ccHSAuwK.s 			page 25


 323      83B8426A 
 323      7D59BF07 
 323      8D1C9F61 
 323      14D8
 324 0971 DEEA9330 		.ascii	"\336\352\2230a\235nx\274\005\303c\235~H\240\205\265"
 324      619D6E78 
 324      BC05C363 
 324      9D7E48A0 
 324      85B5
 325 0983 1DDDFFD0 		.ascii	"\035\335\377\320\312\021Ei\361q\371\025\206\032\206"
 325      CA114569 
 325      F171F915 
 325      861A86
 326 0992 5ECA37E0 		.ascii	"^\3127\340\231\205!\002Oo\313\012i\363q\330\034\221"
 326      99852102 
 326      4F6FCB0A 
 326      69F371D8 
 326      1C91
 327 09a4 7D749111 		.ascii	"}t\221\021\314\214\271\241\326`\273_S\225\213\007\037"
 327      CC8CB9A1 
 327      D660BB5F 
 327      53958B07 
 327      1F
 328 09b5 43ADB483 		.ascii	"C\255\264\2037\312J\330\012\351\304q\365\363!y\213\375"
 328      37CA4AD8 
 328      0AE9C471 
 328      F5F32179 
 328      8BFD
 329 09c7 8F8EF148 		.ascii	"\217\216\361H\376\256\275F$s\333\354\300\215\266m\373"
 329      FEAEBD46 
 329      2473DBEC 
 329      C08DB66D 
 329      FB
 330 09d8 D4FB1114 		.ascii	"\324\373\021\024\010a\017g1\203\203\342\022\240o\000"
 330      08610F67 
 330      318383E2 
 330      12A06F00 
 331 09e8 5D01B411 		.ascii	"]\001\264\021\250\004\364}\240\207\200\266\000\355\000"
 331      A804F47D 
 331      A08780B6 
 331      00ED00
 332 09f7 FA19D033 		.ascii	"\372\031\3203@WAp]\017t\003\320M@7\003\335b'\350\032"
 332      40574170 
 332      5D0F7403 
 332      D04D4037 
 332      03DD6227 
 333 0a0d B240D5F1 		.ascii	"\262@\325\361\347\366\372\345\313\225\017\264]5\226"
 333      E7F6FAE5 
 333      CB950FB4 
 333      5D3596
 334 0a1c 7EDD3158 		.ascii	"~\3351Xa&M\316\325ir\036hr>\350a\0339\226v\346\253o"
 334      61264DCE 
 334      D569721E 
 334      68723EE8 
 334      611B3996 
 335 0a34 057B3705 		.ascii	"\005{7\005\267w\220\356\265\317\210\347h\016\026\245"
 335      B77790EE 
ARM GAS  /tmp/ccHSAuwK.s 			page 26


 335      B5CF88E7 
 335      680E16A5 
 336 0a44 4F3B4025 		.ascii	"O;@%+a`~\340\030\214\364\325\253K\311\227eG\354\340"
 336      2B61607E 
 336      E0188CF4 
 336      D5AB4BC9 
 336      976547EC 
 337 0a59 65D805FD 		.ascii	"e\330\005\375[\207n\027\264\3351\030\311\334-=\330i"
 337      5B876E17 
 337      B4DD3118 
 337      C9DC2D3D 
 337      D869
 338 0a6b 3B60667B 		.ascii	";`f{\205\346\306\257\324\031\377E0~\025\030\277\036"
 338      85E6C6AF 
 338      D419FF45 
 338      307E1518 
 338      BF1E
 339 0a7d 9C7D3BD0 		.ascii	"\234};\320\006\240;\2016\222Nq!_}\311\255tF\276K\316"
 339      06A03B81 
 339      36924E71 
 339      215F7DC9 
 339      AD7446BE 
 340 0a93 9E9CEFB0 		.ascii	"\236\234\357\260~\275m\226@\241\271\355\362\2406\230"
 340      7EBD6D96 
 340      40A1B9ED 
 340      F2A03698 
 341 0aa3 81DE87B9 		.ascii	"\201\336\207\271\255+?\353\373Uc\206:\273\0007\331\237"
 341      AD2B3FEB 
 341      FB556386 
 341      3ABB0037 
 341      D99F
 342 0ab5 3EB79D0B 		.ascii	">\267\235\013\310s\333~[s\333WKl\276%\326\272\377\206"
 342      C873DB7E 
 342      5B73DB57 
 342      4B6CBE25 
 342      D6BAFF86 
 343 0ac9 5E8CA641 		.ascii	"^\214\246A\362\313\356f\020cEA\366\327\304\004\016Z"
 343      F2CBEE66 
 343      10634541 
 343      F6D7C404 
 343      0E5A
 344 0adb 6C41938F 		.ascii	"lA\223\217L\304\370\037Y\214\217l\211\261k\211\352\371"
 344      4CC4F81F 
 344      598C8F6C 
 344      89B16B89 
 344      EAF9
 345 0aed 876016D9 		.ascii	"\207`\026\331\255\301\366.R5\236\000g\225\301\016:\006"
 345      ADC1F62E 
 345      52359E00 
 345      6795C10E 
 345      3A06
 346 0aff 233DFFC8 		.ascii	"#=\377\310\011\247\257\211O^j[\253\2545\217\301,\333"
 346      09A7AF89 
 346      4F5E6A5B 
 346      ABAC358F 
 346      C12CDB
 347 0b12 62D06C2F 		.ascii	"b\320l/3\301v;\222X\257\030\360\256\347ov\244/\250\354"
ARM GAS  /tmp/ccHSAuwK.s 			page 27


 347      33C1763B 
 347      9258AF18 
 347      F0AEE76F 
 347      76A42FA8 
 348 0b27 7FCF73D2 		.ascii	"\177\317s\322e\370\236\347q\303\027i\031\225\222\374"
 348      65F89EE7 
 348      71C31769 
 348      199592FC 
 349 0b37 E63AF089 		.ascii	"\346:\360\211\0160\313_\014:1\354\212\340\256\254\330"
 349      0E30CB5F 
 349      0C3A31EC 
 349      8AE0AEAC 
 349      D8
 350 0b48 F8CC956F 		.ascii	"\370\314\225o\341Riu(:8V\032a~\274\261\361\033\365\355"
 350      E1526975 
 350      283A3856 
 350      1A617EBC 
 350      B1F11BF5 
 351 0b5d 14E41057 		.ascii	"\024\344\020W\355\000\332\377F\363#]\376\330\002\371"
 351      ED00DAFF 
 351      46F3235D 
 351      FED802F9 
 352 0b6d E3610872 		.ascii	"\343a\010rG\201~\002\264\035\350i;\263\376\241\324\032"
 352      47817E02 
 352      B41DE869 
 352      3BB3FEA1 
 352      D41A
 353 0b7f 88A58FB8 		.ascii	"\210\245\217\270\030%\312\364n\034Uwh\343\210\245[\035"
 353      1825CAF4 
 353      6E1C5577 
 353      68E388A5 
 353      5B1D
 354 0b91 83118A94 		.ascii	"\203\021\212\224\026ks/\036\024,\335f\007/\303\372w"
 354      166B732F 
 354      1E142CDD 
 354      66072FC3 
 354      FA77
 355 0ba3 9BCC9C3C 		.ascii	"\233\314\234<\302ni\361\324\241\225\315\215\262_g\224"
 355      C26E69F1 
 355      D4A195CD 
 355      8DB25F67 
 355      94
 356 0bb4 83609426 		.ascii	"\203`\224&0\301\347@\317\000=K\316BU\367\031f!2\344"
 356      30C1E740 
 356      CF003D4B 
 356      CE4255F7 
 356      19662132 
 357 0bc9 9B4D8A7A 		.ascii	"\233M\212z\375\210\322\341N$\217\375\345U\333\267\344"
 357      FD88D2E1 
 357      4E248FFD 
 357      E555DBB7 
 357      E4
 358 0bda E5D57988 		.ascii	"\345\325y\210\335\363\357s\274\274Z\006M.\246\307\356"
 358      DDF3EF73 
 358      BCBC5A06 
 358      4D2EA6C7 
 358      EE
ARM GAS  /tmp/ccHSAuwK.s 			page 28


 359 0beb 64588EDD 		.ascii	"dX\216\335\027\263\307\356\027*\245\035\177X\233\232"
 359      17B3C7EE 
 359      172AA51D 
 359      7F589B9A 
 360 0bfb 822AB5F1 		.ascii	"\202*\265\361\273\017\345WV>J\274w\334\240\261\341\320"
 360      BB0FE557 
 360      563E4ABC 
 360      77DCA0B1 
 360      E1D0
 361 0c0d 47CD2D77 		.ascii	"G\315-wQg\271K`\271/I;\325\033\355\224u9F\232\251\275"
 361      5167B94B 
 361      60B92F49 
 361      3BD51BED 
 361      94753946 
 362 0c24 535D8EC9 		.ascii	"S]\216\311\037W5\030\361\310O\251\224Sb\011E\021\200"
 362      1F573518 
 362      F1C84FA9 
 362      94536209 
 362      451180
 363 0c37 579CD8BD 		.ascii	"W\234\330\275\353d\243\374\366\346:\230}\277S\263c\025"
 363      EB64A3FC 
 363      F6E63A98 
 363      7DBF53B3 
 363      6315
 364 0c49 751B4C2E 		.ascii	"u\033L.uq\205\362\335\3543u\367Ye\017k\015\274\025:"
 364      757185F2 
 364      DDEC3375 
 364      F759650F 
 364      6B0DBC15 
 365 0c5e 0E5FC476 		.ascii	"\016_\304v\337+\343u\353\214w\013\214\367w\322x\307"
 365      DF2BE375 
 365      EB8C770B 
 365      8CF777D2 
 365      78C7
 366 0c70 ED182F6E 		.ascii	"\355\030/ni<\234\230\374~\241\210\377\333\341kT5$7s"
 366      693C9C98 
 366      FC7EA188 
 366      FFDBE16B 
 366      54352437 
 367 0c85 3EA7E577 		.ascii	">\247\345w\316\312\363\322}*L\033\255pu\307\36558#\366"
 367      CECAF3D2 
 367      7D2A4C1B 
 367      AD7075C7 
 367      F5353823 
 368 0c9a 6FE1112B 		.ascii	"o\341\021+\015\367\270R\257\343\013|\251\223\0075A\332"
 368      0DF7B852 
 368      AFE30B7C 
 368      A9930735 
 368      41DA
 369 0cac 8D8218FA 		.ascii	"\215\202\030\372U\316g\332V\335m\335\247\376w\340S\377"
 369      55CE67DA 
 369      56DD6DDD 
 369      A7FE77E0 
 369      53FF
 370 0cbe 1EF8B07F 		.ascii	"\036\370\260\177\017\304\252s@\257\002\275\006\364+"
 370      0FC4AA73 
 370      40AF02BD 
ARM GAS  /tmp/ccHSAuwK.s 			page 29


 370      06F42B
 371 0ccd 52B1E734 		.ascii	"R\261\3474GR\243\027\371))\356b\226[\373\3065[\276\231"
 371      4752A317 
 371      F92929EE 
 371      62965BFB 
 371      C6355BBE 
 372 0ce2 CC515BFF 		.ascii	"\314Q[\3777\245\371n\375\227\335\247\224\355\327J7\366"
 372      37A5F96E 
 372      FD97DDA7 
 372      94EDD74A 
 372      37F6
 373 0cf4 DE257DB2 		.ascii	"\336%}\262&\234$\020\346\242\312m\360\336S\327\233\344"
 373      269C2410 
 373      E6A2CA6D 
 373      F0DE53D7 
 373      9BE4
 374 0d06 6FC7704D 		.ascii	"o\307pM\366x\325u\275\211I\355\353Uf\314\347Xz\035\250"
 374      F678D575 
 374      BD8949ED 
 374      EB5566CC 
 374      E7587A1D 
 375 0d1b D24E7256 		.ascii	"\322NrV\013\302`\036z1\327\"\276\256`1\360\310z\311"
 375      0BC2601E 
 375      7A31D722 
 375      BEAE6031 
 375      F0C87AC9 
 376 0d2f 0D6FF11D 		.ascii	"\015o\361\035\303\025\022p\177#\3416\330\201\263\232"
 376      C3151270 
 376      7F23E136 
 376      D881B39A 
 377 0d3f 6C11DC75 		.ascii	"l\021\334u\022n\253c8\222\273\233$\\\203\0358\253\225"
 377      126EAB63 
 377      3892BB9B 
 377      245C831D 
 377      38AB95
 378 0d52 2E82BB45 		.ascii	".\202\273E\302\355u\014Grw\233\204k\266\003g\365e\314"
 378      C2ED750C 
 378      4772779B 
 378      846BB603 
 378      67F565CC 
 379 0d66 A24AE98E 		.ascii	"\242J\351\216\014\247\371\233tO\374\355\250c\256H!\253"
 379      0CA7F99B 
 379      744FFCED 
 379      A863AE48 
 379      21AB
 380 0d78 6F10429E 		.ascii	"o\020B\236\260\003Whm\202\032\022\356\224c8\222\273"
 380      B0035768 
 380      6D821A12 
 380      EE946338 
 380      92BB
 381 0d8a 4524DCE7 		.ascii	"E$\334\347v\3402\354\241\276&\303)A\037O\217\362\022"
 381      76E032EC 
 381      A1BE26C3 
 381      29411F4F 
 381      8FF212
 382 0d9d CC2A80AF 		.ascii	"\314*\200\257r;\015\371\253\335\346!_=\030\352\013\307"
 382      723B0DF9 
ARM GAS  /tmp/ccHSAuwK.s 			page 30


 382      ABDDE621 
 382      5F3D18EA 
 382      0BC7
 383 0daf 32902A79 		.ascii	"2\220*y\235T\311\015;pVi\007\202[J\302}\345\030\216"
 383      9D54C90D 
 383      3B705669 
 383      07825B4A 
 383      C27DE518 
 384 0dc4 E46E1909 		.ascii	"\344n\031\011W\331\327\006\234\345>\260(\255P\341\260"
 384      57D9D706 
 384      9CE53EB0 
 384      28AD50E1 
 384      B0
 385 0dd5 25507AEB 		.ascii	"%Pz\353\030\216\344n3\311\335\022;p\243\255u\267\205"
 385      188EE46E 
 385      33C9DD12 
 385      3B70A3AD 
 385      75B785
 386 0de8 845BEE18 		.ascii	"\204[\356\030\216\344n\033\011\267\306\016\334S\326"
 386      8EE46E1B 
 386      09B7C60E 
 386      DC53D6
 387 0df7 BAAB2775 		.ascii	"\272\253'u\267\3211\034\311\335v\222\273w\355\300M\264"
 387      B7D1311C 
 387      C9DD7692 
 387      BB77EDC0 
 387      4DB4
 388 0e09 D65D0309 		.ascii	"\326]\003\011\267\3131\034\311\335N\022n\257\035\270"
 388      B7CB311C 
 388      C9DD4E12 
 388      6EAF1DB8 
 389 0e19 A926DC99 		.ascii	"\251&\334\231\035\372d\203\245g\273qh\236\343\306\331"
 389      1DFA6483 
 389      A567BB71 
 389      689EE3C6 
 389      D9
 390 0e2a D3CB40E7 		.ascii	"\323\313@\347\003]\000\364U\240\013\201.\006\272\004"
 390      035D00F4 
 390      55A00B81 
 390      2E06BA04 
 391 0e3a E852A0CB 		.ascii	"\350R\240\313\200\256\000Z\013\364M\240k\201\256\003"
 391      80AE005A 
 391      0BF44DA0 
 391      6B81AE03 
 392 0e4a BA1EE806 		.ascii	"\272\036\350\006\240\233\200n\006\272\005\3506\240\365"
 392      A09B806E 
 392      06BA05E8 
 392      36A0F5
 393 0e59 40B7BB6D 		.ascii	"@\267\273ml\004T\270\265EV!\265\022'\277g\033\347\321"
 393      6C0454B8 
 393      B5455621 
 393      B51227BF 
 393      671BE7D1 
 394 0e6d E20BB9DA 		.ascii	"\342\013\271\332?1\255\322\377\023\223a\373\005\377"
 394      3F31ADD2 
 394      FF139361 
 394      FB05FF
ARM GAS  /tmp/ccHSAuwK.s 			page 31


 395 0e7c EFBC15F2 		.ascii	"\357\274\025\362{)dC\253n\213\304\034\267\332i\331j"
 395      7B296443 
 395      AB6E8BC4 
 395      1CB7DA69 
 395      D96A
 396 0e8e 7386BE76 		.ascii	"s\206\276vY\266j\317\320\2521\325\212\372\361\220!\376"
 396      59B66ACF 
 396      D0AA31D5 
 396      8AFAF190 
 396      21FE
 397 0ea0 A2D2D0B4 		.ascii	"\242\322\320\264\320\204\311\376X\302\317\013\376x\214"
 397      D084C9FE 
 397      58C2CF0B 
 397      FE788C
 398 0eaf 1712FE27 		.ascii	"\027\022\376'&\215+\0327\323\037,\015\306x.0\343\221"
 398      268D2B1A 
 398      37D31F2C 
 398      0DC6782E 
 398      30E391
 399 0ec2 C89052EA 		.ascii	"\310\220R\352\341,\317\306\"\361P\230\343\023\376_\026"
 399      E12CCFC6 
 399      22F15098 
 399      E313FE5F 
 399      16
 400 0ed3 15A196C2 		.ascii	"\025\241\226\302\363q.\201\232yy!\030\025\002\202\347"
 400      F3712E81 
 400      9A797921 
 400      18150282 
 400      E7
 401 0ee4 97E39F29 		.ascii	"\227\343\237),\242\022\376\350t(?\361\227\306\"\234"
 401      2CA212FE 
 401      E874283F 
 401      F197C622 
 401      9C
 402 0ef5 9FE7121C 		.ascii	"\237\347\022\034\313\007K\375\245,_\\\316\362\234\237"
 402      CB074BFD 
 402      A52C5F5C 
 402      CEF29C9F 
 403 0f05 E523C3FD 		.ascii	"\345#\303\375%\301\340`t2\230\213L\343\212\213\271b"
 403      25C1E060 
 403      7432988B 
 403      4CE38A8B 
 403      B962
 404 0f17 ED463416 		.ascii	"\355F4\026\345\006s\354\264\320\340\221\201Q\203\207"
 404      E50673EC 
 404      B4D0E091 
 404      81518387 
 405 0f27 0F1D36F2 		.ascii	"\017\0356\362w\303\375D\205?\024\015\206\313\2129\177"
 405      77C3FD44 
 405      853F140D 
 405      86CB8A39 
 405      7F
 406 0f38 42280E45 		.ascii	"B(\016E\005\304Bn\031\372\0351< T\322\377\274\336#l"
 406      05C4426E 
 406      19FA1D31 
 406      3C2054D2 
 406      FFBCDE23 
ARM GAS  /tmp/ccHSAuwK.s 			page 32


 407 0f4d B03414E5 		.ascii	"\2604\024\345\374\201bn:[\026F\032P\024\222\027\010"
 407      FC81626E 
 407      3A5B1646 
 407      1A501492 
 407      1708
 408 0f5f A8FC3C80 		.ascii	"\250\374<\2005\030@\177%\234\020\010\306\312\242\002"
 408      3518407F 
 408      259C1008 
 408      C6CAA202 
 409 0f6f C70766B0 		.ascii	"\307\007f\260\3412nP\232\262\023|\020k52$H\025\246U"
 409      E1326E50 
 409      9AB2137C 
 409      106B3532 
 409      244815A6 
 410 0f84 AA9DC203 		.ascii	"\252\235\302\003\245T\177!\024\341\002\021\216M\224"
 410      A5547F21 
 410      14E10211 
 410      8E4D94
 411 0f93 F15C84C3 		.ascii	"\361\\\204\303\352wO\343\022BNy\214"
 411      EA774FE3 
 411      12424E79 
 411      8C
 412 0fa0 4F08EE30 		.ascii	"O\010\3560\233\020<e`\025:\232\313\013\360\264\000Z"
 412      9B103C65 
 412      60153A9A 
 412      CB0BF0B4 
 412      005A
 413 0fb2 7A786440 		.ascii	"zxd@P\030\204\323`Y\244,\314\012\241\031\234W\210\004"
 413      501884D3 
 413      6059A42C 
 413      CC0AA119 
 413      9C578804 
 414 0fc6 12422CEE 		.ascii	"\022B,\356\022\"qW4V\356\211M\237\236\340\204>\301\322"
 414      12227157 
 414      3456EE89 
 414      4D9F9EE0 
 414      843EC1D2 
 415 0fda 29E3264C 		.ascii	")\343&L{\226\013\012c\243!a\000\276\234,\260\2740.\325"
 415      7B960B0A 
 415      63A32161 
 415      00BE9C2C 
 415      B0BC302E 
 416 0fef FBD4DC68 		.ascii	"\373\324\334h,\024\015#m|C\256\216\305\211\332\000"
 416      2C140D23 
 416      6D7C43AE 
 416      8EC589DA 
 416      00
 417 1000 820EA1C6 		.ascii	"\202\016\241\306\377\202k\213J\331PTW=%6\325\215\272"
 417      FF826B8B 
 417      4AD95054 
 417      573D2536 
 417      D58DBA
 418 1013 1C86C9F0 		.ascii	"\034\206\311\360\357d\220<\021,-F\262\177?\323#\317"
 418      EF64903C 
 418      112C2D46 
 418      B27F3FD3 
 418      23CF
ARM GAS  /tmp/ccHSAuwK.s 			page 33


 419 1025 27542BE4 		.ascii	"'T+\344\007K\003\370\222\213\004\004\237v^\300sl\361"
 419      074B03F8 
 419      928B0404 
 419      9F765EC0 
 419      736CF1
 420 1038 F3817028 		.ascii	"\363\201p(\201ts\037\272\235\272\356+\224\342\213D\340"
 420      8174731F 
 420      BA9DBAEE 
 420      2B94E28B 
 420      44E0
 421 104a 77655C19 		.ascii	"we\\\031RW?TK\334\312\225\257d8\371\334\023\017D\271"
 421      52573F54 
 421      4BDCCA95 
 421      AF6438F9 
 421      DC130F44 
 422 105f 9902FA89 		.ascii	"\231\002\372\211\363\334\014\257\020\347C\261\200|\031"
 422      F3DC0CAF 
 422      10E743B1 
 422      807C19
 423 106e 8A798331 		.ascii	"\212y\2031d\357\231\302\017\354\214A\31418\0132LP\230"
 423      64EF99C2 
 423      0FEC8C41 
 423      CC31380B 
 423      324C5098 
 424 1082 99CB7325 		.ascii	"\231\313s%\310\355\002\002\303\217d\370\2370\374\303"
 424      C8ED0202 
 424      C38F64F8 
 424      9F30FCC3 
 425 1092 0CFF08C3 		.ascii	"\014\377\010\303\217b\370G]\374\260\241\250\014c\302"
 425      8F62F847 
 425      5DFCB0A1 
 425      A80C63C2 
 426 10a2 3CFA1991 		.ascii	"<\372\031\221\023\017\240\347\275\230\221r\216G\277"
 426      130FA0E7 
 426      BD989172 
 426      8E47BF
 427 10b1 B17031C7 		.ascii	"\261p1\307\273\203\310\3411wl\204\313K\010\317\261\341"
 427      BB83C8E1 
 427      31776C84 
 427      CB4B08CF 
 427      B1E1
 428 10c3 50491499 		.ascii	"PI\024\231;\216L\374\\8\024\011\011\271BB`\005$\247"
 428      3B8E4CFC 
 428      5C381409 
 428      09B94242 
 428      600524A7 
 429 10d7 17FBC228 		.ascii	"\027\373\302($\225\354\025\350\314\213\237Bu\310#b\305"
 429      2495EC15 
 429      E8CC8B9F 
 429      4275C823 
 429      62C5
 430 10e9 1C5C4F0F 		.ascii	"\034\\O\017\263%\011\257\300s\323\023 \037>\311\211"
 430      B32509AF 
 430      C073D313 
 430      201F3EC9 
 430      89
 431 10fa 244A50A5 		.ascii	"$JP\245\342\352\250\271r\346\341\213\237GU\271\334\314"
ARM GAS  /tmp/ccHSAuwK.s 			page 34


 431      E2EAA8B9 
 431      72E6E18B 
 431      9F4755B9 
 431      DCCC
 432 110c 90104400 		.ascii	"\220\020D\000\236r!6\355\331x\177E}\250)\307s\321 \002"
 432      9E722136 
 432      EDD9787F 
 432      457DA829 
 432      C773D120 
 433 1121 CE291704 		.ascii	"\316)\027\004>\356M /@\015\012\260\225\270\010\033/"
 433      3EEE4D20 
 433      2F400D0A 
 433      B095B808 
 433      1B2F
 434 1133 45FA7828 		.ascii	"E\372x(\223\2259<\006\274\212Yr\300\317s\022\001\364"
 434      9395393C 
 434      06BC8A59 
 434      72C0CF73 
 434      1201F4
 435 1146 8BBA4295 		.ascii	"\213\272B\225\361\\\204\024)C\272\317\204\022\021fb"
 435      F15C8414 
 435      2943BACF 
 435      84121166 
 435      62
 436 1157 94888C82 		.ascii	"\224\210\214\202~c\345Q\244@h\207\204\210\310\226-\027"
 436      7E63E551 
 436      A4406887 
 436      8488C896 
 436      2D17
 437 1169 D073F17C 		.ascii	"\320s\361|n\006\346\221M<\207j\270r|\342\212\007\312"
 437      6E06E691 
 437      4D3C876A 
 437      B8727CE2 
 437      8A07CA
 438 117c FAA8FE21 		.ascii	"\372\250\376!\373S_\235\307\340;\276x\240\234\015\011"
 438      FB535F9D 
 438      C7E03BBE 
 438      78A09C0D 
 438      09
 439 118d A16809D2 		.ascii	"\241h\011\322;\022\020:B\247\\\234\213\242\310U\202"
 439      3B12103A 
 439      42A75C9C 
 439      8BA2C855 
 439      82
 440 119e EA11387E 		.ascii	"\352\0218~2\017k\224\015\203\327\240\233\361X,\354\345"
 440      320F6B94 
 440      0D83D7A0 
 440      9BF1582C 
 440      ECE5
 441 11b0 65C63C3C 		.ascii	"e\306<<8S\016\017f\346\0253\363\262\231}\350n\031\217"
 441      38530E0F 
 441      66E61533 
 441      F3B2997D 
 441      E86E198F 
 442 11c4 B429E4F0 		.ascii	"\264)\344\360\030g\300\214\020/\224\261\341\000\036"
 442      1867C08C 
 442      102F94B1 
ARM GAS  /tmp/ccHSAuwK.s 			page 35


 442      E1001E
 443 11d3 F1BCCAD7 		.ascii	"\361\274\312\327\375\210/\223\212\276\304=\331\341\211"
 443      FD882F93 
 443      8ABEC43D 
 443      D9E189
 444 11e2 5BDE1902 		.ascii	"[\336\031\002(\001\377b\377\366\3411$\207\022t\247\230"
 444      2801FF62 
 444      FFF6E131 
 444      24871274 
 444      A798
 445 11f4 0B0B2C3A 		.ascii	"\013\013,:\231^\026\015\006\340\031|\346\301\317\262"
 445      995E160D 
 445      06E0197C 
 445      E6C1CFB2 
 446 1204 7C3EFAC1 		.ascii	"|>\372\301Q\010?\216n\341\356\372(\243\261\230\233V"
 446      51083F8E 
 446      6EE1EEFA 
 446      28A3B198 
 446      9B56
 447 1216 56222B4B 		.ascii	"V\"+K\177\307\027g\243\241 V\223\253xZI^\004\005\011"
 447      7FC71767 
 447      A3A12056 
 447      93AB785A 
 447      495E0405 
 448 122b 5997FD50 		.ascii	"Y\227\375P\360\010\"\377\235\306\2430\025CN\314\010"
 448      F00822FF 
 448      9DC6A330 
 448      15434ECC 
 448      08
 449 123c 913EA1E2 		.ascii	"\221>\241\3420\247\350\032\351\230\011\226\032&:\304"
 449      30A7E81A 
 449      E9980996 
 449      1A263AC4 
 450 124c B5BF68DC 		.ascii	"\265\277h\334\344\261\223S\006\307\023]02\022O\027O"
 450      E4B19353 
 450      06C7135D 
 450      3032124F 
 450      174F
 451 125e FEE794C0 		.ascii	"\376\347\224\300\024\024'\334ES&=\355)\372\257\242\242"
 451      141427DC 
 451      4553263D 
 451      ED29FAAF 
 451      A2A2
 452 1270 F1533C45 		.ascii	"\361S<E\023\307\342\2371S\361U\356\344\247\307\214\231"
 452      13C7E29F 
 452      3153F155 
 452      EEE4A7C7 
 452      8C99
 453 1282 88AF9F9E 		.ascii	"\210\257\237\236\374\014\372\361\376b\302\323O\242_"
 453      FC0CFAF1 
 453      FE62C2D3 
 453      4FA25F
 454 1291 F7C4A2C9 		.ascii	"\367\304\242\311\223r\212&\214\23384g\334\023\223\177"
 454      93728A26 
 454      8C9B3834 
 454      67DC1393 
 454      7F
ARM GAS  /tmp/ccHSAuwK.s 			page 36


 455 12a2 35D4F78B 		.ascii	"5\324\367\213g\306\027M\031;a\374P\337\2441\223\307"
 455      67C6174D 
 455      193B61FC 
 455      50DFA431 
 455      93C7
 456 12b4 4CFAF598 		.ascii	"L\372\365\230'\207B\3750\250\037\246\325\017\323\352"
 456      278742FD 
 456      30A81FA6 
 456      D50FD3EA 
 457 12c4 8741FD70 		.ascii	"\207A\375p\250\037\256\325\017\327\352\207C\375\010"
 457      A81FAED5 
 457      0FD7EA87 
 457      43FD08
 458 12d3 A81FA1D5 		.ascii	"\250\037\241\325\217\370\177\343\234\010\201"
 458      8FF87FE3 
 458      9C0881
 459              		.text
 460              		.section	.gnu.lto_.symtab.31eb28ea4b038451,"",%progbits
 461 0000 6368544D 		.ascii	"chTMObjectInit\000\000\000\000\000\000\000\000\000\000"
 461      4F626A65 
 461      6374496E 
 461      69740000 
 461      00000000 
 462 0018 0000D800 		.ascii	"\000\000\330\000\000\000chTMStartMeasurementX\000\000"
 462      00006368 
 462      544D5374 
 462      6172744D 
 462      65617375 
 463 0035 00000000 		.ascii	"\000\000\000\000\000\000\000\000\000\000\336\000\000"
 463      00000000 
 463      0000DE00 
 463      00
 464 0042 00636854 		.ascii	"\000chTMStopMeasurementX\000\000\000\000\000\000\000"
 464      4D53746F 
 464      704D6561 
 464      73757265 
 464      6D656E74 
 465 005e 00000000 		.ascii	"\000\000\000\000\000\344\000\000\000_tm_init\000\000"
 465      00E40000 
 465      005F746D 
 465      5F696E69 
 465      740000
 466 0071 00000000 		.ascii	"\000\000\000\000\000\000\000\000\000\000\351\000\000"
 466      00000000 
 466      0000E900 
 466      00
 467 007e 00636854 		.ascii	"\000chTMChainMeasurementToX\000\000\000\000\000\000"
 467      4D436861 
 467      696E4D65 
 467      61737572 
 467      656D656E 
 468 009c 00000000 		.ascii	"\000\000\000\000\000\000\355\000\000\000ch\000\000\002"
 468      0000ED00 
 468      00006368 
 468      000002
 469 00ab 00000000 		.ascii	"\000\000\000\000\000\000\000\000\000\370\000\000\000"
 469      00000000 
ARM GAS  /tmp/ccHSAuwK.s 			page 37


 469      00F80000 
 469      00
 470              		.text
 471              		.section	.gnu.lto_.opts,"",%progbits
 472 0000 272D6D63 		.ascii	"'-mcpu=cortex-m4' '-mno-thumb-interwork' '-mthumb' "
 472      70753D63 
 472      6F727465 
 472      782D6D34 
 472      2720272D 
 473 0033 272D6767 		.ascii	"'-ggdb' '-O0' '-fomit-frame-pointer' '-falign-funct"
 473      64622720 
 473      272D4F30 
 473      2720272D 
 473      666F6D69 
 474 0066 696F6E73 		.ascii	"ions=16' '-ffunction-sections' '-fdata-sections' '-"
 474      3D313627 
 474      20272D66 
 474      66756E63 
 474      74696F6E 
 475 0099 666E6F2D 		.ascii	"fno-common' '-flto'\000"
 475      636F6D6D 
 475      6F6E2720 
 475      272D666C 
 475      746F2700 
 476              		.text
 477              		.cfi_sections	.debug_frame
 478              		.section	.text.port_rt_get_counter_value,"ax",%progbits
 479              		.align	2
 480              		.p2align 4,,15
 481              		.thumb
 482              		.thumb_func
 483              		.type	port_rt_get_counter_value, %function
 484              	port_rt_get_counter_value:
 485              	.LFB135:
 486              		.file 1 "../ChibiOS/os/rt/ports/ARMCMx/chcore_v7m.h"
 487              		.loc 1 568 0
 488              		.cfi_startproc
 489              		@ args = 0, pretend = 0, frame = 0
 490              		@ frame_needed = 0, uses_anonymous_args = 0
 491              		@ link register save eliminated.
 492              		.loc 1 570 0
 493 0000 014B     		ldr	r3, .L3
 494 0002 5B68     		ldr	r3, [r3, #4]
 495              		.loc 1 571 0
 496 0004 1846     		mov	r0, r3
 497 0006 7047     		bx	lr
 498              	.L4:
 499              		.align	2
 500              	.L3:
 501 0008 001000E0 		.word	-536866816
 502              		.cfi_endproc
 503              	.LFE135:
 504              		.size	port_rt_get_counter_value, .-port_rt_get_counter_value
 505 000c AFF30080 		.section	.text.tm_stop,"ax",%progbits
 506              		.align	2
 507              		.p2align 4,,15
 508              		.thumb
ARM GAS  /tmp/ccHSAuwK.s 			page 38


 509              		.thumb_func
 510              		.type	tm_stop, %function
 511              	tm_stop:
 512              	.LFB241:
 513              		.file 2 "../ChibiOS/os/rt/src/chtm.c"
 514              		.loc 2 55 0
 515              		.cfi_startproc
 516              		@ args = 0, pretend = 0, frame = 16
 517              		@ frame_needed = 0, uses_anonymous_args = 0
 518              		@ link register save eliminated.
 519 0000 84B0     		sub	sp, sp, #16
 520              		.cfi_def_cfa_offset 16
 521 0002 0390     		str	r0, [sp, #12]
 522 0004 0291     		str	r1, [sp, #8]
 523 0006 0192     		str	r2, [sp, #4]
 524              		.loc 2 57 0
 525 0008 039B     		ldr	r3, [sp, #12]
 526 000a DB68     		ldr	r3, [r3, #12]
 527 000c 5A1C     		adds	r2, r3, #1
 528 000e 039B     		ldr	r3, [sp, #12]
 529 0010 DA60     		str	r2, [r3, #12]
 530              		.loc 2 58 0
 531 0012 039B     		ldr	r3, [sp, #12]
 532 0014 9B68     		ldr	r3, [r3, #8]
 533 0016 029A     		ldr	r2, [sp, #8]
 534 0018 D21A     		subs	r2, r2, r3
 535 001a 019B     		ldr	r3, [sp, #4]
 536 001c D21A     		subs	r2, r2, r3
 537 001e 039B     		ldr	r3, [sp, #12]
 538 0020 9A60     		str	r2, [r3, #8]
 539              		.loc 2 59 0
 540 0022 039B     		ldr	r3, [sp, #12]
 541 0024 D3E90401 		ldrd	r0, [r3, #16]
 542 0028 039B     		ldr	r3, [sp, #12]
 543 002a 9B68     		ldr	r3, [r3, #8]
 544 002c 1A46     		mov	r2, r3
 545 002e 4FF00003 		mov	r3, #0
 546 0032 1218     		adds	r2, r2, r0
 547 0034 43EB0103 		adc	r3, r3, r1
 548 0038 0399     		ldr	r1, [sp, #12]
 549 003a C1E90423 		strd	r2, [r1, #16]
 550              		.loc 2 60 0
 551 003e 039B     		ldr	r3, [sp, #12]
 552 0040 9A68     		ldr	r2, [r3, #8]
 553 0042 039B     		ldr	r3, [sp, #12]
 554 0044 5B68     		ldr	r3, [r3, #4]
 555 0046 9A42     		cmp	r2, r3
 556 0048 03D9     		bls	.L6
 557              		.loc 2 61 0
 558 004a 039B     		ldr	r3, [sp, #12]
 559 004c 9A68     		ldr	r2, [r3, #8]
 560 004e 039B     		ldr	r3, [sp, #12]
 561 0050 5A60     		str	r2, [r3, #4]
 562              	.L6:
 563              		.loc 2 63 0
 564 0052 039B     		ldr	r3, [sp, #12]
 565 0054 9A68     		ldr	r2, [r3, #8]
ARM GAS  /tmp/ccHSAuwK.s 			page 39


 566 0056 039B     		ldr	r3, [sp, #12]
 567 0058 1B68     		ldr	r3, [r3]
 568 005a 9A42     		cmp	r2, r3
 569 005c 03D2     		bcs	.L5
 570              		.loc 2 64 0
 571 005e 039B     		ldr	r3, [sp, #12]
 572 0060 9A68     		ldr	r2, [r3, #8]
 573 0062 039B     		ldr	r3, [sp, #12]
 574 0064 1A60     		str	r2, [r3]
 575              	.L5:
 576              		.loc 2 66 0
 577 0066 04B0     		add	sp, sp, #16
 578              		@ sp needed
 579 0068 7047     		bx	lr
 580              		.cfi_endproc
 581              	.LFE241:
 582              		.size	tm_stop, .-tm_stop
 583 006a 00BFAFF3 		.section	.text._tm_init,"ax",%progbits
 583      0080
 584              		.align	2
 585              		.p2align 4,,15
 586              		.global	_tm_init
 587              		.thumb
 588              		.thumb_func
 589              		.type	_tm_init, %function
 590              	_tm_init:
 591              	.LFB242:
 592              		.loc 2 77 0
 593              		.cfi_startproc
 594              		@ args = 0, pretend = 0, frame = 24
 595              		@ frame_needed = 0, uses_anonymous_args = 0
 596 0000 00B5     		push	{lr}
 597              		.cfi_def_cfa_offset 4
 598              		.cfi_offset 14, -4
 599 0002 87B0     		sub	sp, sp, #28
 600              		.cfi_def_cfa_offset 32
 601              		.loc 2 83 0
 602 0004 0A4B     		ldr	r3, .L9
 603 0006 0022     		movs	r2, #0
 604 0008 5A67     		str	r2, [r3, #116]
 605              		.loc 2 84 0
 606 000a 6B46     		mov	r3, sp
 607 000c 1846     		mov	r0, r3
 608 000e FFF7FEFF 		bl	chTMObjectInit
 609              		.loc 2 85 0
 610 0012 6B46     		mov	r3, sp
 611 0014 1846     		mov	r0, r3
 612 0016 FFF7FEFF 		bl	chTMStartMeasurementX
 613              		.loc 2 86 0
 614 001a 6B46     		mov	r3, sp
 615 001c 1846     		mov	r0, r3
 616 001e FFF7FEFF 		bl	chTMStopMeasurementX
 617              		.loc 2 87 0
 618 0022 029A     		ldr	r2, [sp, #8]
 619 0024 024B     		ldr	r3, .L9
 620 0026 5A67     		str	r2, [r3, #116]
 621              		.loc 2 88 0
ARM GAS  /tmp/ccHSAuwK.s 			page 40


 622 0028 07B0     		add	sp, sp, #28
 623              		@ sp needed
 624 002a 5DF804FB 		ldr	pc, [sp], #4
 625              	.L10:
 626 002e 00BF     		.align	2
 627              	.L9:
 628 0030 00000000 		.word	ch
 629              		.cfi_endproc
 630              	.LFE242:
 631              		.size	_tm_init, .-_tm_init
 632 0034 AFF30080 		.section	.text.chTMObjectInit,"ax",%progbits
 632      AFF30080 
 632      AFF30080 
 633              		.align	2
 634              		.p2align 4,,15
 635              		.global	chTMObjectInit
 636              		.thumb
 637              		.thumb_func
 638              		.type	chTMObjectInit, %function
 639              	chTMObjectInit:
 640              	.LFB243:
 641              		.loc 2 97 0
 642              		.cfi_startproc
 643              		@ args = 0, pretend = 0, frame = 8
 644              		@ frame_needed = 0, uses_anonymous_args = 0
 645              		@ link register save eliminated.
 646 0000 82B0     		sub	sp, sp, #8
 647              		.cfi_def_cfa_offset 8
 648 0002 0190     		str	r0, [sp, #4]
 649              		.loc 2 99 0
 650 0004 019B     		ldr	r3, [sp, #4]
 651 0006 4FF0FF32 		mov	r2, #-1
 652 000a 1A60     		str	r2, [r3]
 653              		.loc 2 100 0
 654 000c 019B     		ldr	r3, [sp, #4]
 655 000e 0022     		movs	r2, #0
 656 0010 5A60     		str	r2, [r3, #4]
 657              		.loc 2 101 0
 658 0012 019B     		ldr	r3, [sp, #4]
 659 0014 0022     		movs	r2, #0
 660 0016 9A60     		str	r2, [r3, #8]
 661              		.loc 2 102 0
 662 0018 019B     		ldr	r3, [sp, #4]
 663 001a 0022     		movs	r2, #0
 664 001c DA60     		str	r2, [r3, #12]
 665              		.loc 2 103 0
 666 001e 0199     		ldr	r1, [sp, #4]
 667 0020 4FF00002 		mov	r2, #0
 668 0024 4FF00003 		mov	r3, #0
 669 0028 C1E90423 		strd	r2, [r1, #16]
 670              		.loc 2 104 0
 671 002c 02B0     		add	sp, sp, #8
 672              		@ sp needed
 673 002e 7047     		bx	lr
 674              		.cfi_endproc
 675              	.LFE243:
 676              		.size	chTMObjectInit, .-chTMObjectInit
ARM GAS  /tmp/ccHSAuwK.s 			page 41


 677              		.section	.text.chTMStartMeasurementX,"ax",%progbits
 678              		.align	2
 679              		.p2align 4,,15
 680              		.global	chTMStartMeasurementX
 681              		.thumb
 682              		.thumb_func
 683              		.type	chTMStartMeasurementX, %function
 684              	chTMStartMeasurementX:
 685              	.LFB244:
 686              		.loc 2 114 0
 687              		.cfi_startproc
 688              		@ args = 0, pretend = 0, frame = 8
 689              		@ frame_needed = 0, uses_anonymous_args = 0
 690 0000 00B5     		push	{lr}
 691              		.cfi_def_cfa_offset 4
 692              		.cfi_offset 14, -4
 693 0002 83B0     		sub	sp, sp, #12
 694              		.cfi_def_cfa_offset 16
 695 0004 0190     		str	r0, [sp, #4]
 696              		.loc 2 116 0
 697 0006 FFF7FEFF 		bl	port_rt_get_counter_value
 698 000a 0246     		mov	r2, r0
 699 000c 019B     		ldr	r3, [sp, #4]
 700 000e 9A60     		str	r2, [r3, #8]
 701              		.loc 2 117 0
 702 0010 03B0     		add	sp, sp, #12
 703              		@ sp needed
 704 0012 5DF804FB 		ldr	pc, [sp], #4
 705              		.cfi_endproc
 706              	.LFE244:
 707              		.size	chTMStartMeasurementX, .-chTMStartMeasurementX
 708 0016 00BFAFF3 		.section	.text.chTMStopMeasurementX,"ax",%progbits
 708      0080AFF3 
 708      0080
 709              		.align	2
 710              		.p2align 4,,15
 711              		.global	chTMStopMeasurementX
 712              		.thumb
 713              		.thumb_func
 714              		.type	chTMStopMeasurementX, %function
 715              	chTMStopMeasurementX:
 716              	.LFB245:
 717              		.loc 2 127 0
 718              		.cfi_startproc
 719              		@ args = 0, pretend = 0, frame = 8
 720              		@ frame_needed = 0, uses_anonymous_args = 0
 721 0000 00B5     		push	{lr}
 722              		.cfi_def_cfa_offset 4
 723              		.cfi_offset 14, -4
 724 0002 83B0     		sub	sp, sp, #12
 725              		.cfi_def_cfa_offset 16
 726 0004 0190     		str	r0, [sp, #4]
 727              		.loc 2 129 0
 728 0006 FFF7FEFF 		bl	port_rt_get_counter_value
 729 000a 0246     		mov	r2, r0
 730 000c 044B     		ldr	r3, .L14
 731 000e 5B6F     		ldr	r3, [r3, #116]
ARM GAS  /tmp/ccHSAuwK.s 			page 42


 732 0010 0198     		ldr	r0, [sp, #4]
 733 0012 1146     		mov	r1, r2
 734 0014 1A46     		mov	r2, r3
 735 0016 FFF7FEFF 		bl	tm_stop
 736              		.loc 2 130 0
 737 001a 03B0     		add	sp, sp, #12
 738              		@ sp needed
 739 001c 5DF804FB 		ldr	pc, [sp], #4
 740              	.L15:
 741              		.align	2
 742              	.L14:
 743 0020 00000000 		.word	ch
 744              		.cfi_endproc
 745              	.LFE245:
 746              		.size	chTMStopMeasurementX, .-chTMStopMeasurementX
 747 0024 AFF30080 		.section	.text.chTMChainMeasurementToX,"ax",%progbits
 747      AFF30080 
 747      AFF30080 
 748              		.align	2
 749              		.p2align 4,,15
 750              		.global	chTMChainMeasurementToX
 751              		.thumb
 752              		.thumb_func
 753              		.type	chTMChainMeasurementToX, %function
 754              	chTMChainMeasurementToX:
 755              	.LFB246:
 756              		.loc 2 145 0
 757              		.cfi_startproc
 758              		@ args = 0, pretend = 0, frame = 8
 759              		@ frame_needed = 0, uses_anonymous_args = 0
 760 0000 00B5     		push	{lr}
 761              		.cfi_def_cfa_offset 4
 762              		.cfi_offset 14, -4
 763 0002 83B0     		sub	sp, sp, #12
 764              		.cfi_def_cfa_offset 16
 765 0004 0190     		str	r0, [sp, #4]
 766 0006 0091     		str	r1, [sp]
 767              		.loc 2 148 0
 768 0008 FFF7FEFF 		bl	port_rt_get_counter_value
 769 000c 0246     		mov	r2, r0
 770 000e 009B     		ldr	r3, [sp]
 771 0010 9A60     		str	r2, [r3, #8]
 772              		.loc 2 151 0
 773 0012 009B     		ldr	r3, [sp]
 774 0014 9B68     		ldr	r3, [r3, #8]
 775 0016 0198     		ldr	r0, [sp, #4]
 776 0018 1946     		mov	r1, r3
 777 001a 0022     		movs	r2, #0
 778 001c FFF7FEFF 		bl	tm_stop
 779              		.loc 2 152 0
 780 0020 03B0     		add	sp, sp, #12
 781              		@ sp needed
 782 0022 5DF804FB 		ldr	pc, [sp], #4
 783              		.cfi_endproc
 784              	.LFE246:
 785              		.size	chTMChainMeasurementToX, .-chTMChainMeasurementToX
 786 0026 00BFAFF3 		.text
ARM GAS  /tmp/ccHSAuwK.s 			page 43


 786      0080AFF3 
 786      0080
 787              	.Letext0:
 788              		.file 3 "/nfs/nfs5/home/research/hardware/arm2/gcc-arm-embedded/gcc-arm-none-eabi-4_8-2014q2/arm-n
 789              		.file 4 "/nfs/nfs5/home/research/hardware/arm2/gcc-arm-embedded/gcc-arm-none-eabi-4_8-2014q2/arm-n
 790              		.file 5 "../ChibiOS/os/rt/ports/ARMCMx/compilers/GCC/chtypes.h"
 791              		.file 6 "../ChibiOS/os/rt/include/chsystypes.h"
 792              		.file 7 "../ChibiOS/os/rt/include/chschd.h"
 793              		.file 8 "../ChibiOS/os/ext/CMSIS/include/core_cm4.h"
 794              		.file 9 "../ChibiOS/os/rt/ports/ARMCMx/chcore.h"
 795              		.file 10 "../ChibiOS/os/rt/include/chtm.h"
 796              		.file 11 "../ChibiOS/os/rt/include/chsem.h"
 797              		.file 12 "../ChibiOS/os/rt/include/chmtx.h"
 798              		.section	.debug_info,"",%progbits
 799              	.Ldebug_info0:
 800 0000 1C090000 		.4byte	0x91c
 801 0004 0400     		.2byte	0x4
 802 0006 00000000 		.4byte	.Ldebug_abbrev0
 803 000a 04       		.byte	0x4
 804 000b 01       		.uleb128 0x1
 805 000c B8010000 		.4byte	.LASF141
 806 0010 01       		.byte	0x1
 807 0011 B5030000 		.4byte	.LASF142
 808 0015 82050000 		.4byte	.LASF143
 809 0019 00000000 		.4byte	.Ldebug_ranges0+0
 810 001d 00000000 		.4byte	0
 811 0021 00000000 		.4byte	.Ldebug_line0
 812 0025 02       		.uleb128 0x2
 813 0026 04       		.byte	0x4
 814 0027 05       		.byte	0x5
 815 0028 696E7400 		.ascii	"int\000"
 816 002c 03       		.uleb128 0x3
 817 002d 04       		.byte	0x4
 818 002e 07       		.byte	0x7
 819 002f 98020000 		.4byte	.LASF0
 820 0033 03       		.uleb128 0x3
 821 0034 01       		.byte	0x1
 822 0035 06       		.byte	0x6
 823 0036 F2000000 		.4byte	.LASF1
 824 003a 04       		.uleb128 0x4
 825 003b 23000000 		.4byte	.LASF5
 826 003f 03       		.byte	0x3
 827 0040 1C       		.byte	0x1c
 828 0041 45000000 		.4byte	0x45
 829 0045 03       		.uleb128 0x3
 830 0046 01       		.byte	0x1
 831 0047 08       		.byte	0x8
 832 0048 A5040000 		.4byte	.LASF2
 833 004c 03       		.uleb128 0x3
 834 004d 02       		.byte	0x2
 835 004e 05       		.byte	0x5
 836 004f E8040000 		.4byte	.LASF3
 837 0053 03       		.uleb128 0x3
 838 0054 02       		.byte	0x2
 839 0055 07       		.byte	0x7
 840 0056 E4020000 		.4byte	.LASF4
 841 005a 04       		.uleb128 0x4
ARM GAS  /tmp/ccHSAuwK.s 			page 44


 842 005b 44030000 		.4byte	.LASF6
 843 005f 03       		.byte	0x3
 844 0060 37       		.byte	0x37
 845 0061 65000000 		.4byte	0x65
 846 0065 03       		.uleb128 0x3
 847 0066 04       		.byte	0x4
 848 0067 05       		.byte	0x5
 849 0068 47010000 		.4byte	.LASF7
 850 006c 04       		.uleb128 0x4
 851 006d 2C060000 		.4byte	.LASF8
 852 0071 03       		.byte	0x3
 853 0072 38       		.byte	0x38
 854 0073 77000000 		.4byte	0x77
 855 0077 03       		.uleb128 0x3
 856 0078 04       		.byte	0x4
 857 0079 07       		.byte	0x7
 858 007a CD050000 		.4byte	.LASF9
 859 007e 03       		.uleb128 0x3
 860 007f 08       		.byte	0x8
 861 0080 05       		.byte	0x5
 862 0081 E4000000 		.4byte	.LASF10
 863 0085 04       		.uleb128 0x4
 864 0086 31040000 		.4byte	.LASF11
 865 008a 03       		.byte	0x3
 866 008b 4E       		.byte	0x4e
 867 008c 90000000 		.4byte	0x90
 868 0090 03       		.uleb128 0x3
 869 0091 08       		.byte	0x8
 870 0092 07       		.byte	0x7
 871 0093 72000000 		.4byte	.LASF12
 872 0097 04       		.uleb128 0x4
 873 0098 99060000 		.4byte	.LASF13
 874 009c 04       		.byte	0x4
 875 009d 2A       		.byte	0x2a
 876 009e 3A000000 		.4byte	0x3a
 877 00a2 04       		.uleb128 0x4
 878 00a3 9D040000 		.4byte	.LASF14
 879 00a7 04       		.byte	0x4
 880 00a8 41       		.byte	0x41
 881 00a9 5A000000 		.4byte	0x5a
 882 00ad 04       		.uleb128 0x4
 883 00ae 51050000 		.4byte	.LASF15
 884 00b2 04       		.byte	0x4
 885 00b3 42       		.byte	0x42
 886 00b4 6C000000 		.4byte	0x6c
 887 00b8 04       		.uleb128 0x4
 888 00b9 1A000000 		.4byte	.LASF16
 889 00bd 04       		.byte	0x4
 890 00be 4E       		.byte	0x4e
 891 00bf 85000000 		.4byte	0x85
 892 00c3 04       		.uleb128 0x4
 893 00c4 59060000 		.4byte	.LASF17
 894 00c8 05       		.byte	0x5
 895 00c9 39       		.byte	0x39
 896 00ca AD000000 		.4byte	0xad
 897 00ce 04       		.uleb128 0x4
 898 00cf CA000000 		.4byte	.LASF18
ARM GAS  /tmp/ccHSAuwK.s 			page 45


 899 00d3 05       		.byte	0x5
 900 00d4 3A       		.byte	0x3a
 901 00d5 B8000000 		.4byte	0xb8
 902 00d9 04       		.uleb128 0x4
 903 00da 26030000 		.4byte	.LASF19
 904 00de 05       		.byte	0x5
 905 00df 3C       		.byte	0x3c
 906 00e0 97000000 		.4byte	0x97
 907 00e4 04       		.uleb128 0x4
 908 00e5 50010000 		.4byte	.LASF20
 909 00e9 05       		.byte	0x5
 910 00ea 3D       		.byte	0x3d
 911 00eb 97000000 		.4byte	0x97
 912 00ef 04       		.uleb128 0x4
 913 00f0 47040000 		.4byte	.LASF21
 914 00f4 05       		.byte	0x5
 915 00f5 3E       		.byte	0x3e
 916 00f6 97000000 		.4byte	0x97
 917 00fa 04       		.uleb128 0x4
 918 00fb 84040000 		.4byte	.LASF22
 919 00ff 05       		.byte	0x5
 920 0100 40       		.byte	0x40
 921 0101 AD000000 		.4byte	0xad
 922 0105 04       		.uleb128 0x4
 923 0106 08030000 		.4byte	.LASF23
 924 010a 05       		.byte	0x5
 925 010b 41       		.byte	0x41
 926 010c A2000000 		.4byte	0xa2
 927 0110 04       		.uleb128 0x4
 928 0111 38030000 		.4byte	.LASF24
 929 0115 05       		.byte	0x5
 930 0116 43       		.byte	0x43
 931 0117 AD000000 		.4byte	0xad
 932 011b 04       		.uleb128 0x4
 933 011c B2010000 		.4byte	.LASF25
 934 0120 05       		.byte	0x5
 935 0121 45       		.byte	0x45
 936 0122 A2000000 		.4byte	0xa2
 937 0126 04       		.uleb128 0x4
 938 0127 13030000 		.4byte	.LASF26
 939 012b 05       		.byte	0x5
 940 012c 46       		.byte	0x46
 941 012d AD000000 		.4byte	0xad
 942 0131 04       		.uleb128 0x4
 943 0132 0E060000 		.4byte	.LASF27
 944 0136 06       		.byte	0x6
 945 0137 33       		.byte	0x33
 946 0138 AD000000 		.4byte	0xad
 947 013c 04       		.uleb128 0x4
 948 013d E4050000 		.4byte	.LASF28
 949 0141 06       		.byte	0x6
 950 0142 3F       		.byte	0x3f
 951 0143 47010000 		.4byte	0x147
 952 0147 05       		.uleb128 0x5
 953 0148 F7020000 		.4byte	.LASF48
 954 014c 44       		.byte	0x44
 955 014d 07       		.byte	0x7
ARM GAS  /tmp/ccHSAuwK.s 			page 46


 956 014e C2       		.byte	0xc2
 957 014f 33020000 		.4byte	0x233
 958 0153 06       		.uleb128 0x6
 959 0154 08050000 		.4byte	.LASF29
 960 0158 07       		.byte	0x7
 961 0159 C3       		.byte	0xc3
 962 015a 3E020000 		.4byte	0x23e
 963 015e 00       		.byte	0
 964 015f 06       		.uleb128 0x6
 965 0160 7D040000 		.4byte	.LASF30
 966 0164 07       		.byte	0x7
 967 0165 C5       		.byte	0xc5
 968 0166 3E020000 		.4byte	0x23e
 969 016a 04       		.byte	0x4
 970 016b 06       		.uleb128 0x6
 971 016c D3000000 		.4byte	.LASF31
 972 0170 07       		.byte	0x7
 973 0171 C7       		.byte	0xc7
 974 0172 FA000000 		.4byte	0xfa
 975 0176 08       		.byte	0x8
 976 0177 06       		.uleb128 0x6
 977 0178 FC030000 		.4byte	.LASF32
 978 017c 07       		.byte	0x7
 979 017d C8       		.byte	0xc8
 980 017e C9050000 		.4byte	0x5c9
 981 0182 0C       		.byte	0xc
 982 0183 06       		.uleb128 0x6
 983 0184 62010000 		.4byte	.LASF33
 984 0188 07       		.byte	0x7
 985 0189 CA       		.byte	0xca
 986 018a 3E020000 		.4byte	0x23e
 987 018e 10       		.byte	0x10
 988 018f 06       		.uleb128 0x6
 989 0190 EE030000 		.4byte	.LASF34
 990 0194 07       		.byte	0x7
 991 0195 CB       		.byte	0xcb
 992 0196 3E020000 		.4byte	0x23e
 993 019a 14       		.byte	0x14
 994 019b 06       		.uleb128 0x6
 995 019c B0060000 		.4byte	.LASF35
 996 01a0 07       		.byte	0x7
 997 01a1 D2       		.byte	0xd2
 998 01a2 A2070000 		.4byte	0x7a2
 999 01a6 18       		.byte	0x18
 1000 01a7 06       		.uleb128 0x6
 1001 01a8 14040000 		.4byte	.LASF36
 1002 01ac 07       		.byte	0x7
 1003 01ad D8       		.byte	0xd8
 1004 01ae B4070000 		.4byte	0x7b4
 1005 01b2 1C       		.byte	0x1c
 1006 01b3 06       		.uleb128 0x6
 1007 01b4 F2040000 		.4byte	.LASF37
 1008 01b8 07       		.byte	0x7
 1009 01b9 DD       		.byte	0xdd
 1010 01ba E4000000 		.4byte	0xe4
 1011 01be 20       		.byte	0x20
 1012 01bf 06       		.uleb128 0x6
ARM GAS  /tmp/ccHSAuwK.s 			page 47


 1013 01c0 0F050000 		.4byte	.LASF38
 1014 01c4 07       		.byte	0x7
 1015 01c5 E1       		.byte	0xe1
 1016 01c6 D9000000 		.4byte	0xd9
 1017 01ca 21       		.byte	0x21
 1018 01cb 06       		.uleb128 0x6
 1019 01cc 8C060000 		.4byte	.LASF39
 1020 01d0 07       		.byte	0x7
 1021 01d1 E6       		.byte	0xe6
 1022 01d2 EF000000 		.4byte	0xef
 1023 01d6 22       		.byte	0x22
 1024 01d7 07       		.uleb128 0x7
 1025 01d8 705F7500 		.ascii	"p_u\000"
 1026 01dc 07       		.byte	0x7
 1027 01dd 3701     		.2byte	0x137
 1028 01df D1060000 		.4byte	0x6d1
 1029 01e3 24       		.byte	0x24
 1030 01e4 08       		.uleb128 0x8
 1031 01e5 78030000 		.4byte	.LASF40
 1032 01e9 07       		.byte	0x7
 1033 01ea 3C01     		.2byte	0x13c
 1034 01ec 44020000 		.4byte	0x244
 1035 01f0 28       		.byte	0x28
 1036 01f1 08       		.uleb128 0x8
 1037 01f2 C0020000 		.4byte	.LASF41
 1038 01f6 07       		.byte	0x7
 1039 01f7 4201     		.2byte	0x142
 1040 01f9 68020000 		.4byte	0x268
 1041 01fd 2C       		.byte	0x2c
 1042 01fe 08       		.uleb128 0x8
 1043 01ff 3F050000 		.4byte	.LASF42
 1044 0203 07       		.byte	0x7
 1045 0204 4801     		.2byte	0x148
 1046 0206 10010000 		.4byte	0x110
 1047 020a 34       		.byte	0x34
 1048 020b 08       		.uleb128 0x8
 1049 020c 2E030000 		.4byte	.LASF43
 1050 0210 07       		.byte	0x7
 1051 0211 4F01     		.2byte	0x14f
 1052 0213 9C070000 		.4byte	0x79c
 1053 0217 38       		.byte	0x38
 1054 0218 08       		.uleb128 0x8
 1055 0219 18060000 		.4byte	.LASF44
 1056 021d 07       		.byte	0x7
 1057 021e 5301     		.2byte	0x153
 1058 0220 FA000000 		.4byte	0xfa
 1059 0224 3C       		.byte	0x3c
 1060 0225 08       		.uleb128 0x8
 1061 0226 FE000000 		.4byte	.LASF45
 1062 022a 07       		.byte	0x7
 1063 022b 5A01     		.2byte	0x15a
 1064 022d 1B030000 		.4byte	0x31b
 1065 0231 40       		.byte	0x40
 1066 0232 00       		.byte	0
 1067 0233 04       		.uleb128 0x4
 1068 0234 8B030000 		.4byte	.LASF46
 1069 0238 06       		.byte	0x6
ARM GAS  /tmp/ccHSAuwK.s 			page 48


 1070 0239 44       		.byte	0x44
 1071 023a 3E020000 		.4byte	0x23e
 1072 023e 09       		.uleb128 0x9
 1073 023f 04       		.byte	0x4
 1074 0240 3C010000 		.4byte	0x13c
 1075 0244 04       		.uleb128 0x4
 1076 0245 B7060000 		.4byte	.LASF47
 1077 0249 06       		.byte	0x6
 1078 024a 49       		.byte	0x49
 1079 024b 4F020000 		.4byte	0x24f
 1080 024f 05       		.uleb128 0x5
 1081 0250 72050000 		.4byte	.LASF49
 1082 0254 04       		.byte	0x4
 1083 0255 07       		.byte	0x7
 1084 0256 B0       		.byte	0xb0
 1085 0257 68020000 		.4byte	0x268
 1086 025b 06       		.uleb128 0x6
 1087 025c 08050000 		.4byte	.LASF29
 1088 0260 07       		.byte	0x7
 1089 0261 B1       		.byte	0xb1
 1090 0262 3E020000 		.4byte	0x23e
 1091 0266 00       		.byte	0
 1092 0267 00       		.byte	0
 1093 0268 04       		.uleb128 0x4
 1094 0269 73060000 		.4byte	.LASF50
 1095 026d 06       		.byte	0x6
 1096 026e 50       		.byte	0x50
 1097 026f 73020000 		.4byte	0x273
 1098 0273 05       		.uleb128 0x5
 1099 0274 39000000 		.4byte	.LASF51
 1100 0278 08       		.byte	0x8
 1101 0279 07       		.byte	0x7
 1102 027a B7       		.byte	0xb7
 1103 027b 98020000 		.4byte	0x298
 1104 027f 06       		.uleb128 0x6
 1105 0280 08050000 		.4byte	.LASF29
 1106 0284 07       		.byte	0x7
 1107 0285 B8       		.byte	0xb8
 1108 0286 3E020000 		.4byte	0x23e
 1109 028a 00       		.byte	0
 1110 028b 06       		.uleb128 0x6
 1111 028c 7D040000 		.4byte	.LASF30
 1112 0290 07       		.byte	0x7
 1113 0291 B9       		.byte	0xb9
 1114 0292 3E020000 		.4byte	0x23e
 1115 0296 04       		.byte	0x4
 1116 0297 00       		.byte	0
 1117 0298 04       		.uleb128 0x4
 1118 0299 00000000 		.4byte	.LASF52
 1119 029d 06       		.byte	0x6
 1120 029e 57       		.byte	0x57
 1121 029f A3020000 		.4byte	0x2a3
 1122 02a3 0A       		.uleb128 0xa
 1123 02a4 CB020000 		.4byte	.LASF53
 1124 02a8 1C       		.byte	0x1c
 1125 02a9 07       		.byte	0x7
 1126 02aa 9201     		.2byte	0x192
ARM GAS  /tmp/ccHSAuwK.s 			page 49


 1127 02ac FF020000 		.4byte	0x2ff
 1128 02b0 08       		.uleb128 0x8
 1129 02b1 61050000 		.4byte	.LASF54
 1130 02b5 07       		.byte	0x7
 1131 02b6 9301     		.2byte	0x193
 1132 02b8 68020000 		.4byte	0x268
 1133 02bc 00       		.byte	0
 1134 02bd 08       		.uleb128 0x8
 1135 02be FA040000 		.4byte	.LASF55
 1136 02c2 07       		.byte	0x7
 1137 02c3 9401     		.2byte	0x194
 1138 02c5 FA000000 		.4byte	0xfa
 1139 02c9 08       		.byte	0x8
 1140 02ca 08       		.uleb128 0x8
 1141 02cb F6030000 		.4byte	.LASF56
 1142 02cf 07       		.byte	0x7
 1143 02d0 9601     		.2byte	0x196
 1144 02d2 C9050000 		.4byte	0x5c9
 1145 02d6 0C       		.byte	0xc
 1146 02d7 08       		.uleb128 0x8
 1147 02d8 72010000 		.4byte	.LASF57
 1148 02dc 07       		.byte	0x7
 1149 02dd 9901     		.2byte	0x199
 1150 02df 3E020000 		.4byte	0x23e
 1151 02e3 10       		.byte	0x10
 1152 02e4 08       		.uleb128 0x8
 1153 02e5 29040000 		.4byte	.LASF58
 1154 02e9 07       		.byte	0x7
 1155 02ea 9A01     		.2byte	0x19a
 1156 02ec 3E020000 		.4byte	0x23e
 1157 02f0 14       		.byte	0x14
 1158 02f1 08       		.uleb128 0x8
 1159 02f2 1F040000 		.4byte	.LASF59
 1160 02f6 07       		.byte	0x7
 1161 02f7 9D01     		.2byte	0x19d
 1162 02f9 3E020000 		.4byte	0x23e
 1163 02fd 18       		.byte	0x18
 1164 02fe 00       		.byte	0
 1165 02ff 04       		.uleb128 0x4
 1166 0300 23060000 		.4byte	.LASF60
 1167 0304 06       		.byte	0x6
 1168 0305 5C       		.byte	0x5c
 1169 0306 0A030000 		.4byte	0x30a
 1170 030a 09       		.uleb128 0x9
 1171 030b 04       		.byte	0x4
 1172 030c 10030000 		.4byte	0x310
 1173 0310 0B       		.uleb128 0xb
 1174 0311 1B030000 		.4byte	0x31b
 1175 0315 0C       		.uleb128 0xc
 1176 0316 1B030000 		.4byte	0x31b
 1177 031a 00       		.byte	0
 1178 031b 0D       		.uleb128 0xd
 1179 031c 04       		.byte	0x4
 1180 031d 04       		.uleb128 0x4
 1181 031e 6D040000 		.4byte	.LASF61
 1182 0322 06       		.byte	0x6
 1183 0323 61       		.byte	0x61
ARM GAS  /tmp/ccHSAuwK.s 			page 50


 1184 0324 28030000 		.4byte	0x328
 1185 0328 0A       		.uleb128 0xa
 1186 0329 21050000 		.4byte	.LASF62
 1187 032d 14       		.byte	0x14
 1188 032e 07       		.byte	0x7
 1189 032f 6D01     		.2byte	0x16d
 1190 0331 77030000 		.4byte	0x377
 1191 0335 08       		.uleb128 0x8
 1192 0336 A5020000 		.4byte	.LASF63
 1193 033a 07       		.byte	0x7
 1194 033b 6E01     		.2byte	0x16e
 1195 033d BA070000 		.4byte	0x7ba
 1196 0341 00       		.byte	0
 1197 0342 08       		.uleb128 0x8
 1198 0343 83010000 		.4byte	.LASF64
 1199 0347 07       		.byte	0x7
 1200 0348 6F01     		.2byte	0x16f
 1201 034a BA070000 		.4byte	0x7ba
 1202 034e 04       		.byte	0x4
 1203 034f 08       		.uleb128 0x8
 1204 0350 69050000 		.4byte	.LASF65
 1205 0354 07       		.byte	0x7
 1206 0355 7001     		.2byte	0x170
 1207 0357 31010000 		.4byte	0x131
 1208 035b 08       		.byte	0x8
 1209 035c 08       		.uleb128 0x8
 1210 035d D6060000 		.4byte	.LASF66
 1211 0361 07       		.byte	0x7
 1212 0362 7101     		.2byte	0x171
 1213 0364 FF020000 		.4byte	0x2ff
 1214 0368 0C       		.byte	0xc
 1215 0369 08       		.uleb128 0x8
 1216 036a 66060000 		.4byte	.LASF67
 1217 036e 07       		.byte	0x7
 1218 036f 7301     		.2byte	0x173
 1219 0371 1B030000 		.4byte	0x31b
 1220 0375 10       		.byte	0x10
 1221 0376 00       		.byte	0
 1222 0377 04       		.uleb128 0x4
 1223 0378 A5000000 		.4byte	.LASF68
 1224 037c 06       		.byte	0x6
 1225 037d 66       		.byte	0x66
 1226 037e 82030000 		.4byte	0x382
 1227 0382 0A       		.uleb128 0xa
 1228 0383 9E030000 		.4byte	.LASF69
 1229 0387 10       		.byte	0x10
 1230 0388 07       		.byte	0x7
 1231 0389 7D01     		.2byte	0x17d
 1232 038b C4030000 		.4byte	0x3c4
 1233 038f 08       		.uleb128 0x8
 1234 0390 A5020000 		.4byte	.LASF63
 1235 0394 07       		.byte	0x7
 1236 0395 7E01     		.2byte	0x17e
 1237 0397 BA070000 		.4byte	0x7ba
 1238 039b 00       		.byte	0
 1239 039c 08       		.uleb128 0x8
 1240 039d 83010000 		.4byte	.LASF64
ARM GAS  /tmp/ccHSAuwK.s 			page 51


 1241 03a1 07       		.byte	0x7
 1242 03a2 8001     		.2byte	0x180
 1243 03a4 BA070000 		.4byte	0x7ba
 1244 03a8 04       		.byte	0x4
 1245 03a9 08       		.uleb128 0x8
 1246 03aa 69050000 		.4byte	.LASF65
 1247 03ae 07       		.byte	0x7
 1248 03af 8201     		.2byte	0x182
 1249 03b1 31010000 		.4byte	0x131
 1250 03b5 08       		.byte	0x8
 1251 03b6 08       		.uleb128 0x8
 1252 03b7 E2030000 		.4byte	.LASF70
 1253 03bb 07       		.byte	0x7
 1254 03bc 8A01     		.2byte	0x18a
 1255 03be 31010000 		.4byte	0x131
 1256 03c2 0C       		.byte	0xc
 1257 03c3 00       		.byte	0
 1258 03c4 04       		.uleb128 0x4
 1259 03c5 4A000000 		.4byte	.LASF71
 1260 03c9 06       		.byte	0x6
 1261 03ca 6B       		.byte	0x6b
 1262 03cb CF030000 		.4byte	0x3cf
 1263 03cf 0A       		.uleb128 0xa
 1264 03d0 8B010000 		.4byte	.LASF72
 1265 03d4 04       		.byte	0x4
 1266 03d5 07       		.byte	0x7
 1267 03d6 A401     		.2byte	0x1a4
 1268 03d8 EA030000 		.4byte	0x3ea
 1269 03dc 08       		.uleb128 0x8
 1270 03dd 37060000 		.4byte	.LASF73
 1271 03e1 07       		.byte	0x7
 1272 03e2 AC01     		.2byte	0x1ac
 1273 03e4 C0070000 		.4byte	0x7c0
 1274 03e8 00       		.byte	0
 1275 03e9 00       		.byte	0
 1276 03ea 04       		.uleb128 0x4
 1277 03eb 1A030000 		.4byte	.LASF74
 1278 03ef 06       		.byte	0x6
 1279 03f0 70       		.byte	0x70
 1280 03f1 F5030000 		.4byte	0x3f5
 1281 03f5 0E       		.uleb128 0xe
 1282 03f6 17050000 		.4byte	.LASF75
 1283 03fa 5001     		.2byte	0x150
 1284 03fc 07       		.byte	0x7
 1285 03fd C401     		.2byte	0x1c4
 1286 03ff 51040000 		.4byte	0x451
 1287 0403 08       		.uleb128 0x8
 1288 0404 93060000 		.4byte	.LASF76
 1289 0408 07       		.byte	0x7
 1290 0409 C801     		.2byte	0x1c8
 1291 040b 98020000 		.4byte	0x298
 1292 040f 00       		.byte	0
 1293 0410 08       		.uleb128 0x8
 1294 0411 15010000 		.4byte	.LASF77
 1295 0415 07       		.byte	0x7
 1296 0416 CC01     		.2byte	0x1cc
 1297 0418 77030000 		.4byte	0x377
ARM GAS  /tmp/ccHSAuwK.s 			page 52


 1298 041c 1C       		.byte	0x1c
 1299 041d 07       		.uleb128 0x7
 1300 041e 64626700 		.ascii	"dbg\000"
 1301 0422 07       		.byte	0x7
 1302 0423 D001     		.2byte	0x1d0
 1303 0425 C4030000 		.4byte	0x3c4
 1304 0429 2C       		.byte	0x2c
 1305 042a 08       		.uleb128 0x8
 1306 042b 92000000 		.4byte	.LASF78
 1307 042f 07       		.byte	0x7
 1308 0430 D401     		.2byte	0x1d4
 1309 0432 3C010000 		.4byte	0x13c
 1310 0436 30       		.byte	0x30
 1311 0437 07       		.uleb128 0x7
 1312 0438 746D00   		.ascii	"tm\000"
 1313 043b 07       		.byte	0x7
 1314 043c D901     		.2byte	0x1d9
 1315 043e 78060000 		.4byte	0x678
 1316 0442 74       		.byte	0x74
 1317 0443 08       		.uleb128 0x8
 1318 0444 A3010000 		.4byte	.LASF79
 1319 0448 07       		.byte	0x7
 1320 0449 E501     		.2byte	0x1e5
 1321 044b C5070000 		.4byte	0x7c5
 1322 044f 78       		.byte	0x78
 1323 0450 00       		.byte	0
 1324 0451 03       		.uleb128 0x3
 1325 0452 04       		.byte	0x4
 1326 0453 07       		.byte	0x7
 1327 0454 82030000 		.4byte	.LASF80
 1328 0458 0F       		.uleb128 0xf
 1329 0459 AD000000 		.4byte	0xad
 1330 045d 10       		.uleb128 0x10
 1331 045e 58040000 		.4byte	0x458
 1332 0462 11       		.uleb128 0x11
 1333 0463 AD000000 		.4byte	0xad
 1334 0467 72040000 		.4byte	0x472
 1335 046b 12       		.uleb128 0x12
 1336 046c 51040000 		.4byte	0x451
 1337 0470 00       		.byte	0
 1338 0471 00       		.byte	0
 1339 0472 13       		.uleb128 0x13
 1340 0473 5C       		.byte	0x5c
 1341 0474 08       		.byte	0x8
 1342 0475 5603     		.2byte	0x356
 1343 0477 A7050000 		.4byte	0x5a7
 1344 047b 08       		.uleb128 0x8
 1345 047c 61060000 		.4byte	.LASF81
 1346 0480 08       		.byte	0x8
 1347 0481 5803     		.2byte	0x358
 1348 0483 58040000 		.4byte	0x458
 1349 0487 00       		.byte	0
 1350 0488 08       		.uleb128 0x8
 1351 0489 71030000 		.4byte	.LASF82
 1352 048d 08       		.byte	0x8
 1353 048e 5903     		.2byte	0x359
 1354 0490 58040000 		.4byte	0x458
ARM GAS  /tmp/ccHSAuwK.s 			page 53


 1355 0494 04       		.byte	0x4
 1356 0495 08       		.uleb128 0x8
 1357 0496 06010000 		.4byte	.LASF83
 1358 049a 08       		.byte	0x8
 1359 049b 5A03     		.2byte	0x35a
 1360 049d 58040000 		.4byte	0x458
 1361 04a1 08       		.byte	0x8
 1362 04a2 08       		.uleb128 0x8
 1363 04a3 01030000 		.4byte	.LASF84
 1364 04a7 08       		.byte	0x8
 1365 04a8 5B03     		.2byte	0x35b
 1366 04aa 58040000 		.4byte	0x458
 1367 04ae 0C       		.byte	0xc
 1368 04af 08       		.uleb128 0x8
 1369 04b0 59010000 		.4byte	.LASF85
 1370 04b4 08       		.byte	0x8
 1371 04b5 5C03     		.2byte	0x35c
 1372 04b7 58040000 		.4byte	0x458
 1373 04bb 10       		.byte	0x10
 1374 04bc 08       		.uleb128 0x8
 1375 04bd 4A050000 		.4byte	.LASF86
 1376 04c1 08       		.byte	0x8
 1377 04c2 5D03     		.2byte	0x35d
 1378 04c4 58040000 		.4byte	0x458
 1379 04c8 14       		.byte	0x14
 1380 04c9 08       		.uleb128 0x8
 1381 04ca A1060000 		.4byte	.LASF87
 1382 04ce 08       		.byte	0x8
 1383 04cf 5E03     		.2byte	0x35e
 1384 04d1 58040000 		.4byte	0x458
 1385 04d5 18       		.byte	0x18
 1386 04d6 08       		.uleb128 0x8
 1387 04d7 8C040000 		.4byte	.LASF88
 1388 04db 08       		.byte	0x8
 1389 04dc 5F03     		.2byte	0x35f
 1390 04de 5D040000 		.4byte	0x45d
 1391 04e2 1C       		.byte	0x1c
 1392 04e3 08       		.uleb128 0x8
 1393 04e4 6D060000 		.4byte	.LASF89
 1394 04e8 08       		.byte	0x8
 1395 04e9 6003     		.2byte	0x360
 1396 04eb 58040000 		.4byte	0x458
 1397 04ef 20       		.byte	0x20
 1398 04f0 08       		.uleb128 0x8
 1399 04f1 91040000 		.4byte	.LASF90
 1400 04f5 08       		.byte	0x8
 1401 04f6 6103     		.2byte	0x361
 1402 04f8 58040000 		.4byte	0x458
 1403 04fc 24       		.byte	0x24
 1404 04fd 08       		.uleb128 0x8
 1405 04fe C0040000 		.4byte	.LASF91
 1406 0502 08       		.byte	0x8
 1407 0503 6203     		.2byte	0x362
 1408 0505 58040000 		.4byte	0x458
 1409 0509 28       		.byte	0x28
 1410 050a 08       		.uleb128 0x8
 1411 050b 4F040000 		.4byte	.LASF92
ARM GAS  /tmp/ccHSAuwK.s 			page 54


 1412 050f 08       		.byte	0x8
 1413 0510 6303     		.2byte	0x363
 1414 0512 62040000 		.4byte	0x462
 1415 0516 2C       		.byte	0x2c
 1416 0517 08       		.uleb128 0x8
 1417 0518 02040000 		.4byte	.LASF93
 1418 051c 08       		.byte	0x8
 1419 051d 6403     		.2byte	0x364
 1420 051f 58040000 		.4byte	0x458
 1421 0523 30       		.byte	0x30
 1422 0524 08       		.uleb128 0x8
 1423 0525 97040000 		.4byte	.LASF94
 1424 0529 08       		.byte	0x8
 1425 052a 6503     		.2byte	0x365
 1426 052c 58040000 		.4byte	0x458
 1427 0530 34       		.byte	0x34
 1428 0531 08       		.uleb128 0x8
 1429 0532 CA040000 		.4byte	.LASF95
 1430 0536 08       		.byte	0x8
 1431 0537 6603     		.2byte	0x366
 1432 0539 58040000 		.4byte	0x458
 1433 053d 38       		.byte	0x38
 1434 053e 08       		.uleb128 0x8
 1435 053f 59040000 		.4byte	.LASF96
 1436 0543 08       		.byte	0x8
 1437 0544 6703     		.2byte	0x367
 1438 0546 62040000 		.4byte	0x462
 1439 054a 3C       		.byte	0x3c
 1440 054b 08       		.uleb128 0x8
 1441 054c 08040000 		.4byte	.LASF97
 1442 0550 08       		.byte	0x8
 1443 0551 6803     		.2byte	0x368
 1444 0553 58040000 		.4byte	0x458
 1445 0557 40       		.byte	0x40
 1446 0558 08       		.uleb128 0x8
 1447 0559 AD020000 		.4byte	.LASF98
 1448 055d 08       		.byte	0x8
 1449 055e 6903     		.2byte	0x369
 1450 0560 58040000 		.4byte	0x458
 1451 0564 44       		.byte	0x44
 1452 0565 08       		.uleb128 0x8
 1453 0566 D4040000 		.4byte	.LASF99
 1454 056a 08       		.byte	0x8
 1455 056b 6A03     		.2byte	0x36a
 1456 056d 58040000 		.4byte	0x458
 1457 0571 48       		.byte	0x48
 1458 0572 08       		.uleb128 0x8
 1459 0573 63040000 		.4byte	.LASF100
 1460 0577 08       		.byte	0x8
 1461 0578 6B03     		.2byte	0x36b
 1462 057a 62040000 		.4byte	0x462
 1463 057e 4C       		.byte	0x4c
 1464 057f 08       		.uleb128 0x8
 1465 0580 0E040000 		.4byte	.LASF101
 1466 0584 08       		.byte	0x8
 1467 0585 6C03     		.2byte	0x36c
 1468 0587 58040000 		.4byte	0x458
ARM GAS  /tmp/ccHSAuwK.s 			page 55


 1469 058b 50       		.byte	0x50
 1470 058c 08       		.uleb128 0x8
 1471 058d B3020000 		.4byte	.LASF102
 1472 0591 08       		.byte	0x8
 1473 0592 6D03     		.2byte	0x36d
 1474 0594 58040000 		.4byte	0x458
 1475 0598 54       		.byte	0x54
 1476 0599 08       		.uleb128 0x8
 1477 059a DE040000 		.4byte	.LASF103
 1478 059e 08       		.byte	0x8
 1479 059f 6E03     		.2byte	0x36e
 1480 05a1 58040000 		.4byte	0x458
 1481 05a5 58       		.byte	0x58
 1482 05a6 00       		.byte	0
 1483 05a7 14       		.uleb128 0x14
 1484 05a8 50060000 		.4byte	.LASF104
 1485 05ac 08       		.byte	0x8
 1486 05ad 6F03     		.2byte	0x36f
 1487 05af 72040000 		.4byte	0x472
 1488 05b3 04       		.uleb128 0x4
 1489 05b4 7A010000 		.4byte	.LASF105
 1490 05b8 09       		.byte	0x9
 1491 05b9 65       		.byte	0x65
 1492 05ba 1B030000 		.4byte	0x31b
 1493 05be 04       		.uleb128 0x4
 1494 05bf 66030000 		.4byte	.LASF106
 1495 05c3 09       		.byte	0x9
 1496 05c4 6D       		.byte	0x6d
 1497 05c5 B8000000 		.4byte	0xb8
 1498 05c9 05       		.uleb128 0x5
 1499 05ca 48060000 		.4byte	.LASF107
 1500 05ce 04       		.byte	0x4
 1501 05cf 09       		.byte	0x9
 1502 05d0 89       		.byte	0x89
 1503 05d1 E2050000 		.4byte	0x5e2
 1504 05d5 15       		.uleb128 0x15
 1505 05d6 72313300 		.ascii	"r13\000"
 1506 05da 09       		.byte	0x9
 1507 05db 8A       		.byte	0x8a
 1508 05dc 5D060000 		.4byte	0x65d
 1509 05e0 00       		.byte	0
 1510 05e1 00       		.byte	0
 1511 05e2 05       		.uleb128 0x5
 1512 05e3 2D000000 		.4byte	.LASF108
 1513 05e7 24       		.byte	0x24
 1514 05e8 01       		.byte	0x1
 1515 05e9 FD       		.byte	0xfd
 1516 05ea 5D060000 		.4byte	0x65d
 1517 05ee 07       		.uleb128 0x7
 1518 05ef 723400   		.ascii	"r4\000"
 1519 05f2 01       		.byte	0x1
 1520 05f3 1001     		.2byte	0x110
 1521 05f5 B3050000 		.4byte	0x5b3
 1522 05f9 00       		.byte	0
 1523 05fa 07       		.uleb128 0x7
 1524 05fb 723500   		.ascii	"r5\000"
 1525 05fe 01       		.byte	0x1
ARM GAS  /tmp/ccHSAuwK.s 			page 56


 1526 05ff 1101     		.2byte	0x111
 1527 0601 B3050000 		.4byte	0x5b3
 1528 0605 04       		.byte	0x4
 1529 0606 07       		.uleb128 0x7
 1530 0607 723600   		.ascii	"r6\000"
 1531 060a 01       		.byte	0x1
 1532 060b 1201     		.2byte	0x112
 1533 060d B3050000 		.4byte	0x5b3
 1534 0611 08       		.byte	0x8
 1535 0612 07       		.uleb128 0x7
 1536 0613 723700   		.ascii	"r7\000"
 1537 0616 01       		.byte	0x1
 1538 0617 1301     		.2byte	0x113
 1539 0619 B3050000 		.4byte	0x5b3
 1540 061d 0C       		.byte	0xc
 1541 061e 07       		.uleb128 0x7
 1542 061f 723800   		.ascii	"r8\000"
 1543 0622 01       		.byte	0x1
 1544 0623 1401     		.2byte	0x114
 1545 0625 B3050000 		.4byte	0x5b3
 1546 0629 10       		.byte	0x10
 1547 062a 07       		.uleb128 0x7
 1548 062b 723900   		.ascii	"r9\000"
 1549 062e 01       		.byte	0x1
 1550 062f 1501     		.2byte	0x115
 1551 0631 B3050000 		.4byte	0x5b3
 1552 0635 14       		.byte	0x14
 1553 0636 07       		.uleb128 0x7
 1554 0637 72313000 		.ascii	"r10\000"
 1555 063b 01       		.byte	0x1
 1556 063c 1601     		.2byte	0x116
 1557 063e B3050000 		.4byte	0x5b3
 1558 0642 18       		.byte	0x18
 1559 0643 07       		.uleb128 0x7
 1560 0644 72313100 		.ascii	"r11\000"
 1561 0648 01       		.byte	0x1
 1562 0649 1701     		.2byte	0x117
 1563 064b B3050000 		.4byte	0x5b3
 1564 064f 1C       		.byte	0x1c
 1565 0650 07       		.uleb128 0x7
 1566 0651 6C7200   		.ascii	"lr\000"
 1567 0654 01       		.byte	0x1
 1568 0655 1801     		.2byte	0x118
 1569 0657 B3050000 		.4byte	0x5b3
 1570 065b 20       		.byte	0x20
 1571 065c 00       		.byte	0
 1572 065d 09       		.uleb128 0x9
 1573 065e 04       		.byte	0x4
 1574 065f E2050000 		.4byte	0x5e2
 1575 0663 16       		.uleb128 0x16
 1576 0664 04       		.byte	0x4
 1577 0665 0A       		.byte	0xa
 1578 0666 38       		.byte	0x38
 1579 0667 78060000 		.4byte	0x678
 1580 066b 06       		.uleb128 0x6
 1581 066c 41060000 		.4byte	.LASF109
 1582 0670 0A       		.byte	0xa
ARM GAS  /tmp/ccHSAuwK.s 			page 57


 1583 0671 3C       		.byte	0x3c
 1584 0672 C3000000 		.4byte	0xc3
 1585 0676 00       		.byte	0
 1586 0677 00       		.byte	0
 1587 0678 04       		.uleb128 0x4
 1588 0679 D1030000 		.4byte	.LASF110
 1589 067d 0A       		.byte	0xa
 1590 067e 3D       		.byte	0x3d
 1591 067f 63060000 		.4byte	0x663
 1592 0683 16       		.uleb128 0x16
 1593 0684 18       		.byte	0x18
 1594 0685 0A       		.byte	0xa
 1595 0686 48       		.byte	0x48
 1596 0687 C6060000 		.4byte	0x6c6
 1597 068b 06       		.uleb128 0x6
 1598 068c DF020000 		.4byte	.LASF111
 1599 0690 0A       		.byte	0xa
 1600 0691 49       		.byte	0x49
 1601 0692 C3000000 		.4byte	0xc3
 1602 0696 00       		.byte	0
 1603 0697 06       		.uleb128 0x6
 1604 0698 59000000 		.4byte	.LASF112
 1605 069c 0A       		.byte	0xa
 1606 069d 4A       		.byte	0x4a
 1607 069e C3000000 		.4byte	0xc3
 1608 06a2 04       		.byte	0x4
 1609 06a3 06       		.uleb128 0x6
 1610 06a4 0E030000 		.4byte	.LASF113
 1611 06a8 0A       		.byte	0xa
 1612 06a9 4B       		.byte	0x4b
 1613 06aa C3000000 		.4byte	0xc3
 1614 06ae 08       		.byte	0x8
 1615 06af 15       		.uleb128 0x15
 1616 06b0 6E00     		.ascii	"n\000"
 1617 06b2 0A       		.byte	0xa
 1618 06b3 4C       		.byte	0x4c
 1619 06b4 26010000 		.4byte	0x126
 1620 06b8 0C       		.byte	0xc
 1621 06b9 06       		.uleb128 0x6
 1622 06ba 3C040000 		.4byte	.LASF114
 1623 06be 0A       		.byte	0xa
 1624 06bf 4D       		.byte	0x4d
 1625 06c0 CE000000 		.4byte	0xce
 1626 06c4 10       		.byte	0x10
 1627 06c5 00       		.byte	0
 1628 06c6 04       		.uleb128 0x4
 1629 06c7 5F000000 		.4byte	.LASF115
 1630 06cb 0A       		.byte	0xa
 1631 06cc 4E       		.byte	0x4e
 1632 06cd 83060000 		.4byte	0x683
 1633 06d1 17       		.uleb128 0x17
 1634 06d2 04       		.byte	0x4
 1635 06d3 07       		.byte	0x7
 1636 06d4 FA       		.byte	0xfa
 1637 06d5 3A070000 		.4byte	0x73a
 1638 06d9 18       		.uleb128 0x18
 1639 06da 13000000 		.4byte	.LASF116
ARM GAS  /tmp/ccHSAuwK.s 			page 58


 1640 06de 07       		.byte	0x7
 1641 06df 0101     		.2byte	0x101
 1642 06e1 05010000 		.4byte	0x105
 1643 06e5 18       		.uleb128 0x18
 1644 06e6 89000000 		.4byte	.LASF117
 1645 06ea 07       		.byte	0x7
 1646 06eb 0801     		.2byte	0x108
 1647 06ed 05010000 		.4byte	0x105
 1648 06f1 18       		.uleb128 0x18
 1649 06f2 A9060000 		.4byte	.LASF118
 1650 06f6 07       		.byte	0x7
 1651 06f7 0F01     		.2byte	0x10f
 1652 06f9 1B030000 		.4byte	0x31b
 1653 06fd 18       		.uleb128 0x18
 1654 06fe 0D000000 		.4byte	.LASF119
 1655 0702 07       		.byte	0x7
 1656 0703 1601     		.2byte	0x116
 1657 0705 3A070000 		.4byte	0x73a
 1658 0709 18       		.uleb128 0x18
 1659 070a C6060000 		.4byte	.LASF120
 1660 070e 07       		.byte	0x7
 1661 070f 1B01     		.2byte	0x11b
 1662 0711 05010000 		.4byte	0x105
 1663 0715 18       		.uleb128 0x18
 1664 0716 B9020000 		.4byte	.LASF121
 1665 071a 07       		.byte	0x7
 1666 071b 2401     		.2byte	0x124
 1667 071d 65070000 		.4byte	0x765
 1668 0721 18       		.uleb128 0x18
 1669 0722 5A050000 		.4byte	.LASF122
 1670 0726 07       		.byte	0x7
 1671 0727 2D01     		.2byte	0x12d
 1672 0729 9C070000 		.4byte	0x79c
 1673 072d 18       		.uleb128 0x18
 1674 072e 01050000 		.4byte	.LASF123
 1675 0732 07       		.byte	0x7
 1676 0733 3501     		.2byte	0x135
 1677 0735 10010000 		.4byte	0x110
 1678 0739 00       		.byte	0
 1679 073a 09       		.uleb128 0x9
 1680 073b 04       		.byte	0x4
 1681 073c 33020000 		.4byte	0x233
 1682 0740 05       		.uleb128 0x5
 1683 0741 32050000 		.4byte	.LASF124
 1684 0745 0C       		.byte	0xc
 1685 0746 0B       		.byte	0xb
 1686 0747 34       		.byte	0x34
 1687 0748 65070000 		.4byte	0x765
 1688 074c 06       		.uleb128 0x6
 1689 074d 6A010000 		.4byte	.LASF125
 1690 0751 0B       		.byte	0xb
 1691 0752 35       		.byte	0x35
 1692 0753 68020000 		.4byte	0x268
 1693 0757 00       		.byte	0
 1694 0758 06       		.uleb128 0x6
 1695 0759 D9020000 		.4byte	.LASF126
 1696 075d 0B       		.byte	0xb
ARM GAS  /tmp/ccHSAuwK.s 			page 59


 1697 075e 37       		.byte	0x37
 1698 075f 1B010000 		.4byte	0x11b
 1699 0763 08       		.byte	0x8
 1700 0764 00       		.byte	0
 1701 0765 09       		.uleb128 0x9
 1702 0766 04       		.byte	0x4
 1703 0767 40070000 		.4byte	0x740
 1704 076b 05       		.uleb128 0x5
 1705 076c 83060000 		.4byte	.LASF127
 1706 0770 10       		.byte	0x10
 1707 0771 0C       		.byte	0xc
 1708 0772 39       		.byte	0x39
 1709 0773 9C070000 		.4byte	0x79c
 1710 0777 06       		.uleb128 0x6
 1711 0778 0D010000 		.4byte	.LASF128
 1712 077c 0C       		.byte	0xc
 1713 077d 3A       		.byte	0x3a
 1714 077e 68020000 		.4byte	0x268
 1715 0782 00       		.byte	0
 1716 0783 06       		.uleb128 0x6
 1717 0784 CE060000 		.4byte	.LASF129
 1718 0788 0C       		.byte	0xc
 1719 0789 3C       		.byte	0x3c
 1720 078a 3E020000 		.4byte	0x23e
 1721 078e 08       		.byte	0x8
 1722 078f 06       		.uleb128 0x6
 1723 0790 07060000 		.4byte	.LASF130
 1724 0794 0C       		.byte	0xc
 1725 0795 3E       		.byte	0x3e
 1726 0796 E0070000 		.4byte	0x7e0
 1727 079a 0C       		.byte	0xc
 1728 079b 00       		.byte	0
 1729 079c 09       		.uleb128 0x9
 1730 079d 04       		.byte	0x4
 1731 079e 6B070000 		.4byte	0x76b
 1732 07a2 09       		.uleb128 0x9
 1733 07a3 04       		.byte	0x4
 1734 07a4 A8070000 		.4byte	0x7a8
 1735 07a8 10       		.uleb128 0x10
 1736 07a9 AD070000 		.4byte	0x7ad
 1737 07ad 03       		.uleb128 0x3
 1738 07ae 01       		.byte	0x1
 1739 07af 08       		.byte	0x8
 1740 07b0 DF050000 		.4byte	.LASF131
 1741 07b4 09       		.uleb128 0x9
 1742 07b5 04       		.byte	0x4
 1743 07b6 BE050000 		.4byte	0x5be
 1744 07ba 09       		.uleb128 0x9
 1745 07bb 04       		.byte	0x4
 1746 07bc 1D030000 		.4byte	0x31d
 1747 07c0 0F       		.uleb128 0xf
 1748 07c1 A2070000 		.4byte	0x7a2
 1749 07c5 11       		.uleb128 0x11
 1750 07c6 BE050000 		.4byte	0x5be
 1751 07ca D5070000 		.4byte	0x7d5
 1752 07ce 12       		.uleb128 0x12
 1753 07cf 51040000 		.4byte	0x451
ARM GAS  /tmp/ccHSAuwK.s 			page 60


 1754 07d3 1A       		.byte	0x1a
 1755 07d4 00       		.byte	0
 1756 07d5 04       		.uleb128 0x4
 1757 07d6 9B010000 		.4byte	.LASF132
 1758 07da 0C       		.byte	0xc
 1759 07db 34       		.byte	0x34
 1760 07dc 6B070000 		.4byte	0x76b
 1761 07e0 09       		.uleb128 0x9
 1762 07e1 04       		.byte	0x4
 1763 07e2 D5070000 		.4byte	0x7d5
 1764 07e6 19       		.uleb128 0x19
 1765 07e7 ED050000 		.4byte	.LASF144
 1766 07eb 01       		.byte	0x1
 1767 07ec 3802     		.2byte	0x238
 1768 07ee C3000000 		.4byte	0xc3
 1769 07f2 00000000 		.4byte	.LFB135
 1770 07f6 0C000000 		.4byte	.LFE135-.LFB135
 1771 07fa 01       		.uleb128 0x1
 1772 07fb 9C       		.byte	0x9c
 1773 07fc 1A       		.uleb128 0x1a
 1774 07fd 9D000000 		.4byte	.LASF145
 1775 0801 02       		.byte	0x2
 1776 0802 35       		.byte	0x35
 1777 0803 00000000 		.4byte	.LFB241
 1778 0807 6A000000 		.4byte	.LFE241-.LFB241
 1779 080b 01       		.uleb128 0x1
 1780 080c 9C       		.byte	0x9c
 1781 080d 3C080000 		.4byte	0x83c
 1782 0811 1B       		.uleb128 0x1b
 1783 0812 746D7000 		.ascii	"tmp\000"
 1784 0816 02       		.byte	0x2
 1785 0817 35       		.byte	0x35
 1786 0818 3C080000 		.4byte	0x83c
 1787 081c 02       		.uleb128 0x2
 1788 081d 91       		.byte	0x91
 1789 081e 7C       		.sleb128 -4
 1790 081f 1B       		.uleb128 0x1b
 1791 0820 6E6F7700 		.ascii	"now\000"
 1792 0824 02       		.byte	0x2
 1793 0825 36       		.byte	0x36
 1794 0826 C3000000 		.4byte	0xc3
 1795 082a 02       		.uleb128 0x2
 1796 082b 91       		.byte	0x91
 1797 082c 78       		.sleb128 -8
 1798 082d 1C       		.uleb128 0x1c
 1799 082e 41060000 		.4byte	.LASF109
 1800 0832 02       		.byte	0x2
 1801 0833 37       		.byte	0x37
 1802 0834 C3000000 		.4byte	0xc3
 1803 0838 02       		.uleb128 0x2
 1804 0839 91       		.byte	0x91
 1805 083a 74       		.sleb128 -12
 1806 083b 00       		.byte	0
 1807 083c 09       		.uleb128 0x9
 1808 083d 04       		.byte	0x4
 1809 083e C6060000 		.4byte	0x6c6
 1810 0842 1D       		.uleb128 0x1d
ARM GAS  /tmp/ccHSAuwK.s 			page 61


 1811 0843 DE060000 		.4byte	.LASF133
 1812 0847 02       		.byte	0x2
 1813 0848 4D       		.byte	0x4d
 1814 0849 00000000 		.4byte	.LFB242
 1815 084d 34000000 		.4byte	.LFE242-.LFB242
 1816 0851 01       		.uleb128 0x1
 1817 0852 9C       		.byte	0x9c
 1818 0853 65080000 		.4byte	0x865
 1819 0857 1E       		.uleb128 0x1e
 1820 0858 746D00   		.ascii	"tm\000"
 1821 085b 02       		.byte	0x2
 1822 085c 4E       		.byte	0x4e
 1823 085d C6060000 		.4byte	0x6c6
 1824 0861 02       		.uleb128 0x2
 1825 0862 91       		.byte	0x91
 1826 0863 60       		.sleb128 -32
 1827 0864 00       		.byte	0
 1828 0865 1F       		.uleb128 0x1f
 1829 0866 BB000000 		.4byte	.LASF134
 1830 086a 02       		.byte	0x2
 1831 086b 61       		.byte	0x61
 1832 086c 00000000 		.4byte	.LFB243
 1833 0870 30000000 		.4byte	.LFE243-.LFB243
 1834 0874 01       		.uleb128 0x1
 1835 0875 9C       		.byte	0x9c
 1836 0876 89080000 		.4byte	0x889
 1837 087a 1B       		.uleb128 0x1b
 1838 087b 746D7000 		.ascii	"tmp\000"
 1839 087f 02       		.byte	0x2
 1840 0880 61       		.byte	0x61
 1841 0881 3C080000 		.4byte	0x83c
 1842 0885 02       		.uleb128 0x2
 1843 0886 91       		.byte	0x91
 1844 0887 7C       		.sleb128 -4
 1845 0888 00       		.byte	0
 1846 0889 1D       		.uleb128 0x1d
 1847 088a 1C010000 		.4byte	.LASF135
 1848 088e 02       		.byte	0x2
 1849 088f 72       		.byte	0x72
 1850 0890 00000000 		.4byte	.LFB244
 1851 0894 16000000 		.4byte	.LFE244-.LFB244
 1852 0898 01       		.uleb128 0x1
 1853 0899 9C       		.byte	0x9c
 1854 089a AD080000 		.4byte	0x8ad
 1855 089e 1B       		.uleb128 0x1b
 1856 089f 746D7000 		.ascii	"tmp\000"
 1857 08a3 02       		.byte	0x2
 1858 08a4 72       		.byte	0x72
 1859 08a5 3C080000 		.4byte	0x83c
 1860 08a9 02       		.uleb128 0x2
 1861 08aa 91       		.byte	0x91
 1862 08ab 74       		.sleb128 -12
 1863 08ac 00       		.byte	0
 1864 08ad 1D       		.uleb128 0x1d
 1865 08ae 32010000 		.4byte	.LASF136
 1866 08b2 02       		.byte	0x2
 1867 08b3 7F       		.byte	0x7f
ARM GAS  /tmp/ccHSAuwK.s 			page 62


 1868 08b4 00000000 		.4byte	.LFB245
 1869 08b8 24000000 		.4byte	.LFE245-.LFB245
 1870 08bc 01       		.uleb128 0x1
 1871 08bd 9C       		.byte	0x9c
 1872 08be D1080000 		.4byte	0x8d1
 1873 08c2 1B       		.uleb128 0x1b
 1874 08c3 746D7000 		.ascii	"tmp\000"
 1875 08c7 02       		.byte	0x2
 1876 08c8 7F       		.byte	0x7f
 1877 08c9 3C080000 		.4byte	0x83c
 1878 08cd 02       		.uleb128 0x2
 1879 08ce 91       		.byte	0x91
 1880 08cf 74       		.sleb128 -12
 1881 08d0 00       		.byte	0
 1882 08d1 1D       		.uleb128 0x1d
 1883 08d2 4E030000 		.4byte	.LASF137
 1884 08d6 02       		.byte	0x2
 1885 08d7 90       		.byte	0x90
 1886 08d8 00000000 		.4byte	.LFB246
 1887 08dc 26000000 		.4byte	.LFE246-.LFB246
 1888 08e0 01       		.uleb128 0x1
 1889 08e1 9C       		.byte	0x9c
 1890 08e2 03090000 		.4byte	0x903
 1891 08e6 1C       		.uleb128 0x1c
 1892 08e7 DA000000 		.4byte	.LASF138
 1893 08eb 02       		.byte	0x2
 1894 08ec 90       		.byte	0x90
 1895 08ed 3C080000 		.4byte	0x83c
 1896 08f1 02       		.uleb128 0x2
 1897 08f2 91       		.byte	0x91
 1898 08f3 74       		.sleb128 -12
 1899 08f4 1C       		.uleb128 0x1c
 1900 08f5 DF000000 		.4byte	.LASF139
 1901 08f9 02       		.byte	0x2
 1902 08fa 91       		.byte	0x91
 1903 08fb 3C080000 		.4byte	0x83c
 1904 08ff 02       		.uleb128 0x2
 1905 0900 91       		.byte	0x91
 1906 0901 70       		.sleb128 -16
 1907 0902 00       		.byte	0
 1908 0903 20       		.uleb128 0x20
 1909 0904 B3040000 		.4byte	.LASF140
 1910 0908 08       		.byte	0x8
 1911 0909 FA06     		.2byte	0x6fa
 1912 090b 0F090000 		.4byte	0x90f
 1913 090f 0F       		.uleb128 0xf
 1914 0910 A2000000 		.4byte	0xa2
 1915 0914 21       		.uleb128 0x21
 1916 0915 636800   		.ascii	"ch\000"
 1917 0918 07       		.byte	0x7
 1918 0919 0B02     		.2byte	0x20b
 1919 091b EA030000 		.4byte	0x3ea
 1920 091f 00       		.byte	0
 1921              		.section	.debug_abbrev,"",%progbits
 1922              	.Ldebug_abbrev0:
 1923 0000 01       		.uleb128 0x1
 1924 0001 11       		.uleb128 0x11
ARM GAS  /tmp/ccHSAuwK.s 			page 63


 1925 0002 01       		.byte	0x1
 1926 0003 25       		.uleb128 0x25
 1927 0004 0E       		.uleb128 0xe
 1928 0005 13       		.uleb128 0x13
 1929 0006 0B       		.uleb128 0xb
 1930 0007 03       		.uleb128 0x3
 1931 0008 0E       		.uleb128 0xe
 1932 0009 1B       		.uleb128 0x1b
 1933 000a 0E       		.uleb128 0xe
 1934 000b 55       		.uleb128 0x55
 1935 000c 17       		.uleb128 0x17
 1936 000d 11       		.uleb128 0x11
 1937 000e 01       		.uleb128 0x1
 1938 000f 10       		.uleb128 0x10
 1939 0010 17       		.uleb128 0x17
 1940 0011 00       		.byte	0
 1941 0012 00       		.byte	0
 1942 0013 02       		.uleb128 0x2
 1943 0014 24       		.uleb128 0x24
 1944 0015 00       		.byte	0
 1945 0016 0B       		.uleb128 0xb
 1946 0017 0B       		.uleb128 0xb
 1947 0018 3E       		.uleb128 0x3e
 1948 0019 0B       		.uleb128 0xb
 1949 001a 03       		.uleb128 0x3
 1950 001b 08       		.uleb128 0x8
 1951 001c 00       		.byte	0
 1952 001d 00       		.byte	0
 1953 001e 03       		.uleb128 0x3
 1954 001f 24       		.uleb128 0x24
 1955 0020 00       		.byte	0
 1956 0021 0B       		.uleb128 0xb
 1957 0022 0B       		.uleb128 0xb
 1958 0023 3E       		.uleb128 0x3e
 1959 0024 0B       		.uleb128 0xb
 1960 0025 03       		.uleb128 0x3
 1961 0026 0E       		.uleb128 0xe
 1962 0027 00       		.byte	0
 1963 0028 00       		.byte	0
 1964 0029 04       		.uleb128 0x4
 1965 002a 16       		.uleb128 0x16
 1966 002b 00       		.byte	0
 1967 002c 03       		.uleb128 0x3
 1968 002d 0E       		.uleb128 0xe
 1969 002e 3A       		.uleb128 0x3a
 1970 002f 0B       		.uleb128 0xb
 1971 0030 3B       		.uleb128 0x3b
 1972 0031 0B       		.uleb128 0xb
 1973 0032 49       		.uleb128 0x49
 1974 0033 13       		.uleb128 0x13
 1975 0034 00       		.byte	0
 1976 0035 00       		.byte	0
 1977 0036 05       		.uleb128 0x5
 1978 0037 13       		.uleb128 0x13
 1979 0038 01       		.byte	0x1
 1980 0039 03       		.uleb128 0x3
 1981 003a 0E       		.uleb128 0xe
ARM GAS  /tmp/ccHSAuwK.s 			page 64


 1982 003b 0B       		.uleb128 0xb
 1983 003c 0B       		.uleb128 0xb
 1984 003d 3A       		.uleb128 0x3a
 1985 003e 0B       		.uleb128 0xb
 1986 003f 3B       		.uleb128 0x3b
 1987 0040 0B       		.uleb128 0xb
 1988 0041 01       		.uleb128 0x1
 1989 0042 13       		.uleb128 0x13
 1990 0043 00       		.byte	0
 1991 0044 00       		.byte	0
 1992 0045 06       		.uleb128 0x6
 1993 0046 0D       		.uleb128 0xd
 1994 0047 00       		.byte	0
 1995 0048 03       		.uleb128 0x3
 1996 0049 0E       		.uleb128 0xe
 1997 004a 3A       		.uleb128 0x3a
 1998 004b 0B       		.uleb128 0xb
 1999 004c 3B       		.uleb128 0x3b
 2000 004d 0B       		.uleb128 0xb
 2001 004e 49       		.uleb128 0x49
 2002 004f 13       		.uleb128 0x13
 2003 0050 38       		.uleb128 0x38
 2004 0051 0B       		.uleb128 0xb
 2005 0052 00       		.byte	0
 2006 0053 00       		.byte	0
 2007 0054 07       		.uleb128 0x7
 2008 0055 0D       		.uleb128 0xd
 2009 0056 00       		.byte	0
 2010 0057 03       		.uleb128 0x3
 2011 0058 08       		.uleb128 0x8
 2012 0059 3A       		.uleb128 0x3a
 2013 005a 0B       		.uleb128 0xb
 2014 005b 3B       		.uleb128 0x3b
 2015 005c 05       		.uleb128 0x5
 2016 005d 49       		.uleb128 0x49
 2017 005e 13       		.uleb128 0x13
 2018 005f 38       		.uleb128 0x38
 2019 0060 0B       		.uleb128 0xb
 2020 0061 00       		.byte	0
 2021 0062 00       		.byte	0
 2022 0063 08       		.uleb128 0x8
 2023 0064 0D       		.uleb128 0xd
 2024 0065 00       		.byte	0
 2025 0066 03       		.uleb128 0x3
 2026 0067 0E       		.uleb128 0xe
 2027 0068 3A       		.uleb128 0x3a
 2028 0069 0B       		.uleb128 0xb
 2029 006a 3B       		.uleb128 0x3b
 2030 006b 05       		.uleb128 0x5
 2031 006c 49       		.uleb128 0x49
 2032 006d 13       		.uleb128 0x13
 2033 006e 38       		.uleb128 0x38
 2034 006f 0B       		.uleb128 0xb
 2035 0070 00       		.byte	0
 2036 0071 00       		.byte	0
 2037 0072 09       		.uleb128 0x9
 2038 0073 0F       		.uleb128 0xf
ARM GAS  /tmp/ccHSAuwK.s 			page 65


 2039 0074 00       		.byte	0
 2040 0075 0B       		.uleb128 0xb
 2041 0076 0B       		.uleb128 0xb
 2042 0077 49       		.uleb128 0x49
 2043 0078 13       		.uleb128 0x13
 2044 0079 00       		.byte	0
 2045 007a 00       		.byte	0
 2046 007b 0A       		.uleb128 0xa
 2047 007c 13       		.uleb128 0x13
 2048 007d 01       		.byte	0x1
 2049 007e 03       		.uleb128 0x3
 2050 007f 0E       		.uleb128 0xe
 2051 0080 0B       		.uleb128 0xb
 2052 0081 0B       		.uleb128 0xb
 2053 0082 3A       		.uleb128 0x3a
 2054 0083 0B       		.uleb128 0xb
 2055 0084 3B       		.uleb128 0x3b
 2056 0085 05       		.uleb128 0x5
 2057 0086 01       		.uleb128 0x1
 2058 0087 13       		.uleb128 0x13
 2059 0088 00       		.byte	0
 2060 0089 00       		.byte	0
 2061 008a 0B       		.uleb128 0xb
 2062 008b 15       		.uleb128 0x15
 2063 008c 01       		.byte	0x1
 2064 008d 27       		.uleb128 0x27
 2065 008e 19       		.uleb128 0x19
 2066 008f 01       		.uleb128 0x1
 2067 0090 13       		.uleb128 0x13
 2068 0091 00       		.byte	0
 2069 0092 00       		.byte	0
 2070 0093 0C       		.uleb128 0xc
 2071 0094 05       		.uleb128 0x5
 2072 0095 00       		.byte	0
 2073 0096 49       		.uleb128 0x49
 2074 0097 13       		.uleb128 0x13
 2075 0098 00       		.byte	0
 2076 0099 00       		.byte	0
 2077 009a 0D       		.uleb128 0xd
 2078 009b 0F       		.uleb128 0xf
 2079 009c 00       		.byte	0
 2080 009d 0B       		.uleb128 0xb
 2081 009e 0B       		.uleb128 0xb
 2082 009f 00       		.byte	0
 2083 00a0 00       		.byte	0
 2084 00a1 0E       		.uleb128 0xe
 2085 00a2 13       		.uleb128 0x13
 2086 00a3 01       		.byte	0x1
 2087 00a4 03       		.uleb128 0x3
 2088 00a5 0E       		.uleb128 0xe
 2089 00a6 0B       		.uleb128 0xb
 2090 00a7 05       		.uleb128 0x5
 2091 00a8 3A       		.uleb128 0x3a
 2092 00a9 0B       		.uleb128 0xb
 2093 00aa 3B       		.uleb128 0x3b
 2094 00ab 05       		.uleb128 0x5
 2095 00ac 01       		.uleb128 0x1
ARM GAS  /tmp/ccHSAuwK.s 			page 66


 2096 00ad 13       		.uleb128 0x13
 2097 00ae 00       		.byte	0
 2098 00af 00       		.byte	0
 2099 00b0 0F       		.uleb128 0xf
 2100 00b1 35       		.uleb128 0x35
 2101 00b2 00       		.byte	0
 2102 00b3 49       		.uleb128 0x49
 2103 00b4 13       		.uleb128 0x13
 2104 00b5 00       		.byte	0
 2105 00b6 00       		.byte	0
 2106 00b7 10       		.uleb128 0x10
 2107 00b8 26       		.uleb128 0x26
 2108 00b9 00       		.byte	0
 2109 00ba 49       		.uleb128 0x49
 2110 00bb 13       		.uleb128 0x13
 2111 00bc 00       		.byte	0
 2112 00bd 00       		.byte	0
 2113 00be 11       		.uleb128 0x11
 2114 00bf 01       		.uleb128 0x1
 2115 00c0 01       		.byte	0x1
 2116 00c1 49       		.uleb128 0x49
 2117 00c2 13       		.uleb128 0x13
 2118 00c3 01       		.uleb128 0x1
 2119 00c4 13       		.uleb128 0x13
 2120 00c5 00       		.byte	0
 2121 00c6 00       		.byte	0
 2122 00c7 12       		.uleb128 0x12
 2123 00c8 21       		.uleb128 0x21
 2124 00c9 00       		.byte	0
 2125 00ca 49       		.uleb128 0x49
 2126 00cb 13       		.uleb128 0x13
 2127 00cc 2F       		.uleb128 0x2f
 2128 00cd 0B       		.uleb128 0xb
 2129 00ce 00       		.byte	0
 2130 00cf 00       		.byte	0
 2131 00d0 13       		.uleb128 0x13
 2132 00d1 13       		.uleb128 0x13
 2133 00d2 01       		.byte	0x1
 2134 00d3 0B       		.uleb128 0xb
 2135 00d4 0B       		.uleb128 0xb
 2136 00d5 3A       		.uleb128 0x3a
 2137 00d6 0B       		.uleb128 0xb
 2138 00d7 3B       		.uleb128 0x3b
 2139 00d8 05       		.uleb128 0x5
 2140 00d9 01       		.uleb128 0x1
 2141 00da 13       		.uleb128 0x13
 2142 00db 00       		.byte	0
 2143 00dc 00       		.byte	0
 2144 00dd 14       		.uleb128 0x14
 2145 00de 16       		.uleb128 0x16
 2146 00df 00       		.byte	0
 2147 00e0 03       		.uleb128 0x3
 2148 00e1 0E       		.uleb128 0xe
 2149 00e2 3A       		.uleb128 0x3a
 2150 00e3 0B       		.uleb128 0xb
 2151 00e4 3B       		.uleb128 0x3b
 2152 00e5 05       		.uleb128 0x5
ARM GAS  /tmp/ccHSAuwK.s 			page 67


 2153 00e6 49       		.uleb128 0x49
 2154 00e7 13       		.uleb128 0x13
 2155 00e8 00       		.byte	0
 2156 00e9 00       		.byte	0
 2157 00ea 15       		.uleb128 0x15
 2158 00eb 0D       		.uleb128 0xd
 2159 00ec 00       		.byte	0
 2160 00ed 03       		.uleb128 0x3
 2161 00ee 08       		.uleb128 0x8
 2162 00ef 3A       		.uleb128 0x3a
 2163 00f0 0B       		.uleb128 0xb
 2164 00f1 3B       		.uleb128 0x3b
 2165 00f2 0B       		.uleb128 0xb
 2166 00f3 49       		.uleb128 0x49
 2167 00f4 13       		.uleb128 0x13
 2168 00f5 38       		.uleb128 0x38
 2169 00f6 0B       		.uleb128 0xb
 2170 00f7 00       		.byte	0
 2171 00f8 00       		.byte	0
 2172 00f9 16       		.uleb128 0x16
 2173 00fa 13       		.uleb128 0x13
 2174 00fb 01       		.byte	0x1
 2175 00fc 0B       		.uleb128 0xb
 2176 00fd 0B       		.uleb128 0xb
 2177 00fe 3A       		.uleb128 0x3a
 2178 00ff 0B       		.uleb128 0xb
 2179 0100 3B       		.uleb128 0x3b
 2180 0101 0B       		.uleb128 0xb
 2181 0102 01       		.uleb128 0x1
 2182 0103 13       		.uleb128 0x13
 2183 0104 00       		.byte	0
 2184 0105 00       		.byte	0
 2185 0106 17       		.uleb128 0x17
 2186 0107 17       		.uleb128 0x17
 2187 0108 01       		.byte	0x1
 2188 0109 0B       		.uleb128 0xb
 2189 010a 0B       		.uleb128 0xb
 2190 010b 3A       		.uleb128 0x3a
 2191 010c 0B       		.uleb128 0xb
 2192 010d 3B       		.uleb128 0x3b
 2193 010e 0B       		.uleb128 0xb
 2194 010f 01       		.uleb128 0x1
 2195 0110 13       		.uleb128 0x13
 2196 0111 00       		.byte	0
 2197 0112 00       		.byte	0
 2198 0113 18       		.uleb128 0x18
 2199 0114 0D       		.uleb128 0xd
 2200 0115 00       		.byte	0
 2201 0116 03       		.uleb128 0x3
 2202 0117 0E       		.uleb128 0xe
 2203 0118 3A       		.uleb128 0x3a
 2204 0119 0B       		.uleb128 0xb
 2205 011a 3B       		.uleb128 0x3b
 2206 011b 05       		.uleb128 0x5
 2207 011c 49       		.uleb128 0x49
 2208 011d 13       		.uleb128 0x13
 2209 011e 00       		.byte	0
ARM GAS  /tmp/ccHSAuwK.s 			page 68


 2210 011f 00       		.byte	0
 2211 0120 19       		.uleb128 0x19
 2212 0121 2E       		.uleb128 0x2e
 2213 0122 00       		.byte	0
 2214 0123 03       		.uleb128 0x3
 2215 0124 0E       		.uleb128 0xe
 2216 0125 3A       		.uleb128 0x3a
 2217 0126 0B       		.uleb128 0xb
 2218 0127 3B       		.uleb128 0x3b
 2219 0128 05       		.uleb128 0x5
 2220 0129 27       		.uleb128 0x27
 2221 012a 19       		.uleb128 0x19
 2222 012b 49       		.uleb128 0x49
 2223 012c 13       		.uleb128 0x13
 2224 012d 11       		.uleb128 0x11
 2225 012e 01       		.uleb128 0x1
 2226 012f 12       		.uleb128 0x12
 2227 0130 06       		.uleb128 0x6
 2228 0131 40       		.uleb128 0x40
 2229 0132 18       		.uleb128 0x18
 2230 0133 9742     		.uleb128 0x2117
 2231 0135 19       		.uleb128 0x19
 2232 0136 00       		.byte	0
 2233 0137 00       		.byte	0
 2234 0138 1A       		.uleb128 0x1a
 2235 0139 2E       		.uleb128 0x2e
 2236 013a 01       		.byte	0x1
 2237 013b 03       		.uleb128 0x3
 2238 013c 0E       		.uleb128 0xe
 2239 013d 3A       		.uleb128 0x3a
 2240 013e 0B       		.uleb128 0xb
 2241 013f 3B       		.uleb128 0x3b
 2242 0140 0B       		.uleb128 0xb
 2243 0141 27       		.uleb128 0x27
 2244 0142 19       		.uleb128 0x19
 2245 0143 11       		.uleb128 0x11
 2246 0144 01       		.uleb128 0x1
 2247 0145 12       		.uleb128 0x12
 2248 0146 06       		.uleb128 0x6
 2249 0147 40       		.uleb128 0x40
 2250 0148 18       		.uleb128 0x18
 2251 0149 9742     		.uleb128 0x2117
 2252 014b 19       		.uleb128 0x19
 2253 014c 01       		.uleb128 0x1
 2254 014d 13       		.uleb128 0x13
 2255 014e 00       		.byte	0
 2256 014f 00       		.byte	0
 2257 0150 1B       		.uleb128 0x1b
 2258 0151 05       		.uleb128 0x5
 2259 0152 00       		.byte	0
 2260 0153 03       		.uleb128 0x3
 2261 0154 08       		.uleb128 0x8
 2262 0155 3A       		.uleb128 0x3a
 2263 0156 0B       		.uleb128 0xb
 2264 0157 3B       		.uleb128 0x3b
 2265 0158 0B       		.uleb128 0xb
 2266 0159 49       		.uleb128 0x49
ARM GAS  /tmp/ccHSAuwK.s 			page 69


 2267 015a 13       		.uleb128 0x13
 2268 015b 02       		.uleb128 0x2
 2269 015c 18       		.uleb128 0x18
 2270 015d 00       		.byte	0
 2271 015e 00       		.byte	0
 2272 015f 1C       		.uleb128 0x1c
 2273 0160 05       		.uleb128 0x5
 2274 0161 00       		.byte	0
 2275 0162 03       		.uleb128 0x3
 2276 0163 0E       		.uleb128 0xe
 2277 0164 3A       		.uleb128 0x3a
 2278 0165 0B       		.uleb128 0xb
 2279 0166 3B       		.uleb128 0x3b
 2280 0167 0B       		.uleb128 0xb
 2281 0168 49       		.uleb128 0x49
 2282 0169 13       		.uleb128 0x13
 2283 016a 02       		.uleb128 0x2
 2284 016b 18       		.uleb128 0x18
 2285 016c 00       		.byte	0
 2286 016d 00       		.byte	0
 2287 016e 1D       		.uleb128 0x1d
 2288 016f 2E       		.uleb128 0x2e
 2289 0170 01       		.byte	0x1
 2290 0171 3F       		.uleb128 0x3f
 2291 0172 19       		.uleb128 0x19
 2292 0173 03       		.uleb128 0x3
 2293 0174 0E       		.uleb128 0xe
 2294 0175 3A       		.uleb128 0x3a
 2295 0176 0B       		.uleb128 0xb
 2296 0177 3B       		.uleb128 0x3b
 2297 0178 0B       		.uleb128 0xb
 2298 0179 27       		.uleb128 0x27
 2299 017a 19       		.uleb128 0x19
 2300 017b 11       		.uleb128 0x11
 2301 017c 01       		.uleb128 0x1
 2302 017d 12       		.uleb128 0x12
 2303 017e 06       		.uleb128 0x6
 2304 017f 40       		.uleb128 0x40
 2305 0180 18       		.uleb128 0x18
 2306 0181 9642     		.uleb128 0x2116
 2307 0183 19       		.uleb128 0x19
 2308 0184 01       		.uleb128 0x1
 2309 0185 13       		.uleb128 0x13
 2310 0186 00       		.byte	0
 2311 0187 00       		.byte	0
 2312 0188 1E       		.uleb128 0x1e
 2313 0189 34       		.uleb128 0x34
 2314 018a 00       		.byte	0
 2315 018b 03       		.uleb128 0x3
 2316 018c 08       		.uleb128 0x8
 2317 018d 3A       		.uleb128 0x3a
 2318 018e 0B       		.uleb128 0xb
 2319 018f 3B       		.uleb128 0x3b
 2320 0190 0B       		.uleb128 0xb
 2321 0191 49       		.uleb128 0x49
 2322 0192 13       		.uleb128 0x13
 2323 0193 02       		.uleb128 0x2
ARM GAS  /tmp/ccHSAuwK.s 			page 70


 2324 0194 18       		.uleb128 0x18
 2325 0195 00       		.byte	0
 2326 0196 00       		.byte	0
 2327 0197 1F       		.uleb128 0x1f
 2328 0198 2E       		.uleb128 0x2e
 2329 0199 01       		.byte	0x1
 2330 019a 3F       		.uleb128 0x3f
 2331 019b 19       		.uleb128 0x19
 2332 019c 03       		.uleb128 0x3
 2333 019d 0E       		.uleb128 0xe
 2334 019e 3A       		.uleb128 0x3a
 2335 019f 0B       		.uleb128 0xb
 2336 01a0 3B       		.uleb128 0x3b
 2337 01a1 0B       		.uleb128 0xb
 2338 01a2 27       		.uleb128 0x27
 2339 01a3 19       		.uleb128 0x19
 2340 01a4 11       		.uleb128 0x11
 2341 01a5 01       		.uleb128 0x1
 2342 01a6 12       		.uleb128 0x12
 2343 01a7 06       		.uleb128 0x6
 2344 01a8 40       		.uleb128 0x40
 2345 01a9 18       		.uleb128 0x18
 2346 01aa 9742     		.uleb128 0x2117
 2347 01ac 19       		.uleb128 0x19
 2348 01ad 01       		.uleb128 0x1
 2349 01ae 13       		.uleb128 0x13
 2350 01af 00       		.byte	0
 2351 01b0 00       		.byte	0
 2352 01b1 20       		.uleb128 0x20
 2353 01b2 34       		.uleb128 0x34
 2354 01b3 00       		.byte	0
 2355 01b4 03       		.uleb128 0x3
 2356 01b5 0E       		.uleb128 0xe
 2357 01b6 3A       		.uleb128 0x3a
 2358 01b7 0B       		.uleb128 0xb
 2359 01b8 3B       		.uleb128 0x3b
 2360 01b9 05       		.uleb128 0x5
 2361 01ba 49       		.uleb128 0x49
 2362 01bb 13       		.uleb128 0x13
 2363 01bc 3F       		.uleb128 0x3f
 2364 01bd 19       		.uleb128 0x19
 2365 01be 3C       		.uleb128 0x3c
 2366 01bf 19       		.uleb128 0x19
 2367 01c0 00       		.byte	0
 2368 01c1 00       		.byte	0
 2369 01c2 21       		.uleb128 0x21
 2370 01c3 34       		.uleb128 0x34
 2371 01c4 00       		.byte	0
 2372 01c5 03       		.uleb128 0x3
 2373 01c6 08       		.uleb128 0x8
 2374 01c7 3A       		.uleb128 0x3a
 2375 01c8 0B       		.uleb128 0xb
 2376 01c9 3B       		.uleb128 0x3b
 2377 01ca 05       		.uleb128 0x5
 2378 01cb 49       		.uleb128 0x49
 2379 01cc 13       		.uleb128 0x13
 2380 01cd 3F       		.uleb128 0x3f
ARM GAS  /tmp/ccHSAuwK.s 			page 71


 2381 01ce 19       		.uleb128 0x19
 2382 01cf 3C       		.uleb128 0x3c
 2383 01d0 19       		.uleb128 0x19
 2384 01d1 00       		.byte	0
 2385 01d2 00       		.byte	0
 2386 01d3 00       		.byte	0
 2387              		.section	.debug_aranges,"",%progbits
 2388 0000 4C000000 		.4byte	0x4c
 2389 0004 0200     		.2byte	0x2
 2390 0006 00000000 		.4byte	.Ldebug_info0
 2391 000a 04       		.byte	0x4
 2392 000b 00       		.byte	0
 2393 000c 0000     		.2byte	0
 2394 000e 0000     		.2byte	0
 2395 0010 00000000 		.4byte	.LFB135
 2396 0014 0C000000 		.4byte	.LFE135-.LFB135
 2397 0018 00000000 		.4byte	.LFB241
 2398 001c 6A000000 		.4byte	.LFE241-.LFB241
 2399 0020 00000000 		.4byte	.LFB242
 2400 0024 34000000 		.4byte	.LFE242-.LFB242
 2401 0028 00000000 		.4byte	.LFB243
 2402 002c 30000000 		.4byte	.LFE243-.LFB243
 2403 0030 00000000 		.4byte	.LFB244
 2404 0034 16000000 		.4byte	.LFE244-.LFB244
 2405 0038 00000000 		.4byte	.LFB245
 2406 003c 24000000 		.4byte	.LFE245-.LFB245
 2407 0040 00000000 		.4byte	.LFB246
 2408 0044 26000000 		.4byte	.LFE246-.LFB246
 2409 0048 00000000 		.4byte	0
 2410 004c 00000000 		.4byte	0
 2411              		.section	.debug_ranges,"",%progbits
 2412              	.Ldebug_ranges0:
 2413 0000 00000000 		.4byte	.LFB135
 2414 0004 0C000000 		.4byte	.LFE135
 2415 0008 00000000 		.4byte	.LFB241
 2416 000c 6A000000 		.4byte	.LFE241
 2417 0010 00000000 		.4byte	.LFB242
 2418 0014 34000000 		.4byte	.LFE242
 2419 0018 00000000 		.4byte	.LFB243
 2420 001c 30000000 		.4byte	.LFE243
 2421 0020 00000000 		.4byte	.LFB244
 2422 0024 16000000 		.4byte	.LFE244
 2423 0028 00000000 		.4byte	.LFB245
 2424 002c 24000000 		.4byte	.LFE245
 2425 0030 00000000 		.4byte	.LFB246
 2426 0034 26000000 		.4byte	.LFE246
 2427 0038 00000000 		.4byte	0
 2428 003c 00000000 		.4byte	0
 2429              		.section	.debug_line,"",%progbits
 2430              	.Ldebug_line0:
 2431 0000 C2020000 		.section	.debug_str,"MS",%progbits,1
 2431      02002402 
 2431      00000201 
 2431      FB0E0D00 
 2431      01010101 
 2432              	.LASF52:
 2433 0000 72656164 		.ascii	"ready_list_t\000"
ARM GAS  /tmp/ccHSAuwK.s 			page 72


 2433      795F6C69 
 2433      73745F74 
 2433      00
 2434              	.LASF119:
 2435 000d 77747472 		.ascii	"wttrp\000"
 2435      7000
 2436              	.LASF116:
 2437 0013 7264796D 		.ascii	"rdymsg\000"
 2437      736700
 2438              	.LASF16:
 2439 001a 75696E74 		.ascii	"uint64_t\000"
 2439      36345F74 
 2439      00
 2440              	.LASF5:
 2441 0023 5F5F7569 		.ascii	"__uint8_t\000"
 2441      6E74385F 
 2441      7400
 2442              	.LASF108:
 2443 002d 706F7274 		.ascii	"port_intctx\000"
 2443      5F696E74 
 2443      63747800 
 2444              	.LASF51:
 2445 0039 63685F74 		.ascii	"ch_threads_queue\000"
 2445      68726561 
 2445      64735F71 
 2445      75657565 
 2445      00
 2446              	.LASF71:
 2447 004a 73797374 		.ascii	"system_debug_t\000"
 2447      656D5F64 
 2447      65627567 
 2447      5F7400
 2448              	.LASF112:
 2449 0059 776F7273 		.ascii	"worst\000"
 2449      7400
 2450              	.LASF115:
 2451 005f 74696D65 		.ascii	"time_measurement_t\000"
 2451      5F6D6561 
 2451      73757265 
 2451      6D656E74 
 2451      5F7400
 2452              	.LASF12:
 2453 0072 6C6F6E67 		.ascii	"long long unsigned int\000"
 2453      206C6F6E 
 2453      6720756E 
 2453      7369676E 
 2453      65642069 
 2454              	.LASF117:
 2455 0089 65786974 		.ascii	"exitcode\000"
 2455      636F6465 
 2455      00
 2456              	.LASF78:
 2457 0092 6D61696E 		.ascii	"mainthread\000"
 2457      74687265 
 2457      616400
 2458              	.LASF145:
 2459 009d 746D5F73 		.ascii	"tm_stop\000"
ARM GAS  /tmp/ccHSAuwK.s 			page 73


 2459      746F7000 
 2460              	.LASF68:
 2461 00a5 76697274 		.ascii	"virtual_timers_list_t\000"
 2461      75616C5F 
 2461      74696D65 
 2461      72735F6C 
 2461      6973745F 
 2462              	.LASF134:
 2463 00bb 6368544D 		.ascii	"chTMObjectInit\000"
 2463      4F626A65 
 2463      6374496E 
 2463      697400
 2464              	.LASF18:
 2465 00ca 72747469 		.ascii	"rttime_t\000"
 2465      6D655F74 
 2465      00
 2466              	.LASF31:
 2467 00d3 705F7072 		.ascii	"p_prio\000"
 2467      696F00
 2468              	.LASF138:
 2469 00da 746D7031 		.ascii	"tmp1\000"
 2469      00
 2470              	.LASF139:
 2471 00df 746D7032 		.ascii	"tmp2\000"
 2471      00
 2472              	.LASF10:
 2473 00e4 6C6F6E67 		.ascii	"long long int\000"
 2473      206C6F6E 
 2473      6720696E 
 2473      7400
 2474              	.LASF1:
 2475 00f2 7369676E 		.ascii	"signed char\000"
 2475      65642063 
 2475      68617200 
 2476              	.LASF45:
 2477 00fe 705F6D70 		.ascii	"p_mpool\000"
 2477      6F6F6C00 
 2478              	.LASF83:
 2479 0106 43504943 		.ascii	"CPICNT\000"
 2479      4E5400
 2480              	.LASF128:
 2481 010d 6D5F7175 		.ascii	"m_queue\000"
 2481      65756500 
 2482              	.LASF77:
 2483 0115 76746C69 		.ascii	"vtlist\000"
 2483      737400
 2484              	.LASF135:
 2485 011c 6368544D 		.ascii	"chTMStartMeasurementX\000"
 2485      53746172 
 2485      744D6561 
 2485      73757265 
 2485      6D656E74 
 2486              	.LASF136:
 2487 0132 6368544D 		.ascii	"chTMStopMeasurementX\000"
 2487      53746F70 
 2487      4D656173 
 2487      7572656D 
ARM GAS  /tmp/ccHSAuwK.s 			page 74


 2487      656E7458 
 2488              	.LASF7:
 2489 0147 6C6F6E67 		.ascii	"long int\000"
 2489      20696E74 
 2489      00
 2490              	.LASF20:
 2491 0150 74737461 		.ascii	"tstate_t\000"
 2491      74655F74 
 2491      00
 2492              	.LASF85:
 2493 0159 534C4545 		.ascii	"SLEEPCNT\000"
 2493      50434E54 
 2493      00
 2494              	.LASF33:
 2495 0162 705F6E65 		.ascii	"p_newer\000"
 2495      77657200 
 2496              	.LASF125:
 2497 016a 735F7175 		.ascii	"s_queue\000"
 2497      65756500 
 2498              	.LASF57:
 2499 0172 725F6E65 		.ascii	"r_newer\000"
 2499      77657200 
 2500              	.LASF105:
 2501 017a 72656761 		.ascii	"regarm_t\000"
 2501      726D5F74 
 2501      00
 2502              	.LASF64:
 2503 0183 76745F70 		.ascii	"vt_prev\000"
 2503      72657600 
 2504              	.LASF72:
 2505 018b 63685F73 		.ascii	"ch_system_debug\000"
 2505      79737465 
 2505      6D5F6465 
 2505      62756700 
 2506              	.LASF132:
 2507 019b 6D757465 		.ascii	"mutex_t\000"
 2507      785F7400 
 2508              	.LASF79:
 2509 01a3 69646C65 		.ascii	"idle_thread_wa\000"
 2509      5F746872 
 2509      6561645F 
 2509      776100
 2510              	.LASF25:
 2511 01b2 636E745F 		.ascii	"cnt_t\000"
 2511      7400
 2512              	.LASF141:
 2513 01b8 474E5520 		.ascii	"GNU C 4.8.4 20140526 (release) [ARM/embedded-4_8-br"
 2513      4320342E 
 2513      382E3420 
 2513      32303134 
 2513      30353236 
 2514 01eb 616E6368 		.ascii	"anch revision 211358] -mcpu=cortex-m4 -mno-thumb-in"
 2514      20726576 
 2514      6973696F 
 2514      6E203231 
 2514      31333538 
 2515 021e 74657277 		.ascii	"terwork -mthumb -ggdb -O0 -fomit-frame-pointer -fal"
ARM GAS  /tmp/ccHSAuwK.s 			page 75


 2515      6F726B20 
 2515      2D6D7468 
 2515      756D6220 
 2515      2D676764 
 2516 0251 69676E2D 		.ascii	"ign-functions=16 -ffunction-sections -fdata-section"
 2516      66756E63 
 2516      74696F6E 
 2516      733D3136 
 2516      202D6666 
 2517 0284 73202D66 		.ascii	"s -fno-common -flto\000"
 2517      6E6F2D63 
 2517      6F6D6D6F 
 2517      6E202D66 
 2517      6C746F00 
 2518              	.LASF0:
 2519 0298 756E7369 		.ascii	"unsigned int\000"
 2519      676E6564 
 2519      20696E74 
 2519      00
 2520              	.LASF63:
 2521 02a5 76745F6E 		.ascii	"vt_next\000"
 2521      65787400 
 2522              	.LASF98:
 2523 02ad 4D41534B 		.ascii	"MASK2\000"
 2523      3200
 2524              	.LASF102:
 2525 02b3 4D41534B 		.ascii	"MASK3\000"
 2525      3300
 2526              	.LASF121:
 2527 02b9 77747365 		.ascii	"wtsemp\000"
 2527      6D7000
 2528              	.LASF41:
 2529 02c0 705F6D73 		.ascii	"p_msgqueue\000"
 2529      67717565 
 2529      756500
 2530              	.LASF53:
 2531 02cb 63685F72 		.ascii	"ch_ready_list\000"
 2531      65616479 
 2531      5F6C6973 
 2531      7400
 2532              	.LASF126:
 2533 02d9 735F636E 		.ascii	"s_cnt\000"
 2533      7400
 2534              	.LASF111:
 2535 02df 62657374 		.ascii	"best\000"
 2535      00
 2536              	.LASF4:
 2537 02e4 73686F72 		.ascii	"short unsigned int\000"
 2537      7420756E 
 2537      7369676E 
 2537      65642069 
 2537      6E7400
 2538              	.LASF48:
 2539 02f7 63685F74 		.ascii	"ch_thread\000"
 2539      68726561 
 2539      6400
 2540              	.LASF84:
ARM GAS  /tmp/ccHSAuwK.s 			page 76


 2541 0301 45584343 		.ascii	"EXCCNT\000"
 2541      4E5400
 2542              	.LASF23:
 2543 0308 6D73675F 		.ascii	"msg_t\000"
 2543      7400
 2544              	.LASF113:
 2545 030e 6C617374 		.ascii	"last\000"
 2545      00
 2546              	.LASF26:
 2547 0313 75636E74 		.ascii	"ucnt_t\000"
 2547      5F7400
 2548              	.LASF74:
 2549 031a 63685F73 		.ascii	"ch_system_t\000"
 2549      79737465 
 2549      6D5F7400 
 2550              	.LASF19:
 2551 0326 746D6F64 		.ascii	"tmode_t\000"
 2551      655F7400 
 2552              	.LASF43:
 2553 032e 705F6D74 		.ascii	"p_mtxlist\000"
 2553      786C6973 
 2553      7400
 2554              	.LASF24:
 2555 0338 6576656E 		.ascii	"eventmask_t\000"
 2555      746D6173 
 2555      6B5F7400 
 2556              	.LASF6:
 2557 0344 5F5F696E 		.ascii	"__int32_t\000"
 2557      7433325F 
 2557      7400
 2558              	.LASF137:
 2559 034e 6368544D 		.ascii	"chTMChainMeasurementToX\000"
 2559      43686169 
 2559      6E4D6561 
 2559      73757265 
 2559      6D656E74 
 2560              	.LASF106:
 2561 0366 73746B61 		.ascii	"stkalign_t\000"
 2561      6C69676E 
 2561      5F7400
 2562              	.LASF82:
 2563 0371 43594343 		.ascii	"CYCCNT\000"
 2563      4E5400
 2564              	.LASF40:
 2565 0378 705F7761 		.ascii	"p_waiting\000"
 2565      6974696E 
 2565      6700
 2566              	.LASF80:
 2567 0382 73697A65 		.ascii	"sizetype\000"
 2567      74797065 
 2567      00
 2568              	.LASF46:
 2569 038b 74687265 		.ascii	"thread_reference_t\000"
 2569      61645F72 
 2569      65666572 
 2569      656E6365 
 2569      5F7400
ARM GAS  /tmp/ccHSAuwK.s 			page 77


 2570              	.LASF69:
 2571 039e 63685F76 		.ascii	"ch_virtual_timers_list\000"
 2571      69727475 
 2571      616C5F74 
 2571      696D6572 
 2571      735F6C69 
 2572              	.LASF142:
 2573 03b5 2E2E2F43 		.ascii	"../ChibiOS/os/rt/src/chtm.c\000"
 2573      68696269 
 2573      4F532F6F 
 2573      732F7274 
 2573      2F737263 
 2574              	.LASF110:
 2575 03d1 746D5F63 		.ascii	"tm_calibration_t\000"
 2575      616C6962 
 2575      72617469 
 2575      6F6E5F74 
 2575      00
 2576              	.LASF70:
 2577 03e2 76745F6C 		.ascii	"vt_lasttime\000"
 2577      61737474 
 2577      696D6500 
 2578              	.LASF34:
 2579 03ee 705F6F6C 		.ascii	"p_older\000"
 2579      64657200 
 2580              	.LASF56:
 2581 03f6 725F6374 		.ascii	"r_ctx\000"
 2581      7800
 2582              	.LASF32:
 2583 03fc 705F6374 		.ascii	"p_ctx\000"
 2583      7800
 2584              	.LASF93:
 2585 0402 434F4D50 		.ascii	"COMP1\000"
 2585      3100
 2586              	.LASF97:
 2587 0408 434F4D50 		.ascii	"COMP2\000"
 2587      3200
 2588              	.LASF101:
 2589 040e 434F4D50 		.ascii	"COMP3\000"
 2589      3300
 2590              	.LASF36:
 2591 0414 705F7374 		.ascii	"p_stklimit\000"
 2591      6B6C696D 
 2591      697400
 2592              	.LASF59:
 2593 041f 725F6375 		.ascii	"r_current\000"
 2593      7272656E 
 2593      7400
 2594              	.LASF58:
 2595 0429 725F6F6C 		.ascii	"r_older\000"
 2595      64657200 
 2596              	.LASF11:
 2597 0431 5F5F7569 		.ascii	"__uint64_t\000"
 2597      6E743634 
 2597      5F7400
 2598              	.LASF114:
 2599 043c 63756D75 		.ascii	"cumulative\000"
ARM GAS  /tmp/ccHSAuwK.s 			page 78


 2599      6C617469 
 2599      766500
 2600              	.LASF21:
 2601 0447 74726566 		.ascii	"trefs_t\000"
 2601      735F7400 
 2602              	.LASF92:
 2603 044f 52455345 		.ascii	"RESERVED0\000"
 2603      52564544 
 2603      3000
 2604              	.LASF96:
 2605 0459 52455345 		.ascii	"RESERVED1\000"
 2605      52564544 
 2605      3100
 2606              	.LASF100:
 2607 0463 52455345 		.ascii	"RESERVED2\000"
 2607      52564544 
 2607      3200
 2608              	.LASF61:
 2609 046d 76697274 		.ascii	"virtual_timer_t\000"
 2609      75616C5F 
 2609      74696D65 
 2609      725F7400 
 2610              	.LASF30:
 2611 047d 705F7072 		.ascii	"p_prev\000"
 2611      657600
 2612              	.LASF22:
 2613 0484 74707269 		.ascii	"tprio_t\000"
 2613      6F5F7400 
 2614              	.LASF88:
 2615 048c 50435352 		.ascii	"PCSR\000"
 2615      00
 2616              	.LASF90:
 2617 0491 4D41534B 		.ascii	"MASK0\000"
 2617      3000
 2618              	.LASF94:
 2619 0497 4D41534B 		.ascii	"MASK1\000"
 2619      3100
 2620              	.LASF14:
 2621 049d 696E7433 		.ascii	"int32_t\000"
 2621      325F7400 
 2622              	.LASF2:
 2623 04a5 756E7369 		.ascii	"unsigned char\000"
 2623      676E6564 
 2623      20636861 
 2623      7200
 2624              	.LASF140:
 2625 04b3 49544D5F 		.ascii	"ITM_RxBuffer\000"
 2625      52784275 
 2625      66666572 
 2625      00
 2626              	.LASF91:
 2627 04c0 46554E43 		.ascii	"FUNCTION0\000"
 2627      54494F4E 
 2627      3000
 2628              	.LASF95:
 2629 04ca 46554E43 		.ascii	"FUNCTION1\000"
 2629      54494F4E 
ARM GAS  /tmp/ccHSAuwK.s 			page 79


 2629      3100
 2630              	.LASF99:
 2631 04d4 46554E43 		.ascii	"FUNCTION2\000"
 2631      54494F4E 
 2631      3200
 2632              	.LASF103:
 2633 04de 46554E43 		.ascii	"FUNCTION3\000"
 2633      54494F4E 
 2633      3300
 2634              	.LASF3:
 2635 04e8 73686F72 		.ascii	"short int\000"
 2635      7420696E 
 2635      7400
 2636              	.LASF37:
 2637 04f2 705F7374 		.ascii	"p_state\000"
 2637      61746500 
 2638              	.LASF55:
 2639 04fa 725F7072 		.ascii	"r_prio\000"
 2639      696F00
 2640              	.LASF123:
 2641 0501 65776D61 		.ascii	"ewmask\000"
 2641      736B00
 2642              	.LASF29:
 2643 0508 705F6E65 		.ascii	"p_next\000"
 2643      787400
 2644              	.LASF38:
 2645 050f 705F666C 		.ascii	"p_flags\000"
 2645      61677300 
 2646              	.LASF75:
 2647 0517 63685F73 		.ascii	"ch_system\000"
 2647      79737465 
 2647      6D00
 2648              	.LASF62:
 2649 0521 63685F76 		.ascii	"ch_virtual_timer\000"
 2649      69727475 
 2649      616C5F74 
 2649      696D6572 
 2649      00
 2650              	.LASF124:
 2651 0532 63685F73 		.ascii	"ch_semaphore\000"
 2651      656D6170 
 2651      686F7265 
 2651      00
 2652              	.LASF42:
 2653 053f 705F6570 		.ascii	"p_epending\000"
 2653      656E6469 
 2653      6E6700
 2654              	.LASF86:
 2655 054a 4C535543 		.ascii	"LSUCNT\000"
 2655      4E5400
 2656              	.LASF15:
 2657 0551 75696E74 		.ascii	"uint32_t\000"
 2657      33325F74 
 2657      00
 2658              	.LASF122:
 2659 055a 77746D74 		.ascii	"wtmtxp\000"
 2659      787000
ARM GAS  /tmp/ccHSAuwK.s 			page 80


 2660              	.LASF54:
 2661 0561 725F7175 		.ascii	"r_queue\000"
 2661      65756500 
 2662              	.LASF65:
 2663 0569 76745F64 		.ascii	"vt_delta\000"
 2663      656C7461 
 2663      00
 2664              	.LASF49:
 2665 0572 63685F74 		.ascii	"ch_threads_list\000"
 2665      68726561 
 2665      64735F6C 
 2665      69737400 
 2666              	.LASF143:
 2667 0582 2F6E6673 		.ascii	"/nfs/nfs4/home/irbrown/Courses/P442/P442WifiTrailCo"
 2667      2F6E6673 
 2667      342F686F 
 2667      6D652F69 
 2667      7262726F 
 2668 05b5 756E7465 		.ascii	"unterProject/milestone3\000"
 2668      7250726F 
 2668      6A656374 
 2668      2F6D696C 
 2668      6573746F 
 2669              	.LASF9:
 2670 05cd 6C6F6E67 		.ascii	"long unsigned int\000"
 2670      20756E73 
 2670      69676E65 
 2670      6420696E 
 2670      7400
 2671              	.LASF131:
 2672 05df 63686172 		.ascii	"char\000"
 2672      00
 2673              	.LASF28:
 2674 05e4 74687265 		.ascii	"thread_t\000"
 2674      61645F74 
 2674      00
 2675              	.LASF144:
 2676 05ed 706F7274 		.ascii	"port_rt_get_counter_value\000"
 2676      5F72745F 
 2676      6765745F 
 2676      636F756E 
 2676      7465725F 
 2677              	.LASF130:
 2678 0607 6D5F6E65 		.ascii	"m_next\000"
 2678      787400
 2679              	.LASF27:
 2680 060e 73797374 		.ascii	"systime_t\000"
 2680      696D655F 
 2680      7400
 2681              	.LASF44:
 2682 0618 705F7265 		.ascii	"p_realprio\000"
 2682      616C7072 
 2682      696F00
 2683              	.LASF60:
 2684 0623 76746675 		.ascii	"vtfunc_t\000"
 2684      6E635F74 
 2684      00
ARM GAS  /tmp/ccHSAuwK.s 			page 81


 2685              	.LASF8:
 2686 062c 5F5F7569 		.ascii	"__uint32_t\000"
 2686      6E743332 
 2686      5F7400
 2687              	.LASF73:
 2688 0637 70616E69 		.ascii	"panic_msg\000"
 2688      635F6D73 
 2688      6700
 2689              	.LASF109:
 2690 0641 6F666673 		.ascii	"offset\000"
 2690      657400
 2691              	.LASF107:
 2692 0648 636F6E74 		.ascii	"context\000"
 2692      65787400 
 2693              	.LASF104:
 2694 0650 4457545F 		.ascii	"DWT_Type\000"
 2694      54797065 
 2694      00
 2695              	.LASF17:
 2696 0659 7274636E 		.ascii	"rtcnt_t\000"
 2696      745F7400 
 2697              	.LASF81:
 2698 0661 4354524C 		.ascii	"CTRL\000"
 2698      00
 2699              	.LASF67:
 2700 0666 76745F70 		.ascii	"vt_par\000"
 2700      617200
 2701              	.LASF89:
 2702 066d 434F4D50 		.ascii	"COMP0\000"
 2702      3000
 2703              	.LASF50:
 2704 0673 74687265 		.ascii	"threads_queue_t\000"
 2704      6164735F 
 2704      71756575 
 2704      655F7400 
 2705              	.LASF127:
 2706 0683 63685F6D 		.ascii	"ch_mutex\000"
 2706      75746578 
 2706      00
 2707              	.LASF39:
 2708 068c 705F7265 		.ascii	"p_refs\000"
 2708      667300
 2709              	.LASF76:
 2710 0693 726C6973 		.ascii	"rlist\000"
 2710      7400
 2711              	.LASF13:
 2712 0699 75696E74 		.ascii	"uint8_t\000"
 2712      385F7400 
 2713              	.LASF87:
 2714 06a1 464F4C44 		.ascii	"FOLDCNT\000"
 2714      434E5400 
 2715              	.LASF118:
 2716 06a9 77746F62 		.ascii	"wtobjp\000"
 2716      6A7000
 2717              	.LASF35:
 2718 06b0 705F6E61 		.ascii	"p_name\000"
 2718      6D6500
ARM GAS  /tmp/ccHSAuwK.s 			page 82


 2719              	.LASF47:
 2720 06b7 74687265 		.ascii	"threads_list_t\000"
 2720      6164735F 
 2720      6C697374 
 2720      5F7400
 2721              	.LASF120:
 2722 06c6 73656E74 		.ascii	"sentmsg\000"
 2722      6D736700 
 2723              	.LASF129:
 2724 06ce 6D5F6F77 		.ascii	"m_owner\000"
 2724      6E657200 
 2725              	.LASF66:
 2726 06d6 76745F66 		.ascii	"vt_func\000"
 2726      756E6300 
 2727              	.LASF133:
 2728 06de 5F746D5F 		.ascii	"_tm_init\000"
 2728      696E6974 
 2728      00
 2729              		.comm	__gnu_lto_v1,1,1
 2730              		.ident	"GCC: (GNU Tools for ARM Embedded Processors) 4.8.4 20140526 (release) [ARM/embedded-4_8-br
ARM GAS  /tmp/ccHSAuwK.s 			page 83


DEFINED SYMBOLS
                            *ABS*:00000000 chtm.c
     /tmp/ccHSAuwK.s:479    .text.port_rt_get_counter_value:00000000 $t
     /tmp/ccHSAuwK.s:484    .text.port_rt_get_counter_value:00000000 port_rt_get_counter_value
     /tmp/ccHSAuwK.s:501    .text.port_rt_get_counter_value:00000008 $d
     /tmp/ccHSAuwK.s:506    .text.tm_stop:00000000 $t
     /tmp/ccHSAuwK.s:511    .text.tm_stop:00000000 tm_stop
     /tmp/ccHSAuwK.s:584    .text._tm_init:00000000 $t
     /tmp/ccHSAuwK.s:590    .text._tm_init:00000000 _tm_init
     /tmp/ccHSAuwK.s:639    .text.chTMObjectInit:00000000 chTMObjectInit
     /tmp/ccHSAuwK.s:684    .text.chTMStartMeasurementX:00000000 chTMStartMeasurementX
     /tmp/ccHSAuwK.s:715    .text.chTMStopMeasurementX:00000000 chTMStopMeasurementX
     /tmp/ccHSAuwK.s:628    .text._tm_init:00000030 $d
     /tmp/ccHSAuwK.s:633    .text.chTMObjectInit:00000000 $t
     /tmp/ccHSAuwK.s:678    .text.chTMStartMeasurementX:00000000 $t
     /tmp/ccHSAuwK.s:709    .text.chTMStopMeasurementX:00000000 $t
     /tmp/ccHSAuwK.s:743    .text.chTMStopMeasurementX:00000020 $d
     /tmp/ccHSAuwK.s:748    .text.chTMChainMeasurementToX:00000000 $t
     /tmp/ccHSAuwK.s:754    .text.chTMChainMeasurementToX:00000000 chTMChainMeasurementToX
                            *COM*:00000001 __gnu_lto_v1
                     .debug_frame:00000010 $d
     /tmp/ccHSAuwK.s:505    .text.port_rt_get_counter_value:0000000c $t
     /tmp/ccHSAuwK.s:632    .text._tm_init:00000034 $t
     /tmp/ccHSAuwK.s:747    .text.chTMStopMeasurementX:00000024 $t

UNDEFINED SYMBOLS
ch
