ARM GAS  /tmp/ccYNSMKJ.s 			page 1


   1              		.syntax unified
   2              		.cpu cortex-m4
   3              		.fpu softvfp
   4              		.eabi_attribute 20, 1
   5              		.eabi_attribute 21, 1
   6              		.eabi_attribute 23, 3
   7              		.eabi_attribute 24, 1
   8              		.eabi_attribute 25, 1
   9              		.eabi_attribute 26, 1
  10              		.eabi_attribute 30, 6
  11              		.eabi_attribute 34, 1
  12              		.eabi_attribute 18, 4
  13              		.thumb
  14              		.file	"chvt.c"
  15              		.text
  16              	.Ltext0:
  17              		.section	.gnu.lto_.inline.9b8d12705c3a89c2,"",%progbits
  18 0000 789C6362 		.ascii	"x\234cb`b\300\006\356CiN\006\006\026f\006\006&\226\017"
  18      6062C006 
  18      EE43694E 
  18      06061666 
  18      06062696 
  19 0015 7A0C2C10 		.ascii	"z\014,\020\265\214\014\254\274@\021\246\005\3620\021"
  19      B58C0CAC 
  19      BC4011A6 
  19      05F23011 
  20 0025 266E1081 		.ascii	"&n\020\201]\230\031\2730\013vaV\006\026\036TaF. \301"
  20      5D9819BB 
  20      300B7661 
  20      5606161E 
  20      5461462E 
  21 003b C6C0CE06 		.ascii	"\306\300\316\006\024\346z\020\013\023\346`09\007\322"
  21      14E67A10 
  21      0B13E660 
  21      303907D2 
  22 004b 1431613F 		.ascii	"\0241a?+\2523\340\004'\203\371E\020;\341\302_,J\300"
  22      2BAA33E0 
  22      042783F9 
  22      45103BE1 
  22      C25F2C4A 
  23 0060 E6320000 		.ascii	"\3462\000\000\011C\016h"
  23      09430E68 
  24              		.text
  25              		.section	.gnu.lto_st_lld_get_counter.9b8d12705c3a89c2,"",%progbits
  26 0000 789C6362 		.ascii	"x\234cb`b@\007\322@l\314\010\304 \016\013\003#P\005"
  26      60624007 
  26      D2406CCC 
  26      08C4200E 
  26      0B032350 
  27 0015 23132333 		.ascii	"#\023#3\220df\004\012302\324313\326G\202\330\014LJ\014"
  27      90646604 
  27      0A333032 
  27      D4333133 
  27      D64782D8 
  28 002d 0B1B1A66 		.ascii	"\013\033\032f=X\272|\246d\327\202\246\011\015\377\376"
  28      3D58BA7C 
  28      A664D782 
ARM GAS  /tmp/ccYNSMKJ.s 			page 2


  28      A6090DFF 
  28      FE
  29 003e FF67CC04 		.ascii	"\377g\314\004I%32D\000Y\214\012`\212\211\005\325\022"
  29      49253332 
  29      4400598C 
  29      0A608A89 
  29      05D512
  30 0051 B0B6490D 		.ascii	"\260\266I\015\223\237\006\234hh9\360\377\277}&\310\006"
  30      939F069C 
  30      686839F0 
  30      FFBF7D26 
  30      C806
  31 0063 FC7AD633 		.ascii	"\374z\3263\035x\360\377\377\236\313+\036\317c\024bf"
  31      1D78F0FF 
  31      FF9ECB2B 
  31      1ECF6314 
  31      6266
  32 0075 64006A61 		.ascii	"d\000jab\000\333\305\300\312\320\322\3200A\001l\002"
  32      6200DBC5 
  32      C0CAD0D2 
  32      D0304101 
  32      6C02
  33 0087 108480C9 		.ascii	"\020\204\200\311P\220\323\231\31724\355\330\261\374"
  33      5090D399 
  33      CF3234ED 
  33      D8B1FC
  34 0096 244B22E3 		.ascii	"$K\"\343bFV\206tFF\220\321\314\015@\0002\376,\303\241"
  34      62465686 
  34      74464690 
  34      D1CC0D40 
  34      0032FE2C 
  35 00ac 5B053029 		.ascii	"[\0050)&m\206U\015-\215\015\246\231\214,\263\031f5\002"
  35      266D8655 
  35      0D2D8D0D 
  35      A6998C2C 
  35      B3196635 
  36 00c1 D54C062A 		.ascii	"\325L\006*f\205i\002\273\"\211\021\331M\241 Q\346\323"
  36      66856902 
  36      BB228911 
  36      D94DA120 
  36      51E6D3
  37 00d4 0C8D1C0C 		.ascii	"\014\215\034\014\014) \231\213\014\215\007\230\341\006"
  37      0C292099 
  37      8B0C8D07 
  37      98E106
  38 00e3 42148580 		.ascii	"B\024\205\200\302\015\3046\324\323\323w\316\310L\312"
  38      C20DC436 
  38      D4D3D377 
  38      CEC84CCA 
  39 00f3 F40FD6CF 		.ascii	"\364\017\326\317/\326\317H\314\321/\310/*)\326\017\016"
  39      2FD6CF48 
  39      CCD12FC8 
  39      2F2A29D6 
  39      0F0E
  40 0105 F13536D2 		.ascii	"\36156\322\367\361q\321\017\361\364-3\324/.\211\317"
  40      F7F171D1 
  40      0FF1F42D 
ARM GAS  /tmp/ccYNSMKJ.s 			page 3


  40      33D42F2E 
  40      89CF
  41 0117 C949D1CB 		.ascii	"\311I\321\313`\000\000y\304SD"
  41      60000079 
  41      C45344
  42              		.text
  43              		.section	.gnu.lto_port_timer_get_time.9b8d12705c3a89c2,"",%progbits
  44 0000 789C6362 		.ascii	"x\234cb`b@\007\322@|\004\210\365A\034\026\006F\240\012"
  44      60624007 
  44      D2407C04 
  44      88F5411C 
  44      160646A0 
  45 0015 46264666 		.ascii	"F&Ff \311\314\310\010\024bd\250gbf\254\217\004\261\031"
  45      20C9CCC8 
  45      08146264 
  45      A8676266 
  45      AC8F04B1 
  46 002a 18951816 		.ascii	"\030\225\030\02664\314z\360\364\333\014\311\256\005"
  46      3634CC7A 
  46      F0F4DB0C 
  46      C9AE05
  47 0039 4D131AFE 		.ascii	"M\023\032\376\375\377\317\230\011\222Jfd\210\000\262"
  47      FDFFCF98 
  47      09924A66 
  47      648800B2 
  48 0049 1815C014 		.ascii	"\030\025\300\024\023\013\252%\353\231\016<\370\377\177"
  48      130BAA25 
  48      EB990E3C 
  48      F8FF7F
  49 0058 CEEE358F 		.ascii	"\316\3565\217\3570\012212\200\2650\2602\26444LP\000"
  49      EF300A32 
  49      313280B5 
  49      30B032B4 
  49      34344C50 
  50 006d 6B068210 		.ascii	"k\006\202\0200\031\012r\001\363y\206\346\007\267\223"
  50      30190A72 
  50      01F37986 
  50      E607B793 
  51 007d 13191731 		.ascii	"\023\031\0271\2622\24432V3\374j\350h\020\310ddN\006"
  51      B232A433 
  51      325633FC 
  51      6AE86810 
  51      C864644E 
  52 0092 3B8A0168 		.ascii	";\212\001h\002\324\212P\220[\231O34r00\244\200\344."
  52      02D48A50 
  52      905B994F 
  52      33347230 
  52      30A480E4 
  53 00a7 3230C2F5 		.ascii	"20\302\365A\224\204\200\030 \237\353\352\351\351;gd"
  53      41948480 
  53      18209FEB 
  53      EAE9E93B 
  53      6764
  54 00b9 2665FA07 		.ascii	"&e\372\007\353\347\027\353\027\225\350\027\344\027\225"
  54      EBE717EB 
  54      1795E817 
  54      E41795
ARM GAS  /tmp/ccYNSMKJ.s 			page 4


  55 00c8 14EB3B06 		.ascii	"\024\353;\006\371:\373V\350'g$\347\027\245\306\227d"
  55      F93AFB56 
  55      E8276724 
  55      E717A5C6 
  55      9764
  56 00da E6A616E9 		.ascii	"\346\246\026\351e0\000\000\225\0369\331"
  56      65300000 
  56      951E39D9 
  57              		.text
  58              		.section	.gnu.lto_chVTGetSystemTimeX.9b8d12705c3a89c2,"",%progbits
  59 0000 789C6362 		.ascii	"x\234cb`b@\007\322@|\004\210\225@\034\026\006F\240\012"
  59      60624007 
  59      D2407C04 
  59      8895401C 
  59      160646A0 
  60 0015 46264666 		.ascii	"F&Ff \311\314\310\010\024bd\250gbf\254\217\004\261\031"
  60      20C9CCC8 
  60      08146264 
  60      A8676266 
  60      AC8F04B1 
  61 002a 18951816 		.ascii	"\030\225\030\02664\314z\260\364\333L\311\256\005M\023"
  61      3634CC7A 
  61      B0F4DB4C 
  61      C9AE054D 
  61      13
  62 003b 1AFEFDFF 		.ascii	"\032\376\375\377\317\230\011\222Jfd\210\000\262\030"
  62      CF980992 
  62      4A666488 
  62      00B218
  63 004a 15C01413 		.ascii	"\025\300\024\023\013\252%\353\231\016<\370\377\377\314"
  63      0BAA25EB 
  63      990E3CF8 
  63      FFFFCC
  64 0059 CF158F6F 		.ascii	"\317\025\217o3\012312\200\2650\2602\26444LP\000k\006"
  64      330A3331 
  64      3280B530 
  64      B032B434 
  64      344C5000 
  65 006f 82103019 		.ascii	"\202\0200\031\012r\001\363y\206\346\0077\323\023\031"
  65      0A7201F3 
  65      7986E607 
  65      37D31319 
  66 007f 1731B232 		.ascii	"\0271\2622\24432V3\374j\350h\020\310ddN\006;\212\001"
  66      A4333256 
  66      33FC6AE8 
  66      6810C864 
  66      644E063B 
  67 0095 6802D48A 		.ascii	"h\002\324\212P\220[\231O34r00\244\200\344.20\302\365"
  67      50905B99 
  67      4F333472 
  67      3030A480 
  67      E42E3230 
  68 00ab 41948480 		.ascii	"A\224\204\200\030 \237+\350\351\351;gd&e\372\007\353"
  68      18209F2B 
  68      E8E9E93B 
  68      67642665 
  68      FA07EB
ARM GAS  /tmp/ccYNSMKJ.s 			page 5


  69 00be E717EB17 		.ascii	"\347\027\353\027\225\350g\346%\347\224\246\244\352'"
  69      95E867E6 
  69      25E794A6 
  69      A4EA27
  70 00cd 679495E8 		.ascii	"g\224\225\350e0\000\000\300\3355C"
  70      65300000 
  70      C0DD3543 
  71              		.text
  72              		.section	.gnu.lto_port_timer_start_alarm.9b8d12705c3a89c2,"",%progbits
  73 0000 789C6362 		.ascii	"x\234cb`b@\007\"@\\\007\304\372 \0163\003#P\005#\023"
  73      60624007 
  73      22405C07 
  73      C4FA200E 
  73      33032350 
  74 0017 232390C3 		.ascii	"##\220\303\310P\317\304X\037\311\010V\266\236\351\300"
  74      C850CFC4 
  74      581FC908 
  74      56B69EE9 
  74      C0
  75 0028 83FFFFD7 		.ascii	"\203\377\377\327\315;\266w\015\343L&\240\202\\\2608"
  75      CD3BB677 
  75      0DE34C26 
  75      A0825CB0 
  75      38
  76 0039 2B434B43 		.ascii	"+CKC\303\004\005\006\206d07\004L\206\202\014a>\317\320"
  76      C3040506 
  76      86643037 
  76      044C8682 
  76      0C613ECF 
  77 004e F260E663 		.ascii	"\362`\346c\366D\306\205\214\254@\301j\206_\015\035\015"
  77      F644C685 
  77      8CAC40C1 
  77      6A865F0D 
  77      1D0D
  78 0060 02998C40 		.ascii	"\002\231\214@\245\020#\323\031\0313A\314\213\014\215"
  78      A51023D3 
  78      19193341 
  78      CC8B0C8D 
  79 0070 0F6629C3 		.ascii	"\017f)\303\324A@\010H\002\344X]==}\347\214\314\244L"
  79      D4414008 
  79      4802E458 
  79      5D3D3D7D 
  79      E78CCCA4 
  80 0085 FF60FDFC 		.ascii	"\377`\375\374b\375\242\022\375\202\374\242\222b}\307"
  80      62FDA212 
  80      FD82FCA2 
  80      92627DC7 
  81 0095 205F67DF 		.ascii	" _g\337\012\375\344\214\344\374\242\324\370\222\314"
  81      0AFDE48C 
  81      E4FCA2D4 
  81      F892CC
  82 00a4 DCD422BD 		.ascii	"\334\324\"\275\014\006\0003l+\247"
  82      0C060033 
  82      6C2BA7
  83              		.text
  84              		.section	.gnu.lto_port_timer_set_alarm.9b8d12705c3a89c2,"",%progbits
  85 0000 789C6362 		.ascii	"x\234cb`b@\007\"@\\\007\304\372 \0163\003#P\005#\023"
ARM GAS  /tmp/ccYNSMKJ.s 			page 6


  85      60624007 
  85      22405C07 
  85      C4FA200E 
  85      33032350 
  86 0017 232390C3 		.ascii	"##\220\303\310P\317\304X\037\311\010V\266\236\351\300"
  86      C850CFC4 
  86      581FC908 
  86      56B69EE9 
  86      C0
  87 0028 83FFFFD7 		.ascii	"\203\377\377\327\375:\266\247\207q\016\023PA.X\234\225"
  87      FD3AB6A7 
  87      87710E13 
  87      50412E58 
  87      9C95
  88 003a A1A5A161 		.ascii	"\241\245\241a\202\002\003C2\230\033\002&CA\2060\237"
  88      82020343 
  88      32981B02 
  88      26434186 
  88      309F
  89 004c 676879B0 		.ascii	"ghy\260\1771{\"\343BFV\240`5\303\257\206\216\006\201"
  89      7F317B22 
  89      E3424656 
  89      A06035C3 
  89      AF868E06 
  90 0061 4C46A052 		.ascii	"LF\240R\210\221\351\214\214\231 \346E\206\306\007'\224"
  90      8891E98C 
  90      8C9920E6 
  90      4586C607 
  90      2794
  91 0073 61EA2020 		.ascii	"a\352  \004$\001r\254\256\236\236\276sFfR\246\177\260"
  91      04240172 
  91      ACAE9E9E 
  91      BE734666 
  91      52A67FB0 
  92 0087 7E7EB17E 		.ascii	"~~\261~Q\211~A~QI\261\276c\220\257\263o\205~rFr~Qj|"
  92      51897E41 
  92      7E5149B1 
  92      BE6390AF 
  92      B36F857E 
  93 00a2 49666E6A 		.ascii	"Ifnj\221^\006\003\000[\343+\371"
  93      915E0603 
  93      005BE32B 
  93      F9
  94              		.text
  95              		.section	.gnu.lto_port_timer_stop_alarm.9b8d12705c3a89c2,"",%progbits
  96 0000 789C6362 		.ascii	"x\234cb`b@\007\"@\\\006\304\372 \0163\003#P\005#\023"
  96      60624007 
  96      22405C06 
  96      C4FA200E 
  96      33032350 
  97 0017 232390C3 		.ascii	"##\220\303\310P\317\304X\037\311\010V\266\236\351\300"
  97      C850CFC4 
  97      581FC908 
  97      56B69EE9 
  97      C0
  98 0028 83FFFFD7 		.ascii	"\203\377\377\327]j\333r\206q\026\023H\214\225\241\245"
  98      5D6ADB72 
ARM GAS  /tmp/ccYNSMKJ.s 			page 7


  98      86711613 
  98      488C95A1 
  98      A5
  99 0039 A1618202 		.ascii	"\241a\202\002\003C2XE\010\230\014\005\351g>\317\320"
  99      03433258 
  99      4508980C 
  99      05E9673E 
  99      CFD0
 100 004b FC60F561 		.ascii	"\374`\365a\366D\306\205\214\254@\301j\206_\015\035\015"
 100      F644C685 
 100      8CAC40C1 
 100      6A865F0D 
 100      1D0D
 101 005d 02998C40 		.ascii	"\002\231\214@\245\020\3232A\364E\206\306\007k\224a\212"
 101      A510D332 
 101      41F44586 
 101      C6076B94 
 101      618A
 102 006f 20200424 		.ascii	"  \004$\001r\244\256\236\236\276sFfR\246\177\260~~\261"
 102      0172A4AE 
 102      9E9EBE73 
 102      466652A6 
 102      7FB07E7E 
 103 0084 7E51897E 		.ascii	"~Q\211~A~QI\261\276c\220\257\263o\205~rFr~Qj|Ifnj\221"
 103      417E5149 
 103      B1BE6390 
 103      AFB36F85 
 103      7E724672 
 104 00a1 5E060300 		.ascii	"^\006\003\000V\345*\324"
 104      56E52AD4 
 105              		.text
 106              		.section	.gnu.lto__vt_init.9b8d12705c3a89c2,"",%progbits
 107 0000 789C6362 		.ascii	"x\234cb`b@\007\"@,\012\024\226\003q\230\031\030\201"
 107      60624007 
 107      22402C0A 
 107      14960371 
 107      98191881 
 108 0014 4C462646 		.ascii	"LF&FF \207\221\241\236\211\261>\222\021\254l=\323\201"
 108      46208791 
 108      A19E89B1 
 108      3E9211AC 
 108      6C3DD381 
 109 0028 07FFFFAF 		.ascii	"\007\377\377\257\373\265\365a?\243 H\210\225\241\245"
 109      FBB5F561 
 109      3FA32048 
 109      8895A1A5 
 110 0038 A1618202 		.ascii	"\241a\202\002\003C2XA\010\230\014\005ig>\313\320\364"
 110      03433258 
 110      4108980C 
 110      0569673E 
 110      CBD0F4
 111 004b ABF9FF6B 		.ascii	"\253\371\377k\246D\306\205\214\254\014\332\014\253\032"
 111      A644C685 
 111      8CAC0CDA 
 111      0CAB1A
 112 005a 80C03293 		.ascii	"\200\3002\223\021\306\344\316dd\234\3150\253\261\241"
 112      11C6E4CE 
ARM GAS  /tmp/ccYNSMKJ.s 			page 8


 112      64649CCD 
 112      30ABB1A1 
 113 006a 41209391 		.ascii	"A \223\221\251\232\341WC\007\210\305\234\0136#\202\021"
 113      A99AE157 
 113      430788C5 
 113      9C0B3623 
 113      8211
 114 007c C804DB99 		.ascii	"\310\004\333\231\004\261\032HC\030\020\225\015[\201"
 114      04B11A48 
 114      43181095 
 114      0D5B81
 115 008b 0A58A046 		.ascii	"\012X\240F\355\006\262\031\201\372`J\301\000l\377\342"
 115      ED06B219 
 115      81FA604A 
 115      C1006CFF 
 115      E2
 116 009c 1E5DEAD9 		.ascii	"\036]\352\331\317D\252\375;v<\372\200\341\177V\262\355"
 116      CF44AAFD 
 116      3B763CFA 
 116      80E17F56 
 116      B2ED
 117 00ae 87F04132 		.ascii	"\207\360A2l\377\201\200\037f\311\343\023\314\324\263"
 117      6CFF8180 
 117      1F66C9E3 
 117      13CCD4B3 
 118 00be 84056109 		.ascii	"\204\005a\011\210q\221\241\361A\2772\304x\030\010\001"
 118      887191A1 
 118      F141BF32 
 118      C4781808 
 118      01
 119 00cf C5042830 		.ascii	"\305\004(0d\364\364\364\23532\2232\375\203\365\363\213"
 119      64F4F4F4 
 119      9D333293 
 119      32FD83F5 
 119      F38B
 120 00e1 F58B4AF4 		.ascii	"\365\213J\364\213\213\222\365\2233\312J\364\222\031"
 120      8B8B92F5 
 120      9333CA4A 
 120      F49219
 121 00f0 00FDFD86 		.ascii	"\000\375\375\206\345"
 121      E5
 122              		.text
 123              		.section	.gnu.lto_chVTDoSetI.9b8d12705c3a89c2,"",%progbits
 124 0000 789CAD57 		.ascii	"x\234\255W[h\024W\030>\377\231\331\235\235\275\346\346"
 124      5B681457 
 124      183EFF99 
 124      D99D9DBD 
 124      E6E6
 125 0012 25175BEB 		.ascii	"%\027[\353KQKB\011}\310\223\017}\352S[j\320>&kY\027"
 125      4B514B42 
 125      097DC893 
 125      0F7DEA53 
 125      5B6AD03E 
 126 002a 8C160D2D 		.ascii	"\214\026\015-E\212\263\356\2026\265MZ\243\304jA\013"
 126      458AB3EE 
 126      8236B54D 
 126      5AA3C46A 
ARM GAS  /tmp/ccYNSMKJ.s 			page 9


 126      410B
 127 003c D552C1D4 		.ascii	"\325R\301\324\204\322\015TX\241\340f\227\222\206\"M"
 127      84D20D54 
 127      58A1E066 
 127      97928622 
 127      4D
 128 004d A4D0501B 		.ascii	"\244\320P\033\033\241\224\006\213\256I\315\364?g\316"
 128      1BA19406 
 128      8BAE49CD 
 128      F43F67CE 
 129 005d 99CC5E4C 		.ascii	"\231\314^L&\253\007\362\237\2353\377\367\375\327\363"
 129      26AB07F2 
 129      9F9D33FF 
 129      F7FDD7F3 
 130 006d EF86124A 		.ascii	"\357\206\022JJ\327{\370\327\035!d\033{\010\023@\015"
 130      4AD77BF8 
 130      D71D2164 
 130      1B7B0813 
 130      400D
 131 007f A0A0A054 		.ascii	"\240\240\240T\250J\210A=(T\025p\003\017\365\262\023"
 131      A84A8841 
 131      3D285415 
 131      70030FF5 
 131      B213
 132 0091 8D9D7821 		.ascii	"\215\235x!\204'\032\365\261\023\235\235\370\0007\320"
 132      84271AF5 
 132      B1139D9D 
 132      F80037D0 
 133 00a1 2180D2CF 		.ascii	"!\200\322\317e\200\372\331\333 {\033\344\372!\0004\003"
 133      6580FAD9 
 133      DB207B1B 
 133      E4FA2100 
 133      3403
 134 00b3 E4085554 		.ascii	"\344\010UT\217W\363\351\376@0\004G\336d\247\244a\013"
 134      8F57F3E9 
 134      FE403004 
 134      47DE64A7 
 134      A4610B
 135 00c6 B960189F 		.ascii	"\271`\030\237\316|\271X\240g\0063\251\363\306\177\246"
 135      CE7CB958 
 135      A0670633 
 135      A9F3C67F 
 135      A6
 136 00d7 0910672F 		.ascii	"\011\020g/\243@v\343'\330\3147\346\231sY\300\314\311"
 136      A34076E3 
 136      27D8CC37 
 136      E6997359 
 136      C0CCC9
 137 00ea DCA5C6BE 		.ascii	"\334\245\306\276\363G\007\214%\304\305Y\020n`\306\342"
 137      F347078C 
 137      25C4C559 
 137      106E60C6 
 137      E2
 138 00fb 1FAF658D 		.ascii	"\037\257e\215T\3064w\270\306d\256\346\006\2531ufv\355"
 138      54C63477 
 138      B8C664AE 
 138      E606AB31 
ARM GAS  /tmp/ccYNSMKJ.s 			page 10


 138      756676ED 
 139 010f A646FB3E 		.ascii	"\246F\373>w\232r\231\014\343T\025\246\306r\027\253\211"
 139      779A7299 
 139      0CE35415 
 139      A6C67217 
 139      AB89
 140 0121 EA411509 		.ascii	"\352A\025\011\234\317\365Wa*\363[\356\243j`\217r\247"
 140      9CCFF557 
 140      612AF35B 
 140      EEA36A60 
 140      8F72A7
 141 0134 ABC9E123 		.ascii	"\253\311\341#G`.1\031\263/\177\001\020\233\370\3074"
 141      47602E31 
 141      19B32F7F 
 141      01109BF8 
 141      C734
 142 0146 23EE6167 		.ascii	"#\356ag\363\325\344\303\030\371\312\320\371=Q\334'\343"
 142      F3D5E4C3 
 142      18F9CAD0 
 142      F93D51DC 
 142      27E3
 143 0158 E4B1D38D 		.ascii	"\344\261\323\215\206#\031\224<\013\356\220\247n|\354"
 143      86231994 
 143      3C0BEE90 
 143      A76E7CEC 
 144 0168 44AA943C 		.ascii	"D\252\224<\267\032\262\007\354\346\272\321_\002~~5\360"
 144      B71AB207 
 144      ECE6BAD1 
 144      5F027E7E 
 144      35F0
 145 017a 30CDCC98 		.ascii	"0\315\314\230\346\211\261\177\177\237\200\272g\000\311"
 145      E689B17F 
 145      7F9F80BA 
 145      6700C9
 146 0189 703E75C1 		.ascii	"p>u\301U\330B\024\334GqW\241\007\250\007\205\342E\241"
 146      55D84214 
 146      DC477157 
 146      A107A807 
 146      85E245A1 
 147 019d 6A78FC2D 		.ascii	"jx\374-\036\373\360\001\347\021\012?\301\020\003(\224"
 147      1EFBF001 
 147      E7110A3F 
 147      C1100328 
 147      94
 148 01ae 20132126 		.ascii	" \023!&\302LD\004C\015S\250e'uL\3243\321 \254\254c\017"
 148      C24C4404 
 148      430D53A8 
 148      6527754C 
 148      D433D120 
 149 01c6 EB99D820 		.ascii	"\353\231\330 \2647\2127\215\014\325\304D3\023-Lg\023"
 149      B4378A37 
 149      8D0CD5C4 
 149      4433132D 
 149      4C6713
 150 01d9 E145201E 		.ascii	"\341E \036\2222\214\201\315\226\242\005\353\021\215"
 150      92328C81 
 150      CD96A205 
ARM GAS  /tmp/ccYNSMKJ.s 			page 11


 150      EB118D
 151 01e8 806BA790 		.ascii	"\200k\247\2208i\225N\246\257\374H\216\346\013\367\012"
 151      3869954E 
 151      A6AFFC48 
 151      8EE60BF7 
 151      0A
 152 01f9 D005DFE1 		.ascii	"\320\005\337\341\234\335N\2766p\205\342\3409K>\303\254"
 152      9CDD4EBE 
 152      367085E2 
 152      E0394B3E 
 152      C3AC
 153 020b 7863A0EE 		.ascii	"xc\240\356\266\272\026W\267\330cl$3\344\320\375\014"
 153      B6BA1657 
 153      B7D8636C 
 153      2433E4D0 
 153      FD0C
 154 021d 2D456A95 		.ascii	"-Ej\225\221 \2208\306'Hr\346\327\333\232\355*K\032!"
 154      91209038 
 154      C6274872 
 154      E6D7DB9A 
 154      ED2A4B1A 
 155 0232 160FD7D1 		.ascii	"\026\017\327\321\016\223\005\343\270Q\023\007_T\000"
 155      0E9305E3 
 155      B8511307 
 155      5F5400
 156 0241 E36CC267 		.ascii	"\343l\302gI\352\316\365\311c\301.\370\036Uc\340c\006"
 156      49EACEF5 
 156      C963C12E 
 156      F81E5563 
 156      E06306
 157 0254 547054AD 		.ascii	"TpT\255\023T+\250tza\016\244\236\316\364\024j\353x,"
 157      13542BA8 
 157      747A610E 
 157      A49ECEF4 
 157      146AEB78 
 158 0269 9D5BE9C5 		.ascii	"\235[\351\305\254&u\374\333\3116\364V\304q\023\001~"
 158      AC2675FC 
 158      DBC936F4 
 158      56C47113 
 158      017E
 159 027b 0C246130 		.ascii	"\014$a0/\002\266?\301\036\356#\343\013\212\300\250\330"
 159      2F02B63F 
 159      C11EEE23 
 159      E30B8AC0 
 159      A8D8
 160 028d 15419F25 		.ascii	"\025A\237%?\374\231x\321\246\265\240F{\034B\202\273"
 160      3FFC9978 
 160      D1A6B5A0 
 160      467B1C42 
 160      82BB
 161 029f 03A99146 		.ascii	"\003\251\221F\"\035k\232\000\006\245\240\320\325s\327"
 161      221D6B9A 
 161      0006A5A0 
 161      D0D573D7 
 162 02af 7A99AB5E 		.ascii	"z\231\253^\313\325\361\364\322\234bq\012\226\3271r\361"
 162      CBD5F1F4 
 162      D29C6271 
ARM GAS  /tmp/ccYNSMKJ.s 			page 12


 162      0A96D731 
 162      72F1
 163 02c1 B17DCDBE 		.ascii	"\261}\315\276\252\242\030\232U\306\251\245l\0319\251"
 163      AAA2189A 
 163      55C6A9A5 
 163      6C1939A9 
 164 02d1 9A5C11E4 		.ascii	"\232\\\021\344\252E^x\252\344\236\"\362\205\344\275"
 164      AA455E78 
 164      AAE49E22 
 164      F285E4BD 
 165 02e1 FE178AC8 		.ascii	"\376\027\212\310_B\362\312\015\350\345\273(\307(,\327"
 165      5F42F2CA 
 165      0DE8E5BB 
 165      28C7282C 
 165      D7
 166 02f2 630C2A14 		.ascii	"c\014*\024\204\223?pM\256\255\225<?e\316\321Rr\2652"
 166      84933F70 
 166      4DAEAD95 
 166      3C3F65CE 
 166      D15272B5 
 167 0307 B94FC40C 		.ascii	"\271O\304\014\034y+\375\305CU\266W\200w\255l\204O\326"
 167      1C792BFD 
 167      C54355B6 
 167      578077AD 
 167      6C844FD6 
 168 031b DEB5AAED 		.ascii	"\336\265\252\355R\362x\362\276}c\202H\315\015N\020a"
 168      52F278F2 
 168      BE7D6382 
 168      48CD0D4E 
 168      1061
 169 032d 4B468774 		.ascii	"KF\207t\341\250\200\243^\034\"\362Vi\274U\221\346\366"
 169      E1A880A3 
 169      5E1C22F2 
 169      5669BC55 
 169      91E6F6
 170 0340 E056C913 		.ascii	"\340V\311\023\302\036\263\035\037\250\227\307\341\""
 170      C21EB31D 
 170      1FA897C7 
 170      E122
 171 034e B70F3F89 		.ascii	"\267\017?\211\327\037$\367K\326\010\267\027\026Y\272"
 171      D71F24F7 
 171      4BD608B7 
 171      171659BA 
 172 035e 38A9C817 		.ascii	"8\251\310\0275Ew{W\325W\233\361\376T'Yk\255 \354\232"
 172      3545777B 
 172      57D5579B 
 172      F1FE5427 
 172      596BAD20 
 173 0374 D594D78C 		.ascii	"\325\224\327\214O\203;\313\323\2406&\323e\245\314'\006"
 173      4F833BCB 
 173      D3A03626 
 173      D365A5CC 
 173      2706
 174 0386 D1D0A5BB 		.ascii	"\321\320\245\273vI\353\212r\363\376\223U\364o\273\242"
 174      7649EB8A 
 174      72F3FE93 
 174      55F46FBB 
ARM GAS  /tmp/ccYNSMKJ.s 			page 13


 174      A2
 175 0397 F5C8CCAD 		.ascii	"\365\310\314\255?\246\242\362\326\326;*\252\013\367"
 175      3FA6A2F2 
 175      D6D63B2A 
 175      AA0BF7
 176 03a6 A62E6FB5 		.ascii	"\246.o\265\246s\014\032\236\336\204\220V\3742\011W\036"
 176      A6730C1A 
 176      9EDE8490 
 176      56FC3209 
 176      571E
 177 03b8 8234B3BE 		.ascii	"\2024\263\276$\267\264Rne\365-\310\206\030(\010\024"
 177      24B7B452 
 177      6E65F52D 
 177      C8861828 
 177      0814
 178 03ca D5BFD221 		.ascii	"\325\277\322!\3177V\272\274\264|2Hw\002\302\235\302"
 178      CF3756BA 
 178      BCB47C32 
 178      487702C2 
 178      9DC2
 179 03dc E569DB9D 		.ascii	"\345i\333\235un\334\301R\317&\332mHl9\314iB1s\372_7"
 179      756EDCC1 
 179      52CF26DA 
 179      6D486C39 
 179      CC694231 
 180 03f4 1BD01DFF 		.ascii	"\033\320\035\377\271_Z\246\011\272\032\321O\374\274"
 180      B95F5AA6 
 180      09BA1AD1 
 180      4FFCBC
 181 0403 0FFDF6A7 		.ascii	"\017\375\366\247v1\273A9\351\207\257\227}\247\2568\322"
 181      7631BB41 
 181      39E987AF 
 181      977DA7AE 
 181      38D2
 182 0415 622CAFBC 		.ascii	"b,\257\274L\303w\2514\337h\265\374J8\321\317\021\011"
 182      4CC377A9 
 182      34DF68B5 
 182      FC4A38D1 
 182      CF1109
 183 0428 692A8134 		.ascii	"i*\2014\226\0178\016\031\037\360\273\364O\023\3765Y"
 183      960F380E 
 183      191FF0BB 
 183      F44F13FE 
 183      3559
 184 043a A6E686ED 		.ascii	"\246\346\206\355\2046\257\344\236\303V\376\233p\221"
 184      8436AFE4 
 184      9EC356FE 
 184      9B7091
 185 0449 AD1D4E50 		.ascii	"\255\035NPs\245\\\210o\235\241\221\371\342\3374\372"
 185      73A55C88 
 185      6F9DA191 
 185      F9E2DF34 
 185      FA
 186 045a 63CBAF15 		.ascii	"c\313\257\025!\307\323#\343e\371_e0+\242\351F\227\033"
 186      21C7D323 
 186      E365F95F 
 186      65302BA2 
ARM GAS  /tmp/ccYNSMKJ.s 			page 14


 186      E946971B 
 187 046e B8C502D7 		.ascii	"\270\305\002\327\270jbE\2426!P\322\275\342tb5\036\204"
 187      B86A6245 
 187      A2362150 
 187      D2BDE274 
 187      62351E84 
 188 0482 72507A6A 		.ascii	"rPzjt\276\330\373\216\345Y\022X\363E\325\371\316\177"
 188      74BED8FB 
 188      8EE55912 
 188      58F345D5 
 188      F9CE7F
 189 0495 3D99B8E4 		.ascii	"=\231\270\344\354\352d\377P+y\222@\343{X\346'Ib\346"
 189      ECEA64FF 
 189      502B7992 
 189      40E37B58 
 189      E6274962 
 190 04aa C3599073 		.ascii	"\303Y\220s\305Z;\331\334gL-\255\255m/\357\215w\307_"
 190      C55A3BD9 
 190      DC674C2D 
 190      ADAD6D2F 
 190      EF8D77C7 
 191 04bf 7DA3EDC0 		.ascii	"}\243\355\300\241\266\203\275m\207\016F\333\242{\337"
 191      A1B683BD 
 191      6D870E46 
 191      DBA27BDF 
 192 04cf E96D8D12 		.ascii	"\351m\215\022x\333\263\347\255}\275]\312\376\003\357"
 192      78DBB3E7 
 192      AD7DBD5D 
 192      CAFE03EF 
 193 04df FE0FCBA4 		.ascii	"\376\017\313\244dU"
 193      6455
 194              		.text
 195              		.section	.gnu.lto_chVTDoResetI.9b8d12705c3a89c2,"",%progbits
 196 0000 789CBD56 		.ascii	"x\234\275VMlTU\024\276\347\375\314\377oK)\323\037:\355"
 196      4D6C5455 
 196      14BEE7FD 
 196      CCFF6F4B 
 196      29D31F3A 
 197 0015 CA48EC84 		.ascii	"\312H\354\204\030\027\304\205\013W\2564\241\223\200"
 197      1817C485 
 197      0B57AE34 
 197      A19380
 198 0024 AECA54CB 		.ascii	"\256\312T\313$T\222Ru\341\202W\246Q0:S\215\021\260\376"
 198      24549252 
 198      75E18257 
 198      A651303A 
 198      538D11B0 
 199 0039 60A28931 		.ascii	"`\242\2111&\022]Xb Sc\"\304X\234\270\320\"\204\326@"
 199      26125D58 
 199      62205363 
 199      22C4589C 
 199      B8D02284 
 200 004f 1BD120EA 		.ascii	"\033\321 \352\306\026\351\363\234;\357\336\367\2463"
 200      C616E9F3 
 200      9C3BEFDE 
 200      F7A633
 201 005e 9437AF84 		.ascii	"\2247\257\204\227\364\274\3333\367;\277\337\271\367"
ARM GAS  /tmp/ccYNSMKJ.s 			page 15


 201      97F4BCDB 
 201      33F73BBF 
 201      DFB9F7
 202 006d 294C616B 		.ascii	")Lak\237\227\360\357\267$c\017\320?q\006\270\003\024"
 202      9F97F0EF 
 202      B724630F 
 202      D03F7106 
 202      B80314
 203 0080 5051AA8A 		.ascii	"PQ\252\212\306\230\241\370Qh\232\242\323\332Gk\035\360"
 203      C698A1F8 
 203      51689AA2 
 203      D3DA476B 
 203      1DF0
 204 0092 053E88A1 		.ascii	"\005>\210\241\364+\001\322\007I\037\340\232\240\022"
 204      F42B01D2 
 204      07491FE0 
 204      9AA012
 205 00a1 224D9834 		.ascii	"\"M\2304!\256\011+\021\322DI\023\001|A\224\353c\000"
 205      21AE092B 
 205      11D24449 
 205      13017C41 
 205      94EB6300 
 206 00b5 E812D841 		.ascii	"\350\022\330AE\325t\237?\020\014\205#\321\030\034\334"
 206      45D5749F 
 206      3F100C85 
 206      23D1181C 
 206      DC
 207 00c6 4D6A96EE 		.ascii	"Mj\226\356c\037\030\306\033\363\037}u<\365\312\211C"
 207      631F18C6 
 207      1BF31F7D 
 207      753CF5CA 
 207      8943
 208 00d8 93C6AA69 		.ascii	"\223\306\252iB\236~\312\001\333\205+H\363\027\005\351"
 208      429E7ECA 
 208      01DB852B 
 208      48F31705 
 208      E9
 209 00e9 7CAAB0F2 		.ascii	"|\252\260\362\027\3057\2350\325%\354\313\342\253\036"
 209      17C5379D 
 209      30D525EC 
 209      CBE2AB1E 
 210 00f9 60C6EB57 		.ascii	"`\306\353W\2378kL\224M\363\021\367\256N\335;W\225\331"
 210      9F386B4C 
 210      944DF311 
 210      F7AE4EDD 
 210      3B5795D9 
 211 010d A35E8AF1 		.ascii	"\243^\212\361c\3615/\021~\376\261\021<a\374g\232\252"
 211      63F1352F 
 211      117EFEB1 
 211      113C61FC 
 211      679AAA
 212 0120 7BCCAD2B 		.ascii	"{\314\255+vV\232K\314\361\253\315c<\370)_.\276\353\245"
 212      76569A4B 
 212      CCF1ABCD 
 212      633CF829 
 212      5F2EBEEB 
 213 0135 7A7F158B 		.ascii	"z\177\025\213^`\313\263oy\201\035-y\361\346\251W\246"
ARM GAS  /tmp/ccYNSMKJ.s 			page 16


 213      5E60CBB3 
 213      6F79811D 
 213      2D79F1E6 
 213      A957A6
 214 0148 875E4D79 		.ascii	"\207^My\350\225\007?\345S\245\017\235ep\353\352t\363"
 214      E895073F 
 214      E553A50F 
 214      9D6570EB 
 214      EA74F3
 215 015b E1952BA5 		.ascii	"\341\225+\245\367\274T\334\003k\313\277\224\274p\302"
 215      F7BC54DC 
 215      036BCBBF 
 215      94BC70C2 
 216 016b 58F650C0 		.ascii	"X\366P\300\233\347\357U\001\215\313\315\2047\002\"\302"
 216      9BE7EF55 
 216      018DCBCD 
 216      84370222 
 216      C2
 217 017c A9D962CA 		.ascii	"\251\331b\312\260#\324\025\326\003.\035\016I\177\210"
 217      B023D415 
 217      D6032E1D 
 217      0E497F88 
 218 018c BAEF4EA8 		.ascii	"\272\357N\250\317\224\362\274i\276s\351\312\257&\264"
 218      CF94F2BC 
 218      69BE73E9 
 218      CAAF26B4 
 219 019c F6011B84 		.ascii	"\366\001\033\2042\364\341\015\212\015Pa\0040f\\\351"
 219      32F4E10D 
 219      8A0D5061 
 219      0430665C 
 219      E9
 220 01ad 247C24FC 		.ascii	"$|$\374$\002$\202$B$\302(\264\010\211(\211\030\351\342"
 220      24022482 
 220      244224C2 
 220      28B40889 
 220      288918E9 
 221 01c2 24122492 		.ascii	"$\022$\222$ZH\264\322\257\233H\264\221\330L\242\235"
 221      245A48B4 
 221      D2AF9B48 
 221      B491D84C 
 221      A29D
 222 01d4 C416F47A 		.ascii	"\304\026\364z\006\275\246hW\007i:i\325E\253n+\242\255"
 222      06BDA668 
 222      5707693A 
 222      69D545AB 
 222      6E2BA2AD 
 223 01e8 D6BB8794 		.ascii	"\326\273\207\224i\022\275\214W\224\351l\3020&\323#`"
 223      6912BD8C 
 223      5794E96C 
 223      C23026D3 
 223      2360
 224 01fa 59A9EEE3 		.ascii	"Y\251\356\343\245\306g\300\222x\343\253Y\"\225\372="
 224      A5C667C0 
 224      9278E3AB 
 224      592295FA 
 224      3D
 225 020b 3B74617A 		.ascii	";tazqF\031\204\257Ag\303\240lc\367\243\267m\354\023"
ARM GAS  /tmp/ccYNSMKJ.s 			page 17


 225      71461984 
 225      AF4167C3 
 225      A06C63F7 
 225      A3B76DEC 
 226 0220 039F07F3 		.ascii	"\003\237\007\363\340\233bo\217\033F\"\017\376\027\331"
 226      E09B626F 
 226      8F1B4622 
 226      0FFE17D9 
 227 0230 8A719856 		.ascii	"\212q\230V\201\021\262\300+\030\340u\333\003\314z[\013"
 227      8111B2C0 
 227      2B18E075 
 227      DB03CC7A 
 227      5B0B
 228 0242 76964DFC 		.ascii	"v\226M\3741\036\225V\207\311\231x\262\024)\367\374\357"
 228      311E9556 
 228      87C99978 
 228      B21429F7 
 228      FCEF
 229 0254 E20C883D 		.ascii	"\342\014\210=Z\3253\272C\263A\004\354\252\362\236\233"
 229      5AD533BA 
 229      43B34104 
 229      ECAAF29E 
 229      9B
 230 0265 151F3104 		.ascii	"\025\0371\004\232l\021\020}=\210jC\316\335\210U!VZ;"
 230      9A6C1110 
 230      7D3D886A 
 230      43CEDD88 
 230      5521565A 
 231 027a 9D20AD1E 		.ascii	"\235 \255\036\204\226\253\256\216-\331\361\371\\:s\304"
 231      8496ABAE 
 231      8E2DD9F1 
 231      F95C3A73 
 231      C4
 232 028b E77799D2 		.ascii	"\347w\231\322\272\361\371\352Ah\231\343\246\247\227"
 232      BAF1F9EA 
 232      416899E3 
 232      A6A797
 233 029a 2A4A0D72 		.ascii	"*J\015r{\036B\215\335U\231N\232\220\010\364\330\265"
 233      7B1E428D 
 233      DD55994E 
 233      9A9008F4 
 233      D8B5
 234 02ac 399F0835 		.ascii	"9\237\0105\340&;\336\324\355\022R\345\003\221$l\271"
 234      E0263BDE 
 234      D4ED1252 
 234      E5039124 
 234      6CB9
 235 02be DF817C41 		.ascii	"\337\201|An\010:\324<Y*j\225o\327*\262\252A\227U}R\000"
 235      6E083AD4 
 235      3C592A6A 
 235      956FD72A 
 235      B2AA4197 
 236 02d6 426EDBF0 		.ascii	"Bn\333\360C\\@\254\350\220\270\272\204\205\2340\335"
 236      435C40AC 
 236      E890B8BA 
 236      84859C30 
 236      DD
ARM GAS  /tmp/ccYNSMKJ.s 			page 18


 237 02e7 D9BD5601 		.ascii	"\331\275V\001\213pOzcO6\244p\270\260\"\323\211\2427"
 237      8B704F7A 
 237      634F36A4 
 237      70B8B022 
 237      D389A237 
 238 02fb 4472538F 		.ascii	"DrS\2179;S\343<Xoi\230\276\222\351\031\240Om\034N\277"
 238      393B53E3 
 238      3C586F69 
 238      98BE92E9 
 238      19A04F6D 
 239 0312 1891DF2B 		.ascii	"\030\221\337+\252\260\036s\313\367\223\341\032V\354"
 239      AAB01E73 
 239      CBF793E1 
 239      1A56EC
 240 0321 B0273AEC 		.ascii	"\260':\354q\242\207\351\373\235\223\346\372\202\314"
 240      71A287E9 
 240      FB9D93E6 
 240      FA82CC
 241 0330 365E7358 		.ascii	"6^sXx5\315\355\256\310\"Z\326v;\023\215\327\317\200"
 241      7835CDED 
 241      AEC8225A 
 241      D6763B13 
 241      8DD7CF80 
 242 0344 45BE9FC0 		.ascii	"E\276\237\300f\337%h@?>&\327gj\307$\332\324\230\374"
 242      66DF2568 
 242      403F3E26 
 242      D7676AC7 
 242      24DAD498 
 243 0359 B92CC724 		.ascii	"\271,\307$Q\223q\0056p>~\263d\237\217\011+\233\270\235"
 243      51937105 
 243      36703E7E 
 243      B3649F8F 
 243      092B9BB8 
 244 036e CC43EB8E 		.ascii	"\314C\353\216\022\232U\317\263\302\374\351o\255\223"
 244      129A55CF 
 244      B3C2FCE9 
 244      6FAD93
 245 037d 431404BD 		.ascii	"C\024\004\275Gr\226\227\274\340T\026\202\202M\177\333"
 245      47729697 
 245      BCE05416 
 245      82824D7F 
 245      DB
 246 038e DD4BDEBD 		.ascii	"\335K\336\275\356]\230\364\013\253-w\321\352\0159\302"
 246      EE5D98F4 
 246      0BAB2D77 
 246      D1EA0D39 
 246      C2
 247 039f AD0DA6A8 		.ascii	"\255\015\246\250\345v#|R\216\360&\327#\274*\313\322"
 247      E576237C 
 247      528EF026 
 247      D723BC2A 
 247      CBD2
 248 03b1 86DE1079 		.ascii	"\206\336\020y\207\021N6\032\3416\306\250)\027_\2267"
 248      87114E36 
 248      1AE136C6 
 248      A829175F 
 248      9637
ARM GAS  /tmp/ccYNSMKJ.s 			page 19


 249 03c3 C0669972 		.ascii	"\300f\231r,g\0217\017q\353\200j\027\273\332\253aZ5{"
 249      2C671137 
 249      0F71EB80 
 249      6A17BBDA 
 249      AB615A35 
 250 03d8 BF7956F9 		.ascii	"\277yV\371\354T\216\024F\205\331-\350\037\215[,^Y\220"
 250      EC548E14 
 250      4685D92D 
 250      E81F8D5B 
 250      2C5E5990 
 251 03ec E748AAA6 		.ascii	"\347H\252\246GOm\254\363\262\330\035k\212\235jTl\274"
 251      474F6DAC 
 251      F3B2D81D 
 251      6B8A9D6A 
 251      546CBC
 252 03ff 42166DDE 		.ascii	"B\026m\336w`\2206\255\007h\346\360\350\013\213{\342"
 252      77609036 
 252      AD0768E6 
 252      F0E80B8B 
 252      7BE2
 253 0411 E682FC2E 		.ascii	"\346\202\374.\351\254\011\371\341\215\205,i\325\265"
 253      E9AC09F9 
 253      E18D852C 
 253      69D5B5
 254 0420 26E4CEDB 		.ascii	"&\344\316\333\360\343H\341\031\001\351F\024\217\232"
 254      F0E348E1 
 254      1901E946 
 254      148F9A
 255 042f 3299F9A7 		.ascii	"2\231\371\247$\213\332MX\3359\256Y\272\010(\223\351"
 255      248BDA4D 
 255      58DD39AE 
 255      59BA0828 
 255      93E9
 256 0441 9F57E724 		.ascii	"\237W\347$\277\266\322>M\221{\242\"[\363\234&\366\364"
 256      BFB6D23E 
 256      4D917BA2 
 256      225BF39C 
 256      26F6F4
 257 0454 D410E2B9 		.ascii	"\324\020\342\271\215\360\001o'Y\3044Z\346\261s\375\031"
 257      8DF0016F 
 257      2759C434 
 257      5AE6B173 
 257      FD19
 258 0466 19522FFF 		.ascii	"\031R/\377\011\210\275Z\335q\222\310\311\257\242\336"
 258      0988BD5A 
 258      DD7192C8 
 258      C9AFA2DE 
 259 0476 3C246935 		.ascii	"<$i5\307\000\363\015_\2745\204\351D>5\367Q\036x?\250"
 259      C700F30D 
 259      5FBC3584 
 259      E9443E35 
 259      F7511E78 
 260 048c DFB1710C 		.ascii	"\337\261q\014e\210\000\025\276\264[\213\326)\332\256"
 260      65880015 
 260      BEB45B8B 
 260      D629DAAE 
 261 049c FEFECCA3 		.ascii	"\376\376\314\243{\363{\362\217\357\314\354?\220\031"
ARM GAS  /tmp/ccYNSMKJ.s 			page 20


 261      7BF37BF2 
 261      8FEFCCEC 
 261      3F9019
 262 04ab 1DCB1C18 		.ascii	"\035\313\034\030\315er{\237\037\353\317\261\300\263"
 262      CD65727B 
 262      9F1FEBCF 
 262      B1C0B3
 263 04ba FB5F187A 		.ascii	"\373_\030zz\337\330\240\316\345\377\263\012\334\327"
 263      7ADFD8A0 
 263      CEE5FFB3 
 263      0ADCD7
 264              		.text
 265              		.section	.gnu.lto_.symbol_nodes.9b8d12705c3a89c2,"",%progbits
 266 0000 789C4DCD 		.ascii	"x\234M\315=\016\202@\020\206\341\371fw\225\037+/\340"
 266      3D0E8240 
 266      1086E1F9 
 266      6677951F 
 266      2B2FE0
 267 0013 D93CC947 		.ascii	"\331<\311G\260\220\012\2600\366^\300;x\000KkCM\343O"
 267      B0900AB0 
 267      30F65EC0 
 267      3B78004B 
 267      6B434DE3 
 268 0028 34364670 		.ascii	"46Fp\211\3544o\236)fTT\346\020?Z\200\"\365I\204\334"
 268      89EC346F 
 268      9E296654 
 268      54E6103F 
 268      5A8022F5 
 269 003f 164BDD80 		.ascii	"\026K\335\200\010x\0005`\011\232\2005h\003V\240\013"
 269      08780035 
 269      60099A80 
 269      35680356 
 269      A00B
 270 0051 78052703 		.ascii	"x\005'\003\317\005\334\243{I\321\0338\035\267z\007\243"
 270      CF05DCA3 
 270      7B49D11B 
 270      381DB77A 
 270      07A3
 271 0063 917882B1 		.ascii	"\221x\202\261g\226\001/0\031\365\006\323\277Lw-\277"
 271      6796012F 
 271      3019F506 
 271      D3BF4C77 
 271      2DBF
 272 0075 7C6014BE 		.ascii	"|`\024\276&\221U_\233\372\272\231o\244r\374\325H\263"
 272      2691555F 
 272      9BFABA99 
 272      6FA472FC 
 272      D548B3
 273 0088 6E1726B2 		.ascii	"n\027&\262\222\227]c7T\245\251\372Z\331\357\332\205"
 273      92975D63 
 273      3754A5A9 
 273      FA5AD9EF 
 273      DA85
 274 009a 7C012D7A 		.ascii	"|\001-zV\214"
 274      568C
 275              		.text
 276              		.section	.gnu.lto_.refs.9b8d12705c3a89c2,"",%progbits
ARM GAS  /tmp/ccYNSMKJ.s 			page 21


 277 0000 789C6362 		.ascii	"x\234cb`bpg\200\00066Fv&v\010fd\347\345`\200\262@\""
 277      60627067 
 277      80003636 
 277      46762676 
 277      086664E7 
 278 001a 4CEC0C70 		.ascii	"L\354\014p\010\224\343\204\3101\200\305\221\345\200"
 278      0894E384 
 278      C83180C5 
 278      91E580
 279 0029 10004485 		.ascii	"\020\000D\205\001|"
 279      017C
 280              		.text
 281              		.section	.gnu.lto_.decls.9b8d12705c3a89c2,"",%progbits
 282 0000 789CBD5B 		.ascii	"x\234\275[\011p\324V\232\226\324v\333m\033\360\220!"
 282      0970D456 
 282      9A96D476 
 282      DB6D1BF0 
 282      9021
 283 0012 C5CEB285 		.ascii	"\305\316\262\20535g2`\256I\310\036\011\031\223J\330"
 283      33356732 
 283      60AE49C8 
 283      1E091993 
 283      4AD8
 284 0024 1D48CA30 		.ascii	"\035H\3120[TM\355\366\210\266\260{\342v\367\250e\216"
 284      5B544DED 
 284      F688B6B0 
 284      7BE276F7 
 284      A8658E
 285 0037 DAAD1A61 		.ascii	"\332\255\032as\016\227\271\2170`\223\000\0115\0200\307"
 285      730E97B9 
 285      8F306093 
 285      00093510 
 285      30C7
 286 0049 60708860 		.ascii	"`p\210`\011\347\020\014&\330\230\3008\023\010\220\203"
 286      09E7100C 
 286      26D898C0 
 286      38130890 
 286      83
 287 005a 33640D2C 		.ascii	"3d\015,x\377\367?\251\373I\226\332\222\311\214\252\336"
 287      78FFF73F 
 287      A9FB4996 
 287      DA92C98C 
 287      AADE
 288 006c EB27E9BD 		.ascii	"\353'\351\275\357\375\327\373\377_Oj\201\023\270\"\037"
 288      EFFDD7FB 
 288      FF5F4F6A 
 288      8113B822 
 288      1F
 289 007d C7B5C3F1 		.ascii	"\307\265\303\361_/p\334\250L\216\313\3428\3569.y\344"
 289      5F2F70DC 
 289      A84C8ECB 
 289      E238EE39 
 289      2E79E4
 290 0090 40A981F2 		.ascii	"@\251\201\362\016\224Z(;\240\324C\321\240\034\200r\010"
 290      0E945A28 
 290      3BA0D443 
 290      D1A01C80 
ARM GAS  /tmp/ccYNSMKJ.s 			page 22


 290      7208
 291 00a2 CA35285F 		.ascii	"\3125(_A\371\032J\033\024\036\312=\316|\020\014?\224"
 291      41F91A4A 
 291      1B141ECA 
 291      3DCE7C10 
 291      0C3F94
 292 00b5 37A074D7 		.ascii	"7\240t\327q\277\202\216\367\241\334\341\351\230n\002"
 292      71BF828E 
 292      F7A1DCE1 
 292      E9986E02 
 293 00c5 FDADD131 		.ascii	"\375\255\3211~,\2301\010\015\351\026\214'\241\317Z\375"
 293      7E2C9831 
 293      080DE916 
 293      8C27A1CF 
 293      5AFD
 294 00d7 BEA0F731 		.ascii	"\276\240\3671\306?e\031_\353b|\255\216A\306\377\304"
 294      C63F6519 
 294      5FEB627C 
 294      AD8E41C6 
 294      FFC4
 295 00e9 327E87DE 		.ascii	"2~\207\336\247\037T;\2311;t\376\311\230:\013\337\365"
 295      A71F543B 
 295      99313B74 
 295      FEC9983A 
 295      0BDFF5
 296 00fc 0E63EA75 		.ascii	"\016c\352uy\2211{-c4\275O\177\250\3661c\310\3656\256"
 296      7991317B 
 296      2D6334BD 
 296      4F7FA8F6 
 296      3163C8F5 
 297 0112 E341F490 		.ascii	"\343A\364\220\001\345()D\246\360\233\017\003\006\010"
 297      01E52829 
 297      44A6F09B 
 297      0F030608 
 298 0122 94D70C9D 		.ascii	"\224\327\014\235\357#p\257\001\312I(\247\2404\352r?"
 298      EF2370AF 
 298      01CA4928 
 298      A7A034EA 
 298      723F
 299 0134 C0D9EB8C 		.ascii	"\300\331\353\214\3506W\3075\344E\260\010\346\363P\216"
 299      E83657C7 
 299      35E445B0 
 299      08E6F350 
 299      8E
 300 0145 4169E692 		.ascii	"Ai\346\2222\264\316m\360Ll\352\317P\232\030\032\032"
 300      32B4CE6D 
 300      F04C6CEA 
 300      CF509A18 
 300      1A1A
 301 0157 753A4EC2 		.ascii	"u:N\302\265F(\037r\224\2464}^\326\326\310\234\003\001"
 301      B546281F 
 301      7294A634 
 301      7D5ED6D6 
 301      C89C0301 
 302 016b EB32FC5E 		.ascii	"\3532\374^\202\3629\224\253:\275\317XtDl\261'\224\363"
 302      82F23994 
 302      AB3ABDCF 
ARM GAS  /tmp/ccYNSMKJ.s 			page 23


 302      5874446C 
 302      B12794F3 
 303 017f 0CCD4719 		.ascii	"\014\315G\031\272Y\032\015\372\011\255\206\254\015^"
 303      BA591A0D 
 303      FA09AD86 
 303      AC0D5E
 304 018e 0CDA3358 		.ascii	"\014\3323X\2329Jo\223No\243N\3575]7\265:\275\344\332"
 304      9A394A6F 
 304      934E6FA3 
 304      4EEF355D 
 304      37B53ABD 
 305 01a4 50187F4B 		.ascii	"P\030\177K\247\361_,4\366\345V\253ZC\353\245\365G|+"
 305      A7F15F2C 
 305      34F6E556 
 305      AB5A43EB 
 305      A5F5477C 
 306 01b9 546DAA0A 		.ascii	"Tm\252\012\313O\345\363\036\347\226\250pTOWU^\011p3"
 306      CB4FE5F3 
 306      1EE796A8 
 306      70544F57 
 306      555E0970 
 307 01ce 55B5829C 		.ascii	"U\265\202\234\274|\030\330\030\313\213|\367\000\227"
 307      BC7C18D8 
 307      18CB8B7C 
 307      F70097
 308 01dd 878D9C00 		.ascii	"\207\215\234\000\316\360}\356MU\255j=\273\251QP\325"
 308      CEF07DEE 
 308      4D55AD6A 
 308      3DBBA951 
 308      50D5
 309 01ef 4C917F83 		.ascii	"L\221\177\203\017\200\225\374\222\347\236\344\336\006"
 309      0F8095FC 
 309      92E79EE4 
 309      DE06
 310 01fd 9C2A555D 		.ascii	"\234*U];\230\267\261\026\367\320u3\336\337\307W\000"
 310      3B98B7B1 
 310      16F7D075 
 310      33DEDFC7 
 310      5700
 311 020f 3922BF01 		.ascii	"9\"\277\001\301[y\236\023\371\365\374\223\236\241\266"
 311      C15B799E 
 311      13F9F5FC 
 311      939EA1B6 
 312 021f CDAF7F16 		.ascii	"\315\257\177\026\251\334\210@\327\0043\220\310g\004"
 312      A9DC8840 
 312      D7043390 
 312      C86704
 313 022e 581AF1DC 		.ascii	"X\032\361\334\350@\320\360\266\336 \356\252\007\367"
 313      E840D0F0 
 313      B6DE20EE 
 313      AA07F7
 314 023d 57EE6EC7 		.ascii	"W\356n\307\013\031\271\226\177\\o\375\302G\321\004\356"
 314      0B19B996 
 314      7F5C6FFD 
 314      C247D104 
 314      EE
 315 024e AE851B8E 		.ascii	"\256\205\033\216\373\001\267\016\004\323zq\375\221\032"
ARM GAS  /tmp/ccYNSMKJ.s 			page 24


 315      FB01B70E 
 315      04D37A71 
 315      FD911A
 316 025d 5EED4975 		.ascii	"^\355IuC\306\324\360}\035\220\361\366&\336d)\272\235"
 316      43C6D4F0 
 316      7D1D90F1 
 316      F626DE64 
 316      29BA9D
 317 0270 EC6AF982 		.ascii	"\354j\371\202g\354\204\322 p\273}\366\263\252\265o\251"
 317      67EC84D2 
 317      2070BB7D 
 317      F6B3AAB5 
 317      6FA9
 318 0282 81E494EF 		.ascii	"\201\344\224\357\244\236r\213\355\224\365\253?\365\331"
 318      A49E728B 
 318      ED94F5AB 
 318      3FF5D9
 319 0291 4C79DDDD 		.ascii	"Ly\335\335\224\265\251\247\334f;e]\313\241}\374\302"
 319      94B5A9A7 
 319      DC663B65 
 319      5DCBA17D 
 319      FCC2
 320 02a3 4AF5B07A 		.ascii	"J\365\260z\003\024P\225iZ\016\"\377\\/G\225\354\324"
 320      03145095 
 320      695A0E22 
 320      FF5C2F47 
 320      95ECD4
 321 02b6 55E24327 		.ascii	"U\342C'\311Q:\222\372A\025U\244\231)\377\036\367\206"
 321      C9513A92 
 321      FA411555 
 321      A49929FF 
 321      1EF786
 322 02c9 AA2E54CF 		.ascii	"\252.T\317I/\033\013g\005\366\330\341@\272\301\034e"
 322      492F1B0B 
 322      6705F6D8 
 322      E140BAC1 
 322      1C65
 323 02db 5855CFAA 		.ascii	"XU\317\252\257\366F\2428}\220\311\274v\331q\250\335"
 323      AFF646A2 
 323      387D90C9 
 323      BC76D971 
 323      A8DD
 324 02ed 3B985335 		.ascii	";\230S5\245\265\275}Mu.%Z\340V\333\223\325d\220%\362"
 324      A5B5BD7D 
 324      4D752E25 
 324      5AE056DB 
 324      93D56490 
 325 0303 BB014AE4 		.ascii	"\273\001J\344\353\273BV\275\225\254wm\311:\225$\313"
 325      EBBB4256 
 325      BD95AC77 
 325      6DC93A95 
 325      24CB
 326 0315 BDCCF7D9 		.ascii	"\275\314\367\331,\203mi\266\326\001\307[\252/A\225f"
 326      2C836D69 
 326      B6D601C7 
 326      5BAA2F41 
 326      9566
ARM GAS  /tmp/ccYNSMKJ.s 			page 25


 327 0327 A56A7F47 		.ascii	"\245j\177G\252\252\265\326m\237^)NZ\240>\243\300}\352"
 327      AAAAB5D6 
 327      6D9F5E29 
 327      4E5AA03E 
 327      A3C07DEA 
 328 033b 6A8E03D6 		.ascii	"j\216\003\3269\336\3578Gk\203\366\320\340<\317=\343"
 328      39DEEF38 
 328      476B83F6 
 328      D0E03CCF 
 328      3DE3
 329 034d 87CDC696 		.ascii	"\207\315\306\226\315\375.\351\001{r\013\010J\036\343"
 329      CDFD2EE9 
 329      017B720B 
 329      084A1EE3 
 330 035d 0BAB7903 		.ascii	"\013\253y\003\340\333\\\322e\257\2337\002\235\3411\276"
 330      E0DB5CD2 
 330      65AF9B37 
 330      029DE131 
 330      BE
 331 036e 27595516 		.ascii	"'YU\026\236:\205\021\270v\034\362\001\014\247\003\021"
 331      9E3A8511 
 331      B8761CF2 
 331      010CA703 
 331      11
 332 037f 586D3DF9 		.ascii	"Xm=\371\331\225\377X\256\252\271\364\026g\221\024s<"
 332      D995FF58 
 332      AEAAB9F4 
 332      16679114 
 332      733C
 333 0391 C15503D9 		.ascii	"\301U\003\331\332\273\313~\377wj\365~@>\312g\023\015"
 333      DABBCB7E 
 333      FF776AF5 
 333      7E403ECA 
 333      67130D
 334 03a4 A61BB076 		.ascii	"\246\033\260v\354\353Mz\350\035\314x{\233r\252D\003"
 334      ECEB4D7A 
 334      E81DCC78 
 334      7B9B72AA 
 334      4403
 335 03b6 6C8F67B0 		.ascii	"l\217g\260<\023\330\311\246U:qt\201\376\217\033\274"
 335      3C13D8C9 
 335      A6553A71 
 335      7481FE8F 
 335      1BBC
 336 03c8 4C67E24E 		.ascii	"Lg\342N\021\342L\372r\257\365\263V\027\363|\266\331"
 336      11E24CFA 
 336      72AFF5B3 
 336      5617F37C 
 336      B6D9
 337 03da C3A40AD0 		.ascii	"\303\244\012\3207\347\376\010\265\335\214b\371S\272"
 337      37E7FE08 
 337      B5DD8C62 
 337      F953BA
 338 03e9 59DB268A 		.ascii	"Y\333&\212\350LNT\234\347\263\035T\332\341\236\300}"
 338      E84C4E54 
 338      9CE7B31D 
 338      54DAE19E 
ARM GAS  /tmp/ccYNSMKJ.s 			page 26


 338      C07D
 339 03fb E8595C26 		.ascii	"\350Y\\&\361\203-5\377\347\356ZU\235\345Gn\005\356\274"
 339      F1832D35 
 339      FFE7EE5A 
 339      559DE547 
 339      6E05EEBC 
 340 040f 1BC05C1B 		.ascii	"\033\300\\\033\371\333\035\254\361\212|\003\377}\250"
 340      F9DB1DAC 
 340      F18A7C03 
 340      FF7DA8
 341 041e 4FF24F40 		.ascii	"O\362O@\335\210\365\207X7a\375g\250S\012\232\300\021"
 341      DD88F587 
 341      583761FD 
 341      67A8530A 
 341      9AC011
 342 0431 9BD30F53 		.ascii	"\233\323\017S\034`\317\233i\037V\211\034\307Y\"\305"
 342      1C60CF9B 
 342      691F5689 
 342      1CC75922 
 342      C5
 343 0442 C5743B97 		.ascii	"\305t;\227\014\376\250\355\357\217\2028\002\206y_\307"
 343      0CFEA8ED 
 343      EF8F8238 
 343      0286795F 
 343      C7
 344 0453 7E871C1D 		.ascii	"~\207\034\0353\022\244\373\363\306d\230\271\335\311"
 344      3312A4FB 
 344      F3C66498 
 344      B9DDC9
 345 0462 30A4990E 		.ascii	"0\244\231\016\323\026\314 \313S0,\347n'C\233\231\031"
 345      D316CC20 
 345      CB53302C 
 345      E76E2743 
 345      9B9919
 346 0475 B7921951 		.ascii	"\267\222\031Qm\252?\365(*\004\352E\265\366\351\225\325"
 346      6DAA3FF5 
 346      282A04EA 
 346      45B5F6E9 
 346      95D5
 347 0487 BCEA4F38 		.ascii	"\274\352O8\322CVGz\321\326\221\236:\346\335\221^\267"
 347      D2435647 
 347      7AD1D691 
 347      9E3AE6DD 
 347      915EB7
 348 049a 2EA9A37C 		.ascii	".\251\243|\266U\027S\375\266\341q\005a\216v\377\024"
 348      B6551753 
 348      FDB6E171 
 348      05618E76 
 348      FF14
 349 04ac C3E3B5D4 		.ascii	"\303\343\265\324ZH\004\211\271\352\264\\>\301\3345+"
 349      5A480489 
 349      B9EAB45C 
 349      3EC1DC35 
 349      2B
 350 04bd 73376D98 		.ascii	"s7m\230\253jm\274\325\366\235\345\265\352\324Y\352\303"
 350      AB6A6DBC 
 350      D5F69DE5 
ARM GAS  /tmp/ccYNSMKJ.s 			page 27


 350      B5EAD459 
 350      EAC3
 351 04cf F6DFF246 		.ascii	"\366\337\362F\344\336\352\267\006\"\212q\307\016C\273"
 351      E4DEEAB7 
 351      06228A71 
 351      C70E43BB 
 352 04df 75708ECA 		.ascii	"up\216\312\243\210\372\032\000{\035\000\376\327\026"
 352      A388FA1A 
 352      007B1D00 
 352      FED716
 353 04ee E0060B40 		.ascii	"\340\006\013@C\341\021\007\200\273f\200\357r5\204\013"
 353      43E11107 
 353      80BB6680 
 353      EF723584 
 353      0B
 354 04ff 58CEB3F8 		.ascii	"X\316\263\370}\353T\255\012Ts\203oo\3170\302\314\314"
 354      7DEB54AD 
 354      0A547383 
 354      6F6FCF30 
 354      C2CCCC
 355 0512 4FF8C4B2 		.ascii	"O\370\304\262R{\031\342k  \206\007\253\231\377\217\350"
 355      527B19E2 
 355      6B202086 
 355      07AB99FF 
 355      8FE8
 356 0524 C1EE63BC 		.ascii	"\301\356c\274\372\320o\037\257R\000\011\334\3078\350"
 356      FAD06F1F 
 356      AF520009 
 356      DCC738E8 
 357 0534 61C788D5 		.ascii	"a\307\210\325:\211F\254\207.\"\226\252m\275\260\212"
 357      3A8946AC 
 357      872E2296 
 357      AA6DBDB0 
 357      8A
 358 0545 2741C126 		.ascii	"'A\301&F\266&bd\037\206\364w\347>\207\244W\010\204\364"
 358      46B62662 
 358      641F86F4 
 358      77E73E87 
 358      A4570884 
 359 055a CF1D4877 		.ascii	"\317\035Hw\204\021\2706\0342M\350@x\303\257)\341\344"
 359      8411B836 
 359      1C324DE8 
 359      4078C3AF 
 359      29E1E4
 360 056d 56E78437 		.ascii	"V\347\2047\2658\022>\214\365\306\011\221\317\245)\302"
 360      B538123E 
 360      8CF5C609 
 360      91CFA529 
 360      C2
 361 057e 2CA47B7A 		.ascii	",\244{z\206-\335\325\303\234`\004n)\016\231\323\221"
 361      862DDDD5 
 361      C39C6004 
 361      6E290E99 
 361      D391
 362 0590 EEB6FE94 		.ascii	"\356\266\376\224\3569.\350\256\320n\316\246)B\247\211"
 362      EE392EE8 
 362      AED06ECE 
ARM GAS  /tmp/ccYNSMKJ.s 			page 28


 362      A62942A7 
 362      89
 363 05a1 4E9A31FD 		.ascii	"N\2321\375\360$\027\315\017|\360\354\260\000Y\330`\317"
 363      F02417CD 
 363      0F7CF0EC 
 363      B00059D8 
 363      60CF
 364 05b3 823386C0 		.ascii	"\2023\206\300m\301!\213mD?\224\262\260\330\025\013\313"
 364      6DC1218B 
 364      6D443F94 
 364      B2B0D815 
 364      0BCB
 365 05c5 E619594E 		.ascii	"\346\031YN\225@<\342\356\004l\327\262\234\225\037`\226"
 365      95403CE2 
 365      EE046CD7 
 365      B29C951F 
 365      6096
 366 05d7 43C1F679 		.ascii	"C\301\366y\006\3133\201\255\371\200f9\356\037\245\267"
 366      06CB3381 
 366      ADF98066 
 366      39EE1FA5 
 366      B7
 367 05e8 3ED47ABF 		.ascii	">\324z\277\213\354\257\022HDi\267\010\226>\2543\207"
 367      8BECAF12 
 367      484469B7 
 367      08963EAC 
 367      3387
 368 05fa 9BC75D81 		.ascii	"\233\307]\201\233\221\351\202\021\307\364\212hE{\266"
 368      9B91E982 
 368      11C7F48A 
 368      68457BB6 
 369 060a 0EF305C3 		.ascii	"\016\363\005\3038\375N\214\010\334<\234\254\306\252"
 369      38FD4E8C 
 369      08DC3C9C 
 369      ACC6AA
 370 0619 D9F36B8F 		.ascii	"\331\363k\217\374\230j\266\306\225fw\034]\346\3168\005"
 370      FC986AB6 
 370      C6956677 
 370      1C5DE6CE 
 370      3805
 371 062b 63FAEFE1 		.ascii	"c\372\357\341\364{q\372\365\326\351w\254\277\372<\235"
 371      F47B71FA 
 371      F5D6E977 
 371      ACBFFA3C 
 371      9D
 372 063c 7EBDABE9 		.ascii	"~\275\253\351O\236Z\334qz\307\240\247\253\357\374\332"
 372      4F9E5ADC 
 372      717AC7A0 
 372      A7ABEFFC 
 372      DA
 373 064d AB7DD6E0 		.ascii	"\253}\326\340$\033\321\200\276\316\264\252\357\371l"
 373      241BD180 
 373      BECEB4AA 
 373      EFF96C
 374 065c 762E3DD7 		.ascii	"v.=\327d2\273\366\004\365]\262_`\363\310\277\276\255"
 374      6432BBF6 
 374      04F55DB2 
ARM GAS  /tmp/ccYNSMKJ.s 			page 29


 374      5F60F3C8 
 374      BFBEAD
 375 066f 67769486 		.ascii	"gv\224\206\212\200WD\263\021\237>\205+\202\202Ms\003"
 375      8A805744 
 375      B3119F3E 
 375      852B8282 
 375      4D7303
 376 0682 96224F3F 		.ascii	"\226\"O?\303\202\315\364\014f\246\254\231\005\233\355"
 376      C382CDF4 
 376      0C66A6AC 
 376      99059BED 
 377 0692 06CC2E83 		.ascii	"\006\314.\203\325\301ZX\260y\236\301\314\224}\304\202"
 377      D5C15A58 
 377      B0799EC1 
 377      CC947DC4 
 377      82
 378 06a3 2D7003D6 		.ascii	"-p\003\326\333\231\262\013,\330\022\317`f\312n\260`"
 378      DB99B20B 
 378      2CD812CF 
 378      6066CA6E 
 378      B060
 379 06b5 2BDC80E5 		.ascii	"+\334\200\345\331P\2268\234\022\300uB\302\316\005nU"
 379      D9509638 
 379      9C12C075 
 379      42C2CE05 
 379      6E55
 380 06c7 C070081E 		.ascii	"\300p\010\036m\232KbT\007\274z0\023\337$\256<k<\361"
 380      6D9A4B62 
 380      5407BC7A 
 380      3013DF24 
 380      AE3C6B3C 
 381 06dc 50E7BEDE 		.ascii	"P\347\276\336\015b\012\203\331\311F\212\315\236\301"
 381      0D620A83 
 381      D9C9468A 
 381      CD9EC1
 382 06eb CC6A39FD 		.ascii	"\314j9\375\201\365\371U\217\031\255\353\264\336\313"
 382      81F5F955 
 382      8F19ADEB 
 382      B4DECB
 383 06fa 93CE2ED3 		.ascii	"\223\316.\323\300\"\233\277\324\263U\251\252\220\350"
 383      C0229BBF 
 383      D4B355A9 
 383      AA90E8
 384 0709 ACF6EE6D 		.ascii	"\254\366\356m\337\027\322}\201<\207\035\026\002\011"
 384      DF17D27D 
 384      813C871D 
 384      160209
 385 0718 2A68DB68 		.ascii	"*h\333h\265\363D\316;\003v\333\312\010\220z\250\223"
 385      B5F344CE 
 385      3B0376DB 
 385      CA08907A 
 385      A893
 386 072a 25BCCF5A 		.ascii	"%\274\317Z\302\0367bJ\261\024n8\211I\233\256\316\344"
 386      C21E3762 
 386      4AB1146E 
 386      3889499B 
 386      AECEE4
ARM GAS  /tmp/ccYNSMKJ.s 			page 30


 387 073d A76CED93 		.ascii	"\247l\355\2232\357\002\357\374\017\033\321;\037\307"
 387      32EF02EF 
 387      FC0F1BD1 
 387      3B1FC7
 388 074c E0BA3F60 		.ascii	"\340\272?`\273\343\355\012\253n\306\011c\373\274\001"
 388      BBE3ED0A 
 388      AB6EC609 
 388      63FBBC01 
 389 075c C18E771D 		.ascii	"\301\216w\035\254z\333\211>j\032<\035#\320\231\2005"
 389      AC7ADB89 
 389      3E6A1A3C 
 389      1D23D099 
 389      8035
 390 076e 66042C11 		.ascii	"f\004,\021?`\216\370\201@\262\321n\034f-\376U\3078i"
 390      3F608EF8 
 390      8140B2D1 
 390      6E1C662D 
 390      FE55C738 
 391 0783 FE4FACE6 		.ascii	"\376O\254\346?\366\254y\323\002im\370\354\312?-S\265"
 391      3FF6AC79 
 391      D302696D 
 391      F8ECCA3F 
 391      2D53B5
 392 0796 293EC6D4 		.ascii	")>\306\324S\256\013\222K]i\342+QE\315(\331/\354U\344"
 392      53AE0B92 
 392      4B5D69E2 
 392      2B5145CD 
 392      28D92FEC 
 393 07ac 02AA6EC6 		.ascii	"\002\252n\306\246\2470c?\207@w\272\014\264m\376\352"
 393      A6A73063 
 393      3F874077 
 393      BA0CB46D 
 393      FEEA
 394 07be A1087401 		.ascii	"\241\010t\001\201\036t\320\2655\273\343\315:\340\003"
 394      811E74D0 
 394      B535BBE3 
 394      CD3AE003 
 395 07ce C946     		.ascii	"\311F"
 396 07d0 077D7D83 		.ascii	"\007}}\203}!e\314\262(\314\304N\212\330\220p\270\207"
 396      7D2165CC 
 396      B228CCC4 
 396      4E8AD890 
 396      70B887
 397 07e3 FFB96EB3 		.ascii	"\377\271n\263\252V\372\275h\254\325\320\330'(\237\371"
 397      AA56FABD 
 397      68ACD5D0 
 397      D827289F 
 397      F9
 398 07f4 5956F99C 		.ascii	"YV\371\234\023\274\011H\340\226yf$\323\302\310\215."
 398      13BC0948 
 398      E0967966 
 398      24D3C2C8 
 398      8D2E
 399 0806 3072C360 		.ascii	"0r\303`\344\0122\262\346\033`d\203gFr\031F\360\351p"
 399      E40A32B2 
 399      E61B6064 
 399      83674672 
ARM GAS  /tmp/ccYNSMKJ.s 			page 31


 399      1946F0E9 
 400 081b 144DE21F 		.ascii	"\024M\342\037\343\026\246N\342\011=_\012\217\2312h\355"
 400      E316A64E 
 400      E2093D5F 
 400      0A8F9932 
 400      68ED
 401 082d CE09F2B2 		.ascii	"\316\011\362\262\210\\\356\374\211x\321)\346\311Gu\367"
 401      885CEEFC 
 401      8978D129 
 401      E6C94775 
 401      F7
 402 083e E473587F 		.ascii	"\344sX\177\362\271\201\022\333\234e\263\306\334 U\327"
 402      F2B98112 
 402      DB9C65B3 
 402      C6DC2055 
 402      D7
 403 084f 1DEA45BC 		.ascii	"\035\352E\274\351m\204\331\336U\230\326m'\376H\227\352"
 403      E96D84D9 
 403      DE5598D6 
 403      6D27FE48 
 403      97EA
 404 0861 D70854DF 		.ascii	"\327\010T\337A\203~\213\002\375f\005\302)\231\251\015"
 404      41837E8B 
 404      02FD6605 
 404      C22999A9 
 404      0D
 405 0872 BDE46FF5 		.ascii	"\275\344o\365+\344$\203\373\233\217\023\270\203H>Q\236"
 405      2BE42483 
 405      FB9B8F13 
 405      B883483E 
 405      519E
 406 0884 C71C2CF9 		.ascii	"\307\034,\371\0048\242N\317\237\250\202\216?\022b\205"
 406      0438A24E 
 406      CF9FA882 
 406      8E3F1262 
 406      85
 407 0895 F6DE42E3 		.ascii	"\366\336B\343\311\035\2672\317<\"\034\246\334\246\324"
 407      C91DB732 
 407      CF3C221C 
 407      A6DCA6D4 
 408 08a5 C0F2E4B6 		.ascii	"\300\362\344\266\300!\366\030\2332[\347\374\004\325"
 408      C021F618 
 408      9B325BE7 
 408      FC04D5
 409 08b4 ADFA7043 		.ascii	"\255\372pC\274\203\272\253\004\313\243\033\271\300t"
 409      BC83BAAB 
 409      04CBA31B 
 409      B9C074
 410 08c3 715A47ED 		.ascii	"qZG\355l\030\274\361\310jh\3767\263\032\276~D\271\255"
 410      6C18BCF1 
 410      C86A68FE 
 410      37B31ABE 
 410      7E44B9AD 
 411 08d7 58E46E0F 		.ascii	"X\344n\017\350W\006V\0162\362\020\247\235\351\263<e"
 411      E8570656 
 411      0E32F210 
 411      A79DE9B3 
ARM GAS  /tmp/ccYNSMKJ.s 			page 32


 411      3C65
 412 08e9 FF71F7C7 		.ascii	"\377q\367\307\323\365\264\210\334\353\334Q\234\273\024"
 412      D3F5B488 
 412      DCEBDC51 
 412      9CBB14
 413 08f8 5017E618 		.ascii	"P\027\346\030[a\233\262\015T\273l\251S\361h\027\244"
 413      5B619BB2 
 413      0D54BB6C 
 413      A953F168 
 413      17A4
 414 090a C303BCB8 		.ascii	"\303\003\274\270\234+\272\313\231\347#\242\334\221m"
 414      9C2BBACB 
 414      99E723A2 
 414      DC916D
 415 0919 D5F96DAB 		.ascii	"\325\371m\253\223\366\264\346\366X\271q\373\260\234"
 415      93F6B4E6 
 415      F658B971 
 415      FBB09C
 416 0928 389C6C6A 		.ascii	"8\234lj\206\217\261\251}\331\217d\001\344\305\342H\372"
 416      868FB1A9 
 416      7DD98F64 
 416      01E4C5E2 
 416      48FA
 417 093a 68D4990D 		.ascii	"h\324\231\015\250\211\355\323\\\234\3710\316\274\304"
 417      A889EDD3 
 417      5C9CF930 
 417      CEBCC4
 418 0949 6A048D7B 		.ascii	"j\004\215{\217\314\340\247\240\021,qe\004wLFp;\201\332"
 418      8FCCE0A7 
 418      A0112C71 
 418      6504774C 
 418      46703B81 
 419 095e 1523A8D0 		.ascii	"\025#\250\320\356^=\302#\034}4\273o\205s\253\005\035"
 419      EE5E3DC2 
 419      231C7D34 
 419      BB6F8573 
 419      AB051D
 420 0971 EEFFC0A6 		.ascii	"\356\377\300\246\274\011\206\232\227v\366\022\211\227"
 420      BC09869A 
 420      9776F612 
 420      8997
 421 097f AB7D84A7 		.ascii	"\253}\204\247\312\034\253iQ\3110\246\225\024\243\310"
 421      CA1CAB69 
 421      51C930A6 
 421      9514A3C8 
 422 098f 2FF39167 		.ascii	"/\363\221g\265\345>\362\206l%\326\253|.\336\223\375"
 422      B5E53EF2 
 422      866C25D6 
 422      AB7C2EDE 
 422      93FD
 423 09a1 9E358BD9 		.ascii	"\2365\213\3319^\371\316si}\213\331i\026\346<\232\365"
 423      395EF9CE 
 423      73697D8B 
 423      D96916E6 
 423      3C9AF5
 424 09b4 41623F8A 		.ascii	"Ab?\212|\013\340\363\262I\332\254\257\3337q\335\256"
 424      7C0BE0F3 
ARM GAS  /tmp/ccYNSMKJ.s 			page 33


 424      B249DAAC 
 424      AFDB3771 
 424      DDAE
 425 09c6 E820DC2E 		.ascii	"\350 \334.m\222\256\353*'\211C\340\376\220\343\3421"
 425      6D92AEEB 
 425      2A278943 
 425      E0FE90E3 
 425      E231
 426 09d8 27CF46E8 		.ascii	"'\317F\350\011\377\336\372\212\313\215V#n]\232\3632"
 426      09FFDEFA 
 426      8ACB8D56 
 426      236E5D9A 
 426      F332
 427 09ea FDF80A0D 		.ascii	"\375\370\012\015m\213E\026.\366k\337\303!\233\254\253"
 427      6D8B4516 
 427      2EF66BDF 
 427      C3219BAC 
 427      AB
 428 09fb 1822BEFE 		.ascii	"\030\"\276\3762a\223\213E\\\2415\316fw\342\301z\005"
 428      3261938B 
 428      455CA135 
 428      CE6677E2 
 428      C17A05
 429 0a0e 4187EDAA 		.ascii	"A\207\355\2528M\032\334\304,\217wpyla\227\204\300\235"
 429      384D1ADC 
 429      C42C8F77 
 429      70796C61 
 429      9784C09D 
 430 0a22 7023FA1F 		.ascii	"p#\372\0379\031\242\252-9C_\342\030n\350\254\025\317"
 430      3919A2AA 
 430      2D39435F 
 430      E2186EE8 
 430      AC15CF
 431 0a35 CE0D99F0 		.ascii	"\316\015\231\360XUVh[\316\340\376\0205\321\213n\210"
 431      58555668 
 431      5BCEE0FE 
 431      1035D18B 
 431      6E88
 432 0a47 1BE00CF6 		.ascii	"\033\340\014\366\336RC\270\2131=\271\356\006o\250\023"
 432      DE5243B8 
 432      8B313DB9 
 432      EE066FA8 
 432      13
 433 0a58 B3155AD3 		.ascii	"\263\025Z\323\031\343\373\013\372\236\341\256g<3}w\226"
 433      19E3FB0B 
 433      FA9EE1AE 
 433      673C337D 
 433      7796
 434 0a6a 9A92B9A9 		.ascii	"\232\222\271\251\335\\\300\015s\255\373\344[\"\221_"
 434      DD5CC00D 
 434      73ADFBE4 
 434      5B22915F 
 435 0a7a 8ADB58CB 		.ascii	"\212\333X\313\004\342\024W`\375:\326\325XkX\357\307"
 435      04E21457 
 435      60FD3AD6 
 435      D5586B58 
 435      EFC7
ARM GAS  /tmp/ccYNSMKJ.s 			page 34


 436 0a8c FA00D6C7 		.ascii	"\372\000\326\307\260n\302\372/X_\306\372\013\254\337"
 436      B06EC2FA 
 436      2F585FC6 
 436      FA0BACDF 
 437 0a9c 46E75A8B 		.ascii	"F\347Z\213\365v\254wb\275\013\353\335n\234\256%\015"
 437      F576AC77 
 437      62BD0BEB 
 437      DD6E9CAE 
 437      250D
 438 0aae 340C7F4E 		.ascii	"4\014\177N\227_A\335:\226\330X\004\357\357\031,/\225"
 438      975F41DD 
 438      3A96D858 
 438      04EFEF19 
 438      2C2F95
 439 0ac1 24E73092 		.ascii	"$\3470\222\234\207\222\234\217r\2507\257\2459\335\214"
 439      9C87929C 
 439      8F72A837 
 439      AFA539DD 
 439      8C
 440 0ad2 F7A25D0B 		.ascii	"\367\242]\013\301g[\314\346\265\330\212\347)\006\253"
 440      C1675BCC 
 440      E6B5D88A 
 440      E72906AB 
 441 0ae2 DA472D28 		.ascii	"\332G-(\222\032\\\230\257{\0063\333\352\355\225\346"
 441      921A5C98 
 441      AF7B0633 
 441      DBEAED95 
 441      E6
 442 0af3 5786356E 		.ascii	"W\2065n\360Rl\004\177\325\302l\004\277\355\031\314L"
 442      F0526C04 
 442      7FD5C26C 
 442      04BFED19 
 442      CC4C
 443 0b05 DC3D166C 		.ascii	"\334=\026l\253\0330\273\355R{\345Oc\224?\003\225?\023"
 443      AB1B30BB 
 443      ED527BE5 
 443      4F63943F 
 443      03953F13 
 444 0b19 95BF178D 		.ascii	"\225\277\027\215]\303z?\326\007\260>h6\212=\335\214"
 444      5DC37A3F 
 444      D607B03E 
 444      68368A3D 
 444      DD8C
 445 0b2b B7FCFA64 		.ascii	"\267\374\372d\346\267\351\235g\347u\316\357\367\355"
 445      E6B7E99D 
 445      67E775CE 
 445      EFF7ED
 446 0b3a 12A8D6B3 		.ascii	"\022\250\326\263u\363\306bh;\212\241m_\267N_2[\023\324"
 446      75F3C662 
 446      683B8AA1 
 446      6D5FB74E 
 446      5F325B13 
 447 0b4f 261C72BC 		.ascii	"&\034r\274ch\273\022\244\241\355\270\253\320\366\300"
 447      6368BB12 
 447      A4A1EDB8 
 447      ABD0F6C0 
 448 0b5f F4299DC8 		.ascii	"\364)\235\310\237\302\017S\216{\017m:^UK\342S:\221?"
ARM GAS  /tmp/ccYNSMKJ.s 			page 35


 448      9FC20F53 
 448      8E7B0F6D 
 448      3A5E554B 
 448      E2533A91 
 449 0b74 ED19CC6C 		.ascii	"\355\031\314l1KZ\330O\351D\376\214\033\274\024\371\356"
 449      314B5AD8 
 449      4FE944FE 
 449      8C1BBC14 
 449      F9EE
 450 0b86 764A1CFD 		.ascii	"vJ\034\375\242\351ZB\200]M\"M\026x\234\011\342'0\210"
 450      A2E95A42 
 450      805D4D22 
 450      4D16789C 
 450      09E22730 
 451 0b9b 37A0A59D 		.ascii	"7\240\245\235\304\372\024\326\215f\253\273g\265:\263"
 451      C4FA14D6 
 451      8D66ABBB 
 451      67B53AB3 
 452 0bab 8EED1601 		.ascii	"\216\355\026\001+\037Uk\270\000\374\270\316\246\276"
 452      2B1F556B 
 452      B800FCB8 
 452      CEA6BE
 453 0bba 9C47B3A9 		.ascii	"\234G\263\251&4\271)\335=gSU8\244\245\243\311\265\226"
 453      2634B929 
 453      DD3D6753 
 453      5538A4A5 
 453      A3C9B596 
 454 0bce 52936BE9 		.ascii	"R\223k\351\334\344\246Vju\257\257O>\226W&61\016\202"
 454      DCE4A656 
 454      6A75AFAF 
 454      4F3E9657 
 454      2636310E 
 455 0be3 3B750A44 		.ascii	";u\012D\2467-\325\0112\276\221\354\253\205Q\334G\250"
 455      A6372DD5 
 455      0932BE91 
 455      ECAB8551 
 455      DC47A8
 456 0bf6 B8F36635 		.ascii	"\270\363f5m\354nQS\247\331\227YKg/\030\331\027\375\242"
 456      6DEC6E51 
 456      53A7D997 
 456      594B672F 
 456      18D917FD 
 457 0c0b 64B315CF 		.ascii	"d\263\025\317\374\375\210]\306\304\231\000oyQ\373\355"
 457      FCFD885D 
 457      C6C49900 
 457      6F7951FB 
 457      ED
 458 0c1c DB579F41 		.ascii	"\333W\237A\265_D\265\267xU;\021\321e\213\312\265\233"
 458      B55F44B5 
 458      B778553B 
 458      11D1658B 
 458      CAB59B
 459 0c2f 521EBDDA 		.ascii	"R\036\275\332\271\203\271{\011\037Y\275<\002\03566\230"
 459      B983B97B 
 459      091F59BD 
 459      3C021D36 
 459      3698
ARM GAS  /tmp/ccYNSMKJ.s 			page 36


 460 0c41 3FC304F3 		.ascii	"?\303\004\363s\013\311]|\006\272\2150\227\277)\263\271"
 460      730BC95D 
 460      7C06BA8D 
 460      3097BF29 
 460      B3B9
 461 0c53 CC98CD15 		.ascii	"\314\230\315\0254\233\253\226\325\355\306lb\216fC<\371"
 461      349BAB96 
 461      D5EDC66C 
 461      628E6643 
 461      3CF9
 462 0c65 7F2F52D5 		.ascii	"\177/R\325\231\225\376oqU\030\015f~\302\323\367{z\177"
 462      9995FE6F 
 462      7155180D 
 462      667EC2D3 
 462      F77B7A7F 
 463 0c79 AD9B01D3 		.ascii	"\255\233\001\323\314\353T\335\360}\013[\246\235\"\354"
 463      CCEB54DD 
 463      F07D0B5B 
 463      A69D22EC 
 464 0c89 E2A4DB9B 		.ascii	"\342\244\333\233\276\344\253\317\234@\262\361\235\004"
 464      BEE4ABCF 
 464      9C40B2F1 
 464      9D04
 465 0c97 230FAC8C 		.ascii	"#\017\254\214X\346\325\333\223\\\213\356!\363\011\255"
 465      58E6D5DB 
 465      935C8BEE 
 465      21F309AD 
 466 0ca7 8AC17A0A 		.ascii	"\212\301z\012\006\353#\350$\317`\3751\326\237`}\335"
 466      06EB23E8 
 466      24CF60FD 
 466      31D69F60 
 466      7DDD
 467 0cb9 92C1F530 		.ascii	"\222\301\3650\354\301p\233\346\217\366pw\313\227\370"
 467      ECC1709B 
 467      E68FF670 
 467      77CB97F8 
 468 0cc9 98B0D30D 		.ascii	"\230\260\323\015\016\2771\372W\\\302\010\367\336\273"
 468      0EBF31FA 
 468      575CC208 
 468      F7DEBB
 469 0cd8 5986ABE6 		.ascii	"Y\206\253\346\016\256\232\003=:\217\317&\030BC\233u"
 469      0EAE9A03 
 469      3D3A8FCF 
 469      26184243 
 469      9B75
 470 0cea D52C3A97 		.ascii	"\325,:\227Cv\357\333\\y\311%\347\230\327\014\225)\027"
 470      4376EFDB 
 470      5C79C925 
 470      E798D70C 
 470      952917
 471 0cfd 8EC8BF85 		.ascii	"\216\310\277\205\037\"\273Y\005\015\310I[\327\342;\220"
 471      1F22BB59 
 471      050DC849 
 471      5BD7E23B 
 471      90
 472 0d0e B5F41C86 		.ascii	"\265\364\034\206\320\373\2702O{\006\3133\201-g\301\232"
 472      D0FBB832 
ARM GAS  /tmp/ccYNSMKJ.s 			page 37


 472      4F7B06CB 
 472      33812D67 
 472      C19A
 473 0d20 DD803905 		.ascii	"\335\2009\005w\000[\311\202\235\367\014f\246l\025\013"
 473      77005BC9 
 473      829DF70C 
 473      66A66C15 
 473      0B
 474 0d31 F6173760 		.ascii	"\366\0277`NY4\200\255f\301.y\0063S\266\205\005\273\352"
 474      4E593480 
 474      AD66C12E 
 474      79063353 
 474      B68505BB 
 475 0d46 06CCE9A3 		.ascii	"\006\314\351\243\003\000\253e\301\256{\0063S\266\235"
 475      0300AB65 
 475      C1AE7B06 
 475      3353B69D 
 476 0d56 05BBE306 		.ascii	"\005\273\343\006,\317\231\262\235,\330=\317`f\312v\261"
 476      2CCF99B2 
 476      9D2CD83D 
 476      CF6066CA 
 476      76B1
 477 0d68 600FDD80 		.ascii	"`\017\335\2009m\246\000\330n\026\254\"\327+\230\231"
 477      396DA600 
 477      D86E16AC 
 477      22D72B98 
 477      99
 478 0d79 B27A166C 		.ascii	"\262z\026l\272\0330\247\274`\352\024m\357/\253D#V\020"
 478      BA1B30A7 
 478      BC60EA14 
 478      6DEF2FAB 
 478      44235610 
 479 0d8d AF4F506D 		.ascii	"\257OPm3K\216c\273\221h\352\320M\344\227\245y\015(\313"
 479      334B8E63 
 479      BB9168EA 
 479      D04DE497 
 479      A5790D28 
 480 0da2 D3EC034A 		.ascii	"\323\354\003J\362\003y\266\027\260\375;+\333\266i\260"
 480      F20379B6 
 480      17B0FD3B 
 480      2BDBB669 
 480      B0
 481 0db3 D30E1208 		.ascii	"\323\016\022\010\261\201\025\342<7B\034\346\014v\212"
 481      B18115E2 
 481      3C37421C 
 481      E60C768A 
 482 0dc3 055BE406 		.ascii	"\005[\344\006\354eg[9\315\202-\363\014f\246\354\014"
 482      EC65675B 
 482      39CD822D 
 482      F30C66A6 
 482      EC0C
 483 0dd5 0BB6CA0D 		.ascii	"\013\266\312\015\330\253\316\2245\263`k<\203\261\224"
 483      D8ABCE94 
 483      35B3606B 
 483      3C83B194 
 484 0de5 4DD15A92 		.ascii	"M\321Z\222\206G>\3556Y\3360\263\2675uc,\317\322\015"
 484      86473EED 
ARM GAS  /tmp/ccYNSMKJ.s 			page 38


 484      3659DE30 
 484      B3B73575 
 484      632CCFD2 
 485 0dfa E29867C3 		.ascii	"\342\230g\303\333\340`x\354\367!\311^dW\334\312\266"
 485      DBE06078 
 485      ECF721C9 
 485      5E6457DC 
 485      CAB6
 486 0e0c 8908BD39 		.ascii	"\211\010\2759\326F\206v\007\033\357E\376.f\204\3670"
 486      D6468676 
 486      071BEF45 
 486      FE2E6684 
 486      F730
 487 0e1e 7D798075 		.ascii	"}y\200u;\326S\322H]\211\3654\254g`=\013\353\331X\317"
 487      3BD653D2 
 487      485D89F5 
 487      34AC6760 
 487      3D0BEBD9 
 488 0e34 C57A3ED6 		.ascii	"\305z>\326\013\260^\204\365\022\254Wb\275\012\353\325"
 488      0BB05E84 
 488      F512AC57 
 488      62BD0AEB 
 488      D5
 489 0e45 585763BD 		.ascii	"XWc\275\026\3537\323\\l\353}\225|\311\221\307\255!\271"
 489      16EB37D3 
 489      5C6CEB7D 
 489      957CC991 
 489      C7AD21B9 
 490 0e59 E6FB1B02 		.ascii	"\346\373\033\002\025i\211?\230\324\260\1770\261\274"
 490      1569893F 
 490      98D4B07F 
 490      30B1BC
 491 0e68 6A5E9BE2 		.ascii	"j^\233\342\177^\033\323\254\270\273V^\343\325\251\231"
 491      7F5E1BD3 
 491      ACB8BB56 
 491      5EE3D5A9 
 491      99
 492 0e79 09E47758 		.ascii	"\011\344wXd\275O\375\205/}l\237\332\024\263\357L1\373"
 492      64BD4FFD 
 492      852F7D6C 
 492      9FDA14B3 
 492      EF4C31FB 
 493 0e8d A6E4EC96 		.ascii	"\246\344\354\226Q\373R\214\332\3548\352\276C\346\216"
 493      51FB528C 
 493      DAEC38EA 
 493      BE43E68E 
 494 0e9d 7C388E3A 		.ascii	"|8\216:\352\260\210\310\250-\311Q\344\337-\015\015\344"
 494      EAB088C8 
 494      A82DC951 
 494      E4DF2D0D 
 494      0DE4
 495 0eaf DFA27D16 		.ascii	"\337\242}\026\251\025\313\325\251Z{;\337\327\360\312"
 495      A915CBD5 
 495      A95A7B3B 
 495      DFD7F0CA 
 496 0ebf CBCD8FC3 		.ascii	"\313\315\217\303c\015 :\234\355u\330\261\227\310o\363"
 496      630D203A 
ARM GAS  /tmp/ccYNSMKJ.s 			page 39


 496      9CED75D8 
 496      B197C86F 
 496      F3
 497 0ed0 BC82B63B 		.ascii	"\274\202\266;\254\240,\223\235oO\256\240\215\270\202"
 497      ACA02C93 
 497      9D6F4FAE 
 497      A08DB882 
 498 0ee0 983F6959 		.ascii	"\230?iY\210\020\270m\271\306\243I\026o\250\\[sL\315"
 498      8810B86D 
 498      B9C6A349 
 498      166FA85C 
 498      5B734CCD 
 499 0ef4 CBB3FFB3 		.ascii	"\313\263\377\263\026\025\214v\366\330,\225W\247\253"
 499      16158C76 
 499      F6D82C95 
 499      57A7AB
 500 0f03 53C89FAA 		.ascii	"S\310\237\252\035\304Rb\314\325-\225X,\275D~\267g\261"
 500      1DC45262 
 500      CCD52D95 
 500      582CBD44 
 500      7EB767B1 
 501 0f17 EC71104B 		.ascii	"\354q\020K\216I,F/h\356H\263\374\273\313B\204\300\355"
 501      8E492C46 
 501      2F68EE48 
 501      B3FCBBCB 
 501      4284C0ED 
 502 0f2b B3134BFB 		.ascii	"\263\023K\373\011V,\346\277y\015\354\337?\277\240$<"
 502      09562CE6 
 502      BF790DEC 
 502      DF3FBFA0 
 502      243C
 503 0f3d 2EFCCAE8 		.ascii	".\374\312\350\374h<\277D,\315\217Ee%\236?z\314\310\301"
 503      FC683CBF 
 503      442CCD8F 
 503      4565259E 
 503      3F7ACCC8 
 504 0f52 83F27FFE 		.ascii	"\203\362\177\376\363\341\371cF\214\23400?\256\004KK"
 504      F3E1F963 
 504      468C9C30 
 504      303FAE04 
 504      4B4B
 505 0f64 8BFA9770 		.ascii	"\213\372\227p?0\217\220\225\374pY\250\264\274H\312\017"
 505      3F308F90 
 505      95FC7059 
 505      A8B4BC48 
 505      CA0F
 506 0f76 95C427C7 		.ascii	"\225\304'\307\225\3111)\016\335\002\244\035\216HA\305"
 506      95C93129 
 506      0EDD02A4 
 506      1D8E4841 
 506      C5
 507 0f87 FFD2A85F 		.ascii	"\377\322\250_\344\025p\361\374\262\361X~\232_\022\215"
 507      E41570F1 
 507      FCB2F158 
 507      7E9A5F12 
 507      8D
 508 0f98 48F9B214 		.ascii	"H\371\262\024\227D9T"
ARM GAS  /tmp/ccYNSMKJ.s 			page 40


 508      97443954 
 509 0fa0 0273CA45 		.ascii	"\002s\312E\023EY\312\027\345\310\240\374\342P\250\037"
 509      134559CA 
 509      17E5C8A0 
 509      FCE250A8 
 509      1F
 510 0fb1 34FA4991 		.ascii	"4\372I\221qRQ\221T\224\270P\026-\223\372I\342\270p\277"
 510      71525191 
 510      5494B850 
 510      162D93FA 
 510      49E2B870 
 511 0fc6 21C1A1FD 		.ascii	"!\301\241\375\006\015\0308\3447\203\362M7\022\204\304"
 511      060D1838 
 511      E43783F2 
 511      4D371284 
 511      C4
 512 0fd7 95A27099 		.ascii	"\225\242p\231\002Dd\226\303\357\340AA\245\222\377\333"
 512      02446496 
 512      C3EFE041 
 512      41A592FF 
 512      DB
 513 0fe8 CD1E1143 		.ascii	"\315\036\021C%\3412)?X$\215\027\313K\225\240!\222\254"
 513      25E13229 
 513      3F58248D 
 513      17CB4B95 
 513      A02192AC 
 514 0ffc 60D0A0A7 		.ascii	"`\320\240\247"
 515 1000 271567B0 		.ascii	"'\025g\260XR\202\241hy\231\"\311\375:\310\225*\342\205"
 515      585282A1 
 515      68799922 
 515      C9FD3AC8 
 515      952AE285 
 516 1014 C2910523 		.ascii	"\302\221\005#'\201pCQ\031\244\011\"\225\001\3531r\223"
 516      27817043 
 516      5119A409 
 516      229501EB 
 516      317293
 517 1027 9E210869 		.ascii	"\236!\010i\345\245\320\314\004\"\216\236\241\222\177"
 517      E5A5D0CC 
 517      04228E9E 
 517      A1927F
 518 1036 1FF392A4 		.ascii	"\037\363\222\244\214\006\325H\22110d\354\343\014N\\"
 518      8C06D548 
 518      91313064 
 518      ECE30C4E 
 518      5C
 519 1047 11A12D96 		.ascii	"\021\241-\226\002[i\344\312\267\331{\222~\247\227i@"
 519      025B69E4 
 519      CAB7D97B 
 519      927EA797 
 519      6940
 520 1059 3446AFF6 		.ascii	"4F\257\366\3510u\\\016\321iC\\fp\202\022\014\227\205"
 520      E930755C 
 520      0ED16943 
 520      5C667082 
 520      120C9785 
 521 106d 951E13C2 		.ascii	"\225\036\023\302\262R.\226\352\303\225\334PI\320t\351"
ARM GAS  /tmp/ccYNSMKJ.s 			page 41


 521      B2522E96 
 521      EAC395DC 
 521      5049D074 
 521      E9
 522 107e BBA96C2B 		.ascii	"\273\251l+TB\314/\003\260\312\244I\012\371\215\311\322"
 522      5442CC2F 
 522      03B0CAA4 
 522      490AF98D 
 522      C9D2
 523 1090 844CF82D 		.ascii	"\204L\370-\222J\025\021\032\343\313\313BA\274CZ~\322"
 523      924A1511 
 523      1AE3CBCB 
 523      4241BC43 
 523      5A7ED2
 524 10a3 4394B308 		.ascii	"C\224\263\010\323\303\243\243%e\204o\202\022K\207\316"
 524      D3C3A3A3 
 524      2565846F 
 524      82124B87 
 524      CE
 525 10b4 E2643FED 		.ascii	"\342d?\355\354\203\3739\364~!\030\2042\242o\307\345"
 525      EC83FB39 
 525      F47E2118 
 525      8432A26F 
 525      C7E5
 526 10c6 90342A98 		.ascii	"\2204*\230='\256\214&Rz\2010\235\005'\022mf\223\353"
 526      3D27AE8C 
 526      26527A81 
 526      309D0527 
 526      126D6693 
 527 10db D1186D03 		.ascii	"\321\030m\003Wq\224pP\011$\3329\262$\026M\016\226\206"
 527      57719470 
 527      500924DA 
 527      39B22416 
 527      4D0E9686 
 528 10ef 41F34A37 		.ascii	"A\363J7\270\234<\357\241\224\220\223x\3607\345R\271"
 528      B89C3CEF 
 528      A1949093 
 528      78F037E5 
 528      52B9
 529 1101 44C562BA 		.ascii	"D\305b\272\224I\317(\034m\373c(\005\370!Bx\272\023\333"
 529      9449CF28 
 529      1C6DFB63 
 529      2805F821 
 529      4278BA13 
 530 1116 894662E1 		.ascii	"\211Fb\341RI\216\347\277TP\000\2424\0142C\211\311\341"
 530      52498EE7 
 530      BF545000 
 530      A2340C32 
 530      4389C9E1 
 531 112a 6890A284 		.ascii	"h\220\242\204\243\031\241(\030\342$\345\207n,\021\206"
 531      A319A128 
 531      18E224E5 
 531      876E2C11 
 531      86
 532 113b 67A32980 		.ascii	"g\243)\200E\207\224IO\271\262\336\011\317D\310\252\224"
 532      45879449 
 532      4FB9B2DE 
ARM GAS  /tmp/ccYNSMKJ.s 			page 42


 532      09CF44C8 
 532      AA94
 533 114d A5629053 		.ascii	"\245b\220SP\021\344!\202\374SA~Z\220\237\021\344\241"
 533      5011E421 
 533      82FC5341 
 533      7E5A909F 
 533      11E4A1
 534 1160 82FCAC4F 		.ascii	"\202\374\254O\0368\000\312@\241T\206\237\301\351\261"
 534      1E3800CA 
 534      40A15486 
 534      9FC1E9B1 
 535 1170 20606710 		.ascii	" `g\020^'J2\374FK\213$9-\004\213\226\010@\214H\240\203"
 535      5E274A32 
 535      FC464B8B 
 535      24392D04 
 535      8B960840 
 536 1188 D7C4D270 		.ascii	"\327\304\322pqYP\301\305\376\364\220\240\242\2573l\306"
 536      715950C1 
 536      C5FEF490 
 536      A0A2AF33 
 536      6CC6
 537 119a C0485F2B 		.ascii	"\300H_+\015G\302J\246\002\366\255\200x3\310\315\241"
 537      0D47C24A 
 537      A602F6AD 
 537      807833C8 
 537      CDA1
 538 11ac 204CDA0D 		.ascii	" L\332\015Z\031\244\027\334\313P\"\321\"\011\317\307"
 538      5A19A417 
 538      DCCB5022 
 538      D12209CF 
 538      C7
 539 11bd 978AC5F1 		.ascii	"\227\212\305\361\014E\226\306\307Q>\244\221\036\211"
 539      0C4596C6 
 539      C7513EA4 
 539      911E89
 540 11cc 17C34D7D 		.ascii	"\027\303M}\011\303p\275\345\227\213&\303\255LiRX\011"
 540      09C370BD 
 540      E5978B26 
 540      C3AD4C69 
 540      525809
 541 11df 01807FA2 		.ascii	"\001\200\177\242\022\035\367\353XO]k0T\222\245\262\020"
 541      121DF7EB 
 541      584F5D6B 
 541      305492A5 
 541      B210
 542 11f1 00A74F54 		.ascii	"\000\247OT\0249\226\021\227\312\024\030\220C\214C\212"
 542      14399611 
 542      97CA1418 
 542      90438C43 
 542      8A
 543 1202 88B11290 		.ascii	"\210\261\022\220\315\023\251L_\"b\313\320\255!=T\006"
 543      CD13A94C 
 543      5F2262CB 
 543      D0AD213D 
 543      5406
 544 1214 26941E0F 		.ascii	"&\224\036\017\302/L\0057c\231\200\024)\007\335\245B"
 544      C22F4C05 
ARM GAS  /tmp/ccYNSMKJ.s 			page 43


 544      37639980 
 544      142907DD 
 544      A542
 545 1226 89289308 		.ascii	"\211(\223\010J\204\242\300otb\031\010\025\307\001\023"
 545      4A84A2C0 
 545      6F746219 
 545      0815C701 
 545      13
 546 1237 116A5013 		.ascii	"\021jP\023\025\350\027\313\226&\020\032\305\370kpG\232"
 546      15E817CB 
 546      9626101A 
 546      C5F86B70 
 546      479A
 547 1249 481ABE58 		.ascii	"H\032\276X\260\274\273a\226\324\214{0\206J\256\004b"
 547      B0BCBB61 
 547      96D48C7B 
 547      30864AAE 
 547      0462
 548 125b C1896258 		.ascii	"\301\211bX\011\227\025\203\334\201A\234\010\232RL*\003"
 548      09971583 
 548      DC81419C 
 548      089A524C 
 548      2A03
 549 126d 8F5C0CF7 		.ascii	"\217\\\014\367\001\234\364\314\"\022\025K\321\352\340"
 549      019CF4CC 
 549      2212154B 
 549      D1EAE0
 550 127c 622C1A2D 		.ascii	"b,\032-\315\220)a~\031\2151]F\325\313\272\352e\252\372"
 550      CD902961 
 550      7E198D31 
 550      5D46D5CB 
 550      BAEA65AA 
 551 1291 005C2D97 		.ascii	"\000\\-\227A\232J\272Lpz\231\334\207A\327\343V\277B"
 551      419A4ABA 
 551      4C707A99 
 551      DC8741D7 
 551      E356BF42 
 552 12a5 6F648343 		.ascii	"od\203C(\025\343\012\271\004\016\200\\\352\256/\324"
 552      2815E30A 
 552      B9040E80 
 552      5CEAAE2F 
 552      D4
 553 12b6 22695C79 		.ascii	"\"i\\y1e\210\275\022\210\211e\341\020a\305W4\2568+\""
 553      316588BD 
 553      12888965 
 553      E11061C5 
 553      5734AE38 
 554 12cc 82C691DF 		.ascii	"\202\306\221\337T\256V!\312\312U\"\301\020\030\3468"
 554      54AE5621 
 554      CACA5522 
 554      C11018E6 
 554      38
 555 12dd 5954C251 		.ascii	"YT\302Q\260\316\014YA\275\371\243\343\307\203\247\021"
 555      B0CE0C59 
 555      41BDF9A3 
 555      E3C783A7 
 555      11
ARM GAS  /tmp/ccYNSMKJ.s 			page 44


 556 12ee 9448F770 		.ascii	"\224H\367pQ\251\244\313\017\344&\204J\206\270\017\306"
 556      51A9A4CB 
 556      0FE42684 
 556      4A86B80F 
 556      C6
 557 12ff 11627861 		.ascii	"\021bxa2Sv\342$\250\370\012\012\007B\031\2246zdAa\332"
 557      325376E2 
 557      24A8F80A 
 557      0A074219 
 557      94367A64 
 558 1316 F0112F16 		.ascii	"\360\021/\026\012\243\013}/\276T\230^P0\262p \326\203"
 558      0AA30B7D 
 558      2FBE5498 
 558      5E5030B2 
 558      7020D683 
 559 132a D20A0A5E 		.ascii	"\322\012\012^,\364\025\214\032\343{ut\201\357\205\302"
 559      2CF4158C 
 559      1AE37B75 
 559      7481EF85 
 559      C2
 560 133b 425F6101 		.ascii	"B_a\001\234\303\200\237\015\037S\350\033NF\216|\241"
 560      9CC3809F 
 560      0D1F53E8 
 560      1B4E468E 
 560      7CA1
 561 134d 5078858E 		.ascii	"Px\205\216\032\014\375\307\026f\006\321\247\006\203"
 561      1A0CFDC7 
 561      166606D1 
 561      A70683
 562 135c DD8C46FF 		.ascii	"\335\214F\377\247\207\014\030\302\236\015\034\364\377"
 562      A7870C18 
 562      C29E0D1C 
 562      F4FF
 563 136a C6BB457B 		.ascii	"\306\273E{"
 564              		.text
 565              		.section	.gnu.lto_.symtab.9b8d12705c3a89c2,"",%progbits
 566 0000 5F76745F 		.ascii	"_vt_init\000\000\000\000\000\000\000\000\000\000\000"
 566      696E6974 
 566      00000000 
 566      00000000 
 566      000000
 567 0013 00C40000 		.ascii	"\000\304\000\000\000chVTDoSetI\000\000\000\000\000\000"
 567      00636856 
 567      54446F53 
 567      65744900 
 567      00000000 
 568 0028 00000000 		.ascii	"\000\000\000\000\000\000\307\000\000\000chVTDoReset"
 568      0000C700 
 568      00006368 
 568      5654446F 
 568      52657365 
 569 003d 49000000 		.ascii	"I\000\000\000\000\000\000\000\000\000\000\000\000\356"
 569      00000000 
 569      00000000 
 569      00EE
 570 004b 00000063 		.ascii	"\000\000\000ch\000\000\002\000\000\000\000\000\000\000"
 570      68000002 
ARM GAS  /tmp/ccYNSMKJ.s 			page 45


 570      00000000 
 570      000000
 571 005a 0000FA00 		.ascii	"\000\000\372\000\000\000stStartAlarm\000\000\002\000"
 571      00007374 
 571      53746172 
 571      74416C61 
 571      726D0000 
 572 0070 00000000 		.ascii	"\000\000\000\000\000\000\000\000\364\000\000\000stS"
 572      00000000 
 572      F4000000 
 572      737453
 573 007f 6574416C 		.ascii	"etAlarm\000\000\002\000\000\000\000\000\000\000\000"
 573      61726D00 
 573      00020000 
 573      00000000 
 573      0000
 574 0091 00F60000 		.ascii	"\000\366\000\000\000stStopAlarm\000\000\002\000\000"
 574      00737453 
 574      746F7041 
 574      6C61726D 
 574      00000200 
 575 00a6 00000000 		.ascii	"\000\000\000\000\000\000\000\370\000\000\000"
 575      000000F8 
 575      000000
 576              		.text
 577              		.section	.gnu.lto_.opts,"",%progbits
 578 0000 272D6D63 		.ascii	"'-mcpu=cortex-m4' '-mno-thumb-interwork' '-mthumb' "
 578      70753D63 
 578      6F727465 
 578      782D6D34 
 578      2720272D 
 579 0033 272D6767 		.ascii	"'-ggdb' '-O0' '-fomit-frame-pointer' '-falign-funct"
 579      64622720 
 579      272D4F30 
 579      2720272D 
 579      666F6D69 
 580 0066 696F6E73 		.ascii	"ions=16' '-ffunction-sections' '-fdata-sections' '-"
 580      3D313627 
 580      20272D66 
 580      66756E63 
 580      74696F6E 
 581 0099 666E6F2D 		.ascii	"fno-common' '-flto'\000"
 581      636F6D6D 
 581      6F6E2720 
 581      272D666C 
 581      746F2700 
 582              		.text
 583              		.cfi_sections	.debug_frame
 584              		.section	.text.st_lld_get_counter,"ax",%progbits
 585              		.align	2
 586              		.p2align 4,,15
 587              		.thumb
 588              		.thumb_func
 589              		.type	st_lld_get_counter, %function
 590              	st_lld_get_counter:
 591              	.LFB136:
 592              		.file 1 "../ChibiOS/os/hal/ports/STM32/LLD/TIMv1/st_lld.h"
ARM GAS  /tmp/ccYNSMKJ.s 			page 46


 593              		.loc 1 139 0
 594              		.cfi_startproc
 595              		@ args = 0, pretend = 0, frame = 0
 596              		@ frame_needed = 0, uses_anonymous_args = 0
 597              		@ link register save eliminated.
 598              		.loc 1 141 0
 599 0000 4FF08043 		mov	r3, #1073741824
 600 0004 5B6A     		ldr	r3, [r3, #36]
 601              		.loc 1 142 0
 602 0006 1846     		mov	r0, r3
 603 0008 7047     		bx	lr
 604              		.cfi_endproc
 605              	.LFE136:
 606              		.size	st_lld_get_counter, .-st_lld_get_counter
 607 000a 00BFAFF3 		.section	.text.port_timer_start_alarm,"ax",%progbits
 607      0080
 608              		.align	2
 609              		.p2align 4,,15
 610              		.thumb
 611              		.thumb_func
 612              		.type	port_timer_start_alarm, %function
 613              	port_timer_start_alarm:
 614              	.LFB142:
 615              		.file 2 "../ChibiOS/os/rt/ports/ARMCMx/chcore_timer.h"
 616              		.loc 2 71 0
 617              		.cfi_startproc
 618              		@ args = 0, pretend = 0, frame = 8
 619              		@ frame_needed = 0, uses_anonymous_args = 0
 620 0000 00B5     		push	{lr}
 621              		.cfi_def_cfa_offset 4
 622              		.cfi_offset 14, -4
 623 0002 83B0     		sub	sp, sp, #12
 624              		.cfi_def_cfa_offset 16
 625 0004 0190     		str	r0, [sp, #4]
 626              		.loc 2 73 0
 627 0006 0198     		ldr	r0, [sp, #4]
 628 0008 FFF7FEFF 		bl	stStartAlarm
 629              		.loc 2 74 0
 630 000c 03B0     		add	sp, sp, #12
 631              		@ sp needed
 632 000e 5DF804FB 		ldr	pc, [sp], #4
 633              		.cfi_endproc
 634              	.LFE142:
 635              		.size	port_timer_start_alarm, .-port_timer_start_alarm
 636 0012 00BFAFF3 		.section	.text.port_timer_stop_alarm,"ax",%progbits
 636      0080AFF3 
 636      0080AFF3 
 636      0080
 637              		.align	2
 638              		.p2align 4,,15
 639              		.thumb
 640              		.thumb_func
 641              		.type	port_timer_stop_alarm, %function
 642              	port_timer_stop_alarm:
 643              	.LFB143:
 644              		.loc 2 81 0
 645              		.cfi_startproc
ARM GAS  /tmp/ccYNSMKJ.s 			page 47


 646              		@ args = 0, pretend = 0, frame = 0
 647              		@ frame_needed = 0, uses_anonymous_args = 0
 648 0000 08B5     		push	{r3, lr}
 649              		.cfi_def_cfa_offset 8
 650              		.cfi_offset 3, -8
 651              		.cfi_offset 14, -4
 652              		.loc 2 83 0
 653 0002 FFF7FEFF 		bl	stStopAlarm
 654              		.loc 2 84 0
 655 0006 08BD     		pop	{r3, pc}
 656              		.cfi_endproc
 657              	.LFE143:
 658              		.size	port_timer_stop_alarm, .-port_timer_stop_alarm
 659 0008 AFF30080 		.section	.text.port_timer_set_alarm,"ax",%progbits
 659      AFF30080 
 660              		.align	2
 661              		.p2align 4,,15
 662              		.thumb
 663              		.thumb_func
 664              		.type	port_timer_set_alarm, %function
 665              	port_timer_set_alarm:
 666              	.LFB144:
 667              		.loc 2 93 0
 668              		.cfi_startproc
 669              		@ args = 0, pretend = 0, frame = 8
 670              		@ frame_needed = 0, uses_anonymous_args = 0
 671 0000 00B5     		push	{lr}
 672              		.cfi_def_cfa_offset 4
 673              		.cfi_offset 14, -4
 674 0002 83B0     		sub	sp, sp, #12
 675              		.cfi_def_cfa_offset 16
 676 0004 0190     		str	r0, [sp, #4]
 677              		.loc 2 95 0
 678 0006 0198     		ldr	r0, [sp, #4]
 679 0008 FFF7FEFF 		bl	stSetAlarm
 680              		.loc 2 96 0
 681 000c 03B0     		add	sp, sp, #12
 682              		@ sp needed
 683 000e 5DF804FB 		ldr	pc, [sp], #4
 684              		.cfi_endproc
 685              	.LFE144:
 686              		.size	port_timer_set_alarm, .-port_timer_set_alarm
 687 0012 00BFAFF3 		.section	.text.port_timer_get_time,"ax",%progbits
 687      0080AFF3 
 687      0080AFF3 
 687      0080
 688              		.align	2
 689              		.p2align 4,,15
 690              		.thumb
 691              		.thumb_func
 692              		.type	port_timer_get_time, %function
 693              	port_timer_get_time:
 694              	.LFB145:
 695              		.loc 2 105 0
 696              		.cfi_startproc
 697              		@ args = 0, pretend = 0, frame = 0
 698              		@ frame_needed = 0, uses_anonymous_args = 0
ARM GAS  /tmp/ccYNSMKJ.s 			page 48


 699 0000 08B5     		push	{r3, lr}
 700              		.cfi_def_cfa_offset 8
 701              		.cfi_offset 3, -8
 702              		.cfi_offset 14, -4
 703              		.loc 2 107 0
 704 0002 FFF7FEFF 		bl	st_lld_get_counter
 705 0006 0346     		mov	r3, r0
 706              		.loc 2 108 0
 707 0008 1846     		mov	r0, r3
 708 000a 08BD     		pop	{r3, pc}
 709              		.cfi_endproc
 710              	.LFE145:
 711              		.size	port_timer_get_time, .-port_timer_get_time
 712 000c AFF30080 		.section	.text.chVTGetSystemTimeX,"ax",%progbits
 713              		.align	2
 714              		.p2align 4,,15
 715              		.thumb
 716              		.thumb_func
 717              		.type	chVTGetSystemTimeX, %function
 718              	chVTGetSystemTimeX:
 719              	.LFB175:
 720              		.file 3 "../ChibiOS/os/rt/include/chvt.h"
 721              		.loc 3 228 0
 722              		.cfi_startproc
 723              		@ args = 0, pretend = 0, frame = 0
 724              		@ frame_needed = 0, uses_anonymous_args = 0
 725 0000 08B5     		push	{r3, lr}
 726              		.cfi_def_cfa_offset 8
 727              		.cfi_offset 3, -8
 728              		.cfi_offset 14, -4
 729              		.loc 3 233 0
 730 0002 FFF7FEFF 		bl	port_timer_get_time
 731 0006 0346     		mov	r3, r0
 732              		.loc 3 235 0
 733 0008 1846     		mov	r0, r3
 734 000a 08BD     		pop	{r3, pc}
 735              		.cfi_endproc
 736              	.LFE175:
 737              		.size	chVTGetSystemTimeX, .-chVTGetSystemTimeX
 738 000c AFF30080 		.section	.text._vt_init,"ax",%progbits
 739              		.align	2
 740              		.p2align 4,,15
 741              		.global	_vt_init
 742              		.thumb
 743              		.thumb_func
 744              		.type	_vt_init, %function
 745              	_vt_init:
 746              	.LFB241:
 747              		.file 4 "../ChibiOS/os/rt/src/chvt.c"
 748              		.loc 4 61 0
 749              		.cfi_startproc
 750              		@ args = 0, pretend = 0, frame = 0
 751              		@ frame_needed = 0, uses_anonymous_args = 0
 752              		@ link register save eliminated.
 753              		.loc 4 63 0
 754 0000 064B     		ldr	r3, .L11
 755 0002 074A     		ldr	r2, .L11+4
ARM GAS  /tmp/ccYNSMKJ.s 			page 49


 756 0004 DA61     		str	r2, [r3, #28]
 757              		.loc 4 64 0
 758 0006 054B     		ldr	r3, .L11
 759 0008 054A     		ldr	r2, .L11+4
 760 000a 1A62     		str	r2, [r3, #32]
 761              		.loc 4 65 0
 762 000c 034B     		ldr	r3, .L11
 763 000e 4FF0FF32 		mov	r2, #-1
 764 0012 5A62     		str	r2, [r3, #36]
 765              		.loc 4 69 0
 766 0014 014B     		ldr	r3, .L11
 767 0016 0022     		movs	r2, #0
 768 0018 9A62     		str	r2, [r3, #40]
 769              		.loc 4 71 0
 770 001a 7047     		bx	lr
 771              	.L12:
 772              		.align	2
 773              	.L11:
 774 001c 00000000 		.word	ch
 775 0020 1C000000 		.word	ch+28
 776              		.cfi_endproc
 777              	.LFE241:
 778              		.size	_vt_init, .-_vt_init
 779 0024 AFF30080 		.section	.text.chVTDoSetI,"ax",%progbits
 779      AFF30080 
 779      AFF30080 
 780              		.align	2
 781              		.p2align 4,,15
 782              		.global	chVTDoSetI
 783              		.thumb
 784              		.thumb_func
 785              		.type	chVTDoSetI, %function
 786              	chVTDoSetI:
 787              	.LFB242:
 788              		.loc 4 96 0
 789              		.cfi_startproc
 790              		@ args = 0, pretend = 0, frame = 32
 791              		@ frame_needed = 0, uses_anonymous_args = 0
 792 0000 00B5     		push	{lr}
 793              		.cfi_def_cfa_offset 4
 794              		.cfi_offset 14, -4
 795 0002 89B0     		sub	sp, sp, #36
 796              		.cfi_def_cfa_offset 40
 797 0004 0390     		str	r0, [sp, #12]
 798 0006 0291     		str	r1, [sp, #8]
 799 0008 0192     		str	r2, [sp, #4]
 800 000a 0093     		str	r3, [sp]
 801              		.loc 4 103 0
 802 000c 039B     		ldr	r3, [sp, #12]
 803 000e 009A     		ldr	r2, [sp]
 804 0010 1A61     		str	r2, [r3, #16]
 805              		.loc 4 104 0
 806 0012 039B     		ldr	r3, [sp, #12]
 807 0014 019A     		ldr	r2, [sp, #4]
 808 0016 DA60     		str	r2, [r3, #12]
 809              	.LBB2:
 810              		.loc 4 108 0
ARM GAS  /tmp/ccYNSMKJ.s 			page 50


 811 0018 FFF7FEFF 		bl	chVTGetSystemTimeX
 812 001c 0590     		str	r0, [sp, #20]
 813              		.loc 4 112 0
 814 001e 029B     		ldr	r3, [sp, #8]
 815 0020 012B     		cmp	r3, #1
 816 0022 01D8     		bhi	.L14
 817              		.loc 4 113 0
 818 0024 0223     		movs	r3, #2
 819 0026 0293     		str	r3, [sp, #8]
 820              	.L14:
 821              		.loc 4 117 0
 822 0028 314B     		ldr	r3, .L20
 823 002a DA69     		ldr	r2, [r3, #28]
 824 002c 314B     		ldr	r3, .L20+4
 825 002e 9A42     		cmp	r2, r3
 826 0030 19D1     		bne	.L15
 827              		.loc 4 121 0
 828 0032 2F4B     		ldr	r3, .L20
 829 0034 059A     		ldr	r2, [sp, #20]
 830 0036 9A62     		str	r2, [r3, #40]
 831              		.loc 4 122 0
 832 0038 2D4B     		ldr	r3, .L20
 833 003a 039A     		ldr	r2, [sp, #12]
 834 003c DA61     		str	r2, [r3, #28]
 835              		.loc 4 123 0
 836 003e 2C4B     		ldr	r3, .L20
 837 0040 039A     		ldr	r2, [sp, #12]
 838 0042 1A62     		str	r2, [r3, #32]
 839              		.loc 4 124 0
 840 0044 039B     		ldr	r3, [sp, #12]
 841 0046 2B4A     		ldr	r2, .L20+4
 842 0048 1A60     		str	r2, [r3]
 843              		.loc 4 125 0
 844 004a 039B     		ldr	r3, [sp, #12]
 845 004c 294A     		ldr	r2, .L20+4
 846 004e 5A60     		str	r2, [r3, #4]
 847              		.loc 4 126 0
 848 0050 039B     		ldr	r3, [sp, #12]
 849 0052 029A     		ldr	r2, [sp, #8]
 850 0054 9A60     		str	r2, [r3, #8]
 851              		.loc 4 129 0
 852 0056 264B     		ldr	r3, .L20
 853 0058 9A6A     		ldr	r2, [r3, #40]
 854 005a 029B     		ldr	r3, [sp, #8]
 855 005c 1344     		add	r3, r3, r2
 856 005e 1846     		mov	r0, r3
 857 0060 FFF7FEFF 		bl	port_timer_start_alarm
 858              		.loc 4 131 0
 859 0064 40E0     		b	.L13
 860              	.L15:
 861              		.loc 4 136 0
 862 0066 059A     		ldr	r2, [sp, #20]
 863 0068 029B     		ldr	r3, [sp, #8]
 864 006a 1A44     		add	r2, r2, r3
 865 006c 204B     		ldr	r3, .L20
 866 006e 9B6A     		ldr	r3, [r3, #40]
 867 0070 D31A     		subs	r3, r2, r3
ARM GAS  /tmp/ccYNSMKJ.s 			page 51


 868 0072 0693     		str	r3, [sp, #24]
 869              		.loc 4 137 0
 870 0074 1E4B     		ldr	r3, .L20
 871 0076 DB69     		ldr	r3, [r3, #28]
 872 0078 9A68     		ldr	r2, [r3, #8]
 873 007a 069B     		ldr	r3, [sp, #24]
 874 007c 9A42     		cmp	r2, r3
 875 007e 06D9     		bls	.L17
 876              		.loc 4 140 0
 877 0080 1B4B     		ldr	r3, .L20
 878 0082 9A6A     		ldr	r2, [r3, #40]
 879 0084 069B     		ldr	r3, [sp, #24]
 880 0086 1344     		add	r3, r3, r2
 881 0088 1846     		mov	r0, r3
 882 008a FFF7FEFF 		bl	port_timer_set_alarm
 883              	.L17:
 884              	.LBE2:
 885              		.loc 4 150 0
 886 008e 184B     		ldr	r3, .L20
 887 0090 DB69     		ldr	r3, [r3, #28]
 888 0092 0793     		str	r3, [sp, #28]
 889              		.loc 4 151 0
 890 0094 07E0     		b	.L18
 891              	.L19:
 892              		.loc 4 152 0
 893 0096 079B     		ldr	r3, [sp, #28]
 894 0098 9B68     		ldr	r3, [r3, #8]
 895 009a 069A     		ldr	r2, [sp, #24]
 896 009c D31A     		subs	r3, r2, r3
 897 009e 0693     		str	r3, [sp, #24]
 898              		.loc 4 153 0
 899 00a0 079B     		ldr	r3, [sp, #28]
 900 00a2 1B68     		ldr	r3, [r3]
 901 00a4 0793     		str	r3, [sp, #28]
 902              	.L18:
 903              		.loc 4 151 0 discriminator 1
 904 00a6 079B     		ldr	r3, [sp, #28]
 905 00a8 9A68     		ldr	r2, [r3, #8]
 906 00aa 069B     		ldr	r3, [sp, #24]
 907 00ac 9A42     		cmp	r2, r3
 908 00ae F2D3     		bcc	.L19
 909              		.loc 4 157 0
 910 00b0 039B     		ldr	r3, [sp, #12]
 911 00b2 079A     		ldr	r2, [sp, #28]
 912 00b4 1A60     		str	r2, [r3]
 913              		.loc 4 158 0
 914 00b6 039B     		ldr	r3, [sp, #12]
 915 00b8 1B68     		ldr	r3, [r3]
 916 00ba 5A68     		ldr	r2, [r3, #4]
 917 00bc 039B     		ldr	r3, [sp, #12]
 918 00be 5A60     		str	r2, [r3, #4]
 919              		.loc 4 159 0
 920 00c0 039B     		ldr	r3, [sp, #12]
 921 00c2 5B68     		ldr	r3, [r3, #4]
 922 00c4 039A     		ldr	r2, [sp, #12]
 923 00c6 1A60     		str	r2, [r3]
 924              		.loc 4 160 0
ARM GAS  /tmp/ccYNSMKJ.s 			page 52


 925 00c8 079B     		ldr	r3, [sp, #28]
 926 00ca 039A     		ldr	r2, [sp, #12]
 927 00cc 5A60     		str	r2, [r3, #4]
 928              		.loc 4 161 0
 929 00ce 039B     		ldr	r3, [sp, #12]
 930 00d0 069A     		ldr	r2, [sp, #24]
 931 00d2 9A60     		str	r2, [r3, #8]
 932              		.loc 4 165 0
 933 00d4 079B     		ldr	r3, [sp, #28]
 934 00d6 9A68     		ldr	r2, [r3, #8]
 935 00d8 069B     		ldr	r3, [sp, #24]
 936 00da D21A     		subs	r2, r2, r3
 937 00dc 079B     		ldr	r3, [sp, #28]
 938 00de 9A60     		str	r2, [r3, #8]
 939              		.loc 4 166 0
 940 00e0 034B     		ldr	r3, .L20
 941 00e2 4FF0FF32 		mov	r2, #-1
 942 00e6 5A62     		str	r2, [r3, #36]
 943              	.L13:
 944              		.loc 4 167 0
 945 00e8 09B0     		add	sp, sp, #36
 946              		@ sp needed
 947 00ea 5DF804FB 		ldr	pc, [sp], #4
 948              	.L21:
 949 00ee 00BF     		.align	2
 950              	.L20:
 951 00f0 00000000 		.word	ch
 952 00f4 1C000000 		.word	ch+28
 953              		.cfi_endproc
 954              	.LFE242:
 955              		.size	chVTDoSetI, .-chVTDoSetI
 956 00f8 AFF30080 		.section	.text.chVTDoResetI,"ax",%progbits
 956      AFF30080 
 957              		.align	2
 958              		.p2align 4,,15
 959              		.global	chVTDoResetI
 960              		.thumb
 961              		.thumb_func
 962              		.type	chVTDoResetI, %function
 963              	chVTDoResetI:
 964              	.LFB243:
 965              		.loc 4 177 0
 966              		.cfi_startproc
 967              		@ args = 0, pretend = 0, frame = 16
 968              		@ frame_needed = 0, uses_anonymous_args = 0
 969 0000 00B5     		push	{lr}
 970              		.cfi_def_cfa_offset 4
 971              		.cfi_offset 14, -4
 972 0002 85B0     		sub	sp, sp, #20
 973              		.cfi_def_cfa_offset 24
 974 0004 0190     		str	r0, [sp, #4]
 975              		.loc 4 201 0
 976 0006 314B     		ldr	r3, .L29
 977 0008 DA69     		ldr	r2, [r3, #28]
 978 000a 019B     		ldr	r3, [sp, #4]
 979 000c 9A42     		cmp	r2, r3
 980 000e 1CD0     		beq	.L23
ARM GAS  /tmp/ccYNSMKJ.s 			page 53


 981              		.loc 4 203 0
 982 0010 019B     		ldr	r3, [sp, #4]
 983 0012 5B68     		ldr	r3, [r3, #4]
 984 0014 019A     		ldr	r2, [sp, #4]
 985 0016 1268     		ldr	r2, [r2]
 986 0018 1A60     		str	r2, [r3]
 987              		.loc 4 204 0
 988 001a 019B     		ldr	r3, [sp, #4]
 989 001c 1B68     		ldr	r3, [r3]
 990 001e 019A     		ldr	r2, [sp, #4]
 991 0020 5268     		ldr	r2, [r2, #4]
 992 0022 5A60     		str	r2, [r3, #4]
 993              		.loc 4 205 0
 994 0024 019B     		ldr	r3, [sp, #4]
 995 0026 0022     		movs	r2, #0
 996 0028 DA60     		str	r2, [r3, #12]
 997              		.loc 4 208 0
 998 002a 019B     		ldr	r3, [sp, #4]
 999 002c 1A68     		ldr	r2, [r3]
 1000 002e 284B     		ldr	r3, .L29+4
 1001 0030 9A42     		cmp	r2, r3
 1002 0032 09D0     		beq	.L24
 1003              		.loc 4 209 0
 1004 0034 019B     		ldr	r3, [sp, #4]
 1005 0036 1B68     		ldr	r3, [r3]
 1006 0038 019A     		ldr	r2, [sp, #4]
 1007 003a 1268     		ldr	r2, [r2]
 1008 003c 9168     		ldr	r1, [r2, #8]
 1009 003e 019A     		ldr	r2, [sp, #4]
 1010 0040 9268     		ldr	r2, [r2, #8]
 1011 0042 0A44     		add	r2, r2, r1
 1012 0044 9A60     		str	r2, [r3, #8]
 1013              		.loc 4 211 0
 1014 0046 3EE0     		b	.L22
 1015              	.L24:
 1016 0048 3DE0     		b	.L22
 1017              	.L23:
 1018              		.loc 4 215 0
 1019 004a 019B     		ldr	r3, [sp, #4]
 1020 004c 1A68     		ldr	r2, [r3]
 1021 004e 1F4B     		ldr	r3, .L29
 1022 0050 DA61     		str	r2, [r3, #28]
 1023              		.loc 4 216 0
 1024 0052 1E4B     		ldr	r3, .L29
 1025 0054 DB69     		ldr	r3, [r3, #28]
 1026 0056 1E4A     		ldr	r2, .L29+4
 1027 0058 5A60     		str	r2, [r3, #4]
 1028              		.loc 4 217 0
 1029 005a 019B     		ldr	r3, [sp, #4]
 1030 005c 0022     		movs	r2, #0
 1031 005e DA60     		str	r2, [r3, #12]
 1032              		.loc 4 220 0
 1033 0060 1A4B     		ldr	r3, .L29
 1034 0062 DA69     		ldr	r2, [r3, #28]
 1035 0064 1A4B     		ldr	r3, .L29+4
 1036 0066 9A42     		cmp	r2, r3
 1037 0068 02D1     		bne	.L26
ARM GAS  /tmp/ccYNSMKJ.s 			page 54


 1038              		.loc 4 221 0
 1039 006a FFF7FEFF 		bl	port_timer_stop_alarm
 1040              		.loc 4 223 0
 1041 006e 2AE0     		b	.L22
 1042              	.L26:
 1043              		.loc 4 227 0
 1044 0070 164B     		ldr	r3, .L29
 1045 0072 DB69     		ldr	r3, [r3, #28]
 1046 0074 154A     		ldr	r2, .L29
 1047 0076 D269     		ldr	r2, [r2, #28]
 1048 0078 9168     		ldr	r1, [r2, #8]
 1049 007a 019A     		ldr	r2, [sp, #4]
 1050 007c 9268     		ldr	r2, [r2, #8]
 1051 007e 0A44     		add	r2, r2, r1
 1052 0080 9A60     		str	r2, [r3, #8]
 1053              		.loc 4 236 0
 1054 0082 FFF7FEFF 		bl	chVTGetSystemTimeX
 1055 0086 0246     		mov	r2, r0
 1056 0088 104B     		ldr	r3, .L29
 1057 008a 9B6A     		ldr	r3, [r3, #40]
 1058 008c D31A     		subs	r3, r2, r3
 1059 008e 0293     		str	r3, [sp, #8]
 1060              		.loc 4 240 0
 1061 0090 0E4B     		ldr	r3, .L29
 1062 0092 DB69     		ldr	r3, [r3, #28]
 1063 0094 9A68     		ldr	r2, [r3, #8]
 1064 0096 029B     		ldr	r3, [sp, #8]
 1065 0098 9A42     		cmp	r2, r3
 1066 009a 00D8     		bhi	.L27
 1067              		.loc 4 241 0
 1068 009c 13E0     		b	.L22
 1069              	.L27:
 1070              		.loc 4 245 0
 1071 009e 0B4B     		ldr	r3, .L29
 1072 00a0 DB69     		ldr	r3, [r3, #28]
 1073 00a2 9A68     		ldr	r2, [r3, #8]
 1074 00a4 029B     		ldr	r3, [sp, #8]
 1075 00a6 D31A     		subs	r3, r2, r3
 1076 00a8 0393     		str	r3, [sp, #12]
 1077              		.loc 4 249 0
 1078 00aa 039B     		ldr	r3, [sp, #12]
 1079 00ac 012B     		cmp	r3, #1
 1080 00ae 01D8     		bhi	.L28
 1081              		.loc 4 250 0
 1082 00b0 0223     		movs	r3, #2
 1083 00b2 0393     		str	r3, [sp, #12]
 1084              	.L28:
 1085              		.loc 4 253 0
 1086 00b4 054B     		ldr	r3, .L29
 1087 00b6 9A6A     		ldr	r2, [r3, #40]
 1088 00b8 029B     		ldr	r3, [sp, #8]
 1089 00ba 1A44     		add	r2, r2, r3
 1090 00bc 039B     		ldr	r3, [sp, #12]
 1091 00be 1344     		add	r3, r3, r2
 1092 00c0 1846     		mov	r0, r3
 1093 00c2 FFF7FEFF 		bl	port_timer_set_alarm
 1094              	.L22:
ARM GAS  /tmp/ccYNSMKJ.s 			page 55


 1095              		.loc 4 255 0
 1096 00c6 05B0     		add	sp, sp, #20
 1097              		@ sp needed
 1098 00c8 5DF804FB 		ldr	pc, [sp], #4
 1099              	.L30:
 1100              		.align	2
 1101              	.L29:
 1102 00cc 00000000 		.word	ch
 1103 00d0 1C000000 		.word	ch+28
 1104              		.cfi_endproc
 1105              	.LFE243:
 1106              		.size	chVTDoResetI, .-chVTDoResetI
 1107 00d4 AFF30080 		.text
 1107      AFF30080 
 1107      AFF30080 
 1108              	.Letext0:
 1109              		.file 5 "/nfs/nfs5/home/research/hardware/arm2/gcc-arm-embedded/gcc-arm-none-eabi-4_8-2014q2/arm-n
 1110              		.file 6 "/nfs/nfs5/home/research/hardware/arm2/gcc-arm-embedded/gcc-arm-none-eabi-4_8-2014q2/arm-n
 1111              		.file 7 "../ChibiOS/os/rt/ports/ARMCMx/compilers/GCC/chtypes.h"
 1112              		.file 8 "../ChibiOS/os/rt/include/chsystypes.h"
 1113              		.file 9 "../ChibiOS/os/rt/include/chschd.h"
 1114              		.file 10 "../ChibiOS/os/rt/ports/ARMCMx/chcore.h"
 1115              		.file 11 "../ChibiOS/os/rt/ports/ARMCMx/chcore_v7m.h"
 1116              		.file 12 "../ChibiOS/os/hal/ports/STM32/LLD/TIMv1/stm32_tim.h"
 1117              		.file 13 "../ChibiOS/os/rt/include/chtm.h"
 1118              		.file 14 "../ChibiOS/os/rt/include/chsem.h"
 1119              		.file 15 "../ChibiOS/os/rt/include/chmtx.h"
 1120              		.file 16 "../ChibiOS/os/ext/CMSIS/include/core_cm4.h"