ARM GAS  /tmp/cc1FKUxP.s 			page 1


   1              		.syntax unified
   2              		.cpu cortex-m4
   3              		.fpu softvfp
   4              		.eabi_attribute 20, 1
   5              		.eabi_attribute 21, 1
   6              		.eabi_attribute 23, 3
   7              		.eabi_attribute 24, 1
   8              		.eabi_attribute 25, 1
   9              		.eabi_attribute 26, 1
  10              		.eabi_attribute 30, 6
  11              		.eabi_attribute 34, 1
  12              		.eabi_attribute 18, 4
  13              		.thumb
  14              		.file	"crt1.c"
  15              		.text
  16              	.Ltext0:
  17              		.section	.gnu.lto_.inline.323091c1516f35ee,"",%progbits
  18 0000 789C6362 		.ascii	"x\234cb`b\300\006b\2404+\003\0033P\005\023\323\002y"
  18      6062C006 
  18      62A0342B 
  18      03033350 
  18      0513D302 
  19 0015 0616885A 		.ascii	"\006\026\210ZF\014\021&\014\021f0\005\302P\001\026\006"
  19      460C1126 
  19      0C116630 
  19      05C25001 
  19      1606
  20 0027 1161A080 		.ascii	"\021a\240\200\312\207\025L0!\006\000\336\300\004\321"
  20      CA87154C 
  20      30210600 
  20      DEC004D1 
  21              		.text
  22              		.section	.gnu.lto___core_init.323091c1516f35ee,"",%progbits
  23 0000 789C6362 		.ascii	"x\234cb`b@\007\"@\354\013\304\226 \0163\003#P\005#\023"
  23      60624007 
  23      2240EC0B 
  23      C496200E 
  23      33032350 
  24 0017 232390C3 		.ascii	"##\220\303\310P\317\304X\037\311\010V\266\236\351\300"
  24      C850CFC4 
  24      581FC908 
  24      56B69EE9 
  24      C0
  25 0028 83FFFFD7 		.ascii	"\203\377\377\327m\353\2323\207q\025\023H\214\225\241"
  25      6DEB9A33 
  25      87711513 
  25      488C95A1 
  26 0038 A5A16182 		.ascii	"\245\241a\202\002\003C2XE\010\230\014\005\351g\276\310"
  26      02034332 
  26      58450898 
  26      0C05E967 
  26      BEC8
  27 004a C098C8B8 		.ascii	"\300\230\310\270\220\221\025nI\010\310@\220\335\346"
  27      9091156E 
  27      4908C840 
  27      90DDE6
  28 0059 7A7AFACE 		.ascii	"zz\372\316\031\231I\231\376\301\372\371\305\372\311"
ARM GAS  /tmp/cc1FKUxP.s 			page 2


  28      19994999 
  28      FEC1FAF9 
  28      C5FAC9
  29 0068 F9B9B9F9 		.ascii	"\371\271\271\371y\372\005\371E%\305\372\216A\276\316"
  29      79FA05F9 
  29      4525C5FA 
  29      8E41BECE 
  30 0078 BE1520B1 		.ascii	"\276\025 \261\202\314\234\324\242b}wgg\375\344\242\022"
  30      82CC9CD4 
  30      A2627D77 
  30      6767FDE4 
  30      A212
  31 008a 43BD6406 		.ascii	"C\275d\006\000\021\214\"f"
  31      00118C22 
  31      66
  32              		.text
  33              		.section	.gnu.lto___early_init.323091c1516f35ee,"",%progbits
  34 0000 789C6362 		.ascii	"x\234cb`b@\007\"@\354\005\304\226 \0163\003#P\005#\023"
  34      60624007 
  34      2240EC05 
  34      C496200E 
  34      33032350 
  35 0017 232390C3 		.ascii	"##\220\303\310P\317\304X\037\311\010V\266\236\351\300"
  35      C850CFC4 
  35      581FC908 
  35      56B69EE9 
  35      C0
  36 0028 83FFFFD7 		.ascii	"\203\377\377\327\37595G\002$\300\312\320\322\3200A\201"
  36      FD393547 
  36      0224C0CA 
  36      D0D2D030 
  36      4181
  37 003a 8121192C 		.ascii	"\201!\031,\035\002&CA\232\231/20&2.dd\205\333\020\002"
  37      1D022643 
  37      419A992F 
  37      32302632 
  37      2E646485 
  38 0051 320D64B1 		.ascii	"2\015d\261\271\236\236\276sFfR\246\177\260~~\261~r~"
  38      B99E9EBE 
  38      73466652 
  38      A67FB07E 
  38      7EB17E72 
  39 0066 6E6E7E9E 		.ascii	"nn~\236~A~QI\261\276c\220\257\263o\005H\254 3'\265\250"
  39      7E417E51 
  39      49B1BE63 
  39      90AFB36F 
  39      0548AC20 
  40 007e 58DFDDD9 		.ascii	"X\337\335\331Y?\271\250\304P/\231\001\000\247\257!\270"
  40      593FB9A8 
  40      C4502F99 
  40      0100A7AF 
  40      21B8
  41              		.text
  42              		.section	.gnu.lto___late_init.323091c1516f35ee,"",%progbits
  43 0000 789C6362 		.ascii	"x\234cb`b@\007\"@\354\005\304\226 \0163\003#P\005#\023"
  43      60624007 
  43      2240EC05 
ARM GAS  /tmp/cc1FKUxP.s 			page 3


  43      C496200E 
  43      33032350 
  44 0017 232390C3 		.ascii	"##\220\303\310P\317\304X\037\311\010V\266\236\351\300"
  44      C850CFC4 
  44      581FC908 
  44      56B69EE9 
  44      C0
  45 0028 83FFFFD7 		.ascii	"\203\377\377\327\355\350\236#\001\022`ehih\230\240\300"
  45      EDE89E23 
  45      01126065 
  45      68696898 
  45      A0C0
  46 003a C0900C96 		.ascii	"\300\220\014\226\016\001\223\241 \315\314\027\031\030"
  46      0E0193A1 
  46      20CDCC17 
  46      1918
  47 0048 13191732 		.ascii	"\023\031\0272\262\302m\010\001\231\006\262\330\\OO\337"
  47      B2C26D08 
  47      019906B2 
  47      D85C4F4F 
  47      DF
  48 0059 39233329 		.ascii	"9#3)\323?X?\277X?9?77?O\277 \277\250\244X\3371\310\327"
  48      D33F583F 
  48      BF583F39 
  48      3F37373F 
  48      4FBF20BF 
  49 0074 D9B70224 		.ascii	"\331\267\002$V\220\231\223ZT\254\357\356\354\254\237"
  49      56909993 
  49      5A54ACEF 
  49      EEECAC9F 
  50 0084 5C5462A8 		.ascii	"\\Tb\250\227\314\000\000l\017!5"
  50      97CC0000 
  50      6C0F2135 
  51              		.text
  52              		.section	.gnu.lto___default_exit.323091c1516f35ee,"",%progbits
  53 0000 789C6362 		.ascii	"x\234cb`b@\007\"@l\003\304\226 \0163\003#P\005#\023"
  53      60624007 
  53      22406C03 
  53      C496200E 
  53      33032350 
  54 0017 986464A8 		.ascii	"\230dd\250gb\254\217d\004+[\317t\340\301\377\377\353"
  54      6762AC8F 
  54      64042B5B 
  54      CF74E0C1 
  54      FFFFEB
  55 002a 3E9D9EFB 		.ascii	">\235\236\373\206q=\023H\214\225\241\245\241a\202\002"
  55      86713D13 
  55      488C95A1 
  55      A5A16182 
  55      02
  56 003b 03433258 		.ascii	"\003C2XE\010\224\004\352d\016a\204hb0\327\323\323w\316"
  56      45089404 
  56      EA640E61 
  56      84686230 
  56      D7D3D377 
  57 0050 C84CCAF4 		.ascii	"\310L\312\364\017\326\317/\326O\316\317\315\315\317"
  57      0FD6CF2F 
ARM GAS  /tmp/cc1FKUxP.s 			page 4


  57      D64FCECF 
  57      CDCDCF
  58 005f D32FC82F 		.ascii	"\323/\310/*)\326w\014\362u\366\255\000\211\025d\346"
  58      2A29D677 
  58      0CF275F6 
  58      AD008915 
  58      64E6
  59 0071 A41615EB 		.ascii	"\244\026\025\353\273;;\353'\027\225\030\352%3\000\000"
  59      BB3B3BEB 
  59      27179518 
  59      EA253300 
  59      00
  60 0082 E31D214C 		.ascii	"\343\035!L"
  61              		.text
  62              		.section	.gnu.lto___init_ram_areas.323091c1516f35ee,"",%progbits
  63 0000 789C8D54 		.ascii	"x\234\215TMh\023Q\020\236yo\263\177M\323\202\027\013"
  63      4D681351 
  63      109E796F 
  63      B37F4DD3 
  63      82170B
  64 0013 164A2F1E 		.ascii	"\026J/\036\304\006O\205\036\204\232\203\247\"\376\004"
  64      C4064F85 
  64      1E849A83 
  64      A722FE04 
  65 0023 EA416D1A 		.ascii	"\352Am\032%\006\214\011i\005A\241/m\005\321\242Q\024"
  65      25068C09 
  65      690541A1 
  65      2F6D05D1 
  65      A25114
  66 0036 5A4DA182 		.ascii	"ZM\241\202\212\224\202\250\007\253U\250\340AA\203\275"
  66      8A9482A8 
  66      07AB55A8 
  66      E0414183 
  66      BD
  67 0047 08150FED 		.ascii	"\010\025\017\355\301V\324K\211\242\326b\234\267\373"
  67      C156D44B 
  67      89A2D662 
  67      9CB7FB
  68 0056 365BA4D5 		.ascii	"6[\244\325<\330yog\346\233\231\357\315\3542`\360\367"
  68      3CD8796F 
  68      67E69B99 
  68      EFCDEC32 
  68      60F0F7
  69 0069 3A484F63 		.ascii	":HOc\000`\207|\251\001$\017d\310Ir$5j\216\0140\015@"
  69      0060877C 
  69      A901240F 
  69      64C84972 
  69      24356A8E 
  70 0081 309D84A6 		.ascii	"0\235\204\246\243I\032\303\221&3\244\336\222z\213qy"
  70      A3491AC3 
  70      912633A4 
  70      DE927A8B 
  70      7179
  71 0093 B6E5D946 		.ascii	"\266\345\331F\244p\010}\214k\001\3350-\033\373\366K"
  71      A470087D 
  71      8C6B01DD 
  71      302D1BFB 
ARM GAS  /tmp/cc1FKUxP.s 			page 5


  71      F64B
  72 00a5 15E8CD70 		.ascii	"\025\350\315pC\210\313s\267\026\347q\344\312\364\340"
  72      4388CB73 
  72      B716E771 
  72      E4CAF4E0 
  73 00b5 98582997 		.ascii	"\230X)\227\021\223\322\030G\350\244\02369\233L\271z"
  73      1193D218 
  73      47E8A413 
  73      36399B4C 
  73      B97A
  74 00c7 B9C0E947 		.ascii	"\271\300\351G\305\253\015\347\306\372\363\3427\341\222"
  74      C5AB0DE7 
  74      C6FAF3E2 
  74      37E192
  75 00d6 B2D2AA60 		.ascii	"\262\322\252`o\213Cv>wV\224\313}\325\203F.\2146\010"
  75      6F8B4376 
  75      3E775694 
  75      CB7DD583 
  75      462E8C36 
  76 00eb 3F97C6A0 		.ascii	"?\227\306\240\015\253C\336+^\\\215\344\014\266W\211"
  76      0DAB43DE 
  76      2B5E5C8D 
  76      E40CB657 
  76      89
  77 00fc BC5F0CFA 		.ascii	"\274_\014\372u2h\377\037\354.\233\236+\227\237,}\235"
  77      753268FF 
  77      1FEC2E9B 
  77      9E2B979F 
  77      2C7D9D
  78 010f 9FC20D75 		.ascii	"\237\302\015u\0101\274\211\315\324\350\030\336\246\235"
  78      0831BC89 
  78      CDD4E818 
  78      DEA69D
  79 011e D37E8776 		.ascii	"\323~\207vM\355\001e\327\225\335Pz\023(\233E\002l\245"
  79      4DED0165 
  79      D795DD50 
  79      7A13289B 
  79      45026CA5 
  80 0132 A9511E41 		.ascii	"\251Q\036Ai\251U\312\220\202\323\012\300\240\020\371"
  80      69A955CA 
  80      9082D30A 
  80      C0A010F9 
  81 0142 26EF3DEE 		.ascii	"&\357=\356tw\237#\243r\212\370k\350_\036xPh\213\341"
  81      74779F23 
  81      A3728AF8 
  81      6BE85F1E 
  81      7850688B 
  82 0157 38CD5002 		.ascii	"8\315P\002\003\247`Y\014\013q\211H\004R\3503\210\312"
  82      03A76059 
  82      0C0B7189 
  82      480452E8 
  82      3388CA
  83 016a 7E48F777 		.ascii	"~H\367w\303\013?\261\022W&w\263\002\2701h%P\337\002"
  83      C30B3FB1 
  83      12572677 
  83      B302B831 
  83      682550DF 
ARM GAS  /tmp/cc1FKUxP.s 			page 6


  84 017f E3222FC4 		.ascii	"\343\"/\304\241$\352\327\341\032\0053\022\210\362f\334"
  84      A124EAD7 
  84      E11A0533 
  84      1288F266 
  84      DC
  85 0190 8BE9AE44 		.ascii	"\213\351\256D\226\021')b\014'\234\002\014\205<\260."
  85      96112729 
  85      620C279C 
  85      020C853C 
  85      B02E
  86 01a2 D22F6A16 		.ascii	"\322/j\026\220*f\257\226>\322\036\262V\276u\311:5\267"
  86      902A66AF 
  86      963ED21E 
  86      B256BE75 
  86      C93A35B7 
  87 01b6 CEC767BE 		.ascii	"\316\307g\276\0276yQ-7\224\231@\326\351\316\243\227"
  87      17367951 
  87      2D379499 
  87      40D6E9CE 
  87      A397
  88 01c8 FCE51BDD 		.ascii	"\374\345\033\335u\"\217\234\020\242\316\361\342\276"
  88      75228F9C 
  88      10A2CEF1 
  88      E2BE
  89 01d6 1781A5E3 		.ascii	"\027\201\245\343\300\371\201_\205\215^<[\2718}v\214"
  89      C0F9815F 
  89      858D5E3C 
  89      5BB9387D 
  89      768C
  90 01e8 E5428367 		.ascii	"\345B\203g\254QY*C\020\225\327\342\336\335\342,\363"
  90      AC51592A 
  90      431095D7 
  90      E2DEDDE2 
  90      2CF3
  91 01fa DC4CC9B4 		.ascii	"\334L\311\264~]\232\336_\340\005<_\310\265V@\211J\361"
  91      7E5D9ADE 
  91      5FE0053C 
  91      5FC8B556 
  91      40894AF1 
  92 020e 449FD14D 		.ascii	"D\237\321M\363\241\322i\312\251\255\224\016\317\002"
  92      F3A1D269 
  92      CAA9AD94 
  92      0ECF02
  93 021d A70BE405 		.ascii	"\247\013\344\005\251\260\265/\245.\331k\372\035\360"
  93      A9B0B52F 
  93      A52ED96B 
  93      FA1DF0
  94 022c 281A6E01 		.ascii	"(\032n\001\223\303\237gp\015\276\232\317W\236L\360h"
  94      93C39F67 
  94      700DBE9A 
  94      CF579E4C 
  94      F068
  95 023e 3D1CAD70 		.ascii	"=\034\255p\256Un\253h\231\212\326\217O>\255\340\277"
  95      AE556EAB 
  95      68998AD6 
  95      8F4F3EAD 
  95      E0BF
ARM GAS  /tmp/cc1FKUxP.s 			page 7


  96 0250 69F13569 		.ascii	"i\3615i\005\023\250\371\2644\"\251SKk\215\367nK-'\017"
  96      0513A8F9 
  96      B43422A9 
  96      534B6B8D 
  96      F76E4B2D 
  97 0266 95F3B4D1 		.ascii	"\225\363\264\321C\204T\\V\357\006\373\360\254TDo\212"
  97      4384545C 
  97      56EF06FB 
  97      F0AC5444 
  97      6F8A
  98 0278 436A8A77 		.ascii	"Cj\212wS\336\2550!\347\351\004\225\222r\277Q\313\204"
  98      53DEAD30 
  98      21E7E904 
  98      959272BF 
  98      51CB84
  99 028b B55614E9 		.ascii	"\265V\024\351\257\310g 77\265\2712\312\340~04s\262\037"
  99      AFC86720 
  99      3737B5B9 
  99      32CAE07E 
  99      303473B2 
 100 02a0 AD2D2DE1 		.ascii	"\255--\341\310\321dwr\327\336p\272'\034O\247R\351\343"
 100      C8D16477 
 100      72D7DE70 
 100      BA271C4F 
 100      A752E9E3 
 101 02b4 E14C3ADB 		.ascii	"\341L:\333\333\023n\337\323\021\3518)u\231\344\261#"
 101      DB136EDF 
 101      D311E938 
 101      297599E4 
 101      B123
 102 02c6 D99EF0CE 		.ascii	"\331\236\360\316H$\034\317\366nk\211\003\317\3062\254"
 102      48241CCF 
 102      F66E6B89 
 102      03CFC632 
 102      AC
 103 02d7 3783993F 		.ascii	"7\203\231?\245\3536\201"
 103      A5EB3681 
 104              		.text
 105              		.section	.gnu.lto_.symbol_nodes.323091c1516f35ee,"",%progbits
 106 0000 789C4DD0 		.ascii	"x\234M\320\333ZAa\024\205\341\371\375\313\242\215D$"
 106      DB5A4161 
 106      1485E1F9 
 106      FDCBA28D 
 106      4424
 107 0012 7B5D44F7 		.ascii	"{]D\367\367\227})\024\251P\272\"\207n\246H\343q`\315"
 107      F7977D29 
 107      14A950BA 
 107      22876EA6 
 107      48E37160 
 108 0027 93F7F94E 		.ascii	"\223\367\371N\306\301t\346\354\006\333\237\3735o6Z\231"
 108      C6C174E6 
 108      EC06DB9F 
 108      FB356F36 
 108      5A99
 109 0039 79BFEEE1 		.ascii	"y\277\356\3416\346\211\344\326\274\213\344\237\371 "
 109      36E689E4 
 109      D6BC8BE4 
ARM GAS  /tmp/cc1FKUxP.s 			page 8


 109      9FF920
 110 0048 92B7F8D8 		.ascii	"\222\267\370\330!\303\037\263\270\017\302;\370\337\014"
 110      21C31FB3 
 110      B80FC23B 
 110      F8DF0C
 111 0057 1B38D124 		.ascii	"\0338\321$\020-b\242M(:\304E\227\204\350q$\3569\026"
 111      102D62A2 
 111      4D283AC4 
 111      459784E8 
 111      7124EE39 
 112 006c 0F9C883E 		.ascii	"\017\234\210>\247\342\221\244x\342L\014H\211!\347bD"
 112      A7E291A4 
 112      78E24C0C 
 112      488921E7 
 112      6244
 113 007e 5A3C9311 		.ascii	"Z<\223\021/\\\2101Y1!'^\271\024S\362\342\215+\361NA"
 113      2F5C8831 
 113      59312127 
 113      5EB91453 
 113      F2E28D2B 
 114 0095 7C501433 		.ascii	"|P\0243JbNY,\250\210O\252\342\213\232XR\027\337\\\353"
 114      4A624E59 
 114      2CA8884F 
 114      AAE28B9A 
 114      585217DF 
 115 00ab 593B79EA 		.ascii	"Y;y\352@/"
 115      402F
 116              		.text
 117              		.section	.gnu.lto_.refs.323091c1516f35ee,"",%progbits
 118 0000 789C25C1 		.ascii	"x\234%\301[\026BP\000\000\300{\346\270Ry\246\007J\221"
 118      5B164250 
 118      0000C07B 
 118      E6B85279 
 118      A6074A91 
 119 0014 2CA6FD6F 		.ascii	",\246\375o\310\207\031A\370\207\235D\024\247(u\2209"
 119      C8871941 
 119      F8879D44 
 119      14A72875 
 119      9039
 120 0026 3A39CB15 		.ascii	":9\313\025J\225Z\343\242uus\367\320\351\015\236^Fo\037"
 120      4A955AE3 
 120      A2757573 
 120      F7D0E90D 
 120      9E5E466F 
 121 003b 93D9D7E2 		.ascii	"\223\331\327\342g\015\033s\304\003w"
 121      670D1B73 
 121      C40377
 122              		.text
 123              		.section	.gnu.lto_.decls.323091c1516f35ee,"",%progbits
 124 0000 789CBD58 		.ascii	"x\234\275Xml\024E\030\236\331\226\266\327\036\005Q1"
 124      6D6C1445 
 124      189ED996 
 124      B6D71E05 
 124      5131
 125 0012 180D5715 		.ascii	"\030\015W\025M\210\355r\327k\253F\010\246?\360\017\232"
 125      4D88ED72 
 125      D76BAB46 
ARM GAS  /tmp/cc1FKUxP.s 			page 9


 125      08A63FF0 
 125      0F9A
 126 0024 6048FCB7 		.ascii	"`H\374\267Y\256\213\275\320\273\303\273m\000\375\263"
 126      59AE8BBD 
 126      D0BBC3BB 
 126      6D00FDB3 
 127 0034 7C041A8C 		.ascii	"|\004\032\214\246\020\212\232Z\340TH\211\325\2646\266"
 127      A6108A9A 
 127      5AE05448 
 127      89D5B436 
 127      B6
 128 0045 14A8BD36 		.ascii	"\024\250\2756\001\213M\015\322TS\213\241\3613(&V\011"
 128      018B4D0D 
 128      D254538B 
 128      A1F13328 
 128      265609
 129 0058 06829CEF 		.ascii	"\006\202\234\357~\334\307\314\316t\350\037'}\356fw\337"
 129      7EDCC7CC 
 129      CE74E81F 
 129      277DEE66 
 129      77DF
 130 006a E77D66DF 		.ascii	"\347}f\337g\336iZ\011I\250\013#\224\206\221\274\017"
 130      67DE695A 
 130      0949A80B 
 130      23948691 
 130      BC0F
 131 007c A1DF0B10 		.ascii	"\241\337\013\020*B\010\255A\271\261\000\220\004t\002"
 131      2A4208AD 
 131      41B9B100 
 131      90047402 
 132 008c BA00DD80 		.ascii	"\272\000\335\200>@\005`\000\360\015`\012p\031p\005\360"
 132      3E400560 
 132      00F00D60 
 132      0A701970 
 132      05F0
 133 009e 23E017C0 		.ascii	"#\340\027\300U\3005\300\237\200\277\0017\0007\001\377"
 133      55C035C0 
 133      9F80BF01 
 133      37003701 
 133      FF
 134 00af 9A4941B3 		.ascii	"\232IA\263\000P\004(\005,\004,\006\334\013x\000\360"
 134      00500428 
 134      052C042C 
 134      06DC0B78 
 134      00F0
 135 00c1 20E06180 		.ascii	" \340a\200\017\360\030\340\011\300J@%\300\017\010\002"
 135      0FF018E0 
 135      09C04A40 
 135      25C00F08 
 135      02
 136 00d2 EA00CF60 		.ascii	"\352\000\317`D\214d\336\034S\327\231\321I\305t2b\272"
 136      448C64DE 
 136      1C53D799 
 136      D149C574 
 136      3262BA
 137 00e5 A8982E46 		.ascii	"\250\230.FL7\025\323\315\2101\353T\012(\006\224\003"
 137      4C3715D3 
ARM GAS  /tmp/cc1FKUxP.s 			page 10


 137      CD8831EB 
 137      540A2806 
 137      9403
 138 00f7 BC8061C0 		.ascii	"\274\200a\300\263@X\015X\0038\003\327#\200B\007)\300"
 138      B340580D 
 138      58033803 
 138      D7238042 
 138      0729C0
 139 010a 05C01860 		.ascii	"\005\300\030`\334\311\335\347|\017P\371\227\243#\306"
 139      DCC9DDE7 
 139      7C0F50F9 
 139      97A323C6 
 140 011a B1D4CCCF 		.ascii	"\261\324\314\317'z\226\031\307v\015\247\323Ck\321R\324"
 140      277A9619 
 140      C7760DA7 
 140      D3436BD1 
 140      52D4
 141 012c 66C038B6 		.ascii	"f\3008\266\3270\260\256\3425\367\243\227\261\212\313"
 141      D730B0AE 
 141      E235F7A3 
 141      97B18ACB 
 142 013c 3DC8674D 		.ascii	"=\310gM\274\036K\005!\025\277\217\227:\263\215\005v"
 142      BC1E4B05 
 142      2115BF8F 
 142      973AB38D 
 142      0576
 143 014e 3EC9ACE8 		.ascii	">\311\254\350Jt\022\370\255\2061\362(U^\030\005\020"
 143      4A7412F8 
 143      AD8631F2 
 143      28555E18 
 143      0510
 144 0160 033FEBB3 		.ascii	"\003?\353\263O\036G\307M9\243\323(\260\304\314tI\274"
 144      4F1E47C7 
 144      4D39A3D3 
 144      28B0C4CC 
 144      7449BC
 145 0173 3C9FA3E2 		.ascii	"<\237\243\342\017\260\344^v\352\366\227\336\326\341"
 145      0FB0E45E 
 145      76EAF697 
 145      DED6E1
 146 0182 9974FAA8 		.ascii	"\231t\372\250\317^\213\2046`\010\376\020\257\314I\251"
 146      CF5E8B84 
 146      366008FE 
 146      10AFCC49 
 146      A9
 147 0193 F8448ECB 		.ascii	"\370D\216\313\322\352\244\265N2\265N\215\321Z\312\374"
 147      D2EAA4B5 
 147      4E32B54E 
 147      8DD15ACA 
 147      FC
 148 01a4 B5BA68AD 		.ascii	"\265\272h\255\217\031Z\303\251\277\\Z[\270ZN=_\313\257"
 148      8F195AC3 
 148      A9BF5C5A 
 148      5BB85A4E 
 148      3D5FCBAF 
 149 01b8 344BBA9B 		.ascii	"4K\272\233\226\356a\276\346\341\257\274\255;\011\351"
 149      96EE61BE 
ARM GAS  /tmp/cc1FKUxP.s 			page 11


 149      E6E1AFBC 
 149      AD3B09E9 
 150 01c8 DD385F9B 		.ascii	"\3358_\233\227\276\217N\337O\246\177\004%\215\213\027"
 150      97BE8F4E 
 150      DF4FA67F 
 150      04258D8B 
 150      17
 151 01d9 53E9BD47 		.ascii	"S\351\275G1l4\303\270\223N\343{P\253\231\3067Z\276\004"
 151      316C34C3 
 151      B8934EE3 
 151      7B50AB99 
 151      C6375ABE 
 152 01ee 1DB0B61C 		.ascii	"\035\260\266\034\354\270Q\330\346\316~3pf\303-\206\014"
 152      ECB851D8 
 152      E6CE7E33 
 152      7066C32D 
 152      860C
 153 0200 2BD087B0 		.ascii	"+\320\207\260\251R7\027JN\264\217\033\252\342\263x\005"
 153      A9523717 
 153      4A4EB48F 
 153      1BAAE2B3 
 153      7805
 154 0212 12869981 		.ascii	"\022\206\231\201\237\343%\316\333Y\371\215\324\025\315"
 154      9FE325CE 
 154      DB59F98D 
 154      D415CD
 155 0221 67DF45D4 		.ascii	"g\337E\324[\347\215\012\004+\335\225\232\275z\001\033"
 155      5BE78D0A 
 155      042BDD95 
 155      9ABD7A01 
 155      1B
 156 0232 07BD6568 		.ascii	"\007\275eh?\\\231\375\362\374(h\264\344.\020\263s\354"
 156      3F5C99FD 
 156      F2FC2868 
 156      B4E42E10 
 156      B373EC
 157 0245 179999DA 		.ascii	"\027\231\231\332\177n\030C%\340\301\010\366@\241[$\262"
 157      7F6E1843 
 157      25E0C108 
 157      F640A15B 
 157      24B2
 158 0257 D0779F6A 		.ascii	"\320w\237j\342\340\331\247\015\243D\305\347\254D\207"
 158      E2E0D9A7 
 158      0DA344C5 
 158      E7AC4487 
 159 0267 0BC8442A 		.ascii	"\013\310D*.\366\220\346\300u&\300\314f=v&\346I\276\010"
 159      2EF690E6 
 159      C07526C0 
 159      CC663D76 
 159      26E649BE 
 160 027c CD379C77 		.ascii	"\3157\234wB\014\343\262L\032\011%\255u\231\265e\205"
 160      420CE3B2 
 160      4C1A0925 
 160      AD7599B5 
 160      6585
 161 028e 3B537B38 		.ascii	";S{8\001D\275g\216\037\351\200Sj\004\333i%\324=\357"
 161      0144BD67 
ARM GAS  /tmp/cc1FKUxP.s 			page 12


 161      8E1FE980 
 161      536A04DB 
 161      6925D43D 
 162 02a3 7C3EC2BF 		.ascii	"|>\302\277\353\332\350\252L\256\323w\223\253\204\273"
 162      EBDAE8AA 
 162      4CAED377 
 162      93AB84BB 
 163 02b3 B6D48DBC 		.ascii	"\266\324\215\274\\\347\346\235\313Gm0\273\332*\036\202"
 163      5CE7E69D 
 163      CB476D30 
 163      BBDA2A1E 
 163      82
 164 02c4 6DACE214 		.ascii	"m\254\342\024\256\200\317\013\326\347\230\3659\216+"
 164      AE80CF0B 
 164      D6E798F5 
 164      398E2B
 165 02d3 72C112BA 		.ascii	"r\301\022\272\3442\334\336\300y\371r\373\034\2113f\272"
 165      E432DCDE 
 165      C079F972 
 165      FB1C8933 
 165      66BA
 166 02e5 A524B358 		.ascii	"\245$\263X\303>]r\015\253\342\301\334\353\271\342T|"
 166      C33E5D72 
 166      0DABE2C1 
 166      DCEBB9E2 
 166      547C
 167 02f7 119ADB1C 		.ascii	"\021\232\333\034\326\0366\234=l\205\360v\312\327\330"
 167      D61E369C 
 167      3D6C85F0 
 167      76CAD7D8 
 168 0307 93D5F67A 		.ascii	"\223\325\366zr\223b\34252Q\360\322?d_\232\277\214K\316"
 168      729362E2 
 168      353251F0 
 168      D23F645F 
 168      9ABF8C4B 
 169 031c 211444BD 		.ascii	"!\024D\275FK\312<\256N\303\302\262\006\332\267\327\252"
 169      464BCA3C 
 169      AE4EC3C2 
 169      B206DAB7 
 169      D7AA
 170 032e F88C551D 		.ascii	"\370\214U\035\263*\257\243[F\213\221:\260O\262\3354"
 170      B32AAFA3 
 170      5B468B91 
 170      3AB04FB2 
 170      DD34
 171 0340 CFAD9983 		.ascii	"\317\255\231\203\251\267\317\037Zf$\235s+\323\260\327"
 171      A9B7CF1F 
 171      5A66249D 
 171      732BD3B0 
 171      D7
 172 0351 E815B85E 		.ascii	"\350\025\270^\352[\342\020\264+\236Q\370\342!J\341\204"
 172      EA5BE210 
 172      B42B9E51 
 172      F8E2214A 
 172      E184
 173 0363 5B212D54 		.ascii	"[!-T\370\216R\030\313Wx\222T\330\333\347Vx\263P\244"
 173      F88E5218 
ARM GAS  /tmp/cc1FKUxP.s 			page 13


 173      CB577892 
 173      54D8DBE7 
 173      5678B350 
 174 0378 F03DA530 		.ascii	"\360=\2450\236_\245\325\224\302y\374\2561\262\3070n"
 174      9E5FA5D5 
 174      94C279FC 
 174      AE31B2C7 
 174      306E
 175 038a 834456E3 		.ascii	"\203DV\343=\241\306\014\371\313\302\011\303s\030\324"
 175      3DA1C60C 
 175      F9CBC209 
 175      C37318D4 
 176 039a 4619D4C1 		.ascii	"F\031\324\3012\250K(\374\023\337\2406\312\240\016\226"
 176      32A84B28 
 176      FC13DFA0 
 176      36CAA00E 
 176      96
 177 03ab 41434285 		.ascii	"ACB\205_\371\006\265Q\006u\260\014\032\027*\374\306"
 177      5FF906B5 
 177      510675B0 
 177      0C1A172A 
 177      FCC6
 178 03bd 37A88D32 		.ascii	"7\250\2152\250\203m\320e\241\306\037L\203\2449\014j"
 178      A8836DD0 
 178      65A1C61F 
 178      4C83A439 
 178      0C6A
 179 03cf A70CEA65 		.ascii	"\247\014\352ev\220Px\226oP;eP/\263\203\204\012\327\371"
 179      76905078 
 179      966F503B 
 179      65502FB3 
 179      83840AD7 
 180 03e4 06B55306 		.ascii	"\006\265S\006\3652;h\201H\341\037\276A\355\224A\275"
 180      F5323B68 
 180      8148E11F 
 180      BE41ED94 
 180      41BD
 181 03f6 9C0E126A 		.ascii	"\234\016\022j\334b\032T0\207A=\224A\003\314\016\022"
 181      DC621A54 
 181      3087413D 
 181      944103CC 
 181      0E12
 182 0408 0ADFE11B 		.ascii	"\012\337\341\033\324C\0314\300\354 \241\302N\211kP\017"
 182      D4431934 
 182      C0EC20A1 
 182      C24E896B 
 182      500F
 183 041a 65D000B3 		.ascii	"e\320\000\263\203\204\012{$\256A=\224A\003\234\016\022"
 183      83840A7B 
 183      24AE413D 
 183      9441039C 
 183      0E12
 184 042c 6AEC9358 		.ascii	"j\354\223X\006\025\316aP?e\320\020\263\203\204\302o"
 184      0615CE61 
 184      503F65D0 
 184      10B38384 
 184      C26F
ARM GAS  /tmp/cc1FKUxP.s 			page 14


 185 043e 485C83FA 		.ascii	"H\\\203\372)\203\206\230\035$Tx\213oP?e\320\020\263"
 185      29838698 
 185      1D245478 
 185      8B6F503F 
 185      65D010B3 
 186 0452 838A440A 		.ascii	"\203\212D\012\007\370\006\365S\006\015q:H\250q\210i"
 186      07F806F5 
 186      53060D71 
 186      3A48A871 
 186      8869
 187 0464 D082390C 		.ascii	"\320\2029\014\032\244\014\232dv\220P\370\035\276A\203"
 187      1AA40C9A 
 187      64769050 
 187      F81DBE41 
 187      83
 188 0475 944193CC 		.ascii	"\224A\223\314\016\022*\264\363\015\032\244\014\232d"
 188      0E122AB4 
 188      F30D1AA4 
 188      0C9A64
 189 0484 769050E1 		.ascii	"v\220P\341\010\337\240A\312\240IN\007\0115\222L\203"
 189      08DFA041 
 189      CAA0494E 
 189      07093592 
 189      4C83
 190 0496 8AE63068 		.ascii	"\212\3460h\2022h\232\331AB\341\343|\203&(\203\246\231"
 190      8232689A 
 190      D94142E1 
 190      E37C8326 
 190      2883A699 
 191 04aa 1D2454E8 		.ascii	"\035$T\350\344\0334A\0314\315\354\240b\221\302G|\203"
 191      E41B3441 
 191      1934CDEC 
 191      A06291C2 
 191      477C83
 192 04bd 262883A6 		.ascii	"&(\203\2469\035$\324\370\204iP\361\034\006MQ\006\315"
 192      391D24D4 
 192      F8846950 
 192      F11C064D 
 192      5106CD
 193 04d0 323B4828 		.ascii	"2;H(\374)\337\240)\312\240Yf\007\011\025>\343\0334E"
 193      FC29DFA0 
 193      29CAA059 
 193      66070915 
 193      3EE31B34 
 194 04e5 1934CBEC 		.ascii	"\0314\313\354 \241\302)\276AS\224A\263\234\016\022j"
 194      20A1C229 
 194      BE415394 
 194      41B39C0E 
 194      126A
 195 04f7 9C210D42 		.ascii	"\234!\015B\210\370\327\205\355\017\217{V*\343\260\362"
 195      88F8D785 
 195      ED0F8F7B 
 195      562AE3B0 
 195      F2
 196 0508 FEA472B1 		.ascii	"\376\244r\261\006\031\254\224\3052\327|\027\3775@uU"
 196      0619AC94 
 196      C532D77C 
ARM GAS  /tmp/cc1FKUxP.s 			page 15


 196      17FF3540 
 196      7555
 197 051a 55727D63 		.ascii	"Ur}cxS\370\305\227\344XB\016\305\"\221XT\336\032\213"
 197      7853F8C5 
 197      97E45842 
 197      0EC52291 
 197      5854DE1A 
 198 052f EB09F9B9 		.ascii	"\353\011\371\271\015\353\353\327o7\357m\0157i\361\204"
 198      0DEBEBD7 
 198      6F37EF6D 
 198      0D3769F1 
 198      84
 199 0540 BCAEBE5E 		.ascii	"\274\256\276^\016\305u\177U\010\225)J(\026\327\224p"
 199      0EC5757F 
 199      55089529 
 199      4A2816D7 
 199      9470
 200 0552 34AC17AD 		.ascii	"4\254\027\255{a\243\257\036\025n\323\324-^E\321\324"
 200      7B61A3AF 
 200      1E156ED3 
 200      D42D5E45 
 200      D1D4
 201 0564 78D30EEB 		.ascii	"x\323\016\353\001\0045\251\272\035T\256(\015\332f\265"
 201      010435A9 
 201      BA1D54AE 
 201      280DDA66 
 201      B5
 202 0575 B94957B4 		.ascii	"\271IW\264\355a\275$\012l\2759\036]\254X\217\225\270"
 202      ED61BD24 
 202      0A6CBD39 
 202      1E5DAC58 
 202      8F95B8
 203 0588 1A51D4B8 		.ascii	"\032Q\324\270\246&\022rt\263\205\032\2711\026\321\344"
 203      A6261272 
 203      74B3851A 
 203      B93116D1 
 203      E4
 204 0599 B896808C 		.ascii	"\270\226\200\214\241F\271Q\2157l\203\020Y\215G\002\362"
 204      A146B951 
 204      8D376C83 
 204      10598D47 
 204      02F2
 205 05ab 2BA15025 		.ascii	"+\241P%L*\265\310&\255\241Ak\310\336\210\306\242Z\245"
 205      4C2AB5C8 
 205      26ADA141 
 205      6BC8DE88 
 205      C6A25AA5 
 206 05bf A66E0A57 		.ascii	"\246n\012W\006\225\247*\003\253\374\301W\0032\361@\016"
 206      0695A72A 
 206      03ABFCC1 
 206      570332F1 
 206      400E
 207 05d1 47434DCD 		.ascii	"GCM\315\015\232\234\320\033\302Q\275\252\021\2254\303"
 207      0D9A9CD0 
 207      1BC251BD 
 207      AA119534 
 207      C3
ARM GAS  /tmp/cc1FKUxP.s 			page 16


 208 05e2 777540D1 		.ascii	"wu@\321w\343\377O=\242\206\032\303QM\316\326E\337\261"
 208      77E3FF4F 
 208      3DA2861A 
 208      C3514DCE 
 208      D645DFB1 
 209 05f6 554BC06A 		.ascii	"UK\300jJ\025%\263\236r\2536\272\266]\267\212\343\261"
 209      4A1525B3 
 209      9E72AB36 
 209      BAB65DB7 
 209      8AE3B1
 210 0609 2ECD5969 		.ascii	".\315Yi\250\011\326eM\275\321\230\222\275\277\310\254"
 210      A809D665 
 210      4DBDD198 
 210      92BDBFC8 
 210      AC
 211 061a 63F64AD1 		.ascii	"c\366J\321=\331\272.Q\314\032\257Rr\031\225\205\371"
 211      3DD9BA2E 
 211      51CC1AAF 
 211      52721995 
 211      85F9
 212 062c B79472E7 		.ascii	"\267\224r\347\312\316\254,r.\2431\373\261\315\367\273"
 212      CACEAC2C 
 212      722EA331 
 212      FBB1CDF7 
 212      BB
 213 063d F97E82EF 		.ascii	"\371~\202\357'\371~\212\037p\363\003\004?@\362\003\024"
 213      27F97E8A 
 213      1F70F303 
 213      043F40F2 
 213      0314
 214 064f BFDACDAF 		.ascii	"\277\332\315\257&\370\325$\277\232\342\007\335\374 "
 214      26F8D524 
 214      BF9AE207 
 214      DDFC20
 215 065e C10F92FC 		.ascii	"\301\017\222\374 \305\257q\363k\010~\015\311\257\241"
 215      20C5AF71 
 215      F36B087E 
 215      0DC9AFA1 
 216 066e F8B56E7E 		.ascii	"\370\265n~-\301\257%\371\265\024\277\316\315\257#\370"
 216      2DC1AF25 
 216      F9B514BF 
 216      CECDAF23 
 216      F8
 217 067f 7524BF2E 		.ascii	"u$\277.\313\377\017E\207A\267"
 217      CBFF0F45 
 217      8741B7
 218              		.text
 219              		.section	.gnu.lto_.symtab.323091c1516f35ee,"",%progbits
 220 0000 5F5F636F 		.ascii	"__core_init\000\000\001\000\000\000\000\000\000\000"
 220      72655F69 
 220      6E697400 
 220      00010000 
 220      00000000 
 221 0015 0000A100 		.ascii	"\000\000\241\000\000\000__early_init\000\000\001\000"
 221      00005F5F 
 221      6561726C 
 221      795F696E 
ARM GAS  /tmp/cc1FKUxP.s 			page 17


 221      69740000 
 222 002b 00000000 		.ascii	"\000\000\000\000\000\000\000\000\250\000\000\000__l"
 222      00000000 
 222      A8000000 
 222      5F5F6C
 223 003a 6174655F 		.ascii	"ate_init\000\000\001\000\000\000\000\000\000\000\000"
 223      696E6974 
 223      00000100 
 223      00000000 
 223      000000
 224 004d 00AC0000 		.ascii	"\000\254\000\000\000__default_exit\000\000\001\000\000"
 224      005F5F64 
 224      65666175 
 224      6C745F65 
 224      78697400 
 225 0065 00000000 		.ascii	"\000\000\000\000\000\000\000\260\000\000\000__init_"
 225      000000B0 
 225      0000005F 
 225      5F696E69 
 225      745F
 226 0077 72616D5F 		.ascii	"ram_areas\000\000\000\000\000\000\000\000\000\000\000"
 226      61726561 
 226      73000000 
 226      00000000 
 226      00000000 
 227 008b 00B60000 		.ascii	"\000\266\000\000\000__ram0_init_text__\000\000\002\000"
 227      005F5F72 
 227      616D305F 
 227      696E6974 
 227      5F746578 
 228 00a6 00000000 		.ascii	"\000\000\000\000\000\000\000\000\326\000\000\000__r"
 228      00000000 
 228      D6000000 
 228      5F5F72
 229 00b5 616D305F 		.ascii	"am0_init__\000\000\002\000\000\000\000\000\000\000\000"
 229      696E6974 
 229      5F5F0000 
 229      02000000 
 229      00000000 
 230 00ca 00D90000 		.ascii	"\000\331\000\000\000__ram0_clear__\000\000\002\000\000"
 230      005F5F72 
 230      616D305F 
 230      636C6561 
 230      725F5F00 
 231 00e2 00000000 		.ascii	"\000\000\000\000\000\000\000\334\000\000\000__ram0_"
 231      000000DC 
 231      0000005F 
 231      5F72616D 
 231      305F
 232 00f4 6E6F696E 		.ascii	"noinit__\000\000\002\000\000\000\000\000\000\000\000"
 232      69745F5F 
 232      00000200 
 232      00000000 
 232      000000
 233 0107 00DF0000 		.ascii	"\000\337\000\000\000__ram1_init_text__\000\000\002\000"
 233      005F5F72 
 233      616D315F 
ARM GAS  /tmp/cc1FKUxP.s 			page 18


 233      696E6974 
 233      5F746578 
 234 0122 00000000 		.ascii	"\000\000\000\000\000\000\000\000\343\000\000\000__r"
 234      00000000 
 234      E3000000 
 234      5F5F72
 235 0131 616D315F 		.ascii	"am1_init__\000\000\002\000\000\000\000\000\000\000\000"
 235      696E6974 
 235      5F5F0000 
 235      02000000 
 235      00000000 
 236 0146 00E60000 		.ascii	"\000\346\000\000\000__ram1_clear__\000\000\002\000\000"
 236      005F5F72 
 236      616D315F 
 236      636C6561 
 236      725F5F00 
 237 015e 00000000 		.ascii	"\000\000\000\000\000\000\000\351\000\000\000__ram1_"
 237      000000E9 
 237      0000005F 
 237      5F72616D 
 237      315F
 238 0170 6E6F696E 		.ascii	"noinit__\000\000\002\000\000\000\000\000\000\000\000"
 238      69745F5F 
 238      00000200 
 238      00000000 
 238      000000
 239 0183 00EC0000 		.ascii	"\000\354\000\000\000__ram2_init_text__\000\000\002\000"
 239      005F5F72 
 239      616D325F 
 239      696E6974 
 239      5F746578 
 240 019e 00000000 		.ascii	"\000\000\000\000\000\000\000\000\360\000\000\000__r"
 240      00000000 
 240      F0000000 
 240      5F5F72
 241 01ad 616D325F 		.ascii	"am2_init__\000\000\002\000\000\000\000\000\000\000\000"
 241      696E6974 
 241      5F5F0000 
 241      02000000 
 241      00000000 
 242 01c2 00F30000 		.ascii	"\000\363\000\000\000__ram2_clear__\000\000\002\000\000"
 242      005F5F72 
 242      616D325F 
 242      636C6561 
 242      725F5F00 
 243 01da 00000000 		.ascii	"\000\000\000\000\000\000\000\366\000\000\000__ram2_"
 243      000000F6 
 243      0000005F 
 243      5F72616D 
 243      325F
 244 01ec 6E6F696E 		.ascii	"noinit__\000\000\002\000\000\000\000\000\000\000\000"
 244      69745F5F 
 244      00000200 
 244      00000000 
 244      000000
 245 01ff 00F90000 		.ascii	"\000\371\000\000\000__ram3_init_text__\000\000\002\000"
 245      005F5F72 
ARM GAS  /tmp/cc1FKUxP.s 			page 19


 245      616D335F 
 245      696E6974 
 245      5F746578 
 246 021a 00000000 		.ascii	"\000\000\000\000\000\000\000\000\375\000\000\000__r"
 246      00000000 
 246      FD000000 
 246      5F5F72
 247 0229 616D335F 		.ascii	"am3_init__\000\000\002\000\000\000\000\000\000\000\000"
 247      696E6974 
 247      5F5F0000 
 247      02000000 
 247      00000000 
 248 023e 00000100 		.ascii	"\000\000\001\000\000__ram3_clear__\000\000\002\000\000"
 248      005F5F72 
 248      616D335F 
 248      636C6561 
 248      725F5F00 
 249 0256 00000000 		.ascii	"\000\000\000\000\000\000\000\003\001\000\000__ram3_"
 249      00000003 
 249      0100005F 
 249      5F72616D 
 249      335F
 250 0268 6E6F696E 		.ascii	"noinit__\000\000\002\000\000\000\000\000\000\000\000"
 250      69745F5F 
 250      00000200 
 250      00000000 
 250      000000
 251 027b 00060100 		.ascii	"\000\006\001\000\000__ram4_init_text__\000\000\002\000"
 251      005F5F72 
 251      616D345F 
 251      696E6974 
 251      5F746578 
 252 0296 00000000 		.ascii	"\000\000\000\000\000\000\000\000\012\001\000\000__r"
 252      00000000 
 252      0A010000 
 252      5F5F72
 253 02a5 616D345F 		.ascii	"am4_init__\000\000\002\000\000\000\000\000\000\000\000"
 253      696E6974 
 253      5F5F0000 
 253      02000000 
 253      00000000 
 254 02ba 000D0100 		.ascii	"\000\015\001\000\000__ram4_clear__\000\000\002\000\000"
 254      005F5F72 
 254      616D345F 
 254      636C6561 
 254      725F5F00 
 255 02d2 00000000 		.ascii	"\000\000\000\000\000\000\000\020\001\000\000__ram4_"
 255      00000010 
 255      0100005F 
 255      5F72616D 
 255      345F
 256 02e4 6E6F696E 		.ascii	"noinit__\000\000\002\000\000\000\000\000\000\000\000"
 256      69745F5F 
 256      00000200 
 256      00000000 
 256      000000
 257 02f7 00130100 		.ascii	"\000\023\001\000\000__ram5_init_text__\000\000\002\000"
ARM GAS  /tmp/cc1FKUxP.s 			page 20


 257      005F5F72 
 257      616D355F 
 257      696E6974 
 257      5F746578 
 258 0312 00000000 		.ascii	"\000\000\000\000\000\000\000\000\027\001\000\000__r"
 258      00000000 
 258      17010000 
 258      5F5F72
 259 0321 616D355F 		.ascii	"am5_init__\000\000\002\000\000\000\000\000\000\000\000"
 259      696E6974 
 259      5F5F0000 
 259      02000000 
 259      00000000 
 260 0336 001A0100 		.ascii	"\000\032\001\000\000__ram5_clear__\000\000\002\000\000"
 260      005F5F72 
 260      616D355F 
 260      636C6561 
 260      725F5F00 
 261 034e 00000000 		.ascii	"\000\000\000\000\000\000\000\035\001\000\000__ram5_"
 261      0000001D 
 261      0100005F 
 261      5F72616D 
 261      355F
 262 0360 6E6F696E 		.ascii	"noinit__\000\000\002\000\000\000\000\000\000\000\000"
 262      69745F5F 
 262      00000200 
 262      00000000 
 262      000000
 263 0373 00200100 		.ascii	"\000 \001\000\000__ram6_init_text__\000\000\002\000"
 263      005F5F72 
 263      616D365F 
 263      696E6974 
 263      5F746578 
 264 038e 00000000 		.ascii	"\000\000\000\000\000\000\000\000$\001\000\000__ram6"
 264      00000000 
 264      24010000 
 264      5F5F7261 
 264      6D36
 265 03a0 5F696E69 		.ascii	"_init__\000\000\002\000\000\000\000\000\000\000\000"
 265      745F5F00 
 265      00020000 
 265      00000000 
 265      0000
 266 03b2 00270100 		.ascii	"\000'\001\000\000__ram6_clear__\000\000\002\000\000"
 266      005F5F72 
 266      616D365F 
 266      636C6561 
 266      725F5F00 
 267 03ca 00000000 		.ascii	"\000\000\000\000\000\000\000*\001\000\000__ram6_noi"
 267      0000002A 
 267      0100005F 
 267      5F72616D 
 267      365F6E6F 
 268 03df 6E69745F 		.ascii	"nit__\000\000\002\000\000\000\000\000\000\000\000\000"
 268      5F000002 
 268      00000000 
 268      00000000 
ARM GAS  /tmp/cc1FKUxP.s 			page 21


 268      00
 269 03f0 2D010000 		.ascii	"-\001\000\000__ram7_i"
 269      5F5F7261 
 269      6D375F69 
 270 03fc 6E69745F 		.ascii	"nit_text__\000\000\002\000\000\000\000\000\000\000\000"
 270      74657874 
 270      5F5F0000 
 270      02000000 
 270      00000000 
 271 0411 00310100 		.ascii	"\0001\001\000\000__ram7_init__\000\000\002\000\000\000"
 271      005F5F72 
 271      616D375F 
 271      696E6974 
 271      5F5F0000 
 272 0429 00000000 		.ascii	"\000\000\000\000\000\0004\001\000\000__ram7_clear__"
 272      00003401 
 272      00005F5F 
 272      72616D37 
 272      5F636C65 
 273 0441 00000200 		.ascii	"\000\000\002\000\000\000\000\000\000\000\000\0007\001"
 273      00000000 
 273      00000000 
 273      3701
 274 044f 00005F5F 		.ascii	"\000\000__ram7_noinit__\000\000\002\000\000\000\000"
 274      72616D37 
 274      5F6E6F69 
 274      6E69745F 
 274      5F000002 
 275 0467 00000000 		.ascii	"\000\000\000\000\000:\001\000\000"
 275      003A0100 
 275      00
 276              		.text
 277              		.section	.gnu.lto_.opts,"",%progbits
 278 0000 272D6D63 		.ascii	"'-mcpu=cortex-m4' '-mno-thumb-interwork' '-mthumb' "
 278      70753D63 
 278      6F727465 
 278      782D6D34 
 278      2720272D 
 279 0033 272D6767 		.ascii	"'-ggdb' '-O0' '-fomit-frame-pointer' '-falign-funct"
 279      64622720 
 279      272D4F30 
 279      2720272D 
 279      666F6D69 
 280 0066 696F6E73 		.ascii	"ions=16' '-ffunction-sections' '-fdata-sections' '-"
 280      3D313627 
 280      20272D66 
 280      66756E63 
 280      74696F6E 
 281 0099 666E6F2D 		.ascii	"fno-common' '-flto'\000"
 281      636F6D6D 
 281      6F6E2720 
 281      272D666C 
 281      746F2700 
 282              		.text
 283              		.cfi_sections	.debug_frame
 284              		.section	.rodata.ram_areas,"a",%progbits
 285              		.align	2
ARM GAS  /tmp/cc1FKUxP.s 			page 22


 286              		.type	ram_areas, %object
 287              		.size	ram_areas, 128
 288              	ram_areas:
 289 0000 00000000 		.word	__ram0_init_text__
 290 0004 00000000 		.word	__ram0_init__
 291 0008 00000000 		.word	__ram0_clear__
 292 000c 00000000 		.word	__ram0_noinit__
 293 0010 00000000 		.word	__ram1_init_text__
 294 0014 00000000 		.word	__ram1_init__
 295 0018 00000000 		.word	__ram1_clear__
 296 001c 00000000 		.word	__ram1_noinit__
 297 0020 00000000 		.word	__ram2_init_text__
 298 0024 00000000 		.word	__ram2_init__
 299 0028 00000000 		.word	__ram2_clear__
 300 002c 00000000 		.word	__ram2_noinit__
 301 0030 00000000 		.word	__ram3_init_text__
 302 0034 00000000 		.word	__ram3_init__
 303 0038 00000000 		.word	__ram3_clear__
 304 003c 00000000 		.word	__ram3_noinit__
 305 0040 00000000 		.word	__ram4_init_text__
 306 0044 00000000 		.word	__ram4_init__
 307 0048 00000000 		.word	__ram4_clear__
 308 004c 00000000 		.word	__ram4_noinit__
 309 0050 00000000 		.word	__ram5_init_text__
 310 0054 00000000 		.word	__ram5_init__
 311 0058 00000000 		.word	__ram5_clear__
 312 005c 00000000 		.word	__ram5_noinit__
 313 0060 00000000 		.word	__ram6_init_text__
 314 0064 00000000 		.word	__ram6_init__
 315 0068 00000000 		.word	__ram6_clear__
 316 006c 00000000 		.word	__ram6_noinit__
 317 0070 00000000 		.word	__ram7_init_text__
 318 0074 00000000 		.word	__ram7_init__
 319 0078 00000000 		.word	__ram7_clear__
 320 007c 00000000 		.word	__ram7_noinit__
 321              		.section	.text.__core_init,"ax",%progbits
 322              		.align	2
 323              		.p2align 4,,15
 324              		.weak	__core_init
 325              		.thumb
 326              		.thumb_func
 327              		.type	__core_init, %function
 328              	__core_init:
 329              	.LFB123:
 330              		.file 1 "../ChibiOS/os/common/ports/ARMCMx/compilers/GCC/crt1.c"
 331              		.loc 1 139 0
 332              		.cfi_startproc
 333              		@ args = 0, pretend = 0, frame = 0
 334              		@ frame_needed = 0, uses_anonymous_args = 0
 335              		@ link register save eliminated.
 336              		.loc 1 145 0
 337 0000 7047     		bx	lr
 338              		.cfi_endproc
 339              	.LFE123:
 340              		.size	__core_init, .-__core_init
 341 0002 00BFAFF3 		.section	.text.__early_init,"ax",%progbits
 341      0080AFF3 
ARM GAS  /tmp/cc1FKUxP.s 			page 23


 341      0080AFF3 
 341      0080
 342              		.align	2
 343              		.p2align 4,,15
 344              		.weak	__early_init
 345              		.thumb
 346              		.thumb_func
 347              		.type	__early_init, %function
 348              	__early_init:
 349              	.LFB124:
 350              		.loc 1 158 0
 351              		.cfi_startproc
 352              		@ args = 0, pretend = 0, frame = 0
 353              		@ frame_needed = 0, uses_anonymous_args = 0
 354              		@ link register save eliminated.
 355              		.loc 1 158 0
 356 0000 7047     		bx	lr
 357              		.cfi_endproc
 358              	.LFE124:
 359              		.size	__early_init, .-__early_init
 360 0002 00BFAFF3 		.section	.text.__late_init,"ax",%progbits
 360      0080AFF3 
 360      0080AFF3 
 360      0080
 361              		.align	2
 362              		.p2align 4,,15
 363              		.weak	__late_init
 364              		.thumb
 365              		.thumb_func
 366              		.type	__late_init, %function
 367              	__late_init:
 368              	.LFB125:
 369              		.loc 1 172 0
 370              		.cfi_startproc
 371              		@ args = 0, pretend = 0, frame = 0
 372              		@ frame_needed = 0, uses_anonymous_args = 0
 373              		@ link register save eliminated.
 374              		.loc 1 172 0
 375 0000 7047     		bx	lr
 376              		.cfi_endproc
 377              	.LFE125:
 378              		.size	__late_init, .-__late_init
 379 0002 00BFAFF3 		.section	.text.__default_exit,"ax",%progbits
 379      0080AFF3 
 379      0080AFF3 
 379      0080
 380              		.align	2
 381              		.p2align 4,,15
 382              		.weak	__default_exit
 383              		.thumb
 384              		.thumb_func
 385              		.type	__default_exit, %function
 386              	__default_exit:
 387              	.LFB126:
 388              		.loc 1 185 0
 389              		.cfi_startproc
 390              		@ args = 0, pretend = 0, frame = 0
ARM GAS  /tmp/cc1FKUxP.s 			page 24


 391              		@ frame_needed = 0, uses_anonymous_args = 0
 392              		@ link register save eliminated.
 393              	.L5:
 394              		.loc 1 189 0 discriminator 1
 395 0000 FEE7     		b	.L5
 396              		.cfi_endproc
 397              	.LFE126:
 398              		.size	__default_exit, .-__default_exit
 399 0002 00BFAFF3 		.section	.text.__init_ram_areas,"ax",%progbits
 399      0080AFF3 
 399      0080AFF3 
 399      0080
 400              		.align	2
 401              		.p2align 4,,15
 402              		.global	__init_ram_areas
 403              		.thumb
 404              		.thumb_func
 405              		.type	__init_ram_areas, %function
 406              	__init_ram_areas:
 407              	.LFB127:
 408              		.loc 1 195 0
 409              		.cfi_startproc
 410              		@ args = 0, pretend = 0, frame = 16
 411              		@ frame_needed = 0, uses_anonymous_args = 0
 412              		@ link register save eliminated.
 413 0000 84B0     		sub	sp, sp, #16
 414              		.cfi_def_cfa_offset 16
 415              		.loc 1 196 0
 416 0002 164B     		ldr	r3, .L12
 417 0004 0393     		str	r3, [sp, #12]
 418              	.L11:
 419              	.LBB2:
 420              		.loc 1 200 0
 421 0006 039B     		ldr	r3, [sp, #12]
 422 0008 1B68     		ldr	r3, [r3]
 423 000a 0293     		str	r3, [sp, #8]
 424              		.loc 1 201 0
 425 000c 039B     		ldr	r3, [sp, #12]
 426 000e 5B68     		ldr	r3, [r3, #4]
 427 0010 0193     		str	r3, [sp, #4]
 428              		.loc 1 204 0
 429 0012 09E0     		b	.L7
 430              	.L8:
 431              		.loc 1 205 0
 432 0014 029B     		ldr	r3, [sp, #8]
 433 0016 1A68     		ldr	r2, [r3]
 434 0018 019B     		ldr	r3, [sp, #4]
 435 001a 1A60     		str	r2, [r3]
 436              		.loc 1 206 0
 437 001c 019B     		ldr	r3, [sp, #4]
 438 001e 0433     		adds	r3, r3, #4
 439 0020 0193     		str	r3, [sp, #4]
 440              		.loc 1 207 0
 441 0022 029B     		ldr	r3, [sp, #8]
 442 0024 0433     		adds	r3, r3, #4
 443 0026 0293     		str	r3, [sp, #8]
 444              	.L7:
ARM GAS  /tmp/cc1FKUxP.s 			page 25


 445              		.loc 1 204 0 discriminator 1
 446 0028 039B     		ldr	r3, [sp, #12]
 447 002a 9A68     		ldr	r2, [r3, #8]
 448 002c 019B     		ldr	r3, [sp, #4]
 449 002e 9A42     		cmp	r2, r3
 450 0030 F0D8     		bhi	.L8
 451              		.loc 1 211 0
 452 0032 05E0     		b	.L9
 453              	.L10:
 454              		.loc 1 212 0
 455 0034 019B     		ldr	r3, [sp, #4]
 456 0036 0022     		movs	r2, #0
 457 0038 1A60     		str	r2, [r3]
 458              		.loc 1 213 0
 459 003a 019B     		ldr	r3, [sp, #4]
 460 003c 0433     		adds	r3, r3, #4
 461 003e 0193     		str	r3, [sp, #4]
 462              	.L9:
 463              		.loc 1 211 0 discriminator 1
 464 0040 039B     		ldr	r3, [sp, #12]
 465 0042 DA68     		ldr	r2, [r3, #12]
 466 0044 019B     		ldr	r3, [sp, #4]
 467 0046 9A42     		cmp	r2, r3
 468 0048 F4D8     		bhi	.L10
 469              		.loc 1 215 0
 470 004a 039B     		ldr	r3, [sp, #12]
 471 004c 1033     		adds	r3, r3, #16
 472 004e 0393     		str	r3, [sp, #12]
 473              	.LBE2:
 474              		.loc 1 217 0
 475 0050 039A     		ldr	r2, [sp, #12]
 476 0052 034B     		ldr	r3, .L12+4
 477 0054 9A42     		cmp	r2, r3
 478 0056 D6D3     		bcc	.L11
 479              		.loc 1 219 0
 480 0058 04B0     		add	sp, sp, #16
 481              		@ sp needed
 482 005a 7047     		bx	lr
 483              	.L13:
 484              		.align	2
 485              	.L12:
 486 005c 00000000 		.word	ram_areas
 487 0060 80000000 		.word	ram_areas+128
 488              		.cfi_endproc
 489              	.LFE127:
 490              		.size	__init_ram_areas, .-__init_ram_areas
 491 0064 AFF30080 		.text
 491      AFF30080 
 491      AFF30080 
 492              	.Letext0:
 493              		.file 2 "/nfs/nfs5/home/research/hardware/arm2/gcc-arm-embedded/gcc-arm-none-eabi-4_8-2014q2/arm-n
 494              		.file 3 "/nfs/nfs5/home/research/hardware/arm2/gcc-arm-embedded/gcc-arm-none-eabi-4_8-2014q2/arm-n
 495              		.file 4 "../ChibiOS/os/ext/CMSIS/include/core_cm4.h"