ARM GAS  /tmp/ccxmVR4n.s 			page 1


   1              		.syntax unified
   2              		.cpu cortex-m4
   3              		.fpu softvfp
   4              		.eabi_attribute 20, 1
   5              		.eabi_attribute 21, 1
   6              		.eabi_attribute 23, 3
   7              		.eabi_attribute 24, 1
   8              		.eabi_attribute 25, 1
   9              		.eabi_attribute 26, 1
  10              		.eabi_attribute 30, 6
  11              		.eabi_attribute 34, 1
  12              		.eabi_attribute 18, 4
  13              		.thumb
  14              		.file	"evtimer.c"
  15              		.text
  16              	.Ltext0:
  17              		.section	.gnu.lto_.inline.8495e967e942a9d5,"",%progbits
  18 0000 789C6D90 		.ascii	"x\234m\220A\022\203 \014E\277!\242\202Ru\347\270\350"
  18      41128320 
  18      0C45BF21 
  18      A2825275 
  18      E7B8E8
  19 0013 A6EB4E4F 		.ascii	"\246\353NO\320\263\366\006\275B\217\324#\224\302\240"
  19      D0B3F606 
  19      BD428FD4 
  19      2394C2A0 
  20 0023 226111C2 		.ascii	"\"a\021\302K\362IB H\347]\305{\006X\001\304\337;8\346"
  20      4BF24942 
  20      2048E75D 
  20      C57B0658 
  20      01C4DF3B 
  21 0039 56052170 		.ascii	"V\005!p\357-\275\256[\216\361F\311\230e\\\313X\313\270"
  21      EF2DBDAE 
  21      5B8EF146 
  21      C998655C 
  21      CB58CBB8 
  22 004d 91715BF4 		.ascii	"\221q[\364\326\241fO\364\347\231\210)r,\264\313\305"
  22      D6A1664F 
  22      F4E79988 
  22      29722CB4 
  22      CBC5
  23 005f 9417478F 		.ascii	"\224\027G\217\341q\032=4\352\376#\333\364\034`\326\374"
  23      E1711A3D 
  23      34EAFE23 
  23      DBF41C60 
  23      D6FC
  24 0071 83100B0A 		.ascii	"\203\020\013\012.\306\016\302{\361\005\346&\255\301"
  24      2EC60EC2 
  24      7BF105E6 
  24      26ADC1
  25 0080 256F44BB 		.ascii	"%oD\273\234\366l\223\231\320My,\324\341\007\014\204"
  25      9CF66C93 
  25      99D04D79 
  25      2CD4E107 
  25      0C84
  26 0092 1551     		.ascii	"\025Q"
  27              		.text
ARM GAS  /tmp/ccxmVR4n.s 			page 2


  28              		.section	.gnu.lto_port_lock.8495e967e942a9d5,"",%progbits
  29 0000 789C6362 		.ascii	"x\234cb`b@\007\"@,\310\310\300P\007\342030\002U021\002"
  29      60624007 
  29      22402CC8 
  29      C8C05007 
  29      E2303330 
  30 001a 05181819 		.ascii	"\005\030\030\031\352\231\030\353#AL\006F%\206\205\015"
  30      EA9918EB 
  30      23414C06 
  30      46258685 
  30      0D
  31 002b 0D931EB4 		.ascii	"\015\223\036\264>{\3144\263\341@\313\202\206?\377\377"
  31      3E7BCC34 
  31      B3E140CB 
  31      82863FFF 
  31      FF
  32 003c 33326632 		.ascii	"32f2\002M\324cdHfd\210\000r\030\025\300\024\023\013"
  32      024DD463 
  32      64486664 
  32      88007218 
  32      15C01413 
  33 0051 AA15EB99 		.ascii	"\252\025\353\231\016<\370\377\377D\347\363\275@\223"
  33      0E3CF8FF 
  33      FF44E7F3 
  33      BD4093
  34 0060 19121917 		.ascii	"\031\022\031\027\002M\003\002V\206\226\206\206\011\012"
  34      024D0302 
  34      56869686 
  34      86090A
  35 006f 0C20DD40 		.ascii	"\014 \335@\020\002&CA\016`>\313\320\264\003H\24732\202"
  35      10022643 
  35      410E603E 
  35      CBD0B403 
  35      48A73332 
  36 0084 CC6300AA 		.ascii	"\314c\000\252a8\307\320\364\361\315\214\307\022p]`F"
  36      6138C7D0 
  36      F4F1CD8C 
  36      C712705D 
  36      6046
  37 0096 C381EE2B 		.ascii	"\303\201\356+\355\2540#\023\031\0273\262\002\215\203"
  37      EDAC3023 
  37      13191733 
  37      B2028D83 
  38 00a6 38190893 		.ascii	"8\031\010\223\231A>f\206x[\216\241dn\303\014\207LFf"
  38      99413E66 
  38      86785B8E 
  38      A1646EC3 
  38      0C874C46 
  39 00bb 102F1DAC 		.ascii	"\020/\035\254\012.U\016\221\202\272\374\"C\343\203\235"
  39      0A2E550E 
  39      9182BAFC 
  39      2243E383 
  39      9D
  40 00cc FA10E360 		.ascii	"\372\020\343` \004\244\001\244Z[OO\3379#3)\323?X?\277"
  40      2004A401 
  40      A45A5B4F 
  40      4FDF3923 
ARM GAS  /tmp/ccxmVR4n.s 			page 3


  40      3329D33F 
  41 00e3 58BFA844 		.ascii	"X\277\250D\277 \277\250\244X\3371\310\327\331\267B?"
  41      BF20BFA8 
  41      A458DF31 
  41      C8D7D9B7 
  41      423F
  42 00f5 392339BF 		.ascii	"9#9\277(5\276\314<W/\203\201\265,1\2474U\017UGjE\211"
  42      2835BECC 
  42      3C572F83 
  42      81B52C31 
  42      A734550F 
  43 010e BEB36FB0 		.ascii	"\276\263o\260g\260~f^rNiJ\252>XGr\256[i^2P\223\200o"
  43      67B07E66 
  43      5E724E69 
  43      4AAA3E58 
  43      4772AE5B 
  44 0129 70904252 		.ascii	"p\220BRbqjAQ\246\216\202\252\001\003S\021\003{njn~Q"
  44      62716A41 
  44      51A68E82 
  44      AA010353 
  44      11037B6E 
  45 0141 2503005A 		.ascii	"%\003\000Z\240au"
  45      A06175
  46              		.text
  47              		.section	.gnu.lto_port_unlock.8495e967e942a9d5,"",%progbits
  48 0000 789C6362 		.ascii	"x\234cb`b@\007\"@,\310\310\300P\007\342030\002U021\002"
  48      60624007 
  48      22402CC8 
  48      C8C05007 
  48      E2303330 
  49 001a 05181819 		.ascii	"\005\030\030\031\352\231\030\353#AL\006F%\206\205\015"
  49      EA9918EB 
  49      23414C06 
  49      46258685 
  49      0D
  50 002b 0D931EB4 		.ascii	"\015\223\036\264~z\3144\263\341@\313\202\206?\377\377"
  50      7E7ACC34 
  50      B3E140CB 
  50      82863FFF 
  50      FF
  51 003c 33326632 		.ascii	"32f2\002M\324cdHfd\210\000r\030\025\300\024\023\013"
  51      024DD463 
  51      64486664 
  51      88007218 
  51      15C01413 
  52 0051 AA15EB99 		.ascii	"\252\025\353\231\016<\370\377\377E\347\376}@\223\031"
  52      0E3CF8FF 
  52      FF45E7FE 
  52      7D409319 
  53 0061 12191702 		.ascii	"\022\031\027\002M\003\002V\206\226\206\206\011\012\014"
  53      4D030256 
  53      86968686 
  53      090A0C
  54 0070 20DD4010 		.ascii	" \335@\020\002&CA\016`>\313\320\264\003H\24732\202\314"
  54      02264341 
  54      0E603ECB 
  54      D0B40348 
ARM GAS  /tmp/ccxmVR4n.s 			page 4


  54      A7333282 
  55 0085 031B728E 		.ascii	"\003\033r\216\241\351\343\233\031\217%\340\272\300\214"
  55      A1E9E39B 
  55      198F25E0 
  55      BAC08C
  56 0094 8603A79F 		.ascii	"\206\003\247\237\266\263\302\214Ld\\\314\310\0124\016"
  56      B6B3C28C 
  56      4C645CCC 
  56      C80A340E 
  57 00a4 E264204C 		.ascii	"\342d Lf\006\371\230\031\342m9\206\222\271\0153\034"
  57      6606F998 
  57      19E26D39 
  57      8692B90D 
  57      331C
  58 00b6 32199941 		.ascii	"2\031\231A\274t\260*\270T9D\012\352\362\213\014\215"
  58      BC74B02A 
  58      B8543944 
  58      0AEAF28B 
  58      0C8D
  59 00c8 0FCEEB43 		.ascii	"\017\316\353C\214\203\201\020\220\006\220jm==}\347\214"
  59      8C838110 
  59      9006906A 
  59      6D3D3D7D 
  59      E78C
  60 00da CCA44CFF 		.ascii	"\314\244L\377`\375\374b\375\242\022\375\202\374\242"
  60      60FDFC62 
  60      FDA212FD 
  60      82FCA2
  61 00e9 92627DC7 		.ascii	"\222b}\307 _g\337\012\375\344\214\344\374\242\324\370"
  61      205F67DF 
  61      0AFDE48C 
  61      E4FCA2D4 
  61      F8
  62 00fa 32F35CBD 		.ascii	"2\363\\\275\014\006\326\262\304\234\322T=T\035\251\025"
  62      0C06D6B2 
  62      C49CD254 
  62      3D541DA9 
  62      15
  63 010b 25FACEBE 		.ascii	"%\372\316\276\301\236\301\372\231y\3119\245)\251\372"
  63      C19EC1FA 
  63      9979C939 
  63      A529A9FA 
  64 011b 601DC9B9 		.ascii	"`\035\311\271n\245y\311@M\002\276\301A\012I\211\305"
  64      6EA579C9 
  64      404D02BE 
  64      C1410A49 
  64      89C5
  65 012d A9054599 		.ascii	"\251\005E\231:\012\252\006\014LE\014\354\271\251\271"
  65      3A0AAA06 
  65      0C4C450C 
  65      ECB9A9B9 
  66 013d F945950C 		.ascii	"\371E\225\014\000\233\025a\301"
  66      009B1561 
  66      C1
  67              		.text
  68              		.section	.gnu.lto_port_lock_from_isr.8495e967e942a9d5,"",%progbits
  69 0000 789C6362 		.ascii	"x\234cb`b@\007\"@\\\006\304\272 \0163\003#P\005#\023"
ARM GAS  /tmp/ccxmVR4n.s 			page 5


  69      60624007 
  69      22405C06 
  69      C4BA200E 
  69      33032350 
  70 0017 232390C3 		.ascii	"##\220\303\310P\317\304X\037\311\010V\266\236\351\300"
  70      C850CFC4 
  70      581FC908 
  70      56B69EE9 
  70      C0
  71 0028 83FFFFD7 		.ascii	"\203\377\377\327\355\273\277n\015\343?&\220\030+CKC"
  71      EDBBBF6E 
  71      0DE33F26 
  71      90182B43 
  71      4B43
  72 003a C3040506 		.ascii	"\303\004\005\006\206d\260\212\0200\031\012\322\317|"
  72      8664B08A 
  72      1030190A 
  72      D2CF7C
  73 0049 9EA1F9C1 		.ascii	"\236\241\371\301\313~\366D\306\205\214\254@\301j\206"
  73      CB7EF644 
  73      C6858CAC 
  73      40C16A86 
  74 0059 5F0D1D0D 		.ascii	"_\015\035\015\002\231\214@\245\020\3232A\364E\206\306"
  74      02998C40 
  74      A510D332 
  74      41F44586 
  74      C6
  75 006a 07AFF461 		.ascii	"\007\257\364a\212  \004$\001r\244\266\236\236\276sF"
  75      8A202004 
  75      240172A4 
  75      B69E9EBE 
  75      7346
  76 007c 6652A67F 		.ascii	"fR\246\177\260~~\261~Q\211~A~QI\261\276c\220\257\263"
  76      B07E7EB1 
  76      7E51897E 
  76      417E5149 
  76      B1BE6390 
  77 0092 6F857E72 		.ascii	"o\205~rFr~Qj|\231y\256^\006\003\000`@*\240"
  77      46727E51 
  77      6A7C9979 
  77      AE5E0603 
  77      0060402A 
  78              		.text
  79              		.section	.gnu.lto_port_unlock_from_isr.8495e967e942a9d5,"",%progbits
  80 0000 789C6362 		.ascii	"x\234cb`b@\007\"@\\\006\304\272 \0163\003#P\005#\023"
  80      60624007 
  80      22405C06 
  80      C4BA200E 
  80      33032350 
  81 0017 232390C3 		.ascii	"##\220\303\310P\317\304X\037\311\010V\266\236\351\300"
  81      C850CFC4 
  81      581FC908 
  81      56B69EE9 
  81      C0
  82 0028 83FFFFD7 		.ascii	"\203\377\377\327}\271\277\376\016\343\177&\220\030+"
  82      7DB9BFFE 
  82      0EE37F26 
ARM GAS  /tmp/ccxmVR4n.s 			page 6


  82      90182B
  83 0037 434B43C3 		.ascii	"CKC\303\004\005\006\206d\260\212\0200\031\012\322\317"
  83      04050686 
  83      64B08A10 
  83      30190AD2 
  83      CF
  84 0048 7C9EA1F9 		.ascii	"|\236\241\371\301\237\363\354\211\214\013\031Y\201\202"
  84      C19FF3EC 
  84      898C0B19 
  84      598182
  85 0057 D50CBF1A 		.ascii	"\325\014\277\032:\032\0042\031\201J!\246e\202\350\213"
  85      3A1A0432 
  85      19814A21 
  85      A66582E8 
  85      8B
  86 0068 0C8D0FFE 		.ascii	"\014\215\017\376\352\303\024A@\010H\002\344Hm==}\347"
  86      EAC31441 
  86      40084802 
  86      E4486D3D 
  86      3D7DE7
  87 007b 8CCCA44C 		.ascii	"\214\314\244L\377`\375\374b\375\242\022\375\202\374"
  87      FF60FDFC 
  87      62FDA212 
  87      FD82FC
  88 008a A292627D 		.ascii	"\242\222b}\307 _g\337\012\375\344\214\344\374\242\324"
  88      C7205F67 
  88      DF0AFDE4 
  88      8CE4FCA2 
  88      D4
  89 009b F832F35C 		.ascii	"\3702\363\\\275\014\006\000\303\301+n"
  89      BD0C0600 
  89      C3C12B6E 
  90              		.text
  91              		.section	.gnu.lto_chSysLock.8495e967e942a9d5,"",%progbits
  92 0000 789C6362 		.ascii	"x\234cb`b@\007\"@\\\006\304\312 \0163\003#P\005#\023"
  92      60624007 
  92      22405C06 
  92      C4CA200E 
  92      33032350 
  93 0017 232390C3 		.ascii	"##\220\303\310P\317\304X\037\311\010V\266\236\351\300"
  93      C850CFC4 
  93      581FC908 
  93      56B69EE9 
  93      C0
  94 0028 83FFFFD7 		.ascii	"\203\377\377\327}\231\266\354\017\343m&\220\030+CKC"
  94      7D99B6EC 
  94      0FE36D26 
  94      90182B43 
  94      4B43
  95 003a C3040506 		.ascii	"\303\004\005\006\206d\260\212\0200\031\012\322\317|"
  95      8664B08A 
  95      1030190A 
  95      D2CF7C
  96 0049 9EA1F9C1 		.ascii	"\236\241\371\301\236n\366D\306\205\214\254@\301j\206"
  96      9E6EF644 
  96      C6858CAC 
  96      40C16A86 
ARM GAS  /tmp/ccxmVR4n.s 			page 7


  97 0059 5F0D1D0D 		.ascii	"_\015\035\015\002\231\214@\245\020\3232A\364E\206\306"
  97      02998C40 
  97      A510D332 
  97      41F44586 
  97      C6
  98 006a 07FBB561 		.ascii	"\007\373\265a\212  \004$\001r\244\242\236\236\276sF"
  98      8A202004 
  98      240172A4 
  98      A29E9EBE 
  98      7346
  99 007c 6652A67F 		.ascii	"fR\246\177\260~~\261~Q\211~f^rNiJ\252~rFqe\261^\006"
  99      B07E7EB1 
  99      7E51897E 
  99      665E724E 
  99      694AAA7E 
 100 0097 0300A9F5 		.ascii	"\003\000\251\365'\020"
 100      2710
 101              		.text
 102              		.section	.gnu.lto_chSysUnlock.8495e967e942a9d5,"",%progbits
 103 0000 789C6362 		.ascii	"x\234cb`b@\007\322@\334\301\310\300\240\014\342\260"
 103      60624007 
 103      D240DCC1 
 103      C8C0A00C 
 103      E2B0
 104 0012 30300255 		.ascii	"00\002U0212\003IfF\2400\003#C=\0233c}$\210\315\300\246"
 104      30323132 
 104      03496646 
 104      A0300323 
 104      433D1333 
 105 002d C4B0B0A1 		.ascii	"\304\260\260\241a\322\203\247\337gIv-h\232\320\360\357"
 105      61D283A7 
 105      DF674976 
 105      2D689AD0 
 105      F0EF
 106 003f FF7FC64C 		.ascii	"\377\177\306L\220T2#C\004\220\305\250\000\246\230XP"
 106      90543223 
 106      430490C5 
 106      A800A698 
 106      5850
 107 0051 2D81686B 		.ascii	"-\201hk\330\264\242\201sA\303\237\377\377\231\311\323"
 107      D8B4A281 
 107      7341C39F 
 107      FFFF99C9 
 107      D3
 108 0062 C33C58EC 		.ascii	"\303<X\354\311edX\317t\340\301\377\377ov\356|\364\206"
 108      C9656458 
 108      CF74E0C1 
 108      FFFF6F76 
 108      EE7CF486 
 109 0076 5114640B 		.ascii	"Q\024d\013+CKC\303\004\205\\\250\215@\020\002%\201A"
 109      2B434B43 
 109      C304855C 
 109      A88D4010 
 109      02258141 
 110 008a CA1C0A32 		.ascii	"\312\034\0122\224\371<C\363\203\327\247\331\023\031"
 110      94F93C43 
 110      F383D7A7 
ARM GAS  /tmp/ccxmVR4n.s 			page 8


 110      D91319
 111 0099 9731B202 		.ascii	"\2271\262\002\245\252\031~5t4\010d2\262$\203\303\232"
 111      A5AA197E 
 111      35743408 
 111      6432B224 
 111      83C39A
 112 00ac 81211324 		.ascii	"\201!\023$~\221\241\361\301\033m\230\"\010\010\001)"
 112      7E91A1F1 
 112      C11B6D98 
 112      22080801 
 112      29
 113 00bd 00C59EA2 		.ascii	"\000\305\236\242\236\236\276sFfR\246\177\260~~\261~"
 113      9E9EBE73 
 113      466652A6 
 113      7FB07E7E 
 113      B17E
 114 00cf 51897E66 		.ascii	"Q\211~f^rNiJ\252~rFqe\261^\006\003\000\341Gc\351"
 114      5E724E69 
 114      4AAA7E72 
 114      467165B1 
 114      5E060300 
 115              		.text
 116              		.section	.gnu.lto_chSysLockFromISR.8495e967e942a9d5,"",%progbits
 117 0000 789C6362 		.ascii	"x\234cb`b@\007\"@\\\006\304\312 \0163\003#P\005#\023"
 117      60624007 
 117      22405C06 
 117      C4CA200E 
 117      33032350 
 118 0017 232390C3 		.ascii	"##\220\303\310P\317\304X\037\311\010V\266\236\351\300"
 118      C850CFC4 
 118      581FC908 
 118      56B69EE9 
 118      C0
 119 0028 83FFFFD7 		.ascii	"\203\377\377\327M\271\265\366\017\343\013&\220\030+"
 119      4DB9B5F6 
 119      0FE30B26 
 119      90182B
 120 0037 434B43C3 		.ascii	"CKC\303\004\005\006\206d\260\212\0200\031\012\322\317"
 120      04050686 
 120      64B08A10 
 120      30190AD2 
 120      CF
 121 0048 7C9EA1F9 		.ascii	"|\236\241\371A\317Z\356D\306\205\214\254@\301j\206_"
 121      41CF5AEE 
 121      44C6858C 
 121      AC40C16A 
 121      865F
 122 005a 0D1D0D02 		.ascii	"\015\035\015\002\231\214@\245\020\3232A\364E\206\306"
 122      998C40A5 
 122      10D33241 
 122      F44586C6 
 123 006a 07FDBA30 		.ascii	"\007\375\2720E\020\020\002\222\0009RQOO\3379#3)\323"
 123      45101002 
 123      92003952 
 123      514F4FDF 
 123      39233329 
 124 007f 3F583FBF 		.ascii	"?X?\277X\277\250D?3/9\2474%U?9\243\270\262X/\203\001"
ARM GAS  /tmp/ccxmVR4n.s 			page 9


 124      58BFA844 
 124      3F332F39 
 124      A7342555 
 124      3F39A3B8 
 125 0098 00967A26 		.ascii	"\000\226z&\320"
 125      D0
 126              		.text
 127              		.section	.gnu.lto_chSysUnlockFromISR.8495e967e942a9d5,"",%progbits
 128 0000 789C6362 		.ascii	"x\234cb`b@\007\"@\\\006\304\312 \0163\003#P\005#\023"
 128      60624007 
 128      22405C06 
 128      C4CA200E 
 128      33032350 
 129 0017 232390C3 		.ascii	"##\220\303\310P\317\304X\037\311\010V\266\236\351\300"
 129      C850CFC4 
 129      581FC908 
 129      56B69EE9 
 129      C0
 130 0028 83FFFFD7 		.ascii	"\203\377\377\327\335\271\265n\017\343k&\220\030+CKC"
 130      DDB9B56E 
 130      0FE36B26 
 130      90182B43 
 130      4B43
 131 003a C3040506 		.ascii	"\303\004\005\006\206d\260\212\0200\031\012\322\317|"
 131      8664B08A 
 131      1030190A 
 131      D2CF7C
 132 0049 9EA1F9C1 		.ascii	"\236\241\371\301\256\267\334\211\214\013\031Y\201\202"
 132      AEB7DC89 
 132      8C0B1959 
 132      8182
 133 0057 D50CBF1A 		.ascii	"\325\014\277\032:\032\0042\031\201J!\246e\202\350\213"
 133      3A1A0432 
 133      19814A21 
 133      A66582E8 
 133      8B
 134 0068 0C8D0F76 		.ascii	"\014\215\017v\353\302\024A@\010H\002\344HE==}\347\214"
 134      EBC21441 
 134      40084802 
 134      E448453D 
 134      3D7DE78C 
 135 007c CCA44CFF 		.ascii	"\314\244L\377`\375\374b\375\242\022\375\314\274\344"
 135      60FDFC62 
 135      FDA212FD 
 135      CCBCE4
 136 008b 9CD29454 		.ascii	"\234\322\224T\375\344\214\342\312b\275\014\006\000\321"
 136      FDE48CE2 
 136      CA62BD0C 
 136      0600D1
 137 009a 3F2776   		.ascii	"?'v"
 138              		.text
 139              		.section	.gnu.lto_chVTObjectInit.8495e967e942a9d5,"",%progbits
 140 0000 789C6362 		.ascii	"x\234cb`b@\007\"@<\031\210\225@\034f\006F\240\012F&"
 140      60624007 
 140      22403C19 
 140      8895401C 
 140      660646A0 
ARM GAS  /tmp/ccxmVR4n.s 			page 10


 141 0017 46462087 		.ascii	"FF \207\221\241\236\211\261>\222\021\254l=\323\201\007"
 141      91A19E89 
 141      B13E9211 
 141      AC6C3DD3 
 141      8107
 142 0029 FFFFAFBB 		.ascii	"\377\377\257\273rn\317\035\306]L@\005\271`qV\206\226"
 142      726ECF1D 
 142      C65D4C40 
 142      05B96071 
 142      568696
 143 003c 8686090A 		.ascii	"\206\206\011\012\014\014\311`n\010\230\014\005\031\302"
 143      0C0CC960 
 143      6E08980C 
 143      0519C2
 144 004b 7C96A169 		.ascii	"|\226\241i\307\214\327\007\231\022\031\0272\2622h3\254"
 144      C78CD707 
 144      99121917 
 144      32B23268 
 144      33AC
 145 005d 6A0002DE 		.ascii	"j\000\002\336LF\206\331\014\263\0303\031\031\323\031"
 145      4C4686D9 
 145      0CB31833 
 145      1919D319 
 146 006d 19238034 		.ascii	"\031#\2004\304EI\020[\030@\"`\306E\206\306\007k\325"
 146      C4454910 
 146      5B184022 
 146      60C64586 
 146      C6076BD5 
 147 0081 217A6120 		.ascii	"!za \004\344,\220z\005==}\347\214\314\244L\377`\375"
 147      04E42C90 
 147      7A053D3D 
 147      7DE78CCC 
 147      A44CFF60 
 148 0096 FC62FDA2 		.ascii	"\374b\375\242\022\375\314\274\344\234\322\224T\375\344"
 148      12FDCCBC 
 148      E49CD294 
 148      54FDE4
 149 00a5 8CB212BD 		.ascii	"\214\262\022\275\014\006\000\214\354*\305"
 149      0C06008C 
 149      EC2AC5
 150              		.text
 151              		.section	.gnu.lto_chVTIsArmedI.8495e967e942a9d5,"",%progbits
 152 0000 789C5D50 		.ascii	"x\234]P=K\003A\024\234\331\275\223Tvbas\244T\271\373"
 152      3D4B0341 
 152      149CD9BD 
 152      93547662 
 152      6173A454 
 153 0016 0916FE00 		.ascii	"\011\026\376\000\005\023\320\322\\$\267\340\007h\264"
 153      0513D0D2 
 153      5C24B7E0 
 153      0768B4
 154 0025 CD6A5259 		.ascii	"\315jRY\005\313\263\022\261\266\265\011\244\024$\205"
 154      05CBB312 
 154      B1B6B509 
 154      A4142485 
 155 0035 9D8AC5A1 		.ascii	"\235\212\305\241\376\012\213[w7\344 >\330\267o\337\233"
 155      FE0A8B5B 
ARM GAS  /tmp/ccxmVR4n.s 			page 11


 155      7737E420 
 155      3ED8B76F 
 155      DF9B
 156 0047 D9199E80 		.ascii	"\331\031\236\200\300\377X\261g\235@\335=\002\320\"("
 156      C0FF58B1 
 156      679D40DD 
 156      3D02D022 
 156      28
 157 0058 286D96B4 		.ascii	"(m\226\264m\020=!\331\333s5D\035wZ\347\305C\231/_\027"
 157      6D103D21 
 157      D9DB7335 
 157      441D775A 
 157      E7C54399 
 158 006f 7AA84B63 		.ascii	"z\250Kc\250\334(%vm\305\232\277\004\347E<\355F\277\377"
 158      A8DC2825 
 158      766DC59A 
 158      BF04E745 
 158      3CED46BF 
 159 0084 6C3FEBC1 		.ascii	"l?\353\301\330\230\015\345\024f\234h\312\011\3469\217"
 159      D8980DE5 
 159      14669C68 
 159      CA09E639 
 159      8F
 160 0095 625C18F3 		.ascii	"b\\\030\3639\032}\377r) \217h\335[\236\204\027D\210"
 160      391A7DFF 
 160      7229208F 
 160      68DD5B9E 
 160      84174488 
 161 00a9 81D6C3C8 		.ascii	"\201\326\303\310\177c\243\341s\323\371\227\023\\}<\225"
 161      7F63A3E1 
 161      73D3F997 
 161      135C7D3C 
 161      95
 162 00ba 5F629FF7 		.ascii	"_b\237\367\014\321\241X\303\252bp\213\334\352\204\035"
 162      0CD1A158 
 162      C3AA6270 
 162      8BDCEA84 
 162      1D
 163 00cb D2E92D78 		.ascii	"\322\351-x\225V\345t\202\376[\177qF\221\226\345P\225"
 163      9556E574 
 163      82FE5B7F 
 163      71469196 
 163      E55095
 164 00de A9A6732C 		.ascii	"\251\246s,_pY\003\332n3\257`\005\236B\032\256\3556\034"
 164      5F705903 
 164      DA6E33AF 
 164      60059E42 
 164      1AAEED36 
 165 00f3 C571B299 		.ascii	"\305q\262\231\251\226\332\332IN\316\222\323n\242\216"
 165      A996DADA 
 165      494ECE92 
 165      D36EA28E 
 166 0103 D3C3F3F6 		.ascii	"\323\303\363\366A\222f\027\3358\303\037<\305HT"
 166      41926617 
 166      DD38C31F 
 166      3CC54854 
 167              		.text
ARM GAS  /tmp/ccxmVR4n.s 			page 12


 168              		.section	.gnu.lto_chEvtObjectInit.8495e967e942a9d5,"",%progbits
 169 0000 789C6362 		.ascii	"x\234cb`b@\007\"@\334\017\304j \0163\003#P\005#\023"
 169      60624007 
 169      2240DC0F 
 169      C46A200E 
 169      33032350 
 170 0017 232390C3 		.ascii	"##\220\303\310P\317\304X\037\311\010V\266\236\351\300"
 170      C850CFC4 
 170      581FC908 
 170      56B69EE9 
 170      C0
 171 0028 83FFFFD7 		.ascii	"\203\377\377\327m9\275\347\016\343Z&\240\202\\\2608"
 171      6D39BDE7 
 171      0EE35A26 
 171      A0825CB0 
 171      38
 172 0039 2B434B43 		.ascii	"+CKC\303\004\005\006\206d07\004L\206\202\014a>\313\320"
 172      C3040506 
 172      86643037 
 172      044C8682 
 172      0C613ECB 
 173 004e 747AC6F6 		.ascii	"tz\306\366\203L\211\214\013\031Y\031\264\031V5\000\001"
 173      834C898C 
 173      0B195919 
 173      B4195635 
 173      0001
 174 0060 6F2623C3 		.ascii	"o&#\303l\206Y\214\231\214\214\351\214\214\021@\032\342"
 174      6C86598C 
 174      998C8CE9 
 174      8C8C1140 
 174      1AE2
 175 0072 A224882D 		.ascii	"\242$\210-\014\351 \233/24>\270\253\012\321\007\003"
 175      0CE9209B 
 175      2F32343E 
 175      B8AB0AD1 
 175      0703
 176 0084 21200990 		.ascii	"! \011\220Z\025==}\347\214\314\244L\377`\375\374b\375"
 176      5A153D3D 
 176      7DE78CCC 
 176      A44CFF60 
 176      FDFC62FD 
 177 0098 A212FDCC 		.ascii	"\242\022\375\314\274\344\234\322\224T\375\344\214\324"
 177      BCE49CD2 
 177      9454FDE4 
 177      8CD4
 178 00a6 B2D4BC92 		.ascii	"\262\324\274\222b\275\014\006\000\225\324+\367"
 178      62BD0C06 
 178      0095D42B 
 178      F7
 179              		.text
 180              		.section	.gnu.lto_chEvtBroadcastI.8495e967e942a9d5,"",%progbits
 181 0000 789C6362 		.ascii	"x\234cb`b@\007\"@\334\012\304j \0163\003#P\005#\023"
 181      60624007 
 181      2240DC0A 
 181      C46A200E 
 181      33032350 
 182 0017 232390C3 		.ascii	"##\220\303\310P\317\304X\037\311\010V\266\236\351\300"
ARM GAS  /tmp/ccxmVR4n.s 			page 13


 182      C850CFC4 
 182      581FC908 
 182      56B69EE9 
 182      C0
 183 0028 83FFFFD7 		.ascii	"\203\377\377\327\3759\277g\016\343\011&\240\202\\\260"
 183      FD39BF67 
 183      0EE30926 
 183      A0825CB0 
 184 0038 382B434B 		.ascii	"8+CKC\303\004\005\006\206d07\004L\206\202\014a>\317"
 184      43C30405 
 184      06866430 
 184      37044C86 
 184      820C613E 
 185 004d D0FAA0E3 		.ascii	"\320\372\240\343%w\"\343BFV\240`5\303\257\206\216\006"
 185      257722E3 
 185      424656A0 
 185      6035C3AF 
 185      868E06
 186 0060 814C46A0 		.ascii	"\201LF\240R\210\221\351\214\214\021\214\231 N&H\303"
 186      528891E9 
 186      8C8C118C 
 186      99204E26 
 186      48C3
 187 0072 4586C607 		.ascii	"E\206\306\007\235\2320\345\020\020\002\222\005\271Y"
 187      9D9A30E5 
 187      10100292 
 187      05B959
 188 0081 454F4FDF 		.ascii	"EOO\3379#3)\323?X?\277X\277\250D?3/9\2474%U?9#\265,"
 188      39233329 
 188      D33F583F 
 188      BF58BFA8 
 188      443F332F 
 189 009f 35AFA458 		.ascii	"5\257\244X/\203\001\000\341P)\326"
 189      2F830100 
 189      E15029D6 
 190              		.text
 191              		.section	.gnu.lto_tmrcb.8495e967e942a9d5,"",%progbits
 192 0000 789C8D52 		.ascii	"x\234\215R;K\303P\024>\347&\321\372\254\203\012\016"
 192      3B4BC350 
 192      143EE726 
 192      D1FAAC83 
 192      0A0E
 193 0012 42517050 		.ascii	"BQpPh~\204?\300\301*\352\"m(z\207Rik\007\213\364\326"
 193      687E843F 
 193      C0C12AEA 
 193      226D287A 
 193      8752696B 
 194 002a 078A284A 		.ascii	"\007\212(J\301\245]Z\020Q\027E\007\0353**E\334t\351"
 194      C1A55D5A 
 194      10511745 
 194      071D332A 
 194      2A45DC74 
 195 003f 2EA88B4B 		.ascii	".\250\213K\221\306s\223V\253\025\364@n\356\353{\234"
 195      91C67393 
 195      56AB15F4 
 195      406EEEEB 
 195      7B9C
ARM GAS  /tmp/ccxmVR4n.s 			page 14


 196 0051 2F61C0E0 		.ascii	"/a\300\340gu\322sC\333\003r\241\000\322\024\031\"-\020"
 196      6775D273 
 196      43DB0372 
 196      A100D214 
 196      19222D10 
 197 0065 920C9393 		.ascii	"\222\014\223\223r\012j\037\344\205H\027W\263\273=\033"
 197      720A6A1F 
 197      E4854817 
 197      57B3BB3D 
 197      1B
 198 0076 B9A51D51 		.ascii	"\271\245\035Q\266,\344\362\310@\230\240\031z\354\027"
 198      B62CE4F2 
 198      C84098A0 
 198      197AEC17 
 199 0086 53BFB33B 		.ascii	"S\277\263;0\363\361\3552\217\"-R\257\226\345\346\250"
 199      30F3F1ED 
 199      328F222D 
 199      52AF96E5 
 199      E6A8
 200 0098 FC0F264E 		.ascii	"\374\017&N\017DSN\274[\226\302Q\375\247\324\375\341"
 200      0F44534E 
 200      BC5B96C2 
 200      51FDA7D4 
 200      FDE1
 201 00aa 558D92C6 		.ascii	"U\215\222\306\240\037\377\000\0363\263hY\233[\333\345"
 201      A01FFF00 
 201      1E33B368 
 201      599B5BDB 
 201      E5
 202 00bb EE06C410 		.ascii	"\356\006\304\020RH~\334\303>J\203:TiP4\260\015\200\006"
 202      52487EDC 
 202      C33E4A83 
 202      3A546950 
 202      34B00D80 
 203 00d0 2B42EC78 		.ascii	"+B\354x\234c\333\020\225\317\036\307dr\312-,]_d\272"
 203      9C63DB10 
 203      95CF1EC7 
 203      6472CA2D 
 203      2C5D5F64 
 204 00e5 FCB88F1A 		.ascii	"\374\270\217\032\314 \233\221I\026`\271\3704\356\354"
 204      CC209B91 
 204      491660B9 
 204      F834EEEC 
 205 00f5 0124A024 		.ascii	"\001$\240$\326E\007\307\006\303\216\031\210\273\021"
 205      D64507C7 
 205      06C38E19 
 205      88BB11
 206 0104 8090A5E5 		.ascii	"\200\220\245\345\263{V\205*\011X \371!8\022T\323\034"
 206      B37B5685 
 206      2A095820 
 206      F9213812 
 206      54D31C
 207 0117 5D59C890 		.ascii	"]Y\310\220\373&b\225]h64\2005\215\024`\305\034\254\223"
 207      FB266295 
 207      5D683634 
 207      80358D14 
 207      60C51CAC 
ARM GAS  /tmp/ccxmVR4n.s 			page 15


 208 012c 6936D0F9 		.ascii	"i6\320\371\352\304\311\261\245\242t\376\204U%\325VR"
 208      EAC4C9B1 
 208      A5A274FE 
 208      845525D5 
 208      5652
 209 013e 2A4A631C 		.ascii	"*Jc\034[\177W\252\221\"\212\207\223\306*\2016\004\203"
 209      5B7F57AA 
 209      91228A87 
 209      93C62A81 
 209      360483
 210 0151 1CDB0895 		.ascii	"\034\333\010\225\"\202\305z$\3734\270f\366\326\031l"
 210      2282C57A 
 210      24FB34B8 
 210      66F6D619 
 210      6C
 211 0162 37E40F61 		.ascii	"7\344\017a\033T\211L\356\2738\272)\334\312Ub\343\330"
 211      1B54894C 
 211      EEBB38BA 
 211      29DCCA55 
 211      62E3D8
 212 0175 E1E4F83C 		.ascii	"\341\344\370<\365[\216\352W\216w\220*\276\260\352%\247"
 212      F55B8EEA 
 212      578E7790 
 212      2ABEB0EA 
 212      25A7
 213 0187 7CD2BB34 		.ascii	"|\322\2734\341\361z\365\341Y\036\340#\243z8\252\307"
 213      E1F17AF5 
 213      E1591EE0 
 213      23A37A38 
 213      AAC7
 214 0199 FD111E9E 		.ascii	"\375\021\036\236\217\352\301x\214\207\202\021\257\001"
 214      8FEAC178 
 214      8C878211 
 214      AF01
 215 01a7 4A3036F7 		.ascii	"J06\367\001&\215\250\200"
 215      01268DA8 
 215      80
 216              		.text
 217              		.section	.gnu.lto_chVTResetI.8495e967e942a9d5,"",%progbits
 218 0000 789C5D4E 		.ascii	"x\234]N;K\303P\030=\347\273\211\210 \270\350\\:\271"
 218      3B4BC350 
 218      183DE7BB 
 218      898820B8 
 218      E85C3AB9 
 219 0014 98FC087F 		.ascii	"\230\374\010\177\200\203-\324Q\2434\001\037\240\325"
 219      80832DD4 
 219      51A33401 
 219      1FA0D5
 220 0023 C5A13710 		.ascii	"\305\2417\020\301QDpUg\245\223\233\322\216n\305\311"
 220      C1514470 
 220      5567A593 
 220      9BD28E6E 
 220      C5C9
 221 0035 C125E0AA 		.ascii	"\301%\340\252\177@\204\370\335\244\017\364\300\375\036"
 221      7F4084F8 
 221      DDA40FF4 
 221      C0FD1E
ARM GAS  /tmp/ccxmVR4n.s 			page 16


 222 0044 DCEF3C04 		.ascii	"\334\357<\004\202\377X\326\267H\240\356\026\037\324"
 222      82FF58D6 
 222      B748A0EE 
 222      161FD4
 223 0053 0B8A18C0 		.ascii	"\013\212\030\300\212\247\3053\324F\217z\002\242+\306"
 223      8AA7C533 
 223      D4468F7A 
 223      02A22BC6 
 224 0063 6377C32D 		.ascii	"cw\303-`\035\267\326^\346g\275w\271\276\032\2447\366"
 224      601DB7D6 
 224      5EE667BD 
 224      77B9BE1A 
 224      A437F6
 225 0076 A728C8C4 		.ascii	"\247(\310\304}FDK'\316\226M\370\327\263'\203\274(\356"
 225      7D46444B 
 225      27CE964D 
 225      F8D7B327 
 225      83BC28EE 
 226 008a DF1E3FFA 		.ascii	"\337\036?\372\\2\344\0365X\311\323\004\231\265\027\265"
 226      5C32E41E 
 226      3558C9D3 
 226      0499B517 
 226      B5
 227 009b 5241D128 		.ascii	"RA\321(k\323\2452Cd\371\323\327\334&\357\350\243M9\305"
 227      6BD3A532 
 227      4364F9D3 
 227      D7DC26EF 
 227      E8A34D39 
 228 00b0 B73DB70B 		.ascii	"\267=\267\013\011M\304\312\240\355\3345\356\013\262"
 228      094DC4CA 
 228      A0EDDC35 
 228      EE0BB2
 229 00bf CF747E72 		.ascii	"\317t~r\330\2522M\321\244\031\351=?\214\364\200\211"
 229      D8AA324D 
 229      D1A419E9 
 229      3D3F8CF4 
 229      8089
 230 00d1 9C1F51A6 		.ascii	"\234\037Q\246r3c\212\352\232W\244y\177e\314\250\320"
 230      7233638A 
 230      EA9A57A4 
 230      797F65CC 
 230      A8D0
 231 00e3 70E68E50 		.ascii	"p\346\216P\013\202p5N\266\222\265\365\360\340(<\354"
 231      0B827035 
 231      4EB692B5 
 231      F5F0E028 
 231      3CEC
 232 00f5 84C97EB4 		.ascii	"\204\311~\264{\274\275\023F\361I'\210\361\013\251QF"
 232      7BBCBD13 
 232      46F14927 
 232      88F10BA9 
 232      5146
 233 0107 1D       		.ascii	"\035"
 234              		.text
 235              		.section	.gnu.lto_chVTSetI.8495e967e942a9d5,"",%progbits
 236 0000 789C6362 		.ascii	"x\234cb`b@\007\"@\274\017\210\225@\034f\006F\240\012"
 236      60624007 
ARM GAS  /tmp/ccxmVR4n.s 			page 17


 236      2240BC0F 
 236      8895401C 
 236      660646A0 
 237 0015 46264646 		.ascii	"F&FF \207\221\241\236\211\261>\222\021\254l=\323\201"
 237      208791A1 
 237      9E89B13E 
 237      9211AC6C 
 237      3DD381
 238 0028 07FFFFAF 		.ascii	"\007\377\377\257\333to\317\035\306\237L\254\214\214"
 238      DB746FCF 
 238      1DC69F4C 
 238      AC8C8C
 239 0037 B98C0C4C 		.ascii	"\271\214\014L@\202\221\031H0\261\000\011f\240*V\206"
 239      40829119 
 239      4830B100 
 239      0966A02A 
 239      5686
 240 0049 96868609 		.ascii	"\226\206\206\011\012\014\014\311`]!`2\024d&\363y\206"
 240      0A0C0CC9 
 240      605D2160 
 240      32146426 
 240      F37986
 241 005c 9607B3D7 		.ascii	"\226\007\263\327\263'2.dd\005\012V3\374j\350h\020\310"
 241      B327322E 
 241      6464050A 
 241      5633FC6A 
 241      E86810C8 
 242 0070 64042A85 		.ascii	"d\004*\205\330\220\316\310\230\011b\236gh_0\207\037"
 242      D890CEC8 
 242      9809629E 
 242      67685F30 
 242      871F
 243 0082 431D5332 		.ascii	"C\035S2#\023L]:#S:#s:#K&\310\326\213\014\215\017\346"
 243      23134C5D 
 243      3A23533A 
 243      23733A23 
 243      4B26C8D6 
 244 009b EAC33440 		.ascii	"\352\3034@@\010\310$\220z\005==}\347\214\314\244L\377"
 244      4008C824 
 244      907A053D 
 244      3D7DE78C 
 244      CCA44CFF 
 245 00af 60FDFC62 		.ascii	"`\375\374b\375\242\022\375\314\274\344\234\322\224T"
 245      FDA212FD 
 245      CCBCE49C 
 245      D29454
 246 00be FDE48CB2 		.ascii	"\375\344\214\262\022\275\014\006\000\206\0202\272"
 246      12BD0C06 
 246      00861032 
 246      BA
 247              		.text
 248              		.section	.gnu.lto_chVTSet.8495e967e942a9d5,"",%progbits
 249 0000 789C6362 		.ascii	"x\234cb`b@\007\"@\374\010\210\225@\034f\006F\240\012"
 249      60624007 
 249      2240FC08 
 249      8895401C 
 249      660646A0 
ARM GAS  /tmp/ccxmVR4n.s 			page 18


 250 0015 46264646 		.ascii	"F&FF \207\221\241\236\211\261>\222\021\254l=\323\201"
 250      208791A1 
 250      9E89B13E 
 250      9211AC6C 
 250      3DD381
 251 0028 07FFFFAF 		.ascii	"\007\377\377\257\2333\177\317\036\306\277L\254\214\214"
 251      9B337FCF 
 251      1EC6BF4C 
 251      AC8C8C
 252 0037 B98C0C4C 		.ascii	"\271\214\014L@\202\221\031H0\261\000\011f\240*V\206"
 252      40829119 
 252      4830B100 
 252      0966A02A 
 252      5686
 253 0049 96868609 		.ascii	"\226\206\206\011\012\014\014\311`]!`2\024d&\363y\206"
 253      0A0C0CC9 
 253      605D2160 
 253      32146426 
 253      F37986
 254 005c E60737FA 		.ascii	"\346\0077\372\331\023\031\0272\262\002\005\253\031~"
 254      D9131917 
 254      32B20205 
 254      AB197E
 255 006b 35743408 		.ascii	"5t4\010d2\002\225Bl\310\004\321\347\031\332\037\334"
 255      64320295 
 255      426CC804 
 255      D1E719DA 
 255      1FDC
 256 007d 7CCF86A1 		.ascii	"|\317\206\241\212)\231\021\342\364tF\306tF\246tF\346"
 256      8A299911 
 256      E2F47446 
 256      C67446A6 
 256      7446E6
 257 0090 7446964C 		.ascii	"tF\226L\220\235 so\235\307j.3\302\334\213\014\215\017"
 257      909D2073 
 257      6F9DC76A 
 257      2E33C2DC 
 257      8B0C8D0F 
 258 00a4 6EEBC314 		.ascii	"n\353\303\024A@\010H\002d\252\202\236\236\276sFfR\246"
 258      41400848 
 258      0264AA82 
 258      9E9EBE73 
 258      466652A6 
 259 00b8 7FB07E7E 		.ascii	"\177\260~~\261~Q\211~f^rNiJ\252~rFY\211^\006\003\000"
 259      B17E5189 
 259      7E665E72 
 259      4E694AAA 
 259      7E724659 
 260 00d1 315E3CF5 		.ascii	"1^<\365"
 261              		.text
 262              		.section	.gnu.lto_evtObjectInit.8495e967e942a9d5,"",%progbits
 263 0000 789C8590 		.ascii	"x\234\205\220\277J\003A\020\306\347\333\315\371_P\260"
 263      BF4A0341 
 263      10C6E7DB 
 263      CDF95F50 
 263      B0
 264 0011 B10BB18A 		.ascii	"\261\013\261\212B\356!|\000\013#h!\222\034!n\021\002"
ARM GAS  /tmp/ccxmVR4n.s 			page 19


 264      42EE217C 
 264      000B2368 
 264      21921C21 
 264      6E1102
 265 0024 89A63045 		.ascii	"\211\2460E\326\230B$E\220\024Q\021\"bc#V\026Z\244\262"
 265      D6984224 
 265      45901451 
 265      11226263 
 265      2356165A 
 266 003a 1151DFE0 		.ascii	"\021Q\337\340$/!A<g\357.`4\340\300\316\316\354\3167"
 266      242F2141 
 266      3C67EF2E 
 266      6034E0C0 
 266      CECEECCE 
 267 004f BFD91524 		.ascii	"\277\331\025$\350\267\315\361z\007Q\314$\222\300\025"
 267      E8B7CDF1 
 267      7A0751CC 
 267      2492C015 
 268 005f 10E00302 		.ascii	"\020\340\003\002U\004*\033&$\021\243\013\255\217\335"
 268      55042A1B 
 268      262411A3 
 268      0BAD8FDD 
 269 006f ABEEAB38 		.ascii	"\253\356\2538ivjm\375\351y\2002\227\016h\235#D\375M"
 269      69766A6D 
 269      FDE97980 
 269      32970E68 
 269      9D2344FD 
 270 0084 4406FB07 		.ascii	"D\006\373\007\302\316\371cs\376\250]m\350/\326)\310"
 270      C2CEF963 
 270      73FEA85D 
 270      6DE82FD6 
 270      29C8
 271 0096 FF6437A2 		.ascii	"\377d7\242\343z\336\303\255\333ma\326\002r\340\331\031"
 271      E37ADEC3 
 271      ADDB6D61 
 271      D60272E0 
 271      D919
 272 00a8 27D9C908 		.ascii	"'\331\311\010\247\206lQM\353F\324\357\305\226\364\375"
 272      A7866C51 
 272      4DEB46D4 
 272      EFC596F4 
 272      FD
 273 00b9 9A79827C 		.ascii	"\232y\202|\246j\357\340\256\276\230\302%,\312B\224i"
 273      A66AEFE0 
 273      AEBE98C2 
 273      252CCA42 
 273      9469
 274 00cb 8FE54B74 		.ascii	"\217\345Kt\255\331\266\024\"gt\312\\+\013\030\376\210"
 274      ADD9B614 
 274      226774CA 
 274      5C2B0B18 
 274      FE88
 275 00dd 4F4DE3C7 		.ascii	"OM\343\307\010/T\353\204z\2422\365\364\241\236Q\030"
 275      082F54EB 
 275      847AA232 
 275      F5F4A19E 
 275      5118
ARM GAS  /tmp/ccxmVR4n.s 			page 20


 276 00ef 75101471 		.ascii	"u\020\024qO\2051\"\237t_\217\367I\322'\311\220\264\251"
 276      4F853122 
 276      9F745F8F 
 276      F749D227 
 276      C990B4A9 
 277 0103 303E9C84 		.ascii	"0>\234\204AR\374\017i\302\201\010IRa\322'=}t]\021T\206"
 277      4152FC0F 
 277      69C28108 
 277      495261D2 
 277      273D7D74 
 278 011b 806985A9 		.ascii	"\200i\205\251\341\200\276\230\177\366\215\366\335\326"
 278      E180BE98 
 278      7FF68DF6 
 278      DDD6
 279 0129 429F1058 		.ascii	"B\237\020X\322L`j\242\211\204\275\274\255\322je\325"
 279      D24C606A 
 279      A28984BD 
 279      BCADD26A 
 279      65D5
 280 013b CE17ED52 		.ascii	"\316\027\355R\252\240\362\273E;S\332Q\271L!\341\320"
 280      AAA0F2BB 
 280      453B53DA 
 280      51B94C21 
 280      E1D0
 281 014d 3733AC74 		.ascii	"73\254t\011"
 281      09
 282              		.text
 283              		.section	.gnu.lto_evtStart.8495e967e942a9d5,"",%progbits
 284 0000 789C8591 		.ascii	"x\234\205\221\275J\003A\024\205\317\231Mbb\245`e\265"
 284      BD4A0341 
 284      1485CF99 
 284      4D6262A5 
 284      6065B5
 285 0013 C4CE40F6 		.ascii	"\304\316@\366\021,|\000\013#h\231,a\235\"\004\022\215"
 285      112C7C00 
 285      0B236899 
 285      2C619D22 
 285      04128D
 286 0026 608A4C74 		.ascii	"`\212LtA\013\005\021\033\265\211\330\210\021\004\301"
 286      410B0511 
 286      1BB589D8 
 286      881104C1 
 287 0036 3E8DA518 		.ascii	">\215\245\030[\253`\351#\004a\275\263I\300\237\302\013"
 287      5BAB60E9 
 287      230461BD 
 287      B349C09F 
 287      C20B
 288 0048 337367E6 		.ascii	"3sg\346~\347\\f\024\024~\307\234\214\220@\326n\034P"
 288      7EE75C66 
 288      14147EC7 
 288      9C8C9040 
 288      D66E1C50 
 289 005c 2AA82807 		.ascii	"*\250(\007 Z\212\255\015\233Beqe\314\351\340\351\243"
 289      205A8AAD 
 289      0D9B4265 
 289      7165CCE9 
 289      E0E9A3
ARM GAS  /tmp/ccxmVR4n.s 			page 21


 290 006f CFF3B35E 		.ascii	"\317\363\263^\3301\237QDj{\351\023\353\222\321\215\027"
 290      D8319F51 
 290      446A7BE9 
 290      13EB92D1 
 290      8D17
 291 0081 95F8A93F 		.ascii	"\225\370\251?\002\315\303\215\311\304\220\243\351\374"
 291      02CDC38D 
 291      C9C490A3 
 291      E9FC
 292 008f C7DCABDE 		.ascii	"\307\334\253\336 \212\216\036\357\336\273\234M\220\025"
 292      208A8E1E 
 292      EFDEBB9C 
 292      4D9015
 293 009e 4AE3E2E5 		.ascii	"J\343\342\345 \206\221Dh\314\211\033\313H\024\342y\315"
 293      20869144 
 293      68CC891B 
 293      CB4814E2 
 293      79CD
 294 00b0 B6EE3C63 		.ascii	"\266\356<co\270\337=\236/\362\232I\004TM\354\012\231"
 294      6FB8DF3D 
 294      9E2FF29A 
 294      4904544D 
 294      EC0A99
 295 00c3 C3AD9158 		.ascii	"\303\255\221X\322L\\\342B,\223\001i\255S\261a\211\337"
 295      D24C5CE2 
 295      422C9301 
 295      69AD53B1 
 295      6189DF
 296 00d6 DC45E2AD 		.ascii	"\334E\342\255\237\232\01089,jN\011\325\026\201\235\277"
 296      9F9A0838 
 296      392C6A4E 
 296      09D51681 
 296      9DBF
 297 00e8 E4047DC1 		.ascii	"\344\004}\301Aol\013414\207fF3\355\217\013\244\025\021"
 297      416F6C0B 
 297      34313487 
 297      664633ED 
 297      8F0BA415 
 298 00fd B3E769CD 		.ascii	"\263\347i\315\214O5.\015\354+N\003\257h\017\272\013"
 298      8C4F352E 
 298      0DEC2B4E 
 298      03AF680F 
 298      BA0B
 299 010f 137E1405 		.ascii	"\023~\024\005\313\332/s\363yoyS\227\364\312\252W\255"
 299      CBDA2F73 
 299      F3796F79 
 299      5397F4CA 
 299      AA57AD
 300 0122 7B8D624D 		.ascii	"{\215bMW\267\353^\271\261\245+\345Z\336\307\027\311"
 300      57B7EB5E 
 300      B9B1A52B 
 300      E55ADEC7 
 300      17C9
 301 0134 165D92   		.ascii	"\026]\222"
 302              		.text
 303              		.section	.gnu.lto_.symbol_nodes.8495e967e942a9d5,"",%progbits
 304 0000 789C4DCC 		.ascii	"x\234M\314\273N\303@\020\205\3419\273\276$q\354u\342"
ARM GAS  /tmp/ccxmVR4n.s 			page 22


 304      BB4EC340 
 304      1085E139 
 304      BBBE2471 
 304      EC75E2
 305 0013 BC609EE4 		.ascii	"\274`\236\344\230\320\204\216\206\027\200\002H\221\022"
 305      98D0848E 
 305      86178002 
 305      489112
 306 0022 21E8484F 		.ascii	"!\350HO\205\020\015\022\370\021\270v\200\326c\221\231"
 306      85100D12 
 306      F811B876 
 306      80D66391 
 306      99
 307 0033 E6D7B73B 		.ascii	"\346\327\267;\032'N:\210\216\373\025\212\034\337\213"
 307      1A274E3A 
 307      888EFB15 
 307      8A1CDF8B 
 308 0043 9027EBA5 		.ascii	"\220'\353\245kA\030\036\200\316p\005z\303s01\274\000"
 308      6B41181E 
 308      80CE7005 
 308      7AC37330 
 308      31BC00
 309 0056 53C34B30 		.ascii	"S\303K03\334\200\271\341\026\034\031^\201c\303'pb\370"
 309      33DC80B9 
 309      E1161C19 
 309      5E8163C3 
 309      277062F8 
 310 006a 0C16866F 		.ascii	"\014\026\206o\340t\340\303\321\322]\203\245\371\275"
 310      E074E0C3 
 310      D1D25D83 
 310      A5F9BD
 311 0079 012BC35B 		.ascii	"\001+\303[0\030\276\203\365\300\3075\334\0078\333\023"
 311      3018BE83 
 311      F5C0C735 
 311      DC0738DB 
 311      13
 312 008a 5FE05CD9 		.ascii	"_\340\\\331\266\300'\330\354\365\015.\376\345\235\310"
 312      B6C027D8 
 312      ECF50D2E 
 312      FEE59DC8 
 313 009a EAE507DE 		.ascii	"\352\345\007\336C\233\014N\007gN\233{m1\227\303\330"
 313      439B0C4E 
 313      07674E9B 
 313      7B6D3197 
 313      C3D8
 314 00ac 6926A77D 		.ascii	"i&\247}\013\351\3726\262{\215\315\245\213-\307\272_"
 314      0BE9FA36 
 314      B27B8DCD 
 314      A58B2DC7 
 314      BA5F
 315 00be 2E64175B 		.ascii	".d\027[\225\352\252\221\263\330\220\250C\245wB*w\261"
 315      95EAAA91 
 315      B3D890A8 
 315      43A57742 
 315      2A77B1
 316 00d1 F5445D8F 		.ascii	"\365D]\217\364\356,\364\357\362\0073M\240\362"
 316      F4EE2CF4 
ARM GAS  /tmp/ccxmVR4n.s 			page 23


 316      EFF20733 
 316      4DA0F2
 317              		.text
 318              		.section	.gnu.lto_.refs.8495e967e942a9d5,"",%progbits
 319 0000 789C6362 		.ascii	"x\234cb`b\340d\200\000F\036&\036FA&\036\006\000\002"
 319      6062E064 
 319      8000461E 
 319      261E4641 
 319      261E0600 
 320 0015 240049   		.ascii	"$\000I"
 321              		.text
 322              		.section	.gnu.lto_.decls.8495e967e942a9d5,"",%progbits
 323 0000 789CBD5B 		.ascii	"x\234\275[{t\024E\272\257\356I23$@\304\307a\317\361"
 323      7B741445 
 323      BAAFEE49 
 323      32332440 
 323      C4C761CF 
 324 0015 5EA3D77D 		.ascii	"^\243\327}\\\367@\320\365\301\336?\026\225]W\316\275"
 324      5CF740D0 
 324      F5C1DE3F 
 324      16955D57 
 324      CEBD
 325 0027 DEDD23EB 		.ascii	"\336\335#\353=\367\257\3336\223\206\314\232\311\214"
 325      3DF7AFDB 
 325      369386CC 
 325      9AC98C
 326 0036 3D9D04FE 		.ascii	"=\235\004\376\262\023 (\317\220\000\001E\011`pA\274"
 326      B2132028 
 326      CF900001 
 326      45096070 
 326      41BC
 327 0048 C17883EC 		.ascii	"\301x\203\354I \203,o\220D\010\341\235\021\020E4\004"
 327      4920832C 
 327      6F904408 
 327      E19D1110 
 327      453404
 328 005b 794B30F7 		.ascii	"yK0\367\253\352\352\236\356\232\356\231\236\340n\237"
 328      ABEAEA9E 
 328      EE9AEE99 
 328      9EE06E9F 
 329 006b 53DD35DD 		.ascii	"S\3355\335\365\375\352\253\357U_U*<\342\321\313\331"
 329      F5FDEAAB 
 329      EF555F55 
 329      2A3CE2D1 
 329      CBD9
 330 007d 080DC075 		.ascii	"\010\015\300u\340\337\020j\367\"t7B\3507(q\335\013e"
 330      E0DF106A 
 330      F7227437 
 330      42E83728 
 330      71DD0B65 
 331 0091 25943550 		.ascii	"%\2245P\326BY\017\245\011J3\224\026(\233\240\264B9\015"
 331      D642590F 
 331      A5094A33 
 331      9416289B 
 331      A0B44239 
 332 00a6 E502946D 		.ascii	"\345\002\224m\034B;\241\354\203\322\001\245\007\312"
 332      1C423BA1 
ARM GAS  /tmp/ccxmVR4n.s 			page 24


 332      EC83D201 
 332      A507CA
 333 00b5 3928FD50 		.ascii	"9(\375Px\036!/\024?\217\222.\334\007\260\202\366C\031"
 333      781E212F 
 333      143F8F92 
 333      2EDC07B0 
 333      82F64319 
 334 00c9 06250F4A 		.ascii	"\006%\017J.\264\033J\333\362\264\315p\033\3325.h\327"
 334      2EB41B4A 
 334      DBF2B4CD 
 334      701BDA35 
 334      2E68D7
 335 00dc 38D0AEA5 		.ascii	"8\320\256\245\337G\302m\025J\264_K\373c\257\365\016"
 335      DF47C26D 
 335      154AB45F 
 335      4BFB63AF 
 335      F50E
 336 00ee EDD7D33E 		.ascii	"\355\327\323>\330\253\311\241}\223\003>\226k\016\256"
 336      D8ABC9A1 
 336      7D93033E 
 336      966B0EAE 
 337 00fe 7089B178 		.ascii	"p\211\261xm\350\233i\177\320\014\375\204\031W\213C\237"
 337      6DE89B69 
 337      7FD00CFD 
 337      8419578B 
 337      439F
 338 0110 2D745CEC 		.ascii	"-t\\\354\265\311\241\375&:.\366\302\372\366@\351\202"
 338      B5C9A1FD 
 338      263A2EF6 
 338      C2FAF640 
 338      E982
 339 0122 D20E650B 		.ascii	"\322\016e\013\345\343\020}\266\322g\017Cw\232\216\345"
 339      E5E3107D 
 339      B6D2670F 
 339      43779A8E 
 339      E5
 340 0133 2C4A8CED 		.ascii	",J\214\355X\012\234\323\224\217\363P\036`\306x\201\362"
 340      580A9CD3 
 340      948FF350 
 340      1E60C678 
 340      81F2
 341 0145 700DCA45 		.ascii	"p\015\312E(\275\224\346*}^\240\317\030g\245\303\366"
 341      28BD94E6 
 341      2A7D5EA0 
 341      CF1867A5 
 341      C3F6
 342 0157 89E90A78 		.ascii	"\211\351\012x\215\027\217\311F\266Q\033\305$\333\031"
 342      8D178FC9 
 342      46B6511B 
 342      C524DB19 
 343 0167 3A6CD377 		.ascii	":l\323w\321~t\336\267\320\361\234\347\022\262\303\274"
 343      D17E74DE 
 343      B7D0F19C 
 343      E712B2C3 
 343      BC
 344 0178 7C0DBF1F 		.ascii	"|\015\277\037\204\337\337\320q\355\201\362\020\257\215"
 344      84DFDFD0 
ARM GAS  /tmp/ccxmVR4n.s 			page 25


 344      71ED81F2 
 344      10AF8D
 345 0187 B593F67F 		.ascii	"\265\223\366\177\011\236\027\241\\\3464\333\305\370"
 345      099E17A1 
 345      5CE634DB 
 345      C5F8
 346 0195 2D9407EC 		.ascii	"-\224\007\354#\233(\377\273\031>\260_\2612\374\027h"
 346      239B28FF 
 346      BB193EB0 
 346      5FB132FC 
 346      1768
 347 01a7 7F069E0F 		.ascii	"\177\006\236\017\303\263\215\266\363\320\266X\206~:"
 347      C3B38DB6 
 347      F3D0B658 
 347      867E3A
 348 01b6 A64F192C 		.ascii	"\246O\031,\354\237Y&:\314c'\227\240\357\240~\214\371"
 348      EC9F5926 
 348      3ACC6327 
 348      97A0EFA0 
 348      7E8CF9
 349 01c9 C1EDBAA1 		.ascii	"\301\355\272\241~\004\3121('\030\254\036\212\245\313"
 349      7E04CA31 
 349      282718AC 
 349      1E8AA5CB 
 350 01d9 C18C9545 		.ascii	"\301\214\225E\2777Q\314f\372\356s\314\037\2243P\316"
 350      BF3751CC 
 350      66FAEE73 
 350      CC1F9433 
 350      50CE
 351 01eb 32783866 		.ascii	"2x8f\014\265\221\267.\337\363\214\214\3651\354A\311"
 351      0CB591B7 
 351      2EDFF38C 
 351      8CF531EC 
 351      41C9
 352 01fd F2F5503C 		.ascii	"\362\365P<l\023\255T\327\327\341\367M\246O\034\243r"
 352      6C13AD54 
 352      D7D7E1F7 
 352      4DA64F1C 
 352      A372
 353 020f 693F66DF 		.ascii	"i?f\337k7\365\311\352\022c\231\373\351\2471\017\353"
 353      6B37F5C9 
 353      EA126399 
 353      FBE9A731 
 353      0FEB
 354 0221 93C03376 		.ascii	"\223\3003v\373\000zG\215u\304g\236;\303/Sc3T\010\275"
 354      FB007A47 
 354      8D75C467 
 354      9E3BC32F 
 354      53633354 
 355 0237 2A57701F 		.ascii	"*Wp\037Z\254\302\325P\255\252\234\"r\277\271\027\375"
 355      5AACC2D5 
 355      50ADAA9C 
 355      2272BFB9 
 355      17FD
 356 0249 372772C3 		.ascii	"7'r\303\374\250\200T\362\374D^\010\211\334*\356>Z{\311"
 356      FCA88054 
 356      F2FC445E 
ARM GAS  /tmp/ccxmVR4n.s 			page 26


 356      0889DC2A 
 356      EE3E5A7B 
 357 025e A321F268 		.ascii	"\243!\362h4\207\036Ak\201\276FU\253\376\031\331]?C\215"
 357      34871E41 
 357      6B81BE46 
 357      55ABFE19 
 357      D95D3F43 
 358 0273 B803F52F 		.ascii	"\270\003\365/\252\207\300c\200\225\334\003\346&\"\267"
 358      AA87C063 
 358      8095DC03 
 358      E62622B7 
 359 0283 9AB330AB 		.ascii	"\232\2630\253\261\032\253\351\311\253\251\214\017\014"
 359      B11AABE9 
 359      C9ABA98C 
 359      0F0C
 360 0291 AC68C8D7 		.ascii	"\254h\310\327\272\347\3218\016Z\277\313=\222\022~\015"
 360      BAE7D138 
 360      0E5ABFCB 
 360      3D92127E 
 360      0D
 361 02a2 0BFF9E2D 		.ascii	"\013\377\236-\374\226d\370\177w\003\277\226\205_g\013"
 361      FC9664F8 
 361      7F7703BF 
 361      96855F67 
 361      0B
 362 02b3 7F2519FE 		.ascii	"\177%\031\376\177\334\300\257g\341?\260\203\217\037"
 362      7FDCC0AF 
 362      67E13FB0 
 362      838F1F
 363 02c2 9E7532DB 		.ascii	"\236u2\333\244G\275\213\305\234\233>\232\330>6\330\016"
 363      A447BD8B 
 363      C59C9B3E 
 363      9AD83E36 
 363      D80E
 364 02d4 617977D2 		.ascii	"ayw\322\020V\270\302of\361?\262\305_t,\011\377}W\370"
 364      1056B8C2 
 364      6F66F13F 
 364      B2C55F74 
 364      2C09FF7D 
 365 02ea 2D2CFE46 		.ascii	"-,\376F[\374\023\311\370m\256\3607\261\370\177\265\325"
 365      5BFC13C9 
 365      F86DAEF0 
 365      37B1F87F 
 365      B5D5
 366 02fc C196F95D 		.ascii	"\301\226\371]\236A\371R\033\365%\217\346\244\271h6\370"
 366      9E41F952 
 366      1BF5258F 
 366      E6A4B968 
 366      36F8
 367 030e 0F267C7E 		.ascii	"\017&|~\327\260\021h!F)\330\005\201\200\3227p:\300="
 367      D7B01168 
 367      214629D8 
 367      058180D2 
 367      37703AC0 
 368 0323 D0FAA7E8 		.ascii	"\320\372\247\350]p\270x\347\201\263\013\271\031\320"
 368      5D70B878 
 368      E781B30B 
ARM GAS  /tmp/ccxmVR4n.s 			page 27


 368      B919D0
 369 0332 95C8B573 		.ascii	"\225\310\265s#\000\250\236\267\016--\020\217\336#$\237"
 369      2300A89E 
 369      B70E2D2D 
 369      108FDE23 
 369      249F
 370 0344 00B94648 		.ascii	"\000\271FH\240\325\370\245\203\2753\271J\002\215\277"
 370      A0D5F8A5 
 370      83BD33B9 
 370      4A028DBF 
 371 0354 214662A6 		.ascii	"!Fb\246\353A\324\000\234\3076\327\277\375\023\265\341"
 371      EB41D400 
 371      9CC736D7 
 371      BFFD13B5 
 371      E1
 372 0365 1368BF85 		.ascii	"\023h\277\205\313\005\334\343\006\256\235\004hU\273"
 372      CB05DCE3 
 372      06AE9D04 
 372      6855BB
 373 0374 68032BDE 		.ascii	"h\003+\336\0260<Q\007;\2231X\201\005\254\263{9a\316"
 373      16303C51 
 373      073B9331 
 373      588105AC 
 373      B37B3961 
 374 0389 8F5E4F48 		.ascii	"\217^OH\031\331\202\031\242myDU}\"\267\007\210xt\201"
 374      19D98219 
 374      A26D7944 
 374      557D22B7 
 374      07887874 
 375 039e 11AC7BA0 		.ascii	"\021\254{\240\343\365\333\267rUD\220\373\011\324y\317"
 375      E3F5DBB7 
 375      72554490 
 375      FB09D479 
 375      CF
 376 03af 60A1BA56 		.ascii	"`\241\272V\264\375\232\360\324A\200\256gY\201D\316k"
 376      B4FD9AF0 
 376      D44180AE 
 376      67598144 
 376      CE6B
 377 03c1 08D1F8AD 		.ascii	"\010\321\370\2557\300h\3443\255\340\264{8\372;7\347"
 377      37C068E4 
 377      33ADE0B4 
 377      7B38FA3B 
 377      37E7
 378 03d3 5155B60B 		.ascii	"QU\266\013\305\371\034\255 \336w\360\012\011q\036\213"
 378      C5F91CAD 
 378      20DE77F0 
 378      0A09711E 
 378      8B
 379 03e4 7FB8F7B2 		.ascii	"\177\270\367\262\303V/\023\271q\271\246\331\013\245"
 379      C3562F13 
 379      B971B9A6 
 379      D90BA5
 380 03f3 368105A7 		.ascii	"6\201\005\247*\251\346\272\210\025\316\311\266\012\334"
 380      2AA9E6BA 
 380      8815CEC9 
 380      B60ADC
ARM GAS  /tmp/ccxmVR4n.s 			page 28


 381 0402 C293D697 		.ascii	"\302\223\326\227\023\037\307\270\\\007\017J\372\306"
 381      131FC7B8 
 381      5C070F4A 
 381      FAC6
 382 0410 A345190B 		.ascii	"\243E\031\013\315b\355\340\273W\033\271\272\351\352"
 382      CD62EDE0 
 382      BB571BB9 
 382      BAE9EA
 383 041f AE3164BC 		.ascii	"\2561d\274<Z\356\0060\337F\013v\2279X\210\334\337\270"
 383      3C5AEE06 
 383      30DF460B 
 383      76973958 
 383      88DCDFB8 
 384 0433 9FC27D3B 		.ascii	"\237\302};\367 \334w\222\373nr?D\356'\340\236R\324\030"
 384      F720DC77 
 384      92FB6E72 
 384      3F44EE27 
 384      E09E52D4 
 385 0448 0EBBB881 		.ascii	"\016\273\270\201mR\015\217V3\002\177\030\255V\325\332"
 385      6D520D8F 
 385      5633027F 
 385      18AD56D5 
 385      DA
 386 0459 78FBFCAE 		.ascii	"x\373\374\256m\334\222\351\352\363zxh&\355Z!b\333\365"
 386      6DDC92E9 
 386      EAF37A78 
 386      6826ED5A 
 386      2162DBF5 
 387 046d 61F440C3 		.ascii	"a\364@\303\374Q\365\217#\2150\337\312\206\371S\266\323"
 387      FC51F58F 
 387      238D30DF 
 387      CA86F953 
 387      B6D3
 388 047f C8B1C434 		.ascii	"\310\261\3044h1>\037\232\205M >S\255\344^5\206\350\323"
 388      68313E1F 
 388      9A854D20 
 388      3E53ADE4 
 388      5E3586E8 
 389 0494 BBE7746B 		.ascii	"\273\347tk\302\331\021/rg9\037\260\2731\233\311\375"
 389      C2D9112F 
 389      7267391F 
 389      B0BB319B 
 389      C9FD
 390 04a6 12BDE306 		.ascii	"\022\275\343\006\272\254\264\272^\343\234\005x\2065"
 390      BAACB4BA 
 390      5EE39C05 
 390      788635
 391 04b5 F22D5C2E 		.ascii	"\362-\\.+\3126[Q\252]\322\363z\3638\014\\\344N\273\022"
 391      2BCA365B 
 391      51AA5DD2 
 391      F37AF338 
 391      0C5CE44E 
 392 04cb 62957AF4 		.ascii	"b\225z\364\004\026\242\306\242\205\3122v\312\340W\266"
 392      0416A2C6 
 392      A285CA32 
 392      76CAE057 
 392      B6
ARM GAS  /tmp/ccxmVR4n.s 			page 29


 393 04dc 5367736F 		.ascii	"Sgso\307\250AM\235\337\244\237:\033rR\307\322\330\346"
 393      C7A8414D 
 393      9DDFA49F 
 393      3A1B7252 
 393      C7D2D8E6 
 394 04f0 1D3861BA 		.ascii	"\0358a\272Hf\315\336l\333Y\323\031\203G\267\011\311"
 394      4866CDDE 
 394      6CDB59D3 
 394      198347B7 
 394      09C9
 395 0502 77CCAC19 		.ascii	"w\314\254\031k\251\276G\315\322\336\247\2371?\256\326"
 395      6BA9BE47 
 395      CDD2DEA7 
 395      9F313FAE 
 395      D6
 396 0513 66CCC14C 		.ascii	"f\314\301L\375\261\243\2671\377\327\011\377\263s2\236"
 396      FDB1A3B7 
 396      31FFD709 
 396      FFB37332 
 396      9E
 397 0524 F5DF2224 		.ascii	"\365\337\"$\337\263\374_\026\013\264\267\351\271\277"
 397      DFB3FC5F 
 397      160BB4B7 
 397      E9B9BF
 398 0533 7A7E37A7 		.ascii	"z~7\247\326\346\211\3345\342\202\353\014\300\301M\367"
 398      D6E689DC 
 398      35E282EB 
 398      0CC0C14D 
 398      F7
 399 0544 DF4BBBC6 		.ascii	"\337K\273\306\244\025D\226\016\364[C\020\361\216\003"
 399      A4154496 
 399      0EF45B43 
 399      10F18E03 
 400 0554 E3B0C82B 		.ascii	"\343\260\310+y,\211f\027\222\260\200\360\250\225\220"
 400      792C8966 
 400      1792B080 
 400      F0A89590 
 401 0564 CCE0D9FC 		.ascii	"\314\340\331\374\247n\373t\232\377\340o\351\345Q?_\317"
 401      A76EFB74 
 401      9AFFE06F 
 401      E9E5513F 
 401      5FCF
 402 0576 7F541E0B 		.ascii	"\177T\036\013d\273\201;8\201\274\371)\311\1774\260}"
 402      64BB813B 
 402      3881BCF9 
 402      29C97F34 
 402      B07D
 403 0588 19831558 		.ascii	"\031\203\025X\300V|\232i\376\323}-6r\263\252B\322<\227"
 403      C0567C9A 
 403      69FED37D 
 403      2D3672B3 
 403      AA42D23C 
 404 059d C7C9C66C 		.ascii	"\307\311\306l/\233l\340l\306t\271\313\007j\275.\006"
 404      2F9B6CE0 
 404      6CC674B9 
 404      CB076ABD 
 404      2E06
ARM GAS  /tmp/ccxmVR4n.s 			page 30


 405 05af E2980F60 		.ascii	"\342\230\017`\265\354\253\323\2466\027N\272\214t\266"
 405      B5ECABD3 
 405      A636174E 
 405      BA8C74B6 
 406 05bf 90556DDD 		.ascii	"\220Um\335\255]\377\272\224\014m\241+\315\266\354\251"
 406      AD5DFFBA 
 406      940C6DA1 
 406      2BCDB6EC 
 406      A9
 407 05d0 77E7A7BC 		.ascii	"w\347\247\274\336\375\303\244\373\335\244\373%l\367"
 407      DEFDC3A4 
 407      FBDDA4FB 
 407      256CF7
 408 05df 8D035B39 		.ascii	"\215\003[9\222\305-q\325{\347g\213\222{w\014\217T{u"
 408      92C52D71 
 408      D57BE767 
 408      8B927B77 
 408      0C8F547B 
 409 05f4 B7BEBA7F 		.ascii	"\267\276\272\177\005\031\342\233\304~\272\222\2647."
 409      0519E29B 
 409      C47EBA92 
 409      B4372E
 410 0603 D7DC17CD 		.ascii	"\327\334\027\315\213L9\310)\203\371A\231o\274q\335\036"
 410      8B4C39C8 
 410      2983F941 
 410      996FBC71 
 410      DD1E
 411 0615 B2C7E0D1 		.ascii	"\262\307\340\321Y\370<c@\253\011\037\372\214\370\203"
 411      59F83C63 
 411      40AB091F 
 411      FA8CF883 
 412 0625 0676D60D 		.ascii	"\006v\326\015\230sZ\031;l\006\3732c0+gG\314`_\273\001"
 412      98735A19 
 412      3B6C06FB 
 412      3263302B 
 412      6747CC60 
 413 063c B34BB528 		.ascii	"\263K\265(\33013\330\267\031\203Y9;a\006\353s\0036\322"
 413      D83133D8 
 413      B7198359 
 413      393B6106 
 413      EB730336 
 414 0651 99B35366 		.ascii	"\231\263Sf\260+\031\203Y9\3533\203\335p\003V`\303\231"
 414      B02B1983 
 414      5939EB33 
 414      83DD7003 
 414      5660C399 
 415 0665 7139650A 		.ascii	"q9e\012\213y\303\314yt\313\010\007\031\2324J`\014d\034"
 415      8B79C3CC 
 415      7974CB08 
 415      07199A34 
 415      4A600C64 
 416 067a BF2CE386 		.ascii	"\277,\343\206\370\265\177\265\236\232k\241}\246\317"
 416      F8B57FB5 
 416      9E9A6BA1 
 416      7DA6CF
 417 0689 05620A83 		.ascii	"\005b\012\203\331h\236'\346e\014fU\313!\014f\2114t\306"
 417      D9689E27 
ARM GAS  /tmp/ccxmVR4n.s 			page 31


 417      E6650C66 
 417      55CB210C 
 417      66893474 
 418 069e 8837C646 		.ascii	"\2107\306F.M\204:\207\004\327h\254\216\034i\337V\344"
 418      2E4D843A 
 418      8704D768 
 418      AC8E1C69 
 418      DF56E4
 419 06b1 3EE6F182 		.ascii	">\346\361\202a\023\3577\270\320\352zm\200\354k.\366"
 419      6113EF37 
 419      B8D0EA7A 
 419      6D80EC6B 
 419      2EF6
 420 06c3 39A6C8A9 		.ascii	"9\246\310\251I\235,\241\305l\011o\272\021S\012W\350"
 420      499D2CA1 
 420      C56C096F 
 420      BA11530A 
 420      57E8
 421 06d5 731253AC 		.ascii	"s\022S\254Z}\235\253\374\360~\203\356i\263M$\202\363"
 421      5A7D9DAB 
 421      FCF07E83 
 421      EE69B34D 
 421      2482F3
 422 06e8 3FAD23C1 		.ascii	"?\255#\301y3\231ZW\372l7\004\\a\035\257?\240\357.\304"
 422      7933995A 
 422      57FA6C37 
 422      045C611D 
 422      AF3FA0EF 
 423 06fe 08D8FAC1 		.ascii	"\010\330\372\301\2035t\365\334\217S\251m\004\250\305"
 423      833574F5 
 423      DC8F53A9 
 423      6D04A8C5 
 424 070e C74E197E 		.ascii	"\307N\031~f\276\367[\347{\277?Q\031\320/\253\026\377"
 424      66BEF75B 
 424      E77BBF3F 
 424      5119D02F 
 424      AB16FF
 425 0721 AE344E9A 		.ascii	"\2564N\232o3k>\226\261\346-\016\022\357;x\312S\257\306"
 425      6F336B3E 
 425      96B1E62D 
 425      0E12EF3B 
 425      78CA53AF 
 426 0736 2A3D2653 		.ascii	"*=&SO\351\0278\223\372\252\233\233NT\264\213Hv\257\275"
 426      4FE91738 
 426      93FAAA9B 
 426      9B4E54B4 
 426      8B4876AF 
 427 074b 8A5C401D 		.ascii	"\212\\@\035\257\377\340\227$u\330K\200\016\015\032\250"
 427      AFFFE097 
 427      2475D84B 
 427      800E0D1A 
 427      A8
 428 075c 6BC53B63 		.ascii	"k\305;c\011\320\247\004\350D\222\256\331\334\216\263"
 428      09D0A704 
 428      E84492AE 
 428      D9DC8EB3 
 429 076c EA80F327 		.ascii	"\352\200\363'*I\372\372\021\333\362\350\034\2530\313"
ARM GAS  /tmp/ccxmVR4n.s 			page 32


 429      2A49FAFA 
 429      11DBF2E8 
 429      1CAB30CB 
 430 077c 7052CC0D 		.ascii	"pR\314\015\306^\310\331:\356r\225\272tL&\032\213\353"
 430      C65EC8D9 
 430      3AEE7295 
 430      BA744C26 
 430      1A8BEB
 431 078f 1A3B48E4 		.ascii	"\032;H\344\323\233$\237\275|f\002\342\321\265\214\007"
 431      D39B249F 
 431      BD7C6602 
 431      E2D1B58C 
 431      07
 432 07a0 E2B30EA4 		.ascii	"\342\263\016\244\356\313A\014\244O\037\310\0212\220"
 432      EECB410C 
 432      A44F1FC8 
 432      113290
 433 07af 1F7E8481 		.ascii	"\037~\204\201T\3733\035H\276i xg\371\372\"m\012\274"
 433      54FB331D 
 433      48BE6920 
 433      7867F9FA 
 433      226D0ABC 
 434 07c3 1BD5A64E 		.ascii	"\033\325\246N\3411?'\371\273\255k\324"
 434      E1313F27 
 434      F9BBAD6B 
 434      D4
 435 07d0 AB07F0CA 		.ascii	"\253\007\360\312\027\277N\227<\253\261\272\317L\353"
 435      17BF4E97 
 435      3CABB1BA 
 435      CF4CEB
 436 07df 1ED5DDBA 		.ascii	"\036\325\335\272g\027]\367\304\211\304\346\371m|\314"
 436      67175DF7 
 436      C489C4E6 
 436      F96D7CCC 
 437 07ef 0D52C3F1 		.ascii	"\015R\303\361\356{q4=C`\352\006\013\023\357\352\371"
 437      EE7B7134 
 437      3D4360EA 
 437      060B13EF 
 437      EAF9
 438 0801 5873D573 		.ascii	"Xs\325s\004\350-?\253\301\034F\2019V\005\302O\334\323"
 438      04E82D3F 
 438      ABC11C46 
 438      81395605 
 438      C24FDCD3 
 439 0815 0D12255F 		.ascii	"\015\022%_\243o\360\017/\372\207\323\361\250\221\260"
 439      A36FF00F 
 439      2FFA87D3 
 439      F1A891B0 
 440 0825 8F959761 		.ascii	"\217\225\227a\016\226X\377-\322\363'MA\353\357\010\261"
 440      0E9658FF 
 440      2DD2F327 
 440      4D41EBEF 
 440      08B1
 441 0837 2AD65EAB 		.ascii	"*\326^\253\257\333\311Vi\313\035\302\221\224\333\222"
 441      AFDBC956 
 441      69CB1DC2 
 441      9194DB92 
ARM GAS  /tmp/ccxmVR4n.s 			page 33


 442 0847 1A300BB7 		.ascii	"\0320\013\267J\207\271\307\330t\336\241O\350}$\245k"
 442      4A87B9C7 
 442      D874DEA1 
 442      4FE87D24 
 442      A56B
 443 0859 4B52B8CA 		.ascii	"KR\270\3123k7\374\302\324\304\311\223.\232'\302\003"
 443      336B37FC 
 443      C2D4C4C9 
 443      932E9A27 
 443      C203
 444 086b 77AA8883 		.ascii	"w\252\210\203'\031Et\335\241\344\226\325\271\333\016"
 444      27194574 
 444      DDA1E496 
 444      D5B9DB0E 
 445 087b 7B59C7CA 		.ascii	"{Y\307\312#\0039I\272\275\301\256\262[\232>\257\246"
 445      23033949 
 445      BABDC1AE 
 445      B25B9A3E 
 445      AFA6
 446 088d 72BCE162 		.ascii	"r\274\341b\235\255\306\216\177\341Wk\363l\372\263K\273"
 446      9DADC68E 
 446      7FE1576B 
 446      F36CFAB3 
 446      4BBB
 447 089f 3A171CD2 		.ascii	":\027\034\322\377\360\326O6\236\346\016\261\337B|\332"
 447      FFF0D64F 
 447      369EE60E 
 447      B1DF427C 
 447      DA
 448 08b0 098847CB 		.ascii	"\011\210G\313\011\311@\322\306\323\301\353Ut\343i\300"
 448      09C940D2 
 448      C6D3C1EB 
 448      5574E369 
 448      C0
 449 08c1 D506C1A5 		.ascii	"\325\006\301\2459\346\215'\221{\235\347)\356\340\364"
 449      39E68D27 
 449      917B9DE7 
 449      29EEE0F4 
 450 08d1 F0DD5E63 		.ascii	"\360\335^cA!r\2633\006+\260cU\267\324\304h\301\021<"
 450      412172B3 
 450      33062BB0 
 450      6355B7D4 
 450      C468C111 
 451 08e6 782150E5 		.ascii	"x!P\345\301\177'\230\3561\375\235\200G\037\014\321u"
 451      C17F2798 
 451      EE31FD9D 
 451      80471F0C 
 451      D175
 452 08f8 6A27BAF4 		.ascii	"j'\272\364\306\331\322ts\211f\234\231\004\376\257h\340"
 452      C6D9D274 
 452      7389669C 
 452      9904FEAF 
 452      68E0
 453 090a AFF690FC 		.ascii	"\257\366\220\374w\010\353wg\330\2512\243\310\327\312"
 453      7708EB77 
 453      67D8A932 
 453      A3C8D7CA 
ARM GAS  /tmp/ccxmVR4n.s 			page 34


 454 091a 8E29EDCA 		.ascii	"\216)\355\312\221\275\234\374\372\272\331\257\267\016"
 454      91BD9CFC 
 454      FABAD9AF 
 454      B70E
 455 0928 B9232FC4 		.ascii	"\271#/\304\177\367}W\023]:?T\215-\345|\322\363.\322"
 455      7FF77D57 
 455      135D3A3F 
 455      548D2DE5 
 455      7CD2F32E 
 456 093d F33C0F63 		.ascii	"\363<\017c\317\0077\356\236E\355\031\177K\357\210W\211"
 456      CF0737EE 
 456      9E45ED19 
 456      7F4BEF88 
 456      5789
 457 094f 23EA8E75 		.ascii	"#\352\216u\331@\035\214)T\305n\352\333\324\332\002\371"
 457      D9401D8C 
 457      2954C56E 
 457      EADBD4DA 
 457      02F9
 458 0961 160BE756 		.ascii	"\026\013\347V\013\024\256\337\3056\265U0\372~\375\027"
 458      0B14AEDF 
 458      C536B555 
 458      30FA7EFD 
 458      17
 459 0972 386B59E2 		.ascii	"8kY\342\301c\232\236\313\232\226&\031\223i%\304(r\013"
 459      C1639A9E 
 459      CB9A9626 
 459      19936925 
 459      C428720B 
 460 0986 88A3D410 		.ascii	"\210\243\324\020G\251%\367Efwq2\213\305\036\223Y\314"
 460      47A925F7 
 460      45667771 
 460      328BC51E 
 460      9359CC
 461 0999 C9CD74DC 		.ascii	"\311\315t\334\005.\255o\256\271\233\332\334;\263\276"
 461      052EAD6F 
 461      AEB99BDA 
 461      DC3BB3BE 
 462 09a9 BE83D7B2 		.ascii	"\276\203\327\262\310\256a&\033\325G\250\337.'~\273,"
 462      C8AE6126 
 462      1BD547A8 
 462      DF2E277E 
 462      BB2C
 463 09bb 49B883DA 		.ascii	"I\270\203\332\250n\034\354H\214\013R\223\\\027\213\315"
 463      A86E1CEC 
 463      488C0B52 
 463      935C178B 
 463      CD
 464 09cc 021BA11B 		.ascii	"\002\033\241\033\311\316\017\213\\nv\033\247\026\366"
 464      C9CE0F8B 
 464      5C6E761B 
 464      A716F6
 465 09db 55D27969 		.ascii	"U\322yi\0251\265\015\271\366\363R\212]\363vB\322\310"
 465      1531B50D 
 465      B9F6F352 
 465      8A5DF376 
 465      42D2C8
ARM GAS  /tmp/ccxmVR4n.s 			page 35


 466 09ee FAF1A5BA 		.ascii	"\372\361\245\272+\372\274\324\350\302\217\253b\007m"
 466      2BFABCD4 
 466      E8C28FAB 
 466      62076D
 467 09fd E7A5C6D4 		.ascii	"\347\245\306\324&\230R\242\026%6\232<\344=\342!\177"
 467      269852A2 
 467      1625369A 
 467      3CE43DE2 
 467      217F
 468 0a0f B14E2207 		.ascii	"\261N\"\007\334H\377\027N\266\250\306\026\037^\316i"
 468      DC48FF17 
 468      4EB6A8C6 
 468      161F5ECE 
 468      69
 469 0a20 FC6B91E8 		.ascii	"\374k\221\350(\213g\027\211,xfmV\3056\034&\363\252f"
 469      288B6717 
 469      892C7866 
 469      6D56C536 
 469      1C26F3AA 
 470 0a35 A567DD30 		.ascii	"\245g\33507\306\031\254}\211.\\\354\177<\272\350\006"
 470      37C619AC 
 470      7D892E5C 
 470      EC7F3CBA 
 470      E806
 471 0a47 6FACD360 		.ascii	"o\254\323`\253b\335\207\227\353x$\231\273\2311\236\225"
 471      AB62DD87 
 471      97EB7824 
 471      99BB9931 
 471      9E95
 472 0a59 BFAB4B2C 		.ascii	"\277\253K,Y\365\214<\027pO\273\326\375\014S\032QM\366"
 472      59F58C3C 
 472      17704FBB 
 472      D6FD0C53 
 472      1A514DF6 
 473 0a6d 1367F138 		.ascii	"\023g\3618.\276A\356s\310\275\206\3347\220{3\271\377"
 473      2EBE41EE 
 473      73C8BD86 
 473      DC37907B 
 473      33B9FF
 474 0a80 1FB9B792 		.ascii	"\037\271\267\222\373Nr\377\214\334\273\311\375\004\271"
 474      FB4E72FF 
 474      8CDCBBC9 
 474      FD04B9
 475 0a8f AF24F175 		.ascii	"\257$\361u\035\271\257'\367\377%\367\015\344\336\354"
 475      1DB9AF27 
 475      F7FF25F7 
 475      0DE4DEEC 
 476 0a9f 26EE32D9 		.ascii	"&\3562\3318\344\206y\231\376i\324\"\313\370G\2757\352"
 476      38E48679 
 476      99FE69D4 
 476      22CBF847 
 476      BD37EA
 477 0ab2 F5545BB3 		.ascii	"\365T[\263\236\245n\020S\314b\265;\300\0243\011\261"
 477      9EA56E10 
 477      53CC62B5 
 477      3BC01433 
 477      09B1
ARM GAS  /tmp/ccxmVR4n.s 			page 36


 478 0ac4 711A6237 		.ascii	"q\032b7\221\356W\345\375(!\266)\343Q\260r92\362\257"
 478      91EE57E5 
 478      FD2821B6 
 478      29E351B0 
 478      723932F2 
 479 0ad9 CDAAFA46 		.ascii	"\315\252\372F\216\316\330&7\210\356\317\271|o:\347\322"
 479      8ECED826 
 479      3788EECF 
 479      B97C6F3A 
 479      E7D2
 480 0aeb 4FCEB9DC 		.ascii	"O\316\271\334&\247Z\006\310\275\205\230\304\307\344"
 480      26A75A06 
 480      C8BD8598 
 480      C4C7E4
 481 0afa DEE6C630 		.ascii	"\336\346\3060\256q\246\231\362\223<\375\000\301\217"
 481      AE71A699 
 481      F2933CFD 
 481      00C18F
 482 0b09 120DBF33 		.ascii	"\022\015\2773\261z\205\260z\325\315\321\233^\307\243"
 482      B17A85B0 
 482      7AD5CDD1 
 482      9B5EC7A3 
 483 0b19 377B181D 		.ascii	"7{\030\035k\347Eb-s6\202_\363\032%\217\216\221V\027"
 483      6BE74562 
 483      2D733682 
 483      5FF31A25 
 483      8F8E9156 
 484 0b2e 1CCF8CF4 		.ascii	"\034\317\214\364:\037\274\271\300\036\274i\367\330\035"
 484      3A1FBCB9 
 484      C01EBC69 
 484      F7D81D
 485 0b3d BCE93F60 		.ascii	"\274\351?`:\277\371\0159\277y\312\2265\365(>\312\322"
 485      3ABFF90D 
 485      39BF79CA 
 485      9635F528 
 485      3ECAD2
 486 0b50 4B8EB26C 		.ascii	"K\216\262l\365\340\251f\233g\020la\"\013[\177\263c+"
 486      F5E0A966 
 486      9B67106C 
 486      61220B5B 
 486      7FB3632B 
 487 0b64 BEF9CBAD 		.ascii	"\276\371\313\255\207\271\205\340\223j\037Xs\276v\370"
 487      87B985E0 
 487      936A1F58 
 487      73BE76F8 
 488 0b74 8B470B86 		.ascii	"\213G\013\206\332\262v\271\350y\032\010\027\223\006"
 488      DAB276B9 
 488      E8791A08 
 488      179306
 489 0b83 3B1D391B 		.ascii	";\0359\033gf\254\325\314\330N\226\261]\266\214\265\317"
 489      6766ACD5 
 489      CCD84E96 
 489      B15DB68C 
 489      B5CF
 490 0b95 3FB983AB 		.ascii	"?\271\203\253\325\031\253\361i\007MyTo\317Y'{\376g\237"
 490      D519ABF1 
 490      69074D79 
ARM GAS  /tmp/ccxmVR4n.s 			page 37


 490      546FCF59 
 490      277BFE67 
 491 0baa 236B290E 		.ascii	"#k)\016Q\355cy\333o\253\313\015\247\354\017Q\245<\354"
 491      51ED6379 
 491      DB6FABCB 
 491      0DA7EC0F 
 491      51A53CEC 
 492 0bbe D3E9B139 		.ascii	"\323\351\2619\334d\374\330\243\005\036\343w\227\306"
 492      DC64FCD8 
 492      A3051EE3 
 492      7797C6
 493 0bcd A4F9B81F 		.ascii	"\244\371\270\037J\262\355U\366\262\330\314\312\242#"
 493      4AB2ED55 
 493      F6B2D8CC 
 493      CAA223
 494 0bdc B52C28D9 		.ascii	"\265,(\331-L\246\235\022}\237\000;\223\021n\251'}\364"
 494      2D4CA69D 
 494      127D9F00 
 494      3B93116E 
 494      A9277DF4 
 495 0bf0 CE7B9A27 		.ascii	"\316{\232'ig\013?LC\332e\352\221X:1\247Mi\250\314\346"
 495      69670B3F 
 495      4C43DA65 
 495      EA91583A 
 495      31A74D69 
 496 0c07 14FBF09D 		.ascii	"\024\373\360\235\373f\277l\350\254\203\325\331a[\235"
 496      FB66BF6C 
 496      E8AC83D5 
 496      D9615B9D 
 497 0c17 BD693EC2 		.ascii	"\275i>\302\216u\301\2436{\361\265\262\342\353q%\276"
 497      8E75C1A3 
 497      367BF1B5 
 497      B2E2EB71 
 497      25BE
 498 0c29 9BBAF844 		.ascii	"\233\272\370D\356\250'5\231Y|o\367\254I\210O\344\216"
 498      EEA82735 
 498      99597C6F 
 498      F7AC4988 
 498      4FE48E
 499 0c3c A721358B 		.ascii	"\247!5\213\257\233\212\017\322\3734T\026\361\275\265"
 499      AF9B8A0F 
 499      D2FB3454 
 499      16F1BDB5 
 500 0c4c C22CBE1E 		.ascii	"\302,\276\036V|\361d\3615\304 N\034\035\271\304\010"
 500      567CF164 
 500      F135C420 
 500      4E1C1DB9 
 500      C408
 501 0c5e 13EEADFE 		.ascii	"\023\356\255\376KOF\247\303\343\306\222\363~dL\333\313"
 501      4B4F46A7 
 501      C3E3C692 
 501      F37E644C 
 501      DBCB
 502 0c70 7A3B9F22 		.ascii	"z;\237\";\307_\223\245\300\027\214\332\322\302`>\276"
 502      3BC75F93 
 502      A5C0178C 
 502      DAD2C260 
ARM GAS  /tmp/ccxmVR4n.s 			page 38


 502      3EBE
 503 0c82 659601B1 		.ascii	"e\226\001\261\223R\201\3666\375B\276\207.\344\265\243"
 503      935281F6 
 503      36FD42BE 
 503      872EE4B5 
 503      A3
 504 0c93 E99749F7 		.ascii	"\351\227I\367\337&\322\177\353\221\264tkC5\326'\341"
 504      DF26D27F 
 504      EB91B474 
 504      6B4335D6 
 504      27E1
 505 0ca5 04483BB1 		.ascii	"\004H;\261w\223\005K;\321\027\230\260\252b\337\021,"
 505      7793054B 
 505      3BD11798 
 505      B0AA62DF 
 505      112C
 506 0cb7 CD6907DC 		.ascii	"\315i\007\334`\331\3751\330\3562K\014\346\031\262.\271"
 506      60D9FD31 
 506      D8EE324B 
 506      0CE619B2 
 506      2EB9
 507 0cc9 4852844B 		.ascii	"HR\204K\344~\331M\242p>\261\244f\003\035\023\311\346"
 507      E47ED94D 
 507      A2703EB1 
 507      A466031D 
 507      13C9E6
 508 0cdc 0CB33D20 		.ascii	"\014\263= \213\255n/dF~\015\013\026\305\244\3359GC'"
 508      8BAD6E2F 
 508      64467E0D 
 508      0B16C5A4 
 508      DD394743 
 509 0cf1 3D9A8F84 		.ascii	"=\232\217\204j\242y;\015\031e\212N\011\363\324\231\371"
 509      6AA2793B 
 509      0D19658A 
 509      4E09F3D4 
 509      99F9
 510 0d03 9CE120E7 		.ascii	"\234\341 \347X\007\271f\347 \261\216\0354\276dp\376"
 510      5807B966 
 510      E720B18E 
 510      1D34BE64 
 510      70FE
 511 0d15 F3363B25 		.ascii	"\3636;%`\366\331\030o+\031\3656\236\211\265\3467\210"
 511      60F6D918 
 511      6F2B19F5 
 511      369E89B5 
 511      E63788
 512 0d28 F3F7A796 		.ascii	"\363\367\247\226\211\303\340\372\331\301\015$\017.^"
 512      89C3E0FA 
 512      D9C10D24 
 512      0F2E5E
 513 0d37 8333F75F 		.ascii	"\2033\367_,mVg\274\241\3760\360\032\347~\200\323\263"
 513      2C6D5667 
 513      BCA1FE30 
 513      F01AE77E 
 513      80D3B3
 514 0d4a 9801F69A 		.ascii	"\230\001\366\232\347<\234\353&\233\302\373\314\200u"
 514      E73C9CEB 
ARM GAS  /tmp/ccxmVR4n.s 			page 39


 514      269BC2FB 
 514      CC8075
 515 0d59 CEAAB3EC 		.ascii	"\316\252\263\3548\3332\377\007~\231\372\011>{\373\032"
 515      38DB32FF 
 515      077E99FA 
 515      093E7BFB 
 515      1A
 516 0d6a D2037BCC 		.ascii	"\322\003{\314\001\342u;\210X\377\336\271*Gt\367\200"
 516      01E2753B 
 516      8858FFDE 
 516      B92A4774 
 516      F780
 517 0d7c 9E64EC75 		.ascii	"\236d\354u\000\230m\005\270\013\325h\233\343K\207i\007"
 517      00986D05 
 517      B80BD568 
 517      9BE34B87 
 517      6907
 518 0d8e 37A81CF2 		.ascii	"7\250\034\362u9\360\224nN\326]\244f\331\305%-\234$7"
 518      7539F094 
 518      6E4ED65D 
 518      A466D9C5 
 518      252D9C24 
 519 0da3 372B7138 		.ascii	"7+q8$\317\237\250p\326\256\013\230\236\307\352\355\274"
 519      24CF9FA8 
 519      70D6AE0B 
 519      989EC7EA 
 519      EDBC
 520 0db5 14675EC6 		.ascii	"\024g^\306=\317w\3509\307$5\310\317.]\353\234\313-l"
 520      3DCF77E8 
 520      39C72435 
 520      C8CF2E5D 
 520      EB9CCB2D 
 521 0dca AA56B1E4 		.ascii	"\252V\261\344^[\021\253\311ro\0265\254Y\354'\323\246"
 521      5E5B11AB 
 521      C9726F16 
 521      35AC59EC 
 521      27D3A6
 522 0ddd C50C660D 		.ascii	"\305\014f\0157\253\200\264\204\254s8\035\277\236\365"
 522      37AB80B4 
 522      84AC7338 
 522      1DBF9EF5 
 523 0ded 81D371FA 		.ascii	"\201\323q\372\377\243\254&\024\013\262\234\374`\277"
 523      FFA3AC26 
 523      140BB29C 
 523      FC60BF
 524 0dfc C5C92F57 		.ascii	"\305\311/W\232\362>LdQt\255U\321\314\237\276V\245\370"
 524      9AF23E4C 
 524      645174AD 
 524      55D1CC9F 
 524      BE56A5F8 
 525 0e10 0789A559 		.ascii	"\007\211\245YF\314{\010\255T;:\342\335;/>QY\023\253"
 525      46CC7B08 
 525      AD543B3A 
 525      E2DD3B2F 
 525      3E515913 
 526 0e25 6C50FB07 		.ascii	"lP\373\007\0068\316\254\271\215\011\315\275\254\003"
 526      0638CEAC 
ARM GAS  /tmp/ccxmVR4n.s 			page 40


 526      B98D09CD 
 526      BDAC03
 527 0e34 E5A5D22F 		.ascii	"\345\245\322/\323J\344\336\312X\277\313\035\364k\376"
 527      D34AE4DE 
 527      CA58BFCB 
 527      1DF46BFE 
 528 0e44 5B5CA215 		.ascii	"[\\\242\025\310u-\221ksbm\3040\301\243f\252\026\221"
 528      C8752D91 
 528      6B73626D 
 528      C430C1A3 
 528      66AA1691 
 529 0e58 1B029502 		.ascii	"\033\002\225\002\264\002\357\263\265\317\277}\257:\303"
 529      B402EFB3 
 529      B5CFBF7D 
 529      AF3AC3
 530 0e67 67C8F8B4 		.ascii	"g\310\370\264y\235\304\010\024\307\011'~\033\022\002"
 530      799DC408 
 530      14C70927 
 530      7E1B1202 
 531 0e77 65A8BE49 		.ascii	"e\250\276I\241\206\225\216T8D8Q\255r\244:\223\242\257"
 531      A186958E 
 531      54384438 
 531      51AD72A4 
 531      3A93A2AF 
 532 0e8b D58E546D 		.ascii	"\325\216Tm)\250\336MP\241_\216\036]8\27688)\370\207"
 532      29A8DE4D 
 532      50A15F8E 
 532      1E5D38BE 
 532      383829F8 
 533 0ea0 8985E168 		.ascii	"\211\205\341h\241\254\024F\302\262\022-|\346\305\027"
 533      A1AC1446 
 533      C2B2122D 
 533      7CE6C517 
 534 0eb0 C6BF30B5 		.ascii	"\306\2770\2650P\034\010\313\222P\376Tht1\362\343OBI"
 534      30501C08 
 534      CB9250FE 
 534      54687431 
 534      F2E34F42 
 535 0ec5 38F04ACE 		.ascii	"8\360J\316\357\377\363\245\202\361(\227\274(+\305\257"
 535      EFFFF3A5 
 535      82F12897 
 535      BC282BC5 
 535      AF
 536 0ed6 46181F85 		.ascii	"F\030\037\205\311r8$\004\243\362=\246\317\306\313\007"
 536      C9723824 
 536      04A3F23D 
 536      A6CFC6CB 
 536      07
 537 0ee7 933A0C96 		.ascii	"\223:\014\226\006J\312\212$\350+:-\212\273\011\024O"
 537      064ACA8A 
 537      24E82B3A 
 537      2D8ABB09 
 537      144F
 538 0ef9 9C16FD0F 		.ascii	"\234\026\375\017 \312%\265\227\010@\276\361\3669@\232"
 538      20CA25B5 
 538      970840BE 
 538      F1F63940 
ARM GAS  /tmp/ccxmVR4n.s 			page 41


 538      9A
 539 0f0a 30F1C511 		.ascii	"0\361\305\021\246\217\364UA\012\354r\005\240\177\226"
 539      A68FF455 
 539      410AEC72 
 539      05A07F96 
 540 0f1a BA73655A 		.ascii	"\272seZD\302\034\014/\017\312J\231X\"(\301\220$\013"
 540      44C21C0C 
 540      2F0FCA4A 
 540      99582228 
 540      C190240B 
 541 0f2e 0AF42D58 		.ascii	"\012\364-X^=\224\012'P\\\004\030\336rE(\225\246*\370"
 541      5E3D940A 
 541      27505C04 
 541      18DE7245 
 541      2895A62A 
 542 0f43 1991A572 		.ascii	"\031\221\245r?\306\007Z\001\204[:\231\224'\012\213\303"
 542      3FC6075A 
 542      01845B3A 
 542      9994270A 
 542      8BC3
 543 0f55 21A95096 		.ascii	"!\251P\226\242\222(\007\212\013\213E\271\250B\224\245"
 543      A2922807 
 543      8A0B8B45 
 543      B9A84294 
 543      A5
 544 0f66 42510E3D 		.ascii	"BQ\016=V8%\020\030\005\225QRh\222TT$\025\031/J\303\245"
 544      56382510 
 544      18059551 
 544      52689254 
 544      54241519 
 545 0f7e D228499C 		.ascii	"\322(I\234\024\034\365\2700v\324cc\036}\374\325\307"
 545      141CF5B8 
 545      3076D463 
 545      631E7DFC 
 545      D5C7
 546 0f90 0A2D1F0C 		.ascii	"\012-\037\014n\242JQ\260\024\017\334W\006\317_"
 546      6EA24A51 
 546      B0140FDC 
 546      5706CF5F 
 547 0fa0 3D2628D3 		.ascii	"=&(\323\271\177\\\357!1P\034,\225\012\205\"i\262XV\242"
 547      B97F5CEF 
 547      2131501C 
 547      2C950A85 
 547      2269B258 
 548 0fb6 08BA7C87 		.ascii	"\010\272|\207\010\202\316\217\017\304S$\225(\"T&\227"
 548      0882CE8F 
 548      0FC45324 
 548      95282254 
 548      2697
 549 0fc8 95060422 		.ascii	"\225\006\004\"0\\\313\301\202\023\345a\201\342\377\372"
 549      305CCBC1 
 549      8213E561 
 549      81E2FFFA 
 550 0fd8 D31F26FD 		.ascii	"\323\037&\375Y\012(\023J\203\212\247\\\211d\013\317"
 550      590A2813 
 550      4A838AA7 
 550      5C89640B 
ARM GAS  /tmp/ccxmVR4n.s 			page 42


 550      CF
 551 0fe9 86C32579 		.ascii	"\206\303%y\370\303\204\3503rH*\232\360p\012\205H\345"
 551      F8C384E8 
 551      3372482A 
 551      9AF0700A 
 551      8548E5
 552 0ffc 52A982BB 		.ascii	"R\251\202\273"
 553 1000 1D466A42 		.ascii	"\035FjB4\\&\007@\017y\346\237\371\332\217\222`T\221"
 553      345C2607 
 553      400F79E6 
 553      9FF9DA8F 
 553      92605491 
 554 1014 4AB1CE87 		.ascii	"J\261\316\207Y_x\245\022\242N\237R,Kb\221\240\200\225"
 554      595F78A5 
 554      12A24E9F 
 554      522C4B62 
 554      91A08095 
 555 1028 0A5A3D27 		.ascii	"\012Z='B\276\300\003\353\371\3114\016\025\016E\202%"
 555      42BEC003 
 555      EBF9C934 
 555      0E150E45 
 555      8225
 556 103a 921C2DFC 		.ascii	"\222\034-\374\375\370\361\300\234.\022\257\022\221\203"
 556      FDF8F1C0 
 556      9C2E12AF 
 556      129183
 557 1049 61414309 		.ascii	"aAC\011\206\275\201p\251\002\240?w\343\236@\256y\"\310"
 557      86BD8170 
 557      A902A03F 
 557      77E39E40 
 557      AE7922C8 
 558 105d 34A04CF5 		.ascii	"4\240L\365\311\322\024P\210\240\360\362\343\274\374"
 558      C9D21450 
 558      88A0F0F2 
 558      E3BCFC
 559 106c 042F3FC9 		.ascii	"\004/?\311\313O\361\362X^\376\265G~t\014\224G\371\022"
 559      CB4FF1F2 
 559      585EFEB5 
 559      477E740C 
 559      9447F912 
 560 1080 191EBFCA 		.ascii	"\031\036\277\312\216\010\320\336\213\371\257\200!F\204"
 560      8E08D0DE 
 560      8BF9AF80 
 560      214684
 561 108f 70499124 		.ascii	"pI\221$g\005\300\024\360\240\304\2204$\252\274\"\226"
 561      6705C014 
 561      F0A0C490 
 561      3424AABC 
 561      2296
 562 10a1 04A79482 		.ascii	"\004\247\224\202\246\260\312\236|\\P\250\366H5\"@\203"
 562      A6B0CA9E 
 562      7C5C50A8 
 562      F6483522 
 562      4083
 563 10b3 92602808 		.ascii	"\222`(\010\202\211*\242\002b\365\342\217cA@Z3\250yq"
 563      82892AA2 
 563      0262F5E2 
ARM GAS  /tmp/ccxmVR4n.s 			page 43


 563      8F634140 
 563      5A33A879 
 564 10c8 2BF8E655 		.ascii	"+\370\346UB\341\"\211\374\236\\\"N\211z\025Y\232\034"
 564      42E12289 
 564      FC9E5C22 
 564      4E897A15 
 564      599A1C
 565 10db 2563C695 		.ascii	"%c\306\225\354Pt\012|\244\206\001\344\264\226#\027M"
 565      EC50740A 
 565      7CA48601 
 565      E4B49623 
 565      174D
 566 10ed 834F3E69 		.ascii	"\203O>ijP\011\000@N\205\022\236\364\347\310\010\252"
 566      6A500900 
 566      404E8512 
 566      9EF4E7C8 
 566      08AA
 567 10ff 09209564 		.ascii	"\011 \225d\251\024k4\273BQ\344\2107\012\212\003\002"
 567      A9146B34 
 567      BB4251E4 
 567      88370A8A 
 567      0302
 568 1111 3010212A 		.ascii	"0\020!*\205\304H1\310(e\330\221pt\033\256\341E\205W"
 568      85C44831 
 568      C82865D8 
 568      9170741B 
 568      AEE14585 
 569 1126 CBA43249 		.ascii	"\313\2442Isz\313+/}f\007\300.\224\354\250\000O\340\005"
 569      737ACB2B 
 569      2F7D6607 
 569      C02E94EC 
 569      A8004FE0 
 570 113b A8233E68 		.ascii	"\250#>h\033*\003\205\245\352&\244L\305\212\016Q\264"
 570      1B2A0385 
 570      A5EA26A4 
 570      4CC58A0E 
 570      51B4
 571 114d 9010AEC0 		.ascii	"\220\020\256\300\206E\350`\224!\315\212*\024h\027\311"
 571      8645E860 
 571      9421CD8A 
 571      2A146817 
 571      C9
 572 115e 25D61712 		.ascii	"%\326\027\022\243\257\300\027\251\002W<\021\241l\230"
 572      A3AFC017 
 572      A902573C 
 572      11A16C98 
 573 116e CE10364B 		.ascii	"\316\0206KA\031nb\021\277\361G\204\0121\250\004K\247"
 573      41196E62 
 573      11BFF147 
 573      840A31A8 
 573      044BA7
 574 1181 80624002 		.ascii	"\200b@\002\244#\250J\021\251\024\002\301\024\370\016"
 574      A423A84A 
 574      11A91402 
 574      C114F80E 
 575 1191 E0B8E510 		.ascii	"\340\270\345\020,r\261\204\230\032\274\214\200?\345"
 575      2C72B184 
ARM GAS  /tmp/ccxmVR4n.s 			page 44


 575      981ABC8C 
 575      803FE5
 576 11a0 8285EBD6 		.ascii	"\202\205\353\326\356\207\272\3466\232\223\020u\201\011"
 576      EE87BAE6 
 576      369A9310 
 576      758109
 577 11af C06B52C5 		.ascii	"\300kR\305\337+4\035JQ\3027\260\362\273r\305\344\247"
 577      DF2B341D 
 577      4A51C237 
 577      B0F2BB72 
 577      C5E4A7
 578 11c2 5234A2BD 		.ascii	"R4\242\275{V\016\213E\0011\252L`\302s\271\010\275\227"
 578      7B560E8B 
 578      450131AA 
 578      4C60C273 
 578      B908BD97 
 579 11d6 450BA572 		.ascii	"E\013\245r\022SG\007P\266\022\222\003\223\270\310\020"
 579      12534707 
 579      50B61292 
 579      0393B8C8 
 579      10
 580 11e7 ECDA2F42 		.ascii	"\354\332/B`R&\370pu\"T\262!J\210\323r\264(\341\201\300"
 580      605226F8 
 580      70752254 
 580      B2214A88 
 580      D372B428 
 581 11fe E0A55FD2 		.ascii	"\340\245_\322\240\026\243\241\232'\323X\236-)B9\271"
 581      A016A3A1 
 581      9A27D358 
 581      9E2D2942 
 581      39B9
 582 1210 4BD15C89 		.ascii	"K\321\\\211\370\214$\227\213%\320\312\302\276\022\311"
 582      F88C2497 
 582      8B25D0CA 
 582      C2BE12C9 
 583 1220 C2143E78 		.ascii	"\302\024>x=Q\021e\345\036\353`\236\303\203\237@\030"
 583      3D511165 
 583      E51EEB60 
 583      9EC3839F 
 583      4018
 584 1232 FD6D18F3 		.ascii	"\375m\030\363\227\247U5\256G[y\002\371\024\216\177a"
 584      97A75535 
 584      AE475B79 
 584      02F9148E 
 584      7F61
 585 1244 E2848909 		.ascii	"\342\204\211\011k\300\263j \364\034\214\005s(\200\241"
 585      6BC0B36A 
 585      20F41C8C 
 585      05732880 
 585      A1
 586 1255 2AC2B3CF 		.ascii	"*\302\263\317L\374\335\037_\2340T,\251\020\247E\201"
 586      4CFCDD1F 
 586      5F9C3054 
 586      2CA910A7 
 586      4581
 587 1267 B312889E 		.ascii	"\263\022\210\236\331\300[\231\344\023HL\024\204\241"
 587      D9C05B99 
ARM GAS  /tmp/ccxmVR4n.s 			page 45


 587      E413484C 
 587      1484A1
 588 1276 7A65F413 		.ascii	"ze\364\023O\215y\364\377\001{_@0"
 588      4F8D79F4 
 588      FF017B5F 
 588      4030
 589              		.text
 590              		.section	.gnu.lto_.symtab.8495e967e942a9d5,"",%progbits
 591 0000 6576744F 		.ascii	"evtObjectInit\000\000\000\000\000\000\000\000\000\000"
 591      626A6563 
 591      74496E69 
 591      74000000 
 591      00000000 
 592 0017 0000E601 		.ascii	"\000\000\346\001\000\000evtStart\000\000\000\000\000"
 592      00006576 
 592      74537461 
 592      72740000 
 592      000000
 593 002a 00000000 		.ascii	"\000\000\000\000\000\000\000\374\001\000\000chEvtBr"
 593      000000FC 
 593      01000063 
 593      68457674 
 593      4272
 594 003c 6F616463 		.ascii	"oadcastFlagsI\000\000\002\000\000\000\000\000\000\000"
 594      61737446 
 594      6C616773 
 594      49000002 
 594      00000000 
 595 0053 00000202 		.ascii	"\000\000\002\002\000\000chVTDoSetI\000\000\002\000\000"
 595      00006368 
 595      5654446F 
 595      53657449 
 595      00000200 
 596 0068 00000000 		.ascii	"\000\000\000\000\000\000\000\007\002\000\000chVTDoR"
 596      00000007 
 596      02000063 
 596      68565444 
 596      6F52
 597 007a 65736574 		.ascii	"esetI\000\000\002\000\000\000\000\000\000\000\000\000"
 597      49000002 
 597      00000000 
 597      00000000 
 597      00
 598 008b 09020000 		.ascii	"\011\002\000\000"
 599              		.text
 600              		.section	.gnu.lto_.opts,"",%progbits
 601 0000 272D6D63 		.ascii	"'-mcpu=cortex-m4' '-mno-thumb-interwork' '-mthumb' "
 601      70753D63 
 601      6F727465 
 601      782D6D34 
 601      2720272D 
 602 0033 272D6767 		.ascii	"'-ggdb' '-O0' '-fomit-frame-pointer' '-falign-funct"
 602      64622720 
 602      272D4F30 
 602      2720272D 
 602      666F6D69 
 603 0066 696F6E73 		.ascii	"ions=16' '-ffunction-sections' '-fdata-sections' '-"
ARM GAS  /tmp/ccxmVR4n.s 			page 46


 603      3D313627 
 603      20272D66 
 603      66756E63 
 603      74696F6E 
 604 0099 666E6F2D 		.ascii	"fno-common' '-flto'\000"
 604      636F6D6D 
 604      6F6E2720 
 604      272D666C 
 604      746F2700 
 605              		.text
 606              		.cfi_sections	.debug_frame
 607              		.section	.text.port_lock,"ax",%progbits
 608              		.align	2
 609              		.p2align 4,,15
 610              		.thumb
 611              		.thumb_func
 612              		.type	port_lock, %function
 613              	port_lock:
 614              	.LFB127:
 615              		.file 1 "../ChibiOS/os/rt/ports/ARMCMx/chcore_v7m.h"
 616              		.loc 1 456 0
 617              		.cfi_startproc
 618              		@ args = 0, pretend = 0, frame = 8
 619              		@ frame_needed = 0, uses_anonymous_args = 0
 620              		@ link register save eliminated.
 621 0000 82B0     		sub	sp, sp, #8
 622              		.cfi_def_cfa_offset 8
 623 0002 2023     		movs	r3, #32
 624 0004 0193     		str	r3, [sp, #4]
 625              	.LBB6:
 626              	.LBB7:
 627              		.file 2 "../ChibiOS/os/ext/CMSIS/include/core_cmFunc.h"
 628              		.loc 2 548 0
 629 0006 019B     		ldr	r3, [sp, #4]
 630              	@ 548 "../ChibiOS/os/ext/CMSIS/include/core_cmFunc.h" 1
 631 0008 83F31188 		MSR basepri, r3
 632              	@ 0 "" 2
 633              		.thumb
 634              	.LBE7:
 635              	.LBE6:
 636              		.loc 1 473 0
 637 000c 02B0     		add	sp, sp, #8
 638              		@ sp needed
 639 000e 7047     		bx	lr
 640              		.cfi_endproc
 641              	.LFE127:
 642              		.size	port_lock, .-port_lock
 643              		.section	.text.port_unlock,"ax",%progbits
 644              		.align	2
 645              		.p2align 4,,15
 646              		.thumb
 647              		.thumb_func
 648              		.type	port_unlock, %function
 649              	port_unlock:
 650              	.LFB128:
 651              		.loc 1 480 0
 652              		.cfi_startproc
ARM GAS  /tmp/ccxmVR4n.s 			page 47


 653              		@ args = 0, pretend = 0, frame = 8
 654              		@ frame_needed = 0, uses_anonymous_args = 0
 655              		@ link register save eliminated.
 656 0000 82B0     		sub	sp, sp, #8
 657              		.cfi_def_cfa_offset 8
 658 0002 0023     		movs	r3, #0
 659 0004 0193     		str	r3, [sp, #4]
 660              	.LBB8:
 661              	.LBB9:
 662              		.loc 2 548 0
 663 0006 019B     		ldr	r3, [sp, #4]
 664              	@ 548 "../ChibiOS/os/ext/CMSIS/include/core_cmFunc.h" 1
 665 0008 83F31188 		MSR basepri, r3
 666              	@ 0 "" 2
 667              		.thumb
 668              	.LBE9:
 669              	.LBE8:
 670              		.loc 1 487 0
 671 000c 02B0     		add	sp, sp, #8
 672              		@ sp needed
 673 000e 7047     		bx	lr
 674              		.cfi_endproc
 675              	.LFE128:
 676              		.size	port_unlock, .-port_unlock
 677              		.section	.text.port_lock_from_isr,"ax",%progbits
 678              		.align	2
 679              		.p2align 4,,15
 680              		.thumb
 681              		.thumb_func
 682              		.type	port_lock_from_isr, %function
 683              	port_lock_from_isr:
 684              	.LFB129:
 685              		.loc 1 495 0
 686              		.cfi_startproc
 687              		@ args = 0, pretend = 0, frame = 0
 688              		@ frame_needed = 0, uses_anonymous_args = 0
 689 0000 08B5     		push	{r3, lr}
 690              		.cfi_def_cfa_offset 8
 691              		.cfi_offset 3, -8
 692              		.cfi_offset 14, -4
 693              		.loc 1 497 0
 694 0002 FFF7FEFF 		bl	port_lock
 695              		.loc 1 498 0
 696 0006 08BD     		pop	{r3, pc}
 697              		.cfi_endproc
 698              	.LFE129:
 699              		.size	port_lock_from_isr, .-port_lock_from_isr
 700 0008 AFF30080 		.section	.text.port_unlock_from_isr,"ax",%progbits
 700      AFF30080 
 701              		.align	2
 702              		.p2align 4,,15
 703              		.thumb
 704              		.thumb_func
 705              		.type	port_unlock_from_isr, %function
 706              	port_unlock_from_isr:
 707              	.LFB130:
 708              		.loc 1 506 0
ARM GAS  /tmp/ccxmVR4n.s 			page 48


 709              		.cfi_startproc
 710              		@ args = 0, pretend = 0, frame = 0
 711              		@ frame_needed = 0, uses_anonymous_args = 0
 712 0000 08B5     		push	{r3, lr}
 713              		.cfi_def_cfa_offset 8
 714              		.cfi_offset 3, -8
 715              		.cfi_offset 14, -4
 716              		.loc 1 508 0
 717 0002 FFF7FEFF 		bl	port_unlock
 718              		.loc 1 509 0
 719 0006 08BD     		pop	{r3, pc}
 720              		.cfi_endproc
 721              	.LFE130:
 722              		.size	port_unlock_from_isr, .-port_unlock_from_isr
 723 0008 AFF30080 		.section	.text.chSysLock,"ax",%progbits
 723      AFF30080 
 724              		.align	2
 725              		.p2align 4,,15
 726              		.thumb
 727              		.thumb_func
 728              		.type	chSysLock, %function
 729              	chSysLock:
 730              	.LFB167:
 731              		.file 3 "../ChibiOS/os/rt/include/chsys.h"
 732              		.loc 3 346 0
 733              		.cfi_startproc
 734              		@ args = 0, pretend = 0, frame = 0
 735              		@ frame_needed = 0, uses_anonymous_args = 0
 736 0000 08B5     		push	{r3, lr}
 737              		.cfi_def_cfa_offset 8
 738              		.cfi_offset 3, -8
 739              		.cfi_offset 14, -4
 740              		.loc 3 348 0
 741 0002 FFF7FEFF 		bl	port_lock
 742              		.loc 3 351 0
 743 0006 08BD     		pop	{r3, pc}
 744              		.cfi_endproc
 745              	.LFE167:
 746              		.size	chSysLock, .-chSysLock
 747              		.section	.text.chSysUnlock,"ax",%progbits
 748              		.align	2
 749              		.p2align 4,,15
 750              		.thumb
 751              		.thumb_func
 752              		.type	chSysUnlock, %function
 753              	chSysUnlock:
 754              	.LFB168:
 755              		.loc 3 358 0
 756              		.cfi_startproc
 757              		@ args = 0, pretend = 0, frame = 0
 758              		@ frame_needed = 0, uses_anonymous_args = 0
 759 0000 08B5     		push	{r3, lr}
 760              		.cfi_def_cfa_offset 8
 761              		.cfi_offset 3, -8
 762              		.cfi_offset 14, -4
 763              		.loc 3 371 0
 764 0002 FFF7FEFF 		bl	port_unlock
ARM GAS  /tmp/ccxmVR4n.s 			page 49


 765              		.loc 3 372 0
 766 0006 08BD     		pop	{r3, pc}
 767              		.cfi_endproc
 768              	.LFE168:
 769              		.size	chSysUnlock, .-chSysUnlock
 770 0008 AFF30080 		.section	.text.chSysLockFromISR,"ax",%progbits
 770      AFF30080 
 771              		.align	2
 772              		.p2align 4,,15
 773              		.thumb
 774              		.thumb_func
 775              		.type	chSysLockFromISR, %function
 776              	chSysLockFromISR:
 777              	.LFB169:
 778              		.loc 3 386 0
 779              		.cfi_startproc
 780              		@ args = 0, pretend = 0, frame = 0
 781              		@ frame_needed = 0, uses_anonymous_args = 0
 782 0000 08B5     		push	{r3, lr}
 783              		.cfi_def_cfa_offset 8
 784              		.cfi_offset 3, -8
 785              		.cfi_offset 14, -4
 786              		.loc 3 388 0
 787 0002 FFF7FEFF 		bl	port_lock_from_isr
 788              		.loc 3 391 0
 789 0006 08BD     		pop	{r3, pc}
 790              		.cfi_endproc
 791              	.LFE169:
 792              		.size	chSysLockFromISR, .-chSysLockFromISR
 793 0008 AFF30080 		.section	.text.chSysUnlockFromISR,"ax",%progbits
 793      AFF30080 
 794              		.align	2
 795              		.p2align 4,,15
 796              		.thumb
 797              		.thumb_func
 798              		.type	chSysUnlockFromISR, %function
 799              	chSysUnlockFromISR:
 800              	.LFB170:
 801              		.loc 3 406 0
 802              		.cfi_startproc
 803              		@ args = 0, pretend = 0, frame = 0
 804              		@ frame_needed = 0, uses_anonymous_args = 0
 805 0000 08B5     		push	{r3, lr}
 806              		.cfi_def_cfa_offset 8
 807              		.cfi_offset 3, -8
 808              		.cfi_offset 14, -4
 809              		.loc 3 410 0
 810 0002 FFF7FEFF 		bl	port_unlock_from_isr
 811              		.loc 3 411 0
 812 0006 08BD     		pop	{r3, pc}
 813              		.cfi_endproc
 814              	.LFE170:
 815              		.size	chSysUnlockFromISR, .-chSysUnlockFromISR
 816 0008 AFF30080 		.section	.text.chVTObjectInit,"ax",%progbits
 816      AFF30080 
 817              		.align	2
 818              		.p2align 4,,15
ARM GAS  /tmp/ccxmVR4n.s 			page 50


 819              		.thumb
 820              		.thumb_func
 821              		.type	chVTObjectInit, %function
 822              	chVTObjectInit:
 823              	.LFB174:
 824              		.file 4 "../ChibiOS/os/rt/include/chvt.h"
 825              		.loc 4 210 0
 826              		.cfi_startproc
 827              		@ args = 0, pretend = 0, frame = 8
 828              		@ frame_needed = 0, uses_anonymous_args = 0
 829              		@ link register save eliminated.
 830 0000 82B0     		sub	sp, sp, #8
 831              		.cfi_def_cfa_offset 8
 832 0002 0190     		str	r0, [sp, #4]
 833              		.loc 4 212 0
 834 0004 019B     		ldr	r3, [sp, #4]
 835 0006 0022     		movs	r2, #0
 836 0008 DA60     		str	r2, [r3, #12]
 837              		.loc 4 213 0
 838 000a 02B0     		add	sp, sp, #8
 839              		@ sp needed
 840 000c 7047     		bx	lr
 841              		.cfi_endproc
 842              	.LFE174:
 843              		.size	chVTObjectInit, .-chVTObjectInit
 844 000e 00BF     		.section	.text.chVTIsArmedI,"ax",%progbits
 845              		.align	2
 846              		.p2align 4,,15
 847              		.thumb
 848              		.thumb_func
 849              		.type	chVTIsArmedI, %function
 850              	chVTIsArmedI:
 851              	.LFB182:
 852              		.loc 4 373 0
 853              		.cfi_startproc
 854              		@ args = 0, pretend = 0, frame = 8
 855              		@ frame_needed = 0, uses_anonymous_args = 0
 856              		@ link register save eliminated.
 857 0000 82B0     		sub	sp, sp, #8
 858              		.cfi_def_cfa_offset 8
 859 0002 0190     		str	r0, [sp, #4]
 860              		.loc 4 377 0
 861 0004 019B     		ldr	r3, [sp, #4]
 862 0006 DB68     		ldr	r3, [r3, #12]
 863 0008 002B     		cmp	r3, #0
 864 000a 0CBF     		ite	eq
 865 000c 0023     		moveq	r3, #0
 866 000e 0123     		movne	r3, #1
 867 0010 DBB2     		uxtb	r3, r3
 868              		.loc 4 378 0
 869 0012 1846     		mov	r0, r3
 870 0014 02B0     		add	sp, sp, #8
 871              		@ sp needed
 872 0016 7047     		bx	lr
 873              		.cfi_endproc
 874              	.LFE182:
 875              		.size	chVTIsArmedI, .-chVTIsArmedI
ARM GAS  /tmp/ccxmVR4n.s 			page 51


 876 0018 AFF30080 		.section	.text.chVTResetI,"ax",%progbits
 876      AFF30080 
 877              		.align	2
 878              		.p2align 4,,15
 879              		.thumb
 880              		.thumb_func
 881              		.type	chVTResetI, %function
 882              	chVTResetI:
 883              	.LFB184:
 884              		.loc 4 410 0
 885              		.cfi_startproc
 886              		@ args = 0, pretend = 0, frame = 8
 887              		@ frame_needed = 0, uses_anonymous_args = 0
 888 0000 00B5     		push	{lr}
 889              		.cfi_def_cfa_offset 4
 890              		.cfi_offset 14, -4
 891 0002 83B0     		sub	sp, sp, #12
 892              		.cfi_def_cfa_offset 16
 893 0004 0190     		str	r0, [sp, #4]
 894              		.loc 4 412 0
 895 0006 0198     		ldr	r0, [sp, #4]
 896 0008 FFF7FEFF 		bl	chVTIsArmedI
 897 000c 0346     		mov	r3, r0
 898 000e 002B     		cmp	r3, #0
 899 0010 02D0     		beq	.L12
 900              		.loc 4 413 0
 901 0012 0198     		ldr	r0, [sp, #4]
 902 0014 FFF7FEFF 		bl	chVTDoResetI
 903              	.L12:
 904              		.loc 4 415 0
 905 0018 03B0     		add	sp, sp, #12
 906              		@ sp needed
 907 001a 5DF804FB 		ldr	pc, [sp], #4
 908              		.cfi_endproc
 909              	.LFE184:
 910              		.size	chVTResetI, .-chVTResetI
 911 001e 00BF     		.section	.text.chVTSetI,"ax",%progbits
 912              		.align	2
 913              		.p2align 4,,15
 914              		.thumb
 915              		.thumb_func
 916              		.type	chVTSetI, %function
 917              	chVTSetI:
 918              	.LFB186:
 919              		.loc 4 457 0
 920              		.cfi_startproc
 921              		@ args = 0, pretend = 0, frame = 16
 922              		@ frame_needed = 0, uses_anonymous_args = 0
 923 0000 00B5     		push	{lr}
 924              		.cfi_def_cfa_offset 4
 925              		.cfi_offset 14, -4
 926 0002 85B0     		sub	sp, sp, #20
 927              		.cfi_def_cfa_offset 24
 928 0004 0390     		str	r0, [sp, #12]
 929 0006 0291     		str	r1, [sp, #8]
 930 0008 0192     		str	r2, [sp, #4]
 931 000a 0093     		str	r3, [sp]
ARM GAS  /tmp/ccxmVR4n.s 			page 52


 932              		.loc 4 459 0
 933 000c 0398     		ldr	r0, [sp, #12]
 934 000e FFF7FEFF 		bl	chVTResetI
 935              		.loc 4 460 0
 936 0012 0398     		ldr	r0, [sp, #12]
 937 0014 0299     		ldr	r1, [sp, #8]
 938 0016 019A     		ldr	r2, [sp, #4]
 939 0018 009B     		ldr	r3, [sp]
 940 001a FFF7FEFF 		bl	chVTDoSetI
 941              		.loc 4 461 0
 942 001e 05B0     		add	sp, sp, #20
 943              		@ sp needed
 944 0020 5DF804FB 		ldr	pc, [sp], #4
 945              		.cfi_endproc
 946              	.LFE186:
 947              		.size	chVTSetI, .-chVTSetI
 948 0024 AFF30080 		.section	.text.chVTSet,"ax",%progbits
 948      AFF30080 
 948      AFF30080 
 949              		.align	2
 950              		.p2align 4,,15
 951              		.thumb
 952              		.thumb_func
 953              		.type	chVTSet, %function
 954              	chVTSet:
 955              	.LFB187:
 956              		.loc 4 486 0
 957              		.cfi_startproc
 958              		@ args = 0, pretend = 0, frame = 16
 959              		@ frame_needed = 0, uses_anonymous_args = 0
 960 0000 00B5     		push	{lr}
 961              		.cfi_def_cfa_offset 4
 962              		.cfi_offset 14, -4
 963 0002 85B0     		sub	sp, sp, #20
 964              		.cfi_def_cfa_offset 24
 965 0004 0390     		str	r0, [sp, #12]
 966 0006 0291     		str	r1, [sp, #8]
 967 0008 0192     		str	r2, [sp, #4]
 968 000a 0093     		str	r3, [sp]
 969              		.loc 4 488 0
 970 000c FFF7FEFF 		bl	chSysLock
 971              		.loc 4 489 0
 972 0010 0398     		ldr	r0, [sp, #12]
 973 0012 0299     		ldr	r1, [sp, #8]
 974 0014 019A     		ldr	r2, [sp, #4]
 975 0016 009B     		ldr	r3, [sp]
 976 0018 FFF7FEFF 		bl	chVTSetI
 977              		.loc 4 490 0
 978 001c FFF7FEFF 		bl	chSysUnlock
 979              		.loc 4 491 0
 980 0020 05B0     		add	sp, sp, #20
 981              		@ sp needed
 982 0022 5DF804FB 		ldr	pc, [sp], #4
 983              		.cfi_endproc
 984              	.LFE187:
 985              		.size	chVTSet, .-chVTSet
 986 0026 00BFAFF3 		.section	.text.chEvtObjectInit,"ax",%progbits
ARM GAS  /tmp/ccxmVR4n.s 			page 53


 986      0080AFF3 
 986      0080
 987              		.align	2
 988              		.p2align 4,,15
 989              		.thumb
 990              		.thumb_func
 991              		.type	chEvtObjectInit, %function
 992              	chEvtObjectInit:
 993              	.LFB216:
 994              		.file 5 "../ChibiOS/os/rt/include/chevents.h"
 995              		.loc 5 170 0
 996              		.cfi_startproc
 997              		@ args = 0, pretend = 0, frame = 8
 998              		@ frame_needed = 0, uses_anonymous_args = 0
 999              		@ link register save eliminated.
 1000 0000 82B0     		sub	sp, sp, #8
 1001              		.cfi_def_cfa_offset 8
 1002 0002 0190     		str	r0, [sp, #4]
 1003              		.loc 5 172 0
 1004 0004 019B     		ldr	r3, [sp, #4]
 1005 0006 019A     		ldr	r2, [sp, #4]
 1006 0008 1A60     		str	r2, [r3]
 1007              		.loc 5 173 0
 1008 000a 02B0     		add	sp, sp, #8
 1009              		@ sp needed
 1010 000c 7047     		bx	lr
 1011              		.cfi_endproc
 1012              	.LFE216:
 1013              		.size	chEvtObjectInit, .-chEvtObjectInit
 1014 000e 00BF     		.section	.text.chEvtBroadcastI,"ax",%progbits
 1015              		.align	2
 1016              		.p2align 4,,15
 1017              		.thumb
 1018              		.thumb_func
 1019              		.type	chEvtBroadcastI, %function
 1020              	chEvtBroadcastI:
 1021              	.LFB221:
 1022              		.loc 5 254 0
 1023              		.cfi_startproc
 1024              		@ args = 0, pretend = 0, frame = 8
 1025              		@ frame_needed = 0, uses_anonymous_args = 0
 1026 0000 00B5     		push	{lr}
 1027              		.cfi_def_cfa_offset 4
 1028              		.cfi_offset 14, -4
 1029 0002 83B0     		sub	sp, sp, #12
 1030              		.cfi_def_cfa_offset 16
 1031 0004 0190     		str	r0, [sp, #4]
 1032              		.loc 5 256 0
 1033 0006 0198     		ldr	r0, [sp, #4]
 1034 0008 0021     		movs	r1, #0
 1035 000a FFF7FEFF 		bl	chEvtBroadcastFlagsI
 1036              		.loc 5 257 0
 1037 000e 03B0     		add	sp, sp, #12
 1038              		@ sp needed
 1039 0010 5DF804FB 		ldr	pc, [sp], #4
 1040              		.cfi_endproc
 1041              	.LFE221:
ARM GAS  /tmp/ccxmVR4n.s 			page 54


 1042              		.size	chEvtBroadcastI, .-chEvtBroadcastI
 1043 0014 AFF30080 		.section	.text.tmrcb,"ax",%progbits
 1043      AFF30080 
 1043      AFF30080 
 1044              		.align	2
 1045              		.p2align 4,,15
 1046              		.thumb
 1047              		.thumb_func
 1048              		.type	tmrcb, %function
 1049              	tmrcb:
 1050              	.LFB242:
 1051              		.file 6 "../ChibiOS/os/various/evtimer.c"
 1052              		.loc 6 48 0
 1053              		.cfi_startproc
 1054              		@ args = 0, pretend = 0, frame = 16
 1055              		@ frame_needed = 0, uses_anonymous_args = 0
 1056 0000 00B5     		push	{lr}
 1057              		.cfi_def_cfa_offset 4
 1058              		.cfi_offset 14, -4
 1059 0002 85B0     		sub	sp, sp, #20
 1060              		.cfi_def_cfa_offset 24
 1061 0004 0190     		str	r0, [sp, #4]
 1062              		.loc 6 49 0
 1063 0006 019B     		ldr	r3, [sp, #4]
 1064 0008 0393     		str	r3, [sp, #12]
 1065              		.loc 6 51 0
 1066 000a FFF7FEFF 		bl	chSysLockFromISR
 1067              		.loc 6 52 0
 1068 000e 039B     		ldr	r3, [sp, #12]
 1069 0010 1433     		adds	r3, r3, #20
 1070 0012 1846     		mov	r0, r3
 1071 0014 FFF7FEFF 		bl	chEvtBroadcastI
 1072              		.loc 6 53 0
 1073 0018 039A     		ldr	r2, [sp, #12]
 1074 001a 039B     		ldr	r3, [sp, #12]
 1075 001c 9B69     		ldr	r3, [r3, #24]
 1076 001e 1046     		mov	r0, r2
 1077 0020 1946     		mov	r1, r3
 1078 0022 044A     		ldr	r2, .L19
 1079 0024 039B     		ldr	r3, [sp, #12]
 1080 0026 FFF7FEFF 		bl	chVTDoSetI
 1081              		.loc 6 54 0
 1082 002a FFF7FEFF 		bl	chSysUnlockFromISR
 1083              		.loc 6 55 0
 1084 002e 05B0     		add	sp, sp, #20
 1085              		@ sp needed
 1086 0030 5DF804FB 		ldr	pc, [sp], #4
 1087              	.L20:
 1088              		.align	2
 1089              	.L19:
 1090 0034 00000000 		.word	tmrcb
 1091              		.cfi_endproc
 1092              	.LFE242:
 1093              		.size	tmrcb, .-tmrcb
 1094 0038 AFF30080 		.section	.text.evtObjectInit,"ax",%progbits
 1094      AFF30080 
 1095              		.align	2
ARM GAS  /tmp/ccxmVR4n.s 			page 55


 1096              		.p2align 4,,15
 1097              		.global	evtObjectInit
 1098              		.thumb
 1099              		.thumb_func
 1100              		.type	evtObjectInit, %function
 1101              	evtObjectInit:
 1102              	.LFB243:
 1103              		.loc 6 67 0
 1104              		.cfi_startproc
 1105              		@ args = 0, pretend = 0, frame = 8
 1106              		@ frame_needed = 0, uses_anonymous_args = 0
 1107 0000 00B5     		push	{lr}
 1108              		.cfi_def_cfa_offset 4
 1109              		.cfi_offset 14, -4
 1110 0002 83B0     		sub	sp, sp, #12
 1111              		.cfi_def_cfa_offset 16
 1112 0004 0190     		str	r0, [sp, #4]
 1113 0006 0091     		str	r1, [sp]
 1114              		.loc 6 69 0
 1115 0008 019B     		ldr	r3, [sp, #4]
 1116 000a 1433     		adds	r3, r3, #20
 1117 000c 1846     		mov	r0, r3
 1118 000e FFF7FEFF 		bl	chEvtObjectInit
 1119              		.loc 6 70 0
 1120 0012 019B     		ldr	r3, [sp, #4]
 1121 0014 1846     		mov	r0, r3
 1122 0016 FFF7FEFF 		bl	chVTObjectInit
 1123              		.loc 6 71 0
 1124 001a 019B     		ldr	r3, [sp, #4]
 1125 001c 009A     		ldr	r2, [sp]
 1126 001e 9A61     		str	r2, [r3, #24]
 1127              		.loc 6 72 0
 1128 0020 03B0     		add	sp, sp, #12
 1129              		@ sp needed
 1130 0022 5DF804FB 		ldr	pc, [sp], #4
 1131              		.cfi_endproc
 1132              	.LFE243:
 1133              		.size	evtObjectInit, .-evtObjectInit
 1134 0026 00BFAFF3 		.section	.text.evtStart,"ax",%progbits
 1134      0080AFF3 
 1134      0080
 1135              		.align	2
 1136              		.p2align 4,,15
 1137              		.global	evtStart
 1138              		.thumb
 1139              		.thumb_func
 1140              		.type	evtStart, %function
 1141              	evtStart:
 1142              	.LFB244:
 1143              		.loc 6 80 0
 1144              		.cfi_startproc
 1145              		@ args = 0, pretend = 0, frame = 8
 1146              		@ frame_needed = 0, uses_anonymous_args = 0
 1147 0000 00B5     		push	{lr}
 1148              		.cfi_def_cfa_offset 4
 1149              		.cfi_offset 14, -4
 1150 0002 83B0     		sub	sp, sp, #12
ARM GAS  /tmp/ccxmVR4n.s 			page 56


 1151              		.cfi_def_cfa_offset 16
 1152 0004 0190     		str	r0, [sp, #4]
 1153              		.loc 6 82 0
 1154 0006 019A     		ldr	r2, [sp, #4]
 1155 0008 019B     		ldr	r3, [sp, #4]
 1156 000a 9B69     		ldr	r3, [r3, #24]
 1157 000c 1046     		mov	r0, r2
 1158 000e 1946     		mov	r1, r3
 1159 0010 034A     		ldr	r2, .L23
 1160 0012 019B     		ldr	r3, [sp, #4]
 1161 0014 FFF7FEFF 		bl	chVTSet
 1162              		.loc 6 83 0
 1163 0018 03B0     		add	sp, sp, #12
 1164              		@ sp needed
 1165 001a 5DF804FB 		ldr	pc, [sp], #4
 1166              	.L24:
 1167 001e 00BF     		.align	2
 1168              	.L23:
 1169 0020 00000000 		.word	tmrcb
 1170              		.cfi_endproc
 1171              	.LFE244:
 1172              		.size	evtStart, .-evtStart
 1173 0024 AFF30080 		.text
 1173      AFF30080 
 1173      AFF30080 
 1174              	.Letext0:
 1175              		.file 7 "/nfs/nfs5/home/research/hardware/arm2/gcc-arm-embedded/gcc-arm-none-eabi-4_8-2014q2/arm-n
 1176              		.file 8 "/nfs/nfs5/home/research/hardware/arm2/gcc-arm-embedded/gcc-arm-none-eabi-4_8-2014q2/arm-n
 1177              		.file 9 "../ChibiOS/os/rt/ports/ARMCMx/compilers/GCC/chtypes.h"
 1178              		.file 10 "../ChibiOS/os/rt/include/chsystypes.h"
 1179              		.file 11 "../ChibiOS/os/rt/include/chschd.h"
 1180              		.file 12 "../ChibiOS/os/rt/ports/ARMCMx/chcore.h"
 1181              		.file 13 "../ChibiOS/os/rt/include/chtm.h"
 1182              		.file 14 "../ChibiOS/os/rt/include/chsem.h"
 1183              		.file 15 "../ChibiOS/os/rt/include/chmtx.h"
 1184              		.file 16 "../ChibiOS/os/various/evtimer.h"
 1185              		.file 17 "../ChibiOS/os/ext/CMSIS/include/core_cm4.h"
 1186              		.section	.debug_info,"",%progbits
 1187              	.Ldebug_info0:
 1188 0000 050A0000 		.4byte	0xa05
 1189 0004 0400     		.2byte	0x4
 1190 0006 00000000 		.4byte	.Ldebug_abbrev0
 1191 000a 04       		.byte	0x4
 1192 000b 01       		.uleb128 0x1
 1193 000c 99010000 		.4byte	.LASF139
 1194 0010 01       		.byte	0x1
 1195 0011 6B030000 		.4byte	.LASF140
 1196 0015 97050000 		.4byte	.LASF141
 1197 0019 00000000 		.4byte	.Ldebug_ranges0+0
 1198 001d 00000000 		.4byte	0
 1199 0021 00000000 		.4byte	.Ldebug_line0
 1200 0025 02       		.uleb128 0x2
 1201 0026 04       		.byte	0x4
 1202 0027 05       		.byte	0x5
 1203 0028 696E7400 		.ascii	"int\000"
 1204 002c 03       		.uleb128 0x3
 1205 002d 04       		.byte	0x4
ARM GAS  /tmp/ccxmVR4n.s 			page 57


 1206 002e 07       		.byte	0x7
 1207 002f 79020000 		.4byte	.LASF0
 1208 0033 03       		.uleb128 0x3
 1209 0034 01       		.byte	0x1
 1210 0035 06       		.byte	0x6
 1211 0036 DE000000 		.4byte	.LASF1
 1212 003a 04       		.uleb128 0x4
 1213 003b 2F000000 		.4byte	.LASF5
 1214 003f 07       		.byte	0x7
 1215 0040 1C       		.byte	0x1c
 1216 0041 45000000 		.4byte	0x45
 1217 0045 03       		.uleb128 0x3
 1218 0046 01       		.byte	0x1
 1219 0047 08       		.byte	0x8
 1220 0048 AA040000 		.4byte	.LASF2
 1221 004c 03       		.uleb128 0x3
 1222 004d 02       		.byte	0x2
 1223 004e 05       		.byte	0x5
 1224 004f D7040000 		.4byte	.LASF3
 1225 0053 03       		.uleb128 0x3
 1226 0054 02       		.byte	0x2
 1227 0055 07       		.byte	0x7
 1228 0056 BF020000 		.4byte	.LASF4
 1229 005a 04       		.uleb128 0x4
 1230 005b 47030000 		.4byte	.LASF6
 1231 005f 07       		.byte	0x7
 1232 0060 37       		.byte	0x37
 1233 0061 65000000 		.4byte	0x65
 1234 0065 03       		.uleb128 0x3
 1235 0066 04       		.byte	0x4
 1236 0067 05       		.byte	0x5
 1237 0068 17010000 		.4byte	.LASF7
 1238 006c 04       		.uleb128 0x4
 1239 006d 42060000 		.4byte	.LASF8
 1240 0071 07       		.byte	0x7
 1241 0072 38       		.byte	0x38
 1242 0073 77000000 		.4byte	0x77
 1243 0077 03       		.uleb128 0x3
 1244 0078 04       		.byte	0x4
 1245 0079 07       		.byte	0x7
 1246 007a E2050000 		.4byte	.LASF9
 1247 007e 03       		.uleb128 0x3
 1248 007f 08       		.byte	0x8
 1249 0080 05       		.byte	0x5
 1250 0081 D0000000 		.4byte	.LASF10
 1251 0085 04       		.uleb128 0x4
 1252 0086 47040000 		.4byte	.LASF11
 1253 008a 07       		.byte	0x7
 1254 008b 4E       		.byte	0x4e
 1255 008c 90000000 		.4byte	0x90
 1256 0090 03       		.uleb128 0x3
 1257 0091 08       		.byte	0x8
 1258 0092 07       		.byte	0x7
 1259 0093 5E000000 		.4byte	.LASF12
 1260 0097 04       		.uleb128 0x4
 1261 0098 D1060000 		.4byte	.LASF13
 1262 009c 08       		.byte	0x8
ARM GAS  /tmp/ccxmVR4n.s 			page 58


 1263 009d 2A       		.byte	0x2a
 1264 009e 3A000000 		.4byte	0x3a
 1265 00a2 04       		.uleb128 0x4
 1266 00a3 A2040000 		.4byte	.LASF14
 1267 00a7 08       		.byte	0x8
 1268 00a8 41       		.byte	0x41
 1269 00a9 5A000000 		.4byte	0x5a
 1270 00ad 04       		.uleb128 0x4
 1271 00ae 69050000 		.4byte	.LASF15
 1272 00b2 08       		.byte	0x8
 1273 00b3 42       		.byte	0x42
 1274 00b4 6C000000 		.4byte	0x6c
 1275 00b8 04       		.uleb128 0x4
 1276 00b9 26000000 		.4byte	.LASF16
 1277 00bd 08       		.byte	0x8
 1278 00be 4E       		.byte	0x4e
 1279 00bf 85000000 		.4byte	0x85
 1280 00c3 04       		.uleb128 0x4
 1281 00c4 74060000 		.4byte	.LASF17
 1282 00c8 09       		.byte	0x9
 1283 00c9 39       		.byte	0x39
 1284 00ca AD000000 		.4byte	0xad
 1285 00ce 04       		.uleb128 0x4
 1286 00cf FE040000 		.4byte	.LASF18
 1287 00d3 09       		.byte	0x9
 1288 00d4 3C       		.byte	0x3c
 1289 00d5 97000000 		.4byte	0x97
 1290 00d9 04       		.uleb128 0x4
 1291 00da 20010000 		.4byte	.LASF19
 1292 00de 09       		.byte	0x9
 1293 00df 3D       		.byte	0x3d
 1294 00e0 97000000 		.4byte	0x97
 1295 00e4 04       		.uleb128 0x4
 1296 00e5 52040000 		.4byte	.LASF20
 1297 00e9 09       		.byte	0x9
 1298 00ea 3E       		.byte	0x3e
 1299 00eb 97000000 		.4byte	0x97
 1300 00ef 04       		.uleb128 0x4
 1301 00f0 71040000 		.4byte	.LASF21
 1302 00f4 09       		.byte	0x9
 1303 00f5 40       		.byte	0x40
 1304 00f6 AD000000 		.4byte	0xad
 1305 00fa 04       		.uleb128 0x4
 1306 00fb FE020000 		.4byte	.LASF22
 1307 00ff 09       		.byte	0x9
 1308 0100 41       		.byte	0x41
 1309 0101 A2000000 		.4byte	0xa2
 1310 0105 04       		.uleb128 0x4
 1311 0106 3B030000 		.4byte	.LASF23
 1312 010a 09       		.byte	0x9
 1313 010b 43       		.byte	0x43
 1314 010c AD000000 		.4byte	0xad
 1315 0110 04       		.uleb128 0x4
 1316 0111 F1020000 		.4byte	.LASF24
 1317 0115 09       		.byte	0x9
 1318 0116 44       		.byte	0x44
 1319 0117 AD000000 		.4byte	0xad
ARM GAS  /tmp/ccxmVR4n.s 			page 59


 1320 011b 04       		.uleb128 0x4
 1321 011c 93010000 		.4byte	.LASF25
 1322 0120 09       		.byte	0x9
 1323 0121 45       		.byte	0x45
 1324 0122 A2000000 		.4byte	0xa2
 1325 0126 04       		.uleb128 0x4
 1326 0127 24060000 		.4byte	.LASF26
 1327 012b 0A       		.byte	0xa
 1328 012c 33       		.byte	0x33
 1329 012d AD000000 		.4byte	0xad
 1330 0131 04       		.uleb128 0x4
 1331 0132 14060000 		.4byte	.LASF27
 1332 0136 0A       		.byte	0xa
 1333 0137 3F       		.byte	0x3f
 1334 0138 3C010000 		.4byte	0x13c
 1335 013c 05       		.uleb128 0x5
 1336 013d D2020000 		.4byte	.LASF47
 1337 0141 44       		.byte	0x44
 1338 0142 0B       		.byte	0xb
 1339 0143 C2       		.byte	0xc2
 1340 0144 28020000 		.4byte	0x228
 1341 0148 06       		.uleb128 0x6
 1342 0149 F7040000 		.4byte	.LASF28
 1343 014d 0B       		.byte	0xb
 1344 014e C3       		.byte	0xc3
 1345 014f 33020000 		.4byte	0x233
 1346 0153 00       		.byte	0
 1347 0154 06       		.uleb128 0x6
 1348 0155 6A040000 		.4byte	.LASF29
 1349 0159 0B       		.byte	0xb
 1350 015a C5       		.byte	0xc5
 1351 015b 33020000 		.4byte	0x233
 1352 015f 04       		.byte	0x4
 1353 0160 06       		.uleb128 0x6
 1354 0161 C9000000 		.4byte	.LASF30
 1355 0165 0B       		.byte	0xb
 1356 0166 C7       		.byte	0xc7
 1357 0167 EF000000 		.4byte	0xef
 1358 016b 08       		.byte	0x8
 1359 016c 06       		.uleb128 0x6
 1360 016d 22070000 		.4byte	.LASF31
 1361 0171 0B       		.byte	0xb
 1362 0172 C8       		.byte	0xc8
 1363 0173 63040000 		.4byte	0x463
 1364 0177 0C       		.byte	0xc
 1365 0178 06       		.uleb128 0x6
 1366 0179 30010000 		.4byte	.LASF32
 1367 017d 0B       		.byte	0xb
 1368 017e CA       		.byte	0xca
 1369 017f 33020000 		.4byte	0x233
 1370 0183 10       		.byte	0x10
 1371 0184 06       		.uleb128 0x6
 1372 0185 F4030000 		.4byte	.LASF33
 1373 0189 0B       		.byte	0xb
 1374 018a CB       		.byte	0xcb
 1375 018b 33020000 		.4byte	0x233
 1376 018f 14       		.byte	0x14
ARM GAS  /tmp/ccxmVR4n.s 			page 60


 1377 0190 06       		.uleb128 0x6
 1378 0191 EA060000 		.4byte	.LASF34
 1379 0195 0B       		.byte	0xb
 1380 0196 D2       		.byte	0xd2
 1381 0197 EE050000 		.4byte	0x5ee
 1382 019b 18       		.byte	0x18
 1383 019c 06       		.uleb128 0x6
 1384 019d 1B040000 		.4byte	.LASF35
 1385 01a1 0B       		.byte	0xb
 1386 01a2 D8       		.byte	0xd8
 1387 01a3 00060000 		.4byte	0x600
 1388 01a7 1C       		.byte	0x1c
 1389 01a8 06       		.uleb128 0x6
 1390 01a9 E1040000 		.4byte	.LASF36
 1391 01ad 0B       		.byte	0xb
 1392 01ae DD       		.byte	0xdd
 1393 01af D9000000 		.4byte	0xd9
 1394 01b3 20       		.byte	0x20
 1395 01b4 06       		.uleb128 0x6
 1396 01b5 06050000 		.4byte	.LASF37
 1397 01b9 0B       		.byte	0xb
 1398 01ba E1       		.byte	0xe1
 1399 01bb CE000000 		.4byte	0xce
 1400 01bf 21       		.byte	0x21
 1401 01c0 06       		.uleb128 0x6
 1402 01c1 29010000 		.4byte	.LASF38
 1403 01c5 0B       		.byte	0xb
 1404 01c6 E6       		.byte	0xe6
 1405 01c7 E4000000 		.4byte	0xe4
 1406 01cb 22       		.byte	0x22
 1407 01cc 07       		.uleb128 0x7
 1408 01cd 705F7500 		.ascii	"p_u\000"
 1409 01d1 0B       		.byte	0xb
 1410 01d2 3701     		.2byte	0x137
 1411 01d4 1D050000 		.4byte	0x51d
 1412 01d8 24       		.byte	0x24
 1413 01d9 08       		.uleb128 0x8
 1414 01da 9C030000 		.4byte	.LASF39
 1415 01de 0B       		.byte	0xb
 1416 01df 3C01     		.2byte	0x13c
 1417 01e1 39020000 		.4byte	0x239
 1418 01e5 28       		.byte	0x28
 1419 01e6 08       		.uleb128 0x8
 1420 01e7 9E020000 		.4byte	.LASF40
 1421 01eb 0B       		.byte	0xb
 1422 01ec 4201     		.2byte	0x142
 1423 01ee 5D020000 		.4byte	0x25d
 1424 01f2 2C       		.byte	0x2c
 1425 01f3 08       		.uleb128 0x8
 1426 01f4 5E050000 		.4byte	.LASF41
 1427 01f8 0B       		.byte	0xb
 1428 01f9 4801     		.2byte	0x148
 1429 01fb 05010000 		.4byte	0x105
 1430 01ff 34       		.byte	0x34
 1431 0200 08       		.uleb128 0x8
 1432 0201 CD040000 		.4byte	.LASF42
 1433 0205 0B       		.byte	0xb
ARM GAS  /tmp/ccxmVR4n.s 			page 61


 1434 0206 4F01     		.2byte	0x14f
 1435 0208 E8050000 		.4byte	0x5e8
 1436 020c 38       		.byte	0x38
 1437 020d 08       		.uleb128 0x8
 1438 020e 2E060000 		.4byte	.LASF43
 1439 0212 0B       		.byte	0xb
 1440 0213 5301     		.2byte	0x153
 1441 0215 EF000000 		.4byte	0xef
 1442 0219 3C       		.byte	0x3c
 1443 021a 08       		.uleb128 0x8
 1444 021b EA000000 		.4byte	.LASF44
 1445 021f 0B       		.byte	0xb
 1446 0220 5A01     		.2byte	0x15a
 1447 0222 10030000 		.4byte	0x310
 1448 0226 40       		.byte	0x40
 1449 0227 00       		.byte	0
 1450 0228 04       		.uleb128 0x4
 1451 0229 B5030000 		.4byte	.LASF45
 1452 022d 0A       		.byte	0xa
 1453 022e 44       		.byte	0x44
 1454 022f 33020000 		.4byte	0x233
 1455 0233 09       		.uleb128 0x9
 1456 0234 04       		.byte	0x4
 1457 0235 31010000 		.4byte	0x131
 1458 0239 04       		.uleb128 0x4
 1459 023a F1060000 		.4byte	.LASF46
 1460 023e 0A       		.byte	0xa
 1461 023f 49       		.byte	0x49
 1462 0240 44020000 		.4byte	0x244
 1463 0244 05       		.uleb128 0x5
 1464 0245 87050000 		.4byte	.LASF48
 1465 0249 04       		.byte	0x4
 1466 024a 0B       		.byte	0xb
 1467 024b B0       		.byte	0xb0
 1468 024c 5D020000 		.4byte	0x25d
 1469 0250 06       		.uleb128 0x6
 1470 0251 F7040000 		.4byte	.LASF28
 1471 0255 0B       		.byte	0xb
 1472 0256 B1       		.byte	0xb1
 1473 0257 33020000 		.4byte	0x233
 1474 025b 00       		.byte	0
 1475 025c 00       		.byte	0
 1476 025d 04       		.uleb128 0x4
 1477 025e 9D060000 		.4byte	.LASF49
 1478 0262 0A       		.byte	0xa
 1479 0263 50       		.byte	0x50
 1480 0264 68020000 		.4byte	0x268
 1481 0268 05       		.uleb128 0x5
 1482 0269 B8000000 		.4byte	.LASF50
 1483 026d 08       		.byte	0x8
 1484 026e 0B       		.byte	0xb
 1485 026f B7       		.byte	0xb7
 1486 0270 8D020000 		.4byte	0x28d
 1487 0274 06       		.uleb128 0x6
 1488 0275 F7040000 		.4byte	.LASF28
 1489 0279 0B       		.byte	0xb
 1490 027a B8       		.byte	0xb8
ARM GAS  /tmp/ccxmVR4n.s 			page 62


 1491 027b 33020000 		.4byte	0x233
 1492 027f 00       		.byte	0
 1493 0280 06       		.uleb128 0x6
 1494 0281 6A040000 		.4byte	.LASF29
 1495 0285 0B       		.byte	0xb
 1496 0286 B9       		.byte	0xb9
 1497 0287 33020000 		.4byte	0x233
 1498 028b 04       		.byte	0x4
 1499 028c 00       		.byte	0
 1500 028d 04       		.uleb128 0x4
 1501 028e 0C000000 		.4byte	.LASF51
 1502 0292 0A       		.byte	0xa
 1503 0293 57       		.byte	0x57
 1504 0294 98020000 		.4byte	0x298
 1505 0298 0A       		.uleb128 0xa
 1506 0299 2D030000 		.4byte	.LASF52
 1507 029d 1C       		.byte	0x1c
 1508 029e 0B       		.byte	0xb
 1509 029f 9201     		.2byte	0x192
 1510 02a1 F4020000 		.4byte	0x2f4
 1511 02a5 08       		.uleb128 0x8
 1512 02a6 79050000 		.4byte	.LASF53
 1513 02aa 0B       		.byte	0xb
 1514 02ab 9301     		.2byte	0x193
 1515 02ad 5D020000 		.4byte	0x25d
 1516 02b1 00       		.byte	0
 1517 02b2 08       		.uleb128 0x8
 1518 02b3 E9040000 		.4byte	.LASF54
 1519 02b7 0B       		.byte	0xb
 1520 02b8 9401     		.2byte	0x194
 1521 02ba EF000000 		.4byte	0xef
 1522 02be 08       		.byte	0x8
 1523 02bf 08       		.uleb128 0x8
 1524 02c0 FC030000 		.4byte	.LASF55
 1525 02c4 0B       		.byte	0xb
 1526 02c5 9601     		.2byte	0x196
 1527 02c7 63040000 		.4byte	0x463
 1528 02cb 0C       		.byte	0xc
 1529 02cc 08       		.uleb128 0x8
 1530 02cd 4E010000 		.4byte	.LASF56
 1531 02d1 0B       		.byte	0xb
 1532 02d2 9901     		.2byte	0x199
 1533 02d4 33020000 		.4byte	0x233
 1534 02d8 10       		.byte	0x10
 1535 02d9 08       		.uleb128 0x8
 1536 02da 35040000 		.4byte	.LASF57
 1537 02de 0B       		.byte	0xb
 1538 02df 9A01     		.2byte	0x19a
 1539 02e1 33020000 		.4byte	0x233
 1540 02e5 14       		.byte	0x14
 1541 02e6 08       		.uleb128 0x8
 1542 02e7 2B040000 		.4byte	.LASF58
 1543 02eb 0B       		.byte	0xb
 1544 02ec 9D01     		.2byte	0x19d
 1545 02ee 33020000 		.4byte	0x233
 1546 02f2 18       		.byte	0x18
 1547 02f3 00       		.byte	0
ARM GAS  /tmp/ccxmVR4n.s 			page 63


 1548 02f4 04       		.uleb128 0x4
 1549 02f5 39060000 		.4byte	.LASF59
 1550 02f9 0A       		.byte	0xa
 1551 02fa 5C       		.byte	0x5c
 1552 02fb FF020000 		.4byte	0x2ff
 1553 02ff 09       		.uleb128 0x9
 1554 0300 04       		.byte	0x4
 1555 0301 05030000 		.4byte	0x305
 1556 0305 0B       		.uleb128 0xb
 1557 0306 10030000 		.4byte	0x310
 1558 030a 0C       		.uleb128 0xc
 1559 030b 10030000 		.4byte	0x310
 1560 030f 00       		.byte	0
 1561 0310 0D       		.uleb128 0xd
 1562 0311 04       		.byte	0x4
 1563 0312 04       		.uleb128 0x4
 1564 0313 5A040000 		.4byte	.LASF60
 1565 0317 0A       		.byte	0xa
 1566 0318 61       		.byte	0x61
 1567 0319 1D030000 		.4byte	0x31d
 1568 031d 0A       		.uleb128 0xa
 1569 031e 35050000 		.4byte	.LASF61
 1570 0322 14       		.byte	0x14
 1571 0323 0B       		.byte	0xb
 1572 0324 6D01     		.2byte	0x16d
 1573 0326 6C030000 		.4byte	0x36c
 1574 032a 08       		.uleb128 0x8
 1575 032b 86020000 		.4byte	.LASF62
 1576 032f 0B       		.byte	0xb
 1577 0330 6E01     		.2byte	0x16e
 1578 0332 06060000 		.4byte	0x606
 1579 0336 00       		.byte	0
 1580 0337 08       		.uleb128 0x8
 1581 0338 5F010000 		.4byte	.LASF63
 1582 033c 0B       		.byte	0xb
 1583 033d 6F01     		.2byte	0x16f
 1584 033f 06060000 		.4byte	0x606
 1585 0343 04       		.byte	0x4
 1586 0344 08       		.uleb128 0x8
 1587 0345 95020000 		.4byte	.LASF64
 1588 0349 0B       		.byte	0xb
 1589 034a 7001     		.2byte	0x170
 1590 034c 26010000 		.4byte	0x126
 1591 0350 08       		.byte	0x8
 1592 0351 08       		.uleb128 0x8
 1593 0352 28070000 		.4byte	.LASF65
 1594 0356 0B       		.byte	0xb
 1595 0357 7101     		.2byte	0x171
 1596 0359 F4020000 		.4byte	0x2f4
 1597 035d 0C       		.byte	0xc
 1598 035e 08       		.uleb128 0x8
 1599 035f 8F060000 		.4byte	.LASF66
 1600 0363 0B       		.byte	0xb
 1601 0364 7301     		.2byte	0x173
 1602 0366 10030000 		.4byte	0x310
 1603 036a 10       		.byte	0x10
 1604 036b 00       		.byte	0
ARM GAS  /tmp/ccxmVR4n.s 			page 64


 1605 036c 04       		.uleb128 0x4
 1606 036d 8F000000 		.4byte	.LASF67
 1607 0371 0A       		.byte	0xa
 1608 0372 66       		.byte	0x66
 1609 0373 77030000 		.4byte	0x377
 1610 0377 0A       		.uleb128 0xa
 1611 0378 C8030000 		.4byte	.LASF68
 1612 037c 10       		.byte	0x10
 1613 037d 0B       		.byte	0xb
 1614 037e 7D01     		.2byte	0x17d
 1615 0380 B9030000 		.4byte	0x3b9
 1616 0384 08       		.uleb128 0x8
 1617 0385 86020000 		.4byte	.LASF62
 1618 0389 0B       		.byte	0xb
 1619 038a 7E01     		.2byte	0x17e
 1620 038c 06060000 		.4byte	0x606
 1621 0390 00       		.byte	0
 1622 0391 08       		.uleb128 0x8
 1623 0392 5F010000 		.4byte	.LASF63
 1624 0396 0B       		.byte	0xb
 1625 0397 8001     		.2byte	0x180
 1626 0399 06060000 		.4byte	0x606
 1627 039d 04       		.byte	0x4
 1628 039e 08       		.uleb128 0x8
 1629 039f 95020000 		.4byte	.LASF64
 1630 03a3 0B       		.byte	0xb
 1631 03a4 8201     		.2byte	0x182
 1632 03a6 26010000 		.4byte	0x126
 1633 03aa 08       		.byte	0x8
 1634 03ab 08       		.uleb128 0x8
 1635 03ac DF030000 		.4byte	.LASF69
 1636 03b0 0B       		.byte	0xb
 1637 03b1 8A01     		.2byte	0x18a
 1638 03b3 26010000 		.4byte	0x126
 1639 03b7 0C       		.byte	0xc
 1640 03b8 00       		.byte	0
 1641 03b9 04       		.uleb128 0x4
 1642 03ba 45000000 		.4byte	.LASF70
 1643 03be 0A       		.byte	0xa
 1644 03bf 6B       		.byte	0x6b
 1645 03c0 C4030000 		.4byte	0x3c4
 1646 03c4 0A       		.uleb128 0xa
 1647 03c5 8C040000 		.4byte	.LASF71
 1648 03c9 04       		.byte	0x4
 1649 03ca 0B       		.byte	0xb
 1650 03cb A401     		.2byte	0x1a4
 1651 03cd DF030000 		.4byte	0x3df
 1652 03d1 08       		.uleb128 0x8
 1653 03d2 5B060000 		.4byte	.LASF72
 1654 03d6 0B       		.byte	0xb
 1655 03d7 AC01     		.2byte	0x1ac
 1656 03d9 0C060000 		.4byte	0x60c
 1657 03dd 00       		.byte	0
 1658 03de 00       		.byte	0
 1659 03df 04       		.uleb128 0x4
 1660 03e0 0C030000 		.4byte	.LASF73
 1661 03e4 0A       		.byte	0xa
ARM GAS  /tmp/ccxmVR4n.s 			page 65


 1662 03e5 70       		.byte	0x70
 1663 03e6 EA030000 		.4byte	0x3ea
 1664 03ea 0E       		.uleb128 0xe
 1665 03eb 0D010000 		.4byte	.LASF74
 1666 03ef 5001     		.2byte	0x150
 1667 03f1 0B       		.byte	0xb
 1668 03f2 C401     		.2byte	0x1c4
 1669 03f4 46040000 		.4byte	0x446
 1670 03f8 08       		.uleb128 0x8
 1671 03f9 BE060000 		.4byte	.LASF75
 1672 03fd 0B       		.byte	0xb
 1673 03fe C801     		.2byte	0x1c8
 1674 0400 8D020000 		.4byte	0x28d
 1675 0404 00       		.byte	0
 1676 0405 08       		.uleb128 0x8
 1677 0406 FA000000 		.4byte	.LASF76
 1678 040a 0B       		.byte	0xb
 1679 040b CC01     		.2byte	0x1cc
 1680 040d 6C030000 		.4byte	0x36c
 1681 0411 1C       		.byte	0x1c
 1682 0412 07       		.uleb128 0x7
 1683 0413 64626700 		.ascii	"dbg\000"
 1684 0417 0B       		.byte	0xb
 1685 0418 D001     		.2byte	0x1d0
 1686 041a B9030000 		.4byte	0x3b9
 1687 041e 2C       		.byte	0x2c
 1688 041f 08       		.uleb128 0x8
 1689 0420 E6020000 		.4byte	.LASF77
 1690 0424 0B       		.byte	0xb
 1691 0425 D401     		.2byte	0x1d4
 1692 0427 31010000 		.4byte	0x131
 1693 042b 30       		.byte	0x30
 1694 042c 07       		.uleb128 0x7
 1695 042d 746D00   		.ascii	"tm\000"
 1696 0430 0B       		.byte	0xb
 1697 0431 D901     		.2byte	0x1d9
 1698 0433 12050000 		.4byte	0x512
 1699 0437 74       		.byte	0x74
 1700 0438 08       		.uleb128 0x8
 1701 0439 84010000 		.4byte	.LASF78
 1702 043d 0B       		.byte	0xb
 1703 043e E501     		.2byte	0x1e5
 1704 0440 11060000 		.4byte	0x611
 1705 0444 78       		.byte	0x78
 1706 0445 00       		.byte	0
 1707 0446 03       		.uleb128 0x3
 1708 0447 04       		.byte	0x4
 1709 0448 07       		.byte	0x7
 1710 0449 AC030000 		.4byte	.LASF79
 1711 044d 04       		.uleb128 0x4
 1712 044e 56010000 		.4byte	.LASF80
 1713 0452 0C       		.byte	0xc
 1714 0453 65       		.byte	0x65
 1715 0454 10030000 		.4byte	0x310
 1716 0458 04       		.uleb128 0x4
 1717 0459 60030000 		.4byte	.LASF81
 1718 045d 0C       		.byte	0xc
ARM GAS  /tmp/ccxmVR4n.s 			page 66


 1719 045e 6D       		.byte	0x6d
 1720 045f B8000000 		.4byte	0xb8
 1721 0463 05       		.uleb128 0x5
 1722 0464 6C060000 		.4byte	.LASF82
 1723 0468 04       		.byte	0x4
 1724 0469 0C       		.byte	0xc
 1725 046a 89       		.byte	0x89
 1726 046b 7C040000 		.4byte	0x47c
 1727 046f 0F       		.uleb128 0xf
 1728 0470 72313300 		.ascii	"r13\000"
 1729 0474 0C       		.byte	0xc
 1730 0475 8A       		.byte	0x8a
 1731 0476 F7040000 		.4byte	0x4f7
 1732 047a 00       		.byte	0
 1733 047b 00       		.byte	0
 1734 047c 05       		.uleb128 0x5
 1735 047d 39000000 		.4byte	.LASF83
 1736 0481 24       		.byte	0x24
 1737 0482 01       		.byte	0x1
 1738 0483 FD       		.byte	0xfd
 1739 0484 F7040000 		.4byte	0x4f7
 1740 0488 07       		.uleb128 0x7
 1741 0489 723400   		.ascii	"r4\000"
 1742 048c 01       		.byte	0x1
 1743 048d 1001     		.2byte	0x110
 1744 048f 4D040000 		.4byte	0x44d
 1745 0493 00       		.byte	0
 1746 0494 07       		.uleb128 0x7
 1747 0495 723500   		.ascii	"r5\000"
 1748 0498 01       		.byte	0x1
 1749 0499 1101     		.2byte	0x111
 1750 049b 4D040000 		.4byte	0x44d
 1751 049f 04       		.byte	0x4
 1752 04a0 07       		.uleb128 0x7
 1753 04a1 723600   		.ascii	"r6\000"
 1754 04a4 01       		.byte	0x1
 1755 04a5 1201     		.2byte	0x112
 1756 04a7 4D040000 		.4byte	0x44d
 1757 04ab 08       		.byte	0x8
 1758 04ac 07       		.uleb128 0x7
 1759 04ad 723700   		.ascii	"r7\000"
 1760 04b0 01       		.byte	0x1
 1761 04b1 1301     		.2byte	0x113
 1762 04b3 4D040000 		.4byte	0x44d
 1763 04b7 0C       		.byte	0xc
 1764 04b8 07       		.uleb128 0x7
 1765 04b9 723800   		.ascii	"r8\000"
 1766 04bc 01       		.byte	0x1
 1767 04bd 1401     		.2byte	0x114
 1768 04bf 4D040000 		.4byte	0x44d
 1769 04c3 10       		.byte	0x10
 1770 04c4 07       		.uleb128 0x7
 1771 04c5 723900   		.ascii	"r9\000"
 1772 04c8 01       		.byte	0x1
 1773 04c9 1501     		.2byte	0x115
 1774 04cb 4D040000 		.4byte	0x44d
 1775 04cf 14       		.byte	0x14
ARM GAS  /tmp/ccxmVR4n.s 			page 67


 1776 04d0 07       		.uleb128 0x7
 1777 04d1 72313000 		.ascii	"r10\000"
 1778 04d5 01       		.byte	0x1
 1779 04d6 1601     		.2byte	0x116
 1780 04d8 4D040000 		.4byte	0x44d
 1781 04dc 18       		.byte	0x18
 1782 04dd 07       		.uleb128 0x7
 1783 04de 72313100 		.ascii	"r11\000"
 1784 04e2 01       		.byte	0x1
 1785 04e3 1701     		.2byte	0x117
 1786 04e5 4D040000 		.4byte	0x44d
 1787 04e9 1C       		.byte	0x1c
 1788 04ea 07       		.uleb128 0x7
 1789 04eb 6C7200   		.ascii	"lr\000"
 1790 04ee 01       		.byte	0x1
 1791 04ef 1801     		.2byte	0x118
 1792 04f1 4D040000 		.4byte	0x44d
 1793 04f5 20       		.byte	0x20
 1794 04f6 00       		.byte	0
 1795 04f7 09       		.uleb128 0x9
 1796 04f8 04       		.byte	0x4
 1797 04f9 7C040000 		.4byte	0x47c
 1798 04fd 10       		.uleb128 0x10
 1799 04fe 04       		.byte	0x4
 1800 04ff 0D       		.byte	0xd
 1801 0500 38       		.byte	0x38
 1802 0501 12050000 		.4byte	0x512
 1803 0505 06       		.uleb128 0x6
 1804 0506 65060000 		.4byte	.LASF84
 1805 050a 0D       		.byte	0xd
 1806 050b 3C       		.byte	0x3c
 1807 050c C3000000 		.4byte	0xc3
 1808 0510 00       		.byte	0
 1809 0511 00       		.byte	0
 1810 0512 04       		.uleb128 0x4
 1811 0513 0A040000 		.4byte	.LASF85
 1812 0517 0D       		.byte	0xd
 1813 0518 3D       		.byte	0x3d
 1814 0519 FD040000 		.4byte	0x4fd
 1815 051d 11       		.uleb128 0x11
 1816 051e 04       		.byte	0x4
 1817 051f 0B       		.byte	0xb
 1818 0520 FA       		.byte	0xfa
 1819 0521 86050000 		.4byte	0x586
 1820 0525 12       		.uleb128 0x12
 1821 0526 1F000000 		.4byte	.LASF86
 1822 052a 0B       		.byte	0xb
 1823 052b 0101     		.2byte	0x101
 1824 052d FA000000 		.4byte	0xfa
 1825 0531 12       		.uleb128 0x12
 1826 0532 75000000 		.4byte	.LASF87
 1827 0536 0B       		.byte	0xb
 1828 0537 0801     		.2byte	0x108
 1829 0539 FA000000 		.4byte	0xfa
 1830 053d 12       		.uleb128 0x12
 1831 053e 26030000 		.4byte	.LASF88
 1832 0542 0B       		.byte	0xb
ARM GAS  /tmp/ccxmVR4n.s 			page 68


 1833 0543 0F01     		.2byte	0x10f
 1834 0545 10030000 		.4byte	0x310
 1835 0549 12       		.uleb128 0x12
 1836 054a 19000000 		.4byte	.LASF89
 1837 054e 0B       		.byte	0xb
 1838 054f 1601     		.2byte	0x116
 1839 0551 86050000 		.4byte	0x586
 1840 0555 12       		.uleb128 0x12
 1841 0556 87000000 		.4byte	.LASF90
 1842 055a 0B       		.byte	0xb
 1843 055b 1B01     		.2byte	0x11b
 1844 055d FA000000 		.4byte	0xfa
 1845 0561 12       		.uleb128 0x12
 1846 0562 8E020000 		.4byte	.LASF91
 1847 0566 0B       		.byte	0xb
 1848 0567 2401     		.2byte	0x124
 1849 0569 B1050000 		.4byte	0x5b1
 1850 056d 12       		.uleb128 0x12
 1851 056e 72050000 		.4byte	.LASF92
 1852 0572 0B       		.byte	0xb
 1853 0573 2D01     		.2byte	0x12d
 1854 0575 E8050000 		.4byte	0x5e8
 1855 0579 12       		.uleb128 0x12
 1856 057a F0040000 		.4byte	.LASF93
 1857 057e 0B       		.byte	0xb
 1858 057f 3501     		.2byte	0x135
 1859 0581 05010000 		.4byte	0x105
 1860 0585 00       		.byte	0
 1861 0586 09       		.uleb128 0x9
 1862 0587 04       		.byte	0x4
 1863 0588 28020000 		.4byte	0x228
 1864 058c 05       		.uleb128 0x5
 1865 058d 51050000 		.4byte	.LASF94
 1866 0591 0C       		.byte	0xc
 1867 0592 0E       		.byte	0xe
 1868 0593 34       		.byte	0x34
 1869 0594 B1050000 		.4byte	0x5b1
 1870 0598 06       		.uleb128 0x6
 1871 0599 38010000 		.4byte	.LASF95
 1872 059d 0E       		.byte	0xe
 1873 059e 35       		.byte	0x35
 1874 059f 5D020000 		.4byte	0x25d
 1875 05a3 00       		.byte	0
 1876 05a4 06       		.uleb128 0x6
 1877 05a5 A9020000 		.4byte	.LASF96
 1878 05a9 0E       		.byte	0xe
 1879 05aa 37       		.byte	0x37
 1880 05ab 1B010000 		.4byte	0x11b
 1881 05af 08       		.byte	0x8
 1882 05b0 00       		.byte	0
 1883 05b1 09       		.uleb128 0x9
 1884 05b2 04       		.byte	0x4
 1885 05b3 8C050000 		.4byte	0x58c
 1886 05b7 05       		.uleb128 0x5
 1887 05b8 AD060000 		.4byte	.LASF97
 1888 05bc 10       		.byte	0x10
 1889 05bd 0F       		.byte	0xf
ARM GAS  /tmp/ccxmVR4n.s 			page 69


 1890 05be 39       		.byte	0x39
 1891 05bf E8050000 		.4byte	0x5e8
 1892 05c3 06       		.uleb128 0x6
 1893 05c4 F2000000 		.4byte	.LASF98
 1894 05c8 0F       		.byte	0xf
 1895 05c9 3A       		.byte	0x3a
 1896 05ca 5D020000 		.4byte	0x25d
 1897 05ce 00       		.byte	0
 1898 05cf 06       		.uleb128 0x6
 1899 05d0 1A070000 		.4byte	.LASF99
 1900 05d4 0F       		.byte	0xf
 1901 05d5 3C       		.byte	0x3c
 1902 05d6 33020000 		.4byte	0x233
 1903 05da 08       		.byte	0x8
 1904 05db 06       		.uleb128 0x6
 1905 05dc 1D060000 		.4byte	.LASF100
 1906 05e0 0F       		.byte	0xf
 1907 05e1 3E       		.byte	0x3e
 1908 05e2 2C060000 		.4byte	0x62c
 1909 05e6 0C       		.byte	0xc
 1910 05e7 00       		.byte	0
 1911 05e8 09       		.uleb128 0x9
 1912 05e9 04       		.byte	0x4
 1913 05ea B7050000 		.4byte	0x5b7
 1914 05ee 09       		.uleb128 0x9
 1915 05ef 04       		.byte	0x4
 1916 05f0 F4050000 		.4byte	0x5f4
 1917 05f4 13       		.uleb128 0x13
 1918 05f5 F9050000 		.4byte	0x5f9
 1919 05f9 03       		.uleb128 0x3
 1920 05fa 01       		.byte	0x1
 1921 05fb 08       		.byte	0x8
 1922 05fc F4050000 		.4byte	.LASF101
 1923 0600 09       		.uleb128 0x9
 1924 0601 04       		.byte	0x4
 1925 0602 58040000 		.4byte	0x458
 1926 0606 09       		.uleb128 0x9
 1927 0607 04       		.byte	0x4
 1928 0608 12030000 		.4byte	0x312
 1929 060c 14       		.uleb128 0x14
 1930 060d EE050000 		.4byte	0x5ee
 1931 0611 15       		.uleb128 0x15
 1932 0612 58040000 		.4byte	0x458
 1933 0616 21060000 		.4byte	0x621
 1934 061a 16       		.uleb128 0x16
 1935 061b 46040000 		.4byte	0x446
 1936 061f 1A       		.byte	0x1a
 1937 0620 00       		.byte	0
 1938 0621 04       		.uleb128 0x4
 1939 0622 67010000 		.4byte	.LASF102
 1940 0626 0F       		.byte	0xf
 1941 0627 34       		.byte	0x34
 1942 0628 B7050000 		.4byte	0x5b7
 1943 062c 09       		.uleb128 0x9
 1944 062d 04       		.byte	0x4
 1945 062e 21060000 		.4byte	0x621
 1946 0632 04       		.uleb128 0x4
ARM GAS  /tmp/ccxmVR4n.s 			page 70


 1947 0633 8B030000 		.4byte	.LASF103
 1948 0637 05       		.byte	0x5
 1949 0638 34       		.byte	0x34
 1950 0639 3D060000 		.4byte	0x63d
 1951 063d 05       		.uleb128 0x5
 1952 063e 30070000 		.4byte	.LASF104
 1953 0642 14       		.byte	0x14
 1954 0643 05       		.byte	0x5
 1955 0644 39       		.byte	0x39
 1956 0645 86060000 		.4byte	0x686
 1957 0649 06       		.uleb128 0x6
 1958 064a 04030000 		.4byte	.LASF105
 1959 064e 05       		.byte	0x5
 1960 064f 3A       		.byte	0x3a
 1961 0650 86060000 		.4byte	0x686
 1962 0654 00       		.byte	0
 1963 0655 06       		.uleb128 0x6
 1964 0656 B8040000 		.4byte	.LASF106
 1965 065a 05       		.byte	0x5
 1966 065b 3D       		.byte	0x3d
 1967 065c 33020000 		.4byte	0x233
 1968 0660 04       		.byte	0x4
 1969 0661 06       		.uleb128 0x6
 1970 0662 3D040000 		.4byte	.LASF107
 1971 0666 05       		.byte	0x5
 1972 0667 3F       		.byte	0x3f
 1973 0668 05010000 		.4byte	0x105
 1974 066c 08       		.byte	0x8
 1975 066d 06       		.uleb128 0x6
 1976 066e C4040000 		.4byte	.LASF108
 1977 0672 05       		.byte	0x5
 1978 0673 41       		.byte	0x41
 1979 0674 10010000 		.4byte	0x110
 1980 0678 0C       		.byte	0xc
 1981 0679 06       		.uleb128 0x6
 1982 067a DC020000 		.4byte	.LASF109
 1983 067e 05       		.byte	0x5
 1984 067f 43       		.byte	0x43
 1985 0680 10010000 		.4byte	0x110
 1986 0684 10       		.byte	0x10
 1987 0685 00       		.byte	0
 1988 0686 09       		.uleb128 0x9
 1989 0687 04       		.byte	0x4
 1990 0688 32060000 		.4byte	0x632
 1991 068c 05       		.uleb128 0x5
 1992 068d C4060000 		.4byte	.LASF110
 1993 0691 04       		.byte	0x4
 1994 0692 05       		.byte	0x5
 1995 0693 4A       		.byte	0x4a
 1996 0694 A5060000 		.4byte	0x6a5
 1997 0698 06       		.uleb128 0x6
 1998 0699 B6060000 		.4byte	.LASF111
 1999 069d 05       		.byte	0x5
 2000 069e 4B       		.byte	0x4b
 2001 069f 86060000 		.4byte	0x686
 2002 06a3 00       		.byte	0
 2003 06a4 00       		.byte	0
ARM GAS  /tmp/ccxmVR4n.s 			page 71


 2004 06a5 04       		.uleb128 0x4
 2005 06a6 75010000 		.4byte	.LASF112
 2006 06aa 05       		.byte	0x5
 2007 06ab 4E       		.byte	0x4e
 2008 06ac 8C060000 		.4byte	0x68c
 2009 06b0 10       		.uleb128 0x10
 2010 06b1 1C       		.byte	0x1c
 2011 06b2 10       		.byte	0x10
 2012 06b3 36       		.byte	0x36
 2013 06b4 DD060000 		.4byte	0x6dd
 2014 06b8 06       		.uleb128 0x6
 2015 06b9 81050000 		.4byte	.LASF113
 2016 06bd 10       		.byte	0x10
 2017 06be 37       		.byte	0x37
 2018 06bf 12030000 		.4byte	0x312
 2019 06c3 00       		.byte	0
 2020 06c4 06       		.uleb128 0x6
 2021 06c5 A6030000 		.4byte	.LASF114
 2022 06c9 10       		.byte	0x10
 2023 06ca 38       		.byte	0x38
 2024 06cb A5060000 		.4byte	0x6a5
 2025 06cf 14       		.byte	0x14
 2026 06d0 06       		.uleb128 0x6
 2027 06d1 00000000 		.4byte	.LASF115
 2028 06d5 10       		.byte	0x10
 2029 06d6 39       		.byte	0x39
 2030 06d7 26010000 		.4byte	0x126
 2031 06db 18       		.byte	0x18
 2032 06dc 00       		.byte	0
 2033 06dd 04       		.uleb128 0x4
 2034 06de 0C070000 		.4byte	.LASF116
 2035 06e2 10       		.byte	0x10
 2036 06e3 3A       		.byte	0x3a
 2037 06e4 B0060000 		.4byte	0x6b0
 2038 06e8 17       		.uleb128 0x17
 2039 06e9 4D060000 		.4byte	.LASF142
 2040 06ed 02       		.byte	0x2
 2041 06ee 2202     		.2byte	0x222
 2042 06f0 03       		.byte	0x3
 2043 06f1 02070000 		.4byte	0x702
 2044 06f5 18       		.uleb128 0x18
 2045 06f6 6F010000 		.4byte	.LASF143
 2046 06fa 02       		.byte	0x2
 2047 06fb 2202     		.2byte	0x222
 2048 06fd AD000000 		.4byte	0xad
 2049 0701 00       		.byte	0
 2050 0702 19       		.uleb128 0x19
 2051 0703 54000000 		.4byte	.LASF117
 2052 0707 01       		.byte	0x1
 2053 0708 C801     		.2byte	0x1c8
 2054 070a 00000000 		.4byte	.LFB127
 2055 070e 10000000 		.4byte	.LFE127-.LFB127
 2056 0712 01       		.uleb128 0x1
 2057 0713 9C       		.byte	0x9c
 2058 0714 32070000 		.4byte	0x732
 2059 0718 1A       		.uleb128 0x1a
 2060 0719 E8060000 		.4byte	0x6e8
ARM GAS  /tmp/ccxmVR4n.s 			page 72


 2061 071d 06000000 		.4byte	.LBB6
 2062 0721 06000000 		.4byte	.LBE6-.LBB6
 2063 0725 01       		.byte	0x1
 2064 0726 D001     		.2byte	0x1d0
 2065 0728 1B       		.uleb128 0x1b
 2066 0729 F5060000 		.4byte	0x6f5
 2067 072d 02       		.uleb128 0x2
 2068 072e 91       		.byte	0x91
 2069 072f 7C       		.sleb128 -4
 2070 0730 00       		.byte	0
 2071 0731 00       		.byte	0
 2072 0732 19       		.uleb128 0x19
 2073 0733 01010000 		.4byte	.LASF118
 2074 0737 01       		.byte	0x1
 2075 0738 E001     		.2byte	0x1e0
 2076 073a 00000000 		.4byte	.LFB128
 2077 073e 10000000 		.4byte	.LFE128-.LFB128
 2078 0742 01       		.uleb128 0x1
 2079 0743 9C       		.byte	0x9c
 2080 0744 62070000 		.4byte	0x762
 2081 0748 1A       		.uleb128 0x1a
 2082 0749 E8060000 		.4byte	0x6e8
 2083 074d 06000000 		.4byte	.LBB8
 2084 0751 06000000 		.4byte	.LBE8-.LBB8
 2085 0755 01       		.byte	0x1
 2086 0756 E301     		.2byte	0x1e3
 2087 0758 1B       		.uleb128 0x1b
 2088 0759 F5060000 		.4byte	0x6f5
 2089 075d 02       		.uleb128 0x2
 2090 075e 91       		.byte	0x91
 2091 075f 7C       		.sleb128 -4
 2092 0760 00       		.byte	0
 2093 0761 00       		.byte	0
 2094 0762 1C       		.uleb128 0x1c
 2095 0763 7C060000 		.4byte	.LASF119
 2096 0767 01       		.byte	0x1
 2097 0768 EF01     		.2byte	0x1ef
 2098 076a 00000000 		.4byte	.LFB129
 2099 076e 08000000 		.4byte	.LFE129-.LFB129
 2100 0772 01       		.uleb128 0x1
 2101 0773 9C       		.byte	0x9c
 2102 0774 1C       		.uleb128 0x1c
 2103 0775 FF050000 		.4byte	.LASF120
 2104 0779 01       		.byte	0x1
 2105 077a FA01     		.2byte	0x1fa
 2106 077c 00000000 		.4byte	.LFB130
 2107 0780 08000000 		.4byte	.LFE130-.LFB130
 2108 0784 01       		.uleb128 0x1
 2109 0785 9C       		.byte	0x9c
 2110 0786 1C       		.uleb128 0x1c
 2111 0787 0E050000 		.4byte	.LASF121
 2112 078b 03       		.byte	0x3
 2113 078c 5A01     		.2byte	0x15a
 2114 078e 00000000 		.4byte	.LFB167
 2115 0792 08000000 		.4byte	.LFE167-.LFB167
 2116 0796 01       		.uleb128 0x1
 2117 0797 9C       		.byte	0x9c
ARM GAS  /tmp/ccxmVR4n.s 			page 73


 2118 0798 1D       		.uleb128 0x1d
 2119 0799 00070000 		.4byte	.LASF122
 2120 079d 03       		.byte	0x3
 2121 079e 6601     		.2byte	0x166
 2122 07a0 00000000 		.4byte	.LFB168
 2123 07a4 08000000 		.4byte	.LFE168-.LFB168
 2124 07a8 01       		.uleb128 0x1
 2125 07a9 9C       		.byte	0x9c
 2126 07aa B8070000 		.4byte	0x7b8
 2127 07ae 1E       		.uleb128 0x1e
 2128 07af 40010000 		.4byte	.LASF144
 2129 07b3 C8070000 		.4byte	0x7c8
 2130 07b7 00       		.byte	0
 2131 07b8 15       		.uleb128 0x15
 2132 07b9 F9050000 		.4byte	0x5f9
 2133 07bd C8070000 		.4byte	0x7c8
 2134 07c1 16       		.uleb128 0x16
 2135 07c2 46040000 		.4byte	0x446
 2136 07c6 0B       		.byte	0xb
 2137 07c7 00       		.byte	0
 2138 07c8 13       		.uleb128 0x13
 2139 07c9 B8070000 		.4byte	0x7b8
 2140 07cd 1C       		.uleb128 0x1c
 2141 07ce D9060000 		.4byte	.LASF123
 2142 07d2 03       		.byte	0x3
 2143 07d3 8201     		.2byte	0x182
 2144 07d5 00000000 		.4byte	.LFB169
 2145 07d9 08000000 		.4byte	.LFE169-.LFB169
 2146 07dd 01       		.uleb128 0x1
 2147 07de 9C       		.byte	0x9c
 2148 07df 1C       		.uleb128 0x1c
 2149 07e0 79040000 		.4byte	.LASF124
 2150 07e4 03       		.byte	0x3
 2151 07e5 9601     		.2byte	0x196
 2152 07e7 00000000 		.4byte	.LFB170
 2153 07eb 08000000 		.4byte	.LFE170-.LFB170
 2154 07ef 01       		.uleb128 0x1
 2155 07f0 9C       		.byte	0x9c
 2156 07f1 1F       		.uleb128 0x1f
 2157 07f2 51030000 		.4byte	.LASF125
 2158 07f6 04       		.byte	0x4
 2159 07f7 D2       		.byte	0xd2
 2160 07f8 00000000 		.4byte	.LFB174
 2161 07fc 0E000000 		.4byte	.LFE174-.LFB174
 2162 0800 01       		.uleb128 0x1
 2163 0801 9C       		.byte	0x9c
 2164 0802 15080000 		.4byte	0x815
 2165 0806 20       		.uleb128 0x20
 2166 0807 76747000 		.ascii	"vtp\000"
 2167 080b 04       		.byte	0x4
 2168 080c D2       		.byte	0xd2
 2169 080d 06060000 		.4byte	0x606
 2170 0811 02       		.uleb128 0x2
 2171 0812 91       		.byte	0x91
 2172 0813 7C       		.sleb128 -4
 2173 0814 00       		.byte	0
 2174 0815 21       		.uleb128 0x21
ARM GAS  /tmp/ccxmVR4n.s 			page 74


 2175 0816 18050000 		.4byte	.LASF145
 2176 081a 04       		.byte	0x4
 2177 081b 7501     		.2byte	0x175
 2178 081d 3F080000 		.4byte	0x83f
 2179 0821 00000000 		.4byte	.LFB182
 2180 0825 18000000 		.4byte	.LFE182-.LFB182
 2181 0829 01       		.uleb128 0x1
 2182 082a 9C       		.byte	0x9c
 2183 082b 3F080000 		.4byte	0x83f
 2184 082f 22       		.uleb128 0x22
 2185 0830 76747000 		.ascii	"vtp\000"
 2186 0834 04       		.byte	0x4
 2187 0835 7501     		.2byte	0x175
 2188 0837 06060000 		.4byte	0x606
 2189 083b 02       		.uleb128 0x2
 2190 083c 91       		.byte	0x91
 2191 083d 7C       		.sleb128 -4
 2192 083e 00       		.byte	0
 2193 083f 03       		.uleb128 0x3
 2194 0840 01       		.byte	0x1
 2195 0841 02       		.byte	0x2
 2196 0842 9C040000 		.4byte	.LASF126
 2197 0846 1D       		.uleb128 0x1d
 2198 0847 46050000 		.4byte	.LASF127
 2199 084b 04       		.byte	0x4
 2200 084c 9A01     		.2byte	0x19a
 2201 084e 00000000 		.4byte	.LFB184
 2202 0852 1E000000 		.4byte	.LFE184-.LFB184
 2203 0856 01       		.uleb128 0x1
 2204 0857 9C       		.byte	0x9c
 2205 0858 6C080000 		.4byte	0x86c
 2206 085c 22       		.uleb128 0x22
 2207 085d 76747000 		.ascii	"vtp\000"
 2208 0861 04       		.byte	0x4
 2209 0862 9A01     		.2byte	0x19a
 2210 0864 06060000 		.4byte	0x606
 2211 0868 02       		.uleb128 0x2
 2212 0869 91       		.byte	0x91
 2213 086a 74       		.sleb128 -12
 2214 086b 00       		.byte	0
 2215 086c 1D       		.uleb128 0x1d
 2216 086d EB030000 		.4byte	.LASF128
 2217 0871 04       		.byte	0x4
 2218 0872 C801     		.2byte	0x1c8
 2219 0874 00000000 		.4byte	.LFB186
 2220 0878 24000000 		.4byte	.LFE186-.LFB186
 2221 087c 01       		.uleb128 0x1
 2222 087d 9C       		.byte	0x9c
 2223 087e BF080000 		.4byte	0x8bf
 2224 0882 22       		.uleb128 0x22
 2225 0883 76747000 		.ascii	"vtp\000"
 2226 0887 04       		.byte	0x4
 2227 0888 C801     		.2byte	0x1c8
 2228 088a 06060000 		.4byte	0x606
 2229 088e 02       		.uleb128 0x2
 2230 088f 91       		.byte	0x91
 2231 0890 74       		.sleb128 -12
ARM GAS  /tmp/ccxmVR4n.s 			page 75


 2232 0891 23       		.uleb128 0x23
 2233 0892 B2000000 		.4byte	.LASF129
 2234 0896 04       		.byte	0x4
 2235 0897 C801     		.2byte	0x1c8
 2236 0899 26010000 		.4byte	0x126
 2237 089d 02       		.uleb128 0x2
 2238 089e 91       		.byte	0x91
 2239 089f 70       		.sleb128 -16
 2240 08a0 23       		.uleb128 0x23
 2241 08a1 96060000 		.4byte	.LASF130
 2242 08a5 04       		.byte	0x4
 2243 08a6 C901     		.2byte	0x1c9
 2244 08a8 F4020000 		.4byte	0x2f4
 2245 08ac 02       		.uleb128 0x2
 2246 08ad 91       		.byte	0x91
 2247 08ae 6C       		.sleb128 -20
 2248 08af 22       		.uleb128 0x22
 2249 08b0 70617200 		.ascii	"par\000"
 2250 08b4 04       		.byte	0x4
 2251 08b5 C901     		.2byte	0x1c9
 2252 08b7 10030000 		.4byte	0x310
 2253 08bb 02       		.uleb128 0x2
 2254 08bc 91       		.byte	0x91
 2255 08bd 68       		.sleb128 -24
 2256 08be 00       		.byte	0
 2257 08bf 1D       		.uleb128 0x1d
 2258 08c0 02040000 		.4byte	.LASF131
 2259 08c4 04       		.byte	0x4
 2260 08c5 E501     		.2byte	0x1e5
 2261 08c7 00000000 		.4byte	.LFB187
 2262 08cb 26000000 		.4byte	.LFE187-.LFB187
 2263 08cf 01       		.uleb128 0x1
 2264 08d0 9C       		.byte	0x9c
 2265 08d1 12090000 		.4byte	0x912
 2266 08d5 22       		.uleb128 0x22
 2267 08d6 76747000 		.ascii	"vtp\000"
 2268 08da 04       		.byte	0x4
 2269 08db E501     		.2byte	0x1e5
 2270 08dd 06060000 		.4byte	0x606
 2271 08e1 02       		.uleb128 0x2
 2272 08e2 91       		.byte	0x91
 2273 08e3 74       		.sleb128 -12
 2274 08e4 23       		.uleb128 0x23
 2275 08e5 B2000000 		.4byte	.LASF129
 2276 08e9 04       		.byte	0x4
 2277 08ea E501     		.2byte	0x1e5
 2278 08ec 26010000 		.4byte	0x126
 2279 08f0 02       		.uleb128 0x2
 2280 08f1 91       		.byte	0x91
 2281 08f2 70       		.sleb128 -16
 2282 08f3 23       		.uleb128 0x23
 2283 08f4 96060000 		.4byte	.LASF130
 2284 08f8 04       		.byte	0x4
 2285 08f9 E601     		.2byte	0x1e6
 2286 08fb F4020000 		.4byte	0x2f4
 2287 08ff 02       		.uleb128 0x2
 2288 0900 91       		.byte	0x91
ARM GAS  /tmp/ccxmVR4n.s 			page 76


 2289 0901 6C       		.sleb128 -20
 2290 0902 22       		.uleb128 0x22
 2291 0903 70617200 		.ascii	"par\000"
 2292 0907 04       		.byte	0x4
 2293 0908 E601     		.2byte	0x1e6
 2294 090a 10030000 		.4byte	0x310
 2295 090e 02       		.uleb128 0x2
 2296 090f 91       		.byte	0x91
 2297 0910 68       		.sleb128 -24
 2298 0911 00       		.byte	0
 2299 0912 1F       		.uleb128 0x1f
 2300 0913 AF020000 		.4byte	.LASF132
 2301 0917 05       		.byte	0x5
 2302 0918 AA       		.byte	0xaa
 2303 0919 00000000 		.4byte	.LFB216
 2304 091d 0E000000 		.4byte	.LFE216-.LFB216
 2305 0921 01       		.uleb128 0x1
 2306 0922 9C       		.byte	0x9c
 2307 0923 36090000 		.4byte	0x936
 2308 0927 20       		.uleb128 0x20
 2309 0928 65737000 		.ascii	"esp\000"
 2310 092c 05       		.byte	0x5
 2311 092d AA       		.byte	0xaa
 2312 092e 36090000 		.4byte	0x936
 2313 0932 02       		.uleb128 0x2
 2314 0933 91       		.byte	0x91
 2315 0934 7C       		.sleb128 -4
 2316 0935 00       		.byte	0
 2317 0936 09       		.uleb128 0x9
 2318 0937 04       		.byte	0x4
 2319 0938 A5060000 		.4byte	0x6a5
 2320 093c 24       		.uleb128 0x24
 2321 093d 25050000 		.4byte	.LASF133
 2322 0941 05       		.byte	0x5
 2323 0942 FE       		.byte	0xfe
 2324 0943 00000000 		.4byte	.LFB221
 2325 0947 14000000 		.4byte	.LFE221-.LFB221
 2326 094b 01       		.uleb128 0x1
 2327 094c 9C       		.byte	0x9c
 2328 094d 60090000 		.4byte	0x960
 2329 0951 20       		.uleb128 0x20
 2330 0952 65737000 		.ascii	"esp\000"
 2331 0956 05       		.byte	0x5
 2332 0957 FE       		.byte	0xfe
 2333 0958 36090000 		.4byte	0x936
 2334 095c 02       		.uleb128 0x2
 2335 095d 91       		.byte	0x91
 2336 095e 74       		.sleb128 -12
 2337 095f 00       		.byte	0
 2338 0960 24       		.uleb128 0x24
 2339 0961 F9050000 		.4byte	.LASF134
 2340 0965 06       		.byte	0x6
 2341 0966 30       		.byte	0x30
 2342 0967 00000000 		.4byte	.LFB242
 2343 096b 38000000 		.4byte	.LFE242-.LFB242
 2344 096f 01       		.uleb128 0x1
 2345 0970 9C       		.byte	0x9c
ARM GAS  /tmp/ccxmVR4n.s 			page 77


 2346 0971 90090000 		.4byte	0x990
 2347 0975 20       		.uleb128 0x20
 2348 0976 7000     		.ascii	"p\000"
 2349 0978 06       		.byte	0x6
 2350 0979 30       		.byte	0x30
 2351 097a 10030000 		.4byte	0x310
 2352 097e 02       		.uleb128 0x2
 2353 097f 91       		.byte	0x91
 2354 0980 6C       		.sleb128 -20
 2355 0981 25       		.uleb128 0x25
 2356 0982 65747000 		.ascii	"etp\000"
 2357 0986 06       		.byte	0x6
 2358 0987 31       		.byte	0x31
 2359 0988 90090000 		.4byte	0x990
 2360 098c 02       		.uleb128 0x2
 2361 098d 91       		.byte	0x91
 2362 098e 74       		.sleb128 -12
 2363 098f 00       		.byte	0
 2364 0990 09       		.uleb128 0x9
 2365 0991 04       		.byte	0x4
 2366 0992 DD060000 		.4byte	0x6dd
 2367 0996 26       		.uleb128 0x26
 2368 0997 18030000 		.4byte	.LASF136
 2369 099b 06       		.byte	0x6
 2370 099c 43       		.byte	0x43
 2371 099d 00000000 		.4byte	.LFB243
 2372 09a1 26000000 		.4byte	.LFE243-.LFB243
 2373 09a5 01       		.uleb128 0x1
 2374 09a6 9C       		.byte	0x9c
 2375 09a7 C8090000 		.4byte	0x9c8
 2376 09ab 20       		.uleb128 0x20
 2377 09ac 65747000 		.ascii	"etp\000"
 2378 09b0 06       		.byte	0x6
 2379 09b1 43       		.byte	0x43
 2380 09b2 90090000 		.4byte	0x990
 2381 09b6 02       		.uleb128 0x2
 2382 09b7 91       		.byte	0x91
 2383 09b8 74       		.sleb128 -12
 2384 09b9 27       		.uleb128 0x27
 2385 09ba 26040000 		.4byte	.LASF135
 2386 09be 06       		.byte	0x6
 2387 09bf 43       		.byte	0x43
 2388 09c0 26010000 		.4byte	0x126
 2389 09c4 02       		.uleb128 0x2
 2390 09c5 91       		.byte	0x91
 2391 09c6 70       		.sleb128 -16
 2392 09c7 00       		.byte	0
 2393 09c8 26       		.uleb128 0x26
 2394 09c9 7E000000 		.4byte	.LASF137
 2395 09cd 06       		.byte	0x6
 2396 09ce 50       		.byte	0x50
 2397 09cf 00000000 		.4byte	.LFB244
 2398 09d3 24000000 		.4byte	.LFE244-.LFB244
 2399 09d7 01       		.uleb128 0x1
 2400 09d8 9C       		.byte	0x9c
 2401 09d9 EC090000 		.4byte	0x9ec
 2402 09dd 20       		.uleb128 0x20
ARM GAS  /tmp/ccxmVR4n.s 			page 78


 2403 09de 65747000 		.ascii	"etp\000"
 2404 09e2 06       		.byte	0x6
 2405 09e3 50       		.byte	0x50
 2406 09e4 90090000 		.4byte	0x990
 2407 09e8 02       		.uleb128 0x2
 2408 09e9 91       		.byte	0x91
 2409 09ea 74       		.sleb128 -12
 2410 09eb 00       		.byte	0
 2411 09ec 28       		.uleb128 0x28
 2412 09ed A5000000 		.4byte	.LASF138
 2413 09f1 11       		.byte	0x11
 2414 09f2 FA06     		.2byte	0x6fa
 2415 09f4 F8090000 		.4byte	0x9f8
 2416 09f8 14       		.uleb128 0x14
 2417 09f9 A2000000 		.4byte	0xa2
 2418 09fd 29       		.uleb128 0x29
 2419 09fe 636800   		.ascii	"ch\000"
 2420 0a01 0B       		.byte	0xb
 2421 0a02 0B02     		.2byte	0x20b
 2422 0a04 DF030000 		.4byte	0x3df
 2423 0a08 00       		.byte	0
 2424              		.section	.debug_abbrev,"",%progbits
 2425              	.Ldebug_abbrev0:
 2426 0000 01       		.uleb128 0x1
 2427 0001 11       		.uleb128 0x11
 2428 0002 01       		.byte	0x1
 2429 0003 25       		.uleb128 0x25
 2430 0004 0E       		.uleb128 0xe
 2431 0005 13       		.uleb128 0x13
 2432 0006 0B       		.uleb128 0xb
 2433 0007 03       		.uleb128 0x3
 2434 0008 0E       		.uleb128 0xe
 2435 0009 1B       		.uleb128 0x1b
 2436 000a 0E       		.uleb128 0xe
 2437 000b 55       		.uleb128 0x55
 2438 000c 17       		.uleb128 0x17
 2439 000d 11       		.uleb128 0x11
 2440 000e 01       		.uleb128 0x1
 2441 000f 10       		.uleb128 0x10
 2442 0010 17       		.uleb128 0x17
 2443 0011 00       		.byte	0
 2444 0012 00       		.byte	0
 2445 0013 02       		.uleb128 0x2
 2446 0014 24       		.uleb128 0x24
 2447 0015 00       		.byte	0
 2448 0016 0B       		.uleb128 0xb
 2449 0017 0B       		.uleb128 0xb
 2450 0018 3E       		.uleb128 0x3e
 2451 0019 0B       		.uleb128 0xb
 2452 001a 03       		.uleb128 0x3
 2453 001b 08       		.uleb128 0x8
 2454 001c 00       		.byte	0
 2455 001d 00       		.byte	0
 2456 001e 03       		.uleb128 0x3
 2457 001f 24       		.uleb128 0x24
 2458 0020 00       		.byte	0
 2459 0021 0B       		.uleb128 0xb
ARM GAS  /tmp/ccxmVR4n.s 			page 79


 2460 0022 0B       		.uleb128 0xb
 2461 0023 3E       		.uleb128 0x3e
 2462 0024 0B       		.uleb128 0xb
 2463 0025 03       		.uleb128 0x3
 2464 0026 0E       		.uleb128 0xe
 2465 0027 00       		.byte	0
 2466 0028 00       		.byte	0
 2467 0029 04       		.uleb128 0x4
 2468 002a 16       		.uleb128 0x16
 2469 002b 00       		.byte	0
 2470 002c 03       		.uleb128 0x3
 2471 002d 0E       		.uleb128 0xe
 2472 002e 3A       		.uleb128 0x3a
 2473 002f 0B       		.uleb128 0xb
 2474 0030 3B       		.uleb128 0x3b
 2475 0031 0B       		.uleb128 0xb
 2476 0032 49       		.uleb128 0x49
 2477 0033 13       		.uleb128 0x13
 2478 0034 00       		.byte	0
 2479 0035 00       		.byte	0
 2480 0036 05       		.uleb128 0x5
 2481 0037 13       		.uleb128 0x13
 2482 0038 01       		.byte	0x1
 2483 0039 03       		.uleb128 0x3
 2484 003a 0E       		.uleb128 0xe
 2485 003b 0B       		.uleb128 0xb
 2486 003c 0B       		.uleb128 0xb
 2487 003d 3A       		.uleb128 0x3a
 2488 003e 0B       		.uleb128 0xb
 2489 003f 3B       		.uleb128 0x3b
 2490 0040 0B       		.uleb128 0xb
 2491 0041 01       		.uleb128 0x1
 2492 0042 13       		.uleb128 0x13
 2493 0043 00       		.byte	0
 2494 0044 00       		.byte	0
 2495 0045 06       		.uleb128 0x6
 2496 0046 0D       		.uleb128 0xd
 2497 0047 00       		.byte	0
 2498 0048 03       		.uleb128 0x3
 2499 0049 0E       		.uleb128 0xe
 2500 004a 3A       		.uleb128 0x3a
 2501 004b 0B       		.uleb128 0xb
 2502 004c 3B       		.uleb128 0x3b
 2503 004d 0B       		.uleb128 0xb
 2504 004e 49       		.uleb128 0x49
 2505 004f 13       		.uleb128 0x13
 2506 0050 38       		.uleb128 0x38
 2507 0051 0B       		.uleb128 0xb
 2508 0052 00       		.byte	0
 2509 0053 00       		.byte	0
 2510 0054 07       		.uleb128 0x7
 2511 0055 0D       		.uleb128 0xd
 2512 0056 00       		.byte	0
 2513 0057 03       		.uleb128 0x3
 2514 0058 08       		.uleb128 0x8
 2515 0059 3A       		.uleb128 0x3a
 2516 005a 0B       		.uleb128 0xb
ARM GAS  /tmp/ccxmVR4n.s 			page 80


 2517 005b 3B       		.uleb128 0x3b
 2518 005c 05       		.uleb128 0x5
 2519 005d 49       		.uleb128 0x49
 2520 005e 13       		.uleb128 0x13
 2521 005f 38       		.uleb128 0x38
 2522 0060 0B       		.uleb128 0xb
 2523 0061 00       		.byte	0
 2524 0062 00       		.byte	0
 2525 0063 08       		.uleb128 0x8
 2526 0064 0D       		.uleb128 0xd
 2527 0065 00       		.byte	0
 2528 0066 03       		.uleb128 0x3
 2529 0067 0E       		.uleb128 0xe
 2530 0068 3A       		.uleb128 0x3a
 2531 0069 0B       		.uleb128 0xb
 2532 006a 3B       		.uleb128 0x3b
 2533 006b 05       		.uleb128 0x5
 2534 006c 49       		.uleb128 0x49
 2535 006d 13       		.uleb128 0x13
 2536 006e 38       		.uleb128 0x38
 2537 006f 0B       		.uleb128 0xb
 2538 0070 00       		.byte	0
 2539 0071 00       		.byte	0
 2540 0072 09       		.uleb128 0x9
 2541 0073 0F       		.uleb128 0xf
 2542 0074 00       		.byte	0
 2543 0075 0B       		.uleb128 0xb
 2544 0076 0B       		.uleb128 0xb
 2545 0077 49       		.uleb128 0x49
 2546 0078 13       		.uleb128 0x13
 2547 0079 00       		.byte	0
 2548 007a 00       		.byte	0
 2549 007b 0A       		.uleb128 0xa
 2550 007c 13       		.uleb128 0x13
 2551 007d 01       		.byte	0x1
 2552 007e 03       		.uleb128 0x3
 2553 007f 0E       		.uleb128 0xe
 2554 0080 0B       		.uleb128 0xb
 2555 0081 0B       		.uleb128 0xb
 2556 0082 3A       		.uleb128 0x3a
 2557 0083 0B       		.uleb128 0xb
 2558 0084 3B       		.uleb128 0x3b
 2559 0085 05       		.uleb128 0x5
 2560 0086 01       		.uleb128 0x1
 2561 0087 13       		.uleb128 0x13
 2562 0088 00       		.byte	0
 2563 0089 00       		.byte	0
 2564 008a 0B       		.uleb128 0xb
 2565 008b 15       		.uleb128 0x15
 2566 008c 01       		.byte	0x1
 2567 008d 27       		.uleb128 0x27
 2568 008e 19       		.uleb128 0x19
 2569 008f 01       		.uleb128 0x1
 2570 0090 13       		.uleb128 0x13
 2571 0091 00       		.byte	0
 2572 0092 00       		.byte	0
 2573 0093 0C       		.uleb128 0xc
ARM GAS  /tmp/ccxmVR4n.s 			page 81


 2574 0094 05       		.uleb128 0x5
 2575 0095 00       		.byte	0
 2576 0096 49       		.uleb128 0x49
 2577 0097 13       		.uleb128 0x13
 2578 0098 00       		.byte	0
 2579 0099 00       		.byte	0
 2580 009a 0D       		.uleb128 0xd
 2581 009b 0F       		.uleb128 0xf
 2582 009c 00       		.byte	0
 2583 009d 0B       		.uleb128 0xb
 2584 009e 0B       		.uleb128 0xb
 2585 009f 00       		.byte	0
 2586 00a0 00       		.byte	0
 2587 00a1 0E       		.uleb128 0xe
 2588 00a2 13       		.uleb128 0x13
 2589 00a3 01       		.byte	0x1
 2590 00a4 03       		.uleb128 0x3
 2591 00a5 0E       		.uleb128 0xe
 2592 00a6 0B       		.uleb128 0xb
 2593 00a7 05       		.uleb128 0x5
 2594 00a8 3A       		.uleb128 0x3a
 2595 00a9 0B       		.uleb128 0xb
 2596 00aa 3B       		.uleb128 0x3b
 2597 00ab 05       		.uleb128 0x5
 2598 00ac 01       		.uleb128 0x1
 2599 00ad 13       		.uleb128 0x13
 2600 00ae 00       		.byte	0
 2601 00af 00       		.byte	0
 2602 00b0 0F       		.uleb128 0xf
 2603 00b1 0D       		.uleb128 0xd
 2604 00b2 00       		.byte	0
 2605 00b3 03       		.uleb128 0x3
 2606 00b4 08       		.uleb128 0x8
 2607 00b5 3A       		.uleb128 0x3a
 2608 00b6 0B       		.uleb128 0xb
 2609 00b7 3B       		.uleb128 0x3b
 2610 00b8 0B       		.uleb128 0xb
 2611 00b9 49       		.uleb128 0x49
 2612 00ba 13       		.uleb128 0x13
 2613 00bb 38       		.uleb128 0x38
 2614 00bc 0B       		.uleb128 0xb
 2615 00bd 00       		.byte	0
 2616 00be 00       		.byte	0
 2617 00bf 10       		.uleb128 0x10
 2618 00c0 13       		.uleb128 0x13
 2619 00c1 01       		.byte	0x1
 2620 00c2 0B       		.uleb128 0xb
 2621 00c3 0B       		.uleb128 0xb
 2622 00c4 3A       		.uleb128 0x3a
 2623 00c5 0B       		.uleb128 0xb
 2624 00c6 3B       		.uleb128 0x3b
 2625 00c7 0B       		.uleb128 0xb
 2626 00c8 01       		.uleb128 0x1
 2627 00c9 13       		.uleb128 0x13
 2628 00ca 00       		.byte	0
 2629 00cb 00       		.byte	0
 2630 00cc 11       		.uleb128 0x11
ARM GAS  /tmp/ccxmVR4n.s 			page 82


 2631 00cd 17       		.uleb128 0x17
 2632 00ce 01       		.byte	0x1
 2633 00cf 0B       		.uleb128 0xb
 2634 00d0 0B       		.uleb128 0xb
 2635 00d1 3A       		.uleb128 0x3a
 2636 00d2 0B       		.uleb128 0xb
 2637 00d3 3B       		.uleb128 0x3b
 2638 00d4 0B       		.uleb128 0xb
 2639 00d5 01       		.uleb128 0x1
 2640 00d6 13       		.uleb128 0x13
 2641 00d7 00       		.byte	0
 2642 00d8 00       		.byte	0
 2643 00d9 12       		.uleb128 0x12
 2644 00da 0D       		.uleb128 0xd
 2645 00db 00       		.byte	0
 2646 00dc 03       		.uleb128 0x3
 2647 00dd 0E       		.uleb128 0xe
 2648 00de 3A       		.uleb128 0x3a
 2649 00df 0B       		.uleb128 0xb
 2650 00e0 3B       		.uleb128 0x3b
 2651 00e1 05       		.uleb128 0x5
 2652 00e2 49       		.uleb128 0x49
 2653 00e3 13       		.uleb128 0x13
 2654 00e4 00       		.byte	0
 2655 00e5 00       		.byte	0
 2656 00e6 13       		.uleb128 0x13
 2657 00e7 26       		.uleb128 0x26
 2658 00e8 00       		.byte	0
 2659 00e9 49       		.uleb128 0x49
 2660 00ea 13       		.uleb128 0x13
 2661 00eb 00       		.byte	0
 2662 00ec 00       		.byte	0
 2663 00ed 14       		.uleb128 0x14
 2664 00ee 35       		.uleb128 0x35
 2665 00ef 00       		.byte	0
 2666 00f0 49       		.uleb128 0x49
 2667 00f1 13       		.uleb128 0x13
 2668 00f2 00       		.byte	0
 2669 00f3 00       		.byte	0
 2670 00f4 15       		.uleb128 0x15
 2671 00f5 01       		.uleb128 0x1
 2672 00f6 01       		.byte	0x1
 2673 00f7 49       		.uleb128 0x49
 2674 00f8 13       		.uleb128 0x13
 2675 00f9 01       		.uleb128 0x1
 2676 00fa 13       		.uleb128 0x13
 2677 00fb 00       		.byte	0
 2678 00fc 00       		.byte	0
 2679 00fd 16       		.uleb128 0x16
 2680 00fe 21       		.uleb128 0x21
 2681 00ff 00       		.byte	0
 2682 0100 49       		.uleb128 0x49
 2683 0101 13       		.uleb128 0x13
 2684 0102 2F       		.uleb128 0x2f
 2685 0103 0B       		.uleb128 0xb
 2686 0104 00       		.byte	0
 2687 0105 00       		.byte	0
ARM GAS  /tmp/ccxmVR4n.s 			page 83


 2688 0106 17       		.uleb128 0x17
 2689 0107 2E       		.uleb128 0x2e
 2690 0108 01       		.byte	0x1
 2691 0109 03       		.uleb128 0x3
 2692 010a 0E       		.uleb128 0xe
 2693 010b 3A       		.uleb128 0x3a
 2694 010c 0B       		.uleb128 0xb
 2695 010d 3B       		.uleb128 0x3b
 2696 010e 05       		.uleb128 0x5
 2697 010f 27       		.uleb128 0x27
 2698 0110 19       		.uleb128 0x19
 2699 0111 20       		.uleb128 0x20
 2700 0112 0B       		.uleb128 0xb
 2701 0113 01       		.uleb128 0x1
 2702 0114 13       		.uleb128 0x13
 2703 0115 00       		.byte	0
 2704 0116 00       		.byte	0
 2705 0117 18       		.uleb128 0x18
 2706 0118 05       		.uleb128 0x5
 2707 0119 00       		.byte	0
 2708 011a 03       		.uleb128 0x3
 2709 011b 0E       		.uleb128 0xe
 2710 011c 3A       		.uleb128 0x3a
 2711 011d 0B       		.uleb128 0xb
 2712 011e 3B       		.uleb128 0x3b
 2713 011f 05       		.uleb128 0x5
 2714 0120 49       		.uleb128 0x49
 2715 0121 13       		.uleb128 0x13
 2716 0122 00       		.byte	0
 2717 0123 00       		.byte	0
 2718 0124 19       		.uleb128 0x19
 2719 0125 2E       		.uleb128 0x2e
 2720 0126 01       		.byte	0x1
 2721 0127 03       		.uleb128 0x3
 2722 0128 0E       		.uleb128 0xe
 2723 0129 3A       		.uleb128 0x3a
 2724 012a 0B       		.uleb128 0xb
 2725 012b 3B       		.uleb128 0x3b
 2726 012c 05       		.uleb128 0x5
 2727 012d 27       		.uleb128 0x27
 2728 012e 19       		.uleb128 0x19
 2729 012f 11       		.uleb128 0x11
 2730 0130 01       		.uleb128 0x1
 2731 0131 12       		.uleb128 0x12
 2732 0132 06       		.uleb128 0x6
 2733 0133 40       		.uleb128 0x40
 2734 0134 18       		.uleb128 0x18
 2735 0135 9742     		.uleb128 0x2117
 2736 0137 19       		.uleb128 0x19
 2737 0138 01       		.uleb128 0x1
 2738 0139 13       		.uleb128 0x13
 2739 013a 00       		.byte	0
 2740 013b 00       		.byte	0
 2741 013c 1A       		.uleb128 0x1a
 2742 013d 1D       		.uleb128 0x1d
 2743 013e 01       		.byte	0x1
 2744 013f 31       		.uleb128 0x31
ARM GAS  /tmp/ccxmVR4n.s 			page 84


 2745 0140 13       		.uleb128 0x13
 2746 0141 11       		.uleb128 0x11
 2747 0142 01       		.uleb128 0x1
 2748 0143 12       		.uleb128 0x12
 2749 0144 06       		.uleb128 0x6
 2750 0145 58       		.uleb128 0x58
 2751 0146 0B       		.uleb128 0xb
 2752 0147 59       		.uleb128 0x59
 2753 0148 05       		.uleb128 0x5
 2754 0149 00       		.byte	0
 2755 014a 00       		.byte	0
 2756 014b 1B       		.uleb128 0x1b
 2757 014c 05       		.uleb128 0x5
 2758 014d 00       		.byte	0
 2759 014e 31       		.uleb128 0x31
 2760 014f 13       		.uleb128 0x13
 2761 0150 02       		.uleb128 0x2
 2762 0151 18       		.uleb128 0x18
 2763 0152 00       		.byte	0
 2764 0153 00       		.byte	0
 2765 0154 1C       		.uleb128 0x1c
 2766 0155 2E       		.uleb128 0x2e
 2767 0156 00       		.byte	0
 2768 0157 03       		.uleb128 0x3
 2769 0158 0E       		.uleb128 0xe
 2770 0159 3A       		.uleb128 0x3a
 2771 015a 0B       		.uleb128 0xb
 2772 015b 3B       		.uleb128 0x3b
 2773 015c 05       		.uleb128 0x5
 2774 015d 27       		.uleb128 0x27
 2775 015e 19       		.uleb128 0x19
 2776 015f 11       		.uleb128 0x11
 2777 0160 01       		.uleb128 0x1
 2778 0161 12       		.uleb128 0x12
 2779 0162 06       		.uleb128 0x6
 2780 0163 40       		.uleb128 0x40
 2781 0164 18       		.uleb128 0x18
 2782 0165 9642     		.uleb128 0x2116
 2783 0167 19       		.uleb128 0x19
 2784 0168 00       		.byte	0
 2785 0169 00       		.byte	0
 2786 016a 1D       		.uleb128 0x1d
 2787 016b 2E       		.uleb128 0x2e
 2788 016c 01       		.byte	0x1
 2789 016d 03       		.uleb128 0x3
 2790 016e 0E       		.uleb128 0xe
 2791 016f 3A       		.uleb128 0x3a
 2792 0170 0B       		.uleb128 0xb
 2793 0171 3B       		.uleb128 0x3b
 2794 0172 05       		.uleb128 0x5
 2795 0173 27       		.uleb128 0x27
 2796 0174 19       		.uleb128 0x19
 2797 0175 11       		.uleb128 0x11
 2798 0176 01       		.uleb128 0x1
 2799 0177 12       		.uleb128 0x12
 2800 0178 06       		.uleb128 0x6
 2801 0179 40       		.uleb128 0x40
ARM GAS  /tmp/ccxmVR4n.s 			page 85


 2802 017a 18       		.uleb128 0x18
 2803 017b 9642     		.uleb128 0x2116
 2804 017d 19       		.uleb128 0x19
 2805 017e 01       		.uleb128 0x1
 2806 017f 13       		.uleb128 0x13
 2807 0180 00       		.byte	0
 2808 0181 00       		.byte	0
 2809 0182 1E       		.uleb128 0x1e
 2810 0183 34       		.uleb128 0x34
 2811 0184 00       		.byte	0
 2812 0185 03       		.uleb128 0x3
 2813 0186 0E       		.uleb128 0xe
 2814 0187 49       		.uleb128 0x49
 2815 0188 13       		.uleb128 0x13
 2816 0189 34       		.uleb128 0x34
 2817 018a 19       		.uleb128 0x19
 2818 018b 00       		.byte	0
 2819 018c 00       		.byte	0
 2820 018d 1F       		.uleb128 0x1f
 2821 018e 2E       		.uleb128 0x2e
 2822 018f 01       		.byte	0x1
 2823 0190 03       		.uleb128 0x3
 2824 0191 0E       		.uleb128 0xe
 2825 0192 3A       		.uleb128 0x3a
 2826 0193 0B       		.uleb128 0xb
 2827 0194 3B       		.uleb128 0x3b
 2828 0195 0B       		.uleb128 0xb
 2829 0196 27       		.uleb128 0x27
 2830 0197 19       		.uleb128 0x19
 2831 0198 11       		.uleb128 0x11
 2832 0199 01       		.uleb128 0x1
 2833 019a 12       		.uleb128 0x12
 2834 019b 06       		.uleb128 0x6
 2835 019c 40       		.uleb128 0x40
 2836 019d 18       		.uleb128 0x18
 2837 019e 9742     		.uleb128 0x2117
 2838 01a0 19       		.uleb128 0x19
 2839 01a1 01       		.uleb128 0x1
 2840 01a2 13       		.uleb128 0x13
 2841 01a3 00       		.byte	0
 2842 01a4 00       		.byte	0
 2843 01a5 20       		.uleb128 0x20
 2844 01a6 05       		.uleb128 0x5
 2845 01a7 00       		.byte	0
 2846 01a8 03       		.uleb128 0x3
 2847 01a9 08       		.uleb128 0x8
 2848 01aa 3A       		.uleb128 0x3a
 2849 01ab 0B       		.uleb128 0xb
 2850 01ac 3B       		.uleb128 0x3b
 2851 01ad 0B       		.uleb128 0xb
 2852 01ae 49       		.uleb128 0x49
 2853 01af 13       		.uleb128 0x13
 2854 01b0 02       		.uleb128 0x2
 2855 01b1 18       		.uleb128 0x18
 2856 01b2 00       		.byte	0
 2857 01b3 00       		.byte	0
 2858 01b4 21       		.uleb128 0x21
ARM GAS  /tmp/ccxmVR4n.s 			page 86


 2859 01b5 2E       		.uleb128 0x2e
 2860 01b6 01       		.byte	0x1
 2861 01b7 03       		.uleb128 0x3
 2862 01b8 0E       		.uleb128 0xe
 2863 01b9 3A       		.uleb128 0x3a
 2864 01ba 0B       		.uleb128 0xb
 2865 01bb 3B       		.uleb128 0x3b
 2866 01bc 05       		.uleb128 0x5
 2867 01bd 27       		.uleb128 0x27
 2868 01be 19       		.uleb128 0x19
 2869 01bf 49       		.uleb128 0x49
 2870 01c0 13       		.uleb128 0x13
 2871 01c1 11       		.uleb128 0x11
 2872 01c2 01       		.uleb128 0x1
 2873 01c3 12       		.uleb128 0x12
 2874 01c4 06       		.uleb128 0x6
 2875 01c5 40       		.uleb128 0x40
 2876 01c6 18       		.uleb128 0x18
 2877 01c7 9742     		.uleb128 0x2117
 2878 01c9 19       		.uleb128 0x19
 2879 01ca 01       		.uleb128 0x1
 2880 01cb 13       		.uleb128 0x13
 2881 01cc 00       		.byte	0
 2882 01cd 00       		.byte	0
 2883 01ce 22       		.uleb128 0x22
 2884 01cf 05       		.uleb128 0x5
 2885 01d0 00       		.byte	0
 2886 01d1 03       		.uleb128 0x3
 2887 01d2 08       		.uleb128 0x8
 2888 01d3 3A       		.uleb128 0x3a
 2889 01d4 0B       		.uleb128 0xb
 2890 01d5 3B       		.uleb128 0x3b
 2891 01d6 05       		.uleb128 0x5
 2892 01d7 49       		.uleb128 0x49
 2893 01d8 13       		.uleb128 0x13
 2894 01d9 02       		.uleb128 0x2
 2895 01da 18       		.uleb128 0x18
 2896 01db 00       		.byte	0
 2897 01dc 00       		.byte	0
 2898 01dd 23       		.uleb128 0x23
 2899 01de 05       		.uleb128 0x5
 2900 01df 00       		.byte	0
 2901 01e0 03       		.uleb128 0x3
 2902 01e1 0E       		.uleb128 0xe
 2903 01e2 3A       		.uleb128 0x3a
 2904 01e3 0B       		.uleb128 0xb
 2905 01e4 3B       		.uleb128 0x3b
 2906 01e5 05       		.uleb128 0x5
 2907 01e6 49       		.uleb128 0x49
 2908 01e7 13       		.uleb128 0x13
 2909 01e8 02       		.uleb128 0x2
 2910 01e9 18       		.uleb128 0x18
 2911 01ea 00       		.byte	0
 2912 01eb 00       		.byte	0
 2913 01ec 24       		.uleb128 0x24
 2914 01ed 2E       		.uleb128 0x2e
 2915 01ee 01       		.byte	0x1
ARM GAS  /tmp/ccxmVR4n.s 			page 87


 2916 01ef 03       		.uleb128 0x3
 2917 01f0 0E       		.uleb128 0xe
 2918 01f1 3A       		.uleb128 0x3a
 2919 01f2 0B       		.uleb128 0xb
 2920 01f3 3B       		.uleb128 0x3b
 2921 01f4 0B       		.uleb128 0xb
 2922 01f5 27       		.uleb128 0x27
 2923 01f6 19       		.uleb128 0x19
 2924 01f7 11       		.uleb128 0x11
 2925 01f8 01       		.uleb128 0x1
 2926 01f9 12       		.uleb128 0x12
 2927 01fa 06       		.uleb128 0x6
 2928 01fb 40       		.uleb128 0x40
 2929 01fc 18       		.uleb128 0x18
 2930 01fd 9642     		.uleb128 0x2116
 2931 01ff 19       		.uleb128 0x19
 2932 0200 01       		.uleb128 0x1
 2933 0201 13       		.uleb128 0x13
 2934 0202 00       		.byte	0
 2935 0203 00       		.byte	0
 2936 0204 25       		.uleb128 0x25
 2937 0205 34       		.uleb128 0x34
 2938 0206 00       		.byte	0
 2939 0207 03       		.uleb128 0x3
 2940 0208 08       		.uleb128 0x8
 2941 0209 3A       		.uleb128 0x3a
 2942 020a 0B       		.uleb128 0xb
 2943 020b 3B       		.uleb128 0x3b
 2944 020c 0B       		.uleb128 0xb
 2945 020d 49       		.uleb128 0x49
 2946 020e 13       		.uleb128 0x13
 2947 020f 02       		.uleb128 0x2
 2948 0210 18       		.uleb128 0x18
 2949 0211 00       		.byte	0
 2950 0212 00       		.byte	0
 2951 0213 26       		.uleb128 0x26
 2952 0214 2E       		.uleb128 0x2e
 2953 0215 01       		.byte	0x1
 2954 0216 3F       		.uleb128 0x3f
 2955 0217 19       		.uleb128 0x19
 2956 0218 03       		.uleb128 0x3
 2957 0219 0E       		.uleb128 0xe
 2958 021a 3A       		.uleb128 0x3a
 2959 021b 0B       		.uleb128 0xb
 2960 021c 3B       		.uleb128 0x3b
 2961 021d 0B       		.uleb128 0xb
 2962 021e 27       		.uleb128 0x27
 2963 021f 19       		.uleb128 0x19
 2964 0220 11       		.uleb128 0x11
 2965 0221 01       		.uleb128 0x1
 2966 0222 12       		.uleb128 0x12
 2967 0223 06       		.uleb128 0x6
 2968 0224 40       		.uleb128 0x40
 2969 0225 18       		.uleb128 0x18
 2970 0226 9642     		.uleb128 0x2116
 2971 0228 19       		.uleb128 0x19
 2972 0229 01       		.uleb128 0x1
ARM GAS  /tmp/ccxmVR4n.s 			page 88


 2973 022a 13       		.uleb128 0x13
 2974 022b 00       		.byte	0
 2975 022c 00       		.byte	0
 2976 022d 27       		.uleb128 0x27
 2977 022e 05       		.uleb128 0x5
 2978 022f 00       		.byte	0
 2979 0230 03       		.uleb128 0x3
 2980 0231 0E       		.uleb128 0xe
 2981 0232 3A       		.uleb128 0x3a
 2982 0233 0B       		.uleb128 0xb
 2983 0234 3B       		.uleb128 0x3b
 2984 0235 0B       		.uleb128 0xb
 2985 0236 49       		.uleb128 0x49
 2986 0237 13       		.uleb128 0x13
 2987 0238 02       		.uleb128 0x2
 2988 0239 18       		.uleb128 0x18
 2989 023a 00       		.byte	0
 2990 023b 00       		.byte	0
 2991 023c 28       		.uleb128 0x28
 2992 023d 34       		.uleb128 0x34
 2993 023e 00       		.byte	0
 2994 023f 03       		.uleb128 0x3
 2995 0240 0E       		.uleb128 0xe
 2996 0241 3A       		.uleb128 0x3a
 2997 0242 0B       		.uleb128 0xb
 2998 0243 3B       		.uleb128 0x3b
 2999 0244 05       		.uleb128 0x5
 3000 0245 49       		.uleb128 0x49
 3001 0246 13       		.uleb128 0x13
 3002 0247 3F       		.uleb128 0x3f
 3003 0248 19       		.uleb128 0x19
 3004 0249 3C       		.uleb128 0x3c
 3005 024a 19       		.uleb128 0x19
 3006 024b 00       		.byte	0
 3007 024c 00       		.byte	0
 3008 024d 29       		.uleb128 0x29
 3009 024e 34       		.uleb128 0x34
 3010 024f 00       		.byte	0
 3011 0250 03       		.uleb128 0x3
 3012 0251 08       		.uleb128 0x8
 3013 0252 3A       		.uleb128 0x3a
 3014 0253 0B       		.uleb128 0xb
 3015 0254 3B       		.uleb128 0x3b
 3016 0255 05       		.uleb128 0x5
 3017 0256 49       		.uleb128 0x49
 3018 0257 13       		.uleb128 0x13
 3019 0258 3F       		.uleb128 0x3f
 3020 0259 19       		.uleb128 0x19
 3021 025a 3C       		.uleb128 0x3c
 3022 025b 19       		.uleb128 0x19
 3023 025c 00       		.byte	0
 3024 025d 00       		.byte	0
 3025 025e 00       		.byte	0
 3026              		.section	.debug_aranges,"",%progbits
 3027 0000 A4000000 		.4byte	0xa4
 3028 0004 0200     		.2byte	0x2
 3029 0006 00000000 		.4byte	.Ldebug_info0
ARM GAS  /tmp/ccxmVR4n.s 			page 89


 3030 000a 04       		.byte	0x4
 3031 000b 00       		.byte	0
 3032 000c 0000     		.2byte	0
 3033 000e 0000     		.2byte	0
 3034 0010 00000000 		.4byte	.LFB127
 3035 0014 10000000 		.4byte	.LFE127-.LFB127
 3036 0018 00000000 		.4byte	.LFB128
 3037 001c 10000000 		.4byte	.LFE128-.LFB128
 3038 0020 00000000 		.4byte	.LFB129
 3039 0024 08000000 		.4byte	.LFE129-.LFB129
 3040 0028 00000000 		.4byte	.LFB130
 3041 002c 08000000 		.4byte	.LFE130-.LFB130
 3042 0030 00000000 		.4byte	.LFB167
 3043 0034 08000000 		.4byte	.LFE167-.LFB167
 3044 0038 00000000 		.4byte	.LFB168
 3045 003c 08000000 		.4byte	.LFE168-.LFB168
 3046 0040 00000000 		.4byte	.LFB169
 3047 0044 08000000 		.4byte	.LFE169-.LFB169
 3048 0048 00000000 		.4byte	.LFB170
 3049 004c 08000000 		.4byte	.LFE170-.LFB170
 3050 0050 00000000 		.4byte	.LFB174
 3051 0054 0E000000 		.4byte	.LFE174-.LFB174
 3052 0058 00000000 		.4byte	.LFB182
 3053 005c 18000000 		.4byte	.LFE182-.LFB182
 3054 0060 00000000 		.4byte	.LFB184
 3055 0064 1E000000 		.4byte	.LFE184-.LFB184
 3056 0068 00000000 		.4byte	.LFB186
 3057 006c 24000000 		.4byte	.LFE186-.LFB186
 3058 0070 00000000 		.4byte	.LFB187
 3059 0074 26000000 		.4byte	.LFE187-.LFB187
 3060 0078 00000000 		.4byte	.LFB216
 3061 007c 0E000000 		.4byte	.LFE216-.LFB216
 3062 0080 00000000 		.4byte	.LFB221
 3063 0084 14000000 		.4byte	.LFE221-.LFB221
 3064 0088 00000000 		.4byte	.LFB242
 3065 008c 38000000 		.4byte	.LFE242-.LFB242
 3066 0090 00000000 		.4byte	.LFB243
 3067 0094 26000000 		.4byte	.LFE243-.LFB243
 3068 0098 00000000 		.4byte	.LFB244
 3069 009c 24000000 		.4byte	.LFE244-.LFB244
 3070 00a0 00000000 		.4byte	0
 3071 00a4 00000000 		.4byte	0
 3072              		.section	.debug_ranges,"",%progbits
 3073              	.Ldebug_ranges0:
 3074 0000 00000000 		.4byte	.LFB127
 3075 0004 10000000 		.4byte	.LFE127
 3076 0008 00000000 		.4byte	.LFB128
 3077 000c 10000000 		.4byte	.LFE128
 3078 0010 00000000 		.4byte	.LFB129
 3079 0014 08000000 		.4byte	.LFE129
 3080 0018 00000000 		.4byte	.LFB130
 3081 001c 08000000 		.4byte	.LFE130
 3082 0020 00000000 		.4byte	.LFB167
 3083 0024 08000000 		.4byte	.LFE167
 3084 0028 00000000 		.4byte	.LFB168
 3085 002c 08000000 		.4byte	.LFE168
 3086 0030 00000000 		.4byte	.LFB169
ARM GAS  /tmp/ccxmVR4n.s 			page 90


 3087 0034 08000000 		.4byte	.LFE169
 3088 0038 00000000 		.4byte	.LFB170
 3089 003c 08000000 		.4byte	.LFE170
 3090 0040 00000000 		.4byte	.LFB174
 3091 0044 0E000000 		.4byte	.LFE174
 3092 0048 00000000 		.4byte	.LFB182
 3093 004c 18000000 		.4byte	.LFE182
 3094 0050 00000000 		.4byte	.LFB184
 3095 0054 1E000000 		.4byte	.LFE184
 3096 0058 00000000 		.4byte	.LFB186
 3097 005c 24000000 		.4byte	.LFE186
 3098 0060 00000000 		.4byte	.LFB187
 3099 0064 26000000 		.4byte	.LFE187
 3100 0068 00000000 		.4byte	.LFB216
 3101 006c 0E000000 		.4byte	.LFE216
 3102 0070 00000000 		.4byte	.LFB221
 3103 0074 14000000 		.4byte	.LFE221
 3104 0078 00000000 		.4byte	.LFB242
 3105 007c 38000000 		.4byte	.LFE242
 3106 0080 00000000 		.4byte	.LFB243
 3107 0084 26000000 		.4byte	.LFE243
 3108 0088 00000000 		.4byte	.LFB244
 3109 008c 24000000 		.4byte	.LFE244
 3110 0090 00000000 		.4byte	0
 3111 0094 00000000 		.4byte	0
 3112              		.section	.debug_line,"",%progbits
 3113              	.Ldebug_line0:
 3114 0000 ED030000 		.section	.debug_str,"MS",%progbits,1
 3114      02006902 
 3114      00000201 
 3114      FB0E0D00 
 3114      01010101 
 3115              	.LASF115:
 3116 0000 65745F69 		.ascii	"et_interval\000"
 3116      6E746572 
 3116      76616C00 
 3117              	.LASF51:
 3118 000c 72656164 		.ascii	"ready_list_t\000"
 3118      795F6C69 
 3118      73745F74 
 3118      00
 3119              	.LASF89:
 3120 0019 77747472 		.ascii	"wttrp\000"
 3120      7000
 3121              	.LASF86:
 3122 001f 7264796D 		.ascii	"rdymsg\000"
 3122      736700
 3123              	.LASF16:
 3124 0026 75696E74 		.ascii	"uint64_t\000"
 3124      36345F74 
 3124      00
 3125              	.LASF5:
 3126 002f 5F5F7569 		.ascii	"__uint8_t\000"
 3126      6E74385F 
 3126      7400
 3127              	.LASF83:
 3128 0039 706F7274 		.ascii	"port_intctx\000"
ARM GAS  /tmp/ccxmVR4n.s 			page 91


 3128      5F696E74 
 3128      63747800 
 3129              	.LASF70:
 3130 0045 73797374 		.ascii	"system_debug_t\000"
 3130      656D5F64 
 3130      65627567 
 3130      5F7400
 3131              	.LASF117:
 3132 0054 706F7274 		.ascii	"port_lock\000"
 3132      5F6C6F63 
 3132      6B00
 3133              	.LASF12:
 3134 005e 6C6F6E67 		.ascii	"long long unsigned int\000"
 3134      206C6F6E 
 3134      6720756E 
 3134      7369676E 
 3134      65642069 
 3135              	.LASF87:
 3136 0075 65786974 		.ascii	"exitcode\000"
 3136      636F6465 
 3136      00
 3137              	.LASF137:
 3138 007e 65767453 		.ascii	"evtStart\000"
 3138      74617274 
 3138      00
 3139              	.LASF90:
 3140 0087 73656E74 		.ascii	"sentmsg\000"
 3140      6D736700 
 3141              	.LASF67:
 3142 008f 76697274 		.ascii	"virtual_timers_list_t\000"
 3142      75616C5F 
 3142      74696D65 
 3142      72735F6C 
 3142      6973745F 
 3143              	.LASF138:
 3144 00a5 49544D5F 		.ascii	"ITM_RxBuffer\000"
 3144      52784275 
 3144      66666572 
 3144      00
 3145              	.LASF129:
 3146 00b2 64656C61 		.ascii	"delay\000"
 3146      7900
 3147              	.LASF50:
 3148 00b8 63685F74 		.ascii	"ch_threads_queue\000"
 3148      68726561 
 3148      64735F71 
 3148      75657565 
 3148      00
 3149              	.LASF30:
 3150 00c9 705F7072 		.ascii	"p_prio\000"
 3150      696F00
 3151              	.LASF10:
 3152 00d0 6C6F6E67 		.ascii	"long long int\000"
 3152      206C6F6E 
 3152      6720696E 
 3152      7400
 3153              	.LASF1:
ARM GAS  /tmp/ccxmVR4n.s 			page 92


 3154 00de 7369676E 		.ascii	"signed char\000"
 3154      65642063 
 3154      68617200 
 3155              	.LASF44:
 3156 00ea 705F6D70 		.ascii	"p_mpool\000"
 3156      6F6F6C00 
 3157              	.LASF98:
 3158 00f2 6D5F7175 		.ascii	"m_queue\000"
 3158      65756500 
 3159              	.LASF76:
 3160 00fa 76746C69 		.ascii	"vtlist\000"
 3160      737400
 3161              	.LASF118:
 3162 0101 706F7274 		.ascii	"port_unlock\000"
 3162      5F756E6C 
 3162      6F636B00 
 3163              	.LASF74:
 3164 010d 63685F73 		.ascii	"ch_system\000"
 3164      79737465 
 3164      6D00
 3165              	.LASF7:
 3166 0117 6C6F6E67 		.ascii	"long int\000"
 3166      20696E74 
 3166      00
 3167              	.LASF19:
 3168 0120 74737461 		.ascii	"tstate_t\000"
 3168      74655F74 
 3168      00
 3169              	.LASF38:
 3170 0129 705F7265 		.ascii	"p_refs\000"
 3170      667300
 3171              	.LASF32:
 3172 0130 705F6E65 		.ascii	"p_newer\000"
 3172      77657200 
 3173              	.LASF95:
 3174 0138 735F7175 		.ascii	"s_queue\000"
 3174      65756500 
 3175              	.LASF144:
 3176 0140 5F5F6675 		.ascii	"__func__.5701\000"
 3176      6E635F5F 
 3176      2E353730 
 3176      3100
 3177              	.LASF56:
 3178 014e 725F6E65 		.ascii	"r_newer\000"
 3178      77657200 
 3179              	.LASF80:
 3180 0156 72656761 		.ascii	"regarm_t\000"
 3180      726D5F74 
 3180      00
 3181              	.LASF63:
 3182 015f 76745F70 		.ascii	"vt_prev\000"
 3182      72657600 
 3183              	.LASF102:
 3184 0167 6D757465 		.ascii	"mutex_t\000"
 3184      785F7400 
 3185              	.LASF143:
 3186 016f 76616C75 		.ascii	"value\000"
ARM GAS  /tmp/ccxmVR4n.s 			page 93


 3186      6500
 3187              	.LASF112:
 3188 0175 6576656E 		.ascii	"event_source_t\000"
 3188      745F736F 
 3188      75726365 
 3188      5F7400
 3189              	.LASF78:
 3190 0184 69646C65 		.ascii	"idle_thread_wa\000"
 3190      5F746872 
 3190      6561645F 
 3190      776100
 3191              	.LASF25:
 3192 0193 636E745F 		.ascii	"cnt_t\000"
 3192      7400
 3193              	.LASF139:
 3194 0199 474E5520 		.ascii	"GNU C 4.8.4 20140526 (release) [ARM/embedded-4_8-br"
 3194      4320342E 
 3194      382E3420 
 3194      32303134 
 3194      30353236 
 3195 01cc 616E6368 		.ascii	"anch revision 211358] -mcpu=cortex-m4 -mno-thumb-in"
 3195      20726576 
 3195      6973696F 
 3195      6E203231 
 3195      31333538 
 3196 01ff 74657277 		.ascii	"terwork -mthumb -ggdb -O0 -fomit-frame-pointer -fal"
 3196      6F726B20 
 3196      2D6D7468 
 3196      756D6220 
 3196      2D676764 
 3197 0232 69676E2D 		.ascii	"ign-functions=16 -ffunction-sections -fdata-section"
 3197      66756E63 
 3197      74696F6E 
 3197      733D3136 
 3197      202D6666 
 3198 0265 73202D66 		.ascii	"s -fno-common -flto\000"
 3198      6E6F2D63 
 3198      6F6D6D6F 
 3198      6E202D66 
 3198      6C746F00 
 3199              	.LASF0:
 3200 0279 756E7369 		.ascii	"unsigned int\000"
 3200      676E6564 
 3200      20696E74 
 3200      00
 3201              	.LASF62:
 3202 0286 76745F6E 		.ascii	"vt_next\000"
 3202      65787400 
 3203              	.LASF91:
 3204 028e 77747365 		.ascii	"wtsemp\000"
 3204      6D7000
 3205              	.LASF64:
 3206 0295 76745F64 		.ascii	"vt_delta\000"
 3206      656C7461 
 3206      00
 3207              	.LASF40:
 3208 029e 705F6D73 		.ascii	"p_msgqueue\000"
ARM GAS  /tmp/ccxmVR4n.s 			page 94


 3208      67717565 
 3208      756500
 3209              	.LASF96:
 3210 02a9 735F636E 		.ascii	"s_cnt\000"
 3210      7400
 3211              	.LASF132:
 3212 02af 63684576 		.ascii	"chEvtObjectInit\000"
 3212      744F626A 
 3212      65637449 
 3212      6E697400 
 3213              	.LASF4:
 3214 02bf 73686F72 		.ascii	"short unsigned int\000"
 3214      7420756E 
 3214      7369676E 
 3214      65642069 
 3214      6E7400
 3215              	.LASF47:
 3216 02d2 63685F74 		.ascii	"ch_thread\000"
 3216      68726561 
 3216      6400
 3217              	.LASF109:
 3218 02dc 656C5F77 		.ascii	"el_wflags\000"
 3218      666C6167 
 3218      7300
 3219              	.LASF77:
 3220 02e6 6D61696E 		.ascii	"mainthread\000"
 3220      74687265 
 3220      616400
 3221              	.LASF24:
 3222 02f1 6576656E 		.ascii	"eventflags_t\000"
 3222      74666C61 
 3222      67735F74 
 3222      00
 3223              	.LASF22:
 3224 02fe 6D73675F 		.ascii	"msg_t\000"
 3224      7400
 3225              	.LASF105:
 3226 0304 656C5F6E 		.ascii	"el_next\000"
 3226      65787400 
 3227              	.LASF73:
 3228 030c 63685F73 		.ascii	"ch_system_t\000"
 3228      79737465 
 3228      6D5F7400 
 3229              	.LASF136:
 3230 0318 6576744F 		.ascii	"evtObjectInit\000"
 3230      626A6563 
 3230      74496E69 
 3230      7400
 3231              	.LASF88:
 3232 0326 77746F62 		.ascii	"wtobjp\000"
 3232      6A7000
 3233              	.LASF52:
 3234 032d 63685F72 		.ascii	"ch_ready_list\000"
 3234      65616479 
 3234      5F6C6973 
 3234      7400
 3235              	.LASF23:
ARM GAS  /tmp/ccxmVR4n.s 			page 95


 3236 033b 6576656E 		.ascii	"eventmask_t\000"
 3236      746D6173 
 3236      6B5F7400 
 3237              	.LASF6:
 3238 0347 5F5F696E 		.ascii	"__int32_t\000"
 3238      7433325F 
 3238      7400
 3239              	.LASF125:
 3240 0351 63685654 		.ascii	"chVTObjectInit\000"
 3240      4F626A65 
 3240      6374496E 
 3240      697400
 3241              	.LASF81:
 3242 0360 73746B61 		.ascii	"stkalign_t\000"
 3242      6C69676E 
 3242      5F7400
 3243              	.LASF140:
 3244 036b 2E2E2F43 		.ascii	"../ChibiOS/os/various/evtimer.c\000"
 3244      68696269 
 3244      4F532F6F 
 3244      732F7661 
 3244      72696F75 
 3245              	.LASF103:
 3246 038b 6576656E 		.ascii	"event_listener_t\000"
 3246      745F6C69 
 3246      7374656E 
 3246      65725F74 
 3246      00
 3247              	.LASF39:
 3248 039c 705F7761 		.ascii	"p_waiting\000"
 3248      6974696E 
 3248      6700
 3249              	.LASF114:
 3250 03a6 65745F65 		.ascii	"et_es\000"
 3250      7300
 3251              	.LASF79:
 3252 03ac 73697A65 		.ascii	"sizetype\000"
 3252      74797065 
 3252      00
 3253              	.LASF45:
 3254 03b5 74687265 		.ascii	"thread_reference_t\000"
 3254      61645F72 
 3254      65666572 
 3254      656E6365 
 3254      5F7400
 3255              	.LASF68:
 3256 03c8 63685F76 		.ascii	"ch_virtual_timers_list\000"
 3256      69727475 
 3256      616C5F74 
 3256      696D6572 
 3256      735F6C69 
 3257              	.LASF69:
 3258 03df 76745F6C 		.ascii	"vt_lasttime\000"
 3258      61737474 
 3258      696D6500 
 3259              	.LASF128:
 3260 03eb 63685654 		.ascii	"chVTSetI\000"
ARM GAS  /tmp/ccxmVR4n.s 			page 96


 3260      53657449 
 3260      00
 3261              	.LASF33:
 3262 03f4 705F6F6C 		.ascii	"p_older\000"
 3262      64657200 
 3263              	.LASF55:
 3264 03fc 725F6374 		.ascii	"r_ctx\000"
 3264      7800
 3265              	.LASF131:
 3266 0402 63685654 		.ascii	"chVTSet\000"
 3266      53657400 
 3267              	.LASF85:
 3268 040a 746D5F63 		.ascii	"tm_calibration_t\000"
 3268      616C6962 
 3268      72617469 
 3268      6F6E5F74 
 3268      00
 3269              	.LASF35:
 3270 041b 705F7374 		.ascii	"p_stklimit\000"
 3270      6B6C696D 
 3270      697400
 3271              	.LASF135:
 3272 0426 74696D65 		.ascii	"time\000"
 3272      00
 3273              	.LASF58:
 3274 042b 725F6375 		.ascii	"r_current\000"
 3274      7272656E 
 3274      7400
 3275              	.LASF57:
 3276 0435 725F6F6C 		.ascii	"r_older\000"
 3276      64657200 
 3277              	.LASF107:
 3278 043d 656C5F65 		.ascii	"el_events\000"
 3278      76656E74 
 3278      7300
 3279              	.LASF11:
 3280 0447 5F5F7569 		.ascii	"__uint64_t\000"
 3280      6E743634 
 3280      5F7400
 3281              	.LASF20:
 3282 0452 74726566 		.ascii	"trefs_t\000"
 3282      735F7400 
 3283              	.LASF60:
 3284 045a 76697274 		.ascii	"virtual_timer_t\000"
 3284      75616C5F 
 3284      74696D65 
 3284      725F7400 
 3285              	.LASF29:
 3286 046a 705F7072 		.ascii	"p_prev\000"
 3286      657600
 3287              	.LASF21:
 3288 0471 74707269 		.ascii	"tprio_t\000"
 3288      6F5F7400 
 3289              	.LASF124:
 3290 0479 63685379 		.ascii	"chSysUnlockFromISR\000"
 3290      73556E6C 
 3290      6F636B46 
ARM GAS  /tmp/ccxmVR4n.s 			page 97


 3290      726F6D49 
 3290      535200
 3291              	.LASF71:
 3292 048c 63685F73 		.ascii	"ch_system_debug\000"
 3292      79737465 
 3292      6D5F6465 
 3292      62756700 
 3293              	.LASF126:
 3294 049c 5F426F6F 		.ascii	"_Bool\000"
 3294      6C00
 3295              	.LASF14:
 3296 04a2 696E7433 		.ascii	"int32_t\000"
 3296      325F7400 
 3297              	.LASF2:
 3298 04aa 756E7369 		.ascii	"unsigned char\000"
 3298      676E6564 
 3298      20636861 
 3298      7200
 3299              	.LASF106:
 3300 04b8 656C5F6C 		.ascii	"el_listener\000"
 3300      69737465 
 3300      6E657200 
 3301              	.LASF108:
 3302 04c4 656C5F66 		.ascii	"el_flags\000"
 3302      6C616773 
 3302      00
 3303              	.LASF42:
 3304 04cd 705F6D74 		.ascii	"p_mtxlist\000"
 3304      786C6973 
 3304      7400
 3305              	.LASF3:
 3306 04d7 73686F72 		.ascii	"short int\000"
 3306      7420696E 
 3306      7400
 3307              	.LASF36:
 3308 04e1 705F7374 		.ascii	"p_state\000"
 3308      61746500 
 3309              	.LASF54:
 3310 04e9 725F7072 		.ascii	"r_prio\000"
 3310      696F00
 3311              	.LASF93:
 3312 04f0 65776D61 		.ascii	"ewmask\000"
 3312      736B00
 3313              	.LASF28:
 3314 04f7 705F6E65 		.ascii	"p_next\000"
 3314      787400
 3315              	.LASF18:
 3316 04fe 746D6F64 		.ascii	"tmode_t\000"
 3316      655F7400 
 3317              	.LASF37:
 3318 0506 705F666C 		.ascii	"p_flags\000"
 3318      61677300 
 3319              	.LASF121:
 3320 050e 63685379 		.ascii	"chSysLock\000"
 3320      734C6F63 
 3320      6B00
 3321              	.LASF145:
ARM GAS  /tmp/ccxmVR4n.s 			page 98


 3322 0518 63685654 		.ascii	"chVTIsArmedI\000"
 3322      49734172 
 3322      6D656449 
 3322      00
 3323              	.LASF133:
 3324 0525 63684576 		.ascii	"chEvtBroadcastI\000"
 3324      7442726F 
 3324      61646361 
 3324      73744900 
 3325              	.LASF61:
 3326 0535 63685F76 		.ascii	"ch_virtual_timer\000"
 3326      69727475 
 3326      616C5F74 
 3326      696D6572 
 3326      00
 3327              	.LASF127:
 3328 0546 63685654 		.ascii	"chVTResetI\000"
 3328      52657365 
 3328      744900
 3329              	.LASF94:
 3330 0551 63685F73 		.ascii	"ch_semaphore\000"
 3330      656D6170 
 3330      686F7265 
 3330      00
 3331              	.LASF41:
 3332 055e 705F6570 		.ascii	"p_epending\000"
 3332      656E6469 
 3332      6E6700
 3333              	.LASF15:
 3334 0569 75696E74 		.ascii	"uint32_t\000"
 3334      33325F74 
 3334      00
 3335              	.LASF92:
 3336 0572 77746D74 		.ascii	"wtmtxp\000"
 3336      787000
 3337              	.LASF53:
 3338 0579 725F7175 		.ascii	"r_queue\000"
 3338      65756500 
 3339              	.LASF113:
 3340 0581 65745F76 		.ascii	"et_vt\000"
 3340      7400
 3341              	.LASF48:
 3342 0587 63685F74 		.ascii	"ch_threads_list\000"
 3342      68726561 
 3342      64735F6C 
 3342      69737400 
 3343              	.LASF141:
 3344 0597 2F6E6673 		.ascii	"/nfs/nfs4/home/irbrown/Courses/P442/P442WifiTrailCo"
 3344      2F6E6673 
 3344      342F686F 
 3344      6D652F69 
 3344      7262726F 
 3345 05ca 756E7465 		.ascii	"unterProject/milestone3\000"
 3345      7250726F 
 3345      6A656374 
 3345      2F6D696C 
 3345      6573746F 
ARM GAS  /tmp/ccxmVR4n.s 			page 99


 3346              	.LASF9:
 3347 05e2 6C6F6E67 		.ascii	"long unsigned int\000"
 3347      20756E73 
 3347      69676E65 
 3347      6420696E 
 3347      7400
 3348              	.LASF101:
 3349 05f4 63686172 		.ascii	"char\000"
 3349      00
 3350              	.LASF134:
 3351 05f9 746D7263 		.ascii	"tmrcb\000"
 3351      6200
 3352              	.LASF120:
 3353 05ff 706F7274 		.ascii	"port_unlock_from_isr\000"
 3353      5F756E6C 
 3353      6F636B5F 
 3353      66726F6D 
 3353      5F697372 
 3354              	.LASF27:
 3355 0614 74687265 		.ascii	"thread_t\000"
 3355      61645F74 
 3355      00
 3356              	.LASF100:
 3357 061d 6D5F6E65 		.ascii	"m_next\000"
 3357      787400
 3358              	.LASF26:
 3359 0624 73797374 		.ascii	"systime_t\000"
 3359      696D655F 
 3359      7400
 3360              	.LASF43:
 3361 062e 705F7265 		.ascii	"p_realprio\000"
 3361      616C7072 
 3361      696F00
 3362              	.LASF59:
 3363 0639 76746675 		.ascii	"vtfunc_t\000"
 3363      6E635F74 
 3363      00
 3364              	.LASF8:
 3365 0642 5F5F7569 		.ascii	"__uint32_t\000"
 3365      6E743332 
 3365      5F7400
 3366              	.LASF142:
 3367 064d 5F5F7365 		.ascii	"__set_BASEPRI\000"
 3367      745F4241 
 3367      53455052 
 3367      4900
 3368              	.LASF72:
 3369 065b 70616E69 		.ascii	"panic_msg\000"
 3369      635F6D73 
 3369      6700
 3370              	.LASF84:
 3371 0665 6F666673 		.ascii	"offset\000"
 3371      657400
 3372              	.LASF82:
 3373 066c 636F6E74 		.ascii	"context\000"
 3373      65787400 
 3374              	.LASF17:
ARM GAS  /tmp/ccxmVR4n.s 			page 100


 3375 0674 7274636E 		.ascii	"rtcnt_t\000"
 3375      745F7400 
 3376              	.LASF119:
 3377 067c 706F7274 		.ascii	"port_lock_from_isr\000"
 3377      5F6C6F63 
 3377      6B5F6672 
 3377      6F6D5F69 
 3377      737200
 3378              	.LASF66:
 3379 068f 76745F70 		.ascii	"vt_par\000"
 3379      617200
 3380              	.LASF130:
 3381 0696 76746675 		.ascii	"vtfunc\000"
 3381      6E6300
 3382              	.LASF49:
 3383 069d 74687265 		.ascii	"threads_queue_t\000"
 3383      6164735F 
 3383      71756575 
 3383      655F7400 
 3384              	.LASF97:
 3385 06ad 63685F6D 		.ascii	"ch_mutex\000"
 3385      75746578 
 3385      00
 3386              	.LASF111:
 3387 06b6 65735F6E 		.ascii	"es_next\000"
 3387      65787400 
 3388              	.LASF75:
 3389 06be 726C6973 		.ascii	"rlist\000"
 3389      7400
 3390              	.LASF110:
 3391 06c4 6576656E 		.ascii	"event_source\000"
 3391      745F736F 
 3391      75726365 
 3391      00
 3392              	.LASF13:
 3393 06d1 75696E74 		.ascii	"uint8_t\000"
 3393      385F7400 
 3394              	.LASF123:
 3395 06d9 63685379 		.ascii	"chSysLockFromISR\000"
 3395      734C6F63 
 3395      6B46726F 
 3395      6D495352 
 3395      00
 3396              	.LASF34:
 3397 06ea 705F6E61 		.ascii	"p_name\000"
 3397      6D6500
 3398              	.LASF46:
 3399 06f1 74687265 		.ascii	"threads_list_t\000"
 3399      6164735F 
 3399      6C697374 
 3399      5F7400
 3400              	.LASF122:
 3401 0700 63685379 		.ascii	"chSysUnlock\000"
 3401      73556E6C 
 3401      6F636B00 
 3402              	.LASF116:
 3403 070c 6576656E 		.ascii	"event_timer_t\000"
ARM GAS  /tmp/ccxmVR4n.s 			page 101


 3403      745F7469 
 3403      6D65725F 
 3403      7400
 3404              	.LASF99:
 3405 071a 6D5F6F77 		.ascii	"m_owner\000"
 3405      6E657200 
 3406              	.LASF31:
 3407 0722 705F6374 		.ascii	"p_ctx\000"
 3407      7800
 3408              	.LASF65:
 3409 0728 76745F66 		.ascii	"vt_func\000"
 3409      756E6300 
 3410              	.LASF104:
 3411 0730 6576656E 		.ascii	"event_listener\000"
 3411      745F6C69 
 3411      7374656E 
 3411      657200
 3412              		.comm	__gnu_lto_v1,1,1
 3413              		.ident	"GCC: (GNU Tools for ARM Embedded Processors) 4.8.4 20140526 (release) [ARM/embedded-4_8-br
ARM GAS  /tmp/ccxmVR4n.s 			page 102


DEFINED SYMBOLS
                            *ABS*:00000000 evtimer.c
     /tmp/ccxmVR4n.s:608    .text.port_lock:00000000 $t
     /tmp/ccxmVR4n.s:613    .text.port_lock:00000000 port_lock
     /tmp/ccxmVR4n.s:644    .text.port_unlock:00000000 $t
     /tmp/ccxmVR4n.s:649    .text.port_unlock:00000000 port_unlock
     /tmp/ccxmVR4n.s:678    .text.port_lock_from_isr:00000000 $t
     /tmp/ccxmVR4n.s:683    .text.port_lock_from_isr:00000000 port_lock_from_isr
     /tmp/ccxmVR4n.s:701    .text.port_unlock_from_isr:00000000 $t
     /tmp/ccxmVR4n.s:706    .text.port_unlock_from_isr:00000000 port_unlock_from_isr
     /tmp/ccxmVR4n.s:724    .text.chSysLock:00000000 $t
     /tmp/ccxmVR4n.s:729    .text.chSysLock:00000000 chSysLock
     /tmp/ccxmVR4n.s:748    .text.chSysUnlock:00000000 $t
     /tmp/ccxmVR4n.s:753    .text.chSysUnlock:00000000 chSysUnlock
     /tmp/ccxmVR4n.s:771    .text.chSysLockFromISR:00000000 $t
     /tmp/ccxmVR4n.s:776    .text.chSysLockFromISR:00000000 chSysLockFromISR
     /tmp/ccxmVR4n.s:794    .text.chSysUnlockFromISR:00000000 $t
     /tmp/ccxmVR4n.s:799    .text.chSysUnlockFromISR:00000000 chSysUnlockFromISR
     /tmp/ccxmVR4n.s:817    .text.chVTObjectInit:00000000 $t
     /tmp/ccxmVR4n.s:822    .text.chVTObjectInit:00000000 chVTObjectInit
     /tmp/ccxmVR4n.s:845    .text.chVTIsArmedI:00000000 $t
     /tmp/ccxmVR4n.s:850    .text.chVTIsArmedI:00000000 chVTIsArmedI
     /tmp/ccxmVR4n.s:877    .text.chVTResetI:00000000 $t
     /tmp/ccxmVR4n.s:882    .text.chVTResetI:00000000 chVTResetI
     /tmp/ccxmVR4n.s:912    .text.chVTSetI:00000000 $t
     /tmp/ccxmVR4n.s:917    .text.chVTSetI:00000000 chVTSetI
     /tmp/ccxmVR4n.s:949    .text.chVTSet:00000000 $t
     /tmp/ccxmVR4n.s:954    .text.chVTSet:00000000 chVTSet
     /tmp/ccxmVR4n.s:987    .text.chEvtObjectInit:00000000 $t
     /tmp/ccxmVR4n.s:992    .text.chEvtObjectInit:00000000 chEvtObjectInit
     /tmp/ccxmVR4n.s:1015   .text.chEvtBroadcastI:00000000 $t
     /tmp/ccxmVR4n.s:1020   .text.chEvtBroadcastI:00000000 chEvtBroadcastI
     /tmp/ccxmVR4n.s:1044   .text.tmrcb:00000000 $t
     /tmp/ccxmVR4n.s:1049   .text.tmrcb:00000000 tmrcb
     /tmp/ccxmVR4n.s:1090   .text.tmrcb:00000034 $d
     /tmp/ccxmVR4n.s:1095   .text.evtObjectInit:00000000 $t
     /tmp/ccxmVR4n.s:1101   .text.evtObjectInit:00000000 evtObjectInit
     /tmp/ccxmVR4n.s:1135   .text.evtStart:00000000 $t
     /tmp/ccxmVR4n.s:1141   .text.evtStart:00000000 evtStart
     /tmp/ccxmVR4n.s:1169   .text.evtStart:00000020 $d
                            *COM*:00000001 __gnu_lto_v1
                     .debug_frame:00000010 $d
     /tmp/ccxmVR4n.s:1094   .text.tmrcb:00000038 $t
     /tmp/ccxmVR4n.s:1173   .text.evtStart:00000024 $t

UNDEFINED SYMBOLS
chVTDoResetI
chVTDoSetI
chEvtBroadcastFlagsI
