ARM GAS  /tmp/cczifO0Q.s 			page 1


   1              		.syntax unified
   2              		.cpu cortex-m4
   3              		.fpu softvfp
   4              		.eabi_attribute 20, 1
   5              		.eabi_attribute 21, 1
   6              		.eabi_attribute 23, 3
   7              		.eabi_attribute 24, 1
   8              		.eabi_attribute 25, 1
   9              		.eabi_attribute 26, 1
  10              		.eabi_attribute 30, 6
  11              		.eabi_attribute 34, 1
  12              		.eabi_attribute 18, 4
  13              		.thumb
  14              		.file	"ext.c"
  15              		.text
  16              	.Ltext0:
  17              		.section	.gnu.lto_.inline.649f67442f33fba2,"",%progbits
  18 0000 789C6362 		.ascii	"x\234cb`b\300\006\334\030!4/\003\003\0133\003\003\023"
  18      6062C006 
  18      DC182134 
  18      2F03030B 
  18      33030313 
  19 0014 CB073D06 		.ascii	"\313\007=\006\026\210ZF\014\021&\006\026\036 \311\264"
  19      16885A46 
  19      0C112606 
  19      161E20C9 
  19      B4
  20 0025 401EAE86 		.ascii	"@\036\256\206\013H0c\027f\301.\314\212]\230\015\273"
  20      0B483063 
  20      1766C12E 
  20      CC8A5D98 
  20      0DBB
  21 0037 303B032B 		.ascii	"0;\003+\013P\230\355\200\035L\230\203\201S\031U\004"
  21      0B5098ED 
  21      801D4C98 
  21      83815319 
  21      5504
  22 0049 AC90891B 		.ascii	"\254\220\211\033\306\342d\340PB\363\011\252\002.\210"
  22      C6E264E0 
  22      5042F309 
  22      AA022E88 
  23 0059 020C6FF0 		.ascii	"\002\014o\360\300X\334\204\024\3600p\013\003\025\360"
  23      C058DC84 
  23      14F03070 
  23      0B0315F0 
  24 0069 6CC88529 		.ascii	"l\310\205)\000\3131\000\000R\233\016\362"
  24      00CB3100 
  24      00529B0E 
  24      F2
  25              		.text
  26              		.section	.gnu.lto_port_lock.649f67442f33fba2,"",%progbits
  27 0000 789C6362 		.ascii	"x\234cb`b@\007\"@,\310\310\300P\007\342030\002U021\002"
  27      60624007 
  27      22402CC8 
  27      C8C05007 
  27      E2303330 
  28 001a 05181819 		.ascii	"\005\030\030\031\352\231\030\353#AL\006F%\206\205\015"
ARM GAS  /tmp/cczifO0Q.s 			page 2


  28      EA9918EB 
  28      23414C06 
  28      46258685 
  28      0D
  29 002b 0D931EB4 		.ascii	"\015\223\036\264>{\3144\263\341@\313\202\206?\377\377"
  29      3E7BCC34 
  29      B3E140CB 
  29      82863FFF 
  29      FF
  30 003c 33326632 		.ascii	"32f2\002M\324cdHfd\210\000r\030\025\300\024\023\013"
  30      024DD463 
  30      64486664 
  30      88007218 
  30      15C01413 
  31 0051 AA15EB99 		.ascii	"\252\025\353\231\016<\370\377\377D\347\363\275@\223"
  31      0E3CF8FF 
  31      FF44E7F3 
  31      BD4093
  32 0060 19121917 		.ascii	"\031\022\031\027\002M\003\002V\206\226\206\206\011\012"
  32      024D0302 
  32      56869686 
  32      86090A
  33 006f 0C20DD40 		.ascii	"\014 \335@\020\002&CA\016`>\313\320\264\003H\24732\202"
  33      10022643 
  33      410E603E 
  33      CBD0B403 
  33      48A73332 
  34 0084 CC6300AA 		.ascii	"\314c\000\252a8\307\320\364\361\315\214\307\022p]`F"
  34      6138C7D0 
  34      F4F1CD8C 
  34      C712705D 
  34      6046
  35 0096 C381EE2B 		.ascii	"\303\201\356+\355\2540#\023\031\0273\262\002\215\203"
  35      EDAC3023 
  35      13191733 
  35      B2028D83 
  36 00a6 38190893 		.ascii	"8\031\010\223\231A>f\206x[\216\241dn\303\014\207LFf"
  36      99413E66 
  36      86785B8E 
  36      A1646EC3 
  36      0C874C46 
  37 00bb 102F1DAC 		.ascii	"\020/\035\254\012.U\016\221\202\272\374\"C\343\203\235"
  37      0A2E550E 
  37      9182BAFC 
  37      2243E383 
  37      9D
  38 00cc FA10E360 		.ascii	"\372\020\343` \004\244\001\244Z[OO\3379#3)\323?X?\277"
  38      2004A401 
  38      A45A5B4F 
  38      4FDF3923 
  38      3329D33F 
  39 00e3 58BFA844 		.ascii	"X\277\250D\277 \277\250\244X\3371\310\327\331\267B?"
  39      BF20BFA8 
  39      A458DF31 
  39      C8D7D9B7 
  39      423F
  40 00f5 392339BF 		.ascii	"9#9\277(5\276\314<W/\203\201\265,1\2474U\017UGjE\211"
ARM GAS  /tmp/cczifO0Q.s 			page 3


  40      2835BECC 
  40      3C572F83 
  40      81B52C31 
  40      A734550F 
  41 010e BEB36FB0 		.ascii	"\276\263o\260g\260~f^rNiJ\252>XGr\256[i^2P\223\200o"
  41      67B07E66 
  41      5E724E69 
  41      4AAA3E58 
  41      4772AE5B 
  42 0129 70904252 		.ascii	"p\220BRbqjAQ\246\216\202\252\001\003S\021\003{njn~Q"
  42      62716A41 
  42      51A68E82 
  42      AA010353 
  42      11037B6E 
  43 0141 2503005A 		.ascii	"%\003\000Z\240au"
  43      A06175
  44              		.text
  45              		.section	.gnu.lto_port_unlock.649f67442f33fba2,"",%progbits
  46 0000 789C6362 		.ascii	"x\234cb`b@\007\"@,\310\310\300P\007\342030\002U021\002"
  46      60624007 
  46      22402CC8 
  46      C8C05007 
  46      E2303330 
  47 001a 05181819 		.ascii	"\005\030\030\031\352\231\030\353#AL\006F%\206\205\015"
  47      EA9918EB 
  47      23414C06 
  47      46258685 
  47      0D
  48 002b 0D931EB4 		.ascii	"\015\223\036\264~z\3144\263\341@\313\202\206?\377\377"
  48      7E7ACC34 
  48      B3E140CB 
  48      82863FFF 
  48      FF
  49 003c 33326632 		.ascii	"32f2\002M\324cdHfd\210\000r\030\025\300\024\023\013"
  49      024DD463 
  49      64486664 
  49      88007218 
  49      15C01413 
  50 0051 AA15EB99 		.ascii	"\252\025\353\231\016<\370\377\377E\347\376}@\223\031"
  50      0E3CF8FF 
  50      FF45E7FE 
  50      7D409319 
  51 0061 12191702 		.ascii	"\022\031\027\002M\003\002V\206\226\206\206\011\012\014"
  51      4D030256 
  51      86968686 
  51      090A0C
  52 0070 20DD4010 		.ascii	" \335@\020\002&CA\016`>\313\320\264\003H\24732\202\314"
  52      02264341 
  52      0E603ECB 
  52      D0B40348 
  52      A7333282 
  53 0085 031B728E 		.ascii	"\003\033r\216\241\351\343\233\031\217%\340\272\300\214"
  53      A1E9E39B 
  53      198F25E0 
  53      BAC08C
  54 0094 8603A79F 		.ascii	"\206\003\247\237\266\263\302\214Ld\\\314\310\0124\016"
  54      B6B3C28C 
ARM GAS  /tmp/cczifO0Q.s 			page 4


  54      4C645CCC 
  54      C80A340E 
  55 00a4 E264204C 		.ascii	"\342d Lf\006\371\230\031\342m9\206\222\271\0153\034"
  55      6606F998 
  55      19E26D39 
  55      8692B90D 
  55      331C
  56 00b6 32199941 		.ascii	"2\031\231A\274t\260*\270T9D\012\352\362\213\014\215"
  56      BC74B02A 
  56      B8543944 
  56      0AEAF28B 
  56      0C8D
  57 00c8 0FCEEB43 		.ascii	"\017\316\353C\214\203\201\020\220\006\220jm==}\347\214"
  57      8C838110 
  57      9006906A 
  57      6D3D3D7D 
  57      E78C
  58 00da CCA44CFF 		.ascii	"\314\244L\377`\375\374b\375\242\022\375\202\374\242"
  58      60FDFC62 
  58      FDA212FD 
  58      82FCA2
  59 00e9 92627DC7 		.ascii	"\222b}\307 _g\337\012\375\344\214\344\374\242\324\370"
  59      205F67DF 
  59      0AFDE48C 
  59      E4FCA2D4 
  59      F8
  60 00fa 32F35CBD 		.ascii	"2\363\\\275\014\006\326\262\304\234\322T=T\035\251\025"
  60      0C06D6B2 
  60      C49CD254 
  60      3D541DA9 
  60      15
  61 010b 25FACEBE 		.ascii	"%\372\316\276\301\236\301\372\231y\3119\245)\251\372"
  61      C19EC1FA 
  61      9979C939 
  61      A529A9FA 
  62 011b 601DC9B9 		.ascii	"`\035\311\271n\245y\311@M\002\276\301A\012I\211\305"
  62      6EA579C9 
  62      404D02BE 
  62      C1410A49 
  62      89C5
  63 012d A9054599 		.ascii	"\251\005E\231:\012\252\006\014LE\014\354\271\251\271"
  63      3A0AAA06 
  63      0C4C450C 
  63      ECB9A9B9 
  64 013d F945950C 		.ascii	"\371E\225\014\000\233\025a\301"
  64      009B1561 
  64      C1
  65              		.text
  66              		.section	.gnu.lto_chSysLock.649f67442f33fba2,"",%progbits
  67 0000 789C6362 		.ascii	"x\234cb`b@\007\"@\\\006\304\312 \0163\003#P\005#\023"
  67      60624007 
  67      22405C06 
  67      C4CA200E 
  67      33032350 
  68 0017 232390C3 		.ascii	"##\220\303\310P\317\304X\037\311\010V\266\236\351\300"
  68      C850CFC4 
  68      581FC908 
ARM GAS  /tmp/cczifO0Q.s 			page 5


  68      56B69EE9 
  68      C0
  69 0028 83FFFFD7 		.ascii	"\203\377\377\327}\231\266\354\017\343m&\220\030+CKC"
  69      7D99B6EC 
  69      0FE36D26 
  69      90182B43 
  69      4B43
  70 003a C3040506 		.ascii	"\303\004\005\006\206d\260\212\0200\031\012\322\317|"
  70      8664B08A 
  70      1030190A 
  70      D2CF7C
  71 0049 9EA1F9C1 		.ascii	"\236\241\371\301\236n\366D\306\205\214\254@\301j\206"
  71      9E6EF644 
  71      C6858CAC 
  71      40C16A86 
  72 0059 5F0D1D0D 		.ascii	"_\015\035\015\002\231\214@\245\020\3232A\364E\206\306"
  72      02998C40 
  72      A510D332 
  72      41F44586 
  72      C6
  73 006a 07FBB561 		.ascii	"\007\373\265a\212  \004$\001r\244\242\236\236\276sF"
  73      8A202004 
  73      240172A4 
  73      A29E9EBE 
  73      7346
  74 007c 6652A67F 		.ascii	"fR\246\177\260~~\261~Q\211~f^rNiJ\252~rFqe\261^\006"
  74      B07E7EB1 
  74      7E51897E 
  74      665E724E 
  74      694AAA7E 
  75 0097 0300A9F5 		.ascii	"\003\000\251\365'\020"
  75      2710
  76              		.text
  77              		.section	.gnu.lto_chSysUnlock.649f67442f33fba2,"",%progbits
  78 0000 789C6362 		.ascii	"x\234cb`b@\007\322@\334\301\310\300\240\014\342\260"
  78      60624007 
  78      D240DCC1 
  78      C8C0A00C 
  78      E2B0
  79 0012 30300255 		.ascii	"00\002U0212\003IfF\2400\003#C=\0233c}$\210\315\300\246"
  79      30323132 
  79      03496646 
  79      A0300323 
  79      433D1333 
  80 002d C4B0B0A1 		.ascii	"\304\260\260\241a\322\203\247\337gIv-h\232\320\360\357"
  80      61D283A7 
  80      DF674976 
  80      2D689AD0 
  80      F0EF
  81 003f FF7FC64C 		.ascii	"\377\177\306L\220T2#C\004\220\305\250\000\246\230XP"
  81      90543223 
  81      430490C5 
  81      A800A698 
  81      5850
  82 0051 2D81686B 		.ascii	"-\201hk\330\264\242\201sA\303\237\377\377\231\311\323"
  82      D8B4A281 
  82      7341C39F 
ARM GAS  /tmp/cczifO0Q.s 			page 6


  82      FFFF99C9 
  82      D3
  83 0062 C33C58EC 		.ascii	"\303<X\354\311edX\317t\340\301\377\377ov\356|\364\206"
  83      C9656458 
  83      CF74E0C1 
  83      FFFF6F76 
  83      EE7CF486 
  84 0076 5114640B 		.ascii	"Q\024d\013+CKC\303\004\205\\\250\215@\020\002%\201A"
  84      2B434B43 
  84      C304855C 
  84      A88D4010 
  84      02258141 
  85 008a CA1C0A32 		.ascii	"\312\034\0122\224\371<C\363\203\327\247\331\023\031"
  85      94F93C43 
  85      F383D7A7 
  85      D91319
  86 0099 9731B202 		.ascii	"\2271\262\002\245\252\031~5t4\010d2\262$\203\303\232"
  86      A5AA197E 
  86      35743408 
  86      6432B224 
  86      83C39A
  87 00ac 81211324 		.ascii	"\201!\023$~\221\241\361\301\033m\230\"\010\010\001)"
  87      7E91A1F1 
  87      C11B6D98 
  87      22080801 
  87      29
  88 00bd 00C59EA2 		.ascii	"\000\305\236\242\236\236\276sFfR\246\177\260~~\261~"
  88      9E9EBE73 
  88      466652A6 
  88      7FB07E7E 
  88      B17E
  89 00cf 51897E66 		.ascii	"Q\211~f^rNiJ\252~rFqe\261^\006\003\000\341Gc\351"
  89      5E724E69 
  89      4AAA7E72 
  89      467165B1 
  89      5E060300 
  90              		.text
  91              		.section	.gnu.lto_osalSysLock.649f67442f33fba2,"",%progbits
  92 0000 789C6362 		.ascii	"x\234cb`b@\007\"@\\\006\304\312 \0163\003#P\005#\023"
  92      60624007 
  92      22405C06 
  92      C4CA200E 
  92      33032350 
  93 0017 232390C3 		.ascii	"##\220\303\310P\317\304X\037\311\010V\266\236\351\300"
  93      C850CFC4 
  93      581FC908 
  93      56B69EE9 
  93      C0
  94 0028 83FFFFD7 		.ascii	"\203\377\377\327m\233\277\374\015\343_&\220\030+CKC"
  94      6D9BBFFC 
  94      0DE35F26 
  94      90182B43 
  94      4B43
  95 003a C3040506 		.ascii	"\303\004\005\006\206d\260\212\0200\031\012\322\317|"
  95      8664B08A 
  95      1030190A 
  95      D2CF7C
ARM GAS  /tmp/cczifO0Q.s 			page 7


  96 0049 9EA1F9C1 		.ascii	"\236\241\371\301\335~\366D\306\205\214\254@\301j\206"
  96      DD7EF644 
  96      C6858CAC 
  96      40C16A86 
  97 0059 5F0D1D0D 		.ascii	"_\015\035\015\002\231\214@\245\020\3232A\364E\206\306"
  97      02998C40 
  97      A510D332 
  97      41F44586 
  97      C6
  98 006a 07F7F461 		.ascii	"\007\367\364a\212  \004$\001r\244\242\236\236\276sF"
  98      8A202004 
  98      240172A4 
  98      A29E9EBE 
  98      7346
  99 007c 6652A67F 		.ascii	"fR\246\177\260~~\261~Fb\016\220\002\022E%`Z/\203\001"
  99      B07E7EB1 
  99      7E46620E 
  99      90021245 
  99      25605A2F 
 100 0092 00A9FA26 		.ascii	"\000\251\372&\352"
 100      EA
 101              		.text
 102              		.section	.gnu.lto_osalSysUnlock.649f67442f33fba2,"",%progbits
 103 0000 789C6362 		.ascii	"x\234cb`b@\007\"@\\\006\304\312 \0163\003#P\005#\023"
 103      60624007 
 103      22405C06 
 103      C4CA200E 
 103      33032350 
 104 0017 232390C3 		.ascii	"##\220\303\310P\317\304X\037\311\010V\266\236\351\300"
 104      C850CFC4 
 104      581FC908 
 104      56B69EE9 
 104      C0
 105 0028 83FFFFD7 		.ascii	"\203\377\377\327\335\231\277f\016\343\177&\220\030+"
 105      DD99BF66 
 105      0EE37F26 
 105      90182B
 106 0037 434B43C3 		.ascii	"CKC\303\004\005\006\206d\260\212\0200\031\012\322\317"
 106      04050686 
 106      64B08A10 
 106      30190AD2 
 106      CF
 107 0048 7C9EA1F9 		.ascii	"|\236\241\371\301\217\363\354\211\214\013\031Y\201\202"
 107      C18FF3EC 
 107      898C0B19 
 107      598182
 108 0057 D50CBF1A 		.ascii	"\325\014\277\032:\032\0042\031\201J!\246e\202\350\213"
 108      3A1A0432 
 108      19814A21 
 108      A66582E8 
 108      8B
 109 0068 0C8D0F7E 		.ascii	"\014\215\017~\352\303\024A@\010H\002\344HE==}\347\214"
 109      EAC31441 
 109      40084802 
 109      E448453D 
 109      3D7DE78C 
 110 007c CCA44CFF 		.ascii	"\314\244L\377`\375\374b\375\214\304\034 \005$\212J\300"
ARM GAS  /tmp/cczifO0Q.s 			page 8


 110      60FDFC62 
 110      FD8CC41C 
 110      2005248A 
 110      4AC0
 111 008e B45E0603 		.ascii	"\264^\006\003\000\300I'="
 111      00C04927 
 111      3D
 112              		.text
 113              		.section	.gnu.lto_extInit.649f67442f33fba2,"",%progbits
 114 0000 789C6362 		.ascii	"x\234cb`b@\007\"@\\\014\304r \0163\003#P\005#\023##"
 114      60624007 
 114      22405C0C 
 114      C472200E 
 114      33032350 
 115 0019 90C3C850 		.ascii	"\220\303\310P\317\304X\037\311\010V\266\236\351\300"
 115      CFC4581F 
 115      C90856B6 
 115      9EE9C0
 116 0028 83FFFFD7 		.ascii	"\203\377\377\327}\330\370\260\032,\311\312\320\322\320"
 116      7DD8F8B0 
 116      1A2CC9CA 
 116      D0D2D0
 117 0037 30418181 		.ascii	"0A\201\201!\031,\037\002&CA\272\231\31734?\370e\227"
 117      21192C1F 
 117      02264341 
 117      BA99CF33 
 117      343FF865 
 118 004c C8B89091 		.ascii	"\310\270\220\221\025(V\315\360\253\241\243A \223\021"
 118      152856CD 
 118      F0ABA1A3 
 118      41209311 
 119 005c A8126254 		.ascii	"\250\022bT&\210\276\310\320\370\3407\023L\021\004\204"
 119      2688BEC8 
 119      D0F8E037 
 119      134C1104 
 119      84
 120 006d 8024402E 		.ascii	"\200$@.\224\321\323\323w\316\310L\312\364\017\326\317"
 120      94D1D3D3 
 120      77CEC84C 
 120      CAF40FD6 
 120      CF
 121 007e 2FD6CF48 		.ascii	"/\326\317H\314\321/.J\326O\255(\321Kf\000\0001\036#"
 121      CCD12F2E 
 121      4AD64FAD 
 121      28D14B66 
 121      0000311E 
 122 0093 C9       		.ascii	"\311"
 123              		.text
 124              		.section	.gnu.lto_extObjectInit.649f67442f33fba2,"",%progbits
 125 0000 789C6362 		.ascii	"x\234cb`b@\007\"@|\021\210\345@\034f\006F\240\012F&"
 125      60624007 
 125      22407C11 
 125      88E5401C 
 125      660646A0 
 126 0017 46462087 		.ascii	"FF \207\221\241\236\211\261>\222\021\254l=\323\201\007"
 126      91A19E89 
 126      B13E9211 
ARM GAS  /tmp/cczifO0Q.s 			page 9


 126      AC6C3DD3 
 126      8107
 127 0029 FFFFAF9B 		.ascii	"\377\377\257\233qlY\017\343L&\240\202\\\2608+CKC\303"
 127      716C590F 
 127      E34C26A0 
 127      825CB038 
 127      2B434B43 
 128 003e 04050686 		.ascii	"\004\005\006\206d07\004L\206\202\014a>\313\320\264\343"
 128      64303704 
 128      4C86820C 
 128      613ECBD0 
 128      B4E3
 129 0050 C6E3034C 		.ascii	"\306\343\003L\211\214\013\031Y\031\264\031V5\000\001"
 129      898C0B19 
 129      5919B419 
 129      56350001 
 130 0060 7F2623C3 		.ascii	"\177&#\303l\206Y\214\231\214\214\351\214\214\021@\032"
 130      6C86598C 
 130      998C8CE9 
 130      8C8C1140 
 130      1A
 131 0071 E2A22488 		.ascii	"\342\242$\210-\014 \021\006\020\033\244\373\007\026"
 131      2D0C2011 
 131      06101BA4 
 131      FB0716
 132 0080 DDCCD875 		.ascii	"\335\314\330u3\302u33\200=\324\370`\2062D/\014\204\200"
 132      33C27533 
 132      33803DD4 
 132      F8608632 
 132      442F0C84 
 133 0095 1481D4CB 		.ascii	"\024\201\324\313\350\351\351;gd&e\372\007\353\347\027"
 133      E8E9E93B 
 133      67642665 
 133      FA07EBE7 
 133      17
 134 00a6 EB6724E6 		.ascii	"\353g$\346\350\027\027%\353\247V\224\350%3\000\000e"
 134      E8171725 
 134      EBA75694 
 134      E8253300 
 134      0065
 135 00b8 B23592   		.ascii	"\2625\222"
 136              		.text
 137              		.section	.gnu.lto_extStart.649f67442f33fba2,"",%progbits
 138 0000 789C8D4F 		.ascii	"x\234\215O\261J\003A\020\235\267{1\361\032\265\262\021"
 138      B14A0341 
 138      109DB77B 
 138      31F11AB5 
 138      B211
 139 0012 91580AB9 		.ascii	"\221X\012\271\217\360\003,L@\313\344\220\344\300C0\026"
 139      8FF0032C 
 139      4C40CBE4 
 139      90E4C043 
 139      3016
 140 0024 82455693 		.ascii	"\202EV\223B\254\202\225h\243\210 )\264\022\256\020\023"
 140      42AC8295 
 140      68A38820 
 140      29B412AE 
ARM GAS  /tmp/cczifO0Q.s 			page 10


 140      1013
 141 0036 B0B05009 		.ascii	"\260\260P\011\376\301\201\326\261\015\"\2363\271\023"
 141      FEC181D6 
 141      B10D229E 
 141      33B913
 142 0045 21A6F0C1 		.ascii	"!\246\360\301\315\356\336\314\233\367\236\"E\303\310"
 142      CDEEDECC 
 142      9BF79E22 
 142      45C3C8
 143 0054 F2F700A2 		.ascii	"\362\367\000\242Yy\244\010<\001\005\315U\303\342j\201"
 143      5979A408 
 143      3C0105CD 
 143      55C3E26A 
 143      81
 144 0065 9B04AA29 		.ascii	"\233\004\252)m\241\266*\017\322Y:3\3460\274\350\035"
 144      6DA1B62A 
 144      0FD2593A 
 144      33E630BC 
 144      E81D
 145 0077 4D1F84A6 		.ascii	"M\037\204\246i\276\242\010\236\264\\\320\012\337\220"
 145      69BEA208 
 145      9EB45CD0 
 145      0ADF90
 146 0086 191C0AC3 		.ascii	"\031\034\012\303ZB3W\227F\237\232\317(\322\377\340\370"
 146      5A423357 
 146      97469F9A 
 146      CF28D2FF 
 146      E0F8
 147 0098 A06BD509 		.ascii	"\240k\325\011\243\350\351\346\355\265\215)\015\370\340"
 147      A3E8E9E6 
 147      EDB58D29 
 147      0DF8E0
 148 00a7 295F9CB2 		.ascii	")_\234\262\341\2061\3159?\331\303\310'\225\273\272 "
 148      E18631CD 
 148      393FD9C3 
 148      C82795BB 
 148      BA20
 149 00b9 397497EA 		.ascii	"9t\227\352ap\237.\342\034)n\355\320\207\3317\223\036"
 149      61709F2E 
 149      E21C296E 
 149      EDD087D9 
 149      37931E
 150 00cc B48B58CB 		.ascii	"\264\213X\313\223\240\202\202\\\3643\355=\366{\035\025"
 150      93A08282 
 150      5CF433ED 
 150      3DF67B1D 
 150      15
 151 00dd 1316A865 		.ascii	"\023\026\250e\030\023\036R't\314\006\307\312\200\030"
 151      18131E52 
 151      2774CC06 
 151      C7CA8018 
 152 00ed 4D0F28A5 		.ascii	"M\017(\245\304nY\004\273\324\010o\353\366\037\245\214"
 152      C46E5904 
 152      BBD4086F 
 152      EBF61FA5 
 152      8C
 153 00fe 0B954C31 		.ascii	"\013\225L1q\234\210%\202\340\275\217a\011{\264D\254"
ARM GAS  /tmp/cczifO0Q.s 			page 11


 153      719C8825 
 153      82E0BD8F 
 153      61097BB4 
 153      44AC
 154 0110 217F6CD9 		.ascii	"!\177l\331#\201\356F\310p \375\033\350\205v\303\366"
 154      2381EE46 
 154      C87020FD 
 154      1BE88576 
 154      C3F6
 155 0122 FCCF508C 		.ascii	"\374\317P\214\274\254\222\0253\271\234\263X\361J\336"
 155      BCAC9215 
 155      33B99CB3 
 155      58F14ADE 
 156 0132 D2B2B351 		.ascii	"\322\262\263Qu*\305u\247\272\351:k\333[9\227\276\001"
 156      752AC575 
 156      A7BAE93A 
 156      6BDB5B39 
 156      97BE01
 157 0145 08EA6C5E 		.ascii	"\010\352l^"
 158              		.text
 159              		.section	.gnu.lto_extStop.649f67442f33fba2,"",%progbits
 160 0000 789C6362 		.ascii	"x\234cb`b@\007J@\334\306\310\300 \007\342\26020\002"
 160      60624007 
 160      4A40DCC6 
 160      C8C02007 
 160      E2B03230 
 161 0015 55303231 		.ascii	"U0212\003IfF\026 \311\302\010\224d`d\250gbfa\254\217"
 161      32034966 
 161      461620C9 
 161      C2089464 
 161      6064A867 
 162 002e 04711898 		.ascii	"\004q\030\230\225\030\02664Lz\260\364\373\014\361\256"
 162      95181636 
 162      344C7AB0 
 162      F4FB0CF1 
 162      AE
 163 003f 070D131A 		.ascii	"\007\015\023\032\376\375\377\317\230\011\222Jfd\210"
 163      FEFDFFCF 
 163      9809924A 
 163      666488
 164 004e 00B21839 		.ascii	"\000\262\0309\300\024\023#\272] m\015\353V40/h\370\363"
 164      C0141323 
 164      BA5D206D 
 164      0DEB5634 
 164      302F68F8 
 165 0063 FF3F3311 		.ascii	"\377?3\021zr\031\031\3263\035x\360\377\177\317\356?"
 165      7A721919 
 165      D6331D78 
 165      F0FF7FCF 
 165      EE3F
 166 0075 0F5F310A 		.ascii	"\017_1\012212\346\202\235\304\312\320\322\3200A!\027"
 166      323132E6 
 166      829DC4CA 
 166      D0D2D030 
 166      412117
 167 0088 6A041084 		.ascii	"j\004\020\204@I\240\027\230CA^`>\317\320\374\340\316"
 167      4049A017 
ARM GAS  /tmp/cczifO0Q.s 			page 12


 167      9843415E 
 167      603ECFD0 
 167      FCE0CE
 168 009b 61F644C6 		.ascii	"a\366D\306\305\214\254@\251j\206_\015\035\015\002\231"
 168      C58CAC40 
 168      A96A865F 
 168      0D1D0D02 
 168      99
 169 00ac 8CCCC98C 		.ascii	"\214\314\311\214\020k2A~\004\201P\020\003\250\276\345"
 169      106B3241 
 169      7E048150 
 169      1003A8BE 
 169      E5
 170 00bd C1FDC798 		.ascii	"\301\375\307\230\352Y\223\031!!\227\316\010t\"\033\003"
 170      EA599319 
 170      212197CE 
 170      0874221B 
 170      03
 171 00ce C35986A6 		.ascii	"\303Y\206\246\035\035U\020u\332\014\253\032\200\200"
 171      1D1D5510 
 171      75DA0CAB 
 171      1A8080
 172 00dd 3F93917D 		.ascii	"?\223\221}6\303,\240<\007P\025\310+\234`-IP\017\201"
 172      36C32CA0 
 172      3C075015 
 172      C82B9C60 
 172      2D49500F 
 173 00f2 44D8416C 		.ascii	"D\330Al\220\243^6sas\0243\302Q\027\031\032\037\274R"
 173      90A35E36 
 173      73617314 
 173      33C25117 
 173      191A1FBC 
 174 0107 86298280 		.ascii	"\206)\202\200\020\220\253A\016\221\321\323\323w\316"
 174      1090AB41 
 174      0E91D1D3 
 174      D377CE
 175 0116 C84CCAF4 		.ascii	"\310L\312\364\017\326\317/\326\317H\314\321/.J\326O"
 175      0FD6CF2F 
 175      D6CF48CC 
 175      D12F2E4A 
 175      D64F
 176 0128 AD28D14B 		.ascii	"\255(\321Kf\000\000\015\367^E"
 176      6600000D 
 176      F75E45
 177              		.text
 178              		.section	.gnu.lto_extChannelEnable.649f67442f33fba2,"",%progbits
 179 0000 789C6362 		.ascii	"x\234cb`b@\007J@\274\223\221\201A\016\304ae`\004\252"
 179      60624007 
 179      4A40BC93 
 179      9181410E 
 179      C4616560 
 180 0016 60646264 		.ascii	"`dbd\006\222\314\214,@\222\205\021(\311\300\310P\317"
 180      0692CC8C 
 180      2C409285 
 180      1128C9C0 
 180      C850CF
 181 0029 C4CCC258 		.ascii	"\304\314\302X\037\311\010V\246\304\260\260\241a\322"
ARM GAS  /tmp/cczifO0Q.s 			page 13


 181      1FC90856 
 181      A6C4B0B0 
 181      A161D2
 182 0038 83A38B66 		.ascii	"\203\243\213f\212w=h\230\320\360\357\377\177\306L\220"
 182      8A773D68 
 182      98D0F0EF 
 182      FF7FC64C 
 182      90
 183 0049 54322343 		.ascii	"T2#C\004\220\305\310\001\246\230\030\321\355\002ik\330"
 183      0490C5C8 
 183      01A69818 
 183      D1ED0269 
 183      6BD8
 184 005b B4A28173 		.ascii	"\264\242\201sA\303\237\377\377\2313A\026\301\364(@\364"
 184      41C39FFF 
 184      FF993341 
 184      16C1F428 
 184      40F4
 185 006d B010D4C3 		.ascii	"\260\020\324\303B\013=\271\214\014\353\231\016<\370"
 185      420B3DB9 
 185      8C0CEB99 
 185      0E3CF8
 186 007c FFFFCEFE 		.ascii	"\377\377\316\376\037\217g0\012132\3462\002}\220\013"
 186      1F8F6730 
 186      0A313332 
 186      E632027D 
 186      900B
 187 008e 0A1160C0 		.ascii	"\012\021`\300\26444LP\310\205\372\021\010B\240$P\226"
 187      B434344C 
 187      50C885FA 
 187      110842A0 
 187      245096
 188 00a1 3914E40D 		.ascii	"9\024\344\015\346\363\014\315\017:\217\262'2.ed\005"
 188      E6F30CCD 
 188      0F3A8FB2 
 188      27322E65 
 188      6405
 189 00b3 4A5533FC 		.ascii	"JU3\374j\350h\020\310ddMf\204\204C&#\033\304\256P\220"
 189      6AE86810 
 189      C864644D 
 189      66848443 
 189      26231BC4 
 190 00ca 7380EA5B 		.ascii	"s\200\352[\037\364\245b(gOf\204\304R:#c:#S&0,\031@F"
 190      1FF4A562 
 190      28674F66 
 190      84C4523A 
 190      23633A23 
 191 00e5 F7B77261 		.ascii	"\367\267ra3\232\031a\364E\206\306\0073Ta\212  \004d"
 191      339A1961 
 191      F44586C6 
 191      07335461 
 191      8A202004 
 192 00fa 37C83C19 		.ascii	"7\310<\031==}\347\214\314\244L\377`\375\374b\375\214"
 192      3D3D7DE7 
 192      8CCCA44C 
 192      FF60FDFC 
 192      62FD8C
ARM GAS  /tmp/cczifO0Q.s 			page 14


 193 010d C41CFDE2 		.ascii	"\304\034\375\342\242d\375\324\212\022\275d\006\000T"
 193      A264FDD4 
 193      8A12BD64 
 193      060054
 194 011c 6868C7   		.ascii	"hh\307"
 195              		.text
 196              		.section	.gnu.lto_extChannelDisable.649f67442f33fba2,"",%progbits
 197 0000 789C6362 		.ascii	"x\234cb`b@\007J@\274\223\221\201A\016\304ae`\004\252"
 197      60624007 
 197      4A40BC93 
 197      9181410E 
 197      C4616560 
 198 0016 60646264 		.ascii	"`dbd\006\222\314\214,@\222\205\021(\311\300\310P\317"
 198      0692CC8C 
 198      2C409285 
 198      1128C9C0 
 198      C850CF
 199 0029 C4CCC258 		.ascii	"\304\314\302X\037\311\010V\246\304\260\260\241a\322"
 199      1FC90856 
 199      A6C4B0B0 
 199      A161D2
 200 0038 83D67533 		.ascii	"\203\326u3\305\273\0364Lh\370\367\377?c&H*\231\221!"
 200      C5BB1E34 
 200      4C68F8F7 
 200      FF3F6326 
 200      482A9991 
 201 004d 02C862E4 		.ascii	"\002\310b\344\000SL\214\350v\201\2645lZ\321\300\271"
 201      00534C8C 
 201      E87681B4 
 201      356C5AD1 
 201      C0B9
 202 005f A0E1CFFF 		.ascii	"\240\341\317\377\377\314\231 \213`z\024 zX\010\352a"
 202      FFCC9920 
 202      8B607A14 
 202      207A5808 
 202      EA61
 203 0071 A1859E5C 		.ascii	"\241\205\236\\F\206\365L\007\036\374\377\277\347\352"
 203      4686F54C 
 203      071EFCFF 
 203      BFE7EA
 204 0080 9FC7FB18 		.ascii	"\237\307\373\030\205\230\031\031s\031\201>\310\005\205"
 204      85981919 
 204      7319813E 
 204      C80585
 205 008f 0830605A 		.ascii	"\0100`Z\032\032&(\344B\375\010\004!P\022(\313\034\012"
 205      1A1A2628 
 205      E442FD08 
 205      04215012 
 205      28CB1C0A 
 206 00a3 F206F379 		.ascii	"\362\006\363y\206\346\007\353\217\262'2.ed\005JU3\374"
 206      86E607EB 
 206      8FB22732 
 206      2E656405 
 206      4A5533FC 
 207 00b7 6AE86810 		.ascii	"j\350h\020\310ddMf\204\204C&#\033\304\256P\220s\200"
 207      C864644D 
 207      66848443 
ARM GAS  /tmp/cczifO0Q.s 			page 15


 207      26231BC4 
 207      AE509073 
 208 00cc EA5B1FEC 		.ascii	"\352[\037\354I\305P\316\236\314\010\211\245tF\306tF"
 208      49C550CE 
 208      9ECC0889 
 208      A57446C6 
 208      7446
 209 00de A64C6058 		.ascii	"\246L`X2\200\214\336\333\312\205\315hf\204\321\027\031"
 209      32808CDE 
 209      DBCA85CD 
 209      686684D1 
 209      1719
 210 00f0 1A1FEC53 		.ascii	"\032\037\354S\205)\202\200\020\220\335 \363d\364\364"
 210      85298280 
 210      1090DD20 
 210      F364F4F4 
 211 0100 F49D3332 		.ascii	"\364\23532\2232\375\203\365\363\213\3653\022s\364\213"
 211      9332FD83 
 211      F5F38BF5 
 211      331273F4 
 211      8B
 212 0111 8B92F553 		.ascii	"\213\222\365S+J\364\222\031\000aJi["
 212      2B4AF492 
 212      1900614A 
 212      695B
 213              		.text
 214              		.section	.gnu.lto_extSetChannelModeI.649f67442f33fba2,"",%progbits
 215 0000 789C8592 		.ascii	"x\234\205\222\317K\002Q\020\307g\336\356\252\375$\350"
 215      CF4B0251 
 215      10C767DE 
 215      EEAAFD24 
 215      E8
 216 0011 10569058 		.ascii	"\020V\220X\020$\271\347\316\375\001\0352\260\243n\245"
 216      1024B9E7 
 216      CEFD011D 
 216      32B0A36E 
 216      A5
 217 0022 0B8A911D 		.ascii	"\013\212\221\035\202\016>-!\214D:\004\3758\024QA\004"
 217      820E3E2D 
 217      218C443A 
 217      04FD3814 
 217      514104
 218 0035 1D3A1551 		.ascii	"\035:\025Q^:ED\307\002a\243\177\"<\264\315\333\267*"
 218      5E3A4544 
 218      C70261A3 
 218      7F223CB4 
 218      CDDBB72A 
 219 0049 45D0C0BE 		.ascii	"E\320\300\276\2357o>\337\2317<\006\014~\333\000}\303"
 219      9D376F3E 
 219      DF99373C 
 219      060C7EDB 
 219      007DC3
 220 005c 141E111B 		.ascii	"\024\036\021\033\025\220\\d\250\320\252 R\010!\307\024"
 220      15905C64 
 220      A8D0AA20 
 220      520821C7 
 220      14
ARM GAS  /tmp/cczifO0Q.s 			page 16


 221 006d CCCDA273 		.ascii	"\314\315\242s\036\204#\316\267\255\207\273\335\276\222"
 221      1E8423CE 
 221      B7AD87BB 
 221      DDBE92
 222 007c C52BFCCB 		.ascii	"\305+\374\313\266\321\024G\006B\224<\3649?\206?\213"
 222      B6D11447 
 222      0642943C 
 222      F4393F86 
 222      3F8B
 223 008e 48AC6A6F 		.ascii	"H\254jo\236\372K\207\205\006\246\264\260\200\304\324"
 223      9EFA4B87 
 223      8506A6B4 
 223      B080C4D4 
 224 009e 3FB1D7C7 		.ascii	"?\261\327\307\035?oa*\203!\374\207L#\\\262\252e\333"
 224      1D3F6F61 
 224      2A8321FC 
 224      874C235C 
 224      B2AA65DB 
 225 00b2 B735EBA3 		.ascii	"\2675\353\243\214\275\036\3044\322\335\250\250B\036"
 225      8CBD1EC4 
 225      34D2DDA8 
 225      A8421E
 226 00c1 A5C7F018 		.ascii	"\245\307\360\030\203\240\321\206\332\000\015\3269\257"
 226      83A0D186 
 226      DA000DD6 
 226      39AF
 227 00cf 046430ED 		.ascii	"\004d0\355^\210,\342\2564\025eFd*OPx\373\274\177Wcx"
 227      5E882CE2 
 227      AE341565 
 227      46642A4F 
 227      5078FBBC 
 228 00e7 821A2490 		.ascii	"\202\032$\220\205`\214T\367a\217\332\320\022\210\242"
 228      85608C54 
 228      F7618FDA 
 228      D01288A2 
 229 00f7 1D8FD344 		.ascii	"\035\217\323D\2749\005\202\352k\013\015D]\205:\315\216"
 229      BC390582 
 229      EA6B0B0D 
 229      445D853A 
 229      CD8E
 230 0109 E74CF48E 		.ascii	"\347L\364\216\303\205pk\004\371Bp.\374k\362\333\244"
 230      C385706B 
 230      04F94270 
 230      2EFC6BF2 
 230      DBA4
 231 011b 5E3BE947 		.ascii	"^;\351G\345\244\034=)\230p\367-\361\233\342\325A\277"
 231      E5A41C3D 
 231      299870F7 
 231      2DF19BE2 
 231      D541BF
 232 012e 942730CF 		.ascii	"\224'0\3179\367\232\330A\225\004,G\343\306'\250N\002"
 232      39F79AD8 
 232      4195042C 
 232      47E3C627 
 232      A84E02
 233 0141 3511F7BA 		.ascii	"5\021\367\272\3743\024\255\255\263n\211\003\210\346"
 233      FC3314AD 
ARM GAS  /tmp/cczifO0Q.s 			page 17


 233      ADB36E89 
 233      0388E6
 234 0150 36788F89 		.ascii	"6x\217\211\235F\263\036RI\023\273\000^ o\225G\033\251"
 234      9D46B31E 
 234      524913BB 
 234      005E206F 
 234      95471BA9 
 235 0164 D222224D 		.ascii	"\322\"\"M<\254\301pX\237L\232qsjZ\317d\365d,\245g\227"
 235      3CACC170 
 235      589F4C9A 
 235      71736A5A 
 235      CF64F564 
 236 017c 0C7D7E65 		.ascii	"\014}~e9l\200\226I\315\031\213\337Z\232\203m"
 236      396C8096 
 236      49CD198B 
 236      DF5A9A83 
 236      6D
 237              		.text
 238              		.section	.gnu.lto_.symbol_nodes.649f67442f33fba2,"",%progbits
 239 0000 789C4DC8 		.ascii	"x\234M\3109N\003A\024\204\341z\325\323\366,^\306G\344"
 239      394E0341 
 239      1484E17A 
 239      D5D3F62C 
 239      5EC647E4 
 240 0014 24353289 		.ascii	"$52\211C\263\030#Y\310\001\001\234\303\316\011\211Y"
 240      43B31823 
 240      59C80101 
 240      9CC3CE09 
 240      8959
 241 0026 CE0021E0 		.ascii	"\316\000!\340q\267\230W\311\257\257\010bgH\343/\004"
 241      71B79857 
 241      C9AFAF08 
 241      626748E3 
 241      2F04
 242 0038 AC5F0069 		.ascii	"\254_\000i\263\272`g2\307'\023\035\237M\301\361\313"
 242      B3BA6067 
 242      32C72713 
 242      1D9F4DC1 
 242      F1CB
 243 004a 54387E9B 		.ascii	"T8~\233\242\343\232\032e\276\256\214W\324\330\361\232"
 243      A2E39A1A 
 243      65BEAE8C 
 243      57D4D8F1 
 243      9A
 244 005b 2A1D6FA8 		.ascii	"*\035o\250\312\361\226\252\0357T\343xGM\006\332\226"
 244      CAF196AA 
 244      1D3754E3 
 244      78474D06 
 244      DA96
 245 006d 9A26769D 		.ascii	"\232&v\235\331=5\033\264\243\346\203\036\250v\320\236"
 245      D93D351B 
 245      B4A3E683 
 245      1EA876D0 
 245      9E
 246 007e 5AFC2B10 		.ascii	"Z\374+\020X\276\375X\010\226Z05\206\324\321\024\227"
 246      58BEFD58 
 246      08965A30 
ARM GAS  /tmp/cczifO0Q.s 			page 18


 246      3586D4D1 
 246      1497
 247 0090 7DCB22B9 		.ascii	"}\313\"\271\234\341xn\304\362\375\324*\377\325\034\217"
 247      9CE1786E 
 247      C4F2FDD4 
 247      2AFFD51C 
 247      8F
 248 00a1 E7467CF4 		.ascii	"\347F|\364\255\363_\267\351\257#\016}\233\3747\213\364"
 248      ADF35FB7 
 248      E9AF230E 
 248      7D9BFC37 
 248      8BF4
 249 00b3 37F99FB4 		.ascii	"7\371\237\264\370<\025\177P\356\203\275"
 249      F83C157F 
 249      50EE83BD 
 250              		.text
 251              		.section	.gnu.lto_.refs.649f67442f33fba2,"",%progbits
 252 0000 789C6362 		.ascii	"x\234cb`b`d\200\002\000\000F\000\006"
 252      60626064 
 252      80020000 
 252      460006
 253              		.text
 254              		.section	.gnu.lto_.decls.649f67442f33fba2,"",%progbits
 255 0000 789CBD5B 		.ascii	"x\234\275[{t\024U\232\277\267:\351N\347E\300Qq\017;"
 255      7B741455 
 255      9ABFB73A 
 255      E94EE745 
 255      C051710F 
 256 0015 468FBAB3 		.ascii	"F\217\272\263\343\201\346)\361\354\236\021\027\3351"
 256      E381E629 
 256      F1EC9E11 
 256      17DD31
 257 0024 67053D03 		.ascii	"g\005=\003\316\231\277\266\267\350\024\244\307~Mw\205"
 257      CE99BFB6 
 257      B7E814A4 
 257      C77E4D77 
 257      85
 258 0035 C05F5612 		.ascii	"\300_V\022\211\214q\326\000B\200\321!\200\300\360p@"
 258      898C71D6 
 258      004280D1 
 258      2180C0F0 
 258      7040
 259 0047 94D728A4 		.ascii	"\224\327(\244\"\003\0110C\002\010\010\022\015\254\260"
 259      22030930 
 259      43020808 
 259      120DACB0 
 260 0057 93F10188 		.ascii	"\223\361\001\2108\200\214\331\357\336\272\325Uu\273"
 260      38808CD9 
 260      EFDEBAD5 
 260      5575BB
 261 0066 AA531DDC 		.ascii	"\252S\035\334\251sn\365\255\252\373\375\276\367W\367"
 261      A9736EF5 
 261      ADAAFBFD 
 261      BEF757F7 
 262 0076 56550B48 		.ascii	"VU\013H@\343\363\020\352\207m^\005B\377\351C\250\024"
 262      40E3F310 
 262      EA876D5E 
ARM GAS  /tmp/cczifO0Q.s 			page 19


 262      0542FFE9 
 262      43A814
 263 0089 21F42364 		.ascii	"!\364#dl\303\240\255\204\266\026\332zh\233\240m\206"
 263      6CC3A0AD 
 263      84B616DA 
 263      7A689BA0 
 263      6D86
 264 009b B615DA36 		.ascii	"\266\025\3326h;\241]#\0031By\320\012\241\015\2016\002"
 264      683BA15D 
 264      23033142 
 264      79D00AA1 
 264      0D813602 
 265 00af DAF7A195 		.ascii	"\332\367\241\225C\273\027\332}\030el\0047\037Z\017\322"
 265      43BB17DA 
 265      7D18656C 
 265      04371F5A 
 265      0FD2
 266 00c1 F816437B 		.ascii	"\370\026C{\000\306=\310\306\012l\314H\033\332\265.h"
 266      00C63DC8 
 266      C60A6CCC 
 266      481BDAB5 
 266      2E68
 267 00d3 D73AD0AE 		.ascii	"\327:\320\256g\327\037\202k\253\2201~=\343\307oDg/\264"
 267      67D71F82 
 267      6BAB9031 
 267      7E3DE3C7 
 267      6F44672F 
 268 00e8 89D8E0E5 		.ascii	"\211\330\340\345\263\241\337\304x\022\226\177\346\370"
 268      B3A1DFC4 
 268      7812967F 
 268      E6F8
 269 00f6 6E76E0B9 		.ascii	"nv\340\271\231\361\345\267\255\016\343\2672>\374\266"
 269      99F1E5B7 
 269      AD0EE3B7 
 269      323EFCB6 
 270 0106 CD613C39 		.ascii	"\315a<9?\302\306\006\304o\340z\364\036\264w\241\275"
 270      3FC2C606 
 270      C46FE07A 
 270      F41EB477 
 270      A1BD
 271 0118 03AD8BD1 		.ascii	"\003\255\213\321\264C;\314\364\330\311~\257r\364\304"
 271      B4433BCC 
 271      F4D8C97E 
 271      AF72F4C4 
 272 0128 E745D0F6 		.ascii	"\347E\320\366!\303&:\357.\023\346\027pn\027\343#0\334"
 272      21C3263A 
 272      EF2E13E6 
 272      17706E17 
 272      E32330DC 
 273 013c 76C6FB1A 		.ascii	"v\306\373\032\323\237\304\011\321\313\003\355\"\364"
 273      D39FC409 
 273      D1CB03ED 
 273      22F4
 274 014a FF06BFDF 		.ascii	"\377\006\277\337\362\002\223\330r\340g\346\241\363\305"
 274      F20293D8 
 274      72E067E6 
 274      A1F3C5
ARM GAS  /tmp/cczifO0Q.s 			page 20


 275 0159 263EE480 		.ascii	"&>\344\200\360)\307\206]\277\202\276\300\331\205\304"
 275      F029C786 
 275      5DBF82BE 
 275      C0D985C4 
 276 0169 AF9FE341 		.ascii	"\257\237\343At1\373\372\013h\027\364\361\214\206`\337"
 276      7431FBFA 
 276      0B6817F4 
 276      F18C8660 
 276      DF
 277 017a 6BD2E13A 		.ascii	"k\322\341:\364\275\320|\034~\341 \360\013\031\376}&"
 277      F4BDD07C 
 277      1C7EE120 
 277      F00B19FE 
 277      7D26
 278 018c FC6FA15F 		.ascii	"\374o\241_\014\255\204\303\037\302\342\223\307\367\010"
 278      0CAD84C3 
 278      1FC2E293 
 278      C7F708
 279 019b 865DBE07 		.ascii	"\206]\276\007cn'\271\012\347\272\341\370\244\211\247"
 279      636E27B9 
 279      0AE7BAE1 
 279      F8A489A7 
 280 01ab EE9FE3AC 		.ascii	"\356\237\343\254?\204\345.\221#\037N\334\011\375\341"
 280      3F84E52E 
 280      91231F4E 
 280      DC09FDE1 
 281 01bb D0EEE2F8 		.ascii	"\320\356\342\370\336\215~\243\250\335\275\363.\374\217"
 281      DE8D7EA3 
 281      A8DDBDF3 
 281      2EFC8F
 282 01ca B04C519F 		.ascii	"\260LQ\237W\240\234(\270\374\016\264X\201\255\265QQ"
 282      57A09C28 
 282      B8FC0EB4 
 282      5881ADB5 
 282      5151
 283 01dc B02CE21F 		.ascii	"\260,\342\037\335\216~\206E\\\352G\345\264S\354\327"
 283      DD8E7E86 
 283      455CEA47 
 283      E5B453EC 
 283      D7
 284 01ed 7C8344BC 		.ascii	"|\203D\274\012\337\301z\317x4D\001\215\302\350\207h"
 284      0ADFC17A 
 284      CF783444 
 284      018DC2E8 
 284      8768
 285 01ff 3DD0372B 		.ascii	"=\3207+J\375\367\221\335\366\000ZC\030(\277U<\024\236"
 285      4AFDF791 
 285      DDF6005A 
 285      431828BF 
 285      553C149E 
 286 0213 00ACC477 		.ascii	"\000\254\304w\233\207\210x5\0262EU\233?.n\256\353\355"
 286      9B878878 
 286      35163245 
 286      559B3F2E 
 286      6EAEEBED 
 287 0227 EF5FD15A 		.ascii	"\357_\321Z\246\261\027\320#\030F\277\216\177\230\025"
 287      A6B117D0 
ARM GAS  /tmp/cczifO0Q.s 			page 21


 287      231846BF 
 287      8E7F9815 
 288 0237 7E2D0FBF 		.ascii	"~-\017\277\316\016\276w{cO\276\311\022:\213\250\033"
 288      CE0EBE77 
 288      7B634FBE 
 288      C9123A8B 
 288      A81B
 289 0249 16EB7916 		.ascii	"\026\353y\026\033l5x\365d\206\006\265n\3407\361\360"
 289      1B6C3578 
 289      F5648606 
 289      B56EE037 
 289      F1F0
 290 025b 6FD86AB0 		.ascii	"o\330j\260\344\340\347>\033\015\326`7<6\363<\266\330"
 290      E4E0E73E 
 290      1B0DD660 
 290      373C36F3 
 290      3CB6D8
 291 026e AA7026D3 		.ascii	"\252p&\323\011o\272\302\337\312\343\277\225\211\337"
 291      096FBAC2 
 291      DFCAE3BF 
 291      9589DF
 292 027d AAF6F637 		.ascii	"\252\366\3667\275\3535t@:\2173\256xl\343yl\267\343\241"
 292      BDEB3574 
 292      403A8F33 
 292      AE786CE3 
 292      796CB7E3 
 293 0292 2EDDCF74 		.ascii	".\335\317t\310!\334w\261p\367\320$\203*\372\"\2048!"
 293      C821DC77 
 293      B170F7D0 
 293      24832AFA 
 293      22843821 
 294 02a6 7CA2B374 		.ascii	"|\242\263t\030Z@P\312;!\177\031\375$\235\276\000\006"
 294      185A4050 
 294      CA3B217F 
 294      19FD249D 
 294      BE0006
 295 02b9 DF8F5E87 		.ascii	"\337\217^\207\224\350]\366\362\037W\342\006\340$\342"
 295      94E85DF6 
 295      F21F57E2 
 295      06E024E2 
 296 02c9 77F130C0 		.ascii	"w\3610\300\231'X\225b8\255\223\234\200D\274\007\024"
 296      99275895 
 296      6238AD93 
 296      9C8044BC 
 296      0714
 297 02db 12711B90 		.ascii	"\022q\033\220k\204\024Z\351m;z\265\016\327Qhr\015q\266"
 297      6B84145A 
 297      E96D3B7A 
 297      B50ED751 
 297      68720D71 
 298 02f0 326DF7A0 		.ascii	"2m\367\240V\020\\\375\270\3437w*\275*\366\241F\242G"
 298      56105CFD 
 298      B8E33777 
 298      2ABD2AF6 
 298      A146A247 
 299 0304 EFBCFAE1 		.ascii	"\357\274\372\341K\015\246\005:Sl\222\276k\337\030E)"
 299      4B0DA605 
ARM GAS  /tmp/cczifO0Q.s 			page 22


 299      3A536C92 
 299      BE6BDF18 
 299      4529
 300 0316 10F17B40 		.ascii	"\020\361{@$\240\275\234\354.\200\210T\373\200\330,\271"
 300      24A0BD9C 
 300      EC2E8088 
 300      54FB80D8 
 300      2CB9
 301 0328 DA3FB75C 		.ascii	"\332?\267\\;\233Efjs\001\035\006\226\004.\317o\234;"
 301      3B9B4566 
 301      6A73011D 
 301      0696042E 
 301      CF6F9C3B 
 302 033c 659CC3A6 		.ascii	"e\234\303\246\241\347\214\323z\000\220C\3547:\375\326"
 302      A1E78CD3 
 302      7A009043 
 302      EC373AFD 
 302      D6
 303 034d 7A68164D 		.ascii	"zh\026M\304\373\361\375\260\357\300\036[2\001}N\265"
 303      C4FBF1FD 
 303      B0EFC01E 
 303      5B32017D 
 303      4EB5
 304 035f 27A6B653 		.ascii	"'\246\266S\224u\015\276\245\372\0013?\370\353og\361"
 304      94750DBE 
 304      A5FA0133 
 304      3FF8EB6F 
 304      67F1
 305 0371 A206A573 		.ascii	"\242\006\245s\264] \301\020l\012\001e\250\216\330,\244"
 305      B45D20C1 
 305      106C0A01 
 305      65A88ED8 
 305      2CA4
 306 0383 FDA1EEEE 		.ascii	"\375\241\356\356\300\3456\201\307\015\026\361\021Pe"
 306      C0E53681 
 306      C70D16F1 
 306      115065
 307 0392 E07164E4 		.ascii	"\340qd\3441.\252\3247;\212\225<\355\374@\021\245\250"
 307      312EAAD4 
 307      373B8A95 
 307      3CEDFC40 
 307      11A5A8
 308 03a5 BB3A5EC5 		.ascii	"\273:^\305J\353{x(jf\274\006\014g\246\311\342\016R\253"
 308      4AEB7B78 
 308      286A66BC 
 308      060C67A6 
 308      C9E20E52 
 309 03ba 4ED294B8 		.ascii	"N\322\224\270\222kJ\020\301N\363\202\367\354\247\202"
 309      926B4A10 
 309      C14EF382 
 309      F7ECA782 
 310 03ca 9F76950A 		.ascii	"\237v\225\012W\367\277z\027\021\334\217\346\033\236"
 310      57F7BF7A 
 310      1711DC8F 
 310      E61B9E
 311 03d9 40B68540 		.ascii	"@\266\205@O\205\345\373\332q=\315\266\036L\"\354\232"
 311      4F85E5FB 
ARM GAS  /tmp/cczifO0Q.s 			page 23


 311      DA713DCD 
 311      B61E4C22 
 311      EC9A
 312 03eb C72AB57B 		.ascii	"\307*\265{\250E\347\324\026V\023z)Tc\276\025J\304>\277"
 312      A845E7D4 
 312      1656137A 
 312      295463BE 
 312      154AC43E 
 313 0400 59687AAC 		.ascii	"Yhz\254\017 x>\277\321!k\202!(\327\341\002Z@\231\236"
 313      0F20783E 
 313      BFD1216B 
 313      822128D7 
 313      E1025A40 
 314 0416 36C2D922 		.ascii	"6\302\331\"\352\300\341\274\347\350'\230\024m\217%\232"
 314      EAC0E1BC 
 314      E7E82798 
 314      146D8F25 
 314      9A
 315 0427 DD17D70B 		.ascii	"\335\027\327\013\326\342*\342wp\221~\340\332\226\352"
 315      D6E22AE2 
 315      7770917E 
 315      E0DA96EA 
 316 0437 5B8DB713 		.ascii	"[\215\267\023\257\367Q;.\311\260c\017\036\214!\215\351"
 316      AFF7513B 
 316      2EC9B063 
 316      0F1E8C21 
 316      8DE9
 317 0449 0DCACAFC 		.ascii	"\015\312\312\374X\343\367\010\363\363 \270\200Vs\314"
 317      58E3F708 
 317      F3F320B8 
 317      805673CC 
 318 0459 2D66D1D4 		.ascii	"-f\321\324u2\305\027\000`\037\261\031\327\340\316\233"
 318      7532C517 
 318      00601FB1 
 318      19D7E0CE 
 318      9B
 319 046a B3DFCA33 		.ascii	"\263\337\3123`M\370F\036\211\370CZ\001\317\340{`\377"
 319      604DF846 
 319      1E89F843 
 319      5A01CFE0 
 319      7B60FF
 320 047d 09EC791B 		.ascii	"\011\354y\033\330\324\217\023\220\373i\217)ima\210\223"
 320      D8D48F13 
 320      90FB698F 
 320      29696D61 
 320      8893
 321 048f B297984B 		.ascii	"\262\227\230K\322\222\262\216\316N@oS\015\217\031\032"
 321      D292B28E 
 321      CE4E406F 
 321      530D8F19 
 321      1A
 322 04a0 727CB3C4 		.ascii	"r|\263\304\246I1M\245\367\251J\307\315\312\010hwF\234"
 322      A649314D 
 322      A5F7A94A 
 322      C7CDCA08 
 322      6877469C 
 323 04b4 68E5CE44 		.ascii	"h\345\316Dm\324E\304\323;)\326\205\213\014\026\035\371"
ARM GAS  /tmp/cczifO0Q.s 			page 24


 323      6DD445C4 
 323      D33B29D6 
 323      858B0C16 
 323      1DF9
 324 04c6 DCCDE2D6 		.ascii	"\334\315\342\326\274\324f\362\222JUj\247^:\354F\260"
 324      BCD466F2 
 324      924A556A 
 324      A75E3AEC 
 324      46B0
 325 04d8 770CC12C 		.ascii	"w\014\301,\221\015wW\316\020\367\241\325\212\262\020"
 325      910D7757 
 325      CE10F7A1 
 325      D58AB210 
 326 04e8 E663FB2F 		.ascii	"\346c\373/\223;\325\023\032-\314\304\350\270\2350\323"
 326      933BD513 
 326      1A2DCCC4 
 326      E8B89D30 
 326      D3
 327 04f9 B2E391E6 		.ascii	"\262\343\221\346\300\246g\277R\346\225\341\364\374l"
 327      C0A667BF 
 327      52E695E1 
 327      F4FC6C
 328 0508 273F3FFB 		.ascii	"'??\373\312v~\366\301 \346g\327\263\224\220\264?8\225"
 328      CA767EF6 
 328      C120E667 
 328      D7B39490 
 328      B43F3895 
 329 051c CFDAAAAC 		.ascii	"\317\332\252\254\\\255b\312\212\370k:\335\272\226]Y"
 329      5CAD62CA 
 329      8AF86B3A 
 329      DDBA965D 
 329      59
 330 052d 46764C7A 		.ascii	"FvLzBc$\342+\003\220ue\261\3215\336F7mm\264\245C\267"
 330      426324E2 
 330      2B039075 
 330      65B1D135 
 330      DE46376D 
 331 0546 91363715 		.ascii	"\22167\025\320_\354\265\271\302k\243\010\203q\035\241"
 331      D05FECB5 
 331      B9C26BA3 
 331      0883711D 
 331      A1
 332 0557 B2885527 		.ascii	"\262\210U'\330\211u\303$\326\005*\326\227\366b-\226"
 332      D88975C3 
 332      24D6052A 
 332      D697F662 
 332      2D96
 333 0569 38B19ECF 		.ascii	"8\261\236\317.\026#\373\220\220i\025\276\301\213\263"
 333      2E1623FB 
 333      90906915 
 333      BEC18BB3 
 334 0579 92F569C5 		.ascii	"\222\365i\305\305V\233\347ym\346\331js\342 \257M\223"
 334      C5569BE7 
 334      796DE6D9 
 334      6A73E220 
 334      AF4D93
 335 058c D7569B16 		.ascii	"\327V\233\026^\233\027]i\323\243k#\342\371Bv\262l\332"
ARM GAS  /tmp/cczifO0Q.s 			page 25


 335      5E9B175D 
 335      69D3A36B 
 335      23E2F942 
 335      76B26CDA 
 336 05a0 BCC86BD3 		.ascii	"\274\310k\323d\253\315\321C\271\247U\263\220-\255\230"
 336      64ABCDD1 
 336      43B9A755 
 336      B3902DAD 
 336      98
 337 05b1 5059D644 		.ascii	"PY\326D\255\252e*\313\255f>\240\345\353\264\245\276"
 337      ADAA652A 
 337      CBAD663E 
 337      A0E5EBB4 
 337      A5BE
 338 05c3 3ADF7232 		.ascii	":\337r2\204{E(2\006\361\311\375\232\275\247\226\361"
 338      847B4528 
 338      3206F1C9 
 338      FD9ABDA7 
 338      96F1
 339 05d5 9E7AD98D 		.ascii	"\236z\331\215\247\324\343M\353`\222(X\275\345LJ\015"
 339      A7D4E34D 
 339      EB609228 
 339      58BDE54C 
 339      4A0D
 340 05e7 C3484F1E 		.ascii	"\303HO\036z[#%\342\012h\013\225\313\231\224)\2459Z="
 340      7A5B2325 
 340      E20A680B 
 340      95CB9994 
 340      29A5395A 
 341 05fc D6D4D08A 		.ascii	"\326\324\320\212\025o\332\325/\363\256^\222\351\352"
 341      156FDAD5 
 341      2FF3AE5E 
 341      92E9EA
 342 060b DEE6DEB6 		.ascii	"\336\346\336\266\205]\365xACk\247r\211Ld\364U\364v/"
 342      855DF578 
 342      41436BA7 
 342      72894C64 
 342      F455F476 
 343 0620 BF8AD640 		.ascii	"\277\212\326@^\263\003Q\367\034|I\3014b\356\326k\314"
 343      5EB30351 
 343      F71C7C49 
 343      C13462EE 
 343      D66BCC
 344 0633 5E078015 		.ascii	"^\007\200\025\266\000\335\231\000G\034\000V\332\002"
 344      B600DD99 
 344      00471C00 
 344      56DA02
 345 0642 1C350368 		.ascii	"\0345\003h\011\370\221\003\300j[\200\3673\001\256:\000"
 345      09F89103 
 345      C06A5B80 
 345      F73301AE 
 345      3A00
 346 0654 ACB102B0 		.ascii	"\254\261\002\260eL\353\244\245\245l\006\332\273F\031"
 346      654CEBA4 
 346      A5A56C06 
 346      DABB4619 
 347 0664 3E3CCB12 		.ascii	"><\313\022\231<\364\002/\257\023Hq\372\025\377\030\321"
ARM GAS  /tmp/cczifO0Q.s 			page 26


 347      993CF402 
 347      2FAF1348 
 347      71FA15FF 
 347      18D1
 348 0676 60440690 		.ascii	"`D\006\220\215\320k}\275G\326\226\014\276L\207\327'"
 348      8DD06B7D 
 348      BD47D696 
 348      0CBE4C87 
 348      D727
 349 0688 576B855C 		.ascii	"Wk\205\\'W\033\004\373\311\225.\230\276P[Z\252qg8\025"
 349      27571B04 
 349      FBC9952E 
 349      98BE505B 
 349      5AAA7167 
 350 069e FA381FC3 		.ascii	"\3728\037\303\331\2303\347M\016\234\275&\347\250\335"
 350      D99833E7 
 350      4D0E9CBD 
 350      26E7A8DD 
 351 06ae BDC76F74 		.ascii	"\275\307ot\277\204\027lnT\210\203\236[\2416\347\271"
 351      BF84176C 
 351      6E548883 
 351      9E5BA136 
 351      E7B9
 352 06c0 AF4BBFE3 		.ascii	"\257K\277\343\353R\017\315KK\005h\367\231=\315\236\014"
 352      EB520FCD 
 352      4B4B0568 
 352      F7993DCD 
 352      9E0C
 353 06d2 74E98E61 		.ascii	"t\351\216a\365\340\010\3145\322\353\270\036J\361\206"
 353      F5E008CC 
 353      35D2EBB8 
 353      1E4AF186 
 354 06e2 636EF658 		.ascii	"cn\366X\212\360\225\272\247\207\247\023\363\015>1\267"
 354      8AF095BA 
 354      A787A713 
 354      F30D3E31 
 354      B7
 355 06f3 58E3895B 		.ascii	"X\343\211[\002\254\312\262\004\330n\224\265\201\036"
 355      02ACCAB2 
 355      04D86E94 
 355      B5811E
 356 0702 33B5E6E9 		.ascii	"3\265\346\351\304\217\241\364\232\262\245\377\332:\266"
 356      C48FA1F4 
 356      9AB2A5FF 
 356      DA3AB6
 357 0711 A6DC2990 		.ascii	"\246\334)\220E\365\213\005\266\213jg \001-\242$\357"
 357      45F58B05 
 357      B68B6A67 
 357      20012DA2 
 357      24EF
 358 0723 08DC73A6 		.ascii	"\010\334s\246oV\035\251X\252(e\332\245\201\327\326-"
 358      6F561DA9 
 358      58AA2865 
 358      DAA581D7 
 358      D62D
 359 0735 FFFD1A5D 		.ascii	"\377\375\032][\213x\007-~j\032vP\013Mu\371\341\342f"
 359      5B8B7807 
ARM GAS  /tmp/cczifO0Q.s 			page 27


 359      2D7E6A1A 
 359      76500B4D 
 359      75F9E1E2 
 360 074a 5107EBC8 		.ascii	"Q\007\353\310\031\254\334\002\266\342p\256\013\377\335"
 360      19ACDC02 
 360      B6E270AE 
 360      0BFFDD
 361 0759 6BDB87EF 		.ascii	"k\333\207\357\246\352\357\245Y>\317\377\035,2\241X\370"
 361      A6EAEFA5 
 361      593ECFFF 
 361      1D2C32A1 
 361      58F8
 362 076b 5D2852E0 		.ascii	"](R\340d\025\342\225\366\207wmU\224_z\365\273\256\327"
 362      6415E295 
 362      F687776D 
 362      55945F7A 
 362      F5BBAED7 
 363 077f 491101BD 		.ascii	"I\021\001\275B\231u\362\236\275\276\341\300?k\236\355"
 363      429975F2 
 363      9EBDBEE1 
 363      C03F6B9E 
 363      ED
 364 0790 74E5D96D 		.ascii	"t\345\331m\007[\250\361\006\214PAg\177\037e\377\007"
 364      075BA8F1 
 364      068C5041 
 364      677F1F65 
 364      FF07
 365 07a2 CAFE4F3C 		.ascii	"\312\376O<\3735\375\355\230>]\374\223+\356G\216\276"
 365      FB35FDED 
 365      983E5DFC 
 365      932BEE47 
 365      8EBE
 366 07b4 92C9DDB1 		.ascii	"\222\311\335\261`0\357]\337\3207b\005U\361\010\215\237"
 366      6030EF5D 
 366      DFD03762 
 366      0555F108 
 366      8D9F
 367 07c6 EE0CEF3D 		.ascii	"\356\014\357=b\236Oh\307\226"
 367      629E4F68 
 367      C796
 368 07d0 F5F6A9B4 		.ascii	"\365\366\251\264\360\203{N\262f\303A\372\262\305\243"
 368      F0837B4E 
 368      B266C341 
 368      FAB2C5A3 
 369 07e0 8B702667 		.ascii	"\213p&g@k\010\277\177\224\346\203\006\366\261\0330\307"
 369      406B08BF 
 369      7F94E683 
 369      06F6B11B 
 369      30C7
 370 07f2 30AA574F 		.ascii	"0\252WO\230\301\316\345\014f\225\354\0033\330y7`e\316"
 370      98C1CEE5 
 370      0C6695EC 
 370      0333D879 
 370      376065CE 
 371 0806 929D3683 		.ascii	"\222\2356\203\3759g0\253dg\314`\237\272\001\033\356"
 371      FD396730 
 371      AB6467CC 
ARM GAS  /tmp/cczifO0Q.s 			page 28


 371      609FBA01 
 371      1BEE
 372 0818 2CD94766 		.ascii	",\331Gf\260\2139\203Y%\273d\006\273\342\006\254\334"
 372      B08B3983 
 372      5925BB64 
 372      06BBE206 
 372      ACDC
 373 082a 46B2F4E6 		.ascii	"F\262\364\346t\177\371\243`z8\361u\272\034\344\030\322"
 373      747FF9A3 
 373      607A38F1 
 373      75BA1CE4 
 373      18D2
 374 083c C8C0B891 		.ascii	"\310\300\270\221s\375\262\350M\356*\017\377\236\326"
 374      73FDB2E8 
 374      4DEE2A0F 
 374      FF9ED6
 375 084b 2FBDB42B 		.ascii	"/\275\264+\205.\020\263\004\314v\363}b~\316`V\267\274"
 375      852E10B3 
 375      04CC76F3 
 375      7D627ECE 
 375      6056B7BC 
 376 085f 4FC02C95 		.ascii	"O\300,\225&=#T\035_v\210\370\267\302\375ng{\031.\372"
 376      263D2354 
 376      1D5F7688 
 376      F8B7C2FD 
 376      6E677B19 
 377 0875 CCECA266 		.ascii	"\314\354\242f7\362g\211\321KN\362\253\215\312|\\\367"
 377      37F26789 
 377      D14B4EF2 
 377      AB8DCA7C 
 377      5CF7
 378 0887 E608FBE5 		.ascii	"\346\010\373\345\231Q5\377q\003\255\232\227\351=\257"
 378      995135FF 
 378      7103AD9A 
 378      97E93DAF 
 379 0897 A5D0F659 		.ascii	"\245\320\366Y\267+\254e\313\273\364\007\347_Q\260U\203"
 379      B72BAC65 
 379      CBBBF407 
 379      E75F51B0 
 379      5583
 380 08a9 076B5D74 		.ascii	"\007k]t\256\323Co\031\177\245P\033\013\371j\356\347"
 380      AED3436F 
 380      197FA550 
 380      1B0BF96A 
 380      EEE7
 381 08bb 6EC57EEB 		.ascii	"n\305~\353\255\330\3577:\375\372\306\277\024\372\177"
 381      ADD8EF37 
 381      3AFDFAC6 
 381      BF14FA7F 
 382 08cb A471F2FD 		.ascii	"\244q\362\375%\263\357\267\347\354{kj\335X\325\367/"
 382      25B3EFB7 
 382      E7EC7B6B 
 382      6ADD58D5 
 382      F72F
 383 08dd 2D8A5AE7 		.ascii	"-\212Z\3471-b\006x\321\267{m\337I6}\274I-\333n\357$"
 383      312D6206 
 383      78D1B77B 
ARM GAS  /tmp/cczifO0Q.s 			page 29


 383      6DDF4936 
 383      7DBC492D 
 384 08f5 1750CB96 		.ascii	"\027P\313\226\277\361 uQ?\005:8h\240E\347z\033\230L"
 384      BFF12075 
 384      513F053A 
 384      3868A045 
 384      E77A1B98 
 385 090a F51E0275 		.ascii	"\365\036\002u4\303\333\374\304\013[\275\220\365\325"
 385      34C3DBFC 
 385      C40B5BBD 
 385      90F5D5
 386 0919 DF773816 		.ascii	"\337w8\026\356\351\274\313\354\336\015\226\233]\206"
 386      EEE9BCCB 
 386      ECDE0D96 
 386      9B5D86
 387 0928 2C2EFB66 		.ascii	",.\373f\325\201\177\335\365;Ei\360\346\342\263\263\272"
 387      D5817FDD 
 387      F53B4569 
 387      F0E6E2B3 
 387      B3BA
 388 093a CF5EA0F6 		.ascii	"\317^\240\366\371$\303>\375Bn\006\022\320g9+R\300)r"
 388      F924C33E 
 388      FD426E06 
 388      12D06739 
 388      2B52C029 
 389 094f 79108A5C 		.ascii	"y\020\212\\\326\025y\211*\362\325w\240\310\315\234\025"
 389      D6157989 
 389      2AF2D577 
 389      A0C8CD9C 
 389      15
 390 0960 29332942 		.ascii	")3)B\346\327\327\247j\363\353\333\320\302\354\363k\""
 390      E6D7D7A7 
 390      6AF3EBDB 
 390      D0C2ECF3 
 390      6B22
 391 0972 CF02CF6D 		.ascii	"\317\002\317m\226\311\255z\265\213\274\340$\247\007"
 391      96C9AD7A 
 391      B58BBCE0 
 391      24A707
 392 0981 7E8DBAE8 		.ascii	"~\215\272\350\250iQ\242\270[\224\034`\213\222W\250\305"
 392      A86951A2 
 392      B85B941C 
 392      608B9257 
 392      A8C5
 393 0993 1A8A6CB2 		.ascii	"\032\212l\262\314\015R\353\262\323\364\005Z\013\205"
 393      CC0D52EB 
 393      B2D3F405 
 393      5A0B85
 394 09a2 F9E56061 		.ascii	"\371\345`a Y\25752\037.\247P\013\212x\037z9\027z\255"
 394      2059AF35 
 394      321F2EA7 
 394      500B8A78 
 394      1F7A3917 
 395 09b8 2E8443C2 		.ascii	".\204C\302\353\032\255\224\317\2613\344\300\207\376"
 395      EB1AAD94 
 395      CFB133E4 
 395      C087FE
ARM GAS  /tmp/cczifO0Q.s 			page 30


 396 09c7 EE7402FA 		.ascii	"\356t\002\3725\025\237\270o0\263~\272<\253\334\305\246"
 396      35159FB8 
 396      6F30B37E 
 396      BA3CABDC 
 396      C5A6
 397 09d9 379A8B56 		.ascii	"7\232\213V\335\022b\275\332\266P_V?B&8\033o\021\216"
 397      DD1262BD 
 397      DAB6505F 
 397      563F4226 
 397      381B6F11 
 398 09ee CE882D13 		.ascii	"\316\210-\023\004n]\265\323\341\376\223~\340\320;|\023"
 398      046E5DB5 
 398      D3E1FE93 
 398      7EE0D03B 
 398      7C13
 399 0a00 8DC0D73D 		.ascii	"\215\300\327=D\236\255\031\376\336!p++r\3024\304)\225"
 399      449EAD19 
 399      FEDE2170 
 399      2B2B72C2 
 399      34C42995 
 400 0a14 567B4CF7 		.ascii	"V{L\367\302}\267\354\207S\377a\365\303\241[4\334\262"
 400      C27DB7EC 
 400      8753FF61 
 400      F5C3A15B 
 400      34DCB2
 401 0a27 45AFB95A 		.ascii	"E\257\271Z\004\377\227\216UL\0259F\331n\362pk\340\005"
 401      04FF978E 
 401      554C1539 
 401      46D96EF2 
 401      706BE005 
 402 0a3b 6D671BD9 		.ascii	"mg\033\331\354\210\\\033\270V|x\336\257,,v\371\365Q"
 402      EC885C1B 
 402      B8567C78 
 402      DEAF2C2C 
 402      76F9F551 
 403 0a4f 4BBFFA0F 		.ascii	"K\277\372\017\007\250\223\266x\310C\241\372\342\034"
 403      07A893B6 
 403      78C843A1 
 403      FAE21C
 404 0a5e BFB410D0 		.ascii	"\277\264\020\320BJ\362\026/7\224\307Q\332\243\203\267"
 404      424AF216 
 404      2F3794C7 
 404      51DAA383 
 404      B7
 405 0a6f 5C885DAF 		.ascii	"\\\210]\257^n2?\024\022q\033}\230Nh\007\347\205/\017"
 405      5E6E323F 
 405      1412711B 
 405      7D984E68 
 405      07E7852F 
 406 0a84 A527FB22 		.ascii	"\245'\373\"n\317\031\254\334NT=N\015eE\274\315C&\364"
 406      6ECF19AC 
 406      DC4E543D 
 406      4E0D6545 
 406      BCCD4326 
 407 0a99 DB3DE4FD 		.ascii	"\333=\344\375\304\016\217\345-\362\352b\335\243v\226"
 407      C40E8FE5 
 407      2DF2EA62 
ARM GAS  /tmp/cczifO0Q.s 			page 31


 407      DDA37696 
 408 0aa9 1B383417 		.ascii	"\03384\027\264]_\242}\017\224K\335\357cu\377\3674\230"
 408      B45D5FA2 
 408      7D0F944B 
 408      DDEF6375 
 408      FFF73498 
 409 0abd 3716F359 		.ascii	"7\026\363YG\012\271E\233\234\312\336\233\274Nn\037'"
 409      470AB945 
 409      9B9CCADE 
 409      9BBC4E6E 
 409      1F27
 410 0acf A437A7AC 		.ascii	"\2447\247\254\336h\316\352\035\305\267\224\203\020}"
 410      DE68CEEA 
 410      1DC5B794 
 410      83107D
 411 0ade 7D53B4C5 		.ascii	"}S\264\305\343@Y\250`\035\256\214r\336C9\267\363\341"
 411      E34059A8 
 411      601DAE8C 
 411      72DE4339 
 411      B7F3E1
 412 0af1 BCE2C281 		.ascii	"\274\342\302\201\027\330\267t\355\256\322\360*MC=\257"
 412      17D8B774 
 412      EDAED2F0 
 412      2A4D433D 
 412      AF
 413 0b02 FAD2A883 		.ascii	"\372\322\250\203\011\205z\365z\337\001L\341\264\305"
 413      09857AF5 
 413      7ADF014C 
 413      E1B4C5
 414 0b11 EB651ECE 		.ascii	"\353e\036\316\255\027\030\334M\311\376\0333g\303\260"
 414      AD1718DC 
 414      4DC9FE1B 
 414      3367C3B0 
 415 0b21 0F5A4E9D 		.ascii	"\017ZN\235'\223\226\203T\247\353\031\241\245Y\306\024"
 415      27939683 
 415      54A7EB19 
 415      A1A559C6 
 415      14
 416 0b32 5AEDA644 		.ascii	"Z\355\246D\331K\023\345\0174Q\366\323}\2479]\234\302"
 416      D94B13E5 
 416      0F3451F6 
 416      D37DA739 
 416      5D9CC2
 417 0b45 E280392C 		.ascii	"\342\2009,\352Jr\325\273\334e\364\251f6\363Kn-\372`"
 417      EA4A72D5 
 417      BBDC65F4 
 417      A96636F3 
 417      4B6E2DFA 
 418 0b5a 7D35953E 		.ascii	"}5\225>\321\313\345!\362)\226\267\3354o_.\371N\036\""
 418      D1CBE521 
 418      F22996B7 
 418      DD346F5F 
 418      2EF94E1E 
 419 0b6f FF7AB09A 		.ascii	"\377z\260\232\2447\230\227\224\270Xm\226\333\030=}\207"
 419      A4379897 
 419      94B8586D 
 419      96DB183D 
ARM GAS  /tmp/cczifO0Q.s 			page 32


 419      7D87
 420 0b81 3DFB94CB 		.ascii	"=\373\224\313\007\321\351\273R\347]\235\324\030'h\244"
 420      07D1E9BB 
 420      52E75D9D 
 420      D4182768 
 420      A4
 421 0b92 AD2DB1BF 		.ascii	"\255-\261\277+ey\240\275\215\222\234\312\274+\265\263"
 421      2B6579A0 
 421      BD8D929C 
 421      CABC2BB5 
 421      B3
 422 0ba3 BBD22957 		.ascii	"\273\322)Ww\245c\266w\245S\271\337\225\3546\263|\"\376"
 422      77A563B6 
 422      77A553B9 
 422      DF95EC36 
 422      B37C22FE 
 423 0bb7 90E6C719 		.ascii	"\220\346\307\031\353-d\237\033\333\377\300)\022\025"
 423      EB2D649F 
 423      1BDBFFC0 
 423      291215
 424 0bc6 75F109ED 		.ascii	"u\361\011\355\373K\275\016u\361xvu\310\202g\366e\275"
 424      FB4BBD0E 
 424      75F17876 
 424      75C88267 
 424      F665BD
 425 0bd9 BAE504BD 		.ascii	"\272\345\004\275\253j1z\332\215p\243\235\301\332\226"
 425      AB6A317A 
 425      DA8D70A3 
 425      9DC1DA96 
 426 0be9 E8C655E9 		.ascii	"\350\306U\351\014\361\274\033\274\012'e\353\325\223"
 426      0CF1BC1B 
 426      BC0A2765 
 426      EBD593
 427 0bf8 275E6578 		.ascii	"'^ex\332\213\230\2139\343Y\345\273\272\3042\241\276"
 427      DA8B988B 
 427      39E359E5 
 427      BBBAC432 
 427      A1BE
 428 0c0a E1066E92 		.ascii	"\341\006n\222k\337\033\257\321D\274\233>\025\334#\220"
 428      6BDF1BAF 
 428      D144BC9B 
 428      3E15DC23 
 428      90
 429 0c1b AAA8D2FD 		.ascii	"\252\250\322\375{t\337A\367\377K\367}t\377)\335_\244"
 429      7B74DF41 
 429      F7FF4BF7 
 429      7D74FF29 
 429      DD5FA4
 430 0c2e FB6FE8BE 		.ascii	"\373o\350\276\221\326\322&\272o\246\373\343t\377\021"
 430      91D6D226 
 430      BA6FA6FB 
 430      E374FF11 
 431 0c3e DDF7D2FD 		.ascii	"\335\367\322\3759\272\377\204\356/\270\251\272\334L"
 431      39BAFF84 
 431      EE2FB8A9 
 431      BADC4C
 432 0c4d FC5EB452 		.ascii	"\374^\264R\351\356\356\335\261\377\342\204\272f\265"
ARM GAS  /tmp/cczifO0Q.s 			page 33


 432      E9EEEEDD 
 432      B1FFE284 
 432      BA66B5
 433 0c5c AE55B909 		.ascii	"\256U\271\011s\003l~W\374\271\361\256\3302\257u|\243"
 433      73036C7E 
 433      57FCB9F1 
 433      AED832AF 
 433      757CA3
 434 0c6f CC8D12F1 		.ascii	"\314\215\022\361_<\271\276Q\376\324c\377F\331\372\375"
 434      5F3CB9BE 
 434      51FED463 
 434      FF46D9FA 
 434      FD
 435 0c80 873E8ACC 		.ascii	"\207>\212\314nK\351\344\305\370\002\213\023B@M\245\230"
 435      6E4BE9E4 
 435      C5F8028B 
 435      1342404D 
 435      A598
 436 0c92 91917FEB 		.ascii	"\221\221\177\353p\013\236]\331\276\3204\356\037\314"
 436      700B9E5D 
 436      D9BED034 
 436      EE1FCC
 437 0ca1 58DF369D 		.ascii	"X\3376\235\304\003\033\353\011\035\310\237\315X\334"
 437      C4031BEB 
 437      091DC89F 
 437      CD58DC
 438 0cb0 28115FCE 		.ascii	"(\021_\316\331X_:\030\253\300b,}\024t?\363p\237\253"
 438      D9585F3A 
 438      18ABC062 
 438      2C7D1474 
 438      3FF3709F 
 439 0cc5 71420868 		.ascii	"qB\010h\231\305X\232\332\352\333\035J\301\026e\276\322"
 439      99C5589A 
 439      DAEADB1D 
 439      4AC11665 
 439      BED2
 440 0cd7 DFFF9CE9 		.ascii	"\337\377\234\351k\011\213\316\223\254\274-\303\3269"
 440      6B098BCE 
 440      93ACBC2D 
 440      C3D639
 441 0ce6 0E13F1D7 		.ascii	"\016\023\361\3279+\375W\007\245\315+\177cTZi\323\307"
 441      392BFD57 
 441      07A5CD2B 
 441      7F63545A 
 441      69D3C7
 442 0cf9 709C1002 		.ascii	"p\234\020\002Zg\247\364\267\031J\363~\236\237\236M\015"
 442      5A67A7F4 
 442      B7194AF3 
 442      7E9E9F9E 
 442      4D0D
 443 0d0b CDE6687E 		.ascii	"\315\346h~\030$y\316J\337tP\272\314\242\364M^i\3237"
 443      182479CE 
 443      4ADF7450 
 443      BACCA2F4 
 443      4D5E69D3 
 444 0d20 73BC1470 		.ascii	"s\274\024p;\265\323\372\364\301\201\264nN\003\015\313"
 444      3BB5D3FA 
ARM GAS  /tmp/cczifO0Q.s 			page 34


 444      F4C181B4 
 444      6E4E030D 
 444      CB
 445 0d31 A6353F0C 		.ascii	"\2465?\014<\220\227\253\326uy\366Z\017\265h\255\217"
 445      3C9097AB 
 445      D67579F6 
 445      5A0FB568 
 445      AD8F
 446 0d43 4A6B6DFA 		.ascii	"Jkm\372\266\216\227B@{\263U\203\223\016\237\356\222"
 446      B68E9742 
 446      407BB355 
 446      83930E9F 
 446      EE92
 447 0d55 E10D79E9 		.ascii	"\341\015y\351j`\374\363A\304\213\215{G\226/\245\215"
 447      6A60FCF3 
 447      41C48B8D 
 447      7B47962F 
 447      A58D
 448 0d67 2FA07543 		.ascii	"/\240uC\23794\220\241\227\246e\277-\233\241\371a\"~"
 448      9F393490 
 448      A197A665 
 448      BF2D9BA1 
 448      F961227E 
 449 0d7b 216743CF 		.ascii	"!gC\317w0\264y\352o\214J\033\332\364m\033/\205\200\216"
 449      7730B479 
 449      EA6F8C4A 
 449      1BDAF46D 
 449      1B2F8580 
 450 0d90 580C8D1E 		.ascii	"X\014\215\036\0345*0\271:<#\374\324\264@<\025H\312\201"
 450      1C352A30 
 450      B93A3C23 
 450      FCD4B440 
 450      3C1548CA 
 451 0da5 443C29A7 		.ascii	"D<)\247\002\217\376d\312\344)s\002\241\352P<)\005gO"
 451      028FFE64 
 451      CAE42973 
 451      02A1EA50 
 451      3C290567 
 452 0dba 8C8EAA46 		.ascii	"\214\216\252F~r)\030\211\207\236\365\376x\3523\345\223"
 452      7E722918 
 452      89879EF5 
 452      FE78EA33 
 452      E593
 453 0dcc 51113D51 		.ascii	"Q\021=Q\023#\247\356\311\000\012\307B\221\232*\0110"
 453      1323A7EE 
 453      C9000AC7 
 453      42919A2A 
 453      0930
 454 0dde 52735384 		.ascii	"RsS\204<T=mn\352I\030[D{\317\330\321U\213\021\370\201"
 454      3C543D6D 
 454      6EEA4918 
 454      5B447BCF 
 454      D8D1558B 
 455 0df5 1D00905F 		.ascii	"\035\000\220_\240+\"\277\214\262\204\3655\332\021\231"
 455      A02B22BF 
 455      8CB284F5 
 455      35DA1199 
ARM GAS  /tmp/cczifO0Q.s 			page 35


 456 0e05 B4A96428 		.ascii	"\264\251d( \315\221G\205\220\017~*ca\271<s\220.\031"
 456      20CD9147 
 456      85900F7E 
 456      2A6361B9 
 456      3C73902E 
 457 0e1a 1908723D 		.ascii	"\031\010r=\376\263\351\217%\303\263\245\344\270\314"
 457      FEB3E98F 
 457      25C3B3A5 
 457      E4B8CC
 458 0e29 A19A35A6 		.ascii	"\241\2325\246M\2372nl\340\311'\037\013\300\330\312\331"
 458      4D9F326E 
 458      6CE0C927 
 458      1F0BC0D8 
 458      CAD9
 459 0e3b 63086530 		.ascii	"c\010e0\022\251\002\352B\350\246dQ\226\202r!\\\014>"
 459      12A902EA 
 459      42E8A664 
 459      51968272 
 459      215C0C3E 
 460 0e4f 33B5726A 		.ascii	"3\265rj\345\364\002\322\2356\375\251\247\351\271G'O"
 460      E5F402D2 
 460      9D36FDA9 
 460      A7E9B947 
 460      274F
 461 0e61 AFFCE9E3 		.ascii	"\257\374\351\343\371tX\031\234\230\\-\306bRdr<63<+\025"
 461      F9745819 
 461      9C985C2D 
 461      C6625264 
 461      723C3633 
 462 0e78 88CDA46D 		.ascii	"\210\315\244mB\240:\036\225\002I)%\211\311P5\260OV\325"
 462      42A03A1E 
 462      95024929 
 462      2589C950 
 462      35B04F56 
 463 0e8d 8A492920 		.ascii	"\212I) &\243c\003\263B\241\221\320\031)EgHUURU\372D"
 463      26A36303 
 463      B342A191 
 463      D0192945 
 463      67485555 
 464 0ea5 2C1E9346 		.ascii	",\036\223FJ\342\214\360\310\361\301\212\221cG\217\031"
 464      4AE28CF0 
 464      C8F1C18A 
 464      9163478F 
 464      19
 465 0eb6 FF8BB101 		.ascii	"\377\213\261\001\313\205\264\276)\271*\034#*\027\324"
 465      CB85B4BE 
 465      29B92A1C 
 465      232A17D4 
 466 0ec6 C0EFB8B1 		.ascii	"\300\357\270\261A\271\001\377\375\270G\305Pu8&\005\202"
 466      41B901FF 
 466      FDB847C5 
 466      50753826 
 466      0582
 467 0ed8 55D24CB1 		.ascii	"U\322L\261&\"\007\345\271\011\211\004Fa0\250\313\223"
 467      262207E5 
 467      B9098904 
 467      466130A8 
ARM GAS  /tmp/cczifO0Q.s 			page 36


 467      CB93
 468 0eea 178D5749 		.ascii	"\027\215WI\305\322\234DH3QP.\001\373\206\304Hd\206\030"
 468      C5D29C44 
 468      48335150 
 468      2E01FB86 
 468      C4486486 
 469 0eff 7A36280B 		.ascii	"z6(\013\241\031\005\354R\212\370M3\2417D\177\310\320"
 469      A11905EC 
 469      528AF84D 
 469      33A13744 
 469      7FC8D0
 470 0f12 A766FC5C 		.ascii	"\247f\374\\\012Q\277\347\301Q\242\000v\323d1)\373h'"
 470      0A51BFE7 
 470      C151A200 
 470      76D36431 
 470      29FB6827 
 471 0f26 9E28835F 		.ascii	"\236(\203_f\376\307c\342\214\210\344cpC\215\013\217"
 471      66FEC763 
 471      E28C88E4 
 471      6370438D 
 471      0B8F
 472 0f38 8553E4CA 		.ascii	"\205S\344\3120B\"\351'\247\200`\225\371D\230D1\363~"
 472      304222E9 
 472      27A78060 
 472      95F94498 
 472      4431F37E 
 473 0f4c 300C6C4A 		.ascii	"0\014lJ\364\203\024aSl\034\305\023w\350\007\2722\022"
 473      F4831461 
 473      536C1CC5 
 473      1377E807 
 473      BA3212
 474 0f5f E578277F 		.ascii	"\345x'\177\272J\343\227\007\307\311Q\326\020\204\241"
 474      BA4AE397 
 474      07C7C951 
 474      D61084A1 
 475 0f6f 81C953A6 		.ascii	"\201\311S\246UN3\262\211\344c(\372\3575\261\020\230"
 475      554E33B2 
 475      89E46328 
 475      FAEF35B1 
 475      1098
 476 0f81 AE24184C 		.ascii	"\256$\030LIr\360\337\036\235\366\370\323?\251,\021#"
 476      4972F0DF 
 476      1E9DF6F8 
 476      D33FA92C 
 476      1123
 477 0f93 B5E2DC14 		.ascii	"\265\342\334\024\310\025\001C\347\317\026#5"
 477      C8150143 
 477      E7CF1623 
 477      35
 478 0fa0 D203D9F3 		.ascii	"\322\003\331\363R\367A\201\\\235\224\304\252\240\014"
 478      52F74181 
 478      5C9D94C4 
 478      AAA00C
 479 0faf 591AD4FA 		.ascii	"Y\032\324\372\367f\243\014U\223\340\367&\2021\020\021"
 479      F766A30C 
 479      5593E0F7 
 479      26823110 
ARM GAS  /tmp/cczifO0Q.s 			page 37


 479      11
 480 0fc0 7E124969 		.ascii	"~\022Ii\366C\003\324\222x4\021\216H\311T\340\307\223"
 480      F64303D4 
 480      92783411 
 480      8E48C954 
 480      E0C793
 481 0fd3 270386CE 		.ascii	"'\003\206\316\332''\222\341xPC\011\307}\340L\031@\377"
 481      DA272792 
 481      E1785043 
 481      09C77DE0 
 481      4C1940FF 
 482 0fe7 C94D6522 		.ascii	"\311Me\"\345\201\026!\210\237\220<\247 )\315\202\340"
 482      E5811621 
 482      889F903C 
 482      A72029CD 
 482      82E0
 483 0ff9 8338498E 		.ascii	"\2038I\216\027\222\023"
 483      179213
 484 1000 84E44342 		.ascii	"\204\344CBr\242\220\254\020\222\017{\222cFC\033#D\222"
 484      72A290AC 
 484      10920F7B 
 484      92634643 
 484      1B234492 
 485 1014 F0332E3F 		.ascii	"\3603.?\021\204\361>\"\177\255\224\204\337x\244JJ\022"
 485      1184F13E 
 485      227FAD94 
 485      84DF78A4 
 485      4A4A12
 486 1027 7DC4A854 		.ascii	"}\304\250T\230\222\237\025#\341Y\261\240L3\345\241\361"
 486      98929F15 
 486      23E159B1 
 486      A04C33E5 
 486      A1F1
 487 1039 90DC5A90 		.ascii	"\220\334Z\220\322n\002\334\373l$\034\015\313\005z\356"
 487      D26E02DC 
 487      FB6C241C 
 487      0DCB057A 
 487      EE
 488 104a FBC8C50A 		.ascii	"\373\310\305\0120\2376\014z>2\012\256\371d\022\323\364"
 488      309F360C 
 488      7A3E320A 
 488      AEF96412 
 488      D3F4
 489 105c 7866449C 		.ascii	"xfD\234\225\362\311Iif\212\252K:\371\321\324,\270\310"
 489      95F2C949 
 489      69668AAA 
 489      4B3AF9D1 
 489      D42CB8C8 
 490 1070 E21FC859 		.ascii	"\342\037\310Y\317\233\254\232\013\227 \200\303r\010"
 490      CF9BAC9A 
 490      0B972080 
 490      C37208
 491 107f 00BCB572 		.ascii	"\000\274\265r|\306\317\023\303\230\237\200TJJ\261\020"
 491      7CC6CF13 
 491      C3989F80 
 491      544A4AB1 
 491      10
ARM GAS  /tmp/cczifO0Q.s 			page 38


 492 1090 00E7D7CA 		.ascii	"\000\347\327\312r2\341KI1\031\010\212\301\177))*&\252"
 492      7232E14B 
 492      49311908 
 492      8AC17F29 
 492      292A26AA 
 493 10a4 C13C598B 		.ascii	"\301<Y\213\262Dj\372\020\015/\025\374E\215T\003`ei\367"
 493      B2446AFA 
 493      100D2F15 
 493      FC458D54 
 493      03606569 
 494 10b9 B3533EF6 		.ascii	"\263S>\366\233\037\212A\306\346\247\202\360\013\262"
 494      9B1F8A41 
 494      C6E6A782 
 494      F00BB2
 495 10c8 00750232 		.ascii	"\000u\00221\030\255\001_ec\023\225\347\020\037G\031"
 495      3118AD01 
 495      5F656313 
 495      95E7101F 
 495      4719
 496 10da 5A3418AF 		.ascii	"Z4\030\257\215\201\301)\035h\031\325\002\250V\206q\211"
 496      8D81C129 
 496      1D6819D5 
 496      02A85686 
 496      7189
 497 10ec 22693651 		.ascii	"\"i6QBLA\246{\245Z\322\361$\2025\245\272@\221p\012d"
 497      424C41A6 
 497      7BA55AD2 
 497      F1248235 
 497      A5BA4091 
 498 1103 18621291 		.ascii	"\030b\022\221\234\361'\202\265bX\016\307f\201c\300\002"
 498      9CF12782 
 498      B562580E 
 498      C7668163 
 498      C002
 499 1115 941174A5 		.ascii	"\224\021t\245\204\024\203z7\013\256\0038\031YHL.Fh\224"
 499      8414837A 
 499      370BAE03 
 499      38195948 
 499      4C2E4668 
 500 112a C1C9443C 		.ascii	"\301\311D<\036)\010\006gB*\005\203%zg\324\204\211\243"
 500      1E290806 
 500      67422A05 
 500      83257A67 
 500      D48489A3 
 501 113e C7184713 		.ascii	"\307\030G\023GW\214\267\034U\230\217\036\036g92_\033"
 501      47578CB7 
 501      1C55988F 
 501      1E1E6739 
 501      325F1B
 502 1151 337AC2FF 		.ascii	"3z\302\377\001\363\214b\305"
 502      01F38C62 
 502      C5
 503              		.text
 504              		.section	.gnu.lto_.symtab.649f67442f33fba2,"",%progbits
 505 0000 65787449 		.ascii	"extInit\000\000\000\000\000\000\000\000\000\000\000"
 505      6E697400 
 505      00000000 
ARM GAS  /tmp/cczifO0Q.s 			page 39


 505      00000000 
 505      0000
 506 0012 00B50000 		.ascii	"\000\265\000\000\000extObjectInit\000\000\000\000\000"
 506      00657874 
 506      4F626A65 
 506      6374496E 
 506      69740000 
 507 0029 00000000 		.ascii	"\000\000\000\000\000\000\000\270\000\000\000extStar"
 507      000000B8 
 507      00000065 
 507      78745374 
 507      6172
 508 003b 74000000 		.ascii	"t\000\000\000\000\000\000\000\000\000\000\000\000\370"
 508      00000000 
 508      00000000 
 508      00F8
 509 0049 00000065 		.ascii	"\000\000\000extStop\000\000\000\000\000\000\000\000"
 509      78745374 
 509      6F700000 
 509      00000000 
 509      0000
 510 005b 00000000 		.ascii	"\000\000\000\000\000\001\000\000extChannelEnable\000"
 510      00010000 
 510      65787443 
 510      68616E6E 
 510      656C456E 
 511 0074 00000000 		.ascii	"\000\000\000\000\000\000\000\000\000\000\000\004\001"
 511      00000000 
 511      00000004 
 511      01
 512 0081 00006578 		.ascii	"\000\000extChannelDisable\000\000\000\000\000\000\000"
 512      74436861 
 512      6E6E656C 
 512      44697361 
 512      626C6500 
 513 009b 00000000 		.ascii	"\000\000\000\000\000\012\001\000\000extSetChannelMo"
 513      000A0100 
 513      00657874 
 513      53657443 
 513      68616E6E 
 514 00b3 64654900 		.ascii	"deI\000\000\000\000\000\000\000\000\000\000\000\000"
 514      00000000 
 514      00000000 
 514      000000
 515 00c2 0F010000 		.ascii	"\017\001\000\000ext_lld_init\000\000\002\000\000\000"
 515      6578745F 
 515      6C6C645F 
 515      696E6974 
 515      00000200 
 516 00d8 00000000 		.ascii	"\000\000\000\000\000\000\034\001\000\000ext_lld_sta"
 516      00001C01 
 516      00006578 
 516      745F6C6C 
 516      645F7374 
 517 00ed 72740000 		.ascii	"rt\000\000\002\000\000\000\000\000\000\000\000\000\036"
 517      02000000 
 517      00000000 
ARM GAS  /tmp/cczifO0Q.s 			page 40


 517      00001E
 518 00fc 01000065 		.ascii	"\001\000\000ext_lld_stop\000\000\002\000\000\000\000"
 518      78745F6C 
 518      6C645F73 
 518      746F7000 
 518      00020000 
 519 0112 00000000 		.ascii	"\000\000\000\000\000 \001\000\000ext_lld_channel_en"
 519      00200100 
 519      00657874 
 519      5F6C6C64 
 519      5F636861 
 520 012d 61626C65 		.ascii	"able\000\000\002\000\000\000\000\000\000\000\000\000"
 520      00000200 
 520      00000000 
 520      00000000 
 521 013d 22010000 		.ascii	"\"\001\000\000ext_lld_channel_disable\000\000\002\000"
 521      6578745F 
 521      6C6C645F 
 521      6368616E 
 521      6E656C5F 
 522 015c 00000000 		.ascii	"\000\000\000\000\000\000\000\000$\001\000\000"
 522      00000000 
 522      24010000 
 523              		.text
 524              		.section	.gnu.lto_.opts,"",%progbits
 525 0000 272D6D63 		.ascii	"'-mcpu=cortex-m4' '-mno-thumb-interwork' '-mthumb' "
 525      70753D63 
 525      6F727465 
 525      782D6D34 
 525      2720272D 
 526 0033 272D6767 		.ascii	"'-ggdb' '-O0' '-fomit-frame-pointer' '-falign-funct"
 526      64622720 
 526      272D4F30 
 526      2720272D 
 526      666F6D69 
 527 0066 696F6E73 		.ascii	"ions=16' '-ffunction-sections' '-fdata-sections' '-"
 527      3D313627 
 527      20272D66 
 527      66756E63 
 527      74696F6E 
 528 0099 666E6F2D 		.ascii	"fno-common' '-flto'\000"
 528      636F6D6D 
 528      6F6E2720 
 528      272D666C 
 528      746F2700 
 529              		.text
 530              		.cfi_sections	.debug_frame
 531              		.section	.text.port_lock,"ax",%progbits
 532              		.align	2
 533              		.p2align 4,,15
 534              		.thumb
 535              		.thumb_func
 536              		.type	port_lock, %function
 537              	port_lock:
 538              	.LFB127:
 539              		.file 1 "../ChibiOS/os/rt/ports/ARMCMx/chcore_v7m.h"
 540              		.loc 1 456 0
ARM GAS  /tmp/cczifO0Q.s 			page 41


 541              		.cfi_startproc
 542              		@ args = 0, pretend = 0, frame = 8
 543              		@ frame_needed = 0, uses_anonymous_args = 0
 544              		@ link register save eliminated.
 545 0000 82B0     		sub	sp, sp, #8
 546              		.cfi_def_cfa_offset 8
 547 0002 2023     		movs	r3, #32
 548 0004 0193     		str	r3, [sp, #4]
 549              	.LBB6:
 550              	.LBB7:
 551              		.file 2 "../ChibiOS/os/ext/CMSIS/include/core_cmFunc.h"
 552              		.loc 2 548 0
 553 0006 019B     		ldr	r3, [sp, #4]
 554              	@ 548 "../ChibiOS/os/ext/CMSIS/include/core_cmFunc.h" 1
 555 0008 83F31188 		MSR basepri, r3
 556              	@ 0 "" 2
 557              		.thumb
 558              	.LBE7:
 559              	.LBE6:
 560              		.loc 1 473 0
 561 000c 02B0     		add	sp, sp, #8
 562              		@ sp needed
 563 000e 7047     		bx	lr
 564              		.cfi_endproc
 565              	.LFE127:
 566              		.size	port_lock, .-port_lock
 567              		.section	.text.port_unlock,"ax",%progbits
 568              		.align	2
 569              		.p2align 4,,15
 570              		.thumb
 571              		.thumb_func
 572              		.type	port_unlock, %function
 573              	port_unlock:
 574              	.LFB128:
 575              		.loc 1 480 0
 576              		.cfi_startproc
 577              		@ args = 0, pretend = 0, frame = 8
 578              		@ frame_needed = 0, uses_anonymous_args = 0
 579              		@ link register save eliminated.
 580 0000 82B0     		sub	sp, sp, #8
 581              		.cfi_def_cfa_offset 8
 582 0002 0023     		movs	r3, #0
 583 0004 0193     		str	r3, [sp, #4]
 584              	.LBB8:
 585              	.LBB9:
 586              		.loc 2 548 0
 587 0006 019B     		ldr	r3, [sp, #4]
 588              	@ 548 "../ChibiOS/os/ext/CMSIS/include/core_cmFunc.h" 1
 589 0008 83F31188 		MSR basepri, r3
 590              	@ 0 "" 2
 591              		.thumb
 592              	.LBE9:
 593              	.LBE8:
 594              		.loc 1 487 0
 595 000c 02B0     		add	sp, sp, #8
 596              		@ sp needed
 597 000e 7047     		bx	lr
ARM GAS  /tmp/cczifO0Q.s 			page 42


 598              		.cfi_endproc
 599              	.LFE128:
 600              		.size	port_unlock, .-port_unlock
 601              		.section	.text.chSysLock,"ax",%progbits
 602              		.align	2
 603              		.p2align 4,,15
 604              		.thumb
 605              		.thumb_func
 606              		.type	chSysLock, %function
 607              	chSysLock:
 608              	.LFB167:
 609              		.file 3 "../ChibiOS/os/rt/include/chsys.h"
 610              		.loc 3 346 0
 611              		.cfi_startproc
 612              		@ args = 0, pretend = 0, frame = 0
 613              		@ frame_needed = 0, uses_anonymous_args = 0
 614 0000 08B5     		push	{r3, lr}
 615              		.cfi_def_cfa_offset 8
 616              		.cfi_offset 3, -8
 617              		.cfi_offset 14, -4
 618              		.loc 3 348 0
 619 0002 FFF7FEFF 		bl	port_lock
 620              		.loc 3 351 0
 621 0006 08BD     		pop	{r3, pc}
 622              		.cfi_endproc
 623              	.LFE167:
 624              		.size	chSysLock, .-chSysLock
 625              		.section	.text.chSysUnlock,"ax",%progbits
 626              		.align	2
 627              		.p2align 4,,15
 628              		.thumb
 629              		.thumb_func
 630              		.type	chSysUnlock, %function
 631              	chSysUnlock:
 632              	.LFB168:
 633              		.loc 3 358 0
 634              		.cfi_startproc
 635              		@ args = 0, pretend = 0, frame = 0
 636              		@ frame_needed = 0, uses_anonymous_args = 0
 637 0000 08B5     		push	{r3, lr}
 638              		.cfi_def_cfa_offset 8
 639              		.cfi_offset 3, -8
 640              		.cfi_offset 14, -4
 641              		.loc 3 371 0
 642 0002 FFF7FEFF 		bl	port_unlock
 643              		.loc 3 372 0
 644 0006 08BD     		pop	{r3, pc}
 645              		.cfi_endproc
 646              	.LFE168:
 647              		.size	chSysUnlock, .-chSysUnlock
 648 0008 AFF30080 		.section	.text.osalSysLock,"ax",%progbits
 648      AFF30080 
 649              		.align	2
 650              		.p2align 4,,15
 651              		.thumb
 652              		.thumb_func
 653              		.type	osalSysLock, %function
ARM GAS  /tmp/cczifO0Q.s 			page 43


 654              	osalSysLock:
 655              	.LFB245:
 656              		.file 4 "../ChibiOS/os/hal/osal/rt/osal.h"
 657              		.loc 4 491 0
 658              		.cfi_startproc
 659              		@ args = 0, pretend = 0, frame = 0
 660              		@ frame_needed = 0, uses_anonymous_args = 0
 661 0000 08B5     		push	{r3, lr}
 662              		.cfi_def_cfa_offset 8
 663              		.cfi_offset 3, -8
 664              		.cfi_offset 14, -4
 665              		.loc 4 493 0
 666 0002 FFF7FEFF 		bl	chSysLock
 667              		.loc 4 494 0
 668 0006 08BD     		pop	{r3, pc}
 669              		.cfi_endproc
 670              	.LFE245:
 671              		.size	osalSysLock, .-osalSysLock
 672              		.section	.text.osalSysUnlock,"ax",%progbits
 673              		.align	2
 674              		.p2align 4,,15
 675              		.thumb
 676              		.thumb_func
 677              		.type	osalSysUnlock, %function
 678              	osalSysUnlock:
 679              	.LFB246:
 680              		.loc 4 502 0
 681              		.cfi_startproc
 682              		@ args = 0, pretend = 0, frame = 0
 683              		@ frame_needed = 0, uses_anonymous_args = 0
 684 0000 08B5     		push	{r3, lr}
 685              		.cfi_def_cfa_offset 8
 686              		.cfi_offset 3, -8
 687              		.cfi_offset 14, -4
 688              		.loc 4 504 0
 689 0002 FFF7FEFF 		bl	chSysUnlock
 690              		.loc 4 505 0
 691 0006 08BD     		pop	{r3, pc}
 692              		.cfi_endproc
 693              	.LFE246:
 694              		.size	osalSysUnlock, .-osalSysUnlock
 695 0008 AFF30080 		.section	.text.extInit,"ax",%progbits
 695      AFF30080 
 696              		.align	2
 697              		.p2align 4,,15
 698              		.global	extInit
 699              		.thumb
 700              		.thumb_func
 701              		.type	extInit, %function
 702              	extInit:
 703              	.LFB272:
 704              		.file 5 "../ChibiOS/os/hal/src/ext.c"
 705              		.loc 5 56 0
 706              		.cfi_startproc
 707              		@ args = 0, pretend = 0, frame = 0
 708              		@ frame_needed = 0, uses_anonymous_args = 0
 709 0000 08B5     		push	{r3, lr}
ARM GAS  /tmp/cczifO0Q.s 			page 44


 710              		.cfi_def_cfa_offset 8
 711              		.cfi_offset 3, -8
 712              		.cfi_offset 14, -4
 713              		.loc 5 58 0
 714 0002 FFF7FEFF 		bl	ext_lld_init
 715              		.loc 5 59 0
 716 0006 08BD     		pop	{r3, pc}
 717              		.cfi_endproc
 718              	.LFE272:
 719              		.size	extInit, .-extInit
 720 0008 AFF30080 		.section	.text.extObjectInit,"ax",%progbits
 720      AFF30080 
 721              		.align	2
 722              		.p2align 4,,15
 723              		.global	extObjectInit
 724              		.thumb
 725              		.thumb_func
 726              		.type	extObjectInit, %function
 727              	extObjectInit:
 728              	.LFB273:
 729              		.loc 5 68 0
 730              		.cfi_startproc
 731              		@ args = 0, pretend = 0, frame = 8
 732              		@ frame_needed = 0, uses_anonymous_args = 0
 733              		@ link register save eliminated.
 734 0000 82B0     		sub	sp, sp, #8
 735              		.cfi_def_cfa_offset 8
 736 0002 0190     		str	r0, [sp, #4]
 737              		.loc 5 70 0
 738 0004 019B     		ldr	r3, [sp, #4]
 739 0006 0122     		movs	r2, #1
 740 0008 1A70     		strb	r2, [r3]
 741              		.loc 5 71 0
 742 000a 019B     		ldr	r3, [sp, #4]
 743 000c 0022     		movs	r2, #0
 744 000e 5A60     		str	r2, [r3, #4]
 745              		.loc 5 72 0
 746 0010 02B0     		add	sp, sp, #8
 747              		@ sp needed
 748 0012 7047     		bx	lr
 749              		.cfi_endproc
 750              	.LFE273:
 751              		.size	extObjectInit, .-extObjectInit
 752 0014 AFF30080 		.section	.text.extStart,"ax",%progbits
 752      AFF30080 
 752      AFF30080 
 753              		.align	2
 754              		.p2align 4,,15
 755              		.global	extStart
 756              		.thumb
 757              		.thumb_func
 758              		.type	extStart, %function
 759              	extStart:
 760              	.LFB274:
 761              		.loc 5 84 0
 762              		.cfi_startproc
 763              		@ args = 0, pretend = 0, frame = 8
ARM GAS  /tmp/cczifO0Q.s 			page 45


 764              		@ frame_needed = 0, uses_anonymous_args = 0
 765 0000 00B5     		push	{lr}
 766              		.cfi_def_cfa_offset 4
 767              		.cfi_offset 14, -4
 768 0002 83B0     		sub	sp, sp, #12
 769              		.cfi_def_cfa_offset 16
 770 0004 0190     		str	r0, [sp, #4]
 771 0006 0091     		str	r1, [sp]
 772              		.loc 5 88 0
 773 0008 FFF7FEFF 		bl	osalSysLock
 774              		.loc 5 91 0
 775 000c 019B     		ldr	r3, [sp, #4]
 776 000e 009A     		ldr	r2, [sp]
 777 0010 5A60     		str	r2, [r3, #4]
 778              		.loc 5 92 0
 779 0012 0198     		ldr	r0, [sp, #4]
 780 0014 FFF7FEFF 		bl	ext_lld_start
 781              		.loc 5 93 0
 782 0018 019B     		ldr	r3, [sp, #4]
 783 001a 0222     		movs	r2, #2
 784 001c 1A70     		strb	r2, [r3]
 785              		.loc 5 94 0
 786 001e FFF7FEFF 		bl	osalSysUnlock
 787              		.loc 5 95 0
 788 0022 03B0     		add	sp, sp, #12
 789              		@ sp needed
 790 0024 5DF804FB 		ldr	pc, [sp], #4
 791              		.cfi_endproc
 792              	.LFE274:
 793              		.size	extStart, .-extStart
 794 0028 AFF30080 		.section	.text.extStop,"ax",%progbits
 794      AFF30080 
 795              		.align	2
 796              		.p2align 4,,15
 797              		.global	extStop
 798              		.thumb
 799              		.thumb_func
 800              		.type	extStop, %function
 801              	extStop:
 802              	.LFB275:
 803              		.loc 5 104 0
 804              		.cfi_startproc
 805              		@ args = 0, pretend = 0, frame = 8
 806              		@ frame_needed = 0, uses_anonymous_args = 0
 807 0000 00B5     		push	{lr}
 808              		.cfi_def_cfa_offset 4
 809              		.cfi_offset 14, -4
 810 0002 83B0     		sub	sp, sp, #12
 811              		.cfi_def_cfa_offset 16
 812 0004 0190     		str	r0, [sp, #4]
 813              		.loc 5 108 0
 814 0006 FFF7FEFF 		bl	osalSysLock
 815              		.loc 5 111 0
 816 000a 0198     		ldr	r0, [sp, #4]
 817 000c FFF7FEFF 		bl	ext_lld_stop
 818              		.loc 5 112 0
 819 0010 019B     		ldr	r3, [sp, #4]
ARM GAS  /tmp/cczifO0Q.s 			page 46


 820 0012 0122     		movs	r2, #1
 821 0014 1A70     		strb	r2, [r3]
 822              		.loc 5 113 0
 823 0016 FFF7FEFF 		bl	osalSysUnlock
 824              		.loc 5 114 0
 825 001a 03B0     		add	sp, sp, #12
 826              		@ sp needed
 827 001c 5DF804FB 		ldr	pc, [sp], #4
 828              		.cfi_endproc
 829              	.LFE275:
 830              		.size	extStop, .-extStop
 831              		.section	.text.extChannelEnable,"ax",%progbits
 832              		.align	2
 833              		.p2align 4,,15
 834              		.global	extChannelEnable
 835              		.thumb
 836              		.thumb_func
 837              		.type	extChannelEnable, %function
 838              	extChannelEnable:
 839              	.LFB276:
 840              		.loc 5 125 0
 841              		.cfi_startproc
 842              		@ args = 0, pretend = 0, frame = 8
 843              		@ frame_needed = 0, uses_anonymous_args = 0
 844 0000 00B5     		push	{lr}
 845              		.cfi_def_cfa_offset 4
 846              		.cfi_offset 14, -4
 847 0002 83B0     		sub	sp, sp, #12
 848              		.cfi_def_cfa_offset 16
 849 0004 0190     		str	r0, [sp, #4]
 850 0006 0091     		str	r1, [sp]
 851              		.loc 5 129 0
 852 0008 FFF7FEFF 		bl	osalSysLock
 853              		.loc 5 134 0
 854 000c 0198     		ldr	r0, [sp, #4]
 855 000e 0099     		ldr	r1, [sp]
 856 0010 FFF7FEFF 		bl	ext_lld_channel_enable
 857              		.loc 5 135 0
 858 0014 FFF7FEFF 		bl	osalSysUnlock
 859              		.loc 5 136 0
 860 0018 03B0     		add	sp, sp, #12
 861              		@ sp needed
 862 001a 5DF804FB 		ldr	pc, [sp], #4
 863              		.cfi_endproc
 864              	.LFE276:
 865              		.size	extChannelEnable, .-extChannelEnable
 866 001e 00BF     		.section	.text.extChannelDisable,"ax",%progbits
 867              		.align	2
 868              		.p2align 4,,15
 869              		.global	extChannelDisable
 870              		.thumb
 871              		.thumb_func
 872              		.type	extChannelDisable, %function
 873              	extChannelDisable:
 874              	.LFB277:
 875              		.loc 5 147 0
 876              		.cfi_startproc
ARM GAS  /tmp/cczifO0Q.s 			page 47


 877              		@ args = 0, pretend = 0, frame = 8
 878              		@ frame_needed = 0, uses_anonymous_args = 0
 879 0000 00B5     		push	{lr}
 880              		.cfi_def_cfa_offset 4
 881              		.cfi_offset 14, -4
 882 0002 83B0     		sub	sp, sp, #12
 883              		.cfi_def_cfa_offset 16
 884 0004 0190     		str	r0, [sp, #4]
 885 0006 0091     		str	r1, [sp]
 886              		.loc 5 151 0
 887 0008 FFF7FEFF 		bl	osalSysLock
 888              		.loc 5 156 0
 889 000c 0198     		ldr	r0, [sp, #4]
 890 000e 0099     		ldr	r1, [sp]
 891 0010 FFF7FEFF 		bl	ext_lld_channel_disable
 892              		.loc 5 157 0
 893 0014 FFF7FEFF 		bl	osalSysUnlock
 894              		.loc 5 158 0
 895 0018 03B0     		add	sp, sp, #12
 896              		@ sp needed
 897 001a 5DF804FB 		ldr	pc, [sp], #4
 898              		.cfi_endproc
 899              	.LFE277:
 900              		.size	extChannelDisable, .-extChannelDisable
 901 001e 00BF     		.section	.text.extSetChannelModeI,"ax",%progbits
 902              		.align	2
 903              		.p2align 4,,15
 904              		.global	extSetChannelModeI
 905              		.thumb
 906              		.thumb_func
 907              		.type	extSetChannelModeI, %function
 908              	extSetChannelModeI:
 909              	.LFB278:
 910              		.loc 5 179 0
 911              		.cfi_startproc
 912              		@ args = 0, pretend = 0, frame = 24
 913              		@ frame_needed = 0, uses_anonymous_args = 0
 914 0000 00B5     		push	{lr}
 915              		.cfi_def_cfa_offset 4
 916              		.cfi_offset 14, -4
 917 0002 87B0     		sub	sp, sp, #28
 918              		.cfi_def_cfa_offset 32
 919 0004 0390     		str	r0, [sp, #12]
 920 0006 0291     		str	r1, [sp, #8]
 921 0008 0192     		str	r2, [sp, #4]
 922              		.loc 5 191 0
 923 000a 039B     		ldr	r3, [sp, #12]
 924 000c 5A68     		ldr	r2, [r3, #4]
 925 000e 029B     		ldr	r3, [sp, #8]
 926 0010 DB00     		lsls	r3, r3, #3
 927 0012 1344     		add	r3, r3, r2
 928 0014 0593     		str	r3, [sp, #20]
 929              		.loc 5 196 0
 930 0016 059B     		ldr	r3, [sp, #20]
 931 0018 019A     		ldr	r2, [sp, #4]
 932 001a 92E80300 		ldmia	r2, {r0, r1}
 933 001e 83E80300 		stmia	r3, {r0, r1}
ARM GAS  /tmp/cczifO0Q.s 			page 48


 934              		.loc 5 197 0
 935 0022 0398     		ldr	r0, [sp, #12]
 936 0024 0299     		ldr	r1, [sp, #8]
 937 0026 FFF7FEFF 		bl	ext_lld_channel_enable
 938              		.loc 5 198 0
 939 002a 07B0     		add	sp, sp, #28
 940              		@ sp needed
 941 002c 5DF804FB 		ldr	pc, [sp], #4
 942              		.cfi_endproc
 943              	.LFE278:
 944              		.size	extSetChannelModeI, .-extSetChannelModeI
 945              		.text
 946              	.Letext0:
 947              		.file 6 "/nfs/nfs5/home/research/hardware/arm2/gcc-arm-embedded/gcc-arm-none-eabi-4_8-2014q2/arm-n
 948              		.file 7 "/nfs/nfs5/home/research/hardware/arm2/gcc-arm-embedded/gcc-arm-none-eabi-4_8-2014q2/arm-n
 949              		.file 8 "../ChibiOS/os/rt/ports/ARMCMx/compilers/GCC/chtypes.h"
 950              		.file 9 "../ChibiOS/os/rt/include/chsystypes.h"
 951              		.file 10 "../ChibiOS/os/rt/include/chschd.h"
 952              		.file 11 "../ChibiOS/os/rt/ports/ARMCMx/chcore.h"
 953              		.file 12 "../ChibiOS/os/rt/include/chtm.h"
 954              		.file 13 "../ChibiOS/os/rt/include/chsem.h"
 955              		.file 14 "../ChibiOS/os/rt/include/chmtx.h"
 956              		.file 15 "../ChibiOS/os/hal/include/ext.h"
 957              		.file 16 "../ChibiOS/os/hal/ports/STM32/LLD/EXTIv1/ext_lld.h"
 958              		.file 17 "../ChibiOS/os/ext/CMSIS/include/core_cm4.h"
 959              		.section	.debug_info,"",%progbits
 960              	.Ldebug_info0:
 961 0000 FF090000 		.4byte	0x9ff
 962 0004 0400     		.2byte	0x4
 963 0006 00000000 		.4byte	.Ldebug_abbrev0
 964 000a 04       		.byte	0x4
 965 000b 01       		.uleb128 0x1
 966 000c E1010000 		.4byte	.LASF138
 967 0010 01       		.byte	0x1
 968 0011 4E060000 		.4byte	.LASF139
 969 0015 5E050000 		.4byte	.LASF140
 970 0019 00000000 		.4byte	.Ldebug_ranges0+0
 971 001d 00000000 		.4byte	0
 972 0021 00000000 		.4byte	.Ldebug_line0
 973 0025 02       		.uleb128 0x2
 974 0026 04       		.byte	0x4
 975 0027 05       		.byte	0x5
 976 0028 696E7400 		.ascii	"int\000"
 977 002c 03       		.uleb128 0x3
 978 002d 04       		.byte	0x4
 979 002e 07       		.byte	0x7
 980 002f C1020000 		.4byte	.LASF0
 981 0033 03       		.uleb128 0x3
 982 0034 01       		.byte	0x1
 983 0035 06       		.byte	0x6
 984 0036 23000000 		.4byte	.LASF1
 985 003a 04       		.uleb128 0x4
 986 003b 2F000000 		.4byte	.LASF5
 987 003f 06       		.byte	0x6
 988 0040 1C       		.byte	0x1c
 989 0041 45000000 		.4byte	0x45
 990 0045 03       		.uleb128 0x3
ARM GAS  /tmp/cczifO0Q.s 			page 49


 991 0046 01       		.byte	0x1
 992 0047 08       		.byte	0x8
 993 0048 8B040000 		.4byte	.LASF2
 994 004c 03       		.uleb128 0x3
 995 004d 02       		.byte	0x2
 996 004e 05       		.byte	0x5
 997 004f AB040000 		.4byte	.LASF3
 998 0053 03       		.uleb128 0x3
 999 0054 02       		.byte	0x2
 1000 0055 07       		.byte	0x7
 1001 0056 FE020000 		.4byte	.LASF4
 1002 005a 04       		.uleb128 0x4
 1003 005b 59030000 		.4byte	.LASF6
 1004 005f 06       		.byte	0x6
 1005 0060 37       		.byte	0x37
 1006 0061 65000000 		.4byte	0x65
 1007 0065 03       		.uleb128 0x3
 1008 0066 04       		.byte	0x4
 1009 0067 05       		.byte	0x5
 1010 0068 58010000 		.4byte	.LASF7
 1011 006c 04       		.uleb128 0x4
 1012 006d 1C060000 		.4byte	.LASF8
 1013 0071 06       		.byte	0x6
 1014 0072 38       		.byte	0x38
 1015 0073 77000000 		.4byte	0x77
 1016 0077 03       		.uleb128 0x3
 1017 0078 04       		.byte	0x4
 1018 0079 07       		.byte	0x7
 1019 007a A9050000 		.4byte	.LASF9
 1020 007e 03       		.uleb128 0x3
 1021 007f 08       		.byte	0x8
 1022 0080 05       		.byte	0x5
 1023 0081 05010000 		.4byte	.LASF10
 1024 0085 04       		.uleb128 0x4
 1025 0086 2F040000 		.4byte	.LASF11
 1026 008a 06       		.byte	0x6
 1027 008b 4E       		.byte	0x4e
 1028 008c 90000000 		.4byte	0x90
 1029 0090 03       		.uleb128 0x3
 1030 0091 08       		.byte	0x8
 1031 0092 07       		.byte	0x7
 1032 0093 8E000000 		.4byte	.LASF12
 1033 0097 04       		.uleb128 0x4
 1034 0098 B2060000 		.4byte	.LASF13
 1035 009c 07       		.byte	0x7
 1036 009d 2A       		.byte	0x2a
 1037 009e 3A000000 		.4byte	0x3a
 1038 00a2 04       		.uleb128 0x4
 1039 00a3 83040000 		.4byte	.LASF14
 1040 00a7 07       		.byte	0x7
 1041 00a8 41       		.byte	0x41
 1042 00a9 5A000000 		.4byte	0x5a
 1043 00ad 04       		.uleb128 0x4
 1044 00ae 2D050000 		.4byte	.LASF15
 1045 00b2 07       		.byte	0x7
 1046 00b3 42       		.byte	0x42
 1047 00b4 6C000000 		.4byte	0x6c
ARM GAS  /tmp/cczifO0Q.s 			page 50


 1048 00b8 04       		.uleb128 0x4
 1049 00b9 1A000000 		.4byte	.LASF16
 1050 00bd 07       		.byte	0x7
 1051 00be 4E       		.byte	0x4e
 1052 00bf 85000000 		.4byte	0x85
 1053 00c3 04       		.uleb128 0x4
 1054 00c4 46060000 		.4byte	.LASF17
 1055 00c8 08       		.byte	0x8
 1056 00c9 39       		.byte	0x39
 1057 00ca AD000000 		.4byte	0xad
 1058 00ce 04       		.uleb128 0x4
 1059 00cf 37030000 		.4byte	.LASF18
 1060 00d3 08       		.byte	0x8
 1061 00d4 3C       		.byte	0x3c
 1062 00d5 97000000 		.4byte	0x97
 1063 00d9 04       		.uleb128 0x4
 1064 00da 61010000 		.4byte	.LASF19
 1065 00de 08       		.byte	0x8
 1066 00df 3D       		.byte	0x3d
 1067 00e0 97000000 		.4byte	0x97
 1068 00e4 04       		.uleb128 0x4
 1069 00e5 3A040000 		.4byte	.LASF20
 1070 00e9 08       		.byte	0x8
 1071 00ea 3E       		.byte	0x3e
 1072 00eb 97000000 		.4byte	0x97
 1073 00ef 04       		.uleb128 0x4
 1074 00f0 65040000 		.4byte	.LASF21
 1075 00f4 08       		.byte	0x8
 1076 00f5 40       		.byte	0x40
 1077 00f6 AD000000 		.4byte	0xad
 1078 00fa 04       		.uleb128 0x4
 1079 00fb 25030000 		.4byte	.LASF22
 1080 00ff 08       		.byte	0x8
 1081 0100 41       		.byte	0x41
 1082 0101 A2000000 		.4byte	0xa2
 1083 0105 04       		.uleb128 0x4
 1084 0106 4D030000 		.4byte	.LASF23
 1085 010a 08       		.byte	0x8
 1086 010b 43       		.byte	0x43
 1087 010c AD000000 		.4byte	0xad
 1088 0110 04       		.uleb128 0x4
 1089 0111 DB010000 		.4byte	.LASF24
 1090 0115 08       		.byte	0x8
 1091 0116 45       		.byte	0x45
 1092 0117 A2000000 		.4byte	0xa2
 1093 011b 04       		.uleb128 0x4
 1094 011c FE050000 		.4byte	.LASF25
 1095 0120 09       		.byte	0x9
 1096 0121 33       		.byte	0x33
 1097 0122 AD000000 		.4byte	0xad
 1098 0126 04       		.uleb128 0x4
 1099 0127 EE050000 		.4byte	.LASF26
 1100 012b 09       		.byte	0x9
 1101 012c 3F       		.byte	0x3f
 1102 012d 31010000 		.4byte	0x131
 1103 0131 05       		.uleb128 0x5
 1104 0132 11030000 		.4byte	.LASF46
ARM GAS  /tmp/cczifO0Q.s 			page 51


 1105 0136 44       		.byte	0x44
 1106 0137 0A       		.byte	0xa
 1107 0138 C2       		.byte	0xc2
 1108 0139 1D020000 		.4byte	0x21d
 1109 013d 06       		.uleb128 0x6
 1110 013e CB040000 		.4byte	.LASF27
 1111 0142 0A       		.byte	0xa
 1112 0143 C3       		.byte	0xc3
 1113 0144 28020000 		.4byte	0x228
 1114 0148 00       		.byte	0
 1115 0149 06       		.uleb128 0x6
 1116 014a 5E040000 		.4byte	.LASF28
 1117 014e 0A       		.byte	0xa
 1118 014f C5       		.byte	0xc5
 1119 0150 28020000 		.4byte	0x228
 1120 0154 04       		.byte	0x4
 1121 0155 06       		.uleb128 0x6
 1122 0156 F5000000 		.4byte	.LASF29
 1123 015a 0A       		.byte	0xa
 1124 015b C7       		.byte	0xc7
 1125 015c EF000000 		.4byte	0xef
 1126 0160 08       		.byte	0x8
 1127 0161 06       		.uleb128 0x6
 1128 0162 07070000 		.4byte	.LASF30
 1129 0166 0A       		.byte	0xa
 1130 0167 C8       		.byte	0xc8
 1131 0168 58040000 		.4byte	0x458
 1132 016c 0C       		.byte	0xc
 1133 016d 06       		.uleb128 0x6
 1134 016e 6A010000 		.4byte	.LASF31
 1135 0172 0A       		.byte	0xa
 1136 0173 CA       		.byte	0xca
 1137 0174 28020000 		.4byte	0x228
 1138 0178 10       		.byte	0x10
 1139 0179 06       		.uleb128 0x6
 1140 017a E8030000 		.4byte	.LASF32
 1141 017e 0A       		.byte	0xa
 1142 017f CB       		.byte	0xcb
 1143 0180 28020000 		.4byte	0x228
 1144 0184 14       		.byte	0x14
 1145 0185 06       		.uleb128 0x6
 1146 0186 CF060000 		.4byte	.LASF33
 1147 018a 0A       		.byte	0xa
 1148 018b D2       		.byte	0xd2
 1149 018c E3050000 		.4byte	0x5e3
 1150 0190 18       		.byte	0x18
 1151 0191 06       		.uleb128 0x6
 1152 0192 07040000 		.4byte	.LASF34
 1153 0196 0A       		.byte	0xa
 1154 0197 D8       		.byte	0xd8
 1155 0198 F5050000 		.4byte	0x5f5
 1156 019c 1C       		.byte	0x1c
 1157 019d 06       		.uleb128 0x6
 1158 019e B5040000 		.4byte	.LASF35
 1159 01a2 0A       		.byte	0xa
 1160 01a3 DD       		.byte	0xdd
 1161 01a4 D9000000 		.4byte	0xd9
ARM GAS  /tmp/cczifO0Q.s 			page 52


 1162 01a8 20       		.byte	0x20
 1163 01a9 06       		.uleb128 0x6
 1164 01aa D2040000 		.4byte	.LASF36
 1165 01ae 0A       		.byte	0xa
 1166 01af E1       		.byte	0xe1
 1167 01b0 CE000000 		.4byte	0xce
 1168 01b4 21       		.byte	0x21
 1169 01b5 06       		.uleb128 0x6
 1170 01b6 A5060000 		.4byte	.LASF37
 1171 01ba 0A       		.byte	0xa
 1172 01bb E6       		.byte	0xe6
 1173 01bc E4000000 		.4byte	0xe4
 1174 01c0 22       		.byte	0x22
 1175 01c1 07       		.uleb128 0x7
 1176 01c2 705F7500 		.ascii	"p_u\000"
 1177 01c6 0A       		.byte	0xa
 1178 01c7 3701     		.2byte	0x137
 1179 01c9 12050000 		.4byte	0x512
 1180 01cd 24       		.byte	0x24
 1181 01ce 08       		.uleb128 0x8
 1182 01cf 7C030000 		.4byte	.LASF38
 1183 01d3 0A       		.byte	0xa
 1184 01d4 3C01     		.2byte	0x13c
 1185 01d6 2E020000 		.4byte	0x22e
 1186 01da 28       		.byte	0x28
 1187 01db 08       		.uleb128 0x8
 1188 01dc DD020000 		.4byte	.LASF39
 1189 01e0 0A       		.byte	0xa
 1190 01e1 4201     		.2byte	0x142
 1191 01e3 52020000 		.4byte	0x252
 1192 01e7 2C       		.byte	0x2c
 1193 01e8 08       		.uleb128 0x8
 1194 01e9 22050000 		.4byte	.LASF40
 1195 01ed 0A       		.byte	0xa
 1196 01ee 4801     		.2byte	0x148
 1197 01f0 05010000 		.4byte	0x105
 1198 01f4 34       		.byte	0x34
 1199 01f5 08       		.uleb128 0x8
 1200 01f6 A1040000 		.4byte	.LASF41
 1201 01fa 0A       		.byte	0xa
 1202 01fb 4F01     		.2byte	0x14f
 1203 01fd DD050000 		.4byte	0x5dd
 1204 0201 38       		.byte	0x38
 1205 0202 08       		.uleb128 0x8
 1206 0203 08060000 		.4byte	.LASF42
 1207 0207 0A       		.byte	0xa
 1208 0208 5301     		.2byte	0x153
 1209 020a EF000000 		.4byte	0xef
 1210 020e 3C       		.byte	0x3c
 1211 020f 08       		.uleb128 0x8
 1212 0210 26010000 		.4byte	.LASF43
 1213 0214 0A       		.byte	0xa
 1214 0215 5A01     		.2byte	0x15a
 1215 0217 05030000 		.4byte	0x305
 1216 021b 40       		.byte	0x40
 1217 021c 00       		.byte	0
 1218 021d 04       		.uleb128 0x4
ARM GAS  /tmp/cczifO0Q.s 			page 53


 1219 021e 95030000 		.4byte	.LASF44
 1220 0222 09       		.byte	0x9
 1221 0223 44       		.byte	0x44
 1222 0224 28020000 		.4byte	0x228
 1223 0228 09       		.uleb128 0x9
 1224 0229 04       		.byte	0x4
 1225 022a 26010000 		.4byte	0x126
 1226 022e 04       		.uleb128 0x4
 1227 022f E4060000 		.4byte	.LASF45
 1228 0233 09       		.byte	0x9
 1229 0234 49       		.byte	0x49
 1230 0235 39020000 		.4byte	0x239
 1231 0239 05       		.uleb128 0x5
 1232 023a 4E050000 		.4byte	.LASF47
 1233 023e 04       		.byte	0x4
 1234 023f 0A       		.byte	0xa
 1235 0240 B0       		.byte	0xb0
 1236 0241 52020000 		.4byte	0x252
 1237 0245 06       		.uleb128 0x6
 1238 0246 CB040000 		.4byte	.LASF27
 1239 024a 0A       		.byte	0xa
 1240 024b B1       		.byte	0xb1
 1241 024c 28020000 		.4byte	0x228
 1242 0250 00       		.byte	0
 1243 0251 00       		.byte	0
 1244 0252 04       		.uleb128 0x4
 1245 0253 8C060000 		.4byte	.LASF48
 1246 0257 09       		.byte	0x9
 1247 0258 50       		.byte	0x50
 1248 0259 5D020000 		.4byte	0x25d
 1249 025d 05       		.uleb128 0x5
 1250 025e E4000000 		.4byte	.LASF49
 1251 0262 08       		.byte	0x8
 1252 0263 0A       		.byte	0xa
 1253 0264 B7       		.byte	0xb7
 1254 0265 82020000 		.4byte	0x282
 1255 0269 06       		.uleb128 0x6
 1256 026a CB040000 		.4byte	.LASF27
 1257 026e 0A       		.byte	0xa
 1258 026f B8       		.byte	0xb8
 1259 0270 28020000 		.4byte	0x228
 1260 0274 00       		.byte	0
 1261 0275 06       		.uleb128 0x6
 1262 0276 5E040000 		.4byte	.LASF28
 1263 027a 0A       		.byte	0xa
 1264 027b B9       		.byte	0xb9
 1265 027c 28020000 		.4byte	0x228
 1266 0280 04       		.byte	0x4
 1267 0281 00       		.byte	0
 1268 0282 04       		.uleb128 0x4
 1269 0283 00000000 		.4byte	.LASF50
 1270 0287 09       		.byte	0x9
 1271 0288 57       		.byte	0x57
 1272 0289 8D020000 		.4byte	0x28d
 1273 028d 0A       		.uleb128 0xa
 1274 028e 3F030000 		.4byte	.LASF51
 1275 0292 1C       		.byte	0x1c
ARM GAS  /tmp/cczifO0Q.s 			page 54


 1276 0293 0A       		.byte	0xa
 1277 0294 9201     		.2byte	0x192
 1278 0296 E9020000 		.4byte	0x2e9
 1279 029a 08       		.uleb128 0x8
 1280 029b 3D050000 		.4byte	.LASF52
 1281 029f 0A       		.byte	0xa
 1282 02a0 9301     		.2byte	0x193
 1283 02a2 52020000 		.4byte	0x252
 1284 02a6 00       		.byte	0
 1285 02a7 08       		.uleb128 0x8
 1286 02a8 BD040000 		.4byte	.LASF53
 1287 02ac 0A       		.byte	0xa
 1288 02ad 9401     		.2byte	0x194
 1289 02af EF000000 		.4byte	0xef
 1290 02b3 08       		.byte	0x8
 1291 02b4 08       		.uleb128 0x8
 1292 02b5 F0030000 		.4byte	.LASF54
 1293 02b9 0A       		.byte	0xa
 1294 02ba 9601     		.2byte	0x196
 1295 02bc 58040000 		.4byte	0x458
 1296 02c0 0C       		.byte	0xc
 1297 02c1 08       		.uleb128 0x8
 1298 02c2 99010000 		.4byte	.LASF55
 1299 02c6 0A       		.byte	0xa
 1300 02c7 9901     		.2byte	0x199
 1301 02c9 28020000 		.4byte	0x228
 1302 02cd 10       		.byte	0x10
 1303 02ce 08       		.uleb128 0x8
 1304 02cf 27040000 		.4byte	.LASF56
 1305 02d3 0A       		.byte	0xa
 1306 02d4 9A01     		.2byte	0x19a
 1307 02d6 28020000 		.4byte	0x228
 1308 02da 14       		.byte	0x14
 1309 02db 08       		.uleb128 0x8
 1310 02dc 1D040000 		.4byte	.LASF57
 1311 02e0 0A       		.byte	0xa
 1312 02e1 9D01     		.2byte	0x19d
 1313 02e3 28020000 		.4byte	0x228
 1314 02e7 18       		.byte	0x18
 1315 02e8 00       		.byte	0
 1316 02e9 04       		.uleb128 0x4
 1317 02ea 13060000 		.4byte	.LASF58
 1318 02ee 09       		.byte	0x9
 1319 02ef 5C       		.byte	0x5c
 1320 02f0 F4020000 		.4byte	0x2f4
 1321 02f4 09       		.uleb128 0x9
 1322 02f5 04       		.byte	0x4
 1323 02f6 FA020000 		.4byte	0x2fa
 1324 02fa 0B       		.uleb128 0xb
 1325 02fb 05030000 		.4byte	0x305
 1326 02ff 0C       		.uleb128 0xc
 1327 0300 05030000 		.4byte	0x305
 1328 0304 00       		.byte	0
 1329 0305 0D       		.uleb128 0xd
 1330 0306 04       		.byte	0x4
 1331 0307 04       		.uleb128 0x4
 1332 0308 4E040000 		.4byte	.LASF59
ARM GAS  /tmp/cczifO0Q.s 			page 55


 1333 030c 09       		.byte	0x9
 1334 030d 61       		.byte	0x61
 1335 030e 12030000 		.4byte	0x312
 1336 0312 0A       		.uleb128 0xa
 1337 0313 04050000 		.4byte	.LASF60
 1338 0317 14       		.byte	0x14
 1339 0318 0A       		.byte	0xa
 1340 0319 6D01     		.2byte	0x16d
 1341 031b 61030000 		.4byte	0x361
 1342 031f 08       		.uleb128 0x8
 1343 0320 CE020000 		.4byte	.LASF61
 1344 0324 0A       		.byte	0xa
 1345 0325 6E01     		.2byte	0x16e
 1346 0327 FB050000 		.4byte	0x5fb
 1347 032b 00       		.byte	0
 1348 032c 08       		.uleb128 0x8
 1349 032d AA010000 		.4byte	.LASF62
 1350 0331 0A       		.byte	0xa
 1351 0332 6F01     		.2byte	0x16f
 1352 0334 FB050000 		.4byte	0x5fb
 1353 0338 04       		.byte	0x4
 1354 0339 08       		.uleb128 0x8
 1355 033a 45050000 		.4byte	.LASF63
 1356 033e 0A       		.byte	0xa
 1357 033f 7001     		.2byte	0x170
 1358 0341 1B010000 		.4byte	0x11b
 1359 0345 08       		.byte	0x8
 1360 0346 08       		.uleb128 0x8
 1361 0347 0D070000 		.4byte	.LASF64
 1362 034b 0A       		.byte	0xa
 1363 034c 7101     		.2byte	0x171
 1364 034e E9020000 		.4byte	0x2e9
 1365 0352 0C       		.byte	0xc
 1366 0353 08       		.uleb128 0x8
 1367 0354 6A060000 		.4byte	.LASF65
 1368 0358 0A       		.byte	0xa
 1369 0359 7301     		.2byte	0x173
 1370 035b 05030000 		.4byte	0x305
 1371 035f 10       		.byte	0x10
 1372 0360 00       		.byte	0
 1373 0361 04       		.uleb128 0x4
 1374 0362 C1000000 		.4byte	.LASF66
 1375 0366 09       		.byte	0x9
 1376 0367 66       		.byte	0x66
 1377 0368 6C030000 		.4byte	0x36c
 1378 036c 0A       		.uleb128 0xa
 1379 036d B3030000 		.4byte	.LASF67
 1380 0371 10       		.byte	0x10
 1381 0372 0A       		.byte	0xa
 1382 0373 7D01     		.2byte	0x17d
 1383 0375 AE030000 		.4byte	0x3ae
 1384 0379 08       		.uleb128 0x8
 1385 037a CE020000 		.4byte	.LASF61
 1386 037e 0A       		.byte	0xa
 1387 037f 7E01     		.2byte	0x17e
 1388 0381 FB050000 		.4byte	0x5fb
 1389 0385 00       		.byte	0
ARM GAS  /tmp/cczifO0Q.s 			page 56


 1390 0386 08       		.uleb128 0x8
 1391 0387 AA010000 		.4byte	.LASF62
 1392 038b 0A       		.byte	0xa
 1393 038c 8001     		.2byte	0x180
 1394 038e FB050000 		.4byte	0x5fb
 1395 0392 04       		.byte	0x4
 1396 0393 08       		.uleb128 0x8
 1397 0394 45050000 		.4byte	.LASF63
 1398 0398 0A       		.byte	0xa
 1399 0399 8201     		.2byte	0x182
 1400 039b 1B010000 		.4byte	0x11b
 1401 039f 08       		.byte	0x8
 1402 03a0 08       		.uleb128 0x8
 1403 03a1 DC030000 		.4byte	.LASF68
 1404 03a5 0A       		.byte	0xa
 1405 03a6 8A01     		.2byte	0x18a
 1406 03a8 1B010000 		.4byte	0x11b
 1407 03ac 0C       		.byte	0xc
 1408 03ad 00       		.byte	0
 1409 03ae 04       		.uleb128 0x4
 1410 03af 54000000 		.4byte	.LASF69
 1411 03b3 09       		.byte	0x9
 1412 03b4 6B       		.byte	0x6b
 1413 03b5 B9030000 		.4byte	0x3b9
 1414 03b9 0A       		.uleb128 0xa
 1415 03ba 6D040000 		.4byte	.LASF70
 1416 03be 04       		.byte	0x4
 1417 03bf 0A       		.byte	0xa
 1418 03c0 A401     		.2byte	0x1a4
 1419 03c2 D4030000 		.4byte	0x3d4
 1420 03c6 08       		.uleb128 0x8
 1421 03c7 35060000 		.4byte	.LASF71
 1422 03cb 0A       		.byte	0xa
 1423 03cc AC01     		.2byte	0x1ac
 1424 03ce 01060000 		.4byte	0x601
 1425 03d2 00       		.byte	0
 1426 03d3 00       		.byte	0
 1427 03d4 04       		.uleb128 0x4
 1428 03d5 2B030000 		.4byte	.LASF72
 1429 03d9 09       		.byte	0x9
 1430 03da 70       		.byte	0x70
 1431 03db DF030000 		.4byte	0x3df
 1432 03df 0E       		.uleb128 0xe
 1433 03e0 E4040000 		.4byte	.LASF73
 1434 03e4 5001     		.2byte	0x150
 1435 03e6 0A       		.byte	0xa
 1436 03e7 C401     		.2byte	0x1c4
 1437 03e9 3B040000 		.4byte	0x43b
 1438 03ed 08       		.uleb128 0x8
 1439 03ee AC060000 		.4byte	.LASF74
 1440 03f2 0A       		.byte	0xa
 1441 03f3 C801     		.2byte	0x1c8
 1442 03f5 82020000 		.4byte	0x282
 1443 03f9 00       		.byte	0
 1444 03fa 08       		.uleb128 0x8
 1445 03fb 36010000 		.4byte	.LASF75
 1446 03ff 0A       		.byte	0xa
ARM GAS  /tmp/cczifO0Q.s 			page 57


 1447 0400 CC01     		.2byte	0x1cc
 1448 0402 61030000 		.4byte	0x361
 1449 0406 1C       		.byte	0x1c
 1450 0407 07       		.uleb128 0x7
 1451 0408 64626700 		.ascii	"dbg\000"
 1452 040c 0A       		.byte	0xa
 1453 040d D001     		.2byte	0x1d0
 1454 040f AE030000 		.4byte	0x3ae
 1455 0413 2C       		.byte	0x2c
 1456 0414 08       		.uleb128 0x8
 1457 0415 AE000000 		.4byte	.LASF76
 1458 0419 0A       		.byte	0xa
 1459 041a D401     		.2byte	0x1d4
 1460 041c 26010000 		.4byte	0x126
 1461 0420 30       		.byte	0x30
 1462 0421 07       		.uleb128 0x7
 1463 0422 746D00   		.ascii	"tm\000"
 1464 0425 0A       		.byte	0xa
 1465 0426 D901     		.2byte	0x1d9
 1466 0428 07050000 		.4byte	0x507
 1467 042c 74       		.byte	0x74
 1468 042d 08       		.uleb128 0x8
 1469 042e CC010000 		.4byte	.LASF77
 1470 0432 0A       		.byte	0xa
 1471 0433 E501     		.2byte	0x1e5
 1472 0435 06060000 		.4byte	0x606
 1473 0439 78       		.byte	0x78
 1474 043a 00       		.byte	0
 1475 043b 03       		.uleb128 0x3
 1476 043c 04       		.byte	0x4
 1477 043d 07       		.byte	0x7
 1478 043e 8C030000 		.4byte	.LASF78
 1479 0442 04       		.uleb128 0x4
 1480 0443 A1010000 		.4byte	.LASF79
 1481 0447 0B       		.byte	0xb
 1482 0448 65       		.byte	0x65
 1483 0449 05030000 		.4byte	0x305
 1484 044d 04       		.uleb128 0x4
 1485 044e 63030000 		.4byte	.LASF80
 1486 0452 0B       		.byte	0xb
 1487 0453 6D       		.byte	0x6d
 1488 0454 B8000000 		.4byte	0xb8
 1489 0458 05       		.uleb128 0x5
 1490 0459 F6020000 		.4byte	.LASF81
 1491 045d 04       		.byte	0x4
 1492 045e 0B       		.byte	0xb
 1493 045f 89       		.byte	0x89
 1494 0460 71040000 		.4byte	0x471
 1495 0464 0F       		.uleb128 0xf
 1496 0465 72313300 		.ascii	"r13\000"
 1497 0469 0B       		.byte	0xb
 1498 046a 8A       		.byte	0x8a
 1499 046b EC040000 		.4byte	0x4ec
 1500 046f 00       		.byte	0
 1501 0470 00       		.byte	0
 1502 0471 05       		.uleb128 0x5
 1503 0472 42040000 		.4byte	.LASF82
ARM GAS  /tmp/cczifO0Q.s 			page 58


 1504 0476 24       		.byte	0x24
 1505 0477 01       		.byte	0x1
 1506 0478 FD       		.byte	0xfd
 1507 0479 EC040000 		.4byte	0x4ec
 1508 047d 07       		.uleb128 0x7
 1509 047e 723400   		.ascii	"r4\000"
 1510 0481 01       		.byte	0x1
 1511 0482 1001     		.2byte	0x110
 1512 0484 42040000 		.4byte	0x442
 1513 0488 00       		.byte	0
 1514 0489 07       		.uleb128 0x7
 1515 048a 723500   		.ascii	"r5\000"
 1516 048d 01       		.byte	0x1
 1517 048e 1101     		.2byte	0x111
 1518 0490 42040000 		.4byte	0x442
 1519 0494 04       		.byte	0x4
 1520 0495 07       		.uleb128 0x7
 1521 0496 723600   		.ascii	"r6\000"
 1522 0499 01       		.byte	0x1
 1523 049a 1201     		.2byte	0x112
 1524 049c 42040000 		.4byte	0x442
 1525 04a0 08       		.byte	0x8
 1526 04a1 07       		.uleb128 0x7
 1527 04a2 723700   		.ascii	"r7\000"
 1528 04a5 01       		.byte	0x1
 1529 04a6 1301     		.2byte	0x113
 1530 04a8 42040000 		.4byte	0x442
 1531 04ac 0C       		.byte	0xc
 1532 04ad 07       		.uleb128 0x7
 1533 04ae 723800   		.ascii	"r8\000"
 1534 04b1 01       		.byte	0x1
 1535 04b2 1401     		.2byte	0x114
 1536 04b4 42040000 		.4byte	0x442
 1537 04b8 10       		.byte	0x10
 1538 04b9 07       		.uleb128 0x7
 1539 04ba 723900   		.ascii	"r9\000"
 1540 04bd 01       		.byte	0x1
 1541 04be 1501     		.2byte	0x115
 1542 04c0 42040000 		.4byte	0x442
 1543 04c4 14       		.byte	0x14
 1544 04c5 07       		.uleb128 0x7
 1545 04c6 72313000 		.ascii	"r10\000"
 1546 04ca 01       		.byte	0x1
 1547 04cb 1601     		.2byte	0x116
 1548 04cd 42040000 		.4byte	0x442
 1549 04d1 18       		.byte	0x18
 1550 04d2 07       		.uleb128 0x7
 1551 04d3 72313100 		.ascii	"r11\000"
 1552 04d7 01       		.byte	0x1
 1553 04d8 1701     		.2byte	0x117
 1554 04da 42040000 		.4byte	0x442
 1555 04de 1C       		.byte	0x1c
 1556 04df 07       		.uleb128 0x7
 1557 04e0 6C7200   		.ascii	"lr\000"
 1558 04e3 01       		.byte	0x1
 1559 04e4 1801     		.2byte	0x118
 1560 04e6 42040000 		.4byte	0x442
ARM GAS  /tmp/cczifO0Q.s 			page 59


 1561 04ea 20       		.byte	0x20
 1562 04eb 00       		.byte	0
 1563 04ec 09       		.uleb128 0x9
 1564 04ed 04       		.byte	0x4
 1565 04ee 71040000 		.4byte	0x471
 1566 04f2 10       		.uleb128 0x10
 1567 04f3 04       		.byte	0x4
 1568 04f4 0C       		.byte	0xc
 1569 04f5 38       		.byte	0x38
 1570 04f6 07050000 		.4byte	0x507
 1571 04fa 06       		.uleb128 0x6
 1572 04fb 3F060000 		.4byte	.LASF83
 1573 04ff 0C       		.byte	0xc
 1574 0500 3C       		.byte	0x3c
 1575 0501 C3000000 		.4byte	0xc3
 1576 0505 00       		.byte	0
 1577 0506 00       		.byte	0
 1578 0507 04       		.uleb128 0x4
 1579 0508 F6030000 		.4byte	.LASF84
 1580 050c 0C       		.byte	0xc
 1581 050d 3D       		.byte	0x3d
 1582 050e F2040000 		.4byte	0x4f2
 1583 0512 11       		.uleb128 0x11
 1584 0513 04       		.byte	0x4
 1585 0514 0A       		.byte	0xa
 1586 0515 FA       		.byte	0xfa
 1587 0516 7B050000 		.4byte	0x57b
 1588 051a 12       		.uleb128 0x12
 1589 051b 13000000 		.4byte	.LASF85
 1590 051f 0A       		.byte	0xa
 1591 0520 0101     		.2byte	0x101
 1592 0522 FA000000 		.4byte	0xfa
 1593 0526 12       		.uleb128 0x12
 1594 0527 A5000000 		.4byte	.LASF86
 1595 052b 0A       		.byte	0xa
 1596 052c 0801     		.2byte	0x108
 1597 052e FA000000 		.4byte	0xfa
 1598 0532 12       		.uleb128 0x12
 1599 0533 BA060000 		.4byte	.LASF87
 1600 0537 0A       		.byte	0xa
 1601 0538 0F01     		.2byte	0x10f
 1602 053a 05030000 		.4byte	0x305
 1603 053e 12       		.uleb128 0x12
 1604 053f 0D000000 		.4byte	.LASF88
 1605 0543 0A       		.byte	0xa
 1606 0544 1601     		.2byte	0x116
 1607 0546 7B050000 		.4byte	0x57b
 1608 054a 12       		.uleb128 0x12
 1609 054b B9000000 		.4byte	.LASF89
 1610 054f 0A       		.byte	0xa
 1611 0550 1B01     		.2byte	0x11b
 1612 0552 FA000000 		.4byte	0xfa
 1613 0556 12       		.uleb128 0x12
 1614 0557 D6020000 		.4byte	.LASF90
 1615 055b 0A       		.byte	0xa
 1616 055c 2401     		.2byte	0x124
 1617 055e A6050000 		.4byte	0x5a6
ARM GAS  /tmp/cczifO0Q.s 			page 60


 1618 0562 12       		.uleb128 0x12
 1619 0563 36050000 		.4byte	.LASF91
 1620 0567 0A       		.byte	0xa
 1621 0568 2D01     		.2byte	0x12d
 1622 056a DD050000 		.4byte	0x5dd
 1623 056e 12       		.uleb128 0x12
 1624 056f C4040000 		.4byte	.LASF92
 1625 0573 0A       		.byte	0xa
 1626 0574 3501     		.2byte	0x135
 1627 0576 05010000 		.4byte	0x105
 1628 057a 00       		.byte	0
 1629 057b 09       		.uleb128 0x9
 1630 057c 04       		.byte	0x4
 1631 057d 1D020000 		.4byte	0x21d
 1632 0581 05       		.uleb128 0x5
 1633 0582 15050000 		.4byte	.LASF93
 1634 0586 0C       		.byte	0xc
 1635 0587 0D       		.byte	0xd
 1636 0588 34       		.byte	0x34
 1637 0589 A6050000 		.4byte	0x5a6
 1638 058d 06       		.uleb128 0x6
 1639 058e 72010000 		.4byte	.LASF94
 1640 0592 0D       		.byte	0xd
 1641 0593 35       		.byte	0x35
 1642 0594 52020000 		.4byte	0x252
 1643 0598 00       		.byte	0
 1644 0599 06       		.uleb128 0x6
 1645 059a F0020000 		.4byte	.LASF95
 1646 059e 0D       		.byte	0xd
 1647 059f 37       		.byte	0x37
 1648 05a0 10010000 		.4byte	0x110
 1649 05a4 08       		.byte	0x8
 1650 05a5 00       		.byte	0
 1651 05a6 09       		.uleb128 0x9
 1652 05a7 04       		.byte	0x4
 1653 05a8 81050000 		.4byte	0x581
 1654 05ac 05       		.uleb128 0x5
 1655 05ad 9C060000 		.4byte	.LASF96
 1656 05b1 10       		.byte	0x10
 1657 05b2 0E       		.byte	0xe
 1658 05b3 39       		.byte	0x39
 1659 05b4 DD050000 		.4byte	0x5dd
 1660 05b8 06       		.uleb128 0x6
 1661 05b9 2E010000 		.4byte	.LASF97
 1662 05bd 0E       		.byte	0xe
 1663 05be 3A       		.byte	0x3a
 1664 05bf 52020000 		.4byte	0x252
 1665 05c3 00       		.byte	0
 1666 05c4 06       		.uleb128 0x6
 1667 05c5 FF060000 		.4byte	.LASF98
 1668 05c9 0E       		.byte	0xe
 1669 05ca 3C       		.byte	0x3c
 1670 05cb 28020000 		.4byte	0x228
 1671 05cf 08       		.byte	0x8
 1672 05d0 06       		.uleb128 0x6
 1673 05d1 F7050000 		.4byte	.LASF99
 1674 05d5 0E       		.byte	0xe
ARM GAS  /tmp/cczifO0Q.s 			page 61


 1675 05d6 3E       		.byte	0x3e
 1676 05d7 21060000 		.4byte	0x621
 1677 05db 0C       		.byte	0xc
 1678 05dc 00       		.byte	0
 1679 05dd 09       		.uleb128 0x9
 1680 05de 04       		.byte	0x4
 1681 05df AC050000 		.4byte	0x5ac
 1682 05e3 09       		.uleb128 0x9
 1683 05e4 04       		.byte	0x4
 1684 05e5 E9050000 		.4byte	0x5e9
 1685 05e9 13       		.uleb128 0x13
 1686 05ea EE050000 		.4byte	0x5ee
 1687 05ee 03       		.uleb128 0x3
 1688 05ef 01       		.byte	0x1
 1689 05f0 08       		.byte	0x8
 1690 05f1 C4050000 		.4byte	.LASF100
 1691 05f5 09       		.uleb128 0x9
 1692 05f6 04       		.byte	0x4
 1693 05f7 4D040000 		.4byte	0x44d
 1694 05fb 09       		.uleb128 0x9
 1695 05fc 04       		.byte	0x4
 1696 05fd 07030000 		.4byte	0x307
 1697 0601 14       		.uleb128 0x14
 1698 0602 E3050000 		.4byte	0x5e3
 1699 0606 15       		.uleb128 0x15
 1700 0607 4D040000 		.4byte	0x44d
 1701 060b 16060000 		.4byte	0x616
 1702 060f 16       		.uleb128 0x16
 1703 0610 3B040000 		.4byte	0x43b
 1704 0614 1A       		.byte	0x1a
 1705 0615 00       		.byte	0
 1706 0616 04       		.uleb128 0x4
 1707 0617 BE010000 		.4byte	.LASF101
 1708 061b 0E       		.byte	0xe
 1709 061c 34       		.byte	0x34
 1710 061d AC050000 		.4byte	0x5ac
 1711 0621 09       		.uleb128 0x9
 1712 0622 04       		.byte	0x4
 1713 0623 16060000 		.4byte	0x616
 1714 0627 03       		.uleb128 0x3
 1715 0628 01       		.byte	0x1
 1716 0629 02       		.byte	0x2
 1717 062a 7D040000 		.4byte	.LASF102
 1718 062e 17       		.uleb128 0x17
 1719 062f 01       		.byte	0x1
 1720 0630 0F       		.byte	0xf
 1721 0631 3F       		.byte	0x3f
 1722 0632 49060000 		.4byte	0x649
 1723 0636 18       		.uleb128 0x18
 1724 0637 12040000 		.4byte	.LASF103
 1725 063b 00       		.sleb128 0
 1726 063c 18       		.uleb128 0x18
 1727 063d BB050000 		.4byte	.LASF104
 1728 0641 01       		.sleb128 1
 1729 0642 18       		.uleb128 0x18
 1730 0643 C9050000 		.4byte	.LASF105
 1731 0647 02       		.sleb128 2
ARM GAS  /tmp/cczifO0Q.s 			page 62


 1732 0648 00       		.byte	0
 1733 0649 04       		.uleb128 0x4
 1734 064a A8030000 		.4byte	.LASF106
 1735 064e 0F       		.byte	0xf
 1736 064f 43       		.byte	0x43
 1737 0650 2E060000 		.4byte	0x62e
 1738 0654 04       		.uleb128 0x4
 1739 0655 82060000 		.4byte	.LASF107
 1740 0659 0F       		.byte	0xf
 1741 065a 48       		.byte	0x48
 1742 065b 5F060000 		.4byte	0x65f
 1743 065f 05       		.uleb128 0x5
 1744 0660 82060000 		.4byte	.LASF107
 1745 0664 08       		.byte	0x8
 1746 0665 10       		.byte	0x10
 1747 0666 73       		.byte	0x73
 1748 0667 84060000 		.4byte	0x684
 1749 066b 06       		.uleb128 0x6
 1750 066c 49010000 		.4byte	.LASF108
 1751 0670 10       		.byte	0x10
 1752 0671 77       		.byte	0x77
 1753 0672 49060000 		.4byte	0x649
 1754 0676 00       		.byte	0
 1755 0677 06       		.uleb128 0x6
 1756 0678 D9050000 		.4byte	.LASF109
 1757 067c 10       		.byte	0x10
 1758 067d 7B       		.byte	0x7b
 1759 067e 12070000 		.4byte	0x712
 1760 0682 04       		.byte	0x4
 1761 0683 00       		.byte	0
 1762 0684 04       		.uleb128 0x4
 1763 0685 39000000 		.4byte	.LASF110
 1764 0689 10       		.byte	0x10
 1765 068a 49       		.byte	0x49
 1766 068b AD000000 		.4byte	0xad
 1767 068f 04       		.uleb128 0x4
 1768 0690 E0050000 		.4byte	.LASF111
 1769 0694 10       		.byte	0x10
 1770 0695 51       		.byte	0x51
 1771 0696 9A060000 		.4byte	0x69a
 1772 069a 09       		.uleb128 0x9
 1773 069b 04       		.byte	0x4
 1774 069c A0060000 		.4byte	0x6a0
 1775 06a0 0B       		.uleb128 0xb
 1776 06a1 B0060000 		.4byte	0x6b0
 1777 06a5 0C       		.uleb128 0xc
 1778 06a6 B0060000 		.4byte	0x6b0
 1779 06aa 0C       		.uleb128 0xc
 1780 06ab 84060000 		.4byte	0x684
 1781 06af 00       		.byte	0
 1782 06b0 09       		.uleb128 0x9
 1783 06b1 04       		.byte	0x4
 1784 06b2 54060000 		.4byte	0x654
 1785 06b6 10       		.uleb128 0x10
 1786 06b7 08       		.byte	0x8
 1787 06b8 10       		.byte	0x10
 1788 06b9 56       		.byte	0x56
ARM GAS  /tmp/cczifO0Q.s 			page 63


 1789 06ba D6060000 		.4byte	0x6d6
 1790 06be 06       		.uleb128 0x6
 1791 06bf D4050000 		.4byte	.LASF112
 1792 06c3 10       		.byte	0x10
 1793 06c4 5A       		.byte	0x5a
 1794 06c5 AD000000 		.4byte	0xad
 1795 06c9 00       		.byte	0
 1796 06ca 0F       		.uleb128 0xf
 1797 06cb 636200   		.ascii	"cb\000"
 1798 06ce 10       		.byte	0x10
 1799 06cf 61       		.byte	0x61
 1800 06d0 8F060000 		.4byte	0x68f
 1801 06d4 04       		.byte	0x4
 1802 06d5 00       		.byte	0
 1803 06d6 04       		.uleb128 0x4
 1804 06d7 7A010000 		.4byte	.LASF113
 1805 06db 10       		.byte	0x10
 1806 06dc 62       		.byte	0x62
 1807 06dd B6060000 		.4byte	0x6b6
 1808 06e1 19       		.uleb128 0x19
 1809 06e2 1001     		.2byte	0x110
 1810 06e4 10       		.byte	0x10
 1811 06e5 68       		.byte	0x68
 1812 06e6 F7060000 		.4byte	0x6f7
 1813 06ea 06       		.uleb128 0x6
 1814 06eb 4F010000 		.4byte	.LASF114
 1815 06ef 10       		.byte	0x10
 1816 06f0 6C       		.byte	0x6c
 1817 06f1 F7060000 		.4byte	0x6f7
 1818 06f5 00       		.byte	0
 1819 06f6 00       		.byte	0
 1820 06f7 15       		.uleb128 0x15
 1821 06f8 D6060000 		.4byte	0x6d6
 1822 06fc 07070000 		.4byte	0x707
 1823 0700 16       		.uleb128 0x16
 1824 0701 3B040000 		.4byte	0x43b
 1825 0705 21       		.byte	0x21
 1826 0706 00       		.byte	0
 1827 0707 04       		.uleb128 0x4
 1828 0708 1B030000 		.4byte	.LASF115
 1829 070c 10       		.byte	0x10
 1830 070d 6E       		.byte	0x6e
 1831 070e E1060000 		.4byte	0x6e1
 1832 0712 09       		.uleb128 0x9
 1833 0713 04       		.byte	0x4
 1834 0714 18070000 		.4byte	0x718
 1835 0718 13       		.uleb128 0x13
 1836 0719 07070000 		.4byte	0x707
 1837 071d 1A       		.uleb128 0x1a
 1838 071e 27060000 		.4byte	.LASF141
 1839 0722 02       		.byte	0x2
 1840 0723 2202     		.2byte	0x222
 1841 0725 03       		.byte	0x3
 1842 0726 37070000 		.4byte	0x737
 1843 072a 1B       		.uleb128 0x1b
 1844 072b C6010000 		.4byte	.LASF142
 1845 072f 02       		.byte	0x2
ARM GAS  /tmp/cczifO0Q.s 			page 64


 1846 0730 2202     		.2byte	0x222
 1847 0732 AD000000 		.4byte	0xad
 1848 0736 00       		.byte	0
 1849 0737 1C       		.uleb128 0x1c
 1850 0738 71000000 		.4byte	.LASF116
 1851 073c 01       		.byte	0x1
 1852 073d C801     		.2byte	0x1c8
 1853 073f 00000000 		.4byte	.LFB127
 1854 0743 10000000 		.4byte	.LFE127-.LFB127
 1855 0747 01       		.uleb128 0x1
 1856 0748 9C       		.byte	0x9c
 1857 0749 67070000 		.4byte	0x767
 1858 074d 1D       		.uleb128 0x1d
 1859 074e 1D070000 		.4byte	0x71d
 1860 0752 06000000 		.4byte	.LBB6
 1861 0756 06000000 		.4byte	.LBE6-.LBB6
 1862 075a 01       		.byte	0x1
 1863 075b D001     		.2byte	0x1d0
 1864 075d 1E       		.uleb128 0x1e
 1865 075e 2A070000 		.4byte	0x72a
 1866 0762 02       		.uleb128 0x2
 1867 0763 91       		.byte	0x91
 1868 0764 7C       		.sleb128 -4
 1869 0765 00       		.byte	0
 1870 0766 00       		.byte	0
 1871 0767 1C       		.uleb128 0x1c
 1872 0768 3D010000 		.4byte	.LASF117
 1873 076c 01       		.byte	0x1
 1874 076d E001     		.2byte	0x1e0
 1875 076f 00000000 		.4byte	.LFB128
 1876 0773 10000000 		.4byte	.LFE128-.LFB128
 1877 0777 01       		.uleb128 0x1
 1878 0778 9C       		.byte	0x9c
 1879 0779 97070000 		.4byte	0x797
 1880 077d 1D       		.uleb128 0x1d
 1881 077e 1D070000 		.4byte	0x71d
 1882 0782 06000000 		.4byte	.LBB8
 1883 0786 06000000 		.4byte	.LBE8-.LBB8
 1884 078a 01       		.byte	0x1
 1885 078b E301     		.2byte	0x1e3
 1886 078d 1E       		.uleb128 0x1e
 1887 078e 2A070000 		.4byte	0x72a
 1888 0792 02       		.uleb128 0x2
 1889 0793 91       		.byte	0x91
 1890 0794 7C       		.sleb128 -4
 1891 0795 00       		.byte	0
 1892 0796 00       		.byte	0
 1893 0797 1F       		.uleb128 0x1f
 1894 0798 DA040000 		.4byte	.LASF119
 1895 079c 03       		.byte	0x3
 1896 079d 5A01     		.2byte	0x15a
 1897 079f 00000000 		.4byte	.LFB167
 1898 07a3 08000000 		.4byte	.LFE167-.LFB167
 1899 07a7 01       		.uleb128 0x1
 1900 07a8 9C       		.byte	0x9c
 1901 07a9 20       		.uleb128 0x20
 1902 07aa F3060000 		.4byte	.LASF118
ARM GAS  /tmp/cczifO0Q.s 			page 65


 1903 07ae 03       		.byte	0x3
 1904 07af 6601     		.2byte	0x166
 1905 07b1 00000000 		.4byte	.LFB168
 1906 07b5 08000000 		.4byte	.LFE168-.LFB168
 1907 07b9 01       		.uleb128 0x1
 1908 07ba 9C       		.byte	0x9c
 1909 07bb C9070000 		.4byte	0x7c9
 1910 07bf 21       		.uleb128 0x21
 1911 07c0 8B010000 		.4byte	.LASF125
 1912 07c4 D9070000 		.4byte	0x7d9
 1913 07c8 00       		.byte	0
 1914 07c9 15       		.uleb128 0x15
 1915 07ca EE050000 		.4byte	0x5ee
 1916 07ce D9070000 		.4byte	0x7d9
 1917 07d2 16       		.uleb128 0x16
 1918 07d3 3B040000 		.4byte	0x43b
 1919 07d7 0B       		.byte	0xb
 1920 07d8 00       		.byte	0
 1921 07d9 13       		.uleb128 0x13
 1922 07da C9070000 		.4byte	0x7c9
 1923 07de 1F       		.uleb128 0x1f
 1924 07df B2010000 		.4byte	.LASF120
 1925 07e3 04       		.byte	0x4
 1926 07e4 EB01     		.2byte	0x1eb
 1927 07e6 00000000 		.4byte	.LFB245
 1928 07ea 08000000 		.4byte	.LFE245-.LFB245
 1929 07ee 01       		.uleb128 0x1
 1930 07ef 9C       		.byte	0x9c
 1931 07f0 1F       		.uleb128 0x1f
 1932 07f1 EE040000 		.4byte	.LASF121
 1933 07f5 04       		.byte	0x4
 1934 07f6 F601     		.2byte	0x1f6
 1935 07f8 00000000 		.4byte	.LFB246
 1936 07fc 08000000 		.4byte	.LFE246-.LFB246
 1937 0800 01       		.uleb128 0x1
 1938 0801 9C       		.byte	0x9c
 1939 0802 22       		.uleb128 0x22
 1940 0803 99040000 		.4byte	.LASF143
 1941 0807 05       		.byte	0x5
 1942 0808 38       		.byte	0x38
 1943 0809 00000000 		.4byte	.LFB272
 1944 080d 08000000 		.4byte	.LFE272-.LFB272
 1945 0811 01       		.uleb128 0x1
 1946 0812 9C       		.byte	0x9c
 1947 0813 23       		.uleb128 0x23
 1948 0814 18010000 		.4byte	.LASF122
 1949 0818 05       		.byte	0x5
 1950 0819 44       		.byte	0x44
 1951 081a 00000000 		.4byte	.LFB273
 1952 081e 14000000 		.4byte	.LFE273-.LFB273
 1953 0822 01       		.uleb128 0x1
 1954 0823 9C       		.byte	0x9c
 1955 0824 37080000 		.4byte	0x837
 1956 0828 24       		.uleb128 0x24
 1957 0829 13010000 		.4byte	.LASF124
 1958 082d 05       		.byte	0x5
 1959 082e 44       		.byte	0x44
ARM GAS  /tmp/cczifO0Q.s 			page 66


 1960 082f B0060000 		.4byte	0x6b0
 1961 0833 02       		.uleb128 0x2
 1962 0834 91       		.byte	0x91
 1963 0835 7C       		.sleb128 -4
 1964 0836 00       		.byte	0
 1965 0837 25       		.uleb128 0x25
 1966 0838 FC000000 		.4byte	.LASF123
 1967 083c 05       		.byte	0x5
 1968 083d 54       		.byte	0x54
 1969 083e 00000000 		.4byte	.LFB274
 1970 0842 28000000 		.4byte	.LFE274-.LFB274
 1971 0846 01       		.uleb128 0x1
 1972 0847 9C       		.byte	0x9c
 1973 0848 72080000 		.4byte	0x872
 1974 084c 24       		.uleb128 0x24
 1975 084d 13010000 		.4byte	.LASF124
 1976 0851 05       		.byte	0x5
 1977 0852 54       		.byte	0x54
 1978 0853 B0060000 		.4byte	0x6b0
 1979 0857 02       		.uleb128 0x2
 1980 0858 91       		.byte	0x91
 1981 0859 74       		.sleb128 -12
 1982 085a 24       		.uleb128 0x24
 1983 085b D9050000 		.4byte	.LASF109
 1984 085f 05       		.byte	0x5
 1985 0860 54       		.byte	0x54
 1986 0861 12070000 		.4byte	0x712
 1987 0865 02       		.uleb128 0x2
 1988 0866 91       		.byte	0x91
 1989 0867 70       		.sleb128 -16
 1990 0868 21       		.uleb128 0x21
 1991 0869 C1060000 		.4byte	.LASF126
 1992 086d 82080000 		.4byte	0x882
 1993 0871 00       		.byte	0
 1994 0872 15       		.uleb128 0x15
 1995 0873 EE050000 		.4byte	0x5ee
 1996 0877 82080000 		.4byte	0x882
 1997 087b 16       		.uleb128 0x16
 1998 087c 3B040000 		.4byte	0x43b
 1999 0880 08       		.byte	0x8
 2000 0881 00       		.byte	0
 2001 0882 13       		.uleb128 0x13
 2002 0883 72080000 		.4byte	0x872
 2003 0887 25       		.uleb128 0x25
 2004 0888 E8020000 		.4byte	.LASF127
 2005 088c 05       		.byte	0x5
 2006 088d 68       		.byte	0x68
 2007 088e 00000000 		.4byte	.LFB275
 2008 0892 20000000 		.4byte	.LFE275-.LFB275
 2009 0896 01       		.uleb128 0x1
 2010 0897 9C       		.byte	0x9c
 2011 0898 B4080000 		.4byte	0x8b4
 2012 089c 24       		.uleb128 0x24
 2013 089d 13010000 		.4byte	.LASF124
 2014 08a1 05       		.byte	0x5
 2015 08a2 68       		.byte	0x68
 2016 08a3 B0060000 		.4byte	0x6b0
ARM GAS  /tmp/cczifO0Q.s 			page 67


 2017 08a7 02       		.uleb128 0x2
 2018 08a8 91       		.byte	0x91
 2019 08a9 74       		.sleb128 -12
 2020 08aa 21       		.uleb128 0x21
 2021 08ab D6060000 		.4byte	.LASF128
 2022 08af C4080000 		.4byte	0x8c4
 2023 08b3 00       		.byte	0
 2024 08b4 15       		.uleb128 0x15
 2025 08b5 EE050000 		.4byte	0x5ee
 2026 08b9 C4080000 		.4byte	0x8c4
 2027 08bd 16       		.uleb128 0x16
 2028 08be 3B040000 		.4byte	0x43b
 2029 08c2 07       		.byte	0x7
 2030 08c3 00       		.byte	0
 2031 08c4 13       		.uleb128 0x13
 2032 08c5 B4080000 		.4byte	0x8b4
 2033 08c9 25       		.uleb128 0x25
 2034 08ca 71060000 		.4byte	.LASF129
 2035 08ce 05       		.byte	0x5
 2036 08cf 7D       		.byte	0x7d
 2037 08d0 00000000 		.4byte	.LFB276
 2038 08d4 1E000000 		.4byte	.LFE276-.LFB276
 2039 08d8 01       		.uleb128 0x1
 2040 08d9 9C       		.byte	0x9c
 2041 08da 04090000 		.4byte	0x904
 2042 08de 24       		.uleb128 0x24
 2043 08df 13010000 		.4byte	.LASF124
 2044 08e3 05       		.byte	0x5
 2045 08e4 7D       		.byte	0x7d
 2046 08e5 B0060000 		.4byte	0x6b0
 2047 08e9 02       		.uleb128 0x2
 2048 08ea 91       		.byte	0x91
 2049 08eb 74       		.sleb128 -12
 2050 08ec 24       		.uleb128 0x24
 2051 08ed FC040000 		.4byte	.LASF130
 2052 08f1 05       		.byte	0x5
 2053 08f2 7D       		.byte	0x7d
 2054 08f3 84060000 		.4byte	0x684
 2055 08f7 02       		.uleb128 0x2
 2056 08f8 91       		.byte	0x91
 2057 08f9 70       		.sleb128 -16
 2058 08fa 21       		.uleb128 0x21
 2059 08fb 46000000 		.4byte	.LASF131
 2060 08ff 14090000 		.4byte	0x914
 2061 0903 00       		.byte	0
 2062 0904 15       		.uleb128 0x15
 2063 0905 EE050000 		.4byte	0x5ee
 2064 0909 14090000 		.4byte	0x914
 2065 090d 16       		.uleb128 0x16
 2066 090e 3B040000 		.4byte	0x43b
 2067 0912 10       		.byte	0x10
 2068 0913 00       		.byte	0
 2069 0914 13       		.uleb128 0x13
 2070 0915 04090000 		.4byte	0x904
 2071 0919 25       		.uleb128 0x25
 2072 091a CA030000 		.4byte	.LASF132
 2073 091e 05       		.byte	0x5
ARM GAS  /tmp/cczifO0Q.s 			page 68


 2074 091f 93       		.byte	0x93
 2075 0920 00000000 		.4byte	.LFB277
 2076 0924 1E000000 		.4byte	.LFE277-.LFB277
 2077 0928 01       		.uleb128 0x1
 2078 0929 9C       		.byte	0x9c
 2079 092a 54090000 		.4byte	0x954
 2080 092e 24       		.uleb128 0x24
 2081 092f 13010000 		.4byte	.LASF124
 2082 0933 05       		.byte	0x5
 2083 0934 93       		.byte	0x93
 2084 0935 B0060000 		.4byte	0x6b0
 2085 0939 02       		.uleb128 0x2
 2086 093a 91       		.byte	0x91
 2087 093b 74       		.sleb128 -12
 2088 093c 24       		.uleb128 0x24
 2089 093d FC040000 		.4byte	.LASF130
 2090 0941 05       		.byte	0x5
 2091 0942 93       		.byte	0x93
 2092 0943 84060000 		.4byte	0x684
 2093 0947 02       		.uleb128 0x2
 2094 0948 91       		.byte	0x91
 2095 0949 70       		.sleb128 -16
 2096 094a 21       		.uleb128 0x21
 2097 094b 63000000 		.4byte	.LASF133
 2098 094f 64090000 		.4byte	0x964
 2099 0953 00       		.byte	0
 2100 0954 15       		.uleb128 0x15
 2101 0955 EE050000 		.4byte	0x5ee
 2102 0959 64090000 		.4byte	0x964
 2103 095d 16       		.uleb128 0x16
 2104 095e 3B040000 		.4byte	0x43b
 2105 0962 11       		.byte	0x11
 2106 0963 00       		.byte	0
 2107 0964 13       		.uleb128 0x13
 2108 0965 54090000 		.4byte	0x954
 2109 0969 25       		.uleb128 0x25
 2110 096a 7B000000 		.4byte	.LASF134
 2111 096e 05       		.byte	0x5
 2112 096f B1       		.byte	0xb1
 2113 0970 00000000 		.4byte	.LFB278
 2114 0974 30000000 		.4byte	.LFE278-.LFB278
 2115 0978 01       		.uleb128 0x1
 2116 0979 9C       		.byte	0x9c
 2117 097a C0090000 		.4byte	0x9c0
 2118 097e 24       		.uleb128 0x24
 2119 097f 13010000 		.4byte	.LASF124
 2120 0983 05       		.byte	0x5
 2121 0984 B1       		.byte	0xb1
 2122 0985 B0060000 		.4byte	0x6b0
 2123 0989 02       		.uleb128 0x2
 2124 098a 91       		.byte	0x91
 2125 098b 6C       		.sleb128 -20
 2126 098c 24       		.uleb128 0x24
 2127 098d FC040000 		.4byte	.LASF130
 2128 0991 05       		.byte	0x5
 2129 0992 B2       		.byte	0xb2
 2130 0993 84060000 		.4byte	0x684
ARM GAS  /tmp/cczifO0Q.s 			page 69


 2131 0997 02       		.uleb128 0x2
 2132 0998 91       		.byte	0x91
 2133 0999 68       		.sleb128 -24
 2134 099a 24       		.uleb128 0x24
 2135 099b 15070000 		.4byte	.LASF135
 2136 099f 05       		.byte	0x5
 2137 09a0 B3       		.byte	0xb3
 2138 09a1 C0090000 		.4byte	0x9c0
 2139 09a5 02       		.uleb128 0x2
 2140 09a6 91       		.byte	0x91
 2141 09a7 64       		.sleb128 -28
 2142 09a8 26       		.uleb128 0x26
 2143 09a9 86030000 		.4byte	.LASF144
 2144 09ad 05       		.byte	0x5
 2145 09ae B4       		.byte	0xb4
 2146 09af CB090000 		.4byte	0x9cb
 2147 09b3 02       		.uleb128 0x2
 2148 09b4 91       		.byte	0x91
 2149 09b5 74       		.sleb128 -12
 2150 09b6 21       		.uleb128 0x21
 2151 09b7 6E030000 		.4byte	.LASF136
 2152 09bb E1090000 		.4byte	0x9e1
 2153 09bf 00       		.byte	0
 2154 09c0 09       		.uleb128 0x9
 2155 09c1 04       		.byte	0x4
 2156 09c2 C6090000 		.4byte	0x9c6
 2157 09c6 13       		.uleb128 0x13
 2158 09c7 D6060000 		.4byte	0x6d6
 2159 09cb 09       		.uleb128 0x9
 2160 09cc 04       		.byte	0x4
 2161 09cd D6060000 		.4byte	0x6d6
 2162 09d1 15       		.uleb128 0x15
 2163 09d2 EE050000 		.4byte	0x5ee
 2164 09d6 E1090000 		.4byte	0x9e1
 2165 09da 16       		.uleb128 0x16
 2166 09db 3B040000 		.4byte	0x43b
 2167 09df 12       		.byte	0x12
 2168 09e0 00       		.byte	0
 2169 09e1 13       		.uleb128 0x13
 2170 09e2 D1090000 		.4byte	0x9d1
 2171 09e6 27       		.uleb128 0x27
 2172 09e7 D7000000 		.4byte	.LASF137
 2173 09eb 11       		.byte	0x11
 2174 09ec FA06     		.2byte	0x6fa
 2175 09ee F2090000 		.4byte	0x9f2
 2176 09f2 14       		.uleb128 0x14
 2177 09f3 A2000000 		.4byte	0xa2
 2178 09f7 28       		.uleb128 0x28
 2179 09f8 636800   		.ascii	"ch\000"
 2180 09fb 0A       		.byte	0xa
 2181 09fc 0B02     		.2byte	0x20b
 2182 09fe D4030000 		.4byte	0x3d4
 2183 0a02 00       		.byte	0
 2184              		.section	.debug_abbrev,"",%progbits
 2185              	.Ldebug_abbrev0:
 2186 0000 01       		.uleb128 0x1
 2187 0001 11       		.uleb128 0x11
ARM GAS  /tmp/cczifO0Q.s 			page 70


 2188 0002 01       		.byte	0x1
 2189 0003 25       		.uleb128 0x25
 2190 0004 0E       		.uleb128 0xe
 2191 0005 13       		.uleb128 0x13
 2192 0006 0B       		.uleb128 0xb
 2193 0007 03       		.uleb128 0x3
 2194 0008 0E       		.uleb128 0xe
 2195 0009 1B       		.uleb128 0x1b
 2196 000a 0E       		.uleb128 0xe
 2197 000b 55       		.uleb128 0x55
 2198 000c 17       		.uleb128 0x17
 2199 000d 11       		.uleb128 0x11
 2200 000e 01       		.uleb128 0x1
 2201 000f 10       		.uleb128 0x10
 2202 0010 17       		.uleb128 0x17
 2203 0011 00       		.byte	0
 2204 0012 00       		.byte	0
 2205 0013 02       		.uleb128 0x2
 2206 0014 24       		.uleb128 0x24
 2207 0015 00       		.byte	0
 2208 0016 0B       		.uleb128 0xb
 2209 0017 0B       		.uleb128 0xb
 2210 0018 3E       		.uleb128 0x3e
 2211 0019 0B       		.uleb128 0xb
 2212 001a 03       		.uleb128 0x3
 2213 001b 08       		.uleb128 0x8
 2214 001c 00       		.byte	0
 2215 001d 00       		.byte	0
 2216 001e 03       		.uleb128 0x3
 2217 001f 24       		.uleb128 0x24
 2218 0020 00       		.byte	0
 2219 0021 0B       		.uleb128 0xb
 2220 0022 0B       		.uleb128 0xb
 2221 0023 3E       		.uleb128 0x3e
 2222 0024 0B       		.uleb128 0xb
 2223 0025 03       		.uleb128 0x3
 2224 0026 0E       		.uleb128 0xe
 2225 0027 00       		.byte	0
 2226 0028 00       		.byte	0
 2227 0029 04       		.uleb128 0x4
 2228 002a 16       		.uleb128 0x16
 2229 002b 00       		.byte	0
 2230 002c 03       		.uleb128 0x3
 2231 002d 0E       		.uleb128 0xe
 2232 002e 3A       		.uleb128 0x3a
 2233 002f 0B       		.uleb128 0xb
 2234 0030 3B       		.uleb128 0x3b
 2235 0031 0B       		.uleb128 0xb
 2236 0032 49       		.uleb128 0x49
 2237 0033 13       		.uleb128 0x13
 2238 0034 00       		.byte	0
 2239 0035 00       		.byte	0
 2240 0036 05       		.uleb128 0x5
 2241 0037 13       		.uleb128 0x13
 2242 0038 01       		.byte	0x1
 2243 0039 03       		.uleb128 0x3
 2244 003a 0E       		.uleb128 0xe
ARM GAS  /tmp/cczifO0Q.s 			page 71


 2245 003b 0B       		.uleb128 0xb
 2246 003c 0B       		.uleb128 0xb
 2247 003d 3A       		.uleb128 0x3a
 2248 003e 0B       		.uleb128 0xb
 2249 003f 3B       		.uleb128 0x3b
 2250 0040 0B       		.uleb128 0xb
 2251 0041 01       		.uleb128 0x1
 2252 0042 13       		.uleb128 0x13
 2253 0043 00       		.byte	0
 2254 0044 00       		.byte	0
 2255 0045 06       		.uleb128 0x6
 2256 0046 0D       		.uleb128 0xd
 2257 0047 00       		.byte	0
 2258 0048 03       		.uleb128 0x3
 2259 0049 0E       		.uleb128 0xe
 2260 004a 3A       		.uleb128 0x3a
 2261 004b 0B       		.uleb128 0xb
 2262 004c 3B       		.uleb128 0x3b
 2263 004d 0B       		.uleb128 0xb
 2264 004e 49       		.uleb128 0x49
 2265 004f 13       		.uleb128 0x13
 2266 0050 38       		.uleb128 0x38
 2267 0051 0B       		.uleb128 0xb
 2268 0052 00       		.byte	0
 2269 0053 00       		.byte	0
 2270 0054 07       		.uleb128 0x7
 2271 0055 0D       		.uleb128 0xd
 2272 0056 00       		.byte	0
 2273 0057 03       		.uleb128 0x3
 2274 0058 08       		.uleb128 0x8
 2275 0059 3A       		.uleb128 0x3a
 2276 005a 0B       		.uleb128 0xb
 2277 005b 3B       		.uleb128 0x3b
 2278 005c 05       		.uleb128 0x5
 2279 005d 49       		.uleb128 0x49
 2280 005e 13       		.uleb128 0x13
 2281 005f 38       		.uleb128 0x38
 2282 0060 0B       		.uleb128 0xb
 2283 0061 00       		.byte	0
 2284 0062 00       		.byte	0
 2285 0063 08       		.uleb128 0x8
 2286 0064 0D       		.uleb128 0xd
 2287 0065 00       		.byte	0
 2288 0066 03       		.uleb128 0x3
 2289 0067 0E       		.uleb128 0xe
 2290 0068 3A       		.uleb128 0x3a
 2291 0069 0B       		.uleb128 0xb
 2292 006a 3B       		.uleb128 0x3b
 2293 006b 05       		.uleb128 0x5
 2294 006c 49       		.uleb128 0x49
 2295 006d 13       		.uleb128 0x13
 2296 006e 38       		.uleb128 0x38
 2297 006f 0B       		.uleb128 0xb
 2298 0070 00       		.byte	0
 2299 0071 00       		.byte	0
 2300 0072 09       		.uleb128 0x9
 2301 0073 0F       		.uleb128 0xf
ARM GAS  /tmp/cczifO0Q.s 			page 72


 2302 0074 00       		.byte	0
 2303 0075 0B       		.uleb128 0xb
 2304 0076 0B       		.uleb128 0xb
 2305 0077 49       		.uleb128 0x49
 2306 0078 13       		.uleb128 0x13
 2307 0079 00       		.byte	0
 2308 007a 00       		.byte	0
 2309 007b 0A       		.uleb128 0xa
 2310 007c 13       		.uleb128 0x13
 2311 007d 01       		.byte	0x1
 2312 007e 03       		.uleb128 0x3
 2313 007f 0E       		.uleb128 0xe
 2314 0080 0B       		.uleb128 0xb
 2315 0081 0B       		.uleb128 0xb
 2316 0082 3A       		.uleb128 0x3a
 2317 0083 0B       		.uleb128 0xb
 2318 0084 3B       		.uleb128 0x3b
 2319 0085 05       		.uleb128 0x5
 2320 0086 01       		.uleb128 0x1
 2321 0087 13       		.uleb128 0x13
 2322 0088 00       		.byte	0
 2323 0089 00       		.byte	0
 2324 008a 0B       		.uleb128 0xb
 2325 008b 15       		.uleb128 0x15
 2326 008c 01       		.byte	0x1
 2327 008d 27       		.uleb128 0x27
 2328 008e 19       		.uleb128 0x19
 2329 008f 01       		.uleb128 0x1
 2330 0090 13       		.uleb128 0x13
 2331 0091 00       		.byte	0
 2332 0092 00       		.byte	0
 2333 0093 0C       		.uleb128 0xc
 2334 0094 05       		.uleb128 0x5
 2335 0095 00       		.byte	0
 2336 0096 49       		.uleb128 0x49
 2337 0097 13       		.uleb128 0x13
 2338 0098 00       		.byte	0
 2339 0099 00       		.byte	0
 2340 009a 0D       		.uleb128 0xd
 2341 009b 0F       		.uleb128 0xf
 2342 009c 00       		.byte	0
 2343 009d 0B       		.uleb128 0xb
 2344 009e 0B       		.uleb128 0xb
 2345 009f 00       		.byte	0
 2346 00a0 00       		.byte	0
 2347 00a1 0E       		.uleb128 0xe
 2348 00a2 13       		.uleb128 0x13
 2349 00a3 01       		.byte	0x1
 2350 00a4 03       		.uleb128 0x3
 2351 00a5 0E       		.uleb128 0xe
 2352 00a6 0B       		.uleb128 0xb
 2353 00a7 05       		.uleb128 0x5
 2354 00a8 3A       		.uleb128 0x3a
 2355 00a9 0B       		.uleb128 0xb
 2356 00aa 3B       		.uleb128 0x3b
 2357 00ab 05       		.uleb128 0x5
 2358 00ac 01       		.uleb128 0x1
ARM GAS  /tmp/cczifO0Q.s 			page 73


 2359 00ad 13       		.uleb128 0x13
 2360 00ae 00       		.byte	0
 2361 00af 00       		.byte	0
 2362 00b0 0F       		.uleb128 0xf
 2363 00b1 0D       		.uleb128 0xd
 2364 00b2 00       		.byte	0
 2365 00b3 03       		.uleb128 0x3
 2366 00b4 08       		.uleb128 0x8
 2367 00b5 3A       		.uleb128 0x3a
 2368 00b6 0B       		.uleb128 0xb
 2369 00b7 3B       		.uleb128 0x3b
 2370 00b8 0B       		.uleb128 0xb
 2371 00b9 49       		.uleb128 0x49
 2372 00ba 13       		.uleb128 0x13
 2373 00bb 38       		.uleb128 0x38
 2374 00bc 0B       		.uleb128 0xb
 2375 00bd 00       		.byte	0
 2376 00be 00       		.byte	0
 2377 00bf 10       		.uleb128 0x10
 2378 00c0 13       		.uleb128 0x13
 2379 00c1 01       		.byte	0x1
 2380 00c2 0B       		.uleb128 0xb
 2381 00c3 0B       		.uleb128 0xb
 2382 00c4 3A       		.uleb128 0x3a
 2383 00c5 0B       		.uleb128 0xb
 2384 00c6 3B       		.uleb128 0x3b
 2385 00c7 0B       		.uleb128 0xb
 2386 00c8 01       		.uleb128 0x1
 2387 00c9 13       		.uleb128 0x13
 2388 00ca 00       		.byte	0
 2389 00cb 00       		.byte	0
 2390 00cc 11       		.uleb128 0x11
 2391 00cd 17       		.uleb128 0x17
 2392 00ce 01       		.byte	0x1
 2393 00cf 0B       		.uleb128 0xb
 2394 00d0 0B       		.uleb128 0xb
 2395 00d1 3A       		.uleb128 0x3a
 2396 00d2 0B       		.uleb128 0xb
 2397 00d3 3B       		.uleb128 0x3b
 2398 00d4 0B       		.uleb128 0xb
 2399 00d5 01       		.uleb128 0x1
 2400 00d6 13       		.uleb128 0x13
 2401 00d7 00       		.byte	0
 2402 00d8 00       		.byte	0
 2403 00d9 12       		.uleb128 0x12
 2404 00da 0D       		.uleb128 0xd
 2405 00db 00       		.byte	0
 2406 00dc 03       		.uleb128 0x3
 2407 00dd 0E       		.uleb128 0xe
 2408 00de 3A       		.uleb128 0x3a
 2409 00df 0B       		.uleb128 0xb
 2410 00e0 3B       		.uleb128 0x3b
 2411 00e1 05       		.uleb128 0x5
 2412 00e2 49       		.uleb128 0x49
 2413 00e3 13       		.uleb128 0x13
 2414 00e4 00       		.byte	0
 2415 00e5 00       		.byte	0
ARM GAS  /tmp/cczifO0Q.s 			page 74


 2416 00e6 13       		.uleb128 0x13
 2417 00e7 26       		.uleb128 0x26
 2418 00e8 00       		.byte	0
 2419 00e9 49       		.uleb128 0x49
 2420 00ea 13       		.uleb128 0x13
 2421 00eb 00       		.byte	0
 2422 00ec 00       		.byte	0
 2423 00ed 14       		.uleb128 0x14
 2424 00ee 35       		.uleb128 0x35
 2425 00ef 00       		.byte	0
 2426 00f0 49       		.uleb128 0x49
 2427 00f1 13       		.uleb128 0x13
 2428 00f2 00       		.byte	0
 2429 00f3 00       		.byte	0
 2430 00f4 15       		.uleb128 0x15
 2431 00f5 01       		.uleb128 0x1
 2432 00f6 01       		.byte	0x1
 2433 00f7 49       		.uleb128 0x49
 2434 00f8 13       		.uleb128 0x13
 2435 00f9 01       		.uleb128 0x1
 2436 00fa 13       		.uleb128 0x13
 2437 00fb 00       		.byte	0
 2438 00fc 00       		.byte	0
 2439 00fd 16       		.uleb128 0x16
 2440 00fe 21       		.uleb128 0x21
 2441 00ff 00       		.byte	0
 2442 0100 49       		.uleb128 0x49
 2443 0101 13       		.uleb128 0x13
 2444 0102 2F       		.uleb128 0x2f
 2445 0103 0B       		.uleb128 0xb
 2446 0104 00       		.byte	0
 2447 0105 00       		.byte	0
 2448 0106 17       		.uleb128 0x17
 2449 0107 04       		.uleb128 0x4
 2450 0108 01       		.byte	0x1
 2451 0109 0B       		.uleb128 0xb
 2452 010a 0B       		.uleb128 0xb
 2453 010b 3A       		.uleb128 0x3a
 2454 010c 0B       		.uleb128 0xb
 2455 010d 3B       		.uleb128 0x3b
 2456 010e 0B       		.uleb128 0xb
 2457 010f 01       		.uleb128 0x1
 2458 0110 13       		.uleb128 0x13
 2459 0111 00       		.byte	0
 2460 0112 00       		.byte	0
 2461 0113 18       		.uleb128 0x18
 2462 0114 28       		.uleb128 0x28
 2463 0115 00       		.byte	0
 2464 0116 03       		.uleb128 0x3
 2465 0117 0E       		.uleb128 0xe
 2466 0118 1C       		.uleb128 0x1c
 2467 0119 0D       		.uleb128 0xd
 2468 011a 00       		.byte	0
 2469 011b 00       		.byte	0
 2470 011c 19       		.uleb128 0x19
 2471 011d 13       		.uleb128 0x13
 2472 011e 01       		.byte	0x1
ARM GAS  /tmp/cczifO0Q.s 			page 75


 2473 011f 0B       		.uleb128 0xb
 2474 0120 05       		.uleb128 0x5
 2475 0121 3A       		.uleb128 0x3a
 2476 0122 0B       		.uleb128 0xb
 2477 0123 3B       		.uleb128 0x3b
 2478 0124 0B       		.uleb128 0xb
 2479 0125 01       		.uleb128 0x1
 2480 0126 13       		.uleb128 0x13
 2481 0127 00       		.byte	0
 2482 0128 00       		.byte	0
 2483 0129 1A       		.uleb128 0x1a
 2484 012a 2E       		.uleb128 0x2e
 2485 012b 01       		.byte	0x1
 2486 012c 03       		.uleb128 0x3
 2487 012d 0E       		.uleb128 0xe
 2488 012e 3A       		.uleb128 0x3a
 2489 012f 0B       		.uleb128 0xb
 2490 0130 3B       		.uleb128 0x3b
 2491 0131 05       		.uleb128 0x5
 2492 0132 27       		.uleb128 0x27
 2493 0133 19       		.uleb128 0x19
 2494 0134 20       		.uleb128 0x20
 2495 0135 0B       		.uleb128 0xb
 2496 0136 01       		.uleb128 0x1
 2497 0137 13       		.uleb128 0x13
 2498 0138 00       		.byte	0
 2499 0139 00       		.byte	0
 2500 013a 1B       		.uleb128 0x1b
 2501 013b 05       		.uleb128 0x5
 2502 013c 00       		.byte	0
 2503 013d 03       		.uleb128 0x3
 2504 013e 0E       		.uleb128 0xe
 2505 013f 3A       		.uleb128 0x3a
 2506 0140 0B       		.uleb128 0xb
 2507 0141 3B       		.uleb128 0x3b
 2508 0142 05       		.uleb128 0x5
 2509 0143 49       		.uleb128 0x49
 2510 0144 13       		.uleb128 0x13
 2511 0145 00       		.byte	0
 2512 0146 00       		.byte	0
 2513 0147 1C       		.uleb128 0x1c
 2514 0148 2E       		.uleb128 0x2e
 2515 0149 01       		.byte	0x1
 2516 014a 03       		.uleb128 0x3
 2517 014b 0E       		.uleb128 0xe
 2518 014c 3A       		.uleb128 0x3a
 2519 014d 0B       		.uleb128 0xb
 2520 014e 3B       		.uleb128 0x3b
 2521 014f 05       		.uleb128 0x5
 2522 0150 27       		.uleb128 0x27
 2523 0151 19       		.uleb128 0x19
 2524 0152 11       		.uleb128 0x11
 2525 0153 01       		.uleb128 0x1
 2526 0154 12       		.uleb128 0x12
 2527 0155 06       		.uleb128 0x6
 2528 0156 40       		.uleb128 0x40
 2529 0157 18       		.uleb128 0x18
ARM GAS  /tmp/cczifO0Q.s 			page 76


 2530 0158 9742     		.uleb128 0x2117
 2531 015a 19       		.uleb128 0x19
 2532 015b 01       		.uleb128 0x1
 2533 015c 13       		.uleb128 0x13
 2534 015d 00       		.byte	0
 2535 015e 00       		.byte	0
 2536 015f 1D       		.uleb128 0x1d
 2537 0160 1D       		.uleb128 0x1d
 2538 0161 01       		.byte	0x1
 2539 0162 31       		.uleb128 0x31
 2540 0163 13       		.uleb128 0x13
 2541 0164 11       		.uleb128 0x11
 2542 0165 01       		.uleb128 0x1
 2543 0166 12       		.uleb128 0x12
 2544 0167 06       		.uleb128 0x6
 2545 0168 58       		.uleb128 0x58
 2546 0169 0B       		.uleb128 0xb
 2547 016a 59       		.uleb128 0x59
 2548 016b 05       		.uleb128 0x5
 2549 016c 00       		.byte	0
 2550 016d 00       		.byte	0
 2551 016e 1E       		.uleb128 0x1e
 2552 016f 05       		.uleb128 0x5
 2553 0170 00       		.byte	0
 2554 0171 31       		.uleb128 0x31
 2555 0172 13       		.uleb128 0x13
 2556 0173 02       		.uleb128 0x2
 2557 0174 18       		.uleb128 0x18
 2558 0175 00       		.byte	0
 2559 0176 00       		.byte	0
 2560 0177 1F       		.uleb128 0x1f
 2561 0178 2E       		.uleb128 0x2e
 2562 0179 00       		.byte	0
 2563 017a 03       		.uleb128 0x3
 2564 017b 0E       		.uleb128 0xe
 2565 017c 3A       		.uleb128 0x3a
 2566 017d 0B       		.uleb128 0xb
 2567 017e 3B       		.uleb128 0x3b
 2568 017f 05       		.uleb128 0x5
 2569 0180 27       		.uleb128 0x27
 2570 0181 19       		.uleb128 0x19
 2571 0182 11       		.uleb128 0x11
 2572 0183 01       		.uleb128 0x1
 2573 0184 12       		.uleb128 0x12
 2574 0185 06       		.uleb128 0x6
 2575 0186 40       		.uleb128 0x40
 2576 0187 18       		.uleb128 0x18
 2577 0188 9642     		.uleb128 0x2116
 2578 018a 19       		.uleb128 0x19
 2579 018b 00       		.byte	0
 2580 018c 00       		.byte	0
 2581 018d 20       		.uleb128 0x20
 2582 018e 2E       		.uleb128 0x2e
 2583 018f 01       		.byte	0x1
 2584 0190 03       		.uleb128 0x3
 2585 0191 0E       		.uleb128 0xe
 2586 0192 3A       		.uleb128 0x3a
ARM GAS  /tmp/cczifO0Q.s 			page 77


 2587 0193 0B       		.uleb128 0xb
 2588 0194 3B       		.uleb128 0x3b
 2589 0195 05       		.uleb128 0x5
 2590 0196 27       		.uleb128 0x27
 2591 0197 19       		.uleb128 0x19
 2592 0198 11       		.uleb128 0x11
 2593 0199 01       		.uleb128 0x1
 2594 019a 12       		.uleb128 0x12
 2595 019b 06       		.uleb128 0x6
 2596 019c 40       		.uleb128 0x40
 2597 019d 18       		.uleb128 0x18
 2598 019e 9642     		.uleb128 0x2116
 2599 01a0 19       		.uleb128 0x19
 2600 01a1 01       		.uleb128 0x1
 2601 01a2 13       		.uleb128 0x13
 2602 01a3 00       		.byte	0
 2603 01a4 00       		.byte	0
 2604 01a5 21       		.uleb128 0x21
 2605 01a6 34       		.uleb128 0x34
 2606 01a7 00       		.byte	0
 2607 01a8 03       		.uleb128 0x3
 2608 01a9 0E       		.uleb128 0xe
 2609 01aa 49       		.uleb128 0x49
 2610 01ab 13       		.uleb128 0x13
 2611 01ac 34       		.uleb128 0x34
 2612 01ad 19       		.uleb128 0x19
 2613 01ae 00       		.byte	0
 2614 01af 00       		.byte	0
 2615 01b0 22       		.uleb128 0x22
 2616 01b1 2E       		.uleb128 0x2e
 2617 01b2 00       		.byte	0
 2618 01b3 3F       		.uleb128 0x3f
 2619 01b4 19       		.uleb128 0x19
 2620 01b5 03       		.uleb128 0x3
 2621 01b6 0E       		.uleb128 0xe
 2622 01b7 3A       		.uleb128 0x3a
 2623 01b8 0B       		.uleb128 0xb
 2624 01b9 3B       		.uleb128 0x3b
 2625 01ba 0B       		.uleb128 0xb
 2626 01bb 27       		.uleb128 0x27
 2627 01bc 19       		.uleb128 0x19
 2628 01bd 11       		.uleb128 0x11
 2629 01be 01       		.uleb128 0x1
 2630 01bf 12       		.uleb128 0x12
 2631 01c0 06       		.uleb128 0x6
 2632 01c1 40       		.uleb128 0x40
 2633 01c2 18       		.uleb128 0x18
 2634 01c3 9642     		.uleb128 0x2116
 2635 01c5 19       		.uleb128 0x19
 2636 01c6 00       		.byte	0
 2637 01c7 00       		.byte	0
 2638 01c8 23       		.uleb128 0x23
 2639 01c9 2E       		.uleb128 0x2e
 2640 01ca 01       		.byte	0x1
 2641 01cb 3F       		.uleb128 0x3f
 2642 01cc 19       		.uleb128 0x19
 2643 01cd 03       		.uleb128 0x3
ARM GAS  /tmp/cczifO0Q.s 			page 78


 2644 01ce 0E       		.uleb128 0xe
 2645 01cf 3A       		.uleb128 0x3a
 2646 01d0 0B       		.uleb128 0xb
 2647 01d1 3B       		.uleb128 0x3b
 2648 01d2 0B       		.uleb128 0xb
 2649 01d3 27       		.uleb128 0x27
 2650 01d4 19       		.uleb128 0x19
 2651 01d5 11       		.uleb128 0x11
 2652 01d6 01       		.uleb128 0x1
 2653 01d7 12       		.uleb128 0x12
 2654 01d8 06       		.uleb128 0x6
 2655 01d9 40       		.uleb128 0x40
 2656 01da 18       		.uleb128 0x18
 2657 01db 9742     		.uleb128 0x2117
 2658 01dd 19       		.uleb128 0x19
 2659 01de 01       		.uleb128 0x1
 2660 01df 13       		.uleb128 0x13
 2661 01e0 00       		.byte	0
 2662 01e1 00       		.byte	0
 2663 01e2 24       		.uleb128 0x24
 2664 01e3 05       		.uleb128 0x5
 2665 01e4 00       		.byte	0
 2666 01e5 03       		.uleb128 0x3
 2667 01e6 0E       		.uleb128 0xe
 2668 01e7 3A       		.uleb128 0x3a
 2669 01e8 0B       		.uleb128 0xb
 2670 01e9 3B       		.uleb128 0x3b
 2671 01ea 0B       		.uleb128 0xb
 2672 01eb 49       		.uleb128 0x49
 2673 01ec 13       		.uleb128 0x13
 2674 01ed 02       		.uleb128 0x2
 2675 01ee 18       		.uleb128 0x18
 2676 01ef 00       		.byte	0
 2677 01f0 00       		.byte	0
 2678 01f1 25       		.uleb128 0x25
 2679 01f2 2E       		.uleb128 0x2e
 2680 01f3 01       		.byte	0x1
 2681 01f4 3F       		.uleb128 0x3f
 2682 01f5 19       		.uleb128 0x19
 2683 01f6 03       		.uleb128 0x3
 2684 01f7 0E       		.uleb128 0xe
 2685 01f8 3A       		.uleb128 0x3a
 2686 01f9 0B       		.uleb128 0xb
 2687 01fa 3B       		.uleb128 0x3b
 2688 01fb 0B       		.uleb128 0xb
 2689 01fc 27       		.uleb128 0x27
 2690 01fd 19       		.uleb128 0x19
 2691 01fe 11       		.uleb128 0x11
 2692 01ff 01       		.uleb128 0x1
 2693 0200 12       		.uleb128 0x12
 2694 0201 06       		.uleb128 0x6
 2695 0202 40       		.uleb128 0x40
 2696 0203 18       		.uleb128 0x18
 2697 0204 9642     		.uleb128 0x2116
 2698 0206 19       		.uleb128 0x19
 2699 0207 01       		.uleb128 0x1
 2700 0208 13       		.uleb128 0x13
ARM GAS  /tmp/cczifO0Q.s 			page 79


 2701 0209 00       		.byte	0
 2702 020a 00       		.byte	0
 2703 020b 26       		.uleb128 0x26
 2704 020c 34       		.uleb128 0x34
 2705 020d 00       		.byte	0
 2706 020e 03       		.uleb128 0x3
 2707 020f 0E       		.uleb128 0xe
 2708 0210 3A       		.uleb128 0x3a
 2709 0211 0B       		.uleb128 0xb
 2710 0212 3B       		.uleb128 0x3b
 2711 0213 0B       		.uleb128 0xb
 2712 0214 49       		.uleb128 0x49
 2713 0215 13       		.uleb128 0x13
 2714 0216 02       		.uleb128 0x2
 2715 0217 18       		.uleb128 0x18
 2716 0218 00       		.byte	0
 2717 0219 00       		.byte	0
 2718 021a 27       		.uleb128 0x27
 2719 021b 34       		.uleb128 0x34
 2720 021c 00       		.byte	0
 2721 021d 03       		.uleb128 0x3
 2722 021e 0E       		.uleb128 0xe
 2723 021f 3A       		.uleb128 0x3a
 2724 0220 0B       		.uleb128 0xb
 2725 0221 3B       		.uleb128 0x3b
 2726 0222 05       		.uleb128 0x5
 2727 0223 49       		.uleb128 0x49
 2728 0224 13       		.uleb128 0x13
 2729 0225 3F       		.uleb128 0x3f
 2730 0226 19       		.uleb128 0x19
 2731 0227 3C       		.uleb128 0x3c
 2732 0228 19       		.uleb128 0x19
 2733 0229 00       		.byte	0
 2734 022a 00       		.byte	0
 2735 022b 28       		.uleb128 0x28
 2736 022c 34       		.uleb128 0x34
 2737 022d 00       		.byte	0
 2738 022e 03       		.uleb128 0x3
 2739 022f 08       		.uleb128 0x8
 2740 0230 3A       		.uleb128 0x3a
 2741 0231 0B       		.uleb128 0xb
 2742 0232 3B       		.uleb128 0x3b
 2743 0233 05       		.uleb128 0x5
 2744 0234 49       		.uleb128 0x49
 2745 0235 13       		.uleb128 0x13
 2746 0236 3F       		.uleb128 0x3f
 2747 0237 19       		.uleb128 0x19
 2748 0238 3C       		.uleb128 0x3c
 2749 0239 19       		.uleb128 0x19
 2750 023a 00       		.byte	0
 2751 023b 00       		.byte	0
 2752 023c 00       		.byte	0
 2753              		.section	.debug_aranges,"",%progbits
 2754 0000 7C000000 		.4byte	0x7c
 2755 0004 0200     		.2byte	0x2
 2756 0006 00000000 		.4byte	.Ldebug_info0
 2757 000a 04       		.byte	0x4
ARM GAS  /tmp/cczifO0Q.s 			page 80


 2758 000b 00       		.byte	0
 2759 000c 0000     		.2byte	0
 2760 000e 0000     		.2byte	0
 2761 0010 00000000 		.4byte	.LFB127
 2762 0014 10000000 		.4byte	.LFE127-.LFB127
 2763 0018 00000000 		.4byte	.LFB128
 2764 001c 10000000 		.4byte	.LFE128-.LFB128
 2765 0020 00000000 		.4byte	.LFB167
 2766 0024 08000000 		.4byte	.LFE167-.LFB167
 2767 0028 00000000 		.4byte	.LFB168
 2768 002c 08000000 		.4byte	.LFE168-.LFB168
 2769 0030 00000000 		.4byte	.LFB245
 2770 0034 08000000 		.4byte	.LFE245-.LFB245
 2771 0038 00000000 		.4byte	.LFB246
 2772 003c 08000000 		.4byte	.LFE246-.LFB246
 2773 0040 00000000 		.4byte	.LFB272
 2774 0044 08000000 		.4byte	.LFE272-.LFB272
 2775 0048 00000000 		.4byte	.LFB273
 2776 004c 14000000 		.4byte	.LFE273-.LFB273
 2777 0050 00000000 		.4byte	.LFB274
 2778 0054 28000000 		.4byte	.LFE274-.LFB274
 2779 0058 00000000 		.4byte	.LFB275
 2780 005c 20000000 		.4byte	.LFE275-.LFB275
 2781 0060 00000000 		.4byte	.LFB276
 2782 0064 1E000000 		.4byte	.LFE276-.LFB276
 2783 0068 00000000 		.4byte	.LFB277
 2784 006c 1E000000 		.4byte	.LFE277-.LFB277
 2785 0070 00000000 		.4byte	.LFB278
 2786 0074 30000000 		.4byte	.LFE278-.LFB278
 2787 0078 00000000 		.4byte	0
 2788 007c 00000000 		.4byte	0
 2789              		.section	.debug_ranges,"",%progbits
 2790              	.Ldebug_ranges0:
 2791 0000 00000000 		.4byte	.LFB127
 2792 0004 10000000 		.4byte	.LFE127
 2793 0008 00000000 		.4byte	.LFB128
 2794 000c 10000000 		.4byte	.LFE128
 2795 0010 00000000 		.4byte	.LFB167
 2796 0014 08000000 		.4byte	.LFE167
 2797 0018 00000000 		.4byte	.LFB168
 2798 001c 08000000 		.4byte	.LFE168
 2799 0020 00000000 		.4byte	.LFB245
 2800 0024 08000000 		.4byte	.LFE245
 2801 0028 00000000 		.4byte	.LFB246
 2802 002c 08000000 		.4byte	.LFE246
 2803 0030 00000000 		.4byte	.LFB272
 2804 0034 08000000 		.4byte	.LFE272
 2805 0038 00000000 		.4byte	.LFB273
 2806 003c 14000000 		.4byte	.LFE273
 2807 0040 00000000 		.4byte	.LFB274
 2808 0044 28000000 		.4byte	.LFE274
 2809 0048 00000000 		.4byte	.LFB275
 2810 004c 20000000 		.4byte	.LFE275
 2811 0050 00000000 		.4byte	.LFB276
 2812 0054 1E000000 		.4byte	.LFE276
 2813 0058 00000000 		.4byte	.LFB277
 2814 005c 1E000000 		.4byte	.LFE277
ARM GAS  /tmp/cczifO0Q.s 			page 81


 2815 0060 00000000 		.4byte	.LFB278
 2816 0064 30000000 		.4byte	.LFE278
 2817 0068 00000000 		.4byte	0
 2818 006c 00000000 		.4byte	0
 2819              		.section	.debug_line,"",%progbits
 2820              	.Ldebug_line0:
 2821 0000 E7030000 		.section	.debug_str,"MS",%progbits,1
 2821      0200BD02 
 2821      00000201 
 2821      FB0E0D00 
 2821      01010101 
 2822              	.LASF50:
 2823 0000 72656164 		.ascii	"ready_list_t\000"
 2823      795F6C69 
 2823      73745F74 
 2823      00
 2824              	.LASF88:
 2825 000d 77747472 		.ascii	"wttrp\000"
 2825      7000
 2826              	.LASF85:
 2827 0013 7264796D 		.ascii	"rdymsg\000"
 2827      736700
 2828              	.LASF16:
 2829 001a 75696E74 		.ascii	"uint64_t\000"
 2829      36345F74 
 2829      00
 2830              	.LASF1:
 2831 0023 7369676E 		.ascii	"signed char\000"
 2831      65642063 
 2831      68617200 
 2832              	.LASF5:
 2833 002f 5F5F7569 		.ascii	"__uint8_t\000"
 2833      6E74385F 
 2833      7400
 2834              	.LASF110:
 2835 0039 65787063 		.ascii	"expchannel_t\000"
 2835      68616E6E 
 2835      656C5F74 
 2835      00
 2836              	.LASF131:
 2837 0046 5F5F6675 		.ascii	"__func__.7093\000"
 2837      6E635F5F 
 2837      2E373039 
 2837      3300
 2838              	.LASF69:
 2839 0054 73797374 		.ascii	"system_debug_t\000"
 2839      656D5F64 
 2839      65627567 
 2839      5F7400
 2840              	.LASF133:
 2841 0063 5F5F6675 		.ascii	"__func__.7098\000"
 2841      6E635F5F 
 2841      2E373039 
 2841      3800
 2842              	.LASF116:
 2843 0071 706F7274 		.ascii	"port_lock\000"
 2843      5F6C6F63 
ARM GAS  /tmp/cczifO0Q.s 			page 82


 2843      6B00
 2844              	.LASF134:
 2845 007b 65787453 		.ascii	"extSetChannelModeI\000"
 2845      65744368 
 2845      616E6E65 
 2845      6C4D6F64 
 2845      654900
 2846              	.LASF12:
 2847 008e 6C6F6E67 		.ascii	"long long unsigned int\000"
 2847      206C6F6E 
 2847      6720756E 
 2847      7369676E 
 2847      65642069 
 2848              	.LASF86:
 2849 00a5 65786974 		.ascii	"exitcode\000"
 2849      636F6465 
 2849      00
 2850              	.LASF76:
 2851 00ae 6D61696E 		.ascii	"mainthread\000"
 2851      74687265 
 2851      616400
 2852              	.LASF89:
 2853 00b9 73656E74 		.ascii	"sentmsg\000"
 2853      6D736700 
 2854              	.LASF66:
 2855 00c1 76697274 		.ascii	"virtual_timers_list_t\000"
 2855      75616C5F 
 2855      74696D65 
 2855      72735F6C 
 2855      6973745F 
 2856              	.LASF137:
 2857 00d7 49544D5F 		.ascii	"ITM_RxBuffer\000"
 2857      52784275 
 2857      66666572 
 2857      00
 2858              	.LASF49:
 2859 00e4 63685F74 		.ascii	"ch_threads_queue\000"
 2859      68726561 
 2859      64735F71 
 2859      75657565 
 2859      00
 2860              	.LASF29:
 2861 00f5 705F7072 		.ascii	"p_prio\000"
 2861      696F00
 2862              	.LASF123:
 2863 00fc 65787453 		.ascii	"extStart\000"
 2863      74617274 
 2863      00
 2864              	.LASF10:
 2865 0105 6C6F6E67 		.ascii	"long long int\000"
 2865      206C6F6E 
 2865      6720696E 
 2865      7400
 2866              	.LASF124:
 2867 0113 65787470 		.ascii	"extp\000"
 2867      00
 2868              	.LASF122:
ARM GAS  /tmp/cczifO0Q.s 			page 83


 2869 0118 6578744F 		.ascii	"extObjectInit\000"
 2869      626A6563 
 2869      74496E69 
 2869      7400
 2870              	.LASF43:
 2871 0126 705F6D70 		.ascii	"p_mpool\000"
 2871      6F6F6C00 
 2872              	.LASF97:
 2873 012e 6D5F7175 		.ascii	"m_queue\000"
 2873      65756500 
 2874              	.LASF75:
 2875 0136 76746C69 		.ascii	"vtlist\000"
 2875      737400
 2876              	.LASF117:
 2877 013d 706F7274 		.ascii	"port_unlock\000"
 2877      5F756E6C 
 2877      6F636B00 
 2878              	.LASF108:
 2879 0149 73746174 		.ascii	"state\000"
 2879      6500
 2880              	.LASF114:
 2881 014f 6368616E 		.ascii	"channels\000"
 2881      6E656C73 
 2881      00
 2882              	.LASF7:
 2883 0158 6C6F6E67 		.ascii	"long int\000"
 2883      20696E74 
 2883      00
 2884              	.LASF19:
 2885 0161 74737461 		.ascii	"tstate_t\000"
 2885      74655F74 
 2885      00
 2886              	.LASF31:
 2887 016a 705F6E65 		.ascii	"p_newer\000"
 2887      77657200 
 2888              	.LASF94:
 2889 0172 735F7175 		.ascii	"s_queue\000"
 2889      65756500 
 2890              	.LASF113:
 2891 017a 45585443 		.ascii	"EXTChannelConfig\000"
 2891      68616E6E 
 2891      656C436F 
 2891      6E666967 
 2891      00
 2892              	.LASF125:
 2893 018b 5F5F6675 		.ascii	"__func__.5701\000"
 2893      6E635F5F 
 2893      2E353730 
 2893      3100
 2894              	.LASF55:
 2895 0199 725F6E65 		.ascii	"r_newer\000"
 2895      77657200 
 2896              	.LASF79:
 2897 01a1 72656761 		.ascii	"regarm_t\000"
 2897      726D5F74 
 2897      00
 2898              	.LASF62:
ARM GAS  /tmp/cczifO0Q.s 			page 84


 2899 01aa 76745F70 		.ascii	"vt_prev\000"
 2899      72657600 
 2900              	.LASF120:
 2901 01b2 6F73616C 		.ascii	"osalSysLock\000"
 2901      5379734C 
 2901      6F636B00 
 2902              	.LASF101:
 2903 01be 6D757465 		.ascii	"mutex_t\000"
 2903      785F7400 
 2904              	.LASF142:
 2905 01c6 76616C75 		.ascii	"value\000"
 2905      6500
 2906              	.LASF77:
 2907 01cc 69646C65 		.ascii	"idle_thread_wa\000"
 2907      5F746872 
 2907      6561645F 
 2907      776100
 2908              	.LASF24:
 2909 01db 636E745F 		.ascii	"cnt_t\000"
 2909      7400
 2910              	.LASF138:
 2911 01e1 474E5520 		.ascii	"GNU C 4.8.4 20140526 (release) [ARM/embedded-4_8-br"
 2911      4320342E 
 2911      382E3420 
 2911      32303134 
 2911      30353236 
 2912 0214 616E6368 		.ascii	"anch revision 211358] -mcpu=cortex-m4 -mno-thumb-in"
 2912      20726576 
 2912      6973696F 
 2912      6E203231 
 2912      31333538 
 2913 0247 74657277 		.ascii	"terwork -mthumb -ggdb -O0 -fomit-frame-pointer -fal"
 2913      6F726B20 
 2913      2D6D7468 
 2913      756D6220 
 2913      2D676764 
 2914 027a 69676E2D 		.ascii	"ign-functions=16 -ffunction-sections -fdata-section"
 2914      66756E63 
 2914      74696F6E 
 2914      733D3136 
 2914      202D6666 
 2915 02ad 73202D66 		.ascii	"s -fno-common -flto\000"
 2915      6E6F2D63 
 2915      6F6D6D6F 
 2915      6E202D66 
 2915      6C746F00 
 2916              	.LASF0:
 2917 02c1 756E7369 		.ascii	"unsigned int\000"
 2917      676E6564 
 2917      20696E74 
 2917      00
 2918              	.LASF61:
 2919 02ce 76745F6E 		.ascii	"vt_next\000"
 2919      65787400 
 2920              	.LASF90:
 2921 02d6 77747365 		.ascii	"wtsemp\000"
 2921      6D7000
ARM GAS  /tmp/cczifO0Q.s 			page 85


 2922              	.LASF39:
 2923 02dd 705F6D73 		.ascii	"p_msgqueue\000"
 2923      67717565 
 2923      756500
 2924              	.LASF127:
 2925 02e8 65787453 		.ascii	"extStop\000"
 2925      746F7000 
 2926              	.LASF95:
 2927 02f0 735F636E 		.ascii	"s_cnt\000"
 2927      7400
 2928              	.LASF81:
 2929 02f6 636F6E74 		.ascii	"context\000"
 2929      65787400 
 2930              	.LASF4:
 2931 02fe 73686F72 		.ascii	"short unsigned int\000"
 2931      7420756E 
 2931      7369676E 
 2931      65642069 
 2931      6E7400
 2932              	.LASF46:
 2933 0311 63685F74 		.ascii	"ch_thread\000"
 2933      68726561 
 2933      6400
 2934              	.LASF115:
 2935 031b 45585443 		.ascii	"EXTConfig\000"
 2935      6F6E6669 
 2935      6700
 2936              	.LASF22:
 2937 0325 6D73675F 		.ascii	"msg_t\000"
 2937      7400
 2938              	.LASF72:
 2939 032b 63685F73 		.ascii	"ch_system_t\000"
 2939      79737465 
 2939      6D5F7400 
 2940              	.LASF18:
 2941 0337 746D6F64 		.ascii	"tmode_t\000"
 2941      655F7400 
 2942              	.LASF51:
 2943 033f 63685F72 		.ascii	"ch_ready_list\000"
 2943      65616479 
 2943      5F6C6973 
 2943      7400
 2944              	.LASF23:
 2945 034d 6576656E 		.ascii	"eventmask_t\000"
 2945      746D6173 
 2945      6B5F7400 
 2946              	.LASF6:
 2947 0359 5F5F696E 		.ascii	"__int32_t\000"
 2947      7433325F 
 2947      7400
 2948              	.LASF80:
 2949 0363 73746B61 		.ascii	"stkalign_t\000"
 2949      6C69676E 
 2949      5F7400
 2950              	.LASF136:
 2951 036e 5F5F6675 		.ascii	"__func__.7105\000"
 2951      6E635F5F 
ARM GAS  /tmp/cczifO0Q.s 			page 86


 2951      2E373130 
 2951      3500
 2952              	.LASF38:
 2953 037c 705F7761 		.ascii	"p_waiting\000"
 2953      6974696E 
 2953      6700
 2954              	.LASF144:
 2955 0386 6F6C6463 		.ascii	"oldcp\000"
 2955      7000
 2956              	.LASF78:
 2957 038c 73697A65 		.ascii	"sizetype\000"
 2957      74797065 
 2957      00
 2958              	.LASF44:
 2959 0395 74687265 		.ascii	"thread_reference_t\000"
 2959      61645F72 
 2959      65666572 
 2959      656E6365 
 2959      5F7400
 2960              	.LASF106:
 2961 03a8 65787473 		.ascii	"extstate_t\000"
 2961      74617465 
 2961      5F7400
 2962              	.LASF67:
 2963 03b3 63685F76 		.ascii	"ch_virtual_timers_list\000"
 2963      69727475 
 2963      616C5F74 
 2963      696D6572 
 2963      735F6C69 
 2964              	.LASF132:
 2965 03ca 65787443 		.ascii	"extChannelDisable\000"
 2965      68616E6E 
 2965      656C4469 
 2965      7361626C 
 2965      6500
 2966              	.LASF68:
 2967 03dc 76745F6C 		.ascii	"vt_lasttime\000"
 2967      61737474 
 2967      696D6500 
 2968              	.LASF32:
 2969 03e8 705F6F6C 		.ascii	"p_older\000"
 2969      64657200 
 2970              	.LASF54:
 2971 03f0 725F6374 		.ascii	"r_ctx\000"
 2971      7800
 2972              	.LASF84:
 2973 03f6 746D5F63 		.ascii	"tm_calibration_t\000"
 2973      616C6962 
 2973      72617469 
 2973      6F6E5F74 
 2973      00
 2974              	.LASF34:
 2975 0407 705F7374 		.ascii	"p_stklimit\000"
 2975      6B6C696D 
 2975      697400
 2976              	.LASF103:
 2977 0412 4558545F 		.ascii	"EXT_UNINIT\000"
ARM GAS  /tmp/cczifO0Q.s 			page 87


 2977      554E494E 
 2977      495400
 2978              	.LASF57:
 2979 041d 725F6375 		.ascii	"r_current\000"
 2979      7272656E 
 2979      7400
 2980              	.LASF56:
 2981 0427 725F6F6C 		.ascii	"r_older\000"
 2981      64657200 
 2982              	.LASF11:
 2983 042f 5F5F7569 		.ascii	"__uint64_t\000"
 2983      6E743634 
 2983      5F7400
 2984              	.LASF20:
 2985 043a 74726566 		.ascii	"trefs_t\000"
 2985      735F7400 
 2986              	.LASF82:
 2987 0442 706F7274 		.ascii	"port_intctx\000"
 2987      5F696E74 
 2987      63747800 
 2988              	.LASF59:
 2989 044e 76697274 		.ascii	"virtual_timer_t\000"
 2989      75616C5F 
 2989      74696D65 
 2989      725F7400 
 2990              	.LASF28:
 2991 045e 705F7072 		.ascii	"p_prev\000"
 2991      657600
 2992              	.LASF21:
 2993 0465 74707269 		.ascii	"tprio_t\000"
 2993      6F5F7400 
 2994              	.LASF70:
 2995 046d 63685F73 		.ascii	"ch_system_debug\000"
 2995      79737465 
 2995      6D5F6465 
 2995      62756700 
 2996              	.LASF102:
 2997 047d 5F426F6F 		.ascii	"_Bool\000"
 2997      6C00
 2998              	.LASF14:
 2999 0483 696E7433 		.ascii	"int32_t\000"
 2999      325F7400 
 3000              	.LASF2:
 3001 048b 756E7369 		.ascii	"unsigned char\000"
 3001      676E6564 
 3001      20636861 
 3001      7200
 3002              	.LASF143:
 3003 0499 65787449 		.ascii	"extInit\000"
 3003      6E697400 
 3004              	.LASF41:
 3005 04a1 705F6D74 		.ascii	"p_mtxlist\000"
 3005      786C6973 
 3005      7400
 3006              	.LASF3:
 3007 04ab 73686F72 		.ascii	"short int\000"
 3007      7420696E 
ARM GAS  /tmp/cczifO0Q.s 			page 88


 3007      7400
 3008              	.LASF35:
 3009 04b5 705F7374 		.ascii	"p_state\000"
 3009      61746500 
 3010              	.LASF53:
 3011 04bd 725F7072 		.ascii	"r_prio\000"
 3011      696F00
 3012              	.LASF92:
 3013 04c4 65776D61 		.ascii	"ewmask\000"
 3013      736B00
 3014              	.LASF27:
 3015 04cb 705F6E65 		.ascii	"p_next\000"
 3015      787400
 3016              	.LASF36:
 3017 04d2 705F666C 		.ascii	"p_flags\000"
 3017      61677300 
 3018              	.LASF119:
 3019 04da 63685379 		.ascii	"chSysLock\000"
 3019      734C6F63 
 3019      6B00
 3020              	.LASF73:
 3021 04e4 63685F73 		.ascii	"ch_system\000"
 3021      79737465 
 3021      6D00
 3022              	.LASF121:
 3023 04ee 6F73616C 		.ascii	"osalSysUnlock\000"
 3023      53797355 
 3023      6E6C6F63 
 3023      6B00
 3024              	.LASF130:
 3025 04fc 6368616E 		.ascii	"channel\000"
 3025      6E656C00 
 3026              	.LASF60:
 3027 0504 63685F76 		.ascii	"ch_virtual_timer\000"
 3027      69727475 
 3027      616C5F74 
 3027      696D6572 
 3027      00
 3028              	.LASF93:
 3029 0515 63685F73 		.ascii	"ch_semaphore\000"
 3029      656D6170 
 3029      686F7265 
 3029      00
 3030              	.LASF40:
 3031 0522 705F6570 		.ascii	"p_epending\000"
 3031      656E6469 
 3031      6E6700
 3032              	.LASF15:
 3033 052d 75696E74 		.ascii	"uint32_t\000"
 3033      33325F74 
 3033      00
 3034              	.LASF91:
 3035 0536 77746D74 		.ascii	"wtmtxp\000"
 3035      787000
 3036              	.LASF52:
 3037 053d 725F7175 		.ascii	"r_queue\000"
 3037      65756500 
ARM GAS  /tmp/cczifO0Q.s 			page 89


 3038              	.LASF63:
 3039 0545 76745F64 		.ascii	"vt_delta\000"
 3039      656C7461 
 3039      00
 3040              	.LASF47:
 3041 054e 63685F74 		.ascii	"ch_threads_list\000"
 3041      68726561 
 3041      64735F6C 
 3041      69737400 
 3042              	.LASF140:
 3043 055e 2F6E6673 		.ascii	"/nfs/nfs4/home/irbrown/Courses/P442/P442WifiTrailCo"
 3043      2F6E6673 
 3043      342F686F 
 3043      6D652F69 
 3043      7262726F 
 3044 0591 756E7465 		.ascii	"unterProject/milestone3\000"
 3044      7250726F 
 3044      6A656374 
 3044      2F6D696C 
 3044      6573746F 
 3045              	.LASF9:
 3046 05a9 6C6F6E67 		.ascii	"long unsigned int\000"
 3046      20756E73 
 3046      69676E65 
 3046      6420696E 
 3046      7400
 3047              	.LASF104:
 3048 05bb 4558545F 		.ascii	"EXT_STOP\000"
 3048      53544F50 
 3048      00
 3049              	.LASF100:
 3050 05c4 63686172 		.ascii	"char\000"
 3050      00
 3051              	.LASF105:
 3052 05c9 4558545F 		.ascii	"EXT_ACTIVE\000"
 3052      41435449 
 3052      564500
 3053              	.LASF112:
 3054 05d4 6D6F6465 		.ascii	"mode\000"
 3054      00
 3055              	.LASF109:
 3056 05d9 636F6E66 		.ascii	"config\000"
 3056      696700
 3057              	.LASF111:
 3058 05e0 65787463 		.ascii	"extcallback_t\000"
 3058      616C6C62 
 3058      61636B5F 
 3058      7400
 3059              	.LASF26:
 3060 05ee 74687265 		.ascii	"thread_t\000"
 3060      61645F74 
 3060      00
 3061              	.LASF99:
 3062 05f7 6D5F6E65 		.ascii	"m_next\000"
 3062      787400
 3063              	.LASF25:
 3064 05fe 73797374 		.ascii	"systime_t\000"
ARM GAS  /tmp/cczifO0Q.s 			page 90


 3064      696D655F 
 3064      7400
 3065              	.LASF42:
 3066 0608 705F7265 		.ascii	"p_realprio\000"
 3066      616C7072 
 3066      696F00
 3067              	.LASF58:
 3068 0613 76746675 		.ascii	"vtfunc_t\000"
 3068      6E635F74 
 3068      00
 3069              	.LASF8:
 3070 061c 5F5F7569 		.ascii	"__uint32_t\000"
 3070      6E743332 
 3070      5F7400
 3071              	.LASF141:
 3072 0627 5F5F7365 		.ascii	"__set_BASEPRI\000"
 3072      745F4241 
 3072      53455052 
 3072      4900
 3073              	.LASF71:
 3074 0635 70616E69 		.ascii	"panic_msg\000"
 3074      635F6D73 
 3074      6700
 3075              	.LASF83:
 3076 063f 6F666673 		.ascii	"offset\000"
 3076      657400
 3077              	.LASF17:
 3078 0646 7274636E 		.ascii	"rtcnt_t\000"
 3078      745F7400 
 3079              	.LASF139:
 3080 064e 2E2E2F43 		.ascii	"../ChibiOS/os/hal/src/ext.c\000"
 3080      68696269 
 3080      4F532F6F 
 3080      732F6861 
 3080      6C2F7372 
 3081              	.LASF65:
 3082 066a 76745F70 		.ascii	"vt_par\000"
 3082      617200
 3083              	.LASF129:
 3084 0671 65787443 		.ascii	"extChannelEnable\000"
 3084      68616E6E 
 3084      656C456E 
 3084      61626C65 
 3084      00
 3085              	.LASF107:
 3086 0682 45585444 		.ascii	"EXTDriver\000"
 3086      72697665 
 3086      7200
 3087              	.LASF48:
 3088 068c 74687265 		.ascii	"threads_queue_t\000"
 3088      6164735F 
 3088      71756575 
 3088      655F7400 
 3089              	.LASF96:
 3090 069c 63685F6D 		.ascii	"ch_mutex\000"
 3090      75746578 
 3090      00
ARM GAS  /tmp/cczifO0Q.s 			page 91


 3091              	.LASF37:
 3092 06a5 705F7265 		.ascii	"p_refs\000"
 3092      667300
 3093              	.LASF74:
 3094 06ac 726C6973 		.ascii	"rlist\000"
 3094      7400
 3095              	.LASF13:
 3096 06b2 75696E74 		.ascii	"uint8_t\000"
 3096      385F7400 
 3097              	.LASF87:
 3098 06ba 77746F62 		.ascii	"wtobjp\000"
 3098      6A7000
 3099              	.LASF126:
 3100 06c1 5F5F6675 		.ascii	"__func__.7084\000"
 3100      6E635F5F 
 3100      2E373038 
 3100      3400
 3101              	.LASF33:
 3102 06cf 705F6E61 		.ascii	"p_name\000"
 3102      6D6500
 3103              	.LASF128:
 3104 06d6 5F5F6675 		.ascii	"__func__.7088\000"
 3104      6E635F5F 
 3104      2E373038 
 3104      3800
 3105              	.LASF45:
 3106 06e4 74687265 		.ascii	"threads_list_t\000"
 3106      6164735F 
 3106      6C697374 
 3106      5F7400
 3107              	.LASF118:
 3108 06f3 63685379 		.ascii	"chSysUnlock\000"
 3108      73556E6C 
 3108      6F636B00 
 3109              	.LASF98:
 3110 06ff 6D5F6F77 		.ascii	"m_owner\000"
 3110      6E657200 
 3111              	.LASF30:
 3112 0707 705F6374 		.ascii	"p_ctx\000"
 3112      7800
 3113              	.LASF64:
 3114 070d 76745F66 		.ascii	"vt_func\000"
 3114      756E6300 
 3115              	.LASF135:
 3116 0715 65787463 		.ascii	"extcp\000"
 3116      7000
 3117              		.comm	__gnu_lto_v1,1,1
 3118              		.ident	"GCC: (GNU Tools for ARM Embedded Processors) 4.8.4 20140526 (release) [ARM/embedded-4_8-br
ARM GAS  /tmp/cczifO0Q.s 			page 92


DEFINED SYMBOLS
                            *ABS*:00000000 ext.c
     /tmp/cczifO0Q.s:532    .text.port_lock:00000000 $t
     /tmp/cczifO0Q.s:537    .text.port_lock:00000000 port_lock
     /tmp/cczifO0Q.s:568    .text.port_unlock:00000000 $t
     /tmp/cczifO0Q.s:573    .text.port_unlock:00000000 port_unlock
     /tmp/cczifO0Q.s:602    .text.chSysLock:00000000 $t
     /tmp/cczifO0Q.s:607    .text.chSysLock:00000000 chSysLock
     /tmp/cczifO0Q.s:626    .text.chSysUnlock:00000000 $t
     /tmp/cczifO0Q.s:631    .text.chSysUnlock:00000000 chSysUnlock
     /tmp/cczifO0Q.s:649    .text.osalSysLock:00000000 $t
     /tmp/cczifO0Q.s:654    .text.osalSysLock:00000000 osalSysLock
     /tmp/cczifO0Q.s:673    .text.osalSysUnlock:00000000 $t
     /tmp/cczifO0Q.s:678    .text.osalSysUnlock:00000000 osalSysUnlock
     /tmp/cczifO0Q.s:696    .text.extInit:00000000 $t
     /tmp/cczifO0Q.s:702    .text.extInit:00000000 extInit
     /tmp/cczifO0Q.s:721    .text.extObjectInit:00000000 $t
     /tmp/cczifO0Q.s:727    .text.extObjectInit:00000000 extObjectInit
     /tmp/cczifO0Q.s:753    .text.extStart:00000000 $t
     /tmp/cczifO0Q.s:759    .text.extStart:00000000 extStart
     /tmp/cczifO0Q.s:795    .text.extStop:00000000 $t
     /tmp/cczifO0Q.s:801    .text.extStop:00000000 extStop
     /tmp/cczifO0Q.s:832    .text.extChannelEnable:00000000 $t
     /tmp/cczifO0Q.s:838    .text.extChannelEnable:00000000 extChannelEnable
     /tmp/cczifO0Q.s:867    .text.extChannelDisable:00000000 $t
     /tmp/cczifO0Q.s:873    .text.extChannelDisable:00000000 extChannelDisable
     /tmp/cczifO0Q.s:902    .text.extSetChannelModeI:00000000 $t
     /tmp/cczifO0Q.s:908    .text.extSetChannelModeI:00000000 extSetChannelModeI
                            *COM*:00000001 __gnu_lto_v1
                     .debug_frame:00000010 $d

UNDEFINED SYMBOLS
ext_lld_init
ext_lld_start
ext_lld_stop
ext_lld_channel_enable
ext_lld_channel_disable
