ARM GAS  /tmp/ccDPDrPi.s 			page 1


   1              		.syntax unified
   2              		.cpu cortex-m4
   3              		.fpu softvfp
   4              		.eabi_attribute 20, 1
   5              		.eabi_attribute 21, 1
   6              		.eabi_attribute 23, 3
   7              		.eabi_attribute 24, 1
   8              		.eabi_attribute 25, 1
   9              		.eabi_attribute 26, 1
  10              		.eabi_attribute 30, 6
  11              		.eabi_attribute 34, 1
  12              		.eabi_attribute 18, 4
  13              		.thumb
  14              		.file	"ext_lld_isr.c"
  15              		.text
  16              	.Ltext0:
  17              		.section	.gnu.lto_.inline.41543b5217bcee50,"",%progbits
  18 0000 789C6362 		.ascii	"x\234cb`b\300\006\266C\205\005\031\030\204\325\031\030"
  18      6062C006 
  18      B6438505 
  18      191884D5 
  18      1918
  19 0012 98C40EEC 		.ascii	"\230\304\016\354fd`\201(f\344\002\022\254@\031 \027"
  19      66646081 
  19      2866E402 
  19      12AC4019 
  19      2017
  20 0024 8F24333E 		.ascii	"\217$3>I\026|\222\254\370$\331\030\254\377\203\254\266"
  20      49167C92 
  20      ACF824D9 
  20      18ACFF83 
  20      ACB6
  21 0036 6BF8C28C 		.ascii	"k\370\302\214E+\026\202\235\341(\303TF\240\026\217\011"
  21      452B1682 
  21      9DE128C3 
  21      5446A016 
  21      8F09
  22 0048 875888D3 		.ascii	"\207X\210\323\002&8\3609\203\023\237$\027>In|\222<\370"
  22      022638F0 
  22      3983139F 
  22      24173E49 
  22      6E7C923C 
  23 005d 247919D4 		.ascii	"$y\031\324/\203\274\256\365\340:\023>\177\3601h_\007"
  23      2F83BCAE 
  23      F5E03A13 
  23      3E7FF031 
  23      685F07
  24 0070 A9335A30 		.ascii	"\2513Z0\015o\020\361\343\263L\200\301`\033(\320\230"
  24      0D6F10F1 
  24      E3B34C80 
  24      C1601B28 
  24      D098
  25 0082 16C8C324 		.ascii	"\026\310\303$\231y\250F\0102(.G3\235\211\233j\004\003"
  25      9979A846 
  25      0832282E 
  25      47339D89 
  25      9B6A0403 
ARM GAS  /tmp/ccDPDrPi.s 			page 2


  26 0096 0093AF28 		.ascii	"\000\223\257(\310"
  26      C8
  27              		.text
  28              		.section	.gnu.lto_Vector58.41543b5217bcee50,"",%progbits
  29 0000 789CB552 		.ascii	"x\234\265RMh\023Q\020\236\331\267\371\267M\325\213z"
  29      4D681351 
  29      109ED9B7 
  29      F9B74DD5 
  29      8B7A
  30 0012 2AF52216 		.ascii	"*\365\"\026\263`A\020\017\036\004\301\203($\205\352"
  30      B3604110 
  30      0F1E04C1 
  30      83282485 
  30      EA
  31 0023 A52451DA 		.ascii	"\245$Q\332\205HKR0\340\241o\223(A\243\215=\252\320\212"
  31      85484B52 
  31      30E0A16F 
  31      932841A3 
  31      8D3DAAD0 
  32 0038 20520A82 		.ascii	" R\012\202\247\202\227 (\361PZ\361\"\005i\020\361\344"
  32      A7829720 
  32      28F1505A 
  32      F1220569 
  32      10F1E4
  33 004b A11E0411 		.ascii	"\241\036\004\021\3659\263\177.-\342^\034\330yog\346"
  33      F539B37F 
  33      2E2DE25E 
  33      1CD8796F 
  33      67E6
  34 005d FBE69BF7 		.ascii	"\373\346\233\367\236\006\032l\267C\364\245#\000'\370"
  34      9E061A6C 
  34      B743F4A5 
  34      230027F8 
  35 006d 27024815 		.ascii	"'\002H\025\250i\002@j:9] -\250#R\032aV\023:\316^\340"
  35      A8690240 
  35      6A3A395D 
  35      202DA823 
  35      521A6156 
  36 0086 1F480EC1 		.ascii	"\037H\016\301C)\347{/\027\356\354\277\271Xk\313_J\241"
  36      4329E77B 
  36      2F17EEEC 
  36      BFB9586B 
  36      CB5F4AA1 
  37 009a C9A922C2 		.ascii	"\311\251\"\302\030\355p\320^\230'h\016L>{\"\023\213"
  37      18ED70D0 
  37      5E982768 
  37      0E4C3E7B 
  37      22138B
  38 00ad F28752C2 		.ascii	"\362\207R\302D\021\022\263\371\361|W6:J\235\374\277"
  38      441112B3 
  38      F9F17C57 
  38      363A4A9D 
  38      FCBF
  39 00bf 7DDE06FA 		.ascii	"}\336\006\372\204\304t\324\373V\262m5\245R\263\241\305"
  39      84C474D4 
  39      FB56B26D 
  39      35A552B3 
ARM GAS  /tmp/ccDPDrPi.s 			page 3


  39      A1C5
  40 00d1 75EEDEB8 		.ascii	"u\356\336\270\035<\273\260\275\346_\005z\351!\207\372"
  40      1D3CBBB0 
  40      BDE65F05 
  40      7AE92187 
  40      FA
  41 00e2 19182A12 		.ascii	"\031\030*\022\262\321\327/]$\250\265\245T\332\304\250"
  41      B2D1D72F 
  41      5D24A8B5 
  41      A554DAC4 
  41      A8
  42 00f3 06C7F11F 		.ascii	"\006\307\361\037\300\247Z\247\247\324\203\271\271O\373"
  42      C0A75AA7 
  42      A7D483B9 
  42      B94FFB
  43 0102 30854047 		.ascii	"0\205@G\241\221\023\202w:\357\"\354\242\220\307%\034"
  43      A1911382 
  43      773AEF22 
  43      ECA290C7 
  43      251C
  44 0114 821887E3 		.ascii	"\202\030\207\343\034I\220\323\223`K\243w\330\220\262"
  44      1C4990D3 
  44      93604BA3 
  44      77D890B2 
  45 0124 3DE8D4D8 		.ascii	"=\350\324\330R\311r\266\037\345\027*V\241\266\362n\241"
  45      52C972B6 
  45      1FE5172A 
  45      56A1B6F2 
  45      6EA1
  46 0136 3F8FCB54 		.ascii	"?\217\313T?\201\310J@6\033\222\325\254\302\213\213^"
  46      3F81C84A 
  46      40361B92 
  46      D5ACC28B 
  46      8B5E
  47 0148 461B8625 		.ascii	"F\033\206%\331\240l\354>\334\243%\356\025\333V@O6\023"
  47      D9A06CEC 
  47      3EDCA325 
  47      EE15DB56 
  47      404F3613 
  48 015c 6EA53C94 		.ascii	"n\245<\224\370+\237\276\223O\004\371\320\347\253?\257"
  48      F82B9FBE 
  48      934F04F9 
  48      D0E7AB3F 
  48      AF
  49 016d 3F460F16 		.ascii	"?F\017\026!%\023|Sv\374\200\027\216R\206\321\002]\011"
  49      2125137C 
  49      5376FC80 
  49      178E5286 
  49      D1025D09 
  50 0181 DF368597 		.ascii	"\3376\205\227\213m\327\360\272\035sr\266\004K\246\203"
  50      8B6DD7F0 
  50      BA1D7372 
  50      B6044BA6 
  50      83
  51 0192 22623B87 		.ascii	"\"b;\207\"z\267\337\243\226\337\221J\243~\307.4>[}~"
  51      227AB7DF 
  51      A396DF91 
ARM GAS  /tmp/ccDPDrPi.s 			page 4


  51      4AA37EC7 
  51      2E343E5B 
  52 01a8 6ACC7981 		.ascii	"j\314y\201\177l\224\177\371\2547V>\254\373\263$\206"
  52      7F6C947F 
  52      F9AC3756 
  52      3EACFBB3 
  52      2486
  53 01ba E130DD15 		.ascii	"\3410\335\025\265\266\244\03401q\015\276\313&\357\222"
  53      B5B6A41C 
  53      3031710D 
  53      BECB26EF 
  53      92
  54 01cb 57ECD6CC 		.ascii	"W\354\326\314\223t\245h\376y\3246\326\323\036E\222G"
  54      9374A568 
  54      FE79D436 
  54      D6D31E45 
  54      9247
  55 01dd 2040EA08 		.ascii	" @\352\010,\313\266\224WM\334\305!\332fM\354s\246\352"
  55      2CCBB694 
  55      574DDCC5 
  55      21DA664D 
  55      EC73A6EA 
  56 01f1 A7564CA5 		.ascii	"\247VL\245\273T\2164\216\244}\205\005\364\236\337\032"
  56      BB548E34 
  56      8EA47D85 
  56      05F49EDF 
  56      1A
  57 0202 5CEF9C71 		.ascii	"\\\357\234q\370yt\352\317\262\342\216(7\316\330\001"
  57      F87974EA 
  57      CFB2E28E 
  57      2837CED8 
  57      01
  58 0213 A037B6DB 		.ascii	"\2407\266\333\233\217\320b\015\352\275[E\017\352\017"
  58      9B8FD062 
  58      0DEABD5B 
  58      450FEA0F 
  59 0223 B3A7E85E 		.ascii	"\263\247\350^\246\211{\001\336\200\325k\035\364\212"
  59      A6897B01 
  59      DE80D56B 
  59      1DF48A
  60 0232 1CCB7101 		.ascii	"\034\313q\001\017x,\2231NM\232\005\363\\\326\230\252"
  60      0F782C93 
  60      314E4D9A 
  60      05F35CD6 
  60      98AA
  61 0244 1893F992 		.ascii	"\030\223\371\2221=U\236\251\030\331\334\331\221\243"
  61      313D559E 
  61      A918D9DC 
  61      D991A3
  62 0253 8E3F3D52 		.ascii	"\216?=R\255\032\227\2533\343\245\322\245q\263R\316\024"
  62      AD1A97AB 
  62      33E3A5D2 
  62      A571B352 
  62      CE14
  63 0265 419B2EFF 		.ascii	"A\233.\377\006\354,%\374"
  63      06EC2C25 
  63      FC
ARM GAS  /tmp/ccDPDrPi.s 			page 5


  64              		.text
  65              		.section	.gnu.lto_Vector5C.41543b5217bcee50,"",%progbits
  66 0000 789CB552 		.ascii	"x\234\265RMhSA\020\236\331}\371\267\246U\020\352\251"
  66      4D685341 
  66      109ED97D 
  66      F9B7A655 
  66      10EAA9
  67 0013 D48B584C 		.ascii	"\324\213XL\300\202(\036<\010\202\007QH\012\325KI\242"
  67      C082281E 
  67      3C088207 
  67      51480AD5 
  67      4B49A2
  68 0026 B40F222D 		.ascii	"\264\017\"-I\301\200\207l\232X\202X\011\342E\275\264"
  68      49C18087 
  68      6C9A5882 
  68      5809E245 
  68      BDB4
  69 0038 17915228 		.ascii	"\027\221R(\330K@\204\207`\251Hi\305\203\032\004#x\252"
  69      D84B4084 
  69      8760A948 
  69      69C5831A 
  69      042378AA 
  70 004c 1E7214A9 		.ascii	"\036r\024\251>g\336_C\213\370.\016\274\331}3\363}\363"
  70      3E67DE5F 
  70      438BF82E 
  70      0EBCD97D 
  70      33F37DF3 
  71 0060 CDEE0A10 		.ascii	"\315\356\012\020\260\333\216\322w(\000p\206\177\002"
  71      B0DB8ED2 
  71      77280070 
  71      867F02
  72 006f 80548142 		.ascii	"\200T\201BH\000%4r\232DZPC\2444BYH\015\313W\370\007"
  72      48002534 
  72      729A445A 
  72      5043A434 
  72      4259480D 
  73 0087 A283B0A0 		.ascii	"\242\203\260\240\324\375\366\253\2556>|`\324\346\325"
  73      D4FDF6AB 
  73      AD363E7C 
  73      60D4E6D5 
  74 0097 B66922EA 		.ascii	"\266i\"\352\234\314!\214\322\016\007\254\205\231\272"
  74      9CCC218C 
  74      D20E07AC 
  74      8599BA
  75 00a6 CD06AA67 		.ascii	"\315\006\252gOU\304\002I\035\245O\314\347\257\227\327"
  75      4F55C402 
  75      491DA54F 
  75      CCE7AF97 
  75      D7
  76 00b7 54CD30CD 		.ascii	"T\3150\315\263\377\267\317\273\256>>1\306\373\3257\013"
  76      B3FFB7CF 
  76      BBAE3E3E 
  76      31C6FBD5 
  76      370B
  77 00c9 48D84AC7 		.ascii	"H\330J\3074\343\276\345\031\037g\347\372\357\314\317"
  77      34E3BEE5 
  77      191F67E7 
ARM GAS  /tmp/ccDPDrPi.s 			page 6


  77      FAEFCCCF 
  78 00d9 34D46F3A 		.ascii	"4\324o:>\377\335Z\253w\243\215J]\231fY\347;\3625\326"
  78      3EFFDD5A 
  78      AB77A38D 
  78      4A5D9966 
  78      59E73BF2 
  79 00ef AFAEB102 		.ascii	"\257\256\261\002>\033\275\230\275\327\257v\364\005\005"
  79      3E1BBD98 
  79      BDD7AF76 
  79      F40505
  80 00fe 9CC67F20 		.ascii	"\234\306\177 \227\205\3216\315O+\235/M\354\213!\320"
  80      9785D136 
  80      CD4F2B9D 
  80      2F4DEC8B 
  80      21D0
  81 0110 61087252 		.ascii	"a\010rR\362N\343]\200]\0202\270\210\203\020\342p\230"
  81      F24EE35D 
  81      805D1032 
  81      B8888310 
  81      E27098
  82 0123 2311725A 		.ascii	"#\021rZ\024,q\364\032kJ5\006\354\032K,Y\332\362#\374"
  82      142C71F4 
  82      1A6B4A35 
  82      06EC1A4B 
  82      2C59DAF2 
  83 0139 4EE53ACC 		.ascii	"N\345:\3144?\320\353\313\340\022\001\306\021Y\013\250"
  83      343FD0EB 
  83      CBE01201 
  83      C611590B 
  83      A8
  84 014a 7A4DB19E 		.ascii	"zM\261\236uxy\325\315\210!XT5\312\206\036\303#Z\302"
  84      757879D5 
  84      CD882158 
  84      5435CA86 
  84      1EC3235A 
  85 015f 6EB16559 		.ascii	"n\261eYt\2053c'\346\242\344_\371\264\275|\262\233\017"
  85      74853363 
  85      27E6A2E4 
  85      5FF9B4BD 
  85      7CB29B0F 
  86 0173 3DBEEAF3 		.ascii	"=\276\352\363\352\023O`\200\224\214\363eY\361\303n8"
  86      EA134F60 
  86      80948CF3 
  86      6559F1C3 
  86      6E38
  87 0185 4819464B 		.ascii	"H\031FK\341H\370\261u\312\315\205vkx\335\010\3319KB"
  87      E148F8B1 
  87      75CACD85 
  87      766B78DD 
  87      08D9394B 
  88 019a 45C5BB45 		.ascii	"E\305\273E\204\366\016E\364N\277\2259\257#\225\006\275"
  88      84F60E45 
  88      F44EBF95 
  88      39AF2395 
  88      06BD
  89 01ac 8E6B50FB 		.ascii	"\216kP\373^\351\361R\243\366#\334\261\021\376\345\303"
  89      5EE9F152 
ARM GAS  /tmp/ccDPDrPi.s 			page 7


  89      A3F623DC 
  89      B111FEE5 
  89      C3
  90 01bd 6E35BF6D 		.ascii	"n5\277mz\263D\206\340\030]\026\265\256(\325\253c\344"
  90      7AB34486 
  90      E0185D16 
  90      B5AE28D5 
  90      AB63E4
  91 01d0 16FC5475 		.ascii	"\026\374Tu\336EoX\255\231'\352H\021\336y\314\2646\343"
  91      DE456F58 
  91      AD9927EA 
  91      4811DE79 
  91      CCB436E3 
  92 01e4 2E459447 		.ascii	".E\224G @\3548,\251\206R7u\334\307!\332\246t\354\261"
  92      2040EC38 
  92      2CA98652 
  92      3775DCC7 
  92      21DAA674 
  93 01fa A7DA4FAD 		.ascii	"\247\332O\255\230Js\250li\034\211{\327\226E\367\001"
  93      984A73A8 
  93      6C691C89 
  93      7BD79645 
  93      F701
  94 020c 6EC06DE3 		.ascii	"n\300m\343\202\315\317\243S\177\226\025\266E9q\306\366"
  94      82CDCFA3 
  94      537F9615 
  94      B6453971 
  94      C6F6
  95 021e F2A3EC73 		.ascii	"\362\243\354s\347#\264\334\200j{9\347B\275a\016\344"
  95      E723B4DC 
  95      806A7B39 
  95      E742BD61 
  95      0EE4
  96 0230 9CCBD4F1 		.ascii	"\234\313\324\361 \300[\250\264\233G\334\"\333\322\\"
  96      20C05BA8 
  96      B49B47DC 
  96      22DBD25C 
  97 0240 C0039E4C 		.ascii	"\300\003\236L$\222\347&\364\254~)\225\234,&'2\371\344"
  97      2492E726 
  97      F4AC7E29 
  97      959C2C26 
  97      2732F9E4 
  98 0254 D46461BA 		.ascii	"\324da\272\230L\245/\016\237\260\375\371\341R)y\275"
  98      984CA52F 
  98      0E9FB0FD 
  98      F9E15229 
  98      79BD
  99 0266 343D96CF 		.ascii	"4=\226\317_\033\323\213\205D\016\304T\341\017\363K,"
  99      5F1BD38B 
  99      85440EC4 
  99      54E10FF3 
  99      4B2C
 100 0278 15       		.ascii	"\025"
 101              		.text
 102              		.section	.gnu.lto_Vector60.41543b5217bcee50,"",%progbits
 103 0000 789CB554 		.ascii	"x\234\265TMh\023Q\020\236\331\335\374m\254i\025\204"
 103      4D681351 
ARM GAS  /tmp/ccDPDrPi.s 			page 8


 103      109ED9DD 
 103      FC6DAC69 
 103      1584
 104 0012 7A2AF522 		.ascii	"z*\365\"\026\263`A\024\017\036\004\301\203($\205\352"
 104      16B36041 
 104      140F1E04 
 104      C1832824 
 104      85EA
 105 0024 A52451DA 		.ascii	"\245$Q\332\205HKR0\340!o\223\225\006\321\022D\017\376"
 105      85484B52 
 105      30E0216F 
 105      939506D1 
 105      12440FFE 
 106 0038 80ED45A4 		.ascii	"\200\355E\244\024\304\236*^\026AZ\221\322\212\027\251"
 106      14C49E2A 
 106      5E16415A 
 106      91D28A17 
 106      A9
 107 0049 05237AF4 		.ascii	"\005#z\364\020(\210\210\272\316\354_C\213\270\027\007"
 107      10288888 
 107      BACEEC5F 
 107      438BB817 
 107      07
 108 005a 32EFEDCC 		.ascii	"2\357\355\314|\337|\363\336#\022H\260\335\016\322o_"
 108      7CDF7CF3 
 108      DE231248 
 108      B0DD0ED2 
 108      6F5F
 109 006c 04E0047F 		.ascii	"\004\340\004\177D\000\251\002%I\006\020\222BN\221\221"
 109      4400A902 
 109      25490610 
 109      92424E91 
 109      91
 110 007d 16541029 		.ascii	"\026T\020)\215P\225d\005\253\027\370\003\324~\230\025"
 110      8D509564 
 110      05AB17F8 
 110      03D47E98 
 110      15
 111 008e E276EBD5 		.ascii	"\342v\353\325f\013\357\335\261\314\031\361\323\266\021"
 111      660BEFDD 
 111      B1CC19F1 
 111      D3B611
 112 009d 754E1610 		.ascii	"uN\026\020\206i\207}\316\302L\235\346\002\305\302\023"
 112      8669877D 
 112      CEC24C9D 
 112      E602C5C2 
 112      13
 113 00ae 917040B2 		.ascii	"\221p@\262\216rH\314\307/\347\227\205i\331\366\311\377"
 113      8E7248CC 
 113      C72FE797 
 113      8569D9F6 
 113      C9FF
 114 00c0 DBE75D47 		.ascii	"\333\347]G\237\220\030\353\321\322\233Y$\254\321\266"
 114      9F9018EB 
 114      D1D29B59 
 114      24ACD1B6 
 115 00d0 ED546879 		.ascii	"\355Thy\326\263\251[\2757fjM\361\233\216/|\267\205\245"
ARM GAS  /tmp/ccDPDrPi.s 			page 9


 115      D6B3A95B 
 115      BD37666A 
 115      4DF19B8E 
 115      2F7CB785 
 116 00e5 9B6AD368 		.ascii	"\233j\323h\010\333\256\352|G\241\306\372\3251V$d\243"
 116      08DBAEEA 
 116      7C47A1C6 
 116      FAD53156 
 116      2464A3
 117 00f8 BB53D3BD 		.ascii	"\273S\323\275bK_T\202\343\370\017\344S\311j\331\366"
 117      624B5F54 
 117      82E3F80F 
 117      E453C96A 
 117      D9F6
 118 010a C3E7ED4F 		.ascii	"\303\347\355O\033\330\223D\240\303\220\310\3112\357"
 118      1BD89344 
 118      A0C390C8 
 118      C932EF
 119 0119 14DE45D8 		.ascii	"\024\336E\330E!\207s\330\0171\016\3079\222 \247\250"
 119      45218773 
 119      D80F310E 
 119      C7399220 
 119      A7A8
 120 012b E088A3D7 		.ascii	"\340\210\243\327h\012\321\354sk\034\261dY\307\017\361"
 120      680AD1EC 
 120      736B1CB1 
 120      6459C70F 
 120      F1
 121 013c 3B9557A0 		.ascii	";\225W\240\266\370\236^_\016\347\0110\212\310Z@4L\301"
 121      B6F89E5E 
 121      5F0EE709 
 121      308AC85A 
 121      40344CC1 
 122 0150 7A56E0E5 		.ascii	"zV\340\345E?#\015\300\2340)\033{\000\367i\211\373\305"
 122      453F230D 
 122      C09C3029 
 122      1B7B00F7 
 122      6989FBC5 
 123 0164 8EE5D117 		.ascii	"\216\345\321\027\316\214\355\244\217\222\377\312\247"
 123      CE8CEDA4 
 123      8F92FFCA 
 123      A7
 124 0171 ECE4933B 		.ascii	"\354\344\223;\3710\340\253\277\250?\016\004FH\311(_"
 124      F930E0AB 
 124      BFA83F0E 
 124      044648C9 
 124      285F
 125 0183 9613DFEF 		.ascii	"\226\023\337\357\207\243\224a\264\254x\022\276o\036"
 125      87A39461 
 125      B4AC7812 
 125      BE6F1E
 126 0192 F373B1ED 		.ascii	"\363s\261\355\032^7cn\316\221`\210T\247\210\330\316"
 126      1A5E3763 
 126      6ECE9160 
 126      8854A788 
 126      D8CE
 127 01a4 A188DEEB 		.ascii	"\241\210\336\353\367y:\350H\245\321\240\3432\230_\215"
ARM GAS  /tmp/ccDPDrPi.s 			page 10


 127      F7793AE8 
 127      48A5D1A0 
 127      E332985F 
 127      8D
 128 01b5 AE2035EC 		.ascii	"\256 5\354>\302-\033\342O>\354\365\305ok\301,\211\001"
 128      3EC22D1B 
 128      E24F3EEC 
 128      F5C56F6B 
 128      C12C8901 
 129 01c9 38449745 		.ascii	"8D\227E\255\015!\272uL\\\203\037\242\301;\365\212\323"
 129      AD0D21BA 
 129      754C5C83 
 129      1FA2C13B 
 129      F58AD3
 130 01dc 9A79544F 		.ascii	"\232yTO\212\024\234Gm}-\345S\250<\002\001\222\207a^"
 130      8A149C47 
 130      6D7D2DE5 
 130      53A83C02 
 130      01928761 
 131 01f1 3485B8AA 		.ascii	"4\205\270\252\343.\016\3216\243c\227;\325nj\305T\212"
 131      E32E0ED1 
 131      36A36397 
 131      3BD56E6A 
 131      C5548A
 132 0204 47E54AE3 		.ascii	"G\345J\343H*\3707\313\243\377\000W\341\272u\306\345"
 132      482AF837 
 132      CBA3FF00 
 132      57E1BA75 
 132      C6E5
 133 0216 E7D1A93F 		.ascii	"\347\321\251?\313\212\273\242\2748c\273\371=\366\370"
 133      CB8ABBA2 
 133      BC3863BB 
 133      F93DF6F8 
 134 0226 F3115A5E 		.ascii	"\363\021Z^\205z\353C\301\207\006\303\354)x\227\251\343"
 134      857AEB43 
 134      C18706C3 
 134      EC297897 
 134      A9E3
 135 0238 5E80B760 		.ascii	"^\200\267`\2646\016\370E\256e\271\200\245\034M\247\265"
 135      B4360EF8 
 135      45AE65B9 
 135      80A51C4D 
 135      A7B5
 136 024a 53637A5E 		.ascii	"Scz^?\227\321\306\313\332X\256\250M\214\227&\313Z&{"
 136      3F97D1C6 
 136      CBDA58AE 
 136      A84D8C97 
 136      26CB5A26 
 137 025f 76F088EB 		.ascii	"v\360\210\353O\017V*\332\345\312\344H\261xiD/\227\322"
 137      4F0F562A 
 137      DAE5CAE4 
 137      48B17869 
 137      442F97D2 
 138 0273 0590264A 		.ascii	"\005\220&J\177\000\357T,\000"
 138      7F00EF54 
 138      2C00
 139              		.text
ARM GAS  /tmp/ccDPDrPi.s 			page 11


 140              		.section	.gnu.lto_Vector64.41543b5217bcee50,"",%progbits
 141 0000 789CB552 		.ascii	"x\234\265RMh\023Q\020\236\331\335\374m\254\251\025\204"
 141      4D681351 
 141      109ED9DD 
 141      FC6DACA9 
 141      1584
 142 0012 7A2A0541 		.ascii	"z*\005A,6`A\024\017\036\004\301\203($\205\352\245$Q"
 142      2C366041 
 142      140F1E04 
 142      C1832824 
 142      85EAA524 
 143 0027 DA85484B 		.ascii	"\332\205HKR0\340!o\223\225\006\361'\210\027\365\322"
 143      5230E021 
 143      6F939506 
 143      F1278817 
 143      F5D2
 144 0039 5E444A41 		.ascii	"^DJA\360T\020a\021\244\025)\255x\221\242\030\301\243"
 144      F0541061 
 144      11A41529 
 144      AD7891A2 
 144      18C1A3
 145 004c 878007B5 		.ascii	"\207\200\007\265\324<g\366\257\241E\334\213\003;\357"
 145      D43C67F6 
 145      AFA145DC 
 145      8B033BEF 
 146 005c EDCC7CDF 		.ascii	"\355\314|\337|\363\336S@\201\235v\230\276\003\021\200"
 146      7CF3DE53 
 146      40819D76 
 146      98BE0311 
 146      80
 147 006d 53FC1301 		.ascii	"S\374\023\001\244\012T\024\025@(\0329MEZPC\2444BUQ5"
 147      A40A5414 
 147      1540281A 
 147      394D455A 
 147      5043A434 
 148 0085 AC5EE21F 		.ascii	"\254^\342\037\320\007a^\210\373\255\327\235\026>|`["
 148      D007615E 
 148      88FBADD7 
 148      9D163E7C 
 148      605B
 149 0097 73624B4A 		.ascii	"sbKJD\203\223\005\2041\332\341\200\2630S\267\271@\361"
 149      44839305 
 149      8431DAE1 
 149      80B33053 
 149      B7B940F1 
 150 00ab FCA94838 		.ascii	"\374\251H8 \325@5$\346\363\327\213+\302\262\245<\375"
 150      20D54035 
 150      24E6F3D7 
 150      8B2BC2B2 
 150      A53CFD
 151 00be 7FFBBCEF 		.ascii	"\177\373\274\357\352\023\022c\377X~;\217\2045\333R\246"
 151      EA131263 
 151      FF587E3B 
 151      8F8435DB 
 151      52A6
 152 00d0 42CBB37F 		.ascii	"B\313\263\177\315\336\351\2775Wk\212\016\035_\370n\233"
 152      CDDEE9BF 
ARM GAS  /tmp/ccDPDrPi.s 			page 12


 152      35576B8A 
 152      0E1D5FF8 
 152      6E9B
 153 00e2 CBB7F5A6 		.ascii	"\313\267\365\246\331\020RV\015\276\243Pc\375\356\032"
 153      D9105256 
 153      0DBEA350 
 153      63FDEE1A 
 154 00f2 2B12B2D1 		.ascii	"+\022\262\321\247\331\273\375b[_T\201\223\370\017\344"
 154      A7D9BBFD 
 154      625B5F54 
 154      8193F80F 
 154      E4
 155 0103 33C56E49 		.ascii	"3\305nI\371\361e\373K\003\373\222\010t\030\0129U\345"
 155      F9F165FB 
 155      4B03FB92 
 155      0874180A 
 155      3955E5
 156 0116 9DC6BB08 		.ascii	"\235\306\273\010\273(\344p\001\007!\306\3418G\022\344"
 156      BB28E470 
 156      010721C6 
 156      E1384712 
 156      E4
 157 0127 341D1C71 		.ascii	"4\035\034q\364\032-!\232\003n\215#\226,\353\370Q~\247"
 157      F41A2D21 
 157      9A036E8D 
 157      23962CEB 
 157      F8517EA7 
 158 013b EA2AD496 		.ascii	"\352*\324\226>\320\353\313\341\"\001&\020Y\013\210\206"
 158      3ED0EBCB 
 158      E1220126 
 158      10590B88 
 158      86
 159 014c 2558CF2A 		.ascii	"%X\317*\274\272\354g\224!X\020\026ec\217\341\021-q\277"
 159      BCBAEC67 
 159      94215810 
 159      1665638F 
 159      E1112D71 
 160 0161 D8B13CFA 		.ascii	"\330\261<\372\302\231\261\235\364Q\352_\371\264\335"
 160      C299B19D 
 160      F451EA5F 
 160      F9B4DD
 161 0170 7C6A371F 		.ascii	"|j7\037\006|\365\027\365'\201\300\010)\231\340\313r"
 161      067CF517 
 161      F52781C0 
 161      082999E0 
 161      CB72
 162 0182 E207FD70 		.ascii	"\342\007\375p\2242\214V\343\236\204\237\235\023~.\266"
 162      94328C56 
 162      E39E849F 
 162      9D137E2E 
 162      B6
 163 0193 53C39B66 		.ascii	"S\303\233f\314\3159\022L\221\352\026\021\333=\024\321"
 163      CCCD3912 
 163      4C91EA16 
 163      11DB3D14 
 163      D1
 164 01a4 7BFDBEDF 		.ascii	"{\375\276\337\013:Ri4\350\270\002\3267\263'H\215\271"
ARM GAS  /tmp/ccDPDrPi.s 			page 13


 164      0B3A5269 
 164      34E8B802 
 164      D637B327 
 164      488DB9
 165 01b7 8F70DB46 		.ascii	"\217p\333F\371\227\017{cI\256\007\263$\206\340\010]"
 165      F9970F7B 
 165      6349AE07 
 165      B32486E0 
 165      085D
 166 01c9 16B53685 		.ascii	"\026\2656\205\35050q\0036E\203w\3725\2475\363\350\236"
 166      E8353071 
 166      03364583 
 166      77FA35A7 
 166      35F3E89E 
 167 01dd 1425388F 		.ascii	"\024%8\217\332\306z\312\247\320y\004\002$\217\302\242"
 167      DAC67ACA 
 167      A7D07904 
 167      02248FC2 
 167      A2
 168 01ee 680A71DD 		.ascii	"h\012q\335\300=\034\242m\306\300\036w\252\275\324\212"
 168      C03D1CA2 
 168      6DC6C01E 
 168      77AABDD4 
 168      8A
 169 01ff A9348FCA 		.ascii	"\2514\217\312\225\306\221T\2402\217\376\003\\\203\233"
 169      95C69154 
 169      A0328FFE 
 169      035C839B 
 170 020f F639979F 		.ascii	"\3669\227\237G\247\376,+\356\212\362\342\214\355\345"
 170      47A7FE2C 
 170      2BEE8AF2 
 170      E28CEDE5 
 171 021f A7B8CF9F 		.ascii	"\247\270\317\237\217\320\352\032\324[\262\340C\203a"
 171      8FD0EA1A 
 171      D45BB2E0 
 171      438361
 172 022e FA0ADE65 		.ascii	"\372\012\336e\032\270\037\340\035\230\255\306!\277\310"
 172      1AB81FE0 
 172      1D98ADC6 
 172      21BFC8
 173 023d B52C17F0 		.ascii	"\265,\027\360\200\307\207\207\323g&\215\274q!\223\236"
 173      80C78787 
 173      D367268D 
 173      BC712193 
 173      9E
 174 024e 2AA72773 		.ascii	"*\247's\305\364\364Ti\246\234\316d\317\217\034s\375"
 174      C5F4F454 
 174      69A69CCE 
 174      64CF8F1C 
 174      73FD
 175 0260 D9914A25 		.ascii	"\331\221J%}\26523^,^\0317\312\245\341\002(\323\245?"
 175      7DB53233 
 175      5E2C5E19 
 175      37CAA5E1 
 175      0228D3A5 
 176 0275 F5D42D38 		.ascii	"\365\324-8"
 177              		.text
ARM GAS  /tmp/ccDPDrPi.s 			page 14


 178              		.section	.gnu.lto_Vector68.41543b5217bcee50,"",%progbits
 179 0000 789CB552 		.ascii	"x\234\265RMh\023Q\020\236y\273\371\267&V\020\352\251"
 179      4D681351 
 179      109E79BB 
 179      F9B72656 
 179      10EAA9
 180 0013 1404B198 		.ascii	"\024\004\261\230\200\005\241x\360 \010\036D!)T/%\211"
 180      8005A178 
 180      F020081E 
 180      44212954 
 180      2F2589
 181 0026 A55D88B4 		.ascii	"\245]\210\264$\005\003\036\362\362#\204\240\022D\017"
 181      2405031E 
 181      F2F22384 
 181      A012440F 
 182 0036 FE1C5A04 		.ascii	"\376\034Z\004+1 \010B\301\203\213 \324J\251\261\027"
 182      2B312008 
 182      42C1838B 
 182      20D44AA9 
 182      B117
 183 0048 E9C5143C 		.ascii	"\351\305\024<z\310Q\304\272\316\354_C\213\270\027\007"
 183      7AC851C4 
 183      BACEEC5F 
 183      438BB817 
 183      07
 184 0059 76DEECCC 		.ascii	"v\336\354\314|3\337\2747\002\004\354\225\343\364\035"
 184      7C33DFBC 
 184      370204EC 
 184      95E3F41D 
 185 0069 F1019CE1 		.ascii	"\361\001\234\341\037\037 e\240\020\012\200\024*)UA:"
 185      1F1F2065 
 185      A0100A80 
 185      142A2955 
 185      413A
 186 007b 5045A430 		.ascii	"PE\2440BI(*\226\256\360\017\204G`I\312{\335\367\313"
 186      4249282A 
 186      96AEF00F 
 186      84476049 
 186      CA7BDDF7 
 187 0090 DBF8F0BE 		.ascii	"\333\370\360\276^[\224\277\014\003Q\343`\026a\222,\034"
 187      5E5B94BF 
 187      0C0351E3 
 187      60166192 
 187      2C1C
 188 00a2 360FAED4 		.ascii	"6\017\256\324/\026P\276z.C&H\321P\361\210\371\372\355"
 188      2F1650BE 
 188      7A2E4326 
 188      48D150F1 
 188      88F9FAED 
 189 00b6 F2AAACE9 		.ascii	"\362\252\254\351\206q\366\377\366\331\354\353\343\021"
 189      8671F6FF 
 189      F6D9ECEB 
 189      E311
 190 00c4 A3BF5DFB 		.ascii	"\243\277]\373\270\204\204-\367\014#\352\231\236\336"
 190      B884842D 
 190      F70C23EA 
 190      999EDE
ARM GAS  /tmp/ccDPDrPi.s 			page 15


 191 00d3 69DC196A 		.ascii	"i\334\031j,V\232\3627]\237\367n\237\327n\207\233\345"
 191      2C569AF2 
 191      375D9FF7 
 191      6E9FD76E 
 191      879BE5
 192 00e6 BA348C92 		.ascii	"\2724\214\222\306o\344i\254\235\276\261|\036\033\275"
 192      C66FE469 
 192      AC9DBEB1 
 192      7C1E1BBD 
 193 00f6 6EDC1D92 		.ascii	"n\334\035\222\273\374\374\002\306\361\037\310\227B\357"
 193      BBFCFC02 
 193      C6F11FC8 
 193      9742EF
 194 0105 1AC693CD 		.ascii	"\032\306\223\315\336v\033\007#\010t\031\202\224\242"
 194      DE761B07 
 194      23087419 
 194      8294A2
 195 0114 B0A5B2E5 		.ascii	"\260\245\262\345c\345\2074\266p\004\002\354\016\262"
 195      63E58734 
 195      B6700402 
 195      EC0EB2
 196 0123 27444A0D 		.ascii	"'DJ\015\203I\216\266\261&es\330\3121\311\222\244L=\301"
 196      83498EB6 
 196      B1266573 
 196      D8CA31C9 
 196      92A44C3D 
 197 0138 7BAAAC43 		.ascii	"{\252\254Ce\345\013m_\032\333\004\230Ad. \3535\311|"
 197      65E50B6D 
 197      5F1ADB04 
 197      9841642E 
 197      20EB35C9 
 198 014d D6E1DD55 		.ascii	"\326\341\335U'\"F\241%k\024\015<\206Gt\004\235dS2\350"
 198      272246A1 
 198      256B140D 
 198      3C864774 
 198      049D6453 
 199 0163 10E78ABD 		.ascii	"\020\347\212\275\210\203R\376ZO\335_O\351\257\207n\275"
 199      888352FE 
 199      5A4FDD5F 
 199      4FE9AF87 
 199      6EBD
 200 0175 EA9BEA33 		.ascii	"\352\233\3523\227\240\217\230\314\360c\231\376\243\216"
 200      97A08F98 
 200      CCF06399 
 200      FEA38E
 201 0184 DB4F1146 		.ascii	"\333O\021F+1\233\302\217\345q'\026\330\313\341C3`\305"
 201      2B319BC2 
 201      8FE57127 
 201      16D8CBE1 
 201      433360C5 
 202 0198 4C0A6519 		.ascii	"L\012e\031\355'\021\330?\024\225\267\373=}\340v\244"
 202      ED2711D8 
 202      3F1495B7 
 202      FB3D7DE0 
 202      76A4
 203 01aa 54BFDB71 		.ascii	"T\277\333q\025j\337\313\003nh\322Z\302]\231\340_\276"
 203      156ADFCB 
ARM GAS  /tmp/ccDPDrPi.s 			page 16


 203      036E68D2 
 203      5AC25D99 
 203      E05FBE
 204 01bd ECAD9556 		.ascii	"\354\255\225V\307\235%4\012'\350\261\250uY\312\230\206"
 204      C79D2534 
 204      0A27E8B1 
 204      A87559CA 
 204      9886
 205 01cf A19BF053 		.ascii	"\241\233\360S\326\331\012_7[s\235\260ME\270\367Q\331"
 205      D6D90A5F 
 205      375B739D 
 205      B04D45B8 
 205      F751D9
 206 01e2 FA14754A 		.ascii	"\372\024uJ\204y\004\002DNB[6\245\274\241\341\001v\221"
 206      84790402 
 206      444E425B 
 206      36A5BCA1 
 206      E1017691 
 207 01f6 99D470C0 		.ascii	"\231\324p\300\232\352 \265\342R\252]\312\242\306\236"
 207      9AEA20B5 
 207      E252AA5D 
 207      CAA2C69E 
 208 0206 A8BB7519 		.ascii	"\250\273u\031t\314\015\270\245_\260\352\363\350\324"
 208      74CC0DB8 
 208      A55FB0EA 
 208      F3E8D4
 209 0215 9F69052D 		.ascii	"\237i\005-R\266\237\2611\336\302C\316|\204V6\240\332"
 209      52B69FB1 
 209      31DEC243 
 209      CE7C8456 
 209      36A0DA
 210 0228 7D31ED40 		.ascii	"}1\355@\335a\006\263\366cjx\030\240\003\345n\373\230"
 210      DD6106B3 
 210      F6636A78 
 210      18A003E5 
 210      6EFB98
 211 023b 9364498A 		.ascii	"\223dI\212\023x\300\323\361x\342\334\254\226\321.%\023"
 211      1378C0D3 
 211      F178E2DC 
 211      AC96D12E 
 211      2513
 212 024d 7385C46C 		.ascii	"s\205\304l:\227\230\237\313/\024\022\311\324\305\261"
 212      3A97989F 
 212      CB2F1412 
 212      C9D4C5B1 
 213 025d 53963E3F 		.ascii	"S\226>?V,&\246\213\013S\271\334\265)\255\220\217gA\314"
 213      562C26A6 
 213      8B0B53B9 
 213      DCB529AD 
 213      908F6741 
 214 0272 E7FF0026 		.ascii	"\347\377\000&\250*\322"
 214      A82AD2
 215              		.text
 216              		.section	.gnu.lto_Vector9C.41543b5217bcee50,"",%progbits
 217 0000 789CBD97 		.ascii	"x\234\275\227]h\023A\020\307w\366\276\357\222&M?D\237"
 217      5D681341 
 217      10C777F6 
ARM GAS  /tmp/ccDPDrPi.s 			page 17


 217      BEEF9226 
 217      4D3F449F 
 218 0014 8AE08B62 		.ascii	"\212\340\213b\003\012\202\370\240 \010>\210B+\250/\322"
 218      030A82F8 
 218      A020083E 
 218      88422BA8 
 218      2FD2
 219 0026 56A90715 		.ascii	"V\251\007\025\245\025,\370\320M\033\241\370E\020\021"
 219      A5152CF8 
 219      D04D1BA1 
 219      F8451011 
 220 0036 BF407D11 		.ascii	"\277@}\021\021A\261b\013\012\006AP\212\250\370\240\210"
 220      1141B162 
 220      0B0A0641 
 220      508AA8F8 
 220      A088
 221 0048 600A820A 		.ascii	"`\012\202\012\202}\023D=g\356\262\227\303\364\310\321"
 221      827D1344 
 221      3D67EEB2 
 221      97C3F4C8 
 221      D1
 222 0059 6217BA7B 		.ascii	"b\027\272{3\2733\363\237\337m\022\312\031g\377\216a"
 222      33BB33F3 
 222      9FDF6D12 
 222      CA1967FF 
 222      8E61
 223 006b FCEB4D31 		.ascii	"\374\353M1\266\201\2144\003<\001\234+\214\011\256\342"
 223      B6818C34 
 223      033C019C 
 223      2B8C09AE 
 223      E2
 224 007c A42A800B 		.ascii	"\244*\200\013\250\\#\217N\036\015p\001\235\033\3441"
 224      A85C238F 
 224      4E1E0D70 
 224      019D1BE4 
 224      31
 225 008d C963002E 		.ascii	"\311c\000.`r\213<6y,\300\005l\356\220'E\036\007p\201"
 225      60728B3C 
 225      36792CC0 
 225      056CEE90 
 225      27451E07 
 226 00a3 14009601 		.ascii	"\024\000\226\0016\302\025U\323\015\323\262\235\024\214"
 226      36C21555 
 226      D30DD3B2 
 226      9D148C
 227 00b2 EC26276B 		.ascii	"\354&'k_\316\256\013q\266\362\364\336\014\\<W.^\023"
 227      5FCEAE0B 
 227      71B6F2F4 
 227      DE0C5C3C 
 227      572E5E13 
 228 00c6 BF3C0FC0 		.ascii	"\277<\017\300\245\315>`\273\360\011:\374\205\224EG\020"
 228      A5CD3E60 
 228      BBF0093A 
 228      FC859445 
 228      4710
 229 00d8 28EEDD14 		.ascii	"(\356\335\024\226\037\244\270\240$\214\371\370i\307"
 229      961FA4B8 
ARM GAS  /tmp/ccDPDrPi.s 			page 18


 229      A0248CF9 
 229      F869C7
 230 00e7 33512C7B 		.ascii	"3Q,{\336\306\377[\347M\244N\302\230\362\305\351\351"
 230      DEC6FF5B 
 230      E74DA44E 
 230      C298F2C5 
 230      E9E9
 231 00f9 EB80B185 		.ascii	"\353\200\261\205Y\317\313$\226W\276|\362\364\322\023"
 231      59CFCB24 
 231      9657BE7C 
 231      F2F4D213 
 232 0109 D7464BE2 		.ascii	"\327FK\342\017\342K^\355\312\364)\273T\030\027\2367"
 232      0FE24B5E 
 232      EDCAF429 
 232      BB541817 
 232      9E37
 233 011b E2D23B4F 		.ascii	"\342\322;O\324\326\357H[Z\302BW\347\247\357\356b\351"
 233      D4D6EF48 
 233      5B5AC242 
 233      57E7A7EF 
 233      EE62E9
 234 012e 9B989FBE 		.ascii	"\233\230\237\276\373\213\245or~\372\246\026K\337\303"
 234      FB8BA56F 
 234      727EFAA6 
 234      164BDFC3 
 235 013e F9E97BB4 		.ascii	"\371\351{\264X\372~\2378\263T\324\364\351\234\255\207"
 235      58FA7E9F 
 235      38B354D4 
 235      F4E99CAD 
 235      87
 236 014f 06917778 		.ascii	"\006\221wx\271\342y\037\336\316\316|\205\334\022`\370"
 236      B9E2791F 
 236      DECECE7C 
 236      85DC1260 
 236      F8
 237 0160 61E43829 		.ascii	"a\3448)\012=\251\364\244\321\244\263\036x\000\313\231"
 237      0A3DA9F4 
 237      A4D1A4B3 
 237      1E7800CB 
 237      99
 238 0171 416E933C 		.ascii	"An\223<\026N\252\215\223\346\220\231\"3Mf\023\231\031"
 238      164EAA8D 
 238      93E69099 
 238      22334D66 
 238      139919
 239 0184 32B36436 		.ascii	"2\263d6\223\231#\263\205\314V2\333\310lg~cLcE!J\035"
 239      939923B3 
 239      85CC5632 
 239      DBC86C67 
 239      7E634C63 
 240 019c 417EBF51 		.ascii	"A~\277Q\034\335\376\274\223\276\263\225\027lt\352\035"
 240      1CDDFEBC 
 240      93BEB395 
 240      176C74EA 
 240      1D
 241 01ad 7E73F6C0 		.ascii	"~s\366\300\024\006\364\003P\037L\214\027\005\365\362"
 241      1406F403 
ARM GAS  /tmp/ccDPDrPi.s 			page 19


 241      501F4C8C 
 241      1705F5F2 
 242 01bd 823DD923 		.ascii	"\202=\331#w\370*vK\024q\327\270\314.\341b\312\303\376"
 242      77F82A76 
 242      4B1471D7 
 242      B8CC2EE1 
 242      62CAC3FE 
 243 01d1 E805D934 		.ascii	"\350\005\3314e\234ud\224\022\233O\255\317\247D\363A"
 243      659C7564 
 243      94129B4F 
 243      ADCFA744 
 243      F341
 244 01e3 986FECE1 		.ascii	"\230o\354\341\330\215P\240\206J\372\351E\373\376e\322"
 244      D88D50A0 
 244      864AFAE9 
 244      45FBFE65 
 244      D2
 245 01f4 ADE30E45 		.ascii	"\255\343\016E+\025\243\252\341\302\304z\271i\374+\342"
 245      2B15A3AA 
 245      E1C2C47A 
 245      B969FC2B 
 245      E2
 246 0205 79C908F6 		.ascii	"y\311\010\366|\015\005\221\211\2520\352\273\352\247"
 246      7C0D0591 
 246      89AA30EA 
 246      BBEAA7
 247 0214 DF2EBFE0 		.ascii	"\337.\277\340\344\371\260$\036\325\375\222\035x\342"
 247      E4F9B024 
 247      1ED5FD92 
 247      1D78E2
 248 0223 192B7E2B 		.ascii	"\031+~+\244\303\255]\301\015\256\215\235d\022\355\367"
 248      A4C3AD5D 
 248      C10DAE8D 
 248      9D6412ED 
 248      F7
 249 0234 EF265E87 		.ascii	"\357&^\207\315X\253\330J|[X\272 D\326\005\353\030\373"
 249      CD58ABD8 
 249      4A7C5B58 
 249      BA2044D6 
 249      05EB18FB 
 250 0248 29C6E9C9 		.ascii	")\306\351\311>\350\227\246<vU\012\017\201\214\276\177"
 250      3EE897A6 
 250      3C76550A 
 250      0F818CBE 
 250      7F
 251 0259 9591296C 		.ascii	"\225\221)lj\001\003\234\325\354\266(\011q\324\205\024"
 251      6A01039C 
 251      D5ECB628 
 251      0971D485 
 251      14
 252 026a B9F0B1CB 		.ascii	"\271\360\261\313\205t\320U\023\226\242Tj5U \215<\031"
 252      8574D055 
 252      1396A254 
 252      6A355520 
 252      8D3C19
 253 027d 4D2AEC05 		.ascii	"M*\354\005y{_\262\343\345\255A~j\035\353\223,3\020U"
 253      797B5FB2 
ARM GAS  /tmp/ccDPDrPi.s 			page 20


 253      E3E5AD41 
 253      7E6A1DEB 
 253      932C3310 
 254 0292 F5536C96 		.ascii	"\365Sl\226no\263\354O\365\373CD\217k\210\034\211hS\035"
 254      6E6FB3EC 
 254      4FF5FB43 
 254      448F6B88 
 254      1C896853 
 255 02a7 22670E44 		.ascii	"\"g\016DZ\025\321\205\0075D\251\205#J'D\224\212A\244"
 255      5A15D185 
 255      073544A9 
 255      85234A27 
 255      44948A41 
 256 02bc 3744948E 		.ascii	"7D\224\216E\244G\021\351\022\321\347\032\242&\211H@"
 256      45A44711 
 256      E912D1E7 
 256      1AA22689 
 256      4840
 257 02ce 1DA3A639 		.ascii	"\035\243\2469\030\031\362\032E\030e\026\316(\233\220"
 257      1819F21A 
 257      45186516 
 257      CE289B90 
 258 02de 51268691 		.ascii	"Q&\206\221\321\220Q6\226\221\021edJF\337k\214\232CF"
 258      D1905136 
 258      96911165 
 258      644A46DF 
 258      6B8C9A43 
 259 02f3 BC8E51F3 		.ascii	"\274\216Q\363\034\214,y\217&k\214r\013g\324\222\220"
 259      1C8C2C79 
 259      8F266B8C 
 259      720B67D4 
 259      9290
 260 0305 512E8691 		.ascii	"Q.\206\221\331\220QK,#3\312\310\226\214~\324\030\265"
 260      D990514B 
 260      2C2333CA 
 260      C8968C7E 
 260      D418B5
 261 0318 868CD43A 		.ascii	"\206\214\324:F\255s0r\344=\2120j[8\243\366\204\214\332"
 261      46AD7330 
 261      72E43D8A 
 261      306A5B38 
 261      A3F6848C 
 262 032d 6218590D 		.ascii	"b\030Y\015\031\265\3072\262\242\214\360\337\006\345"
 262      19B5C732 
 262      B2A28CF0 
 262      DF06E5
 263 033c 251BAB7C 		.ascii	"%\033\253|\331/C\303fr}\325\037\027\227\200\277f\205"
 263      D92F43C3 
 263      66727DD5 
 263      1F179780 
 263      BF6685
 264 034f CAD715F2 		.ascii	"\312\327\025\362P0\272\351\0005\270\256\2633\277\371"
 264      5030BAE9 
 264      0035B8AE 
 264      B333BFF9 
 265 035f 80DBEB6E 		.ascii	"\200\333\353n\357\312\037\032\312\037\350\031\310\037"
 265      EFCA1F1A 
ARM GAS  /tmp/ccDPDrPi.s 			page 21


 265      CA1FE819 
 265      C81F
 266 036d 3E347864 		.ascii	">4xd(\337\325\275m\355\232`\336\262vx8\277\177\370\310"
 266      28DFD5BD 
 266      6DED9A60 
 266      DEB27678 
 266      38BF7FF8 
 267 0382 DE81817D 		.ascii	"\336\201\201}{\335\241\301\316>\306\017\017\376\005"
 267      7BDDA1C1 
 267      CE3EC60F 
 267      0FFE05
 268 0391 0865B124 		.ascii	"\010e\261$"
 269              		.text
 270              		.section	.gnu.lto_VectorE0.41543b5217bcee50,"",%progbits
 271 0000 789CBD95 		.ascii	"x\234\275\225M\210\024G\024\307\353UwO\317\364\347\354"
 271      4D881447 
 271      14C7EB55 
 271      774FCFF4 
 271      E7EC
 272 0012 F78EA7C5 		.ascii	"\367\216\247\305K \222\035\210\02009$\020\360\020\010"
 272      4B20921D 
 272      88103039 
 272      2410F010 
 272      08
 273 0023 09EC0A9A 		.ascii	"\011\354\012\232\213\354\256am\330\240\354\012Y\310"
 273      8BECAE61 
 273      6DD8A0EC 
 273      0A59C8
 274 0032 616B7627 		.ascii	"akv'\260\030#Cb\002\232/\275\204%\021D%\262\272\007"
 274      B0182343 
 274      62029A2F 
 274      BD842511 
 274      4425B2BA 
 275 0047 074F4A50 		.ascii	"\007OJP\021o^\\5\037\007=,\344\220%\204t\336\353\236"
 275      116F5E5C 
 275      351F073D 
 275      2CE49025 
 275      8474DEEB 
 276 005c EA6E9C69 		.ascii	"\352n\234i\246\231\301)\230\252~\257\352\275\367\177"
 276      A699C129 
 276      98AA7EAF 
 276      EABDF77F 
 277 006c BF2EA639 		.ascii	"\277.\2469\343\354\371q\002\177\257;\214\275A\206\313"
 277      E3ECF971 
 277      027FAF3B 
 277      8CBD4186 
 277      CB
 278 007d 004F00E7 		.ascii	"\000O\000\347\012c\202\2538\251\012\340\002*\327\310"
 278      0A6382AB 
 278      38A90AE0 
 278      022AD7C8 
 279 008d 93238F06 		.ascii	"\223#\217\006\270@\216\353\344\311\223G\007\\ \317\013"
 279      B8408EEB 
 279      E4C99347 
 279      075C20CF 
 279      0B
 280 009e E431C853 		.ascii	"\3441\310S\000\\\300\340&y,\362\230\200\013X\334&\217"
ARM GAS  /tmp/ccDPDrPi.s 			page 22


 280      005CC0E0 
 280      26792CF2 
 280      98800B58 
 280      DC268F
 281 00b1 431E1B70 		.ascii	"C\036\033p\001\007\000\013\003[\342\212\252\345\364"
 281      0107000B 
 281      035BE28A 
 281      AAE5F4
 282 00c0 7CC1302D 		.ascii	"|\3010-\333\201\245\003\344f\245\235\354\234\020_l\376"
 282      DB81A503 
 282      E466A59D 
 282      EC9C105F 
 282      6CFE
 283 00d2 7EFD119C 		.ascii	"~\375\021\234>U\257\236\025\377\372>\200G\2333\300\366"
 283      3E55AF9E 
 283      15FFFA3E 
 283      80479B33 
 283      C0F6
 284 00e4 E3138C05 		.ascii	"\343\023\214\005\013\251M\2160P\\Z\023\205 H\361@\311"
 284      0BA94D8E 
 284      30505C5A 
 284      13852048 
 284      F140C9
 285 00f7 18F3F0B7 		.ascii	"\030\363\360\267\367o\212j\335\367\337|\261u\356'\352"
 285      F76F8A6A 
 285      DDF7DF7C 
 285      B175EE27 
 285      EA
 286 0108 648CA97F 		.ascii	"d\214\251\177y\347\327s\200\261\225-\337w3\313\253\177"
 286      79E7D773 
 286      80B1952D 
 286      DF7733CB 
 286      AB7F
 287 011a 75F2F3D2 		.ascii	"u\362\363\322\361\263\3135\361\037\342\313^\355\353"
 287      F1B3CB35 
 287      F11FE2CB 
 287      5EEDEB
 288 0129 3B278C5A 		.ascii	";'\214ZeU\370\376\222G\367 S[~\242--c\241\323\235\351"
 288      6555F8FE 
 288      9247F720 
 288      535B7EA2 
 288      2D2D63A1 
 289 0140 3BD32B7D 		.ascii	";\323+}\337u\246\357\373^\351\273\330\231\276K\275\322"
 289      DF75A6EF 
 289      FB5EE9BB 
 289      D899BE4B 
 289      BDD2
 290 0152 F74B67FA 		.ascii	"\367Kg\372\256\364J\337\325\316\364]\353\225\276\277"
 290      AEF44ADF 
 290      D5CEF45D 
 290      EB95BEBF 
 291 0162 3F3B5912 		.ascii	"?;Y\022\261\276\034g{\240M\344\005^\337\364\375\363"
 291      B1BE1C67 
 291      7BA04DE4 
 291      055EDFF4 
 291      FDF3
 292 0174 0FB71EAD 		.ascii	"\017\267\036\255\301\300\016`\370g\301qR\024zR\351I"
ARM GAS  /tmp/ccDPDrPi.s 			page 23


 292      C1C00E60 
 292      F867C171 
 292      52147A52 
 292      E949
 293 0186 A329C7A6 		.ascii	"\243)\307\246\340*\354d:\271\363\344)\340\244\0328i"
 293      E02AEC64 
 293      3AB9F3E4 
 293      29E0A41A 
 293      3869
 294 0198 26991699 		.ascii	"&\231\026\2316\231\016\231.\231E2\373\310\354's\200"
 294      36990E99 
 294      2E994532 
 294      FBC8EC27 
 294      7380
 295 01aa CC413287 		.ascii	"\314A2\207\310\034&s\204\314Q2K,\350\223i\254*Dm,,\027"
 295      C81C2673 
 295      84CC5132 
 295      4B2CE893 
 295      69AC2A44 
 296 01c2 F48D6332 		.ascii	"\364\215c2\230\367\321gG\271\315\226\327\267\361\217"
 296      98F7D167 
 296      47B9CD96 
 296      D7B7F18F 
 297 01d2 7E0A3630 		.ascii	"~\01260`\026\200\332bb\265*\250\265\333\354\306\007"
 297      601680DA 
 297      6262B52A 
 297      A8B5DBEC 
 297      C607
 298 01e4 7287EF62 		.ascii	"r\207\357b?\211*\356\352\337\2603\270\344\345\341`L"
 298      3F892AEE 
 298      EADFB033 
 298      B8E4E5E1 
 298      604C
 299 01f6 83644019 		.ascii	"\203d@\031\267L\031\245\244\346S\233\363)\311|\020\345"
 299      B74C19A5 
 299      A4E6539B 
 299      F329C97C 
 299      10E5
 300 0208 5BD958F9 		.ascii	"[\331X\3711\022\250\241\222Yz\357\201\177\207t\347p"
 300      3112A8A1 
 300      92597AEF 
 300      817F8774 
 300      E770
 301 021a 87A215B1 		.ascii	"\207\242\025\261\2554D\254?\336#w\365\347U\334\252\351"
 301      AD3444AC 
 301      3FDE2377 
 301      F5E755DC 
 301      AAE9
 302 022c E15E20A2 		.ascii	"\341^ \242\"\334\244\014\275\271\255Y\372\376\006\025"
 302      22DCA40C 
 302      BDB9AD59 
 302      FAFE0615 
 303 023c 7FFE36AA 		.ascii	"\177\3766\252\211GsaM\374\024\263\233\254\372\254bG"
 303      89477361 
 303      4DFC14B3 
 303      9BACFAAC 
 303      6247
ARM GAS  /tmp/ccDPDrPi.s 			page 24


 304 024e 7BFBC32B 		.ascii	"{\373\303+\035\217}d\022\357\007\333\217\357E\355\024"
 304      1D8F7D64 
 304      12EF07DB 
 304      8FEF45ED 
 304      14
 305 025f 76B197F1 		.ascii	"v\261\227\361}a\355\212\020E\017\012\237\260\177\304"
 305      7D61ED8A 
 305      10450F0A 
 305      9FB07FC4 
 306 026f 2A3D191F 		.ascii	"*=\031\037\005\265)\217\321\320\302#$\313\017\266\\"
 306      05B5298F 
 306      D1D0C223 
 306      24CB0FB6 
 306      5C
 307 0280 99C2A01E 		.ascii	"\231\302\240\0360\300|\205\235\0275!>\366\300\"\027"
 307      30C07C85 
 307      9D173521 
 307      3EF6C022 
 307      17
 308 0291 3E4E7860 		.ascii	">Nx`\207m9X\212R\251\215T\2414\362\270\206T8\015\362"
 308      876D3958 
 308      8A52A98D 
 308      54A134F2 
 308      B8865438 
 309 02a7 3ADF659F 		.ascii	":\337e\237\326\337\011\363S\357x\202d\345CQ\015?\305"
 309      D6DF09F3 
 309      53EF7882 
 309      64E54351 
 309      0D3FC5
 310 02ba 16E9CAF6 		.ascii	"\026\351\312\366\311\376\324\240?dt9fdF\214\212M\214"
 310      C9FED4A0 
 310      3F647439 
 310      6664468C 
 310      8A4D8C
 311 02cd CC168CB4 		.ascii	"\314\026\214\264\006\243\365'1#\253{FvFFV\012#\263-"
 311      06A3F527 
 311      3123AB7B 
 311      46764646 
 311      560A23B3 
 312 02e2 233B9591 		.ascii	"#;\225\221\231d\224\223\2146bFN\304h\254\211\221\323"
 312      99649493 
 312      8C366246 
 312      4EC468AC 
 312      8991D3
 313 02f5 82912EEF 		.ascii	"\202\221.\357Q\202\221\333=\243bFFn\012#\253-\243b*"
 313      518291DB 
 313      3DA36246 
 313      466E0A23 
 313      AB2DA362 
 314 030a 232BC928 		.ascii	"#+\311(/\031=\211\031\365E\214\336jb\324\327\202QA\336"
 314      2F193D89 
 314      19F5458C 
 314      DE6A62D4 
 314      D7825141 
 315 031f A33F6246 		.ascii	"\243?bF\375\3353\032\310\310\250?\205\221\335\226\321"
 315      FDDD331A 
 315      C8C8A83F 
ARM GAS  /tmp/ccDPDrPi.s 			page 25


 315      8591DD96 
 315      D1
 316 0330 402A233B 		.ascii	"@*#;\311\310\220\214\236\306\214\006#F\002\232 \015"
 316      C9C8908C 
 316      9EC68C06 
 316      2346029A 
 316      200D
 317 0342 B68064CA 		.ascii	"\266\200d\312\213\224\2004\324=\244\341\214\220\206"
 317      8B948034 
 317      D43DA4E1 
 317      8C9086
 318 0351 5220396D 		.ascii	"R 9m!\015\247Br\222\220,\011\351\257\030\322H\014\211"
 318      210DA742 
 318      7292902C 
 318      09E9AF18 
 318      D2480C89 
 319 0365 37411A69 		.ascii	"7A\032i\001\311\2267\351\317\030\322h\367\220J\031!"
 319      01C99637 
 319      E9CF18D2 
 319      68F7904A 
 319      1921
 320 0377 8DA64072 		.ascii	"\215\246@r\333B*\245Br\223\220\220\266r\227\255l\376"
 320      DB422AA5 
 320      42729390 
 320      90B67297 
 320      AD6CFE
 321 038a 302B43A3 		.ascii	"0+C\243f\372g\032_a\217\256\345=V\331\\{I\036\012\307"
 321      66FA671A 
 321      5F618FAE 
 321      E53D56D9 
 321      5C7B491E 
 322 03a0 241DA006 		.ascii	"$\035\240\006_\033\037/\277}\330\233\366\336\233(\037"
 322      5F1B1F2F 
 322      BF7DD89B 
 322      F6DE9B28 
 322      1F
 323 03b1 59281F9E 		.ascii	"Y(\037\236\232+\037=2\177l\241<1\371\356\356W\303y\357"
 323      9A2B1F3D 
 323      327F6CA1 
 323      3C31F9EE 
 323      EE57C379 
 324 03c6 EEC5C5F2 		.ascii	"\356\305\305\362\207\213\307\016\316\315\035:\350-\314"
 324      878BC70E 
 324      CECD1D3A 
 324      E82DCC
 325 03d5 8FCF307E 		.ascii	"\217\3170~t\376\177\311\273\027\274"
 325      74FE7FC9 
 325      BB17BC
 326              		.text
 327              		.section	.gnu.lto_Vector44.41543b5217bcee50,"",%progbits
 328 0000 789CB552 		.ascii	"x\234\265RMh\023Q\020\236\331\267\371\267&\332S{*\275"
 328      4D681351 
 328      109ED9B7 
 328      F9B726DA 
 328      537B2ABD 
 329 0014 2816B360 		.ascii	"(\026\263`A(\036<\010\036\004QH\012\325KI\242\244\013"
 329      41281E3C 
ARM GAS  /tmp/ccDPDrPi.s 			page 26


 329      081E0451 
 329      480AD54B 
 329      49A2A40B 
 330 0028 9196A660 		.ascii	"\221\226\246`\300C\336&+\004\321\032\213\027\177\220"
 330      C043DE26 
 330      2B04D11A 
 330      8B177F90 
 331 0038 1641A414 		.ascii	"\026A\244\024\004O\001/A\020*m\015\305\213\364b\012"
 331      044F012F 
 331      41102A6D 
 331      0DC58BF4 
 331      620A
 332 004a 1E850641 		.ascii	"\036\205\006A\024\221\2563\273\331mh\021\367\342\300"
 332      1491AE33 
 332      BBD96D68 
 332      11F7E2C0 
 333 005a CE7B3B33 		.ascii	"\316{;3\337|\337\274\367\024P`\277\035\247o0\000p\206"
 333      DF7CDFBC 
 333      F7145060 
 333      BF1DA76F 
 333      30007086 
 334 006e 7F028054 		.ascii	"\177\002\200T\201\212\"\000\244\242\222S\005\322\202"
 334      818A2200 
 334      A4A29253 
 334      05D282
 335 007d 2A22A511 		.ascii	"*\"\245\021\312\212P\261|\205\177 :\014KR.\264\337\355"
 335      CA8A50B1 
 335      7C857F20 
 335      3A0C4B52 
 335      2EB4DFED 
 336 0091 6CE3A387 		.ascii	"l\343\243\207MsQ\376\266,D\235\2239\204\011\332\341"
 336      4D7351FE 
 336      B62C449D 
 336      93398409 
 336      DAE1
 337 00a3 90BD70A7 		.ascii	"\220\275p\247^s\200\362\365K\031\261ABG\341\023\363"
 337      5E7380F2 
 337      F54B19B1 
 337      414247E1 
 337      13F3
 338 00b5 F9CBE555 		.ascii	"\371\313\345Ui6-\353\354\377\345\371\330\303\343\023"
 338      69362DEB 
 338      ECFFE5F9 
 338      D8C3E313 
 339 00c5 D3B43EAC 		.ascii	"\323\264>\254-!a\215\216e\305}\313k>\270\177o\340\316"
 339      2D21618D 
 339      8E65C57D 
 339      CB6B3EB8 
 339      7F6FE0CE 
 340 00d9 62A52E77 		.ascii	"b\245.w\351\370\374\263-\264\356F\353FMZVY\347;\362"
 340      E9F8FCB3 
 340      2DB4EE46 
 340      EB464D5A 
 340      5659E73B 
 341 00ee 3596D533 		.ascii	"5\226\3253V\300'\321\367\371\371\001\271\247/\250\300"
 341      56C027D1 
 341      F7F9F901 
ARM GAS  /tmp/ccDPDrPi.s 			page 27


 341      B9A72FA8 
 341      C0
 342 00ff 18FE03F9 		.ascii	"\030\376\003\371Ji\266-\353\351\217\316\366:\366\307"
 342      4A69B62D 
 342      EBE98FCE 
 342      F63AF6C7 
 343 010f 10E83014 		.ascii	"\020\3500\024rB\360N\345]\200]\0202\270\214\303\020"
 343      7242F04E 
 343      E55D805D 
 343      1032B88C 
 343      C310
 344 0121 E2709823 		.ascii	"\342p\230#\021rj\024lq\364\032M)\353CN\215-\226,m\373"
 344      11726A14 
 344      6C71F41A 
 344      4D29EB43 
 344      4E8D2D96 
 345 0138 717EA762 		.ascii	"q~\247b\003*\215O\364\3722\270B\200<\"k\001Y3%\353\331"
 345      032A8D4F 
 345      F4FA32B8 
 345      42803C22 
 345      6B015933 
 346 014f 80B757DD 		.ascii	"\200\267W\335\2142\002\313\322\244l\350\011<\246%\354"
 346      8C3202CB 
 346      D2A46CE8 
 346      093CA625 
 346      EC
 347 0160 16DB9645 		.ascii	"\026\333\226EW8w\354\304\\\224\370k?\365`?\321\333\017"
 347      573877EC 
 347      C45C94F8 
 347      6B3FF560 
 347      3FD1DB0F 
 348 0174 BD7ED537 		.ascii	"\275~\3257\325\027\236\300\000)\311\363e\331\361A7\034"
 348      D5179EC0 
 348      0029C9F3 
 348      65D9F141 
 348      371C
 349 0186 A40CA385 		.ascii	"\244\014\243\205\354\022U\032?w\306\334lh\277\212\367"
 349      EC12551A 
 349      3F77C6DC 
 349      6C68BF8A 
 349      F7
 350 0197 F59093B3 		.ascii	"\365\220\223\263E\0302\336+#tp,\"\3502>\177\346qRi\260"
 350      451832DE 
 350      2B237470 
 350      2C22E832 
 350      3E7FE671 
 351 01ae 877315CC 		.ascii	"\207s\025\314\257F\237\227\234p\036\342\236\215\363"
 351      AF469F97 
 351      9C701EE2 
 351      9E8DF3
 352 01bd 2F1FF856 		.ascii	"/\037\370V\343\333\2467Od\004N\320\205\021\271!eB\307"
 352      E3DBA637 
 352      4F64044E 
 352      D08511B9 
 352      216542C7 
 353 01d1 C82DF825 		.ascii	"\310-\370%k\274\213\336\260\311\271O\264+F\361\316\244"
 353      6BBC8BDE 
ARM GAS  /tmp/ccDPDrPi.s 			page 28


 353      B0C9B94F 
 353      B42B46F1 
 353      CEA4
 354 01e3 B2D589BB 		.ascii	"\262\325\211\273-\242<\004\001b'aE\326\245\274\251\343"
 354      2DA23C04 
 354      01622761 
 354      45D6A5BC 
 354      A9E3
 355 01f5 210ED136 		.ascii	"!\016\3216\245c\2373\327a\242\342Vj\267\225#\215#\361"
 355      A5639F33 
 355      D761A2E2 
 355      566AB795 
 355      238D23F1 
 356 0209 84AB308B 		.ascii	"\204\2530\213\356#l\301\355\346\005\247?\017O\374,+"
 356      EE236CC1 
 356      EDE605A7 
 356      3F0F4FFC 
 356      2C2B
 357 021b EC88EAC6 		.ascii	"\354\210\352\306\031\233H\320C;\342\316Gh\321\202j{"
 357      199B48D0 
 357      433BE2CE 
 357      4768D182 
 357      6A7B
 358 022d 2DEF42BD 		.ascii	"-\357B\275a\216\346\272\027\252c?\300&\030\355\365c"
 358      618EE6BA 
 358      17AA633F 
 358      C02618ED 
 358      F563
 359 023f 6E916369 		.ascii	"n\221ci.\340\001O'\223\332\271)=\253_Ji\323Em*S\320"
 359      2EE0014F 
 359      2793DAB9 
 359      293DAB5F 
 359      4A69D345 
 360 0257 66A667E7 		.ascii	"f\246g\347\212Z*}q\364\224\343\317\217\226J\332\365"
 360      8A5A2A7D 
 360      71F494E3 
 360      CF8F964A 
 360      DAF5
 361 0269 D2DC64A1 		.ascii	"\322\334d\241pmR/\316&s\240\314\314\376\001s\221.\275"
 361      706D522F 
 361      CE2673A0 
 361      CCCCFE01 
 361      73912EBD 
 362              		.text
 363              		.section	.gnu.lto_VectorE4.41543b5217bcee50,"",%progbits
 364 0000 789CB552 		.ascii	"x\234\265RMh\023Q\020\236\331\335\374[\323\330S{*\275"
 364      4D681351 
 364      109ED9DD 
 364      FC5BD3D8 
 364      537B2ABD 
 365 0014 281613B0 		.ascii	"(\026\023\260 \024\017\036\004\017\202($\205\352\245"
 365      20140F1E 
 365      040F8228 
 365      2485EAA5 
 366 0024 2451D285 		.ascii	"$Q\322\205HKR0\340!/\311\012A\324\006\361\242\036l/"
 366      484B5230 
 366      E0212FC9 
ARM GAS  /tmp/ccDPDrPi.s 			page 29


 366      0A41D406 
 366      F1A21E6C 
 367 0039 22A520E8 		.ascii	"\"\245 \350\245 \302\"\010\025)\241xP\203`\012\036\005"
 367      A520C222 
 367      081529A1 
 367      78508360 
 367      0A1E05
 368 004c 730CA9B8 		.ascii	"s\014\251\270\235\331\277.-\342^\034\330yog\346\233"
 368      9DD9BF2E 
 368      2DE25E1C 
 368      D8796F67 
 368      E69B
 369 005e EF9BF79E 		.ascii	"\357\233\367\236\004\022\034\264\023\364\215\005\000"
 369      04121CB4 
 369      13F48D05 
 369      00
 370 006b CEF24F00 		.ascii	"\316\362O\000\220*P\222d\000!)\344\024\031iA\005\221"
 370      902A5092 
 370      64002129 
 370      E4141969 
 370      410591
 371 007e D2085549 		.ascii	"\322\010UIV\260z\225\177 :\001\253B<\354\276\037\354"
 371      56B07A95 
 371      7F203A01 
 371      AB423CEC 
 371      BE1FEC
 372 0091 E0E347BA 		.ascii	"\340\343G\272\266\"~\033\006\242\312\311<\302,\355p"
 372      B6227E1B 
 372      06A2CAC9 
 372      3CC22CED 
 372      70
 373 00a2 DC5CB893 		.ascii	"\334\\\270\223\327,\240x\365BDL\220\254\242\354\023"
 373      D72CA078 
 373      F542444C 
 373      90ACA2EC 
 373      13
 374 00b3 F3FDC795 		.ascii	"\363\375\307\225M\241\351\206q\356\377\362|\362\360"
 374      4DA1E986 
 374      71EEFFF2 
 374      7CF2F0
 375 00c2 F8C4E89F 		.ascii	"\370\304\350\237\333\037W\221\260\265\236a\304}\313"
 375      DB1F5791 
 375      B0B59E61 
 375      C47DCB
 376 00d1 D3BF2EDF 		.ascii	"\323\277.\337\037\275\273Ro\211?t|\376\331:\355{\321"
 376      1FBDBB52 
 376      6F893F74 
 376      7CFED93A 
 376      ED7BD1
 377 00e4 56AD290C 		.ascii	"V\255)\014\243\252\362\035\371\032\313\360\214\025\360"
 377      A3AAF21D 
 377      F91ACBF0 
 377      8C15F0
 378 00f3 49F476F9 		.ascii	"I\364v\371\301\250\330\327\027\224`\032\377\201|)\351"
 378      C1A8D8D7 
 378      1794601A 
 378      FF817C29 
ARM GAS  /tmp/ccDPDrPi.s 			page 30


 378      E9
 379 0104 5DC3F8B6 		.ascii	"]\303\370\266\333\333\351\343H\014\201\016C\"'\313\274"
 379      DBDBE9E3 
 379      480C810E 
 379      432227CB 
 379      BC
 380 0115 53781760 		.ascii	"Sx\027`\027\204,\256\341\004\2048\034\346H\204\234\022"
 380      17842CAE 
 380      E1048438 
 380      1CE64884 
 380      9C12
 381 0127 05531CBD 		.ascii	"\005S\034\275FM\210\326\270Uc\212%\313\230~\206\337"
 381      464D88D6 
 381      B855638A 
 381      25CB987E 
 381      86DF
 382 0139 A9BC05F5 		.ascii	"\251\274\005\365\215/\364\372\262\270N\200\002\"k\001"
 382      8D2FF4FA 
 382      B2B84E80 
 382      02226B01 
 383 0149 D1D404EB 		.ascii	"\321\324\004\353\331\202w\327\234\2144\011kB\243l\350"
 383      D98277D7 
 383      9C8C3409 
 383      6B42A36C 
 383      E8
 384 015a 293CA125 		.ascii	")<\241%\354\024\233\226CG8w\354\305\034\224\374\327"
 384      EC149B96 
 384      43473877 
 384      ECC51C94 
 384      FCD7
 385 016c 7ECAE17E 		.ascii	"~\312\341~\262\267\037\272\375\032o\032\317]\201\001"
 385      B2B71FBA 
 385      FD1A6F1A 
 385      CF5D8101 
 386 017c 5252E0CB 		.ascii	"RR\340\3132\343cN8H\031F\313B\204m\021\375\301\264\223"
 386      32E3634E 
 386      38481946 
 386      CB42846D 
 386      11FDC1B4 
 387 0191 0D1D54F1 		.ascii	"\015\035T\361\241\025\262r\246\210\232\210{e\204\016"
 387      A115B272 
 387      A6889A88 
 387      7B65840E 
 388 01a1 8F450436 		.ascii	"\217E\0046\343\353g.'\225\006=\234\233\240\375\254\015"
 388      E3EB672E 
 388      2795063D 
 388      9C9BA0FD 
 388      AC0D
 389 01b3 B9C959EB 		.ascii	"\271\311Y\353!\356\333\014\377\362\201w6v\267\335y\""
 389      21EEDB0C 
 389      FFF28177 
 389      3676B7DD 
 389      7922
 390 01c5 9370922E 		.ascii	"\223p\222.\214\310kB\014\253\030\271\015\003\321\344"
 390      8CC86B42 
 390      0CAB18B9 
 390      0D03D1E4 
ARM GAS  /tmp/ccDPDrPi.s 			page 31


 391 01d5 5DF4A649 		.ascii	"]\364\246I\316}\242\266\030\311=\223z\247\027wZDy\010"
 391      CE7DA2B6 
 391      18C93D93 
 391      7AA71777 
 391      5A447908 
 392 01e9 02C44EC1 		.ascii	"\002\304N\301\272h\011qK\305#\034\242mZ\305!k\256\243"
 392      BA680971 
 392      4BC5231C 
 392      A26D5AC5 
 392      216BAEA3 
 393 01fd 44C5AD14 		.ascii	"D\305\255\024\273\225%\215#\361\204\2430\207\316#l\303"
 393      BB95258D 
 393      23F184A3 
 393      3087CE23 
 393      6CC3
 394 020f 1DFDA2D5 		.ascii	"\035\375\242\325\237\207'~\226\025\266D\331q\306\016"
 394      9F87277E 
 394      9615B644 
 394      D971C60E 
 395 021f 27E8A125 		.ascii	"'\350\241%\234\371\010-\267\241\321\375Up\240\3560\307"
 395      9CF9082D 
 395      B7A1D1FD 
 395      5570A0EE 
 395      30C7
 396 0231 F2F685AA 		.ascii	"\362\366\205\2528\002\260\015\265n\377\270SdY\206\013"
 396      3802B00D 
 396      B56EFFB8 
 396      53645986 
 396      0B
 397 0242 78C033C9 		.ascii	"x\3003\311d\352\374\274\232S/\247S\013\345\324|\266"
 397      64EAFCBC 
 397      9A532FA7 
 397      530BE5D4 
 397      7CB6
 398 0254 985A5C28 		.ascii	"\230Z\\(-\225S\351\314\245\251\323\226\2770U\251\244"
 398      2D9553E9 
 398      CCA5A9D3 
 398      96BF3055 
 398      A9A4
 399 0266 6E5496E6 		.ascii	"nT\226\346\212\305\353sj\271\224\314\203\264X\332\003"
 399      8AC5EB73 
 399      6AB994CC 
 399      83B458DA 
 399      03
 400 0277 6EE62FF4 		.ascii	"n\346/\364"
 401              		.text
 402              		.section	.gnu.lto_VectorE8.41543b5217bcee50,"",%progbits
 403 0000 789CB552 		.ascii	"x\234\265RMh\023Q\020\236\331\335\374m\254\251\321K"
 403      4D681351 
 403      109ED9DD 
 403      FC6DACA9 
 403      D14B
 404 0012 7B2A3DA9 		.ascii	"{*=\251\305,X\020\324\203\007\301\203 \012I\241z)I\224"
 404      C52C5810 
 404      D48307C1 
 404      83200A49 
 404      A17A2949 
ARM GAS  /tmp/ccDPDrPi.s 			page 32


 405 0027 7621D292 		.ascii	"v!\322\222\024\014x\310K\263B\020\225\030\364\240\015"
 405      140C78C8 
 405      4BB34210 
 405      9518F4A0 
 405      0D
 406 0038 D8522952 		.ascii	"\330R)R\012bO\005/\213 T\244\024\343Ez1\376\034=\304"
 406      0A624F05 
 406      2F8B2054 
 406      A414E345 
 406      7A31FE1C 
 407 004e 9B88B8CE 		.ascii	"\233\210\270\316\354_C\213\270\027\007v\336\333\231"
 407      EC5F438B 
 407      B8170776 
 407      DEDB99
 408 005d F9BEF9E6 		.ascii	"\371\276\371\346\275'\201\004\273\3550}\203!\200\323"
 408      BD278104 
 408      BBED307D 
 408      832180D3 
 409 006d FC1302A4 		.ascii	"\374\023\002\244\012\224$\031@H\0129EFZPA\2444BE\222"
 409      0A942419 
 409      40480A39 
 409      45465A50 
 409      41A43442 
 410 0083 15AC5CE6 		.ascii	"\025\254\\\346\037P\207aQ\210f\347\365\322g|\364\300"
 410      1F508761 
 410      518866E7 
 410      F5D2677C 
 410      F4C0
 411 0095 3416C42F 		.ascii	"4\026\304/\313B\3249\231G\030\247\035\016\331\0133\365"
 411      CB42D439 
 411      994718A7 
 411      1D0ED90B 
 411      33F5
 412 00a7 9A03146B 		.ascii	"\232\003\024k\317D\314\006\311:\312\0011\037\277^\332"
 412      CF44CC06 
 412      C93ACA01 
 412      311FBF5E 
 412      DA
 413 00b8 10866959 		.ascii	"\020\206iYg\376o\237\367=}\002b\314'\355\267\213H\330"
 413      67FE6F9F 
 413      F73D7D02 
 413      62CC27ED 
 413      B78B48D8 
 414 00cc 6AD7B212 		.ascii	"j\327\262\022\201\345\231/\232w\007n/\3145\304o:\276"
 414      81E5992F 
 414      9A77076E 
 414      2FCC35C4 
 414      6F3ABE
 415 00df E0DDD6DA 		.ascii	"\340\335\326\332w\324F\265.,\253\242\363\035\005\032"
 415      77D446B5 
 415      2E2CABA2 
 415      F31D051A 
 416 00ef CBEA192B 		.ascii	"\313\352\031+\024\260\321\303\346\275\001\261\243/,"
 416      14B0D1C3 
 416      E6BD01B1 
 416      A32F2C
 417 00fe C149FC07 		.ascii	"\301I\374\007\362\271dv,\253u\377\373\247\026\036\212"
ARM GAS  /tmp/ccDPDrPi.s 			page 33


 417      F2B96476 
 417      2CAB75FF 
 417      FBA7161E 
 417      8A
 418 010f 23D06148 		.ascii	"#\320aH\344d\231w\012\357B\354\302\220\305\025\034\206"
 418      E4649977 
 418      0AEF42EC 
 418      C290C515 
 418      1C86
 419 0121 0887A31C 		.ascii	"\010\207\243\034\211\221ST\260\305\321k4\204h\01495"
 419      89915354 
 419      B0C5D16B 
 419      3484680C 
 419      3935
 420 0133 B658B28C 		.ascii	"\266X\262\214\355\307\370\235\312\2330\267\376\201^"
 420      EDC7F89D 
 420      CA9B30B7 
 420      FE815E
 421 0142 5F165709 		.ascii	"_\026W\0110\211\310Z@\324\015\301z6\341\325\025/#\215"
 421      3089C85A 
 421      40D40DC1 
 421      7A36E1D5 
 421      152F238D 
 422 0156 C08A3028 		.ascii	"\300\2120(\033\231\207\307\264D\275b\333r\350\011g\306"
 422      1B9987C7 
 422      B444BD62 
 422      DB72E809 
 422      67C6
 423 0168 6EDC43C9 		.ascii	"n\334C\311\177\345S\366\362\311\275|\350\363\325^\326"
 423      7FE553F6 
 423      F2C9BD7C 
 423      E8F3D55E 
 423      D6
 424 0179 967D8121 		.ascii	"\226}\201!R2\311\227e\307\007\275p\2302\214\226\205"
 424      5232C997 
 424      65C707BD 
 424      7098328C 
 424      9685
 425 018b E87745FC 		.ascii	"\350wE\374X:\345e#\273U\274iD\234\234-\242*\022\275"
 425      583AE565 
 425      23BB55BC 
 425      69449C9C 
 425      2DA22A12 
 426 01a0 32227BC7 		.ascii	"2\"{\307\242\006n\307/O\375\236T\032\356\351\271\001"
 426      A2066EC7 
 426      2F4FFD9E 
 426      541AEEE9 
 426      B901
 427 01b2 C6B76A9F 		.ascii	"\306\267j\237\237\034w\036\342\216\215\361/\037\370"
 427      9F1C771E 
 427      E28E8DF1 
 427      2F1FF8
 428 01c1 F6FA72DB 		.ascii	"\366\372r\333\237'6\002G\351\302\250y\225ht\214\335"
 428      9F273602 
 428      47E9C2A8 
 428      79956874 
 428      8CDD
ARM GAS  /tmp/ccDPDrPi.s 			page 34


 429 01d3 849FA2CE 		.ascii	"\204\237\242\316;\365\272\335\234yTW\214\344\237\311"
 429      3BF5BADD 
 429      9C795457 
 429      8CE49FC9 
 430 01e3 DC7637E1 		.ascii	"\334v7\341Q\250<\004\001\342\307`U4\204\270\241\343"
 430      51A83C04 
 430      01E2C760 
 430      553484B8 
 430      A1E3
 431 01f5 3E0ED136 		.ascii	">\016\3216\255c\2373\327~j\305T\212K\345H\343H\"\351"
 431      AD639F33 
 431      D77E6AC5 
 431      548A4BE5 
 431      48E34822 
 432 020a 29CCA1F7 		.ascii	")\314\241\367\010\267\340\226y\336\341\347\341\251?"
 432      08B7E096 
 432      79DEE1E7 
 432      E1A93F
 433 0219 CB8A3AA2 		.ascii	"\313\212:\242\3348c\373\223\364\320\016x\363\021Z\336"
 433      DC3863FB 
 433      93F4D00E 
 433      78F3115A 
 433      DE
 434 022a 825A675E 		.ascii	"\202Zg^\367\240\3760\311\274{\241:\036\004x\007\325"
 434      F7A0FE30 
 434      C9BC7BA1 
 434      3A1E0478 
 434      07D5
 435 023c 4EEB8857 		.ascii	"N\353\210W\344X\206\013x\300\023\251\224vvJ\317\351"
 435      E458860B 
 435      78C013A9 
 435      9476764A 
 435      CFE9
 436 024e 17D3DA74 		.ascii	"\027\323\332tI\233\312\026\264\231\351\342lIKg.\214"
 436      499BCA16 
 436      B499E9E2 
 436      6C494B67 
 436      2E8C
 437 0260 1E77FCB9 		.ascii	"\036w\374\271\321rY\273V\236\235(\024\256N\350\245b"
 437      D17259BB 
 437      569E9D28 
 437      14AE4EE8 
 437      A562
 438 0272 2A0FD24C 		.ascii	"*\017\322L\361\017\027b,\221"
 438      F10F1762 
 438      2C91
 439              		.text
 440              		.section	.gnu.lto_Vector48.41543b5217bcee50,"",%progbits
 441 0000 789CB554 		.ascii	"x\234\265TMh\023Q\020\236\331\267\371\267\246Z/\355"
 441      4D681351 
 441      109ED9B7 
 441      F9B7A65A 
 441      2FED
 442 0012 29F4A416 		.ascii	")\364\244\026\263`AP\017\036\004\017\202($\205\352\245"
 442      B3604150 
 442      0F1E040F 
 442      82282485 
ARM GAS  /tmp/ccDPDrPi.s 			page 35


 442      EAA5
 443 0024 2451DA85 		.ascii	"$Q\332\205HKR0\340!o\233\025\202\250\204\240\007\365"
 443      484B5230 
 443      E0216F9B 
 443      1582A884 
 443      A007F5
 444 0037 D21E1429 		.ascii	"\322\036\024)\245\005O\005\017\006A\210H)\306\213\210"
 444      A5054F05 
 444      0F064188 
 444      4829C68B 
 444      88
 445 0048 62148F1E 		.ascii	"b\024\217\036*\036\324\"\2563\273yih\021\367\342@\336"
 445      2A1ED422 
 445      AE33BB79 
 445      696811F7 
 445      E240DE
 446 005b CFCC7CF3 		.ascii	"\317\314|\363}\263o\210\006\032l\267\375\364\033\012"
 446      7DB36F88 
 446      061A6CB7 
 446      FDF41B0A 
 447 006b 001CE74B 		.ascii	"\000\034\347K\000\2202P\323\004\200\324tZt\201\264\241"
 447      00903250 
 447      D30480D4 
 447      745A7481 
 447      B4A1
 448 007d 8E486184 		.ascii	"\216Ha\204\262&t,\237\347\013D\207aA\312z\373\371\362"
 448      B226742C 
 448      9FE70B44 
 448      876141CA 
 448      7AFBF9F2 
 449 0091 27BC7BBB 		.ascii	"'\274{\273a\317\313_\216\203hr0\2070N'L\270\033W\352"
 449      61CFCB5F 
 449      8E836872 
 449      3087304E 
 449      274CB81B 
 450 00a7 350F281F 		.ascii	"5\017(\037?\222\021\027$L\024>1\037>\237kJ\273\3418"
 450      3F921117 
 450      244C143E 
 450      311F3E9F 
 450      6B4ABBE1 
 451 00bc 27FE2FCF 		.ascii	"'\376/\317\353\036\036\237\230\306\367\326\313\005$"
 451      EB1E1E9F 
 451      98C6F7D6 
 451      CB0524
 452 00cb ACB5E138 		.ascii	"\254\265\3418q\337\362\032?\3537\007\257\317\317\325"
 452      71DFF21A 
 452      3FEB3707 
 452      AFCFCFD5 
 453 00db E46FFA7C 		.ascii	"\344o\372|\376\3316[7\2425\253*\035\247l\362\033\371"
 453      FED9365B 
 453      37A235AB 
 453      2A1DA76C 
 453      F21BF9
 454 00ee 6ACBE969 		.ascii	"j\313\351i+\340\223\350}\375\326\240\334\322\027\324"
 454      2BE093E8 
 454      7DFDD6A0 
 454      DCD217D4 
ARM GAS  /tmp/ccDPDrPi.s 			page 36


 455 00fe E028FE03 		.ascii	"\340(\376\003\271\2425\332\216\363\356\316\327\217M"
 455      B9A235DA 
 455      8EF3EECE 
 455      D78F4D
 456 010d DC1743A0 		.ascii	"\334\027C\240\217\241\321\"\004\237t>\005x\011B\006"
 456      8FA1D122 
 456      049F743E 
 456      05780942 
 456      06
 457 011e 17711842 		.ascii	"\027q\030B\354\016\263'B\213\036\005W\034M\243-e-\341"
 457      EC0EB327 
 457      428B1E05 
 457      571C4DA3 
 457      2D652DE1 
 458 0132 E5B862C9 		.ascii	"\345\270b\311\322\356:\306s*\326`n\365\015M_\006\227"
 458      D2EE3AC6 
 458      732AD660 
 458      6EF50D4D 
 458      5F0697
 459 0145 083089C8 		.ascii	"\0100\211\310Z@Vm\311z\326\340\331\005\025\321F`Q\332"
 459      5A40566D 
 459      C97AD6E0 
 459      D90515D1 
 459      466051DA 
 460 0159 140DDD87 		.ascii	"\024\015\335\207{\264\205U\262kYT\302\271\342FL\241"
 460      7BB48555 
 460      B26B5954 
 460      C2B9E246 
 460      4CA1
 461 016b C45FEBE9 		.ascii	"\304_\353\351;\353\211\336z\330\255WyRy\330\025\030"
 461      3BEB89DE 
 461      7AD8AD57 
 461      795279D8 
 461      1518
 462 017d 202593FC 		.ascii	" %\223\374X\256\177H\271\203\024a\264\2202\321\021\361"
 462      58AE7F48 
 462      B9831461 
 462      B49032D1 
 462      11F1
 463 018f 63F9988A 		.ascii	"c\371\230\212\206\266\253xQ\013y1W\204%\343\2752B;\333"
 463      86B6AB78 
 463      510B7931 
 463      578425E3 
 463      BD32423B 
 464 01a4 22820EE3 		.ascii	"\"\202\016\343\267\007]NJ\015\366p6\301\376b\365u\203"
 464      B7075D4E 
 464      4A0DF670 
 464      36C1FE62 
 464      F57583
 465 01b7 E3DE206E 		.ascii	"\343\336 n\331\030_\371\203\277]]iu\373\211\214\300"
 465      D9185FF9 
 465      83BF5D5D 
 465      6975FB89 
 465      8CC0
 466 01c9 417A3022 		.ascii	"Az0\"\267\244\35471r\0256e\225O\321\313.9\327\211v\304"
 466      B7A4EC37 
 466      31721536 
ARM GAS  /tmp/ccDPDrPi.s 			page 37


 466      65954FD1 
 466      CB2E39D7 
 467 01e0 A8FF1E2E 		.ascii	"\250\377\036.\262\021W%\242\334\004\001b\207`I\326\244"
 467      B2115725 
 467      A2DC0401 
 467      62876049 
 467      D6A4
 468 01f2 BC62E22E 		.ascii	"\274b\342.v\3211eb\237\327\327n\242\342Rz\247\224'\215"
 468      76D13165 
 468      629FD7D7 
 468      6EA2E252 
 468      7AA79427 
 469 0207 3DF101A5 		.ascii	"=\361\001\2450\213j\010\327\341Z\343\264W\237\233'~"
 469      308B6A08 
 469      D7E15AE3 
 469      B4579F9B 
 469      277E
 470 0219 9615F644 		.ascii	"\226\025\366Du\374\214\355\037\240A\333\243\372#\264"
 470      75FC8CED 
 470      1FA041DB 
 470      A3FA23B4 
 471 0229 58874AFB 		.ascii	"X\207J\373\251\251\240\335f\366\346:\017j\"\321\275"
 471      A9A9A0DD 
 471      66F6E63A 
 471      0F6A22D1 
 471      BD
 472 023a 02ABDD3C 		.ascii	"\002\253\335<\240\222<Ks\0027x$\2314NN\231Y\363l\312"
 472      A0923C4B 
 472      73023778 
 472      2499344E 
 472      4E9959F3 
 473 0250 982E1A53 		.ascii	"\230.\032S\231\27413]\230-\032\251\364\231\321\303\336"
 473      99BC3133 
 473      5D982D1A 
 473      A9F499D1 
 473      C3DE
 474 0262 7A6AB454 		.ascii	"zj\264T2.\225f'\362\371\213\023f\261\220\314\2016S\370"
 474      322E9566 
 474      27F2F98B 
 474      1366B190 
 474      CC813653 
 475 0277 0307D02E 		.ascii	"\003\007\320.\336"
 475      DE
 476              		.text
 477              		.section	.gnu.lto_Vector4C.41543b5217bcee50,"",%progbits
 478 0000 789CB554 		.ascii	"x\234\265TMh\023Q\020\236\331\335\374[S5\227\366TzR"
 478      4D681351 
 478      109ED9DD 
 478      FC5B5335 
 478      97F6547A 
 479 0015 8B59B020 		.ascii	"\213Y\260 \250\007\005\301\203 \012I\241z)I\224v!\322"
 479      A80705C1 
 479      83200A49 
 479      A17A2949 
 479      947621D2 
 480 0029 92140C78 		.ascii	"\222\024\014x\310K\023!\210J\260^\264\036Z\004\225R"
 480      C84B1321 
ARM GAS  /tmp/ccDPDrPi.s 			page 38


 480      884AB05E 
 480      B41E5A04 
 480      9552
 481 003b 100469D1 		.ascii	"\020\004i\321\203\213 T\244\2246\027\361b\024o\346\220"
 481      838B2054 
 481      A4943617 
 481      F162146F 
 481      E690
 482 004d DE44C475 		.ascii	"\336D\304uf7o\273\264\210{q \357gf\276\371\276\3317"
 482      66376FBB 
 482      B4887B71 
 482      20EF6766 
 482      BEF9BED9 
 483 0062 44010576 		.ascii	"D\001\005v\332A\372\365\007\000N\362%\000H\031\250("
 483      DA41FAF5 
 483      07004EF2 
 483      25004819 
 483      A828
 484 0074 2A805034 		.ascii	"*\200P4Z4\025iC\015\221\302\010eE\325\260|\211/\020"
 484      5A341569 
 484      430D91C2 
 484      086545D5 
 484      B07C892F 
 485 0089 1D840521 		.ascii	"\035\204\005!\356\265\336-\177\305\007\367\315\332\274"
 485      EEB5DE2D 
 485      7FC507F7 
 485      CDDABC
 486 0098 F8655988 		.ascii	"\370eY\210\006\007s\010\243t\302\001{\343J^s\200\342"
 486      06077308 
 486      A374C201 
 486      7BE34A5E 
 486      7380E2
 487 00ab C53311B1 		.ascii	"\3053\021\261A\252\201\252O\314\347o\027WE\315\264\254"
 487      41AA81AA 
 487      4FCCE76F 
 487      175745CD 
 487      B4AC
 488 00bd 53FF97A7 		.ascii	"S\377\227\247\351\341\361\2111\3374?, a+\035\313\212"
 488      E9E1F189 
 488      31DF343F 
 488      2C20612B 
 488      1DCB8A
 489 00d0 FB96676E 		.ascii	"\373\226gn\314\336\351\2735?\323\020\277\351\363\371"
 489      CCDEE9BB 
 489      353FD310 
 489      BFE9F3F9 
 490 00e0 67DB6CDE 		.ascii	"g\333l\336\2166*uaYe\203\337\310W[\226\247\255\200O"
 490      8E362A75 
 490      61596583 
 490      DFC8575B 
 490      96A7AD80 
 491 00f5 A297B377 		.ascii	"\242\227\263w\373\304\266\276\240\002\307\361\037\310"
 491      FBC4B6BE 
 491      A002C7F1 
 491      1FC8
 492 0103 E78AD9B2 		.ascii	"\347\212\331\262\254Gs[_\332\230\210!\320\307PhQU>i"
 492      AC47735B 
ARM GAS  /tmp/ccDPDrPi.s 			page 39


 492      5FDA9888 
 492      21D0C750 
 492      6851553E 
 493 0118 7C0AF012 		.ascii	"|\012\360\022\204\014.\342 \204\330\035fO\204\026-\012"
 493      840C2EE2 
 493      2084D81D 
 493      664F8416 
 493      2D0A
 494 012a B6389AC6 		.ascii	"\2668\232\306\232\020\215\001'\307\026K\226\266\327"
 494      9A108D01 
 494      27C7164B 
 494      96B6D7
 495 0139 119E5375 		.ascii	"\021\236Su\015fV>\322\364ep\211\000\343\210\254\005"
 495      0D66563E 
 495      D2F46570 
 495      8900E388 
 495      AC05
 496 014b 44BD2658 		.ascii	"D\275&X\317\032\274\275,#\312\020,\212\032ECs\360\220"
 496      CF1ABCBD 
 496      2C23CA10 
 496      2C8A1A45 
 496      4373F090 
 497 015f B6B04CB6 		.ascii	"\266\260L\266-\213R8W\354\304$J\375k=mw=\325[\017\335"
 497      2D8B5238 
 497      57ECC424 
 497      4AFD6B3D 
 497      6D773DD5 
 498 0176 7AD5D7D5 		.ascii	"z\325\327\325'\256\300\000)\031\347\307\262\375\375"
 498      27AEC000 
 498      2919E7C7 
 498      B2FDFD
 499 0185 D21DA408 		.ascii	"\322\035\244\010\243U!NwE\374X>!\243\241\235*\3367B"
 499      A355214E 
 499      7745FC58 
 499      3E21A3A1 
 499      9D2ADE37 
 500 019a 4ECC1651 		.ascii	"N\314\026Q\021q\257\214\320\356\266\210\240\313\370"
 500      1171AF8C 
 500      D0EEB688 
 500      A0CBF8
 501 01a9 F8A9CB49 		.ascii	"\370\251\313I\251A\017\347*\324\332\225\03678\352\014"
 501      A9410FE7 
 501      2AD4DA95 
 501      1E3738EA 
 501      0C
 502 01ba E2B68DF0 		.ascii	"\342\266\215\360\225?\370\247\225W\233n?\221!8L\017"
 502      953FF8A7 
 502      95579B6E 
 502      3F912138 
 502      4C0F
 503 01cc 46E41521 		.ascii	"F\344\025!z\015\214\334\200\237\242\316\247\3505\233"
 503      7A0D8CDC 
 503      809FA2CE 
 503      A7E8359B 
 504 01dc 9CEB44BB 		.ascii	"\234\353D\273b\344\177\017\027\351\304e\211(7A\200\330"
 504      62E47F0F 
 504      17E9C465 
ARM GAS  /tmp/ccDPDrPi.s 			page 40


 504      89283741 
 504      80D8
 505 01ee 1158120D 		.ascii	"\021X\022\015!\256\033\270\207]tL\031\330\343\364\265"
 505      21AE1BB8 
 505      875D744C 
 505      19D8E3F4 
 505      B5
 506 01ff 97A8B894 		.ascii	"\227\250\270\224\326-\345HcO<!\025fQ\016\341:\3344\317"
 506      D62DE548 
 506      634F3C21 
 506      1566510E 
 506      E13ADC34 
 507 0214 39F5B979 		.ascii	"9\365\271y\342gYaGT\327\317\330\336\004\015\332>\331"
 507      E2675961 
 507      4754D7CF 
 507      D8DE040D 
 507      DA3ED9
 508 0227 1FA1D575 		.ascii	"\037\241\325u\250\266\276\033\022\3526\263?\327}P\003"
 508      A8B6BE1B 
 508      12EA36B3 
 508      3FD77D50 
 508      03
 509 0238 0F006C40 		.ascii	"\017\000l@\245\325>$\223\034Ks\0027x,\231\324\317L\030"
 509      A5D53E24 
 509      931C4B73 
 509      0237782C 
 509      99D4CF4C 
 510 024d 59E3424A 		.ascii	"Y\343BJ\237,\352\023\231\274>5Y\230.\352\251\364\371"
 510      9F2CEA13 
 510      99BC3E35 
 510      59982EEA 
 510      A9F4F9
 511 0260 E1A3CE7A 		.ascii	"\341\243\316zv\270T\322\257\226\246\307\362\371+cF\261"
 511      76B854D2 
 511      AF96A6C7 
 511      F2F92B63 
 511      46B1
 512 0272 90CC8132 		.ascii	"\220\314\2012U\370\003\236\035.\206"
 512      55F8039E 
 512      1D2E86
 513              		.text
 514              		.section	.gnu.lto_Vector140.41543b5217bcee50,"",%progbits
 515 0000 789CBD96 		.ascii	"x\234\275\226MHTQ\024\307\317\271\357k>\235\261P0\020"
 515      4D485451 
 515      14C7CFB9 
 515      EF6B3E9D 
 515      B1503010 
 516 0014 C4659203 		.ascii	"\304e\222\003\011A\265h\021\264\010\"A\005k#j\241\217"
 516      0941B568 
 516      11B40822 
 516      41056B23 
 516      6AA18F
 517 0027 0C458584 		.ascii	"\014E\205\204\026\336q&\220\250\030*\012?*\335D\204"
 517      16DE7126 
 517      90A8182A 
 517      0A3F2ADD 
 517      4484
ARM GAS  /tmp/ccDPDrPi.s 			page 41


 518 0039 50D94670 		.ascii	"P\331Fp3\004\201\021\"\025HD\320\244\321\252\205\233"
 518      33048111 
 518      22154844 
 518      D0A4D1AA 
 518      859B
 519 004b 40A27A9D 		.ascii	"@\242z\235\363\336\274\231\207:\370P\362\302\334\217"
 519      F3DEBC99 
 519      873AF850 
 519      F2C2DC8F 
 520 005b 73EF39E7 		.ascii	"s\3579\347\177~\357\276\307\010\020\260\2615\322o!\000"
 520      7F7EEFBE 
 520      C70810B0 
 520      B135D26F 
 520      2100
 521 006d 709C1741 		.ascii	"p\234\027A@:\201B(\000R\250\324\251\012\322\200\252"
 521      403A8142 
 521      280052A8 
 521      D4A90AD2 
 521      80AA
 522 007f D0D8A2B3 		.ascii	"\320\330\242\263EC\032P\027\006[\002l1\220\006\014 "
 522      45431A50 
 522      17065B02 
 522      6C319006 
 522      0C20
 523 0091 52088461 		.ascii	"R\010\204a\241\250\232n\004p\370\034\033 ^\013\323R"
 523      A1A89A6E 
 523      0470F81C 
 523      1B205E0B 
 523      D352
 524 00a3 DECEBD5E 		.ascii	"\336\316\275^Y\301\261\273\331\364\224\374mY\210&ov"
 524      59C1B1BB 
 524      D9F494FC 
 524      6D598826 
 524      6F76
 525 00b5 22B4D20C 		.ascii	"\"\264\322\014k\354\2013z\233\343(g\237\310\240\355"
 525      6BEC8133 
 525      7A9BE328 
 525      679FC8A0 
 525      ED
 526 00c6 A498A8F8 		.ascii	"\244\230\250\370\364\371\362\255qA\246\263\226u\342"
 526      F4F9F2AD 
 526      7141A6B3 
 526      9675E2
 527 00d5 FFE6F9E0 		.ascii	"\377\346\371\340\311\343\323'{\177\371\3554\222or\315"
 527      C9E3D327 
 527      7B7FF9ED 
 527      34926F72 
 527      CD
 528 00e6 B262BEE5 		.ascii	"\262b\276\345e\307\356\335\254\272>5\222\221\177\011"
 528      65C7EEDD 
 528      ACBA3E35 
 528      92917F09 
 529 00f6 9FFF6CE3 		.ascii	"\237\377l\343\3137B\231\344\250\264\254a\223\237\245"
 529      CB374299 
 529      E4A8B4AC 
 529      61939FA5 
 530 0106 AFB22C4F 		.ascii	"\257\262,OY\232\317D\017v\246\357\341^\351{\2613}\263"
ARM GAS  /tmp/ccDPDrPi.s 			page 42


 530      599ACF44 
 530      0F76A6EF 
 530      E15EE97B 
 530      B1337DB3 
 531 011a 7BA5EFCF 		.ascii	"{\245\357\317\235[U\262\250O\027p\024\267\361|&\262"
 531      9D5B55B2 
 531      A84F1770 
 531      14B7F17C 
 531      26B2
 532 012c 39CBFAFC 		.ascii	"9\313\372\374\350\347\327I\254(G\240\313$\250S\024\236"
 532      E8E7D749 
 532      AC2847A0 
 532      CB24A853 
 532      149E
 533 013e A93CD3B8 		.ascii	"\251<\323\270\323\241\035\237c-\030l\016\260%H\235\032"
 533      D3A11D9F 
 533      632D186C 
 533      0EB02548 
 533      9D1A
 534 0150 A24E0BF3 		.ascii	"\242N\013\3632\302\313(/\313x\031\343e\034l\351\240"
 534      32C2CB28 
 534      2FCB7819 
 534      E3651C6C 
 534      E9A0
 535 0162 415ACA4C 		.ascii	"AZ\312L\215\023\301.\205Z\263\335\267\360\327BY\204"
 535      8D13C12E 
 535      855AB3DD 
 535      B7F0D742 
 535      5984
 536 0174 91B98FF4 		.ascii	"\221\271\217\364n\267\343,9t!\262R\220\243i\311j\027"
 536      6EB7E32C 
 536      397421B2 
 536      5290A369 
 536      C96A17
 537 0187 E1D57977 		.ascii	"\341\325ywG\324\301S\231\246]c\002\306i\010\270\207"
 537      47D4C153 
 537      99A65D63 
 537      02C66908 
 537      B887
 538 0199 EDD6816E 		.ascii	"\355\326\201nY\034q-\354z)%\343\251\233\343)\336xX\210"
 538      591C712D 
 538      EC7A2925 
 538      E3A99BE3 
 538      29DE7858 
 539 01ae 979A4F3D 		.ascii	"\227\232O=.\010\324HI\027?J\333~\3005\353\264\303\336"
 539      2E08D448 
 539      49173F4A 
 539      DB7EC035 
 539      EBB4C3DE 
 540 01c2 8A943225 		.ascii	"\212\2242%\3622\326W\216\271\373\306F\035o2\206\263"
 540      F232D657 
 540      8EB9FBC6 
 540      461D6F32 
 540      86B3
 541 01d4 67CB48CA 		.ascii	"g\313H\312\230W\210\261\271\260.\376p\3329_\316\024"
 541      985788B1 
 541      B9B02EFE 
ARM GAS  /tmp/ccDPDrPi.s 			page 43


 541      70DA395F 
 541      CE14
 542 01e6 B2D251DD 		.ascii	"\262\322Q\335\315\312\347\026 \375#\031-\354\266:7\265"
 542      CDCAE716 
 542      20FD2319 
 542      2DECB63A 
 542      37B5
 543 01f8 D85A78C9 		.ascii	"\330Zx\311\314?\315\255\276/\224\024\254\203\203\364"
 543      CC3FCDAD 
 543      BE2F9414 
 543      AC8383F4 
 544 0208 CC287B52 		.ascii	"\314({R\312\270\211\301\253\360K\216\362,t\331\316\316"
 544      CAB889C1 
 544      ABF04B8E 
 544      F22C74D9 
 544      CECE
 545 021a 71427935 		.ascii	"qBy5\242\200e\344\323Z\314\015\021\342*\310!|\010fd"
 545      A28065E4 
 545      D35ACC0D 
 545      11E22AC8 
 545      217C0866 
 546 022f 46CA2B26 		.ascii	"F\312+&F\330D\323&\023\243Nae\224\212C\251\371P\216"
 546      46D844D3 
 546      2613A34E 
 546      6165948A 
 546      43A9F950 
 547 0244 34B6C42A 		.ascii	"4\266\304*\\\205\035\350\336\322%\270\226=\355\304\347"
 547      5C851DE8 
 547      DED225B8 
 547      963DEDC4 
 547      E7
 548 0255 EA293FCB 		.ascii	"\352)?\313\0128\242\362v\366\215W\320]+w\353S\355\372"
 548      0A38A2F2 
 548      76F68D57 
 548      D05D2B77 
 548      EB53EDFA 
 549 0269 88D27C91 		.ascii	"\210\322|\221R\330CIl\242\024\336\202\222\226\247\264"
 549      52D84349 
 549      6CA214DE 
 549      829296A7 
 549      B4
 550 027a EEA114D9 		.ascii	"\356\241\024\331=\245\250OJ\221\022\224*\267\245\024"
 550      3DA5A84F 
 550      4A911294 
 550      2AB7A514 
 551 028a 2D49A9D2 		.ascii	"-I\251\322KIw)\255\026)\225y(m\201\251l\013L\206{\231"
 551      4B497729 
 551      AD162995 
 551      79286D81 
 551      A96C0B4C 
 552 02a1 BE1731C5 		.ascii	"\276\0271\305v\217)\356\023S\254\004\246\352m1\305K"
 552      768F29EE 
 552      1353AC04 
 552      A6EA6D31 
 552      C54B
 553 02b3 62AAF662 		.ascii	"b\252\366b\242?&\312\022\244r\023\227\\\327B1\373:\363"
 553      A23F26CA 
ARM GAS  /tmp/ccDPDrPi.s 			page 44


 553      12A47213 
 553      975CD742 
 553      31FB3AF3 
 554 02c7 1F0813F7 		.ascii	"\037\010\023\367\003\274\203dn\262\316=\344\264f>\300"
 554      03BC8364 
 554      6EB2CE3D 
 554      E4B4663E 
 554      C0
 555 02d8 051EA9AF 		.ascii	"\005\036\251\257O\234\3546;\314\263M\211\336\201Dw{"
 555      4F9CEC36 
 555      3BCCB34D 
 555      89DE8144 
 555      777B
 556 02ea 4FA2AFB7 		.ascii	"O\242\257\267\177p \321\324|\246\341\260\323\237j\030"
 556      7F7020D1 
 556      D47CA6E1 
 556      B0D39F6A 
 556      18
 557 02fb 1A4A5C1C 		.ascii	"\032J\\\034\032l\353\351\271\320f\016\364\327w\202\350"
 557      1A6CEBE9 
 557      B9D0660E 
 557      F4D77782 
 557      E8
 558 030c EBFF0723 		.ascii	"\353\377\007#\346\365h"
 558      E6F568
 559              		.text
 560              		.section	.gnu.lto_Vector144.41543b5217bcee50,"",%progbits
 561 0000 789CBD56 		.ascii	"x\234\275VKhTg\024>\347>\347=\223wu\241\301\245\301"
 561      4B685467 
 561      143EE73E 
 561      E73D9377 
 561      75A1C1A5 
 562 0015 4CA920D8 		.ascii	"L\251 \330E[(\270\020\244\226D\210n$\2112^\0321$\201"
 562      455B28B8 
 562      10A49644 
 562      886E2489 
 562      325E1A31 
 563 002b 06BAC83F 		.ascii	"\006\272\310?\311\010\241\2642\244\255\361\261\321\215"
 563      C908A1B4 
 563      32A4ADF1 
 563      B1D18D
 564 003a 48A80F04 		.ascii	"H\250\017\0041\342\346\"\012\021\321\320\212\211HK\243"
 564      31E2E622 
 564      0A11D1D0 
 564      8A89484B 
 564      A3
 565 004b E84E624C 		.ascii	"\350NbL\220\246\366q=\347\276\346&\3231\227\210\376"
 565      90A6F671 
 565      3DE7BEE6 
 565      26D33197 
 565      88FE
 566 005d 30E7FFE7 		.ascii	"0\347\377\347\234\377<\276s\277sg$\220`\371\332I\237"
 566      9CFF3CBE 
 566      73BF7367 
 566      249060F9 
 566      DA499F
 567 0070 2FE3009F 		.ascii	"/\343\000\237\361\227( \335@I\222\001\204\244\220Pd"
ARM GAS  /tmp/ccDPDrPi.s 			page 45


 567      F1972820 
 567      DD404992 
 567      0184A490 
 567      5064
 568 0082 A40D1549 		.ascii	"\244\015\025Ie\215\306\032\025iCM\322Y\023a\215\216"
 568      658DC61A 
 568      1569434D 
 568      D2591361 
 568      8D8E
 569 0094 B4610491 		.ascii	"\264a\004\221B \014H\262\242jz\004\007v\263\002\352"
 569      42200C48 
 569      B2A26A7A 
 569      040776B3 
 569      02EA
 570 00a6 37C06921 		.ascii	"7\300i!Ffn\316>\306\343?\232\205S\342\037\313B4\330"
 570      46666ECE 
 570      3EC6E33F 
 570      9A8553E2 
 570      1FCB4234 
 571 00bb D889D046 		.ascii	"\330\211\320F'l\2647\316\030\\\216\243\270tVDm'\331"
 571      276CB437 
 571      CE185C8E 
 571      A3B87456 
 571      446D27D9 
 572 00cf 4039A4CF 		.ascii	"@9\244\317\037OvN\210\202iY\237\276\333<\367\002yB\372"
 572      1F4F764E 
 572      88826959 
 572      9FBEDB3C 
 572      F7027942 
 573 00e4 987F4EDD 		.ascii	"\230\177N\335>\215\344\233\237\263\254t\350\362\314"
 573      3E8DE49B 
 573      9FB3AC74 
 573      E8F2CC
 574 00f3 BF8E7EBF 		.ascii	"\277\216~\277\346\333S\203E\361\037\265/|\266WS\337"
 574      E6DB5383 
 574      45F11FB5 
 574      2F7CB657 
 574      53DF
 575 0105 C58AF961 		.ascii	"\305\212\371aaY\003\006?\313P\260\254\000,5\224O\321"
 575      61590306 
 575      3FCB50B0 
 575      AC002C35 
 575      944FD1
 576 0118 FC77292C 		.ascii	"\374w),M\202\255\030\256Dk)\262wW\344\210\371\303\350"
 576      4D82AD18 
 576      AE446B29 
 576      B27757E4 
 576      88F9C3E8 
 577 012c 9160AA90 		.ascii	"\221`\252\220\275_\0255^\274'\012\336_\005\005\177\232"
 577      BD5F1535 
 577      5EBC270A 
 577      DE5F0505 
 577      7F9A
 578 013e 5E150547 		.ascii	"^\025\005GGWE\301c\323\357\205\202#\346\357G\217\254"
 578      475745C1 
 578      63D3EF85 
 578      8223E6EF 
ARM GAS  /tmp/ccDPDrPi.s 			page 46


 578      478FAC
 579 0151 11A5FA74 		.ascii	"\021\245\372t\011>Y\211\202\027$s\306\262~\273\374\362"
 579      093E5989 
 579      82172473 
 579      C6B27EBB 
 579      FCF2
 580 0163 D124D67D 		.ascii	"\321$\326}\200@\315\220H\3102\237\024>\251,4h\307+\270"
 580      8040CD90 
 580      48C8329F 
 580      143EA92C 
 580      3468C72B 
 581 0178 01745647 		.ascii	"\001tVGX\023%\241\304H\250q\262\215\221-\301\232$kR"
 581      581325A1 
 581      C448A871 
 581      B28D912D 
 581      C19A246B 
 582 018d 7C2BCDB7 		.ascii	"|+\315\2672|\252\342S5\213\0327L-\253\353XS\317N\015"
 582      327CAAE2 
 582      53358B1A 
 582      374C2DAB 
 582      EB5853CF 
 583 01a3 60630415 		.ascii	"`c\004\025\0124I\215\316\035\0333\255V[\356\3427\263"
 583      0A34498D 
 583      CE1D1B33 
 583      AD565BEE 
 583      E237B3
 584 01b6 7C0706C7 		.ascii	"|\007\006\307\037\320{\264\035\257\222C\016\221!\201"
 584      1FD07BB4 
 584      1DAF9243 
 584      0E912181 
 585 01c6 182E0886 		.ascii	"\030.\010\206u\007\256\357\361,R\023\214\211\002Y#'"
 585      7507AEEF 
 585      F12C5213 
 585      8C890259 
 585      2327
 586 01d8 E1046D51 		.ascii	"\341\004mQ\357\262\275:\320\303\317\021\347\342\236"
 586      EFB2BD3A 
 586      D0C3CF11 
 586      E7E29E
 587 01e7 975C319E 		.ascii	"\227\\1\236R\036O\016\306C?\336\320\265\2413~\201*U"
 587      521E4F0E 
 587      C6433FDE 
 587      D0B5A133 
 587      7E812A55 
 588 01fb 92E3676E 		.ascii	"\222\343gn\353\327zj\215,\354-\013Z\011\267\214\305"
 588      EBD77A6A 
 588      8D2CEC2D 
 588      0B5A09B7 
 588      8CC5
 589 020d D98F3DBB 		.ascii	"\331\217=\273\276\274\216[E\335\261\331e\344E:X\210"
 589      BEBC8E5B 
 589      45DDB1D9 
 589      65E4453A 
 589      5888
 590 021f 5E0E2CC7 		.ascii	"^\016,\307?Rv\316\205s~\326\010i\375\254\034x\002\012"
 590      3F5276CE 
 590      85737ED6 
ARM GAS  /tmp/ccDPDrPi.s 			page 47


 590      0869FDAC 
 590      1C78020A 
 591 0233 CFF249DF 		.ascii	"\317\362I\337\334\346p\272\264v\361Wn\372\303\361\347"
 591      DCE670BA 
 591      B476F157 
 591      6EFAC3F1 
 591      E7
 592 0244 BFFA98A2 		.ascii	"\277\372\230\242M\260\221\036\032\245\317\013\22110"
 592      4DB0911E 
 592      1AA5CF0B 
 592      913130
 593 0253 F60DBC12 		.ascii	"\366\015\274\022\303|\212\037\264\323s\234\270[\216"
 593      C37C8A1F 
 593      B4D3739C 
 593      B85B8E
 594 0262 E4F765F0 		.ascii	"\344\367e\360\341\\\332\013\021c\030\344\220\330\004"
 594      E15CDA0B 
 594      116318E4 
 594      90D804
 595 0271 3F8BA210 		.ascii	"?\213\242\020_\033\230d\025\035[\014L9\310\322\224\252"
 595      5F1B9864 
 595      151D5B0C 
 595      4C39C8D2 
 595      94AA
 596 0283 CD791FDA 		.ascii	"\315y\037\332\241\234\322X\223Y\347U\330\201\036\237"
 596      A19CD258 
 596      9359E755 
 596      D8811E9F 
 597 0293 27E1B0B9 		.ascii	"'\341\260\271\335\211\317\360c\000\\V\304)\312\325\263"
 597      DD89CFF0 
 597      63005C56 
 597      C429CAD5 
 597      B3
 598 02a4 6FD53A22 		.ascii	"o\325:\"[\265\207Oq\360\315\016\375}N\367\212\213\333"
 598      5BB5874F 
 598      71F0CD0E 
 598      FD7D4EF7 
 598      8A8BDB
 599 02b7 CD9B801B 		.ascii	"\315\233\200\033OK\275\211\263\253\266\2647\252\333"
 599      4F4BBD89 
 599      B3ABB6B4 
 599      37AADB
 600 02c6 9BC5406F 		.ascii	"\233\305@o\022o\337\233d\310\336$*\364f\375\212\275"
 600      126FDF9B 
 600      64C8DE24 
 600      2AF466FD 
 600      8ABD
 601 02d8 4956ECCD 		.ascii	"IV\354\315\372`o4w\340\306\347K\003\227\2528 \351\362"
 601      FA606F34 
 601      77E0C6E7 
 601      4B0397AA 
 601      3820E9F2 
 602 02ec 01490579 		.ascii	"\001I\005y\251\006\006\256\230\362\2742\025\343U\225"
 602      A90606AE 
 602      98F2BC32 
 602      15E35595 
 603 02fc C7CB04E3 		.ascii	"\307\313\004\343i~<\"\371\230_`u\216{S\265|\340j\310"
ARM GAS  /tmp/ccDPDrPi.s 			page 48


 603      697E3C22 
 603      F9985F60 
 603      758E7B53 
 603      B57CE06A 
 604 0311 62D31BDD 		.ascii	"b\323\033\335\022\036\314\373\303V[6l\027\3370l\265"
 604      121ECCFB 
 604      C3565B36 
 604      6C17DF30 
 604      6CB5
 605 0323 E5A028BC 		.ascii	"\345\240(\274\233\357\302y?c\035i\375\214K\007\255\356"
 605      9BEFC279 
 605      3F631D69 
 605      FD8C4B07 
 605      ADEE
 606 0335 7F064D77 		.ascii	"\177\006Mw\311tl\241D\246\372\267'SCH2\325W S\343\212"
 606      C9746CA1 
 606      44A6FAB7 
 606      27534348 
 606      32D55720 
 607 034c 646AA848 		.ascii	"dj\250H\246\306 \231\350\037\262<\011C3w\277\362\\}"
 607      A6C62099 
 607      E81FB23C 
 607      09433377 
 607      BFF25C7D 
 608 0360 30359DEE 		.ascii	"05\235\356\333\323\300Z\200_ ?3\331\344]rV+_`\200[\232"
 608      DBD3C05A 
 608      805F203F 
 608      33D9E45D 
 608      72562B5F 
 609 0378 9BB39F1F 		.ascii	"\233\263\237\0370:\214/Z\262\207z\263\007\332\273\262"
 609      303A8C2F 
 609      5AB2877A 
 609      B307DABB 
 609      B2
 610 0389 DD877AFA 		.ascii	"\335\207z\372z\263-\255;6\177\344\310m\233\373\373\263"
 610      7AB32DAD 
 610      3B367FE4 
 610      C86D9BFB 
 610      FBB3
 611 039b FBFBFBF6 		.ascii	"\373\373\373\366vu\355\333k\364\3664w\202\322\335\323"
 611      7675EDDB 
 611      6BF4F634 
 611      7782D2DD 
 611      D3
 612 03ac FCA1D4DD 		.ascii	"\374\241\324\335\363\032\236\344\210\246"
 612      F31A9EE4 
 612      88A6
 613              		.text
 614              		.section	.gnu.lto_Vector148.41543b5217bcee50,"",%progbits
 615 0000 789CB552 		.ascii	"x\234\265RMhSA\020\236\331}\371\255m\252\"X\004i{\022"
 615      4D685341 
 615      109ED97D 
 615      F9AD6DAA 
 615      22580469 
 616 0016 8309B420 		.ascii	"\203\011\264 \010\202\007\301\203 \012I!z)I\224\366"
 616      088207C1 
 616      83200A49 
ARM GAS  /tmp/ccDPDrPi.s 			page 49


 616      217A2949 
 616      94F6
 617 0028 61A42529 		.ascii	"a\244%)\030\360\320\315\217PD%\210P\177.\355A\220Rl"
 617      18F0D0CD 
 617      8F504425 
 617      88507F2E 
 617      ED419052 
 618 003d F1541031 		.ascii	"\361T\0201x\212H)\352!P\020#x\022\017\025\361\322H\237"
 618      788A4829 
 618      EA215010 
 618      2378120F 
 618      15F1D248 
 619 0052 33EF655F 		.ascii	"3\357e_c\213\230\213\003ow\337\314|\337|\263;\002\004"
 619      638B988B 
 619      036F77DF 
 619      CC7CDF7C 
 619      B33B0204 
 620 0066 ECB423F4 		.ascii	"\354\264#\364\035\364\000\234\344\037\017 e\240\020"
 620      1DF4009C 
 620      E41F0F20 
 620      65A010
 621 0075 12400983 		.ascii	"\022@\011\203\026C\"mh R\030aZH\003\247/\362\017\004"
 621      1643226D 
 621      68205218 
 621      615A4803 
 621      A72FF20F 
 622 008a 07615EA9 		.ascii	"\007a^\251{\215'\315\257\370\360~\265<\247~Y\026\242"
 622      7B8D27CD 
 622      AFF8F07E 
 622      B53CA77E 
 622      5916A2
 623 009d C9C13442 		.ascii	"\311\3014B\202N\330oo\314\324n\016P=\177\252\0026H\232"
 623      824ED86F 
 623      6FCCD46E 
 623      0E503D7F 
 623      AA023648 
 624 00b2 283BC4FC 		.ascii	"(;\304\374\370r\241\246\312U\313:\365\177\353\324\333"
 624      F872A1A6 
 624      CA55CB3A 
 624      F57FEBD4 
 624      DB
 625 00c3 EA7488A9 		.ascii	"\352t\210\251~\254\277\235G\302\0266,+\324\261\274\352"
 625      7EACBF9D 
 625      47C21636 
 625      2C2BD4B1 
 625      BCEA
 626 00d5 A7FA9DBE 		.ascii	"\247\372\235\276[s\305\212\332\242\353\353\274\332\367"
 626      5B73C58A 
 626      DAA2EBEB 
 626      BCDAF7
 627 00e4 D93F6046 		.ascii	"\331?`F\207\215Ym\215y:,\365a\366n\237\332.\345\025"
 627      878D596D 
 627      8D793A2C 
 627      F561F66E 
 627      9FDA2EE5 
 628 00f9 7002FF81 		.ascii	"p\002\377\201\\\022\325\206e\335~\371\363s\023\017t"
 628      5C12D586 
ARM GAS  /tmp/ccDPDrPi.s 			page 50


 628      65DD7EF9 
 628      F373130F 
 628      74
 629 010a 21D07508 		.ascii	"!\320u\010Z\244\344\223\301'\017/^H\342\002\016\202"
 629      5AA4E493 
 629      C1270F2F 
 629      5E48E202 
 629      0E82
 630 011c 8FDD7EF6 		.ascii	"\217\335~\366\004h1\202`\213\243y,+U\351wrl\261dq{\035"
 630      04683182 
 630      608BA379 
 630      2C2B55E9 
 630      77726CB1 
 631 0134 E14995AB 		.ascii	"\341I\225\253P\\Y\241\371K\342\"\001\306\020Y\013\250"
 631      505C59A1 
 631      F94BE222 
 631      01C61059 
 631      0BA8
 632 0146 99B2623D 		.ascii	"\231\262b=\253\360\372\222\216\2100,\2502E}\217\341"
 632      ABF0FA92 
 632      8E88302C 
 632      A832457D 
 632      8FE1
 633 0158 116D7E9D 		.ascii	"\021m~\235l[\012\265pf\\\356\321(\371W>c7\237l\347C"
 633      6C5B0AB5 
 633      70665CEE 
 633      D128F957 
 633      3E63379F 
 634 016f 97AFF4A2 		.ascii	"\227\257\364\242\364\314\025\350!%c\374X\266\377\260"
 634      F4CC15E8 
 634      212563FC 
 634      58B6FFB0 
 635 017f 767B29C2 		.ascii	"v{)\302h)Z\022jM\241c\276\235\032\336,\373\234\230-"
 635      68295A12 
 635      6A4DA163 
 635      BE9D1ADE 
 635      2CFB9C98 
 636 0194 A1A042ED 		.ascii	"\241\240B\355\"|\273\233\"\372V\275WK\2074+\245z\335"
 636      227CBB9B 
 636      22FA56BD 
 636      574B8734 
 636      2BA57ADD 
 637 01a8 8A35287F 		.ascii	"\2125(\177+t\273\241\2043\206\3336\302\277|\331\353"
 637      2B74BBA1 
 637      843386DB 
 637      36C2BF7C 
 637      D9EB
 638 01ba 0FB6DEBB 		.ascii	"\017\266\336\273\275\004\302p\224\036\213J\027\224\352"
 638      BD04C270 
 638      941E8B4A 
 638      1794EA
 639 01c9 35317003 		.ascii	"51p\0036\325\014\237\202\327\354\322\314\023lI\021\356"
 639      36D50C9F 
 639      82D7ECD2 
 639      CC136C49 
 639      11EE
 640 01db 7D14D737 		.ascii	"}\024\3277B\232\"\310-\020\240\353\030,\252\212R\327"
ARM GAS  /tmp/ccDPDrPi.s 			page 51


 640      429A22C8 
 640      2D10A0EB 
 640      182CAA8A 
 640      52D7
 641 01ed 4DDCC32E 		.ascii	"M\334\303.:\306L\354v\272\352\241R\011g\304m*G\032{"
 641      3AC64CEC 
 641      76BAEAA1 
 641      520967C4 
 641      6D2A471A 
 642 0202 42035A61 		.ascii	"B\003Za\012\365\000\256\301\315\352Y\207\237[\247\372"
 642      0AF500AE 
 642      C1CDEA59 
 642      879F5BA7 
 642      FA
 643 0213 2CCBEF88 		.ascii	",\313\357\210j\371\031\333;@C\266W\367Gh\271\006\245"
 643      6AF919DB 
 643      3B4043B6 
 643      57F74768 
 643      B906A5
 644 0226 C6E6550D 		.ascii	"\306\346U\015u\233\331\227n=\246\211\373\001\336A\241"
 644      759BD997 
 644      6E3DA689 
 644      FB01DE41 
 644      A1
 645 0237 D10CEB24 		.ascii	"\321\014\353$\307\342\234\300\015\036\217D\242\247\307"
 645      C7E29CC0 
 645      0D1E8F44 
 645      A2A7C7
 646 0246 CD94793E 		.ascii	"\315\224y>\026\235\310E\307\223\231\350\344Dv*\027\215"
 646      169DC845 
 646      C79399E8 
 646      E444762A 
 646      178D
 647 0258 C5CF0D0F 		.ascii	"\305\317\015\0179\353\231\341|>z%?5\232\311\\\0365s"
 647      39EB99E1 
 647      7C3E7A25 
 647      3F359AC9 
 647      5C1E3573 
 648 026c D9481AE4 		.ascii	"\331H\032\344dv\3507\257X.\316"
 648      6476E837 
 648      AF582ECE 
 649              		.text
 650              		.section	.gnu.lto_ext_lld_exti_irq_enable.41543b5217bcee50,"",%progbits
 651 0000 789C6362 		.ascii	"x\234cb`b@\007\"@\354\307\314\300`\001\342030\002U0"
 651      60624007 
 651      2240ECC7 
 651      CCC06001 
 651      E2303330 
 652 0017 32313202 		.ascii	"212\0029\214\014\365L\214\365\221\214`e\353\231\016"
 652      398C0CF5 
 652      4C8CF591 
 652      8C6065EB 
 652      990E
 653 0029 3CF8FF7F 		.ascii	"<\370\377\177\335\274Y\313\3160\276f\002\211\2612\264"
 653      DDBC59CB 
 653      CE30BE66 
 653      0289B132 
ARM GAS  /tmp/ccDPDrPi.s 			page 52


 653      B4
 654 003a 34344C50 		.ascii	"44LP``H\006\253\010\001\223\241 \375\314\347\031Z\037"
 654      60604806 
 654      AB080193 
 654      A120FDCC 
 654      E7195A1F 
 655 004e CC7CCB95 		.ascii	"\314|\313\225\310\270\220\221\025(X\315\360\253\241"
 655      C8B89091 
 655      152858CD 
 655      F0ABA1
 656 005d A3412093 		.ascii	"\243A \223\021\250\024bZ\004c&##\033\214\312\004i\002"
 656      11A81462 
 656      5A046326 
 656      23231B8C 
 656      CA046902 
 657 0071 EA59308B 		.ascii	"\352Y0\213\227\200\026v\014-\263\011i\341\300\3202\207"
 657      97801676 
 657      0C2DB309 
 657      69E1C0D0 
 657      3287
 658 0083 90164E0C 		.ascii	"\220\026N\014-s\011i\341\302\3202\217\220\026q\014-"
 658      2D730969 
 658      E1C2D032 
 658      8F901671 
 658      0C2D
 659 0095 F30969D1 		.ascii	"\363\011i\321\300\320\262\202\220\026F\014-+\011i\321"
 659      C0D0B282 
 659      9016460C 
 659      2D2B0969 
 659      D1
 660 00a6 C4D0B29A 		.ascii	"\304\320\262\232\220\026\037\014-k\011ia\302\320\262"
 660      90161F0C 
 660      2D6B0969 
 660      61C2D0B2 
 661 00b6 8E901666 		.ascii	"\216\220\026f\014-\353\011iq\300\320\262\203\220\026"
 661      0C2DEB09 
 661      6971C0D0 
 661      B2839016 
 662 00c6 470C2DBB 		.ascii	"G\014-\273\010iqB\321r\221\241\361\301\036]\230\026"
 662      08697142 
 662      D17291A1 
 662      F1C11E5D 
 662      9816
 663 00d8 08080129 		.ascii	"\010\010\001)\007e>3==}\347\214\314\244L\377`\375\374"
 663      07653E33 
 663      3D3D7DE7 
 663      8CCCA44C 
 663      FF60FDFC 
 664 00ec 62FD8CC4 		.ascii	"b\375\214\304\034\375\202\374\242\222b\375\340\020_"
 664      1CFD82FC 
 664      A29262FD 
 664      E0105F
 665 00fb 632308E9 		.ascii	"c#\010\351f\\Q\241\237ZQ\022\237\223\223\022\237Y\\"
 665      665C51A1 
 665      9F5A5112 
 665      9F939312 
 665      9F595C
ARM GAS  /tmp/ccDPDrPi.s 			page 53


 666 010e A497CC00 		.ascii	"\244\227\314\000\000Id\266\003"
 666      004964B6 
 666      03
 667              		.text
 668              		.section	.gnu.lto_ext_lld_exti_irq_disable.41543b5217bcee50,"",%progbits
 669 0000 789C6362 		.ascii	"x\234cb`b@\007\"@\374\024(l\001\342030\002\231\214L"
 669      60624007 
 669      2240FC14 
 669      286C01E2 
 669      30333002 
 670 0017 8C8C400E 		.ascii	"\214\214@\016#C=\023c}$#X\331z\246\003\017\376\377_"
 670      23433D13 
 670      637D2423 
 670      58D97AA6 
 670      030FFEFF 
 671 002c 37EDF6B2 		.ascii	"7\355\366\262\036\306\367L 1V\206\226\206\206\011\012"
 671      1EC6F74C 
 671      20315686 
 671      96868609 
 671      0A
 672 003d 0C0CC960 		.ascii	"\014\014\311`\025!`2\024\244\237\371<C\313\203\263\275"
 672      15216032 
 672      14A49FF9 
 672      3C43CB83 
 672      B3BD
 673 004f DC898C0B 		.ascii	"\334\211\214\013\031Y\201\202\325\014\277\032:\032\004"
 673      19598182 
 673      D50CBF1A 
 673      3A1A04
 674 005e 3219814A 		.ascii	"2\031\201J!\246E0f22\2621d\202T\003\025/8\307K@-;B\355"
 674      21A64530 
 674      663232B2 
 674      31648254 
 674      03152F38 
 675 0079 79426A39 		.ascii	"yBj9\020jo\020R\313\211P{\223\220Z.\204\332[\204\324"
 675      106A6F10 
 675      52CB8950 
 675      7B93905A 
 675      2E84DA5B 
 676 008f 8A23D4DE 		.ascii	"\212#\324\336&\244V\003\241\366\016!\265\214\010\265"
 676      26A45603 
 676      A1F60E21 
 676      B58C08B5 
 677 009f 7709A9D5 		.ascii	"w\011\251\325D\250\275OH\255\017B\355KBj\231\020j_\021"
 677      44A8BD4F 
 677      48AD0F42 
 677      ED4B426A 
 677      99106A5F 
 678 00b4 52CB8C50 		.ascii	"R\313\214P\373\232\220Z\007\204\3327\204\324:\"\324"
 678      FB9A905A 
 678      0784DA37 
 678      84D43A22 
 678      D4
 679 00c5 BE23A4D6 		.ascii	"\276#\244\326\011\242\366\"C\343\203\037\2720\265\020"
 679      09A2F622 
 679      43E3831F 
 679      BA30B510 
ARM GAS  /tmp/ccDPDrPi.s 			page 54


 680 00d5 10025207 		.ascii	"\020\002R\007\312\023fzz\372\316\031\231I\231\376\301"
 680      CA13667A 
 680      7AFACE19 
 680      994999FE 
 680      C1
 681 00e6 FAF9C5FA 		.ascii	"\372\371\305\372\031\2119\372\005\371E%\305\372\301"
 681      198939FA 
 681      05F94525 
 681      C5FAC1
 682 00f5 21BEC646 		.ascii	"!\276\306F\020\322\315\270\242B?\265\242$>''%>\263\270"
 682      10D2CDB8 
 682      A2423FB5 
 682      A2243E27 
 682      27253EB3 
 683 010a 482F9901 		.ascii	"H/\231\001\000\314=\255\322"
 683      00CC3DAD 
 683      D2
 684              		.text
 685              		.section	.gnu.lto_.symbol_nodes.41543b5217bcee50,"",%progbits
 686 0000 789C4DCD 		.ascii	"x\234M\315;N\303@\020\306\361\361\254\235\315\313N\342"
 686      3B4EC340 
 686      10C6F1F1 
 686      AC9DCDCB 
 686      4EE2
 687 0012 D07333AE 		.ascii	"\320s3\2562\221,\001\002\011B\302\373\015\346\006\034"
 687      32912C01 
 687      020942C2 
 687      FB0DE606 
 687      1C
 688 0023 617B1A24 		.ascii	"a{\032$j\220[:z\304\356\316'\262i\376\371yF;LL;\206"
 688      6A905B3A 
 688      7AC4EECE 
 688      27B269FE 
 688      F979463B 
 689 003b F4C74B16 		.ascii	"\364\307K\026\242\345\033\221\310\307~V<\261\377G|\302"
 689      A2E51B91 
 689      C8C77E56 
 689      3CB1FF47 
 689      7CC2
 690 004d 926DBEF2 		.ascii	"\222m\276\362\212\205\023\256YL\302S\226<\341\031K\221"
 690      8A8513AE 
 690      594CC253 
 690      963CE119 
 690      4B91
 691 005f F09CA597 		.ascii	"\360\234\245\227\360\202\305&\274d\351'\274b\031$\274"
 691      F082C526 
 691      BC64E927 
 691      BC621924 
 691      BC
 692 0070 661926BC 		.ascii	"f\031&\274a\031%\274e\031'\274c)\023\336\263T\011\037"
 692      611925BC 
 692      651927BC 
 692      632913DE 
 692      B354091F 
 693 0084 5826091F 		.ascii	"X&\011\037Y\246\033f\317,3\345b\221e-K\275\321\013\313"
 693      59A61B66 
 693      CF2C33E5 
ARM GAS  /tmp/ccDPDrPi.s 			page 55


 693      6291652D 
 693      4BBDD10B 
 694 0099 FC5F866A 		.ascii	"\374_\206jj\367\276\267s\242\265\217a\220\225\0064\312"
 694      6AF7BEB7 
 694      73A2B58F 
 694      61909506 
 694      34CA
 695 00ab 1CCC9505 		.ascii	"\034\314\225\005X({\236+\317^\244\317\353A\314\373a"
 695      58287B9E 
 695      2BCF5EA4 
 695      CFEB41CC 
 695      FB61
 696 00bd CCCF91CE 		.ascii	"\314\317\221\316\374\212\2615\271\265\247\325U\253\253"
 696      FC8AB135 
 696      B9B5A7D5 
 696      55ABAB
 697 00cc 5657ADAE 		.ascii	"VW\255\256\332\270\032f~\323\364q\253\257\267\006\340"
 697      DAB81A66 
 697      7ED3F471 
 697      ABAFB706 
 697      E0
 698 00dd 40390487 		.ascii	"@9\004\207\312\0218R\216\301\261\262\254\251\013wJ="
 698      CA113852 
 698      8EC1B1B2 
 698      ACA90B77 
 698      4A3D
 699 00ef 5EEAF132 		.ascii	"^\352\3612\0367\225\037\036{V:\254tX\321\273\377h&x"
 699      1E37951F 
 699      1E7B563A 
 699      AC7458D1 
 699      BBFF6826 
 700 0104 68A20F4D 		.ascii	"h\242\017M\347\324|\376f\241-\352\320\016m\2760G\035"
 700      E7D47CFE 
 700      66A12DEA 
 700      D00E6DBE 
 700      30471D
 701 0117 DAA1CDAE 		.ascii	"\332\241\315\256\276\323\242\016\355\320\006wZ\324\205"
 701      BED3A20E 
 701      EDD00677 
 701      5AD485
 702 0126 CEB6F4AE 		.ascii	"\316\266\364\256o\213:\264C\343\3350G\035\332\241\361"
 702      6F8B3AB4 
 702      43E3DD30 
 702      471DDAA1 
 702      F1
 703 0137 6E98A30E 		.ascii	"n\230\243\016\355\320\006wZ4\334\245?d\231\021U"
 703      EDD00677 
 703      5A34DCA5 
 703      3F649911 
 703      55
 704              		.text
 705              		.section	.gnu.lto_.refs.41543b5217bcee50,"",%progbits
 706 0000 789C6DCB 		.ascii	"x\234m\313\321\016@@\014D\321\331A\261\226\375t\277"
 706      D10E4040 
 706      0C44D1D9 
 706      41B196FD 
 706      74BF
ARM GAS  /tmp/ccDPDrPi.s 			page 56


 707 0012 2CBD5E10 		.ascii	",\275^\020Mz2i:\226u\352\036K\305\305\306\001G\234\322"
 707      4D7A3269 
 707      3A9675EA 
 707      1E4BC5C5 
 707      C601479C 
 708 0027 1AE977DB 		.ascii	"\032\351w\333\374w\245\265\340\212\0257li\354\317\337"
 708      FC77A5B5 
 708      E08A1537 
 708      6C69ECCF 
 708      DF
 709 0038 385ECD4E 		.ascii	"8^\315N\272\000\240b\001\263"
 709      BA00A062 
 709      01B3
 710              		.text
 711              		.section	.gnu.lto_.decls.41543b5217bcee50,"",%progbits
 712 0000 789CC598 		.ascii	"x\234\305\230\177l\024\307\025\307g\366\316?\016\\b"
 712      7F6C14C7 
 712      15C767F6 
 712      CE3F0E5C 
 712      62
 713 0011 50481CA9 		.ascii	"PH\034\251-\227T\251\332T\346\360\331I\315\037I\241"
 713      2D9754A9 
 713      DA54E6F0 
 713      D949CD1F 
 713      49A1
 714 0023 E74B6329 		.ascii	"\347Kc)&\350lh\244V:\255\357\026|\352\375 w\207\353"
 714      26E86C68 
 714      A4563AAD 
 714      EF167CEA 
 714      FD207787 
 715 0038 FCC56213 		.ascii	"\374\305b\023\227\244mdh iB\203\015\001\352\324\221"
 715      97A46D64 
 715      68206942 
 715      830D01EA 
 715      D491
 716 004a 8B1129C4 		.ascii	"\213\021)\304\340\036\324`j\304\217\326\021\230\220"
 716      E01ED460 
 716      6AC48FD6 
 716      119890
 717 0059 5037416D 		.ascii	"P7AmD\032J(\024\004\264\3277\263\273\267\273s\273\353"
 717      441A4A28 
 717      1404B4D7 
 717      37B3BBB7 
 717      BB73BBEB 
 718 006d BD46ED9D 		.ascii	"\275F\355\235\364\346\346f\347}\346\373ff\337\214\315"
 718      F4E6E666 
 718      E77DE6FB 
 718      6666DF8C 
 718      CD
 719 007e 210E7DDF 		.ascii	"!\016}\337\205P\026>/V!4\323\211\320\034\204\320cH\375"
 719      8550163E 
 719      2F562134 
 719      D389D01C 
 719      84D06348 
 720 0093 DC0DD607 		.ascii	"\334\015\326\007\266\023\254\037l\000l\020l\010l/\330"
 720      B613AC1F 
 720      6C006C10 
ARM GAS  /tmp/ccDPDrPi.s 			page 57


 720      6C086C2F 
 720      D8
 721 00a4 3EB061B0 		.ascii	">\260a\260\021\260C`\243`c`\343`'\300N\203M\200\235"
 721      11B04360 
 721      A3606360 
 721      E36027C0 
 721      4E834D80 
 722 00b9 019B04FB 		.ascii	"\001\233\004\373\010\014\203\375\025\351?}\362X_\204"
 722      080C83FD 
 722      15E93F7D 
 722      F2585F84 
 723 00c9 87B3E0BB 		.ascii	"\207\263\340\273\002\254\014\3546\330\\h;\017\337_\201"
 723      02AC0CEC 
 723      36D85C68 
 723      3B0FDF5F 
 723      81
 724 00da EF2F817D 		.ascii	"\357/\201}\014\365Y\360\375-\260E`\213\301\356@\033"
 724      0CF559F0 
 724      FD2DB045 
 724      608BC1EE 
 724      401B
 725 00ec C8479550 		.ascii	"\310G\225P\257\000\3736\3306\370]\002V\015\365\007\300"
 725      AF00FB36 
 725      D836F85D 
 725      02560DF5 
 725      07C0
 726 00fe 6E91B1E1 		.ascii	"n\221\261\341{\006\030'\217y\306D\317\316\"\350\331"
 726      7B061827 
 726      8F79C644 
 726      CFCE22E8 
 726      D9
 727 010f 69A1A7BF 		.ascii	"i\241\247\277\010z\372-\364\014\024A\317\200\205\236"
 727      087AFA2D 
 727      F40C1441 
 727      CF80859E 
 728 011f C122E819 		.ascii	"\301\"\350\031\264\3203T\004=C\026z\366\026A\317^\013"
 728      B4D03354 
 728      043D4316 
 728      7AF61641 
 728      CF5E0B
 729 0132 3DFB8AA0 		.ascii	"=\373\212\240g\237\205\236\341\"\350\031\266\3203R\004"
 729      679F859E 
 729      E122E819 
 729      B6D03352 
 729      04
 730 0143 3D23167A 		.ascii	"=#\026z\016\025A\317!\013=\243E\3203j\241g\254\010z"
 730      0E1541CF 
 730      210B3DA3 
 730      45D0336A 
 730      A167AC08 
 731 0158 C62CF490 		.ascii	"\306,\364\220\363w\256\205\036\337\347\320Tf\242\351"
 731      F377AE85 
 731      1EDFE7D0 
 731      5466A2E9 
 732 0168 51B05A59 		.ascii	"Q\260ZY\333\270\205\266\023\377\303\271z\324d\256NX"
 732      DBB885B6 
 732      13FFC3B9 
ARM GAS  /tmp/ccDPDrPi.s 			page 58


 732      7AD464AE 
 732      4E58
 733 017a E8217714 		.ascii	"\350!w\024\007X\203<\3669\271\235\223\237M\242\374\317"
 733      0758833C 
 733      F639B99D 
 733      939F4DA2 
 733      FCCF
 734 018c 84ECE397 		.ascii	"\204\354\343\227}.j|\310\263\217\014|\346\241\327\305"
 734      7D2E6A7C 
 734      C8B38F0C 
 734      7CE6A1D7 
 734      C5
 735 019d DECCD48E 		.ascii	"\336\314\324\216\013\307\260\270Q\274\223\315v9\321"
 735      0BC7B0B8 
 735      51BC93CD 
 735      7639D1
 736 01ac 3D689308 		.ascii	"=h\223\010\237\336nQ\304i\036?6\027=\215y<\313\205\334"
 736      9FDE6E51 
 736      C4691E3F 
 736      36173D8D 
 736      793CCB85 
 737 01c1 B452E1A2 		.ascii	"\264R\341\242\221\"\304\343m\370\036\271\266\314\241"
 737      9122C4E3 
 737      6DF81EB9 
 737      B6CCA1
 738 01d0 8CB510A3 		.ascii	"\214\265\020\243\207P?\370\367\210\342a\022\266\301"
 738      87503FF8 
 738      F788E261 
 738      12B6C1
 739 01df E7AB6807 		.ascii	"\347\253h\007\031A\374\245\350\240|B\350\303\363\264"
 739      1941FCA5 
 739      E8A07C42 
 739      E8C3F3B4 
 740 01ef 5D78BC1D 		.ascii	"]x\274\035s\371J3\357\034\255\350Y;\225\315nuK\303s"
 740      73F94A33 
 740      EF1CADE8 
 740      593B95CD 
 740      6E754BC3 
 741 0204 A81143E7 		.ascii	"\250\021C\3477\360C\226\364\235,}\227!}\343\030K\017"
 741      37F04396 
 741      F49D2C7D 
 741      97217DE3 
 741      184B0F
 742 0217 D8A1F7B3 		.ascii	"\330\241\367\263\3647\015\351\357\345\321\277g\207>"
 742      F4370DE9 
 742      EFE5D1BF 
 742      67873E
 743 0226 C0D2DF32 		.ascii	"\300\322\3372\244\017\215\263\364\260\035\372 K\377"
 743      A40F8DB3 
 743      F4B01DFA 
 743      204BFF
 744 0235 B521FD56 		.ascii	"\265!\375V\036=f\207>\304\322\367\030\322\257\035g\351"
 744      1E3D6687 
 744      3EC4D2F7 
 744      18D2AF1D 
 744      67E9
 745 0247 ED76E87B 		.ascii	"\355v\350{Y\372\333\206\364\253'Y\372\032;\364},}\277"
ARM GAS  /tmp/ccDPDrPi.s 			page 59


 745      59FADB86 
 745      F4AB2759 
 745      FA1A3BF4 
 745      7D2C7DBF 
 746 025b F18E3CC5 		.ascii	"\361\216<\305\322\327c;\370a\026\177\300xK\376\221\305"
 746      D2D7633B 
 746      F861167F 
 746      C0784BFE 
 746      91C5
 747 026d 6FB0851F 		.ascii	"o\260\205\037a\361\2775\336\223y\370Wm\341\017\261\370"
 747      61F1BF35 
 747      DE9379F8 
 747      576DE10F 
 747      B1F8
 748 027f C3C69B72 		.ascii	"\303\306\233r\202\305o\267\205\037e\361G\214we\036~"
 748      82C56FB7 
 748      851F65F1 
 748      478C7765 
 748      1E7E
 749 0291 C0167E8C 		.ascii	"\300\026~\214\305\0373\236\2343,\376m[\370q\026\177"
 749      C51F339E 
 749      9C332CFE 
 749      6D5BF871 
 749      167F
 750 02a3 DC107FFA 		.ascii	"\334\020\177\372,\213\317\330\302\237`\361'\015\361"
 750      2C8BCFD8 
 750      C29F60F1 
 750      270DF1
 751 02b2 5B5F3DAE 		.ascii	"[_=\256&ue\204q[#\234fG\370\203\341\010\233\317\263"
 751      26756584 
 751      715B239C 
 751      6647F883 
 751      E1089BCF 
 752 02c7 017C680B 		.ascii	"\001|h\013?\301\342\337\315\307O\365L\3358\365\367\347"
 752      3FC1E2DF 
 752      CDC74FF5 
 752      4CDD38F5 
 752      F7E7
 753 02d9 F086AEDE 		.ascii	"\360\206\256\336c\342\225l\366\256\\\010\2738v\014\011"
 753      63E2956C 
 753      F6AE5C08 
 753      BB38760C 
 753      09
 754 02ea 72D61072 		.ascii	"r\326\020r\355g\247\360\317\305\303\353\304lvM\001G"
 754      ED67A7F0 
 754      CFC5C3EB 
 754      C46C764D 
 754      0147
 755 02fc DB39F968 		.ascii	"\3339\371hs\320\343\023\271\320zQ\354$\216O\034\203"
 755      73D0E313 
 755      B9D07A51 
 755      EC248E4F 
 755      1C83
 756 030e FB8191D7 		.ascii	"\373\201\221\327\203\350\0158\364\246v\277|\344\020"
 756      83E80D38 
 756      F4A676BF 
 756      7CE410
ARM GAS  /tmp/ccDPDrPi.s 			page 60


 757 031d EE043E8F 		.ascii	"\356\004>\217\317c\027x\277\357\320\313\265\217zm\353"
 757      CF631778 
 757      BFEFD0CB 
 757      B58F7A6D 
 757      EB
 758 032e 8185A258 		.ascii	"\201\205\242X\316\343\013\024t\311\251\007\361\270\314"
 758      CEE30B14 
 758      74C9A907 
 758      F1B8CC
 759 033d A59F01F8 		.ascii	"\245\237\001\370\255t 4\372X\256\220\177\250\334\205"
 759      AD742034 
 759      FA58AE90 
 759      7FA8DC85 
 760 034d 0AED2E47 		.ascii	"\012\355.G/\205\202\264\007=\"g\375u\247\361J|h\270"
 760      2F8582B4 
 760      073D2267 
 760      FD75A7F1 
 760      4A7C68B8 
 761 0361 12D7274E 		.ascii	"\022\327'N\255\325,\247\375\265\270\250_\013I\015#\245"
 761      ADD52CA7 
 761      FDB5B8A8 
 761      5F0B490D 
 761      23A5
 762 0373 BBC458CA 		.ascii	"\273\304X\312_\364R\036@}D\312g\2272_\177\263S\\\367"
 762      5FF4521E 
 762      407D44CA 
 762      6797325F 
 762      7FB3535C 
 763 0388 BC28DECC 		.ascii	"\274(\336\314\342\254c\016\332@\264\2705\013\262HQQ"
 763      E2AC630E 
 763      DA40B4B8 
 763      350BB248 
 763      5151
 764 039a AE2EC8FE 		.ascii	"\256.\310\376\313\231\373\336\021\305J\036\177\214\347"
 764      CB99FBDE 
 764      11C54A1E 
 764      7F8CE7
 765 03a9 C0A09F32 		.ascii	"\300\240\2372\203\312\230\336Ef\034\036_\002=<\376\004"
 765      83CA98DE 
 765      45661C1E 
 765      5F023D3C 
 765      FE04
 766 03bb DC25474A 		.ascii	"\334%GJ\026A\320\344\227_\241d\362\010\031\204\"\177"
 766      1641D0E4 
 766      975FA164 
 766      F2081984 
 766      227F
 767 03cd EE47BDB0 		.ascii	"\356G\275\260{2\177\032{\375^q*\203\313P7\331LS\317"
 767      7B327F1A 
 767      7BFD5E71 
 767      2A83CB50 
 767      37D94C53 
 768 03e2 7556BDA2 		.ascii	"uV\275\242\216Y\256\214\211\265\332'\253\272\350\266"
 768      8E59AE8C 
 768      89B5DA27 
 768      ABBAE8B6 
 769 03f2 BC0C5E1C 		.ascii	"\274\014^\034\272\301h\267A\"\262>\003g\255\362L\366"
ARM GAS  /tmp/ccDPDrPi.s 			page 61


 769      BAC168B7 
 769      4122B23E 
 769      0367ADF2 
 769      4CF6
 770 0404 59B7D46A 		.ascii	"Y\267\324j!\232.\034\207:K1\3059]j\333O\3256\254\351"
 770      219A2E1C 
 770      873A4B31 
 770      C5395D6A 
 770      DB4FD536 
 771 041a BA596D56 		.ascii	"\272YmV\326\217\374\304.\265\222\325\337-\265\322x|"
 771      D68FFCC4 
 771      2EB592D5 
 771      DF2DB5D2 
 771      787C
 772 042c 153F08E5 		.ascii	"\025?\010\345?\260\303\320\215C}\245X^\006\243@\345"
 772      3FB0C3D0 
 772      8D437DA5 
 772      585E06A3 
 772      40E5
 773 043e AA3AEEAC 		.ascii	"\252:\356\254\334\213&\315?Y\257y#C\242\370|\351L\364"
 773      DC8B26CD 
 773      3F59AF79 
 773      2343A2F8 
 773      7CE94CF4 
 774 0452 82FA3A2B 		.ascii	"\202\372:+\033\000\346Y\263\005\304\331\012\261\207"
 774      1B00E659 
 774      B305C4D9 
 774      0AB187
 775 0461 CB2D48E6 		.ascii	"\313-H\346\340\030v\033\354;\2463\217\377\005\241L\337"
 775      E018761B 
 775      EC3BA633 
 775      8FFF05A1 
 775      4CDF
 776 0473 8FF4CC32 		.ascii	"\217\364\3142\273*\263{\254BtJ\355\323m)1\263\177l\013"
 776      BB2AB37B 
 776      AC42744A 
 776      EDD36D29 
 776      31B37F6C 
 777 0488 167B0FE3 		.ascii	"\026{\017\343\331\250G\036k\332\355,G\262\011\"\341"
 777      D9A8471E 
 777      6BDAED2C 
 777      47B20922 
 777      E1
 778 0499 7117475E 		.ascii	"q\027G^\211]\245\005\276\022DX7\307\010\377\340(\025"
 778      895DA505 
 778      BE124458 
 778      37C708FF 
 778      E02815
 779 04ac 4EDAA77F 		.ascii	"N\332\247\177\027\256\037\335r\037\021\256$\334}T\002"
 779      17AE1FDD 
 779      721F11AE 
 779      24DC7D54 
 779      02
 780 04bd F1354A28 		.ascii	"\3615J(\323\256-\375#\200\327-\253\375T\365\023N\227"
 780      D3AE2DFD 
 780      2380D72D 
 780      ABFD54F5 
ARM GAS  /tmp/ccDPDrPi.s 			page 62


 780      134E97
 781 04d0 AA741429 		.ascii	"\252t\024)k\230y\276\310\315\324\275.\005\034\024\231"
 781      6B9879BE 
 781      C8CDD4BD 
 781      2E051C14 
 781      99
 782 04e1 3DDD73C9 		.ascii	"=\335s\311t\365p$\374\203\245\3541!'o\365M\261uN\350"
 782      74F57024 
 782      FC83A5EC 
 782      3121276F 
 782      F54DB175 
 783 04f7 12ACC5E0 		.ascii	"\022\254\305\340\023\335w\223\301\177\014\372\341z\301"
 783      13DD7793 
 783      C17F0CFA 
 783      E17AC1
 784 0506 0CCE4C00 		.ascii	"\014\316L\000\231\036\263\011\330\004\000\343\245\316"
 784      991EB309 
 784      D80400E3 
 784      A5CE
 785 0514 7BC6A1C9 		.ascii	"{\306\241\311\202\327\330m\264\203\024\276\272\001y"
 785      82D7D86D 
 785      B48314BE 
 785      BA0179
 786 0523 FC238EA4 		.ascii	"\374#\216\244\216\365\334\375P\276\000%;\007\006/^'"
 786      8EF5DCFD 
 786      50BE0025 
 786      3B07062F 
 786      5E27
 787 0535 371BE556 		.ascii	"7\033\345VL\314E\013]\314\202}\231s\345\230\025.\265"
 787      4CCC450B 
 787      5DCC827D 
 787      9973E598 
 787      152EB5
 788 0548 A20CC7A1 		.ascii	"\242\014\307\241\3634\302\254\272c\230q-\366\261&0)"
 788      F334C2AC 
 788      BA639871 
 788      2DF6B126 
 788      3029
 789 055a 249186B4 		.ascii	"$\221\206\264V\033\014\207.\346\355\023)Oh\274\325\204"
 789      561B0C87 
 789      2EE6ED13 
 789      294F68BC 
 789      D584
 790 056c 82587FB3 		.ascii	"\202X\177\263\300n\343\3346\346\320e6\313~\276UROM\036"
 790      C06EE3DC 
 790      36E6D065 
 790      36CB7EBE 
 790      55524F4D 
 791 0581 FF8D26F8 		.ascii	"\377\215&\370O1Y\245[X\027\330\365\\`f\371\3465.w)0"
 791      4F3159A5 
 791      5B5817D8 
 791      F55C6066 
 791      F9E6352E 
 792 0598 4ADFDA34 		.ascii	"J\337\3324\233q(\316\365(w\226\336\2701\325&]\361~A"
 792      9B7128CE 
 792      F5287796 
 792      DEB831D5 
ARM GAS  /tmp/ccDPDrPi.s 			page 63


 792      265DF17E 
 793 05ad 93DE6099 		.ascii	"\223\336`\231a\3223\347\020\021\275l\322;w\226&\275"
 793      61D233E7 
 793      1011BD6C 
 793      D23B7796 
 793      26BD
 794 05bf DEE993DE 		.ascii	"\336\351\223\336\272\256\314\007g_\242I\217n\271.\313"
 794      BAAECC07 
 794      675FA249 
 794      8F6EB92E 
 794      CB
 795 05d0 24C1E3F7 		.ascii	"$\301\343\367\351dM\377\326s\350\000\215\244\367\277"
 795      E9644DFF 
 795      D673E800 
 795      8DA4F7BF 
 796 05e0 CB9D20EB 		.ascii	"\313\235 \353\002\374I\303\363x;\315D\231\202an\035"
 796      02FC49C3 
 796      F3783BCD 
 796      44998261 
 796      6E1D
 797 05f2 EC8A1636 		.ascii	"\354\212\0266j\007Vn\256\354\252\026\366\373\202aze"
 797      6A07566E 
 797      AEECAA16 
 797      F6FB8261 
 797      7A65
 798 0604 D7B4B093 		.ascii	"\327\264\260\223v`\225\346\312\376\251\205\275[0L\243"
 798      766095E6 
 798      CAFEA985 
 798      BD5B304C 
 798      A3
 799 0615 0C0EAF9B 		.ascii	"\014\016\257\233\022L:\011\317\332\201U\231(\003\330"
 799      124C3A09 
 799      CFDA8155 
 799      992803D8 
 800 0625 2D2DECCF 		.ascii	"--\354\317\005\303\364svG\033\346'v`n\3639\373\267\026"
 800      05C3F473 
 800      76471BE6 
 800      2776606E 
 800      F339FBB7 
 801 063a 76A56098 		.ascii	"v\245`\230^Y\317{\032\330u;\260\257\231+\333\250\205"
 801      5E59CF7B 
 801      1AD8753B 
 801      B0AF992B 
 801      DBA885
 802 064d DD2E18A6 		.ascii	"\335.\030\246W\366\222\026\266\266\334\006l\201\271"
 802      57F69216 
 802      B6B6DC06 
 802      6C81B9
 803 065c B2CD5AD8 		.ascii	"\262\315Z\330\372\202and\372\321&3\036\367\321\323f"
 803      FA82616E 
 803      64FAD126 
 803      331EF7D1 
 803      D366
 804 066e 1B3D4077 		.ascii	"\033=@w\320r\027-\373i\371+Z\276E\313AZ\356\246\345"
 804      D072172D 
 804      FB69F92B 
 804      5ABE45CB 
ARM GAS  /tmp/ccDPDrPi.s 			page 64


 804      415AEEA6 
 805 0683 1E5AEEA5 		.ascii	"\036Z\356\245\345oh\271\237\226\303\264<h\347\354\331"
 805      E56F68B9 
 805      9F96C3B4 
 805      3C68E7EC 
 805      D9
 806 0694 A25EA172 		.ascii	"\242^\241ri=S\350\275C\271\260ftWx\346\257\270u4D\365"
 806      693D53E8 
 806      BD43B9B0 
 806      66745778 
 806      E6AFB875 
 807 06ab D6808C6F 		.ascii	"\326\200\214o\014\352U\232\307\031\316\354$\327\336"
 807      0CEA559A 
 807      C719CEEC 
 807      24D7DE
 808 06ba 20D49B01 		.ascii	" \324\233\001{u\"\377\3730\013\341\260\032\270\356\012"
 808      7B7522FF 
 808      FB300BE1 
 808      B01AB8EE 
 808      0A
 809 06cb 623E55BF 		.ascii	"b>U\277\323\334?H\235\370\334$\247\000^\2434\221_ey"
 809      D3DC3F48 
 809      9DF8DC24 
 809      A7005EA3 
 809      34915F65 
 810 06e0 32CE59C8 		.ascii	"2\316Y\310\0305\230\177\311\353\242\205\327\021\325"
 810      1835987F 
 810      C9EBA285 
 810      D711D5
 811 06ef 0B3D327F 		.ascii	"\013=2\177\276\307\327\026i\215<\325\354I\244<m|\324"
 811      BEC7D716 
 811      698D3CD5 
 811      EC49A43C 
 811      6D7CD4
 812 0702 B32A914C 		.ascii	"\263*\221L\247<\315-M\265^\251|\274\266\243\303#t\244"
 812      A73CCD2D 
 812      4DB55EA9 
 812      7CBCB6A3 
 812      C32374A4 
 813 0716 83D16838 		.ascii	"\203\321h8\030I%\347\207P\371r!\224N$\037\256/\375\316"
 813      184925E7 
 813      8750F972 
 813      21944E24 
 813      1FAE2FFD 
 814 072b 92656E5F 		.ascii	"\222en_\356\267O\256<\262@\251\324)\225z\271\262P\351"
 814      EEB74FAE 
 814      3CB240A9 
 814      D429957A 
 814      B9B250E9 
 815 073f E357FAD4 		.ascii	"\343W\372\324)}\374\271\212\322\271.W\361\271\244JM"
 815      297DFCB9 
 815      8AD2B92E 
 815      57F1B9A4 
 815      4A4D
 816 0751 DD825CAD 		.ascii	"\335\202\\\255.W\253\277W\321\007\337\221`$\371LP\210"
 816      2E57ABBF 
 816      57D107DF 
ARM GAS  /tmp/ccDPDrPi.s 			page 65


 816      916024F9 
 816      4C5088
 817 0764 F3AD51A1 		.ascii	"\363\255Q\241*\257=\034I\221\007\337\320\007\236L\313"
 817      2AAF3D1C 
 817      499107DF 
 817      D0079E4C 
 817      CB
 818 0775 712F0E34 		.ascii	"q/\0164\371\232:<\241\266P\")\004\333\277\031\233\337"
 818      F99A3A3C 
 818      A1B65022 
 818      2904DBBF 
 818      199BDF
 819 0788 86E604C9 		.ascii	"\206\346\004\3113\211\272*\022M\254\\-T\233\315[(\021"
 819      3389BA2A 
 819      124DAC5C 
 819      2D549BCD 
 819      5B2811
 820 079b 8B25E20A 		.ascii	"\213%\342\012&\336\036\011\001 \345\211\257\240\366"
 820      26DE1E09 
 820      0120E589 
 820      AFA0F6
 821 07aa B0A72D11 		.ascii	"\260\247-\021\023<I!%\360\311P\033\370%\303?\344\223"
 821      133C4921 
 821      25F0C950 
 821      1BF825C3 
 821      3FE493
 822 07bd 82874FC6 		.ascii	"\202\207O\306\274\236\225\241P5T\252\205X\253\020\016"
 822      BC9E95A1 
 822      503554AA 
 822      8558AB10 
 822      0E
 823 07ce 0BE1     		.ascii	"\013\341"
 824 07d0 5C433C11 		.ascii	"\\C<\021\027\252\005\2765R]\027\254\257\366.\250\251"
 824      17AA05BE 
 824      35525D17 
 824      ACAFF62E 
 824      A8A9
 825 07e2 7BC6EBD1 		.ascii	"{\306\353\321=\360D\342\241\350\352\260\340I\245\303"
 825      3DF044E2 
 825      A1E8EAB0 
 825      E049A5C3 
 826 07f2 91781AC6 		.ascii	"\221x\032\306,_\015\337\265\336`\272\013\377\377F\217"
 826      2C5F0DDF 
 826      B5DE60BA 
 826      0BFFFF46 
 826      8F
 827 0803 F1A1B648 		.ascii	"\361\241\266H\\\360\004\303\302\012~u4\035L?\273JH\201"
 827      5CF004C3 
 827      C20A7E75 
 827      341D4C3F 
 827      BB4A4881 
 828 0817 9A19C1A0 		.ascii	"\232\031\301\240\242\247\222L\212\237\256\216\264|\263"
 828      A2A7924C 
 828      8A9FAE8E 
 828      B47CB3
 829 0826 494383B4 		.ascii	"IC\203\264,RK\255\365\256|\362\311\006\217\377\351\226"
 829      2C524BAD 
ARM GAS  /tmp/ccDPDrPi.s 			page 66


 829      F5AE7CF2 
 829      C9068FFF 
 829      E996
 830 0838 C6F61A65 		.ascii	"\306\366\032e[\302\010\356|\037E\025t\202\016.piHF\332"
 830      5BC208EE 
 830      7C1F4515 
 830      74820E2E 
 830      70694846 
 831 084d 85E40C68 		.ascii	"\205\344\014hH\245\371\264\020L\317\200\306\340\262"
 831      48A5F9B4 
 831      104CCF80 
 831      C6E0B2
 832 085c 258D4B1A 		.ascii	"%\215K\032[\312I\265\271\345\251\245\264m\261\257\245"
 832      5BCA49B5 
 832      B9E5A9A5 
 832      B46DB1AF 
 832      A5
 833 086d 71B9BF84 		.ascii	"q\271\277\204v\253\204\006_\033\037\217\013Q_\"\276"
 833      76AB8406 
 833      5F1B1F8F 
 833      0B515F22 
 833      BE
 834 087e 22B2D219 		.ascii	"\"\262\322\031K\204\205\012\241cUHj\015\246\277\000"
 834      4B84850A 
 834      A1635548 
 834      6A0DA6BF 
 834      00
 835 088f C8101F8D 		.ascii	"\310\020\037\215\266\362\241\037\004\323\\\250\265\\"
 835      B6F2A11F 
 835      04D35CA8 
 835      B55C
 836 089d 7E9422C3 		.ascii	"~\224\"\303J^\245!\372UBt\3240!\202\273\307\327\324"
 836      4A5EA521 
 836      FA554274 
 836      D4302182 
 836      BBC7D7D4 
 837 08b1 DCD80C21 		.ascii	"\334\330\014!j\336\272T:V\353]Q\273\240\266\203l\243"
 837      6ADEBA54 
 837      3A56EB5D 
 837      51BBA0B6 
 837      836CA3
 838 08c4 0A1274B0 		.ascii	"\012\022t\260\005\246\264AX\341hl\0128\374M\001g\240"
 838      05A6B441 
 838      58E1686C 
 838      0A38FC4D 
 838      0167A0
 839 08d7 A539E07C 		.ascii	"\2459\340|\034\212\222\346\3576\372\003\334\322\200"
 839      1C8A92E6 
 839      EF36FA03 
 839      DCD280
 840 08e6 2BE06FF6 		.ascii	"+\340o\366\007\226\373\033jr5\257\023\272{\235\320\337"
 840      0796FB1B 
 840      6A7235AF 
 840      13BA7B9D 
 840      D0DF
 841 08f8 5B421CBC 		.ascii	"[B\034\274%\304\303[J]\274\216\245\001\357\177\000\202"
 841      25C4C35B 
ARM GAS  /tmp/ccDPDrPi.s 			page 67


 841      4A5DBC8E 
 841      A501EF7F 
 841      0082
 842 090a 87A560   		.ascii	"\207\245`"
 843              		.text
 844              		.section	.gnu.lto_.symtab.41543b5217bcee50,"",%progbits
 845 0000 56656374 		.ascii	"Vector58\000\000\000\000\000\000\000\000\000\000\000"
 845      6F723538 
 845      00000000 
 845      00000000 
 845      000000
 846 0013 00A10000 		.ascii	"\000\241\000\000\000Vector5C\000\000\000\000\000\000"
 846      00566563 
 846      746F7235 
 846      43000000 
 846      000000
 847 0026 00000000 		.ascii	"\000\000\000\000\000\000\246\000\000\000Vector60\000"
 847      0000A600 
 847      00005665 
 847      63746F72 
 847      363000
 848 0039 00000000 		.ascii	"\000\000\000\000\000\000\000\000\000\000\000\251\000"
 848      00000000 
 848      000000A9 
 848      00
 849 0046 00005665 		.ascii	"\000\000Vector64\000\000\000\000\000\000\000\000\000"
 849      63746F72 
 849      36340000 
 849      00000000 
 849      000000
 850 0059 000000AC 		.ascii	"\000\000\000\254\000\000\000Vector68\000\000\000\000"
 850      00000056 
 850      6563746F 
 850      72363800 
 850      000000
 851 006c 00000000 		.ascii	"\000\000\000\000\000\000\000\000\257\000\000\000Vec"
 851      00000000 
 851      AF000000 
 851      566563
 852 007b 746F7239 		.ascii	"tor9C\000\000\000\000\000\000\000\000\000\000\000\000"
 852      43000000 
 852      00000000 
 852      00000000 
 852      00
 853 008c B2000000 		.ascii	"\262\000\000\000VectorE0\000\000\000\000\000\000\000"
 853      56656374 
 853      6F724530 
 853      00000000 
 853      000000
 854 009f 00000000 		.ascii	"\000\000\000\000\000\265\000\000\000Vector44\000\000"
 854      00B50000 
 854      00566563 
 854      746F7234 
 854      340000
 855 00b2 00000000 		.ascii	"\000\000\000\000\000\000\000\000\000\000\270\000\000"
 855      00000000 
 855      0000B800 
ARM GAS  /tmp/ccDPDrPi.s 			page 68


 855      00
 856 00bf 00566563 		.ascii	"\000VectorE4\000\000\000\000\000\000\000\000\000\000"
 856      746F7245 
 856      34000000 
 856      00000000 
 856      000000
 857 00d2 0000BB00 		.ascii	"\000\000\273\000\000\000VectorE8\000\000\000\000\000"
 857      00005665 
 857      63746F72 
 857      45380000 
 857      000000
 858 00e5 00000000 		.ascii	"\000\000\000\000\000\000\000\276\000\000\000Vector4"
 858      000000BE 
 858      00000056 
 858      6563746F 
 858      7234
 859 00f7 38000000 		.ascii	"8\000\000\000\000\000\000\000\000\000\000\000\000\301"
 859      00000000 
 859      00000000 
 859      00C1
 860 0105 00000056 		.ascii	"\000\000\000Vector4C\000\000\000\000\000\000\000\000"
 860      6563746F 
 860      72344300 
 860      00000000 
 860      000000
 861 0118 00000000 		.ascii	"\000\000\000\000\304\000\000\000Vector140\000\000\000"
 861      C4000000 
 861      56656374 
 861      6F723134 
 861      30000000 
 862 012c 00000000 		.ascii	"\000\000\000\000\000\000\000\000\000\307\000\000\000"
 862      00000000 
 862      00C70000 
 862      00
 863 0139 56656374 		.ascii	"Vector144\000\000\000\000\000\000\000\000\000\000\000"
 863      6F723134 
 863      34000000 
 863      00000000 
 863      00000000 
 864 014d 00CA0000 		.ascii	"\000\312\000\000\000Vector148\000\000\000\000\000\000"
 864      00566563 
 864      746F7231 
 864      34380000 
 864      00000000 
 865 0161 00000000 		.ascii	"\000\000\000\000\000\000\315\000\000\000ext_lld_ext"
 865      0000CD00 
 865      00006578 
 865      745F6C6C 
 865      645F6578 
 866 0176 695F6972 		.ascii	"i_irq_enable\000\000\000\000\000\000\000\000\000\000"
 866      715F656E 
 866      61626C65 
 866      00000000 
 866      00000000 
 867 018c 0000D000 		.ascii	"\000\000\320\000\000\000ext_lld_exti_irq_disable\000"
 867      00006578 
 867      745F6C6C 
ARM GAS  /tmp/ccDPDrPi.s 			page 69


 867      645F6578 
 867      74695F69 
 868 01ab 00000000 		.ascii	"\000\000\000\000\000\000\000\000\000\000\000\323\000"
 868      00000000 
 868      000000D3 
 868      00
 869 01b8 00004558 		.ascii	"\000\000EXTD1\000\000\002\000\000\000\000\000\000\000"
 869      54443100 
 869      00020000 
 869      00000000 
 869      00
 870 01c9 0000E700 		.ascii	"\000\000\347\000\000\000_port_irq_epilogue\000\000\002"
 870      00005F70 
 870      6F72745F 
 870      6972715F 
 870      6570696C 
 871 01e4 00000000 		.ascii	"\000\000\000\000\000\000\000\000\000\326\000\000\000"
 871      00000000 
 871      00D60000 
 871      00
 872 01f1 6E766963 		.ascii	"nvicEnableVector\000\000\002\000\000\000\000\000\000"
 872      456E6162 
 872      6C655665 
 872      63746F72 
 872      00000200 
 873 020a 000000D8 		.ascii	"\000\000\000\330\000\000\000nvicDisableVector\000\000"
 873      0000006E 
 873      76696344 
 873      69736162 
 873      6C655665 
 874 0224 02000000 		.ascii	"\002\000\000\000\000\000\000\000\000\000\343\000\000"
 874      00000000 
 874      0000E300 
 874      00
 875 0231 00       		.ascii	"\000"
 876              		.text
 877              		.section	.gnu.lto_.opts,"",%progbits
 878 0000 272D6D63 		.ascii	"'-mcpu=cortex-m4' '-mno-thumb-interwork' '-mthumb' "
 878      70753D63 
 878      6F727465 
 878      782D6D34 
 878      2720272D 
 879 0033 272D6767 		.ascii	"'-ggdb' '-O0' '-fomit-frame-pointer' '-falign-funct"
 879      64622720 
 879      272D4F30 
 879      2720272D 
 879      666F6D69 
 880 0066 696F6E73 		.ascii	"ions=16' '-ffunction-sections' '-fdata-sections' '-"
 880      3D313627 
 880      20272D66 
 880      66756E63 
 880      74696F6E 
 881 0099 666E6F2D 		.ascii	"fno-common' '-flto'\000"
 881      636F6D6D 
 881      6F6E2720 
 881      272D666C 
 881      746F2700 
ARM GAS  /tmp/ccDPDrPi.s 			page 70


 882              		.text
 883              		.cfi_sections	.debug_frame
 884              		.section	.text.Vector58,"ax",%progbits
 885              		.align	2
 886              		.p2align 4,,15
 887              		.global	Vector58
 888              		.thumb
 889              		.thumb_func
 890              		.type	Vector58, %function
 891              	Vector58:
 892              	.LFB272:
 893              		.file 1 "../ChibiOS/os/hal/ports/STM32/STM32F3xx/ext_lld_isr.c"
 894              		.loc 1 57 0
 895              		.cfi_startproc
 896              		@ args = 0, pretend = 0, frame = 8
 897              		@ frame_needed = 0, uses_anonymous_args = 0
 898 0000 00B5     		push	{lr}
 899              		.cfi_def_cfa_offset 4
 900              		.cfi_offset 14, -4
 901 0002 83B0     		sub	sp, sp, #12
 902              		.cfi_def_cfa_offset 16
 903              		.loc 1 62 0
 904 0004 0D4B     		ldr	r3, .L3
 905 0006 5A69     		ldr	r2, [r3, #20]
 906 0008 0C4B     		ldr	r3, .L3
 907 000a 1B68     		ldr	r3, [r3]
 908 000c 1340     		ands	r3, r3, r2
 909 000e 03F00103 		and	r3, r3, #1
 910 0012 0193     		str	r3, [sp, #4]
 911              		.loc 1 63 0
 912 0014 094B     		ldr	r3, .L3
 913 0016 019A     		ldr	r2, [sp, #4]
 914 0018 5A61     		str	r2, [r3, #20]
 915              		.loc 1 64 0
 916 001a 019B     		ldr	r3, [sp, #4]
 917 001c 03F00103 		and	r3, r3, #1
 918 0020 002B     		cmp	r3, #0
 919 0022 05D0     		beq	.L2
 920              		.loc 1 65 0
 921 0024 064B     		ldr	r3, .L3+4
 922 0026 5B68     		ldr	r3, [r3, #4]
 923 0028 5B68     		ldr	r3, [r3, #4]
 924 002a 0548     		ldr	r0, .L3+4
 925 002c 0021     		movs	r1, #0
 926 002e 9847     		blx	r3
 927              	.L2:
 928              		.loc 1 67 0
 929 0030 FFF7FEFF 		bl	_port_irq_epilogue
 930              		.loc 1 68 0
 931 0034 03B0     		add	sp, sp, #12
 932              		@ sp needed
 933 0036 5DF804FB 		ldr	pc, [sp], #4
 934              	.L4:
 935 003a 00BF     		.align	2
 936              	.L3:
 937 003c 00040140 		.word	1073808384
 938 0040 00000000 		.word	EXTD1
ARM GAS  /tmp/ccDPDrPi.s 			page 71


 939              		.cfi_endproc
 940              	.LFE272:
 941              		.size	Vector58, .-Vector58
 942 0044 AFF30080 		.section	.text.Vector5C,"ax",%progbits
 942      AFF30080 
 942      AFF30080 
 943              		.align	2
 944              		.p2align 4,,15
 945              		.global	Vector5C
 946              		.thumb
 947              		.thumb_func
 948              		.type	Vector5C, %function
 949              	Vector5C:
 950              	.LFB273:
 951              		.loc 1 77 0
 952              		.cfi_startproc
 953              		@ args = 0, pretend = 0, frame = 8
 954              		@ frame_needed = 0, uses_anonymous_args = 0
 955 0000 00B5     		push	{lr}
 956              		.cfi_def_cfa_offset 4
 957              		.cfi_offset 14, -4
 958 0002 83B0     		sub	sp, sp, #12
 959              		.cfi_def_cfa_offset 16
 960              		.loc 1 82 0
 961 0004 0D4B     		ldr	r3, .L7
 962 0006 5A69     		ldr	r2, [r3, #20]
 963 0008 0C4B     		ldr	r3, .L7
 964 000a 1B68     		ldr	r3, [r3]
 965 000c 1340     		ands	r3, r3, r2
 966 000e 03F00203 		and	r3, r3, #2
 967 0012 0193     		str	r3, [sp, #4]
 968              		.loc 1 83 0
 969 0014 094B     		ldr	r3, .L7
 970 0016 019A     		ldr	r2, [sp, #4]
 971 0018 5A61     		str	r2, [r3, #20]
 972              		.loc 1 84 0
 973 001a 019B     		ldr	r3, [sp, #4]
 974 001c 03F00203 		and	r3, r3, #2
 975 0020 002B     		cmp	r3, #0
 976 0022 05D0     		beq	.L6
 977              		.loc 1 85 0
 978 0024 064B     		ldr	r3, .L7+4
 979 0026 5B68     		ldr	r3, [r3, #4]
 980 0028 DB68     		ldr	r3, [r3, #12]
 981 002a 0548     		ldr	r0, .L7+4
 982 002c 0121     		movs	r1, #1
 983 002e 9847     		blx	r3
 984              	.L6:
 985              		.loc 1 87 0
 986 0030 FFF7FEFF 		bl	_port_irq_epilogue
 987              		.loc 1 88 0
 988 0034 03B0     		add	sp, sp, #12
 989              		@ sp needed
 990 0036 5DF804FB 		ldr	pc, [sp], #4
 991              	.L8:
 992 003a 00BF     		.align	2
 993              	.L7:
ARM GAS  /tmp/ccDPDrPi.s 			page 72


 994 003c 00040140 		.word	1073808384
 995 0040 00000000 		.word	EXTD1
 996              		.cfi_endproc
 997              	.LFE273:
 998              		.size	Vector5C, .-Vector5C
 999 0044 AFF30080 		.section	.text.Vector60,"ax",%progbits
 999      AFF30080 
 999      AFF30080 
 1000              		.align	2
 1001              		.p2align 4,,15
 1002              		.global	Vector60
 1003              		.thumb
 1004              		.thumb_func
 1005              		.type	Vector60, %function
 1006              	Vector60:
 1007              	.LFB274:
 1008              		.loc 1 97 0
 1009              		.cfi_startproc
 1010              		@ args = 0, pretend = 0, frame = 8
 1011              		@ frame_needed = 0, uses_anonymous_args = 0
 1012 0000 00B5     		push	{lr}
 1013              		.cfi_def_cfa_offset 4
 1014              		.cfi_offset 14, -4
 1015 0002 83B0     		sub	sp, sp, #12
 1016              		.cfi_def_cfa_offset 16
 1017              		.loc 1 102 0
 1018 0004 0D4B     		ldr	r3, .L11
 1019 0006 5A69     		ldr	r2, [r3, #20]
 1020 0008 0C4B     		ldr	r3, .L11
 1021 000a 1B68     		ldr	r3, [r3]
 1022 000c 1340     		ands	r3, r3, r2
 1023 000e 03F00403 		and	r3, r3, #4
 1024 0012 0193     		str	r3, [sp, #4]
 1025              		.loc 1 103 0
 1026 0014 094B     		ldr	r3, .L11
 1027 0016 019A     		ldr	r2, [sp, #4]
 1028 0018 5A61     		str	r2, [r3, #20]
 1029              		.loc 1 104 0
 1030 001a 019B     		ldr	r3, [sp, #4]
 1031 001c 03F00403 		and	r3, r3, #4
 1032 0020 002B     		cmp	r3, #0
 1033 0022 05D0     		beq	.L10
 1034              		.loc 1 105 0
 1035 0024 064B     		ldr	r3, .L11+4
 1036 0026 5B68     		ldr	r3, [r3, #4]
 1037 0028 5B69     		ldr	r3, [r3, #20]
 1038 002a 0548     		ldr	r0, .L11+4
 1039 002c 0221     		movs	r1, #2
 1040 002e 9847     		blx	r3
 1041              	.L10:
 1042              		.loc 1 107 0
 1043 0030 FFF7FEFF 		bl	_port_irq_epilogue
 1044              		.loc 1 108 0
 1045 0034 03B0     		add	sp, sp, #12
 1046              		@ sp needed
 1047 0036 5DF804FB 		ldr	pc, [sp], #4
 1048              	.L12:
ARM GAS  /tmp/ccDPDrPi.s 			page 73


 1049 003a 00BF     		.align	2
 1050              	.L11:
 1051 003c 00040140 		.word	1073808384
 1052 0040 00000000 		.word	EXTD1
 1053              		.cfi_endproc
 1054              	.LFE274:
 1055              		.size	Vector60, .-Vector60
 1056 0044 AFF30080 		.section	.text.Vector64,"ax",%progbits
 1056      AFF30080 
 1056      AFF30080 
 1057              		.align	2
 1058              		.p2align 4,,15
 1059              		.global	Vector64
 1060              		.thumb
 1061              		.thumb_func
 1062              		.type	Vector64, %function
 1063              	Vector64:
 1064              	.LFB275:
 1065              		.loc 1 117 0
 1066              		.cfi_startproc
 1067              		@ args = 0, pretend = 0, frame = 8
 1068              		@ frame_needed = 0, uses_anonymous_args = 0
 1069 0000 00B5     		push	{lr}
 1070              		.cfi_def_cfa_offset 4
 1071              		.cfi_offset 14, -4
 1072 0002 83B0     		sub	sp, sp, #12
 1073              		.cfi_def_cfa_offset 16
 1074              		.loc 1 122 0
 1075 0004 0D4B     		ldr	r3, .L15
 1076 0006 5A69     		ldr	r2, [r3, #20]
 1077 0008 0C4B     		ldr	r3, .L15
 1078 000a 1B68     		ldr	r3, [r3]
 1079 000c 1340     		ands	r3, r3, r2
 1080 000e 03F00803 		and	r3, r3, #8
 1081 0012 0193     		str	r3, [sp, #4]
 1082              		.loc 1 123 0
 1083 0014 094B     		ldr	r3, .L15
 1084 0016 019A     		ldr	r2, [sp, #4]
 1085 0018 5A61     		str	r2, [r3, #20]
 1086              		.loc 1 124 0
 1087 001a 019B     		ldr	r3, [sp, #4]
 1088 001c 03F00803 		and	r3, r3, #8
 1089 0020 002B     		cmp	r3, #0
 1090 0022 05D0     		beq	.L14
 1091              		.loc 1 125 0
 1092 0024 064B     		ldr	r3, .L15+4
 1093 0026 5B68     		ldr	r3, [r3, #4]
 1094 0028 DB69     		ldr	r3, [r3, #28]
 1095 002a 0548     		ldr	r0, .L15+4
 1096 002c 0321     		movs	r1, #3
 1097 002e 9847     		blx	r3
 1098              	.L14:
 1099              		.loc 1 127 0
 1100 0030 FFF7FEFF 		bl	_port_irq_epilogue
 1101              		.loc 1 128 0
 1102 0034 03B0     		add	sp, sp, #12
 1103              		@ sp needed
ARM GAS  /tmp/ccDPDrPi.s 			page 74


 1104 0036 5DF804FB 		ldr	pc, [sp], #4
 1105              	.L16:
 1106 003a 00BF     		.align	2
 1107              	.L15:
 1108 003c 00040140 		.word	1073808384
 1109 0040 00000000 		.word	EXTD1
 1110              		.cfi_endproc
 1111              	.LFE275:
 1112              		.size	Vector64, .-Vector64
 1113 0044 AFF30080 		.section	.text.Vector68,"ax",%progbits
 1113      AFF30080 
 1113      AFF30080 
 1114              		.align	2
 1115              		.p2align 4,,15
 1116              		.global	Vector68
 1117              		.thumb
 1118              		.thumb_func
 1119              		.type	Vector68, %function
 1120              	Vector68:
 1121              	.LFB276:
 1122              		.loc 1 137 0
 1123              		.cfi_startproc
 1124              		@ args = 0, pretend = 0, frame = 8
 1125              		@ frame_needed = 0, uses_anonymous_args = 0
 1126 0000 00B5     		push	{lr}
 1127              		.cfi_def_cfa_offset 4
 1128              		.cfi_offset 14, -4
 1129 0002 83B0     		sub	sp, sp, #12
 1130              		.cfi_def_cfa_offset 16
 1131              		.loc 1 142 0
 1132 0004 0D4B     		ldr	r3, .L19
 1133 0006 5A69     		ldr	r2, [r3, #20]
 1134 0008 0C4B     		ldr	r3, .L19
 1135 000a 1B68     		ldr	r3, [r3]
 1136 000c 1340     		ands	r3, r3, r2
 1137 000e 03F01003 		and	r3, r3, #16
 1138 0012 0193     		str	r3, [sp, #4]
 1139              		.loc 1 143 0
 1140 0014 094B     		ldr	r3, .L19
 1141 0016 019A     		ldr	r2, [sp, #4]
 1142 0018 5A61     		str	r2, [r3, #20]
 1143              		.loc 1 144 0
 1144 001a 019B     		ldr	r3, [sp, #4]
 1145 001c 03F01003 		and	r3, r3, #16
 1146 0020 002B     		cmp	r3, #0
 1147 0022 05D0     		beq	.L18
 1148              		.loc 1 145 0
 1149 0024 064B     		ldr	r3, .L19+4
 1150 0026 5B68     		ldr	r3, [r3, #4]
 1151 0028 5B6A     		ldr	r3, [r3, #36]
 1152 002a 0548     		ldr	r0, .L19+4
 1153 002c 0421     		movs	r1, #4
 1154 002e 9847     		blx	r3
 1155              	.L18:
 1156              		.loc 1 147 0
 1157 0030 FFF7FEFF 		bl	_port_irq_epilogue
 1158              		.loc 1 148 0
ARM GAS  /tmp/ccDPDrPi.s 			page 75


 1159 0034 03B0     		add	sp, sp, #12
 1160              		@ sp needed
 1161 0036 5DF804FB 		ldr	pc, [sp], #4
 1162              	.L20:
 1163 003a 00BF     		.align	2
 1164              	.L19:
 1165 003c 00040140 		.word	1073808384
 1166 0040 00000000 		.word	EXTD1
 1167              		.cfi_endproc
 1168              	.LFE276:
 1169              		.size	Vector68, .-Vector68
 1170 0044 AFF30080 		.section	.text.Vector9C,"ax",%progbits
 1170      AFF30080 
 1170      AFF30080 
 1171              		.align	2
 1172              		.p2align 4,,15
 1173              		.global	Vector9C
 1174              		.thumb
 1175              		.thumb_func
 1176              		.type	Vector9C, %function
 1177              	Vector9C:
 1178              	.LFB277:
 1179              		.loc 1 157 0
 1180              		.cfi_startproc
 1181              		@ args = 0, pretend = 0, frame = 8
 1182              		@ frame_needed = 0, uses_anonymous_args = 0
 1183 0000 00B5     		push	{lr}
 1184              		.cfi_def_cfa_offset 4
 1185              		.cfi_offset 14, -4
 1186 0002 83B0     		sub	sp, sp, #12
 1187              		.cfi_def_cfa_offset 16
 1188              		.loc 1 162 0
 1189 0004 234B     		ldr	r3, .L27
 1190 0006 5A69     		ldr	r2, [r3, #20]
 1191 0008 224B     		ldr	r3, .L27
 1192 000a 1B68     		ldr	r3, [r3]
 1193 000c 1340     		ands	r3, r3, r2
 1194 000e 03F47873 		and	r3, r3, #992
 1195 0012 0193     		str	r3, [sp, #4]
 1196              		.loc 1 164 0
 1197 0014 1F4B     		ldr	r3, .L27
 1198 0016 019A     		ldr	r2, [sp, #4]
 1199 0018 5A61     		str	r2, [r3, #20]
 1200              		.loc 1 165 0
 1201 001a 019B     		ldr	r3, [sp, #4]
 1202 001c 03F02003 		and	r3, r3, #32
 1203 0020 002B     		cmp	r3, #0
 1204 0022 05D0     		beq	.L22
 1205              		.loc 1 166 0
 1206 0024 1C4B     		ldr	r3, .L27+4
 1207 0026 5B68     		ldr	r3, [r3, #4]
 1208 0028 DB6A     		ldr	r3, [r3, #44]
 1209 002a 1B48     		ldr	r0, .L27+4
 1210 002c 0521     		movs	r1, #5
 1211 002e 9847     		blx	r3
 1212              	.L22:
 1213              		.loc 1 167 0
ARM GAS  /tmp/ccDPDrPi.s 			page 76


 1214 0030 019B     		ldr	r3, [sp, #4]
 1215 0032 03F04003 		and	r3, r3, #64
 1216 0036 002B     		cmp	r3, #0
 1217 0038 05D0     		beq	.L23
 1218              		.loc 1 168 0
 1219 003a 174B     		ldr	r3, .L27+4
 1220 003c 5B68     		ldr	r3, [r3, #4]
 1221 003e 5B6B     		ldr	r3, [r3, #52]
 1222 0040 1548     		ldr	r0, .L27+4
 1223 0042 0621     		movs	r1, #6
 1224 0044 9847     		blx	r3
 1225              	.L23:
 1226              		.loc 1 169 0
 1227 0046 019B     		ldr	r3, [sp, #4]
 1228 0048 03F08003 		and	r3, r3, #128
 1229 004c 002B     		cmp	r3, #0
 1230 004e 05D0     		beq	.L24
 1231              		.loc 1 170 0
 1232 0050 114B     		ldr	r3, .L27+4
 1233 0052 5B68     		ldr	r3, [r3, #4]
 1234 0054 DB6B     		ldr	r3, [r3, #60]
 1235 0056 1048     		ldr	r0, .L27+4
 1236 0058 0721     		movs	r1, #7
 1237 005a 9847     		blx	r3
 1238              	.L24:
 1239              		.loc 1 171 0
 1240 005c 019B     		ldr	r3, [sp, #4]
 1241 005e 03F48073 		and	r3, r3, #256
 1242 0062 002B     		cmp	r3, #0
 1243 0064 05D0     		beq	.L25
 1244              		.loc 1 172 0
 1245 0066 0C4B     		ldr	r3, .L27+4
 1246 0068 5B68     		ldr	r3, [r3, #4]
 1247 006a 5B6C     		ldr	r3, [r3, #68]
 1248 006c 0A48     		ldr	r0, .L27+4
 1249 006e 0821     		movs	r1, #8
 1250 0070 9847     		blx	r3
 1251              	.L25:
 1252              		.loc 1 173 0
 1253 0072 019B     		ldr	r3, [sp, #4]
 1254 0074 03F40073 		and	r3, r3, #512
 1255 0078 002B     		cmp	r3, #0
 1256 007a 05D0     		beq	.L26
 1257              		.loc 1 174 0
 1258 007c 064B     		ldr	r3, .L27+4
 1259 007e 5B68     		ldr	r3, [r3, #4]
 1260 0080 DB6C     		ldr	r3, [r3, #76]
 1261 0082 0548     		ldr	r0, .L27+4
 1262 0084 0921     		movs	r1, #9
 1263 0086 9847     		blx	r3
 1264              	.L26:
 1265              		.loc 1 176 0
 1266 0088 FFF7FEFF 		bl	_port_irq_epilogue
 1267              		.loc 1 177 0
 1268 008c 03B0     		add	sp, sp, #12
 1269              		@ sp needed
 1270 008e 5DF804FB 		ldr	pc, [sp], #4
ARM GAS  /tmp/ccDPDrPi.s 			page 77


 1271              	.L28:
 1272 0092 00BF     		.align	2
 1273              	.L27:
 1274 0094 00040140 		.word	1073808384
 1275 0098 00000000 		.word	EXTD1
 1276              		.cfi_endproc
 1277              	.LFE277:
 1278              		.size	Vector9C, .-Vector9C
 1279 009c AFF30080 		.section	.text.VectorE0,"ax",%progbits
 1280              		.align	2
 1281              		.p2align 4,,15
 1282              		.global	VectorE0
 1283              		.thumb
 1284              		.thumb_func
 1285              		.type	VectorE0, %function
 1286              	VectorE0:
 1287              	.LFB278:
 1288              		.loc 1 186 0
 1289              		.cfi_startproc
 1290              		@ args = 0, pretend = 0, frame = 8
 1291              		@ frame_needed = 0, uses_anonymous_args = 0
 1292 0000 00B5     		push	{lr}
 1293              		.cfi_def_cfa_offset 4
 1294              		.cfi_offset 14, -4
 1295 0002 83B0     		sub	sp, sp, #12
 1296              		.cfi_def_cfa_offset 16
 1297              		.loc 1 191 0
 1298 0004 284B     		ldr	r3, .L36
 1299 0006 5A69     		ldr	r2, [r3, #20]
 1300 0008 274B     		ldr	r3, .L36
 1301 000a 1B68     		ldr	r3, [r3]
 1302 000c 1340     		ands	r3, r3, r2
 1303 000e 03F47C43 		and	r3, r3, #64512
 1304 0012 0193     		str	r3, [sp, #4]
 1305              		.loc 1 193 0
 1306 0014 244B     		ldr	r3, .L36
 1307 0016 019A     		ldr	r2, [sp, #4]
 1308 0018 5A61     		str	r2, [r3, #20]
 1309              		.loc 1 194 0
 1310 001a 019B     		ldr	r3, [sp, #4]
 1311 001c 03F48063 		and	r3, r3, #1024
 1312 0020 002B     		cmp	r3, #0
 1313 0022 05D0     		beq	.L30
 1314              		.loc 1 195 0
 1315 0024 214B     		ldr	r3, .L36+4
 1316 0026 5B68     		ldr	r3, [r3, #4]
 1317 0028 5B6D     		ldr	r3, [r3, #84]
 1318 002a 2048     		ldr	r0, .L36+4
 1319 002c 0A21     		movs	r1, #10
 1320 002e 9847     		blx	r3
 1321              	.L30:
 1322              		.loc 1 196 0
 1323 0030 019B     		ldr	r3, [sp, #4]
 1324 0032 03F40063 		and	r3, r3, #2048
 1325 0036 002B     		cmp	r3, #0
 1326 0038 05D0     		beq	.L31
 1327              		.loc 1 197 0
ARM GAS  /tmp/ccDPDrPi.s 			page 78


 1328 003a 1C4B     		ldr	r3, .L36+4
 1329 003c 5B68     		ldr	r3, [r3, #4]
 1330 003e DB6D     		ldr	r3, [r3, #92]
 1331 0040 1A48     		ldr	r0, .L36+4
 1332 0042 0B21     		movs	r1, #11
 1333 0044 9847     		blx	r3
 1334              	.L31:
 1335              		.loc 1 198 0
 1336 0046 019B     		ldr	r3, [sp, #4]
 1337 0048 03F48053 		and	r3, r3, #4096
 1338 004c 002B     		cmp	r3, #0
 1339 004e 05D0     		beq	.L32
 1340              		.loc 1 199 0
 1341 0050 164B     		ldr	r3, .L36+4
 1342 0052 5B68     		ldr	r3, [r3, #4]
 1343 0054 5B6E     		ldr	r3, [r3, #100]
 1344 0056 1548     		ldr	r0, .L36+4
 1345 0058 0C21     		movs	r1, #12
 1346 005a 9847     		blx	r3
 1347              	.L32:
 1348              		.loc 1 200 0
 1349 005c 019B     		ldr	r3, [sp, #4]
 1350 005e 03F40053 		and	r3, r3, #8192
 1351 0062 002B     		cmp	r3, #0
 1352 0064 05D0     		beq	.L33
 1353              		.loc 1 201 0
 1354 0066 114B     		ldr	r3, .L36+4
 1355 0068 5B68     		ldr	r3, [r3, #4]
 1356 006a DB6E     		ldr	r3, [r3, #108]
 1357 006c 0F48     		ldr	r0, .L36+4
 1358 006e 0D21     		movs	r1, #13
 1359 0070 9847     		blx	r3
 1360              	.L33:
 1361              		.loc 1 202 0
 1362 0072 019B     		ldr	r3, [sp, #4]
 1363 0074 03F48043 		and	r3, r3, #16384
 1364 0078 002B     		cmp	r3, #0
 1365 007a 05D0     		beq	.L34
 1366              		.loc 1 203 0
 1367 007c 0B4B     		ldr	r3, .L36+4
 1368 007e 5B68     		ldr	r3, [r3, #4]
 1369 0080 5B6F     		ldr	r3, [r3, #116]
 1370 0082 0A48     		ldr	r0, .L36+4
 1371 0084 0E21     		movs	r1, #14
 1372 0086 9847     		blx	r3
 1373              	.L34:
 1374              		.loc 1 204 0
 1375 0088 019B     		ldr	r3, [sp, #4]
 1376 008a 03F40043 		and	r3, r3, #32768
 1377 008e 002B     		cmp	r3, #0
 1378 0090 05D0     		beq	.L35
 1379              		.loc 1 205 0
 1380 0092 064B     		ldr	r3, .L36+4
 1381 0094 5B68     		ldr	r3, [r3, #4]
 1382 0096 DB6F     		ldr	r3, [r3, #124]
 1383 0098 0448     		ldr	r0, .L36+4
 1384 009a 0F21     		movs	r1, #15
ARM GAS  /tmp/ccDPDrPi.s 			page 79


 1385 009c 9847     		blx	r3
 1386              	.L35:
 1387              		.loc 1 207 0
 1388 009e FFF7FEFF 		bl	_port_irq_epilogue
 1389              		.loc 1 208 0
 1390 00a2 03B0     		add	sp, sp, #12
 1391              		@ sp needed
 1392 00a4 5DF804FB 		ldr	pc, [sp], #4
 1393              	.L37:
 1394              		.align	2
 1395              	.L36:
 1396 00a8 00040140 		.word	1073808384
 1397 00ac 00000000 		.word	EXTD1
 1398              		.cfi_endproc
 1399              	.LFE278:
 1400              		.size	VectorE0, .-VectorE0
 1401              		.section	.text.Vector44,"ax",%progbits
 1402              		.align	2
 1403              		.p2align 4,,15
 1404              		.global	Vector44
 1405              		.thumb
 1406              		.thumb_func
 1407              		.type	Vector44, %function
 1408              	Vector44:
 1409              	.LFB279:
 1410              		.loc 1 217 0
 1411              		.cfi_startproc
 1412              		@ args = 0, pretend = 0, frame = 8
 1413              		@ frame_needed = 0, uses_anonymous_args = 0
 1414 0000 00B5     		push	{lr}
 1415              		.cfi_def_cfa_offset 4
 1416              		.cfi_offset 14, -4
 1417 0002 83B0     		sub	sp, sp, #12
 1418              		.cfi_def_cfa_offset 16
 1419              		.loc 1 222 0
 1420 0004 0D4B     		ldr	r3, .L40
 1421 0006 5A69     		ldr	r2, [r3, #20]
 1422 0008 0C4B     		ldr	r3, .L40
 1423 000a 1B68     		ldr	r3, [r3]
 1424 000c 1340     		ands	r3, r3, r2
 1425 000e 03F48033 		and	r3, r3, #65536
 1426 0012 0193     		str	r3, [sp, #4]
 1427              		.loc 1 223 0
 1428 0014 094B     		ldr	r3, .L40
 1429 0016 019A     		ldr	r2, [sp, #4]
 1430 0018 5A61     		str	r2, [r3, #20]
 1431              		.loc 1 224 0
 1432 001a 019B     		ldr	r3, [sp, #4]
 1433 001c 03F48033 		and	r3, r3, #65536
 1434 0020 002B     		cmp	r3, #0
 1435 0022 06D0     		beq	.L39
 1436              		.loc 1 225 0
 1437 0024 064B     		ldr	r3, .L40+4
 1438 0026 5B68     		ldr	r3, [r3, #4]
 1439 0028 D3F88430 		ldr	r3, [r3, #132]
 1440 002c 0448     		ldr	r0, .L40+4
 1441 002e 1021     		movs	r1, #16
ARM GAS  /tmp/ccDPDrPi.s 			page 80


 1442 0030 9847     		blx	r3
 1443              	.L39:
 1444              		.loc 1 227 0
 1445 0032 FFF7FEFF 		bl	_port_irq_epilogue
 1446              		.loc 1 228 0
 1447 0036 03B0     		add	sp, sp, #12
 1448              		@ sp needed
 1449 0038 5DF804FB 		ldr	pc, [sp], #4
 1450              	.L41:
 1451              		.align	2
 1452              	.L40:
 1453 003c 00040140 		.word	1073808384
 1454 0040 00000000 		.word	EXTD1
 1455              		.cfi_endproc
 1456              	.LFE279:
 1457              		.size	Vector44, .-Vector44
 1458 0044 AFF30080 		.section	.text.VectorE4,"ax",%progbits
 1458      AFF30080 
 1458      AFF30080 
 1459              		.align	2
 1460              		.p2align 4,,15
 1461              		.global	VectorE4
 1462              		.thumb
 1463              		.thumb_func
 1464              		.type	VectorE4, %function
 1465              	VectorE4:
 1466              	.LFB280:
 1467              		.loc 1 237 0
 1468              		.cfi_startproc
 1469              		@ args = 0, pretend = 0, frame = 8
 1470              		@ frame_needed = 0, uses_anonymous_args = 0
 1471 0000 00B5     		push	{lr}
 1472              		.cfi_def_cfa_offset 4
 1473              		.cfi_offset 14, -4
 1474 0002 83B0     		sub	sp, sp, #12
 1475              		.cfi_def_cfa_offset 16
 1476              		.loc 1 242 0
 1477 0004 0D4B     		ldr	r3, .L44
 1478 0006 5A69     		ldr	r2, [r3, #20]
 1479 0008 0C4B     		ldr	r3, .L44
 1480 000a 1B68     		ldr	r3, [r3]
 1481 000c 1340     		ands	r3, r3, r2
 1482 000e 03F40033 		and	r3, r3, #131072
 1483 0012 0193     		str	r3, [sp, #4]
 1484              		.loc 1 243 0
 1485 0014 094B     		ldr	r3, .L44
 1486 0016 019A     		ldr	r2, [sp, #4]
 1487 0018 5A61     		str	r2, [r3, #20]
 1488              		.loc 1 244 0
 1489 001a 019B     		ldr	r3, [sp, #4]
 1490 001c 03F40033 		and	r3, r3, #131072
 1491 0020 002B     		cmp	r3, #0
 1492 0022 06D0     		beq	.L43
 1493              		.loc 1 245 0
 1494 0024 064B     		ldr	r3, .L44+4
 1495 0026 5B68     		ldr	r3, [r3, #4]
 1496 0028 D3F88C30 		ldr	r3, [r3, #140]
ARM GAS  /tmp/ccDPDrPi.s 			page 81


 1497 002c 0448     		ldr	r0, .L44+4
 1498 002e 1121     		movs	r1, #17
 1499 0030 9847     		blx	r3
 1500              	.L43:
 1501              		.loc 1 247 0
 1502 0032 FFF7FEFF 		bl	_port_irq_epilogue
 1503              		.loc 1 248 0
 1504 0036 03B0     		add	sp, sp, #12
 1505              		@ sp needed
 1506 0038 5DF804FB 		ldr	pc, [sp], #4
 1507              	.L45:
 1508              		.align	2
 1509              	.L44:
 1510 003c 00040140 		.word	1073808384
 1511 0040 00000000 		.word	EXTD1
 1512              		.cfi_endproc
 1513              	.LFE280:
 1514              		.size	VectorE4, .-VectorE4
 1515 0044 AFF30080 		.section	.text.VectorE8,"ax",%progbits
 1515      AFF30080 
 1515      AFF30080 
 1516              		.align	2
 1517              		.p2align 4,,15
 1518              		.global	VectorE8
 1519              		.thumb
 1520              		.thumb_func
 1521              		.type	VectorE8, %function
 1522              	VectorE8:
 1523              	.LFB281:
 1524              		.loc 1 257 0
 1525              		.cfi_startproc
 1526              		@ args = 0, pretend = 0, frame = 8
 1527              		@ frame_needed = 0, uses_anonymous_args = 0
 1528 0000 00B5     		push	{lr}
 1529              		.cfi_def_cfa_offset 4
 1530              		.cfi_offset 14, -4
 1531 0002 83B0     		sub	sp, sp, #12
 1532              		.cfi_def_cfa_offset 16
 1533              		.loc 1 262 0
 1534 0004 0D4B     		ldr	r3, .L48
 1535 0006 5A69     		ldr	r2, [r3, #20]
 1536 0008 0C4B     		ldr	r3, .L48
 1537 000a 1B68     		ldr	r3, [r3]
 1538 000c 1340     		ands	r3, r3, r2
 1539 000e 03F48023 		and	r3, r3, #262144
 1540 0012 0193     		str	r3, [sp, #4]
 1541              		.loc 1 263 0
 1542 0014 094B     		ldr	r3, .L48
 1543 0016 019A     		ldr	r2, [sp, #4]
 1544 0018 5A61     		str	r2, [r3, #20]
 1545              		.loc 1 264 0
 1546 001a 019B     		ldr	r3, [sp, #4]
 1547 001c 03F48023 		and	r3, r3, #262144
 1548 0020 002B     		cmp	r3, #0
 1549 0022 06D0     		beq	.L47
 1550              		.loc 1 265 0
 1551 0024 064B     		ldr	r3, .L48+4
ARM GAS  /tmp/ccDPDrPi.s 			page 82


 1552 0026 5B68     		ldr	r3, [r3, #4]
 1553 0028 D3F89430 		ldr	r3, [r3, #148]
 1554 002c 0448     		ldr	r0, .L48+4
 1555 002e 1221     		movs	r1, #18
 1556 0030 9847     		blx	r3
 1557              	.L47:
 1558              		.loc 1 267 0
 1559 0032 FFF7FEFF 		bl	_port_irq_epilogue
 1560              		.loc 1 268 0
 1561 0036 03B0     		add	sp, sp, #12
 1562              		@ sp needed
 1563 0038 5DF804FB 		ldr	pc, [sp], #4
 1564              	.L49:
 1565              		.align	2
 1566              	.L48:
 1567 003c 00040140 		.word	1073808384
 1568 0040 00000000 		.word	EXTD1
 1569              		.cfi_endproc
 1570              	.LFE281:
 1571              		.size	VectorE8, .-VectorE8
 1572 0044 AFF30080 		.section	.text.Vector48,"ax",%progbits
 1572      AFF30080 
 1572      AFF30080 
 1573              		.align	2
 1574              		.p2align 4,,15
 1575              		.global	Vector48
 1576              		.thumb
 1577              		.thumb_func
 1578              		.type	Vector48, %function
 1579              	Vector48:
 1580              	.LFB282:
 1581              		.loc 1 277 0
 1582              		.cfi_startproc
 1583              		@ args = 0, pretend = 0, frame = 8
 1584              		@ frame_needed = 0, uses_anonymous_args = 0
 1585 0000 00B5     		push	{lr}
 1586              		.cfi_def_cfa_offset 4
 1587              		.cfi_offset 14, -4
 1588 0002 83B0     		sub	sp, sp, #12
 1589              		.cfi_def_cfa_offset 16
 1590              		.loc 1 282 0
 1591 0004 0D4B     		ldr	r3, .L52
 1592 0006 5A69     		ldr	r2, [r3, #20]
 1593 0008 0C4B     		ldr	r3, .L52
 1594 000a 1B68     		ldr	r3, [r3]
 1595 000c 1340     		ands	r3, r3, r2
 1596 000e 03F40023 		and	r3, r3, #524288
 1597 0012 0193     		str	r3, [sp, #4]
 1598              		.loc 1 283 0
 1599 0014 094B     		ldr	r3, .L52
 1600 0016 019A     		ldr	r2, [sp, #4]
 1601 0018 5A61     		str	r2, [r3, #20]
 1602              		.loc 1 284 0
 1603 001a 019B     		ldr	r3, [sp, #4]
 1604 001c 03F40023 		and	r3, r3, #524288
 1605 0020 002B     		cmp	r3, #0
 1606 0022 06D0     		beq	.L51
ARM GAS  /tmp/ccDPDrPi.s 			page 83


 1607              		.loc 1 285 0
 1608 0024 064B     		ldr	r3, .L52+4
 1609 0026 5B68     		ldr	r3, [r3, #4]
 1610 0028 D3F89C30 		ldr	r3, [r3, #156]
 1611 002c 0448     		ldr	r0, .L52+4
 1612 002e 1321     		movs	r1, #19
 1613 0030 9847     		blx	r3
 1614              	.L51:
 1615              		.loc 1 287 0
 1616 0032 FFF7FEFF 		bl	_port_irq_epilogue
 1617              		.loc 1 288 0
 1618 0036 03B0     		add	sp, sp, #12
 1619              		@ sp needed
 1620 0038 5DF804FB 		ldr	pc, [sp], #4
 1621              	.L53:
 1622              		.align	2
 1623              	.L52:
 1624 003c 00040140 		.word	1073808384
 1625 0040 00000000 		.word	EXTD1
 1626              		.cfi_endproc
 1627              	.LFE282:
 1628              		.size	Vector48, .-Vector48
 1629 0044 AFF30080 		.section	.text.Vector4C,"ax",%progbits
 1629      AFF30080 
 1629      AFF30080 
 1630              		.align	2
 1631              		.p2align 4,,15
 1632              		.global	Vector4C
 1633              		.thumb
 1634              		.thumb_func
 1635              		.type	Vector4C, %function
 1636              	Vector4C:
 1637              	.LFB283:
 1638              		.loc 1 297 0
 1639              		.cfi_startproc
 1640              		@ args = 0, pretend = 0, frame = 8
 1641              		@ frame_needed = 0, uses_anonymous_args = 0
 1642 0000 00B5     		push	{lr}
 1643              		.cfi_def_cfa_offset 4
 1644              		.cfi_offset 14, -4
 1645 0002 83B0     		sub	sp, sp, #12
 1646              		.cfi_def_cfa_offset 16
 1647              		.loc 1 302 0
 1648 0004 0D4B     		ldr	r3, .L56
 1649 0006 5A69     		ldr	r2, [r3, #20]
 1650 0008 0C4B     		ldr	r3, .L56
 1651 000a 1B68     		ldr	r3, [r3]
 1652 000c 1340     		ands	r3, r3, r2
 1653 000e 03F48013 		and	r3, r3, #1048576
 1654 0012 0193     		str	r3, [sp, #4]
 1655              		.loc 1 303 0
 1656 0014 094B     		ldr	r3, .L56
 1657 0016 019A     		ldr	r2, [sp, #4]
 1658 0018 5A61     		str	r2, [r3, #20]
 1659              		.loc 1 304 0
 1660 001a 019B     		ldr	r3, [sp, #4]
 1661 001c 03F48013 		and	r3, r3, #1048576
ARM GAS  /tmp/ccDPDrPi.s 			page 84


 1662 0020 002B     		cmp	r3, #0
 1663 0022 06D0     		beq	.L55
 1664              		.loc 1 305 0
 1665 0024 064B     		ldr	r3, .L56+4
 1666 0026 5B68     		ldr	r3, [r3, #4]
 1667 0028 D3F8A430 		ldr	r3, [r3, #164]
 1668 002c 0448     		ldr	r0, .L56+4
 1669 002e 1421     		movs	r1, #20
 1670 0030 9847     		blx	r3
 1671              	.L55:
 1672              		.loc 1 307 0
 1673 0032 FFF7FEFF 		bl	_port_irq_epilogue
 1674              		.loc 1 308 0
 1675 0036 03B0     		add	sp, sp, #12
 1676              		@ sp needed
 1677 0038 5DF804FB 		ldr	pc, [sp], #4
 1678              	.L57:
 1679              		.align	2
 1680              	.L56:
 1681 003c 00040140 		.word	1073808384
 1682 0040 00000000 		.word	EXTD1
 1683              		.cfi_endproc
 1684              	.LFE283:
 1685              		.size	Vector4C, .-Vector4C
 1686 0044 AFF30080 		.section	.text.Vector140,"ax",%progbits
 1686      AFF30080 
 1686      AFF30080 
 1687              		.align	2
 1688              		.p2align 4,,15
 1689              		.global	Vector140
 1690              		.thumb
 1691              		.thumb_func
 1692              		.type	Vector140, %function
 1693              	Vector140:
 1694              	.LFB284:
 1695              		.loc 1 317 0
 1696              		.cfi_startproc
 1697              		@ args = 0, pretend = 0, frame = 8
 1698              		@ frame_needed = 0, uses_anonymous_args = 0
 1699 0000 00B5     		push	{lr}
 1700              		.cfi_def_cfa_offset 4
 1701              		.cfi_offset 14, -4
 1702 0002 83B0     		sub	sp, sp, #12
 1703              		.cfi_def_cfa_offset 16
 1704              		.loc 1 322 0
 1705 0004 194B     		ldr	r3, .L62
 1706 0006 5A69     		ldr	r2, [r3, #20]
 1707 0008 184B     		ldr	r3, .L62
 1708 000a 1B68     		ldr	r3, [r3]
 1709 000c 1A40     		ands	r2, r2, r3
 1710 000e 184B     		ldr	r3, .L62+4
 1711 0010 1340     		ands	r3, r3, r2
 1712 0012 0193     		str	r3, [sp, #4]
 1713              		.loc 1 323 0
 1714 0014 154B     		ldr	r3, .L62
 1715 0016 019A     		ldr	r2, [sp, #4]
 1716 0018 5A61     		str	r2, [r3, #20]
ARM GAS  /tmp/ccDPDrPi.s 			page 85


 1717              		.loc 1 324 0
 1718 001a 019B     		ldr	r3, [sp, #4]
 1719 001c 03F40013 		and	r3, r3, #2097152
 1720 0020 002B     		cmp	r3, #0
 1721 0022 06D0     		beq	.L59
 1722              		.loc 1 325 0
 1723 0024 134B     		ldr	r3, .L62+8
 1724 0026 5B68     		ldr	r3, [r3, #4]
 1725 0028 D3F8AC30 		ldr	r3, [r3, #172]
 1726 002c 1148     		ldr	r0, .L62+8
 1727 002e 1521     		movs	r1, #21
 1728 0030 9847     		blx	r3
 1729              	.L59:
 1730              		.loc 1 326 0
 1731 0032 019B     		ldr	r3, [sp, #4]
 1732 0034 03F48003 		and	r3, r3, #4194304
 1733 0038 002B     		cmp	r3, #0
 1734 003a 06D0     		beq	.L60
 1735              		.loc 1 327 0
 1736 003c 0D4B     		ldr	r3, .L62+8
 1737 003e 5B68     		ldr	r3, [r3, #4]
 1738 0040 D3F8B430 		ldr	r3, [r3, #180]
 1739 0044 0B48     		ldr	r0, .L62+8
 1740 0046 1621     		movs	r1, #22
 1741 0048 9847     		blx	r3
 1742              	.L60:
 1743              		.loc 1 328 0
 1744 004a 019B     		ldr	r3, [sp, #4]
 1745 004c 03F00053 		and	r3, r3, #536870912
 1746 0050 002B     		cmp	r3, #0
 1747 0052 06D0     		beq	.L61
 1748              		.loc 1 329 0
 1749 0054 074B     		ldr	r3, .L62+8
 1750 0056 5B68     		ldr	r3, [r3, #4]
 1751 0058 D3F8EC30 		ldr	r3, [r3, #236]
 1752 005c 0548     		ldr	r0, .L62+8
 1753 005e 1D21     		movs	r1, #29
 1754 0060 9847     		blx	r3
 1755              	.L61:
 1756              		.loc 1 331 0
 1757 0062 FFF7FEFF 		bl	_port_irq_epilogue
 1758              		.loc 1 332 0
 1759 0066 03B0     		add	sp, sp, #12
 1760              		@ sp needed
 1761 0068 5DF804FB 		ldr	pc, [sp], #4
 1762              	.L63:
 1763              		.align	2
 1764              	.L62:
 1765 006c 00040140 		.word	1073808384
 1766 0070 00006020 		.word	543162368
 1767 0074 00000000 		.word	EXTD1
 1768              		.cfi_endproc
 1769              	.LFE284:
 1770              		.size	Vector140, .-Vector140
 1771              		.section	.text.Vector144,"ax",%progbits
 1772              		.align	2
 1773              		.p2align 4,,15
ARM GAS  /tmp/ccDPDrPi.s 			page 86


 1774              		.global	Vector144
 1775              		.thumb
 1776              		.thumb_func
 1777              		.type	Vector144, %function
 1778              	Vector144:
 1779              	.LFB285:
 1780              		.loc 1 341 0
 1781              		.cfi_startproc
 1782              		@ args = 0, pretend = 0, frame = 8
 1783              		@ frame_needed = 0, uses_anonymous_args = 0
 1784 0000 00B5     		push	{lr}
 1785              		.cfi_def_cfa_offset 4
 1786              		.cfi_offset 14, -4
 1787 0002 83B0     		sub	sp, sp, #12
 1788              		.cfi_def_cfa_offset 16
 1789              		.loc 1 346 0
 1790 0004 1E4B     		ldr	r3, .L68
 1791 0006 5A69     		ldr	r2, [r3, #20]
 1792 0008 1D4B     		ldr	r3, .L68
 1793 000a 1B68     		ldr	r3, [r3]
 1794 000c 1340     		ands	r3, r3, r2
 1795 000e 03F04043 		and	r3, r3, #-1073741824
 1796 0012 0193     		str	r3, [sp, #4]
 1797              		.loc 1 347 0
 1798 0014 1A4B     		ldr	r3, .L68
 1799 0016 019A     		ldr	r2, [sp, #4]
 1800 0018 5A61     		str	r2, [r3, #20]
 1801              		.loc 1 348 0
 1802 001a 019B     		ldr	r3, [sp, #4]
 1803 001c 03F08043 		and	r3, r3, #1073741824
 1804 0020 002B     		cmp	r3, #0
 1805 0022 06D0     		beq	.L65
 1806              		.loc 1 349 0
 1807 0024 174B     		ldr	r3, .L68+4
 1808 0026 5B68     		ldr	r3, [r3, #4]
 1809 0028 D3F8F430 		ldr	r3, [r3, #244]
 1810 002c 1548     		ldr	r0, .L68+4
 1811 002e 1E21     		movs	r1, #30
 1812 0030 9847     		blx	r3
 1813              	.L65:
 1814              		.loc 1 350 0
 1815 0032 019B     		ldr	r3, [sp, #4]
 1816 0034 002B     		cmp	r3, #0
 1817 0036 06DA     		bge	.L66
 1818              		.loc 1 351 0
 1819 0038 124B     		ldr	r3, .L68+4
 1820 003a 5B68     		ldr	r3, [r3, #4]
 1821 003c D3F8FC30 		ldr	r3, [r3, #252]
 1822 0040 1048     		ldr	r0, .L68+4
 1823 0042 1F21     		movs	r1, #31
 1824 0044 9847     		blx	r3
 1825              	.L66:
 1826              		.loc 1 353 0
 1827 0046 0E4B     		ldr	r3, .L68
 1828 0048 5A6B     		ldr	r2, [r3, #52]
 1829 004a 0D4B     		ldr	r3, .L68
 1830 004c 1B6A     		ldr	r3, [r3, #32]
ARM GAS  /tmp/ccDPDrPi.s 			page 87


 1831 004e 1340     		ands	r3, r3, r2
 1832 0050 03F00103 		and	r3, r3, #1
 1833 0054 0193     		str	r3, [sp, #4]
 1834              		.loc 1 354 0
 1835 0056 0A4B     		ldr	r3, .L68
 1836 0058 019A     		ldr	r2, [sp, #4]
 1837 005a 5A63     		str	r2, [r3, #52]
 1838              		.loc 1 355 0
 1839 005c 019B     		ldr	r3, [sp, #4]
 1840 005e 03F00103 		and	r3, r3, #1
 1841 0062 002B     		cmp	r3, #0
 1842 0064 06D0     		beq	.L67
 1843              		.loc 1 356 0
 1844 0066 074B     		ldr	r3, .L68+4
 1845 0068 5B68     		ldr	r3, [r3, #4]
 1846 006a D3F80431 		ldr	r3, [r3, #260]
 1847 006e 0548     		ldr	r0, .L68+4
 1848 0070 2021     		movs	r1, #32
 1849 0072 9847     		blx	r3
 1850              	.L67:
 1851              		.loc 1 358 0
 1852 0074 FFF7FEFF 		bl	_port_irq_epilogue
 1853              		.loc 1 359 0
 1854 0078 03B0     		add	sp, sp, #12
 1855              		@ sp needed
 1856 007a 5DF804FB 		ldr	pc, [sp], #4
 1857              	.L69:
 1858 007e 00BF     		.align	2
 1859              	.L68:
 1860 0080 00040140 		.word	1073808384
 1861 0084 00000000 		.word	EXTD1
 1862              		.cfi_endproc
 1863              	.LFE285:
 1864              		.size	Vector144, .-Vector144
 1865 0088 AFF30080 		.section	.text.Vector148,"ax",%progbits
 1865      AFF30080 
 1866              		.align	2
 1867              		.p2align 4,,15
 1868              		.global	Vector148
 1869              		.thumb
 1870              		.thumb_func
 1871              		.type	Vector148, %function
 1872              	Vector148:
 1873              	.LFB286:
 1874              		.loc 1 368 0
 1875              		.cfi_startproc
 1876              		@ args = 0, pretend = 0, frame = 8
 1877              		@ frame_needed = 0, uses_anonymous_args = 0
 1878 0000 00B5     		push	{lr}
 1879              		.cfi_def_cfa_offset 4
 1880              		.cfi_offset 14, -4
 1881 0002 83B0     		sub	sp, sp, #12
 1882              		.cfi_def_cfa_offset 16
 1883              		.loc 1 373 0
 1884 0004 0D4B     		ldr	r3, .L72
 1885 0006 5A6B     		ldr	r2, [r3, #52]
 1886 0008 0C4B     		ldr	r3, .L72
ARM GAS  /tmp/ccDPDrPi.s 			page 88


 1887 000a 1B68     		ldr	r3, [r3]
 1888 000c 1340     		ands	r3, r3, r2
 1889 000e 03F00203 		and	r3, r3, #2
 1890 0012 0193     		str	r3, [sp, #4]
 1891              		.loc 1 374 0
 1892 0014 094B     		ldr	r3, .L72
 1893 0016 019A     		ldr	r2, [sp, #4]
 1894 0018 5A63     		str	r2, [r3, #52]
 1895              		.loc 1 375 0
 1896 001a 019B     		ldr	r3, [sp, #4]
 1897 001c 03F00203 		and	r3, r3, #2
 1898 0020 002B     		cmp	r3, #0
 1899 0022 06D0     		beq	.L71
 1900              		.loc 1 376 0
 1901 0024 064B     		ldr	r3, .L72+4
 1902 0026 5B68     		ldr	r3, [r3, #4]
 1903 0028 D3F80C31 		ldr	r3, [r3, #268]
 1904 002c 0448     		ldr	r0, .L72+4
 1905 002e 2121     		movs	r1, #33
 1906 0030 9847     		blx	r3
 1907              	.L71:
 1908              		.loc 1 378 0
 1909 0032 FFF7FEFF 		bl	_port_irq_epilogue
 1910              		.loc 1 379 0
 1911 0036 03B0     		add	sp, sp, #12
 1912              		@ sp needed
 1913 0038 5DF804FB 		ldr	pc, [sp], #4
 1914              	.L73:
 1915              		.align	2
 1916              	.L72:
 1917 003c 00040140 		.word	1073808384
 1918 0040 00000000 		.word	EXTD1
 1919              		.cfi_endproc
 1920              	.LFE286:
 1921              		.size	Vector148, .-Vector148
 1922 0044 AFF30080 		.section	.text.ext_lld_exti_irq_enable,"ax",%progbits
 1922      AFF30080 
 1922      AFF30080 
 1923              		.align	2
 1924              		.p2align 4,,15
 1925              		.global	ext_lld_exti_irq_enable
 1926              		.thumb
 1927              		.thumb_func
 1928              		.type	ext_lld_exti_irq_enable, %function
 1929              	ext_lld_exti_irq_enable:
 1930              	.LFB287:
 1931              		.loc 1 391 0
 1932              		.cfi_startproc
 1933              		@ args = 0, pretend = 0, frame = 0
 1934              		@ frame_needed = 0, uses_anonymous_args = 0
 1935 0000 08B5     		push	{r3, lr}
 1936              		.cfi_def_cfa_offset 8
 1937              		.cfi_offset 3, -8
 1938              		.cfi_offset 14, -4
 1939              		.loc 1 393 0
 1940 0002 0620     		movs	r0, #6
 1941 0004 0621     		movs	r1, #6
ARM GAS  /tmp/ccDPDrPi.s 			page 89


 1942 0006 FFF7FEFF 		bl	nvicEnableVector
 1943              		.loc 1 394 0
 1944 000a 0720     		movs	r0, #7
 1945 000c 0621     		movs	r1, #6
 1946 000e FFF7FEFF 		bl	nvicEnableVector
 1947              		.loc 1 395 0
 1948 0012 0820     		movs	r0, #8
 1949 0014 0621     		movs	r1, #6
 1950 0016 FFF7FEFF 		bl	nvicEnableVector
 1951              		.loc 1 396 0
 1952 001a 0920     		movs	r0, #9
 1953 001c 0621     		movs	r1, #6
 1954 001e FFF7FEFF 		bl	nvicEnableVector
 1955              		.loc 1 397 0
 1956 0022 0A20     		movs	r0, #10
 1957 0024 0621     		movs	r1, #6
 1958 0026 FFF7FEFF 		bl	nvicEnableVector
 1959              		.loc 1 398 0
 1960 002a 1720     		movs	r0, #23
 1961 002c 0621     		movs	r1, #6
 1962 002e FFF7FEFF 		bl	nvicEnableVector
 1963              		.loc 1 399 0
 1964 0032 2820     		movs	r0, #40
 1965 0034 0621     		movs	r1, #6
 1966 0036 FFF7FEFF 		bl	nvicEnableVector
 1967              		.loc 1 400 0
 1968 003a 0120     		movs	r0, #1
 1969 003c 0621     		movs	r1, #6
 1970 003e FFF7FEFF 		bl	nvicEnableVector
 1971              		.loc 1 401 0
 1972 0042 2920     		movs	r0, #41
 1973 0044 0621     		movs	r1, #6
 1974 0046 FFF7FEFF 		bl	nvicEnableVector
 1975              		.loc 1 403 0
 1976 004a 4C20     		movs	r0, #76
 1977 004c 0621     		movs	r1, #6
 1978 004e FFF7FEFF 		bl	nvicEnableVector
 1979              		.loc 1 405 0
 1980 0052 0220     		movs	r0, #2
 1981 0054 0621     		movs	r1, #6
 1982 0056 FFF7FEFF 		bl	nvicEnableVector
 1983              		.loc 1 406 0
 1984 005a 0320     		movs	r0, #3
 1985 005c 0621     		movs	r1, #6
 1986 005e FFF7FEFF 		bl	nvicEnableVector
 1987              		.loc 1 407 0
 1988 0062 4020     		movs	r0, #64
 1989 0064 0621     		movs	r1, #6
 1990 0066 FFF7FEFF 		bl	nvicEnableVector
 1991              		.loc 1 408 0
 1992 006a 4120     		movs	r0, #65
 1993 006c 0621     		movs	r1, #6
 1994 006e FFF7FEFF 		bl	nvicEnableVector
 1995              		.loc 1 410 0
 1996 0072 4220     		movs	r0, #66
 1997 0074 0621     		movs	r1, #6
 1998 0076 FFF7FEFF 		bl	nvicEnableVector
ARM GAS  /tmp/ccDPDrPi.s 			page 90


 1999              		.loc 1 412 0
 2000 007a 08BD     		pop	{r3, pc}
 2001              		.cfi_endproc
 2002              	.LFE287:
 2003              		.size	ext_lld_exti_irq_enable, .-ext_lld_exti_irq_enable
 2004              		.section	.text.ext_lld_exti_irq_disable,"ax",%progbits
 2005              		.align	2
 2006              		.p2align 4,,15
 2007              		.global	ext_lld_exti_irq_disable
 2008              		.thumb
 2009              		.thumb_func
 2010              		.type	ext_lld_exti_irq_disable, %function
 2011              	ext_lld_exti_irq_disable:
 2012              	.LFB288:
 2013              		.loc 1 419 0
 2014              		.cfi_startproc
 2015              		@ args = 0, pretend = 0, frame = 0
 2016              		@ frame_needed = 0, uses_anonymous_args = 0
 2017 0000 08B5     		push	{r3, lr}
 2018              		.cfi_def_cfa_offset 8
 2019              		.cfi_offset 3, -8
 2020              		.cfi_offset 14, -4
 2021              		.loc 1 421 0
 2022 0002 0620     		movs	r0, #6
 2023 0004 FFF7FEFF 		bl	nvicDisableVector
 2024              		.loc 1 422 0
 2025 0008 0720     		movs	r0, #7
 2026 000a FFF7FEFF 		bl	nvicDisableVector
 2027              		.loc 1 423 0
 2028 000e 0820     		movs	r0, #8
 2029 0010 FFF7FEFF 		bl	nvicDisableVector
 2030              		.loc 1 424 0
 2031 0014 0920     		movs	r0, #9
 2032 0016 FFF7FEFF 		bl	nvicDisableVector
 2033              		.loc 1 425 0
 2034 001a 0A20     		movs	r0, #10
 2035 001c FFF7FEFF 		bl	nvicDisableVector
 2036              		.loc 1 426 0
 2037 0020 1720     		movs	r0, #23
 2038 0022 FFF7FEFF 		bl	nvicDisableVector
 2039              		.loc 1 427 0
 2040 0026 2820     		movs	r0, #40
 2041 0028 FFF7FEFF 		bl	nvicDisableVector
 2042              		.loc 1 428 0
 2043 002c 0120     		movs	r0, #1
 2044 002e FFF7FEFF 		bl	nvicDisableVector
 2045              		.loc 1 429 0
 2046 0032 2920     		movs	r0, #41
 2047 0034 FFF7FEFF 		bl	nvicDisableVector
 2048              		.loc 1 431 0
 2049 0038 4C20     		movs	r0, #76
 2050 003a FFF7FEFF 		bl	nvicDisableVector
 2051              		.loc 1 433 0
 2052 003e 0220     		movs	r0, #2
 2053 0040 FFF7FEFF 		bl	nvicDisableVector
 2054              		.loc 1 434 0
 2055 0044 0320     		movs	r0, #3
ARM GAS  /tmp/ccDPDrPi.s 			page 91


 2056 0046 FFF7FEFF 		bl	nvicDisableVector
 2057              		.loc 1 435 0
 2058 004a 4020     		movs	r0, #64
 2059 004c FFF7FEFF 		bl	nvicDisableVector
 2060              		.loc 1 436 0
 2061 0050 4120     		movs	r0, #65
 2062 0052 FFF7FEFF 		bl	nvicDisableVector
 2063              		.loc 1 438 0
 2064 0056 4220     		movs	r0, #66
 2065 0058 FFF7FEFF 		bl	nvicDisableVector
 2066              		.loc 1 440 0
 2067 005c 08BD     		pop	{r3, pc}
 2068              		.cfi_endproc
 2069              	.LFE288:
 2070              		.size	ext_lld_exti_irq_disable, .-ext_lld_exti_irq_disable
 2071 005e 00BF     		.text
 2072              	.Letext0:
 2073              		.file 2 "/nfs/nfs5/home/research/hardware/arm2/gcc-arm-embedded/gcc-arm-none-eabi-4_8-2014q2/arm-n
 2074              		.file 3 "/nfs/nfs5/home/research/hardware/arm2/gcc-arm-embedded/gcc-arm-none-eabi-4_8-2014q2/arm-n
 2075              		.file 4 "../ChibiOS/os/rt/ports/ARMCMx/compilers/GCC/chtypes.h"
 2076              		.file 5 "../ChibiOS/os/rt/include/chsystypes.h"
 2077              		.file 6 "../ChibiOS/os/rt/include/chschd.h"
 2078              		.file 7 "../ChibiOS/os/ext/CMSIS/ST/STM32F3xx/stm32f303xc.h"
 2079              		.file 8 "../ChibiOS/os/rt/ports/ARMCMx/chcore.h"
 2080              		.file 9 "../ChibiOS/os/rt/ports/ARMCMx/chcore_v7m.h"
 2081              		.file 10 "../ChibiOS/os/rt/include/chtm.h"
 2082              		.file 11 "../ChibiOS/os/rt/include/chsem.h"
 2083              		.file 12 "../ChibiOS/os/rt/include/chmtx.h"
 2084              		.file 13 "../ChibiOS/os/hal/include/ext.h"
 2085              		.file 14 "../ChibiOS/os/hal/ports/STM32/LLD/EXTIv1/ext_lld.h"
 2086              		.file 15 "../ChibiOS/os/ext/CMSIS/include/core_cm4.h"
 2087              		.section	.debug_info,"",%progbits
 2088              	.Ldebug_info0:
 2089 0000 1B0C0000 		.4byte	0xc1b
 2090 0004 0400     		.2byte	0x4
 2091 0006 00000000 		.4byte	.Ldebug_abbrev0
 2092 000a 04       		.byte	0x4
 2093 000b 01       		.uleb128 0x1
 2094 000c C2020000 		.4byte	.LASF220
 2095 0010 01       		.byte	0x1
 2096 0011 13090000 		.4byte	.LASF221
 2097 0015 7F080000 		.4byte	.LASF222
 2098 0019 00000000 		.4byte	.Ldebug_ranges0+0
 2099 001d 00000000 		.4byte	0
 2100 0021 00000000 		.4byte	.Ldebug_line0
 2101 0025 02       		.uleb128 0x2
 2102 0026 04       		.byte	0x4
 2103 0027 05       		.byte	0x5
 2104 0028 696E7400 		.ascii	"int\000"
 2105 002c 03       		.uleb128 0x3
 2106 002d 04       		.byte	0x4
 2107 002e 07       		.byte	0x7
 2108 002f A2030000 		.4byte	.LASF0
 2109 0033 03       		.uleb128 0x3
 2110 0034 01       		.byte	0x1
 2111 0035 06       		.byte	0x6
 2112 0036 62010000 		.4byte	.LASF1
ARM GAS  /tmp/ccDPDrPi.s 			page 92


 2113 003a 04       		.uleb128 0x4
 2114 003b 48000000 		.4byte	.LASF5
 2115 003f 02       		.byte	0x2
 2116 0040 1C       		.byte	0x1c
 2117 0041 45000000 		.4byte	0x45
 2118 0045 03       		.uleb128 0x3
 2119 0046 01       		.byte	0x1
 2120 0047 08       		.byte	0x8
 2121 0048 1A070000 		.4byte	.LASF2
 2122 004c 03       		.uleb128 0x3
 2123 004d 02       		.byte	0x2
 2124 004e 05       		.byte	0x5
 2125 004f 6C070000 		.4byte	.LASF3
 2126 0053 03       		.uleb128 0x3
 2127 0054 02       		.byte	0x2
 2128 0055 07       		.byte	0x7
 2129 0056 25040000 		.4byte	.LASF4
 2130 005a 04       		.uleb128 0x4
 2131 005b DD040000 		.4byte	.LASF6
 2132 005f 02       		.byte	0x2
 2133 0060 37       		.byte	0x37
 2134 0061 65000000 		.4byte	0x65
 2135 0065 03       		.uleb128 0x3
 2136 0066 04       		.byte	0x4
 2137 0067 05       		.byte	0x5
 2138 0068 B0010000 		.4byte	.LASF7
 2139 006c 04       		.uleb128 0x4
 2140 006d 80090000 		.4byte	.LASF8
 2141 0071 02       		.byte	0x2
 2142 0072 38       		.byte	0x38
 2143 0073 77000000 		.4byte	0x77
 2144 0077 03       		.uleb128 0x3
 2145 0078 04       		.byte	0x4
 2146 0079 07       		.byte	0x7
 2147 007a CA080000 		.4byte	.LASF9
 2148 007e 03       		.uleb128 0x3
 2149 007f 08       		.byte	0x8
 2150 0080 05       		.byte	0x5
 2151 0081 54010000 		.4byte	.LASF10
 2152 0085 04       		.uleb128 0x4
 2153 0086 79060000 		.4byte	.LASF11
 2154 008a 02       		.byte	0x2
 2155 008b 4E       		.byte	0x4e
 2156 008c 90000000 		.4byte	0x90
 2157 0090 03       		.uleb128 0x3
 2158 0091 08       		.byte	0x8
 2159 0092 07       		.byte	0x7
 2160 0093 B3000000 		.4byte	.LASF12
 2161 0097 04       		.uleb128 0x4
 2162 0098 7A0A0000 		.4byte	.LASF13
 2163 009c 03       		.byte	0x3
 2164 009d 2A       		.byte	0x2a
 2165 009e 3A000000 		.4byte	0x3a
 2166 00a2 04       		.uleb128 0x4
 2167 00a3 12070000 		.4byte	.LASF14
 2168 00a7 03       		.byte	0x3
 2169 00a8 41       		.byte	0x41
ARM GAS  /tmp/ccDPDrPi.s 			page 93


 2170 00a9 5A000000 		.4byte	0x5a
 2171 00ad 04       		.uleb128 0x4
 2172 00ae 30080000 		.4byte	.LASF15
 2173 00b2 03       		.byte	0x3
 2174 00b3 42       		.byte	0x42
 2175 00b4 6C000000 		.4byte	0x6c
 2176 00b8 04       		.uleb128 0x4
 2177 00b9 32000000 		.4byte	.LASF16
 2178 00bd 03       		.byte	0x3
 2179 00be 4E       		.byte	0x4e
 2180 00bf 85000000 		.4byte	0x85
 2181 00c3 04       		.uleb128 0x4
 2182 00c4 090A0000 		.4byte	.LASF17
 2183 00c8 04       		.byte	0x4
 2184 00c9 39       		.byte	0x39
 2185 00ca AD000000 		.4byte	0xad
 2186 00ce 04       		.uleb128 0x4
 2187 00cf 9D040000 		.4byte	.LASF18
 2188 00d3 04       		.byte	0x4
 2189 00d4 3C       		.byte	0x3c
 2190 00d5 97000000 		.4byte	0x97
 2191 00d9 04       		.uleb128 0x4
 2192 00da DA010000 		.4byte	.LASF19
 2193 00de 04       		.byte	0x4
 2194 00df 3D       		.byte	0x3d
 2195 00e0 97000000 		.4byte	0x97
 2196 00e4 04       		.uleb128 0x4
 2197 00e5 C1060000 		.4byte	.LASF20
 2198 00e9 04       		.byte	0x4
 2199 00ea 3E       		.byte	0x3e
 2200 00eb 97000000 		.4byte	0x97
 2201 00ef 04       		.uleb128 0x4
 2202 00f0 F4060000 		.4byte	.LASF21
 2203 00f4 04       		.byte	0x4
 2204 00f5 40       		.byte	0x40
 2205 00f6 AD000000 		.4byte	0xad
 2206 00fa 04       		.uleb128 0x4
 2207 00fb 64040000 		.4byte	.LASF22
 2208 00ff 04       		.byte	0x4
 2209 0100 41       		.byte	0x41
 2210 0101 A2000000 		.4byte	0xa2
 2211 0105 04       		.uleb128 0x4
 2212 0106 D1040000 		.4byte	.LASF23
 2213 010a 04       		.byte	0x4
 2214 010b 43       		.byte	0x43
 2215 010c AD000000 		.4byte	0xad
 2216 0110 04       		.uleb128 0x4
 2217 0111 DC050000 		.4byte	.LASF24
 2218 0115 04       		.byte	0x4
 2219 0116 45       		.byte	0x45
 2220 0117 A2000000 		.4byte	0xa2
 2221 011b 04       		.uleb128 0x4
 2222 011c 59090000 		.4byte	.LASF25
 2223 0120 05       		.byte	0x5
 2224 0121 33       		.byte	0x33
 2225 0122 AD000000 		.4byte	0xad
 2226 0126 04       		.uleb128 0x4
ARM GAS  /tmp/ccDPDrPi.s 			page 94


 2227 0127 49090000 		.4byte	.LASF26
 2228 012b 05       		.byte	0x5
 2229 012c 3F       		.byte	0x3f
 2230 012d 31010000 		.4byte	0x131
 2231 0131 05       		.uleb128 0x5
 2232 0132 50040000 		.4byte	.LASF46
 2233 0136 44       		.byte	0x44
 2234 0137 06       		.byte	0x6
 2235 0138 C2       		.byte	0xc2
 2236 0139 1D020000 		.4byte	0x21d
 2237 013d 06       		.uleb128 0x6
 2238 013e B2070000 		.4byte	.LASF27
 2239 0142 06       		.byte	0x6
 2240 0143 C3       		.byte	0xc3
 2241 0144 28020000 		.4byte	0x228
 2242 0148 00       		.byte	0
 2243 0149 06       		.uleb128 0x6
 2244 014a ED060000 		.4byte	.LASF28
 2245 014e 06       		.byte	0x6
 2246 014f C5       		.byte	0xc5
 2247 0150 28020000 		.4byte	0x228
 2248 0154 04       		.byte	0x4
 2249 0155 06       		.uleb128 0x6
 2250 0156 40010000 		.4byte	.LASF29
 2251 015a 06       		.byte	0x6
 2252 015b C7       		.byte	0xc7
 2253 015c EF000000 		.4byte	0xef
 2254 0160 08       		.byte	0x8
 2255 0161 06       		.uleb128 0x6
 2256 0162 210B0000 		.4byte	.LASF30
 2257 0166 06       		.byte	0x6
 2258 0167 C8       		.byte	0xc8
 2259 0168 F4060000 		.4byte	0x6f4
 2260 016c 0C       		.byte	0xc
 2261 016d 06       		.uleb128 0x6
 2262 016e 10020000 		.4byte	.LASF31
 2263 0172 06       		.byte	0x6
 2264 0173 CA       		.byte	0xca
 2265 0174 28020000 		.4byte	0x228
 2266 0178 10       		.byte	0x10
 2267 0179 06       		.uleb128 0x6
 2268 017a 7E070000 		.4byte	.LASF32
 2269 017e 06       		.byte	0x6
 2270 017f CB       		.byte	0xcb
 2271 0180 28020000 		.4byte	0x228
 2272 0184 14       		.byte	0x14
 2273 0185 06       		.uleb128 0x6
 2274 0186 A60A0000 		.4byte	.LASF33
 2275 018a 06       		.byte	0x6
 2276 018b D2       		.byte	0xd2
 2277 018c 7F080000 		.4byte	0x87f
 2278 0190 18       		.byte	0x18
 2279 0191 06       		.uleb128 0x6
 2280 0192 2D060000 		.4byte	.LASF34
 2281 0196 06       		.byte	0x6
 2282 0197 D8       		.byte	0xd8
 2283 0198 91080000 		.4byte	0x891
ARM GAS  /tmp/ccDPDrPi.s 			page 95


 2284 019c 1C       		.byte	0x1c
 2285 019d 06       		.uleb128 0x6
 2286 019e 76070000 		.4byte	.LASF35
 2287 01a2 06       		.byte	0x6
 2288 01a3 DD       		.byte	0xdd
 2289 01a4 D9000000 		.4byte	0xd9
 2290 01a8 20       		.byte	0x20
 2291 01a9 06       		.uleb128 0x6
 2292 01aa B9070000 		.4byte	.LASF36
 2293 01ae 06       		.byte	0x6
 2294 01af E1       		.byte	0xe1
 2295 01b0 CE000000 		.4byte	0xce
 2296 01b4 21       		.byte	0x21
 2297 01b5 06       		.uleb128 0x6
 2298 01b6 580A0000 		.4byte	.LASF37
 2299 01ba 06       		.byte	0x6
 2300 01bb E6       		.byte	0xe6
 2301 01bc E4000000 		.4byte	0xe4
 2302 01c0 22       		.byte	0x22
 2303 01c1 07       		.uleb128 0x7
 2304 01c2 705F7500 		.ascii	"p_u\000"
 2305 01c6 06       		.byte	0x6
 2306 01c7 3701     		.2byte	0x137
 2307 01c9 AE070000 		.4byte	0x7ae
 2308 01cd 24       		.byte	0x24
 2309 01ce 08       		.uleb128 0x8
 2310 01cf 56050000 		.4byte	.LASF38
 2311 01d3 06       		.byte	0x6
 2312 01d4 3C01     		.2byte	0x13c
 2313 01d6 2E020000 		.4byte	0x22e
 2314 01da 28       		.byte	0x28
 2315 01db 08       		.uleb128 0x8
 2316 01dc F0030000 		.4byte	.LASF39
 2317 01e0 06       		.byte	0x6
 2318 01e1 4201     		.2byte	0x142
 2319 01e3 52020000 		.4byte	0x252
 2320 01e7 2C       		.byte	0x2c
 2321 01e8 08       		.uleb128 0x8
 2322 01e9 25080000 		.4byte	.LASF40
 2323 01ed 06       		.byte	0x6
 2324 01ee 4801     		.2byte	0x148
 2325 01f0 05010000 		.4byte	0x105
 2326 01f4 34       		.byte	0x34
 2327 01f5 08       		.uleb128 0x8
 2328 01f6 62070000 		.4byte	.LASF41
 2329 01fa 06       		.byte	0x6
 2330 01fb 4F01     		.2byte	0x14f
 2331 01fd 79080000 		.4byte	0x879
 2332 0201 38       		.byte	0x38
 2333 0202 08       		.uleb128 0x8
 2334 0203 56020000 		.4byte	.LASF42
 2335 0207 06       		.byte	0x6
 2336 0208 5301     		.2byte	0x153
 2337 020a EF000000 		.4byte	0xef
 2338 020e 3C       		.byte	0x3c
 2339 020f 08       		.uleb128 0x8
 2340 0210 77010000 		.4byte	.LASF43
ARM GAS  /tmp/ccDPDrPi.s 			page 96


 2341 0214 06       		.byte	0x6
 2342 0215 5A01     		.2byte	0x15a
 2343 0217 05030000 		.4byte	0x305
 2344 021b 40       		.byte	0x40
 2345 021c 00       		.byte	0
 2346 021d 04       		.uleb128 0x4
 2347 021e 80050000 		.4byte	.LASF44
 2348 0222 05       		.byte	0x5
 2349 0223 44       		.byte	0x44
 2350 0224 28020000 		.4byte	0x228
 2351 0228 09       		.uleb128 0x9
 2352 0229 04       		.byte	0x4
 2353 022a 26010000 		.4byte	0x126
 2354 022e 04       		.uleb128 0x4
 2355 022f 00000000 		.4byte	.LASF45
 2356 0233 05       		.byte	0x5
 2357 0234 49       		.byte	0x49
 2358 0235 39020000 		.4byte	0x239
 2359 0239 05       		.uleb128 0x5
 2360 023a 5C080000 		.4byte	.LASF47
 2361 023e 04       		.byte	0x4
 2362 023f 06       		.byte	0x6
 2363 0240 B0       		.byte	0xb0
 2364 0241 52020000 		.4byte	0x252
 2365 0245 06       		.uleb128 0x6
 2366 0246 B2070000 		.4byte	.LASF27
 2367 024a 06       		.byte	0x6
 2368 024b B1       		.byte	0xb1
 2369 024c 28020000 		.4byte	0x228
 2370 0250 00       		.byte	0
 2371 0251 00       		.byte	0
 2372 0252 04       		.uleb128 0x4
 2373 0253 3D0A0000 		.4byte	.LASF48
 2374 0257 05       		.byte	0x5
 2375 0258 50       		.byte	0x50
 2376 0259 5D020000 		.4byte	0x25d
 2377 025d 05       		.uleb128 0x5
 2378 025e 2F010000 		.4byte	.LASF49
 2379 0262 08       		.byte	0x8
 2380 0263 06       		.byte	0x6
 2381 0264 B7       		.byte	0xb7
 2382 0265 82020000 		.4byte	0x282
 2383 0269 06       		.uleb128 0x6
 2384 026a B2070000 		.4byte	.LASF27
 2385 026e 06       		.byte	0x6
 2386 026f B8       		.byte	0xb8
 2387 0270 28020000 		.4byte	0x228
 2388 0274 00       		.byte	0
 2389 0275 06       		.uleb128 0x6
 2390 0276 ED060000 		.4byte	.LASF28
 2391 027a 06       		.byte	0x6
 2392 027b B9       		.byte	0xb9
 2393 027c 28020000 		.4byte	0x228
 2394 0280 04       		.byte	0x4
 2395 0281 00       		.byte	0
 2396 0282 04       		.uleb128 0x4
 2397 0283 0F000000 		.4byte	.LASF50
ARM GAS  /tmp/ccDPDrPi.s 			page 97


 2398 0287 05       		.byte	0x5
 2399 0288 57       		.byte	0x57
 2400 0289 8D020000 		.4byte	0x28d
 2401 028d 0A       		.uleb128 0xa
 2402 028e C3040000 		.4byte	.LASF51
 2403 0292 1C       		.byte	0x1c
 2404 0293 06       		.byte	0x6
 2405 0294 9201     		.2byte	0x192
 2406 0296 E9020000 		.4byte	0x2e9
 2407 029a 08       		.uleb128 0x8
 2408 029b D4050000 		.4byte	.LASF52
 2409 029f 06       		.byte	0x6
 2410 02a0 9301     		.2byte	0x193
 2411 02a2 52020000 		.4byte	0x252
 2412 02a6 00       		.byte	0
 2413 02a7 08       		.uleb128 0x8
 2414 02a8 86070000 		.4byte	.LASF53
 2415 02ac 06       		.byte	0x6
 2416 02ad 9401     		.2byte	0x194
 2417 02af EF000000 		.4byte	0xef
 2418 02b3 08       		.byte	0x8
 2419 02b4 08       		.uleb128 0x8
 2420 02b5 03060000 		.4byte	.LASF54
 2421 02b9 06       		.byte	0x6
 2422 02ba 9601     		.2byte	0x196
 2423 02bc F4060000 		.4byte	0x6f4
 2424 02c0 0C       		.byte	0xc
 2425 02c1 08       		.uleb128 0x8
 2426 02c2 74020000 		.4byte	.LASF55
 2427 02c6 06       		.byte	0x6
 2428 02c7 9901     		.2byte	0x199
 2429 02c9 28020000 		.4byte	0x228
 2430 02cd 10       		.byte	0x10
 2431 02ce 08       		.uleb128 0x8
 2432 02cf 4B060000 		.4byte	.LASF56
 2433 02d3 06       		.byte	0x6
 2434 02d4 9A01     		.2byte	0x19a
 2435 02d6 28020000 		.4byte	0x228
 2436 02da 14       		.byte	0x14
 2437 02db 08       		.uleb128 0x8
 2438 02dc 41060000 		.4byte	.LASF57
 2439 02e0 06       		.byte	0x6
 2440 02e1 9D01     		.2byte	0x19d
 2441 02e3 28020000 		.4byte	0x228
 2442 02e7 18       		.byte	0x18
 2443 02e8 00       		.byte	0
 2444 02e9 04       		.uleb128 0x4
 2445 02ea 77090000 		.4byte	.LASF58
 2446 02ee 05       		.byte	0x5
 2447 02ef 5C       		.byte	0x5c
 2448 02f0 F4020000 		.4byte	0x2f4
 2449 02f4 09       		.uleb128 0x9
 2450 02f5 04       		.byte	0x4
 2451 02f6 FA020000 		.4byte	0x2fa
 2452 02fa 0B       		.uleb128 0xb
 2453 02fb 05030000 		.4byte	0x305
 2454 02ff 0C       		.uleb128 0xc
ARM GAS  /tmp/ccDPDrPi.s 			page 98


 2455 0300 05030000 		.4byte	0x305
 2456 0304 00       		.byte	0
 2457 0305 0D       		.uleb128 0xd
 2458 0306 04       		.byte	0x4
 2459 0307 04       		.uleb128 0x4
 2460 0308 DD060000 		.4byte	.LASF59
 2461 030c 05       		.byte	0x5
 2462 030d 61       		.byte	0x61
 2463 030e 12030000 		.4byte	0x312
 2464 0312 0A       		.uleb128 0xa
 2465 0313 EE070000 		.4byte	.LASF60
 2466 0317 14       		.byte	0x14
 2467 0318 06       		.byte	0x6
 2468 0319 6D01     		.2byte	0x16d
 2469 031b 61030000 		.4byte	0x361
 2470 031f 08       		.uleb128 0x8
 2471 0320 AF030000 		.4byte	.LASF61
 2472 0324 06       		.byte	0x6
 2473 0325 6E01     		.2byte	0x16e
 2474 0327 97080000 		.4byte	0x897
 2475 032b 00       		.byte	0
 2476 032c 08       		.uleb128 0x8
 2477 032d 8A020000 		.4byte	.LASF62
 2478 0331 06       		.byte	0x6
 2479 0332 6F01     		.2byte	0x16f
 2480 0334 97080000 		.4byte	0x897
 2481 0338 04       		.byte	0x4
 2482 0339 08       		.uleb128 0x8
 2483 033a DE030000 		.4byte	.LASF63
 2484 033e 06       		.byte	0x6
 2485 033f 7001     		.2byte	0x170
 2486 0341 1B010000 		.4byte	0x11b
 2487 0345 08       		.byte	0x8
 2488 0346 08       		.uleb128 0x8
 2489 0347 270B0000 		.4byte	.LASF64
 2490 034b 06       		.byte	0x6
 2491 034c 7101     		.2byte	0x171
 2492 034e E9020000 		.4byte	0x2e9
 2493 0352 0C       		.byte	0xc
 2494 0353 08       		.uleb128 0x8
 2495 0354 160A0000 		.4byte	.LASF65
 2496 0358 06       		.byte	0x6
 2497 0359 7301     		.2byte	0x173
 2498 035b 05030000 		.4byte	0x305
 2499 035f 10       		.byte	0x10
 2500 0360 00       		.byte	0
 2501 0361 04       		.uleb128 0x4
 2502 0362 F3040000 		.4byte	.LASF66
 2503 0366 05       		.byte	0x5
 2504 0367 66       		.byte	0x66
 2505 0368 6C030000 		.4byte	0x36c
 2506 036c 0A       		.uleb128 0xa
 2507 036d 9E050000 		.4byte	.LASF67
 2508 0371 10       		.byte	0x10
 2509 0372 06       		.byte	0x6
 2510 0373 7D01     		.2byte	0x17d
 2511 0375 AE030000 		.4byte	0x3ae
ARM GAS  /tmp/ccDPDrPi.s 			page 99


 2512 0379 08       		.uleb128 0x8
 2513 037a AF030000 		.4byte	.LASF61
 2514 037e 06       		.byte	0x6
 2515 037f 7E01     		.2byte	0x17e
 2516 0381 97080000 		.4byte	0x897
 2517 0385 00       		.byte	0
 2518 0386 08       		.uleb128 0x8
 2519 0387 8A020000 		.4byte	.LASF62
 2520 038b 06       		.byte	0x6
 2521 038c 8001     		.2byte	0x180
 2522 038e 97080000 		.4byte	0x897
 2523 0392 04       		.byte	0x4
 2524 0393 08       		.uleb128 0x8
 2525 0394 DE030000 		.4byte	.LASF63
 2526 0398 06       		.byte	0x6
 2527 0399 8201     		.2byte	0x182
 2528 039b 1B010000 		.4byte	0x11b
 2529 039f 08       		.byte	0x8
 2530 03a0 08       		.uleb128 0x8
 2531 03a1 E2050000 		.4byte	.LASF68
 2532 03a5 06       		.byte	0x6
 2533 03a6 8A01     		.2byte	0x18a
 2534 03a8 1B010000 		.4byte	0x11b
 2535 03ac 0C       		.byte	0xc
 2536 03ad 00       		.byte	0
 2537 03ae 04       		.uleb128 0x4
 2538 03af 7A000000 		.4byte	.LASF69
 2539 03b3 05       		.byte	0x5
 2540 03b4 6B       		.byte	0x6b
 2541 03b5 B9030000 		.4byte	0x3b9
 2542 03b9 0A       		.uleb128 0xa
 2543 03ba FC060000 		.4byte	.LASF70
 2544 03be 04       		.byte	0x4
 2545 03bf 06       		.byte	0x6
 2546 03c0 A401     		.2byte	0x1a4
 2547 03c2 D4030000 		.4byte	0x3d4
 2548 03c6 08       		.uleb128 0x8
 2549 03c7 8B090000 		.4byte	.LASF71
 2550 03cb 06       		.byte	0x6
 2551 03cc AC01     		.2byte	0x1ac
 2552 03ce 9D080000 		.4byte	0x89d
 2553 03d2 00       		.byte	0
 2554 03d3 00       		.byte	0
 2555 03d4 04       		.uleb128 0x4
 2556 03d5 EE090000 		.4byte	.LASF72
 2557 03d9 05       		.byte	0x5
 2558 03da 70       		.byte	0x70
 2559 03db DF030000 		.4byte	0x3df
 2560 03df 0E       		.uleb128 0xe
 2561 03e0 E4070000 		.4byte	.LASF73
 2562 03e4 5001     		.2byte	0x150
 2563 03e6 06       		.byte	0x6
 2564 03e7 C401     		.2byte	0x1c4
 2565 03e9 3B040000 		.4byte	0x43b
 2566 03ed 08       		.uleb128 0x8
 2567 03ee 6B0A0000 		.4byte	.LASF74
 2568 03f2 06       		.byte	0x6
ARM GAS  /tmp/ccDPDrPi.s 			page 100


 2569 03f3 C801     		.2byte	0x1c8
 2570 03f5 82020000 		.4byte	0x282
 2571 03f9 00       		.byte	0
 2572 03fa 08       		.uleb128 0x8
 2573 03fb 87010000 		.4byte	.LASF75
 2574 03ff 06       		.byte	0x6
 2575 0400 CC01     		.2byte	0x1cc
 2576 0402 61030000 		.4byte	0x361
 2577 0406 1C       		.byte	0x1c
 2578 0407 07       		.uleb128 0x7
 2579 0408 64626700 		.ascii	"dbg\000"
 2580 040c 06       		.byte	0x6
 2581 040d D001     		.2byte	0x1d0
 2582 040f AE030000 		.4byte	0x3ae
 2583 0413 2C       		.byte	0x2c
 2584 0414 08       		.uleb128 0x8
 2585 0415 EF000000 		.4byte	.LASF76
 2586 0419 06       		.byte	0x6
 2587 041a D401     		.2byte	0x1d4
 2588 041c 26010000 		.4byte	0x126
 2589 0420 30       		.byte	0x30
 2590 0421 07       		.uleb128 0x7
 2591 0422 746D00   		.ascii	"tm\000"
 2592 0425 06       		.byte	0x6
 2593 0426 D901     		.2byte	0x1d9
 2594 0428 A3070000 		.4byte	0x7a3
 2595 042c 74       		.byte	0x74
 2596 042d 08       		.uleb128 0x8
 2597 042e 9A020000 		.4byte	.LASF77
 2598 0432 06       		.byte	0x6
 2599 0433 E501     		.2byte	0x1e5
 2600 0435 A2080000 		.4byte	0x8a2
 2601 0439 78       		.byte	0x78
 2602 043a 00       		.byte	0
 2603 043b 0F       		.uleb128 0xf
 2604 043c 01       		.byte	0x1
 2605 043d 07       		.byte	0x7
 2606 043e 55       		.byte	0x55
 2607 043f 07060000 		.4byte	0x607
 2608 0443 10       		.uleb128 0x10
 2609 0444 63090000 		.4byte	.LASF78
 2610 0448 72       		.sleb128 -14
 2611 0449 10       		.uleb128 0x10
 2612 044a C8030000 		.4byte	.LASF79
 2613 044e 74       		.sleb128 -12
 2614 044f 10       		.uleb128 0x10
 2615 0450 7C020000 		.4byte	.LASF80
 2616 0454 75       		.sleb128 -11
 2617 0455 10       		.uleb128 0x10
 2618 0456 4C080000 		.4byte	.LASF81
 2619 045a 76       		.sleb128 -10
 2620 045b 10       		.uleb128 0x10
 2621 045c B5050000 		.4byte	.LASF82
 2622 0460 7B       		.sleb128 -5
 2623 0461 10       		.uleb128 0x10
 2624 0462 C90A0000 		.4byte	.LASF83
 2625 0466 7C       		.sleb128 -4
ARM GAS  /tmp/ccDPDrPi.s 			page 101


 2626 0467 10       		.uleb128 0x10
 2627 0468 4A020000 		.4byte	.LASF84
 2628 046c 7E       		.sleb128 -2
 2629 046d 10       		.uleb128 0x10
 2630 046e 09050000 		.4byte	.LASF85
 2631 0472 7F       		.sleb128 -1
 2632 0473 10       		.uleb128 0x10
 2633 0474 95090000 		.4byte	.LASF86
 2634 0478 00       		.sleb128 0
 2635 0479 10       		.uleb128 0x10
 2636 047a 6E010000 		.4byte	.LASF87
 2637 047e 01       		.sleb128 1
 2638 047f 10       		.uleb128 0x10
 2639 0480 60060000 		.4byte	.LASF88
 2640 0484 02       		.sleb128 2
 2641 0485 10       		.uleb128 0x10
 2642 0486 1A010000 		.4byte	.LASF89
 2643 048a 03       		.sleb128 3
 2644 048b 10       		.uleb128 0x10
 2645 048c 0C080000 		.4byte	.LASF90
 2646 0490 04       		.sleb128 4
 2647 0491 10       		.uleb128 0x10
 2648 0492 820A0000 		.4byte	.LASF91
 2649 0496 05       		.sleb128 5
 2650 0497 10       		.uleb128 0x10
 2651 0498 4D0A0000 		.4byte	.LASF92
 2652 049c 06       		.sleb128 6
 2653 049d 10       		.uleb128 0x10
 2654 049e 2F0B0000 		.4byte	.LASF93
 2655 04a2 07       		.sleb128 7
 2656 04a3 10       		.uleb128 0x10
 2657 04a4 DB0A0000 		.4byte	.LASF94
 2658 04a8 08       		.sleb128 8
 2659 04a9 10       		.uleb128 0x10
 2660 04aa EE050000 		.4byte	.LASF95
 2661 04ae 09       		.sleb128 9
 2662 04af 10       		.uleb128 0x10
 2663 04b0 57070000 		.4byte	.LASF96
 2664 04b4 0A       		.sleb128 10
 2665 04b5 10       		.uleb128 0x10
 2666 04b6 92060000 		.4byte	.LASF97
 2667 04ba 0B       		.sleb128 11
 2668 04bb 10       		.uleb128 0x10
 2669 04bc B9090000 		.4byte	.LASF98
 2670 04c0 0C       		.sleb128 12
 2671 04c1 10       		.uleb128 0x10
 2672 04c2 98070000 		.4byte	.LASF99
 2673 04c6 0D       		.sleb128 13
 2674 04c7 10       		.uleb128 0x10
 2675 04c8 61020000 		.4byte	.LASF100
 2676 04cc 0E       		.sleb128 14
 2677 04cd 10       		.uleb128 0x10
 2678 04ce 12040000 		.4byte	.LASF101
 2679 04d2 0F       		.sleb128 15
 2680 04d3 10       		.uleb128 0x10
 2681 04d4 9F090000 		.4byte	.LASF102
 2682 04d8 10       		.sleb128 16
ARM GAS  /tmp/ccDPDrPi.s 			page 102


 2683 04d9 10       		.uleb128 0x10
 2684 04da AD0A0000 		.4byte	.LASF103
 2685 04de 11       		.sleb128 17
 2686 04df 10       		.uleb128 0x10
 2687 04e0 04020000 		.4byte	.LASF104
 2688 04e4 12       		.sleb128 18
 2689 04e5 10       		.uleb128 0x10
 2690 04e6 AE060000 		.4byte	.LASF105
 2691 04ea 13       		.sleb128 19
 2692 04eb 10       		.uleb128 0x10
 2693 04ec D0070000 		.4byte	.LASF106
 2694 04f0 14       		.sleb128 20
 2695 04f1 10       		.uleb128 0x10
 2696 04f2 53060000 		.4byte	.LASF107
 2697 04f6 15       		.sleb128 21
 2698 04f7 10       		.uleb128 0x10
 2699 04f8 86040000 		.4byte	.LASF108
 2700 04fc 16       		.sleb128 22
 2701 04fd 10       		.uleb128 0x10
 2702 04fe ED010000 		.4byte	.LASF109
 2703 0502 17       		.sleb128 23
 2704 0503 10       		.uleb128 0x10
 2705 0504 8B0A0000 		.4byte	.LASF110
 2706 0508 18       		.sleb128 24
 2707 0509 10       		.uleb128 0x10
 2708 050a A0000000 		.4byte	.LASF111
 2709 050e 19       		.sleb128 25
 2710 050f 10       		.uleb128 0x10
 2711 0510 AB040000 		.4byte	.LASF112
 2712 0514 1A       		.sleb128 26
 2713 0515 10       		.uleb128 0x10
 2714 0516 16050000 		.4byte	.LASF113
 2715 051a 1B       		.sleb128 27
 2716 051b 10       		.uleb128 0x10
 2717 051c 330A0000 		.4byte	.LASF114
 2718 0520 1C       		.sleb128 28
 2719 0521 10       		.uleb128 0x10
 2720 0522 010B0000 		.4byte	.LASF115
 2721 0526 1D       		.sleb128 29
 2722 0527 10       		.uleb128 0x10
 2723 0528 10010000 		.4byte	.LASF116
 2724 052c 1E       		.sleb128 30
 2725 052d 10       		.uleb128 0x10
 2726 052e 3B000000 		.4byte	.LASF117
 2727 0532 1F       		.sleb128 31
 2728 0533 10       		.uleb128 0x10
 2729 0534 E1090000 		.4byte	.LASF118
 2730 0538 20       		.sleb128 32
 2731 0539 10       		.uleb128 0x10
 2732 053a C3010000 		.4byte	.LASF119
 2733 053e 21       		.sleb128 33
 2734 053f 10       		.uleb128 0x10
 2735 0540 FA000000 		.4byte	.LASF120
 2736 0544 22       		.sleb128 34
 2737 0545 10       		.uleb128 0x10
 2738 0546 93040000 		.4byte	.LASF121
 2739 054a 23       		.sleb128 35
ARM GAS  /tmp/ccDPDrPi.s 			page 103


 2740 054b 10       		.uleb128 0x10
 2741 054c F9050000 		.4byte	.LASF122
 2742 0550 24       		.sleb128 36
 2743 0551 10       		.uleb128 0x10
 2744 0552 5F0A0000 		.4byte	.LASF123
 2745 0556 25       		.sleb128 37
 2746 0557 10       		.uleb128 0x10
 2747 0558 40080000 		.4byte	.LASF124
 2748 055c 26       		.sleb128 38
 2749 055d 10       		.uleb128 0x10
 2750 055e 1D0A0000 		.4byte	.LASF125
 2751 0562 27       		.sleb128 39
 2752 0563 10       		.uleb128 0x10
 2753 0564 77040000 		.4byte	.LASF126
 2754 0568 28       		.sleb128 40
 2755 0569 10       		.uleb128 0x10
 2756 056a 5F000000 		.4byte	.LASF127
 2757 056e 29       		.sleb128 41
 2758 056f 10       		.uleb128 0x10
 2759 0570 FA090000 		.4byte	.LASF128
 2760 0574 2A       		.sleb128 42
 2761 0575 10       		.uleb128 0x10
 2762 0576 60050000 		.4byte	.LASF129
 2763 057a 2B       		.sleb128 43
 2764 057b 10       		.uleb128 0x10
 2765 057c 6A040000 		.4byte	.LASF130
 2766 0580 2C       		.sleb128 44
 2767 0581 10       		.uleb128 0x10
 2768 0582 33070000 		.4byte	.LASF131
 2769 0586 2D       		.sleb128 45
 2770 0587 10       		.uleb128 0x10
 2771 0588 47010000 		.4byte	.LASF132
 2772 058c 2E       		.sleb128 46
 2773 058d 10       		.uleb128 0x10
 2774 058e FA010000 		.4byte	.LASF133
 2775 0592 2F       		.sleb128 47
 2776 0593 10       		.uleb128 0x10
 2777 0594 F70A0000 		.4byte	.LASF134
 2778 0598 33       		.sleb128 51
 2779 0599 10       		.uleb128 0x10
 2780 059a 2E020000 		.4byte	.LASF135
 2781 059e 34       		.sleb128 52
 2782 059f 10       		.uleb128 0x10
 2783 05a0 8D070000 		.4byte	.LASF136
 2784 05a4 35       		.sleb128 53
 2785 05a5 10       		.uleb128 0x10
 2786 05a6 18020000 		.4byte	.LASF137
 2787 05aa 36       		.sleb128 54
 2788 05ab 10       		.uleb128 0x10
 2789 05ac 09090000 		.4byte	.LASF138
 2790 05b0 37       		.sleb128 55
 2791 05b1 10       		.uleb128 0x10
 2792 05b2 CA000000 		.4byte	.LASF139
 2793 05b6 38       		.sleb128 56
 2794 05b7 10       		.uleb128 0x10
 2795 05b8 C1050000 		.4byte	.LASF140
 2796 05bc 39       		.sleb128 57
ARM GAS  /tmp/ccDPDrPi.s 			page 104


 2797 05bd 10       		.uleb128 0x10
 2798 05be 1A060000 		.4byte	.LASF141
 2799 05c2 3A       		.sleb128 58
 2800 05c3 10       		.uleb128 0x10
 2801 05c4 EA080000 		.4byte	.LASF142
 2802 05c8 3B       		.sleb128 59
 2803 05c9 10       		.uleb128 0x10
 2804 05ca 8E010000 		.4byte	.LASF143
 2805 05ce 3C       		.sleb128 60
 2806 05cf 10       		.uleb128 0x10
 2807 05d0 B7030000 		.4byte	.LASF144
 2808 05d4 3D       		.sleb128 61
 2809 05d5 10       		.uleb128 0x10
 2810 05d6 C1070000 		.4byte	.LASF145
 2811 05da C000     		.sleb128 64
 2812 05dc 10       		.uleb128 0x10
 2813 05dd 2E050000 		.4byte	.LASF146
 2814 05e1 C100     		.sleb128 65
 2815 05e3 10       		.uleb128 0x10
 2816 05e4 89000000 		.4byte	.LASF147
 2817 05e8 C200     		.sleb128 66
 2818 05ea 10       		.uleb128 0x10
 2819 05eb E7040000 		.4byte	.LASF148
 2820 05ef CA00     		.sleb128 74
 2821 05f1 10       		.uleb128 0x10
 2822 05f2 D5090000 		.4byte	.LASF149
 2823 05f6 CB00     		.sleb128 75
 2824 05f8 10       		.uleb128 0x10
 2825 05f9 6C080000 		.4byte	.LASF150
 2826 05fd CC00     		.sleb128 76
 2827 05ff 10       		.uleb128 0x10
 2828 0600 C00A0000 		.4byte	.LASF151
 2829 0604 D100     		.sleb128 81
 2830 0606 00       		.byte	0
 2831 0607 03       		.uleb128 0x3
 2832 0608 04       		.byte	0x4
 2833 0609 07       		.byte	0x7
 2834 060a 77050000 		.4byte	.LASF152
 2835 060e 11       		.uleb128 0x11
 2836 060f AD000000 		.4byte	0xad
 2837 0613 12       		.uleb128 0x12
 2838 0614 38       		.byte	0x38
 2839 0615 07       		.byte	0x7
 2840 0616 7401     		.2byte	0x174
 2841 0618 D2060000 		.4byte	0x6d2
 2842 061c 07       		.uleb128 0x7
 2843 061d 494D5200 		.ascii	"IMR\000"
 2844 0621 07       		.byte	0x7
 2845 0622 7601     		.2byte	0x176
 2846 0624 0E060000 		.4byte	0x60e
 2847 0628 00       		.byte	0
 2848 0629 07       		.uleb128 0x7
 2849 062a 454D5200 		.ascii	"EMR\000"
 2850 062e 07       		.byte	0x7
 2851 062f 7701     		.2byte	0x177
 2852 0631 0E060000 		.4byte	0x60e
 2853 0635 04       		.byte	0x4
ARM GAS  /tmp/ccDPDrPi.s 			page 105


 2854 0636 08       		.uleb128 0x8
 2855 0637 84060000 		.4byte	.LASF153
 2856 063b 07       		.byte	0x7
 2857 063c 7801     		.2byte	0x178
 2858 063e 0E060000 		.4byte	0x60e
 2859 0642 08       		.byte	0x8
 2860 0643 08       		.uleb128 0x8
 2861 0644 52070000 		.4byte	.LASF154
 2862 0648 07       		.byte	0x7
 2863 0649 7901     		.2byte	0x179
 2864 064b 0E060000 		.4byte	0x60e
 2865 064f 0C       		.byte	0xc
 2866 0650 08       		.uleb128 0x8
 2867 0651 9A000000 		.4byte	.LASF155
 2868 0655 07       		.byte	0x7
 2869 0656 7A01     		.2byte	0x17a
 2870 0658 0E060000 		.4byte	0x60e
 2871 065c 10       		.byte	0x10
 2872 065d 07       		.uleb128 0x7
 2873 065e 505200   		.ascii	"PR\000"
 2874 0661 07       		.byte	0x7
 2875 0662 7B01     		.2byte	0x17b
 2876 0664 0E060000 		.4byte	0x60e
 2877 0668 14       		.byte	0x14
 2878 0669 08       		.uleb128 0x8
 2879 066a C9060000 		.4byte	.LASF156
 2880 066e 07       		.byte	0x7
 2881 066f 7C01     		.2byte	0x17c
 2882 0671 AD000000 		.4byte	0xad
 2883 0675 18       		.byte	0x18
 2884 0676 08       		.uleb128 0x8
 2885 0677 D3060000 		.4byte	.LASF157
 2886 067b 07       		.byte	0x7
 2887 067c 7D01     		.2byte	0x17d
 2888 067e AD000000 		.4byte	0xad
 2889 0682 1C       		.byte	0x1c
 2890 0683 08       		.uleb128 0x8
 2891 0684 51050000 		.4byte	.LASF158
 2892 0688 07       		.byte	0x7
 2893 0689 7E01     		.2byte	0x17e
 2894 068b 0E060000 		.4byte	0x60e
 2895 068f 20       		.byte	0x20
 2896 0690 08       		.uleb128 0x8
 2897 0691 110A0000 		.4byte	.LASF159
 2898 0695 07       		.byte	0x7
 2899 0696 7F01     		.2byte	0x17f
 2900 0698 0E060000 		.4byte	0x60e
 2901 069c 24       		.byte	0x24
 2902 069d 08       		.uleb128 0x8
 2903 069e A5040000 		.4byte	.LASF160
 2904 06a2 07       		.byte	0x7
 2905 06a3 8001     		.2byte	0x180
 2906 06a5 0E060000 		.4byte	0x60e
 2907 06a9 28       		.byte	0x28
 2908 06aa 08       		.uleb128 0x8
 2909 06ab 94000000 		.4byte	.LASF161
 2910 06af 07       		.byte	0x7
ARM GAS  /tmp/ccDPDrPi.s 			page 106


 2911 06b0 8101     		.2byte	0x181
 2912 06b2 0E060000 		.4byte	0x60e
 2913 06b6 2C       		.byte	0x2c
 2914 06b7 08       		.uleb128 0x8
 2915 06b8 28010000 		.4byte	.LASF162
 2916 06bc 07       		.byte	0x7
 2917 06bd 8201     		.2byte	0x182
 2918 06bf 0E060000 		.4byte	0x60e
 2919 06c3 30       		.byte	0x30
 2920 06c4 07       		.uleb128 0x7
 2921 06c5 50523200 		.ascii	"PR2\000"
 2922 06c9 07       		.byte	0x7
 2923 06ca 8301     		.2byte	0x183
 2924 06cc 0E060000 		.4byte	0x60e
 2925 06d0 34       		.byte	0x34
 2926 06d1 00       		.byte	0
 2927 06d2 13       		.uleb128 0x13
 2928 06d3 EA0A0000 		.4byte	.LASF163
 2929 06d7 07       		.byte	0x7
 2930 06d8 8401     		.2byte	0x184
 2931 06da 13060000 		.4byte	0x613
 2932 06de 04       		.uleb128 0x4
 2933 06df DD000000 		.4byte	.LASF164
 2934 06e3 08       		.byte	0x8
 2935 06e4 65       		.byte	0x65
 2936 06e5 05030000 		.4byte	0x305
 2937 06e9 04       		.uleb128 0x4
 2938 06ea 23050000 		.4byte	.LASF165
 2939 06ee 08       		.byte	0x8
 2940 06ef 6D       		.byte	0x6d
 2941 06f0 B8000000 		.4byte	0xb8
 2942 06f4 05       		.uleb128 0x5
 2943 06f5 0A040000 		.4byte	.LASF166
 2944 06f9 04       		.byte	0x4
 2945 06fa 08       		.byte	0x8
 2946 06fb 89       		.byte	0x89
 2947 06fc 0D070000 		.4byte	0x70d
 2948 0700 14       		.uleb128 0x14
 2949 0701 72313300 		.ascii	"r13\000"
 2950 0705 08       		.byte	0x8
 2951 0706 8A       		.byte	0x8a
 2952 0707 88070000 		.4byte	0x788
 2953 070b 00       		.byte	0
 2954 070c 00       		.byte	0
 2955 070d 05       		.uleb128 0x5
 2956 070e 6E000000 		.4byte	.LASF167
 2957 0712 24       		.byte	0x24
 2958 0713 09       		.byte	0x9
 2959 0714 FD       		.byte	0xfd
 2960 0715 88070000 		.4byte	0x788
 2961 0719 07       		.uleb128 0x7
 2962 071a 723400   		.ascii	"r4\000"
 2963 071d 09       		.byte	0x9
 2964 071e 1001     		.2byte	0x110
 2965 0720 DE060000 		.4byte	0x6de
 2966 0724 00       		.byte	0
 2967 0725 07       		.uleb128 0x7
ARM GAS  /tmp/ccDPDrPi.s 			page 107


 2968 0726 723500   		.ascii	"r5\000"
 2969 0729 09       		.byte	0x9
 2970 072a 1101     		.2byte	0x111
 2971 072c DE060000 		.4byte	0x6de
 2972 0730 04       		.byte	0x4
 2973 0731 07       		.uleb128 0x7
 2974 0732 723600   		.ascii	"r6\000"
 2975 0735 09       		.byte	0x9
 2976 0736 1201     		.2byte	0x112
 2977 0738 DE060000 		.4byte	0x6de
 2978 073c 08       		.byte	0x8
 2979 073d 07       		.uleb128 0x7
 2980 073e 723700   		.ascii	"r7\000"
 2981 0741 09       		.byte	0x9
 2982 0742 1301     		.2byte	0x113
 2983 0744 DE060000 		.4byte	0x6de
 2984 0748 0C       		.byte	0xc
 2985 0749 07       		.uleb128 0x7
 2986 074a 723800   		.ascii	"r8\000"
 2987 074d 09       		.byte	0x9
 2988 074e 1401     		.2byte	0x114
 2989 0750 DE060000 		.4byte	0x6de
 2990 0754 10       		.byte	0x10
 2991 0755 07       		.uleb128 0x7
 2992 0756 723900   		.ascii	"r9\000"
 2993 0759 09       		.byte	0x9
 2994 075a 1501     		.2byte	0x115
 2995 075c DE060000 		.4byte	0x6de
 2996 0760 14       		.byte	0x14
 2997 0761 07       		.uleb128 0x7
 2998 0762 72313000 		.ascii	"r10\000"
 2999 0766 09       		.byte	0x9
 3000 0767 1601     		.2byte	0x116
 3001 0769 DE060000 		.4byte	0x6de
 3002 076d 18       		.byte	0x18
 3003 076e 07       		.uleb128 0x7
 3004 076f 72313100 		.ascii	"r11\000"
 3005 0773 09       		.byte	0x9
 3006 0774 1701     		.2byte	0x117
 3007 0776 DE060000 		.4byte	0x6de
 3008 077a 1C       		.byte	0x1c
 3009 077b 07       		.uleb128 0x7
 3010 077c 6C7200   		.ascii	"lr\000"
 3011 077f 09       		.byte	0x9
 3012 0780 1801     		.2byte	0x118
 3013 0782 DE060000 		.4byte	0x6de
 3014 0786 20       		.byte	0x20
 3015 0787 00       		.byte	0
 3016 0788 09       		.uleb128 0x9
 3017 0789 04       		.byte	0x4
 3018 078a 0D070000 		.4byte	0x70d
 3019 078e 15       		.uleb128 0x15
 3020 078f 04       		.byte	0x4
 3021 0790 0A       		.byte	0xa
 3022 0791 38       		.byte	0x38
 3023 0792 A3070000 		.4byte	0x7a3
 3024 0796 06       		.uleb128 0x6
ARM GAS  /tmp/ccDPDrPi.s 			page 108


 3025 0797 B2090000 		.4byte	.LASF168
 3026 079b 0A       		.byte	0xa
 3027 079c 3C       		.byte	0x3c
 3028 079d C3000000 		.4byte	0xc3
 3029 07a1 00       		.byte	0
 3030 07a2 00       		.byte	0
 3031 07a3 04       		.uleb128 0x4
 3032 07a4 09060000 		.4byte	.LASF169
 3033 07a8 0A       		.byte	0xa
 3034 07a9 3D       		.byte	0x3d
 3035 07aa 8E070000 		.4byte	0x78e
 3036 07ae 16       		.uleb128 0x16
 3037 07af 04       		.byte	0x4
 3038 07b0 06       		.byte	0x6
 3039 07b1 FA       		.byte	0xfa
 3040 07b2 17080000 		.4byte	0x817
 3041 07b6 17       		.uleb128 0x17
 3042 07b7 2B000000 		.4byte	.LASF170
 3043 07bb 06       		.byte	0x6
 3044 07bc 0101     		.2byte	0x101
 3045 07be FA000000 		.4byte	0xfa
 3046 07c2 17       		.uleb128 0x17
 3047 07c3 E6000000 		.4byte	.LASF171
 3048 07c7 06       		.byte	0x6
 3049 07c8 0801     		.2byte	0x108
 3050 07ca FA000000 		.4byte	0xfa
 3051 07ce 17       		.uleb128 0x17
 3052 07cf 9F0A0000 		.4byte	.LASF172
 3053 07d3 06       		.byte	0x6
 3054 07d4 0F01     		.2byte	0x10f
 3055 07d6 05030000 		.4byte	0x305
 3056 07da 17       		.uleb128 0x17
 3057 07db 25000000 		.4byte	.LASF173
 3058 07df 06       		.byte	0x6
 3059 07e0 1601     		.2byte	0x116
 3060 07e2 17080000 		.4byte	0x817
 3061 07e6 17       		.uleb128 0x17
 3062 07e7 0B0B0000 		.4byte	.LASF174
 3063 07eb 06       		.byte	0x6
 3064 07ec 1B01     		.2byte	0x11b
 3065 07ee FA000000 		.4byte	0xfa
 3066 07f2 17       		.uleb128 0x17
 3067 07f3 C1030000 		.4byte	.LASF175
 3068 07f7 06       		.byte	0x6
 3069 07f8 2401     		.2byte	0x124
 3070 07fa 42080000 		.4byte	0x842
 3071 07fe 17       		.uleb128 0x17
 3072 07ff 39080000 		.4byte	.LASF176
 3073 0803 06       		.byte	0x6
 3074 0804 2D01     		.2byte	0x12d
 3075 0806 79080000 		.4byte	0x879
 3076 080a 17       		.uleb128 0x17
 3077 080b AB070000 		.4byte	.LASF177
 3078 080f 06       		.byte	0x6
 3079 0810 3501     		.2byte	0x135
 3080 0812 05010000 		.4byte	0x105
 3081 0816 00       		.byte	0
ARM GAS  /tmp/ccDPDrPi.s 			page 109


 3082 0817 09       		.uleb128 0x9
 3083 0818 04       		.byte	0x4
 3084 0819 1D020000 		.4byte	0x21d
 3085 081d 05       		.uleb128 0x5
 3086 081e FF070000 		.4byte	.LASF178
 3087 0822 0C       		.byte	0xc
 3088 0823 0B       		.byte	0xb
 3089 0824 34       		.byte	0x34
 3090 0825 42080000 		.4byte	0x842
 3091 0829 06       		.uleb128 0x6
 3092 082a 26020000 		.4byte	.LASF179
 3093 082e 0B       		.byte	0xb
 3094 082f 35       		.byte	0x35
 3095 0830 52020000 		.4byte	0x252
 3096 0834 00       		.byte	0
 3097 0835 06       		.uleb128 0x6
 3098 0836 04040000 		.4byte	.LASF180
 3099 083a 0B       		.byte	0xb
 3100 083b 37       		.byte	0x37
 3101 083c 10010000 		.4byte	0x110
 3102 0840 08       		.byte	0x8
 3103 0841 00       		.byte	0
 3104 0842 09       		.uleb128 0x9
 3105 0843 04       		.byte	0x4
 3106 0844 1D080000 		.4byte	0x81d
 3107 0848 05       		.uleb128 0x5
 3108 0849 CC090000 		.4byte	.LASF181
 3109 084d 10       		.byte	0x10
 3110 084e 0C       		.byte	0xc
 3111 084f 39       		.byte	0x39
 3112 0850 79080000 		.4byte	0x879
 3113 0854 06       		.uleb128 0x6
 3114 0855 7F010000 		.4byte	.LASF182
 3115 0859 0C       		.byte	0xc
 3116 085a 3A       		.byte	0x3a
 3117 085b 52020000 		.4byte	0x252
 3118 085f 00       		.byte	0
 3119 0860 06       		.uleb128 0x6
 3120 0861 190B0000 		.4byte	.LASF183
 3121 0865 0C       		.byte	0xc
 3122 0866 3C       		.byte	0x3c
 3123 0867 28020000 		.4byte	0x228
 3124 086b 08       		.byte	0x8
 3125 086c 06       		.uleb128 0x6
 3126 086d 52090000 		.4byte	.LASF184
 3127 0871 0C       		.byte	0xc
 3128 0872 3E       		.byte	0x3e
 3129 0873 BD080000 		.4byte	0x8bd
 3130 0877 0C       		.byte	0xc
 3131 0878 00       		.byte	0
 3132 0879 09       		.uleb128 0x9
 3133 087a 04       		.byte	0x4
 3134 087b 48080000 		.4byte	0x848
 3135 087f 09       		.uleb128 0x9
 3136 0880 04       		.byte	0x4
 3137 0881 85080000 		.4byte	0x885
 3138 0885 18       		.uleb128 0x18
ARM GAS  /tmp/ccDPDrPi.s 			page 110


 3139 0886 8A080000 		.4byte	0x88a
 3140 088a 03       		.uleb128 0x3
 3141 088b 01       		.byte	0x1
 3142 088c 08       		.byte	0x8
 3143 088d E5080000 		.4byte	.LASF185
 3144 0891 09       		.uleb128 0x9
 3145 0892 04       		.byte	0x4
 3146 0893 E9060000 		.4byte	0x6e9
 3147 0897 09       		.uleb128 0x9
 3148 0898 04       		.byte	0x4
 3149 0899 07030000 		.4byte	0x307
 3150 089d 11       		.uleb128 0x11
 3151 089e 7F080000 		.4byte	0x87f
 3152 08a2 19       		.uleb128 0x19
 3153 08a3 E9060000 		.4byte	0x6e9
 3154 08a7 B2080000 		.4byte	0x8b2
 3155 08ab 1A       		.uleb128 0x1a
 3156 08ac 07060000 		.4byte	0x607
 3157 08b0 1A       		.byte	0x1a
 3158 08b1 00       		.byte	0
 3159 08b2 04       		.uleb128 0x4
 3160 08b3 92020000 		.4byte	.LASF186
 3161 08b7 0C       		.byte	0xc
 3162 08b8 34       		.byte	0x34
 3163 08b9 48080000 		.4byte	0x848
 3164 08bd 09       		.uleb128 0x9
 3165 08be 04       		.byte	0x4
 3166 08bf B2080000 		.4byte	0x8b2
 3167 08c3 03       		.uleb128 0x3
 3168 08c4 01       		.byte	0x1
 3169 08c5 02       		.byte	0x2
 3170 08c6 0C070000 		.4byte	.LASF187
 3171 08ca 0F       		.uleb128 0xf
 3172 08cb 01       		.byte	0x1
 3173 08cc 0D       		.byte	0xd
 3174 08cd 3F       		.byte	0x3f
 3175 08ce E5080000 		.4byte	0x8e5
 3176 08d2 10       		.uleb128 0x10
 3177 08d3 28070000 		.4byte	.LASF188
 3178 08d7 00       		.sleb128 0
 3179 08d8 10       		.uleb128 0x10
 3180 08d9 DC080000 		.4byte	.LASF189
 3181 08dd 01       		.sleb128 1
 3182 08de 10       		.uleb128 0x10
 3183 08df 3D050000 		.4byte	.LASF190
 3184 08e3 02       		.sleb128 2
 3185 08e4 00       		.byte	0
 3186 08e5 04       		.uleb128 0x4
 3187 08e6 93050000 		.4byte	.LASF191
 3188 08ea 0D       		.byte	0xd
 3189 08eb 43       		.byte	0x43
 3190 08ec CA080000 		.4byte	0x8ca
 3191 08f0 04       		.uleb128 0x4
 3192 08f1 290A0000 		.4byte	.LASF192
 3193 08f5 0D       		.byte	0xd
 3194 08f6 48       		.byte	0x48
 3195 08f7 FB080000 		.4byte	0x8fb
ARM GAS  /tmp/ccDPDrPi.s 			page 111


 3196 08fb 05       		.uleb128 0x5
 3197 08fc 290A0000 		.4byte	.LASF192
 3198 0900 08       		.byte	0x8
 3199 0901 0E       		.byte	0xe
 3200 0902 73       		.byte	0x73
 3201 0903 20090000 		.4byte	0x920
 3202 0907 06       		.uleb128 0x6
 3203 0908 A1010000 		.4byte	.LASF193
 3204 090c 0E       		.byte	0xe
 3205 090d 77       		.byte	0x77
 3206 090e E5080000 		.4byte	0x8e5
 3207 0912 00       		.byte	0
 3208 0913 06       		.uleb128 0x6
 3209 0914 02090000 		.4byte	.LASF194
 3210 0918 0E       		.byte	0xe
 3211 0919 7B       		.byte	0x7b
 3212 091a AE090000 		.4byte	0x9ae
 3213 091e 04       		.byte	0x4
 3214 091f 00       		.byte	0
 3215 0920 04       		.uleb128 0x4
 3216 0921 52000000 		.4byte	.LASF195
 3217 0925 0E       		.byte	0xe
 3218 0926 49       		.byte	0x49
 3219 0927 AD000000 		.4byte	0xad
 3220 092b 04       		.uleb128 0x4
 3221 092c 17080000 		.4byte	.LASF196
 3222 0930 0E       		.byte	0xe
 3223 0931 51       		.byte	0x51
 3224 0932 36090000 		.4byte	0x936
 3225 0936 09       		.uleb128 0x9
 3226 0937 04       		.byte	0x4
 3227 0938 3C090000 		.4byte	0x93c
 3228 093c 0B       		.uleb128 0xb
 3229 093d 4C090000 		.4byte	0x94c
 3230 0941 0C       		.uleb128 0xc
 3231 0942 4C090000 		.4byte	0x94c
 3232 0946 0C       		.uleb128 0xc
 3233 0947 20090000 		.4byte	0x920
 3234 094b 00       		.byte	0
 3235 094c 09       		.uleb128 0x9
 3236 094d 04       		.byte	0x4
 3237 094e F0080000 		.4byte	0x8f0
 3238 0952 15       		.uleb128 0x15
 3239 0953 08       		.byte	0x8
 3240 0954 0E       		.byte	0xe
 3241 0955 56       		.byte	0x56
 3242 0956 72090000 		.4byte	0x972
 3243 095a 06       		.uleb128 0x6
 3244 095b FD080000 		.4byte	.LASF197
 3245 095f 0E       		.byte	0xe
 3246 0960 5A       		.byte	0x5a
 3247 0961 AD000000 		.4byte	0xad
 3248 0965 00       		.byte	0
 3249 0966 14       		.uleb128 0x14
 3250 0967 636200   		.ascii	"cb\000"
 3251 096a 0E       		.byte	0xe
 3252 096b 61       		.byte	0x61
ARM GAS  /tmp/ccDPDrPi.s 			page 112


 3253 096c 2B090000 		.4byte	0x92b
 3254 0970 04       		.byte	0x4
 3255 0971 00       		.byte	0
 3256 0972 04       		.uleb128 0x4
 3257 0973 39020000 		.4byte	.LASF198
 3258 0977 0E       		.byte	0xe
 3259 0978 62       		.byte	0x62
 3260 0979 52090000 		.4byte	0x952
 3261 097d 1B       		.uleb128 0x1b
 3262 097e 1001     		.2byte	0x110
 3263 0980 0E       		.byte	0xe
 3264 0981 68       		.byte	0x68
 3265 0982 93090000 		.4byte	0x993
 3266 0986 06       		.uleb128 0x6
 3267 0987 A7010000 		.4byte	.LASF199
 3268 098b 0E       		.byte	0xe
 3269 098c 6C       		.byte	0x6c
 3270 098d 93090000 		.4byte	0x993
 3271 0991 00       		.byte	0
 3272 0992 00       		.byte	0
 3273 0993 19       		.uleb128 0x19
 3274 0994 72090000 		.4byte	0x972
 3275 0998 A3090000 		.4byte	0x9a3
 3276 099c 1A       		.uleb128 0x1a
 3277 099d 07060000 		.4byte	0x607
 3278 09a1 21       		.byte	0x21
 3279 09a2 00       		.byte	0
 3280 09a3 04       		.uleb128 0x4
 3281 09a4 5A040000 		.4byte	.LASF200
 3282 09a8 0E       		.byte	0xe
 3283 09a9 6E       		.byte	0x6e
 3284 09aa 7D090000 		.4byte	0x97d
 3285 09ae 09       		.uleb128 0x9
 3286 09af 04       		.byte	0x4
 3287 09b0 B4090000 		.4byte	0x9b4
 3288 09b4 18       		.uleb128 0x18
 3289 09b5 A3090000 		.4byte	0x9a3
 3290 09b9 1C       		.uleb128 0x1c
 3291 09ba 48050000 		.4byte	.LASF201
 3292 09be 01       		.byte	0x1
 3293 09bf 39       		.byte	0x39
 3294 09c0 00000000 		.4byte	.LFB272
 3295 09c4 44000000 		.4byte	.LFE272-.LFB272
 3296 09c8 01       		.uleb128 0x1
 3297 09c9 9C       		.byte	0x9c
 3298 09ca DC090000 		.4byte	0x9dc
 3299 09ce 1D       		.uleb128 0x1d
 3300 09cf 707200   		.ascii	"pr\000"
 3301 09d2 01       		.byte	0x1
 3302 09d3 3A       		.byte	0x3a
 3303 09d4 AD000000 		.4byte	0xad
 3304 09d8 02       		.uleb128 0x2
 3305 09d9 91       		.byte	0x91
 3306 09da 74       		.sleb128 -12
 3307 09db 00       		.byte	0
 3308 09dc 1C       		.uleb128 0x1c
 3309 09dd 6E050000 		.4byte	.LASF202
ARM GAS  /tmp/ccDPDrPi.s 			page 113


 3310 09e1 01       		.byte	0x1
 3311 09e2 4D       		.byte	0x4d
 3312 09e3 00000000 		.4byte	.LFB273
 3313 09e7 44000000 		.4byte	.LFE273-.LFB273
 3314 09eb 01       		.uleb128 0x1
 3315 09ec 9C       		.byte	0x9c
 3316 09ed FF090000 		.4byte	0x9ff
 3317 09f1 1D       		.uleb128 0x1d
 3318 09f2 707200   		.ascii	"pr\000"
 3319 09f5 01       		.byte	0x1
 3320 09f6 4E       		.byte	0x4e
 3321 09f7 AD000000 		.4byte	0xad
 3322 09fb 02       		.uleb128 0x2
 3323 09fc 91       		.byte	0x91
 3324 09fd 74       		.sleb128 -12
 3325 09fe 00       		.byte	0
 3326 09ff 1C       		.uleb128 0x1c
 3327 0a00 89060000 		.4byte	.LASF203
 3328 0a04 01       		.byte	0x1
 3329 0a05 61       		.byte	0x61
 3330 0a06 00000000 		.4byte	.LFB274
 3331 0a0a 44000000 		.4byte	.LFE274-.LFB274
 3332 0a0e 01       		.uleb128 0x1
 3333 0a0f 9C       		.byte	0x9c
 3334 0a10 220A0000 		.4byte	0xa22
 3335 0a14 1D       		.uleb128 0x1d
 3336 0a15 707200   		.ascii	"pr\000"
 3337 0a18 01       		.byte	0x1
 3338 0a19 62       		.byte	0x62
 3339 0a1a AD000000 		.4byte	0xad
 3340 0a1e 02       		.uleb128 0x2
 3341 0a1f 91       		.byte	0x91
 3342 0a20 74       		.sleb128 -12
 3343 0a21 00       		.byte	0
 3344 0a22 1C       		.uleb128 0x1c
 3345 0a23 A5060000 		.4byte	.LASF204
 3346 0a27 01       		.byte	0x1
 3347 0a28 75       		.byte	0x75
 3348 0a29 00000000 		.4byte	.LFB275
 3349 0a2d 44000000 		.4byte	.LFE275-.LFB275
 3350 0a31 01       		.uleb128 0x1
 3351 0a32 9C       		.byte	0x9c
 3352 0a33 450A0000 		.4byte	0xa45
 3353 0a37 1D       		.uleb128 0x1d
 3354 0a38 707200   		.ascii	"pr\000"
 3355 0a3b 01       		.byte	0x1
 3356 0a3c 76       		.byte	0x76
 3357 0a3d AD000000 		.4byte	0xad
 3358 0a41 02       		.uleb128 0x2
 3359 0a42 91       		.byte	0x91
 3360 0a43 74       		.sleb128 -12
 3361 0a44 00       		.byte	0
 3362 0a45 1C       		.uleb128 0x1c
 3363 0a46 07010000 		.4byte	.LASF205
 3364 0a4a 01       		.byte	0x1
 3365 0a4b 89       		.byte	0x89
 3366 0a4c 00000000 		.4byte	.LFB276
ARM GAS  /tmp/ccDPDrPi.s 			page 114


 3367 0a50 44000000 		.4byte	.LFE276-.LFB276
 3368 0a54 01       		.uleb128 0x1
 3369 0a55 9C       		.byte	0x9c
 3370 0a56 680A0000 		.4byte	0xa68
 3371 0a5a 1D       		.uleb128 0x1d
 3372 0a5b 707200   		.ascii	"pr\000"
 3373 0a5e 01       		.byte	0x1
 3374 0a5f 8A       		.byte	0x8a
 3375 0a60 AD000000 		.4byte	0xad
 3376 0a64 02       		.uleb128 0x2
 3377 0a65 91       		.byte	0x91
 3378 0a66 74       		.sleb128 -12
 3379 0a67 00       		.byte	0
 3380 0a68 1C       		.uleb128 0x1c
 3381 0a69 1C000000 		.4byte	.LASF206
 3382 0a6d 01       		.byte	0x1
 3383 0a6e 9D       		.byte	0x9d
 3384 0a6f 00000000 		.4byte	.LFB277
 3385 0a73 9C000000 		.4byte	.LFE277-.LFB277
 3386 0a77 01       		.uleb128 0x1
 3387 0a78 9C       		.byte	0x9c
 3388 0a79 8B0A0000 		.4byte	0xa8b
 3389 0a7d 1D       		.uleb128 0x1d
 3390 0a7e 707200   		.ascii	"pr\000"
 3391 0a81 01       		.byte	0x1
 3392 0a82 9E       		.byte	0x9e
 3393 0a83 AD000000 		.4byte	0xad
 3394 0a87 02       		.uleb128 0x2
 3395 0a88 91       		.byte	0x91
 3396 0a89 74       		.sleb128 -12
 3397 0a8a 00       		.byte	0
 3398 0a8b 1C       		.uleb128 0x1c
 3399 0a8c 710A0000 		.4byte	.LASF207
 3400 0a90 01       		.byte	0x1
 3401 0a91 BA       		.byte	0xba
 3402 0a92 00000000 		.4byte	.LFB278
 3403 0a96 B0000000 		.4byte	.LFE278-.LFB278
 3404 0a9a 01       		.uleb128 0x1
 3405 0a9b 9C       		.byte	0x9c
 3406 0a9c AE0A0000 		.4byte	0xaae
 3407 0aa0 1D       		.uleb128 0x1d
 3408 0aa1 707200   		.ascii	"pr\000"
 3409 0aa4 01       		.byte	0x1
 3410 0aa5 BB       		.byte	0xbb
 3411 0aa6 AD000000 		.4byte	0xad
 3412 0aaa 02       		.uleb128 0x2
 3413 0aab 91       		.byte	0x91
 3414 0aac 74       		.sleb128 -12
 3415 0aad 00       		.byte	0
 3416 0aae 1C       		.uleb128 0x1c
 3417 0aaf 38060000 		.4byte	.LASF208
 3418 0ab3 01       		.byte	0x1
 3419 0ab4 D9       		.byte	0xd9
 3420 0ab5 00000000 		.4byte	.LFB279
 3421 0ab9 44000000 		.4byte	.LFE279-.LFB279
 3422 0abd 01       		.uleb128 0x1
 3423 0abe 9C       		.byte	0x9c
ARM GAS  /tmp/ccDPDrPi.s 			page 115


 3424 0abf D10A0000 		.4byte	0xad1
 3425 0ac3 1D       		.uleb128 0x1d
 3426 0ac4 707200   		.ascii	"pr\000"
 3427 0ac7 01       		.byte	0x1
 3428 0ac8 DA       		.byte	0xda
 3429 0ac9 AD000000 		.4byte	0xad
 3430 0acd 02       		.uleb128 0x2
 3431 0ace 91       		.byte	0x91
 3432 0acf 74       		.sleb128 -12
 3433 0ad0 00       		.byte	0
 3434 0ad1 1C       		.uleb128 0x1c
 3435 0ad2 3A0B0000 		.4byte	.LASF209
 3436 0ad6 01       		.byte	0x1
 3437 0ad7 ED       		.byte	0xed
 3438 0ad8 00000000 		.4byte	.LFB280
 3439 0adc 44000000 		.4byte	.LFE280-.LFB280
 3440 0ae0 01       		.uleb128 0x1
 3441 0ae1 9C       		.byte	0x9c
 3442 0ae2 F40A0000 		.4byte	0xaf4
 3443 0ae6 1D       		.uleb128 0x1d
 3444 0ae7 707200   		.ascii	"pr\000"
 3445 0aea 01       		.byte	0x1
 3446 0aeb EE       		.byte	0xee
 3447 0aec AD000000 		.4byte	0xad
 3448 0af0 02       		.uleb128 0x2
 3449 0af1 91       		.byte	0x91
 3450 0af2 74       		.sleb128 -12
 3451 0af3 00       		.byte	0
 3452 0af4 1E       		.uleb128 0x1e
 3453 0af5 70060000 		.4byte	.LASF210
 3454 0af9 01       		.byte	0x1
 3455 0afa 0101     		.2byte	0x101
 3456 0afc 00000000 		.4byte	.LFB281
 3457 0b00 44000000 		.4byte	.LFE281-.LFB281
 3458 0b04 01       		.uleb128 0x1
 3459 0b05 9C       		.byte	0x9c
 3460 0b06 190B0000 		.4byte	0xb19
 3461 0b0a 1F       		.uleb128 0x1f
 3462 0b0b 707200   		.ascii	"pr\000"
 3463 0b0e 01       		.byte	0x1
 3464 0b0f 0201     		.2byte	0x102
 3465 0b11 AD000000 		.4byte	0xad
 3466 0b15 02       		.uleb128 0x2
 3467 0b16 91       		.byte	0x91
 3468 0b17 74       		.sleb128 -12
 3469 0b18 00       		.byte	0
 3470 0b19 1E       		.uleb128 0x1e
 3471 0b1a E7030000 		.4byte	.LASF211
 3472 0b1e 01       		.byte	0x1
 3473 0b1f 1501     		.2byte	0x115
 3474 0b21 00000000 		.4byte	.LFB282
 3475 0b25 44000000 		.4byte	.LFE282-.LFB282
 3476 0b29 01       		.uleb128 0x1
 3477 0b2a 9C       		.byte	0x9c
 3478 0b2b 3E0B0000 		.4byte	0xb3e
 3479 0b2f 1F       		.uleb128 0x1f
 3480 0b30 707200   		.ascii	"pr\000"
ARM GAS  /tmp/ccDPDrPi.s 			page 116


 3481 0b33 01       		.byte	0x1
 3482 0b34 1601     		.2byte	0x116
 3483 0b36 AD000000 		.4byte	0xad
 3484 0b3a 02       		.uleb128 0x2
 3485 0b3b 91       		.byte	0x91
 3486 0b3c 74       		.sleb128 -12
 3487 0b3d 00       		.byte	0
 3488 0b3e 1E       		.uleb128 0x1e
 3489 0b3f FB030000 		.4byte	.LASF212
 3490 0b43 01       		.byte	0x1
 3491 0b44 2901     		.2byte	0x129
 3492 0b46 00000000 		.4byte	.LFB283
 3493 0b4a 44000000 		.4byte	.LFE283-.LFB283
 3494 0b4e 01       		.uleb128 0x1
 3495 0b4f 9C       		.byte	0x9c
 3496 0b50 630B0000 		.4byte	0xb63
 3497 0b54 1F       		.uleb128 0x1f
 3498 0b55 707200   		.ascii	"pr\000"
 3499 0b58 01       		.byte	0x1
 3500 0b59 2A01     		.2byte	0x12a
 3501 0b5b AD000000 		.4byte	0xad
 3502 0b5f 02       		.uleb128 0x2
 3503 0b60 91       		.byte	0x91
 3504 0b61 74       		.sleb128 -12
 3505 0b62 00       		.byte	0
 3506 0b63 1E       		.uleb128 0x1e
 3507 0b64 B9010000 		.4byte	.LASF213
 3508 0b68 01       		.byte	0x1
 3509 0b69 3D01     		.2byte	0x13d
 3510 0b6b 00000000 		.4byte	.LFB284
 3511 0b6f 78000000 		.4byte	.LFE284-.LFB284
 3512 0b73 01       		.uleb128 0x1
 3513 0b74 9C       		.byte	0x9c
 3514 0b75 880B0000 		.4byte	0xb88
 3515 0b79 1F       		.uleb128 0x1f
 3516 0b7a 707200   		.ascii	"pr\000"
 3517 0b7d 01       		.byte	0x1
 3518 0b7e 3E01     		.2byte	0x13e
 3519 0b80 AD000000 		.4byte	0xad
 3520 0b84 02       		.uleb128 0x2
 3521 0b85 91       		.byte	0x91
 3522 0b86 74       		.sleb128 -12
 3523 0b87 00       		.byte	0
 3524 0b88 1E       		.uleb128 0x1e
 3525 0b89 D0010000 		.4byte	.LASF214
 3526 0b8d 01       		.byte	0x1
 3527 0b8e 5501     		.2byte	0x155
 3528 0b90 00000000 		.4byte	.LFB285
 3529 0b94 88000000 		.4byte	.LFE285-.LFB285
 3530 0b98 01       		.uleb128 0x1
 3531 0b99 9C       		.byte	0x9c
 3532 0b9a AD0B0000 		.4byte	0xbad
 3533 0b9e 1F       		.uleb128 0x1f
 3534 0b9f 707200   		.ascii	"pr\000"
 3535 0ba2 01       		.byte	0x1
 3536 0ba3 5601     		.2byte	0x156
 3537 0ba5 AD000000 		.4byte	0xad
ARM GAS  /tmp/ccDPDrPi.s 			page 117


 3538 0ba9 02       		.uleb128 0x2
 3539 0baa 91       		.byte	0x91
 3540 0bab 74       		.sleb128 -12
 3541 0bac 00       		.byte	0
 3542 0bad 1E       		.uleb128 0x1e
 3543 0bae E3010000 		.4byte	.LASF215
 3544 0bb2 01       		.byte	0x1
 3545 0bb3 7001     		.2byte	0x170
 3546 0bb5 00000000 		.4byte	.LFB286
 3547 0bb9 44000000 		.4byte	.LFE286-.LFB286
 3548 0bbd 01       		.uleb128 0x1
 3549 0bbe 9C       		.byte	0x9c
 3550 0bbf D30B0000 		.4byte	0xbd3
 3551 0bc3 1F       		.uleb128 0x1f
 3552 0bc4 70723200 		.ascii	"pr2\000"
 3553 0bc8 01       		.byte	0x1
 3554 0bc9 7101     		.2byte	0x171
 3555 0bcb AD000000 		.4byte	0xad
 3556 0bcf 02       		.uleb128 0x2
 3557 0bd0 91       		.byte	0x91
 3558 0bd1 74       		.sleb128 -12
 3559 0bd2 00       		.byte	0
 3560 0bd3 20       		.uleb128 0x20
 3561 0bd4 38040000 		.4byte	.LASF216
 3562 0bd8 01       		.byte	0x1
 3563 0bd9 8701     		.2byte	0x187
 3564 0bdb 00000000 		.4byte	.LFB287
 3565 0bdf 7C000000 		.4byte	.LFE287-.LFB287
 3566 0be3 01       		.uleb128 0x1
 3567 0be4 9C       		.byte	0x9c
 3568 0be5 20       		.uleb128 0x20
 3569 0be6 A9020000 		.4byte	.LASF217
 3570 0bea 01       		.byte	0x1
 3571 0beb A301     		.2byte	0x1a3
 3572 0bed 00000000 		.4byte	.LFB288
 3573 0bf1 5E000000 		.4byte	.LFE288-.LFB288
 3574 0bf5 01       		.uleb128 0x1
 3575 0bf6 9C       		.byte	0x9c
 3576 0bf7 21       		.uleb128 0x21
 3577 0bf8 45070000 		.4byte	.LASF218
 3578 0bfc 0F       		.byte	0xf
 3579 0bfd FA06     		.2byte	0x6fa
 3580 0bff 030C0000 		.4byte	0xc03
 3581 0c03 11       		.uleb128 0x11
 3582 0c04 A2000000 		.4byte	0xa2
 3583 0c08 22       		.uleb128 0x22
 3584 0c09 636800   		.ascii	"ch\000"
 3585 0c0c 06       		.byte	0x6
 3586 0c0d 0B02     		.2byte	0x20b
 3587 0c0f D4030000 		.4byte	0x3d4
 3588 0c13 23       		.uleb128 0x23
 3589 0c14 130B0000 		.4byte	.LASF219
 3590 0c18 0E       		.byte	0xe
 3591 0c19 88       		.byte	0x88
 3592 0c1a F0080000 		.4byte	0x8f0
 3593 0c1e 00       		.byte	0
 3594              		.section	.debug_abbrev,"",%progbits
ARM GAS  /tmp/ccDPDrPi.s 			page 118


 3595              	.Ldebug_abbrev0:
 3596 0000 01       		.uleb128 0x1
 3597 0001 11       		.uleb128 0x11
 3598 0002 01       		.byte	0x1
 3599 0003 25       		.uleb128 0x25
 3600 0004 0E       		.uleb128 0xe
 3601 0005 13       		.uleb128 0x13
 3602 0006 0B       		.uleb128 0xb
 3603 0007 03       		.uleb128 0x3
 3604 0008 0E       		.uleb128 0xe
 3605 0009 1B       		.uleb128 0x1b
 3606 000a 0E       		.uleb128 0xe
 3607 000b 55       		.uleb128 0x55
 3608 000c 17       		.uleb128 0x17
 3609 000d 11       		.uleb128 0x11
 3610 000e 01       		.uleb128 0x1
 3611 000f 10       		.uleb128 0x10
 3612 0010 17       		.uleb128 0x17
 3613 0011 00       		.byte	0
 3614 0012 00       		.byte	0
 3615 0013 02       		.uleb128 0x2
 3616 0014 24       		.uleb128 0x24
 3617 0015 00       		.byte	0
 3618 0016 0B       		.uleb128 0xb
 3619 0017 0B       		.uleb128 0xb
 3620 0018 3E       		.uleb128 0x3e
 3621 0019 0B       		.uleb128 0xb
 3622 001a 03       		.uleb128 0x3
 3623 001b 08       		.uleb128 0x8
 3624 001c 00       		.byte	0
 3625 001d 00       		.byte	0
 3626 001e 03       		.uleb128 0x3
 3627 001f 24       		.uleb128 0x24
 3628 0020 00       		.byte	0
 3629 0021 0B       		.uleb128 0xb
 3630 0022 0B       		.uleb128 0xb
 3631 0023 3E       		.uleb128 0x3e
 3632 0024 0B       		.uleb128 0xb
 3633 0025 03       		.uleb128 0x3
 3634 0026 0E       		.uleb128 0xe
 3635 0027 00       		.byte	0
 3636 0028 00       		.byte	0
 3637 0029 04       		.uleb128 0x4
 3638 002a 16       		.uleb128 0x16
 3639 002b 00       		.byte	0
 3640 002c 03       		.uleb128 0x3
 3641 002d 0E       		.uleb128 0xe
 3642 002e 3A       		.uleb128 0x3a
 3643 002f 0B       		.uleb128 0xb
 3644 0030 3B       		.uleb128 0x3b
 3645 0031 0B       		.uleb128 0xb
 3646 0032 49       		.uleb128 0x49
 3647 0033 13       		.uleb128 0x13
 3648 0034 00       		.byte	0
 3649 0035 00       		.byte	0
 3650 0036 05       		.uleb128 0x5
 3651 0037 13       		.uleb128 0x13
ARM GAS  /tmp/ccDPDrPi.s 			page 119


 3652 0038 01       		.byte	0x1
 3653 0039 03       		.uleb128 0x3
 3654 003a 0E       		.uleb128 0xe
 3655 003b 0B       		.uleb128 0xb
 3656 003c 0B       		.uleb128 0xb
 3657 003d 3A       		.uleb128 0x3a
 3658 003e 0B       		.uleb128 0xb
 3659 003f 3B       		.uleb128 0x3b
 3660 0040 0B       		.uleb128 0xb
 3661 0041 01       		.uleb128 0x1
 3662 0042 13       		.uleb128 0x13
 3663 0043 00       		.byte	0
 3664 0044 00       		.byte	0
 3665 0045 06       		.uleb128 0x6
 3666 0046 0D       		.uleb128 0xd
 3667 0047 00       		.byte	0
 3668 0048 03       		.uleb128 0x3
 3669 0049 0E       		.uleb128 0xe
 3670 004a 3A       		.uleb128 0x3a
 3671 004b 0B       		.uleb128 0xb
 3672 004c 3B       		.uleb128 0x3b
 3673 004d 0B       		.uleb128 0xb
 3674 004e 49       		.uleb128 0x49
 3675 004f 13       		.uleb128 0x13
 3676 0050 38       		.uleb128 0x38
 3677 0051 0B       		.uleb128 0xb
 3678 0052 00       		.byte	0
 3679 0053 00       		.byte	0
 3680 0054 07       		.uleb128 0x7
 3681 0055 0D       		.uleb128 0xd
 3682 0056 00       		.byte	0
 3683 0057 03       		.uleb128 0x3
 3684 0058 08       		.uleb128 0x8
 3685 0059 3A       		.uleb128 0x3a
 3686 005a 0B       		.uleb128 0xb
 3687 005b 3B       		.uleb128 0x3b
 3688 005c 05       		.uleb128 0x5
 3689 005d 49       		.uleb128 0x49
 3690 005e 13       		.uleb128 0x13
 3691 005f 38       		.uleb128 0x38
 3692 0060 0B       		.uleb128 0xb
 3693 0061 00       		.byte	0
 3694 0062 00       		.byte	0
 3695 0063 08       		.uleb128 0x8
 3696 0064 0D       		.uleb128 0xd
 3697 0065 00       		.byte	0
 3698 0066 03       		.uleb128 0x3
 3699 0067 0E       		.uleb128 0xe
 3700 0068 3A       		.uleb128 0x3a
 3701 0069 0B       		.uleb128 0xb
 3702 006a 3B       		.uleb128 0x3b
 3703 006b 05       		.uleb128 0x5
 3704 006c 49       		.uleb128 0x49
 3705 006d 13       		.uleb128 0x13
 3706 006e 38       		.uleb128 0x38
 3707 006f 0B       		.uleb128 0xb
 3708 0070 00       		.byte	0
ARM GAS  /tmp/ccDPDrPi.s 			page 120


 3709 0071 00       		.byte	0
 3710 0072 09       		.uleb128 0x9
 3711 0073 0F       		.uleb128 0xf
 3712 0074 00       		.byte	0
 3713 0075 0B       		.uleb128 0xb
 3714 0076 0B       		.uleb128 0xb
 3715 0077 49       		.uleb128 0x49
 3716 0078 13       		.uleb128 0x13
 3717 0079 00       		.byte	0
 3718 007a 00       		.byte	0
 3719 007b 0A       		.uleb128 0xa
 3720 007c 13       		.uleb128 0x13
 3721 007d 01       		.byte	0x1
 3722 007e 03       		.uleb128 0x3
 3723 007f 0E       		.uleb128 0xe
 3724 0080 0B       		.uleb128 0xb
 3725 0081 0B       		.uleb128 0xb
 3726 0082 3A       		.uleb128 0x3a
 3727 0083 0B       		.uleb128 0xb
 3728 0084 3B       		.uleb128 0x3b
 3729 0085 05       		.uleb128 0x5
 3730 0086 01       		.uleb128 0x1
 3731 0087 13       		.uleb128 0x13
 3732 0088 00       		.byte	0
 3733 0089 00       		.byte	0
 3734 008a 0B       		.uleb128 0xb
 3735 008b 15       		.uleb128 0x15
 3736 008c 01       		.byte	0x1
 3737 008d 27       		.uleb128 0x27
 3738 008e 19       		.uleb128 0x19
 3739 008f 01       		.uleb128 0x1
 3740 0090 13       		.uleb128 0x13
 3741 0091 00       		.byte	0
 3742 0092 00       		.byte	0
 3743 0093 0C       		.uleb128 0xc
 3744 0094 05       		.uleb128 0x5
 3745 0095 00       		.byte	0
 3746 0096 49       		.uleb128 0x49
 3747 0097 13       		.uleb128 0x13
 3748 0098 00       		.byte	0
 3749 0099 00       		.byte	0
 3750 009a 0D       		.uleb128 0xd
 3751 009b 0F       		.uleb128 0xf
 3752 009c 00       		.byte	0
 3753 009d 0B       		.uleb128 0xb
 3754 009e 0B       		.uleb128 0xb
 3755 009f 00       		.byte	0
 3756 00a0 00       		.byte	0
 3757 00a1 0E       		.uleb128 0xe
 3758 00a2 13       		.uleb128 0x13
 3759 00a3 01       		.byte	0x1
 3760 00a4 03       		.uleb128 0x3
 3761 00a5 0E       		.uleb128 0xe
 3762 00a6 0B       		.uleb128 0xb
 3763 00a7 05       		.uleb128 0x5
 3764 00a8 3A       		.uleb128 0x3a
 3765 00a9 0B       		.uleb128 0xb
ARM GAS  /tmp/ccDPDrPi.s 			page 121


 3766 00aa 3B       		.uleb128 0x3b
 3767 00ab 05       		.uleb128 0x5
 3768 00ac 01       		.uleb128 0x1
 3769 00ad 13       		.uleb128 0x13
 3770 00ae 00       		.byte	0
 3771 00af 00       		.byte	0
 3772 00b0 0F       		.uleb128 0xf
 3773 00b1 04       		.uleb128 0x4
 3774 00b2 01       		.byte	0x1
 3775 00b3 0B       		.uleb128 0xb
 3776 00b4 0B       		.uleb128 0xb
 3777 00b5 3A       		.uleb128 0x3a
 3778 00b6 0B       		.uleb128 0xb
 3779 00b7 3B       		.uleb128 0x3b
 3780 00b8 0B       		.uleb128 0xb
 3781 00b9 01       		.uleb128 0x1
 3782 00ba 13       		.uleb128 0x13
 3783 00bb 00       		.byte	0
 3784 00bc 00       		.byte	0
 3785 00bd 10       		.uleb128 0x10
 3786 00be 28       		.uleb128 0x28
 3787 00bf 00       		.byte	0
 3788 00c0 03       		.uleb128 0x3
 3789 00c1 0E       		.uleb128 0xe
 3790 00c2 1C       		.uleb128 0x1c
 3791 00c3 0D       		.uleb128 0xd
 3792 00c4 00       		.byte	0
 3793 00c5 00       		.byte	0
 3794 00c6 11       		.uleb128 0x11
 3795 00c7 35       		.uleb128 0x35
 3796 00c8 00       		.byte	0
 3797 00c9 49       		.uleb128 0x49
 3798 00ca 13       		.uleb128 0x13
 3799 00cb 00       		.byte	0
 3800 00cc 00       		.byte	0
 3801 00cd 12       		.uleb128 0x12
 3802 00ce 13       		.uleb128 0x13
 3803 00cf 01       		.byte	0x1
 3804 00d0 0B       		.uleb128 0xb
 3805 00d1 0B       		.uleb128 0xb
 3806 00d2 3A       		.uleb128 0x3a
 3807 00d3 0B       		.uleb128 0xb
 3808 00d4 3B       		.uleb128 0x3b
 3809 00d5 05       		.uleb128 0x5
 3810 00d6 01       		.uleb128 0x1
 3811 00d7 13       		.uleb128 0x13
 3812 00d8 00       		.byte	0
 3813 00d9 00       		.byte	0
 3814 00da 13       		.uleb128 0x13
 3815 00db 16       		.uleb128 0x16
 3816 00dc 00       		.byte	0
 3817 00dd 03       		.uleb128 0x3
 3818 00de 0E       		.uleb128 0xe
 3819 00df 3A       		.uleb128 0x3a
 3820 00e0 0B       		.uleb128 0xb
 3821 00e1 3B       		.uleb128 0x3b
 3822 00e2 05       		.uleb128 0x5
ARM GAS  /tmp/ccDPDrPi.s 			page 122


 3823 00e3 49       		.uleb128 0x49
 3824 00e4 13       		.uleb128 0x13
 3825 00e5 00       		.byte	0
 3826 00e6 00       		.byte	0
 3827 00e7 14       		.uleb128 0x14
 3828 00e8 0D       		.uleb128 0xd
 3829 00e9 00       		.byte	0
 3830 00ea 03       		.uleb128 0x3
 3831 00eb 08       		.uleb128 0x8
 3832 00ec 3A       		.uleb128 0x3a
 3833 00ed 0B       		.uleb128 0xb
 3834 00ee 3B       		.uleb128 0x3b
 3835 00ef 0B       		.uleb128 0xb
 3836 00f0 49       		.uleb128 0x49
 3837 00f1 13       		.uleb128 0x13
 3838 00f2 38       		.uleb128 0x38
 3839 00f3 0B       		.uleb128 0xb
 3840 00f4 00       		.byte	0
 3841 00f5 00       		.byte	0
 3842 00f6 15       		.uleb128 0x15
 3843 00f7 13       		.uleb128 0x13
 3844 00f8 01       		.byte	0x1
 3845 00f9 0B       		.uleb128 0xb
 3846 00fa 0B       		.uleb128 0xb
 3847 00fb 3A       		.uleb128 0x3a
 3848 00fc 0B       		.uleb128 0xb
 3849 00fd 3B       		.uleb128 0x3b
 3850 00fe 0B       		.uleb128 0xb
 3851 00ff 01       		.uleb128 0x1
 3852 0100 13       		.uleb128 0x13
 3853 0101 00       		.byte	0
 3854 0102 00       		.byte	0
 3855 0103 16       		.uleb128 0x16
 3856 0104 17       		.uleb128 0x17
 3857 0105 01       		.byte	0x1
 3858 0106 0B       		.uleb128 0xb
 3859 0107 0B       		.uleb128 0xb
 3860 0108 3A       		.uleb128 0x3a
 3861 0109 0B       		.uleb128 0xb
 3862 010a 3B       		.uleb128 0x3b
 3863 010b 0B       		.uleb128 0xb
 3864 010c 01       		.uleb128 0x1
 3865 010d 13       		.uleb128 0x13
 3866 010e 00       		.byte	0
 3867 010f 00       		.byte	0
 3868 0110 17       		.uleb128 0x17
 3869 0111 0D       		.uleb128 0xd
 3870 0112 00       		.byte	0
 3871 0113 03       		.uleb128 0x3
 3872 0114 0E       		.uleb128 0xe
 3873 0115 3A       		.uleb128 0x3a
 3874 0116 0B       		.uleb128 0xb
 3875 0117 3B       		.uleb128 0x3b
 3876 0118 05       		.uleb128 0x5
 3877 0119 49       		.uleb128 0x49
 3878 011a 13       		.uleb128 0x13
 3879 011b 00       		.byte	0
ARM GAS  /tmp/ccDPDrPi.s 			page 123


 3880 011c 00       		.byte	0
 3881 011d 18       		.uleb128 0x18
 3882 011e 26       		.uleb128 0x26
 3883 011f 00       		.byte	0
 3884 0120 49       		.uleb128 0x49
 3885 0121 13       		.uleb128 0x13
 3886 0122 00       		.byte	0
 3887 0123 00       		.byte	0
 3888 0124 19       		.uleb128 0x19
 3889 0125 01       		.uleb128 0x1
 3890 0126 01       		.byte	0x1
 3891 0127 49       		.uleb128 0x49
 3892 0128 13       		.uleb128 0x13
 3893 0129 01       		.uleb128 0x1
 3894 012a 13       		.uleb128 0x13
 3895 012b 00       		.byte	0
 3896 012c 00       		.byte	0
 3897 012d 1A       		.uleb128 0x1a
 3898 012e 21       		.uleb128 0x21
 3899 012f 00       		.byte	0
 3900 0130 49       		.uleb128 0x49
 3901 0131 13       		.uleb128 0x13
 3902 0132 2F       		.uleb128 0x2f
 3903 0133 0B       		.uleb128 0xb
 3904 0134 00       		.byte	0
 3905 0135 00       		.byte	0
 3906 0136 1B       		.uleb128 0x1b
 3907 0137 13       		.uleb128 0x13
 3908 0138 01       		.byte	0x1
 3909 0139 0B       		.uleb128 0xb
 3910 013a 05       		.uleb128 0x5
 3911 013b 3A       		.uleb128 0x3a
 3912 013c 0B       		.uleb128 0xb
 3913 013d 3B       		.uleb128 0x3b
 3914 013e 0B       		.uleb128 0xb
 3915 013f 01       		.uleb128 0x1
 3916 0140 13       		.uleb128 0x13
 3917 0141 00       		.byte	0
 3918 0142 00       		.byte	0
 3919 0143 1C       		.uleb128 0x1c
 3920 0144 2E       		.uleb128 0x2e
 3921 0145 01       		.byte	0x1
 3922 0146 3F       		.uleb128 0x3f
 3923 0147 19       		.uleb128 0x19
 3924 0148 03       		.uleb128 0x3
 3925 0149 0E       		.uleb128 0xe
 3926 014a 3A       		.uleb128 0x3a
 3927 014b 0B       		.uleb128 0xb
 3928 014c 3B       		.uleb128 0x3b
 3929 014d 0B       		.uleb128 0xb
 3930 014e 27       		.uleb128 0x27
 3931 014f 19       		.uleb128 0x19
 3932 0150 11       		.uleb128 0x11
 3933 0151 01       		.uleb128 0x1
 3934 0152 12       		.uleb128 0x12
 3935 0153 06       		.uleb128 0x6
 3936 0154 40       		.uleb128 0x40
ARM GAS  /tmp/ccDPDrPi.s 			page 124


 3937 0155 18       		.uleb128 0x18
 3938 0156 9642     		.uleb128 0x2116
 3939 0158 19       		.uleb128 0x19
 3940 0159 01       		.uleb128 0x1
 3941 015a 13       		.uleb128 0x13
 3942 015b 00       		.byte	0
 3943 015c 00       		.byte	0
 3944 015d 1D       		.uleb128 0x1d
 3945 015e 34       		.uleb128 0x34
 3946 015f 00       		.byte	0
 3947 0160 03       		.uleb128 0x3
 3948 0161 08       		.uleb128 0x8
 3949 0162 3A       		.uleb128 0x3a
 3950 0163 0B       		.uleb128 0xb
 3951 0164 3B       		.uleb128 0x3b
 3952 0165 0B       		.uleb128 0xb
 3953 0166 49       		.uleb128 0x49
 3954 0167 13       		.uleb128 0x13
 3955 0168 02       		.uleb128 0x2
 3956 0169 18       		.uleb128 0x18
 3957 016a 00       		.byte	0
 3958 016b 00       		.byte	0
 3959 016c 1E       		.uleb128 0x1e
 3960 016d 2E       		.uleb128 0x2e
 3961 016e 01       		.byte	0x1
 3962 016f 3F       		.uleb128 0x3f
 3963 0170 19       		.uleb128 0x19
 3964 0171 03       		.uleb128 0x3
 3965 0172 0E       		.uleb128 0xe
 3966 0173 3A       		.uleb128 0x3a
 3967 0174 0B       		.uleb128 0xb
 3968 0175 3B       		.uleb128 0x3b
 3969 0176 05       		.uleb128 0x5
 3970 0177 27       		.uleb128 0x27
 3971 0178 19       		.uleb128 0x19
 3972 0179 11       		.uleb128 0x11
 3973 017a 01       		.uleb128 0x1
 3974 017b 12       		.uleb128 0x12
 3975 017c 06       		.uleb128 0x6
 3976 017d 40       		.uleb128 0x40
 3977 017e 18       		.uleb128 0x18
 3978 017f 9642     		.uleb128 0x2116
 3979 0181 19       		.uleb128 0x19
 3980 0182 01       		.uleb128 0x1
 3981 0183 13       		.uleb128 0x13
 3982 0184 00       		.byte	0
 3983 0185 00       		.byte	0
 3984 0186 1F       		.uleb128 0x1f
 3985 0187 34       		.uleb128 0x34
 3986 0188 00       		.byte	0
 3987 0189 03       		.uleb128 0x3
 3988 018a 08       		.uleb128 0x8
 3989 018b 3A       		.uleb128 0x3a
 3990 018c 0B       		.uleb128 0xb
 3991 018d 3B       		.uleb128 0x3b
 3992 018e 05       		.uleb128 0x5
 3993 018f 49       		.uleb128 0x49
ARM GAS  /tmp/ccDPDrPi.s 			page 125


 3994 0190 13       		.uleb128 0x13
 3995 0191 02       		.uleb128 0x2
 3996 0192 18       		.uleb128 0x18
 3997 0193 00       		.byte	0
 3998 0194 00       		.byte	0
 3999 0195 20       		.uleb128 0x20
 4000 0196 2E       		.uleb128 0x2e
 4001 0197 00       		.byte	0
 4002 0198 3F       		.uleb128 0x3f
 4003 0199 19       		.uleb128 0x19
 4004 019a 03       		.uleb128 0x3
 4005 019b 0E       		.uleb128 0xe
 4006 019c 3A       		.uleb128 0x3a
 4007 019d 0B       		.uleb128 0xb
 4008 019e 3B       		.uleb128 0x3b
 4009 019f 05       		.uleb128 0x5
 4010 01a0 27       		.uleb128 0x27
 4011 01a1 19       		.uleb128 0x19
 4012 01a2 11       		.uleb128 0x11
 4013 01a3 01       		.uleb128 0x1
 4014 01a4 12       		.uleb128 0x12
 4015 01a5 06       		.uleb128 0x6
 4016 01a6 40       		.uleb128 0x40
 4017 01a7 18       		.uleb128 0x18
 4018 01a8 9642     		.uleb128 0x2116
 4019 01aa 19       		.uleb128 0x19
 4020 01ab 00       		.byte	0
 4021 01ac 00       		.byte	0
 4022 01ad 21       		.uleb128 0x21
 4023 01ae 34       		.uleb128 0x34
 4024 01af 00       		.byte	0
 4025 01b0 03       		.uleb128 0x3
 4026 01b1 0E       		.uleb128 0xe
 4027 01b2 3A       		.uleb128 0x3a
 4028 01b3 0B       		.uleb128 0xb
 4029 01b4 3B       		.uleb128 0x3b
 4030 01b5 05       		.uleb128 0x5
 4031 01b6 49       		.uleb128 0x49
 4032 01b7 13       		.uleb128 0x13
 4033 01b8 3F       		.uleb128 0x3f
 4034 01b9 19       		.uleb128 0x19
 4035 01ba 3C       		.uleb128 0x3c
 4036 01bb 19       		.uleb128 0x19
 4037 01bc 00       		.byte	0
 4038 01bd 00       		.byte	0
 4039 01be 22       		.uleb128 0x22
 4040 01bf 34       		.uleb128 0x34
 4041 01c0 00       		.byte	0
 4042 01c1 03       		.uleb128 0x3
 4043 01c2 08       		.uleb128 0x8
 4044 01c3 3A       		.uleb128 0x3a
 4045 01c4 0B       		.uleb128 0xb
 4046 01c5 3B       		.uleb128 0x3b
 4047 01c6 05       		.uleb128 0x5
 4048 01c7 49       		.uleb128 0x49
 4049 01c8 13       		.uleb128 0x13
 4050 01c9 3F       		.uleb128 0x3f
ARM GAS  /tmp/ccDPDrPi.s 			page 126


 4051 01ca 19       		.uleb128 0x19
 4052 01cb 3C       		.uleb128 0x3c
 4053 01cc 19       		.uleb128 0x19
 4054 01cd 00       		.byte	0
 4055 01ce 00       		.byte	0
 4056 01cf 23       		.uleb128 0x23
 4057 01d0 34       		.uleb128 0x34
 4058 01d1 00       		.byte	0
 4059 01d2 03       		.uleb128 0x3
 4060 01d3 0E       		.uleb128 0xe
 4061 01d4 3A       		.uleb128 0x3a
 4062 01d5 0B       		.uleb128 0xb
 4063 01d6 3B       		.uleb128 0x3b
 4064 01d7 0B       		.uleb128 0xb
 4065 01d8 49       		.uleb128 0x49
 4066 01d9 13       		.uleb128 0x13
 4067 01da 3F       		.uleb128 0x3f
 4068 01db 19       		.uleb128 0x19
 4069 01dc 3C       		.uleb128 0x3c
 4070 01dd 19       		.uleb128 0x19
 4071 01de 00       		.byte	0
 4072 01df 00       		.byte	0
 4073 01e0 00       		.byte	0
 4074              		.section	.debug_aranges,"",%progbits
 4075 0000 9C000000 		.4byte	0x9c
 4076 0004 0200     		.2byte	0x2
 4077 0006 00000000 		.4byte	.Ldebug_info0
 4078 000a 04       		.byte	0x4
 4079 000b 00       		.byte	0
 4080 000c 0000     		.2byte	0
 4081 000e 0000     		.2byte	0
 4082 0010 00000000 		.4byte	.LFB272
 4083 0014 44000000 		.4byte	.LFE272-.LFB272
 4084 0018 00000000 		.4byte	.LFB273
 4085 001c 44000000 		.4byte	.LFE273-.LFB273
 4086 0020 00000000 		.4byte	.LFB274
 4087 0024 44000000 		.4byte	.LFE274-.LFB274
 4088 0028 00000000 		.4byte	.LFB275
 4089 002c 44000000 		.4byte	.LFE275-.LFB275
 4090 0030 00000000 		.4byte	.LFB276
 4091 0034 44000000 		.4byte	.LFE276-.LFB276
 4092 0038 00000000 		.4byte	.LFB277
 4093 003c 9C000000 		.4byte	.LFE277-.LFB277
 4094 0040 00000000 		.4byte	.LFB278
 4095 0044 B0000000 		.4byte	.LFE278-.LFB278
 4096 0048 00000000 		.4byte	.LFB279
 4097 004c 44000000 		.4byte	.LFE279-.LFB279
 4098 0050 00000000 		.4byte	.LFB280
 4099 0054 44000000 		.4byte	.LFE280-.LFB280
 4100 0058 00000000 		.4byte	.LFB281
 4101 005c 44000000 		.4byte	.LFE281-.LFB281
 4102 0060 00000000 		.4byte	.LFB282
 4103 0064 44000000 		.4byte	.LFE282-.LFB282
 4104 0068 00000000 		.4byte	.LFB283
 4105 006c 44000000 		.4byte	.LFE283-.LFB283
 4106 0070 00000000 		.4byte	.LFB284
 4107 0074 78000000 		.4byte	.LFE284-.LFB284
ARM GAS  /tmp/ccDPDrPi.s 			page 127


 4108 0078 00000000 		.4byte	.LFB285
 4109 007c 88000000 		.4byte	.LFE285-.LFB285
 4110 0080 00000000 		.4byte	.LFB286
 4111 0084 44000000 		.4byte	.LFE286-.LFB286
 4112 0088 00000000 		.4byte	.LFB287
 4113 008c 7C000000 		.4byte	.LFE287-.LFB287
 4114 0090 00000000 		.4byte	.LFB288
 4115 0094 5E000000 		.4byte	.LFE288-.LFB288
 4116 0098 00000000 		.4byte	0
 4117 009c 00000000 		.4byte	0
 4118              		.section	.debug_ranges,"",%progbits
 4119              	.Ldebug_ranges0:
 4120 0000 00000000 		.4byte	.LFB272
 4121 0004 44000000 		.4byte	.LFE272
 4122 0008 00000000 		.4byte	.LFB273
 4123 000c 44000000 		.4byte	.LFE273
 4124 0010 00000000 		.4byte	.LFB274
 4125 0014 44000000 		.4byte	.LFE274
 4126 0018 00000000 		.4byte	.LFB275
 4127 001c 44000000 		.4byte	.LFE275
 4128 0020 00000000 		.4byte	.LFB276
 4129 0024 44000000 		.4byte	.LFE276
 4130 0028 00000000 		.4byte	.LFB277
 4131 002c 9C000000 		.4byte	.LFE277
 4132 0030 00000000 		.4byte	.LFB278
 4133 0034 B0000000 		.4byte	.LFE278
 4134 0038 00000000 		.4byte	.LFB279
 4135 003c 44000000 		.4byte	.LFE279
 4136 0040 00000000 		.4byte	.LFB280
 4137 0044 44000000 		.4byte	.LFE280
 4138 0048 00000000 		.4byte	.LFB281
 4139 004c 44000000 		.4byte	.LFE281
 4140 0050 00000000 		.4byte	.LFB282
 4141 0054 44000000 		.4byte	.LFE282
 4142 0058 00000000 		.4byte	.LFB283
 4143 005c 44000000 		.4byte	.LFE283
 4144 0060 00000000 		.4byte	.LFB284
 4145 0064 78000000 		.4byte	.LFE284
 4146 0068 00000000 		.4byte	.LFB285
 4147 006c 88000000 		.4byte	.LFE285
 4148 0070 00000000 		.4byte	.LFB286
 4149 0074 44000000 		.4byte	.LFE286
 4150 0078 00000000 		.4byte	.LFB287
 4151 007c 7C000000 		.4byte	.LFE287
 4152 0080 00000000 		.4byte	.LFB288
 4153 0084 5E000000 		.4byte	.LFE288
 4154 0088 00000000 		.4byte	0
 4155 008c 00000000 		.4byte	0
 4156              		.section	.debug_line,"",%progbits
 4157              	.Ldebug_line0:
 4158 0000 78040000 		.section	.debug_str,"MS",%progbits,1
 4158      0200CD02 
 4158      00000201 
 4158      FB0E0D00 
 4158      01010101 
 4159              	.LASF45:
 4160 0000 74687265 		.ascii	"threads_list_t\000"
ARM GAS  /tmp/ccDPDrPi.s 			page 128


 4160      6164735F 
 4160      6C697374 
 4160      5F7400
 4161              	.LASF50:
 4162 000f 72656164 		.ascii	"ready_list_t\000"
 4162      795F6C69 
 4162      73745F74 
 4162      00
 4163              	.LASF206:
 4164 001c 56656374 		.ascii	"Vector9C\000"
 4164      6F723943 
 4164      00
 4165              	.LASF173:
 4166 0025 77747472 		.ascii	"wttrp\000"
 4166      7000
 4167              	.LASF170:
 4168 002b 7264796D 		.ascii	"rdymsg\000"
 4168      736700
 4169              	.LASF16:
 4170 0032 75696E74 		.ascii	"uint64_t\000"
 4170      36345F74 
 4170      00
 4171              	.LASF117:
 4172 003b 49324331 		.ascii	"I2C1_EV_IRQn\000"
 4172      5F45565F 
 4172      4952516E 
 4172      00
 4173              	.LASF5:
 4174 0048 5F5F7569 		.ascii	"__uint8_t\000"
 4174      6E74385F 
 4174      7400
 4175              	.LASF195:
 4176 0052 65787063 		.ascii	"expchannel_t\000"
 4176      68616E6E 
 4176      656C5F74 
 4176      00
 4177              	.LASF127:
 4178 005f 5254435F 		.ascii	"RTC_Alarm_IRQn\000"
 4178      416C6172 
 4178      6D5F4952 
 4178      516E00
 4179              	.LASF167:
 4180 006e 706F7274 		.ascii	"port_intctx\000"
 4180      5F696E74 
 4180      63747800 
 4181              	.LASF69:
 4182 007a 73797374 		.ascii	"system_debug_t\000"
 4182      656D5F64 
 4182      65627567 
 4182      5F7400
 4183              	.LASF147:
 4184 0089 434F4D50 		.ascii	"COMP7_IRQn\000"
 4184      375F4952 
 4184      516E00
 4185              	.LASF161:
 4186 0094 46545352 		.ascii	"FTSR2\000"
 4186      3200
ARM GAS  /tmp/ccDPDrPi.s 			page 129


 4187              	.LASF155:
 4188 009a 53574945 		.ascii	"SWIER\000"
 4188      5200
 4189              	.LASF111:
 4190 00a0 54494D31 		.ascii	"TIM1_UP_TIM16_IRQn\000"
 4190      5F55505F 
 4190      54494D31 
 4190      365F4952 
 4190      516E00
 4191              	.LASF12:
 4192 00b3 6C6F6E67 		.ascii	"long long unsigned int\000"
 4192      206C6F6E 
 4192      6720756E 
 4192      7369676E 
 4192      65642069 
 4193              	.LASF139:
 4194 00ca 444D4132 		.ascii	"DMA2_Channel1_IRQn\000"
 4194      5F436861 
 4194      6E6E656C 
 4194      315F4952 
 4194      516E00
 4195              	.LASF164:
 4196 00dd 72656761 		.ascii	"regarm_t\000"
 4196      726D5F74 
 4196      00
 4197              	.LASF171:
 4198 00e6 65786974 		.ascii	"exitcode\000"
 4198      636F6465 
 4198      00
 4199              	.LASF76:
 4200 00ef 6D61696E 		.ascii	"mainthread\000"
 4200      74687265 
 4200      616400
 4201              	.LASF120:
 4202 00fa 49324332 		.ascii	"I2C2_ER_IRQn\000"
 4202      5F45525F 
 4202      4952516E 
 4202      00
 4203              	.LASF205:
 4204 0107 56656374 		.ascii	"Vector68\000"
 4204      6F723638 
 4204      00
 4205              	.LASF116:
 4206 0110 54494D34 		.ascii	"TIM4_IRQn\000"
 4206      5F495251 
 4206      6E00
 4207              	.LASF89:
 4208 011a 5254435F 		.ascii	"RTC_WKUP_IRQn\000"
 4208      574B5550 
 4208      5F495251 
 4208      6E00
 4209              	.LASF162:
 4210 0128 53574945 		.ascii	"SWIER2\000"
 4210      523200
 4211              	.LASF49:
 4212 012f 63685F74 		.ascii	"ch_threads_queue\000"
 4212      68726561 
ARM GAS  /tmp/ccDPDrPi.s 			page 130


 4212      64735F71 
 4212      75657565 
 4212      00
 4213              	.LASF29:
 4214 0140 705F7072 		.ascii	"p_prio\000"
 4214      696F00
 4215              	.LASF132:
 4216 0147 54494D38 		.ascii	"TIM8_CC_IRQn\000"
 4216      5F43435F 
 4216      4952516E 
 4216      00
 4217              	.LASF10:
 4218 0154 6C6F6E67 		.ascii	"long long int\000"
 4218      206C6F6E 
 4218      6720696E 
 4218      7400
 4219              	.LASF1:
 4220 0162 7369676E 		.ascii	"signed char\000"
 4220      65642063 
 4220      68617200 
 4221              	.LASF87:
 4222 016e 5056445F 		.ascii	"PVD_IRQn\000"
 4222      4952516E 
 4222      00
 4223              	.LASF43:
 4224 0177 705F6D70 		.ascii	"p_mpool\000"
 4224      6F6F6C00 
 4225              	.LASF182:
 4226 017f 6D5F7175 		.ascii	"m_queue\000"
 4226      65756500 
 4227              	.LASF75:
 4228 0187 76746C69 		.ascii	"vtlist\000"
 4228      737400
 4229              	.LASF143:
 4230 018e 444D4132 		.ascii	"DMA2_Channel5_IRQn\000"
 4230      5F436861 
 4230      6E6E656C 
 4230      355F4952 
 4230      516E00
 4231              	.LASF193:
 4232 01a1 73746174 		.ascii	"state\000"
 4232      6500
 4233              	.LASF199:
 4234 01a7 6368616E 		.ascii	"channels\000"
 4234      6E656C73 
 4234      00
 4235              	.LASF7:
 4236 01b0 6C6F6E67 		.ascii	"long int\000"
 4236      20696E74 
 4236      00
 4237              	.LASF213:
 4238 01b9 56656374 		.ascii	"Vector140\000"
 4238      6F723134 
 4238      3000
 4239              	.LASF119:
 4240 01c3 49324332 		.ascii	"I2C2_EV_IRQn\000"
 4240      5F45565F 
ARM GAS  /tmp/ccDPDrPi.s 			page 131


 4240      4952516E 
 4240      00
 4241              	.LASF214:
 4242 01d0 56656374 		.ascii	"Vector144\000"
 4242      6F723134 
 4242      3400
 4243              	.LASF19:
 4244 01da 74737461 		.ascii	"tstate_t\000"
 4244      74655F74 
 4244      00
 4245              	.LASF215:
 4246 01e3 56656374 		.ascii	"Vector148\000"
 4246      6F723134 
 4246      3800
 4247              	.LASF109:
 4248 01ed 45585449 		.ascii	"EXTI9_5_IRQn\000"
 4248      395F355F 
 4248      4952516E 
 4248      00
 4249              	.LASF133:
 4250 01fa 41444333 		.ascii	"ADC3_IRQn\000"
 4250      5F495251 
 4250      6E00
 4251              	.LASF104:
 4252 0204 41444331 		.ascii	"ADC1_2_IRQn\000"
 4252      5F325F49 
 4252      52516E00 
 4253              	.LASF31:
 4254 0210 705F6E65 		.ascii	"p_newer\000"
 4254      77657200 
 4255              	.LASF137:
 4256 0218 54494D36 		.ascii	"TIM6_DAC_IRQn\000"
 4256      5F444143 
 4256      5F495251 
 4256      6E00
 4257              	.LASF179:
 4258 0226 735F7175 		.ascii	"s_queue\000"
 4258      65756500 
 4259              	.LASF135:
 4260 022e 55415254 		.ascii	"UART4_IRQn\000"
 4260      345F4952 
 4260      516E00
 4261              	.LASF198:
 4262 0239 45585443 		.ascii	"EXTChannelConfig\000"
 4262      68616E6E 
 4262      656C436F 
 4262      6E666967 
 4262      00
 4263              	.LASF84:
 4264 024a 50656E64 		.ascii	"PendSV_IRQn\000"
 4264      53565F49 
 4264      52516E00 
 4265              	.LASF42:
 4266 0256 705F7265 		.ascii	"p_realprio\000"
 4266      616C7072 
 4266      696F00
 4267              	.LASF100:
ARM GAS  /tmp/ccDPDrPi.s 			page 132


 4268 0261 444D4131 		.ascii	"DMA1_Channel4_IRQn\000"
 4268      5F436861 
 4268      6E6E656C 
 4268      345F4952 
 4268      516E00
 4269              	.LASF55:
 4270 0274 725F6E65 		.ascii	"r_newer\000"
 4270      77657200 
 4271              	.LASF80:
 4272 027c 42757346 		.ascii	"BusFault_IRQn\000"
 4272      61756C74 
 4272      5F495251 
 4272      6E00
 4273              	.LASF62:
 4274 028a 76745F70 		.ascii	"vt_prev\000"
 4274      72657600 
 4275              	.LASF186:
 4276 0292 6D757465 		.ascii	"mutex_t\000"
 4276      785F7400 
 4277              	.LASF77:
 4278 029a 69646C65 		.ascii	"idle_thread_wa\000"
 4278      5F746872 
 4278      6561645F 
 4278      776100
 4279              	.LASF217:
 4280 02a9 6578745F 		.ascii	"ext_lld_exti_irq_disable\000"
 4280      6C6C645F 
 4280      65787469 
 4280      5F697271 
 4280      5F646973 
 4281              	.LASF220:
 4282 02c2 474E5520 		.ascii	"GNU C 4.8.4 20140526 (release) [ARM/embedded-4_8-br"
 4282      4320342E 
 4282      382E3420 
 4282      32303134 
 4282      30353236 
 4283 02f5 616E6368 		.ascii	"anch revision 211358] -mcpu=cortex-m4 -mno-thumb-in"
 4283      20726576 
 4283      6973696F 
 4283      6E203231 
 4283      31333538 
 4284 0328 74657277 		.ascii	"terwork -mthumb -ggdb -O0 -fomit-frame-pointer -fal"
 4284      6F726B20 
 4284      2D6D7468 
 4284      756D6220 
 4284      2D676764 
 4285 035b 69676E2D 		.ascii	"ign-functions=16 -ffunction-sections -fdata-section"
 4285      66756E63 
 4285      74696F6E 
 4285      733D3136 
 4285      202D6666 
 4286 038e 73202D66 		.ascii	"s -fno-common -flto\000"
 4286      6E6F2D63 
 4286      6F6D6D6F 
 4286      6E202D66 
 4286      6C746F00 
 4287              	.LASF0:
ARM GAS  /tmp/ccDPDrPi.s 			page 133


 4288 03a2 756E7369 		.ascii	"unsigned int\000"
 4288      676E6564 
 4288      20696E74 
 4288      00
 4289              	.LASF61:
 4290 03af 76745F6E 		.ascii	"vt_next\000"
 4290      65787400 
 4291              	.LASF144:
 4292 03b7 41444334 		.ascii	"ADC4_IRQn\000"
 4292      5F495251 
 4292      6E00
 4293              	.LASF175:
 4294 03c1 77747365 		.ascii	"wtsemp\000"
 4294      6D7000
 4295              	.LASF79:
 4296 03c8 4D656D6F 		.ascii	"MemoryManagement_IRQn\000"
 4296      72794D61 
 4296      6E616765 
 4296      6D656E74 
 4296      5F495251 
 4297              	.LASF63:
 4298 03de 76745F64 		.ascii	"vt_delta\000"
 4298      656C7461 
 4298      00
 4299              	.LASF211:
 4300 03e7 56656374 		.ascii	"Vector48\000"
 4300      6F723438 
 4300      00
 4301              	.LASF39:
 4302 03f0 705F6D73 		.ascii	"p_msgqueue\000"
 4302      67717565 
 4302      756500
 4303              	.LASF212:
 4304 03fb 56656374 		.ascii	"Vector4C\000"
 4304      6F723443 
 4304      00
 4305              	.LASF180:
 4306 0404 735F636E 		.ascii	"s_cnt\000"
 4306      7400
 4307              	.LASF166:
 4308 040a 636F6E74 		.ascii	"context\000"
 4308      65787400 
 4309              	.LASF101:
 4310 0412 444D4131 		.ascii	"DMA1_Channel5_IRQn\000"
 4310      5F436861 
 4310      6E6E656C 
 4310      355F4952 
 4310      516E00
 4311              	.LASF4:
 4312 0425 73686F72 		.ascii	"short unsigned int\000"
 4312      7420756E 
 4312      7369676E 
 4312      65642069 
 4312      6E7400
 4313              	.LASF216:
 4314 0438 6578745F 		.ascii	"ext_lld_exti_irq_enable\000"
 4314      6C6C645F 
ARM GAS  /tmp/ccDPDrPi.s 			page 134


 4314      65787469 
 4314      5F697271 
 4314      5F656E61 
 4315              	.LASF46:
 4316 0450 63685F74 		.ascii	"ch_thread\000"
 4316      68726561 
 4316      6400
 4317              	.LASF200:
 4318 045a 45585443 		.ascii	"EXTConfig\000"
 4318      6F6E6669 
 4318      6700
 4319              	.LASF22:
 4320 0464 6D73675F 		.ascii	"msg_t\000"
 4320      7400
 4321              	.LASF130:
 4322 046a 54494D38 		.ascii	"TIM8_UP_IRQn\000"
 4322      5F55505F 
 4322      4952516E 
 4322      00
 4323              	.LASF126:
 4324 0477 45585449 		.ascii	"EXTI15_10_IRQn\000"
 4324      31355F31 
 4324      305F4952 
 4324      516E00
 4325              	.LASF108:
 4326 0486 43414E5F 		.ascii	"CAN_SCE_IRQn\000"
 4326      5343455F 
 4326      4952516E 
 4326      00
 4327              	.LASF121:
 4328 0493 53504931 		.ascii	"SPI1_IRQn\000"
 4328      5F495251 
 4328      6E00
 4329              	.LASF18:
 4330 049d 746D6F64 		.ascii	"tmode_t\000"
 4330      655F7400 
 4331              	.LASF160:
 4332 04a5 52545352 		.ascii	"RTSR2\000"
 4332      3200
 4333              	.LASF112:
 4334 04ab 54494D31 		.ascii	"TIM1_TRG_COM_TIM17_IRQn\000"
 4334      5F545247 
 4334      5F434F4D 
 4334      5F54494D 
 4334      31375F49 
 4335              	.LASF51:
 4336 04c3 63685F72 		.ascii	"ch_ready_list\000"
 4336      65616479 
 4336      5F6C6973 
 4336      7400
 4337              	.LASF23:
 4338 04d1 6576656E 		.ascii	"eventmask_t\000"
 4338      746D6173 
 4338      6B5F7400 
 4339              	.LASF6:
 4340 04dd 5F5F696E 		.ascii	"__int32_t\000"
 4340      7433325F 
ARM GAS  /tmp/ccDPDrPi.s 			page 135


 4340      7400
 4341              	.LASF148:
 4342 04e7 5553425F 		.ascii	"USB_HP_IRQn\000"
 4342      48505F49 
 4342      52516E00 
 4343              	.LASF66:
 4344 04f3 76697274 		.ascii	"virtual_timers_list_t\000"
 4344      75616C5F 
 4344      74696D65 
 4344      72735F6C 
 4344      6973745F 
 4345              	.LASF85:
 4346 0509 53797354 		.ascii	"SysTick_IRQn\000"
 4346      69636B5F 
 4346      4952516E 
 4346      00
 4347              	.LASF113:
 4348 0516 54494D31 		.ascii	"TIM1_CC_IRQn\000"
 4348      5F43435F 
 4348      4952516E 
 4348      00
 4349              	.LASF165:
 4350 0523 73746B61 		.ascii	"stkalign_t\000"
 4350      6C69676E 
 4350      5F7400
 4351              	.LASF146:
 4352 052e 434F4D50 		.ascii	"COMP4_5_6_IRQn\000"
 4352      345F355F 
 4352      365F4952 
 4352      516E00
 4353              	.LASF190:
 4354 053d 4558545F 		.ascii	"EXT_ACTIVE\000"
 4354      41435449 
 4354      564500
 4355              	.LASF201:
 4356 0548 56656374 		.ascii	"Vector58\000"
 4356      6F723538 
 4356      00
 4357              	.LASF158:
 4358 0551 494D5232 		.ascii	"IMR2\000"
 4358      00
 4359              	.LASF38:
 4360 0556 705F7761 		.ascii	"p_waiting\000"
 4360      6974696E 
 4360      6700
 4361              	.LASF129:
 4362 0560 54494D38 		.ascii	"TIM8_BRK_IRQn\000"
 4362      5F42524B 
 4362      5F495251 
 4362      6E00
 4363              	.LASF202:
 4364 056e 56656374 		.ascii	"Vector5C\000"
 4364      6F723543 
 4364      00
 4365              	.LASF152:
 4366 0577 73697A65 		.ascii	"sizetype\000"
 4366      74797065 
ARM GAS  /tmp/ccDPDrPi.s 			page 136


 4366      00
 4367              	.LASF44:
 4368 0580 74687265 		.ascii	"thread_reference_t\000"
 4368      61645F72 
 4368      65666572 
 4368      656E6365 
 4368      5F7400
 4369              	.LASF191:
 4370 0593 65787473 		.ascii	"extstate_t\000"
 4370      74617465 
 4370      5F7400
 4371              	.LASF67:
 4372 059e 63685F76 		.ascii	"ch_virtual_timers_list\000"
 4372      69727475 
 4372      616C5F74 
 4372      696D6572 
 4372      735F6C69 
 4373              	.LASF82:
 4374 05b5 53564361 		.ascii	"SVCall_IRQn\000"
 4374      6C6C5F49 
 4374      52516E00 
 4375              	.LASF140:
 4376 05c1 444D4132 		.ascii	"DMA2_Channel2_IRQn\000"
 4376      5F436861 
 4376      6E6E656C 
 4376      325F4952 
 4376      516E00
 4377              	.LASF52:
 4378 05d4 725F7175 		.ascii	"r_queue\000"
 4378      65756500 
 4379              	.LASF24:
 4380 05dc 636E745F 		.ascii	"cnt_t\000"
 4380      7400
 4381              	.LASF68:
 4382 05e2 76745F6C 		.ascii	"vt_lasttime\000"
 4382      61737474 
 4382      696D6500 
 4383              	.LASF95:
 4384 05ee 45585449 		.ascii	"EXTI3_IRQn\000"
 4384      335F4952 
 4384      516E00
 4385              	.LASF122:
 4386 05f9 53504932 		.ascii	"SPI2_IRQn\000"
 4386      5F495251 
 4386      6E00
 4387              	.LASF54:
 4388 0603 725F6374 		.ascii	"r_ctx\000"
 4388      7800
 4389              	.LASF169:
 4390 0609 746D5F63 		.ascii	"tm_calibration_t\000"
 4390      616C6962 
 4390      72617469 
 4390      6F6E5F74 
 4390      00
 4391              	.LASF141:
 4392 061a 444D4132 		.ascii	"DMA2_Channel3_IRQn\000"
 4392      5F436861 
ARM GAS  /tmp/ccDPDrPi.s 			page 137


 4392      6E6E656C 
 4392      335F4952 
 4392      516E00
 4393              	.LASF34:
 4394 062d 705F7374 		.ascii	"p_stklimit\000"
 4394      6B6C696D 
 4394      697400
 4395              	.LASF208:
 4396 0638 56656374 		.ascii	"Vector44\000"
 4396      6F723434 
 4396      00
 4397              	.LASF57:
 4398 0641 725F6375 		.ascii	"r_current\000"
 4398      7272656E 
 4398      7400
 4399              	.LASF56:
 4400 064b 725F6F6C 		.ascii	"r_older\000"
 4400      64657200 
 4401              	.LASF107:
 4402 0653 43414E5F 		.ascii	"CAN_RX1_IRQn\000"
 4402      5258315F 
 4402      4952516E 
 4402      00
 4403              	.LASF88:
 4404 0660 54414D50 		.ascii	"TAMP_STAMP_IRQn\000"
 4404      5F535441 
 4404      4D505F49 
 4404      52516E00 
 4405              	.LASF210:
 4406 0670 56656374 		.ascii	"VectorE8\000"
 4406      6F724538 
 4406      00
 4407              	.LASF11:
 4408 0679 5F5F7569 		.ascii	"__uint64_t\000"
 4408      6E743634 
 4408      5F7400
 4409              	.LASF153:
 4410 0684 52545352 		.ascii	"RTSR\000"
 4410      00
 4411              	.LASF203:
 4412 0689 56656374 		.ascii	"Vector60\000"
 4412      6F723630 
 4412      00
 4413              	.LASF97:
 4414 0692 444D4131 		.ascii	"DMA1_Channel1_IRQn\000"
 4414      5F436861 
 4414      6E6E656C 
 4414      315F4952 
 4414      516E00
 4415              	.LASF204:
 4416 06a5 56656374 		.ascii	"Vector64\000"
 4416      6F723634 
 4416      00
 4417              	.LASF105:
 4418 06ae 5553425F 		.ascii	"USB_HP_CAN_TX_IRQn\000"
 4418      48505F43 
 4418      414E5F54 
ARM GAS  /tmp/ccDPDrPi.s 			page 138


 4418      585F4952 
 4418      516E00
 4419              	.LASF20:
 4420 06c1 74726566 		.ascii	"trefs_t\000"
 4420      735F7400 
 4421              	.LASF156:
 4422 06c9 52455345 		.ascii	"RESERVED1\000"
 4422      52564544 
 4422      3100
 4423              	.LASF157:
 4424 06d3 52455345 		.ascii	"RESERVED2\000"
 4424      52564544 
 4424      3200
 4425              	.LASF59:
 4426 06dd 76697274 		.ascii	"virtual_timer_t\000"
 4426      75616C5F 
 4426      74696D65 
 4426      725F7400 
 4427              	.LASF28:
 4428 06ed 705F7072 		.ascii	"p_prev\000"
 4428      657600
 4429              	.LASF21:
 4430 06f4 74707269 		.ascii	"tprio_t\000"
 4430      6F5F7400 
 4431              	.LASF70:
 4432 06fc 63685F73 		.ascii	"ch_system_debug\000"
 4432      79737465 
 4432      6D5F6465 
 4432      62756700 
 4433              	.LASF187:
 4434 070c 5F426F6F 		.ascii	"_Bool\000"
 4434      6C00
 4435              	.LASF14:
 4436 0712 696E7433 		.ascii	"int32_t\000"
 4436      325F7400 
 4437              	.LASF2:
 4438 071a 756E7369 		.ascii	"unsigned char\000"
 4438      676E6564 
 4438      20636861 
 4438      7200
 4439              	.LASF188:
 4440 0728 4558545F 		.ascii	"EXT_UNINIT\000"
 4440      554E494E 
 4440      495400
 4441              	.LASF131:
 4442 0733 54494D38 		.ascii	"TIM8_TRG_COM_IRQn\000"
 4442      5F545247 
 4442      5F434F4D 
 4442      5F495251 
 4442      6E00
 4443              	.LASF218:
 4444 0745 49544D5F 		.ascii	"ITM_RxBuffer\000"
 4444      52784275 
 4444      66666572 
 4444      00
 4445              	.LASF154:
 4446 0752 46545352 		.ascii	"FTSR\000"
ARM GAS  /tmp/ccDPDrPi.s 			page 139


 4446      00
 4447              	.LASF96:
 4448 0757 45585449 		.ascii	"EXTI4_IRQn\000"
 4448      345F4952 
 4448      516E00
 4449              	.LASF41:
 4450 0762 705F6D74 		.ascii	"p_mtxlist\000"
 4450      786C6973 
 4450      7400
 4451              	.LASF3:
 4452 076c 73686F72 		.ascii	"short int\000"
 4452      7420696E 
 4452      7400
 4453              	.LASF35:
 4454 0776 705F7374 		.ascii	"p_state\000"
 4454      61746500 
 4455              	.LASF32:
 4456 077e 705F6F6C 		.ascii	"p_older\000"
 4456      64657200 
 4457              	.LASF53:
 4458 0786 725F7072 		.ascii	"r_prio\000"
 4458      696F00
 4459              	.LASF136:
 4460 078d 55415254 		.ascii	"UART5_IRQn\000"
 4460      355F4952 
 4460      516E00
 4461              	.LASF99:
 4462 0798 444D4131 		.ascii	"DMA1_Channel3_IRQn\000"
 4462      5F436861 
 4462      6E6E656C 
 4462      335F4952 
 4462      516E00
 4463              	.LASF177:
 4464 07ab 65776D61 		.ascii	"ewmask\000"
 4464      736B00
 4465              	.LASF27:
 4466 07b2 705F6E65 		.ascii	"p_next\000"
 4466      787400
 4467              	.LASF36:
 4468 07b9 705F666C 		.ascii	"p_flags\000"
 4468      61677300 
 4469              	.LASF145:
 4470 07c1 434F4D50 		.ascii	"COMP1_2_3_IRQn\000"
 4470      315F325F 
 4470      335F4952 
 4470      516E00
 4471              	.LASF106:
 4472 07d0 5553425F 		.ascii	"USB_LP_CAN_RX0_IRQn\000"
 4472      4C505F43 
 4472      414E5F52 
 4472      58305F49 
 4472      52516E00 
 4473              	.LASF73:
 4474 07e4 63685F73 		.ascii	"ch_system\000"
 4474      79737465 
 4474      6D00
 4475              	.LASF60:
ARM GAS  /tmp/ccDPDrPi.s 			page 140


 4476 07ee 63685F76 		.ascii	"ch_virtual_timer\000"
 4476      69727475 
 4476      616C5F74 
 4476      696D6572 
 4476      00
 4477              	.LASF178:
 4478 07ff 63685F73 		.ascii	"ch_semaphore\000"
 4478      656D6170 
 4478      686F7265 
 4478      00
 4479              	.LASF90:
 4480 080c 464C4153 		.ascii	"FLASH_IRQn\000"
 4480      485F4952 
 4480      516E00
 4481              	.LASF196:
 4482 0817 65787463 		.ascii	"extcallback_t\000"
 4482      616C6C62 
 4482      61636B5F 
 4482      7400
 4483              	.LASF40:
 4484 0825 705F6570 		.ascii	"p_epending\000"
 4484      656E6469 
 4484      6E6700
 4485              	.LASF15:
 4486 0830 75696E74 		.ascii	"uint32_t\000"
 4486      33325F74 
 4486      00
 4487              	.LASF176:
 4488 0839 77746D74 		.ascii	"wtmtxp\000"
 4488      787000
 4489              	.LASF124:
 4490 0840 55534152 		.ascii	"USART2_IRQn\000"
 4490      54325F49 
 4490      52516E00 
 4491              	.LASF81:
 4492 084c 55736167 		.ascii	"UsageFault_IRQn\000"
 4492      65466175 
 4492      6C745F49 
 4492      52516E00 
 4493              	.LASF47:
 4494 085c 63685F74 		.ascii	"ch_threads_list\000"
 4494      68726561 
 4494      64735F6C 
 4494      69737400 
 4495              	.LASF150:
 4496 086c 55534257 		.ascii	"USBWakeUp_RMP_IRQn\000"
 4496      616B6555 
 4496      705F524D 
 4496      505F4952 
 4496      516E00
 4497              	.LASF222:
 4498 087f 2F6E6673 		.ascii	"/nfs/nfs4/home/irbrown/Courses/P442/P442WifiTrailCo"
 4498      2F6E6673 
 4498      342F686F 
 4498      6D652F69 
 4498      7262726F 
 4499 08b2 756E7465 		.ascii	"unterProject/milestone3\000"
ARM GAS  /tmp/ccDPDrPi.s 			page 141


 4499      7250726F 
 4499      6A656374 
 4499      2F6D696C 
 4499      6573746F 
 4500              	.LASF9:
 4501 08ca 6C6F6E67 		.ascii	"long unsigned int\000"
 4501      20756E73 
 4501      69676E65 
 4501      6420696E 
 4501      7400
 4502              	.LASF189:
 4503 08dc 4558545F 		.ascii	"EXT_STOP\000"
 4503      53544F50 
 4503      00
 4504              	.LASF185:
 4505 08e5 63686172 		.ascii	"char\000"
 4505      00
 4506              	.LASF142:
 4507 08ea 444D4132 		.ascii	"DMA2_Channel4_IRQn\000"
 4507      5F436861 
 4507      6E6E656C 
 4507      345F4952 
 4507      516E00
 4508              	.LASF197:
 4509 08fd 6D6F6465 		.ascii	"mode\000"
 4509      00
 4510              	.LASF194:
 4511 0902 636F6E66 		.ascii	"config\000"
 4511      696700
 4512              	.LASF138:
 4513 0909 54494D37 		.ascii	"TIM7_IRQn\000"
 4513      5F495251 
 4513      6E00
 4514              	.LASF221:
 4515 0913 2E2E2F43 		.ascii	"../ChibiOS/os/hal/ports/STM32/STM32F3xx/ext_lld_isr"
 4515      68696269 
 4515      4F532F6F 
 4515      732F6861 
 4515      6C2F706F 
 4516 0946 2E6300   		.ascii	".c\000"
 4517              	.LASF26:
 4518 0949 74687265 		.ascii	"thread_t\000"
 4518      61645F74 
 4518      00
 4519              	.LASF184:
 4520 0952 6D5F6E65 		.ascii	"m_next\000"
 4520      787400
 4521              	.LASF25:
 4522 0959 73797374 		.ascii	"systime_t\000"
 4522      696D655F 
 4522      7400
 4523              	.LASF78:
 4524 0963 4E6F6E4D 		.ascii	"NonMaskableInt_IRQn\000"
 4524      61736B61 
 4524      626C6549 
 4524      6E745F49 
 4524      52516E00 
ARM GAS  /tmp/ccDPDrPi.s 			page 142


 4525              	.LASF58:
 4526 0977 76746675 		.ascii	"vtfunc_t\000"
 4526      6E635F74 
 4526      00
 4527              	.LASF8:
 4528 0980 5F5F7569 		.ascii	"__uint32_t\000"
 4528      6E743332 
 4528      5F7400
 4529              	.LASF71:
 4530 098b 70616E69 		.ascii	"panic_msg\000"
 4530      635F6D73 
 4530      6700
 4531              	.LASF86:
 4532 0995 57574447 		.ascii	"WWDG_IRQn\000"
 4532      5F495251 
 4532      6E00
 4533              	.LASF102:
 4534 099f 444D4131 		.ascii	"DMA1_Channel6_IRQn\000"
 4534      5F436861 
 4534      6E6E656C 
 4534      365F4952 
 4534      516E00
 4535              	.LASF168:
 4536 09b2 6F666673 		.ascii	"offset\000"
 4536      657400
 4537              	.LASF98:
 4538 09b9 444D4131 		.ascii	"DMA1_Channel2_IRQn\000"
 4538      5F436861 
 4538      6E6E656C 
 4538      325F4952 
 4538      516E00
 4539              	.LASF181:
 4540 09cc 63685F6D 		.ascii	"ch_mutex\000"
 4540      75746578 
 4540      00
 4541              	.LASF149:
 4542 09d5 5553425F 		.ascii	"USB_LP_IRQn\000"
 4542      4C505F49 
 4542      52516E00 
 4543              	.LASF118:
 4544 09e1 49324331 		.ascii	"I2C1_ER_IRQn\000"
 4544      5F45525F 
 4544      4952516E 
 4544      00
 4545              	.LASF72:
 4546 09ee 63685F73 		.ascii	"ch_system_t\000"
 4546      79737465 
 4546      6D5F7400 
 4547              	.LASF128:
 4548 09fa 55534257 		.ascii	"USBWakeUp_IRQn\000"
 4548      616B6555 
 4548      705F4952 
 4548      516E00
 4549              	.LASF17:
 4550 0a09 7274636E 		.ascii	"rtcnt_t\000"
 4550      745F7400 
 4551              	.LASF159:
ARM GAS  /tmp/ccDPDrPi.s 			page 143


 4552 0a11 454D5232 		.ascii	"EMR2\000"
 4552      00
 4553              	.LASF65:
 4554 0a16 76745F70 		.ascii	"vt_par\000"
 4554      617200
 4555              	.LASF125:
 4556 0a1d 55534152 		.ascii	"USART3_IRQn\000"
 4556      54335F49 
 4556      52516E00 
 4557              	.LASF192:
 4558 0a29 45585444 		.ascii	"EXTDriver\000"
 4558      72697665 
 4558      7200
 4559              	.LASF114:
 4560 0a33 54494D32 		.ascii	"TIM2_IRQn\000"
 4560      5F495251 
 4560      6E00
 4561              	.LASF48:
 4562 0a3d 74687265 		.ascii	"threads_queue_t\000"
 4562      6164735F 
 4562      71756575 
 4562      655F7400 
 4563              	.LASF92:
 4564 0a4d 45585449 		.ascii	"EXTI0_IRQn\000"
 4564      305F4952 
 4564      516E00
 4565              	.LASF37:
 4566 0a58 705F7265 		.ascii	"p_refs\000"
 4566      667300
 4567              	.LASF123:
 4568 0a5f 55534152 		.ascii	"USART1_IRQn\000"
 4568      54315F49 
 4568      52516E00 
 4569              	.LASF74:
 4570 0a6b 726C6973 		.ascii	"rlist\000"
 4570      7400
 4571              	.LASF207:
 4572 0a71 56656374 		.ascii	"VectorE0\000"
 4572      6F724530 
 4572      00
 4573              	.LASF13:
 4574 0a7a 75696E74 		.ascii	"uint8_t\000"
 4574      385F7400 
 4575              	.LASF91:
 4576 0a82 5243435F 		.ascii	"RCC_IRQn\000"
 4576      4952516E 
 4576      00
 4577              	.LASF110:
 4578 0a8b 54494D31 		.ascii	"TIM1_BRK_TIM15_IRQn\000"
 4578      5F42524B 
 4578      5F54494D 
 4578      31355F49 
 4578      52516E00 
 4579              	.LASF172:
 4580 0a9f 77746F62 		.ascii	"wtobjp\000"
 4580      6A7000
 4581              	.LASF33:
ARM GAS  /tmp/ccDPDrPi.s 			page 144


 4582 0aa6 705F6E61 		.ascii	"p_name\000"
 4582      6D6500
 4583              	.LASF103:
 4584 0aad 444D4131 		.ascii	"DMA1_Channel7_IRQn\000"
 4584      5F436861 
 4584      6E6E656C 
 4584      375F4952 
 4584      516E00
 4585              	.LASF151:
 4586 0ac0 4650555F 		.ascii	"FPU_IRQn\000"
 4586      4952516E 
 4586      00
 4587              	.LASF83:
 4588 0ac9 44656275 		.ascii	"DebugMonitor_IRQn\000"
 4588      674D6F6E 
 4588      69746F72 
 4588      5F495251 
 4588      6E00
 4589              	.LASF94:
 4590 0adb 45585449 		.ascii	"EXTI2_TSC_IRQn\000"
 4590      325F5453 
 4590      435F4952 
 4590      516E00
 4591              	.LASF163:
 4592 0aea 45585449 		.ascii	"EXTI_TypeDef\000"
 4592      5F547970 
 4592      65446566 
 4592      00
 4593              	.LASF134:
 4594 0af7 53504933 		.ascii	"SPI3_IRQn\000"
 4594      5F495251 
 4594      6E00
 4595              	.LASF115:
 4596 0b01 54494D33 		.ascii	"TIM3_IRQn\000"
 4596      5F495251 
 4596      6E00
 4597              	.LASF174:
 4598 0b0b 73656E74 		.ascii	"sentmsg\000"
 4598      6D736700 
 4599              	.LASF219:
 4600 0b13 45585444 		.ascii	"EXTD1\000"
 4600      3100
 4601              	.LASF183:
 4602 0b19 6D5F6F77 		.ascii	"m_owner\000"
 4602      6E657200 
 4603              	.LASF30:
 4604 0b21 705F6374 		.ascii	"p_ctx\000"
 4604      7800
 4605              	.LASF64:
 4606 0b27 76745F66 		.ascii	"vt_func\000"
 4606      756E6300 
 4607              	.LASF93:
 4608 0b2f 45585449 		.ascii	"EXTI1_IRQn\000"
 4608      315F4952 
 4608      516E00
 4609              	.LASF209:
 4610 0b3a 56656374 		.ascii	"VectorE4\000"
ARM GAS  /tmp/ccDPDrPi.s 			page 145


 4610      6F724534 
 4610      00
 4611              		.comm	__gnu_lto_v1,1,1
 4612              		.ident	"GCC: (GNU Tools for ARM Embedded Processors) 4.8.4 20140526 (release) [ARM/embedded-4_8-br
ARM GAS  /tmp/ccDPDrPi.s 			page 146


DEFINED SYMBOLS
                            *ABS*:00000000 ext_lld_isr.c
     /tmp/ccDPDrPi.s:885    .text.Vector58:00000000 $t
     /tmp/ccDPDrPi.s:891    .text.Vector58:00000000 Vector58
     /tmp/ccDPDrPi.s:937    .text.Vector58:0000003c $d
     /tmp/ccDPDrPi.s:943    .text.Vector5C:00000000 $t
     /tmp/ccDPDrPi.s:949    .text.Vector5C:00000000 Vector5C
     /tmp/ccDPDrPi.s:994    .text.Vector5C:0000003c $d
     /tmp/ccDPDrPi.s:1000   .text.Vector60:00000000 $t
     /tmp/ccDPDrPi.s:1006   .text.Vector60:00000000 Vector60
     /tmp/ccDPDrPi.s:1051   .text.Vector60:0000003c $d
     /tmp/ccDPDrPi.s:1057   .text.Vector64:00000000 $t
     /tmp/ccDPDrPi.s:1063   .text.Vector64:00000000 Vector64
     /tmp/ccDPDrPi.s:1108   .text.Vector64:0000003c $d
     /tmp/ccDPDrPi.s:1114   .text.Vector68:00000000 $t
     /tmp/ccDPDrPi.s:1120   .text.Vector68:00000000 Vector68
     /tmp/ccDPDrPi.s:1165   .text.Vector68:0000003c $d
     /tmp/ccDPDrPi.s:1171   .text.Vector9C:00000000 $t
     /tmp/ccDPDrPi.s:1177   .text.Vector9C:00000000 Vector9C
     /tmp/ccDPDrPi.s:1274   .text.Vector9C:00000094 $d
     /tmp/ccDPDrPi.s:1280   .text.VectorE0:00000000 $t
     /tmp/ccDPDrPi.s:1286   .text.VectorE0:00000000 VectorE0
     /tmp/ccDPDrPi.s:1396   .text.VectorE0:000000a8 $d
     /tmp/ccDPDrPi.s:1402   .text.Vector44:00000000 $t
     /tmp/ccDPDrPi.s:1408   .text.Vector44:00000000 Vector44
     /tmp/ccDPDrPi.s:1453   .text.Vector44:0000003c $d
     /tmp/ccDPDrPi.s:1459   .text.VectorE4:00000000 $t
     /tmp/ccDPDrPi.s:1465   .text.VectorE4:00000000 VectorE4
     /tmp/ccDPDrPi.s:1510   .text.VectorE4:0000003c $d
     /tmp/ccDPDrPi.s:1516   .text.VectorE8:00000000 $t
     /tmp/ccDPDrPi.s:1522   .text.VectorE8:00000000 VectorE8
     /tmp/ccDPDrPi.s:1567   .text.VectorE8:0000003c $d
     /tmp/ccDPDrPi.s:1573   .text.Vector48:00000000 $t
     /tmp/ccDPDrPi.s:1579   .text.Vector48:00000000 Vector48
     /tmp/ccDPDrPi.s:1624   .text.Vector48:0000003c $d
     /tmp/ccDPDrPi.s:1630   .text.Vector4C:00000000 $t
     /tmp/ccDPDrPi.s:1636   .text.Vector4C:00000000 Vector4C
     /tmp/ccDPDrPi.s:1681   .text.Vector4C:0000003c $d
     /tmp/ccDPDrPi.s:1687   .text.Vector140:00000000 $t
     /tmp/ccDPDrPi.s:1693   .text.Vector140:00000000 Vector140
     /tmp/ccDPDrPi.s:1765   .text.Vector140:0000006c $d
     /tmp/ccDPDrPi.s:1772   .text.Vector144:00000000 $t
     /tmp/ccDPDrPi.s:1778   .text.Vector144:00000000 Vector144
     /tmp/ccDPDrPi.s:1860   .text.Vector144:00000080 $d
     /tmp/ccDPDrPi.s:1866   .text.Vector148:00000000 $t
     /tmp/ccDPDrPi.s:1872   .text.Vector148:00000000 Vector148
     /tmp/ccDPDrPi.s:1917   .text.Vector148:0000003c $d
     /tmp/ccDPDrPi.s:1923   .text.ext_lld_exti_irq_enable:00000000 $t
     /tmp/ccDPDrPi.s:1929   .text.ext_lld_exti_irq_enable:00000000 ext_lld_exti_irq_enable
     /tmp/ccDPDrPi.s:2005   .text.ext_lld_exti_irq_disable:00000000 $t
     /tmp/ccDPDrPi.s:2011   .text.ext_lld_exti_irq_disable:00000000 ext_lld_exti_irq_disable
                            *COM*:00000001 __gnu_lto_v1
                     .debug_frame:00000010 $d
     /tmp/ccDPDrPi.s:942    .text.Vector58:00000044 $t
     /tmp/ccDPDrPi.s:999    .text.Vector5C:00000044 $t
     /tmp/ccDPDrPi.s:1056   .text.Vector60:00000044 $t
     /tmp/ccDPDrPi.s:1113   .text.Vector64:00000044 $t
ARM GAS  /tmp/ccDPDrPi.s 			page 147


     /tmp/ccDPDrPi.s:1170   .text.Vector68:00000044 $t
     /tmp/ccDPDrPi.s:1279   .text.Vector9C:0000009c $t
     /tmp/ccDPDrPi.s:1458   .text.Vector44:00000044 $t
     /tmp/ccDPDrPi.s:1515   .text.VectorE4:00000044 $t
     /tmp/ccDPDrPi.s:1572   .text.VectorE8:00000044 $t
     /tmp/ccDPDrPi.s:1629   .text.Vector48:00000044 $t
     /tmp/ccDPDrPi.s:1686   .text.Vector4C:00000044 $t
     /tmp/ccDPDrPi.s:4612   .text.Vector140:00000078 $t
     /tmp/ccDPDrPi.s:1865   .text.Vector144:00000088 $t
     /tmp/ccDPDrPi.s:1922   .text.Vector148:00000044 $t

UNDEFINED SYMBOLS
_port_irq_epilogue
EXTD1
nvicEnableVector
nvicDisableVector
