ARM GAS  /tmp/ccDjVg0g.s 			page 1


   1              		.syntax unified
   2              		.cpu cortex-m4
   3              		.fpu softvfp
   4              		.eabi_attribute 20, 1
   5              		.eabi_attribute 21, 1
   6              		.eabi_attribute 23, 3
   7              		.eabi_attribute 24, 1
   8              		.eabi_attribute 25, 1
   9              		.eabi_attribute 26, 1
  10              		.eabi_attribute 30, 2
  11              		.eabi_attribute 34, 1
  12              		.eabi_attribute 18, 4
  13              		.thumb
  14              		.file	"ext_lld.c"
  15              		.text
  16              	.Ltext0:
  17              		.section	.gnu.lto_.jmpfuncs.c86def44b6048daf,"",%progbits
  18 0000 789C6362 		.ascii	"x\234cb`b\300\006L\2414+\003\003#S5\303\257\206\216"
  18      6062C006 
  18      4CA1342B 
  18      03032353 
  18      35C3AF86 
  19 0015 06814C46 		.ascii	"\006\201LF\206\\F\260(\023#\00333\013\023+#\0233\220"
  19      865C46B0 
  19      28132303 
  19      33330B13 
  19      2B231333 
  20 002a 57061682 		.ascii	"W\006\026\202\263\030\030\000\311\011\0052"
  20      B3181800 
  20      C9090532 
  21              		.text
  22              		.section	.gnu.lto_.inline.c86def44b6048daf,"",%progbits
  23 0000 789C7550 		.ascii	"x\234uP;N\0031\024\234\367\354\375\260,\331W\204&\315"
  23      3B4E0331 
  23      149CF7EC 
  23      FDB02CD9 
  23      578426CD 
  24 0014 1A51E416 		.ascii	"\032Q\344\026\221\213\324\241\245\241\003es\2064)S "
  24      918BD4A1 
  24      A5A10365 
  24      73863429 
  24      5320
  25 0026 91035050 		.ascii	"\221\003PP\"\321\300\015\"A\233\216\003\244D\242M\201"
  25      22D1C00D 
  25      22419B8E 
  25      03A444A2 
  25      4D81
  26 0038 A8B0D79B 		.ascii	"\250\260\327\233]\011%\226\245\031\315{c\217\206\301"
  26      5D092596 
  26      A519CD7B 
  26      638F86C1 
  27 0048 38741E28 		.ascii	"8t\036(`\344\356\031\325K\361SY\357\362)\340\225<'\205"
  27      60E4EE19 
  27      D54BF153 
  27      59EFF229 
  27      E0953C27 
  28 005d E935CD88 		.ascii	"\3515\315\210\030\012\250:\352\314\012:[M\202\211\276"
ARM GAS  /tmp/ccDjVg0g.s 			page 2


  28      180AA83A 
  28      EACC0A3A 
  28      5B4D8289 
  28      BE
  29 006e 126144CB 		.ascii	"\022aD\313\241x?e\320~\376\215\013\212\351\326\273\270"
  29      A1783F65 
  29      D07EFE8D 
  29      0B8AE9D6 
  29      BBB8
  30 0080 70F25DCB 		.ascii	"p\362]\313\202V\266\232gu\036\377\256)\366Y\362\355"
  30      8256B69A 
  30      67751EFF 
  30      AE29F659 
  30      F2ED
  31 0092 8D45B61C 		.ascii	"\215E\266\034Z\015\332\251\005in\020\262\036i\364~\215"
  31      5A0DDAA9 
  31      05696E10 
  31      B21E69F4 
  31      7E8D
  32 00a4 35A0375E 		.ascii	"5\2407^\220\341\0061\336V\006\275\037c%(\322L\004\343"
  32      90E10631 
  32      DE5606BD 
  32      1F632528 
  32      D24C04E3 
  33 00b8 CFCAC7B3 		.ascii	"\317\312\307\263.\334e\237\324\321\020\311\376\373t"
  33      2EDC659F 
  33      D4D110C9 
  33      FEFB74
  34 00c7 3D120C76 		.ascii	"=\022\014v\363\024\374q\")\006\217W\032|\037\213\016"
  34      F314FC71 
  34      2229068F 
  34      571A7C1F 
  34      8B0E
  35 00d9 C59DBF46 		.ascii	"\305\235\277FmA\324\025D]A\305\373K\211d\363\314\377"
  35      6D41D415 
  35      445D41C5 
  35      FB4B8964 
  35      F3CCFF
  36 00ec 2B52B92B 		.ascii	"+R\271+x\243W\223\226\204\322\360\007\307\3515{"
  36      78A35793 
  36      9684D2F0 
  36      07C7E935 
  36      7B
  37              		.text
  38              		.section	.gnu.lto_.pureconst.c86def44b6048daf,"",%progbits
  39 0000 789C6362 		.ascii	"x\234cb`b\340f\200\000V\006\011&)f)\026)VI\000\004*"
  39      6062E066 
  39      80005606 
  39      09262966 
  39      29162956 
  40 0018 00A2     		.ascii	"\000\242"
  41              		.text
  42              		.section	.gnu.lto_ext_lld_init.c86def44b6048daf,"",%progbits
  43 0000 789C6362 		.ascii	"x\234cb`b@\007\222@\334\007\304\246@\314\310\314\300"
  43      60624007 
  43      9240DC07 
  43      C4A640CC 
ARM GAS  /tmp/ccDjVg0g.s 			page 3


  43      C8CCC0
  44 0013 C834E11C 		.ascii	"\3104\341\034\003C#\007\023##\210\301\300\310P\317\304"
  44      03432307 
  44      13232388 
  44      C1C0C850 
  44      CFC4
  45 0025 581FC908 		.ascii	"X\037\311\010V\273\236\351\300\203\377\377\327m86\347"
  45      56BB9EE9 
  45      C083FFFF 
  45      D76D3836 
  45      E7
  46 0036 0CE34C26 		.ascii	"\014\343L&f\240\010+CKC\303\004\005\006\206d\260\212"
  46      66A0082B 
  46      434B43C3 
  46      04050686 
  46      64B08A
  47 0049 102009D2 		.ascii	"\020 \011\322\026\312\310\004\242\231\3173\264<\230"
  47      16CAC804 
  47      A299CF33 
  47      B43C98
  48 0058 DDCC95C8 		.ascii	"\335\314\225\310\270\220\221\025(]\315\360\253\241\243"
  48      B8909115 
  48      285DCDF0 
  48      ABA1A3
  49 0067 41209311 		.ascii	"A \223\021\250\034b\"H\204#\223\2211\227\221\001\252"
  49      A81C6222 
  49      48842393 
  49      91319791 
  49      01AA
  50 0079 2813A895 		.ascii	"(\023\250\225\341\"C\343\2039\3120m\020\020\002\324"
  50      E12243E3 
  50      8339CA30 
  50      6D101002 
  50      D4
  51 008a 023413E4 		.ascii	"\0024\023\344\003c==}\347\214\314\244L\377`\375\374"
  51      03633D3D 
  51      7DE78CCC 
  51      A44CFF60 
  51      FDFC
  52 009c 62FD8CC4 		.ascii	"b\375\214\304\034\375\202\374\242\222b\375\340\020_"
  52      1CFD82FC 
  52      A29262FD 
  52      E0105F
  53 00ab 63237D1F 		.ascii	"c#}\037\037\027}\327\210\020\3172C\375\324\212\222\370"
  53      1F177DD7 
  53      8810CF32 
  53      43FDD48A 
  53      92F8
  54 00bd 9C9C14BD 		.ascii	"\234\234\024\275d\006\000ZV6\265"
  54      6406005A 
  54      5636B5
  55              		.text
  56              		.section	.gnu.lto_ext_lld_stop.c86def44b6048daf,"",%progbits
  57 0000 789C9591 		.ascii	"x\234\225\221\277K\0031\024\307\337KR-\376:\377\004"
  57      BF4B0331 
  57      14C7DF4B 
  57      522DFE3A 
ARM GAS  /tmp/ccDjVg0g.s 			page 4


  57      FF04
  58 0012 C1CD420F 		.ascii	"\301\315B\017[\\]\324A\2508\364\012u\222\266J\033\250"
  58      5B5C5DD4 
  58      41A838F4 
  58      0A7592B6 
  58      4A1BA8
  59 0025 546C11C1 		.ascii	"Tl\021\301\241\251-\330\261cQ\020Dpp\320\305\241\243"
  59      A1A92DD8 
  59      B1635110 
  59      447070D0 
  59      C5A1A3
  60 0038 88141154 		.ascii	"\210\024\021T\334D\020\272\351 \342\326R\013grw\365"
  60      DC4410BA 
  60      E920E2D6 
  60      520B6772 
  60      77F5
  61 004a C4ED02C9 		.ascii	"\304\355\002\311{y\311\373\274o\362\010\020\370?Br\306"
  61      7B79C9FB 
  61      BC6FF208 
  61      10F83F42 
  61      72C6
  62 005c 6578465A 		.ascii	"exFZ\364\001\222\332\003@\311O\010mj \206\330\335,\210"
  62      F40192DA 
  62      0340C94F 
  62      086D6A20 
  62      86D8DD2C 
  63 0071 118ACC0E 		.ascii	"\021\212\314\0163D\345\000B\221P\206\305\025\264 \027"
  63      3344E500 
  63      42915086 
  63      C515B420 
  63      17
  64 0082 E4AA659A 		.ascii	"\344\252e\232\347\227\373\247\037xD\206)n 0\340\326"
  64      E797FBA7 
  64      1F784486 
  64      296E2030 
  64      E0D6
  65 0094 A10F2A42 		.ascii	"\241\017*B\324&\000R\326\326\220\253B\304\220(K\357"
  65      D4260052 
  65      D6D690AB 
  65      42C49028 
  65      4BEF
  66 00a6 61EFA5DE 		.ascii	"a\357\245\336~\306\004\036\313\362id\001\230\342\210"
  66      7EC6041E 
  66      CBF26964 
  66      0198E288 
  67 00b6 8770801C 		.ascii	"\207p\200\034I\032i\\ZjUIb_\364-\334\274\225F\177S\324"
  67      491A695C 
  67      5A6A5549 
  67      625FF42D 
  67      DCBC9546 
  68 00cd 15FCFBB4 		.ascii	"\025\374\373\264\230\314hj\364\021\312\255\327\023\315"
  68      98CC686A 
  68      F411CAAD 
  68      D713CD
  69 00dc BE07B00B 		.ascii	"\276\007\260\013]Q\025\343\034Y\012m\024\267\342V\002"
  69      5D5115E3 
  69      1C590A6D 
ARM GAS  /tmp/ccDjVg0g.s 			page 5


  69      14B7E256 
  69      02
  70 00ed 73D45C37 		.ascii	"s\324\\7:\355wGM\000\316D\245$4\216\003\266\236AU\311"
  70      3AED7747 
  70      4D00CE44 
  70      A524348E 
  70      03B69E41 
  71 0103 2FAA15C1 		.ascii	"/\252\025\301\300r\035]6ME\006\224\243(\365\256g\012"
  71      C0721D5D 
  71      364D4506 
  71      94A328F5 
  71      AE670A
  72 0116 71294288 		.ascii	"q)B\210\036:\244\206w\022uI\246i\226\307\034R\247\373"
  72      1E3AA486 
  72      77127549 
  72      A66996C7 
  72      1C52A7FB 
  73 012a E595C45C 		.ascii	"\345\225\304\\RO\242\264\376\353\276=\223|.I\311{\202"
  73      524FA2B4 
  73      FEEBBE3D 
  73      937C2E49 
  73      C97B82
  74 013d 52EB73B2 		.ascii	"R\353s\262\337\032{\030\362#e\027\324?\204\203A}.\303"
  74      DF1A7B18 
  74      F2236517 
  74      D43F8483 
  74      417D2EC3 
  75 0151 937C39AA 		.ascii	"\223|9\252\347\362z&\221\3257s[\205\274\0365\226\302"
  75      E7F27A26 
  75      91D53773 
  75      5B85BC1E 
  75      3596C2
  76 0164 213D1299 		.ascii	"!=\022\231\327\027\342\306\342\366\264\276\276SX\315"
  76      D717E2C6 
  76      E2F6B4BE 
  76      BE5358CD 
  77 0174 66D78229 		.ascii	"f\327\202)\370\001#&\244\226"
  77      F8012326 
  77      A496
  78              		.text
  79              		.section	.gnu.lto_ext_lld_channel_enable.c86def44b6048daf,"",%progbits
  80 0000 789CA558 		.ascii	"x\234\245XkLTG\024\236\271\273\313\276\337/V\015 F\251"
  80      6B4C5447 
  80      149EB9BB 
  80      CBBEDF2F 
  80      560D2046 
  81 0015 12D90251 		.ascii	"\022\331\002Q\242Q\213\"U\"D\011\020!\030\025\321 )"
  81      A2518B22 
  81      55224409 
  81      10211815 
  81      D12029
  82 0028 6AA3A669 		.ascii	"j\243\246i\372\207\213\313\017bLJ\033\214Z\333\006k"
  82      FA878BCB 
  82      0F624C4A 
  82      1B8C5ADB 
  82      066B
  83 003a 2CD55A6C 		.ascii	",\325Zl\264i\245\030E\377\024\232\330\324\244i\325\370"
ARM GAS  /tmp/ccDjVg0g.s 			page 6


  83      B469A518 
  83      45FF149A 
  83      D8D4A469 
  83      D5F8
  84 004c C368D2F4 		.ascii	"\303h\322\364\025c\332\264\261\215\351\366\234\231;"
  84      1563DAB4 
  84      B18DE9F6 
  84      9C993B
  85 005b 7359B98D 		.ascii	"sY\271\215\373\340\307\267\263\347\314|\363\315\371"
  85      FBE0C7B7 
  85      B3E7CC7C 
  85      F3CDF9
  86 006a CEBD0328 		.ascii	"\316\275\003(D!\317\376TPB\276\012\021\322\010c:\213"
  86      4421CFFE 
  86      545042BE 
  86      0A11D208 
  86      633A8B
  87 007d 5065F01B 		.ascii	"Pe\360\033B\372l\212b\032(!\252\303\214\3502Q3\017\233"
  87      42FA6C8A 
  87      621A2821 
  87      AAC38CE8 
  87      3251330F 
  88 0092 150B0B7B 		.ascii	"\025\013\013{Y\330\242\304\256\024\300\267\274\357\342"
  88      59D8A2C4 
  88      AE14C0B7 
  88      BCEFE2
  89 00a1 F02D4FB1 		.ascii	"\360-O\261\262\234\215\345\254\324\316\227\330\304\300"
  89      B29C8DE5 
  89      ACD4CE97 
  89      D8C4C0
  90 00b0 AE3858DE 		.ascii	"\2568X\336\311\362\016\352\342a\247\030\270\024\367"
  90      C9F20EEA 
  90      E261A718 
  90      B814F7
  91 00bf 6737084C 		.ascii	"g7\010L\360\334s\302\0047\215\361\270G\014\274\332v"
  91      F0DC73C2 
  91      04378DF1 
  91      B8470CBC 
  91      DA76
  92 00d1 3EB69D4F 		.ascii	">\266\235O\3613\272\000\243\363\323 \237\024\020\203"
  92      F133BA00 
  92      A3F3D320 
  92      9F141083 
  93 00e1 A01262F9 		.ascii	"\240\022b\3710\313\207h\204\207\303b\020Q\242\357\255"
  93      30CB8768 
  93      8487C362 
  93      1051A2EF 
  93      AD
  94 00f2 847CFE1F 		.ascii	"\204|\376\037>\310G\305&\371b\020\243\024\007\204\222"
  94      3EC847C5 
  94      26F96210 
  94      A3140784 
  94      92
  95 0103 5EC564B6 		.ascii	"^\305d\266\344Ymv\207\323\345\366x}\376@0\024\216D\363"
  95      E4596D76 
  95      87D3E5F6 
  95      787DFE40 
ARM GAS  /tmp/ccDjVg0g.s 			page 7


  95      30148E44 
  96 0118 63B4B78D 		.ascii	"c\264\267\215b\015-\305\344\224\252\016\336?\363\301"
  96      620D2DC5 
  96      E494AA0E 
  96      DE3FF3C1 
  97 0128 DFCA89A1 		.ascii	"\337\312\211\241\211\376a\365i2Ii7\205z/\245\244\223"
  97      89FE61F5 
  97      69324969 
  97      37857A2F 
  97      A5A493
  98 013b 9256F842 		.ascii	"\222V\370B\213\330\207bN5\200\255}[\035\3339\251\366"
  98      8BD88762 
  98      4E3580AD 
  98      7D5B1DDB 
  98      39A9F6
  99 014e 4F24932F 		.ascii	"O$\223/uS\223B\252\323[5q\362\360\2331u\370\320\240"
  99      75539342 
  99      AAD35B35 
  99      71F2F09B 
  99      3175F8D0 
 100 0163 FA2F6CC8 		.ascii	"\372/l\310V\276\234\346\312w\277v\015\366\015\250\311"
 100      56BE9CE6 
 100      CA77BF76 
 100      0DF60DA8 
 100      C9
 101 0174 642F5BB6 		.ascii	"d/[\266>\315e\357\247.kx\336\262\013\312\304\375d\362"
 101      3ECD65EF 
 101      A72E6B78 
 101      DEB20BCA 
 101      C4FD64F2 
 102 0188 C8AD4F8F 		.ascii	"\310\255O\217\234\247c\312\016+\335C\211\215t\320S\264"
 102      9CA763CA 
 102      0E2BDD43 
 102      898D74D0 
 102      53B4
 103 019a 98D80954 		.ascii	"\230\330\011T\310\201\340\204\310i\210\270\341\363\014"
 103      C881E084 
 103      C86988B8 
 103      E1F30C
 104 01a9 7C7A2068 		.ascii	"|z h\366\"\3700\355G\010 \004a\302\010L\010\001\017"
 104      F622F830 
 104      ED470820 
 104      0461C208 
 104      4C08010F 
 105 01bd 0D43C412 		.ascii	"\015C\304\022\301YQ\204|\204\030L8\013\023f\341\227"
 105      C1595184 
 105      7C84184C 
 105      380B1366 
 105      E197
 106 01cf D9087310 		.ascii	"\331\010s\020\012\020\012q~\021\216\346\"\024#\314C"
 106      0A100A71 
 106      7E118EE6 
 106      221423CC 
 106      43
 107 01e0 988FB000 		.ascii	"\230\217\260\000\241\004a!\302\"\204R\204\305\010e\010"
 107      A1046121 
 107      C2228452 
ARM GAS  /tmp/ccDjVg0g.s 			page 8


 107      84C50865 
 107      08
 108 01f1 71847280 		.ascii	"q\204r\200\274\012\034U\",AX\212P\205\260\014a9\302"
 108      BC0A1C55 
 108      222C4158 
 108      8A5085B0 
 108      0C6139C2 
 109 0205 0A849508 		.ascii	"\012\204\225\010\253\020\252\021V\243\20258\252AX\213"
 109      AB10AA11 
 109      56A38235 
 109      38AA4158 
 109      8B
 110 0216 508BB00E 		.ascii	"P\213\260\016a=B\035\302\006\204z\204\006\204\215\010"
 110      613D421D 
 110      C206847A 
 110      8406848D 
 110      08
 111 0227 9B101A11 		.ascii	"\233\020\032\021\232PA3\216Z\0206#\264\"\264!\264#l"
 111      9A504133 
 111      8E5A1036 
 111      23B422B4 
 111      21B4236C 
 112 023b 41D88AB0 		.ascii	"A\330\212\260\015a;\0026*\351\207>-\342\305&h\035\374"
 112      0D613B02 
 112      362AE987 
 112      3E2DE2C5 
 112      26681DFC 
 113 024f 340362A7 		.ascii	"4\003b\247\267P\005?M7\311\241G\211\221\241x\007\375"
 113      B750053F 
 113      4D37C9A1 
 113      478991A1 
 113      7807FD
 114 0262 985A4817 		.ascii	"\230ZH\027\265uQ+!7Ib\334$Bv\210\242\333\244\220\260"
 114      B575512B 
 114      21374962 
 114      DC244276 
 114      88A2DBA4 
 115 0278 CC2732E3 		.ascii	"\314'2\343`a\212s0\003L\373E\312\011YB\246\210\302\003"
 115      60618A73 
 115      30034CFB 
 115      45CA0959 
 115      42A688C2 
 116 028d 5C048409 		.ascii	"\\\004\204\011\231$\375?^?qX\222X\221\304\352\235\326"
 116      9924FD3F 
 116      5E3F7158 
 116      925891C4 
 116      EA9DD6
 117 02a0 462DD444 		.ascii	"F-\324D\006J@Zb4\361\305P\201<\0076\013\357\010n;!\234"
 117      064A405A 
 117      6234F1C5 
 117      50813C07 
 117      360BEF08 
 118 02b8 037EBAA8 		.ascii	"\003~\272\250[cbo=\266\357y\266\357\031\266\257\233"
 118      5B63626F 
 118      3DB6EF79 
 118      B6EF19B6 
 118      AF9B
ARM GAS  /tmp/ccDjVg0g.s 			page 9


 119 02ca 9F29313E 		.ascii	"\237)1>\324\312\023]\324\243-0\233\370\261\016'\376"
 119      D4CA135D 
 119      D4A32D30 
 119      9BF8B10E 
 119      27FE
 120 02dc 5244CE0B 		.ascii	"RD\316\013i\2263\023\355`\217\250\310\371 -\353\300"
 120      69963313 
 120      ED608FA8 
 120      C8F9202D 
 120      EBC0
 121 02ee 437EB6B1 		.ascii	"C~\266\261\027\223l\372\225\304\347rz\000\322\032\307"
 121      17936CFA 
 121      95C4E772 
 121      7A00D21A 
 121      C7
 122 02ff 1B221684 		.ascii	"\033\"\026\204p\212\310\021&2\310\346\335}r\372\216"
 122      708AC811 
 122      2632C8E6 
 122      DD7D72FA 
 122      8E
 123 0310 640E9792 		.ascii	"d\016\227\222E\320E'\311;\260\003x\023\302\235\354\254"
 123      45D04527 
 123      C93BB003 
 123      7813C29D 
 123      ECAC
 124 0322 4A3BA8A8 		.ascii	"J;\250\250\027.\372v\266X\022)%\347T_7u,&\347\325AU"
 124      172EFA76 
 124      B6581229 
 124      25E7545F 
 124      37752C26 
 125 033a 1D87154E 		.ascii	"\035\207\025N\214\301\370\030\214]\234\014\352\025F"
 125      8CC1F818 
 125      8C5D9C0C 
 125      EA1546
 126 0349 328B46C6 		.ascii	"2\213F\306\331\230\373ZD\221\364P\270\337\245\244(l"
 126      D998FB5A 
 126      4491F450 
 126      B8DFA5A4 
 126      286C
 127 035b C16AF398 		.ascii	"\301j\363\230\362\344h\342\341P\273\310\346\303\004"
 127      F2E468E2 
 127      E150BBC8 
 127      E6C304
 128 036a 560DB3D6 		.ascii	"V\015\263\326,\211kC\005\"\031cy_\312\321\317\262\243"
 128      2C896B43 
 128      05221963 
 128      795FCAD1 
 128      CFB2A3
 129 037d C770F28D 		.ascii	"\307p\362\215{\267G\256[\304\344Y\250\277\037\250<("
 129      7BB747AE 
 129      5BC4E459 
 129      A8BF1FA8 
 129      3C28
 130 038f BEBF4F7D 		.ascii	"\276\277O}\013\306^.\336\207[\370U\265_5\263\027\221"
 130      0BC65E2E 
 130      DE875BF8 
 130      55B55F35 
ARM GAS  /tmp/ccDjVg0g.s 			page 10


 130      B31791
 131 03a2 5F936CD2 		.ascii	"_\223l\322\016\341&$E\2744v6\360j\205N\214%.\312C\315"
 131      0EE12624 
 131      45BC3476 
 131      36F06A85 
 131      4E8C252E 
 132 03b9 6129AE62 		.ascii	"a)\256b\352\261\223\207\231\200>u\263.\241*c\005@-\232"
 132      EAB19387 
 132      99803E75 
 132      B32EA12A 
 132      6305402D 
 133 03ce DACC1E38 		.ascii	"\332\314\0368\326\376?<\333\376\205)\355o\321\332\037"
 133      D6FE3F3C 
 133      DBFE8529 
 133      ED6FD1DA 
 133      1F
 134 03df FAF5E80B 		.ascii	"\372\365\350\013bb\001<=\254\356\252\252>\305\322\003"
 134      6262013C 
 134      3DACEEAA 
 134      AA3EC5D2 
 134      03
 135 03f0 D36F7DE5 		.ascii	"\323o}\3452\315r$\205'\217\374\0225\261\226\032\375"
 135      32CD7224 
 135      85278FFC 
 135      1235B196 
 135      1AFD
 136 0402 998A8985 		.ascii	"\231\212\211\205\351\266\324`D,)z\246\245z\365\216j"
 136      E9B6D460 
 136      442C297A 
 136      A6A57AF5 
 136      8E6A
 137 0414 9FDE5085 		.ascii	"\237\336P\205\0314\324?\212`\237\013\0330\3613\0175"
 137      1934D43F 
 137      8A609F0B 
 137      1B30F133 
 137      0F35
 138 0426 D7E05056 		.ascii	"\327\340PV\362\247\023\016u\343\356\361\013\267$G17"
 138      F2A7130E 
 138      75E3EEF1 
 138      0BB72447 
 138      3137
 139 0438 08347AB8 		.ascii	"\0104z\270\232\000\256\014\252\003\302\237\240\246\301"
 139      9A00AE0C 
 139      AA03C29F 
 139      A0A6C1
 140 0447 AC6B1893 		.ascii	"\254k\030\223\036\314\003\002\366n\002\332:\036\314"
 140      1ECC0302 
 140      F66E02DA 
 140      3A1ECC
 141 0456 8C0F2884 		.ascii	"\214\017(\204<\233\2207yA\226|~\346\352\264w\010_\277"
 141      3C9B9037 
 141      7941967C 
 141      7EE6EAB4 
 141      77085FBF 
 142 046a 40130765 		.ascii	"@\023\007e;'\203%\300\013\251\\D\227\010\321v\336(\300"
 142      3B278325 
 142      C00BA95C 
ARM GAS  /tmp/ccDjVg0g.s 			page 11


 142      449708D1 
 142      76DE28C0 
 143 047e 9F3CBA55 		.ascii	"\237<\272Ul\260P\370\242\314\360e\241\201/\016\351\313"
 143      6CB050F8 
 143      A2CCF065 
 143      A1812F0E 
 143      E9CB
 144 0490 45DD9745 		.ascii	"E\335\227E\351J\262\030\371R\012\004Y\372b\321\216X"
 144      E94AB218 
 144      F9520A04 
 144      59FA62D1 
 144      8E58
 145 04a2 2AE439A5 		.ascii	"*\3449\245/\027e\011\027g\256.\305\2272#_\342\300\013"
 145      2F176509 
 145      1767AE2E 
 145      C5973223 
 145      5FE2C00B 
 146 04b6 A95C44C7 		.ascii	"\251\\D\307\205h\227x\200/_\302\027#\337\240\\{\032"
 146      85689778 
 146      802F5FC2 
 146      1723DFA0 
 146      5C7B1A
 147 04c9 43B93D8D 		.ascii	"C\271=\215y\332(\325\331r\\\024Nu\326M\206C\254t\267"
 147      79DA28D5 
 147      D9725C14 
 147      4E75D64D 
 147      8643AC74 
 148 04de 2F4D4967 		.ascii	"/MIg+\322=\224\3301\305\331J \310\322Y\253v\222J\266"
 148      2BD23D94 
 148      D831C5D9 
 148      4A20C8D2 
 148      59AB7692 
 149 04f4 F8EE4F97 		.ascii	"\370\356O\227d\345\227\244Ka\233n\247\336\016Ku;?\224"
 149      64E597A4 
 149      4B619B6E 
 149      A7DE0E4B 
 149      753B3F94 
 150 0508 C12AE085 		.ascii	"\301*\340\205T6Jm\232\322*QH\017\2312\361\036\324{h"
 150      54364A6D 
 150      9AD22A51 
 150      480F9932 
 150      F11ED47B 
 151 051d 59E6A2A7 		.ascii	"Y\346\242\247\325q9\020dYG\241n\271VG]\322\212\314\255"
 151      D5713910 
 151      645947A1 
 151      6EB95647 
 151      5DD28ACC 
 152 0532 4DA9E34A 		.ascii	"M\251\343J\243:\256\002^H\345\342\370*QG\257\274\037"
 152      A33AAE02 
 152      5E48E5E2 
 152      F82A5147 
 152      AFBC1F
 153 0545 478EC9FB 		.ascii	"G\216\311\373\261Z\334\217\360\347X\322;\243\261\253"
 153      B15ADC8F 
 153      F0E758D2 
 153      3BA3B1AB 
 154 0555 0D5E593E 		.ascii	"\015^Y>\361x\335\036\327\357\307\325\231\337\217k\322"
ARM GAS  /tmp/ccDjVg0g.s 			page 12


 154      F178DD1E 
 154      D7EFC7D5 
 154      99DF8F6B 
 154      D2
 155 0566 BC1F5767 		.ascii	"\274\037Wgu?\326\300\006\377s?\326\030\034\312/^tO\306"
 155      753FD6C0 
 155      06FF733F 
 155      D6181CCA 
 155      2F5E744F 
 156 057b EF488EB5 		.ascii	"\357H\216\265\351\326\332n\324e\265@\220e\227\331\265"
 156      E9D6DA6E 
 156      D465B540 
 156      906597D9 
 156      B5
 157 058c 53D60A79 		.ascii	"S\326\012y\001!\357\243\253\262\344\3532W\007\015\367"
 157      0121EFA3 
 157      ABB2E4EB 
 157      3257070D 
 157      F7
 158 059d A55CBF5E 		.ascii	"\245\\\277^o\270Q\031\254\003^H\345\"\272N\210\016\312"
 158      6FB85119 
 158      AC035E48 
 158      E522BA4E 
 158      880ECA
 159 05b0 FBF1D763 		.ascii	"\373\361\327c\362~\334 |\231y?n0\360%$}\271\252\373"
 159      F27EDC20 
 159      7C99793F 
 159      6E30F025 
 159      247DB9AA 
 160 05c5 529FAE24 		.ascii	"R\237\256$\207\221/\015@\220\245/\016\355\210\015B^"
 160      87912F0D 
 160      4090A52F 
 160      0EED880D 
 160      425E
 161 05d7 58FA724D 		.ascii	"X\372rM\226pc\346\352R|\331d\344K#\360B*\027\321\215"
 161      967063E6 
 161      EA527CD9 
 161      64E44B23 
 161      F0422A17 
 162 05ed 4274443C 		.ascii	"BtD<\300\307\037\350\367cS\232\367\343s\236F\343\373"
 162      C0C71FE8 
 162      F763539A 
 162      F7E3739E 
 162      46E3FB
 163 0600 B1C9E07E 		.ascii	"\261\311\340~\214\222\357\003\254t\227\037\350\277\371"
 163      8C92EF03 
 163      AC74971F 
 163      E8BFF9
 164 060f 34A77B28 		.ascii	"4\247{(\247\221\263-@\220\245\263N\355$-\374\275>\371"
 164      A791B32D 
 164      4090A5B3 
 164      4EED242D 
 164      FCBD3EF9 
 165 0623 40567E73 		.ascii	"@V~s\272\024\256\351v\352\367B\253\321\257;m\300\013"
 165      BA14AEE9 
 165      76EAF742 
 165      ABD1AF3B 
ARM GAS  /tmp/ccDjVg0g.s 			page 13


 165      6DC00B
 166 0636 A96C94BA 		.ascii	"\251l\224\2724\245m\242\220\371d\310\302{\360\241\344"
 166      34A56DA2 
 166      90F964C8 
 166      C27BF0A1 
 166      E4
 167 0647 6FCF5CF4 		.ascii	"o\317\\\364\264:n\001\202,\353(\324m\321\352\250K\332"
 167      B43A6E01 
 167      822CEB28 
 167      D46DD1EA 
 167      A84BDA
 168 065a 9AB9B529 		.ascii	"\232\271\265)u\334fT\307\355\300\013\251\\\034\337."
 168      75DC6654 
 168      C7EDC00B 
 168      A95C1CDF 
 168      2E
 169 066b EA18637F 		.ascii	"\352\030c\177i\336\"}\342w\006\202\377\370\241\030\305"
 169      69DE227D 
 169      E2770682 
 169      FFF8A118 
 169      C5
 170 067c 77556559 		.ascii	"wUeYY\274fw\367\216\356\215M\361}\007\342\273;z\342"
 170      59BC6677 
 170      F78EEE8D 
 170      4DF17D07 
 170      E2BB3B7A 
 171 0691 AFEEDB7F 		.ascii	"\257\356\333\177\360@\274\251\271\241\262\"^_\2776^"
 171      F040BCA9 
 171      B9A1B222 
 171      5E5FBF36 
 171      5E
 172 06a2 DBDA5CF7 		.ascii	"\333\332\\\367Zy|\327\353\007\267\365\364\354,\353$"
 172      5A797CD7 
 172      EB07B7F5 
 172      F4EC2CEB 
 172      24
 173 06b3 F6CEDD1D 		.ascii	"\366\316\335\035{\367\356\352){\321\322\271\247\343"
 173      7BF7EEEA 
 173      297BD1D2 
 173      B9A7E3
 174 06c2 C02B74AF 		.ascii	"\300+t\257\031?\314\270\360?t\347\256\376"
 174      193FCCB8 
 174      F03F74E7 
 174      AEFE
 175              		.text
 176              		.section	.gnu.lto_ext_lld_channel_disable.c86def44b6048daf,"",%progbits
 177 0000 789C9D94 		.ascii	"x\234\235\224OH\024q\024\307\337\373\315\237\235]V\\"
 177      4F481471 
 177      14C7DFFB 
 177      CD9F9D5D 
 177      565C
 178 0012 14545C5C 		.ascii	"\024T\\\\W\011:\004;\230\320)((\017\202\321\301\025"
 178      57093A04 
 178      3B98D029 
 178      28280F82 
 178      D1C115
 179 0025 EC14EB2A 		.ascii	"\354\024\353*\272\264j\250D7\307v\017\035\"$:X\021d"
ARM GAS  /tmp/ccDjVg0g.s 			page 14


 179      BAB46AA8 
 179      4437C776 
 179      0F1D2224 
 179      3A581164 
 180 0039 61445041 		.ascii	"aDPA\004\021m\240\236\\\310@\360d\027O\021\004\011\211"
 180      04116DA0 
 180      9E5CC840 
 180      F064174F 
 180      11040989 
 181 004d 41106CEF 		.ascii	"A\020l\357\375\346\317n\262\3408?\230\357\314\2747\357"
 181      FDE6CF6E 
 181      B2E0383F 
 181      98EFCCBC 
 181      37EF
 182 005f FBFBFC7E 		.ascii	"\373\373\374~\363f\004\0108<\316\322\321\027\242\203"
 182      F3660408 
 182      383CCED2 
 182      D117A283 
 183 006f CEA8038A 		.ascii	"\316\250\003\212\305/\000\013\206\020J)\001VD\3356\301"
 183      C52F000B 
 183      86104A29 
 183      015644DD 
 183      36C1
 184 0081 8A2AA8D9 		.ascii	"\212*\250\331a\325\275\320\020\371\002\020\346\205\242"
 184      61D5BDD0 
 184      10F90210 
 184      E685A2
 185 0090 6A387F05 		.ascii	"j8\177\005\331Mt\303\262e-\356\256\374\370#\036\334"
 185      D94D74C3 
 185      B2652DEE 
 185      AEFCF823 
 185      1EDC
 186 00a2 5F2D3EB1 		.ascii	"_->\261\376V*\2109\244\231\317 d\021\206\351\006\223"
 186      FE562A88 
 186      39A499CF 
 186      20641186 
 186      E90693
 187 00b5 F224D4FF 		.ascii	"\362$\324\377Qd\355=\353\303\350\206U\\\255T\316\345"
 187      5164ED3D 
 187      EBC3E886 
 187      555CAD54 
 187      CEE5
 188 00c7 501170FE 		.ascii	"P\021p\376\250\2527bu\267R\371|\360\356N\011?\211\023"
 188      A8AA3762 
 188      75B752F9 
 188      7CF0EE4E 
 188      093F8913 
 189 00db 02271114 		.ascii	"\002'\021\024\310\3402v\203\0124\263\306\242S\344\031"
 189      C8E03276 
 189      830A34B3 
 189      C6A253E4 
 189      19
 190 00ec 450CBA51 		.ascii	"E\014\272Q\303,\021\226(K\003K#K\214\245\211\245\231"
 190      C32C1196 
 190      284B034B 
 190      234B8CA5 
 190      89A599
ARM GAS  /tmp/ccDjVg0g.s 			page 15


 191 00ff A585A595 		.ascii	"\245\205\245\225\245\215\245\235%\316\322\301\222`I"
 191      A58DA59D 
 191      25CED2C1 
 191      926049
 192 010e B274B110 		.ascii	"\262t\261\020\212\006EZ|\322\236\011\230\233F\232\224"
 192      8A06455A 
 192      7CD29E09 
 192      989B469A 
 192      94
 193 011f B76A0805 		.ascii	"\267j\010\005\237\225M\270\365\263\360\376\261\231\301"
 193      9F954DB8 
 193      F5B3F0FE 
 193      B199C1
 194 012e 15D4601C 		.ascii	"\025\324`\034\225qJ\300&\024>*nH\245(/\025:Af^y\031"
 194      95714AC0 
 194      26143E2A 
 194      6E48A528 
 194      2F153A41 
 195 0146 4D86919F 		.ascii	"M\206\221\237\341\0149\315\270)\235\262\000e\020v\300"
 195      E10C39CD 
 195      B8299DB2 
 195      00651076 
 195      C0
 196 0157 86A030C0 		.ascii	"\206\2400\300\006\024\277\255\035\334\365L\004\233h"
 196      0614BFAD 
 196      1DDCF54C 
 196      049B68
 197 0166 9D357B38 		.ascii	"\2355{8\204\012\224\022\204\266\276\263\264\267&\334"
 197      840A9412 
 197      84B6BEB3 
 197      B4B726DC 
 198 0176 078D53F0 		.ascii	"\007\215S\360\322*.\304r\250?\202\207T\024\342J\303"
 198      D22A2EC4 
 198      72A83F82 
 198      875414E2 
 198      4AC3
 199 0188 BA5DB454 		.ascii	"\272]\264T\371.\014Y=\202\256\017\021\225\012\257\321"
 199      F92E0C59 
 199      3D82AE0F 
 199      11950AAF 
 199      D1
 200 0199 AD0FCBE9 		.ascii	"\255\017\313\351yi\205\247^0B\276\224\342\370z\277\035"
 200      796985A7 
 200      5E3042BE 
 200      94E2F87A 
 200      BF1D
 201 01ab 3CDE3464 		.ascii	"<\3364d!\213w^\354y\246Q\277\026\350\221\326\354w\203"
 201      218B775E 
 201      EC79A651 
 201      BF16E891 
 201      D6EC7783 
 202 01bf 448D0641 		.ascii	"D\215\006AB\007\251\301F\332\250\"5\372\265\020\365"
 202      4207A9C1 
 202      46DAA822 
 202      35FAB510 
 202      F5
 203 01d0 906212A9 		.ascii	"\220b\022\2511\010\222p\220b6\322\367*R\223_\013\245"
ARM GAS  /tmp/ccDjVg0g.s 			page 16


 203      31089270 
 203      906236D2 
 203      F72A5293 
 203      5F0BA5
 204 01e3 1E52B344 		.ascii	"\036R\263Dj\012\202\2448H\315\262\270\274\364\253,j"
 204      6A0A82A4 
 204      3848CDB2 
 204      B8BCF4AB 
 204      2C6A
 205 01f5 0DACDE23 		.ascii	"\015\254\336#\035T\307Aw\033V\205m\323n\330\375\262"
 205      1D54C741 
 205      771B5685 
 205      6DD36ED8 
 205      FDB2
 206 0207 D7B02D7E 		.ascii	"\327\260-~\201\264\332\206}\353mPk\265a\237{\3016\362"
 206      81B4DA86 
 206      7DEB6D50 
 206      6BB5619F 
 206      7BC136F2 
 207 021b A5549075 		.ascii	"\245T\220uk\016u\233\323\260\373\236i\273_\013\275\336"
 207      6B0E759B 
 207      D3B0FB9E 
 207      69BB5F0B 
 207      BDDE
 208 022d AB884BD4 		.ascii	"\253\210K\324\366 H\272\203\024w\032\266\212\324\341"
 208      F62048BA 
 208      8314771A 
 208      B68AD4E1 
 209 023d D722540F 		.ascii	"\327\"T\017)!\221:\202 \205\034\244\204\323\260U\244"
 209      2921913A 
 209      8220851C 
 209      A484D3B0 
 209      55A4
 210 024f A45F0BA3 		.ascii	"\244_\013\243\036R\227DJ\006A2\034\244.\247a\177o\035"
 210      1E529744 
 210      4A064132 
 210      1CA42EA7 
 210      617F6F1D 
 211 0263 B761C387 		.ascii	"\267a\303\207\033V\223\177\377-X\330\375z\322\366rG"
 211      1B56937F 
 211      FF2D58D8 
 211      FD7AD2F6 
 211      7247
 212 0275 9AFE2294 		.ascii	"\232\376\"\224\343\357\2667\2252/L\344Fr\227\007\315"
 212      E3EFB637 
 212      95322F4C 
 212      E4467297 
 212      07CD
 213 0287 E9597322 		.ascii	"\351Ys\"\2237\257O\317\314\315\232\203\351K\275\247"
 213      9337AF4F 
 213      CFCCCD9A 
 213      83E94BBD 
 213      A7
 214 0298 CD81818B 		.ascii	"\315\201\201\213f\337p\272\377F\2179vs\356j>?\232\312"
 214      66DF70BA 
 214      FF468F39 
 214      7673EE6A 
ARM GAS  /tmp/ccDjVg0g.s 			page 17


 214      3E3F9ACA 
 215 02ac 42383B91 		.ascii	"B8;\221\231\232\032\313\247z\264\354df\366\332?W\034"
 215      999A1ACB 
 215      A77AB4EC 
 215      6466F6DA 
 215      3F571C
 216 02bf A54E     		.ascii	"\245N"
 217              		.text
 218              		.section	.gnu.lto_ext_lld_start.c86def44b6048daf,"",%progbits
 219 0000 789C6D52 		.ascii	"x\234mR\315k\023Q\020\237y\373\375Q\023\361\037\250"
 219      CD6B1351 
 219      109F79FB 
 219      FD5113F1 
 219      1FA8
 220 0012 8A142C66 		.ascii	"\212\024,f\251\205\202^\325\203P\361\320\004*\036J\262"
 220      A985825E 
 220      D58350F1 
 220      D0042A1E 
 220      4AB2
 221 0024 96ED4234 		.ascii	"\226\355B4b\203X<\344\245\033!\027!x\362\003\212\245"
 221      6283583C 
 221      E4A51B21 
 221      172178F2 
 221      038AA5
 222 0037 1711410F 		.ascii	"\027\021A\017\026\021A\"Uh\360\013oV=\004\017zPz\320"
 222      16114122 
 222      5568F00B 
 222      6F563D04 
 222      0F7A507A 
 223 004c 8B8A10E7 		.ascii	"\213\212\020\347\355\356\013U\363`g\336\316\374\346"
 223      EDEE0B55 
 223      F36067DE 
 223      CEFCE6
 224 005b F77E33EF 		.ascii	"\367~3\3571`\360\357Z\240\357\200\002p\220<\272\200"
 224      3160F0EF 
 224      5AA0EF80 
 224      0270903C 
 224      BA80
 225 006d ACF50AA0 		.ascii	"\254\365\012\240n2\246\274\267\201\333\326\352\032\000"
 225      6E32A6BC 
 225      B781DBD6 
 225      EA1A00
 226 007c 7715B492 		.ascii	"w\025\264\222\270\205\216\330\240\306\364\346\010\345"
 226      B8858ED8 
 226      A0C6F4E6 
 226      08E5
 227 008a 0D615D1D 		.ascii	"\015a]\035\315$m\310\215\231\340\236\230\016\323\276"
 227      CD246DC8 
 227      8D99E09E 
 227      980ED3BE 
 228 009a 3D270ADB 		.ascii	"='\012\333^b\204\264\021E\034\020jL\2614\3350\035\033"
 228      5E6284B4 
 228      11451C10 
 228      6A4CB134 
 228      DD301D1B 
 229 00ae 6B275048 		.ascii	"k'PH\301]\260\314\371\225\356\263/mv\215\267\0337\371"
 229      C15DB0CC 
ARM GAS  /tmp/ccDjVg0g.s 			page 18


 229      F995EEB3 
 229      2F6D768D 
 229      B71B37F9 
 230 00c2 EF5E0F31 		.ascii	"\357^\0171D\222=\201\340#L\323\017\016\307\216\251\177"
 230      44923D81 
 230      E0234CD3 
 230      0F0EC78E 
 230      A97F
 231 00d4 F77197B5 		.ascii	"\367q\227\265\273\275\336\207\325\373\037;\270=\213"
 231      BBBDDE87 
 231      D5FB1F3B 
 231      B83D8B
 232 00e3 50C465E2 		.ascii	"P\304e\342c\251\327\3614\202\001!*6\031\325!\243\271"
 232      63A9D7F1 
 232      34820121 
 232      2A3619D5 
 232      21A3B9
 233 00f6 C2645200 		.ascii	"\302dR\000-\015\032\234\267\206\345\277\037k\312\223"
 233      2D0D1A9C 
 233      B786E5BF 
 233      1F6BCA93 
 234 0106 25E10564 		.ascii	"%\341\005d\344\224\227\260\370\356\352\346[,\342\012"
 234      E49497B0 
 234      F8EEEAE6 
 234      5B2CE20A 
 235 0116 6A10A031 		.ascii	"j\020\2401\012{C\324o\300uRd\004\250\013ef\254\247\204"
 235      0A7B43D4 
 235      6FC07552 
 235      6404A80B 
 235      6566ACA7 
 236 012b 52D93A3C 		.ascii	"R\331:<\375\\\037\352\227\010\210\216[\224\027P\201"
 236      FD5C1FEA 
 236      9708888E 
 236      5B941750 
 236      81
 237 013c 11E53544 		.ascii	"\021\3455D\335\207Q&\201\001\\\204_\274\311\263!Z>&"
 237      DD875126 
 237      81015C84 
 237      5FBCC9B3 
 237      215A3E26 
 238 0150 E0106D89 		.ascii	"\340\020m\211\267\204\026\200\015`\202\214B\312\213"
 238      B7841680 
 238      0D60828C 
 238      42CA8B
 239 015f 07D574CB 		.ascii	"\007\325t\313b\204\0064\364X\356\255\212<\331\216\305"
 239      62840634 
 239      F458EEAD 
 239      8A3CD98E 
 239      C5
 240 0170 AA83C54A 		.ascii	"\252\203\305JA\242\344\336\016Y\342\214\302m!\302\331"
 240      41A2E4DE 
 240      0E59E28C 
 240      C26D21C2 
 240      D9
 241 0181 0777788B 		.ascii	"\007wx\213\363Z\210\256\010\321\366d\210C\011\3256\242"
 241      F35A88AE 
 241      08D1F664 
ARM GAS  /tmp/ccDjVg0g.s 			page 19


 241      884309D5 
 241      36A2
 242 0193 16546A4A 		.ascii	"\026TjJ\225\274\261\240OY\242\376$y\364(\332d\222\335"
 242      95BCB1A0 
 242      4F59A2FE 
 242      2479F428 
 242      DA6492DD 
 243 01a7 A50344A1 		.ascii	"\245\003D\241\246\306Sj|\255\217\365Sq|\353\375\026"
 243      A6C6536A 
 243      7CAD8FF5 
 243      53717CEB 
 243      FD16
 244 01b9 50879F7B 		.ascii	"P\207\237{hL\227\272\217W\376\037S\306\357\237\253\007"
 244      684C97BA 
 244      8F57FE1F 
 244      53C6EF9F 
 244      AB07
 245 01cb E2CD6465 		.ascii	"\342\315de\231!\313\326\327\006\226)\203\313\314t\202"
 245      9921CBD6 
 245      D7069629 
 245      83CBCC74 
 245      82
 246 01dc 5133FA7E 		.ascii	"Q3\372~yF\352\312\020(\036\264h\256\003i+\311\223\241"
 246      7946EACA 
 246      10281EB4 
 246      68AE0369 
 246      2BC993A1 
 247 01f0 AC2C7680 		.ascii	"\254,v\200\0369v`\221\306+\223\030\367\370\251nH\256"
 247      1E397660 
 247      91C62B93 
 247      18F7F8A9 
 247      6E48AE
 248 0203 846867BF 		.ascii	"\204hg\277\303\015\300\000\231E&c\376p\004\215-\356"
 248      C30DC000 
 248      99452663 
 248      FE70048D 
 248      2DEE
 249 0215 F90DD4BB 		.ascii	"\371\015\324\273\235\335Ry\262\362\304\266\304D\303"
 249      9DDD5279 
 249      B2F2C4B6 
 249      C444C3
 250 0224 E3B99C77 		.ascii	"\343\271\234wh.,\205\307\247\274\312\2747W,{g+\347\252"
 250      682E2C85 
 250      C7A7BCCA 
 250      BC37572C 
 250      7B672BE7 
 251 0239 F3DE54FE 		.ascii	"\363\336T\376\330\370~or\362\260wd:\177\364\374\230"
 251      D8F87E6F 
 251      72F2B077 
 251      643A7FF4 
 251      FC98
 252 024b 377BA13A 		.ascii	"7{\241:S.\237\312\371\240\226\3033\263\177\000\366\370"
 252      532E9FCA 
 252      F9A096C3 
 252      33B37F00 
 252      F6F8
 253 025d CA61     		.ascii	"\312a"
ARM GAS  /tmp/ccDjVg0g.s 			page 20


 254              		.text
 255              		.section	.gnu.lto_.symbol_nodes.c86def44b6048daf,"",%progbits
 256 0000 789C4DC8 		.ascii	"x\234M\310;\016\202`\024D\341\271s\271\240\275\245\033"
 256      3B0E8260 
 256      1444E1B9 
 256      73B9A0BD 
 256      A51B
 257 0012 72554334 		.ascii	"rUC41\226\340\333\306\316E\220\330QKKK\\\210\241\320"
 257      3196E0DB 
 257      C6CE4590 
 257      D8514B4B 
 257      4B5C88A1 
 258 0027 F873BAEF 		.ascii	"\370s\272\357\020\304\003\277XS@\325\001\322}gQ\021"
 258      10C403BF 
 258      585340D5 
 258      01D27D67 
 258      5111
 259 0039 21F04059 		.ascii	"!\360@Y\272<R\234\360D\371\204{*K\2643\025_\226\245"
 259      BA3C529C 
 259      F044F984 
 259      7B2A4BB4 
 259      33155F96 
 260 004e D995CA93 		.ascii	"\331\225\312\223.T\361\227#\307f\370\230\263@\373\\"
 260      2E54F197 
 260      23C766F8 
 260      98B340FB 
 260      5C
 261 005f 7ACCD00E 		.ascii	"z\314\320\016\013\017\307\273y\255<2\254\267\375m\216"
 261      0B0FC7BB 
 261      79AD3C32 
 261      ACB7FD6D 
 261      8E
 262 0070 119CB32F 		.ascii	"\021\234\263/\345"
 262      E5
 263              		.text
 264              		.section	.gnu.lto_.refs.c86def44b6048daf,"",%progbits
 265 0000 789C6362 		.ascii	"x\234cb`b`e\200\000F\006&F\006\000\000\237\000\016"
 265      60626065 
 265      80004606 
 265      26460600 
 265      009F000E 
 266              		.text
 267              		.section	.gnu.lto_.decls.c86def44b6048daf,"",%progbits
 268 0000 789CBD58 		.ascii	"x\234\275Xkl\024\327\025\276wv\375Xb\014D\005;J%/i\250"
 268      6B6C14D7 
 268      15BE7776 
 268      FD58620C 
 268      44053B4A 
 269 0018 A24866F1 		.ascii	"\242Hf\361:I\323?(\325b\202\245\360\320\256I\323?]\215"
 269      3A49D33F 
 269      28D56282 
 269      A5F0D0AE 
 269      49D33F5D 
 270 002d 77C7D96D 		.ascii	"w\307\331m\327kgwI\235?\355\230g[J\331\020hA\011` \004"
 270      D76B6777 
 270      499D3FED 
 270      98675B4A 
ARM GAS  /tmp/ccDjVg0g.s 			page 21


 270      D9106841 
 271 0045 23A095CB 		.ascii	"#\240\225\313\243\011\217vL\000\243B*K\021ux\331#\322"
 271      A3098F76 
 271      4C00A342 
 271      2A4B1175 
 271      78D923D2 
 272 0059 B84D64D4 		.ascii	"\270Md\324@K\010)\260=\367\316\353\316\354\314>h\325"
 272      404B0829 
 272      B03DF7CE 
 272      EBCEECCC 
 272      3E68D5
 273 006c 91CEDD3B 		.ascii	"\221\316\335;w\356\371\316w\316\271\317\345\020\207"
 273      77EEF9CE 
 273      77CEB9CF 
 273      E51087
 274 007b FA398472 		.ascii	"\3729\204r\3604\324#t\302\205P%Bh.\010T\321\016\220"
 274      F034D423 
 274      74C28550 
 274      2542682E 
 274      0854D10E 
 275 0090 BD20C348 		.ascii	"\275 \303Hy\252A.\203\214\201\214\203L\200\334\000\271"
 275      79AA412E 
 275      838C818C 
 275      834C80DC 
 275      00B9
 276 00a2 05721BE4 		.ascii	"\005r\033\344\016\010\006\37172?\227U\274{*\246\254"
 276      0E0806F9 
 276      37323F97 
 276      55BC7B2A 
 276      A6AC
 277 00b4 B673EAB7 		.ascii	"\266s\352\267[\016z\304\216\007d\277\312c\247\252\177"
 277      5B0E7AC4 
 277      8E0764BF 
 277      CA63A7AA 
 277      7F
 278 00c5 1FE40A48 		.ascii	"\037\344\012H\016)\2123\261\302\273\037\244\012\352"
 278      0E298A33 
 278      B1C2BB1F 
 278      A40AEA
 279 00d4 15205340 		.ascii	"\025 S@\246\2034`\305\316\230\312\221\330\371\330b\207"
 279      A6833460 
 279      C5CE98CA 
 279      91D8F9D8 
 279      6287
 280 00e6 F83203C4 		.ascii	"\3702\003\304\015R\013R\003r\212`\201\034\001\271\240"
 280      0D520B52 
 280      03728A60 
 280      811C01B9 
 280      A0
 281 00f7 C640B3FF 		.ascii	"\306@\263\377\030\200|\003\344q\220\337\253<fA\375\011"
 281      18807C03 
 281      E47190DF 
 281      AB3C6641 
 281      FD09
 282 0109 90A7B1C1 		.ascii	"\220\247\261\301\351\031\220o\201L\206\246\303 \307"
 282      E919906F 
 282      814C86A6 
ARM GAS  /tmp/ccDjVg0g.s 			page 22


 282      C320C7
 283 0118 41DE0769 		.ascii	"A\336\007i\2026\017\310C \347\220\302\227\360~\004\344"
 283      82360FC8 
 283      4320E790 
 283      C297F07E 
 283      04E4
 284 012a 5195771D 		.ascii	"Q\225w\035V\270\216\253q\372\024\344\357\026\336\023"
 284      56B88EAB 
 284      71FA14E4 
 284      EF16DE13 
 285 013a 6A7CEC78 		.ascii	"j|\354x\017[\3423\211\261\243\331\236\302\330\322l7"
 285      0F5BE233 
 285      89B1A3D9 
 285      9EC2D8D2 
 285      6C37
 286 014c A87627D4 		.ascii	"\250v'\324X\375\303b\223\344{\232\212\257\331\334\257"
 286      58FDC362 
 286      93E47B9A 
 286      8AAFD9DC 
 286      AF
 287 015d C6A9CA21 		.ascii	"\306\251\312!O\326x\221x~\240\362\356\267\304\306\255"
 287      4FD67891 
 287      787EA0F2 
 287      EEB7C4C6 
 287      AD
 288 016e DAB8838C 		.ascii	"\332\270\203\2141Fx\374\323\302\343!\364sQ\\.\366\255"
 288      314678FC 
 288      D3C2E321 
 288      F473515C 
 288      2EF6AD
 289 0181 16179CAD 		.ascii	"\026\027\234\255}\030\275.\302\343=\013\214^\302<\256"
 289      7D18BD2E 
 289      C2E33D0B 
 289      8C5EC23C 
 289      AE
 290 0192 F5A0E768 		.ascii	"\365\240\347h\245\306C\007\355,\364\266(f\345U\343\303"
 290      A5C64307 
 290      ED2CF4B6 
 290      2866E555 
 290      E3C3
 291 01a4 2E51ACE6 		.ascii	".Q\254\346\361N\3740\004\025(=\211\366\202^V\024w\326"
 291      F14EFC30 
 291      0415283D 
 291      89F6825E 
 291      561477D6 
 292 01b8 A1FC4785 		.ascii	"\241\374G\205\355{\316\011\227\307oc\016\312w\000\217"
 292      ED7BCE09 
 292      97C76F63 
 292      0ECA7700 
 292      8F
 293 01c9 C7BBF193 		.ascii	"\307\273\361\223\212%Q\276x`}=\265D\276 \365\233\315"
 293      8A2551BE 
 293      78607D3D 
 293      B544BE20 
 293      F59BCD
 294 01dc 3313F581 		.ascii	"3\023\365\201\027\322\330\320\266:Q\226p\025ZM\234\222"
 294      17D2D8D0 
ARM GAS  /tmp/ccDjVg0g.s 			page 23


 294      B63A5196 
 294      70155A4D 
 294      9C92
 295 01ee 572DAFDF 		.ascii	"W-\257\337l\230\254\326Lb\303\225O\256\325\213n\036"
 295      6C98ACD6 
 295      4C62C395 
 295      4FAED58B 
 295      6E1E
 296 0200 EF05150E 		.ascii	"\357\005\025\016\305\260\311B\011(\204\322~\320eIK\271"
 296      C5B0C942 
 296      092884D2 
 296      7ED06549 
 296      4BB9
 297 0212 D7BC4A6B 		.ascii	"\327\274Jk\001\302.2\0309\224\306\024\315\3551\232~"
 297      01C22E32 
 297      183994C6 
 297      14CDED31 
 297      9A7E
 298 0224 AC3761A6 		.ascii	"\2547a\246\343\032\2547s*\004y\305\036\243\222\303&"
 298      E31AAC37 
 298      732A0479 
 298      C51EA392 
 298      C326
 299 0236 0B2C311E 		.ascii	"\013,1\036\037\300\263\240\374\015v\331\252qh\003\306"
 299      1FC0B3A0 
 299      FC0D76D9 
 299      AA716803 
 299      C6
 300 0247 6AFCEDDC 		.ascii	"j\374\355\334T\253\206\335Z\355E\215\274|\361\372\372"
 300      54AB86DD 
 300      5AED458D 
 300      BC7CF1FA 
 300      FA
 301 0258 B95B4469 		.ascii	"\271[Di\245\313n<A\017\314\244^\234\246\001f9=\023\322"
 301      A5CB6E3C 
 301      410FCCA4 
 301      5E9CA601 
 301      66393D13 
 302 026d 8921ECB5 		.ascii	"\211!\354\265\031\177\226\316<~\027<)\336\217\364<j"
 302      197F96CE 
 302      3C7E173C 
 302      29DE8FF4 
 302      3C6A
 303 027f 194DD2C0 		.ascii	"\031M\322\300P\015I\366\321\022\306\222(\2757\364\026"
 303      500D49F6 
 303      D112C692 
 303      28BD37F4 
 303      16
 304 0290 16FB4EE2 		.ascii	"\026\373N\342i(\253\332*:\214UO6\201'<\376\003\235\033"
 304      6928ABDA 
 304      2A3A8C55 
 304      4F368127 
 304      3CFE039D 
 305 02a5 9BB1794C 		.ascii	"\233\261yL\025\305 \304\006\255\304\257\236\241\304"
 305      15C520C4 
 305      06ADC4AF 
 305      9EA1C4
ARM GAS  /tmp/ccDjVg0g.s 			page 24


 306 02b4 074B9A04 		.ascii	"\007K\232\004\267\316\274\365\010!\356A?52\241\033\363"
 306      B7CEBCF5 
 306      0821EE41 
 306      3F3532A1 
 306      1BF3
 307 02c6 6AC6DCC6 		.ascii	"j\306\334\306$8\270\366\364 ^\016I\342\361)L\006\330"
 307      2438B8F6 
 307      F4205E0E 
 307      49E2F129 
 307      4C06D8
 308 02d9 56CECCBA 		.ascii	"V\316\314\272t\250\255o\034\3776\235\260C\024h\237\313"
 308      74A8AD6F 
 308      1CFF369D 
 308      B0431468 
 308      9FCB
 309 02eb 0CC4E32A 		.ascii	"\014\304\343*\017K\231\276k\035\010Z\225\307\250\220"
 309      0F4B99BE 
 309      6B1D085A 
 309      95C7A890 
 310 02fb ED740A2A 		.ascii	"\355t\012*\267;\207\216P\243\203\306X6\021->\226?\332"
 310      B73B878E 
 310      50A383C6 
 310      5836112D 
 310      3E963FDA 
 311 030f FD4B1A40 		.ascii	"\375K\032@\323P\236\2016\321\304\301\222\2003<\236;"
 311      D3509E81 
 311      36D1C4C1 
 311      9280333C 
 311      9E3B
 312 0321 DD169C50 		.ascii	"\335\026\234P\374\000\317\2405\2272Sy\274\003\220\324"
 312      FC00CFA0 
 312      35973253 
 312      79BC0390 
 312      D4
 313 0332 97920329 		.ascii	"\227\222\003)\035\\=\235\244|\230\206\361X^\030O\341"
 313      1D5C3D9D 
 313      A47C9886 
 313      F1585E18 
 313      4FE1
 314 0344 0789238F 		.ascii	"\007\211#\217\227\272t\235\002\306?\\\3755b\374<\020"
 314      97BA749D 
 314      02C63F5C 
 314      FD3562FC 
 314      3C10
 315 0356 E7D0598B 		.ascii	"\347\320Y\213qSX\024w\235Bq\001\000\354\207k\3367\016"
 315      71535814 
 315      779D4271 
 315      0100EC87 
 315      6BDE370E 
 316 036a FDA5ECB4 		.ascii	"\375\245\354\264y\363`\031|c\022\361\370$]\375\336\307"
 316      79F36019 
 316      7C6312F1 
 316      F8245DFD 
 316      DEC7
 317 037c 33A13C07 		.ascii	"3\241<\007\2455\0066\213\307\011<\015\351\031\023uo"
 317      A5350636 
 317      8BC7093C 
ARM GAS  /tmp/ccDjVg0g.s 			page 25


 317      0DE91913 
 317      756F
 318 038e A18B93B3 		.ascii	"\241\213\223\263#jJt\246jE3\307\241\213\324\303\243"
 318      236A4A74 
 318      A66A4533 
 318      C7A18BD4 
 318      C3A3
 319 03a0 868716BB 		.ascii	"\206\207\026\273\005\206&\343\230\342\3221\352\322q"
 319      058626E3 
 319      98E2D231 
 319      EAD271
 320 03af D6190E5D 		.ascii	"\326\031\016]\313\033'\312Z\307h\033\213\"\262\352;"
 320      CB1B27CA 
 320      5AC7681B 
 320      8B22B2EA 
 320      3B
 321 03c0 39760432 		.ascii	"9v\0042\245\233\230pY6\212\377.K\3570Y\332C]\352\247"
 321      A59B9870 
 321      59368AFF 
 321      2E4BEF30 
 321      59DA435D 
 322 03d6 593A5C0A 		.ascii	"Y:\\\012\261\035\006\261\006\264M\354\223\345\221\355"
 322      B11D06B1 
 322      06B44DEC 
 322      93E591ED 
 323 03e6 E779B20D 		.ascii	"\347y\262\015\211\271\334OP\351S\366\212:e\215\371\301"
 323      89B9DC4F 
 323      50E953F6 
 323      8A3A658D 
 323      F9C1
 324 03f8 A13D6E6C 		.ascii	"\241=nl\031\273\337D\273\011\236\330/\272(\032\351\177"
 324      19BBDF44 
 324      BB099ED8 
 324      2FBA281A 
 324      E97F
 325 040a 1937981D 		.ascii	"\0317\230\035\272\2129\266A\341%\035\032\252\311\366"
 325      BA8A39B6 
 325      41E1251D 
 325      1AAAC9F6 
 326 041a CA703B28 		.ascii	"\312p;(\235\223l\267\214\230&0\207\016Y8>\216v\211\342"
 326      9D936CB7 
 326      8C982630 
 326      870E5938 
 326      3E8E7689 
 327 042f 06F15E74 		.ascii	"\006\361^t\201\322\235C\203\264\307\030\260\264\263"
 327      81D29D43 
 327      83B4C718 
 327      B0B4B3
 328 043e A3875075 		.ascii	"\243\207Pum\235\270j*\326}\033\263\372v-\3377\371s)"
 328      6D9DB86A 
 328      2AD67D1B 
 328      B3FA762D 
 328      DF37F973 
 329 0453 FB27D537 		.ascii	"\373'\3257e-\340\320\031{V\003\302\002\315\211\277\322"
 329      652DE0D0 
 329      197B5603 
 329      C202CD89 
ARM GAS  /tmp/ccDjVg0g.s 			page 26


 329      BFD2
 330 0465 D3DE7861 		.ascii	"\323\336xaV\252\332m\242\246,\203W)\260\263\332\260"
 330      56AADA6D 
 330      A2A62C83 
 330      5729B0B3 
 330      DAB0
 331 0477 32036D9D 		.ascii	"2\003m\235\031\267:\3637[g>\372\263\305\231O\354\235"
 331      19B73AF3 
 331      375B673E 
 331      FAB3C599 
 331      4FEC9D
 332 048a 39687566 		.ascii	"9huf\242$g\356h\316\360\370\263\"j\205\234\231\260:"
 332      A22467EE 
 332      68CEF0F8 
 332      B3226A85 
 332      9C99B03A 
 333 049e 73DD76D4 		.ascii	"s\335v\324]:\243;#Sg\356\331;\223\213Z\234\271\361@"
 333      5D3AA33B 
 333      235367EE 
 333      D93B938B 
 333      5A9CB9F1 
 334 04b3 E3E58695 		.ascii	"\343\345\206\225\325M\233\020g\345\323\273\006\361\026"
 334      D54D9B10 
 334      67E5D3BB 
 334      06F116
 335 04c2 F1A43247 		.ascii	"\361\2442G5fk+\254\263M\201\370\302\026\342\346gR#\003"
 335      35666B2B 
 335      ACB34D81 
 335      F8C216E2 
 335      E6675223 
 336 04d7 7185420C 		.ascii	"q\205B\014;@|i\007!m;\367\013\021k\321Q\000>u\000\370"
 336      3B407C69 
 336      07216D3B 
 336      F70B116B 
 336      D151003E 
 337 04ee CA0CF018 		.ascii	"\312\014\360\030\332!\312\303\362\310\330\241G{\311"
 337      DA21CAC3 
 337      F2C8D8A1 
 337      477BC9
 338 04fd 5223DECD 		.ascii	"R#\336\315\3450\326.C\275\225\032\210\323\351\356\256"
 338      E530D62E 
 338      43BD951A 
 338      88D3E9EE 
 338      AE
 339 050e 0167D94A 		.ascii	"\001g\331J\345\002[\351=c\255\263h])\240u\337\320\242"
 339      E5025BE9 
 339      3D63ADB3 
 339      685D29A0 
 339      75DFD0A2 
 340 0522 1BD98A82 		.ascii	"\033\331\212\202G\017\036\237\246Kp\361\263\204\315"
 340      470F1E9F 
 340      A64B70F1 
 340      B384CD
 341 0531 015C7269 		.ascii	"\001\\riP\317\"\3758\270\375\246\034S\016\226\"G\242"
 341      50CF22FD 
 341      38B8FDA6 
 341      1C530E96 
ARM GAS  /tmp/ccDjVg0g.s 			page 27


 341      2247A2
 342 0544 73ACD2F6 		.ascii	"s\254\322\3668\354\214CH\255\340,\307\341\213#\3648"
 342      38EC8C43 
 342      48ADE02C 
 342      C7E18B23 
 342      F438
 343 0556 4CDA8B1C 		.ascii	"L\332\213\034\207W\256\220\256\216l\244\2479\036\347"
 343      8757AE90 
 343      AE8E6CA4 
 343      A7391EE7 
 344 0566 E8227296 		.ascii	"\350\"r\226R \272\017p:\004\274\321\221\232,\257\201"
 344      5220BA0F 
 344      703A04BC 
 344      D1919A2C 
 344      AF81
 345 0578 9D2F1BCC 		.ascii	"\235/\033\314k\002\373\234\005\033.\005\254\332\231"
 345      6B02FB9C 
 345      051B2E05 
 345      ACDA99
 346 0587 D94D16EC 		.ascii	"\331M\026\354B\331`ff\377b\301.\225\0026\325\231\331"
 346      42D96066 
 346      66FF62C1 
 346      2E950236 
 346      D599D9
 347 059a 172C985C 		.ascii	"\027,\230\\6\030\303\014\3567_*`\312M\345\343R\300\352"
 347      3618C30C 
 347      EE375F2A 
 347      60CA4DE5 
 347      E352C0EA 
 348 05ae 1D9801D8 		.ascii	"\035\230\001\330W,\330\365\262\301\3141\273\313\272"
 348      572CD8F5 
 348      B2C1CC31 
 348      BBCBBA
 349 05bd 79BB1430 		.ascii	"y\273\0240\257s\314\356\263`w\313\00633\313^b\300z\253"
 349      AF73CCEE 
 349      B36077CB 
 349      063333CB 
 349      5E62C07A 
 350 05d2 4A007BC2 		.ascii	"J\000{\302\231\331\006\026lM\331`ff\033Y\260u\245\200"
 350      99D90616 
 350      6C4DD960 
 350      66661B59 
 350      B075A580 
 351 05e6 CD7166F6 		.ascii	"\315qf\366+\026lc\331`^\344\370\260\253\020\217Wrd\231"
 351      2B166C63 
 351      D9605EE4 
 351      F8B0AB10 
 351      8F577264 
 352 05fb 5CC59193 		.ascii	"\\\305\221\223\352\032Z\376\214\226ki\271\216\226\353"
 352      EA1A5AFE 
 352      8C966B69 
 352      B98E96EB 
 353 060b 69F93A2D 		.ascii	"i\371:-\337\240\345&Z\376\232\226[h\371&-\267\322r;"
 353      DFA0E526 
 353      5AFE9A96 
 353      5B68F926 
 353      2DB7D272 
ARM GAS  /tmp/ccDjVg0g.s 			page 28


 354 0620 C79C782D 		.ascii	"\307\234x-K\274\350\340\004\335\2219\363\022O\264\244"
 354      4BBCE8E0 
 354      04DD9139 
 354      F3124FB4 
 354      A4
 355 0631 FFDD12DF 		.ascii	"\377\335\022\337'\231\376\273\261\374m\367G\0126h\272"
 355      2799FEBB 
 355      B1FC6DF7 
 355      470A3668 
 355      BA
 356 0642 53D85CB3 		.ascii	"S\330\\\263\214\377Px\274\213s\272\376\260\327.\343"
 356      8CFF5078 
 356      BC8B73BA 
 356      FEB0D72E 
 356      E3
 357 0653 3A655226 		.ascii	":eR&\231\325\224\261y\255`\273\235r\356\006W\016\256"
 357      99D594B1 
 357      79AD60BB 
 357      9D72EE06 
 357      570EAE
 358 0666 DC9BDD1E 		.ascii	"\334\233\335\036\316\376fg\034\305\331^v\233\232\254"
 358      CEFE6667 
 358      1CC5D95E 
 358      769B9AAC 
 359 0676 B3F83AD2 		.ascii	"\263\370:\322o\331\357\215\222\377\211\372\351\306\270"
 359      6FD9EF8D 
 359      92FF89FA 
 359      E9C6B8
 360 0685 B9AAE8C6 		.ascii	"\271\252\350\306h\306 \026\367Y7\306\255\243tc\334W"
 360      68C62016 
 360      F75937C6 
 360      ADA37463 
 360      DC57
 361 0697 D2C63830 		.ascii	"\322\30680j\336\030\367P\012\373\036xc\374\335(3\371"
 361      6ADE18F7 
 361      500AFB1E 
 361      7863FCDD 
 361      2833F9
 362 06aa 0E940DE6 		.ascii	"\016\224\015\346e\300z\245C\337'X\273!U\034\032\260"
 362      65C07AA5 
 362      43DF2758 
 362      BB21551C 
 362      1AB0
 363 06bc 6299735A 		.ascii	"b\231sZ|c<\3022{\267\024fv;\206\335\303\346\200\307"
 363      7C633CC2 
 363      327BB714 
 363      66763B86 
 363      DDC3E680 
 364 06d1 FBE9B270 		.ascii	"\373\351\262p\200N\347\337\322r\200\226\007\013L\355"
 364      804EE7DF 
 364      D2728096 
 364      070B4CED 
 365 06e1 FE0253FB 		.ascii	"\376\002S\3730\227\177\346\223\312\375\323\245DM\036"
 365      30977FE6 
 365      93CAFDD3 
 365      A5444D1E 
 366 06f1 7F48E7B2 		.ascii	"\177H\347\262\365/\033\357\354\331\276@,\336\036_\034"
ARM GAS  /tmp/ccDjVg0g.s 			page 29


 366      F52F1BEF 
 366      ECD9BE40 
 366      2CDE1E5F 
 366      1C
 367 0702 F275A57D 		.ascii	"\362u\245}1>\341\213'#\211eQ\301'\364df\307\220\247"
 367      313EE18B 
 367      27238965 
 367      51C127F4 
 367      6466C790 
 368 0717 E5A5B679 		.ascii	"\345\245\266y\251\370\253B\252\362\371EK\275\001\324"
 368      A9F8AB42 
 368      AAF2F945 
 368      4BBD01D4 
 369 0727 9CAFD1DD 		.ascii	"\234\257\321\335\225\312\244}\241\266\205\315~\337\013"
 369      95CAA47D 
 369      A1B685CD 
 369      7EDF0B
 370 0736 2FCCF381 		.ascii	"/\314\363\201J\353\253M\004 \234HD\001d\022T\323\031"
 370      4AEBAB4D 
 370      04209C48 
 370      44016412 
 370      54D319
 371 0749 3E238433 		.ascii	">#\2043\223\340cx\351\242\326E\255m\325\244\032j[\274"
 371      93E06378 
 371      E9A2D645 
 371      AD6DD5A4 
 371      1A6A5BBC 
 372 075d 84B67D27 		.ascii	"\204\266}'\320\326\372bK\005\3556\025\032\0021>\231"
 372      D0D6FA62 
 372      4B05ED36 
 372      151A0231 
 372      3E99
 373 076f 141281AE 		.ascii	"\024\022\201\256dG\374\345\264/\331A\345i_\254\253S"
 373      6447FCE5 
 373      B42FD941 
 373      E5695FAC 
 373      AB53
 374 0781 F0A584B4 		.ascii	"\360\245\204\264\300\247\"10\237\212\376\210O\011>>"
 374      C0A72231 
 374      309F8AFE 
 374      884F093E 
 374      3E
 375 0792 D5E9F7BD 		.ascii	"\325\351\367\275\034\2114B\245Q\350l\027\242Q!\2527"
 375      1C893442 
 375      A551E86C 
 375      17A25121 
 375      AA37
 376 07a4 24BB9242 		.ascii	"$\273\222B\243\300\267\307\033\237\012?\333\350\237"
 376      A3C0B7C7 
 376      1B9F0A3F 
 376      DBE89F
 377 07b3 D3F4D42B 		.ascii	"\323\364\324+~\237\351\203\356v:\023\215'\211\347\325"
 377      7E9FE983 
 377      EE763A13 
 377      8D2789E7 
 377      D5
 378 07c4 CBE0B7D9 		.ascii	"\313\340\267\331\037\316\254\300\377?\353\235"
ARM GAS  /tmp/ccDjVg0g.s 			page 30


 378      1FCEACC0 
 378      FF3FEB9D 
 379 07d0 7C24164F 		.ascii	"|$\026O\012\276pT\350\340\227%2\341\314k\335B\232\204"
 379      0ABE7054 
 379      E8E09725 
 379      32E1CC6B 
 379      DD429A84 
 380 07e4 301CD6F8 		.ascii	"0\034\326\370\270;\273\242B\215\320\323\035QB\024\316"
 380      B83BBBA2 
 380      428DD0D3 
 380      1D514214 
 380      CE
 381 07f5 4C86F846 		.ascii	"L\206\370F\370D\242\235\217\3740\234\341\"\355\325\352"
 381      F844A29D 
 381      8FFC309C 
 381      E122EDD5 
 381      EA
 382 0806 A734499F 		.ascii	"\2474I\237\022\302\312\010\375)?}\021T\243V\303\361"
 382      12C2CA08 
 382      FD293F7D 
 382      1154A356 
 382      C3F1
 383 0818 643CA3BF 		.ascii	"d<\243\277\2443]\335nx\351\236\241\265h|\204$\337\236"
 383      A4335DDD 
 383      6E78E99E 
 383      A1B5687C 
 383      8424DF9E 
 384 082c 10AAD4D7 		.ascii	"\020\252\324\327:\353\347h<M\276O6\200\370\024uaq\373"
 384      3AEBE768 
 384      3C4DBE4F 
 384      3680F814 
 384      756171FB 
 385 0840 0F8448A6 		.ascii	"\017\204H\246\025\214<S\230%-\3477\367\364\370tf\351"
 385      158C3C53 
 385      98252DE7 
 385      37F7F4F8 
 385      7466E9
 386 0853 1404A95E 		.ascii	"\024\004\251^{\205\337x8\236zE\263U\227\367A\341XAF"
 386      7B85DF78 
 386      389E7A45 
 386      B35597F7 
 386      41E15841 
 387 0868 77932526 		.ascii	"w\223%&\320\307\027X\030j\015\201\035\306T:\323\331"
 387      D0C71758 
 387      186A0D81 
 387      1DC6543A 
 387      D3D9
 388 087a ECEF689E 		.ascii	"\354\357h\236\323\334\023\001S5$J\3416\310\316<\241"
 388      D3DC1301 
 388      5335244A 
 388      E136C8CE 
 388      3CA1
 389 088c C3D5BA30 		.ascii	"\303\325\2720\350jY\030t\007\333BA\367|(*B\337mm\011"
 389      E86A5918 
 389      7407DB42 
 389      41F77C28 
 389      2A42DF6D 
ARM GAS  /tmp/ccDjVg0g.s 			page 31


 390 08a2 724B829E 		.ascii	"rK\202\236`K\250%\370b\313\274&\275\346wCw\277\033\372"
 390      604BA825 
 390      F862CBBC 
 390      26BDE677 
 390      4377BF1B 
 391 08b7 FB2B8882 		.ascii	"\373+\210\202\277\202h\370+\251\212\337\265$\350\257"
 391      BF8268F8 
 391      2BA98ADF 
 391      B524E8AF 
 392 08c7 0D7D2F14 		.ascii	"\015}/\024\230\377\274\006_\001\365`\223+\030\010V\022"
 392      98FFBC06 
 392      5F01F560 
 392      932B1808 
 392      5612
 393 08d9 AB81206D 		.ascii	"\253\201 m\360\377\007\336\344\316R"
 393      F0FF07DE 
 393      E4CE52
 394              		.text
 395              		.section	.gnu.lto_.symtab.c86def44b6048daf,"",%progbits
 396 0000 6578745F 		.ascii	"ext_lld_init\000\000\000\000\000\000\000\000\000\000"
 396      6C6C645F 
 396      696E6974 
 396      00000000 
 396      00000000 
 397 0016 0000DB00 		.ascii	"\000\000\333\000\000\000EXTD1\000\000\000\000\000\000"
 397      00004558 
 397      54443100 
 397      00000000 
 397      00
 398 0027 00000000 		.ascii	"\000\000\000\000\000\000\373\000\000\000ext_lld_sto"
 398      0000FB00 
 398      00006578 
 398      745F6C6C 
 398      645F7374 
 399 003c 70000000 		.ascii	"p\000\000\000\000\000\000\000\000\000\000\000\000\337"
 399      00000000 
 399      00000000 
 399      00DF
 400 004a 00000065 		.ascii	"\000\000\000ext_lld_channel_enable\000\000\000\000\000"
 400      78745F6C 
 400      6C645F63 
 400      68616E6E 
 400      656C5F65 
 401 0068 00000000 		.ascii	"\000\000\000\000\000\000\000\346\000\000\000ext_lld"
 401      000000E6 
 401      00000065 
 401      78745F6C 
 401      6C64
 402 007a 5F636861 		.ascii	"_channel_disable\000\000\000\000\000\000\000\000\000"
 402      6E6E656C 
 402      5F646973 
 402      61626C65 
 402      00000000 
 403 0093 000000EC 		.ascii	"\000\000\000\354\000\000\000ext_lld_start\000\000\000"
 403      00000065 
 403      78745F6C 
 403      6C645F73 
ARM GAS  /tmp/ccDjVg0g.s 			page 32


 403      74617274 
 404 00aa 00000000 		.ascii	"\000\000\000\000\000\000\000\000\000\361\000\000\000"
 404      00000000 
 404      00F10000 
 404      00
 405 00b7 6578744F 		.ascii	"extObjectInit\000\000\002\000\000\000\000\000\000\000"
 405      626A6563 
 405      74496E69 
 405      74000002 
 405      00000000 
 406 00ce 0000F500 		.ascii	"\000\000\365\000\000\000ext_lld_exti_irq_disable\000"
 406      00006578 
 406      745F6C6C 
 406      645F6578 
 406      74695F69 
 407 00ed 00020000 		.ascii	"\000\002\000\000\000\000\000\000\000\000\000\367\000"
 407      00000000 
 407      000000F7 
 407      00
 408 00fa 00006578 		.ascii	"\000\000ext_lld_exti_irq_enable\000\000\002\000\000"
 408      745F6C6C 
 408      645F6578 
 408      74695F69 
 408      72715F65 
 409 0118 00000000 		.ascii	"\000\000\000\000\000\000\000\371\000\000\000"
 409      000000F9 
 409      000000
 410              		.text
 411              		.section	.gnu.lto_.opts,"",%progbits
 412 0000 272D6D63 		.ascii	"'-mcpu=cortex-m4' '-mno-thumb-interwork' '-mthumb' "
 412      70753D63 
 412      6F727465 
 412      782D6D34 
 412      2720272D 
 413 0033 272D6767 		.ascii	"'-ggdb' '-O2' '-fomit-frame-pointer' '-falign-funct"
 413      64622720 
 413      272D4F32 
 413      2720272D 
 413      666F6D69 
 414 0066 696F6E73 		.ascii	"ions=16' '-ffunction-sections' '-fdata-sections' '-"
 414      3D313627 
 414      20272D66 
 414      66756E63 
 414      74696F6E 
 415 0099 666E6F2D 		.ascii	"fno-common' '-flto'\000"
 415      636F6D6D 
 415      6F6E2720 
 415      272D666C 
 415      746F2700 
 416              		.text
 417              		.cfi_sections	.debug_frame
 418              		.section	.text.ext_lld_init,"ax",%progbits
 419              		.align	2
 420              		.p2align 4,,15
 421              		.global	ext_lld_init
 422              		.thumb
 423              		.thumb_func
ARM GAS  /tmp/ccDjVg0g.s 			page 33


 424              		.type	ext_lld_init, %function
 425              	ext_lld_init:
 426              	.LFB272:
 427              		.file 1 "../ChibiOS/os/hal/ports/STM32/LLD/EXTIv1/ext_lld.c"
 428              		.loc 1 72 0
 429              		.cfi_startproc
 430              		@ args = 0, pretend = 0, frame = 0
 431              		@ frame_needed = 0, uses_anonymous_args = 0
 432              		@ link register save eliminated.
 433              		.loc 1 75 0
 434 0000 0148     		ldr	r0, .L2
 435 0002 FFF7FEBF 		b	extObjectInit
 436              	.LVL0:
 437              	.L3:
 438 0006 00BF     		.align	2
 439              	.L2:
 440 0008 00000000 		.word	.LANCHOR0
 441              		.cfi_endproc
 442              	.LFE272:
 443              		.size	ext_lld_init, .-ext_lld_init
 444 000c AFF30080 		.section	.text.ext_lld_stop,"ax",%progbits
 445              		.align	2
 446              		.p2align 4,,15
 447              		.global	ext_lld_stop
 448              		.thumb
 449              		.thumb_func
 450              		.type	ext_lld_stop, %function
 451              	ext_lld_stop:
 452              	.LFB274:
 453              		.loc 1 106 0
 454              		.cfi_startproc
 455              		@ args = 0, pretend = 0, frame = 0
 456              		@ frame_needed = 0, uses_anonymous_args = 0
 457              	.LVL1:
 458 0000 38B5     		push	{r3, r4, r5, lr}
 459              		.cfi_def_cfa_offset 16
 460              		.cfi_offset 3, -16
 461              		.cfi_offset 4, -12
 462              		.cfi_offset 5, -8
 463              		.cfi_offset 14, -4
 464              		.loc 1 108 0
 465 0002 0378     		ldrb	r3, [r0]	@ zero_extendqisi2
 466 0004 022B     		cmp	r3, #2
 467 0006 0ED0     		beq	.L7
 468              	.LVL2:
 469              	.L5:
 470              		.loc 1 111 0
 471 0008 084B     		ldr	r3, .L8
 472 000a 0025     		movs	r5, #0
 473              		.loc 1 112 0
 474 000c 4FF0FC54 		mov	r4, #528482304
 475              		.loc 1 113 0
 476 0010 6FF0FC50 		mvn	r0, #528482304
 477              		.loc 1 115 0
 478 0014 6FF00301 		mvn	r1, #3
 479              		.loc 1 116 0
 480 0018 0322     		movs	r2, #3
ARM GAS  /tmp/ccDjVg0g.s 			page 34


 481              		.loc 1 111 0
 482 001a 5D60     		str	r5, [r3, #4]
 483              		.loc 1 112 0
 484 001c 1C60     		str	r4, [r3]
 485              		.loc 1 113 0
 486 001e 5861     		str	r0, [r3, #20]
 487              		.loc 1 115 0
 488 0020 1962     		str	r1, [r3, #32]
 489              		.loc 1 116 0
 490 0022 5A63     		str	r2, [r3, #52]
 491 0024 38BD     		pop	{r3, r4, r5, pc}
 492              	.LVL3:
 493              	.L7:
 494              		.loc 1 109 0
 495 0026 FFF7FEFF 		bl	ext_lld_exti_irq_disable
 496              	.LVL4:
 497 002a EDE7     		b	.L5
 498              	.L9:
 499              		.align	2
 500              	.L8:
 501 002c 00040140 		.word	1073808384
 502              		.cfi_endproc
 503              	.LFE274:
 504              		.size	ext_lld_stop, .-ext_lld_stop
 505              		.section	.text.ext_lld_channel_enable,"ax",%progbits
 506              		.align	2
 507              		.p2align 4,,15
 508              		.global	ext_lld_channel_enable
 509              		.thumb
 510              		.thumb_func
 511              		.type	ext_lld_channel_enable, %function
 512              	ext_lld_channel_enable:
 513              	.LFB275:
 514              		.loc 1 128 0
 515              		.cfi_startproc
 516              		@ args = 0, pretend = 0, frame = 0
 517              		@ frame_needed = 0, uses_anonymous_args = 0
 518              		@ link register save eliminated.
 519              	.LVL5:
 520              		.loc 1 129 0
 521 0000 01F01F03 		and	r3, r1, #31
 522 0004 0122     		movs	r2, #1
 523              		.loc 1 132 0
 524 0006 0F29     		cmp	r1, #15
 525              		.loc 1 128 0
 526 0008 F0B4     		push	{r4, r5, r6, r7}
 527              		.cfi_def_cfa_offset 16
 528              		.cfi_offset 4, -16
 529              		.cfi_offset 5, -12
 530              		.cfi_offset 6, -8
 531              		.cfi_offset 7, -4
 532              		.loc 1 129 0
 533 000a 02FA03F3 		lsl	r3, r2, r3
 534              	.LVL6:
 535              		.loc 1 132 0
 536 000e 39D8     		bhi	.L11
 537              	.LVL7:
ARM GAS  /tmp/ccDjVg0g.s 			page 35


 538 0010 21F00302 		bic	r2, r1, #3
 539              	.LBB2:
 540              		.loc 1 135 0
 541 0014 4568     		ldr	r5, [r0, #4]
 542 0016 02F18042 		add	r2, r2, #1073741824
 543 001a 02F58032 		add	r2, r2, #65536
 544 001e 55F83160 		ldr	r6, [r5, r1, lsl #3]
 545              		.loc 1 142 0
 546 0022 9768     		ldr	r7, [r2, #8]
 547              		.loc 1 134 0
 548 0024 01F00304 		and	r4, r1, #3
 549 0028 A400     		lsls	r4, r4, #2
 550              	.LVL8:
 551 002a 0F25     		movs	r5, #15
 552              	.LVL9:
 553 002c A540     		lsls	r5, r5, r4
 554              		.loc 1 136 0
 555 002e C6F30316 		ubfx	r6, r6, #4, #4
 556              		.loc 1 142 0
 557 0032 27EA0505 		bic	r5, r7, r5
 558              		.loc 1 135 0
 559 0036 06FA04F4 		lsl	r4, r6, r4
 560              	.LVL10:
 561              		.loc 1 142 0
 562 003a 2C43     		orrs	r4, r4, r5
 563 003c 9460     		str	r4, [r2, #8]
 564              	.LVL11:
 565              	.L12:
 566              	.LBE2:
 567              		.loc 1 150 0
 568 003e 13F0FC5F 		tst	r3, #528482304
 569 0042 1DD1     		bne	.L10
 570 0044 4068     		ldr	r0, [r0, #4]
 571              	.LVL12:
 572              		.loc 1 155 0
 573 0046 50F83120 		ldr	r2, [r0, r1, lsl #3]
 574 004a D507     		lsls	r5, r2, #31
 575 004c 00EBC101 		add	r1, r0, r1, lsl #3
 576              	.LVL13:
 577              		.loc 1 156 0
 578 0050 2B48     		ldr	r0, .L29
 579              		.loc 1 155 0
 580 0052 3BD4     		bmi	.L27
 581              		.loc 1 158 0
 582 0054 8568     		ldr	r5, [r0, #8]
 583 0056 DC43     		mvns	r4, r3
 584 0058 2540     		ands	r5, r5, r4
 585 005a 8560     		str	r5, [r0, #8]
 586              	.L17:
 587              		.loc 1 159 0
 588 005c 12F0020F 		tst	r2, #2
 589              		.loc 1 160 0
 590 0060 274A     		ldr	r2, .L29
 591 0062 D068     		ldr	r0, [r2, #12]
 592 0064 14BF     		ite	ne
 593 0066 1843     		orrne	r0, r3, r0
 594              		.loc 1 162 0
ARM GAS  /tmp/ccDjVg0g.s 			page 36


 595 0068 2040     		andeq	r0, r4, r0
 596 006a D060     		str	r0, [r2, #12]
 597              		.loc 1 165 0
 598 006c 4A68     		ldr	r2, [r1, #4]
 599 006e 002A     		cmp	r2, #0
 600 0070 3ED0     		beq	.L20
 601              		.loc 1 166 0
 602 0072 234A     		ldr	r2, .L29
 603 0074 1168     		ldr	r1, [r2]
 604 0076 0B43     		orrs	r3, r3, r1
 605              	.LVL14:
 606 0078 1360     		str	r3, [r2]
 607              		.loc 1 167 0
 608 007a 5368     		ldr	r3, [r2, #4]
 609 007c 1C40     		ands	r4, r4, r3
 610 007e 5460     		str	r4, [r2, #4]
 611              	.L10:
 612              		.loc 1 202 0
 613 0080 F0BC     		pop	{r4, r5, r6, r7}
 614 0082 7047     		bx	lr
 615              	.LVL15:
 616              	.L11:
 617              		.loc 1 147 0
 618 0084 1F29     		cmp	r1, #31
 619 0086 DAD9     		bls	.L12
 620              		.loc 1 177 0
 621 0088 33F00302 		bics	r2, r3, #3
 622 008c F8D1     		bne	.L10
 623 008e 4068     		ldr	r0, [r0, #4]
 624              	.LVL16:
 625              		.loc 1 182 0
 626 0090 50F83120 		ldr	r2, [r0, r1, lsl #3]
 627 0094 D407     		lsls	r4, r2, #31
 628 0096 00EBC101 		add	r1, r0, r1, lsl #3
 629              	.LVL17:
 630              		.loc 1 183 0
 631 009a 1948     		ldr	r0, .L29
 632              		.loc 1 182 0
 633 009c 1BD4     		bmi	.L28
 634              		.loc 1 185 0
 635 009e 856A     		ldr	r5, [r0, #40]
 636 00a0 DC43     		mvns	r4, r3
 637 00a2 2540     		ands	r5, r5, r4
 638 00a4 8562     		str	r5, [r0, #40]
 639              	.L23:
 640              		.loc 1 186 0
 641 00a6 12F0020F 		tst	r2, #2
 642              		.loc 1 187 0
 643 00aa 154A     		ldr	r2, .L29
 644 00ac D06A     		ldr	r0, [r2, #44]
 645 00ae 14BF     		ite	ne
 646 00b0 1843     		orrne	r0, r3, r0
 647              		.loc 1 189 0
 648 00b2 2040     		andeq	r0, r4, r0
 649 00b4 D062     		str	r0, [r2, #44]
 650              		.loc 1 192 0
 651 00b6 4A68     		ldr	r2, [r1, #4]
ARM GAS  /tmp/ccDjVg0g.s 			page 37


 652 00b8 92B1     		cbz	r2, .L26
 653              		.loc 1 193 0
 654 00ba 114A     		ldr	r2, .L29
 655 00bc 116A     		ldr	r1, [r2, #32]
 656 00be 0B43     		orrs	r3, r3, r1
 657              	.LVL18:
 658 00c0 1362     		str	r3, [r2, #32]
 659              		.loc 1 194 0
 660 00c2 536A     		ldr	r3, [r2, #36]
 661 00c4 1C40     		ands	r4, r4, r3
 662 00c6 5462     		str	r4, [r2, #36]
 663              		.loc 1 202 0
 664 00c8 F0BC     		pop	{r4, r5, r6, r7}
 665 00ca 7047     		bx	lr
 666              	.LVL19:
 667              	.L27:
 668              		.loc 1 156 0
 669 00cc 8468     		ldr	r4, [r0, #8]
 670 00ce 1C43     		orrs	r4, r4, r3
 671 00d0 8460     		str	r4, [r0, #8]
 672 00d2 DC43     		mvns	r4, r3
 673 00d4 C2E7     		b	.L17
 674              	.L28:
 675              		.loc 1 183 0
 676 00d6 846A     		ldr	r4, [r0, #40]
 677 00d8 1C43     		orrs	r4, r4, r3
 678 00da 8462     		str	r4, [r0, #40]
 679 00dc DC43     		mvns	r4, r3
 680 00de E2E7     		b	.L23
 681              	.L26:
 682              		.loc 1 197 0
 683 00e0 074A     		ldr	r2, .L29
 684 00e2 516A     		ldr	r1, [r2, #36]
 685 00e4 0B43     		orrs	r3, r3, r1
 686              	.LVL20:
 687 00e6 5362     		str	r3, [r2, #36]
 688              		.loc 1 198 0
 689 00e8 136A     		ldr	r3, [r2, #32]
 690 00ea 1C40     		ands	r4, r4, r3
 691 00ec 1462     		str	r4, [r2, #32]
 692 00ee C7E7     		b	.L10
 693              	.LVL21:
 694              	.L20:
 695              		.loc 1 170 0
 696 00f0 034A     		ldr	r2, .L29
 697 00f2 5168     		ldr	r1, [r2, #4]
 698 00f4 0B43     		orrs	r3, r3, r1
 699              	.LVL22:
 700 00f6 5360     		str	r3, [r2, #4]
 701              		.loc 1 171 0
 702 00f8 1368     		ldr	r3, [r2]
 703 00fa 1C40     		ands	r4, r4, r3
 704 00fc 1460     		str	r4, [r2]
 705 00fe BFE7     		b	.L10
 706              	.L30:
 707              		.align	2
 708              	.L29:
ARM GAS  /tmp/ccDjVg0g.s 			page 38


 709 0100 00040140 		.word	1073808384
 710              		.cfi_endproc
 711              	.LFE275:
 712              		.size	ext_lld_channel_enable, .-ext_lld_channel_enable
 713 0104 AFF30080 		.section	.text.ext_lld_channel_disable,"ax",%progbits
 713      AFF30080 
 713      AFF30080 
 714              		.align	2
 715              		.p2align 4,,15
 716              		.global	ext_lld_channel_disable
 717              		.thumb
 718              		.thumb_func
 719              		.type	ext_lld_channel_disable, %function
 720              	ext_lld_channel_disable:
 721              	.LFB276:
 722              		.loc 1 212 0
 723              		.cfi_startproc
 724              		@ args = 0, pretend = 0, frame = 0
 725              		@ frame_needed = 0, uses_anonymous_args = 0
 726              		@ link register save eliminated.
 727              	.LVL23:
 728              		.loc 1 213 0
 729 0000 01F01F03 		and	r3, r1, #31
 730 0004 0120     		movs	r0, #1
 731              	.LVL24:
 732              		.loc 1 218 0
 733 0006 1F29     		cmp	r1, #31
 734              		.loc 1 213 0
 735 0008 00FA03F0 		lsl	r0, r0, r3
 736              	.LVL25:
 737              		.loc 1 220 0
 738 000c 0F4B     		ldr	r3, .L35
 739              		.loc 1 218 0
 740 000e 0ED9     		bls	.L34
 741              		.loc 1 228 0
 742 0010 196A     		ldr	r1, [r3, #32]
 743              	.LVL26:
 744 0012 C243     		mvns	r2, r0
 745 0014 1140     		ands	r1, r1, r2
 746 0016 1962     		str	r1, [r3, #32]
 747              		.loc 1 229 0
 748 0018 596A     		ldr	r1, [r3, #36]
 749 001a 1140     		ands	r1, r1, r2
 750 001c 5962     		str	r1, [r3, #36]
 751              		.loc 1 230 0
 752 001e 996A     		ldr	r1, [r3, #40]
 753 0020 1140     		ands	r1, r1, r2
 754 0022 9962     		str	r1, [r3, #40]
 755              		.loc 1 231 0
 756 0024 D96A     		ldr	r1, [r3, #44]
 757 0026 0A40     		ands	r2, r2, r1
 758 0028 DA62     		str	r2, [r3, #44]
 759              		.loc 1 232 0
 760 002a 5863     		str	r0, [r3, #52]
 761 002c 7047     		bx	lr
 762              	.LVL27:
 763              	.L34:
ARM GAS  /tmp/ccDjVg0g.s 			page 39


 764              		.loc 1 220 0
 765 002e 1968     		ldr	r1, [r3]
 766              	.LVL28:
 767 0030 C243     		mvns	r2, r0
 768 0032 1140     		ands	r1, r1, r2
 769 0034 1960     		str	r1, [r3]
 770              		.loc 1 221 0
 771 0036 5968     		ldr	r1, [r3, #4]
 772 0038 1140     		ands	r1, r1, r2
 773 003a 5960     		str	r1, [r3, #4]
 774              		.loc 1 222 0
 775 003c 9968     		ldr	r1, [r3, #8]
 776 003e 1140     		ands	r1, r1, r2
 777 0040 9960     		str	r1, [r3, #8]
 778              		.loc 1 223 0
 779 0042 D968     		ldr	r1, [r3, #12]
 780 0044 0A40     		ands	r2, r2, r1
 781 0046 DA60     		str	r2, [r3, #12]
 782              		.loc 1 224 0
 783 0048 5861     		str	r0, [r3, #20]
 784 004a 7047     		bx	lr
 785              	.L36:
 786              		.align	2
 787              	.L35:
 788 004c 00040140 		.word	1073808384
 789              		.cfi_endproc
 790              	.LFE276:
 791              		.size	ext_lld_channel_disable, .-ext_lld_channel_disable
 792              		.section	.text.ext_lld_start,"ax",%progbits
 793              		.align	2
 794              		.p2align 4,,15
 795              		.global	ext_lld_start
 796              		.thumb
 797              		.thumb_func
 798              		.type	ext_lld_start, %function
 799              	ext_lld_start:
 800              	.LFB273:
 801              		.loc 1 85 0
 802              		.cfi_startproc
 803              		@ args = 0, pretend = 0, frame = 0
 804              		@ frame_needed = 0, uses_anonymous_args = 0
 805              	.LVL29:
 806 0000 38B5     		push	{r3, r4, r5, lr}
 807              		.cfi_def_cfa_offset 16
 808              		.cfi_offset 3, -16
 809              		.cfi_offset 4, -12
 810              		.cfi_offset 5, -8
 811              		.cfi_offset 14, -4
 812              		.loc 1 88 0
 813 0002 0378     		ldrb	r3, [r0]	@ zero_extendqisi2
 814 0004 012B     		cmp	r3, #1
 815              		.loc 1 85 0
 816 0006 0546     		mov	r5, r0
 817              		.loc 1 88 0
 818 0008 14D0     		beq	.L43
 819              	.LVL30:
 820              	.L38:
ARM GAS  /tmp/ccDjVg0g.s 			page 40


 821              		.loc 1 85 0 discriminator 1
 822 000a 0024     		movs	r4, #0
 823 000c 04E0     		b	.L42
 824              	.LVL31:
 825              	.L45:
 826              		.loc 1 92 0
 827 000e 0134     		adds	r4, r4, #1
 828              		.loc 1 94 0
 829 0010 FFF7FEFF 		bl	ext_lld_channel_enable
 830              	.LVL32:
 831              		.loc 1 92 0
 832 0014 222C     		cmp	r4, #34
 833 0016 0CD0     		beq	.L44
 834              	.LVL33:
 835              	.L42:
 836              		.loc 1 93 0
 837 0018 6B68     		ldr	r3, [r5, #4]
 838 001a 53F83430 		ldr	r3, [r3, r4, lsl #3]
 839 001e 13F0040F 		tst	r3, #4
 840              		.loc 1 96 0
 841 0022 2146     		mov	r1, r4
 842 0024 2846     		mov	r0, r5
 843              		.loc 1 93 0
 844 0026 F2D1     		bne	.L45
 845              	.LVL34:
 846              		.loc 1 92 0
 847 0028 0134     		adds	r4, r4, #1
 848              	.LVL35:
 849              		.loc 1 96 0
 850 002a FFF7FEFF 		bl	ext_lld_channel_disable
 851              	.LVL36:
 852              		.loc 1 92 0
 853 002e 222C     		cmp	r4, #34
 854 0030 F2D1     		bne	.L42
 855              	.L44:
 856              		.loc 1 97 0
 857 0032 38BD     		pop	{r3, r4, r5, pc}
 858              	.LVL37:
 859              	.L43:
 860              		.loc 1 89 0
 861 0034 FFF7FEFF 		bl	ext_lld_exti_irq_enable
 862              	.LVL38:
 863 0038 E7E7     		b	.L38
 864              		.cfi_endproc
 865              	.LFE273:
 866              		.size	ext_lld_start, .-ext_lld_start
 867              		.global	EXTD1
 868 003a 00BFAFF3 		.section	.bss.EXTD1,"aw",%nobits
 868      0080
 869              		.align	2
 870              		.set	.LANCHOR0,. + 0
 871              		.type	EXTD1, %object
 872              		.size	EXTD1, 8
 873              	EXTD1:
 874 0000 00000000 		.space	8
 874      00000000 
 875              		.text
ARM GAS  /tmp/ccDjVg0g.s 			page 41


 876              	.Letext0:
 877              		.file 2 "/nfs/nfs5/home/research/hardware/arm2/gcc-arm-embedded/gcc-arm-none-eabi-4_8-2014q2/lib/g
 878              		.file 3 "/nfs/nfs5/home/research/hardware/arm2/gcc-arm-embedded/gcc-arm-none-eabi-4_8-2014q2/arm-n
 879              		.file 4 "/nfs/nfs5/home/research/hardware/arm2/gcc-arm-embedded/gcc-arm-none-eabi-4_8-2014q2/arm-n
 880              		.file 5 "../ChibiOS/os/rt/ports/ARMCMx/compilers/GCC/chtypes.h"
 881              		.file 6 "../ChibiOS/os/rt/include/chsystypes.h"
 882              		.file 7 "../ChibiOS/os/rt/include/chschd.h"
 883              		.file 8 "../ChibiOS/os/ext/CMSIS/ST/STM32F3xx/stm32f303xc.h"
 884              		.file 9 "../ChibiOS/os/rt/ports/ARMCMx/chcore.h"
 885              		.file 10 "../ChibiOS/os/rt/ports/ARMCMx/chcore_v7m.h"
 886              		.file 11 "../ChibiOS/os/rt/include/chtm.h"
 887              		.file 12 "../ChibiOS/os/rt/include/chsem.h"
 888              		.file 13 "../ChibiOS/os/rt/include/chmtx.h"
 889              		.file 14 "../ChibiOS/os/hal/include/ext.h"
 890              		.file 15 "../ChibiOS/os/hal/ports/STM32/LLD/EXTIv1/ext_lld.h"
 891              		.file 16 "../ChibiOS/os/ext/CMSIS/include/core_cm4.h"
 892              		.file 17 "../ChibiOS/os/hal/ports/STM32/STM32F3xx/ext_lld_isr.h"
 893              		.section	.debug_info,"",%progbits
 894              	.Ldebug_info0:
 895 0000 FE090000 		.4byte	0x9fe
 896 0004 0400     		.2byte	0x4
 897 0006 00000000 		.4byte	.Ldebug_abbrev0
 898 000a 04       		.byte	0x4
 899 000b 01       		.uleb128 0x1
 900 000c 07060000 		.4byte	.LASF146
 901 0010 01       		.byte	0x1
 902 0011 68020000 		.4byte	.LASF147
 903 0015 68030000 		.4byte	.LASF148
 904 0019 00000000 		.4byte	.Ldebug_ranges0+0
 905 001d 00000000 		.4byte	0
 906 0021 00000000 		.4byte	.Ldebug_line0
 907 0025 02       		.uleb128 0x2
 908 0026 04       		.byte	0x4
 909 0027 05       		.byte	0x5
 910 0028 696E7400 		.ascii	"int\000"
 911 002c 03       		.uleb128 0x3
 912 002d 0D000000 		.4byte	.LASF2
 913 0031 02       		.byte	0x2
 914 0032 D4       		.byte	0xd4
 915 0033 37000000 		.4byte	0x37
 916 0037 04       		.uleb128 0x4
 917 0038 04       		.byte	0x4
 918 0039 07       		.byte	0x7
 919 003a E6010000 		.4byte	.LASF0
 920 003e 04       		.uleb128 0x4
 921 003f 01       		.byte	0x1
 922 0040 06       		.byte	0x6
 923 0041 1D000000 		.4byte	.LASF1
 924 0045 03       		.uleb128 0x3
 925 0046 29000000 		.4byte	.LASF3
 926 004a 03       		.byte	0x3
 927 004b 1C       		.byte	0x1c
 928 004c 50000000 		.4byte	0x50
 929 0050 04       		.uleb128 0x4
 930 0051 01       		.byte	0x1
 931 0052 08       		.byte	0x8
 932 0053 72040000 		.4byte	.LASF4
ARM GAS  /tmp/ccDjVg0g.s 			page 42


 933 0057 04       		.uleb128 0x4
 934 0058 02       		.byte	0x2
 935 0059 05       		.byte	0x5
 936 005a 8F040000 		.4byte	.LASF5
 937 005e 04       		.uleb128 0x4
 938 005f 02       		.byte	0x2
 939 0060 07       		.byte	0x7
 940 0061 29020000 		.4byte	.LASF6
 941 0065 03       		.uleb128 0x3
 942 0066 D5020000 		.4byte	.LASF7
 943 006a 03       		.byte	0x3
 944 006b 37       		.byte	0x37
 945 006c 70000000 		.4byte	0x70
 946 0070 04       		.uleb128 0x4
 947 0071 04       		.byte	0x4
 948 0072 05       		.byte	0x5
 949 0073 55010000 		.4byte	.LASF8
 950 0077 03       		.uleb128 0x3
 951 0078 99050000 		.4byte	.LASF9
 952 007c 03       		.byte	0x3
 953 007d 38       		.byte	0x38
 954 007e 82000000 		.4byte	0x82
 955 0082 04       		.uleb128 0x4
 956 0083 04       		.byte	0x4
 957 0084 07       		.byte	0x7
 958 0085 31050000 		.4byte	.LASF10
 959 0089 04       		.uleb128 0x4
 960 008a 08       		.byte	0x8
 961 008b 05       		.byte	0x5
 962 008c 01010000 		.4byte	.LASF11
 963 0090 03       		.uleb128 0x3
 964 0091 FA030000 		.4byte	.LASF12
 965 0095 03       		.byte	0x3
 966 0096 4E       		.byte	0x4e
 967 0097 9B000000 		.4byte	0x9b
 968 009b 04       		.uleb128 0x4
 969 009c 08       		.byte	0x8
 970 009d 07       		.byte	0x7
 971 009e 67000000 		.4byte	.LASF13
 972 00a2 03       		.uleb128 0x3
 973 00a3 FF050000 		.4byte	.LASF14
 974 00a7 04       		.byte	0x4
 975 00a8 2A       		.byte	0x2a
 976 00a9 45000000 		.4byte	0x45
 977 00ad 03       		.uleb128 0x3
 978 00ae 6A040000 		.4byte	.LASF15
 979 00b2 04       		.byte	0x4
 980 00b3 41       		.byte	0x41
 981 00b4 65000000 		.4byte	0x65
 982 00b8 03       		.uleb128 0x3
 983 00b9 00050000 		.4byte	.LASF16
 984 00bd 04       		.byte	0x4
 985 00be 42       		.byte	0x42
 986 00bf 77000000 		.4byte	0x77
 987 00c3 03       		.uleb128 0x3
 988 00c4 14000000 		.4byte	.LASF17
 989 00c8 04       		.byte	0x4
ARM GAS  /tmp/ccDjVg0g.s 			page 43


 990 00c9 4E       		.byte	0x4e
 991 00ca 90000000 		.4byte	0x90
 992 00ce 03       		.uleb128 0x3
 993 00cf B5050000 		.4byte	.LASF18
 994 00d3 05       		.byte	0x5
 995 00d4 39       		.byte	0x39
 996 00d5 B8000000 		.4byte	0xb8
 997 00d9 03       		.uleb128 0x3
 998 00da AD020000 		.4byte	.LASF19
 999 00de 05       		.byte	0x5
 1000 00df 3C       		.byte	0x3c
 1001 00e0 A2000000 		.4byte	0xa2
 1002 00e4 03       		.uleb128 0x3
 1003 00e5 5E010000 		.4byte	.LASF20
 1004 00e9 05       		.byte	0x5
 1005 00ea 3D       		.byte	0x3d
 1006 00eb A2000000 		.4byte	0xa2
 1007 00ef 03       		.uleb128 0x3
 1008 00f0 19040000 		.4byte	.LASF21
 1009 00f4 05       		.byte	0x5
 1010 00f5 3E       		.byte	0x3e
 1011 00f6 A2000000 		.4byte	0xa2
 1012 00fa 03       		.uleb128 0x3
 1013 00fb 4C040000 		.4byte	.LASF22
 1014 00ff 05       		.byte	0x5
 1015 0100 40       		.byte	0x40
 1016 0101 B8000000 		.4byte	0xb8
 1017 0105 03       		.uleb128 0x3
 1018 0106 9B020000 		.4byte	.LASF23
 1019 010a 05       		.byte	0x5
 1020 010b 41       		.byte	0x41
 1021 010c AD000000 		.4byte	0xad
 1022 0110 03       		.uleb128 0x3
 1023 0111 C9020000 		.4byte	.LASF24
 1024 0115 05       		.byte	0x5
 1025 0116 43       		.byte	0x43
 1026 0117 B8000000 		.4byte	0xb8
 1027 011b 03       		.uleb128 0x3
 1028 011c 4E030000 		.4byte	.LASF25
 1029 0120 05       		.byte	0x5
 1030 0121 45       		.byte	0x45
 1031 0122 AD000000 		.4byte	0xad
 1032 0126 03       		.uleb128 0x3
 1033 0127 7B050000 		.4byte	.LASF26
 1034 012b 06       		.byte	0x6
 1035 012c 33       		.byte	0x33
 1036 012d B8000000 		.4byte	0xb8
 1037 0131 03       		.uleb128 0x3
 1038 0132 6B050000 		.4byte	.LASF27
 1039 0136 06       		.byte	0x6
 1040 0137 3F       		.byte	0x3f
 1041 0138 3C010000 		.4byte	0x13c
 1042 013c 05       		.uleb128 0x5
 1043 013d 54020000 		.4byte	.LASF46
 1044 0141 40       		.byte	0x40
 1045 0142 07       		.byte	0x7
 1046 0143 C2       		.byte	0xc2
ARM GAS  /tmp/ccDjVg0g.s 			page 44


 1047 0144 1C020000 		.4byte	0x21c
 1048 0148 06       		.uleb128 0x6
 1049 0149 AF040000 		.4byte	.LASF28
 1050 014d 07       		.byte	0x7
 1051 014e C3       		.byte	0xc3
 1052 014f 27020000 		.4byte	0x227
 1053 0153 00       		.byte	0
 1054 0154 06       		.uleb128 0x6
 1055 0155 45040000 		.4byte	.LASF29
 1056 0159 07       		.byte	0x7
 1057 015a C5       		.byte	0xc5
 1058 015b 27020000 		.4byte	0x227
 1059 015f 04       		.byte	0x4
 1060 0160 06       		.uleb128 0x6
 1061 0161 FA000000 		.4byte	.LASF30
 1062 0165 07       		.byte	0x7
 1063 0166 C7       		.byte	0xc7
 1064 0167 FA000000 		.4byte	0xfa
 1065 016b 08       		.byte	0x8
 1066 016c 06       		.uleb128 0x6
 1067 016d 1F070000 		.4byte	.LASF31
 1068 0171 07       		.byte	0x7
 1069 0172 C8       		.byte	0xc8
 1070 0173 86050000 		.4byte	0x586
 1071 0177 0C       		.byte	0xc
 1072 0178 06       		.uleb128 0x6
 1073 0179 67010000 		.4byte	.LASF32
 1074 017d 07       		.byte	0x7
 1075 017e CA       		.byte	0xca
 1076 017f 27020000 		.4byte	0x227
 1077 0183 10       		.byte	0x10
 1078 0184 06       		.uleb128 0x6
 1079 0185 60030000 		.4byte	.LASF33
 1080 0189 07       		.byte	0x7
 1081 018a CB       		.byte	0xcb
 1082 018b 27020000 		.4byte	0x227
 1083 018f 14       		.byte	0x14
 1084 0190 06       		.uleb128 0x6
 1085 0191 EE060000 		.4byte	.LASF34
 1086 0195 07       		.byte	0x7
 1087 0196 D2       		.byte	0xd2
 1088 0197 11070000 		.4byte	0x711
 1089 019b 18       		.byte	0x18
 1090 019c 06       		.uleb128 0x6
 1091 019d 99040000 		.4byte	.LASF35
 1092 01a1 07       		.byte	0x7
 1093 01a2 DD       		.byte	0xdd
 1094 01a3 E4000000 		.4byte	0xe4
 1095 01a7 1C       		.byte	0x1c
 1096 01a8 06       		.uleb128 0x6
 1097 01a9 B6040000 		.4byte	.LASF36
 1098 01ad 07       		.byte	0x7
 1099 01ae E1       		.byte	0xe1
 1100 01af D9000000 		.4byte	0xd9
 1101 01b3 1D       		.byte	0x1d
 1102 01b4 06       		.uleb128 0x6
 1103 01b5 EC050000 		.4byte	.LASF37
ARM GAS  /tmp/ccDjVg0g.s 			page 45


 1104 01b9 07       		.byte	0x7
 1105 01ba E6       		.byte	0xe6
 1106 01bb EF000000 		.4byte	0xef
 1107 01bf 1E       		.byte	0x1e
 1108 01c0 07       		.uleb128 0x7
 1109 01c1 705F7500 		.ascii	"p_u\000"
 1110 01c5 07       		.byte	0x7
 1111 01c6 3701     		.2byte	0x137
 1112 01c8 40060000 		.4byte	0x640
 1113 01cc 20       		.byte	0x20
 1114 01cd 08       		.uleb128 0x8
 1115 01ce 00030000 		.4byte	.LASF38
 1116 01d2 07       		.byte	0x7
 1117 01d3 3C01     		.2byte	0x13c
 1118 01d5 2D020000 		.4byte	0x22d
 1119 01d9 24       		.byte	0x24
 1120 01da 08       		.uleb128 0x8
 1121 01db 02020000 		.4byte	.LASF39
 1122 01df 07       		.byte	0x7
 1123 01e0 4201     		.2byte	0x142
 1124 01e2 51020000 		.4byte	0x251
 1125 01e6 28       		.byte	0x28
 1126 01e7 08       		.uleb128 0x8
 1127 01e8 F5040000 		.4byte	.LASF40
 1128 01ec 07       		.byte	0x7
 1129 01ed 4801     		.2byte	0x148
 1130 01ef 10010000 		.4byte	0x110
 1131 01f3 30       		.byte	0x30
 1132 01f4 08       		.uleb128 0x8
 1133 01f5 85040000 		.4byte	.LASF41
 1134 01f9 07       		.byte	0x7
 1135 01fa 4F01     		.2byte	0x14f
 1136 01fc 0B070000 		.4byte	0x70b
 1137 0200 34       		.byte	0x34
 1138 0201 08       		.uleb128 0x8
 1139 0202 85050000 		.4byte	.LASF42
 1140 0206 07       		.byte	0x7
 1141 0207 5301     		.2byte	0x153
 1142 0209 FA000000 		.4byte	0xfa
 1143 020d 38       		.byte	0x38
 1144 020e 08       		.uleb128 0x8
 1145 020f 22010000 		.4byte	.LASF43
 1146 0213 07       		.byte	0x7
 1147 0214 5A01     		.2byte	0x15a
 1148 0216 04030000 		.4byte	0x304
 1149 021a 3C       		.byte	0x3c
 1150 021b 00       		.byte	0
 1151 021c 03       		.uleb128 0x3
 1152 021d 13030000 		.4byte	.LASF44
 1153 0221 06       		.byte	0x6
 1154 0222 44       		.byte	0x44
 1155 0223 27020000 		.4byte	0x227
 1156 0227 09       		.uleb128 0x9
 1157 0228 04       		.byte	0x4
 1158 0229 31010000 		.4byte	0x131
 1159 022d 03       		.uleb128 0x3
 1160 022e F5060000 		.4byte	.LASF45
ARM GAS  /tmp/ccDjVg0g.s 			page 46


 1161 0232 06       		.byte	0x6
 1162 0233 49       		.byte	0x49
 1163 0234 38020000 		.4byte	0x238
 1164 0238 05       		.uleb128 0x5
 1165 0239 21050000 		.4byte	.LASF47
 1166 023d 04       		.byte	0x4
 1167 023e 07       		.byte	0x7
 1168 023f B0       		.byte	0xb0
 1169 0240 51020000 		.4byte	0x251
 1170 0244 06       		.uleb128 0x6
 1171 0245 AF040000 		.4byte	.LASF28
 1172 0249 07       		.byte	0x7
 1173 024a B1       		.byte	0xb1
 1174 024b 27020000 		.4byte	0x227
 1175 024f 00       		.byte	0
 1176 0250 00       		.byte	0
 1177 0251 03       		.uleb128 0x3
 1178 0252 D3050000 		.4byte	.LASF48
 1179 0256 06       		.byte	0x6
 1180 0257 50       		.byte	0x50
 1181 0258 5C020000 		.4byte	0x25c
 1182 025c 05       		.uleb128 0x5
 1183 025d D1000000 		.4byte	.LASF49
 1184 0261 08       		.byte	0x8
 1185 0262 07       		.byte	0x7
 1186 0263 B7       		.byte	0xb7
 1187 0264 81020000 		.4byte	0x281
 1188 0268 06       		.uleb128 0x6
 1189 0269 AF040000 		.4byte	.LASF28
 1190 026d 07       		.byte	0x7
 1191 026e B8       		.byte	0xb8
 1192 026f 27020000 		.4byte	0x227
 1193 0273 00       		.byte	0
 1194 0274 06       		.uleb128 0x6
 1195 0275 45040000 		.4byte	.LASF29
 1196 0279 07       		.byte	0x7
 1197 027a B9       		.byte	0xb9
 1198 027b 27020000 		.4byte	0x227
 1199 027f 04       		.byte	0x4
 1200 0280 00       		.byte	0
 1201 0281 03       		.uleb128 0x3
 1202 0282 00000000 		.4byte	.LASF50
 1203 0286 06       		.byte	0x6
 1204 0287 57       		.byte	0x57
 1205 0288 8C020000 		.4byte	0x28c
 1206 028c 0A       		.uleb128 0xa
 1207 028d BB020000 		.4byte	.LASF51
 1208 0291 1C       		.byte	0x1c
 1209 0292 07       		.byte	0x7
 1210 0293 9201     		.2byte	0x192
 1211 0295 E8020000 		.4byte	0x2e8
 1212 0299 08       		.uleb128 0x8
 1213 029a 10050000 		.4byte	.LASF52
 1214 029e 07       		.byte	0x7
 1215 029f 9301     		.2byte	0x193
 1216 02a1 51020000 		.4byte	0x251
 1217 02a5 00       		.byte	0
ARM GAS  /tmp/ccDjVg0g.s 			page 47


 1218 02a6 08       		.uleb128 0x8
 1219 02a7 A1040000 		.4byte	.LASF53
 1220 02ab 07       		.byte	0x7
 1221 02ac 9401     		.2byte	0x194
 1222 02ae FA000000 		.4byte	0xfa
 1223 02b2 08       		.byte	0x8
 1224 02b3 08       		.uleb128 0x8
 1225 02b4 AF030000 		.4byte	.LASF54
 1226 02b8 07       		.byte	0x7
 1227 02b9 9601     		.2byte	0x196
 1228 02bb 86050000 		.4byte	0x586
 1229 02bf 0C       		.byte	0xc
 1230 02c0 08       		.uleb128 0x8
 1231 02c1 8D010000 		.4byte	.LASF55
 1232 02c5 07       		.byte	0x7
 1233 02c6 9901     		.2byte	0x199
 1234 02c8 27020000 		.4byte	0x227
 1235 02cc 10       		.byte	0x10
 1236 02cd 08       		.uleb128 0x8
 1237 02ce F2030000 		.4byte	.LASF56
 1238 02d2 07       		.byte	0x7
 1239 02d3 9A01     		.2byte	0x19a
 1240 02d5 27020000 		.4byte	0x227
 1241 02d9 14       		.byte	0x14
 1242 02da 08       		.uleb128 0x8
 1243 02db E8030000 		.4byte	.LASF57
 1244 02df 07       		.byte	0x7
 1245 02e0 9D01     		.2byte	0x19d
 1246 02e2 27020000 		.4byte	0x227
 1247 02e6 18       		.byte	0x18
 1248 02e7 00       		.byte	0
 1249 02e8 03       		.uleb128 0x3
 1250 02e9 90050000 		.4byte	.LASF58
 1251 02ed 06       		.byte	0x6
 1252 02ee 5C       		.byte	0x5c
 1253 02ef F3020000 		.4byte	0x2f3
 1254 02f3 09       		.uleb128 0x9
 1255 02f4 04       		.byte	0x4
 1256 02f5 F9020000 		.4byte	0x2f9
 1257 02f9 0B       		.uleb128 0xb
 1258 02fa 04030000 		.4byte	0x304
 1259 02fe 0C       		.uleb128 0xc
 1260 02ff 04030000 		.4byte	0x304
 1261 0303 00       		.byte	0
 1262 0304 0D       		.uleb128 0xd
 1263 0305 04       		.byte	0x4
 1264 0306 03       		.uleb128 0x3
 1265 0307 35040000 		.4byte	.LASF59
 1266 030b 06       		.byte	0x6
 1267 030c 61       		.byte	0x61
 1268 030d 11030000 		.4byte	0x311
 1269 0311 0A       		.uleb128 0xa
 1270 0312 D7040000 		.4byte	.LASF60
 1271 0316 14       		.byte	0x14
 1272 0317 07       		.byte	0x7
 1273 0318 6D01     		.2byte	0x16d
 1274 031a 60030000 		.4byte	0x360
ARM GAS  /tmp/ccDjVg0g.s 			page 48


 1275 031e 08       		.uleb128 0x8
 1276 031f F3010000 		.4byte	.LASF61
 1277 0323 07       		.byte	0x7
 1278 0324 6E01     		.2byte	0x16e
 1279 0326 23070000 		.4byte	0x723
 1280 032a 00       		.byte	0
 1281 032b 08       		.uleb128 0x8
 1282 032c A3010000 		.4byte	.LASF62
 1283 0330 07       		.byte	0x7
 1284 0331 6F01     		.2byte	0x16f
 1285 0333 23070000 		.4byte	0x723
 1286 0337 04       		.byte	0x4
 1287 0338 08       		.uleb128 0x8
 1288 0339 18050000 		.4byte	.LASF63
 1289 033d 07       		.byte	0x7
 1290 033e 7001     		.2byte	0x170
 1291 0340 26010000 		.4byte	0x126
 1292 0344 08       		.byte	0x8
 1293 0345 08       		.uleb128 0x8
 1294 0346 25070000 		.4byte	.LASF64
 1295 034a 07       		.byte	0x7
 1296 034b 7101     		.2byte	0x171
 1297 034d E8020000 		.4byte	0x2e8
 1298 0351 0C       		.byte	0xc
 1299 0352 08       		.uleb128 0x8
 1300 0353 C2050000 		.4byte	.LASF65
 1301 0357 07       		.byte	0x7
 1302 0358 7301     		.2byte	0x173
 1303 035a 04030000 		.4byte	0x304
 1304 035e 10       		.byte	0x10
 1305 035f 00       		.byte	0
 1306 0360 03       		.uleb128 0x3
 1307 0361 A7000000 		.4byte	.LASF66
 1308 0365 06       		.byte	0x6
 1309 0366 66       		.byte	0x66
 1310 0367 6B030000 		.4byte	0x36b
 1311 036b 0A       		.uleb128 0xa
 1312 036c 31030000 		.4byte	.LASF67
 1313 0370 10       		.byte	0x10
 1314 0371 07       		.byte	0x7
 1315 0372 7D01     		.2byte	0x17d
 1316 0374 AD030000 		.4byte	0x3ad
 1317 0378 08       		.uleb128 0x8
 1318 0379 F3010000 		.4byte	.LASF61
 1319 037d 07       		.byte	0x7
 1320 037e 7E01     		.2byte	0x17e
 1321 0380 23070000 		.4byte	0x723
 1322 0384 00       		.byte	0
 1323 0385 08       		.uleb128 0x8
 1324 0386 A3010000 		.4byte	.LASF62
 1325 038a 07       		.byte	0x7
 1326 038b 8001     		.2byte	0x180
 1327 038d 23070000 		.4byte	0x723
 1328 0391 04       		.byte	0x4
 1329 0392 08       		.uleb128 0x8
 1330 0393 18050000 		.4byte	.LASF63
 1331 0397 07       		.byte	0x7
ARM GAS  /tmp/ccDjVg0g.s 			page 49


 1332 0398 8201     		.2byte	0x182
 1333 039a 26010000 		.4byte	0x126
 1334 039e 08       		.byte	0x8
 1335 039f 08       		.uleb128 0x8
 1336 03a0 54030000 		.4byte	.LASF68
 1337 03a4 07       		.byte	0x7
 1338 03a5 8A01     		.2byte	0x18a
 1339 03a7 26010000 		.4byte	0x126
 1340 03ab 0C       		.byte	0xc
 1341 03ac 00       		.byte	0
 1342 03ad 03       		.uleb128 0x3
 1343 03ae 4C000000 		.4byte	.LASF69
 1344 03b2 06       		.byte	0x6
 1345 03b3 6B       		.byte	0x6b
 1346 03b4 B8030000 		.4byte	0x3b8
 1347 03b8 0A       		.uleb128 0xa
 1348 03b9 54040000 		.4byte	.LASF70
 1349 03bd 04       		.byte	0x4
 1350 03be 07       		.byte	0x7
 1351 03bf A401     		.2byte	0x1a4
 1352 03c1 D3030000 		.4byte	0x3d3
 1353 03c5 08       		.uleb128 0x8
 1354 03c6 A4050000 		.4byte	.LASF71
 1355 03ca 07       		.byte	0x7
 1356 03cb AC01     		.2byte	0x1ac
 1357 03cd 29070000 		.4byte	0x729
 1358 03d1 00       		.byte	0
 1359 03d2 00       		.byte	0
 1360 03d3 03       		.uleb128 0x3
 1361 03d4 A1020000 		.4byte	.LASF72
 1362 03d8 06       		.byte	0x6
 1363 03d9 70       		.byte	0x70
 1364 03da DE030000 		.4byte	0x3de
 1365 03de 0E       		.uleb128 0xe
 1366 03df BE040000 		.4byte	.LASF73
 1367 03e3 5001     		.2byte	0x150
 1368 03e5 07       		.byte	0x7
 1369 03e6 C401     		.2byte	0x1c4
 1370 03e8 3A040000 		.4byte	0x43a
 1371 03ec 08       		.uleb128 0x8
 1372 03ed AB010000 		.4byte	.LASF74
 1373 03f1 07       		.byte	0x7
 1374 03f2 C801     		.2byte	0x1c8
 1375 03f4 81020000 		.4byte	0x281
 1376 03f8 00       		.byte	0
 1377 03f9 08       		.uleb128 0x8
 1378 03fa 32010000 		.4byte	.LASF75
 1379 03fe 07       		.byte	0x7
 1380 03ff CC01     		.2byte	0x1cc
 1381 0401 60030000 		.4byte	0x360
 1382 0405 1C       		.byte	0x1c
 1383 0406 07       		.uleb128 0x7
 1384 0407 64626700 		.ascii	"dbg\000"
 1385 040b 07       		.byte	0x7
 1386 040c D001     		.2byte	0x1d0
 1387 040e AD030000 		.4byte	0x3ad
 1388 0412 2C       		.byte	0x2c
ARM GAS  /tmp/ccDjVg0g.s 			page 50


 1389 0413 08       		.uleb128 0x8
 1390 0414 94000000 		.4byte	.LASF76
 1391 0418 07       		.byte	0x7
 1392 0419 D401     		.2byte	0x1d4
 1393 041b 31010000 		.4byte	0x131
 1394 041f 30       		.byte	0x30
 1395 0420 07       		.uleb128 0x7
 1396 0421 746D00   		.ascii	"tm\000"
 1397 0424 07       		.byte	0x7
 1398 0425 D901     		.2byte	0x1d9
 1399 0427 35060000 		.4byte	0x635
 1400 042b 70       		.byte	0x70
 1401 042c 08       		.uleb128 0x8
 1402 042d BE010000 		.4byte	.LASF77
 1403 0431 07       		.byte	0x7
 1404 0432 E501     		.2byte	0x1e5
 1405 0434 2E070000 		.4byte	0x72e
 1406 0438 78       		.byte	0x78
 1407 0439 00       		.byte	0
 1408 043a 04       		.uleb128 0x4
 1409 043b 04       		.byte	0x4
 1410 043c 07       		.byte	0x7
 1411 043d 0A030000 		.4byte	.LASF78
 1412 0441 0F       		.uleb128 0xf
 1413 0442 B8000000 		.4byte	0xb8
 1414 0446 10       		.uleb128 0x10
 1415 0447 B8000000 		.4byte	0xb8
 1416 044b 56040000 		.4byte	0x456
 1417 044f 11       		.uleb128 0x11
 1418 0450 3A040000 		.4byte	0x43a
 1419 0454 03       		.byte	0x3
 1420 0455 00       		.byte	0
 1421 0456 12       		.uleb128 0x12
 1422 0457 38       		.byte	0x38
 1423 0458 08       		.byte	0x8
 1424 0459 7401     		.2byte	0x174
 1425 045b 15050000 		.4byte	0x515
 1426 045f 07       		.uleb128 0x7
 1427 0460 494D5200 		.ascii	"IMR\000"
 1428 0464 08       		.byte	0x8
 1429 0465 7601     		.2byte	0x176
 1430 0467 41040000 		.4byte	0x441
 1431 046b 00       		.byte	0
 1432 046c 07       		.uleb128 0x7
 1433 046d 454D5200 		.ascii	"EMR\000"
 1434 0471 08       		.byte	0x8
 1435 0472 7701     		.2byte	0x177
 1436 0474 41040000 		.4byte	0x441
 1437 0478 04       		.byte	0x4
 1438 0479 08       		.uleb128 0x8
 1439 047a 05040000 		.4byte	.LASF79
 1440 047e 08       		.byte	0x8
 1441 047f 7801     		.2byte	0x178
 1442 0481 41040000 		.4byte	0x441
 1443 0485 08       		.byte	0x8
 1444 0486 08       		.uleb128 0x8
 1445 0487 80040000 		.4byte	.LASF80
ARM GAS  /tmp/ccDjVg0g.s 			page 51


 1446 048b 08       		.byte	0x8
 1447 048c 7901     		.2byte	0x179
 1448 048e 41040000 		.4byte	0x441
 1449 0492 0C       		.byte	0xc
 1450 0493 08       		.uleb128 0x8
 1451 0494 61000000 		.4byte	.LASF81
 1452 0498 08       		.byte	0x8
 1453 0499 7A01     		.2byte	0x17a
 1454 049b 41040000 		.4byte	0x441
 1455 049f 10       		.byte	0x10
 1456 04a0 07       		.uleb128 0x7
 1457 04a1 505200   		.ascii	"PR\000"
 1458 04a4 08       		.byte	0x8
 1459 04a5 7B01     		.2byte	0x17b
 1460 04a7 41040000 		.4byte	0x441
 1461 04ab 14       		.byte	0x14
 1462 04ac 08       		.uleb128 0x8
 1463 04ad 21040000 		.4byte	.LASF82
 1464 04b1 08       		.byte	0x8
 1465 04b2 7C01     		.2byte	0x17c
 1466 04b4 B8000000 		.4byte	0xb8
 1467 04b8 18       		.byte	0x18
 1468 04b9 08       		.uleb128 0x8
 1469 04ba 2B040000 		.4byte	.LASF83
 1470 04be 08       		.byte	0x8
 1471 04bf 7D01     		.2byte	0x17d
 1472 04c1 B8000000 		.4byte	0xb8
 1473 04c5 1C       		.byte	0x1c
 1474 04c6 08       		.uleb128 0x8
 1475 04c7 FB020000 		.4byte	.LASF84
 1476 04cb 08       		.byte	0x8
 1477 04cc 7E01     		.2byte	0x17e
 1478 04ce 41040000 		.4byte	0x441
 1479 04d2 20       		.byte	0x20
 1480 04d3 08       		.uleb128 0x8
 1481 04d4 BD050000 		.4byte	.LASF85
 1482 04d8 08       		.byte	0x8
 1483 04d9 7F01     		.2byte	0x17f
 1484 04db 41040000 		.4byte	0x441
 1485 04df 24       		.byte	0x24
 1486 04e0 08       		.uleb128 0x8
 1487 04e1 B5020000 		.4byte	.LASF86
 1488 04e5 08       		.byte	0x8
 1489 04e6 8001     		.2byte	0x180
 1490 04e8 41040000 		.4byte	0x441
 1491 04ec 28       		.byte	0x28
 1492 04ed 08       		.uleb128 0x8
 1493 04ee 5B000000 		.4byte	.LASF87
 1494 04f2 08       		.byte	0x8
 1495 04f3 8101     		.2byte	0x181
 1496 04f5 41040000 		.4byte	0x441
 1497 04f9 2C       		.byte	0x2c
 1498 04fa 08       		.uleb128 0x8
 1499 04fb CA000000 		.4byte	.LASF88
 1500 04ff 08       		.byte	0x8
 1501 0500 8201     		.2byte	0x182
 1502 0502 41040000 		.4byte	0x441
ARM GAS  /tmp/ccDjVg0g.s 			page 52


 1503 0506 30       		.byte	0x30
 1504 0507 07       		.uleb128 0x7
 1505 0508 50523200 		.ascii	"PR2\000"
 1506 050c 08       		.byte	0x8
 1507 050d 8301     		.2byte	0x183
 1508 050f 41040000 		.4byte	0x441
 1509 0513 34       		.byte	0x34
 1510 0514 00       		.byte	0
 1511 0515 13       		.uleb128 0x13
 1512 0516 04070000 		.4byte	.LASF89
 1513 051a 08       		.byte	0x8
 1514 051b 8401     		.2byte	0x184
 1515 051d 56040000 		.4byte	0x456
 1516 0521 12       		.uleb128 0x12
 1517 0522 1C       		.byte	0x1c
 1518 0523 08       		.byte	0x8
 1519 0524 C601     		.2byte	0x1c6
 1520 0526 5F050000 		.4byte	0x55f
 1521 052a 08       		.uleb128 0x8
 1522 052b F3050000 		.4byte	.LASF90
 1523 052f 08       		.byte	0x8
 1524 0530 C801     		.2byte	0x1c8
 1525 0532 41040000 		.4byte	0x441
 1526 0536 00       		.byte	0
 1527 0537 07       		.uleb128 0x7
 1528 0538 52435200 		.ascii	"RCR\000"
 1529 053c 08       		.byte	0x8
 1530 053d C901     		.2byte	0x1c9
 1531 053f 41040000 		.4byte	0x441
 1532 0543 04       		.byte	0x4
 1533 0544 08       		.uleb128 0x8
 1534 0545 2D070000 		.4byte	.LASF91
 1535 0549 08       		.byte	0x8
 1536 054a CA01     		.2byte	0x1ca
 1537 054c 5F050000 		.4byte	0x55f
 1538 0550 08       		.byte	0x8
 1539 0551 08       		.uleb128 0x8
 1540 0552 F9050000 		.4byte	.LASF92
 1541 0556 08       		.byte	0x8
 1542 0557 CB01     		.2byte	0x1cb
 1543 0559 41040000 		.4byte	0x441
 1544 055d 18       		.byte	0x18
 1545 055e 00       		.byte	0
 1546 055f 0F       		.uleb128 0xf
 1547 0560 46040000 		.4byte	0x446
 1548 0564 13       		.uleb128 0x13
 1549 0565 0A040000 		.4byte	.LASF93
 1550 0569 08       		.byte	0x8
 1551 056a CC01     		.2byte	0x1cc
 1552 056c 21050000 		.4byte	0x521
 1553 0570 03       		.uleb128 0x3
 1554 0571 9A010000 		.4byte	.LASF94
 1555 0575 09       		.byte	0x9
 1556 0576 65       		.byte	0x65
 1557 0577 04030000 		.4byte	0x304
 1558 057b 03       		.uleb128 0x3
 1559 057c DF020000 		.4byte	.LASF95
ARM GAS  /tmp/ccDjVg0g.s 			page 53


 1560 0580 09       		.byte	0x9
 1561 0581 6D       		.byte	0x6d
 1562 0582 C3000000 		.4byte	0xc3
 1563 0586 05       		.uleb128 0x5
 1564 0587 21020000 		.4byte	.LASF96
 1565 058b 04       		.byte	0x4
 1566 058c 09       		.byte	0x9
 1567 058d 89       		.byte	0x89
 1568 058e 9F050000 		.4byte	0x59f
 1569 0592 14       		.uleb128 0x14
 1570 0593 72313300 		.ascii	"r13\000"
 1571 0597 09       		.byte	0x9
 1572 0598 8A       		.byte	0x8a
 1573 0599 1A060000 		.4byte	0x61a
 1574 059d 00       		.byte	0
 1575 059e 00       		.byte	0
 1576 059f 05       		.uleb128 0x5
 1577 05a0 40000000 		.4byte	.LASF97
 1578 05a4 24       		.byte	0x24
 1579 05a5 0A       		.byte	0xa
 1580 05a6 FD       		.byte	0xfd
 1581 05a7 1A060000 		.4byte	0x61a
 1582 05ab 07       		.uleb128 0x7
 1583 05ac 723400   		.ascii	"r4\000"
 1584 05af 0A       		.byte	0xa
 1585 05b0 1001     		.2byte	0x110
 1586 05b2 70050000 		.4byte	0x570
 1587 05b6 00       		.byte	0
 1588 05b7 07       		.uleb128 0x7
 1589 05b8 723500   		.ascii	"r5\000"
 1590 05bb 0A       		.byte	0xa
 1591 05bc 1101     		.2byte	0x111
 1592 05be 70050000 		.4byte	0x570
 1593 05c2 04       		.byte	0x4
 1594 05c3 07       		.uleb128 0x7
 1595 05c4 723600   		.ascii	"r6\000"
 1596 05c7 0A       		.byte	0xa
 1597 05c8 1201     		.2byte	0x112
 1598 05ca 70050000 		.4byte	0x570
 1599 05ce 08       		.byte	0x8
 1600 05cf 07       		.uleb128 0x7
 1601 05d0 723700   		.ascii	"r7\000"
 1602 05d3 0A       		.byte	0xa
 1603 05d4 1301     		.2byte	0x113
 1604 05d6 70050000 		.4byte	0x570
 1605 05da 0C       		.byte	0xc
 1606 05db 07       		.uleb128 0x7
 1607 05dc 723800   		.ascii	"r8\000"
 1608 05df 0A       		.byte	0xa
 1609 05e0 1401     		.2byte	0x114
 1610 05e2 70050000 		.4byte	0x570
 1611 05e6 10       		.byte	0x10
 1612 05e7 07       		.uleb128 0x7
 1613 05e8 723900   		.ascii	"r9\000"
 1614 05eb 0A       		.byte	0xa
 1615 05ec 1501     		.2byte	0x115
 1616 05ee 70050000 		.4byte	0x570
ARM GAS  /tmp/ccDjVg0g.s 			page 54


 1617 05f2 14       		.byte	0x14
 1618 05f3 07       		.uleb128 0x7
 1619 05f4 72313000 		.ascii	"r10\000"
 1620 05f8 0A       		.byte	0xa
 1621 05f9 1601     		.2byte	0x116
 1622 05fb 70050000 		.4byte	0x570
 1623 05ff 18       		.byte	0x18
 1624 0600 07       		.uleb128 0x7
 1625 0601 72313100 		.ascii	"r11\000"
 1626 0605 0A       		.byte	0xa
 1627 0606 1701     		.2byte	0x117
 1628 0608 70050000 		.4byte	0x570
 1629 060c 1C       		.byte	0x1c
 1630 060d 07       		.uleb128 0x7
 1631 060e 6C7200   		.ascii	"lr\000"
 1632 0611 0A       		.byte	0xa
 1633 0612 1801     		.2byte	0x118
 1634 0614 70050000 		.4byte	0x570
 1635 0618 20       		.byte	0x20
 1636 0619 00       		.byte	0
 1637 061a 09       		.uleb128 0x9
 1638 061b 04       		.byte	0x4
 1639 061c 9F050000 		.4byte	0x59f
 1640 0620 15       		.uleb128 0x15
 1641 0621 04       		.byte	0x4
 1642 0622 0B       		.byte	0xb
 1643 0623 38       		.byte	0x38
 1644 0624 35060000 		.4byte	0x635
 1645 0628 06       		.uleb128 0x6
 1646 0629 AE050000 		.4byte	.LASF98
 1647 062d 0B       		.byte	0xb
 1648 062e 3C       		.byte	0x3c
 1649 062f CE000000 		.4byte	0xce
 1650 0633 00       		.byte	0
 1651 0634 00       		.byte	0
 1652 0635 03       		.uleb128 0x3
 1653 0636 CC030000 		.4byte	.LASF99
 1654 063a 0B       		.byte	0xb
 1655 063b 3D       		.byte	0x3d
 1656 063c 20060000 		.4byte	0x620
 1657 0640 16       		.uleb128 0x16
 1658 0641 04       		.byte	0x4
 1659 0642 07       		.byte	0x7
 1660 0643 FA       		.byte	0xfa
 1661 0644 A9060000 		.4byte	0x6a9
 1662 0648 17       		.uleb128 0x17
 1663 0649 C8040000 		.4byte	.LASF100
 1664 064d 07       		.byte	0x7
 1665 064e 0101     		.2byte	0x101
 1666 0650 05010000 		.4byte	0x105
 1667 0654 17       		.uleb128 0x17
 1668 0655 8B000000 		.4byte	.LASF101
 1669 0659 07       		.byte	0x7
 1670 065a 0801     		.2byte	0x108
 1671 065c 05010000 		.4byte	0x105
 1672 0660 17       		.uleb128 0x17
 1673 0661 E7060000 		.4byte	.LASF102
ARM GAS  /tmp/ccDjVg0g.s 			page 55


 1674 0665 07       		.byte	0x7
 1675 0666 0F01     		.2byte	0x10f
 1676 0668 04030000 		.4byte	0x304
 1677 066c 17       		.uleb128 0x17
 1678 066d 48030000 		.4byte	.LASF103
 1679 0671 07       		.byte	0x7
 1680 0672 1601     		.2byte	0x116
 1681 0674 A9060000 		.4byte	0x6a9
 1682 0678 17       		.uleb128 0x17
 1683 0679 9F000000 		.4byte	.LASF104
 1684 067d 07       		.byte	0x7
 1685 067e 1B01     		.2byte	0x11b
 1686 0680 05010000 		.4byte	0x105
 1687 0684 17       		.uleb128 0x17
 1688 0685 FB010000 		.4byte	.LASF105
 1689 0689 07       		.byte	0x7
 1690 068a 2401     		.2byte	0x124
 1691 068c D4060000 		.4byte	0x6d4
 1692 0690 17       		.uleb128 0x17
 1693 0691 09050000 		.4byte	.LASF106
 1694 0695 07       		.byte	0x7
 1695 0696 2D01     		.2byte	0x12d
 1696 0698 0B070000 		.4byte	0x70b
 1697 069c 17       		.uleb128 0x17
 1698 069d A8040000 		.4byte	.LASF107
 1699 06a1 07       		.byte	0x7
 1700 06a2 3501     		.2byte	0x135
 1701 06a4 10010000 		.4byte	0x110
 1702 06a8 00       		.byte	0
 1703 06a9 09       		.uleb128 0x9
 1704 06aa 04       		.byte	0x4
 1705 06ab 1C020000 		.4byte	0x21c
 1706 06af 05       		.uleb128 0x5
 1707 06b0 E8040000 		.4byte	.LASF108
 1708 06b4 0C       		.byte	0xc
 1709 06b5 0C       		.byte	0xc
 1710 06b6 34       		.byte	0x34
 1711 06b7 D4060000 		.4byte	0x6d4
 1712 06bb 06       		.uleb128 0x6
 1713 06bc 6F010000 		.4byte	.LASF109
 1714 06c0 0C       		.byte	0xc
 1715 06c1 35       		.byte	0x35
 1716 06c2 51020000 		.4byte	0x251
 1717 06c6 00       		.byte	0
 1718 06c7 06       		.uleb128 0x6
 1719 06c8 1B020000 		.4byte	.LASF110
 1720 06cc 0C       		.byte	0xc
 1721 06cd 37       		.byte	0x37
 1722 06ce 1B010000 		.4byte	0x11b
 1723 06d2 08       		.byte	0x8
 1724 06d3 00       		.byte	0
 1725 06d4 09       		.uleb128 0x9
 1726 06d5 04       		.byte	0x4
 1727 06d6 AF060000 		.4byte	0x6af
 1728 06da 05       		.uleb128 0x5
 1729 06db E3050000 		.4byte	.LASF111
 1730 06df 10       		.byte	0x10
ARM GAS  /tmp/ccDjVg0g.s 			page 56


 1731 06e0 0D       		.byte	0xd
 1732 06e1 39       		.byte	0x39
 1733 06e2 0B070000 		.4byte	0x70b
 1734 06e6 06       		.uleb128 0x6
 1735 06e7 2A010000 		.4byte	.LASF112
 1736 06eb 0D       		.byte	0xd
 1737 06ec 3A       		.byte	0x3a
 1738 06ed 51020000 		.4byte	0x251
 1739 06f1 00       		.byte	0
 1740 06f2 06       		.uleb128 0x6
 1741 06f3 17070000 		.4byte	.LASF113
 1742 06f7 0D       		.byte	0xd
 1743 06f8 3C       		.byte	0x3c
 1744 06f9 27020000 		.4byte	0x227
 1745 06fd 08       		.byte	0x8
 1746 06fe 06       		.uleb128 0x6
 1747 06ff 74050000 		.4byte	.LASF114
 1748 0703 0D       		.byte	0xd
 1749 0704 3E       		.byte	0x3e
 1750 0705 49070000 		.4byte	0x749
 1751 0709 0C       		.byte	0xc
 1752 070a 00       		.byte	0
 1753 070b 09       		.uleb128 0x9
 1754 070c 04       		.byte	0x4
 1755 070d DA060000 		.4byte	0x6da
 1756 0711 09       		.uleb128 0x9
 1757 0712 04       		.byte	0x4
 1758 0713 17070000 		.4byte	0x717
 1759 0717 18       		.uleb128 0x18
 1760 0718 1C070000 		.4byte	0x71c
 1761 071c 04       		.uleb128 0x4
 1762 071d 01       		.byte	0x1
 1763 071e 08       		.byte	0x8
 1764 071f 4C050000 		.4byte	.LASF115
 1765 0723 09       		.uleb128 0x9
 1766 0724 04       		.byte	0x4
 1767 0725 06030000 		.4byte	0x306
 1768 0729 0F       		.uleb128 0xf
 1769 072a 11070000 		.4byte	0x711
 1770 072e 10       		.uleb128 0x10
 1771 072f 7B050000 		.4byte	0x57b
 1772 0733 3E070000 		.4byte	0x73e
 1773 0737 11       		.uleb128 0x11
 1774 0738 3A040000 		.4byte	0x43a
 1775 073c 1A       		.byte	0x1a
 1776 073d 00       		.byte	0
 1777 073e 03       		.uleb128 0x3
 1778 073f B6010000 		.4byte	.LASF116
 1779 0743 0D       		.byte	0xd
 1780 0744 34       		.byte	0x34
 1781 0745 DA060000 		.4byte	0x6da
 1782 0749 09       		.uleb128 0x9
 1783 074a 04       		.byte	0x4
 1784 074b 3E070000 		.4byte	0x73e
 1785 074f 04       		.uleb128 0x4
 1786 0750 01       		.byte	0x1
 1787 0751 02       		.byte	0x2
ARM GAS  /tmp/ccDjVg0g.s 			page 57


 1788 0752 64040000 		.4byte	.LASF117
 1789 0756 19       		.uleb128 0x19
 1790 0757 01       		.byte	0x1
 1791 0758 0E       		.byte	0xe
 1792 0759 3F       		.byte	0x3f
 1793 075a 71070000 		.4byte	0x771
 1794 075e 1A       		.uleb128 0x1a
 1795 075f DD030000 		.4byte	.LASF118
 1796 0763 00       		.sleb128 0
 1797 0764 1A       		.uleb128 0x1a
 1798 0765 43050000 		.4byte	.LASF119
 1799 0769 01       		.sleb128 1
 1800 076a 1A       		.uleb128 0x1a
 1801 076b EA020000 		.4byte	.LASF120
 1802 076f 02       		.sleb128 2
 1803 0770 00       		.byte	0
 1804 0771 03       		.uleb128 0x3
 1805 0772 26030000 		.4byte	.LASF121
 1806 0776 0E       		.byte	0xe
 1807 0777 43       		.byte	0x43
 1808 0778 56070000 		.4byte	0x756
 1809 077c 03       		.uleb128 0x3
 1810 077d C9050000 		.4byte	.LASF122
 1811 0781 0E       		.byte	0xe
 1812 0782 48       		.byte	0x48
 1813 0783 87070000 		.4byte	0x787
 1814 0787 05       		.uleb128 0x5
 1815 0788 C9050000 		.4byte	.LASF122
 1816 078c 08       		.byte	0x8
 1817 078d 0F       		.byte	0xf
 1818 078e 73       		.byte	0x73
 1819 078f AC070000 		.4byte	0x7ac
 1820 0793 06       		.uleb128 0x6
 1821 0794 46010000 		.4byte	.LASF123
 1822 0798 0F       		.byte	0xf
 1823 0799 77       		.byte	0x77
 1824 079a 71070000 		.4byte	0x771
 1825 079e 00       		.byte	0
 1826 079f 06       		.uleb128 0x6
 1827 07a0 56050000 		.4byte	.LASF124
 1828 07a4 0F       		.byte	0xf
 1829 07a5 7B       		.byte	0x7b
 1830 07a6 3A080000 		.4byte	0x83a
 1831 07aa 04       		.byte	0x4
 1832 07ab 00       		.byte	0
 1833 07ac 03       		.uleb128 0x3
 1834 07ad 33000000 		.4byte	.LASF125
 1835 07b1 0F       		.byte	0xf
 1836 07b2 49       		.byte	0x49
 1837 07b3 B8000000 		.4byte	0xb8
 1838 07b7 03       		.uleb128 0x3
 1839 07b8 5D050000 		.4byte	.LASF126
 1840 07bc 0F       		.byte	0xf
 1841 07bd 51       		.byte	0x51
 1842 07be C2070000 		.4byte	0x7c2
 1843 07c2 09       		.uleb128 0x9
 1844 07c3 04       		.byte	0x4
ARM GAS  /tmp/ccDjVg0g.s 			page 58


 1845 07c4 C8070000 		.4byte	0x7c8
 1846 07c8 0B       		.uleb128 0xb
 1847 07c9 D8070000 		.4byte	0x7d8
 1848 07cd 0C       		.uleb128 0xc
 1849 07ce D8070000 		.4byte	0x7d8
 1850 07d2 0C       		.uleb128 0xc
 1851 07d3 AC070000 		.4byte	0x7ac
 1852 07d7 00       		.byte	0
 1853 07d8 09       		.uleb128 0x9
 1854 07d9 04       		.byte	0x4
 1855 07da 7C070000 		.4byte	0x77c
 1856 07de 15       		.uleb128 0x15
 1857 07df 08       		.byte	0x8
 1858 07e0 0F       		.byte	0xf
 1859 07e1 56       		.byte	0x56
 1860 07e2 FE070000 		.4byte	0x7fe
 1861 07e6 06       		.uleb128 0x6
 1862 07e7 51050000 		.4byte	.LASF127
 1863 07eb 0F       		.byte	0xf
 1864 07ec 5A       		.byte	0x5a
 1865 07ed B8000000 		.4byte	0xb8
 1866 07f1 00       		.byte	0
 1867 07f2 14       		.uleb128 0x14
 1868 07f3 636200   		.ascii	"cb\000"
 1869 07f6 0F       		.byte	0xf
 1870 07f7 61       		.byte	0x61
 1871 07f8 B7070000 		.4byte	0x7b7
 1872 07fc 04       		.byte	0x4
 1873 07fd 00       		.byte	0
 1874 07fe 03       		.uleb128 0x3
 1875 07ff 77010000 		.4byte	.LASF128
 1876 0803 0F       		.byte	0xf
 1877 0804 62       		.byte	0x62
 1878 0805 DE070000 		.4byte	0x7de
 1879 0809 1B       		.uleb128 0x1b
 1880 080a 1001     		.2byte	0x110
 1881 080c 0F       		.byte	0xf
 1882 080d 68       		.byte	0x68
 1883 080e 1F080000 		.4byte	0x81f
 1884 0812 06       		.uleb128 0x6
 1885 0813 4C010000 		.4byte	.LASF129
 1886 0817 0F       		.byte	0xf
 1887 0818 6C       		.byte	0x6c
 1888 0819 1F080000 		.4byte	0x81f
 1889 081d 00       		.byte	0
 1890 081e 00       		.byte	0
 1891 081f 10       		.uleb128 0x10
 1892 0820 FE070000 		.4byte	0x7fe
 1893 0824 2F080000 		.4byte	0x82f
 1894 0828 11       		.uleb128 0x11
 1895 0829 3A040000 		.4byte	0x43a
 1896 082d 21       		.byte	0x21
 1897 082e 00       		.byte	0
 1898 082f 03       		.uleb128 0x3
 1899 0830 5E020000 		.4byte	.LASF130
 1900 0834 0F       		.byte	0xf
 1901 0835 6E       		.byte	0x6e
ARM GAS  /tmp/ccDjVg0g.s 			page 59


 1902 0836 09080000 		.4byte	0x809
 1903 083a 09       		.uleb128 0x9
 1904 083b 04       		.byte	0x4
 1905 083c 40080000 		.4byte	0x840
 1906 0840 18       		.uleb128 0x18
 1907 0841 2F080000 		.4byte	0x82f
 1908 0845 1C       		.uleb128 0x1c
 1909 0846 39010000 		.4byte	.LASF131
 1910 084a 01       		.byte	0x1
 1911 084b 48       		.byte	0x48
 1912 084c 00000000 		.4byte	.LFB272
 1913 0850 0C000000 		.4byte	.LFE272-.LFB272
 1914 0854 01       		.uleb128 0x1
 1915 0855 9C       		.byte	0x9c
 1916 0856 6E080000 		.4byte	0x86e
 1917 085a 1D       		.uleb128 0x1d
 1918 085b 06000000 		.4byte	.LVL0
 1919 085f E2090000 		.4byte	0x9e2
 1920 0863 1E       		.uleb128 0x1e
 1921 0864 01       		.uleb128 0x1
 1922 0865 50       		.byte	0x50
 1923 0866 05       		.uleb128 0x5
 1924 0867 03       		.byte	0x3
 1925 0868 00000000 		.4byte	.LANCHOR0
 1926 086c 00       		.byte	0
 1927 086d 00       		.byte	0
 1928 086e 1C       		.uleb128 0x1c
 1929 086f 7E000000 		.4byte	.LASF132
 1930 0873 01       		.byte	0x1
 1931 0874 6A       		.byte	0x6a
 1932 0875 00000000 		.4byte	.LFB274
 1933 0879 30000000 		.4byte	.LFE274-.LFB274
 1934 087d 01       		.uleb128 0x1
 1935 087e 9C       		.byte	0x9c
 1936 087f 9C080000 		.4byte	0x89c
 1937 0883 1F       		.uleb128 0x1f
 1938 0884 0F010000 		.4byte	.LASF134
 1939 0888 01       		.byte	0x1
 1940 0889 6A       		.byte	0x6a
 1941 088a D8070000 		.4byte	0x7d8
 1942 088e 00000000 		.4byte	.LLST0
 1943 0892 20       		.uleb128 0x20
 1944 0893 2A000000 		.4byte	.LVL4
 1945 0897 F3090000 		.4byte	0x9f3
 1946 089b 00       		.byte	0
 1947 089c 1C       		.uleb128 0x1c
 1948 089d B5030000 		.4byte	.LASF133
 1949 08a1 01       		.byte	0x1
 1950 08a2 80       		.byte	0x80
 1951 08a3 00000000 		.4byte	.LFB275
 1952 08a7 04010000 		.4byte	.LFE275-.LFB275
 1953 08ab 01       		.uleb128 0x1
 1954 08ac 9C       		.byte	0x9c
 1955 08ad 14090000 		.4byte	0x914
 1956 08b1 1F       		.uleb128 0x1f
 1957 08b2 0F010000 		.4byte	.LASF134
 1958 08b6 01       		.byte	0x1
ARM GAS  /tmp/ccDjVg0g.s 			page 60


 1959 08b7 80       		.byte	0x80
 1960 08b8 D8070000 		.4byte	0x7d8
 1961 08bc 3A000000 		.4byte	.LLST1
 1962 08c0 1F       		.uleb128 0x1f
 1963 08c1 CF040000 		.4byte	.LASF135
 1964 08c5 01       		.byte	0x1
 1965 08c6 80       		.byte	0x80
 1966 08c7 AC070000 		.4byte	0x7ac
 1967 08cb 74000000 		.4byte	.LLST2
 1968 08cf 21       		.uleb128 0x21
 1969 08d0 F5020000 		.4byte	.LASF136
 1970 08d4 01       		.byte	0x1
 1971 08d5 81       		.byte	0x81
 1972 08d6 B8000000 		.4byte	0xb8
 1973 08da AE000000 		.4byte	.LLST3
 1974 08de 22       		.uleb128 0x22
 1975 08df 14000000 		.4byte	.LBB2
 1976 08e3 2A000000 		.4byte	.LBE2-.LBB2
 1977 08e7 23       		.uleb128 0x23
 1978 08e8 6E00     		.ascii	"n\000"
 1979 08ea 01       		.byte	0x1
 1980 08eb 85       		.byte	0x85
 1981 08ec B8000000 		.4byte	0xb8
 1982 08f0 2A010000 		.4byte	.LLST4
 1983 08f4 21       		.uleb128 0x21
 1984 08f5 95010000 		.4byte	.LASF137
 1985 08f9 01       		.byte	0x1
 1986 08fa 86       		.byte	0x86
 1987 08fb B8000000 		.4byte	0xb8
 1988 08ff 41010000 		.4byte	.LLST5
 1989 0903 21       		.uleb128 0x21
 1990 0904 B1010000 		.4byte	.LASF138
 1991 0908 01       		.byte	0x1
 1992 0909 87       		.byte	0x87
 1993 090a B8000000 		.4byte	0xb8
 1994 090e 6D010000 		.4byte	.LLST6
 1995 0912 00       		.byte	0
 1996 0913 00       		.byte	0
 1997 0914 1C       		.uleb128 0x1c
 1998 0915 E2000000 		.4byte	.LASF139
 1999 0919 01       		.byte	0x1
 2000 091a D4       		.byte	0xd4
 2001 091b 00000000 		.4byte	.LFB276
 2002 091f 50000000 		.4byte	.LFE276-.LFB276
 2003 0923 01       		.uleb128 0x1
 2004 0924 9C       		.byte	0x9c
 2005 0925 55090000 		.4byte	0x955
 2006 0929 1F       		.uleb128 0x1f
 2007 092a 0F010000 		.4byte	.LASF134
 2008 092e 01       		.byte	0x1
 2009 092f D4       		.byte	0xd4
 2010 0930 D8070000 		.4byte	0x7d8
 2011 0934 CC010000 		.4byte	.LLST7
 2012 0938 1F       		.uleb128 0x1f
 2013 0939 CF040000 		.4byte	.LASF135
 2014 093d 01       		.byte	0x1
 2015 093e D4       		.byte	0xd4
ARM GAS  /tmp/ccDjVg0g.s 			page 61


 2016 093f AC070000 		.4byte	0x7ac
 2017 0943 ED010000 		.4byte	.LLST8
 2018 0947 24       		.uleb128 0x24
 2019 0948 F5020000 		.4byte	.LASF136
 2020 094c 01       		.byte	0x1
 2021 094d D5       		.byte	0xd5
 2022 094e B8000000 		.4byte	0xb8
 2023 0952 01       		.uleb128 0x1
 2024 0953 50       		.byte	0x50
 2025 0954 00       		.byte	0
 2026 0955 1C       		.uleb128 0x1c
 2027 0956 0D020000 		.4byte	.LASF140
 2028 095a 01       		.byte	0x1
 2029 095b 55       		.byte	0x55
 2030 095c 00000000 		.4byte	.LFB273
 2031 0960 3A000000 		.4byte	.LFE273-.LFB273
 2032 0964 01       		.uleb128 0x1
 2033 0965 9C       		.byte	0x9c
 2034 0966 B5090000 		.4byte	0x9b5
 2035 096a 1F       		.uleb128 0x1f
 2036 096b 0F010000 		.4byte	.LASF134
 2037 096f 01       		.byte	0x1
 2038 0970 55       		.byte	0x55
 2039 0971 D8070000 		.4byte	0x7d8
 2040 0975 27020000 		.4byte	.LLST9
 2041 0979 21       		.uleb128 0x21
 2042 097a 88010000 		.4byte	.LASF141
 2043 097e 01       		.byte	0x1
 2044 097f 56       		.byte	0x56
 2045 0980 AC070000 		.4byte	0x7ac
 2046 0984 87020000 		.4byte	.LLST10
 2047 0988 20       		.uleb128 0x20
 2048 0989 14000000 		.4byte	.LVL32
 2049 098d 9C080000 		.4byte	0x89c
 2050 0991 25       		.uleb128 0x25
 2051 0992 2E000000 		.4byte	.LVL36
 2052 0996 14090000 		.4byte	0x914
 2053 099a AB090000 		.4byte	0x9ab
 2054 099e 1E       		.uleb128 0x1e
 2055 099f 01       		.uleb128 0x1
 2056 09a0 51       		.byte	0x51
 2057 09a1 02       		.uleb128 0x2
 2058 09a2 74       		.byte	0x74
 2059 09a3 7F       		.sleb128 -1
 2060 09a4 1E       		.uleb128 0x1e
 2061 09a5 01       		.uleb128 0x1
 2062 09a6 50       		.byte	0x50
 2063 09a7 02       		.uleb128 0x2
 2064 09a8 75       		.byte	0x75
 2065 09a9 00       		.sleb128 0
 2066 09aa 00       		.byte	0
 2067 09ab 20       		.uleb128 0x20
 2068 09ac 38000000 		.4byte	.LVL38
 2069 09b0 FA090000 		.4byte	0x9fa
 2070 09b4 00       		.byte	0
 2071 09b5 26       		.uleb128 0x26
 2072 09b6 BD000000 		.4byte	.LASF142
ARM GAS  /tmp/ccDjVg0g.s 			page 62


 2073 09ba 10       		.byte	0x10
 2074 09bb FA06     		.2byte	0x6fa
 2075 09bd C1090000 		.4byte	0x9c1
 2076 09c1 0F       		.uleb128 0xf
 2077 09c2 AD000000 		.4byte	0xad
 2078 09c6 27       		.uleb128 0x27
 2079 09c7 636800   		.ascii	"ch\000"
 2080 09ca 07       		.byte	0x7
 2081 09cb 0B02     		.2byte	0x20b
 2082 09cd D3030000 		.4byte	0x3d3
 2083 09d1 28       		.uleb128 0x28
 2084 09d2 11070000 		.4byte	.LASF143
 2085 09d6 01       		.byte	0x1
 2086 09d7 31       		.byte	0x31
 2087 09d8 7C070000 		.4byte	0x77c
 2088 09dc 05       		.uleb128 0x5
 2089 09dd 03       		.byte	0x3
 2090 09de 00000000 		.4byte	EXTD1
 2091 09e2 29       		.uleb128 0x29
 2092 09e3 14010000 		.4byte	.LASF149
 2093 09e7 0E       		.byte	0xe
 2094 09e8 86       		.byte	0x86
 2095 09e9 F3090000 		.4byte	0x9f3
 2096 09ed 0C       		.uleb128 0xc
 2097 09ee D8070000 		.4byte	0x7d8
 2098 09f2 00       		.byte	0
 2099 09f3 2A       		.uleb128 0x2a
 2100 09f4 CD010000 		.4byte	.LASF144
 2101 09f8 11       		.byte	0x11
 2102 09f9 A8       		.byte	0xa8
 2103 09fa 2A       		.uleb128 0x2a
 2104 09fb 3C020000 		.4byte	.LASF145
 2105 09ff 11       		.byte	0x11
 2106 0a00 A7       		.byte	0xa7
 2107 0a01 00       		.byte	0
 2108              		.section	.debug_abbrev,"",%progbits
 2109              	.Ldebug_abbrev0:
 2110 0000 01       		.uleb128 0x1
 2111 0001 11       		.uleb128 0x11
 2112 0002 01       		.byte	0x1
 2113 0003 25       		.uleb128 0x25
 2114 0004 0E       		.uleb128 0xe
 2115 0005 13       		.uleb128 0x13
 2116 0006 0B       		.uleb128 0xb
 2117 0007 03       		.uleb128 0x3
 2118 0008 0E       		.uleb128 0xe
 2119 0009 1B       		.uleb128 0x1b
 2120 000a 0E       		.uleb128 0xe
 2121 000b 55       		.uleb128 0x55
 2122 000c 17       		.uleb128 0x17
 2123 000d 11       		.uleb128 0x11
 2124 000e 01       		.uleb128 0x1
 2125 000f 10       		.uleb128 0x10
 2126 0010 17       		.uleb128 0x17
 2127 0011 00       		.byte	0
 2128 0012 00       		.byte	0
 2129 0013 02       		.uleb128 0x2
ARM GAS  /tmp/ccDjVg0g.s 			page 63


 2130 0014 24       		.uleb128 0x24
 2131 0015 00       		.byte	0
 2132 0016 0B       		.uleb128 0xb
 2133 0017 0B       		.uleb128 0xb
 2134 0018 3E       		.uleb128 0x3e
 2135 0019 0B       		.uleb128 0xb
 2136 001a 03       		.uleb128 0x3
 2137 001b 08       		.uleb128 0x8
 2138 001c 00       		.byte	0
 2139 001d 00       		.byte	0
 2140 001e 03       		.uleb128 0x3
 2141 001f 16       		.uleb128 0x16
 2142 0020 00       		.byte	0
 2143 0021 03       		.uleb128 0x3
 2144 0022 0E       		.uleb128 0xe
 2145 0023 3A       		.uleb128 0x3a
 2146 0024 0B       		.uleb128 0xb
 2147 0025 3B       		.uleb128 0x3b
 2148 0026 0B       		.uleb128 0xb
 2149 0027 49       		.uleb128 0x49
 2150 0028 13       		.uleb128 0x13
 2151 0029 00       		.byte	0
 2152 002a 00       		.byte	0
 2153 002b 04       		.uleb128 0x4
 2154 002c 24       		.uleb128 0x24
 2155 002d 00       		.byte	0
 2156 002e 0B       		.uleb128 0xb
 2157 002f 0B       		.uleb128 0xb
 2158 0030 3E       		.uleb128 0x3e
 2159 0031 0B       		.uleb128 0xb
 2160 0032 03       		.uleb128 0x3
 2161 0033 0E       		.uleb128 0xe
 2162 0034 00       		.byte	0
 2163 0035 00       		.byte	0
 2164 0036 05       		.uleb128 0x5
 2165 0037 13       		.uleb128 0x13
 2166 0038 01       		.byte	0x1
 2167 0039 03       		.uleb128 0x3
 2168 003a 0E       		.uleb128 0xe
 2169 003b 0B       		.uleb128 0xb
 2170 003c 0B       		.uleb128 0xb
 2171 003d 3A       		.uleb128 0x3a
 2172 003e 0B       		.uleb128 0xb
 2173 003f 3B       		.uleb128 0x3b
 2174 0040 0B       		.uleb128 0xb
 2175 0041 01       		.uleb128 0x1
 2176 0042 13       		.uleb128 0x13
 2177 0043 00       		.byte	0
 2178 0044 00       		.byte	0
 2179 0045 06       		.uleb128 0x6
 2180 0046 0D       		.uleb128 0xd
 2181 0047 00       		.byte	0
 2182 0048 03       		.uleb128 0x3
 2183 0049 0E       		.uleb128 0xe
 2184 004a 3A       		.uleb128 0x3a
 2185 004b 0B       		.uleb128 0xb
 2186 004c 3B       		.uleb128 0x3b
ARM GAS  /tmp/ccDjVg0g.s 			page 64


 2187 004d 0B       		.uleb128 0xb
 2188 004e 49       		.uleb128 0x49
 2189 004f 13       		.uleb128 0x13
 2190 0050 38       		.uleb128 0x38
 2191 0051 0B       		.uleb128 0xb
 2192 0052 00       		.byte	0
 2193 0053 00       		.byte	0
 2194 0054 07       		.uleb128 0x7
 2195 0055 0D       		.uleb128 0xd
 2196 0056 00       		.byte	0
 2197 0057 03       		.uleb128 0x3
 2198 0058 08       		.uleb128 0x8
 2199 0059 3A       		.uleb128 0x3a
 2200 005a 0B       		.uleb128 0xb
 2201 005b 3B       		.uleb128 0x3b
 2202 005c 05       		.uleb128 0x5
 2203 005d 49       		.uleb128 0x49
 2204 005e 13       		.uleb128 0x13
 2205 005f 38       		.uleb128 0x38
 2206 0060 0B       		.uleb128 0xb
 2207 0061 00       		.byte	0
 2208 0062 00       		.byte	0
 2209 0063 08       		.uleb128 0x8
 2210 0064 0D       		.uleb128 0xd
 2211 0065 00       		.byte	0
 2212 0066 03       		.uleb128 0x3
 2213 0067 0E       		.uleb128 0xe
 2214 0068 3A       		.uleb128 0x3a
 2215 0069 0B       		.uleb128 0xb
 2216 006a 3B       		.uleb128 0x3b
 2217 006b 05       		.uleb128 0x5
 2218 006c 49       		.uleb128 0x49
 2219 006d 13       		.uleb128 0x13
 2220 006e 38       		.uleb128 0x38
 2221 006f 0B       		.uleb128 0xb
 2222 0070 00       		.byte	0
 2223 0071 00       		.byte	0
 2224 0072 09       		.uleb128 0x9
 2225 0073 0F       		.uleb128 0xf
 2226 0074 00       		.byte	0
 2227 0075 0B       		.uleb128 0xb
 2228 0076 0B       		.uleb128 0xb
 2229 0077 49       		.uleb128 0x49
 2230 0078 13       		.uleb128 0x13
 2231 0079 00       		.byte	0
 2232 007a 00       		.byte	0
 2233 007b 0A       		.uleb128 0xa
 2234 007c 13       		.uleb128 0x13
 2235 007d 01       		.byte	0x1
 2236 007e 03       		.uleb128 0x3
 2237 007f 0E       		.uleb128 0xe
 2238 0080 0B       		.uleb128 0xb
 2239 0081 0B       		.uleb128 0xb
 2240 0082 3A       		.uleb128 0x3a
 2241 0083 0B       		.uleb128 0xb
 2242 0084 3B       		.uleb128 0x3b
 2243 0085 05       		.uleb128 0x5
ARM GAS  /tmp/ccDjVg0g.s 			page 65


 2244 0086 01       		.uleb128 0x1
 2245 0087 13       		.uleb128 0x13
 2246 0088 00       		.byte	0
 2247 0089 00       		.byte	0
 2248 008a 0B       		.uleb128 0xb
 2249 008b 15       		.uleb128 0x15
 2250 008c 01       		.byte	0x1
 2251 008d 27       		.uleb128 0x27
 2252 008e 19       		.uleb128 0x19
 2253 008f 01       		.uleb128 0x1
 2254 0090 13       		.uleb128 0x13
 2255 0091 00       		.byte	0
 2256 0092 00       		.byte	0
 2257 0093 0C       		.uleb128 0xc
 2258 0094 05       		.uleb128 0x5
 2259 0095 00       		.byte	0
 2260 0096 49       		.uleb128 0x49
 2261 0097 13       		.uleb128 0x13
 2262 0098 00       		.byte	0
 2263 0099 00       		.byte	0
 2264 009a 0D       		.uleb128 0xd
 2265 009b 0F       		.uleb128 0xf
 2266 009c 00       		.byte	0
 2267 009d 0B       		.uleb128 0xb
 2268 009e 0B       		.uleb128 0xb
 2269 009f 00       		.byte	0
 2270 00a0 00       		.byte	0
 2271 00a1 0E       		.uleb128 0xe
 2272 00a2 13       		.uleb128 0x13
 2273 00a3 01       		.byte	0x1
 2274 00a4 03       		.uleb128 0x3
 2275 00a5 0E       		.uleb128 0xe
 2276 00a6 0B       		.uleb128 0xb
 2277 00a7 05       		.uleb128 0x5
 2278 00a8 3A       		.uleb128 0x3a
 2279 00a9 0B       		.uleb128 0xb
 2280 00aa 3B       		.uleb128 0x3b
 2281 00ab 05       		.uleb128 0x5
 2282 00ac 01       		.uleb128 0x1
 2283 00ad 13       		.uleb128 0x13
 2284 00ae 00       		.byte	0
 2285 00af 00       		.byte	0
 2286 00b0 0F       		.uleb128 0xf
 2287 00b1 35       		.uleb128 0x35
 2288 00b2 00       		.byte	0
 2289 00b3 49       		.uleb128 0x49
 2290 00b4 13       		.uleb128 0x13
 2291 00b5 00       		.byte	0
 2292 00b6 00       		.byte	0
 2293 00b7 10       		.uleb128 0x10
 2294 00b8 01       		.uleb128 0x1
 2295 00b9 01       		.byte	0x1
 2296 00ba 49       		.uleb128 0x49
 2297 00bb 13       		.uleb128 0x13
 2298 00bc 01       		.uleb128 0x1
 2299 00bd 13       		.uleb128 0x13
 2300 00be 00       		.byte	0
ARM GAS  /tmp/ccDjVg0g.s 			page 66


 2301 00bf 00       		.byte	0
 2302 00c0 11       		.uleb128 0x11
 2303 00c1 21       		.uleb128 0x21
 2304 00c2 00       		.byte	0
 2305 00c3 49       		.uleb128 0x49
 2306 00c4 13       		.uleb128 0x13
 2307 00c5 2F       		.uleb128 0x2f
 2308 00c6 0B       		.uleb128 0xb
 2309 00c7 00       		.byte	0
 2310 00c8 00       		.byte	0
 2311 00c9 12       		.uleb128 0x12
 2312 00ca 13       		.uleb128 0x13
 2313 00cb 01       		.byte	0x1
 2314 00cc 0B       		.uleb128 0xb
 2315 00cd 0B       		.uleb128 0xb
 2316 00ce 3A       		.uleb128 0x3a
 2317 00cf 0B       		.uleb128 0xb
 2318 00d0 3B       		.uleb128 0x3b
 2319 00d1 05       		.uleb128 0x5
 2320 00d2 01       		.uleb128 0x1
 2321 00d3 13       		.uleb128 0x13
 2322 00d4 00       		.byte	0
 2323 00d5 00       		.byte	0
 2324 00d6 13       		.uleb128 0x13
 2325 00d7 16       		.uleb128 0x16
 2326 00d8 00       		.byte	0
 2327 00d9 03       		.uleb128 0x3
 2328 00da 0E       		.uleb128 0xe
 2329 00db 3A       		.uleb128 0x3a
 2330 00dc 0B       		.uleb128 0xb
 2331 00dd 3B       		.uleb128 0x3b
 2332 00de 05       		.uleb128 0x5
 2333 00df 49       		.uleb128 0x49
 2334 00e0 13       		.uleb128 0x13
 2335 00e1 00       		.byte	0
 2336 00e2 00       		.byte	0
 2337 00e3 14       		.uleb128 0x14
 2338 00e4 0D       		.uleb128 0xd
 2339 00e5 00       		.byte	0
 2340 00e6 03       		.uleb128 0x3
 2341 00e7 08       		.uleb128 0x8
 2342 00e8 3A       		.uleb128 0x3a
 2343 00e9 0B       		.uleb128 0xb
 2344 00ea 3B       		.uleb128 0x3b
 2345 00eb 0B       		.uleb128 0xb
 2346 00ec 49       		.uleb128 0x49
 2347 00ed 13       		.uleb128 0x13
 2348 00ee 38       		.uleb128 0x38
 2349 00ef 0B       		.uleb128 0xb
 2350 00f0 00       		.byte	0
 2351 00f1 00       		.byte	0
 2352 00f2 15       		.uleb128 0x15
 2353 00f3 13       		.uleb128 0x13
 2354 00f4 01       		.byte	0x1
 2355 00f5 0B       		.uleb128 0xb
 2356 00f6 0B       		.uleb128 0xb
 2357 00f7 3A       		.uleb128 0x3a
ARM GAS  /tmp/ccDjVg0g.s 			page 67


 2358 00f8 0B       		.uleb128 0xb
 2359 00f9 3B       		.uleb128 0x3b
 2360 00fa 0B       		.uleb128 0xb
 2361 00fb 01       		.uleb128 0x1
 2362 00fc 13       		.uleb128 0x13
 2363 00fd 00       		.byte	0
 2364 00fe 00       		.byte	0
 2365 00ff 16       		.uleb128 0x16
 2366 0100 17       		.uleb128 0x17
 2367 0101 01       		.byte	0x1
 2368 0102 0B       		.uleb128 0xb
 2369 0103 0B       		.uleb128 0xb
 2370 0104 3A       		.uleb128 0x3a
 2371 0105 0B       		.uleb128 0xb
 2372 0106 3B       		.uleb128 0x3b
 2373 0107 0B       		.uleb128 0xb
 2374 0108 01       		.uleb128 0x1
 2375 0109 13       		.uleb128 0x13
 2376 010a 00       		.byte	0
 2377 010b 00       		.byte	0
 2378 010c 17       		.uleb128 0x17
 2379 010d 0D       		.uleb128 0xd
 2380 010e 00       		.byte	0
 2381 010f 03       		.uleb128 0x3
 2382 0110 0E       		.uleb128 0xe
 2383 0111 3A       		.uleb128 0x3a
 2384 0112 0B       		.uleb128 0xb
 2385 0113 3B       		.uleb128 0x3b
 2386 0114 05       		.uleb128 0x5
 2387 0115 49       		.uleb128 0x49
 2388 0116 13       		.uleb128 0x13
 2389 0117 00       		.byte	0
 2390 0118 00       		.byte	0
 2391 0119 18       		.uleb128 0x18
 2392 011a 26       		.uleb128 0x26
 2393 011b 00       		.byte	0
 2394 011c 49       		.uleb128 0x49
 2395 011d 13       		.uleb128 0x13
 2396 011e 00       		.byte	0
 2397 011f 00       		.byte	0
 2398 0120 19       		.uleb128 0x19
 2399 0121 04       		.uleb128 0x4
 2400 0122 01       		.byte	0x1
 2401 0123 0B       		.uleb128 0xb
 2402 0124 0B       		.uleb128 0xb
 2403 0125 3A       		.uleb128 0x3a
 2404 0126 0B       		.uleb128 0xb
 2405 0127 3B       		.uleb128 0x3b
 2406 0128 0B       		.uleb128 0xb
 2407 0129 01       		.uleb128 0x1
 2408 012a 13       		.uleb128 0x13
 2409 012b 00       		.byte	0
 2410 012c 00       		.byte	0
 2411 012d 1A       		.uleb128 0x1a
 2412 012e 28       		.uleb128 0x28
 2413 012f 00       		.byte	0
 2414 0130 03       		.uleb128 0x3
ARM GAS  /tmp/ccDjVg0g.s 			page 68


 2415 0131 0E       		.uleb128 0xe
 2416 0132 1C       		.uleb128 0x1c
 2417 0133 0D       		.uleb128 0xd
 2418 0134 00       		.byte	0
 2419 0135 00       		.byte	0
 2420 0136 1B       		.uleb128 0x1b
 2421 0137 13       		.uleb128 0x13
 2422 0138 01       		.byte	0x1
 2423 0139 0B       		.uleb128 0xb
 2424 013a 05       		.uleb128 0x5
 2425 013b 3A       		.uleb128 0x3a
 2426 013c 0B       		.uleb128 0xb
 2427 013d 3B       		.uleb128 0x3b
 2428 013e 0B       		.uleb128 0xb
 2429 013f 01       		.uleb128 0x1
 2430 0140 13       		.uleb128 0x13
 2431 0141 00       		.byte	0
 2432 0142 00       		.byte	0
 2433 0143 1C       		.uleb128 0x1c
 2434 0144 2E       		.uleb128 0x2e
 2435 0145 01       		.byte	0x1
 2436 0146 3F       		.uleb128 0x3f
 2437 0147 19       		.uleb128 0x19
 2438 0148 03       		.uleb128 0x3
 2439 0149 0E       		.uleb128 0xe
 2440 014a 3A       		.uleb128 0x3a
 2441 014b 0B       		.uleb128 0xb
 2442 014c 3B       		.uleb128 0x3b
 2443 014d 0B       		.uleb128 0xb
 2444 014e 27       		.uleb128 0x27
 2445 014f 19       		.uleb128 0x19
 2446 0150 11       		.uleb128 0x11
 2447 0151 01       		.uleb128 0x1
 2448 0152 12       		.uleb128 0x12
 2449 0153 06       		.uleb128 0x6
 2450 0154 40       		.uleb128 0x40
 2451 0155 18       		.uleb128 0x18
 2452 0156 9742     		.uleb128 0x2117
 2453 0158 19       		.uleb128 0x19
 2454 0159 01       		.uleb128 0x1
 2455 015a 13       		.uleb128 0x13
 2456 015b 00       		.byte	0
 2457 015c 00       		.byte	0
 2458 015d 1D       		.uleb128 0x1d
 2459 015e 898201   		.uleb128 0x4109
 2460 0161 01       		.byte	0x1
 2461 0162 11       		.uleb128 0x11
 2462 0163 01       		.uleb128 0x1
 2463 0164 9542     		.uleb128 0x2115
 2464 0166 19       		.uleb128 0x19
 2465 0167 31       		.uleb128 0x31
 2466 0168 13       		.uleb128 0x13
 2467 0169 00       		.byte	0
 2468 016a 00       		.byte	0
 2469 016b 1E       		.uleb128 0x1e
 2470 016c 8A8201   		.uleb128 0x410a
 2471 016f 00       		.byte	0
ARM GAS  /tmp/ccDjVg0g.s 			page 69


 2472 0170 02       		.uleb128 0x2
 2473 0171 18       		.uleb128 0x18
 2474 0172 9142     		.uleb128 0x2111
 2475 0174 18       		.uleb128 0x18
 2476 0175 00       		.byte	0
 2477 0176 00       		.byte	0
 2478 0177 1F       		.uleb128 0x1f
 2479 0178 05       		.uleb128 0x5
 2480 0179 00       		.byte	0
 2481 017a 03       		.uleb128 0x3
 2482 017b 0E       		.uleb128 0xe
 2483 017c 3A       		.uleb128 0x3a
 2484 017d 0B       		.uleb128 0xb
 2485 017e 3B       		.uleb128 0x3b
 2486 017f 0B       		.uleb128 0xb
 2487 0180 49       		.uleb128 0x49
 2488 0181 13       		.uleb128 0x13
 2489 0182 02       		.uleb128 0x2
 2490 0183 17       		.uleb128 0x17
 2491 0184 00       		.byte	0
 2492 0185 00       		.byte	0
 2493 0186 20       		.uleb128 0x20
 2494 0187 898201   		.uleb128 0x4109
 2495 018a 00       		.byte	0
 2496 018b 11       		.uleb128 0x11
 2497 018c 01       		.uleb128 0x1
 2498 018d 31       		.uleb128 0x31
 2499 018e 13       		.uleb128 0x13
 2500 018f 00       		.byte	0
 2501 0190 00       		.byte	0
 2502 0191 21       		.uleb128 0x21
 2503 0192 34       		.uleb128 0x34
 2504 0193 00       		.byte	0
 2505 0194 03       		.uleb128 0x3
 2506 0195 0E       		.uleb128 0xe
 2507 0196 3A       		.uleb128 0x3a
 2508 0197 0B       		.uleb128 0xb
 2509 0198 3B       		.uleb128 0x3b
 2510 0199 0B       		.uleb128 0xb
 2511 019a 49       		.uleb128 0x49
 2512 019b 13       		.uleb128 0x13
 2513 019c 02       		.uleb128 0x2
 2514 019d 17       		.uleb128 0x17
 2515 019e 00       		.byte	0
 2516 019f 00       		.byte	0
 2517 01a0 22       		.uleb128 0x22
 2518 01a1 0B       		.uleb128 0xb
 2519 01a2 01       		.byte	0x1
 2520 01a3 11       		.uleb128 0x11
 2521 01a4 01       		.uleb128 0x1
 2522 01a5 12       		.uleb128 0x12
 2523 01a6 06       		.uleb128 0x6
 2524 01a7 00       		.byte	0
 2525 01a8 00       		.byte	0
 2526 01a9 23       		.uleb128 0x23
 2527 01aa 34       		.uleb128 0x34
 2528 01ab 00       		.byte	0
ARM GAS  /tmp/ccDjVg0g.s 			page 70


 2529 01ac 03       		.uleb128 0x3
 2530 01ad 08       		.uleb128 0x8
 2531 01ae 3A       		.uleb128 0x3a
 2532 01af 0B       		.uleb128 0xb
 2533 01b0 3B       		.uleb128 0x3b
 2534 01b1 0B       		.uleb128 0xb
 2535 01b2 49       		.uleb128 0x49
 2536 01b3 13       		.uleb128 0x13
 2537 01b4 02       		.uleb128 0x2
 2538 01b5 17       		.uleb128 0x17
 2539 01b6 00       		.byte	0
 2540 01b7 00       		.byte	0
 2541 01b8 24       		.uleb128 0x24
 2542 01b9 34       		.uleb128 0x34
 2543 01ba 00       		.byte	0
 2544 01bb 03       		.uleb128 0x3
 2545 01bc 0E       		.uleb128 0xe
 2546 01bd 3A       		.uleb128 0x3a
 2547 01be 0B       		.uleb128 0xb
 2548 01bf 3B       		.uleb128 0x3b
 2549 01c0 0B       		.uleb128 0xb
 2550 01c1 49       		.uleb128 0x49
 2551 01c2 13       		.uleb128 0x13
 2552 01c3 02       		.uleb128 0x2
 2553 01c4 18       		.uleb128 0x18
 2554 01c5 00       		.byte	0
 2555 01c6 00       		.byte	0
 2556 01c7 25       		.uleb128 0x25
 2557 01c8 898201   		.uleb128 0x4109
 2558 01cb 01       		.byte	0x1
 2559 01cc 11       		.uleb128 0x11
 2560 01cd 01       		.uleb128 0x1
 2561 01ce 31       		.uleb128 0x31
 2562 01cf 13       		.uleb128 0x13
 2563 01d0 01       		.uleb128 0x1
 2564 01d1 13       		.uleb128 0x13
 2565 01d2 00       		.byte	0
 2566 01d3 00       		.byte	0
 2567 01d4 26       		.uleb128 0x26
 2568 01d5 34       		.uleb128 0x34
 2569 01d6 00       		.byte	0
 2570 01d7 03       		.uleb128 0x3
 2571 01d8 0E       		.uleb128 0xe
 2572 01d9 3A       		.uleb128 0x3a
 2573 01da 0B       		.uleb128 0xb
 2574 01db 3B       		.uleb128 0x3b
 2575 01dc 05       		.uleb128 0x5
 2576 01dd 49       		.uleb128 0x49
 2577 01de 13       		.uleb128 0x13
 2578 01df 3F       		.uleb128 0x3f
 2579 01e0 19       		.uleb128 0x19
 2580 01e1 3C       		.uleb128 0x3c
 2581 01e2 19       		.uleb128 0x19
 2582 01e3 00       		.byte	0
 2583 01e4 00       		.byte	0
 2584 01e5 27       		.uleb128 0x27
 2585 01e6 34       		.uleb128 0x34
ARM GAS  /tmp/ccDjVg0g.s 			page 71


 2586 01e7 00       		.byte	0
 2587 01e8 03       		.uleb128 0x3
 2588 01e9 08       		.uleb128 0x8
 2589 01ea 3A       		.uleb128 0x3a
 2590 01eb 0B       		.uleb128 0xb
 2591 01ec 3B       		.uleb128 0x3b
 2592 01ed 05       		.uleb128 0x5
 2593 01ee 49       		.uleb128 0x49
 2594 01ef 13       		.uleb128 0x13
 2595 01f0 3F       		.uleb128 0x3f
 2596 01f1 19       		.uleb128 0x19
 2597 01f2 3C       		.uleb128 0x3c
 2598 01f3 19       		.uleb128 0x19
 2599 01f4 00       		.byte	0
 2600 01f5 00       		.byte	0
 2601 01f6 28       		.uleb128 0x28
 2602 01f7 34       		.uleb128 0x34
 2603 01f8 00       		.byte	0
 2604 01f9 03       		.uleb128 0x3
 2605 01fa 0E       		.uleb128 0xe
 2606 01fb 3A       		.uleb128 0x3a
 2607 01fc 0B       		.uleb128 0xb
 2608 01fd 3B       		.uleb128 0x3b
 2609 01fe 0B       		.uleb128 0xb
 2610 01ff 49       		.uleb128 0x49
 2611 0200 13       		.uleb128 0x13
 2612 0201 3F       		.uleb128 0x3f
 2613 0202 19       		.uleb128 0x19
 2614 0203 02       		.uleb128 0x2
 2615 0204 18       		.uleb128 0x18
 2616 0205 00       		.byte	0
 2617 0206 00       		.byte	0
 2618 0207 29       		.uleb128 0x29
 2619 0208 2E       		.uleb128 0x2e
 2620 0209 01       		.byte	0x1
 2621 020a 3F       		.uleb128 0x3f
 2622 020b 19       		.uleb128 0x19
 2623 020c 03       		.uleb128 0x3
 2624 020d 0E       		.uleb128 0xe
 2625 020e 3A       		.uleb128 0x3a
 2626 020f 0B       		.uleb128 0xb
 2627 0210 3B       		.uleb128 0x3b
 2628 0211 0B       		.uleb128 0xb
 2629 0212 27       		.uleb128 0x27
 2630 0213 19       		.uleb128 0x19
 2631 0214 3C       		.uleb128 0x3c
 2632 0215 19       		.uleb128 0x19
 2633 0216 01       		.uleb128 0x1
 2634 0217 13       		.uleb128 0x13
 2635 0218 00       		.byte	0
 2636 0219 00       		.byte	0
 2637 021a 2A       		.uleb128 0x2a
 2638 021b 2E       		.uleb128 0x2e
 2639 021c 00       		.byte	0
 2640 021d 3F       		.uleb128 0x3f
 2641 021e 19       		.uleb128 0x19
 2642 021f 03       		.uleb128 0x3
ARM GAS  /tmp/ccDjVg0g.s 			page 72


 2643 0220 0E       		.uleb128 0xe
 2644 0221 3A       		.uleb128 0x3a
 2645 0222 0B       		.uleb128 0xb
 2646 0223 3B       		.uleb128 0x3b
 2647 0224 0B       		.uleb128 0xb
 2648 0225 27       		.uleb128 0x27
 2649 0226 19       		.uleb128 0x19
 2650 0227 3C       		.uleb128 0x3c
 2651 0228 19       		.uleb128 0x19
 2652 0229 00       		.byte	0
 2653 022a 00       		.byte	0
 2654 022b 00       		.byte	0
 2655              		.section	.debug_loc,"",%progbits
 2656              	.Ldebug_loc0:
 2657              	.LLST0:
 2658 0000 00000000 		.4byte	.LVL1
 2659 0004 08000000 		.4byte	.LVL2
 2660 0008 0100     		.2byte	0x1
 2661 000a 50       		.byte	0x50
 2662 000b 08000000 		.4byte	.LVL2
 2663 000f 26000000 		.4byte	.LVL3
 2664 0013 0400     		.2byte	0x4
 2665 0015 F3       		.byte	0xf3
 2666 0016 01       		.uleb128 0x1
 2667 0017 50       		.byte	0x50
 2668 0018 9F       		.byte	0x9f
 2669 0019 26000000 		.4byte	.LVL3
 2670 001d 29000000 		.4byte	.LVL4-1
 2671 0021 0100     		.2byte	0x1
 2672 0023 50       		.byte	0x50
 2673 0024 29000000 		.4byte	.LVL4-1
 2674 0028 30000000 		.4byte	.LFE274
 2675 002c 0400     		.2byte	0x4
 2676 002e F3       		.byte	0xf3
 2677 002f 01       		.uleb128 0x1
 2678 0030 50       		.byte	0x50
 2679 0031 9F       		.byte	0x9f
 2680 0032 00000000 		.4byte	0
 2681 0036 00000000 		.4byte	0
 2682              	.LLST1:
 2683 003a 00000000 		.4byte	.LVL5
 2684 003e 46000000 		.4byte	.LVL12
 2685 0042 0100     		.2byte	0x1
 2686 0044 50       		.byte	0x50
 2687 0045 46000000 		.4byte	.LVL12
 2688 0049 84000000 		.4byte	.LVL15
 2689 004d 0400     		.2byte	0x4
 2690 004f F3       		.byte	0xf3
 2691 0050 01       		.uleb128 0x1
 2692 0051 50       		.byte	0x50
 2693 0052 9F       		.byte	0x9f
 2694 0053 84000000 		.4byte	.LVL15
 2695 0057 90000000 		.4byte	.LVL16
 2696 005b 0100     		.2byte	0x1
 2697 005d 50       		.byte	0x50
 2698 005e 90000000 		.4byte	.LVL16
 2699 0062 04010000 		.4byte	.LFE275
ARM GAS  /tmp/ccDjVg0g.s 			page 73


 2700 0066 0400     		.2byte	0x4
 2701 0068 F3       		.byte	0xf3
 2702 0069 01       		.uleb128 0x1
 2703 006a 50       		.byte	0x50
 2704 006b 9F       		.byte	0x9f
 2705 006c 00000000 		.4byte	0
 2706 0070 00000000 		.4byte	0
 2707              	.LLST2:
 2708 0074 00000000 		.4byte	.LVL5
 2709 0078 50000000 		.4byte	.LVL13
 2710 007c 0100     		.2byte	0x1
 2711 007e 51       		.byte	0x51
 2712 007f 50000000 		.4byte	.LVL13
 2713 0083 84000000 		.4byte	.LVL15
 2714 0087 0400     		.2byte	0x4
 2715 0089 F3       		.byte	0xf3
 2716 008a 01       		.uleb128 0x1
 2717 008b 51       		.byte	0x51
 2718 008c 9F       		.byte	0x9f
 2719 008d 84000000 		.4byte	.LVL15
 2720 0091 9A000000 		.4byte	.LVL17
 2721 0095 0100     		.2byte	0x1
 2722 0097 51       		.byte	0x51
 2723 0098 9A000000 		.4byte	.LVL17
 2724 009c 04010000 		.4byte	.LFE275
 2725 00a0 0400     		.2byte	0x4
 2726 00a2 F3       		.byte	0xf3
 2727 00a3 01       		.uleb128 0x1
 2728 00a4 51       		.byte	0x51
 2729 00a5 9F       		.byte	0x9f
 2730 00a6 00000000 		.4byte	0
 2731 00aa 00000000 		.4byte	0
 2732              	.LLST3:
 2733 00ae 0E000000 		.4byte	.LVL6
 2734 00b2 78000000 		.4byte	.LVL14
 2735 00b6 0100     		.2byte	0x1
 2736 00b8 53       		.byte	0x53
 2737 00b9 78000000 		.4byte	.LVL14
 2738 00bd 84000000 		.4byte	.LVL15
 2739 00c1 0800     		.2byte	0x8
 2740 00c3 31       		.byte	0x31
 2741 00c4 F3       		.byte	0xf3
 2742 00c5 01       		.uleb128 0x1
 2743 00c6 51       		.byte	0x51
 2744 00c7 4F       		.byte	0x4f
 2745 00c8 1A       		.byte	0x1a
 2746 00c9 24       		.byte	0x24
 2747 00ca 9F       		.byte	0x9f
 2748 00cb 84000000 		.4byte	.LVL15
 2749 00cf C0000000 		.4byte	.LVL18
 2750 00d3 0100     		.2byte	0x1
 2751 00d5 53       		.byte	0x53
 2752 00d6 C0000000 		.4byte	.LVL18
 2753 00da CC000000 		.4byte	.LVL19
 2754 00de 0800     		.2byte	0x8
 2755 00e0 31       		.byte	0x31
 2756 00e1 F3       		.byte	0xf3
ARM GAS  /tmp/ccDjVg0g.s 			page 74


 2757 00e2 01       		.uleb128 0x1
 2758 00e3 51       		.byte	0x51
 2759 00e4 4F       		.byte	0x4f
 2760 00e5 1A       		.byte	0x1a
 2761 00e6 24       		.byte	0x24
 2762 00e7 9F       		.byte	0x9f
 2763 00e8 CC000000 		.4byte	.LVL19
 2764 00ec E6000000 		.4byte	.LVL20
 2765 00f0 0100     		.2byte	0x1
 2766 00f2 53       		.byte	0x53
 2767 00f3 E6000000 		.4byte	.LVL20
 2768 00f7 F0000000 		.4byte	.LVL21
 2769 00fb 0800     		.2byte	0x8
 2770 00fd 31       		.byte	0x31
 2771 00fe F3       		.byte	0xf3
 2772 00ff 01       		.uleb128 0x1
 2773 0100 51       		.byte	0x51
 2774 0101 4F       		.byte	0x4f
 2775 0102 1A       		.byte	0x1a
 2776 0103 24       		.byte	0x24
 2777 0104 9F       		.byte	0x9f
 2778 0105 F0000000 		.4byte	.LVL21
 2779 0109 F6000000 		.4byte	.LVL22
 2780 010d 0100     		.2byte	0x1
 2781 010f 53       		.byte	0x53
 2782 0110 F6000000 		.4byte	.LVL22
 2783 0114 04010000 		.4byte	.LFE275
 2784 0118 0800     		.2byte	0x8
 2785 011a 31       		.byte	0x31
 2786 011b F3       		.byte	0xf3
 2787 011c 01       		.uleb128 0x1
 2788 011d 51       		.byte	0x51
 2789 011e 4F       		.byte	0x4f
 2790 011f 1A       		.byte	0x1a
 2791 0120 24       		.byte	0x24
 2792 0121 9F       		.byte	0x9f
 2793 0122 00000000 		.4byte	0
 2794 0126 00000000 		.4byte	0
 2795              	.LLST4:
 2796 012a 10000000 		.4byte	.LVL7
 2797 012e 3E000000 		.4byte	.LVL11
 2798 0132 0500     		.2byte	0x5
 2799 0134 71       		.byte	0x71
 2800 0135 00       		.sleb128 0
 2801 0136 32       		.byte	0x32
 2802 0137 25       		.byte	0x25
 2803 0138 9F       		.byte	0x9f
 2804 0139 00000000 		.4byte	0
 2805 013d 00000000 		.4byte	0
 2806              	.LLST5:
 2807 0141 2A000000 		.4byte	.LVL8
 2808 0145 3A000000 		.4byte	.LVL10
 2809 0149 0600     		.2byte	0x6
 2810 014b 3F       		.byte	0x3f
 2811 014c 74       		.byte	0x74
 2812 014d 00       		.sleb128 0
 2813 014e 24       		.byte	0x24
ARM GAS  /tmp/ccDjVg0g.s 			page 75


 2814 014f 20       		.byte	0x20
 2815 0150 9F       		.byte	0x9f
 2816 0151 3A000000 		.4byte	.LVL10
 2817 0155 3E000000 		.4byte	.LVL11
 2818 0159 0A00     		.2byte	0xa
 2819 015b 3F       		.byte	0x3f
 2820 015c 71       		.byte	0x71
 2821 015d 00       		.sleb128 0
 2822 015e 33       		.byte	0x33
 2823 015f 1A       		.byte	0x1a
 2824 0160 32       		.byte	0x32
 2825 0161 24       		.byte	0x24
 2826 0162 24       		.byte	0x24
 2827 0163 20       		.byte	0x20
 2828 0164 9F       		.byte	0x9f
 2829 0165 00000000 		.4byte	0
 2830 0169 00000000 		.4byte	0
 2831              	.LLST6:
 2832 016d 2A000000 		.4byte	.LVL8
 2833 0171 2C000000 		.4byte	.LVL9
 2834 0175 1100     		.2byte	0x11
 2835 0177 71       		.byte	0x71
 2836 0178 00       		.sleb128 0
 2837 0179 33       		.byte	0x33
 2838 017a 24       		.byte	0x24
 2839 017b 75       		.byte	0x75
 2840 017c 00       		.sleb128 0
 2841 017d 22       		.byte	0x22
 2842 017e 06       		.byte	0x6
 2843 017f 08       		.byte	0x8
 2844 0180 F0       		.byte	0xf0
 2845 0181 1A       		.byte	0x1a
 2846 0182 34       		.byte	0x34
 2847 0183 25       		.byte	0x25
 2848 0184 74       		.byte	0x74
 2849 0185 00       		.sleb128 0
 2850 0186 24       		.byte	0x24
 2851 0187 9F       		.byte	0x9f
 2852 0188 2C000000 		.4byte	.LVL9
 2853 018c 3A000000 		.4byte	.LVL10
 2854 0190 1200     		.2byte	0x12
 2855 0192 71       		.byte	0x71
 2856 0193 00       		.sleb128 0
 2857 0194 33       		.byte	0x33
 2858 0195 24       		.byte	0x24
 2859 0196 70       		.byte	0x70
 2860 0197 04       		.sleb128 4
 2861 0198 06       		.byte	0x6
 2862 0199 22       		.byte	0x22
 2863 019a 06       		.byte	0x6
 2864 019b 08       		.byte	0x8
 2865 019c F0       		.byte	0xf0
 2866 019d 1A       		.byte	0x1a
 2867 019e 34       		.byte	0x34
 2868 019f 25       		.byte	0x25
 2869 01a0 74       		.byte	0x74
 2870 01a1 00       		.sleb128 0
ARM GAS  /tmp/ccDjVg0g.s 			page 76


 2871 01a2 24       		.byte	0x24
 2872 01a3 9F       		.byte	0x9f
 2873 01a4 3A000000 		.4byte	.LVL10
 2874 01a8 3E000000 		.4byte	.LVL11
 2875 01ac 1600     		.2byte	0x16
 2876 01ae 71       		.byte	0x71
 2877 01af 00       		.sleb128 0
 2878 01b0 33       		.byte	0x33
 2879 01b1 24       		.byte	0x24
 2880 01b2 70       		.byte	0x70
 2881 01b3 04       		.sleb128 4
 2882 01b4 06       		.byte	0x6
 2883 01b5 22       		.byte	0x22
 2884 01b6 06       		.byte	0x6
 2885 01b7 08       		.byte	0x8
 2886 01b8 F0       		.byte	0xf0
 2887 01b9 1A       		.byte	0x1a
 2888 01ba 34       		.byte	0x34
 2889 01bb 25       		.byte	0x25
 2890 01bc 71       		.byte	0x71
 2891 01bd 00       		.sleb128 0
 2892 01be 33       		.byte	0x33
 2893 01bf 1A       		.byte	0x1a
 2894 01c0 32       		.byte	0x32
 2895 01c1 24       		.byte	0x24
 2896 01c2 24       		.byte	0x24
 2897 01c3 9F       		.byte	0x9f
 2898 01c4 00000000 		.4byte	0
 2899 01c8 00000000 		.4byte	0
 2900              	.LLST7:
 2901 01cc 00000000 		.4byte	.LVL23
 2902 01d0 06000000 		.4byte	.LVL24
 2903 01d4 0100     		.2byte	0x1
 2904 01d6 50       		.byte	0x50
 2905 01d7 06000000 		.4byte	.LVL24
 2906 01db 50000000 		.4byte	.LFE276
 2907 01df 0400     		.2byte	0x4
 2908 01e1 F3       		.byte	0xf3
 2909 01e2 01       		.uleb128 0x1
 2910 01e3 50       		.byte	0x50
 2911 01e4 9F       		.byte	0x9f
 2912 01e5 00000000 		.4byte	0
 2913 01e9 00000000 		.4byte	0
 2914              	.LLST8:
 2915 01ed 00000000 		.4byte	.LVL23
 2916 01f1 12000000 		.4byte	.LVL26
 2917 01f5 0100     		.2byte	0x1
 2918 01f7 51       		.byte	0x51
 2919 01f8 12000000 		.4byte	.LVL26
 2920 01fc 2E000000 		.4byte	.LVL27
 2921 0200 0400     		.2byte	0x4
 2922 0202 F3       		.byte	0xf3
 2923 0203 01       		.uleb128 0x1
 2924 0204 51       		.byte	0x51
 2925 0205 9F       		.byte	0x9f
 2926 0206 2E000000 		.4byte	.LVL27
 2927 020a 30000000 		.4byte	.LVL28
ARM GAS  /tmp/ccDjVg0g.s 			page 77


 2928 020e 0100     		.2byte	0x1
 2929 0210 51       		.byte	0x51
 2930 0211 30000000 		.4byte	.LVL28
 2931 0215 50000000 		.4byte	.LFE276
 2932 0219 0400     		.2byte	0x4
 2933 021b F3       		.byte	0xf3
 2934 021c 01       		.uleb128 0x1
 2935 021d 51       		.byte	0x51
 2936 021e 9F       		.byte	0x9f
 2937 021f 00000000 		.4byte	0
 2938 0223 00000000 		.4byte	0
 2939              	.LLST9:
 2940 0227 00000000 		.4byte	.LVL29
 2941 022b 0A000000 		.4byte	.LVL30
 2942 022f 0100     		.2byte	0x1
 2943 0231 50       		.byte	0x50
 2944 0232 0A000000 		.4byte	.LVL30
 2945 0236 0E000000 		.4byte	.LVL31
 2946 023a 0100     		.2byte	0x1
 2947 023c 55       		.byte	0x55
 2948 023d 0E000000 		.4byte	.LVL31
 2949 0241 13000000 		.4byte	.LVL32-1
 2950 0245 0100     		.2byte	0x1
 2951 0247 50       		.byte	0x50
 2952 0248 13000000 		.4byte	.LVL32-1
 2953 024c 28000000 		.4byte	.LVL34
 2954 0250 0100     		.2byte	0x1
 2955 0252 55       		.byte	0x55
 2956 0253 28000000 		.4byte	.LVL34
 2957 0257 2D000000 		.4byte	.LVL36-1
 2958 025b 0100     		.2byte	0x1
 2959 025d 50       		.byte	0x50
 2960 025e 2D000000 		.4byte	.LVL36-1
 2961 0262 34000000 		.4byte	.LVL37
 2962 0266 0100     		.2byte	0x1
 2963 0268 55       		.byte	0x55
 2964 0269 34000000 		.4byte	.LVL37
 2965 026d 37000000 		.4byte	.LVL38-1
 2966 0271 0100     		.2byte	0x1
 2967 0273 50       		.byte	0x50
 2968 0274 37000000 		.4byte	.LVL38-1
 2969 0278 3A000000 		.4byte	.LFE273
 2970 027c 0100     		.2byte	0x1
 2971 027e 55       		.byte	0x55
 2972 027f 00000000 		.4byte	0
 2973 0283 00000000 		.4byte	0
 2974              	.LLST10:
 2975 0287 0A000000 		.4byte	.LVL30
 2976 028b 0E000000 		.4byte	.LVL31
 2977 028f 0200     		.2byte	0x2
 2978 0291 30       		.byte	0x30
 2979 0292 9F       		.byte	0x9f
 2980 0293 0E000000 		.4byte	.LVL31
 2981 0297 13000000 		.4byte	.LVL32-1
 2982 029b 0100     		.2byte	0x1
 2983 029d 51       		.byte	0x51
 2984 029e 13000000 		.4byte	.LVL32-1
ARM GAS  /tmp/ccDjVg0g.s 			page 78


 2985 02a2 14000000 		.4byte	.LVL32
 2986 02a6 0300     		.2byte	0x3
 2987 02a8 74       		.byte	0x74
 2988 02a9 7F       		.sleb128 -1
 2989 02aa 9F       		.byte	0x9f
 2990 02ab 14000000 		.4byte	.LVL32
 2991 02af 2A000000 		.4byte	.LVL35
 2992 02b3 0100     		.2byte	0x1
 2993 02b5 54       		.byte	0x54
 2994 02b6 2A000000 		.4byte	.LVL35
 2995 02ba 2D000000 		.4byte	.LVL36-1
 2996 02be 0100     		.2byte	0x1
 2997 02c0 51       		.byte	0x51
 2998 02c1 2D000000 		.4byte	.LVL36-1
 2999 02c5 2E000000 		.4byte	.LVL36
 3000 02c9 0300     		.2byte	0x3
 3001 02cb 74       		.byte	0x74
 3002 02cc 7F       		.sleb128 -1
 3003 02cd 9F       		.byte	0x9f
 3004 02ce 2E000000 		.4byte	.LVL36
 3005 02d2 34000000 		.4byte	.LVL37
 3006 02d6 0100     		.2byte	0x1
 3007 02d8 54       		.byte	0x54
 3008 02d9 00000000 		.4byte	0
 3009 02dd 00000000 		.4byte	0
 3010              		.section	.debug_aranges,"",%progbits
 3011 0000 3C000000 		.4byte	0x3c
 3012 0004 0200     		.2byte	0x2
 3013 0006 00000000 		.4byte	.Ldebug_info0
 3014 000a 04       		.byte	0x4
 3015 000b 00       		.byte	0
 3016 000c 0000     		.2byte	0
 3017 000e 0000     		.2byte	0
 3018 0010 00000000 		.4byte	.LFB272
 3019 0014 0C000000 		.4byte	.LFE272-.LFB272
 3020 0018 00000000 		.4byte	.LFB274
 3021 001c 30000000 		.4byte	.LFE274-.LFB274
 3022 0020 00000000 		.4byte	.LFB275
 3023 0024 04010000 		.4byte	.LFE275-.LFB275
 3024 0028 00000000 		.4byte	.LFB276
 3025 002c 50000000 		.4byte	.LFE276-.LFB276
 3026 0030 00000000 		.4byte	.LFB273
 3027 0034 3A000000 		.4byte	.LFE273-.LFB273
 3028 0038 00000000 		.4byte	0
 3029 003c 00000000 		.4byte	0
 3030              		.section	.debug_ranges,"",%progbits
 3031              	.Ldebug_ranges0:
 3032 0000 00000000 		.4byte	.LFB272
 3033 0004 0C000000 		.4byte	.LFE272
 3034 0008 00000000 		.4byte	.LFB274
 3035 000c 30000000 		.4byte	.LFE274
 3036 0010 00000000 		.4byte	.LFB275
 3037 0014 04010000 		.4byte	.LFE275
 3038 0018 00000000 		.4byte	.LFB276
 3039 001c 50000000 		.4byte	.LFE276
 3040 0020 00000000 		.4byte	.LFB273
 3041 0024 3A000000 		.4byte	.LFE273
ARM GAS  /tmp/ccDjVg0g.s 			page 79


 3042 0028 00000000 		.4byte	0
 3043 002c 00000000 		.4byte	0
 3044              		.section	.debug_line,"",%progbits
 3045              	.Ldebug_line0:
 3046 0000 28040000 		.section	.debug_str,"MS",%progbits,1
 3046      02005E03 
 3046      00000201 
 3046      FB0E0D00 
 3046      01010101 
 3047              	.LASF50:
 3048 0000 72656164 		.ascii	"ready_list_t\000"
 3048      795F6C69 
 3048      73745F74 
 3048      00
 3049              	.LASF2:
 3050 000d 73697A65 		.ascii	"size_t\000"
 3050      5F7400
 3051              	.LASF17:
 3052 0014 75696E74 		.ascii	"uint64_t\000"
 3052      36345F74 
 3052      00
 3053              	.LASF1:
 3054 001d 7369676E 		.ascii	"signed char\000"
 3054      65642063 
 3054      68617200 
 3055              	.LASF3:
 3056 0029 5F5F7569 		.ascii	"__uint8_t\000"
 3056      6E74385F 
 3056      7400
 3057              	.LASF125:
 3058 0033 65787063 		.ascii	"expchannel_t\000"
 3058      68616E6E 
 3058      656C5F74 
 3058      00
 3059              	.LASF97:
 3060 0040 706F7274 		.ascii	"port_intctx\000"
 3060      5F696E74 
 3060      63747800 
 3061              	.LASF69:
 3062 004c 73797374 		.ascii	"system_debug_t\000"
 3062      656D5F64 
 3062      65627567 
 3062      5F7400
 3063              	.LASF87:
 3064 005b 46545352 		.ascii	"FTSR2\000"
 3064      3200
 3065              	.LASF81:
 3066 0061 53574945 		.ascii	"SWIER\000"
 3066      5200
 3067              	.LASF13:
 3068 0067 6C6F6E67 		.ascii	"long long unsigned int\000"
 3068      206C6F6E 
 3068      6720756E 
 3068      7369676E 
 3068      65642069 
 3069              	.LASF132:
 3070 007e 6578745F 		.ascii	"ext_lld_stop\000"
ARM GAS  /tmp/ccDjVg0g.s 			page 80


 3070      6C6C645F 
 3070      73746F70 
 3070      00
 3071              	.LASF101:
 3072 008b 65786974 		.ascii	"exitcode\000"
 3072      636F6465 
 3072      00
 3073              	.LASF76:
 3074 0094 6D61696E 		.ascii	"mainthread\000"
 3074      74687265 
 3074      616400
 3075              	.LASF104:
 3076 009f 73656E74 		.ascii	"sentmsg\000"
 3076      6D736700 
 3077              	.LASF66:
 3078 00a7 76697274 		.ascii	"virtual_timers_list_t\000"
 3078      75616C5F 
 3078      74696D65 
 3078      72735F6C 
 3078      6973745F 
 3079              	.LASF142:
 3080 00bd 49544D5F 		.ascii	"ITM_RxBuffer\000"
 3080      52784275 
 3080      66666572 
 3080      00
 3081              	.LASF88:
 3082 00ca 53574945 		.ascii	"SWIER2\000"
 3082      523200
 3083              	.LASF49:
 3084 00d1 63685F74 		.ascii	"ch_threads_queue\000"
 3084      68726561 
 3084      64735F71 
 3084      75657565 
 3084      00
 3085              	.LASF139:
 3086 00e2 6578745F 		.ascii	"ext_lld_channel_disable\000"
 3086      6C6C645F 
 3086      6368616E 
 3086      6E656C5F 
 3086      64697361 
 3087              	.LASF30:
 3088 00fa 705F7072 		.ascii	"p_prio\000"
 3088      696F00
 3089              	.LASF11:
 3090 0101 6C6F6E67 		.ascii	"long long int\000"
 3090      206C6F6E 
 3090      6720696E 
 3090      7400
 3091              	.LASF134:
 3092 010f 65787470 		.ascii	"extp\000"
 3092      00
 3093              	.LASF149:
 3094 0114 6578744F 		.ascii	"extObjectInit\000"
 3094      626A6563 
 3094      74496E69 
 3094      7400
 3095              	.LASF43:
ARM GAS  /tmp/ccDjVg0g.s 			page 81


 3096 0122 705F6D70 		.ascii	"p_mpool\000"
 3096      6F6F6C00 
 3097              	.LASF112:
 3098 012a 6D5F7175 		.ascii	"m_queue\000"
 3098      65756500 
 3099              	.LASF75:
 3100 0132 76746C69 		.ascii	"vtlist\000"
 3100      737400
 3101              	.LASF131:
 3102 0139 6578745F 		.ascii	"ext_lld_init\000"
 3102      6C6C645F 
 3102      696E6974 
 3102      00
 3103              	.LASF123:
 3104 0146 73746174 		.ascii	"state\000"
 3104      6500
 3105              	.LASF129:
 3106 014c 6368616E 		.ascii	"channels\000"
 3106      6E656C73 
 3106      00
 3107              	.LASF8:
 3108 0155 6C6F6E67 		.ascii	"long int\000"
 3108      20696E74 
 3108      00
 3109              	.LASF20:
 3110 015e 74737461 		.ascii	"tstate_t\000"
 3110      74655F74 
 3110      00
 3111              	.LASF32:
 3112 0167 705F6E65 		.ascii	"p_newer\000"
 3112      77657200 
 3113              	.LASF109:
 3114 016f 735F7175 		.ascii	"s_queue\000"
 3114      65756500 
 3115              	.LASF128:
 3116 0177 45585443 		.ascii	"EXTChannelConfig\000"
 3116      68616E6E 
 3116      656C436F 
 3116      6E666967 
 3116      00
 3117              	.LASF141:
 3118 0188 6C696E65 		.ascii	"line\000"
 3118      00
 3119              	.LASF55:
 3120 018d 725F6E65 		.ascii	"r_newer\000"
 3120      77657200 
 3121              	.LASF137:
 3122 0195 6D61736B 		.ascii	"mask\000"
 3122      00
 3123              	.LASF94:
 3124 019a 72656761 		.ascii	"regarm_t\000"
 3124      726D5F74 
 3124      00
 3125              	.LASF62:
 3126 01a3 76745F70 		.ascii	"vt_prev\000"
 3126      72657600 
 3127              	.LASF74:
ARM GAS  /tmp/ccDjVg0g.s 			page 82


 3128 01ab 726C6973 		.ascii	"rlist\000"
 3128      7400
 3129              	.LASF138:
 3130 01b1 706F7274 		.ascii	"port\000"
 3130      00
 3131              	.LASF116:
 3132 01b6 6D757465 		.ascii	"mutex_t\000"
 3132      785F7400 
 3133              	.LASF77:
 3134 01be 69646C65 		.ascii	"idle_thread_wa\000"
 3134      5F746872 
 3134      6561645F 
 3134      776100
 3135              	.LASF144:
 3136 01cd 6578745F 		.ascii	"ext_lld_exti_irq_disable\000"
 3136      6C6C645F 
 3136      65787469 
 3136      5F697271 
 3136      5F646973 
 3137              	.LASF0:
 3138 01e6 756E7369 		.ascii	"unsigned int\000"
 3138      676E6564 
 3138      20696E74 
 3138      00
 3139              	.LASF61:
 3140 01f3 76745F6E 		.ascii	"vt_next\000"
 3140      65787400 
 3141              	.LASF105:
 3142 01fb 77747365 		.ascii	"wtsemp\000"
 3142      6D7000
 3143              	.LASF39:
 3144 0202 705F6D73 		.ascii	"p_msgqueue\000"
 3144      67717565 
 3144      756500
 3145              	.LASF140:
 3146 020d 6578745F 		.ascii	"ext_lld_start\000"
 3146      6C6C645F 
 3146      73746172 
 3146      7400
 3147              	.LASF110:
 3148 021b 735F636E 		.ascii	"s_cnt\000"
 3148      7400
 3149              	.LASF96:
 3150 0221 636F6E74 		.ascii	"context\000"
 3150      65787400 
 3151              	.LASF6:
 3152 0229 73686F72 		.ascii	"short unsigned int\000"
 3152      7420756E 
 3152      7369676E 
 3152      65642069 
 3152      6E7400
 3153              	.LASF145:
 3154 023c 6578745F 		.ascii	"ext_lld_exti_irq_enable\000"
 3154      6C6C645F 
 3154      65787469 
 3154      5F697271 
 3154      5F656E61 
ARM GAS  /tmp/ccDjVg0g.s 			page 83


 3155              	.LASF46:
 3156 0254 63685F74 		.ascii	"ch_thread\000"
 3156      68726561 
 3156      6400
 3157              	.LASF130:
 3158 025e 45585443 		.ascii	"EXTConfig\000"
 3158      6F6E6669 
 3158      6700
 3159              	.LASF147:
 3160 0268 2E2E2F43 		.ascii	"../ChibiOS/os/hal/ports/STM32/LLD/EXTIv1/ext_lld.c\000"
 3160      68696269 
 3160      4F532F6F 
 3160      732F6861 
 3160      6C2F706F 
 3161              	.LASF23:
 3162 029b 6D73675F 		.ascii	"msg_t\000"
 3162      7400
 3163              	.LASF72:
 3164 02a1 63685F73 		.ascii	"ch_system_t\000"
 3164      79737465 
 3164      6D5F7400 
 3165              	.LASF19:
 3166 02ad 746D6F64 		.ascii	"tmode_t\000"
 3166      655F7400 
 3167              	.LASF86:
 3168 02b5 52545352 		.ascii	"RTSR2\000"
 3168      3200
 3169              	.LASF51:
 3170 02bb 63685F72 		.ascii	"ch_ready_list\000"
 3170      65616479 
 3170      5F6C6973 
 3170      7400
 3171              	.LASF24:
 3172 02c9 6576656E 		.ascii	"eventmask_t\000"
 3172      746D6173 
 3172      6B5F7400 
 3173              	.LASF7:
 3174 02d5 5F5F696E 		.ascii	"__int32_t\000"
 3174      7433325F 
 3174      7400
 3175              	.LASF95:
 3176 02df 73746B61 		.ascii	"stkalign_t\000"
 3176      6C69676E 
 3176      5F7400
 3177              	.LASF120:
 3178 02ea 4558545F 		.ascii	"EXT_ACTIVE\000"
 3178      41435449 
 3178      564500
 3179              	.LASF136:
 3180 02f5 636D6173 		.ascii	"cmask\000"
 3180      6B00
 3181              	.LASF84:
 3182 02fb 494D5232 		.ascii	"IMR2\000"
 3182      00
 3183              	.LASF38:
 3184 0300 705F7761 		.ascii	"p_waiting\000"
 3184      6974696E 
ARM GAS  /tmp/ccDjVg0g.s 			page 84


 3184      6700
 3185              	.LASF78:
 3186 030a 73697A65 		.ascii	"sizetype\000"
 3186      74797065 
 3186      00
 3187              	.LASF44:
 3188 0313 74687265 		.ascii	"thread_reference_t\000"
 3188      61645F72 
 3188      65666572 
 3188      656E6365 
 3188      5F7400
 3189              	.LASF121:
 3190 0326 65787473 		.ascii	"extstate_t\000"
 3190      74617465 
 3190      5F7400
 3191              	.LASF67:
 3192 0331 63685F76 		.ascii	"ch_virtual_timers_list\000"
 3192      69727475 
 3192      616C5F74 
 3192      696D6572 
 3192      735F6C69 
 3193              	.LASF103:
 3194 0348 77747472 		.ascii	"wttrp\000"
 3194      7000
 3195              	.LASF25:
 3196 034e 636E745F 		.ascii	"cnt_t\000"
 3196      7400
 3197              	.LASF68:
 3198 0354 76745F6C 		.ascii	"vt_lasttime\000"
 3198      61737474 
 3198      696D6500 
 3199              	.LASF33:
 3200 0360 705F6F6C 		.ascii	"p_older\000"
 3200      64657200 
 3201              	.LASF148:
 3202 0368 2F6E6673 		.ascii	"/nfs/nfs4/home/galexeev/classes/P442WifiTrailCounte"
 3202      2F6E6673 
 3202      342F686F 
 3202      6D652F67 
 3202      616C6578 
 3203 039b 7250726F 		.ascii	"rProject/milestone3\000"
 3203      6A656374 
 3203      2F6D696C 
 3203      6573746F 
 3203      6E653300 
 3204              	.LASF54:
 3205 03af 725F6374 		.ascii	"r_ctx\000"
 3205      7800
 3206              	.LASF133:
 3207 03b5 6578745F 		.ascii	"ext_lld_channel_enable\000"
 3207      6C6C645F 
 3207      6368616E 
 3207      6E656C5F 
 3207      656E6162 
 3208              	.LASF99:
 3209 03cc 746D5F63 		.ascii	"tm_calibration_t\000"
 3209      616C6962 
ARM GAS  /tmp/ccDjVg0g.s 			page 85


 3209      72617469 
 3209      6F6E5F74 
 3209      00
 3210              	.LASF118:
 3211 03dd 4558545F 		.ascii	"EXT_UNINIT\000"
 3211      554E494E 
 3211      495400
 3212              	.LASF57:
 3213 03e8 725F6375 		.ascii	"r_current\000"
 3213      7272656E 
 3213      7400
 3214              	.LASF56:
 3215 03f2 725F6F6C 		.ascii	"r_older\000"
 3215      64657200 
 3216              	.LASF12:
 3217 03fa 5F5F7569 		.ascii	"__uint64_t\000"
 3217      6E743634 
 3217      5F7400
 3218              	.LASF79:
 3219 0405 52545352 		.ascii	"RTSR\000"
 3219      00
 3220              	.LASF93:
 3221 040a 53595343 		.ascii	"SYSCFG_TypeDef\000"
 3221      46475F54 
 3221      79706544 
 3221      656600
 3222              	.LASF21:
 3223 0419 74726566 		.ascii	"trefs_t\000"
 3223      735F7400 
 3224              	.LASF82:
 3225 0421 52455345 		.ascii	"RESERVED1\000"
 3225      52564544 
 3225      3100
 3226              	.LASF83:
 3227 042b 52455345 		.ascii	"RESERVED2\000"
 3227      52564544 
 3227      3200
 3228              	.LASF59:
 3229 0435 76697274 		.ascii	"virtual_timer_t\000"
 3229      75616C5F 
 3229      74696D65 
 3229      725F7400 
 3230              	.LASF29:
 3231 0445 705F7072 		.ascii	"p_prev\000"
 3231      657600
 3232              	.LASF22:
 3233 044c 74707269 		.ascii	"tprio_t\000"
 3233      6F5F7400 
 3234              	.LASF70:
 3235 0454 63685F73 		.ascii	"ch_system_debug\000"
 3235      79737465 
 3235      6D5F6465 
 3235      62756700 
 3236              	.LASF117:
 3237 0464 5F426F6F 		.ascii	"_Bool\000"
 3237      6C00
 3238              	.LASF15:
ARM GAS  /tmp/ccDjVg0g.s 			page 86


 3239 046a 696E7433 		.ascii	"int32_t\000"
 3239      325F7400 
 3240              	.LASF4:
 3241 0472 756E7369 		.ascii	"unsigned char\000"
 3241      676E6564 
 3241      20636861 
 3241      7200
 3242              	.LASF80:
 3243 0480 46545352 		.ascii	"FTSR\000"
 3243      00
 3244              	.LASF41:
 3245 0485 705F6D74 		.ascii	"p_mtxlist\000"
 3245      786C6973 
 3245      7400
 3246              	.LASF5:
 3247 048f 73686F72 		.ascii	"short int\000"
 3247      7420696E 
 3247      7400
 3248              	.LASF35:
 3249 0499 705F7374 		.ascii	"p_state\000"
 3249      61746500 
 3250              	.LASF53:
 3251 04a1 725F7072 		.ascii	"r_prio\000"
 3251      696F00
 3252              	.LASF107:
 3253 04a8 65776D61 		.ascii	"ewmask\000"
 3253      736B00
 3254              	.LASF28:
 3255 04af 705F6E65 		.ascii	"p_next\000"
 3255      787400
 3256              	.LASF36:
 3257 04b6 705F666C 		.ascii	"p_flags\000"
 3257      61677300 
 3258              	.LASF73:
 3259 04be 63685F73 		.ascii	"ch_system\000"
 3259      79737465 
 3259      6D00
 3260              	.LASF100:
 3261 04c8 7264796D 		.ascii	"rdymsg\000"
 3261      736700
 3262              	.LASF135:
 3263 04cf 6368616E 		.ascii	"channel\000"
 3263      6E656C00 
 3264              	.LASF60:
 3265 04d7 63685F76 		.ascii	"ch_virtual_timer\000"
 3265      69727475 
 3265      616C5F74 
 3265      696D6572 
 3265      00
 3266              	.LASF108:
 3267 04e8 63685F73 		.ascii	"ch_semaphore\000"
 3267      656D6170 
 3267      686F7265 
 3267      00
 3268              	.LASF40:
 3269 04f5 705F6570 		.ascii	"p_epending\000"
 3269      656E6469 
ARM GAS  /tmp/ccDjVg0g.s 			page 87


 3269      6E6700
 3270              	.LASF16:
 3271 0500 75696E74 		.ascii	"uint32_t\000"
 3271      33325F74 
 3271      00
 3272              	.LASF106:
 3273 0509 77746D74 		.ascii	"wtmtxp\000"
 3273      787000
 3274              	.LASF52:
 3275 0510 725F7175 		.ascii	"r_queue\000"
 3275      65756500 
 3276              	.LASF63:
 3277 0518 76745F64 		.ascii	"vt_delta\000"
 3277      656C7461 
 3277      00
 3278              	.LASF47:
 3279 0521 63685F74 		.ascii	"ch_threads_list\000"
 3279      68726561 
 3279      64735F6C 
 3279      69737400 
 3280              	.LASF10:
 3281 0531 6C6F6E67 		.ascii	"long unsigned int\000"
 3281      20756E73 
 3281      69676E65 
 3281      6420696E 
 3281      7400
 3282              	.LASF119:
 3283 0543 4558545F 		.ascii	"EXT_STOP\000"
 3283      53544F50 
 3283      00
 3284              	.LASF115:
 3285 054c 63686172 		.ascii	"char\000"
 3285      00
 3286              	.LASF127:
 3287 0551 6D6F6465 		.ascii	"mode\000"
 3287      00
 3288              	.LASF124:
 3289 0556 636F6E66 		.ascii	"config\000"
 3289      696700
 3290              	.LASF126:
 3291 055d 65787463 		.ascii	"extcallback_t\000"
 3291      616C6C62 
 3291      61636B5F 
 3291      7400
 3292              	.LASF27:
 3293 056b 74687265 		.ascii	"thread_t\000"
 3293      61645F74 
 3293      00
 3294              	.LASF114:
 3295 0574 6D5F6E65 		.ascii	"m_next\000"
 3295      787400
 3296              	.LASF26:
 3297 057b 73797374 		.ascii	"systime_t\000"
 3297      696D655F 
 3297      7400
 3298              	.LASF42:
 3299 0585 705F7265 		.ascii	"p_realprio\000"
ARM GAS  /tmp/ccDjVg0g.s 			page 88


 3299      616C7072 
 3299      696F00
 3300              	.LASF58:
 3301 0590 76746675 		.ascii	"vtfunc_t\000"
 3301      6E635F74 
 3301      00
 3302              	.LASF9:
 3303 0599 5F5F7569 		.ascii	"__uint32_t\000"
 3303      6E743332 
 3303      5F7400
 3304              	.LASF71:
 3305 05a4 70616E69 		.ascii	"panic_msg\000"
 3305      635F6D73 
 3305      6700
 3306              	.LASF98:
 3307 05ae 6F666673 		.ascii	"offset\000"
 3307      657400
 3308              	.LASF18:
 3309 05b5 7274636E 		.ascii	"rtcnt_t\000"
 3309      745F7400 
 3310              	.LASF85:
 3311 05bd 454D5232 		.ascii	"EMR2\000"
 3311      00
 3312              	.LASF65:
 3313 05c2 76745F70 		.ascii	"vt_par\000"
 3313      617200
 3314              	.LASF122:
 3315 05c9 45585444 		.ascii	"EXTDriver\000"
 3315      72697665 
 3315      7200
 3316              	.LASF48:
 3317 05d3 74687265 		.ascii	"threads_queue_t\000"
 3317      6164735F 
 3317      71756575 
 3317      655F7400 
 3318              	.LASF111:
 3319 05e3 63685F6D 		.ascii	"ch_mutex\000"
 3319      75746578 
 3319      00
 3320              	.LASF37:
 3321 05ec 705F7265 		.ascii	"p_refs\000"
 3321      667300
 3322              	.LASF90:
 3323 05f3 43464752 		.ascii	"CFGR1\000"
 3323      3100
 3324              	.LASF92:
 3325 05f9 43464752 		.ascii	"CFGR2\000"
 3325      3200
 3326              	.LASF14:
 3327 05ff 75696E74 		.ascii	"uint8_t\000"
 3327      385F7400 
 3328              	.LASF146:
 3329 0607 474E5520 		.ascii	"GNU C 4.8.4 20140526 (release) [ARM/embedded-4_8-br"
 3329      4320342E 
 3329      382E3420 
 3329      32303134 
 3329      30353236 
ARM GAS  /tmp/ccDjVg0g.s 			page 89


 3330 063a 616E6368 		.ascii	"anch revision 211358] -mcpu=cortex-m4 -mno-thumb-in"
 3330      20726576 
 3330      6973696F 
 3330      6E203231 
 3330      31333538 
 3331 066d 74657277 		.ascii	"terwork -mthumb -ggdb -O2 -fomit-frame-pointer -fal"
 3331      6F726B20 
 3331      2D6D7468 
 3331      756D6220 
 3331      2D676764 
 3332 06a0 69676E2D 		.ascii	"ign-functions=16 -ffunction-sections -fdata-section"
 3332      66756E63 
 3332      74696F6E 
 3332      733D3136 
 3332      202D6666 
 3333 06d3 73202D66 		.ascii	"s -fno-common -flto\000"
 3333      6E6F2D63 
 3333      6F6D6D6F 
 3333      6E202D66 
 3333      6C746F00 
 3334              	.LASF102:
 3335 06e7 77746F62 		.ascii	"wtobjp\000"
 3335      6A7000
 3336              	.LASF34:
 3337 06ee 705F6E61 		.ascii	"p_name\000"
 3337      6D6500
 3338              	.LASF45:
 3339 06f5 74687265 		.ascii	"threads_list_t\000"
 3339      6164735F 
 3339      6C697374 
 3339      5F7400
 3340              	.LASF89:
 3341 0704 45585449 		.ascii	"EXTI_TypeDef\000"
 3341      5F547970 
 3341      65446566 
 3341      00
 3342              	.LASF143:
 3343 0711 45585444 		.ascii	"EXTD1\000"
 3343      3100
 3344              	.LASF113:
 3345 0717 6D5F6F77 		.ascii	"m_owner\000"
 3345      6E657200 
 3346              	.LASF31:
 3347 071f 705F6374 		.ascii	"p_ctx\000"
 3347      7800
 3348              	.LASF64:
 3349 0725 76745F66 		.ascii	"vt_func\000"
 3349      756E6300 
 3350              	.LASF91:
 3351 072d 45585449 		.ascii	"EXTICR\000"
 3351      435200
 3352              		.comm	__gnu_lto_v1,1,1
 3353              		.ident	"GCC: (GNU Tools for ARM Embedded Processors) 4.8.4 20140526 (release) [ARM/embedded-4_8-br
ARM GAS  /tmp/ccDjVg0g.s 			page 90


DEFINED SYMBOLS
                            *ABS*:00000000 ext_lld.c
     /tmp/ccDjVg0g.s:419    .text.ext_lld_init:00000000 $t
     /tmp/ccDjVg0g.s:425    .text.ext_lld_init:00000000 ext_lld_init
     /tmp/ccDjVg0g.s:440    .text.ext_lld_init:00000008 $d
     /tmp/ccDjVg0g.s:445    .text.ext_lld_stop:00000000 $t
     /tmp/ccDjVg0g.s:451    .text.ext_lld_stop:00000000 ext_lld_stop
     /tmp/ccDjVg0g.s:501    .text.ext_lld_stop:0000002c $d
     /tmp/ccDjVg0g.s:506    .text.ext_lld_channel_enable:00000000 $t
     /tmp/ccDjVg0g.s:512    .text.ext_lld_channel_enable:00000000 ext_lld_channel_enable
     /tmp/ccDjVg0g.s:709    .text.ext_lld_channel_enable:00000100 $d
     /tmp/ccDjVg0g.s:714    .text.ext_lld_channel_disable:00000000 $t
     /tmp/ccDjVg0g.s:720    .text.ext_lld_channel_disable:00000000 ext_lld_channel_disable
     /tmp/ccDjVg0g.s:788    .text.ext_lld_channel_disable:0000004c $d
     /tmp/ccDjVg0g.s:793    .text.ext_lld_start:00000000 $t
     /tmp/ccDjVg0g.s:799    .text.ext_lld_start:00000000 ext_lld_start
     /tmp/ccDjVg0g.s:873    .bss.EXTD1:00000000 EXTD1
     /tmp/ccDjVg0g.s:869    .bss.EXTD1:00000000 $d
                            *COM*:00000001 __gnu_lto_v1
                     .debug_frame:00000010 $d
     /tmp/ccDjVg0g.s:444    .text.ext_lld_init:0000000c $t
     /tmp/ccDjVg0g.s:713    .text.ext_lld_channel_enable:00000104 $t

UNDEFINED SYMBOLS
extObjectInit
ext_lld_exti_irq_disable
ext_lld_exti_irq_enable
