ARM GAS  /tmp/cclyR2wC.s 			page 1


   1              		.syntax unified
   2              		.cpu cortex-m4
   3              		.fpu softvfp
   4              		.eabi_attribute 20, 1
   5              		.eabi_attribute 21, 1
   6              		.eabi_attribute 23, 3
   7              		.eabi_attribute 24, 1
   8              		.eabi_attribute 25, 1
   9              		.eabi_attribute 26, 1
  10              		.eabi_attribute 30, 6
  11              		.eabi_attribute 34, 1
  12              		.eabi_attribute 18, 4
  13              		.thumb
  14              		.file	"hal.c"
  15              		.text
  16              	.Ltext0:
  17              		.section	.gnu.lto_.inline.59b027c37184f9a0,"",%progbits
  18 0000 789C6362 		.ascii	"x\234cb`b\300\006\374\2414P\226\031\210\231\230\026"
  18      6062C006 
  18      FCA13450 
  18      96198899 
  18      9816
  19 0012 C833B040 		.ascii	"\3103\260@\32422\360\\f@\023\342\302A0q\243p\031\000"
  19      D43232F0 
  19      5C664013 
  19      E2C24130 
  19      71A37019 
  20 0027 B78D0327 		.ascii	"\267\215\003'"
  21              		.text
  22              		.section	.gnu.lto_osalInit.59b027c37184f9a0,"",%progbits
  23 0000 789C6362 		.ascii	"x\234cb`b@\007\"@\354\013\304\312 \0163\003#P\005#\023"
  23      60624007 
  23      2240EC0B 
  23      C4CA200E 
  23      33032350 
  24 0017 232390C3 		.ascii	"##\220\303\310P\317\304X\037\311\010V\266\236\351\300"
  24      C850CFC4 
  24      581FC908 
  24      56B69EE9 
  24      C0
  25 0028 83FFFFD7 		.ascii	"\203\377\377\327M\272\267t\017\343\017&\220\030+CKC"
  25      4DBAB774 
  25      0FE30F26 
  25      90182B43 
  25      4B43
  26 003a C3040506 		.ascii	"\303\004\005\006\206d\260\212\0200\031\012\322\317|"
  26      8664B08A 
  26      1030190A 
  26      D2CF7C
  27 0049 91813191 		.ascii	"\221\2011\221q!#+\334\222\020\220\201 \273\025\365\364"
  27      7121232B 
  27      DC921090 
  27      8120BB15 
  27      F5F4
  28 005b F49D3332 		.ascii	"\364\23532\2232\375\203\365\363\213\3653\022s\200\024"
  28      9332FD83 
  28      F5F38BF5 
ARM GAS  /tmp/cclyR2wC.s 			page 2


  28      33127380 
  28      14
  29 006c 90282A01 		.ascii	"\220(*\001\323z\031\014\000\214y\033C"
  29      D37A190C 
  29      008C791B 
  29      43
  30              		.text
  31              		.section	.gnu.lto_halInit.59b027c37184f9a0,"",%progbits
  32 0000 789C6362 		.ascii	"x\234cb`b@\007\"@\334\307\310\300 \007\342030\002U0"
  32      60624007 
  32      2240DCC7 
  32      C8C02007 
  32      E2303330 
  33 0017 32310205 		.ascii	"21\002\005\030\030\031\352\231\030\353#\031\301\312"
  33      181819EA 
  33      9918EB23 
  33      19C1CA
  34 0026 D6331D78 		.ascii	"\3263\035x\360\377\377\272\017\033\037\316c\024\002"
  34      F0FFFFBA 
  34      0F1B1FCE 
  34      631402
  35 0035 09B132B4 		.ascii	"\011\2612\26444LP``H\006+\010\001\223\241 \355\314\347"
  35      34344C50 
  35      60604806 
  35      2B080193 
  35      A120EDCC 
  36 004a 199A1FFC 		.ascii	"\031\232\037\3746Kd\\\310\310\012\024\253f\370\325\320"
  36      364B645C 
  36      C8C80A14 
  36      AB66F8D5 
  36      D0
  37 005b D12090C9 		.ascii	"\321 \220\311\010T\0111+\023D\203\024\375\263\303\246"
  37      08540931 
  37      2B134483 
  37      14FDB3C3 
  37      A6
  38 006c 88095951 		.ascii	"\210\011YQ\313\203\316d\014EL\311\214\314`E \021\211"
  38      CB83CE64 
  38      0C454CC9 
  38      8CCC6045 
  38      201189
  39 007f 4C46E65C 		.ascii	"LF\346\\F\006\250\242LF\026\210\331s\017\263a3\234\005"
  39      4606A8A2 
  39      4C461688 
  39      D9730FB3 
  39      61339C05 
  40 0093 D505A716 		.ascii	"\325\005\247\026cU\305\212\252\352\006v\263\330PU\365"
  40      6355C58A 
  40      AAEA0676 
  40      B3D85055 
  40      F5
  41 00a4 B6B26353 		.ascii	"\266\262cS\305\216\252j\316R\254fq T]dh|0O\025\246\010"
  41      C58EAA6A 
  41      CE52AC66 
  41      7120545D 
  41      64687C30 
  42 00bc 02424012 		.ascii	"\002B@\022\240\200\221\321\323\323w\316\310L\312\364"
ARM GAS  /tmp/cclyR2wC.s 			page 3


  42      A08091D1 
  42      D3D377CE 
  42      C84CCAF4 
  43 00cc 0FD6CF2F 		.ascii	"\017\326\317/\326\317H\314\321/.J\006\321z\311\014\000"
  43      D6CF48CC 
  43      D12F2E4A 
  43      06D17AC9 
  43      0C00
  44 00de D2336560 		.ascii	"\3223e`"
  45              		.text
  46              		.section	.gnu.lto_.symbol_nodes.59b027c37184f9a0,"",%progbits
  47 0000 789C45C8 		.ascii	"x\234E\310;\022\202@\020\204\341\236^\226\3071=IS\232"
  47      3B128240 
  47      1084E19E 
  47      5E96C731 
  47      3D49539A 
  48 0014 10A2829A 		.ascii	"\020\242\202\232s\024\"\023Cc-N\340\005,\327\225r&\371"
  48      73142213 
  48      43632D4E 
  48      E0052CD7 
  48      957226F9 
  49 0028 E66F82B8 		.ascii	"\346o\202\270b=\276L@\177\003\244\261\333\260\247l\315"
  49      623DBE4C 
  49      407F03A4 
  49      B1DBB0A7 
  49      6CCD
  50 003a 7B67F1C8 		.ascii	"{g\361\310\364\301.\024\177k\333\232\235\251\340u\242"
  50      F4C12E14 
  50      7F6BDB9A 
  50      9DA9E075 
  50      A2
  51 004b 0AAF918A 		.ascii	"\012\257\221\212^\003Uz\035\250\312kO\325\377\012\006"
  51      5E03557A 
  51      1DA8CA6B 
  51      4FD5FF0A 
  51      06
  52 005c 6C1FEF64 		.ascii	"l\037\357d\203)[c\316VX\262%v\317\257\021S\266\300\234"
  52      83295B63 
  52      CE5658B2 
  52      2576CFAF 
  52      1153B6C0 
  53 0071 0D5892F8 		.ascii	"\015X\222\370\000\245+<\264"
  53      00A52B3C 
  53      B4
  54              		.text
  55              		.section	.gnu.lto_.refs.59b027c37184f9a0,"",%progbits
  56 0000 789C6362 		.ascii	"x\234cb`b`e\200\000FF&&\006\000\000\245\000\020"
  56      60626065 
  56      80004646 
  56      26260600 
  56      00A50010 
  57              		.text
  58              		.section	.gnu.lto_.decls.59b027c37184f9a0,"",%progbits
  59 0000 789CBD96 		.ascii	"x\234\275\226]L\034U\024\307\357\235\205\205-H\015\211"
  59      5D4C1C55 
  59      14C7EF9D 
  59      85852D48 
ARM GAS  /tmp/cclyR2wC.s 			page 4


  59      0D89
  60 0012 95264D58 		.ascii	"\225&MX\324\372@\002\243K5}\"Vh+\011\012\226\326\350"
  60      D4FA4002 
  60      A34B357D 
  60      2256682B 
  60      090A96D6 
  61 0027 D364D819 		.ascii	"\323d\330\031\330I\366\313\331A\351S\247K\203\325\207"
  61      D849F6CB 
  61      D941E953 
  61      A74B83D5 
  61      87
  62 0038 BAC5548B 		.ascii	"\272\305T\2136\272\320\226B\025-\226\320\246\3308\305"
  62      36BAD096 
  62      42152D96 
  62      D0A6D838 
  62      C5
  63 0049 58B16904 		.ascii	"X\261i\004\267&X\033e\005\261}0)\321h\252V\327{\357"
  63      B726581B 
  63      6505B17D 
  63      3029D168 
  63      AA56D77B 
  64 005e CCECCEEC 		.ascii	"\314\354\316\354\316\300\362\342\315\236s\356\356\234"
  64      CEC0F2E2 
  64      CD9E73EE 
  64      EE9C
  65 006c FB3BFFFB 		.ascii	"\373;\377\37313K\001\012\\\005\000\244P\253/\001\240"
  65      31334B01 
  65      0A5C0500 
  65      A450AB2F 
  65      01A0
  66 007e C50100FA 		.ascii	"\305\001\000\372\200z\220i.d\003\310\206\220\215 {\037"
  66      807A9069 
  66      2E6403C8 
  66      86908D20 
  66      7B1F
  67 0090 D928B28F 		.ascii	"\331(\262\217\220\215!;\213l\021\031D\266\004\314m\300"
  67      908D213B 
  67      8B6C1119 
  67      44B604CC 
  67      6DC0
  68 00a2 D08759DF 		.ascii	"\320\207Y\337\365\206\271\205\310n\"\033Dv\013\331\004"
  68      F586B985 
  68      C86E221B 
  68      44760BD9 
  68      04
  69 00b3 B27143FD 		.ascii	"\262qC\375!m\354\242VoL\253?\252\351\031\261\251_\011"
  69      216DECA2 
  69      566F4CAB 
  69      3FAAE919 
  69      B1A95F09 
  70 00c7 DE9595D9 		.ascii	"\336\225\225\331\344\311\205E\252_V\016\310h\2322to"
  70      E4C98545 
  70      AA5F560E 
  70      C8689A32 
  70      746F
  71 00d9 004764D4 		.ascii	"\000Gd\324\342\275\262\014%\026\326\337\007\236\207"
  71      E2BDB20C 
ARM GAS  /tmp/cclyR2wC.s 			page 5


  71      2516D6DF 
  71      079E87
  72 00e8 2C2C7301 		.ascii	",,s\0017\351\224\272@\001\031\315\302A\270A\353\355"
  72      37E994BA 
  72      400119CD 
  72      C241B841 
  72      EBED
  73 00fa 71A8440A 		.ascii	"q\250D\012<\004A5\030A\343c\262<x\277\305\204\000x\030"
  73      3C044135 
  73      1841E363 
  73      B23C78BF 
  73      C5840078 
  74 010f 9CC405E4 		.ascii	"\234\304\005\344a\331A\360\0300\000+\215),<\016\251"
  74      61D941F0 
  74      1830002B 
  74      8D292C3C 
  74      0EA9
  75 0121 6CA97125 		.ascii	"l\251q%y\375\307\263\033\345xTI\245>}B\023@\201g!\352"
  75      79FDC7B3 
  75      1BE57854 
  75      49A53E7D 
  75      42134081 
  76 0138 9E80D52B 		.ascii	"\236\200\325+\026\030\312.p*\267@2\226\374\255wn?<\334"
  76      1618CA2E 
  76      702AB740 
  76      3296FCAD 
  76      776E3F3C 
  77 014d 139F9697 		.ascii	"\023\237\226\227S\251\365\351\022{\263K\250\214\323"
  77      53A9F5E9 
  77      127BB34B 
  77      A88CD3
  78 015c 968CD895 		.ascii	"\226\214\330\225_\252\373\345)\274\236\373\322\204s"
  78      5FAAFBE5 
  78      29BC9EFB 
  78      D28473
  79 016b D01AF181 		.ascii	"\320\032\361\201%\242\357\320\027\0059\210\005\033\304"
  79      25A2EFD0 
  79      17053988 
  79      051BC4
  80 017a 879688F1 		.ascii	"\207\226\210\361\327gr\021\207(k\304\031K\304w\211\313"
  80      D7677211 
  80      87286BC4 
  80      194BC477 
  80      89CB
  81 018c 540E62C2 		.ascii	"T\016b\302\006\361\261%\342\356\265\245\2124\"\377\223"
  81      06F1B125 
  81      E2EEB5A5 
  81      8A3422FF 
  81      93
  82 019d 35AE9D2C 		.ascii	"5\256\235,\007 \320\022\360\232,G\361\300\247\246\313"
  82      0720D012 
  82      F09A2C47 
  82      F1C0A7A6 
  82      CB
  83 01ae CAC16142 		.ascii	"\312\301aBA\220\3512\240#\224u:c\030\037\365\315\340"
  83      4190E932 
  83      A0239475 
ARM GAS  /tmp/cclyR2wC.s 			page 6


  83      3A63181F 
  83      F5CDE0
  84 01c1 043A82CA 		.ascii	"\004:\202\312\357\327\240[\313w\333'\263\360<\334\014"
  84      EFD7A05B 
  84      CB77DB27 
  84      B3F03CDC 
  84      0C
  85 01d2 56CFC399 		.ascii	"V\317\303\231\027`\2716}RBV&\023\245r\201\372;\260X"
  85      1760B936 
  85      7D524256 
  85      2613A572 
  85      81FA3BB0 
  86 01e7 18AD5581 		.ascii	"\030\255U\2018N\376:q\014\312\361)hQ+\011\365Z\2332"
  86      384EFE3A 
  86      710CCAF1 
  86      2968512B 
  86      09F55A9B 
  87 01fc FAFB13D0 		.ascii	"\372\373\023\320\315\302\213(\237\002\277f-\374\252"
  87      CDC28B28 
  87      9F02BF66 
  87      2DFCAA
  88 020b 0C2C47C9 		.ascii	"\014,G\311\226{c\206\310U\362\220\033U\346g\216m\304"
  88      967B6386 
  88      C855F290 
  88      1B55E667 
  88      8E6DC4
  89 021e 725DE060 		.ascii	"r]\340`f\375\201\345\256\251\202\223\357\274\375\371"
  89      66FD81E5 
  89      AEA98293 
  89      EFBCFDF9 
  90 022e 2518455B 		.ascii	"%\030E[\303\302\317\3200\012\374\3510\253\316\037ud"
  90      C3C2CFD0 
  90      300AFCE9 
  90      30ABCE1F 
  90      7564
  91 0240 41790BF6 		.ascii	"Ay\013\366\020\324e\202z\245\320\214ba\221\313|\006"
  91      10D46582 
  91      7AA5D08C 
  91      626191CB 
  91      7C06
  92 0252 D1773D01 		.ascii	"\321w=\001\363\310e\255\203\237\341\353\301Z\323)\320"
  92      F3C865AD 
  92      839FE1EB 
  92      C15AD329 
  92      D0
  93 0263 478AE2E5 		.ascii	"G\212\342\345\262\222\252u\325\246%\230\226\020\335"
  93      B292AA75 
  93      D5A62598 
  93      9610DD
  94 0272 00771DF8 		.ascii	"\000w\035\370\341\352\320\027\344\350\232\201n\323\236"
  94      E1EAD017 
  94      E4E89A81 
  94      6ED39E
  95 0281 FC31531A 		.ascii	"\3741S\032cu\330{\371\300\212m\325)\177\031a\247\326"
  95      6375D87B 
  95      F9C08A6D 
  95      D5297F19 
ARM GAS  /tmp/cclyR2wC.s 			page 7


  95      61A7D6
  96 0294 0C332BFB 		.ascii	"\0143+\373\327\010\033\315\007v\257\275\262\276\204"
  96      D7081BCD 
  96      0776AFBD 
  96      B2BE84
  97 02a3 0136B666 		.ascii	"\0016\266f\230Y\331\233F\330D>\260\012\013eV\315x\207"
  97      9859D99B 
  97      46D8443E 
  97      B00A0B65 
  97      56CD7887 
  98 02b7 B1F0127A 		.ascii	"\261\360\022z\214\260p\012V!\177\205\370\253\304\177"
  98      8CB0700A 
  98      56217F85 
  98      F8ABC47F 
  99 02c7 45FC2CF1 		.ascii	"E\374,\361\011\342\277A>\335(0I4]\310h2\337\311\253"
  99      09E2BF41 
  99      3EDD2830 
  99      49345DC8 
  99      6832DFC9 
 100 02dc 1D3359F9 		.ascii	"\0353Y\371v\027\236\240\372\240\230\312\013f\232\241"
 100      76179EA0 
 100      FAA098CA 
 100      0B669AA1 
 101 02ec DB045B36 		.ascii	"\333\004[6\300\276\314\013\266\325^\331\035\003l6/X"
 101      C0BECC0B 
 101      B6D55ED9 
 101      1D036C36 
 101      2F58
 102 02fe ABBDB258 		.ascii	"\253\275\262X[\0066\227\027,l\257\354\250\001\366C^"
 102      5B063697 
 102      172C6CAF 
 102      ECA801F6 
 102      435E
 103 0310 B083D042 		.ascii	"\260\203\320B\232\341,\250\247`\222\234\202O\310>\317"
 103      9AE12CA8 
 103      A760929C 
 103      824FC83E 
 103      CF
 104 0321 117F9DF8 		.ascii	"\021\177\235\370\033\304\177O\374\274y\377\227r\036"
 104      1BC47F4F 
 104      FCBC79FF 
 104      97721E
 105 0330 6DEAFBC4 		.ascii	"m\352\373\304\300\316\274x\300\332\350v\357\330\011"
 105      C0CEBC78 
 105      C0DAE876 
 105      EFD809
 106 033f 5892A1EB 		.ascii	"X\222\241\353\177\340\210\232\333Yj\364\244\005\313"
 106      7FE0889A 
 106      DB596AF4 
 106      A405CB
 107 034e 57FCDFB7 		.ascii	"W\374\337\267g\207a\364x\257\022\333\237L\355\253\324"
 107      678761F4 
 107      78AF12DB 
 107      9F4CEDAB 
 107      D4
 108 035f FF279C71 		.ascii	"\377'\234qZC~2C\036\000\003\362r,\371\317\033\363\025"
 108      5A437E32 
ARM GAS  /tmp/cclyR2wC.s 			page 8


 108      431E0003 
 108      F2722CF9 
 108      CF1BF315 
 109 0373 E7A3F281 		.ascii	"\347\243\362\201We\371N\012\246\320\323\362\034\331"
 109      5765F94E 
 109      0AA6D0D3 
 109      F21CD9
 110 0382 978B698A 		.ascii	"\227\213i\212\375+\371\347\014\321\364GAUb7\375\233"
 110      FD2BF9E7 
 110      0CD1F447 
 110      41556237 
 110      FD9B
 111 0394 99E9678D 		.ascii	"\231\351g\215\032_a\324\255\314(PU[K7\370\204v\241\245"
 111      1A5F61D4 
 111      ADCC2850 
 111      555B4B37 
 111      F88476A1 
 112 03a9 8D0E4568 		.ascii	"\215\016Eh\037\353G\0019Q\"\261\326\007\212ql\012\012"
 112      1FEB4701 
 112      395122B1 
 112      D6078A71 
 112      6C0A0A
 113 03bc 9273E733 		.ascii	"\222s\3473{\334\015`S\356\210\210\350\305\261\326\013"
 113      7BDC0D60 
 113      53EE8888 
 113      E8C5B1D6 
 113      0B
 114 03cd 8A7C6A6E 		.ascii	"\212|jnen\222\020\364\372\2738\236\216H\010\352\214"
 114      656E9210 
 114      F4FABB38 
 114      9E8E4808 
 114      EA8C
 115 03df 4838EDF1 		.ascii	"H8\355\361\334\264\366\020+r\021\272m7\323\266\373\351"
 115      DCB4F610 
 115      2B7211BA 
 115      6D37D3B6 
 115      FBE9
 116 03f1 3ACF8E3A 		.ascii	":\317\216:\246\261\251\255\241\345\271\355\273^P\257"
 116      A6B1A9AD 
 116      A1E5B9ED 
 116      BB5E50AF 
 117 0401 A1D12ED2 		.ascii	"\241\321.\322\301\000\367\012u\302\002J-B\001'>\270"
 117      C100F70A 
 117      75C2024A 
 117      2D420127 
 117      3EB8
 118 0413 42222F0A 		.ascii	"B\"/\012d\246\316\310jL\276\033\213/B\001'\326\345&"
 118      64A6CEC8 
 118      6A4CBE1B 
 118      8B2F4201 
 118      27D6E526 
 119 0427 8643A284 		.ascii	"\206C\242\204\305#\345tss#\275\263\265\251\345%\017"
 119      C523E574 
 119      737323BD 
 119      B3B5A9E5 
 119      250F
 120 0439 1D66FD8C 		.ascii	"\035f\375\214\337\217\245\227G\244@\235\207\351\014"
ARM GAS  /tmp/cclyR2wC.s 			page 9


 120      DF8FA597 
 120      47A4409D 
 120      87E90C
 121 0448 0B2126C2 		.ascii	"\013!&\302K]a\006\345\007;\210=F\373B\001\236\026\371"
 121      4B5D6106 
 121      E5073B88 
 121      3D46FB42 
 121      019E16F9 
 122 045c 08CF8A5E 		.ascii	"\010\317\212^\037\002\212\334\313\254\310\323\254\030"
 122      1F028ADC 
 122      CBACC8D3 
 122      AC18
 123 046a F0D09D5E 		.ascii	"\360\320\235^o\015\352\324\360\201v\236\343x.\375C0"
 123      6F0DEAD4 
 123      F081769E 
 123      E3782EFD 
 123      4330
 124 047c 14E46B78 		.ascii	"\024\344kx\266]\250\331\302l\255\361<\362\350\226\027"
 124      B65DA8D9 
 124      C26CADF1 
 124      3CF2E896 
 124      17
 125 048d 3DB4E982 		.ascii	"=\264\351\202a\3559!\210\247P\334\205\"\322!\365\300"
 125      61ED3921 
 125      88A750DC 
 125      8522D221 
 125      F5C0
 126 049f FFAF7A80 		.ascii	"\377\257z\200\365\372\204 O3\034\337\301v\371%F\332"
 126      F5FA8420 
 126      4F331CDF 
 126      C176F925 
 126      46DA
 127 04b1 1BE62348 		.ascii	"\033\346#H\315:\206\321\365\024\006B\034/:C\370\222"
 127      CD3A86D1 
 127      F5140642 
 127      1C2F3A43 
 127      F892
 128 04c3 58148A84 		.ascii	"X\024\212\204y\236\023\013\303]aNt\2048\261\200\355"
 128      799E130B 
 128      C35D614E 
 128      748438B1 
 128      80ED
 129 04d5 10FDD8F9 		.ascii	"\020\375\330\371\234\255\333\032Y\211u\266>\251\206"
 129      9CADDB1A 
 129      598975B6 
 129      3EA986
 130 04e4 063534AA 		.ascii	"\00654\252a\273\032v\340\340j\335\326\334\020\012v\010"
 130      61BB1A76 
 130      E0E06ADD 
 130      D6DC100A 
 130      7608
 131 04f6 9DF730DA 		.ascii	"\235\3670\332F0\002\332>\317\312\333\247\035\277\356"
 131      463002DA 
 131      3ECFCADB 
 131      A71DBFEE 
 132 0506 6E7C45DB 		.ascii	"n|E\333\275R\237a|9\206\351S\361\222\002\377\001fvX"
 132      BD529F61 
ARM GAS  /tmp/cclyR2wC.s 			page 10


 132      7C3986E9 
 132      53F19202 
 132      FF016676 
 133 051b 17       		.ascii	"\027"
 134              		.text
 135              		.section	.gnu.lto_.symtab.59b027c37184f9a0,"",%progbits
 136 0000 68616C49 		.ascii	"halInit\000\000\000\000\000\000\000\000\000\000\000"
 136      6E697400 
 136      00000000 
 136      00000000 
 136      0000
 137 0012 00A60000 		.ascii	"\000\246\000\000\000pal_default_config\000\000\002\000"
 137      0070616C 
 137      5F646566 
 137      61756C74 
 137      5F636F6E 
 138 002d 00000000 		.ascii	"\000\000\000\000\000\000\000\000\345\000\000\000stI"
 138      00000000 
 138      E5000000 
 138      737449
 139 003c 6E697400 		.ascii	"nit\000\000\002\000\000\000\000\000\000\000\000\000"
 139      00020000 
 139      00000000 
 139      000000
 140 004b A9000000 		.ascii	"\251\000\000\000boardInit\000\000\002\000\000\000\000"
 140      626F6172 
 140      64496E69 
 140      74000002 
 140      00000000 
 141 005f 00000000 		.ascii	"\000\000\000\000\000\253\000\000\000spiInit\000\000"
 141      00AB0000 
 141      00737069 
 141      496E6974 
 141      0000
 142 0071 02000000 		.ascii	"\002\000\000\000\000\000\000\000\000\000\255\000\000"
 142      00000000 
 142      0000AD00 
 142      00
 143 007e 00736449 		.ascii	"\000sdInit\000\000\002\000\000\000\000\000\000\000\000"
 143      6E697400 
 143      00020000 
 143      00000000 
 143      0000
 144 0090 00AF0000 		.ascii	"\000\257\000\000\000extInit\000\000\002\000\000\000"
 144      00657874 
 144      496E6974 
 144      00000200 
 144      0000
 145 00a2 00000000 		.ascii	"\000\000\000\000\000\000\261\000\000\000_pal_lld_in"
 145      0000B100 
 145      00005F70 
 145      616C5F6C 
 145      6C645F69 
 146 00b7 69740000 		.ascii	"it\000\000\002\000\000\000\000\000\000\000\000\000\263"
 146      02000000 
 146      00000000 
 146      0000B3
ARM GAS  /tmp/cclyR2wC.s 			page 11


 147 00c6 00000068 		.ascii	"\000\000\000hal_lld_init\000\000\002\000\000\000\000"
 147      616C5F6C 
 147      6C645F69 
 147      6E697400 
 147      00020000 
 148 00dc 00000000 		.ascii	"\000\000\000\000\000\343\000\000\000"
 148      00E30000 
 148      00
 149              		.text
 150              		.section	.gnu.lto_.opts,"",%progbits
 151 0000 272D6D63 		.ascii	"'-mcpu=cortex-m4' '-mno-thumb-interwork' '-mthumb' "
 151      70753D63 
 151      6F727465 
 151      782D6D34 
 151      2720272D 
 152 0033 272D6767 		.ascii	"'-ggdb' '-O0' '-fomit-frame-pointer' '-falign-funct"
 152      64622720 
 152      272D4F30 
 152      2720272D 
 152      666F6D69 
 153 0066 696F6E73 		.ascii	"ions=16' '-ffunction-sections' '-fdata-sections' '-"
 153      3D313627 
 153      20272D66 
 153      66756E63 
 153      74696F6E 
 154 0099 666E6F2D 		.ascii	"fno-common' '-flto'\000"
 154      636F6D6D 
 154      6F6E2720 
 154      272D666C 
 154      746F2700 
 155              		.text
 156              		.cfi_sections	.debug_frame
 157              		.section	.text.osalInit,"ax",%progbits
 158              		.align	2
 159              		.p2align 4,,15
 160              		.thumb
 161              		.thumb_func
 162              		.type	osalInit, %function
 163              	osalInit:
 164              	.LFB241:
 165              		.file 1 "../ChibiOS/os/hal/osal/rt/osal.h"
 166              		.loc 1 449 0
 167              		.cfi_startproc
 168              		@ args = 0, pretend = 0, frame = 0
 169              		@ frame_needed = 0, uses_anonymous_args = 0
 170              		@ link register save eliminated.
 171              		.loc 1 451 0
 172 0000 7047     		bx	lr
 173              		.cfi_endproc
 174              	.LFE241:
 175              		.size	osalInit, .-osalInit
 176 0002 00BFAFF3 		.section	.text.halInit,"ax",%progbits
 176      0080AFF3 
 176      0080AFF3 
 176      0080
 177              		.align	2
 178              		.p2align 4,,15
ARM GAS  /tmp/cclyR2wC.s 			page 12


 179              		.global	halInit
 180              		.thumb
 181              		.thumb_func
 182              		.type	halInit, %function
 183              	halInit:
 184              	.LFB272:
 185              		.file 2 "../ChibiOS/os/hal/src/hal.c"
 186              		.loc 2 56 0
 187              		.cfi_startproc
 188              		@ args = 0, pretend = 0, frame = 0
 189              		@ frame_needed = 0, uses_anonymous_args = 0
 190 0000 08B5     		push	{r3, lr}
 191              		.cfi_def_cfa_offset 8
 192              		.cfi_offset 3, -8
 193              		.cfi_offset 14, -4
 194              		.loc 2 59 0
 195 0002 FFF7FEFF 		bl	osalInit
 196              		.loc 2 62 0
 197 0006 FFF7FEFF 		bl	hal_lld_init
 198              		.loc 2 65 0
 199 000a 0748     		ldr	r0, .L3
 200 000c FFF7FEFF 		bl	_pal_lld_init
 201              		.loc 2 77 0
 202 0010 FFF7FEFF 		bl	extInit
 203              		.loc 2 98 0
 204 0014 FFF7FEFF 		bl	sdInit
 205              		.loc 2 104 0
 206 0018 FFF7FEFF 		bl	spiInit
 207              		.loc 2 133 0
 208 001c FFF7FEFF 		bl	boardInit
 209              		.loc 2 140 0
 210 0020 FFF7FEFF 		bl	stInit
 211              		.loc 2 142 0
 212 0024 08BD     		pop	{r3, pc}
 213              	.L4:
 214 0026 00BF     		.align	2
 215              	.L3:
 216 0028 00000000 		.word	pal_default_config
 217              		.cfi_endproc
 218              	.LFE272:
 219              		.size	halInit, .-halInit
 220 002c AFF30080 		.text
 221              	.Letext0:
 222              		.file 3 "/nfs/nfs5/home/research/hardware/arm2/gcc-arm-embedded/gcc-arm-none-eabi-4_8-2014q2/arm-n
 223              		.file 4 "/nfs/nfs5/home/research/hardware/arm2/gcc-arm-embedded/gcc-arm-none-eabi-4_8-2014q2/arm-n
 224              		.file 5 "../ChibiOS/os/rt/ports/ARMCMx/compilers/GCC/chtypes.h"
 225              		.file 6 "../ChibiOS/os/rt/include/chsystypes.h"
 226              		.file 7 "../ChibiOS/os/rt/include/chschd.h"
 227              		.file 8 "../ChibiOS/os/rt/ports/ARMCMx/chcore.h"
 228              		.file 9 "../ChibiOS/os/rt/ports/ARMCMx/chcore_v7m.h"
 229              		.file 10 "../ChibiOS/os/rt/include/chtm.h"
 230              		.file 11 "../ChibiOS/os/rt/include/chsem.h"
 231              		.file 12 "../ChibiOS/os/rt/include/chmtx.h"
 232              		.file 13 "../ChibiOS/os/hal/ports/STM32/LLD/GPIOv2/pal_lld.h"
 233              		.file 14 "../ChibiOS/os/ext/CMSIS/include/core_cm4.h"
 234              		.section	.debug_info,"",%progbits
 235              	.Ldebug_info0:
ARM GAS  /tmp/cclyR2wC.s 			page 13


 236 0000 4A070000 		.4byte	0x74a
 237 0004 0400     		.2byte	0x4
 238 0006 00000000 		.4byte	.Ldebug_abbrev0
 239 000a 04       		.byte	0x4
 240 000b 01       		.uleb128 0x1
 241 000c 76010000 		.4byte	.LASF119
 242 0010 01       		.byte	0x1
 243 0011 44040000 		.4byte	.LASF120
 244 0015 BA040000 		.4byte	.LASF121
 245 0019 00000000 		.4byte	.Ldebug_ranges0+0
 246 001d 00000000 		.4byte	0
 247 0021 00000000 		.4byte	.Ldebug_line0
 248 0025 02       		.uleb128 0x2
 249 0026 04       		.byte	0x4
 250 0027 05       		.byte	0x5
 251 0028 696E7400 		.ascii	"int\000"
 252 002c 03       		.uleb128 0x3
 253 002d 04       		.byte	0x4
 254 002e 07       		.byte	0x7
 255 002f 56020000 		.4byte	.LASF0
 256 0033 03       		.uleb128 0x3
 257 0034 01       		.byte	0x1
 258 0035 06       		.byte	0x6
 259 0036 DD000000 		.4byte	.LASF1
 260 003a 04       		.uleb128 0x4
 261 003b 36000000 		.4byte	.LASF5
 262 003f 03       		.byte	0x3
 263 0040 1C       		.byte	0x1c
 264 0041 45000000 		.4byte	0x45
 265 0045 03       		.uleb128 0x3
 266 0046 01       		.byte	0x1
 267 0047 08       		.byte	0x8
 268 0048 EB030000 		.4byte	.LASF2
 269 004c 03       		.uleb128 0x3
 270 004d 02       		.byte	0x2
 271 004e 05       		.byte	0x5
 272 004f 0E040000 		.4byte	.LASF3
 273 0053 03       		.uleb128 0x3
 274 0054 02       		.byte	0x2
 275 0055 07       		.byte	0x7
 276 0056 94020000 		.4byte	.LASF4
 277 005a 04       		.uleb128 0x4
 278 005b EC020000 		.4byte	.LASF6
 279 005f 03       		.byte	0x3
 280 0060 37       		.byte	0x37
 281 0061 65000000 		.4byte	0x65
 282 0065 03       		.uleb128 0x3
 283 0066 04       		.byte	0x4
 284 0067 05       		.byte	0x5
 285 0068 09010000 		.4byte	.LASF7
 286 006c 04       		.uleb128 0x4
 287 006d 4A050000 		.4byte	.LASF8
 288 0071 03       		.byte	0x3
 289 0072 38       		.byte	0x38
 290 0073 77000000 		.4byte	0x77
 291 0077 03       		.uleb128 0x3
 292 0078 04       		.byte	0x4
ARM GAS  /tmp/cclyR2wC.s 			page 14


 293 0079 07       		.byte	0x7
 294 007a 05050000 		.4byte	.LASF9
 295 007e 03       		.uleb128 0x3
 296 007f 08       		.byte	0x8
 297 0080 05       		.byte	0x5
 298 0081 CF000000 		.4byte	.LASF10
 299 0085 04       		.uleb128 0x4
 300 0086 92030000 		.4byte	.LASF11
 301 008a 03       		.byte	0x3
 302 008b 4E       		.byte	0x4e
 303 008c 90000000 		.4byte	0x90
 304 0090 03       		.uleb128 0x3
 305 0091 08       		.byte	0x8
 306 0092 07       		.byte	0x7
 307 0093 5B000000 		.4byte	.LASF12
 308 0097 04       		.uleb128 0x4
 309 0098 A3050000 		.4byte	.LASF13
 310 009c 04       		.byte	0x4
 311 009d 2A       		.byte	0x2a
 312 009e 3A000000 		.4byte	0x3a
 313 00a2 04       		.uleb128 0x4
 314 00a3 E3030000 		.4byte	.LASF14
 315 00a7 04       		.byte	0x4
 316 00a8 41       		.byte	0x41
 317 00a9 5A000000 		.4byte	0x5a
 318 00ad 04       		.uleb128 0x4
 319 00ae 89040000 		.4byte	.LASF15
 320 00b2 04       		.byte	0x4
 321 00b3 42       		.byte	0x42
 322 00b4 6C000000 		.4byte	0x6c
 323 00b8 04       		.uleb128 0x4
 324 00b9 2D000000 		.4byte	.LASF16
 325 00bd 04       		.byte	0x4
 326 00be 4E       		.byte	0x4e
 327 00bf 85000000 		.4byte	0x85
 328 00c3 04       		.uleb128 0x4
 329 00c4 6E050000 		.4byte	.LASF17
 330 00c8 05       		.byte	0x5
 331 00c9 39       		.byte	0x39
 332 00ca AD000000 		.4byte	0xad
 333 00ce 04       		.uleb128 0x4
 334 00cf CA020000 		.4byte	.LASF18
 335 00d3 05       		.byte	0x5
 336 00d4 3C       		.byte	0x3c
 337 00d5 97000000 		.4byte	0x97
 338 00d9 04       		.uleb128 0x4
 339 00da 19010000 		.4byte	.LASF19
 340 00de 05       		.byte	0x5
 341 00df 3D       		.byte	0x3d
 342 00e0 97000000 		.4byte	0x97
 343 00e4 04       		.uleb128 0x4
 344 00e5 9D030000 		.4byte	.LASF20
 345 00e9 05       		.byte	0x5
 346 00ea 3E       		.byte	0x3e
 347 00eb 97000000 		.4byte	0x97
 348 00ef 04       		.uleb128 0x4
 349 00f0 C5030000 		.4byte	.LASF21
ARM GAS  /tmp/cclyR2wC.s 			page 15


 350 00f4 05       		.byte	0x5
 351 00f5 40       		.byte	0x40
 352 00f6 AD000000 		.4byte	0xad
 353 00fa 04       		.uleb128 0x4
 354 00fb B8020000 		.4byte	.LASF22
 355 00ff 05       		.byte	0x5
 356 0100 41       		.byte	0x41
 357 0101 A2000000 		.4byte	0xa2
 358 0105 04       		.uleb128 0x4
 359 0106 E0020000 		.4byte	.LASF23
 360 010a 05       		.byte	0x5
 361 010b 43       		.byte	0x43
 362 010c AD000000 		.4byte	0xad
 363 0110 04       		.uleb128 0x4
 364 0111 70010000 		.4byte	.LASF24
 365 0115 05       		.byte	0x5
 366 0116 45       		.byte	0x45
 367 0117 A2000000 		.4byte	0xa2
 368 011b 04       		.uleb128 0x4
 369 011c 2C050000 		.4byte	.LASF25
 370 0120 06       		.byte	0x6
 371 0121 33       		.byte	0x33
 372 0122 AD000000 		.4byte	0xad
 373 0126 04       		.uleb128 0x4
 374 0127 1C050000 		.4byte	.LASF26
 375 012b 06       		.byte	0x6
 376 012c 3F       		.byte	0x3f
 377 012d 31010000 		.4byte	0x131
 378 0131 05       		.uleb128 0x5
 379 0132 AE020000 		.4byte	.LASF46
 380 0136 44       		.byte	0x44
 381 0137 07       		.byte	0x7
 382 0138 C2       		.byte	0xc2
 383 0139 1D020000 		.4byte	0x21d
 384 013d 06       		.uleb128 0x6
 385 013e 35040000 		.4byte	.LASF27
 386 0142 07       		.byte	0x7
 387 0143 C3       		.byte	0xc3
 388 0144 28020000 		.4byte	0x228
 389 0148 00       		.byte	0
 390 0149 06       		.uleb128 0x6
 391 014a B5030000 		.4byte	.LASF28
 392 014e 07       		.byte	0x7
 393 014f C5       		.byte	0xc5
 394 0150 28020000 		.4byte	0x228
 395 0154 04       		.byte	0x4
 396 0155 06       		.uleb128 0x6
 397 0156 C8000000 		.4byte	.LASF29
 398 015a 07       		.byte	0x7
 399 015b C7       		.byte	0xc7
 400 015c EF000000 		.4byte	0xef
 401 0160 08       		.byte	0x8
 402 0161 06       		.uleb128 0x6
 403 0162 F4050000 		.4byte	.LASF30
 404 0166 07       		.byte	0x7
 405 0167 C8       		.byte	0xc8
 406 0168 58040000 		.4byte	0x458
ARM GAS  /tmp/cclyR2wC.s 			page 16


 407 016c 0C       		.byte	0xc
 408 016d 06       		.uleb128 0x6
 409 016e 22010000 		.4byte	.LASF31
 410 0172 07       		.byte	0x7
 411 0173 CA       		.byte	0xca
 412 0174 28020000 		.4byte	0x228
 413 0178 10       		.byte	0x10
 414 0179 06       		.uleb128 0x6
 415 017a 4A030000 		.4byte	.LASF32
 416 017e 07       		.byte	0x7
 417 017f CB       		.byte	0xcb
 418 0180 28020000 		.4byte	0x228
 419 0184 14       		.byte	0x14
 420 0185 06       		.uleb128 0x6
 421 0186 B2050000 		.4byte	.LASF33
 422 018a 07       		.byte	0x7
 423 018b D2       		.byte	0xd2
 424 018c E3050000 		.4byte	0x5e3
 425 0190 18       		.byte	0x18
 426 0191 06       		.uleb128 0x6
 427 0192 6E030000 		.4byte	.LASF34
 428 0196 07       		.byte	0x7
 429 0197 D8       		.byte	0xd8
 430 0198 F5050000 		.4byte	0x5f5
 431 019c 1C       		.byte	0x1c
 432 019d 06       		.uleb128 0x6
 433 019e 18040000 		.4byte	.LASF35
 434 01a2 07       		.byte	0x7
 435 01a3 DD       		.byte	0xdd
 436 01a4 D9000000 		.4byte	0xd9
 437 01a8 20       		.byte	0x20
 438 01a9 06       		.uleb128 0x6
 439 01aa 3C040000 		.4byte	.LASF36
 440 01ae 07       		.byte	0x7
 441 01af E1       		.byte	0xe1
 442 01b0 CE000000 		.4byte	0xce
 443 01b4 21       		.byte	0x21
 444 01b5 06       		.uleb128 0x6
 445 01b6 96050000 		.4byte	.LASF37
 446 01ba 07       		.byte	0x7
 447 01bb E6       		.byte	0xe6
 448 01bc E4000000 		.4byte	0xe4
 449 01c0 22       		.byte	0x22
 450 01c1 07       		.uleb128 0x7
 451 01c2 705F7500 		.ascii	"p_u\000"
 452 01c6 07       		.byte	0x7
 453 01c7 3701     		.2byte	0x137
 454 01c9 12050000 		.4byte	0x512
 455 01cd 24       		.byte	0x24
 456 01ce 08       		.uleb128 0x8
 457 01cf 01030000 		.4byte	.LASF38
 458 01d3 07       		.byte	0x7
 459 01d4 3C01     		.2byte	0x13c
 460 01d6 2E020000 		.4byte	0x22e
 461 01da 28       		.byte	0x28
 462 01db 08       		.uleb128 0x8
 463 01dc 72020000 		.4byte	.LASF39
ARM GAS  /tmp/cclyR2wC.s 			page 17


 464 01e0 07       		.byte	0x7
 465 01e1 4201     		.2byte	0x142
 466 01e3 52020000 		.4byte	0x252
 467 01e7 2C       		.byte	0x2c
 468 01e8 08       		.uleb128 0x8
 469 01e9 7E040000 		.4byte	.LASF40
 470 01ed 07       		.byte	0x7
 471 01ee 4801     		.2byte	0x148
 472 01f0 05010000 		.4byte	0x105
 473 01f4 34       		.byte	0x34
 474 01f5 08       		.uleb128 0x8
 475 01f6 04040000 		.4byte	.LASF41
 476 01fa 07       		.byte	0x7
 477 01fb 4F01     		.2byte	0x14f
 478 01fd DD050000 		.4byte	0x5dd
 479 0201 38       		.byte	0x38
 480 0202 08       		.uleb128 0x8
 481 0203 36050000 		.4byte	.LASF42
 482 0207 07       		.byte	0x7
 483 0208 5301     		.2byte	0x153
 484 020a EF000000 		.4byte	0xef
 485 020e 3C       		.byte	0x3c
 486 020f 08       		.uleb128 0x8
 487 0210 E9000000 		.4byte	.LASF43
 488 0214 07       		.byte	0x7
 489 0215 5A01     		.2byte	0x15a
 490 0217 05030000 		.4byte	0x305
 491 021b 40       		.byte	0x40
 492 021c 00       		.byte	0
 493 021d 04       		.uleb128 0x4
 494 021e 14030000 		.4byte	.LASF44
 495 0222 06       		.byte	0x6
 496 0223 44       		.byte	0x44
 497 0224 28020000 		.4byte	0x228
 498 0228 09       		.uleb128 0x9
 499 0229 04       		.byte	0x4
 500 022a 26010000 		.4byte	0x126
 501 022e 04       		.uleb128 0x4
 502 022f C0050000 		.4byte	.LASF45
 503 0233 06       		.byte	0x6
 504 0234 49       		.byte	0x49
 505 0235 39020000 		.4byte	0x239
 506 0239 05       		.uleb128 0x5
 507 023a AA040000 		.4byte	.LASF47
 508 023e 04       		.byte	0x4
 509 023f 07       		.byte	0x7
 510 0240 B0       		.byte	0xb0
 511 0241 52020000 		.4byte	0x252
 512 0245 06       		.uleb128 0x6
 513 0246 35040000 		.4byte	.LASF27
 514 024a 07       		.byte	0x7
 515 024b B1       		.byte	0xb1
 516 024c 28020000 		.4byte	0x228
 517 0250 00       		.byte	0
 518 0251 00       		.byte	0
 519 0252 04       		.uleb128 0x4
 520 0253 7D050000 		.4byte	.LASF48
ARM GAS  /tmp/cclyR2wC.s 			page 18


 521 0257 06       		.byte	0x6
 522 0258 50       		.byte	0x50
 523 0259 5D020000 		.4byte	0x25d
 524 025d 05       		.uleb128 0x5
 525 025e B7000000 		.4byte	.LASF49
 526 0262 08       		.byte	0x8
 527 0263 07       		.byte	0x7
 528 0264 B7       		.byte	0xb7
 529 0265 82020000 		.4byte	0x282
 530 0269 06       		.uleb128 0x6
 531 026a 35040000 		.4byte	.LASF27
 532 026e 07       		.byte	0x7
 533 026f B8       		.byte	0xb8
 534 0270 28020000 		.4byte	0x228
 535 0274 00       		.byte	0
 536 0275 06       		.uleb128 0x6
 537 0276 B5030000 		.4byte	.LASF28
 538 027a 07       		.byte	0x7
 539 027b B9       		.byte	0xb9
 540 027c 28020000 		.4byte	0x228
 541 0280 04       		.byte	0x4
 542 0281 00       		.byte	0
 543 0282 04       		.uleb128 0x4
 544 0283 13000000 		.4byte	.LASF50
 545 0287 06       		.byte	0x6
 546 0288 57       		.byte	0x57
 547 0289 8D020000 		.4byte	0x28d
 548 028d 0A       		.uleb128 0xa
 549 028e D2020000 		.4byte	.LASF51
 550 0292 1C       		.byte	0x1c
 551 0293 07       		.byte	0x7
 552 0294 9201     		.2byte	0x192
 553 0296 E9020000 		.4byte	0x2e9
 554 029a 08       		.uleb128 0x8
 555 029b 99040000 		.4byte	.LASF52
 556 029f 07       		.byte	0x7
 557 02a0 9301     		.2byte	0x193
 558 02a2 52020000 		.4byte	0x252
 559 02a6 00       		.byte	0
 560 02a7 08       		.uleb128 0x8
 561 02a8 20040000 		.4byte	.LASF53
 562 02ac 07       		.byte	0x7
 563 02ad 9401     		.2byte	0x194
 564 02af EF000000 		.4byte	0xef
 565 02b3 08       		.byte	0x8
 566 02b4 08       		.uleb128 0x8
 567 02b5 52030000 		.4byte	.LASF54
 568 02b9 07       		.byte	0x7
 569 02ba 9601     		.2byte	0x196
 570 02bc 58040000 		.4byte	0x458
 571 02c0 0C       		.byte	0xc
 572 02c1 08       		.uleb128 0x8
 573 02c2 32010000 		.4byte	.LASF55
 574 02c6 07       		.byte	0x7
 575 02c7 9901     		.2byte	0x199
 576 02c9 28020000 		.4byte	0x228
 577 02cd 10       		.byte	0x10
ARM GAS  /tmp/cclyR2wC.s 			page 19


 578 02ce 08       		.uleb128 0x8
 579 02cf 8A030000 		.4byte	.LASF56
 580 02d3 07       		.byte	0x7
 581 02d4 9A01     		.2byte	0x19a
 582 02d6 28020000 		.4byte	0x228
 583 02da 14       		.byte	0x14
 584 02db 08       		.uleb128 0x8
 585 02dc 80030000 		.4byte	.LASF57
 586 02e0 07       		.byte	0x7
 587 02e1 9D01     		.2byte	0x19d
 588 02e3 28020000 		.4byte	0x228
 589 02e7 18       		.byte	0x18
 590 02e8 00       		.byte	0
 591 02e9 04       		.uleb128 0x4
 592 02ea 41050000 		.4byte	.LASF58
 593 02ee 06       		.byte	0x6
 594 02ef 5C       		.byte	0x5c
 595 02f0 F4020000 		.4byte	0x2f4
 596 02f4 09       		.uleb128 0x9
 597 02f5 04       		.byte	0x4
 598 02f6 FA020000 		.4byte	0x2fa
 599 02fa 0B       		.uleb128 0xb
 600 02fb 05030000 		.4byte	0x305
 601 02ff 0C       		.uleb128 0xc
 602 0300 05030000 		.4byte	0x305
 603 0304 00       		.byte	0
 604 0305 0D       		.uleb128 0xd
 605 0306 04       		.byte	0x4
 606 0307 04       		.uleb128 0x4
 607 0308 A5030000 		.4byte	.LASF59
 608 030c 06       		.byte	0x6
 609 030d 61       		.byte	0x61
 610 030e 12030000 		.4byte	0x312
 611 0312 0A       		.uleb128 0xa
 612 0313 60040000 		.4byte	.LASF60
 613 0317 14       		.byte	0x14
 614 0318 07       		.byte	0x7
 615 0319 6D01     		.2byte	0x16d
 616 031b 61030000 		.4byte	0x361
 617 031f 08       		.uleb128 0x8
 618 0320 63020000 		.4byte	.LASF61
 619 0324 07       		.byte	0x7
 620 0325 6E01     		.2byte	0x16e
 621 0327 FB050000 		.4byte	0x5fb
 622 032b 00       		.byte	0
 623 032c 08       		.uleb128 0x8
 624 032d 43010000 		.4byte	.LASF62
 625 0331 07       		.byte	0x7
 626 0332 6F01     		.2byte	0x16f
 627 0334 FB050000 		.4byte	0x5fb
 628 0338 04       		.byte	0x4
 629 0339 08       		.uleb128 0x8
 630 033a A1040000 		.4byte	.LASF63
 631 033e 07       		.byte	0x7
 632 033f 7001     		.2byte	0x170
 633 0341 1B010000 		.4byte	0x11b
 634 0345 08       		.byte	0x8
ARM GAS  /tmp/cclyR2wC.s 			page 20


 635 0346 08       		.uleb128 0x8
 636 0347 FA050000 		.4byte	.LASF64
 637 034b 07       		.byte	0x7
 638 034c 7101     		.2byte	0x171
 639 034e E9020000 		.4byte	0x2e9
 640 0352 0C       		.byte	0xc
 641 0353 08       		.uleb128 0x8
 642 0354 76050000 		.4byte	.LASF65
 643 0358 07       		.byte	0x7
 644 0359 7301     		.2byte	0x173
 645 035b 05030000 		.4byte	0x305
 646 035f 10       		.byte	0x10
 647 0360 00       		.byte	0
 648 0361 04       		.uleb128 0x4
 649 0362 94000000 		.4byte	.LASF66
 650 0366 06       		.byte	0x6
 651 0367 66       		.byte	0x66
 652 0368 6C030000 		.4byte	0x36c
 653 036c 0A       		.uleb128 0xa
 654 036d 27030000 		.4byte	.LASF67
 655 0371 10       		.byte	0x10
 656 0372 07       		.byte	0x7
 657 0373 7D01     		.2byte	0x17d
 658 0375 AE030000 		.4byte	0x3ae
 659 0379 08       		.uleb128 0x8
 660 037a 63020000 		.4byte	.LASF61
 661 037e 07       		.byte	0x7
 662 037f 7E01     		.2byte	0x17e
 663 0381 FB050000 		.4byte	0x5fb
 664 0385 00       		.byte	0
 665 0386 08       		.uleb128 0x8
 666 0387 43010000 		.4byte	.LASF62
 667 038b 07       		.byte	0x7
 668 038c 8001     		.2byte	0x180
 669 038e FB050000 		.4byte	0x5fb
 670 0392 04       		.byte	0x4
 671 0393 08       		.uleb128 0x8
 672 0394 A1040000 		.4byte	.LASF63
 673 0398 07       		.byte	0x7
 674 0399 8201     		.2byte	0x182
 675 039b 1B010000 		.4byte	0x11b
 676 039f 08       		.byte	0x8
 677 03a0 08       		.uleb128 0x8
 678 03a1 3E030000 		.4byte	.LASF68
 679 03a5 07       		.byte	0x7
 680 03a6 8A01     		.2byte	0x18a
 681 03a8 1B010000 		.4byte	0x11b
 682 03ac 0C       		.byte	0xc
 683 03ad 00       		.byte	0
 684 03ae 04       		.uleb128 0x4
 685 03af 4C000000 		.4byte	.LASF69
 686 03b3 06       		.byte	0x6
 687 03b4 6B       		.byte	0x6b
 688 03b5 B9030000 		.4byte	0x3b9
 689 03b9 0A       		.uleb128 0xa
 690 03ba CD030000 		.4byte	.LASF70
 691 03be 04       		.byte	0x4
ARM GAS  /tmp/cclyR2wC.s 			page 21


 692 03bf 07       		.byte	0x7
 693 03c0 A401     		.2byte	0x1a4
 694 03c2 D4030000 		.4byte	0x3d4
 695 03c6 08       		.uleb128 0x8
 696 03c7 55050000 		.4byte	.LASF71
 697 03cb 07       		.byte	0x7
 698 03cc AC01     		.2byte	0x1ac
 699 03ce 01060000 		.4byte	0x601
 700 03d2 00       		.byte	0
 701 03d3 00       		.byte	0
 702 03d4 04       		.uleb128 0x4
 703 03d5 BE020000 		.4byte	.LASF72
 704 03d9 06       		.byte	0x6
 705 03da 70       		.byte	0x70
 706 03db DF030000 		.4byte	0x3df
 707 03df 0E       		.uleb128 0xe
 708 03e0 FF000000 		.4byte	.LASF73
 709 03e4 5001     		.2byte	0x150
 710 03e6 07       		.byte	0x7
 711 03e7 C401     		.2byte	0x1c4
 712 03e9 3B040000 		.4byte	0x43b
 713 03ed 08       		.uleb128 0x8
 714 03ee 9D050000 		.4byte	.LASF74
 715 03f2 07       		.byte	0x7
 716 03f3 C801     		.2byte	0x1c8
 717 03f5 82020000 		.4byte	0x282
 718 03f9 00       		.byte	0
 719 03fa 08       		.uleb128 0x8
 720 03fb 4B010000 		.4byte	.LASF75
 721 03ff 07       		.byte	0x7
 722 0400 CC01     		.2byte	0x1cc
 723 0402 61030000 		.4byte	0x361
 724 0406 1C       		.byte	0x1c
 725 0407 07       		.uleb128 0x7
 726 0408 64626700 		.ascii	"dbg\000"
 727 040c 07       		.byte	0x7
 728 040d D001     		.2byte	0x1d0
 729 040f AE030000 		.4byte	0x3ae
 730 0413 2C       		.byte	0x2c
 731 0414 08       		.uleb128 0x8
 732 0415 81000000 		.4byte	.LASF76
 733 0419 07       		.byte	0x7
 734 041a D401     		.2byte	0x1d4
 735 041c 26010000 		.4byte	0x126
 736 0420 30       		.byte	0x30
 737 0421 07       		.uleb128 0x7
 738 0422 746D00   		.ascii	"tm\000"
 739 0425 07       		.byte	0x7
 740 0426 D901     		.2byte	0x1d9
 741 0428 07050000 		.4byte	0x507
 742 042c 74       		.byte	0x74
 743 042d 08       		.uleb128 0x8
 744 042e 61010000 		.4byte	.LASF77
 745 0432 07       		.byte	0x7
 746 0433 E501     		.2byte	0x1e5
 747 0435 06060000 		.4byte	0x606
 748 0439 78       		.byte	0x78
ARM GAS  /tmp/cclyR2wC.s 			page 22


 749 043a 00       		.byte	0
 750 043b 03       		.uleb128 0x3
 751 043c 04       		.byte	0x4
 752 043d 07       		.byte	0x7
 753 043e 0B030000 		.4byte	.LASF78
 754 0442 04       		.uleb128 0x4
 755 0443 3A010000 		.4byte	.LASF79
 756 0447 08       		.byte	0x8
 757 0448 65       		.byte	0x65
 758 0449 05030000 		.4byte	0x305
 759 044d 04       		.uleb128 0x4
 760 044e F6020000 		.4byte	.LASF80
 761 0452 08       		.byte	0x8
 762 0453 6D       		.byte	0x6d
 763 0454 B8000000 		.4byte	0xb8
 764 0458 05       		.uleb128 0x5
 765 0459 66050000 		.4byte	.LASF81
 766 045d 04       		.byte	0x4
 767 045e 08       		.byte	0x8
 768 045f 89       		.byte	0x89
 769 0460 71040000 		.4byte	0x471
 770 0464 0F       		.uleb128 0xf
 771 0465 72313300 		.ascii	"r13\000"
 772 0469 08       		.byte	0x8
 773 046a 8A       		.byte	0x8a
 774 046b EC040000 		.4byte	0x4ec
 775 046f 00       		.byte	0
 776 0470 00       		.byte	0
 777 0471 05       		.uleb128 0x5
 778 0472 40000000 		.4byte	.LASF82
 779 0476 24       		.byte	0x24
 780 0477 09       		.byte	0x9
 781 0478 FD       		.byte	0xfd
 782 0479 EC040000 		.4byte	0x4ec
 783 047d 07       		.uleb128 0x7
 784 047e 723400   		.ascii	"r4\000"
 785 0481 09       		.byte	0x9
 786 0482 1001     		.2byte	0x110
 787 0484 42040000 		.4byte	0x442
 788 0488 00       		.byte	0
 789 0489 07       		.uleb128 0x7
 790 048a 723500   		.ascii	"r5\000"
 791 048d 09       		.byte	0x9
 792 048e 1101     		.2byte	0x111
 793 0490 42040000 		.4byte	0x442
 794 0494 04       		.byte	0x4
 795 0495 07       		.uleb128 0x7
 796 0496 723600   		.ascii	"r6\000"
 797 0499 09       		.byte	0x9
 798 049a 1201     		.2byte	0x112
 799 049c 42040000 		.4byte	0x442
 800 04a0 08       		.byte	0x8
 801 04a1 07       		.uleb128 0x7
 802 04a2 723700   		.ascii	"r7\000"
 803 04a5 09       		.byte	0x9
 804 04a6 1301     		.2byte	0x113
 805 04a8 42040000 		.4byte	0x442
ARM GAS  /tmp/cclyR2wC.s 			page 23


 806 04ac 0C       		.byte	0xc
 807 04ad 07       		.uleb128 0x7
 808 04ae 723800   		.ascii	"r8\000"
 809 04b1 09       		.byte	0x9
 810 04b2 1401     		.2byte	0x114
 811 04b4 42040000 		.4byte	0x442
 812 04b8 10       		.byte	0x10
 813 04b9 07       		.uleb128 0x7
 814 04ba 723900   		.ascii	"r9\000"
 815 04bd 09       		.byte	0x9
 816 04be 1501     		.2byte	0x115
 817 04c0 42040000 		.4byte	0x442
 818 04c4 14       		.byte	0x14
 819 04c5 07       		.uleb128 0x7
 820 04c6 72313000 		.ascii	"r10\000"
 821 04ca 09       		.byte	0x9
 822 04cb 1601     		.2byte	0x116
 823 04cd 42040000 		.4byte	0x442
 824 04d1 18       		.byte	0x18
 825 04d2 07       		.uleb128 0x7
 826 04d3 72313100 		.ascii	"r11\000"
 827 04d7 09       		.byte	0x9
 828 04d8 1701     		.2byte	0x117
 829 04da 42040000 		.4byte	0x442
 830 04de 1C       		.byte	0x1c
 831 04df 07       		.uleb128 0x7
 832 04e0 6C7200   		.ascii	"lr\000"
 833 04e3 09       		.byte	0x9
 834 04e4 1801     		.2byte	0x118
 835 04e6 42040000 		.4byte	0x442
 836 04ea 20       		.byte	0x20
 837 04eb 00       		.byte	0
 838 04ec 09       		.uleb128 0x9
 839 04ed 04       		.byte	0x4
 840 04ee 71040000 		.4byte	0x471
 841 04f2 10       		.uleb128 0x10
 842 04f3 04       		.byte	0x4
 843 04f4 0A       		.byte	0xa
 844 04f5 38       		.byte	0x38
 845 04f6 07050000 		.4byte	0x507
 846 04fa 06       		.uleb128 0x6
 847 04fb 5F050000 		.4byte	.LASF83
 848 04ff 0A       		.byte	0xa
 849 0500 3C       		.byte	0x3c
 850 0501 C3000000 		.4byte	0xc3
 851 0505 00       		.byte	0
 852 0506 00       		.byte	0
 853 0507 04       		.uleb128 0x4
 854 0508 58030000 		.4byte	.LASF84
 855 050c 0A       		.byte	0xa
 856 050d 3D       		.byte	0x3d
 857 050e F2040000 		.4byte	0x4f2
 858 0512 11       		.uleb128 0x11
 859 0513 04       		.byte	0x4
 860 0514 07       		.byte	0x7
 861 0515 FA       		.byte	0xfa
 862 0516 7B050000 		.4byte	0x57b
ARM GAS  /tmp/cclyR2wC.s 			page 24


 863 051a 12       		.uleb128 0x12
 864 051b 26000000 		.4byte	.LASF85
 865 051f 07       		.byte	0x7
 866 0520 0101     		.2byte	0x101
 867 0522 FA000000 		.4byte	0xfa
 868 0526 12       		.uleb128 0x12
 869 0527 78000000 		.4byte	.LASF86
 870 052b 07       		.byte	0x7
 871 052c 0801     		.2byte	0x108
 872 052e FA000000 		.4byte	0xfa
 873 0532 12       		.uleb128 0x12
 874 0533 AB050000 		.4byte	.LASF87
 875 0537 07       		.byte	0x7
 876 0538 0F01     		.2byte	0x10f
 877 053a 05030000 		.4byte	0x305
 878 053e 12       		.uleb128 0x12
 879 053f 20000000 		.4byte	.LASF88
 880 0543 07       		.byte	0x7
 881 0544 1601     		.2byte	0x116
 882 0546 7B050000 		.4byte	0x57b
 883 054a 12       		.uleb128 0x12
 884 054b 8C000000 		.4byte	.LASF89
 885 054f 07       		.byte	0x7
 886 0550 1B01     		.2byte	0x11b
 887 0552 FA000000 		.4byte	0xfa
 888 0556 12       		.uleb128 0x12
 889 0557 6B020000 		.4byte	.LASF90
 890 055b 07       		.byte	0x7
 891 055c 2401     		.2byte	0x124
 892 055e A6050000 		.4byte	0x5a6
 893 0562 12       		.uleb128 0x12
 894 0563 92040000 		.4byte	.LASF91
 895 0567 07       		.byte	0x7
 896 0568 2D01     		.2byte	0x12d
 897 056a DD050000 		.4byte	0x5dd
 898 056e 12       		.uleb128 0x12
 899 056f 2E040000 		.4byte	.LASF92
 900 0573 07       		.byte	0x7
 901 0574 3501     		.2byte	0x135
 902 0576 05010000 		.4byte	0x105
 903 057a 00       		.byte	0
 904 057b 09       		.uleb128 0x9
 905 057c 04       		.byte	0x4
 906 057d 1D020000 		.4byte	0x21d
 907 0581 05       		.uleb128 0x5
 908 0582 71040000 		.4byte	.LASF93
 909 0586 0C       		.byte	0xc
 910 0587 0B       		.byte	0xb
 911 0588 34       		.byte	0x34
 912 0589 A6050000 		.4byte	0x5a6
 913 058d 06       		.uleb128 0x6
 914 058e 2A010000 		.4byte	.LASF94
 915 0592 0B       		.byte	0xb
 916 0593 35       		.byte	0x35
 917 0594 52020000 		.4byte	0x252
 918 0598 00       		.byte	0
 919 0599 06       		.uleb128 0x6
ARM GAS  /tmp/cclyR2wC.s 			page 25


 920 059a FE030000 		.4byte	.LASF95
 921 059e 0B       		.byte	0xb
 922 059f 37       		.byte	0x37
 923 05a0 10010000 		.4byte	0x110
 924 05a4 08       		.byte	0x8
 925 05a5 00       		.byte	0
 926 05a6 09       		.uleb128 0x9
 927 05a7 04       		.byte	0x4
 928 05a8 81050000 		.4byte	0x581
 929 05ac 05       		.uleb128 0x5
 930 05ad 8D050000 		.4byte	.LASF96
 931 05b1 10       		.byte	0x10
 932 05b2 0C       		.byte	0xc
 933 05b3 39       		.byte	0x39
 934 05b4 DD050000 		.4byte	0x5dd
 935 05b8 06       		.uleb128 0x6
 936 05b9 F1000000 		.4byte	.LASF97
 937 05bd 0C       		.byte	0xc
 938 05be 3A       		.byte	0x3a
 939 05bf 52020000 		.4byte	0x252
 940 05c3 00       		.byte	0
 941 05c4 06       		.uleb128 0x6
 942 05c5 D9050000 		.4byte	.LASF98
 943 05c9 0C       		.byte	0xc
 944 05ca 3C       		.byte	0x3c
 945 05cb 28020000 		.4byte	0x228
 946 05cf 08       		.byte	0x8
 947 05d0 06       		.uleb128 0x6
 948 05d1 25050000 		.4byte	.LASF99
 949 05d5 0C       		.byte	0xc
 950 05d6 3E       		.byte	0x3e
 951 05d7 21060000 		.4byte	0x621
 952 05db 0C       		.byte	0xc
 953 05dc 00       		.byte	0
 954 05dd 09       		.uleb128 0x9
 955 05de 04       		.byte	0x4
 956 05df AC050000 		.4byte	0x5ac
 957 05e3 09       		.uleb128 0x9
 958 05e4 04       		.byte	0x4
 959 05e5 E9050000 		.4byte	0x5e9
 960 05e9 13       		.uleb128 0x13
 961 05ea EE050000 		.4byte	0x5ee
 962 05ee 03       		.uleb128 0x3
 963 05ef 01       		.byte	0x1
 964 05f0 08       		.byte	0x8
 965 05f1 17050000 		.4byte	.LASF100
 966 05f5 09       		.uleb128 0x9
 967 05f6 04       		.byte	0x4
 968 05f7 4D040000 		.4byte	0x44d
 969 05fb 09       		.uleb128 0x9
 970 05fc 04       		.byte	0x4
 971 05fd 07030000 		.4byte	0x307
 972 0601 14       		.uleb128 0x14
 973 0602 E3050000 		.4byte	0x5e3
 974 0606 15       		.uleb128 0x15
 975 0607 4D040000 		.4byte	0x44d
 976 060b 16060000 		.4byte	0x616
ARM GAS  /tmp/cclyR2wC.s 			page 26


 977 060f 16       		.uleb128 0x16
 978 0610 3B040000 		.4byte	0x43b
 979 0614 1A       		.byte	0x1a
 980 0615 00       		.byte	0
 981 0616 04       		.uleb128 0x4
 982 0617 52010000 		.4byte	.LASF101
 983 061b 0C       		.byte	0xc
 984 061c 34       		.byte	0x34
 985 061d AC050000 		.4byte	0x5ac
 986 0621 09       		.uleb128 0x9
 987 0622 04       		.byte	0x4
 988 0623 16060000 		.4byte	0x616
 989 0627 03       		.uleb128 0x3
 990 0628 01       		.byte	0x1
 991 0629 02       		.byte	0x2
 992 062a DD030000 		.4byte	.LASF102
 993 062e 10       		.uleb128 0x10
 994 062f 1C       		.byte	0x1c
 995 0630 0D       		.byte	0xd
 996 0631 F5       		.byte	0xf5
 997 0632 8D060000 		.4byte	0x68d
 998 0636 06       		.uleb128 0x6
 999 0637 F9000000 		.4byte	.LASF103
 1000 063b 0D       		.byte	0xd
 1001 063c F7       		.byte	0xf7
 1002 063d AD000000 		.4byte	0xad
 1003 0641 00       		.byte	0
 1004 0642 06       		.uleb128 0x6
 1005 0643 8D020000 		.4byte	.LASF104
 1006 0647 0D       		.byte	0xd
 1007 0648 F9       		.byte	0xf9
 1008 0649 AD000000 		.4byte	0xad
 1009 064d 04       		.byte	0x4
 1010 064e 06       		.uleb128 0x6
 1011 064f 85020000 		.4byte	.LASF105
 1012 0653 0D       		.byte	0xd
 1013 0654 FB       		.byte	0xfb
 1014 0655 AD000000 		.4byte	0xad
 1015 0659 08       		.byte	0x8
 1016 065a 06       		.uleb128 0x6
 1017 065b 72000000 		.4byte	.LASF106
 1018 065f 0D       		.byte	0xd
 1019 0660 FD       		.byte	0xfd
 1020 0661 AD000000 		.4byte	0xad
 1021 0665 0C       		.byte	0xc
 1022 0666 0F       		.uleb128 0xf
 1023 0667 6F647200 		.ascii	"odr\000"
 1024 066b 0D       		.byte	0xd
 1025 066c FF       		.byte	0xff
 1026 066d AD000000 		.4byte	0xad
 1027 0671 10       		.byte	0x10
 1028 0672 08       		.uleb128 0x8
 1029 0673 F9030000 		.4byte	.LASF107
 1030 0677 0D       		.byte	0xd
 1031 0678 0101     		.2byte	0x101
 1032 067a AD000000 		.4byte	0xad
 1033 067e 14       		.byte	0x14
ARM GAS  /tmp/cclyR2wC.s 			page 27


 1034 067f 08       		.uleb128 0x8
 1035 0680 69030000 		.4byte	.LASF108
 1036 0684 0D       		.byte	0xd
 1037 0685 0301     		.2byte	0x103
 1038 0687 AD000000 		.4byte	0xad
 1039 068b 18       		.byte	0x18
 1040 068c 00       		.byte	0
 1041 068d 17       		.uleb128 0x17
 1042 068e 00000000 		.4byte	.LASF109
 1043 0692 0D       		.byte	0xd
 1044 0693 0401     		.2byte	0x104
 1045 0695 2E060000 		.4byte	0x62e
 1046 0699 18       		.uleb128 0x18
 1047 069a A8       		.byte	0xa8
 1048 069b 0D       		.byte	0xd
 1049 069c 0D01     		.2byte	0x10d
 1050 069e F1060000 		.4byte	0x6f1
 1051 06a2 08       		.uleb128 0x8
 1052 06a3 27040000 		.4byte	.LASF110
 1053 06a7 0D       		.byte	0xd
 1054 06a8 1001     		.2byte	0x110
 1055 06aa 8D060000 		.4byte	0x68d
 1056 06ae 00       		.byte	0
 1057 06af 08       		.uleb128 0x8
 1058 06b0 5A010000 		.4byte	.LASF111
 1059 06b4 0D       		.byte	0xd
 1060 06b5 1401     		.2byte	0x114
 1061 06b7 8D060000 		.4byte	0x68d
 1062 06bb 1C       		.byte	0x1c
 1063 06bc 08       		.uleb128 0x8
 1064 06bd B9050000 		.4byte	.LASF112
 1065 06c1 0D       		.byte	0xd
 1066 06c2 1801     		.2byte	0x118
 1067 06c4 8D060000 		.4byte	0x68d
 1068 06c8 38       		.byte	0x38
 1069 06c9 08       		.uleb128 0x8
 1070 06ca 79030000 		.4byte	.LASF113
 1071 06ce 0D       		.byte	0xd
 1072 06cf 1C01     		.2byte	0x11c
 1073 06d1 8D060000 		.4byte	0x68d
 1074 06d5 54       		.byte	0x54
 1075 06d6 08       		.uleb128 0x8
 1076 06d7 12010000 		.4byte	.LASF114
 1077 06db 0D       		.byte	0xd
 1078 06dc 2001     		.2byte	0x120
 1079 06de 8D060000 		.4byte	0x68d
 1080 06e2 70       		.byte	0x70
 1081 06e3 08       		.uleb128 0x8
 1082 06e4 A7020000 		.4byte	.LASF115
 1083 06e8 0D       		.byte	0xd
 1084 06e9 2401     		.2byte	0x124
 1085 06eb 8D060000 		.4byte	0x68d
 1086 06ef 8C       		.byte	0x8c
 1087 06f0 00       		.byte	0
 1088 06f1 17       		.uleb128 0x17
 1089 06f2 CF050000 		.4byte	.LASF116
 1090 06f6 0D       		.byte	0xd
ARM GAS  /tmp/cclyR2wC.s 			page 28


 1091 06f7 3A01     		.2byte	0x13a
 1092 06f9 99060000 		.4byte	0x699
 1093 06fd 19       		.uleb128 0x19
 1094 06fe BC030000 		.4byte	.LASF122
 1095 0702 01       		.byte	0x1
 1096 0703 C101     		.2byte	0x1c1
 1097 0705 00000000 		.4byte	.LFB241
 1098 0709 02000000 		.4byte	.LFE241-.LFB241
 1099 070d 01       		.uleb128 0x1
 1100 070e 9C       		.byte	0x9c
 1101 070f 1A       		.uleb128 0x1a
 1102 0710 7D020000 		.4byte	.LASF123
 1103 0714 02       		.byte	0x2
 1104 0715 38       		.byte	0x38
 1105 0716 00000000 		.4byte	.LFB272
 1106 071a 2C000000 		.4byte	.LFE272-.LFB272
 1107 071e 01       		.uleb128 0x1
 1108 071f 9C       		.byte	0x9c
 1109 0720 1B       		.uleb128 0x1b
 1110 0721 AA000000 		.4byte	.LASF117
 1111 0725 0E       		.byte	0xe
 1112 0726 FA06     		.2byte	0x6fa
 1113 0728 2C070000 		.4byte	0x72c
 1114 072c 14       		.uleb128 0x14
 1115 072d A2000000 		.4byte	0xa2
 1116 0731 1C       		.uleb128 0x1c
 1117 0732 636800   		.ascii	"ch\000"
 1118 0735 07       		.byte	0x7
 1119 0736 0B02     		.2byte	0x20b
 1120 0738 D4030000 		.4byte	0x3d4
 1121 073c 1B       		.uleb128 0x1b
 1122 073d E1050000 		.4byte	.LASF118
 1123 0741 0D       		.byte	0xd
 1124 0742 1E02     		.2byte	0x21e
 1125 0744 48070000 		.4byte	0x748
 1126 0748 13       		.uleb128 0x13
 1127 0749 F1060000 		.4byte	0x6f1
 1128 074d 00       		.byte	0
 1129              		.section	.debug_abbrev,"",%progbits
 1130              	.Ldebug_abbrev0:
 1131 0000 01       		.uleb128 0x1
 1132 0001 11       		.uleb128 0x11
 1133 0002 01       		.byte	0x1
 1134 0003 25       		.uleb128 0x25
 1135 0004 0E       		.uleb128 0xe
 1136 0005 13       		.uleb128 0x13
 1137 0006 0B       		.uleb128 0xb
 1138 0007 03       		.uleb128 0x3
 1139 0008 0E       		.uleb128 0xe
 1140 0009 1B       		.uleb128 0x1b
 1141 000a 0E       		.uleb128 0xe
 1142 000b 55       		.uleb128 0x55
 1143 000c 17       		.uleb128 0x17
 1144 000d 11       		.uleb128 0x11
 1145 000e 01       		.uleb128 0x1
 1146 000f 10       		.uleb128 0x10
 1147 0010 17       		.uleb128 0x17
ARM GAS  /tmp/cclyR2wC.s 			page 29


 1148 0011 00       		.byte	0
 1149 0012 00       		.byte	0
 1150 0013 02       		.uleb128 0x2
 1151 0014 24       		.uleb128 0x24
 1152 0015 00       		.byte	0
 1153 0016 0B       		.uleb128 0xb
 1154 0017 0B       		.uleb128 0xb
 1155 0018 3E       		.uleb128 0x3e
 1156 0019 0B       		.uleb128 0xb
 1157 001a 03       		.uleb128 0x3
 1158 001b 08       		.uleb128 0x8
 1159 001c 00       		.byte	0
 1160 001d 00       		.byte	0
 1161 001e 03       		.uleb128 0x3
 1162 001f 24       		.uleb128 0x24
 1163 0020 00       		.byte	0
 1164 0021 0B       		.uleb128 0xb
 1165 0022 0B       		.uleb128 0xb
 1166 0023 3E       		.uleb128 0x3e
 1167 0024 0B       		.uleb128 0xb
 1168 0025 03       		.uleb128 0x3
 1169 0026 0E       		.uleb128 0xe
 1170 0027 00       		.byte	0
 1171 0028 00       		.byte	0
 1172 0029 04       		.uleb128 0x4
 1173 002a 16       		.uleb128 0x16
 1174 002b 00       		.byte	0
 1175 002c 03       		.uleb128 0x3
 1176 002d 0E       		.uleb128 0xe
 1177 002e 3A       		.uleb128 0x3a
 1178 002f 0B       		.uleb128 0xb
 1179 0030 3B       		.uleb128 0x3b
 1180 0031 0B       		.uleb128 0xb
 1181 0032 49       		.uleb128 0x49
 1182 0033 13       		.uleb128 0x13
 1183 0034 00       		.byte	0
 1184 0035 00       		.byte	0
 1185 0036 05       		.uleb128 0x5
 1186 0037 13       		.uleb128 0x13
 1187 0038 01       		.byte	0x1
 1188 0039 03       		.uleb128 0x3
 1189 003a 0E       		.uleb128 0xe
 1190 003b 0B       		.uleb128 0xb
 1191 003c 0B       		.uleb128 0xb
 1192 003d 3A       		.uleb128 0x3a
 1193 003e 0B       		.uleb128 0xb
 1194 003f 3B       		.uleb128 0x3b
 1195 0040 0B       		.uleb128 0xb
 1196 0041 01       		.uleb128 0x1
 1197 0042 13       		.uleb128 0x13
 1198 0043 00       		.byte	0
 1199 0044 00       		.byte	0
 1200 0045 06       		.uleb128 0x6
 1201 0046 0D       		.uleb128 0xd
 1202 0047 00       		.byte	0
 1203 0048 03       		.uleb128 0x3
 1204 0049 0E       		.uleb128 0xe
ARM GAS  /tmp/cclyR2wC.s 			page 30


 1205 004a 3A       		.uleb128 0x3a
 1206 004b 0B       		.uleb128 0xb
 1207 004c 3B       		.uleb128 0x3b
 1208 004d 0B       		.uleb128 0xb
 1209 004e 49       		.uleb128 0x49
 1210 004f 13       		.uleb128 0x13
 1211 0050 38       		.uleb128 0x38
 1212 0051 0B       		.uleb128 0xb
 1213 0052 00       		.byte	0
 1214 0053 00       		.byte	0
 1215 0054 07       		.uleb128 0x7
 1216 0055 0D       		.uleb128 0xd
 1217 0056 00       		.byte	0
 1218 0057 03       		.uleb128 0x3
 1219 0058 08       		.uleb128 0x8
 1220 0059 3A       		.uleb128 0x3a
 1221 005a 0B       		.uleb128 0xb
 1222 005b 3B       		.uleb128 0x3b
 1223 005c 05       		.uleb128 0x5
 1224 005d 49       		.uleb128 0x49
 1225 005e 13       		.uleb128 0x13
 1226 005f 38       		.uleb128 0x38
 1227 0060 0B       		.uleb128 0xb
 1228 0061 00       		.byte	0
 1229 0062 00       		.byte	0
 1230 0063 08       		.uleb128 0x8
 1231 0064 0D       		.uleb128 0xd
 1232 0065 00       		.byte	0
 1233 0066 03       		.uleb128 0x3
 1234 0067 0E       		.uleb128 0xe
 1235 0068 3A       		.uleb128 0x3a
 1236 0069 0B       		.uleb128 0xb
 1237 006a 3B       		.uleb128 0x3b
 1238 006b 05       		.uleb128 0x5
 1239 006c 49       		.uleb128 0x49
 1240 006d 13       		.uleb128 0x13
 1241 006e 38       		.uleb128 0x38
 1242 006f 0B       		.uleb128 0xb
 1243 0070 00       		.byte	0
 1244 0071 00       		.byte	0
 1245 0072 09       		.uleb128 0x9
 1246 0073 0F       		.uleb128 0xf
 1247 0074 00       		.byte	0
 1248 0075 0B       		.uleb128 0xb
 1249 0076 0B       		.uleb128 0xb
 1250 0077 49       		.uleb128 0x49
 1251 0078 13       		.uleb128 0x13
 1252 0079 00       		.byte	0
 1253 007a 00       		.byte	0
 1254 007b 0A       		.uleb128 0xa
 1255 007c 13       		.uleb128 0x13
 1256 007d 01       		.byte	0x1
 1257 007e 03       		.uleb128 0x3
 1258 007f 0E       		.uleb128 0xe
 1259 0080 0B       		.uleb128 0xb
 1260 0081 0B       		.uleb128 0xb
 1261 0082 3A       		.uleb128 0x3a
ARM GAS  /tmp/cclyR2wC.s 			page 31


 1262 0083 0B       		.uleb128 0xb
 1263 0084 3B       		.uleb128 0x3b
 1264 0085 05       		.uleb128 0x5
 1265 0086 01       		.uleb128 0x1
 1266 0087 13       		.uleb128 0x13
 1267 0088 00       		.byte	0
 1268 0089 00       		.byte	0
 1269 008a 0B       		.uleb128 0xb
 1270 008b 15       		.uleb128 0x15
 1271 008c 01       		.byte	0x1
 1272 008d 27       		.uleb128 0x27
 1273 008e 19       		.uleb128 0x19
 1274 008f 01       		.uleb128 0x1
 1275 0090 13       		.uleb128 0x13
 1276 0091 00       		.byte	0
 1277 0092 00       		.byte	0
 1278 0093 0C       		.uleb128 0xc
 1279 0094 05       		.uleb128 0x5
 1280 0095 00       		.byte	0
 1281 0096 49       		.uleb128 0x49
 1282 0097 13       		.uleb128 0x13
 1283 0098 00       		.byte	0
 1284 0099 00       		.byte	0
 1285 009a 0D       		.uleb128 0xd
 1286 009b 0F       		.uleb128 0xf
 1287 009c 00       		.byte	0
 1288 009d 0B       		.uleb128 0xb
 1289 009e 0B       		.uleb128 0xb
 1290 009f 00       		.byte	0
 1291 00a0 00       		.byte	0
 1292 00a1 0E       		.uleb128 0xe
 1293 00a2 13       		.uleb128 0x13
 1294 00a3 01       		.byte	0x1
 1295 00a4 03       		.uleb128 0x3
 1296 00a5 0E       		.uleb128 0xe
 1297 00a6 0B       		.uleb128 0xb
 1298 00a7 05       		.uleb128 0x5
 1299 00a8 3A       		.uleb128 0x3a
 1300 00a9 0B       		.uleb128 0xb
 1301 00aa 3B       		.uleb128 0x3b
 1302 00ab 05       		.uleb128 0x5
 1303 00ac 01       		.uleb128 0x1
 1304 00ad 13       		.uleb128 0x13
 1305 00ae 00       		.byte	0
 1306 00af 00       		.byte	0
 1307 00b0 0F       		.uleb128 0xf
 1308 00b1 0D       		.uleb128 0xd
 1309 00b2 00       		.byte	0
 1310 00b3 03       		.uleb128 0x3
 1311 00b4 08       		.uleb128 0x8
 1312 00b5 3A       		.uleb128 0x3a
 1313 00b6 0B       		.uleb128 0xb
 1314 00b7 3B       		.uleb128 0x3b
 1315 00b8 0B       		.uleb128 0xb
 1316 00b9 49       		.uleb128 0x49
 1317 00ba 13       		.uleb128 0x13
 1318 00bb 38       		.uleb128 0x38
ARM GAS  /tmp/cclyR2wC.s 			page 32


 1319 00bc 0B       		.uleb128 0xb
 1320 00bd 00       		.byte	0
 1321 00be 00       		.byte	0
 1322 00bf 10       		.uleb128 0x10
 1323 00c0 13       		.uleb128 0x13
 1324 00c1 01       		.byte	0x1
 1325 00c2 0B       		.uleb128 0xb
 1326 00c3 0B       		.uleb128 0xb
 1327 00c4 3A       		.uleb128 0x3a
 1328 00c5 0B       		.uleb128 0xb
 1329 00c6 3B       		.uleb128 0x3b
 1330 00c7 0B       		.uleb128 0xb
 1331 00c8 01       		.uleb128 0x1
 1332 00c9 13       		.uleb128 0x13
 1333 00ca 00       		.byte	0
 1334 00cb 00       		.byte	0
 1335 00cc 11       		.uleb128 0x11
 1336 00cd 17       		.uleb128 0x17
 1337 00ce 01       		.byte	0x1
 1338 00cf 0B       		.uleb128 0xb
 1339 00d0 0B       		.uleb128 0xb
 1340 00d1 3A       		.uleb128 0x3a
 1341 00d2 0B       		.uleb128 0xb
 1342 00d3 3B       		.uleb128 0x3b
 1343 00d4 0B       		.uleb128 0xb
 1344 00d5 01       		.uleb128 0x1
 1345 00d6 13       		.uleb128 0x13
 1346 00d7 00       		.byte	0
 1347 00d8 00       		.byte	0
 1348 00d9 12       		.uleb128 0x12
 1349 00da 0D       		.uleb128 0xd
 1350 00db 00       		.byte	0
 1351 00dc 03       		.uleb128 0x3
 1352 00dd 0E       		.uleb128 0xe
 1353 00de 3A       		.uleb128 0x3a
 1354 00df 0B       		.uleb128 0xb
 1355 00e0 3B       		.uleb128 0x3b
 1356 00e1 05       		.uleb128 0x5
 1357 00e2 49       		.uleb128 0x49
 1358 00e3 13       		.uleb128 0x13
 1359 00e4 00       		.byte	0
 1360 00e5 00       		.byte	0
 1361 00e6 13       		.uleb128 0x13
 1362 00e7 26       		.uleb128 0x26
 1363 00e8 00       		.byte	0
 1364 00e9 49       		.uleb128 0x49
 1365 00ea 13       		.uleb128 0x13
 1366 00eb 00       		.byte	0
 1367 00ec 00       		.byte	0
 1368 00ed 14       		.uleb128 0x14
 1369 00ee 35       		.uleb128 0x35
 1370 00ef 00       		.byte	0
 1371 00f0 49       		.uleb128 0x49
 1372 00f1 13       		.uleb128 0x13
 1373 00f2 00       		.byte	0
 1374 00f3 00       		.byte	0
 1375 00f4 15       		.uleb128 0x15
ARM GAS  /tmp/cclyR2wC.s 			page 33


 1376 00f5 01       		.uleb128 0x1
 1377 00f6 01       		.byte	0x1
 1378 00f7 49       		.uleb128 0x49
 1379 00f8 13       		.uleb128 0x13
 1380 00f9 01       		.uleb128 0x1
 1381 00fa 13       		.uleb128 0x13
 1382 00fb 00       		.byte	0
 1383 00fc 00       		.byte	0
 1384 00fd 16       		.uleb128 0x16
 1385 00fe 21       		.uleb128 0x21
 1386 00ff 00       		.byte	0
 1387 0100 49       		.uleb128 0x49
 1388 0101 13       		.uleb128 0x13
 1389 0102 2F       		.uleb128 0x2f
 1390 0103 0B       		.uleb128 0xb
 1391 0104 00       		.byte	0
 1392 0105 00       		.byte	0
 1393 0106 17       		.uleb128 0x17
 1394 0107 16       		.uleb128 0x16
 1395 0108 00       		.byte	0
 1396 0109 03       		.uleb128 0x3
 1397 010a 0E       		.uleb128 0xe
 1398 010b 3A       		.uleb128 0x3a
 1399 010c 0B       		.uleb128 0xb
 1400 010d 3B       		.uleb128 0x3b
 1401 010e 05       		.uleb128 0x5
 1402 010f 49       		.uleb128 0x49
 1403 0110 13       		.uleb128 0x13
 1404 0111 00       		.byte	0
 1405 0112 00       		.byte	0
 1406 0113 18       		.uleb128 0x18
 1407 0114 13       		.uleb128 0x13
 1408 0115 01       		.byte	0x1
 1409 0116 0B       		.uleb128 0xb
 1410 0117 0B       		.uleb128 0xb
 1411 0118 3A       		.uleb128 0x3a
 1412 0119 0B       		.uleb128 0xb
 1413 011a 3B       		.uleb128 0x3b
 1414 011b 05       		.uleb128 0x5
 1415 011c 01       		.uleb128 0x1
 1416 011d 13       		.uleb128 0x13
 1417 011e 00       		.byte	0
 1418 011f 00       		.byte	0
 1419 0120 19       		.uleb128 0x19
 1420 0121 2E       		.uleb128 0x2e
 1421 0122 00       		.byte	0
 1422 0123 03       		.uleb128 0x3
 1423 0124 0E       		.uleb128 0xe
 1424 0125 3A       		.uleb128 0x3a
 1425 0126 0B       		.uleb128 0xb
 1426 0127 3B       		.uleb128 0x3b
 1427 0128 05       		.uleb128 0x5
 1428 0129 27       		.uleb128 0x27
 1429 012a 19       		.uleb128 0x19
 1430 012b 11       		.uleb128 0x11
 1431 012c 01       		.uleb128 0x1
 1432 012d 12       		.uleb128 0x12
ARM GAS  /tmp/cclyR2wC.s 			page 34


 1433 012e 06       		.uleb128 0x6
 1434 012f 40       		.uleb128 0x40
 1435 0130 18       		.uleb128 0x18
 1436 0131 9742     		.uleb128 0x2117
 1437 0133 19       		.uleb128 0x19
 1438 0134 00       		.byte	0
 1439 0135 00       		.byte	0
 1440 0136 1A       		.uleb128 0x1a
 1441 0137 2E       		.uleb128 0x2e
 1442 0138 00       		.byte	0
 1443 0139 3F       		.uleb128 0x3f
 1444 013a 19       		.uleb128 0x19
 1445 013b 03       		.uleb128 0x3
 1446 013c 0E       		.uleb128 0xe
 1447 013d 3A       		.uleb128 0x3a
 1448 013e 0B       		.uleb128 0xb
 1449 013f 3B       		.uleb128 0x3b
 1450 0140 0B       		.uleb128 0xb
 1451 0141 27       		.uleb128 0x27
 1452 0142 19       		.uleb128 0x19
 1453 0143 11       		.uleb128 0x11
 1454 0144 01       		.uleb128 0x1
 1455 0145 12       		.uleb128 0x12
 1456 0146 06       		.uleb128 0x6
 1457 0147 40       		.uleb128 0x40
 1458 0148 18       		.uleb128 0x18
 1459 0149 9642     		.uleb128 0x2116
 1460 014b 19       		.uleb128 0x19
 1461 014c 00       		.byte	0
 1462 014d 00       		.byte	0
 1463 014e 1B       		.uleb128 0x1b
 1464 014f 34       		.uleb128 0x34
 1465 0150 00       		.byte	0
 1466 0151 03       		.uleb128 0x3
 1467 0152 0E       		.uleb128 0xe
 1468 0153 3A       		.uleb128 0x3a
 1469 0154 0B       		.uleb128 0xb
 1470 0155 3B       		.uleb128 0x3b
 1471 0156 05       		.uleb128 0x5
 1472 0157 49       		.uleb128 0x49
 1473 0158 13       		.uleb128 0x13
 1474 0159 3F       		.uleb128 0x3f
 1475 015a 19       		.uleb128 0x19
 1476 015b 3C       		.uleb128 0x3c
 1477 015c 19       		.uleb128 0x19
 1478 015d 00       		.byte	0
 1479 015e 00       		.byte	0
 1480 015f 1C       		.uleb128 0x1c
 1481 0160 34       		.uleb128 0x34
 1482 0161 00       		.byte	0
 1483 0162 03       		.uleb128 0x3
 1484 0163 08       		.uleb128 0x8
 1485 0164 3A       		.uleb128 0x3a
 1486 0165 0B       		.uleb128 0xb
 1487 0166 3B       		.uleb128 0x3b
 1488 0167 05       		.uleb128 0x5
 1489 0168 49       		.uleb128 0x49
ARM GAS  /tmp/cclyR2wC.s 			page 35


 1490 0169 13       		.uleb128 0x13
 1491 016a 3F       		.uleb128 0x3f
 1492 016b 19       		.uleb128 0x19
 1493 016c 3C       		.uleb128 0x3c
 1494 016d 19       		.uleb128 0x19
 1495 016e 00       		.byte	0
 1496 016f 00       		.byte	0
 1497 0170 00       		.byte	0
 1498              		.section	.debug_aranges,"",%progbits
 1499 0000 24000000 		.4byte	0x24
 1500 0004 0200     		.2byte	0x2
 1501 0006 00000000 		.4byte	.Ldebug_info0
 1502 000a 04       		.byte	0x4
 1503 000b 00       		.byte	0
 1504 000c 0000     		.2byte	0
 1505 000e 0000     		.2byte	0
 1506 0010 00000000 		.4byte	.LFB241
 1507 0014 02000000 		.4byte	.LFE241-.LFB241
 1508 0018 00000000 		.4byte	.LFB272
 1509 001c 2C000000 		.4byte	.LFE272-.LFB272
 1510 0020 00000000 		.4byte	0
 1511 0024 00000000 		.4byte	0
 1512              		.section	.debug_ranges,"",%progbits
 1513              	.Ldebug_ranges0:
 1514 0000 00000000 		.4byte	.LFB241
 1515 0004 02000000 		.4byte	.LFE241
 1516 0008 00000000 		.4byte	.LFB272
 1517 000c 2C000000 		.4byte	.LFE272
 1518 0010 00000000 		.4byte	0
 1519 0014 00000000 		.4byte	0
 1520              		.section	.debug_line,"",%progbits
 1521              	.Ldebug_line0:
 1522 0000 B5020000 		.section	.debug_str,"MS",%progbits,1
 1522      02007E02 
 1522      00000201 
 1522      FB0E0D00 
 1522      01010101 
 1523              	.LASF109:
 1524 0000 73746D33 		.ascii	"stm32_gpio_setup_t\000"
 1524      325F6770 
 1524      696F5F73 
 1524      65747570 
 1524      5F7400
 1525              	.LASF50:
 1526 0013 72656164 		.ascii	"ready_list_t\000"
 1526      795F6C69 
 1526      73745F74 
 1526      00
 1527              	.LASF88:
 1528 0020 77747472 		.ascii	"wttrp\000"
 1528      7000
 1529              	.LASF85:
 1530 0026 7264796D 		.ascii	"rdymsg\000"
 1530      736700
 1531              	.LASF16:
 1532 002d 75696E74 		.ascii	"uint64_t\000"
 1532      36345F74 
ARM GAS  /tmp/cclyR2wC.s 			page 36


 1532      00
 1533              	.LASF5:
 1534 0036 5F5F7569 		.ascii	"__uint8_t\000"
 1534      6E74385F 
 1534      7400
 1535              	.LASF82:
 1536 0040 706F7274 		.ascii	"port_intctx\000"
 1536      5F696E74 
 1536      63747800 
 1537              	.LASF69:
 1538 004c 73797374 		.ascii	"system_debug_t\000"
 1538      656D5F64 
 1538      65627567 
 1538      5F7400
 1539              	.LASF12:
 1540 005b 6C6F6E67 		.ascii	"long long unsigned int\000"
 1540      206C6F6E 
 1540      6720756E 
 1540      7369676E 
 1540      65642069 
 1541              	.LASF106:
 1542 0072 70757064 		.ascii	"pupdr\000"
 1542      7200
 1543              	.LASF86:
 1544 0078 65786974 		.ascii	"exitcode\000"
 1544      636F6465 
 1544      00
 1545              	.LASF76:
 1546 0081 6D61696E 		.ascii	"mainthread\000"
 1546      74687265 
 1546      616400
 1547              	.LASF89:
 1548 008c 73656E74 		.ascii	"sentmsg\000"
 1548      6D736700 
 1549              	.LASF66:
 1550 0094 76697274 		.ascii	"virtual_timers_list_t\000"
 1550      75616C5F 
 1550      74696D65 
 1550      72735F6C 
 1550      6973745F 
 1551              	.LASF117:
 1552 00aa 49544D5F 		.ascii	"ITM_RxBuffer\000"
 1552      52784275 
 1552      66666572 
 1552      00
 1553              	.LASF49:
 1554 00b7 63685F74 		.ascii	"ch_threads_queue\000"
 1554      68726561 
 1554      64735F71 
 1554      75657565 
 1554      00
 1555              	.LASF29:
 1556 00c8 705F7072 		.ascii	"p_prio\000"
 1556      696F00
 1557              	.LASF10:
 1558 00cf 6C6F6E67 		.ascii	"long long int\000"
 1558      206C6F6E 
ARM GAS  /tmp/cclyR2wC.s 			page 37


 1558      6720696E 
 1558      7400
 1559              	.LASF1:
 1560 00dd 7369676E 		.ascii	"signed char\000"
 1560      65642063 
 1560      68617200 
 1561              	.LASF43:
 1562 00e9 705F6D70 		.ascii	"p_mpool\000"
 1562      6F6F6C00 
 1563              	.LASF97:
 1564 00f1 6D5F7175 		.ascii	"m_queue\000"
 1564      65756500 
 1565              	.LASF103:
 1566 00f9 6D6F6465 		.ascii	"moder\000"
 1566      7200
 1567              	.LASF73:
 1568 00ff 63685F73 		.ascii	"ch_system\000"
 1568      79737465 
 1568      6D00
 1569              	.LASF7:
 1570 0109 6C6F6E67 		.ascii	"long int\000"
 1570      20696E74 
 1570      00
 1571              	.LASF114:
 1572 0112 50454461 		.ascii	"PEData\000"
 1572      746100
 1573              	.LASF19:
 1574 0119 74737461 		.ascii	"tstate_t\000"
 1574      74655F74 
 1574      00
 1575              	.LASF31:
 1576 0122 705F6E65 		.ascii	"p_newer\000"
 1576      77657200 
 1577              	.LASF94:
 1578 012a 735F7175 		.ascii	"s_queue\000"
 1578      65756500 
 1579              	.LASF55:
 1580 0132 725F6E65 		.ascii	"r_newer\000"
 1580      77657200 
 1581              	.LASF79:
 1582 013a 72656761 		.ascii	"regarm_t\000"
 1582      726D5F74 
 1582      00
 1583              	.LASF62:
 1584 0143 76745F70 		.ascii	"vt_prev\000"
 1584      72657600 
 1585              	.LASF75:
 1586 014b 76746C69 		.ascii	"vtlist\000"
 1586      737400
 1587              	.LASF101:
 1588 0152 6D757465 		.ascii	"mutex_t\000"
 1588      785F7400 
 1589              	.LASF111:
 1590 015a 50424461 		.ascii	"PBData\000"
 1590      746100
 1591              	.LASF77:
 1592 0161 69646C65 		.ascii	"idle_thread_wa\000"
ARM GAS  /tmp/cclyR2wC.s 			page 38


 1592      5F746872 
 1592      6561645F 
 1592      776100
 1593              	.LASF24:
 1594 0170 636E745F 		.ascii	"cnt_t\000"
 1594      7400
 1595              	.LASF119:
 1596 0176 474E5520 		.ascii	"GNU C 4.8.4 20140526 (release) [ARM/embedded-4_8-br"
 1596      4320342E 
 1596      382E3420 
 1596      32303134 
 1596      30353236 
 1597 01a9 616E6368 		.ascii	"anch revision 211358] -mcpu=cortex-m4 -mno-thumb-in"
 1597      20726576 
 1597      6973696F 
 1597      6E203231 
 1597      31333538 
 1598 01dc 74657277 		.ascii	"terwork -mthumb -ggdb -O0 -fomit-frame-pointer -fal"
 1598      6F726B20 
 1598      2D6D7468 
 1598      756D6220 
 1598      2D676764 
 1599 020f 69676E2D 		.ascii	"ign-functions=16 -ffunction-sections -fdata-section"
 1599      66756E63 
 1599      74696F6E 
 1599      733D3136 
 1599      202D6666 
 1600 0242 73202D66 		.ascii	"s -fno-common -flto\000"
 1600      6E6F2D63 
 1600      6F6D6D6F 
 1600      6E202D66 
 1600      6C746F00 
 1601              	.LASF0:
 1602 0256 756E7369 		.ascii	"unsigned int\000"
 1602      676E6564 
 1602      20696E74 
 1602      00
 1603              	.LASF61:
 1604 0263 76745F6E 		.ascii	"vt_next\000"
 1604      65787400 
 1605              	.LASF90:
 1606 026b 77747365 		.ascii	"wtsemp\000"
 1606      6D7000
 1607              	.LASF39:
 1608 0272 705F6D73 		.ascii	"p_msgqueue\000"
 1608      67717565 
 1608      756500
 1609              	.LASF123:
 1610 027d 68616C49 		.ascii	"halInit\000"
 1610      6E697400 
 1611              	.LASF105:
 1612 0285 6F737065 		.ascii	"ospeedr\000"
 1612      65647200 
 1613              	.LASF104:
 1614 028d 6F747970 		.ascii	"otyper\000"
 1614      657200
 1615              	.LASF4:
ARM GAS  /tmp/cclyR2wC.s 			page 39


 1616 0294 73686F72 		.ascii	"short unsigned int\000"
 1616      7420756E 
 1616      7369676E 
 1616      65642069 
 1616      6E7400
 1617              	.LASF115:
 1618 02a7 50464461 		.ascii	"PFData\000"
 1618      746100
 1619              	.LASF46:
 1620 02ae 63685F74 		.ascii	"ch_thread\000"
 1620      68726561 
 1620      6400
 1621              	.LASF22:
 1622 02b8 6D73675F 		.ascii	"msg_t\000"
 1622      7400
 1623              	.LASF72:
 1624 02be 63685F73 		.ascii	"ch_system_t\000"
 1624      79737465 
 1624      6D5F7400 
 1625              	.LASF18:
 1626 02ca 746D6F64 		.ascii	"tmode_t\000"
 1626      655F7400 
 1627              	.LASF51:
 1628 02d2 63685F72 		.ascii	"ch_ready_list\000"
 1628      65616479 
 1628      5F6C6973 
 1628      7400
 1629              	.LASF23:
 1630 02e0 6576656E 		.ascii	"eventmask_t\000"
 1630      746D6173 
 1630      6B5F7400 
 1631              	.LASF6:
 1632 02ec 5F5F696E 		.ascii	"__int32_t\000"
 1632      7433325F 
 1632      7400
 1633              	.LASF80:
 1634 02f6 73746B61 		.ascii	"stkalign_t\000"
 1634      6C69676E 
 1634      5F7400
 1635              	.LASF38:
 1636 0301 705F7761 		.ascii	"p_waiting\000"
 1636      6974696E 
 1636      6700
 1637              	.LASF78:
 1638 030b 73697A65 		.ascii	"sizetype\000"
 1638      74797065 
 1638      00
 1639              	.LASF44:
 1640 0314 74687265 		.ascii	"thread_reference_t\000"
 1640      61645F72 
 1640      65666572 
 1640      656E6365 
 1640      5F7400
 1641              	.LASF67:
 1642 0327 63685F76 		.ascii	"ch_virtual_timers_list\000"
 1642      69727475 
 1642      616C5F74 
ARM GAS  /tmp/cclyR2wC.s 			page 40


 1642      696D6572 
 1642      735F6C69 
 1643              	.LASF68:
 1644 033e 76745F6C 		.ascii	"vt_lasttime\000"
 1644      61737474 
 1644      696D6500 
 1645              	.LASF32:
 1646 034a 705F6F6C 		.ascii	"p_older\000"
 1646      64657200 
 1647              	.LASF54:
 1648 0352 725F6374 		.ascii	"r_ctx\000"
 1648      7800
 1649              	.LASF84:
 1650 0358 746D5F63 		.ascii	"tm_calibration_t\000"
 1650      616C6962 
 1650      72617469 
 1650      6F6E5F74 
 1650      00
 1651              	.LASF108:
 1652 0369 61667268 		.ascii	"afrh\000"
 1652      00
 1653              	.LASF34:
 1654 036e 705F7374 		.ascii	"p_stklimit\000"
 1654      6B6C696D 
 1654      697400
 1655              	.LASF113:
 1656 0379 50444461 		.ascii	"PDData\000"
 1656      746100
 1657              	.LASF57:
 1658 0380 725F6375 		.ascii	"r_current\000"
 1658      7272656E 
 1658      7400
 1659              	.LASF56:
 1660 038a 725F6F6C 		.ascii	"r_older\000"
 1660      64657200 
 1661              	.LASF11:
 1662 0392 5F5F7569 		.ascii	"__uint64_t\000"
 1662      6E743634 
 1662      5F7400
 1663              	.LASF20:
 1664 039d 74726566 		.ascii	"trefs_t\000"
 1664      735F7400 
 1665              	.LASF59:
 1666 03a5 76697274 		.ascii	"virtual_timer_t\000"
 1666      75616C5F 
 1666      74696D65 
 1666      725F7400 
 1667              	.LASF28:
 1668 03b5 705F7072 		.ascii	"p_prev\000"
 1668      657600
 1669              	.LASF122:
 1670 03bc 6F73616C 		.ascii	"osalInit\000"
 1670      496E6974 
 1670      00
 1671              	.LASF21:
 1672 03c5 74707269 		.ascii	"tprio_t\000"
 1672      6F5F7400 
ARM GAS  /tmp/cclyR2wC.s 			page 41


 1673              	.LASF70:
 1674 03cd 63685F73 		.ascii	"ch_system_debug\000"
 1674      79737465 
 1674      6D5F6465 
 1674      62756700 
 1675              	.LASF102:
 1676 03dd 5F426F6F 		.ascii	"_Bool\000"
 1676      6C00
 1677              	.LASF14:
 1678 03e3 696E7433 		.ascii	"int32_t\000"
 1678      325F7400 
 1679              	.LASF2:
 1680 03eb 756E7369 		.ascii	"unsigned char\000"
 1680      676E6564 
 1680      20636861 
 1680      7200
 1681              	.LASF107:
 1682 03f9 6166726C 		.ascii	"afrl\000"
 1682      00
 1683              	.LASF95:
 1684 03fe 735F636E 		.ascii	"s_cnt\000"
 1684      7400
 1685              	.LASF41:
 1686 0404 705F6D74 		.ascii	"p_mtxlist\000"
 1686      786C6973 
 1686      7400
 1687              	.LASF3:
 1688 040e 73686F72 		.ascii	"short int\000"
 1688      7420696E 
 1688      7400
 1689              	.LASF35:
 1690 0418 705F7374 		.ascii	"p_state\000"
 1690      61746500 
 1691              	.LASF53:
 1692 0420 725F7072 		.ascii	"r_prio\000"
 1692      696F00
 1693              	.LASF110:
 1694 0427 50414461 		.ascii	"PAData\000"
 1694      746100
 1695              	.LASF92:
 1696 042e 65776D61 		.ascii	"ewmask\000"
 1696      736B00
 1697              	.LASF27:
 1698 0435 705F6E65 		.ascii	"p_next\000"
 1698      787400
 1699              	.LASF36:
 1700 043c 705F666C 		.ascii	"p_flags\000"
 1700      61677300 
 1701              	.LASF120:
 1702 0444 2E2E2F43 		.ascii	"../ChibiOS/os/hal/src/hal.c\000"
 1702      68696269 
 1702      4F532F6F 
 1702      732F6861 
 1702      6C2F7372 
 1703              	.LASF60:
 1704 0460 63685F76 		.ascii	"ch_virtual_timer\000"
 1704      69727475 
ARM GAS  /tmp/cclyR2wC.s 			page 42


 1704      616C5F74 
 1704      696D6572 
 1704      00
 1705              	.LASF93:
 1706 0471 63685F73 		.ascii	"ch_semaphore\000"
 1706      656D6170 
 1706      686F7265 
 1706      00
 1707              	.LASF40:
 1708 047e 705F6570 		.ascii	"p_epending\000"
 1708      656E6469 
 1708      6E6700
 1709              	.LASF15:
 1710 0489 75696E74 		.ascii	"uint32_t\000"
 1710      33325F74 
 1710      00
 1711              	.LASF91:
 1712 0492 77746D74 		.ascii	"wtmtxp\000"
 1712      787000
 1713              	.LASF52:
 1714 0499 725F7175 		.ascii	"r_queue\000"
 1714      65756500 
 1715              	.LASF63:
 1716 04a1 76745F64 		.ascii	"vt_delta\000"
 1716      656C7461 
 1716      00
 1717              	.LASF47:
 1718 04aa 63685F74 		.ascii	"ch_threads_list\000"
 1718      68726561 
 1718      64735F6C 
 1718      69737400 
 1719              	.LASF121:
 1720 04ba 2F6E6673 		.ascii	"/nfs/nfs4/home/irbrown/Courses/P442/P442WifiTrailCo"
 1720      2F6E6673 
 1720      342F686F 
 1720      6D652F69 
 1720      7262726F 
 1721 04ed 756E7465 		.ascii	"unterProject/milestone3\000"
 1721      7250726F 
 1721      6A656374 
 1721      2F6D696C 
 1721      6573746F 
 1722              	.LASF9:
 1723 0505 6C6F6E67 		.ascii	"long unsigned int\000"
 1723      20756E73 
 1723      69676E65 
 1723      6420696E 
 1723      7400
 1724              	.LASF100:
 1725 0517 63686172 		.ascii	"char\000"
 1725      00
 1726              	.LASF26:
 1727 051c 74687265 		.ascii	"thread_t\000"
 1727      61645F74 
 1727      00
 1728              	.LASF99:
 1729 0525 6D5F6E65 		.ascii	"m_next\000"
ARM GAS  /tmp/cclyR2wC.s 			page 43


 1729      787400
 1730              	.LASF25:
 1731 052c 73797374 		.ascii	"systime_t\000"
 1731      696D655F 
 1731      7400
 1732              	.LASF42:
 1733 0536 705F7265 		.ascii	"p_realprio\000"
 1733      616C7072 
 1733      696F00
 1734              	.LASF58:
 1735 0541 76746675 		.ascii	"vtfunc_t\000"
 1735      6E635F74 
 1735      00
 1736              	.LASF8:
 1737 054a 5F5F7569 		.ascii	"__uint32_t\000"
 1737      6E743332 
 1737      5F7400
 1738              	.LASF71:
 1739 0555 70616E69 		.ascii	"panic_msg\000"
 1739      635F6D73 
 1739      6700
 1740              	.LASF83:
 1741 055f 6F666673 		.ascii	"offset\000"
 1741      657400
 1742              	.LASF81:
 1743 0566 636F6E74 		.ascii	"context\000"
 1743      65787400 
 1744              	.LASF17:
 1745 056e 7274636E 		.ascii	"rtcnt_t\000"
 1745      745F7400 
 1746              	.LASF65:
 1747 0576 76745F70 		.ascii	"vt_par\000"
 1747      617200
 1748              	.LASF48:
 1749 057d 74687265 		.ascii	"threads_queue_t\000"
 1749      6164735F 
 1749      71756575 
 1749      655F7400 
 1750              	.LASF96:
 1751 058d 63685F6D 		.ascii	"ch_mutex\000"
 1751      75746578 
 1751      00
 1752              	.LASF37:
 1753 0596 705F7265 		.ascii	"p_refs\000"
 1753      667300
 1754              	.LASF74:
 1755 059d 726C6973 		.ascii	"rlist\000"
 1755      7400
 1756              	.LASF13:
 1757 05a3 75696E74 		.ascii	"uint8_t\000"
 1757      385F7400 
 1758              	.LASF87:
 1759 05ab 77746F62 		.ascii	"wtobjp\000"
 1759      6A7000
 1760              	.LASF33:
 1761 05b2 705F6E61 		.ascii	"p_name\000"
 1761      6D6500
ARM GAS  /tmp/cclyR2wC.s 			page 44


 1762              	.LASF112:
 1763 05b9 50434461 		.ascii	"PCData\000"
 1763      746100
 1764              	.LASF45:
 1765 05c0 74687265 		.ascii	"threads_list_t\000"
 1765      6164735F 
 1765      6C697374 
 1765      5F7400
 1766              	.LASF116:
 1767 05cf 50414C43 		.ascii	"PALConfig\000"
 1767      6F6E6669 
 1767      6700
 1768              	.LASF98:
 1769 05d9 6D5F6F77 		.ascii	"m_owner\000"
 1769      6E657200 
 1770              	.LASF118:
 1771 05e1 70616C5F 		.ascii	"pal_default_config\000"
 1771      64656661 
 1771      756C745F 
 1771      636F6E66 
 1771      696700
 1772              	.LASF30:
 1773 05f4 705F6374 		.ascii	"p_ctx\000"
 1773      7800
 1774              	.LASF64:
 1775 05fa 76745F66 		.ascii	"vt_func\000"
 1775      756E6300 
 1776              		.comm	__gnu_lto_v1,1,1
 1777              		.ident	"GCC: (GNU Tools for ARM Embedded Processors) 4.8.4 20140526 (release) [ARM/embedded-4_8-br
ARM GAS  /tmp/cclyR2wC.s 			page 45


DEFINED SYMBOLS
                            *ABS*:00000000 hal.c
     /tmp/cclyR2wC.s:158    .text.osalInit:00000000 $t
     /tmp/cclyR2wC.s:163    .text.osalInit:00000000 osalInit
     /tmp/cclyR2wC.s:177    .text.halInit:00000000 $t
     /tmp/cclyR2wC.s:183    .text.halInit:00000000 halInit
     /tmp/cclyR2wC.s:216    .text.halInit:00000028 $d
                            *COM*:00000001 __gnu_lto_v1
                     .debug_frame:00000010 $d
     /tmp/cclyR2wC.s:220    .text.halInit:0000002c $t

UNDEFINED SYMBOLS
hal_lld_init
_pal_lld_init
extInit
sdInit
spiInit
boardInit
stInit
pal_default_config
