ARM GAS  /tmp/ccjYSstS.s 			page 1


   1              		.syntax unified
   2              		.cpu cortex-m4
   3              		.fpu softvfp
   4              		.eabi_attribute 20, 1
   5              		.eabi_attribute 21, 1
   6              		.eabi_attribute 23, 3
   7              		.eabi_attribute 24, 1
   8              		.eabi_attribute 25, 1
   9              		.eabi_attribute 26, 1
  10              		.eabi_attribute 30, 6
  11              		.eabi_attribute 34, 1
  12              		.eabi_attribute 18, 4
  13              		.thumb
  14              		.file	"hal_lld.c"
  15              		.text
  16              	.Ltext0:
  17              		.section	.gnu.lto_.inline.7c000f1714f1077b,"",%progbits
  18 0000 789C6362 		.ascii	"x\234cb`b\300\006\\\24143\003\203\230(\003\003\223\306"
  18      6062C006 
  18      5CA13433 
  18      03839828 
  18      030393C6 
  19 0014 84134C0C 		.ascii	"\204\023L\014,\020\305\214\014\342\032@!\265\003;\020"
  19      2C10C58C 
  19      0CE21A40 
  19      21B5033B 
  19      10
  20 0025 425C3082 		.ascii	"B\\0\202\211\301\322\002H\3465\274f\203I2\000\000\355"
  20      89C1D202 
  20      48E635BC 
  20      66834932 
  20      0000ED
  21 0038 54065A   		.ascii	"T\006Z"
  22              		.text
  23              		.section	.gnu.lto_hal_lld_backup_domain_init.7c000f1714f1077b,"",%progbits
  24 0000 789CD594 		.ascii	"x\234\325\224=hSQ\024\307\317y\237I\2324\037\215\203"
  24      3D685351 
  24      14C7CF79 
  24      9F499A34 
  24      1F8D83
  25 0013 38587414 		.ascii	"8Xt\024\022l\035\034\004\007Ap\020\205&\240.\322Vh\203"
  25      126C1D1C 
  25      04074170 
  25      108526A0 
  25      2ED25668 
  26 0028 818A75E8 		.ascii	"\201\212u\350\326\373\332\014A\024\203\213\242\203\351"
  26      D6FBDA0C 
  26      4114838B 
  26      A283E9
  27 0037 20481741 		.ascii	" H\027A\020\242.A$d\311\340P\251K\210\240(\332\241\213"
  27      10A22E41 
  27      2464C9E0 
  27      50A94B88 
  27      A028DAA1 
  28 004c D0417BBD 		.ascii	"\320A{\275\347\275\334\274\327|hZ\011\350\205\234\227"
  28      E7BDDCBC 
  28      D77C685A 
ARM GAS  /tmp/ccjYSstS.s 			page 2


  28      09E8859C 
  28      97
  29 005d F3CE39FF 		.ascii	"\363\3169\377\367\273\347\334\367\024P\240}\235\020"
  29      F7BBE7DC 
  29      F71450A0 
  29      7D9D10
  30 006c BFEF3E80 		.ascii	"\277\357>\200c\344\230\200\"\003\025E\005`\212&\214"
  30      63E49880 
  30      22031545 
  30      05608A26 
  30      8C
  31 007d A6A2B8A0 		.ascii	"\246\242\270\240\246\350t\307\240;:\212\013\032\210"
  31      A6E874C7 
  31      A03B3A8A 
  31      0B1A88
  32 008c A2006151 		.ascii	"\242\000aQQ5\335\300\305\213\344B\374\020\2540v\267"
  32      5135DDC0 
  32      C58BE442 
  32      FC10AC30 
  32      76B7
  33 009e F1B87E7B 		.ascii	"\361\270~{\377\315\342R\201ms\216\031\012M#\\\020\377"
  33      FFCDE252 
  33      816D738E 
  33      190A4D23 
  33      5C10FF
  34 00b1 70D4BE90 		.ascii	"p\324\276\220\266w9e\354\331\023\346/\262\037\234\253"
  34      B6773965 
  34      ECD913E6 
  34      2FB21F9C 
  34      AB
  35 00c2 7BAB5107 		.ascii	"{\253Q\007WS\336\372t\276\312re\316Of\250%\003c[\373"
  35      5753DEFA 
  35      74BECA72 
  35      65CE4F66 
  35      A8250363 
  36 00d8 E83EA75F 		.ascii	"\350>\247_\266\237\037\252+(j\255M\316\303}\343\225"
  36      B69F1FAA 
  36      2B286AAD 
  36      4DCEC37D 
  36      E395
  37 00ea B777BFA5 		.ascii	"\267w\277\245\362Ze\307d\377\265N\274\257\334\371[\274"
  37      F25A65C7 
  37      64FFB54E 
  37      BCAFDCF9 
  37      5BBC
  38 00fc 416E692F 		.ascii	"Ani/\007\257^\271\025(Xy\306\371\342\177\276\241\247"
  38      07AF5EB9 
  38      15285879 
  38      C6F9E27F 
  38      BEA1A7
  39 010f 4AB9C1F9 		.ascii	"J\271\301\371F\355\336\273\003\270\017A\274\343\012"
  39      46EDDEBB 
  39      03B80F41 
  39      BCE30A
  40 011e 19551855 		.ascii	"\031U\030U#\243\013\243\031\364\317$\343#\327O&@f\210"
  40      23A30BA3 
  40      19F4CF24 
ARM GAS  /tmp/ccjYSstS.s 			page 3


  40      E323D74F 
  40      26406688 
  41 0132 EE05C984 		.ascii	"\356\005\311\204\310\035&\023&7B&Jn\214\314\010\271"
  41      C81D2613 
  41      26374226 
  41      4A6E8CCC 
  41      08B9
  42 0144 71B08140 		.ascii	"q\260\201@\207\034c\205Q\033M\254\224m\323\364\231S"
  42      871C6385 
  42      511B4DAC 
  42      946DD3F4 
  42      9953
  43 0156 6BB0542A 		.ascii	"k\260T*\325C\223\370\034u\230A$d`\015\213\021\266\010"
  43      D54393F8 
  43      1C759841 
  43      2464600D 
  43      8B11B608 
  44 016a 1E9711A5 		.ascii	"\036\227\021\245-\362\372\222\214\250G`\225\345\254"
  44      2DF2FA92 
  44      8CA84760 
  44      95E5AC
  45 0179 4806F587 		.ascii	"H\006\365\207\360@d\0312\333^S(\267^\203\345\027\252"
  45      F0406419 
  45      32DB5E53 
  45      28B75E83 
  45      E517AA
  46 018c ACD24421 		.ascii	"\254\322D!%\251Lq\364\3168\221.b\330)6C\003%\366\374"
  46      25A94C71 
  46      F4CE3891 
  46      2E62D829 
  46      36430325 
  47 01a2 4129A853 		.ascii	"A)\250S\226\306\212\371\016@\303\326\304\226\244)\223"
  47      96C68AF9 
  47      0E40C3D6 
  47      C496A429 
  47      93
  48 01b3 9B92E8F2 		.ascii	"\233\222\350\362\275Z^EY&\322\014\207P|\353\241\012"
  48      BD5A5E45 
  48      5926D20C 
  48      87507CEB 
  48      A10A
  49 01c5 B90DABD5 		.ascii	"\271\015\253\325'\323\011xg\233\246V\333\375\\\177\024"
  49      27D30978 
  49      679BA656 
  49      DBFD5C7F 
  49      14
  50 01d6 9479BE76 		.ascii	"\224y\276v\250\322\246\351\335';\352\245\362uR9\317"
  50      A8D2A6E9 
  50      DD273BEA 
  50      A5F27552 
  50      39CF
  51 01e8 91D3287D 		.ascii	"\221\323(}im\327\277+e\177we\335\205\327$\374\327\365"
  51      696DD7BF 
  51      2B657F77 
  51      65DD85D7 
  51      24FCD7F5 
  52 01fc 5607023D 		.ascii	"V\007\002=[:\324\331\322@\037-\015\212\312\346\216\024"
ARM GAS  /tmp/ccjYSstS.s 			page 4


  52      5B3AD4D9 
  52      D2401F2D 
  52      0D8ACAE6 
  52      8E14
  53 020e BBA76F3E 		.ascii	"\273\247o>\273=\015\332\021\357\273\222&@\233\352\376"
  53      BB3D0DDA 
  53      11EFBB92 
  53      26409BEA 
  53      FE
  54 021f B7AD9648 		.ascii	"\267\255\226H\250\215\312=\243\303=y\303\355\307\312"
  54      A88DCA3D 
  54      A3C33D79 
  54      C3EDC7CA 
  55 022f 94D99DC0 		.ascii	"\224\331\235\300\356\031\215\210Bw\320\275\317\250)"
  55      EE198D88 
  55      4277D0BD 
  55      CFA829
  56 023e A1768889 		.ascii	"\241v\210\211\372\346\320\256J\301hO\364XO\364\221."
  56      FAE6D0AE 
  56      4AC1684F 
  56      F4584FF4 
  56      912E
  57 0250 4F8BFD11 		.ascii	"O\213\375\021=.\012=\235\376-{\264\033{\\\216@\034~"
  57      3D2E0A3D 
  57      9DFE2D7B 
  57      B41B7B5C 
  57      8E401C7E 
  58 0264 F52D588D 		.ascii	"\365-X\215\227\207\035\001\271R\224J\332c\211D\362\324"
  58      97871D01 
  58      B952944A 
  58      DA638944 
  58      F2D4
  59 0276 6C662A73 		.ascii	"lf*sn\"97\237\234\235\314&\257\315]\2771\237\234H\235"
  59      6E223937 
  59      9F9C9DCC 
  59      26AFCD5D 
  59      BF319F9C 
  60 028c 1D1F73EC 		.ascii	"\035\037s\354\351\361\205\005\212\\\316f\257$\246\341"
  60      E9F18505 
  60      8A5CCE66 
  60      AF24A6E1 
  61 029c 175D80F9 		.ascii	"\027]\200\371U"
  61      55
  62              		.text
  63              		.section	.gnu.lto_hal_lld_init.7c000f1714f1077b,"",%progbits
  64 0000 789CDD54 		.ascii	"x\234\335T\317k\023Q\020\236\331\037\371\235\246I\323"
  64      CF6B1351 
  64      109ED91F 
  64      F99DA649 
  64      D3
  65 0011 36BD9582 		.ascii	"6\275\225\202'!\321\006A\360$B\301\203xh\004\365\"i"
  65      2721D106 
  65      41F02442 
  65      C1837868 
  65      04F52269 
  66 0025 041B0844 		.ascii	"\004\033\010D\254h\321C^\332\012E\204\226\342\241X\017"
  66      AC68D143 
ARM GAS  /tmp/ccjYSstS.s 			page 5


  66      5EDA0A45 
  66      8496E2A1 
  66      580F
  67 0037 B13D5844 		.ascii	"\261=XD\020<U\355!\350A-\024\321\277 \202G\301cA\304"
  67      103C55ED 
  67      21E8412D 
  67      14D1BF20 
  67      8247C163 
  68 004d 7566934D 		.ascii	"uf\223M\266\233\2675F\013\305\007\371\262\363\336\314"
  68      B69BB735 
  68      460BC507 
  68      F9B2F3DE 
  68      CC
  69 005e 37DF370F 		.ascii	"7\3377\017\236\002\0128W\234~\351 \300\030\007* e\240"
  69      9E020A38 
  69      579C7EE9 
  69      20C01807 
  69      2A2065A0 
  70 0072 82480142 		.ascii	"\202H\001BI\301\322\005\376\204\304\010<\022b\251vg"
  70      49C1D205 
  70      FE84C408 
  70      3C1262A9 
  70      7667
  71 0084 6779E86E 		.ascii	"gy\350nefQ\3744\014\314\363Q\016\341<}\341\260\371\247"
  71      656651FC 
  71      340CCCF3 
  71      510EE13C 
  71      7DE1B0F9 
  72 0099 68BBD9EB 		.ascii	"h\273\331\353e\342\371\272\360W\304\017\303P\363\250"
  72      65E2F9BA 
  72      F057C40F 
  72      C350F3A8 
  73 00a9 2A700CFF 		.ascii	"*p\014\377\274\254\233V\035\326T_\276\275\027X,\317"
  73      BCAC9B56 
  73      1DD6545F 
  73      BEBD1758 
  73      2CCF
  74 00bb 0BC32875 		.ascii	"\013\303(u\355\351\304\001\363\264\371\017<\235<`\236"
  74      EDE9C401 
  74      F3B4F90F 
  74      3C9D3C60 
  74      9E
  75 00cc 3EFDADA7 		.ascii	">\375\255\247\256\346\260\1775\325\245\255\377\314\320"
  75      AEE6B07F 
  75      35D5A5AD 
  75      FFCCD0
  76 00db CAD67DFB 		.ascii	"\312\326}\373\373\240u\321\252\233\232}\261\364L\251"
  76      FBA075D1 
  76      AA9B9A7D 
  76      B1F44CA9 
  77 00eb D60CE3E1 		.ascii	"\326\014\343\341\253/\237\02706\204@\323V \213\2538"
  77      AB2F9F17 
  77      30368440 
  77      D356208B 
  77      AB38
  78 00fd 42EF2405 		.ascii	"B\357$\005\032\203\316\340\241\355\307\264\355\345\300"
  78      1A83CEE0 
ARM GAS  /tmp/ccjYSstS.s 			page 6


  78      A1EDC7B4 
  78      EDE5C0
  79 010c C7E06708 		.ascii	"\307\340g\010\320\366S\332\016r\020b\0103\3640D\010"
  79      D0F653DA 
  79      0E721062 
  79      0833F430 
  79      4408
  80 011e D45E8628 		.ascii	"\324^\206(\2071\206>\016\343\014\375\004\332\000\303"
  80      8731863E 
  80      0EE30CFD 
  80      04DA00C3 
  81 012e 20870930 		.ascii	" \207\0110\345R\2639!\026\207M\341\2642&\236\343'[\335"
  81      E552B339 
  81      2116874D 
  81      E1B43226 
  81      9EE3275B 
  82 0143 86998DE5 		.ascii	"\206\231\215\345\235D\0267Q\207+\210l\010De^\260\251"
  82      9D441637 
  82      51872B88 
  82      6C084465 
  82      5EB0A9
  83 0156 6D787DD1 		.ascii	"mx}\321:Q\016\303\0231W\356\315\243\276\002\017(\313"
  83      3A510EC3 
  83      133157EE 
  83      CDA3BE02 
  83      0F28CB
  84 0169 63659B6B 		.ascii	"ce\233k\002-\373\304x\334*R\235t\215\023\011\227\332"
  84      022DFBC4 
  84      78DC2A52 
  84      9D748D13 
  84      0997DA
  85 017c CEC53BAA 		.ascii	"\316\305;\252A+\342\240\325\366\242E;\253&g\325\033"
  85      412BE2A0 
  85      D5F6A245 
  85      3BAB2667 
  85      D51B
  86 018e 4237D66F 		.ascii	"B7\326oZ\234\272\253s\217D\255n\347E\211so\347\316\275"
  86      5A9CBAAB 
  86      738F44AD 
  86      6EE74589 
  86      736FE7CE 
  87 01a3 ED5CAECE 		.ascii	"\355\\\256\316}\035;\367\311Y\233\316\3375\235\373]"
  87      7D1D3BF7 
  87      C9599BCE 
  87      DF359DFB 
  87      5D
  88 01b4 9D07246A 		.ascii	"\235\007$j\375v^E\342<\330\271\363`;\227\253\363P\307"
  88      FD765E45 
  88      E23CD8B9 
  88      F3603B97 
  88      ABF350C7 
  89 01c8 CE4372D6 		.ascii	"\316Cr\326\326\235\337\2628\303\016\316V\267\036\327"
  89      D69DDFB2 
  89      38C30ECE 
  89      56B71ED7 
  90 01d8 9944243E 		.ascii	"\231D$>z\354\035\325\346Lf_\250VU/\025\232\326\004-"
  90      7AEC1DD5 
ARM GAS  /tmp/ccjYSstS.s 			page 7


  90      E64C665F 
  90      A856552F 
  90      159AD604 
  91 01ed AC539E76 		.ascii	"\254S\236v\235K\270\235\217(\000>\300l\355\353Z\244"
  91      9D4BB89D 
  91      8F28003E 
  91      C06CEDEB 
  91      5AA4
  92 01ff 5E07701B 		.ascii	"^\007p\033\276\213yA\225\336\\\343\206\363\350\253g"
  92      BE8B7941 
  92      95DE5CE3 
  92      86F3E8AB 
  92      67
  93 0210 7D7BE391 		.ascii	"}{\343\221e)\255,\236\304\306\352\220%0\352:\212\230"
  93      6529AD2C 
  93      9EC4C6EA 
  93      902530EA 
  93      3A8A98
  94 0223 EB28FA24 		.ascii	"\353(\372$\322cv\351\232l\024q*4G\361\3331D\333\271"
  94      D26376E9 
  94      9A6C1471 
  94      2A3447F1 
  94      DB3144DB 
  95 0238 A8BC217D 		.ascii	"\250\274!}\355\275b1\366s\236&\304\\\233\366\001\307"
  95      EDBD6231 
  95      F6739E26 
  95      C45C9BF6 
  95      01C7
  96 024a 494BFBA0 		.ascii	"IK\373\240\263\237\337\312n\364\323e\332\023Thj\037"
  96      B39FDFCA 
  96      6EF4D365 
  96      DA135468 
  96      6A1F
  97 025c DE53BBDF 		.ascii	"\336S\273\337\322\264\213\213\312\001>B\271\266p\310"
  97      D2B48B8B 
  97      CA013E42 
  97      B9B670C8 
  98 026c BA9BFACA 		.ascii	"\272\233\372\312\360\355\361\325\214&\223\251S\223\371"
  98      F0EDF1D5 
  98      8C2693A9 
  98      5393F9
  99 027b 89FCD9F1 		.ascii	"\211\374\331\361Tq*5\231-\244\256\026\257]\237J\215"
  99      54712A35 
  99      992DA4AE 
  99      16AF5D9F 
  99      4A8D
 100 028d 67CEA447 		.ascii	"g\316\244G\3538\226\236\236\346\223K\205\302\345d\016"
 100      EB38969E 
 100      9EE6934B 
 100      85C2E564 
 100      0E
 101 029e F41BC542 		.ascii	"\364\033\305B\362\210\211GM\034\375\005\347\273r\242"
 101      F2888947 
 101      4D1CFD05 
 101      E7BB72A2 
 102              		.text
 103              		.section	.gnu.lto_stm32_clock_init.7c000f1714f1077b,"",%progbits
ARM GAS  /tmp/ccjYSstS.s 			page 8


 104 0000 789CDD57 		.ascii	"x\234\335W[h\034U\030>gfg\357\227\334\257\315\245\271"
 104      5B681C55 
 104      183E6766 
 104      67EF97DC 
 104      AFCDA5B9 
 105 0014 A7497793 		.ascii	"\247Iw\223l\232\213/\202\202\340\203\264\320\004\324"
 105      6C9A8B2F 
 105      8282E083 
 105      B4D004D4 
 106 0024 17692BA4 		.ascii	"\027i+\244\201@\305\366\241o\231m\362P\232\030\203("
 106      8140C5F6 
 106      A16F996D 
 106      F2509A18 
 106      8328
 107 0036 B6F6257D 		.ascii	"\266\366%}\020\202}\210D\254+A\273\212\017!\241\305"
 107      10827D88 
 107      44AC2B41 
 107      BB8A0F21 
 107      A1C5
 108 0048 3E08C652 		.ascii	">\010\306RH\251X\274<((4\245:\236ov\317\314\230\231"
 108      48A958BC 
 108      3C282834 
 108      A53A9E6F 
 108      76CFCC98 
 109 005d 93DDA444 		.ascii	"\223\335\244D\226\035\310\227\363\377g\376\177\277\371"
 109      961DC897 
 109      F3FF67FE 
 109      7FBFF9
 110 006c FEFF3FC3 		.ascii	"\376\377?\303HD\"\333\257Y\366\327\\MH?\214\010\241"
 110      484422DB 
 110      AF59F6D7 
 110      5C4D483F 
 110      8C08A1
 111 007f EC0E2A51 		.ascii	"\354\016*Q\231\241,1T%\027\003\227\213*\314\243H\012"
 111      99A12C31 
 111      54251703 
 111      978B2ACC 
 111      A3480A
 112 0092 3C6E78DC 		.ascii	"<nx\334\324\303<\036\311\003\217\027\036/\3651\217O"
 112      D4C33C1E 
 112      C9038F17 
 112      1E2FF531 
 112      8F4F
 113 00a4 F2C1E387 		.ascii	"\362\301\343\207\307O\003\314\023\220\002\360\004\341"
 113      C74F03CC 
 113      139002F0 
 113      04E1
 114 00b2 09D210F3 		.ascii	"\011\322\020\363\204\244\020<ax\302\224\262\037\246"
 114      84A4103C 
 114      6178C294 
 114      B21FA6
 115 00c1 6452925D 		.ascii	"dR\222]\212\333\343\365\371\003\301P\230N\276\0027\031"
 115      8ADBE3F5 
 115      F903C150 
 115      984EBE02 
 115      3719
 116 00d3 6E22D754 		.ascii	"n\"\327T\365\235\315\017\257o\320+\357\246\246\027\324"
ARM GAS  /tmp/ccjYSstS.s 			page 9


 116      F59DCD0F 
 116      AF6FD02B 
 116      EFA6A617 
 116      D4
 117 00e4 279A46E9 		.ascii	"'\232F\35186OQ\3622[\321F\375\037xZ\257t\240\272\274"
 117      38364F51 
 117      F2325BD1 
 117      46FD1F78 
 117      5AAF74A0 
 118 00fa A8FAF420 		.ascii	"\250\372\364 yo1\362\376\305\244\356\255\275]}i\341"
 118      796F31F2 
 118      FEC5A4EE 
 118      ADBD5D7D 
 118      69E1
 119 010c C2BCFA0F 		.ascii	"\302\274\372\017{\246\375\245\267\361\343\261Uu:\245"
 119      7BA6FDA5 
 119      B7F1E3B1 
 119      55753AA5 
 120 011c 69CFE64E 		.ascii	"i\317\346Nokm\356i\351\345\233\342\217\327f\375\363"
 120      6F6B6DEE 
 120      69E9E59B 
 120      E28FD766 
 120      FDF3
 121 012e 898BAAA6 		.ascii	"\211\213\252\246M\346\335\003\245\376\276\364\277\265"
 121      4DE6DD03 
 121      A5FEBEF4 
 121      BFB5
 122 013c C3DD3DB4 		.ascii	"\303\335=\264\303{\353o\025Z;\274?\263~\215\262\330"
 122      C37BEB6F 
 122      155A3BBC 
 122      3FB37E8D 
 122      B2D8
 123 014e C4EF9A16 		.ascii	"\304\357\232\026\311\231^\352\223\302S\342\213\365\274"
 123      C9995EEA 
 123      93C253E2 
 123      8BF5BC
 124 015d 3E8A3666 		.ascii	">\2126f\012\356(\272;\223\327\212\377\265\267\321x\274"
 124      0AEE28BA 
 124      3B93D78A 
 124      FFB5B7D1 
 124      78BC
 125 016f BEFB0336 		.ascii	"\276\373\0036\365d/AWn\027\\K\\\275\235\327-\361\351"
 125      F5642F41 
 125      576E175C 
 125      4B5CBD9D 
 125      D72DF1E9 
 126 0183 DCAC959E 		.ascii	"\334\254\225\236+\307\260\233\205W\250;sy\375\246\276"
 126      2BC7B09B 
 126      8557A83B 
 126      7379FDA6 
 126      BE
 127 0194 F7F4F4F6 		.ascii	"\367\364\364\366\345\221\226\244\324\246\246\315~\367"
 127      E59196A4 
 127      D4A6A6CD 
 127      7EF7
 128 01a2 E7FD242D 		.ascii	"\347\375$-}\206\022\3663\022@f \273\000\012L7V\036\200"
 128      7D8612F6 
ARM GAS  /tmp/ccjYSstS.s 			page 10


 128      33124066 
 128      20BB000A 
 128      4C37561E 
 129 01b7 17A60FE0 		.ascii	"\027\246\017\340\207\031\000\004a\206\000a\230\021\254"
 129      87190004 
 129      61860061 
 129      9811AC
 130 01c6 8AB02A06 		.ascii	"\212\260*\006\224\300,\005\224\301,\007T\300\254\004"
 130      94C02C05 
 130      94C12C07 
 130      54C0AC04 
 131 01d6 5401AAE1 		.ascii	"T\001\252\341\253\001\324\302<\200U\035\240\036f\003"
 131      AB01D4C2 
 131      3C80551D 
 131      A01E6603 
 132 01e6 A011E641 		.ascii	"\240\021\346A@\023\314f\254Z\000\2550\333\000\355\200"
 132      4013CC66 
 132      AC5A00AD 
 132      30DB00ED 
 132      80
 133 01f7 0E4027E0 		.ascii	"\016@'\340\020v\273\000\3350\017c\025\005\304\030\270"
 133      1076BB00 
 133      DD300F63 
 133      1505C418 
 133      B8
 134 0208 7AE0EB05 		.ascii	"z\340\353\005\364\301\027\007\364\303<\202\325\000`"
 134      F4C11707 
 134      F4C33C82 
 134      D50060
 135 0217 10E61060 		.ascii	"\020\346\020`\230\350R\022\205L\253\352|\243.*\273F"
 135      98E85212 
 135      854CABEA 
 135      7CA32E2A 
 135      BB46
 136 0229 741CC5F7 		.ascii	"t\034\305\367\231|\213\\H&\331\027\321\011\372\003\373"
 136      997C8B5C 
 136      4826D917 
 136      D109FA03 
 136      FB
 137 023a 2E1BA314 		.ascii	".\033\243\024j\023u\341\242\012\305\331\356\020\337"
 137      6A1375E1 
 137      A20AC5D9 
 137      EE10DF
 138 0249 91B6ED7C 		.ascii	"\221\266\355|\375*\337al?R\247\023E\343T\271J>`w\271"
 138      FD2ADF61 
 138      6C3F52A7 
 138      1345E354 
 138      B94A3E60 
 139 025f F9DDFA75 		.ascii	"\371\335\372u\222\362\252\335\"S\237\313<\312\305\002"
 139      92F2AADD 
 139      22539FCB 
 139      3CCAC502 
 140 026f 71934CD3 		.ascii	"q\223L\323\351^Lo8\344\242\366\\c4\323\020\243x@\375"
 140      E95E4C6F 
 140      38E4A2F6 
 140      5C6334D3 
 140      10A37840 
ARM GAS  /tmp/ccjYSstS.s 			page 11


 141 0284 29BEBFBE 		.ascii	")\276\277\276e<\205\"\344\352\326\363SkzE@uej\331H\350"
 141      653C8522 
 141      E4EAD6F3 
 141      536B7A45 
 141      4075656A 
 142 029b 61913A59 		.ascii	"a\221:Y|\365\256\222o\036&\342\306\226\356\2676\347"
 142      7CF5AE92 
 142      6F1E26E2 
 142      C696EEB7 
 142      36E7
 143 02ad 28C8E99C 		.ascii	"(\310\351\234./\375l\244\360\012\225\365\011\331\372"
 143      2E2FFD6C 
 143      A4F00A95 
 143      F509D9FA 
 144 02bd 1DD4F059 		.ascii	"\035\324\360Y\351R\013]C\331\000\013\324I\261a\322\""
 144      E9520B5D 
 144      43D9000B 
 144      D449B161 
 144      D222
 145 02cf D9D4F5DA 		.ascii	"\331\324\365\332\363\215\341c\033\374\027\227\014\372"
 145      F38DE163 
 145      1BFC1797 
 145      0CFA
 146 02dd 4121FD90 		.ascii	"A!\375\220\220~\330\341\347B\316\364w \030t\"\030\346"
 146      907ED8E1 
 146      E742CEF4 
 146      77201874 
 146      2218E6
 147 02f0 522BBCFC 		.ascii	"R+\274\374K\177\030\\#BFE\366\362GDzN\3350\022\026\263"
 147      4B7F185C 
 147      23424645 
 147      F6F24744 
 147      7A4EDD30 
 148 0307 485DD1A0 		.ascii	"H]\321\240^\376\351\337\314\362\027;\224\337\3159-\233"
 148      5EFEE9DF 
 148      CCF2173B 
 148      94DFCD39 
 148      2D9B
 149 0319 835522D4 		.ascii	"\203U\"\324\257T\310\266\314A\215RQ\267\032\345/g\201"
 149      AF54C8B6 
 149      CC418D52 
 149      51B71AE5 
 149      2F6781
 150 032c 3AA9ADAC 		.ascii	":\251\255\254\223U\3424Y\345\351\332?Z\356\345\031+"
 150      9355E234 
 150      59E5E9DA 
 150      3F5AEEE5 
 150      192B
 151 033e B6334C7E 		.ascii	"\2663L~\354\261\346TC\326\244\025vA\341Q\322D\331qs"
 151      ECB1E654 
 151      43D6A415 
 151      7641E151 
 151      D244D971 
 152 0353 C354A552 		.ascii	"\303T\245R\250J\225P\225j\207\007\251\312z\334\324\260"
 152      A84A9550 
 152      956A8707 
 152      A9CA7ADC 
ARM GAS  /tmp/ccjYSstS.s 			page 12


 152      D4B0
 153 0365 405D1555 		.ascii	"@]\025U-\313&K\245\223,5\274\272\036^\335\317\314\003"
 153      2DCB264B 
 153      A5932C35 
 153      BCBA1E5E 
 153      DDCFCC03 
 154 0379 A756C8F6 		.ascii	"\247V\310\366\200\275\343js8p\352Xd\206\256\227l?r\352"
 154      80BDE36A 
 154      733870EA 
 154      586486AE 
 154      976C3F72 
 155 038e 1C7ACECB 		.ascii	"\034z\316\313\217\234\225\373F\222z\241\272\015B\276"
 155      8F9C95FB 
 155      46927AA1 
 155      BA0D42BE 
 156 039e 8D0E7A34 		.ascii	"\215\016z4X\011K&aS\335\203,0\267\303\274\336\236\213"
 156      58094B26 
 156      6153DD83 
 156      2C30B7C3 
 156      BCDE9E8B 
 157 03b2 85F3A7F0 		.ascii	"\205\363\247\360\361W\322\2129\315MB\256\315vm\233\004"
 157      F157D28A 
 157      39CD4D42 
 157      AECD766D 
 157      9B04
 158 03c4 54ADDAB6 		.ascii	"T\255\332\266\260H\301a\336\342\240\254\237\327\373"
 158      B048C161 
 158      DEE2A0AC 
 158      9FD7FB
 159 03d3 4B63205A 		.ascii	"Kc Zm\003\361\355\016\003\321*\030\010u\365\\f$\026"
 159      6D03F1ED 
 159      0E03D12A 
 159      180875F5 
 159      5C662416 
 160 03e7 6F1AE4DA 		.ascii	"o\032\344\332v\225\272\315\232Z\266\244~.\223y\325\314"
 160      7695BACD 
 160      9A5AB6A4 
 160      7E2E9379 
 160      D5CC
 161 03f9 DCBEABCC 		.ascii	"\334\276\253\314\355\326\314.3sO&\361\345\007\346\253"
 161      EDD6CC2E 
 161      33734F26 
 161      F1E507E6 
 161      AB
 162 040a AD43D867 		.ascii	"\255C\330g\235\302\332\035r\350\215\316\254S\334\305"
 162      9DC2DA1D 
 162      72E88DCE 
 162      AC53DCC5 
 163 041a 023363A1 		.ascii	"\0023c\241\317\305\216\255\326\3414\306]\274\254\001"
 163      CFC58EAD 
 163      D6E134C6 
 163      5DBCAC01 
 164 042a DE6A0FCC 		.ascii	"\336j\017\3141\356\026\322=lo\265\356\034\3068\312\""
 164      31EE16D2 
 164      3D6C6FB5 
 164      EE1CC638 
 164      CA22
ARM GAS  /tmp/ccjYSstS.s 			page 13


 165 043c 39DF225B 		.ascii	"9\337\"[\267E\035\272-\310\273\355\247\257\214,1\334"
 165      B7451DBA 
 165      2DC8BBED 
 165      A7AF8C2C 
 165      31DC
 166 044e E75253C2 		.ascii	"\347RS\302\312\365\032\274<\374\356\014/\305\254\\I"
 166      CAF51ABC 
 166      3CFCEE0C 
 166      2FC5AC5C 
 166      49
 167 045f A6728F1E 		.ascii	"\246r\217\036\232\225\353\021V\256W(E\237\203\324\275"
 167      9A95EB11 
 167      56AE5728 
 167      459F83D4 
 167      BD
 168 0470 8297A859 		.ascii	"\202\227\250Y\2718\0134\206n\307\262\3658\275\357\343"
 168      B9380B34 
 168      866EC7B2 
 168      F538BDEF 
 168      E3
 169 0481 5C9F103F 		.ascii	"\\\237\020?\347~1O\210~!\327#\366\262\365\347\360\276"
 169      E77E314F 
 169      887E21D7 
 169      23F6B2F5 
 169      E7F0BE
 170 0494 1F609182 		.ascii	"\037`\221\202\367\375\200\356\367\376\247fa^\263_MN"
 170      F7FD80EE 
 170      F7FEA766 
 170      615EB35F 
 170      4D4E
 171 04a6 83426587 		.ascii	"\203Be\207\204l\207\035\324\030\262\317a\026\375\006"
 171      846C871D 
 171      D418B2CF 
 171      6116FD06 
 172 04b6 ED112C35 		.ascii	"\355\021,5!wHb3\331\236\016\343\327\010\024@E\372\242"
 172      21774862 
 172      33D99E0E 
 172      E3D70814 
 172      4045FAA2 
 173 04ca D1D8F3A7 		.ascii	"\321\330\363\247\307O\216\037=\036;s6v\372\304D\354"
 173      C74F8E1F 
 173      3D1E3B73 
 173      3676FAC4 
 173      44EC
 174 04dc 8D336F9E 		.ascii	"\2153o\236;\033;>\362R\274/\215/\304\317\237\307\316"
 174      3B1B3B3E 
 174      F252BC2F 
 174      8D2FC4CF 
 174      9FC7CE
 175 04ef 6B1313AF 		.ascii	"k\023\023\257GO\221\177\001\037\010\210o"
 175      474F917F 
 175      011F0888 
 175      6F
 176              		.text
 177              		.section	.gnu.lto_.symbol_nodes.7c000f1714f1077b,"",%progbits
 178 0000 789C6362 		.ascii	"x\234cb`b\010a\200\002\246\211L\365\014\014\023\316"
 178      60620861 
ARM GAS  /tmp/ccjYSstS.s 			page 14


 178      8002A689 
 178      4CF50C0C 
 178      13CE
 179 0012 3130D4D7 		.ascii	"10\324\327_\351Hd\232\304T\317\010\345^\353`d\232\314"
 179      5FE94864 
 179      9AC454CF 
 179      08E55EEB 
 179      60649ACC 
 180 0026 54CF84E0 		.ascii	"T\317\204\340\262N`b`\257g`\234\302T\317\014\021mh`"
 180      B24E6062 
 180      60AF6760 
 180      9CC254CF 
 180      0C116D68 
 181 003b 64666460 		.ascii	"dfd`x\324\375F\236\231\221\205\241\271\357\215<\003"
 181      78D4FD46 
 181      9E999185 
 181      A1B9EF8D 
 181      3C03
 182 004d 00486D18 		.ascii	"\000Hm\030\336"
 182      DE
 183              		.text
 184              		.section	.gnu.lto_.refs.7c000f1714f1077b,"",%progbits
 185 0000 789C6362 		.ascii	"x\234cb`b`d\200\002\000\000F\000\006"
 185      60626064 
 185      80020000 
 185      460006
 186              		.text
 187              		.section	.gnu.lto_.decls.7c000f1714f1077b,"",%progbits
 188 0000 789CBD97 		.ascii	"x\234\275\227}L\024G\024\300g\366N\340\344\212\037I"
 188      7D4C1447 
 188      14C067F6 
 188      4EE0E48A 
 188      1F49
 189 0012 8D6D9A78 		.ascii	"\215m\232x\232\3324&\260r\207i\373\217\021\026\024R"
 189      9ADA3426 
 189      B0728769 
 189      FB8F1116 
 189      1452
 190 0024 14B28755 		.ascii	"\024\262\207U\377\351e\271[\312E\356\260p\264\370\337"
 190      FFE965B9 
 190      5BCA45EE 
 190      B070B4F8 
 190      DF
 191 0035 CAB5DAB4 		.ascii	"\312\265\332\264\261\305\217\232\246\037zP\253\305\332"
 191      B1C58F9A 
 191      A61F7A50 
 191      ABC5DA
 192 0044 6AA91F51 		.ascii	"j\251\037QQN*\225Xc\210A\"P\341\2525\246\351\207\232"
 192      514E2A95 
 192      58638841 
 192      2250E1AA 
 192      35A6E987 
 193 0059 586D5AE2 		.ascii	"XmZ\342\365\355\354\356\261s\356\301\236\177t\222\367"
 193      F5EDECEE 
 193      B173EEC1 
 193      9E7F7492 
 193      F7
ARM GAS  /tmp/ccjYSstS.s 			page 15


 194 006a 766E77E6 		.ascii	"vnw\346\367\336\2747\3632\307 \006\225c\204\342\320"
 194      F7DEBC37 
 194      F332C720 
 194      06956384 
 194      E2D0
 195 007c 2A6621F4 		.ascii	"*f!\364=\203\220\025!\264\024M4\371w\033\310>\220\016"
 195      3D839015 
 195      21B4144D 
 195      34F9771B 
 195      C83E900E 
 196 0090 90832030 		.ascii	"\220\203 0\005}\203\350&\217\311\0029\006\222\003b\007"
 196      057D83E8 
 196      268FC902 
 196      39069203 
 196      6207
 197 00a2 C904390B 		.ascii	"\311\0049\013r\032\3448H\017\010\230@] \203*\247\015"
 197      721AE438 
 197      480F0898 
 197      405D2083 
 197      2AA70D
 198 00b5 3DDA645B 		.ascii	"=\332d[\323\325\271z\326\230\312\2229\267A\332Ab \031"
 198      D3D5B97A 
 198      D698CA92 
 198      39B741DA 
 198      41622019 
 199 00c9 20432097 		.ascii	" C \227@.\202\014\200\\\006\271\011bQym\252\357\311"
 199      402E820C 
 199      805C06B9 
 199      09625179 
 199      6DAAEFC9 
 200 00dd AD43F53B 		.ascii	"\255C\365;\331\326\035\235\255\273\252\215\363 } WA"
 200      D9D61D9D 
 200      ADBBAA8D 
 200      F3207D20 
 200      5741
 201 00ef 4640AE81 		.ascii	"F@\256\201\334W\327\321a\300\236\207vK\321\376X\357"
 201      DC57D7D1 
 201      61C09E87 
 201      764BD1FE 
 201      58EF
 202 0101 C8FB4F49 		.ascii	"\310\373OI\221\226h<\336\275\014\315A\037J\320\"\233"
 202      9196683C 
 202      DEBD0CCD 
 202      411F4AD0 
 202      229B
 203 0113 25098704 		.ascii	"%\011\207\004\274\364I\264\026\0138\307\206\034\244"
 203      BCF449B4 
 203      160B38C7 
 203      861CA4
 204 0122 63B79188 		.ascii	"c\267\221\210#$\340v<G\355\255\266(<\006-\301h\021\352"
 204      2324E076 
 204      3C47EDAD 
 204      B6283C06 
 204      2DC16811 
 205 0137 80F9AD92 		.ascii	"\200\371\255\222\324\262\010\033\330D\3509\364\205l"
 205      D4B2081B 
 205      D844E839 
ARM GAS  /tmp/ccjYSstS.s 			page 16


 205      F4856C
 206 0146 41FA52B2 		.ascii	"A\372R\262\020\276Lh\303\363\364C\004\3749f\222=\215"
 206      10BE4C68 
 206      C3F3F443 
 206      04FC3966 
 206      923D8D
 207 0159 44A3DF6D 		.ascii	"D\243\337m\371\021K\333\245\361x<lU=`\320\032\014\335"
 207      F9114BDB 
 207      A5F1783C 
 207      6C553D60 
 207      D01A0CDD 
 208 016d BD78D1A4 		.ascii	"\275x\321\244\006\366%\033\330oh\240\377\202\275uS,"
 208      06F6251B 
 208      D86F68A0 
 208      FF82BD75 
 208      532C
 209 017f 1EDFE3D0 		.ascii	"\036\337\343\320\350>3\364\216d\372\201G\351\261\326"
 209      E83E33F4 
 209      8E64FA81 
 209      47E9B1D6 
 210 018f D8C896C1 		.ascii	"\330\310\226\301-x[8\322'\335\211\307g$\026p\000'\333"
 210      2D785B38 
 210      D227DD89 
 210      C7672416 
 210      700027DB 
 211 01a3 50205FD3 		.ascii	"P _\323\220\005\250M\212\364\304n\356\330*gK\222\036"
 211      9005A84D 
 211      8AF4C46E 
 211      EED82A67 
 211      4B921E
 212 01b6 C6E3D886 		.ascii	"\306\343\330\206\336\201@\313\331*\355\203\335a\224"
 212      DE8140CB 
 212      D92AED83 
 212      DD6194
 213 01c5 AA85682F 		.ascii	"\252\205h/\244#v\345\275\336\263\030f\301\207C0\215"
 213      A42376E5 
 213      BDDEB318 
 213      66C18743 
 213      308D
 214 01d7 41FB18DA 		.ascii	"A\373\030\332\252yT\367\216\256\227$)K\300\235\004t"
 214      AA7954F7 
 214      8EAE9724 
 214      294BC09D 
 214      0474
 215 01e9 C4428304 		.ascii	"\304B\203\004\234i\243\027\002\277\265\0012\215|V;\362"
 215      9C69A317 
 215      02BFB501 
 215      328D7C56 
 215      3BF2
 216 01fb D19E81D2 		.ascii	"\321\236\201\322\035\316\240\356\204\321T\333\363\250"
 216      1DCEA0EE 
 216      84D154DB 
 216      F3A8
 217 0209 1ABDB5EA 		.ascii	"\032\275\265\352\212\245s\007\026 \224\215\336\235X"
 217      8AA57307 
 217      1620948D 
 217      DE9D58
ARM GAS  /tmp/ccjYSstS.s 			page 17


 218 0218 E56CB48D 		.ascii	"\345l\264\215\354\365e\272\005/\3238Y\272\005\357~\360"
 218      ECF565BA 
 218      052FD338 
 218      59BA05EF 
 218      7EF0
 219 022a 0259F071 		.ascii	"\002Y\360q<\033l\207\255\364\202\247\304\310\356\234"
 219      3C1B6C87 
 219      ADF482A7 
 219      C4C8EE9C 
 220 023a 84A9CA24 		.ascii	"\204\251\312$\002\225\242W\306\354\222Uy\217\014\322"
 220      0295A257 
 220      C6EC9255 
 220      798F0CD2 
 221 024a AFB6F928 		.ascii	"\257\266\371(\"\275\025\216\016\215\355\204\244\367"
 221      22BD158E 
 221      0E8DED84 
 221      A4F7
 222 0258 28F90E4F 		.ascii	"(\371\016O\232$\001\037\306\013MF\361\003\262\022\331"
 222      9A24011F 
 222      C60B4D46 
 222      F103B212 
 222      D9
 223 0269 052392DA 		.ascii	"\005#\222\332E\2110\346\330\222\334\032\036\263\267"
 223      458930E6 
 223      D892DC1A 
 223      1EB3B7
 224 0278 0A023E4D 		.ascii	"\012\002>M\366\301\366\264a\016\243\025k\273`\"`\002"
 224      F6C1F6B4 
 224      610EA315 
 224      6BBB6022 
 224      6002
 225 028a 3E4556D4 		.ascii	">EV\324\205\347\203\356\006\235h\251\222\177\014gkC"
 225      85E783EE 
 225      069D68A9 
 225      927F0C67 
 225      6B43
 226 029c 8C32EED0 		.ascii	"\2142\356\320\005/b\321&\027$2\036=z}\256\234\234\036"
 226      052F62D1 
 226      26172432 
 226      1E3D7A7D 
 226      AE9C9C1E 
 227 02b0 92EF5DC6 		.ascii	"\222\357]\306\371N\015\221=\350M\316\367\003%\337\275"
 227      F94E0D91 
 227      3DE84DCE 
 227      F70325DF 
 227      BD
 228 02c1 A6F2FDAF 		.ascii	"\246\362\375\257\232o%\266\002>\003\233Y\231\373x\211"
 228      9A6F25B6 
 228      023E039B 
 228      5999FB78 
 228      89
 229 02d2 1AD727AA 		.ascii	"\032\327'\252\235\254'\035\230\203\202=\324\303\366"
 229      9DAC271D 
 229      9883823D 
 229      D4C3F6
 230 02e1 9B8165A5 		.ascii	"\233\201e\245\366\254\365z\037\224t\273\206\373*m\034"
 230      F6ACF57A 
ARM GAS  /tmp/ccjYSstS.s 			page 18


 230      1F9474BB 
 230      86FB2A6D 
 230      1C
 231 02f2 EDDB761A 		.ascii	"\355\333v\032w\304\014nfj\357v\322\270\323i\343h\357"
 231      77C40C6E 
 231      666AEF76 
 231      D2B8D369 
 231      E368EF
 232 0305 76D1B873 		.ascii	"v\321\270sfpsS{\367\021\215\273\2306\216\366\356c\032"
 232      66707353 
 232      7BF7118D 
 232      BB98368E 
 232      F6EE631A 
 233 0319 376006E7 		.ascii	"7`\006\347H\355\335\247z\234\200\243f\266\260#\265w"
 233      48EDDDA7 
 233      7A9C80A3 
 233      66B6B023 
 233      B577
 234 032b BB69EF86 		.ascii	"\273i\357\206\314x\367|j\357\016\323\270\237\323\306"
 234      CC78F77C 
 234      6AEF0ED3 
 234      B89FD3C6 
 235 033b D1DE75D2 		.ascii	"\321\336u\322\270[fp\213\015\2743j\372b\"\340\037H-"
 235      B85B6670 
 235      8B0DBC33 
 235      6AFA6222 
 235      E01F482D 
 236 034f 3C4F6A61 		.ascii	"<Oja\037\321\027\210\276H\364%\242\373\211\276L\364"
 236      1FD11788 
 236      BE48F425 
 236      A2FB89BE 
 236      4CF4
 237 0361 00D18344 		.ascii	"\000\321\203D_%z\210\350\021\242\257\231\251\246g\315"
 237      5F257A88 
 237      E811A2AF 
 237      99A9A667 
 237      CD
 238 0372 57D318D6 		.ascii	"W\323\030\326&?\203\022\325\364\304(\206\373T\214\024"
 238      263F8312 
 238      D5F4C428 
 238      86FB548C 
 238      14
 239 0383 D33FA62E 		.ascii	"\323?\246.\2464Cv\340Fr1\375l\224\024\323\033\246\212"
 239      A6344376 
 239      E0467231 
 239      FD6C9414 
 239      D31BA68A 
 240 0397 E9B7A3FA 		.ascii	"\351\267\243\372b\312\240q\342\302\215\307.\246\235"
 240      62CAA071 
 240      E2C28DC7 
 240      2EA69D
 241 03a6 A3BAFAD7 		.ascii	"\243\272\372\3272-]\230~\343l\212\036y\265U\230\205"
 241      322D5D98 
 241      7EE36C8A 
 241      1E79B555 
 241      9885
 242 03b8 5AD51828 		.ascii	"Z\325\030(Tu\240\224\210\203RR\364\303\016\245\036&"
ARM GAS  /tmp/ccjYSstS.s 			page 19


 242      5475A094 
 242      88835252 
 242      F4C30EA5 
 242      1E26
 243 03ca E0DFF02C 		.ascii	"\340\337\360,\322#\267\005IM\026\031\221*\303\277c["
 243      D223B705 
 243      494D1619 
 243      912AC3BF 
 243      635B
 244 03dc C245BB6D 		.ascii	"\302E\273m\242c\241\266\2416\012\226\2759y\331\264\027"
 244      A263A1B6 
 244      A1360A96 
 244      BD3979D9 
 244      B417
 245 03ee 53D7FD63 		.ascii	"S\327\375c\023A\024\360O\2446L\021D\243Bh\324\364\333"
 245      134114F0 
 245      4FA4364C 
 245      1144A342 
 245      68D4F4DB 
 246 0402 45C0BF90 		.ascii	"E\300\277\220\343r\223l\366[D\377J\364\237f6\376X\212"
 246      E372936C 
 246      F65B44FF 
 246      4AF49F66 
 246      36FE588A 
 247 0416 8DAFDCDC 		.ascii	"\215\257\334\334S\315\272\235\306\345\203\321&?\213"
 247      53CDBA9D 
 247      C6E583D1 
 247      263F8B
 248 0425 12C7E5DA 		.ascii	"\022\307\345\332\260|\\\356\222\343\262u\332\324w\017"
 248      B07C5CEE 
 248      92E3B275 
 248      DAD4770F 
 249 0435 8A213B70 		.ascii	"\212!;p/\371\270\034\035&\307\345\236\251\343rb\230"
 249      2FF9B81C 
 249      1D26C7E5 
 249      9EA9E372 
 249      6298
 250 0447 3E2E9F10 		.ascii	">.\237\020\027\356=\366q99\254;.{\322\2069(X\227\036"
 250      17EE3DF6 
 250      713939AC 
 250      3B2E7BD2 
 250      86392858 
 251 045d B6D70C6C 		.ascii	"\266\327\014l\222=xF\017;\2306\214\366\254\177X\267"
 251      923D7846 
 251      0F3B9836 
 251      8CF6AC7F 
 251      58B7
 252 046f A195FBDA 		.ascii	"\241\225\373\332\024\260I\356\035\227\365\236\0352\343"
 252      14B049EE 
 252      1D97F59E 
 252      1D32E3
 253 047e 59AA5B87 		.ascii	"Y\252[\207\324\022\035P`\312\337\276N3\260I\356\034"
 253      D4121D50 
 253      60CADFBE 
 253      4E33B049 
 253      EE1C
 254 0490 837ACF4E 		.ascii	"\203z\317N\245\015\243cvU\017\3536\003s\030xf\324\364"
ARM GAS  /tmp/ccjYSstS.s 			page 20


 254      A50DA363 
 254      76550FEB 
 254      36037318 
 254      7866D4F4 
 255 04a4 8740C07F 		.ascii	"\207@\300\177\221\"p\237\034\374\277\211\376\207\350"
 255      9122709F 
 255      1CFCBF89 
 255      FE87E8
 256 04b3 71A21F12 		.ascii	"q\242\037\022\035'z\023#\3530\321o3&J\304\235\211\303"
 256      1D277A13 
 256      23EB30D1 
 256      6F33264A 
 256      C49D89C3 
 257 04c7 8E9C7979 		.ascii	"\216\234yy,W\353\257\366W\270\331\372F\266V\250c7\324"
 257      2C57EBAF 
 257      F657B8D9 
 257      FA46B656 
 257      A86337D4 
 258 04db 37841A59 		.ascii	"7\204\032Yw\325J\227S\321\313]\315\315\362\027O]\235"
 258      77D54A97 
 258      53D1CB5D 
 258      CDCDF217 
 258      4F5D9D
 259 04ee 2FCF8B9E 		.ascii	"/\317\213\236V\273\236j\301\273\276i\203\307W\037\020"
 259      56BB9E6A 
 259      C1BBBE69 
 259      83C7571F 
 259      10
 260 04ff FC418F3F 		.ascii	"\374A\217?\350\017e\254X\265\332\301!\2736B~7\2631\024"
 260      E80F65AC 
 260      58B5DAC1 
 260      21BB3642 
 260      7E37B331 
 261 0514 70393DDE 		.ascii	"p9=\336\272z\357z\362\242`r\223\345\345\305l\361\312"
 261      BA7AEF7A 
 261      F2A26072 
 261      93E5E5C5 
 261      6CF1CA
 262 0527 C237F259 		.ascii	"\3027\362Ye\242/ \344\325\242Lx\224\301\344F6XCd\011"
 262      65A22F20 
 262      E4D5A24C 
 262      7894C1E4 
 262      46365843 
 263 053d 5B5B1F10 		.ascii	"[[\037\020\331\006\261Q\024\032\274\265\200i\360\275"
 263      D906B151 
 263      141ABCB5 
 263      8069F0BD 
 264 054d 293488AC 		.ascii	")4\210\254\320\020p\262\257y\275\271\320\311\025\003"
 264      D01070B2 
 264      AF79BDB9 
 264      D0C91503 
 265 055d D5A2CF27 		.ascii	"\325\242\317'\372\022/\202\365A1W\024\252\375\271\005"
 265      FA122F82 
 265      F5413157 
 265      14AAFDB9 
 265      05
 266 056e 9E17739D 		.ascii	"\236\027s\235\213\363\013^w\262\324\007\326\037\364"
ARM GAS  /tmp/ccjYSstS.s 			page 21


 266      8BF30B5E 
 266      77B2D407 
 266      D61FF4
 267 057d D635F944 		.ascii	"\3265\371D0\357\363\007C`;\253\011\236\340I(\214\377"
 267      30EFF307 
 267      43603BAB 
 267      099EE049 
 267      288CFF
 268 0590 3FEB01C1 		.ascii	"?\353\001\301[\353\017\212\254\307'\326\010Mu!Oh\343"
 268      5BEB0F8A 
 268      ACC727D6 
 268      084D7521 
 268      4F68E3
 269 05a3 06B111BC 		.ascii	"\006\261\021\274\231\356\361h\376\314pol\014\211\001"
 269      99EEF168 
 269      FECC706F 
 269      6C0C8901 
 270 05b3 AEBE41E4 		.ascii	"\256\276A\344\344\360\272\350\310\212\315!\226[\351"
 270      E4F0BAE8 
 270      C88ACD21 
 270      965BE9
 271 05c2 2E734364 		.ascii	".sCdu\231$a\255q-v5{\001\227]\271\206\367T\001\273X"
 271      75992461 
 271      AD712D76 
 271      357B0197 
 271      5DB986F7 
 272 05da AC6138DE 		.ascii	"\254a8\336\302\271\371l\236\343\264WVn\371\012xY\306"
 272      C2B9F96C 
 272      9EE3B457 
 272      566EF90A 
 272      7859C6
 273 05ed 67155616 		.ascii	"g\025V\0269yw\025\351\344\313\235\214\302\322\242\222"
 273      39797715 
 273      E9E4CB9D 
 273      8CC2D2A2 
 273      92
 274 05fe 557CA6FC 		.ascii	"U|\246\374A}\346\303\323ZT\314\301\217\322\"y\3144y"
 274      417DE6C3 
 274      D35A54CC 
 274      C18FD222 
 274      79CC3479 
 275 0612 BA936857 		.ascii	"\272\223hW\216{\235\033:\032\231\274\314\267\360\034"
 275      8E7B9D1B 
 275      3A1A99BC 
 275      CCB7F01C 
 276 0622 9F51B2B6 		.ascii	"\237Q\262\266\252\214\343\237X^^\350.\325>[\0129\336"
 276      AA8CE39F 
 276      585E5EE8 
 276      2ED53E5B 
 276      0A39DE
 277 0635 FA72C93A 		.ascii	"\372r\311:>\263\242\262J~2n\236)\344\263\370\022w\011"
 277      3EB3A2B2 
 277      4A7E326E 
 277      9E29E4B3 
 277      F8127709 
 278 0649 FF4A49B1 		.ascii	"\377JI\261\245\242\210\267\256\341+\371\377\000\302"
 278      A5A288B7 
ARM GAS  /tmp/ccjYSstS.s 			page 22


 278      AEE12BF9 
 278      FF00C2
 279 0658 CC17E4   		.ascii	"\314\027\344"
 280              		.text
 281              		.section	.gnu.lto_.symtab.7c000f1714f1077b,"",%progbits
 282 0000 68616C5F 		.ascii	"hal_lld_init\000\000\000\000\000\000\000\000\000\000"
 282      6C6C645F 
 282      696E6974 
 282      00000000 
 282      00000000 
 283 0016 0000A600 		.ascii	"\000\000\246\000\000\000stm32_clock_init\000\000\000"
 283      00007374 
 283      6D33325F 
 283      636C6F63 
 283      6B5F696E 
 284 002f 00000000 		.ascii	"\000\000\000\000\000\000\000\000\000\251\000\000\000"
 284      00000000 
 284      00A90000 
 284      00
 285 003c 53797374 		.ascii	"SystemCoreClock\000\000\000\000\000\000\000\000\000"
 285      656D436F 
 285      7265436C 
 285      6F636B00 
 285      00000000 
 286 0054 000000AE 		.ascii	"\000\000\000\256\000\000\000dmaInit\000\000\002\000"
 286      00000064 
 286      6D61496E 
 286      69740000 
 286      0200
 287 0066 00000000 		.ascii	"\000\000\000\000\000\000\000\000\254\000\000\000"
 287      00000000 
 287      AC000000 
 288              		.text
 289              		.section	.gnu.lto_.opts,"",%progbits
 290 0000 272D6D63 		.ascii	"'-mcpu=cortex-m4' '-mno-thumb-interwork' '-mthumb' "
 290      70753D63 
 290      6F727465 
 290      782D6D34 
 290      2720272D 
 291 0033 272D6767 		.ascii	"'-ggdb' '-O0' '-fomit-frame-pointer' '-falign-funct"
 291      64622720 
 291      272D4F30 
 291      2720272D 
 291      666F6D69 
 292 0066 696F6E73 		.ascii	"ions=16' '-ffunction-sections' '-fdata-sections' '-"
 292      3D313627 
 292      20272D66 
 292      66756E63 
 292      74696F6E 
 293 0099 666E6F2D 		.ascii	"fno-common' '-flto'\000"
 293      636F6D6D 
 293      6F6E2720 
 293      272D666C 
 293      746F2700 
 294              		.text
 295              		.cfi_sections	.debug_frame
 296              		.global	SystemCoreClock
ARM GAS  /tmp/ccjYSstS.s 			page 23


 297              		.section	.data.SystemCoreClock,"aw",%progbits
 298              		.align	2
 299              		.type	SystemCoreClock, %object
 300              		.size	SystemCoreClock, 4
 301              	SystemCoreClock:
 302 0000 00A24A04 		.word	72000000
 303              		.section	.text.hal_lld_backup_domain_init,"ax",%progbits
 304              		.align	2
 305              		.p2align 4,,15
 306              		.thumb
 307              		.thumb_func
 308              		.type	hal_lld_backup_domain_init, %function
 309              	hal_lld_backup_domain_init:
 310              	.LFB272:
 311              		.file 1 "../ChibiOS/os/hal/ports/STM32/STM32F3xx/hal_lld.c"
 312              		.loc 1 54 0
 313              		.cfi_startproc
 314              		@ args = 0, pretend = 0, frame = 0
 315              		@ frame_needed = 0, uses_anonymous_args = 0
 316              		@ link register save eliminated.
 317              		.loc 1 57 0
 318 0000 134B     		ldr	r3, .L4
 319 0002 134A     		ldr	r2, .L4
 320 0004 1268     		ldr	r2, [r2]
 321 0006 42F48072 		orr	r2, r2, #256
 322 000a 1A60     		str	r2, [r3]
 323              		.loc 1 60 0
 324 000c 114B     		ldr	r3, .L4+4
 325 000e 1B6A     		ldr	r3, [r3, #32]
 326 0010 03F44073 		and	r3, r3, #768
 327 0014 B3F5007F 		cmp	r3, #512
 328 0018 06D0     		beq	.L2
 329              		.loc 1 62 0
 330 001a 0E4B     		ldr	r3, .L4+4
 331 001c 4FF48032 		mov	r2, #65536
 332 0020 1A62     		str	r2, [r3, #32]
 333              		.loc 1 63 0
 334 0022 0C4B     		ldr	r3, .L4+4
 335 0024 0022     		movs	r2, #0
 336 0026 1A62     		str	r2, [r3, #32]
 337              	.L2:
 338              		.loc 1 82 0
 339 0028 0A4B     		ldr	r3, .L4+4
 340 002a 1B6A     		ldr	r3, [r3, #32]
 341 002c 03F40043 		and	r3, r3, #32768
 342 0030 002B     		cmp	r3, #0
 343 0032 0BD1     		bne	.L1
 344              		.loc 1 84 0
 345 0034 074B     		ldr	r3, .L4+4
 346 0036 074A     		ldr	r2, .L4+4
 347 0038 126A     		ldr	r2, [r2, #32]
 348 003a 42F40072 		orr	r2, r2, #512
 349 003e 1A62     		str	r2, [r3, #32]
 350              		.loc 1 87 0
 351 0040 044B     		ldr	r3, .L4+4
 352 0042 044A     		ldr	r2, .L4+4
 353 0044 126A     		ldr	r2, [r2, #32]
ARM GAS  /tmp/ccjYSstS.s 			page 24


 354 0046 42F40042 		orr	r2, r2, #32768
 355 004a 1A62     		str	r2, [r3, #32]
 356              	.L1:
 357              		.loc 1 90 0
 358 004c 7047     		bx	lr
 359              	.L5:
 360 004e 00BF     		.align	2
 361              	.L4:
 362 0050 00700040 		.word	1073770496
 363 0054 00100240 		.word	1073876992
 364              		.cfi_endproc
 365              	.LFE272:
 366              		.size	hal_lld_backup_domain_init, .-hal_lld_backup_domain_init
 367 0058 AFF30080 		.section	.text.hal_lld_init,"ax",%progbits
 367      AFF30080 
 368              		.align	2
 369              		.p2align 4,,15
 370              		.global	hal_lld_init
 371              		.thumb
 372              		.thumb_func
 373              		.type	hal_lld_init, %function
 374              	hal_lld_init:
 375              	.LFB273:
 376              		.loc 1 105 0
 377              		.cfi_startproc
 378              		@ args = 0, pretend = 0, frame = 0
 379              		@ frame_needed = 0, uses_anonymous_args = 0
 380 0000 08B5     		push	{r3, lr}
 381              		.cfi_def_cfa_offset 8
 382              		.cfi_offset 3, -8
 383              		.cfi_offset 14, -4
 384              		.loc 1 108 0
 385 0002 194B     		ldr	r3, .L7
 386 0004 9B6A     		ldr	r3, [r3, #40]
 387 0006 184B     		ldr	r3, .L7
 388 0008 4FF0FF32 		mov	r2, #-1
 389 000c 9A62     		str	r2, [r3, #40]
 390 000e 164B     		ldr	r3, .L7
 391 0010 0022     		movs	r2, #0
 392 0012 9A62     		str	r2, [r3, #40]
 393              		.loc 1 109 0
 394 0014 144B     		ldr	r3, .L7
 395 0016 1B69     		ldr	r3, [r3, #16]
 396 0018 134B     		ldr	r3, .L7
 397 001a 4FF0FF32 		mov	r2, #-1
 398 001e 1A61     		str	r2, [r3, #16]
 399 0020 114B     		ldr	r3, .L7
 400 0022 0022     		movs	r2, #0
 401 0024 1A61     		str	r2, [r3, #16]
 402              		.loc 1 110 0
 403 0026 104B     		ldr	r3, .L7
 404 0028 DB68     		ldr	r3, [r3, #12]
 405 002a 0F4B     		ldr	r3, .L7
 406 002c 4FF0FF32 		mov	r2, #-1
 407 0030 DA60     		str	r2, [r3, #12]
 408 0032 0D4B     		ldr	r3, .L7
 409 0034 0022     		movs	r2, #0
ARM GAS  /tmp/ccjYSstS.s 			page 25


 410 0036 DA60     		str	r2, [r3, #12]
 411              		.loc 1 113 0
 412 0038 0B4B     		ldr	r3, .L7
 413 003a 0B4A     		ldr	r2, .L7
 414 003c D269     		ldr	r2, [r2, #28]
 415 003e 42F08052 		orr	r2, r2, #268435456
 416 0042 DA61     		str	r2, [r3, #28]
 417              		.loc 1 116 0
 418 0044 FFF7FEFF 		bl	hal_lld_backup_domain_init
 419              		.loc 1 119 0
 420 0048 FFF7FEFF 		bl	dmaInit
 421              		.loc 1 129 0
 422 004c 064B     		ldr	r3, .L7
 423 004e 064A     		ldr	r2, .L7
 424 0050 9269     		ldr	r2, [r2, #24]
 425 0052 42F00102 		orr	r2, r2, #1
 426 0056 9A61     		str	r2, [r3, #24]
 427              		.loc 1 133 0
 428 0058 044B     		ldr	r3, .L7+4
 429 005a 044A     		ldr	r2, .L7+4
 430 005c 1268     		ldr	r2, [r2]
 431 005e 42F02002 		orr	r2, r2, #32
 432 0062 1A60     		str	r2, [r3]
 433              		.loc 1 135 0
 434 0064 08BD     		pop	{r3, pc}
 435              	.L8:
 436 0066 00BF     		.align	2
 437              	.L7:
 438 0068 00100240 		.word	1073876992
 439 006c 00000140 		.word	1073807360
 440              		.cfi_endproc
 441              	.LFE273:
 442              		.size	hal_lld_init, .-hal_lld_init
 443              		.section	.text.stm32_clock_init,"ax",%progbits
 444              		.align	2
 445              		.p2align 4,,15
 446              		.global	stm32_clock_init
 447              		.thumb
 448              		.thumb_func
 449              		.type	stm32_clock_init, %function
 450              	stm32_clock_init:
 451              	.LFB274:
 452              		.loc 1 144 0
 453              		.cfi_startproc
 454              		@ args = 0, pretend = 0, frame = 0
 455              		@ frame_needed = 0, uses_anonymous_args = 0
 456              		@ link register save eliminated.
 457              		.loc 1 149 0
 458 0000 364B     		ldr	r3, .L16
 459 0002 364A     		ldr	r2, .L16
 460 0004 1268     		ldr	r2, [r2]
 461 0006 42F00102 		orr	r2, r2, #1
 462 000a 1A60     		str	r2, [r3]
 463              		.loc 1 150 0
 464 000c 00BF     		nop
 465              	.L10:
 466              		.loc 1 150 0 is_stmt 0 discriminator 1
ARM GAS  /tmp/ccjYSstS.s 			page 26


 467 000e 334B     		ldr	r3, .L16
 468 0010 1B68     		ldr	r3, [r3]
 469 0012 03F00203 		and	r3, r3, #2
 470 0016 002B     		cmp	r3, #0
 471 0018 F9D0     		beq	.L10
 472              		.loc 1 156 0 is_stmt 1
 473 001a 304B     		ldr	r3, .L16
 474 001c 2F4A     		ldr	r2, .L16
 475 001e 5268     		ldr	r2, [r2, #4]
 476 0020 22F00302 		bic	r2, r2, #3
 477 0024 5A60     		str	r2, [r3, #4]
 478              		.loc 1 157 0
 479 0026 2D4B     		ldr	r3, .L16
 480 0028 2C4A     		ldr	r2, .L16
 481 002a 5268     		ldr	r2, [r2, #4]
 482 002c 5A60     		str	r2, [r3, #4]
 483              		.loc 1 158 0
 484 002e 00BF     		nop
 485              	.L11:
 486              		.loc 1 158 0 is_stmt 0 discriminator 1
 487 0030 2A4B     		ldr	r3, .L16
 488 0032 5B68     		ldr	r3, [r3, #4]
 489 0034 03F00C03 		and	r3, r3, #12
 490 0038 002B     		cmp	r3, #0
 491 003a F9D1     		bne	.L11
 492              		.loc 1 162 0 is_stmt 1
 493 003c 274B     		ldr	r3, .L16
 494 003e 274A     		ldr	r2, .L16
 495 0040 1268     		ldr	r2, [r2]
 496 0042 02F0F902 		and	r2, r2, #249
 497 0046 1A60     		str	r2, [r3]
 498              		.loc 1 163 0
 499 0048 244B     		ldr	r3, .L16
 500 004a 0022     		movs	r2, #0
 501 004c 5A60     		str	r2, [r3, #4]
 502              		.loc 1 169 0
 503 004e 234B     		ldr	r3, .L16
 504 0050 224A     		ldr	r2, .L16
 505 0052 1268     		ldr	r2, [r2]
 506 0054 42F4A022 		orr	r2, r2, #327680
 507 0058 1A60     		str	r2, [r3]
 508              		.loc 1 174 0
 509 005a 00BF     		nop
 510              	.L12:
 511              		.loc 1 174 0 is_stmt 0 discriminator 1
 512 005c 1F4B     		ldr	r3, .L16
 513 005e 1B68     		ldr	r3, [r3]
 514 0060 03F40033 		and	r3, r3, #131072
 515 0064 002B     		cmp	r3, #0
 516 0066 F9D0     		beq	.L12
 517              		.loc 1 180 0 is_stmt 1
 518 0068 1C4B     		ldr	r3, .L16
 519 006a 1C4A     		ldr	r2, .L16
 520 006c 526A     		ldr	r2, [r2, #36]
 521 006e 42F00102 		orr	r2, r2, #1
 522 0072 5A62     		str	r2, [r3, #36]
 523              		.loc 1 181 0
ARM GAS  /tmp/ccjYSstS.s 			page 27


 524 0074 00BF     		nop
 525              	.L13:
 526              		.loc 1 181 0 is_stmt 0 discriminator 1
 527 0076 194B     		ldr	r3, .L16
 528 0078 5B6A     		ldr	r3, [r3, #36]
 529 007a 03F00203 		and	r3, r3, #2
 530 007e 002B     		cmp	r3, #0
 531 0080 F9D0     		beq	.L13
 532              		.loc 1 186 0 is_stmt 1
 533 0082 164B     		ldr	r3, .L16
 534 0084 164A     		ldr	r2, .L16+4
 535 0086 5A60     		str	r2, [r3, #4]
 536              		.loc 1 189 0
 537 0088 144B     		ldr	r3, .L16
 538 008a 4FF40452 		mov	r2, #8448
 539 008e DA62     		str	r2, [r3, #44]
 540              		.loc 1 190 0
 541 0090 124B     		ldr	r3, .L16
 542 0092 3022     		movs	r2, #48
 543 0094 1A63     		str	r2, [r3, #48]
 544              		.loc 1 196 0
 545 0096 114B     		ldr	r3, .L16
 546 0098 104A     		ldr	r2, .L16
 547 009a 1268     		ldr	r2, [r2]
 548 009c 42F08072 		orr	r2, r2, #16777216
 549 00a0 1A60     		str	r2, [r3]
 550              		.loc 1 197 0
 551 00a2 00BF     		nop
 552              	.L14:
 553              		.loc 1 197 0 is_stmt 0 discriminator 1
 554 00a4 0D4B     		ldr	r3, .L16
 555 00a6 1B68     		ldr	r3, [r3]
 556 00a8 03F00073 		and	r3, r3, #33554432
 557 00ac 002B     		cmp	r3, #0
 558 00ae F9D0     		beq	.L14
 559              		.loc 1 202 0 is_stmt 1
 560 00b0 0C4B     		ldr	r3, .L16+8
 561 00b2 1222     		movs	r2, #18
 562 00b4 1A60     		str	r2, [r3]
 563              		.loc 1 207 0
 564 00b6 094B     		ldr	r3, .L16
 565 00b8 084A     		ldr	r2, .L16
 566 00ba 5268     		ldr	r2, [r2, #4]
 567 00bc 42F00202 		orr	r2, r2, #2
 568 00c0 5A60     		str	r2, [r3, #4]
 569              		.loc 1 208 0
 570 00c2 00BF     		nop
 571              	.L15:
 572              		.loc 1 208 0 is_stmt 0 discriminator 1
 573 00c4 054B     		ldr	r3, .L16
 574 00c6 5B68     		ldr	r3, [r3, #4]
 575 00c8 03F00C03 		and	r3, r3, #12
 576 00cc 082B     		cmp	r3, #8
 577 00ce F9D1     		bne	.L15
 578              		.loc 1 214 0 is_stmt 1
 579 00d0 024B     		ldr	r3, .L16
 580 00d2 024A     		ldr	r2, .L16
ARM GAS  /tmp/ccjYSstS.s 			page 28


 581 00d4 126B     		ldr	r2, [r2, #48]
 582 00d6 1A63     		str	r2, [r3, #48]
 583              		.loc 1 216 0
 584 00d8 7047     		bx	lr
 585              	.L17:
 586 00da 00BF     		.align	2
 587              	.L16:
 588 00dc 00100240 		.word	1073876992
 589 00e0 00241D00 		.word	1909760
 590 00e4 00200240 		.word	1073881088
 591              		.cfi_endproc
 592              	.LFE274:
 593              		.size	stm32_clock_init, .-stm32_clock_init
 594 00e8 AFF30080 		.text
 594      AFF30080 
 595              	.Letext0:
 596              		.file 2 "/nfs/nfs5/home/research/hardware/arm2/gcc-arm-embedded/gcc-arm-none-eabi-4_8-2014q2/lib/g
 597              		.file 3 "/nfs/nfs5/home/research/hardware/arm2/gcc-arm-embedded/gcc-arm-none-eabi-4_8-2014q2/arm-n
 598              		.file 4 "/nfs/nfs5/home/research/hardware/arm2/gcc-arm-embedded/gcc-arm-none-eabi-4_8-2014q2/arm-n
 599              		.file 5 "../ChibiOS/os/rt/ports/ARMCMx/compilers/GCC/chtypes.h"
 600              		.file 6 "../ChibiOS/os/rt/include/chsystypes.h"
 601              		.file 7 "../ChibiOS/os/rt/include/chschd.h"
 602              		.file 8 "../ChibiOS/os/ext/CMSIS/ST/STM32F3xx/stm32f303xc.h"
 603              		.file 9 "../ChibiOS/os/rt/ports/ARMCMx/chcore.h"
 604              		.file 10 "../ChibiOS/os/rt/ports/ARMCMx/chcore_v7m.h"
 605              		.file 11 "../ChibiOS/os/rt/include/chtm.h"
 606              		.file 12 "../ChibiOS/os/rt/include/chsem.h"
 607              		.file 13 "../ChibiOS/os/rt/include/chmtx.h"
 608              		.file 14 "../ChibiOS/os/ext/CMSIS/include/core_cm4.h"
 609              		.section	.debug_info,"",%progbits
 610              	.Ldebug_info0:
 611 0000 6F080000 		.4byte	0x86f
 612 0004 0400     		.2byte	0x4
 613 0006 00000000 		.4byte	.Ldebug_abbrev0
 614 000a 04       		.byte	0x4
 615 000b 01       		.uleb128 0x1
 616 000c 92010000 		.4byte	.LASF128
 617 0010 01       		.byte	0x1
 618 0011 E5020000 		.4byte	.LASF129
 619 0015 1D050000 		.4byte	.LASF130
 620 0019 00000000 		.4byte	.Ldebug_ranges0+0
 621 001d 00000000 		.4byte	0
 622 0021 00000000 		.4byte	.Ldebug_line0
 623 0025 02       		.uleb128 0x2
 624 0026 04       		.byte	0x4
 625 0027 05       		.byte	0x5
 626 0028 696E7400 		.ascii	"int\000"
 627 002c 03       		.uleb128 0x3
 628 002d 0D000000 		.4byte	.LASF2
 629 0031 02       		.byte	0x2
 630 0032 D4       		.byte	0xd4
 631 0033 37000000 		.4byte	0x37
 632 0037 04       		.uleb128 0x4
 633 0038 04       		.byte	0x4
 634 0039 07       		.byte	0x7
 635 003a 72020000 		.4byte	.LASF0
 636 003e 04       		.uleb128 0x4
ARM GAS  /tmp/ccjYSstS.s 			page 29


 637 003f 01       		.byte	0x1
 638 0040 06       		.byte	0x6
 639 0041 C5000000 		.4byte	.LASF1
 640 0045 03       		.uleb128 0x3
 641 0046 24000000 		.4byte	.LASF3
 642 004a 03       		.byte	0x3
 643 004b 1C       		.byte	0x1c
 644 004c 50000000 		.4byte	0x50
 645 0050 04       		.uleb128 0x4
 646 0051 01       		.byte	0x1
 647 0052 08       		.byte	0x8
 648 0053 6A040000 		.4byte	.LASF4
 649 0057 04       		.uleb128 0x4
 650 0058 02       		.byte	0x2
 651 0059 05       		.byte	0x5
 652 005a 82040000 		.4byte	.LASF5
 653 005e 04       		.uleb128 0x4
 654 005f 02       		.byte	0x2
 655 0060 07       		.byte	0x7
 656 0061 BB020000 		.4byte	.LASF6
 657 0065 03       		.uleb128 0x3
 658 0066 45030000 		.4byte	.LASF7
 659 006a 03       		.byte	0x3
 660 006b 37       		.byte	0x37
 661 006c 70000000 		.4byte	0x70
 662 0070 04       		.uleb128 0x4
 663 0071 04       		.byte	0x4
 664 0072 05       		.byte	0x5
 665 0073 12010000 		.4byte	.LASF8
 666 0077 03       		.uleb128 0x3
 667 0078 B2050000 		.4byte	.LASF9
 668 007c 03       		.byte	0x3
 669 007d 38       		.byte	0x38
 670 007e 82000000 		.4byte	0x82
 671 0082 04       		.uleb128 0x4
 672 0083 04       		.byte	0x4
 673 0084 07       		.byte	0x7
 674 0085 68050000 		.4byte	.LASF10
 675 0089 04       		.uleb128 0x4
 676 008a 08       		.byte	0x8
 677 008b 05       		.byte	0x5
 678 008c B7000000 		.4byte	.LASF11
 679 0090 03       		.uleb128 0x3
 680 0091 06040000 		.4byte	.LASF12
 681 0095 03       		.byte	0x3
 682 0096 4E       		.byte	0x4e
 683 0097 9B000000 		.4byte	0x9b
 684 009b 04       		.uleb128 0x4
 685 009c 08       		.byte	0x8
 686 009d 07       		.byte	0x7
 687 009e 49000000 		.4byte	.LASF13
 688 00a2 03       		.uleb128 0x3
 689 00a3 44060000 		.4byte	.LASF14
 690 00a7 04       		.byte	0x4
 691 00a8 2A       		.byte	0x2a
 692 00a9 45000000 		.4byte	0x45
 693 00ad 03       		.uleb128 0x3
ARM GAS  /tmp/ccjYSstS.s 			page 30


 694 00ae 62040000 		.4byte	.LASF15
 695 00b2 04       		.byte	0x4
 696 00b3 41       		.byte	0x41
 697 00b4 65000000 		.4byte	0x65
 698 00b8 03       		.uleb128 0x3
 699 00b9 EC040000 		.4byte	.LASF16
 700 00bd 04       		.byte	0x4
 701 00be 42       		.byte	0x42
 702 00bf 77000000 		.4byte	0x77
 703 00c3 03       		.uleb128 0x3
 704 00c4 1B000000 		.4byte	.LASF17
 705 00c8 04       		.byte	0x4
 706 00c9 4E       		.byte	0x4e
 707 00ca 90000000 		.4byte	0x90
 708 00ce 03       		.uleb128 0x3
 709 00cf FE050000 		.4byte	.LASF18
 710 00d3 05       		.byte	0x5
 711 00d4 39       		.byte	0x39
 712 00d5 B8000000 		.4byte	0xb8
 713 00d9 03       		.uleb128 0x3
 714 00da 23030000 		.4byte	.LASF19
 715 00de 05       		.byte	0x5
 716 00df 3C       		.byte	0x3c
 717 00e0 A2000000 		.4byte	0xa2
 718 00e4 03       		.uleb128 0x3
 719 00e5 24010000 		.4byte	.LASF20
 720 00e9 05       		.byte	0x5
 721 00ea 3D       		.byte	0x3d
 722 00eb A2000000 		.4byte	0xa2
 723 00ef 03       		.uleb128 0x3
 724 00f0 20040000 		.4byte	.LASF21
 725 00f4 05       		.byte	0x5
 726 00f5 3E       		.byte	0x3e
 727 00f6 A2000000 		.4byte	0xa2
 728 00fa 03       		.uleb128 0x3
 729 00fb 44040000 		.4byte	.LASF22
 730 00ff 05       		.byte	0x5
 731 0100 40       		.byte	0x40
 732 0101 B8000000 		.4byte	0xb8
 733 0105 03       		.uleb128 0x3
 734 0106 D8020000 		.4byte	.LASF23
 735 010a 05       		.byte	0x5
 736 010b 41       		.byte	0x41
 737 010c AD000000 		.4byte	0xad
 738 0110 03       		.uleb128 0x3
 739 0111 39030000 		.4byte	.LASF24
 740 0115 05       		.byte	0x5
 741 0116 43       		.byte	0x43
 742 0117 B8000000 		.4byte	0xb8
 743 011b 03       		.uleb128 0x3
 744 011c 8C010000 		.4byte	.LASF25
 745 0120 05       		.byte	0x5
 746 0121 45       		.byte	0x45
 747 0122 AD000000 		.4byte	0xad
 748 0126 03       		.uleb128 0x3
 749 0127 94050000 		.4byte	.LASF26
 750 012b 06       		.byte	0x6
ARM GAS  /tmp/ccjYSstS.s 			page 31


 751 012c 33       		.byte	0x33
 752 012d B8000000 		.4byte	0xb8
 753 0131 03       		.uleb128 0x3
 754 0132 84050000 		.4byte	.LASF27
 755 0136 06       		.byte	0x6
 756 0137 3F       		.byte	0x3f
 757 0138 3C010000 		.4byte	0x13c
 758 013c 05       		.uleb128 0x5
 759 013d CE020000 		.4byte	.LASF47
 760 0141 44       		.byte	0x44
 761 0142 07       		.byte	0x7
 762 0143 C2       		.byte	0xc2
 763 0144 28020000 		.4byte	0x228
 764 0148 06       		.uleb128 0x6
 765 0149 A6030000 		.4byte	.LASF28
 766 014d 07       		.byte	0x7
 767 014e C3       		.byte	0xc3
 768 014f 33020000 		.4byte	0x233
 769 0153 00       		.byte	0
 770 0154 06       		.uleb128 0x6
 771 0155 3D040000 		.4byte	.LASF29
 772 0159 07       		.byte	0x7
 773 015a C5       		.byte	0xc5
 774 015b 33020000 		.4byte	0x233
 775 015f 04       		.byte	0x4
 776 0160 06       		.uleb128 0x6
 777 0161 B0000000 		.4byte	.LASF30
 778 0165 07       		.byte	0x7
 779 0166 C7       		.byte	0xc7
 780 0167 FA000000 		.4byte	0xfa
 781 016b 08       		.byte	0x8
 782 016c 06       		.uleb128 0x6
 783 016d 67060000 		.4byte	.LASF31
 784 0171 07       		.byte	0x7
 785 0172 C8       		.byte	0xc8
 786 0173 3C060000 		.4byte	0x63c
 787 0177 0C       		.byte	0xc
 788 0178 06       		.uleb128 0x6
 789 0179 35010000 		.4byte	.LASF32
 790 017d 07       		.byte	0x7
 791 017e CA       		.byte	0xca
 792 017f 33020000 		.4byte	0x233
 793 0183 10       		.byte	0x10
 794 0184 06       		.uleb128 0x6
 795 0185 94040000 		.4byte	.LASF33
 796 0189 07       		.byte	0x7
 797 018a CB       		.byte	0xcb
 798 018b 33020000 		.4byte	0x233
 799 018f 14       		.byte	0x14
 800 0190 06       		.uleb128 0x6
 801 0191 53060000 		.4byte	.LASF34
 802 0195 07       		.byte	0x7
 803 0196 D2       		.byte	0xd2
 804 0197 C7070000 		.4byte	0x7c7
 805 019b 18       		.byte	0x18
 806 019c 06       		.uleb128 0x6
 807 019d BD050000 		.4byte	.LASF35
ARM GAS  /tmp/ccjYSstS.s 			page 32


 808 01a1 07       		.byte	0x7
 809 01a2 D8       		.byte	0xd8
 810 01a3 D9070000 		.4byte	0x7d9
 811 01a7 1C       		.byte	0x1c
 812 01a8 06       		.uleb128 0x6
 813 01a9 8C040000 		.4byte	.LASF36
 814 01ad 07       		.byte	0x7
 815 01ae DD       		.byte	0xdd
 816 01af E4000000 		.4byte	0xe4
 817 01b3 20       		.byte	0x20
 818 01b4 06       		.uleb128 0x6
 819 01b5 B3040000 		.4byte	.LASF37
 820 01b9 07       		.byte	0x7
 821 01ba E1       		.byte	0xe1
 822 01bb D9000000 		.4byte	0xd9
 823 01bf 21       		.byte	0x21
 824 01c0 06       		.uleb128 0x6
 825 01c1 26060000 		.4byte	.LASF38
 826 01c5 07       		.byte	0x7
 827 01c6 E6       		.byte	0xe6
 828 01c7 EF000000 		.4byte	0xef
 829 01cb 22       		.byte	0x22
 830 01cc 07       		.uleb128 0x7
 831 01cd 705F7500 		.ascii	"p_u\000"
 832 01d1 07       		.byte	0x7
 833 01d2 3701     		.2byte	0x137
 834 01d4 F6060000 		.4byte	0x6f6
 835 01d8 24       		.byte	0x24
 836 01d9 08       		.uleb128 0x8
 837 01da 69030000 		.4byte	.LASF39
 838 01de 07       		.byte	0x7
 839 01df 3C01     		.2byte	0x13c
 840 01e1 39020000 		.4byte	0x239
 841 01e5 28       		.byte	0x28
 842 01e6 08       		.uleb128 0x8
 843 01e7 9E020000 		.4byte	.LASF40
 844 01eb 07       		.byte	0x7
 845 01ec 4201     		.2byte	0x142
 846 01ee 5D020000 		.4byte	0x25d
 847 01f2 2C       		.byte	0x2c
 848 01f3 08       		.uleb128 0x8
 849 01f4 E1040000 		.4byte	.LASF41
 850 01f8 07       		.byte	0x7
 851 01f9 4801     		.2byte	0x148
 852 01fb 10010000 		.4byte	0x110
 853 01ff 34       		.byte	0x34
 854 0200 08       		.uleb128 0x8
 855 0201 78040000 		.4byte	.LASF42
 856 0205 07       		.byte	0x7
 857 0206 4F01     		.2byte	0x14f
 858 0208 C1070000 		.4byte	0x7c1
 859 020c 38       		.byte	0x38
 860 020d 08       		.uleb128 0x8
 861 020e 9E050000 		.4byte	.LASF43
 862 0212 07       		.byte	0x7
 863 0213 5301     		.2byte	0x153
 864 0215 FA000000 		.4byte	0xfa
ARM GAS  /tmp/ccjYSstS.s 			page 33


 865 0219 3C       		.byte	0x3c
 866 021a 08       		.uleb128 0x8
 867 021b DF000000 		.4byte	.LASF44
 868 021f 07       		.byte	0x7
 869 0220 5A01     		.2byte	0x15a
 870 0222 10030000 		.4byte	0x310
 871 0226 40       		.byte	0x40
 872 0227 00       		.byte	0
 873 0228 03       		.uleb128 0x3
 874 0229 7C030000 		.4byte	.LASF45
 875 022d 06       		.byte	0x6
 876 022e 44       		.byte	0x44
 877 022f 33020000 		.4byte	0x233
 878 0233 09       		.uleb128 0x9
 879 0234 04       		.byte	0x4
 880 0235 31010000 		.4byte	0x131
 881 0239 03       		.uleb128 0x3
 882 023a 5A030000 		.4byte	.LASF46
 883 023e 06       		.byte	0x6
 884 023f 49       		.byte	0x49
 885 0240 44020000 		.4byte	0x244
 886 0244 05       		.uleb128 0x5
 887 0245 0D050000 		.4byte	.LASF48
 888 0249 04       		.byte	0x4
 889 024a 07       		.byte	0x7
 890 024b B0       		.byte	0xb0
 891 024c 5D020000 		.4byte	0x25d
 892 0250 06       		.uleb128 0x6
 893 0251 A6030000 		.4byte	.LASF28
 894 0255 07       		.byte	0x7
 895 0256 B1       		.byte	0xb1
 896 0257 33020000 		.4byte	0x233
 897 025b 00       		.byte	0
 898 025c 00       		.byte	0
 899 025d 03       		.uleb128 0x3
 900 025e 0D060000 		.4byte	.LASF49
 901 0262 06       		.byte	0x6
 902 0263 50       		.byte	0x50
 903 0264 68020000 		.4byte	0x268
 904 0268 05       		.uleb128 0x5
 905 0269 9F000000 		.4byte	.LASF50
 906 026d 08       		.byte	0x8
 907 026e 07       		.byte	0x7
 908 026f B7       		.byte	0xb7
 909 0270 8D020000 		.4byte	0x28d
 910 0274 06       		.uleb128 0x6
 911 0275 A6030000 		.4byte	.LASF28
 912 0279 07       		.byte	0x7
 913 027a B8       		.byte	0xb8
 914 027b 33020000 		.4byte	0x233
 915 027f 00       		.byte	0
 916 0280 06       		.uleb128 0x6
 917 0281 3D040000 		.4byte	.LASF29
 918 0285 07       		.byte	0x7
 919 0286 B9       		.byte	0xb9
 920 0287 33020000 		.4byte	0x233
 921 028b 04       		.byte	0x4
ARM GAS  /tmp/ccjYSstS.s 			page 34


 922 028c 00       		.byte	0
 923 028d 03       		.uleb128 0x3
 924 028e 00000000 		.4byte	.LASF51
 925 0292 06       		.byte	0x6
 926 0293 57       		.byte	0x57
 927 0294 98020000 		.4byte	0x298
 928 0298 0A       		.uleb128 0xa
 929 0299 2B030000 		.4byte	.LASF52
 930 029d 1C       		.byte	0x1c
 931 029e 07       		.byte	0x7
 932 029f 9201     		.2byte	0x192
 933 02a1 F4020000 		.4byte	0x2f4
 934 02a5 08       		.uleb128 0x8
 935 02a6 FC040000 		.4byte	.LASF53
 936 02aa 07       		.byte	0x7
 937 02ab 9301     		.2byte	0x193
 938 02ad 5D020000 		.4byte	0x25d
 939 02b1 00       		.byte	0
 940 02b2 08       		.uleb128 0x8
 941 02b3 9C040000 		.4byte	.LASF54
 942 02b7 07       		.byte	0x7
 943 02b8 9401     		.2byte	0x194
 944 02ba FA000000 		.4byte	0xfa
 945 02be 08       		.byte	0x8
 946 02bf 08       		.uleb128 0x8
 947 02c0 D4030000 		.4byte	.LASF55
 948 02c4 07       		.byte	0x7
 949 02c5 9601     		.2byte	0x196
 950 02c7 3C060000 		.4byte	0x63c
 951 02cb 0C       		.byte	0xc
 952 02cc 08       		.uleb128 0x8
 953 02cd 45010000 		.4byte	.LASF56
 954 02d1 07       		.byte	0x7
 955 02d2 9901     		.2byte	0x199
 956 02d4 33020000 		.4byte	0x233
 957 02d8 10       		.byte	0x10
 958 02d9 08       		.uleb128 0x8
 959 02da E9050000 		.4byte	.LASF57
 960 02de 07       		.byte	0x7
 961 02df 9A01     		.2byte	0x19a
 962 02e1 33020000 		.4byte	0x233
 963 02e5 14       		.byte	0x14
 964 02e6 08       		.uleb128 0x8
 965 02e7 F3030000 		.4byte	.LASF58
 966 02eb 07       		.byte	0x7
 967 02ec 9D01     		.2byte	0x19d
 968 02ee 33020000 		.4byte	0x233
 969 02f2 18       		.byte	0x18
 970 02f3 00       		.byte	0
 971 02f4 03       		.uleb128 0x3
 972 02f5 A9050000 		.4byte	.LASF59
 973 02f9 06       		.byte	0x6
 974 02fa 5C       		.byte	0x5c
 975 02fb FF020000 		.4byte	0x2ff
 976 02ff 09       		.uleb128 0x9
 977 0300 04       		.byte	0x4
 978 0301 05030000 		.4byte	0x305
ARM GAS  /tmp/ccjYSstS.s 			page 35


 979 0305 0B       		.uleb128 0xb
 980 0306 10030000 		.4byte	0x310
 981 030a 0C       		.uleb128 0xc
 982 030b 10030000 		.4byte	0x310
 983 030f 00       		.byte	0
 984 0310 0D       		.uleb128 0xd
 985 0311 04       		.byte	0x4
 986 0312 03       		.uleb128 0x3
 987 0313 2D040000 		.4byte	.LASF60
 988 0317 06       		.byte	0x6
 989 0318 61       		.byte	0x61
 990 0319 1D030000 		.4byte	0x31d
 991 031d 0A       		.uleb128 0xa
 992 031e C3040000 		.4byte	.LASF61
 993 0322 14       		.byte	0x14
 994 0323 07       		.byte	0x7
 995 0324 6D01     		.2byte	0x16d
 996 0326 6C030000 		.4byte	0x36c
 997 032a 08       		.uleb128 0x8
 998 032b 7F020000 		.4byte	.LASF62
 999 032f 07       		.byte	0x7
 1000 0330 6E01     		.2byte	0x16e
 1001 0332 DF070000 		.4byte	0x7df
 1002 0336 00       		.byte	0
 1003 0337 08       		.uleb128 0x8
 1004 0338 56010000 		.4byte	.LASF63
 1005 033c 07       		.byte	0x7
 1006 033d 6F01     		.2byte	0x16f
 1007 033f DF070000 		.4byte	0x7df
 1008 0343 04       		.byte	0x4
 1009 0344 08       		.uleb128 0x8
 1010 0345 04050000 		.4byte	.LASF64
 1011 0349 07       		.byte	0x7
 1012 034a 7001     		.2byte	0x170
 1013 034c 26010000 		.4byte	0x126
 1014 0350 08       		.byte	0x8
 1015 0351 08       		.uleb128 0x8
 1016 0352 6D060000 		.4byte	.LASF65
 1017 0356 07       		.byte	0x7
 1018 0357 7101     		.2byte	0x171
 1019 0359 F4020000 		.4byte	0x2f4
 1020 035d 0C       		.byte	0xc
 1021 035e 08       		.uleb128 0x8
 1022 035f 06060000 		.4byte	.LASF66
 1023 0363 07       		.byte	0x7
 1024 0364 7301     		.2byte	0x173
 1025 0366 10030000 		.4byte	0x310
 1026 036a 10       		.byte	0x10
 1027 036b 00       		.byte	0
 1028 036c 03       		.uleb128 0x3
 1029 036d 7C000000 		.4byte	.LASF67
 1030 0371 06       		.byte	0x6
 1031 0372 66       		.byte	0x66
 1032 0373 77030000 		.4byte	0x377
 1033 0377 0A       		.uleb128 0xa
 1034 0378 8F030000 		.4byte	.LASF68
 1035 037c 10       		.byte	0x10
ARM GAS  /tmp/ccjYSstS.s 			page 36


 1036 037d 07       		.byte	0x7
 1037 037e 7D01     		.2byte	0x17d
 1038 0380 B9030000 		.4byte	0x3b9
 1039 0384 08       		.uleb128 0x8
 1040 0385 7F020000 		.4byte	.LASF62
 1041 0389 07       		.byte	0x7
 1042 038a 7E01     		.2byte	0x17e
 1043 038c DF070000 		.4byte	0x7df
 1044 0390 00       		.byte	0
 1045 0391 08       		.uleb128 0x8
 1046 0392 56010000 		.4byte	.LASF63
 1047 0396 07       		.byte	0x7
 1048 0397 8001     		.2byte	0x180
 1049 0399 DF070000 		.4byte	0x7df
 1050 039d 04       		.byte	0x4
 1051 039e 08       		.uleb128 0x8
 1052 039f 04050000 		.4byte	.LASF64
 1053 03a3 07       		.byte	0x7
 1054 03a4 8201     		.2byte	0x182
 1055 03a6 26010000 		.4byte	0x126
 1056 03aa 08       		.byte	0x8
 1057 03ab 08       		.uleb128 0x8
 1058 03ac AD030000 		.4byte	.LASF69
 1059 03b0 07       		.byte	0x7
 1060 03b1 8A01     		.2byte	0x18a
 1061 03b3 26010000 		.4byte	0x126
 1062 03b7 0C       		.byte	0xc
 1063 03b8 00       		.byte	0
 1064 03b9 03       		.uleb128 0x3
 1065 03ba 3A000000 		.4byte	.LASF70
 1066 03be 06       		.byte	0x6
 1067 03bf 6B       		.byte	0x6b
 1068 03c0 C4030000 		.4byte	0x3c4
 1069 03c4 0A       		.uleb128 0xa
 1070 03c5 4C040000 		.4byte	.LASF71
 1071 03c9 04       		.byte	0x4
 1072 03ca 07       		.byte	0x7
 1073 03cb A401     		.2byte	0x1a4
 1074 03cd DF030000 		.4byte	0x3df
 1075 03d1 08       		.uleb128 0x8
 1076 03d2 C8050000 		.4byte	.LASF72
 1077 03d6 07       		.byte	0x7
 1078 03d7 AC01     		.2byte	0x1ac
 1079 03d9 E5070000 		.4byte	0x7e5
 1080 03dd 00       		.byte	0
 1081 03de 00       		.byte	0
 1082 03df 03       		.uleb128 0x3
 1083 03e0 17030000 		.4byte	.LASF73
 1084 03e4 06       		.byte	0x6
 1085 03e5 70       		.byte	0x70
 1086 03e6 EA030000 		.4byte	0x3ea
 1087 03ea 0E       		.uleb128 0xe
 1088 03eb 08010000 		.4byte	.LASF74
 1089 03ef 5001     		.2byte	0x150
 1090 03f1 07       		.byte	0x7
 1091 03f2 C401     		.2byte	0x1c4
 1092 03f4 46040000 		.4byte	0x446
ARM GAS  /tmp/ccjYSstS.s 			page 37


 1093 03f8 08       		.uleb128 0x8
 1094 03f9 5E010000 		.4byte	.LASF75
 1095 03fd 07       		.byte	0x7
 1096 03fe C801     		.2byte	0x1c8
 1097 0400 8D020000 		.4byte	0x28d
 1098 0404 00       		.byte	0
 1099 0405 08       		.uleb128 0x8
 1100 0406 EF000000 		.4byte	.LASF76
 1101 040a 07       		.byte	0x7
 1102 040b CC01     		.2byte	0x1cc
 1103 040d 6C030000 		.4byte	0x36c
 1104 0411 1C       		.byte	0x1c
 1105 0412 07       		.uleb128 0x7
 1106 0413 64626700 		.ascii	"dbg\000"
 1107 0417 07       		.byte	0x7
 1108 0418 D001     		.2byte	0x1d0
 1109 041a B9030000 		.4byte	0x3b9
 1110 041e 2C       		.byte	0x2c
 1111 041f 08       		.uleb128 0x8
 1112 0420 69000000 		.4byte	.LASF77
 1113 0424 07       		.byte	0x7
 1114 0425 D401     		.2byte	0x1d4
 1115 0427 31010000 		.4byte	0x131
 1116 042b 30       		.byte	0x30
 1117 042c 07       		.uleb128 0x7
 1118 042d 746D00   		.ascii	"tm\000"
 1119 0430 07       		.byte	0x7
 1120 0431 D901     		.2byte	0x1d9
 1121 0433 EB060000 		.4byte	0x6eb
 1122 0437 74       		.byte	0x74
 1123 0438 08       		.uleb128 0x8
 1124 0439 7D010000 		.4byte	.LASF78
 1125 043d 07       		.byte	0x7
 1126 043e E501     		.2byte	0x1e5
 1127 0440 EA070000 		.4byte	0x7ea
 1128 0444 78       		.byte	0x78
 1129 0445 00       		.byte	0
 1130 0446 04       		.uleb128 0x4
 1131 0447 04       		.byte	0x4
 1132 0448 07       		.byte	0x7
 1133 0449 73030000 		.4byte	.LASF79
 1134 044d 0F       		.uleb128 0xf
 1135 044e B8000000 		.4byte	0xb8
 1136 0452 10       		.uleb128 0x10
 1137 0453 B8000000 		.4byte	0xb8
 1138 0457 62040000 		.4byte	0x462
 1139 045b 11       		.uleb128 0x11
 1140 045c 46040000 		.4byte	0x446
 1141 0460 03       		.byte	0x3
 1142 0461 00       		.byte	0
 1143 0462 12       		.uleb128 0x12
 1144 0463 24       		.byte	0x24
 1145 0464 08       		.byte	0x8
 1146 0465 8A01     		.2byte	0x18a
 1147 0467 DE040000 		.4byte	0x4de
 1148 046b 07       		.uleb128 0x7
 1149 046c 41435200 		.ascii	"ACR\000"
ARM GAS  /tmp/ccjYSstS.s 			page 38


 1150 0470 08       		.byte	0x8
 1151 0471 8C01     		.2byte	0x18c
 1152 0473 4D040000 		.4byte	0x44d
 1153 0477 00       		.byte	0
 1154 0478 08       		.uleb128 0x8
 1155 0479 28040000 		.4byte	.LASF80
 1156 047d 08       		.byte	0x8
 1157 047e 8D01     		.2byte	0x18d
 1158 0480 4D040000 		.4byte	0x44d
 1159 0484 04       		.byte	0x4
 1160 0485 08       		.uleb128 0x8
 1161 0486 2D010000 		.4byte	.LASF81
 1162 048a 08       		.byte	0x8
 1163 048b 8E01     		.2byte	0x18e
 1164 048d 4D040000 		.4byte	0x44d
 1165 0491 08       		.byte	0x8
 1166 0492 07       		.uleb128 0x7
 1167 0493 535200   		.ascii	"SR\000"
 1168 0496 08       		.byte	0x8
 1169 0497 8F01     		.2byte	0x18f
 1170 0499 4D040000 		.4byte	0x44d
 1171 049d 0C       		.byte	0xc
 1172 049e 07       		.uleb128 0x7
 1173 049f 435200   		.ascii	"CR\000"
 1174 04a2 08       		.byte	0x8
 1175 04a3 9001     		.2byte	0x190
 1176 04a5 4D040000 		.4byte	0x44d
 1177 04a9 10       		.byte	0x10
 1178 04aa 07       		.uleb128 0x7
 1179 04ab 415200   		.ascii	"AR\000"
 1180 04ae 08       		.byte	0x8
 1181 04af 9101     		.2byte	0x191
 1182 04b1 4D040000 		.4byte	0x44d
 1183 04b5 14       		.byte	0x14
 1184 04b6 08       		.uleb128 0x8
 1185 04b7 A3040000 		.4byte	.LASF82
 1186 04bb 08       		.byte	0x8
 1187 04bc 9201     		.2byte	0x192
 1188 04be B8000000 		.4byte	0xb8
 1189 04c2 18       		.byte	0x18
 1190 04c3 07       		.uleb128 0x7
 1191 04c4 4F425200 		.ascii	"OBR\000"
 1192 04c8 08       		.byte	0x8
 1193 04c9 9301     		.2byte	0x193
 1194 04cb 4D040000 		.4byte	0x44d
 1195 04cf 1C       		.byte	0x1c
 1196 04d0 08       		.uleb128 0x8
 1197 04d1 7A050000 		.4byte	.LASF83
 1198 04d5 08       		.byte	0x8
 1199 04d6 9401     		.2byte	0x194
 1200 04d8 4D040000 		.4byte	0x44d
 1201 04dc 20       		.byte	0x20
 1202 04dd 00       		.byte	0
 1203 04de 13       		.uleb128 0x13
 1204 04df D1000000 		.4byte	.LASF84
 1205 04e3 08       		.byte	0x8
 1206 04e4 9601     		.2byte	0x196
ARM GAS  /tmp/ccjYSstS.s 			page 39


 1207 04e6 62040000 		.4byte	0x462
 1208 04ea 12       		.uleb128 0x12
 1209 04eb 1C       		.byte	0x1c
 1210 04ec 08       		.byte	0x8
 1211 04ed C601     		.2byte	0x1c6
 1212 04ef 28050000 		.4byte	0x528
 1213 04f3 08       		.uleb128 0x8
 1214 04f4 32060000 		.4byte	.LASF85
 1215 04f8 08       		.byte	0x8
 1216 04f9 C801     		.2byte	0x1c8
 1217 04fb 4D040000 		.4byte	0x44d
 1218 04ff 00       		.byte	0
 1219 0500 07       		.uleb128 0x7
 1220 0501 52435200 		.ascii	"RCR\000"
 1221 0505 08       		.byte	0x8
 1222 0506 C901     		.2byte	0x1c9
 1223 0508 4D040000 		.4byte	0x44d
 1224 050c 04       		.byte	0x4
 1225 050d 08       		.uleb128 0x8
 1226 050e 75060000 		.4byte	.LASF86
 1227 0512 08       		.byte	0x8
 1228 0513 CA01     		.2byte	0x1ca
 1229 0515 28050000 		.4byte	0x528
 1230 0519 08       		.byte	0x8
 1231 051a 08       		.uleb128 0x8
 1232 051b 38060000 		.4byte	.LASF87
 1233 051f 08       		.byte	0x8
 1234 0520 CB01     		.2byte	0x1cb
 1235 0522 4D040000 		.4byte	0x44d
 1236 0526 18       		.byte	0x18
 1237 0527 00       		.byte	0
 1238 0528 0F       		.uleb128 0xf
 1239 0529 52040000 		.4byte	0x452
 1240 052d 13       		.uleb128 0x13
 1241 052e 11040000 		.4byte	.LASF88
 1242 0532 08       		.byte	0x8
 1243 0533 CC01     		.2byte	0x1cc
 1244 0535 EA040000 		.4byte	0x4ea
 1245 0539 12       		.uleb128 0x12
 1246 053a 08       		.byte	0x8
 1247 053b 08       		.byte	0x8
 1248 053c F201     		.2byte	0x1f2
 1249 053e 5C050000 		.4byte	0x55c
 1250 0542 07       		.uleb128 0x7
 1251 0543 435200   		.ascii	"CR\000"
 1252 0546 08       		.byte	0x8
 1253 0547 F401     		.2byte	0x1f4
 1254 0549 4D040000 		.4byte	0x44d
 1255 054d 00       		.byte	0
 1256 054e 07       		.uleb128 0x7
 1257 054f 43535200 		.ascii	"CSR\000"
 1258 0553 08       		.byte	0x8
 1259 0554 F501     		.2byte	0x1f5
 1260 0556 4D040000 		.4byte	0x44d
 1261 055a 04       		.byte	0x4
 1262 055b 00       		.byte	0
 1263 055c 13       		.uleb128 0x13
ARM GAS  /tmp/ccjYSstS.s 			page 40


 1264 055d F6000000 		.4byte	.LASF89
 1265 0561 08       		.byte	0x8
 1266 0562 F601     		.2byte	0x1f6
 1267 0564 39050000 		.4byte	0x539
 1268 0568 12       		.uleb128 0x12
 1269 0569 34       		.byte	0x34
 1270 056a 08       		.byte	0x8
 1271 056b FB01     		.2byte	0x1fb
 1272 056d 1A060000 		.4byte	0x61a
 1273 0571 07       		.uleb128 0x7
 1274 0572 435200   		.ascii	"CR\000"
 1275 0575 08       		.byte	0x8
 1276 0576 FD01     		.2byte	0x1fd
 1277 0578 4D040000 		.4byte	0x44d
 1278 057c 00       		.byte	0
 1279 057d 08       		.uleb128 0x8
 1280 057e 5A060000 		.4byte	.LASF90
 1281 0582 08       		.byte	0x8
 1282 0583 FE01     		.2byte	0x1fe
 1283 0585 4D040000 		.4byte	0x44d
 1284 0589 04       		.byte	0x4
 1285 058a 07       		.uleb128 0x7
 1286 058b 43495200 		.ascii	"CIR\000"
 1287 058f 08       		.byte	0x8
 1288 0590 FF01     		.2byte	0x1ff
 1289 0592 4D040000 		.4byte	0x44d
 1290 0596 08       		.byte	0x8
 1291 0597 08       		.uleb128 0x8
 1292 0598 1B010000 		.4byte	.LASF91
 1293 059c 08       		.byte	0x8
 1294 059d 0002     		.2byte	0x200
 1295 059f 4D040000 		.4byte	0x44d
 1296 05a3 0C       		.byte	0xc
 1297 05a4 08       		.uleb128 0x8
 1298 05a5 FD030000 		.4byte	.LASF92
 1299 05a9 08       		.byte	0x8
 1300 05aa 0102     		.2byte	0x201
 1301 05ac 4D040000 		.4byte	0x44d
 1302 05b0 10       		.byte	0x10
 1303 05b1 08       		.uleb128 0x8
 1304 05b2 DE020000 		.4byte	.LASF93
 1305 05b6 08       		.byte	0x8
 1306 05b7 0202     		.2byte	0x202
 1307 05b9 4D040000 		.4byte	0x44d
 1308 05bd 14       		.byte	0x14
 1309 05be 08       		.uleb128 0x8
 1310 05bf BB040000 		.4byte	.LASF94
 1311 05c3 08       		.byte	0x8
 1312 05c4 0302     		.2byte	0x203
 1313 05c6 4D040000 		.4byte	0x44d
 1314 05ca 18       		.byte	0x18
 1315 05cb 08       		.uleb128 0x8
 1316 05cc D9050000 		.4byte	.LASF95
 1317 05d0 08       		.byte	0x8
 1318 05d1 0402     		.2byte	0x204
 1319 05d3 4D040000 		.4byte	0x44d
 1320 05d7 1C       		.byte	0x1c
ARM GAS  /tmp/ccjYSstS.s 			page 41


 1321 05d8 08       		.uleb128 0x8
 1322 05d9 2D060000 		.4byte	.LASF96
 1323 05dd 08       		.byte	0x8
 1324 05de 0502     		.2byte	0x205
 1325 05e0 4D040000 		.4byte	0x44d
 1326 05e4 20       		.byte	0x20
 1327 05e5 07       		.uleb128 0x7
 1328 05e6 43535200 		.ascii	"CSR\000"
 1329 05ea 08       		.byte	0x8
 1330 05eb 0602     		.2byte	0x206
 1331 05ed 4D040000 		.4byte	0x44d
 1332 05f1 24       		.byte	0x24
 1333 05f2 08       		.uleb128 0x8
 1334 05f3 EB030000 		.4byte	.LASF97
 1335 05f7 08       		.byte	0x8
 1336 05f8 0702     		.2byte	0x207
 1337 05fa 4D040000 		.4byte	0x44d
 1338 05fe 28       		.byte	0x28
 1339 05ff 08       		.uleb128 0x8
 1340 0600 38060000 		.4byte	.LASF87
 1341 0604 08       		.byte	0x8
 1342 0605 0802     		.2byte	0x208
 1343 0607 4D040000 		.4byte	0x44d
 1344 060b 2C       		.byte	0x2c
 1345 060c 08       		.uleb128 0x8
 1346 060d 3E060000 		.4byte	.LASF98
 1347 0611 08       		.byte	0x8
 1348 0612 0902     		.2byte	0x209
 1349 0614 4D040000 		.4byte	0x44d
 1350 0618 30       		.byte	0x30
 1351 0619 00       		.byte	0
 1352 061a 13       		.uleb128 0x13
 1353 061b A9020000 		.4byte	.LASF99
 1354 061f 08       		.byte	0x8
 1355 0620 0A02     		.2byte	0x20a
 1356 0622 68050000 		.4byte	0x568
 1357 0626 03       		.uleb128 0x3
 1358 0627 4D010000 		.4byte	.LASF100
 1359 062b 09       		.byte	0x9
 1360 062c 65       		.byte	0x65
 1361 062d 10030000 		.4byte	0x310
 1362 0631 03       		.uleb128 0x3
 1363 0632 4F030000 		.4byte	.LASF101
 1364 0636 09       		.byte	0x9
 1365 0637 6D       		.byte	0x6d
 1366 0638 C3000000 		.4byte	0xc3
 1367 063c 05       		.uleb128 0x5
 1368 063d E1050000 		.4byte	.LASF102
 1369 0641 04       		.byte	0x4
 1370 0642 09       		.byte	0x9
 1371 0643 89       		.byte	0x89
 1372 0644 55060000 		.4byte	0x655
 1373 0648 14       		.uleb128 0x14
 1374 0649 72313300 		.ascii	"r13\000"
 1375 064d 09       		.byte	0x9
 1376 064e 8A       		.byte	0x8a
 1377 064f D0060000 		.4byte	0x6d0
ARM GAS  /tmp/ccjYSstS.s 			page 42


 1378 0653 00       		.byte	0
 1379 0654 00       		.byte	0
 1380 0655 05       		.uleb128 0x5
 1381 0656 2E000000 		.4byte	.LASF103
 1382 065a 24       		.byte	0x24
 1383 065b 0A       		.byte	0xa
 1384 065c FD       		.byte	0xfd
 1385 065d D0060000 		.4byte	0x6d0
 1386 0661 07       		.uleb128 0x7
 1387 0662 723400   		.ascii	"r4\000"
 1388 0665 0A       		.byte	0xa
 1389 0666 1001     		.2byte	0x110
 1390 0668 26060000 		.4byte	0x626
 1391 066c 00       		.byte	0
 1392 066d 07       		.uleb128 0x7
 1393 066e 723500   		.ascii	"r5\000"
 1394 0671 0A       		.byte	0xa
 1395 0672 1101     		.2byte	0x111
 1396 0674 26060000 		.4byte	0x626
 1397 0678 04       		.byte	0x4
 1398 0679 07       		.uleb128 0x7
 1399 067a 723600   		.ascii	"r6\000"
 1400 067d 0A       		.byte	0xa
 1401 067e 1201     		.2byte	0x112
 1402 0680 26060000 		.4byte	0x626
 1403 0684 08       		.byte	0x8
 1404 0685 07       		.uleb128 0x7
 1405 0686 723700   		.ascii	"r7\000"
 1406 0689 0A       		.byte	0xa
 1407 068a 1301     		.2byte	0x113
 1408 068c 26060000 		.4byte	0x626
 1409 0690 0C       		.byte	0xc
 1410 0691 07       		.uleb128 0x7
 1411 0692 723800   		.ascii	"r8\000"
 1412 0695 0A       		.byte	0xa
 1413 0696 1401     		.2byte	0x114
 1414 0698 26060000 		.4byte	0x626
 1415 069c 10       		.byte	0x10
 1416 069d 07       		.uleb128 0x7
 1417 069e 723900   		.ascii	"r9\000"
 1418 06a1 0A       		.byte	0xa
 1419 06a2 1501     		.2byte	0x115
 1420 06a4 26060000 		.4byte	0x626
 1421 06a8 14       		.byte	0x14
 1422 06a9 07       		.uleb128 0x7
 1423 06aa 72313000 		.ascii	"r10\000"
 1424 06ae 0A       		.byte	0xa
 1425 06af 1601     		.2byte	0x116
 1426 06b1 26060000 		.4byte	0x626
 1427 06b5 18       		.byte	0x18
 1428 06b6 07       		.uleb128 0x7
 1429 06b7 72313100 		.ascii	"r11\000"
 1430 06bb 0A       		.byte	0xa
 1431 06bc 1701     		.2byte	0x117
 1432 06be 26060000 		.4byte	0x626
 1433 06c2 1C       		.byte	0x1c
 1434 06c3 07       		.uleb128 0x7
ARM GAS  /tmp/ccjYSstS.s 			page 43


 1435 06c4 6C7200   		.ascii	"lr\000"
 1436 06c7 0A       		.byte	0xa
 1437 06c8 1801     		.2byte	0x118
 1438 06ca 26060000 		.4byte	0x626
 1439 06ce 20       		.byte	0x20
 1440 06cf 00       		.byte	0
 1441 06d0 09       		.uleb128 0x9
 1442 06d1 04       		.byte	0x4
 1443 06d2 55060000 		.4byte	0x655
 1444 06d6 15       		.uleb128 0x15
 1445 06d7 04       		.byte	0x4
 1446 06d8 0B       		.byte	0xb
 1447 06d9 38       		.byte	0x38
 1448 06da EB060000 		.4byte	0x6eb
 1449 06de 06       		.uleb128 0x6
 1450 06df D2050000 		.4byte	.LASF104
 1451 06e3 0B       		.byte	0xb
 1452 06e4 3C       		.byte	0x3c
 1453 06e5 CE000000 		.4byte	0xce
 1454 06e9 00       		.byte	0
 1455 06ea 00       		.byte	0
 1456 06eb 03       		.uleb128 0x3
 1457 06ec DA030000 		.4byte	.LASF105
 1458 06f0 0B       		.byte	0xb
 1459 06f1 3D       		.byte	0x3d
 1460 06f2 D6060000 		.4byte	0x6d6
 1461 06f6 16       		.uleb128 0x16
 1462 06f7 04       		.byte	0x4
 1463 06f8 07       		.byte	0x7
 1464 06f9 FA       		.byte	0xfa
 1465 06fa 5F070000 		.4byte	0x75f
 1466 06fe 17       		.uleb128 0x17
 1467 06ff 14000000 		.4byte	.LASF106
 1468 0703 07       		.byte	0x7
 1469 0704 0101     		.2byte	0x101
 1470 0706 05010000 		.4byte	0x105
 1471 070a 17       		.uleb128 0x17
 1472 070b 60000000 		.4byte	.LASF107
 1473 070f 07       		.byte	0x7
 1474 0710 0801     		.2byte	0x108
 1475 0712 05010000 		.4byte	0x105
 1476 0716 17       		.uleb128 0x17
 1477 0717 4C060000 		.4byte	.LASF108
 1478 071b 07       		.byte	0x7
 1479 071c 0F01     		.2byte	0x10f
 1480 071e 10030000 		.4byte	0x310
 1481 0722 17       		.uleb128 0x17
 1482 0723 02010000 		.4byte	.LASF109
 1483 0727 07       		.byte	0x7
 1484 0728 1601     		.2byte	0x116
 1485 072a 5F070000 		.4byte	0x75f
 1486 072e 17       		.uleb128 0x17
 1487 072f 74000000 		.4byte	.LASF110
 1488 0733 07       		.byte	0x7
 1489 0734 1B01     		.2byte	0x11b
 1490 0736 05010000 		.4byte	0x105
 1491 073a 17       		.uleb128 0x17
ARM GAS  /tmp/ccjYSstS.s 			page 44


 1492 073b 97020000 		.4byte	.LASF111
 1493 073f 07       		.byte	0x7
 1494 0740 2401     		.2byte	0x124
 1495 0742 8A070000 		.4byte	0x78a
 1496 0746 17       		.uleb128 0x17
 1497 0747 F5040000 		.4byte	.LASF112
 1498 074b 07       		.byte	0x7
 1499 074c 2D01     		.2byte	0x12d
 1500 074e C1070000 		.4byte	0x7c1
 1501 0752 17       		.uleb128 0x17
 1502 0753 AC040000 		.4byte	.LASF113
 1503 0757 07       		.byte	0x7
 1504 0758 3501     		.2byte	0x135
 1505 075a 10010000 		.4byte	0x110
 1506 075e 00       		.byte	0
 1507 075f 09       		.uleb128 0x9
 1508 0760 04       		.byte	0x4
 1509 0761 28020000 		.4byte	0x228
 1510 0765 05       		.uleb128 0x5
 1511 0766 D4040000 		.4byte	.LASF114
 1512 076a 0C       		.byte	0xc
 1513 076b 0C       		.byte	0xc
 1514 076c 34       		.byte	0x34
 1515 076d 8A070000 		.4byte	0x78a
 1516 0771 06       		.uleb128 0x6
 1517 0772 3D010000 		.4byte	.LASF115
 1518 0776 0C       		.byte	0xc
 1519 0777 35       		.byte	0x35
 1520 0778 5D020000 		.4byte	0x25d
 1521 077c 00       		.byte	0
 1522 077d 06       		.uleb128 0x6
 1523 077e B5020000 		.4byte	.LASF116
 1524 0782 0C       		.byte	0xc
 1525 0783 37       		.byte	0x37
 1526 0784 1B010000 		.4byte	0x11b
 1527 0788 08       		.byte	0x8
 1528 0789 00       		.byte	0
 1529 078a 09       		.uleb128 0x9
 1530 078b 04       		.byte	0x4
 1531 078c 65070000 		.4byte	0x765
 1532 0790 05       		.uleb128 0x5
 1533 0791 1D060000 		.4byte	.LASF117
 1534 0795 10       		.byte	0x10
 1535 0796 0D       		.byte	0xd
 1536 0797 39       		.byte	0x39
 1537 0798 C1070000 		.4byte	0x7c1
 1538 079c 06       		.uleb128 0x6
 1539 079d E7000000 		.4byte	.LASF118
 1540 07a1 0D       		.byte	0xd
 1541 07a2 3A       		.byte	0x3a
 1542 07a3 5D020000 		.4byte	0x25d
 1543 07a7 00       		.byte	0
 1544 07a8 06       		.uleb128 0x6
 1545 07a9 5F060000 		.4byte	.LASF119
 1546 07ad 0D       		.byte	0xd
 1547 07ae 3C       		.byte	0x3c
 1548 07af 33020000 		.4byte	0x233
ARM GAS  /tmp/ccjYSstS.s 			page 45


 1549 07b3 08       		.byte	0x8
 1550 07b4 06       		.uleb128 0x6
 1551 07b5 8D050000 		.4byte	.LASF120
 1552 07b9 0D       		.byte	0xd
 1553 07ba 3E       		.byte	0x3e
 1554 07bb 05080000 		.4byte	0x805
 1555 07bf 0C       		.byte	0xc
 1556 07c0 00       		.byte	0
 1557 07c1 09       		.uleb128 0x9
 1558 07c2 04       		.byte	0x4
 1559 07c3 90070000 		.4byte	0x790
 1560 07c7 09       		.uleb128 0x9
 1561 07c8 04       		.byte	0x4
 1562 07c9 CD070000 		.4byte	0x7cd
 1563 07cd 18       		.uleb128 0x18
 1564 07ce D2070000 		.4byte	0x7d2
 1565 07d2 04       		.uleb128 0x4
 1566 07d3 01       		.byte	0x1
 1567 07d4 08       		.byte	0x8
 1568 07d5 7F050000 		.4byte	.LASF121
 1569 07d9 09       		.uleb128 0x9
 1570 07da 04       		.byte	0x4
 1571 07db 31060000 		.4byte	0x631
 1572 07df 09       		.uleb128 0x9
 1573 07e0 04       		.byte	0x4
 1574 07e1 12030000 		.4byte	0x312
 1575 07e5 0F       		.uleb128 0xf
 1576 07e6 C7070000 		.4byte	0x7c7
 1577 07ea 10       		.uleb128 0x10
 1578 07eb 31060000 		.4byte	0x631
 1579 07ef FA070000 		.4byte	0x7fa
 1580 07f3 11       		.uleb128 0x11
 1581 07f4 46040000 		.4byte	0x446
 1582 07f8 1A       		.byte	0x1a
 1583 07f9 00       		.byte	0
 1584 07fa 03       		.uleb128 0x3
 1585 07fb 75010000 		.4byte	.LASF122
 1586 07ff 0D       		.byte	0xd
 1587 0800 34       		.byte	0x34
 1588 0801 90070000 		.4byte	0x790
 1589 0805 09       		.uleb128 0x9
 1590 0806 04       		.byte	0x4
 1591 0807 FA070000 		.4byte	0x7fa
 1592 080b 04       		.uleb128 0x4
 1593 080c 01       		.byte	0x1
 1594 080d 02       		.byte	0x2
 1595 080e 5C040000 		.4byte	.LASF123
 1596 0812 19       		.uleb128 0x19
 1597 0813 B9030000 		.4byte	.LASF131
 1598 0817 01       		.byte	0x1
 1599 0818 36       		.byte	0x36
 1600 0819 00000000 		.4byte	.LFB272
 1601 081d 58000000 		.4byte	.LFE272-.LFB272
 1602 0821 01       		.uleb128 0x1
 1603 0822 9C       		.byte	0x9c
 1604 0823 1A       		.uleb128 0x1a
 1605 0824 F1050000 		.4byte	.LASF124
ARM GAS  /tmp/ccjYSstS.s 			page 46


 1606 0828 01       		.byte	0x1
 1607 0829 69       		.byte	0x69
 1608 082a 00000000 		.4byte	.LFB273
 1609 082e 70000000 		.4byte	.LFE273-.LFB273
 1610 0832 01       		.uleb128 0x1
 1611 0833 9C       		.byte	0x9c
 1612 0834 1B       		.uleb128 0x1b
 1613 0835 64010000 		.4byte	.LASF125
 1614 0839 01       		.byte	0x1
 1615 083a 90       		.byte	0x90
 1616 083b 00000000 		.4byte	.LFB274
 1617 083f E8000000 		.4byte	.LFE274-.LFB274
 1618 0843 01       		.uleb128 0x1
 1619 0844 9C       		.byte	0x9c
 1620 0845 1C       		.uleb128 0x1c
 1621 0846 92000000 		.4byte	.LASF126
 1622 084a 0E       		.byte	0xe
 1623 084b FA06     		.2byte	0x6fa
 1624 084d 51080000 		.4byte	0x851
 1625 0851 0F       		.uleb128 0xf
 1626 0852 AD000000 		.4byte	0xad
 1627 0856 1D       		.uleb128 0x1d
 1628 0857 87020000 		.4byte	.LASF127
 1629 085b 01       		.byte	0x1
 1630 085c 27       		.byte	0x27
 1631 085d B8000000 		.4byte	0xb8
 1632 0861 05       		.uleb128 0x5
 1633 0862 03       		.byte	0x3
 1634 0863 00000000 		.4byte	SystemCoreClock
 1635 0867 1E       		.uleb128 0x1e
 1636 0868 636800   		.ascii	"ch\000"
 1637 086b 07       		.byte	0x7
 1638 086c 0B02     		.2byte	0x20b
 1639 086e DF030000 		.4byte	0x3df
 1640 0872 00       		.byte	0
 1641              		.section	.debug_abbrev,"",%progbits
 1642              	.Ldebug_abbrev0:
 1643 0000 01       		.uleb128 0x1
 1644 0001 11       		.uleb128 0x11
 1645 0002 01       		.byte	0x1
 1646 0003 25       		.uleb128 0x25
 1647 0004 0E       		.uleb128 0xe
 1648 0005 13       		.uleb128 0x13
 1649 0006 0B       		.uleb128 0xb
 1650 0007 03       		.uleb128 0x3
 1651 0008 0E       		.uleb128 0xe
 1652 0009 1B       		.uleb128 0x1b
 1653 000a 0E       		.uleb128 0xe
 1654 000b 55       		.uleb128 0x55
 1655 000c 17       		.uleb128 0x17
 1656 000d 11       		.uleb128 0x11
 1657 000e 01       		.uleb128 0x1
 1658 000f 10       		.uleb128 0x10
 1659 0010 17       		.uleb128 0x17
 1660 0011 00       		.byte	0
 1661 0012 00       		.byte	0
 1662 0013 02       		.uleb128 0x2
ARM GAS  /tmp/ccjYSstS.s 			page 47


 1663 0014 24       		.uleb128 0x24
 1664 0015 00       		.byte	0
 1665 0016 0B       		.uleb128 0xb
 1666 0017 0B       		.uleb128 0xb
 1667 0018 3E       		.uleb128 0x3e
 1668 0019 0B       		.uleb128 0xb
 1669 001a 03       		.uleb128 0x3
 1670 001b 08       		.uleb128 0x8
 1671 001c 00       		.byte	0
 1672 001d 00       		.byte	0
 1673 001e 03       		.uleb128 0x3
 1674 001f 16       		.uleb128 0x16
 1675 0020 00       		.byte	0
 1676 0021 03       		.uleb128 0x3
 1677 0022 0E       		.uleb128 0xe
 1678 0023 3A       		.uleb128 0x3a
 1679 0024 0B       		.uleb128 0xb
 1680 0025 3B       		.uleb128 0x3b
 1681 0026 0B       		.uleb128 0xb
 1682 0027 49       		.uleb128 0x49
 1683 0028 13       		.uleb128 0x13
 1684 0029 00       		.byte	0
 1685 002a 00       		.byte	0
 1686 002b 04       		.uleb128 0x4
 1687 002c 24       		.uleb128 0x24
 1688 002d 00       		.byte	0
 1689 002e 0B       		.uleb128 0xb
 1690 002f 0B       		.uleb128 0xb
 1691 0030 3E       		.uleb128 0x3e
 1692 0031 0B       		.uleb128 0xb
 1693 0032 03       		.uleb128 0x3
 1694 0033 0E       		.uleb128 0xe
 1695 0034 00       		.byte	0
 1696 0035 00       		.byte	0
 1697 0036 05       		.uleb128 0x5
 1698 0037 13       		.uleb128 0x13
 1699 0038 01       		.byte	0x1
 1700 0039 03       		.uleb128 0x3
 1701 003a 0E       		.uleb128 0xe
 1702 003b 0B       		.uleb128 0xb
 1703 003c 0B       		.uleb128 0xb
 1704 003d 3A       		.uleb128 0x3a
 1705 003e 0B       		.uleb128 0xb
 1706 003f 3B       		.uleb128 0x3b
 1707 0040 0B       		.uleb128 0xb
 1708 0041 01       		.uleb128 0x1
 1709 0042 13       		.uleb128 0x13
 1710 0043 00       		.byte	0
 1711 0044 00       		.byte	0
 1712 0045 06       		.uleb128 0x6
 1713 0046 0D       		.uleb128 0xd
 1714 0047 00       		.byte	0
 1715 0048 03       		.uleb128 0x3
 1716 0049 0E       		.uleb128 0xe
 1717 004a 3A       		.uleb128 0x3a
 1718 004b 0B       		.uleb128 0xb
 1719 004c 3B       		.uleb128 0x3b
ARM GAS  /tmp/ccjYSstS.s 			page 48


 1720 004d 0B       		.uleb128 0xb
 1721 004e 49       		.uleb128 0x49
 1722 004f 13       		.uleb128 0x13
 1723 0050 38       		.uleb128 0x38
 1724 0051 0B       		.uleb128 0xb
 1725 0052 00       		.byte	0
 1726 0053 00       		.byte	0
 1727 0054 07       		.uleb128 0x7
 1728 0055 0D       		.uleb128 0xd
 1729 0056 00       		.byte	0
 1730 0057 03       		.uleb128 0x3
 1731 0058 08       		.uleb128 0x8
 1732 0059 3A       		.uleb128 0x3a
 1733 005a 0B       		.uleb128 0xb
 1734 005b 3B       		.uleb128 0x3b
 1735 005c 05       		.uleb128 0x5
 1736 005d 49       		.uleb128 0x49
 1737 005e 13       		.uleb128 0x13
 1738 005f 38       		.uleb128 0x38
 1739 0060 0B       		.uleb128 0xb
 1740 0061 00       		.byte	0
 1741 0062 00       		.byte	0
 1742 0063 08       		.uleb128 0x8
 1743 0064 0D       		.uleb128 0xd
 1744 0065 00       		.byte	0
 1745 0066 03       		.uleb128 0x3
 1746 0067 0E       		.uleb128 0xe
 1747 0068 3A       		.uleb128 0x3a
 1748 0069 0B       		.uleb128 0xb
 1749 006a 3B       		.uleb128 0x3b
 1750 006b 05       		.uleb128 0x5
 1751 006c 49       		.uleb128 0x49
 1752 006d 13       		.uleb128 0x13
 1753 006e 38       		.uleb128 0x38
 1754 006f 0B       		.uleb128 0xb
 1755 0070 00       		.byte	0
 1756 0071 00       		.byte	0
 1757 0072 09       		.uleb128 0x9
 1758 0073 0F       		.uleb128 0xf
 1759 0074 00       		.byte	0
 1760 0075 0B       		.uleb128 0xb
 1761 0076 0B       		.uleb128 0xb
 1762 0077 49       		.uleb128 0x49
 1763 0078 13       		.uleb128 0x13
 1764 0079 00       		.byte	0
 1765 007a 00       		.byte	0
 1766 007b 0A       		.uleb128 0xa
 1767 007c 13       		.uleb128 0x13
 1768 007d 01       		.byte	0x1
 1769 007e 03       		.uleb128 0x3
 1770 007f 0E       		.uleb128 0xe
 1771 0080 0B       		.uleb128 0xb
 1772 0081 0B       		.uleb128 0xb
 1773 0082 3A       		.uleb128 0x3a
 1774 0083 0B       		.uleb128 0xb
 1775 0084 3B       		.uleb128 0x3b
 1776 0085 05       		.uleb128 0x5
ARM GAS  /tmp/ccjYSstS.s 			page 49


 1777 0086 01       		.uleb128 0x1
 1778 0087 13       		.uleb128 0x13
 1779 0088 00       		.byte	0
 1780 0089 00       		.byte	0
 1781 008a 0B       		.uleb128 0xb
 1782 008b 15       		.uleb128 0x15
 1783 008c 01       		.byte	0x1
 1784 008d 27       		.uleb128 0x27
 1785 008e 19       		.uleb128 0x19
 1786 008f 01       		.uleb128 0x1
 1787 0090 13       		.uleb128 0x13
 1788 0091 00       		.byte	0
 1789 0092 00       		.byte	0
 1790 0093 0C       		.uleb128 0xc
 1791 0094 05       		.uleb128 0x5
 1792 0095 00       		.byte	0
 1793 0096 49       		.uleb128 0x49
 1794 0097 13       		.uleb128 0x13
 1795 0098 00       		.byte	0
 1796 0099 00       		.byte	0
 1797 009a 0D       		.uleb128 0xd
 1798 009b 0F       		.uleb128 0xf
 1799 009c 00       		.byte	0
 1800 009d 0B       		.uleb128 0xb
 1801 009e 0B       		.uleb128 0xb
 1802 009f 00       		.byte	0
 1803 00a0 00       		.byte	0
 1804 00a1 0E       		.uleb128 0xe
 1805 00a2 13       		.uleb128 0x13
 1806 00a3 01       		.byte	0x1
 1807 00a4 03       		.uleb128 0x3
 1808 00a5 0E       		.uleb128 0xe
 1809 00a6 0B       		.uleb128 0xb
 1810 00a7 05       		.uleb128 0x5
 1811 00a8 3A       		.uleb128 0x3a
 1812 00a9 0B       		.uleb128 0xb
 1813 00aa 3B       		.uleb128 0x3b
 1814 00ab 05       		.uleb128 0x5
 1815 00ac 01       		.uleb128 0x1
 1816 00ad 13       		.uleb128 0x13
 1817 00ae 00       		.byte	0
 1818 00af 00       		.byte	0
 1819 00b0 0F       		.uleb128 0xf
 1820 00b1 35       		.uleb128 0x35
 1821 00b2 00       		.byte	0
 1822 00b3 49       		.uleb128 0x49
 1823 00b4 13       		.uleb128 0x13
 1824 00b5 00       		.byte	0
 1825 00b6 00       		.byte	0
 1826 00b7 10       		.uleb128 0x10
 1827 00b8 01       		.uleb128 0x1
 1828 00b9 01       		.byte	0x1
 1829 00ba 49       		.uleb128 0x49
 1830 00bb 13       		.uleb128 0x13
 1831 00bc 01       		.uleb128 0x1
 1832 00bd 13       		.uleb128 0x13
 1833 00be 00       		.byte	0
ARM GAS  /tmp/ccjYSstS.s 			page 50


 1834 00bf 00       		.byte	0
 1835 00c0 11       		.uleb128 0x11
 1836 00c1 21       		.uleb128 0x21
 1837 00c2 00       		.byte	0
 1838 00c3 49       		.uleb128 0x49
 1839 00c4 13       		.uleb128 0x13
 1840 00c5 2F       		.uleb128 0x2f
 1841 00c6 0B       		.uleb128 0xb
 1842 00c7 00       		.byte	0
 1843 00c8 00       		.byte	0
 1844 00c9 12       		.uleb128 0x12
 1845 00ca 13       		.uleb128 0x13
 1846 00cb 01       		.byte	0x1
 1847 00cc 0B       		.uleb128 0xb
 1848 00cd 0B       		.uleb128 0xb
 1849 00ce 3A       		.uleb128 0x3a
 1850 00cf 0B       		.uleb128 0xb
 1851 00d0 3B       		.uleb128 0x3b
 1852 00d1 05       		.uleb128 0x5
 1853 00d2 01       		.uleb128 0x1
 1854 00d3 13       		.uleb128 0x13
 1855 00d4 00       		.byte	0
 1856 00d5 00       		.byte	0
 1857 00d6 13       		.uleb128 0x13
 1858 00d7 16       		.uleb128 0x16
 1859 00d8 00       		.byte	0
 1860 00d9 03       		.uleb128 0x3
 1861 00da 0E       		.uleb128 0xe
 1862 00db 3A       		.uleb128 0x3a
 1863 00dc 0B       		.uleb128 0xb
 1864 00dd 3B       		.uleb128 0x3b
 1865 00de 05       		.uleb128 0x5
 1866 00df 49       		.uleb128 0x49
 1867 00e0 13       		.uleb128 0x13
 1868 00e1 00       		.byte	0
 1869 00e2 00       		.byte	0
 1870 00e3 14       		.uleb128 0x14
 1871 00e4 0D       		.uleb128 0xd
 1872 00e5 00       		.byte	0
 1873 00e6 03       		.uleb128 0x3
 1874 00e7 08       		.uleb128 0x8
 1875 00e8 3A       		.uleb128 0x3a
 1876 00e9 0B       		.uleb128 0xb
 1877 00ea 3B       		.uleb128 0x3b
 1878 00eb 0B       		.uleb128 0xb
 1879 00ec 49       		.uleb128 0x49
 1880 00ed 13       		.uleb128 0x13
 1881 00ee 38       		.uleb128 0x38
 1882 00ef 0B       		.uleb128 0xb
 1883 00f0 00       		.byte	0
 1884 00f1 00       		.byte	0
 1885 00f2 15       		.uleb128 0x15
 1886 00f3 13       		.uleb128 0x13
 1887 00f4 01       		.byte	0x1
 1888 00f5 0B       		.uleb128 0xb
 1889 00f6 0B       		.uleb128 0xb
 1890 00f7 3A       		.uleb128 0x3a
ARM GAS  /tmp/ccjYSstS.s 			page 51


 1891 00f8 0B       		.uleb128 0xb
 1892 00f9 3B       		.uleb128 0x3b
 1893 00fa 0B       		.uleb128 0xb
 1894 00fb 01       		.uleb128 0x1
 1895 00fc 13       		.uleb128 0x13
 1896 00fd 00       		.byte	0
 1897 00fe 00       		.byte	0
 1898 00ff 16       		.uleb128 0x16
 1899 0100 17       		.uleb128 0x17
 1900 0101 01       		.byte	0x1
 1901 0102 0B       		.uleb128 0xb
 1902 0103 0B       		.uleb128 0xb
 1903 0104 3A       		.uleb128 0x3a
 1904 0105 0B       		.uleb128 0xb
 1905 0106 3B       		.uleb128 0x3b
 1906 0107 0B       		.uleb128 0xb
 1907 0108 01       		.uleb128 0x1
 1908 0109 13       		.uleb128 0x13
 1909 010a 00       		.byte	0
 1910 010b 00       		.byte	0
 1911 010c 17       		.uleb128 0x17
 1912 010d 0D       		.uleb128 0xd
 1913 010e 00       		.byte	0
 1914 010f 03       		.uleb128 0x3
 1915 0110 0E       		.uleb128 0xe
 1916 0111 3A       		.uleb128 0x3a
 1917 0112 0B       		.uleb128 0xb
 1918 0113 3B       		.uleb128 0x3b
 1919 0114 05       		.uleb128 0x5
 1920 0115 49       		.uleb128 0x49
 1921 0116 13       		.uleb128 0x13
 1922 0117 00       		.byte	0
 1923 0118 00       		.byte	0
 1924 0119 18       		.uleb128 0x18
 1925 011a 26       		.uleb128 0x26
 1926 011b 00       		.byte	0
 1927 011c 49       		.uleb128 0x49
 1928 011d 13       		.uleb128 0x13
 1929 011e 00       		.byte	0
 1930 011f 00       		.byte	0
 1931 0120 19       		.uleb128 0x19
 1932 0121 2E       		.uleb128 0x2e
 1933 0122 00       		.byte	0
 1934 0123 03       		.uleb128 0x3
 1935 0124 0E       		.uleb128 0xe
 1936 0125 3A       		.uleb128 0x3a
 1937 0126 0B       		.uleb128 0xb
 1938 0127 3B       		.uleb128 0x3b
 1939 0128 0B       		.uleb128 0xb
 1940 0129 27       		.uleb128 0x27
 1941 012a 19       		.uleb128 0x19
 1942 012b 11       		.uleb128 0x11
 1943 012c 01       		.uleb128 0x1
 1944 012d 12       		.uleb128 0x12
 1945 012e 06       		.uleb128 0x6
 1946 012f 40       		.uleb128 0x40
 1947 0130 18       		.uleb128 0x18
ARM GAS  /tmp/ccjYSstS.s 			page 52


 1948 0131 9742     		.uleb128 0x2117
 1949 0133 19       		.uleb128 0x19
 1950 0134 00       		.byte	0
 1951 0135 00       		.byte	0
 1952 0136 1A       		.uleb128 0x1a
 1953 0137 2E       		.uleb128 0x2e
 1954 0138 00       		.byte	0
 1955 0139 3F       		.uleb128 0x3f
 1956 013a 19       		.uleb128 0x19
 1957 013b 03       		.uleb128 0x3
 1958 013c 0E       		.uleb128 0xe
 1959 013d 3A       		.uleb128 0x3a
 1960 013e 0B       		.uleb128 0xb
 1961 013f 3B       		.uleb128 0x3b
 1962 0140 0B       		.uleb128 0xb
 1963 0141 27       		.uleb128 0x27
 1964 0142 19       		.uleb128 0x19
 1965 0143 11       		.uleb128 0x11
 1966 0144 01       		.uleb128 0x1
 1967 0145 12       		.uleb128 0x12
 1968 0146 06       		.uleb128 0x6
 1969 0147 40       		.uleb128 0x40
 1970 0148 18       		.uleb128 0x18
 1971 0149 9642     		.uleb128 0x2116
 1972 014b 19       		.uleb128 0x19
 1973 014c 00       		.byte	0
 1974 014d 00       		.byte	0
 1975 014e 1B       		.uleb128 0x1b
 1976 014f 2E       		.uleb128 0x2e
 1977 0150 00       		.byte	0
 1978 0151 3F       		.uleb128 0x3f
 1979 0152 19       		.uleb128 0x19
 1980 0153 03       		.uleb128 0x3
 1981 0154 0E       		.uleb128 0xe
 1982 0155 3A       		.uleb128 0x3a
 1983 0156 0B       		.uleb128 0xb
 1984 0157 3B       		.uleb128 0x3b
 1985 0158 0B       		.uleb128 0xb
 1986 0159 27       		.uleb128 0x27
 1987 015a 19       		.uleb128 0x19
 1988 015b 11       		.uleb128 0x11
 1989 015c 01       		.uleb128 0x1
 1990 015d 12       		.uleb128 0x12
 1991 015e 06       		.uleb128 0x6
 1992 015f 40       		.uleb128 0x40
 1993 0160 18       		.uleb128 0x18
 1994 0161 9742     		.uleb128 0x2117
 1995 0163 19       		.uleb128 0x19
 1996 0164 00       		.byte	0
 1997 0165 00       		.byte	0
 1998 0166 1C       		.uleb128 0x1c
 1999 0167 34       		.uleb128 0x34
 2000 0168 00       		.byte	0
 2001 0169 03       		.uleb128 0x3
 2002 016a 0E       		.uleb128 0xe
 2003 016b 3A       		.uleb128 0x3a
 2004 016c 0B       		.uleb128 0xb
ARM GAS  /tmp/ccjYSstS.s 			page 53


 2005 016d 3B       		.uleb128 0x3b
 2006 016e 05       		.uleb128 0x5
 2007 016f 49       		.uleb128 0x49
 2008 0170 13       		.uleb128 0x13
 2009 0171 3F       		.uleb128 0x3f
 2010 0172 19       		.uleb128 0x19
 2011 0173 3C       		.uleb128 0x3c
 2012 0174 19       		.uleb128 0x19
 2013 0175 00       		.byte	0
 2014 0176 00       		.byte	0
 2015 0177 1D       		.uleb128 0x1d
 2016 0178 34       		.uleb128 0x34
 2017 0179 00       		.byte	0
 2018 017a 03       		.uleb128 0x3
 2019 017b 0E       		.uleb128 0xe
 2020 017c 3A       		.uleb128 0x3a
 2021 017d 0B       		.uleb128 0xb
 2022 017e 3B       		.uleb128 0x3b
 2023 017f 0B       		.uleb128 0xb
 2024 0180 49       		.uleb128 0x49
 2025 0181 13       		.uleb128 0x13
 2026 0182 3F       		.uleb128 0x3f
 2027 0183 19       		.uleb128 0x19
 2028 0184 02       		.uleb128 0x2
 2029 0185 18       		.uleb128 0x18
 2030 0186 00       		.byte	0
 2031 0187 00       		.byte	0
 2032 0188 1E       		.uleb128 0x1e
 2033 0189 34       		.uleb128 0x34
 2034 018a 00       		.byte	0
 2035 018b 03       		.uleb128 0x3
 2036 018c 08       		.uleb128 0x8
 2037 018d 3A       		.uleb128 0x3a
 2038 018e 0B       		.uleb128 0xb
 2039 018f 3B       		.uleb128 0x3b
 2040 0190 05       		.uleb128 0x5
 2041 0191 49       		.uleb128 0x49
 2042 0192 13       		.uleb128 0x13
 2043 0193 3F       		.uleb128 0x3f
 2044 0194 19       		.uleb128 0x19
 2045 0195 3C       		.uleb128 0x3c
 2046 0196 19       		.uleb128 0x19
 2047 0197 00       		.byte	0
 2048 0198 00       		.byte	0
 2049 0199 00       		.byte	0
 2050              		.section	.debug_aranges,"",%progbits
 2051 0000 2C000000 		.4byte	0x2c
 2052 0004 0200     		.2byte	0x2
 2053 0006 00000000 		.4byte	.Ldebug_info0
 2054 000a 04       		.byte	0x4
 2055 000b 00       		.byte	0
 2056 000c 0000     		.2byte	0
 2057 000e 0000     		.2byte	0
 2058 0010 00000000 		.4byte	.LFB272
 2059 0014 58000000 		.4byte	.LFE272-.LFB272
 2060 0018 00000000 		.4byte	.LFB273
 2061 001c 70000000 		.4byte	.LFE273-.LFB273
ARM GAS  /tmp/ccjYSstS.s 			page 54


 2062 0020 00000000 		.4byte	.LFB274
 2063 0024 E8000000 		.4byte	.LFE274-.LFB274
 2064 0028 00000000 		.4byte	0
 2065 002c 00000000 		.4byte	0
 2066              		.section	.debug_ranges,"",%progbits
 2067              	.Ldebug_ranges0:
 2068 0000 00000000 		.4byte	.LFB272
 2069 0004 58000000 		.4byte	.LFE272
 2070 0008 00000000 		.4byte	.LFB273
 2071 000c 70000000 		.4byte	.LFE273
 2072 0010 00000000 		.4byte	.LFB274
 2073 0014 E8000000 		.4byte	.LFE274
 2074 0018 00000000 		.4byte	0
 2075 001c 00000000 		.4byte	0
 2076              		.section	.debug_line,"",%progbits
 2077              	.Ldebug_line0:
 2078 0000 7D030000 		.section	.debug_str,"MS",%progbits,1
 2078      0200F402 
 2078      00000201 
 2078      FB0E0D00 
 2078      01010101 
 2079              	.LASF51:
 2080 0000 72656164 		.ascii	"ready_list_t\000"
 2080      795F6C69 
 2080      73745F74 
 2080      00
 2081              	.LASF2:
 2082 000d 73697A65 		.ascii	"size_t\000"
 2082      5F7400
 2083              	.LASF106:
 2084 0014 7264796D 		.ascii	"rdymsg\000"
 2084      736700
 2085              	.LASF17:
 2086 001b 75696E74 		.ascii	"uint64_t\000"
 2086      36345F74 
 2086      00
 2087              	.LASF3:
 2088 0024 5F5F7569 		.ascii	"__uint8_t\000"
 2088      6E74385F 
 2088      7400
 2089              	.LASF103:
 2090 002e 706F7274 		.ascii	"port_intctx\000"
 2090      5F696E74 
 2090      63747800 
 2091              	.LASF70:
 2092 003a 73797374 		.ascii	"system_debug_t\000"
 2092      656D5F64 
 2092      65627567 
 2092      5F7400
 2093              	.LASF13:
 2094 0049 6C6F6E67 		.ascii	"long long unsigned int\000"
 2094      206C6F6E 
 2094      6720756E 
 2094      7369676E 
 2094      65642069 
 2095              	.LASF107:
 2096 0060 65786974 		.ascii	"exitcode\000"
ARM GAS  /tmp/ccjYSstS.s 			page 55


 2096      636F6465 
 2096      00
 2097              	.LASF77:
 2098 0069 6D61696E 		.ascii	"mainthread\000"
 2098      74687265 
 2098      616400
 2099              	.LASF110:
 2100 0074 73656E74 		.ascii	"sentmsg\000"
 2100      6D736700 
 2101              	.LASF67:
 2102 007c 76697274 		.ascii	"virtual_timers_list_t\000"
 2102      75616C5F 
 2102      74696D65 
 2102      72735F6C 
 2102      6973745F 
 2103              	.LASF126:
 2104 0092 49544D5F 		.ascii	"ITM_RxBuffer\000"
 2104      52784275 
 2104      66666572 
 2104      00
 2105              	.LASF50:
 2106 009f 63685F74 		.ascii	"ch_threads_queue\000"
 2106      68726561 
 2106      64735F71 
 2106      75657565 
 2106      00
 2107              	.LASF30:
 2108 00b0 705F7072 		.ascii	"p_prio\000"
 2108      696F00
 2109              	.LASF11:
 2110 00b7 6C6F6E67 		.ascii	"long long int\000"
 2110      206C6F6E 
 2110      6720696E 
 2110      7400
 2111              	.LASF1:
 2112 00c5 7369676E 		.ascii	"signed char\000"
 2112      65642063 
 2112      68617200 
 2113              	.LASF84:
 2114 00d1 464C4153 		.ascii	"FLASH_TypeDef\000"
 2114      485F5479 
 2114      70654465 
 2114      6600
 2115              	.LASF44:
 2116 00df 705F6D70 		.ascii	"p_mpool\000"
 2116      6F6F6C00 
 2117              	.LASF118:
 2118 00e7 6D5F7175 		.ascii	"m_queue\000"
 2118      65756500 
 2119              	.LASF76:
 2120 00ef 76746C69 		.ascii	"vtlist\000"
 2120      737400
 2121              	.LASF89:
 2122 00f6 5057525F 		.ascii	"PWR_TypeDef\000"
 2122      54797065 
 2122      44656600 
 2123              	.LASF109:
ARM GAS  /tmp/ccjYSstS.s 			page 56


 2124 0102 77747472 		.ascii	"wttrp\000"
 2124      7000
 2125              	.LASF74:
 2126 0108 63685F73 		.ascii	"ch_system\000"
 2126      79737465 
 2126      6D00
 2127              	.LASF8:
 2128 0112 6C6F6E67 		.ascii	"long int\000"
 2128      20696E74 
 2128      00
 2129              	.LASF91:
 2130 011b 41504232 		.ascii	"APB2RSTR\000"
 2130      52535452 
 2130      00
 2131              	.LASF20:
 2132 0124 74737461 		.ascii	"tstate_t\000"
 2132      74655F74 
 2132      00
 2133              	.LASF81:
 2134 012d 4F50544B 		.ascii	"OPTKEYR\000"
 2134      45595200 
 2135              	.LASF32:
 2136 0135 705F6E65 		.ascii	"p_newer\000"
 2136      77657200 
 2137              	.LASF115:
 2138 013d 735F7175 		.ascii	"s_queue\000"
 2138      65756500 
 2139              	.LASF56:
 2140 0145 725F6E65 		.ascii	"r_newer\000"
 2140      77657200 
 2141              	.LASF100:
 2142 014d 72656761 		.ascii	"regarm_t\000"
 2142      726D5F74 
 2142      00
 2143              	.LASF63:
 2144 0156 76745F70 		.ascii	"vt_prev\000"
 2144      72657600 
 2145              	.LASF75:
 2146 015e 726C6973 		.ascii	"rlist\000"
 2146      7400
 2147              	.LASF125:
 2148 0164 73746D33 		.ascii	"stm32_clock_init\000"
 2148      325F636C 
 2148      6F636B5F 
 2148      696E6974 
 2148      00
 2149              	.LASF122:
 2150 0175 6D757465 		.ascii	"mutex_t\000"
 2150      785F7400 
 2151              	.LASF78:
 2152 017d 69646C65 		.ascii	"idle_thread_wa\000"
 2152      5F746872 
 2152      6561645F 
 2152      776100
 2153              	.LASF25:
 2154 018c 636E745F 		.ascii	"cnt_t\000"
 2154      7400
ARM GAS  /tmp/ccjYSstS.s 			page 57


 2155              	.LASF128:
 2156 0192 474E5520 		.ascii	"GNU C 4.8.4 20140526 (release) [ARM/embedded-4_8-br"
 2156      4320342E 
 2156      382E3420 
 2156      32303134 
 2156      30353236 
 2157 01c5 616E6368 		.ascii	"anch revision 211358] -mcpu=cortex-m4 -mno-thumb-in"
 2157      20726576 
 2157      6973696F 
 2157      6E203231 
 2157      31333538 
 2158 01f8 74657277 		.ascii	"terwork -mthumb -ggdb -O0 -fomit-frame-pointer -fal"
 2158      6F726B20 
 2158      2D6D7468 
 2158      756D6220 
 2158      2D676764 
 2159 022b 69676E2D 		.ascii	"ign-functions=16 -ffunction-sections -fdata-section"
 2159      66756E63 
 2159      74696F6E 
 2159      733D3136 
 2159      202D6666 
 2160 025e 73202D66 		.ascii	"s -fno-common -flto\000"
 2160      6E6F2D63 
 2160      6F6D6D6F 
 2160      6E202D66 
 2160      6C746F00 
 2161              	.LASF0:
 2162 0272 756E7369 		.ascii	"unsigned int\000"
 2162      676E6564 
 2162      20696E74 
 2162      00
 2163              	.LASF62:
 2164 027f 76745F6E 		.ascii	"vt_next\000"
 2164      65787400 
 2165              	.LASF127:
 2166 0287 53797374 		.ascii	"SystemCoreClock\000"
 2166      656D436F 
 2166      7265436C 
 2166      6F636B00 
 2167              	.LASF111:
 2168 0297 77747365 		.ascii	"wtsemp\000"
 2168      6D7000
 2169              	.LASF40:
 2170 029e 705F6D73 		.ascii	"p_msgqueue\000"
 2170      67717565 
 2170      756500
 2171              	.LASF99:
 2172 02a9 5243435F 		.ascii	"RCC_TypeDef\000"
 2172      54797065 
 2172      44656600 
 2173              	.LASF116:
 2174 02b5 735F636E 		.ascii	"s_cnt\000"
 2174      7400
 2175              	.LASF6:
 2176 02bb 73686F72 		.ascii	"short unsigned int\000"
 2176      7420756E 
 2176      7369676E 
ARM GAS  /tmp/ccjYSstS.s 			page 58


 2176      65642069 
 2176      6E7400
 2177              	.LASF47:
 2178 02ce 63685F74 		.ascii	"ch_thread\000"
 2178      68726561 
 2178      6400
 2179              	.LASF23:
 2180 02d8 6D73675F 		.ascii	"msg_t\000"
 2180      7400
 2181              	.LASF93:
 2182 02de 41484245 		.ascii	"AHBENR\000"
 2182      4E5200
 2183              	.LASF129:
 2184 02e5 2E2E2F43 		.ascii	"../ChibiOS/os/hal/ports/STM32/STM32F3xx/hal_lld.c\000"
 2184      68696269 
 2184      4F532F6F 
 2184      732F6861 
 2184      6C2F706F 
 2185              	.LASF73:
 2186 0317 63685F73 		.ascii	"ch_system_t\000"
 2186      79737465 
 2186      6D5F7400 
 2187              	.LASF19:
 2188 0323 746D6F64 		.ascii	"tmode_t\000"
 2188      655F7400 
 2189              	.LASF52:
 2190 032b 63685F72 		.ascii	"ch_ready_list\000"
 2190      65616479 
 2190      5F6C6973 
 2190      7400
 2191              	.LASF24:
 2192 0339 6576656E 		.ascii	"eventmask_t\000"
 2192      746D6173 
 2192      6B5F7400 
 2193              	.LASF7:
 2194 0345 5F5F696E 		.ascii	"__int32_t\000"
 2194      7433325F 
 2194      7400
 2195              	.LASF101:
 2196 034f 73746B61 		.ascii	"stkalign_t\000"
 2196      6C69676E 
 2196      5F7400
 2197              	.LASF46:
 2198 035a 74687265 		.ascii	"threads_list_t\000"
 2198      6164735F 
 2198      6C697374 
 2198      5F7400
 2199              	.LASF39:
 2200 0369 705F7761 		.ascii	"p_waiting\000"
 2200      6974696E 
 2200      6700
 2201              	.LASF79:
 2202 0373 73697A65 		.ascii	"sizetype\000"
 2202      74797065 
 2202      00
 2203              	.LASF45:
 2204 037c 74687265 		.ascii	"thread_reference_t\000"
ARM GAS  /tmp/ccjYSstS.s 			page 59


 2204      61645F72 
 2204      65666572 
 2204      656E6365 
 2204      5F7400
 2205              	.LASF68:
 2206 038f 63685F76 		.ascii	"ch_virtual_timers_list\000"
 2206      69727475 
 2206      616C5F74 
 2206      696D6572 
 2206      735F6C69 
 2207              	.LASF28:
 2208 03a6 705F6E65 		.ascii	"p_next\000"
 2208      787400
 2209              	.LASF69:
 2210 03ad 76745F6C 		.ascii	"vt_lasttime\000"
 2210      61737474 
 2210      696D6500 
 2211              	.LASF131:
 2212 03b9 68616C5F 		.ascii	"hal_lld_backup_domain_init\000"
 2212      6C6C645F 
 2212      6261636B 
 2212      75705F64 
 2212      6F6D6169 
 2213              	.LASF55:
 2214 03d4 725F6374 		.ascii	"r_ctx\000"
 2214      7800
 2215              	.LASF105:
 2216 03da 746D5F63 		.ascii	"tm_calibration_t\000"
 2216      616C6962 
 2216      72617469 
 2216      6F6E5F74 
 2216      00
 2217              	.LASF97:
 2218 03eb 41484252 		.ascii	"AHBRSTR\000"
 2218      53545200 
 2219              	.LASF58:
 2220 03f3 725F6375 		.ascii	"r_current\000"
 2220      7272656E 
 2220      7400
 2221              	.LASF92:
 2222 03fd 41504231 		.ascii	"APB1RSTR\000"
 2222      52535452 
 2222      00
 2223              	.LASF12:
 2224 0406 5F5F7569 		.ascii	"__uint64_t\000"
 2224      6E743634 
 2224      5F7400
 2225              	.LASF88:
 2226 0411 53595343 		.ascii	"SYSCFG_TypeDef\000"
 2226      46475F54 
 2226      79706544 
 2226      656600
 2227              	.LASF21:
 2228 0420 74726566 		.ascii	"trefs_t\000"
 2228      735F7400 
 2229              	.LASF80:
 2230 0428 4B455952 		.ascii	"KEYR\000"
ARM GAS  /tmp/ccjYSstS.s 			page 60


 2230      00
 2231              	.LASF60:
 2232 042d 76697274 		.ascii	"virtual_timer_t\000"
 2232      75616C5F 
 2232      74696D65 
 2232      725F7400 
 2233              	.LASF29:
 2234 043d 705F7072 		.ascii	"p_prev\000"
 2234      657600
 2235              	.LASF22:
 2236 0444 74707269 		.ascii	"tprio_t\000"
 2236      6F5F7400 
 2237              	.LASF71:
 2238 044c 63685F73 		.ascii	"ch_system_debug\000"
 2238      79737465 
 2238      6D5F6465 
 2238      62756700 
 2239              	.LASF123:
 2240 045c 5F426F6F 		.ascii	"_Bool\000"
 2240      6C00
 2241              	.LASF15:
 2242 0462 696E7433 		.ascii	"int32_t\000"
 2242      325F7400 
 2243              	.LASF4:
 2244 046a 756E7369 		.ascii	"unsigned char\000"
 2244      676E6564 
 2244      20636861 
 2244      7200
 2245              	.LASF42:
 2246 0478 705F6D74 		.ascii	"p_mtxlist\000"
 2246      786C6973 
 2246      7400
 2247              	.LASF5:
 2248 0482 73686F72 		.ascii	"short int\000"
 2248      7420696E 
 2248      7400
 2249              	.LASF36:
 2250 048c 705F7374 		.ascii	"p_state\000"
 2250      61746500 
 2251              	.LASF33:
 2252 0494 705F6F6C 		.ascii	"p_older\000"
 2252      64657200 
 2253              	.LASF54:
 2254 049c 725F7072 		.ascii	"r_prio\000"
 2254      696F00
 2255              	.LASF82:
 2256 04a3 52455345 		.ascii	"RESERVED\000"
 2256      52564544 
 2256      00
 2257              	.LASF113:
 2258 04ac 65776D61 		.ascii	"ewmask\000"
 2258      736B00
 2259              	.LASF37:
 2260 04b3 705F666C 		.ascii	"p_flags\000"
 2260      61677300 
 2261              	.LASF94:
 2262 04bb 41504232 		.ascii	"APB2ENR\000"
ARM GAS  /tmp/ccjYSstS.s 			page 61


 2262      454E5200 
 2263              	.LASF61:
 2264 04c3 63685F76 		.ascii	"ch_virtual_timer\000"
 2264      69727475 
 2264      616C5F74 
 2264      696D6572 
 2264      00
 2265              	.LASF114:
 2266 04d4 63685F73 		.ascii	"ch_semaphore\000"
 2266      656D6170 
 2266      686F7265 
 2266      00
 2267              	.LASF41:
 2268 04e1 705F6570 		.ascii	"p_epending\000"
 2268      656E6469 
 2268      6E6700
 2269              	.LASF16:
 2270 04ec 75696E74 		.ascii	"uint32_t\000"
 2270      33325F74 
 2270      00
 2271              	.LASF112:
 2272 04f5 77746D74 		.ascii	"wtmtxp\000"
 2272      787000
 2273              	.LASF53:
 2274 04fc 725F7175 		.ascii	"r_queue\000"
 2274      65756500 
 2275              	.LASF64:
 2276 0504 76745F64 		.ascii	"vt_delta\000"
 2276      656C7461 
 2276      00
 2277              	.LASF48:
 2278 050d 63685F74 		.ascii	"ch_threads_list\000"
 2278      68726561 
 2278      64735F6C 
 2278      69737400 
 2279              	.LASF130:
 2280 051d 2F6E6673 		.ascii	"/nfs/nfs4/home/irbrown/Courses/P442/P442WifiTrailCo"
 2280      2F6E6673 
 2280      342F686F 
 2280      6D652F69 
 2280      7262726F 
 2281 0550 756E7465 		.ascii	"unterProject/milestone3\000"
 2281      7250726F 
 2281      6A656374 
 2281      2F6D696C 
 2281      6573746F 
 2282              	.LASF10:
 2283 0568 6C6F6E67 		.ascii	"long unsigned int\000"
 2283      20756E73 
 2283      69676E65 
 2283      6420696E 
 2283      7400
 2284              	.LASF83:
 2285 057a 57525052 		.ascii	"WRPR\000"
 2285      00
 2286              	.LASF121:
 2287 057f 63686172 		.ascii	"char\000"
ARM GAS  /tmp/ccjYSstS.s 			page 62


 2287      00
 2288              	.LASF27:
 2289 0584 74687265 		.ascii	"thread_t\000"
 2289      61645F74 
 2289      00
 2290              	.LASF120:
 2291 058d 6D5F6E65 		.ascii	"m_next\000"
 2291      787400
 2292              	.LASF26:
 2293 0594 73797374 		.ascii	"systime_t\000"
 2293      696D655F 
 2293      7400
 2294              	.LASF43:
 2295 059e 705F7265 		.ascii	"p_realprio\000"
 2295      616C7072 
 2295      696F00
 2296              	.LASF59:
 2297 05a9 76746675 		.ascii	"vtfunc_t\000"
 2297      6E635F74 
 2297      00
 2298              	.LASF9:
 2299 05b2 5F5F7569 		.ascii	"__uint32_t\000"
 2299      6E743332 
 2299      5F7400
 2300              	.LASF35:
 2301 05bd 705F7374 		.ascii	"p_stklimit\000"
 2301      6B6C696D 
 2301      697400
 2302              	.LASF72:
 2303 05c8 70616E69 		.ascii	"panic_msg\000"
 2303      635F6D73 
 2303      6700
 2304              	.LASF104:
 2305 05d2 6F666673 		.ascii	"offset\000"
 2305      657400
 2306              	.LASF95:
 2307 05d9 41504231 		.ascii	"APB1ENR\000"
 2307      454E5200 
 2308              	.LASF102:
 2309 05e1 636F6E74 		.ascii	"context\000"
 2309      65787400 
 2310              	.LASF57:
 2311 05e9 725F6F6C 		.ascii	"r_older\000"
 2311      64657200 
 2312              	.LASF124:
 2313 05f1 68616C5F 		.ascii	"hal_lld_init\000"
 2313      6C6C645F 
 2313      696E6974 
 2313      00
 2314              	.LASF18:
 2315 05fe 7274636E 		.ascii	"rtcnt_t\000"
 2315      745F7400 
 2316              	.LASF66:
 2317 0606 76745F70 		.ascii	"vt_par\000"
 2317      617200
 2318              	.LASF49:
 2319 060d 74687265 		.ascii	"threads_queue_t\000"
ARM GAS  /tmp/ccjYSstS.s 			page 63


 2319      6164735F 
 2319      71756575 
 2319      655F7400 
 2320              	.LASF117:
 2321 061d 63685F6D 		.ascii	"ch_mutex\000"
 2321      75746578 
 2321      00
 2322              	.LASF38:
 2323 0626 705F7265 		.ascii	"p_refs\000"
 2323      667300
 2324              	.LASF96:
 2325 062d 42444352 		.ascii	"BDCR\000"
 2325      00
 2326              	.LASF85:
 2327 0632 43464752 		.ascii	"CFGR1\000"
 2327      3100
 2328              	.LASF87:
 2329 0638 43464752 		.ascii	"CFGR2\000"
 2329      3200
 2330              	.LASF98:
 2331 063e 43464752 		.ascii	"CFGR3\000"
 2331      3300
 2332              	.LASF14:
 2333 0644 75696E74 		.ascii	"uint8_t\000"
 2333      385F7400 
 2334              	.LASF108:
 2335 064c 77746F62 		.ascii	"wtobjp\000"
 2335      6A7000
 2336              	.LASF34:
 2337 0653 705F6E61 		.ascii	"p_name\000"
 2337      6D6500
 2338              	.LASF90:
 2339 065a 43464752 		.ascii	"CFGR\000"
 2339      00
 2340              	.LASF119:
 2341 065f 6D5F6F77 		.ascii	"m_owner\000"
 2341      6E657200 
 2342              	.LASF31:
 2343 0667 705F6374 		.ascii	"p_ctx\000"
 2343      7800
 2344              	.LASF65:
 2345 066d 76745F66 		.ascii	"vt_func\000"
 2345      756E6300 
 2346              	.LASF86:
 2347 0675 45585449 		.ascii	"EXTICR\000"
 2347      435200
 2348              		.comm	__gnu_lto_v1,1,1
 2349              		.ident	"GCC: (GNU Tools for ARM Embedded Processors) 4.8.4 20140526 (release) [ARM/embedded-4_8-br
ARM GAS  /tmp/ccjYSstS.s 			page 64


DEFINED SYMBOLS
                            *ABS*:00000000 hal_lld.c
     /tmp/ccjYSstS.s:301    .data.SystemCoreClock:00000000 SystemCoreClock
     /tmp/ccjYSstS.s:298    .data.SystemCoreClock:00000000 $d
     /tmp/ccjYSstS.s:304    .text.hal_lld_backup_domain_init:00000000 $t
     /tmp/ccjYSstS.s:309    .text.hal_lld_backup_domain_init:00000000 hal_lld_backup_domain_init
     /tmp/ccjYSstS.s:362    .text.hal_lld_backup_domain_init:00000050 $d
     /tmp/ccjYSstS.s:368    .text.hal_lld_init:00000000 $t
     /tmp/ccjYSstS.s:374    .text.hal_lld_init:00000000 hal_lld_init
     /tmp/ccjYSstS.s:438    .text.hal_lld_init:00000068 $d
     /tmp/ccjYSstS.s:444    .text.stm32_clock_init:00000000 $t
     /tmp/ccjYSstS.s:450    .text.stm32_clock_init:00000000 stm32_clock_init
     /tmp/ccjYSstS.s:588    .text.stm32_clock_init:000000dc $d
                            *COM*:00000001 __gnu_lto_v1
                     .debug_frame:00000010 $d
     /tmp/ccjYSstS.s:367    .text.hal_lld_backup_domain_init:00000058 $t
     /tmp/ccjYSstS.s:594    .text.stm32_clock_init:000000e8 $t

UNDEFINED SYMBOLS
dmaInit
