ARM GAS  /tmp/ccGgfXy6.s 			page 1


   1              		.syntax unified
   2              		.cpu cortex-m4
   3              		.fpu softvfp
   4              		.eabi_attribute 20, 1
   5              		.eabi_attribute 21, 1
   6              		.eabi_attribute 23, 3
   7              		.eabi_attribute 24, 1
   8              		.eabi_attribute 25, 1
   9              		.eabi_attribute 26, 1
  10              		.eabi_attribute 30, 2
  11              		.eabi_attribute 34, 1
  12              		.eabi_attribute 18, 4
  13              		.thumb
  14              		.file	"hal_lld.c"
  15              		.text
  16              	.Ltext0:
  17              		.section	.gnu.lto_.jmpfuncs.57b7a42e9d02bda1,"",%progbits
  18 0000 789C6362 		.ascii	"x\234cb`b\300\006\270\24043\003\003#\220\002*\002\000"
  18      6062C006 
  18      B8A03433 
  18      03032390 
  18      022A0200 
  19 0014 01AD0015 		.ascii	"\001\255\000\025"
  20              		.text
  21              		.section	.gnu.lto_.inline.57b7a42e9d02bda1,"",%progbits
  22 0000 789C6362 		.ascii	"x\234cb`b\300\006<\24143\003\203\230\020#\003\223\332"
  22      6062C006 
  22      3CA13433 
  22      03839810 
  22      230393DA 
  23 0014 89DF8C0C 		.ascii	"\211\337\214\014l\013\344\301\252\031\031\3045\200b"
  23      6C0BE4C1 
  23      AA1919C4 
  23      358062
  24 0023 2A0B6632 		.ascii	"*\013f2!\304\270`\004\023\203\345j&\240t\316\206\331"
  24      21C4B860 
  24      041383E5 
  24      6A26A074 
  24      CE86D9
  25 0036 2A706906 		.ascii	"*pi\006\000e\354\0119"
  25      0065EC09 
  25      39
  26              		.text
  27              		.section	.gnu.lto_.pureconst.57b7a42e9d02bda1,"",%progbits
  28 0000 789C6362 		.ascii	"x\234cb`b`g\200\000f\006)F)&)\000\001\313\000`"
  28      60626067 
  28      80006606 
  28      29462926 
  28      290001CB 
  29              		.text
  30              		.section	.gnu.lto_hal_lld_backup_domain_init.57b7a42e9d02bda1,"",%progbits
  31 0000 789CA592 		.ascii	"x\234\245\222=H#A\024\307\337\233\235\331\2043\321\004"
  31      3D482341 
  31      14C7DF9B 
  31      9DD98433 
  31      D104
  32 0012 B13D054B 		.ascii	"\261=\005K!\313\251\205\275 \210\210\205\011h%~\300"
ARM GAS  /tmp/ccGgfXy6.s 			page 2


  32      21CBA985 
  32      BD208888 
  32      85096825 
  32      7EC0
  33 0024 B95C40D1 		.ascii	"\271\\@\321+\354\234\305\024)-E\233\330Zh\353W!ba\343"
  33      2BEC9CC5 
  33      14292D45 
  33      9BD85A68 
  33      EB572162 
  34 003a 816011E4 		.ascii	"\201`\021\344\320`s\307\335\025\226\012\202\367\336"
  34      D06073C7 
  34      DD15960A 
  34      82F7DE
  35 0049 4C763708 		.ascii	"Lv7\010w\250\031\330\377\356\2767\363\233\377\2747\002"
  35      77A819D8 
  35      FFEEBE37 
  35      F39BFFBC 
  35      3702
  36 005b 04BC1C23 		.ascii	"\004\274\034#\364<9\000\375\364\306\004\240X\377\006"
  36      F43C3900 
  36      FDF4C604 
  36      A058FF06 
  37 006b 10248570 		.ascii	"\020$\205p*\003\240?\310\373\016\320)\007\245\015K\241"
  37      2A03A03F 
  37      C8FB0ED0 
  37      2907A50D 
  37      4BA1
  38 007d AE3C0ABB 		.ascii	"\256<\012\273\307\037)\254\320\265a\027\221?\000aU8"
  38      C71F29AC 
  38      D0B56117 
  38      913F0061 
  38      5538
  39 008f 52B9B83A 		.ascii	"R\271\270:\211\206\276'Nj\317\317\273\337\037\357\016"
  39      8986BE27 
  39      4E6ACFCF 
  39      BBDF1FEF 
  39      0E
  40 00a0 31DB2EC1 		.ascii	"1\333.\301GP,\011\226$K\013K\212%\315\322\312\222a\311"
  40      47502C09 
  40      96244B0B 
  40      4B8A25CD 
  40      D2CA9261 
  41 00b5 B2D05050 		.ascii	"\262\320PP\322z\275\013`\326\374\346Iy\257\002\012~"
  41      D27ABD0B 
  41      60D6FCE6 
  41      4979AF02 
  41      0A7E
  42 00c7 3B17707A 		.ascii	";\027pz\275\177\223\236\306mT\360\031e\017\354\350R"
  42      BD7F939E 
  42      C66D54F0 
  42      19650FEC 
  42      E852
  43 00d9 90F111B7 		.ascii	"\220\361\021\267`\023}\024\023$\216\256\005Z\202\371"
  43      60137D14 
  43      13248EAE 
  43      055A82F9 
  44 00e9 34BE6630 		.ascii	"4\276f0<\377\005\254\0358\341jE\000\236\004Z\230\324"
ARM GAS  /tmp/ccGgfXy6.s 			page 3


  44      3CFF05AC 
  44      1D38E16A 
  44      45009E04 
  44      5A98D4
  45 00fc E9B0CDBC 		.ascii	"\351\260\315\274\015J\034\263\370\272\334\031\202\023"
  45      0D4A1CB3 
  45      F8BADC19 
  45      8213
  46 010a 868011C0 		.ascii	"\206\200\021\300\354\242t\245\\\007\250:\000cWGk;\030"
  46      ECA274A5 
  46      5C07A83A 
  46      00635747 
  46      6B3B18
  47 011d 2E4F12C1 		.ascii	".O\022\301\372r)y\016\245?At\342\244M\310\206\236\026"
  47      FA722979 
  47      0EA53F41 
  47      74E2A44D 
  47      C8869E16 
  48 0131 C8506580 		.ascii	"\310Pe\200K\263_\275mk<\202\376\364J\013\026j\250\214"
  48      4BB35FBD 
  48      6D6B3C82 
  48      FEF44A0B 
  48      166AA88C 
  49 0145 79680283 		.ascii	"yh\002\203\261-\031\265\254\372\253\032\235\256\245"
  49      B12D19B5 
  49      ACFAAB1A 
  49      9DAEA5
  50 0154 B9E2A488 		.ascii	"\271\342\244\210P\267+Lu\316~\304\325I\231L\343(P\374"
  50      50B72B4C 
  50      75CE7EC4 
  50      D549994C 
  50      E32850FC 
  51 0168 CA332636 		.ascii	"\3123&6~?D\224\364\313\036\277\302E|qZ\011\020\367\341"
  51      7E3F4494 
  51      F4CB1EBF 
  51      C2457C71 
  51      5A0910F7 
  52 017d DF17E7FF 		.ascii	"\337\027\347\377P\342\330\213\363\363K\010\3164e+K\200"
  52      50E2D88B 
  52      F3F34B08 
  52      CE34652B 
  52      4B80
  53 018f 86D2BCDF 		.ascii	"\206\322\274\337W6\254\235k:x\011A\355\260\333\242\302"
  53      5736AC9D 
  53      6B3A7809 
  53      41EDB0DB 
  53      A2C2
  54 01a1 91A7C994 		.ascii	"\221\247\311\224\343}zs9op\336\237\361\307\306\275\205"
  54      E37D7A73 
  54      396F70DE 
  54      9FF1C7C6 
  54      BD85
  55 01b3 656F7EBA 		.ascii	"eo~\272\350-.,}]\366\306\363\243}\275V\207\372VV83U"
  55      E82D2E2C 
  55      7D5DF6C6 
  55      F3A37DBD 
  55      5687FA56 
ARM GAS  /tmp/ccGgfXy6.s 			page 4


  56 01cb 2CCEE566 		.ascii	",\316\345f\341/1\306\3619"
  56      E12F31C6 
  56      F139
  57              		.text
  58              		.section	.gnu.lto_hal_lld_init.57b7a42e9d02bda1,"",%progbits
  59 0000 789CAD54 		.ascii	"x\234\255T?H\033a\024\177\357\273\373l\254\202\211\212"
  59      3F481B61 
  59      147FEFBB 
  59      FB6CAC82 
  59      898A
  60 0012 982D084E 		.ascii	"\230-\010N\205\234\215\024\004\247R\020\034\304\301"
  60      859C8D14 
  60      04A75210 
  60      1CC4C1
  61 0021 083A9518 		.ascii	"\010:\225\030\241\036\004\"*V\332!_4\205P\012\006\027"
  61      A11E0422 
  61      2A56DA21 
  61      5F348550 
  61      0A0617
  62 0034 451DD420 		.ascii	"E\035\324 \212\213\253\266\016\242\203:h\351\352\224"
  62      8A8BABB6 
  62      0EA2833A 
  62      68E9EA94 
  63 0044 4247C151 		.ascii	"BG\301Qp\360|\337ww\212I\260\227\340\203\373\275\373"
  63      70F07CDF 
  63      77778A49 
  63      B097E083 
  63      FBBDFB
  64 0057 F37EBFFB 		.ascii	"\363~\277\373\375\336\3011`P\\A:\0269@\017u\324\000"
  64      FDDEC131 
  64      60505C41 
  64      3A163940 
  64      0F75D400 
  65 006b 59EE0220 		.ascii	"Y\356\002 \355c\210\362\004\020R\014S\303(G\2656X\027"
  65      ED6388F2 
  65      0410520C 
  65      53C32847 
  65      B5365817 
  66 007f 62A1F0ED 		.ascii	"b\241\360\355f)\370}m6'\356,\013M$\321w\010q\204!\272"
  66      6629F87D 
  66      6D3627EE 
  66      2C0B4D24 
  66      D1770871 
  67 0096 C0906A4C 		.ascii	"\300\220jL\177\372\026\233y\370\363\344\307\353\\:+"
  67      7FFA169B 
  67      79F8F3E4 
  67      C7EB5C3A 
  67      2B
  68 00a7 2C2BA578 		.ascii	",+\245x\335\036y\007E\274\367\377\343\355\262\303\202"
  68      DD1E7907 
  68      45BCF7FF 
  68      E3EDB2C3 
  68      82
  69 00b8 65ADFEFA 		.ascii	"e\255\376\372\367w\036\033[\030\304p\035\333\200S\317"
  69      F7771E1B 
  69      5B18C470 
  69      1DDB8053 
ARM GAS  /tmp/ccGgfXy6.s 			page 5


  69      CF
  70 00c9 53F751DF 		.ascii	"S\367Q\337\244^\007\244V/\301/! \241IB\263\004*\016"
  70      A45E07A4 
  70      562FC12F 
  70      2120A149 
  70      42B3042A 
  71 00de 19217221 		.ascii	"\031!r!\220o\243\212\022\312\255\014\"\223];\207\243"
  71      906FA38A 
  71      12CAAD0C 
  71      22935D3B 
  71      87A3
  72 00f0 CBA59BD6 		.ascii	"\313\245\233\326\030n!\207O\310\336\300\216\310\244"
  72      186E2187 
  72      4FC8DEC0 
  72      8EC8A4
  73 00ff FD266A2B 		.ascii	"\375&j+\260L\256ti\215\213\265\254\320\225K\256\274"
  73      B04CAE74 
  73      698D8BB5 
  73      ACD0954B 
  73      AEBC
  74 0111 8DA0EB92 		.ascii	"\215\240\353\222\370]6\2712\246\274\003\026UC\251\010"
  74      F85D36B9 
  74      32A6BC03 
  74      165543A9 
  74      08
  75 0122 56A0A139 		.ascii	"V\240\2419&.\267?\273\031\270W'Xu\006|\201\014X\232"
  75      262EB73F 
  75      BB19B857 
  75      27587506 
  75      7C810C58 
  76 0137 E1F42183 		.ascii	"\341\364!\203\317\253\023Vu\006\366\002\031Xi\206\355"
  76      CFAB1356 
  76      7506F602 
  76      19586986 
  76      ED
  77 0148 2F6E863A 		.ascii	"/n\206:\257N\264\207\014s\373\232\313\256'\001eNP\241"
  77      AF4EB487 
  77      0C73FB9A 
  77      CBAE2701 
  77      654E50A1 
  78 015c 2DDE5B59 		.ascii	"-\336[YB[\227\244\000~\303\\\341*\337`\363\001\276\302"
  78      425B97A4 
  78      007EC35C 
  78      E12ADF60 
  78      F301BEC2 
  79 0170 ADC80A52 		.ascii	"\255\310\012R\250\211;\337\301\304W\366\324\365qM\271"
  79      A8893BDF 
  79      C1C457F6 
  79      D4F5714D 
  79      B9
  80 0181 29F63825 		.ascii	")\3668%S\356m\004]\243~\257v\364r1\003$\240bV\027Qw"
  80      53EE6D04 
  80      5DA37EAF 
  80      76F47231 
  80      0324A062 
  81 0199 22061C5B 		.ascii	"\"\006\034[\3713\346*7\025k\370$\261V\210\214\243Q\353"
  81      F933E62A 
ARM GAS  /tmp/ccGgfXy6.s 			page 6


  81      37156BF8 
  81      24B15688 
  81      8CA351EB 
  82 01ad 68F072BE 		.ascii	"h\360r\276\232I@\371\012=\353\353yM\222\001\370\003"
  82      9A4940F9 
  82      0A3DEBEB 
  82      794D9201 
  82      F803
  83 01bf E9C27CBB 		.ascii	"\351\302|\273\273S\273\242\264u\372\373\310\245F\302"
  83      BB53BBA2 
  83      B475FAFB 
  83      C8A546C2 
  84 01cf 61E3C398 		.ascii	"a\343\303\2309b\366\017\030\311Ic,\2260\306\223\023"
  84      3962F60F 
  84      18C94963 
  84      2C9630C6 
  84      9313
  85 01e1 5393C640 		.ascii	"S\223\306@\264\2573bcO\347\314\214|\3621\221\030\015"
  85      B4AF3362 
  85      634FE7CC 
  85      8C7CF231 
  85      91180D
  86 01f4 C7814F27 		.ascii	"\307\201O'\023\341\016\205o\025F\356\001\017\260Jq"
  86      13E10E85 
  86      6F1546EE 
  86      010FB04A 
  86      71
  87              		.text
  88              		.section	.gnu.lto_stm32_clock_init.57b7a42e9d02bda1,"",%progbits
  89 0000 789CA555 		.ascii	"x\234\245U\317KTQ\030\275\337}\357\315<\337\374tf\374"
  89      CF4B5451 
  89      18BDDF7D 
  89      EFCD3CDF 
  89      FC7466FC 
  90 0014 812E1C14 		.ascii	"\201.\034\024M-\234\322\376\201)\010ZD\013\025j\025"
  90      4D2D9CD2 
  90      FE812908 
  90      5A440B15 
  90      6A15
  91 0026 6AA00382 		.ascii	"j\240\003\202\221.\334\371D\027-\\\270\224\202\250]"
  91      912EDCF9 
  91      44172D5C 
  91      B89482A8 
  91      5D
  92 0037 2424B8B0 		.ascii	"$$\270\260\211\201\022\011\222\300\250\235\2712\204"
  92      89811209 
  92      92C0A89D 
  92      B93284
  93 0046 A46CE34E 		.ascii	"\244l\343N!\230\356w\357}\367N:\302\314\274\007\236"
  93      2198EE77 
  93      EF7DF74E 
  93      3AC2CCBC 
  93      079E
  94 0058 37733FEF 		.ascii	"7s?\357\231s\317w\276\367(\241\344\354u\304\376\376"
  94      9973CF77 
  94      BEF728A1 
  94      E4EC75C4 
ARM GAS  /tmp/ccGgfXy6.s 			page 7


  94      FEFE
  95 006a 3A845C67 		.ascii	":\204\\gwh @\227\277\0202oS0\304\007\203\246\226>\021"
  95      77682040 
  95      97BF1032 
  95      6F5330C4 
  95      0783A696 
  96 0080 E23AE662 		.ascii	"\342:\346b\220\270\341\224X\317\232`\211\272E\223\242"
  96      90B8E194 
  96      58CF9A60 
  96      89BA4593 
  96      A2
  97 0091 1EE0F5A4 		.ascii	"\036\340\365\244X\317\006 (\352A\232\020u\233\327\023"
  97      58CF0620 
  97      28EA419A 
  97      10759BD7 
  97      13
  98 00a2 623D6B43 		.ascii	"b=kC\235\250\327\321zQwx\275^\254g\035\010\211z\210"
  98      9DA8D7D1 
  98      7A517778 
  98      BD5EAC67 
  98      1D08897A 
  99 00b7 C6453DCC 		.ascii	"\306E=\314\353q\261\236\015CD\324#4&\352Q^\217\211\365"
  99      EB71B19E 
  99      0D4344D4 
  99      233426EA 
  99      515E8F89 
 100 00cc 6C1400EF 		.ascii	"l\024\000\357\004\310\0345R\246\225\014\004\023v]\275"
 100      04C81C35 
 100      52A6950C 
 100      0413765D 
 100      BD
 101 00dd 138A8723 		.ascii	"\023\212\207#\261(\314\335\007~\3725\272\271_,\276\371"
 101      B128CCDD 
 101      077EFA35 
 101      BAB95F2C 
 101      BEF9
 102 00ef FAF9F912 		.ascii	"\372\371\371\022\024\350\025Jr@\014\004\013!\200\020"
 102      14E8154A 
 102      72400C04 
 102      0B218010 
 103 00ff 44B0111C 		.ascii	"D\260\021\034\2040B\004!\212\020CH $\021\032\020\032"
 103      84304204 
 103      218A1043 
 103      48202411 
 103      1A101A
 104 0112 119A109A 		.ascii	"\021\232\020\232\021Z\020Z\021\332\020\322\010\355\010"
 104      115A105A 
 104      11DA10D2 
 104      08ED08
 105 0121 1D089D08 		.ascii	"\035\010\235\010]\010\335\010=\010\275\010\354\262\310"
 105      5D08DD08 
 105      3D08BD08 
 105      ECB2C8
 106 0130 A2EB2EA7 		.ascii	"\242\353.\247\011\031\343_\207\030\262C\016\003e7c\207"
 106      0919E35F 
 106      8718B243 
 106      0E036537 
ARM GAS  /tmp/ccGgfXy6.s 			page 8


 106      6387
 107 0142 6CEDE557 		.ascii	"l\355\345W\277\303\010\274\004\213\214\003\275L^\273"
 107      BFC308BC 
 107      048B8C03 
 107      BD4C5EBB 
 108 0152 8BF3F11C 		.ascii	"\213\363\361\034\3003\362\024r@\35710\334\027O\\\223"
 108      C033F214 
 108      7240EF31 
 108      30DC174F 
 108      5C93
 109 0164 F08FFCC4 		.ascii	"\360\217\374\304\243\340u~\207,\2743\274\335\306\270"
 109      A3E0757E 
 109      872CBC33 
 109      BCDDC6B8 
 110 0174 F87F02BC 		.ascii	"\370\177\002\274\262u[\024\252\343\034\227\337\231D"
 110      B2755B14 
 110      AAE31C97 
 110      DF9944
 111 0183 8330FBB9 		.ascii	"\2030\373\271\306\335\325S\245\321\342|P\215\304\302"
 111      C6DDD553 
 111      A5D1E27C 
 111      508DC4C2 
 112 0193 C2BADA1E 		.ascii	"\302\272\332\036`\014\\$\306x\233|<\234\037P%\276^z"
 112      600C5C24 
 112      C6789B7C 
 112      3C9C1F50 
 112      25BE5E7A 
 113 01a7 0D418AB0 		.ascii	"\015A\212\260d\3000\230\236]+k\277\024W\260\322\243"
 113      64C03098 
 113      9E5D2B6B 
 113      BF1457B0 
 113      D2A3
 114 01b9 41891665 		.ascii	"A\211\026e\227\315\010\370/\376-\026\213\261\232,\003"
 114      97CD08F8 
 114      2FFE2D16 
 114      8BB19A2C 
 114      03
 115 01ca 6999CD37 		.ascii	"i\231\3157\357\275ZS\322\234\352\245\325\372\343\216"
 115      EFBD5A53 
 115      D29CEAA5 
 115      D5FAE38E 
 116 01da D72F4BF7 		.ascii	"\327/K\367k\355X)\011W\330\257R\217\0266\324\366\010"
 116      6BED5829 
 116      0957D8AF 
 116      528F1636 
 116      D4F608
 117 01ed 63E02E85 		.ascii	"c\340.\205y\277\026\377\350~E\312\364+)\373\025\360"
 117      79BF16FF 
 117      E87E45CA 
 117      F42B29FB 
 117      15F0
 118 01ff FAB5BBAE 		.ascii	"\372\265\273\256\343\035\255!\336\272_1F\300\177\361"
 118      E31DAD21 
 118      DEBA5F31 
 118      46C07FF1 
 119 020f D45FBE63 		.ascii	"\324_\276c|s\376d\335\013\222 p#\025Z\204+ [\266\227"
 119      7C73FE64 
ARM GAS  /tmp/ccGgfXy6.s 			page 9


 119      DD0B9220 
 119      7023155A 
 119      842B205B 
 120 0225 DFD0C74B 		.ascii	"\337\320\307K\370\232\336$#\340\307s\335\224\257\363"
 120      F89ADE24 
 120      23E0C773 
 120      DD94AFF3 
 121 0235 25BD3C04 		.ascii	"%\275<\004u\036\336\352\371m\3607\277\215\214A\312\264"
 121      751EDEEA 
 121      F96DF037 
 121      BF8D8C41 
 121      CAB4
 122 0247 CF4D7063 		.ascii	"\317Mpc\231D$d\"l5\301\205\037\212\255\251\322\303Q"
 122      99442464 
 122      226C35C1 
 122      851F8AAD 
 122      A9D2C351 
 123 025b AD465BD6 		.ascii	"\255F[\326\314\010|<\360\2504\254\3313\254N\031\226"
 123      CC087C3C 
 123      F0A834AC 
 123      D933AC4E 
 123      1996
 124 026d 2FE8016A 		.ascii	"/\350\001j\251\320\260\022\211\245\206\2652\206\013"
 124      A9D0B012 
 124      89A586B5 
 124      32860B
 125 027c 1E78AD65 		.ascii	"\036x\255e\354\252\227v9\322\256\374\356\373c\0379u"
 125      ECAA9776 
 125      39D2AEFC 
 125      EEFB631F 
 125      3975
 126 028e B7678437 		.ascii	"\267g\2047\371\374\207\252y\214\022\236\033\222f\267"
 126      F9FC87AA 
 126      798C129E 
 126      1B9266B7 
 127 029e 7A1A53D3 		.ascii	"z\032S\323\\\225c\263r\240\237\342m\276\306&\315\010"
 127      5C9563B3 
 127      72A09FE2 
 127      6DBEC626 
 127      CD08
 128 02b0 641E7920 		.ascii	"d\036y k\237\233\264\027\203\220\216\301\201\236\233"
 128      6B9F9BB4 
 128      1783908E 
 128      C1819E9B 
 129 02c0 767F73D3 		.ascii	"v\177s\323\301\030<\235\361sI\350(\223\204\270LBX%\341"
 129      C1183C9D 
 129      F17349E8 
 129      289384B8 
 129      4C425825 
 130 02d5 E719EBAF 		.ascii	"\347\031\353\257)1&\356\267\334MO\214%\305X\332\372"
 130      293126EE 
 130      B7DC4D4F 
 130      8C25C558 
 130      DAFA
 131 02e7 84B4FEE4 		.ascii	"\204\264\376\344P[\337Y\303\013T[\337\305\010T\262k"
 131      505BDF59 
 131      C30B545B 
ARM GAS  /tmp/ccGgfXy6.s 			page 10


 131      DFC50854 
 131      B26B
 132 02f9 7F7F7579 		.ascii	"\177\177uy\276G\224\357+\277\365\370u\373{\177\3650"
 132      BE4794EF 
 132      2BBFF5F8 
 132      75FB7B7F 
 132      F530
 133 030b 860BDE5F 		.ascii	"\206\013\336_=|\335\376\317\364\2304=\252\336_GZJo\245"
 133      3D7CDDFE 
 133      CFF49834 
 133      3DAADE5F 
 133      475A4A6F 
 134 0320 47339596 		.ascii	"G3\225\226jM1\245)\275\204|#\363\373\371Kb\273\026\010"
 134      6A4D31A5 
 134      29BD847C 
 134      23F3FBF9 
 134      4B62BB16 
 135 0335 4C18FADD 		.ascii	"L\030\372\335\337\327\227\2719\221\033\315\335\035\314"
 135      DFD797B9 
 135      39911BCD 
 135      DD1DCC
 136 0344 4C4D6726 		.ascii	"LMg&F&3\217\246\036\317Lg\006\207\356\014\364\013\274"
 136      4626338F 
 136      A61ECF4C 
 136      670687EE 
 136      0CF40BBC 
 137 0358 35303B8B 		.ascii	"50;\213\225\007\223\223\017\373\306\310?x\003\204p"
 137      95079393 
 137      0FFBC6C8 
 137      3F780384 
 137      70
 138              		.text
 139              		.section	.gnu.lto_.symbol_nodes.57b7a42e9d02bda1,"",%progbits
 140 0000 789C4588 		.ascii	"x\234E\210\261\015\2000\000\303\222\224\336\301S<\300"
 140      B10D8030 
 140      00C39294 
 140      DEC1533C 
 140      C0
 141 0011 25A958E8 		.ascii	"%\251X\350\330\002+,\374\303%\034\001\022\225\360b\331"
 141      D8022B2C 
 141      FCC3251C 
 141      011295F0 
 141      62D9
 142 0023 8230A0A1 		.ascii	"\2020\240\241*\003\345\002\354=\217Zd\266<2\265\312"
 142      2A03E502 
 142      EC3D8F5A 
 142      64B63C32 
 142      B5CA
 143 0035 FA331621 		.ascii	"\3723\026!\032\334\344\360\335\224\030\010L\363\335"
 143      1ADCE4F0 
 143      DD941808 
 143      4CF3DD
 144 0044 0776385F 		.ascii	"\007v8_\343\001\037$\027\352"
 144      E3011F24 
 144      17EA
 145              		.text
 146              		.section	.gnu.lto_.refs.57b7a42e9d02bda1,"",%progbits
ARM GAS  /tmp/ccGgfXy6.s 			page 11


 147 0000 789C6362 		.ascii	"x\234cb`b`d\200\002\000\000F\000\006"
 147      60626064 
 147      80020000 
 147      460006
 148              		.text
 149              		.section	.gnu.lto_.decls.57b7a42e9d02bda1,"",%progbits
 150 0000 789CBD97 		.ascii	"x\234\275\227{lSU\030\300\317\271\035\333\312\352x$"
 150      7B6C5355 
 150      18C0CFB9 
 150      1DDBCAEA 
 150      7824
 151 0012 1034460A 		.ascii	"\0204F\012\021cH\266\313\332\02151\310\326\015\266\310"
 151      116348B6 
 151      CBDA1135 
 151      31C8D60D 
 151      B6C8
 152 0024 63B91D02 		.ascii	"c\271\035\002\377\330\234\265w\256a\355\260\353t\374"
 152      FFD89CB5 
 152      77AE61ED 
 152      B0EB74FC 
 153 0034 7761EA8C 		.ascii	"wa\352\214F3\036\032T\036\035/\031Ay\310\344!\217nq"
 153      46331E1A 
 153      541E1D2F 
 153      194179C8 
 153      E4218F6E 
 154 0049 B2204144 		.ascii	"\262 ADX\330&[!@\014\3210\022\004\243H\375\356\271\367"
 154      58D8265B 
 154      21400CD1 
 154      301204A3 
 154      48FDEEB9 
 155 005e B6F794B6 		.ascii	"\266\367\224\266\273\345\017O\362}\367\364\334s~\347"
 155      BBE50F4F 
 155      F27DF7F4 
 155      DC737EE7 
 156 006e 3BDFF79D 		.ascii	";\337\367\235ow\034\342\320\313\030\241(\264\300\004"
 156      6F771CE2 
 156      D0CB18A1 
 156      28B4C004 
 157 007e 84FA3984 		.ascii	"\204\3729\204\262\020BsP\274\311\277\333Av\201t\200"
 157      B2104273 
 157      50BCC9BF 
 157      DB417681 
 157      7480
 158 0090 EC058125 		.ascii	"\354\005\201%\350k\3046yN6H\016\310a\220# ] \335 \303"
 158      E86BC436 
 158      794E3648 
 158      0EC86190 
 158      23205D20 
 159 00a7 20804627 		.ascii	" \200F'@\372\324\365\355\350\321&\3571Ve\344\203XT\226"
 159      40FAD4F5 
 159      EDE8D126 
 159      EF315665 
 159      E4835854 
 160 00bc C688806C 		.ascii	"\306\210\200l\003\271\0122\242\356\327\017r\016\344"
 160      03B90A32 
 160      A2EED70F 
 160      720EE4
ARM GAS  /tmp/ccGgfXy6.s 			page 12


 161 00cb 2CC84590 		.ascii	",\310E\220\013 7AL*\257]\2659\261u$\330\253\355qG\036"
 161      0B203741 
 161      4C2AAF5D 
 161      B539B175 
 161      24D8ABED 
 162 00e2 C3CABBD3 		.ascii	"\303\312\273\323 \275 \227A\006A\256\200\334S\355\357"
 162      20BD2097 
 162      410641AE 
 162      80DC53ED 
 162      EF
 163 00f3 48C29C8A 		.ascii	"H\302\234\212\266H\341\221H\317\340\307OJ\2415\341h"
 163      B648E191 
 163      48CFE0C7 
 163      4F4AA135 
 163      E168
 164 0105 F4153419 		.ascii	"\364\0254\031}\"A\013\275'I8H\360\234Ih\031&8\337\214"
 164      7D22410B 
 164      BD274938 
 164      48F09C49 
 164      68192638 
 165 011b ACB46331 		.ascii	"\254\264c1S\007#D\3606<Y\355-1)8\016\315\306h&\352\200"
 165      53072344 
 165      F0363C59 
 165      ED2D3129 
 165      380ECDC6 
 166 0133 F56D92B4 		.ascii	"\365m\222\264f&N\262%B\317\241\235\362\016\322n\311"
 166      66264EB2 
 166      2542CFA1 
 166      9DF20ED2 
 166      6EC9
 167 0145 44F932A1 		.ascii	"D\3712\241\035O\325O!x;\346\022\015\015E\302\337\264"
 167      1D4FD54F 
 167      21783BE6 
 167      120D0D45 
 167      C2DFB4
 168 0158 FE88A575 		.ascii	"\376\210\245u\322\203h\324\244\032\300\241\245\030\272"
 168      D28368D4 
 168      A41AC0A1 
 168      A518BA
 169 0167 3BF0CCB4 		.ascii	";\360\314\264\374]\211\374/\223\362\317\237\261\264"
 169      FC5D89FC 
 169      2F93F2CF 
 169      9FB1B4
 170 0176 AD8E44A3 		.ascii	"\255\216D\243S5\270\307\010\274#\021\276\347Qx\244-"
 170      5335B8C7 
 170      08BC2311 
 170      BEE75178 
 170      A42D
 171 0188 32D8DAD7 		.ascii	"2\330\332\327\212\327\266\204z\245\221ht\\\314\376="
 171      8AD7B684 
 171      7AA59168 
 171      745CCCFE 
 171      3D
 172 0199 38710F05 		.ascii	"8q\017\005\362\025\013\231\216\332\245Pw\344\306\372"
 172      F2150B99 
 172      8EDAA550 
 172      77E4C6FA 
ARM GAS  /tmp/ccGgfXy6.s 			page 13


 173 01a9 8FE45049 		.ascii	"\217\344PI\322\303h\024\233\321\373\340f9V\025\275\220"
 173      D2C36814 
 173      9BD1FBE0 
 173      66395615 
 173      BD90
 174 01bb 7EC90235 		.ascii	"~\311\0025\003\355\200`D.}\330\323\205a\025\274\330"
 174      03ED8060 
 174      442E7DD8 
 174      D3856115 
 174      BCD8
 175 01cd 07CB38B4 		.ascii	"\007\3138\264\213cw5\216:\265\376\370K\222\224K\360"
 175      8B637735 
 175      8E3AB5FE 
 175      F84B9294 
 175      4BF0
 176 01df 410A3A64 		.ascii	"A\012:dbA\004\347\230\331\203\300om\202L\243\257\325"
 176      624104E7 
 176      98D983C0 
 176      6F6D824C 
 176      A3AFD5
 177 01f2 8E7C8FC7 		.ascii	"\216|\217\307\241L\247s\350Tl\323T\311\331\011\336{"
 177      A14CA773 
 177      E8546CD3 
 177      54C9D909 
 177      DE7B
 178 0204 06FD64DA 		.ascii	"\006\375d\332,\345\322\221e\352\311\245\357\367LWO\333"
 178      2CE5D291 
 178      65EAC9A5 
 178      EFF74C57 
 178      4FDB
 179 0216 92F6B404 		.ascii	"\222\366\264\004\357\3073\014\2313\021\255\2457f\256"
 179      EFC7330C 
 179      993311AD 
 179      A53766AE 
 180 0226 0E355743 		.ascii	"\0165WC\345\306\035\367\305\326\373/P\307\035\301\023"
 180      E5C61DF7 
 180      C5D6FB2F 
 180      50C71DC1 
 180      13
 181 0237 E10C9F65 		.ascii	"\341\014\237e\261\216\033\025#\333\364\035,U\026Q\250"
 181      B18E1B15 
 181      23DBF41D 
 181      2C551651 
 181      A8
 182 0248 14BE346C 		.ascii	"\024\2764l\221\262\224q\224$\215\3246\015\205\244wZ"
 182      91B29471 
 182      94248DD4 
 182      360D85A4 
 182      775A
 183 025a C2FDC31B 		.ascii	"\302\375\303\033 y\272\001y\230\306n'5A^\233\314\003"
 183      2079BA01 
 183      7998C66E 
 183      2735415E 
 183      9BCC03
 184 026d 6A17C5FC 		.ascii	"j\027\305\374\227oN\340\015\014[\332\210\006\333\235"
 184      976F4EE0 
 184      0D0C5BDA 
ARM GAS  /tmp/ccGgfXy6.s 			page 14


 184      8806DB9D 
 185 027d 31CC9ACC 		.ascii	"1\314\232\314T-\015\342'%\3708\215\304\011<\015\364"
 185      542D0DE2 
 185      2725F838 
 185      8DC4093C 
 185      0DF4
 186 028f 29D0B196 		.ascii	")\320\261\226\207>\210g\255\342\330T\011\321\205\363"
 186      873E8867 
 186      ADE2D854 
 186      09D185F3 
 187 029f B455AAA7 		.ascii	"\264U\252\247\255:G\207L\332\374\342X\300\302\235\327"
 187      AD3A4787 
 187      4CDAFCE2 
 187      58C0C29D 
 187      D7
 188 02b0 A6C8BEED 		.ascii	"\246\310\276\355\246\341\332\233<\\\251!\362\246=\211"
 188      A6E1DA9B 
 188      3C5CA921 
 188      F2A63D89 
 189 02c0 E1BAAF84 		.ascii	"\341\272\257\204\253\307P\270\376a\302E\360I\310ie\355"
 189      ABC750B8 
 189      FE61C245 
 189      F049C869 
 189      65ED
 190 02d2 E385EB81 		.ascii	"\343\205\353\201>\\G\350y2\201Y\031\330C=\354\204\021"
 190      3E5C47E8 
 190      79328159 
 190      19D8433D 
 190      EC8411
 191 02e5 586E6ACB 		.ascii	"Xnj\313\332\256\365B]\267h\270\256\214q\254m\353X\334"
 191      DAAEF542 
 191      5DB768B8 
 191      AE8C71AC 
 191      6DEB58DC 
 192 02f9 1923B8F1 		.ascii	"\031#\270\361\251\255\333\300\342~\311\030\307Z\367"
 192      A9ADDBC0 
 192      E27EC918 
 192      C75AF7
 193 0308 298B1B30 		.ascii	")\213\0330\202\233\222\332\272\215,\356Z\3068\326\272"
 193      829B92DA 
 193      BA8D2CEE 
 193      5AC638D6 
 193      BA
 194 0319 CF59DC2D 		.ascii	"\317Y\334-#8kj\3536\351q\004\207\215\244\2605\265u["
 194      23386B6A 
 194      EB36E971 
 194      04878DA4 
 194      B035B575 
 195 032e 58EB6E1B 		.ascii	"X\353n\033\261\356\371\324\326\355gq\3673\306\261\326"
 195      B1EEF9D4 
 195      D6ED6771 
 195      F733C6B1 
 195      D6
 196 033f 1D6471FF 		.ascii	"\035dq\377\032\301\315Jb]\262\246/&\004\377@+\342iZ"
 196      1AC1CD4A 
 196      625DB2A6 
 196      2F2604FF 
ARM GAS  /tmp/ccGgfXy6.s 			page 15


 196      402BE269 
 197 0354 117BA93E 		.ascii	"\021{\251>C\365Y\252\317Q}\236\352\013T_\244\272\217"
 197      43F559AA 
 197      CF517D9E 
 197      EA0B545F 
 197      A4BA8F
 198 0367 EACB54F7 		.ascii	"\352\313T\367S=H\365\22545\265;MM\035\216\327\324\204"
 198      533D48F5 
 198      953435B5 
 198      3B4D4D1D 
 198      8ED7D484 
 199 037b 55F2A74D 		.ascii	"U\362\247M\252U\221\264\2258\202\265\371O\243X%>:\204"
 199      AA5591B4 
 199      953882B5 
 199      F94FA358 
 199      253E3A84 
 200 038f AD045FA5 		.ascii	"\255\004_\245\205\270e\314\250\205\230e\310{^O,\304"
 200      85B865CC 
 200      A8859865 
 200      C87B5E4F 
 200      2CC4
 201 03a1 9B876821 		.ascii	"\233\207h!\276n\250\020\037\030b\377n\256\243&\\\177"
 201      BE6EA810 
 201      1F1862FF 
 201      6EAEA326 
 201      5C7F
 202 03b3 EC427C70 		.ascii	"\354B|pHW;7f\014\323'\335\352\360\241\327\333\310\004"
 202      48573B37 
 202      660CD327 
 202      DDEAF0A1 
 202      D7DBC804 
 203 03c7 D4A6FA40 		.ascii	"\324\246\372@\241\252\023\245\230\037\224r\244\237\266"
 203      A1AA13A5 
 203      981F9472 
 203      A49FB6
 204 03d6 2FF53482 		.ascii	"/\3654\202\177\307\023h\217~'I\261\250Z\314)\203\372"
 204      7FC71368 
 204      8F7E2749 
 204      B1A85ACC 
 204      2983FA
 205 03e9 0736C74C 		.ascii	"\0076\307L\264\230\343\035\023\223\302\332,8\366\246"
 205      B498E31D 
 205      1393C2DA 
 205      2C38F6A6 
 206 03f9 C463B356 		.ascii	"\304c\263V\214\3767\343\333\270\023\011\376\225\326"
 206      8CFE37E3 
 206      DBB81309 
 206      FE95D6
 207 0408 95519C98 		.ascii	"\225Q\234\230\254\210&k\372t!\370\006\275j7\351E\371"
 207      AC88266B 
 207      FA7421F8 
 207      06BD6A37 
 207      E945F9
 208 041b 8DEA5B54 		.ascii	"\215\352[T\337Nsi\256\246\2714#\351?D8m\376\263(\226"
 208      DF4E7369 
 208      AEA6B934 
 208      23E93F44 
ARM GAS  /tmp/ccGgfXy6.s 			page 16


 208      386DFEB3 
 209 0431 FE5706E4 		.ascii	"\376W\006\344\364\277C\323\177\373\350\351\3172\344"
 209      F4BF43D3 
 209      7FFBE8E9 
 209      CF32E4
 210 0440 3DEF26A6 		.ascii	"=\357&\246\177\347\000M\377\273\206\322\377\350\000"
 210      7FE7004D 
 210      FFBB86D2 
 210      FFE800
 211 044f 9BFE07A8 		.ascii	"\233\376\007\250\011w\037;\375\217\015\350\322\2773"
 211      09771F3B 
 211      FD8F0DE8 
 211      D2BF33
 212 045e 63989581 		.ascii	"c\230\225\201\035\327\303\216\031\201\245\311\251\223"
 212      1DD7C38E 
 212      1981A5C9 
 212      A993
 213 046c 7A5877C6 		.ascii	"zXw\3060\326\262\363\003\272\004U\276\335F\201\245\371"
 213      30D6B2F3 
 213      03BA0455 
 213      BEDD4681 
 213      A5F9
 214 047e 06B9A0B7 		.ascii	"\006\271\240\267\254\307\210e\251\276@\2445\341\213"
 214      ACC78865 
 214      A9BE40A4 
 214      35E18B
 215 048d 0A4CF94F 		.ascii	"\012L\371O\260\327\010,\315\367G\237\336\262\2373\206"
 215      B0D7082C 
 215      CDF7479F 
 215      DEB29F33 
 215      86
 216 049e B13EBBAC 		.ascii	"\261>\273\254\207]2\002\263&\261,Y\323_\002\202\377"
 216      875D3202 
 216      B326B12C 
 216      59D35F02 
 216      82FF
 217 04b0 A497FA1E 		.ascii	"\244\227\372\036\275\310\177Q\3757\325\017\250~Hu\224"
 217      BDC87F51 
 217      FD37D50F 
 217      A87E4875 
 217      94
 218 04c1 EAD59CAC 		.ascii	"\352\325\234\254[\250~\227K}\345\357\244\271\362\255"
 218      5BA87E97 
 218      4B7DE5EF 
 218      A4B9F2AD 
 219 04d1 5CECCA23 		.ascii	"\\\354\312#[a!\357\250\363\326x\027;\371\206F\276\216"
 219      5B6121EF 
 219      A8F3D678 
 219      173BF986 
 219      46BE8E
 220 04e4 D4F32B1B 		.ascii	"\324\363+\033\002\301F\336Y\275\320nS\364<{s\263\374"
 220      02C146DE 
 220      59BDD06E 
 220      53F43C7B 
 220      73B3FC
 221 04f7 C6555FEF 		.ascii	"\306U_\357)t\243\247\324\256\253\206\270W4\255ty\032"
 221      2974A3A7 
ARM GAS  /tmp/ccGgfXy6.s 			page 17


 221      D4AEAB86 
 221      B85734AD 
 221      74791A
 222 050a 7CC4EB77 		.ascii	"|\304\353wy\375\336`\366\374EK\254\016d\321f\310c\343"
 222      79FDDE60 
 222      F6FC454B 
 222      AC0E64D1 
 222      66C863E3 
 223 051e 1B833EBB 		.ascii	"\033\203>\273\315\345\256op\257\240\003\305\351\267"
 223      CDE5AE6F 
 223      70AFA003 
 223      C5E9B7
 224 052d 5CB0A08C 		.ascii	"\\\260\240\214/[X\362V\021\257,\364\370Ha\035\312\201"
 224      2F5B58F2 
 224      5611AF2C 
 224      F4F84861 
 224      1DCA81
 225 0540 47252C6E 		.ascii	"G%,n\344\375\265Tf\363u\015>\221\017\210\215\"\011\270"
 225      E4FDB554 
 225      66F3750D 
 225      3E910F88 
 225      8D2209B8 
 226 0554 EB0013F0 		.ascii	"\353\000\023\360\274M\002\"O\002>\033\377\206\333]\000"
 226      BC4D0222 
 226      4F023E1B 
 226      FF86DB5D 
 226      00
 227 0565 9D02D157 		.ascii	"\235\002\321W#z<\242'6\340o\360\213\005\"\251\361\026"
 227      237A3CA2 
 227      2736E06F 
 227      F08B0522 
 227      A9F116
 228 0578 14BB5E2C 		.ascii	"\024\273^,\260\315**~\323\3063/x\257\337]\337\344\021"
 228      B0CD2A2A 
 228      7ED3C633 
 228      2F78AFDF 
 228      5DDFE411 
 229 058c 617B8FD7 		.ascii	"a{\217\327\037\204\275s\233\340\011\226\004[\360\377"
 229      1F84BD73 
 229      9BE00996 
 229      045BF0FF 
 230 059c B7BB8FB8 		.ascii	"\267\273\217\270\353\274~\221wy\304Z\322T\037t\005W"
 230      EBBC7E91 
 230      7779C45A 
 230      D2541F74 
 230      0557
 231 05ae AD141BC1 		.ascii	"\255\024\033\301\232\261.\227f\3178\347\252\306\240"
 231      9AB12E97 
 231      66CF38E7 
 231      AAC6A0
 232 05bd E8733404 		.ascii	"\350s4\004D\207\354\336I\205\036\022$\205\011\243v\326"
 232      4487ECDE 
 232      49851E12 
 232      248509A3 
 232      76D6
 233 05cf DF627390 		.ascii	"\337bs\220w,tV:\301\337\272\370Rg\327\332g\331\233\335"
 233      772C7456 
ARM GAS  /tmp/ccGgfXy6.s 			page 18


 233      3AC1DFBA 
 233      F85267D7 
 233      DA67D99B 
 234 05e4 B0495ED5 		.ascii	"\260I^\325R\301U\015;\226\211\265\234C09\234B\236\340"
 234      52C1550D 
 234      3B9689B5 
 234      9C433039 
 234      9C429EE0 
 235 05f8 70684359 		.ascii	"phCY\216y\363a\260R\310-\251*\265\011\316j\332)\222"
 235      8E79F361 
 235      B052C82D 
 235      A92AB509 
 235      CE6ADA29 
 236 060d 3BD92515 		.ascii	";\331%\025\245\345\213\204\034\371\205\372,\202gVi\231"
 236      A5E58B84 
 236      1CF985FA 
 236      2C826756 
 236      6999
 237 061f 037E5494 		.ascii	"\003~T\224\312s\306\310\313mT\333\363\235\313\235\320"
 237      CA73C6C8 
 237      CB6D54DB 
 237      F39DCB9D 
 237      D0
 238 0630 D1C874B0 		.ascii	"\321\310t\260\310$8\204\354\362e\325\225\016\341\211"
 238      C8243884 
 238      ECF265D5 
 238      950EE189 
 239 0640 790B4A9C 		.ascii	"y\013J\234\025\332kS\211C\310z\265|\271\220\263\270"
 239      15DA6B53 
 239      8943C87A 
 239      B57CB990 
 239      B3B8
 240 0652 AA5A7E72 		.ascii	"\252Z~rN\201+\021r\205rg\271\360Zy\231iq\251\220\265"
 240      4E812B11 
 240      72857267 
 240      B9F05A79 
 240      996971A9 
 241 0668 54A812FE 		.ascii	"T\250\022\376\003\203\244&\245"
 241      0383A426 
 241      A5
 242              		.text
 243              		.section	.gnu.lto_.symtab.57b7a42e9d02bda1,"",%progbits
 244 0000 68616C5F 		.ascii	"hal_lld_init\000\000\000\000\000\000\000\000\000\000"
 244      6C6C645F 
 244      696E6974 
 244      00000000 
 244      00000000 
 245 0016 0000A600 		.ascii	"\000\000\246\000\000\000stm32_clock_init\000\000\000"
 245      00007374 
 245      6D33325F 
 245      636C6F63 
 245      6B5F696E 
 246 002f 00000000 		.ascii	"\000\000\000\000\000\000\000\000\000\251\000\000\000"
 246      00000000 
 246      00A90000 
 246      00
 247 003c 53797374 		.ascii	"SystemCoreClock\000\000\000\000\000\000\000\000\000"
ARM GAS  /tmp/ccGgfXy6.s 			page 19


 247      656D436F 
 247      7265436C 
 247      6F636B00 
 247      00000000 
 248 0054 000000AE 		.ascii	"\000\000\000\256\000\000\000dmaInit\000\000\002\000"
 248      00000064 
 248      6D61496E 
 248      69740000 
 248      0200
 249 0066 00000000 		.ascii	"\000\000\000\000\000\000\000\000\254\000\000\000"
 249      00000000 
 249      AC000000 
 250              		.text
 251              		.section	.gnu.lto_.opts,"",%progbits
 252 0000 272D6D63 		.ascii	"'-mcpu=cortex-m4' '-mno-thumb-interwork' '-mthumb' "
 252      70753D63 
 252      6F727465 
 252      782D6D34 
 252      2720272D 
 253 0033 272D6767 		.ascii	"'-ggdb' '-O2' '-fomit-frame-pointer' '-falign-funct"
 253      64622720 
 253      272D4F32 
 253      2720272D 
 253      666F6D69 
 254 0066 696F6E73 		.ascii	"ions=16' '-ffunction-sections' '-fdata-sections' '-"
 254      3D313627 
 254      20272D66 
 254      66756E63 
 254      74696F6E 
 255 0099 666E6F2D 		.ascii	"fno-common' '-flto'\000"
 255      636F6D6D 
 255      6F6E2720 
 255      272D666C 
 255      746F2700 
 256              		.text
 257              		.cfi_sections	.debug_frame
 258              		.section	.text.hal_lld_init,"ax",%progbits
 259              		.align	2
 260              		.p2align 4,,15
 261              		.global	hal_lld_init
 262              		.thumb
 263              		.thumb_func
 264              		.type	hal_lld_init, %function
 265              	hal_lld_init:
 266              	.LFB273:
 267              		.file 1 "../ChibiOS/os/hal/ports/STM32/STM32F3xx/hal_lld.c"
 268              		.loc 1 105 0
 269              		.cfi_startproc
 270              		@ args = 0, pretend = 0, frame = 0
 271              		@ frame_needed = 0, uses_anonymous_args = 0
 272              		.loc 1 108 0
 273 0000 1C4B     		ldr	r3, .L8
 274              	.LBB4:
 275              	.LBB5:
 276              		.loc 1 57 0
 277 0002 1D48     		ldr	r0, .L8+4
 278              	.LBE5:
ARM GAS  /tmp/ccGgfXy6.s 			page 20


 279              	.LBE4:
 280              		.loc 1 108 0
 281 0004 9A6A     		ldr	r2, [r3, #40]
 282 0006 4FF0FF31 		mov	r1, #-1
 283 000a 0022     		movs	r2, #0
 284              		.loc 1 105 0
 285 000c 10B5     		push	{r4, lr}
 286              		.cfi_def_cfa_offset 8
 287              		.cfi_offset 4, -8
 288              		.cfi_offset 14, -4
 289              		.loc 1 108 0
 290 000e 9962     		str	r1, [r3, #40]
 291 0010 9A62     		str	r2, [r3, #40]
 292              		.loc 1 109 0
 293 0012 1C69     		ldr	r4, [r3, #16]
 294 0014 1961     		str	r1, [r3, #16]
 295 0016 1A61     		str	r2, [r3, #16]
 296              		.loc 1 110 0
 297 0018 DC68     		ldr	r4, [r3, #12]
 298 001a D960     		str	r1, [r3, #12]
 299 001c DA60     		str	r2, [r3, #12]
 300              		.loc 1 113 0
 301 001e D969     		ldr	r1, [r3, #28]
 302 0020 41F08051 		orr	r1, r1, #268435456
 303 0024 D961     		str	r1, [r3, #28]
 304              	.LBB7:
 305              	.LBB6:
 306              		.loc 1 57 0
 307 0026 0168     		ldr	r1, [r0]
 308 0028 41F48071 		orr	r1, r1, #256
 309 002c 0160     		str	r1, [r0]
 310              		.loc 1 60 0
 311 002e 196A     		ldr	r1, [r3, #32]
 312 0030 01F44071 		and	r1, r1, #768
 313 0034 B1F5007F 		cmp	r1, #512
 314 0038 03D0     		beq	.L2
 315              		.loc 1 62 0
 316 003a 4FF48031 		mov	r1, #65536
 317 003e 1962     		str	r1, [r3, #32]
 318              		.loc 1 63 0
 319 0040 1A62     		str	r2, [r3, #32]
 320              	.L2:
 321              		.loc 1 82 0
 322 0042 0C4B     		ldr	r3, .L8
 323 0044 1A6A     		ldr	r2, [r3, #32]
 324 0046 1204     		lsls	r2, r2, #16
 325 0048 07D4     		bmi	.L3
 326              		.loc 1 84 0
 327 004a 1A6A     		ldr	r2, [r3, #32]
 328 004c 42F40072 		orr	r2, r2, #512
 329 0050 1A62     		str	r2, [r3, #32]
 330              		.loc 1 87 0
 331 0052 1A6A     		ldr	r2, [r3, #32]
 332 0054 42F40042 		orr	r2, r2, #32768
 333 0058 1A62     		str	r2, [r3, #32]
 334              	.L3:
 335              	.LBE6:
ARM GAS  /tmp/ccGgfXy6.s 			page 21


 336              	.LBE7:
 337              		.loc 1 119 0
 338 005a FFF7FEFF 		bl	dmaInit
 339              	.LVL0:
 340              		.loc 1 129 0
 341 005e 054A     		ldr	r2, .L8
 342              		.loc 1 133 0
 343 0060 064B     		ldr	r3, .L8+8
 344              		.loc 1 129 0
 345 0062 9169     		ldr	r1, [r2, #24]
 346 0064 41F00101 		orr	r1, r1, #1
 347 0068 9161     		str	r1, [r2, #24]
 348              		.loc 1 133 0
 349 006a 1A68     		ldr	r2, [r3]
 350 006c 42F02002 		orr	r2, r2, #32
 351 0070 1A60     		str	r2, [r3]
 352 0072 10BD     		pop	{r4, pc}
 353              	.L9:
 354              		.align	2
 355              	.L8:
 356 0074 00100240 		.word	1073876992
 357 0078 00700040 		.word	1073770496
 358 007c 00000140 		.word	1073807360
 359              		.cfi_endproc
 360              	.LFE273:
 361              		.size	hal_lld_init, .-hal_lld_init
 362              		.section	.text.stm32_clock_init,"ax",%progbits
 363              		.align	2
 364              		.p2align 4,,15
 365              		.global	stm32_clock_init
 366              		.thumb
 367              		.thumb_func
 368              		.type	stm32_clock_init, %function
 369              	stm32_clock_init:
 370              	.LFB274:
 371              		.loc 1 144 0
 372              		.cfi_startproc
 373              		@ args = 0, pretend = 0, frame = 0
 374              		@ frame_needed = 0, uses_anonymous_args = 0
 375              		@ link register save eliminated.
 376              		.loc 1 149 0
 377 0000 2449     		ldr	r1, .L23
 378 0002 0B68     		ldr	r3, [r1]
 379 0004 43F00103 		orr	r3, r3, #1
 380 0008 0B60     		str	r3, [r1]
 381              	.L12:
 382              		.loc 1 150 0 discriminator 1
 383 000a 0B68     		ldr	r3, [r1]
 384 000c 214A     		ldr	r2, .L23
 385 000e 9807     		lsls	r0, r3, #30
 386 0010 FBD5     		bpl	.L12
 387              		.loc 1 156 0
 388 0012 5368     		ldr	r3, [r2, #4]
 389 0014 23F00303 		bic	r3, r3, #3
 390 0018 5360     		str	r3, [r2, #4]
 391              		.loc 1 157 0
 392 001a 5368     		ldr	r3, [r2, #4]
ARM GAS  /tmp/ccGgfXy6.s 			page 22


 393 001c 5360     		str	r3, [r2, #4]
 394              		.loc 1 158 0
 395 001e 1146     		mov	r1, r2
 396              	.L14:
 397              		.loc 1 158 0 is_stmt 0 discriminator 1
 398 0020 4B68     		ldr	r3, [r1, #4]
 399 0022 1C4A     		ldr	r2, .L23
 400 0024 13F00C03 		ands	r3, r3, #12
 401 0028 FAD1     		bne	.L14
 402              		.loc 1 162 0 is_stmt 1
 403 002a 1168     		ldr	r1, [r2]
 404 002c 01F0F901 		and	r1, r1, #249
 405 0030 1160     		str	r1, [r2]
 406              		.loc 1 163 0
 407 0032 5360     		str	r3, [r2, #4]
 408              		.loc 1 169 0
 409 0034 1368     		ldr	r3, [r2]
 410 0036 43F4A023 		orr	r3, r3, #327680
 411 003a 1360     		str	r3, [r2]
 412              	.L16:
 413              		.loc 1 174 0 discriminator 1
 414 003c 1368     		ldr	r3, [r2]
 415 003e 1549     		ldr	r1, .L23
 416 0040 9B03     		lsls	r3, r3, #14
 417 0042 FBD5     		bpl	.L16
 418              		.loc 1 180 0
 419 0044 4B6A     		ldr	r3, [r1, #36]
 420 0046 43F00103 		orr	r3, r3, #1
 421 004a 4B62     		str	r3, [r1, #36]
 422              	.L18:
 423              		.loc 1 181 0 discriminator 1
 424 004c 4B6A     		ldr	r3, [r1, #36]
 425 004e 114A     		ldr	r2, .L23
 426 0050 9807     		lsls	r0, r3, #30
 427 0052 FBD5     		bpl	.L18
 428              		.loc 1 186 0
 429 0054 104B     		ldr	r3, .L23+4
 430 0056 5360     		str	r3, [r2, #4]
 431              		.loc 1 189 0
 432 0058 4FF40451 		mov	r1, #8448
 433              		.loc 1 190 0
 434 005c 3023     		movs	r3, #48
 435              		.loc 1 189 0
 436 005e D162     		str	r1, [r2, #44]
 437              		.loc 1 190 0
 438 0060 1363     		str	r3, [r2, #48]
 439              		.loc 1 196 0
 440 0062 1368     		ldr	r3, [r2]
 441 0064 43F08073 		orr	r3, r3, #16777216
 442 0068 1360     		str	r3, [r2]
 443              	.L20:
 444              		.loc 1 197 0 discriminator 1
 445 006a 1368     		ldr	r3, [r2]
 446 006c 0949     		ldr	r1, .L23
 447 006e 9B01     		lsls	r3, r3, #6
 448 0070 FBD5     		bpl	.L20
 449              		.loc 1 202 0
ARM GAS  /tmp/ccGgfXy6.s 			page 23


 450 0072 0A4B     		ldr	r3, .L23+8
 451 0074 1222     		movs	r2, #18
 452 0076 1A60     		str	r2, [r3]
 453              		.loc 1 207 0
 454 0078 4B68     		ldr	r3, [r1, #4]
 455 007a 43F00203 		orr	r3, r3, #2
 456 007e 4B60     		str	r3, [r1, #4]
 457              	.L22:
 458              		.loc 1 208 0 discriminator 1
 459 0080 4B68     		ldr	r3, [r1, #4]
 460 0082 044A     		ldr	r2, .L23
 461 0084 03F00C03 		and	r3, r3, #12
 462 0088 082B     		cmp	r3, #8
 463 008a F9D1     		bne	.L22
 464              		.loc 1 214 0
 465 008c 136B     		ldr	r3, [r2, #48]
 466 008e 1363     		str	r3, [r2, #48]
 467 0090 7047     		bx	lr
 468              	.L24:
 469 0092 00BF     		.align	2
 470              	.L23:
 471 0094 00100240 		.word	1073876992
 472 0098 00241D00 		.word	1909760
 473 009c 00200240 		.word	1073881088
 474              		.cfi_endproc
 475              	.LFE274:
 476              		.size	stm32_clock_init, .-stm32_clock_init
 477              		.global	SystemCoreClock
 478              		.section	.data.SystemCoreClock,"aw",%progbits
 479              		.align	2
 480              		.type	SystemCoreClock, %object
 481              		.size	SystemCoreClock, 4
 482              	SystemCoreClock:
 483 0000 00A24A04 		.word	72000000
 484              		.text
 485              	.Letext0:
 486              		.file 2 "/nfs/nfs5/home/research/hardware/arm2/gcc-arm-embedded/gcc-arm-none-eabi-4_8-2014q2/lib/g
 487              		.file 3 "/nfs/nfs5/home/research/hardware/arm2/gcc-arm-embedded/gcc-arm-none-eabi-4_8-2014q2/arm-n
 488              		.file 4 "/nfs/nfs5/home/research/hardware/arm2/gcc-arm-embedded/gcc-arm-none-eabi-4_8-2014q2/arm-n
 489              		.file 5 "../ChibiOS/os/rt/ports/ARMCMx/compilers/GCC/chtypes.h"
 490              		.file 6 "../ChibiOS/os/rt/include/chsystypes.h"
 491              		.file 7 "../ChibiOS/os/rt/include/chschd.h"
 492              		.file 8 "../ChibiOS/os/ext/CMSIS/ST/STM32F3xx/stm32f303xc.h"
 493              		.file 9 "../ChibiOS/os/rt/ports/ARMCMx/chcore.h"
 494              		.file 10 "../ChibiOS/os/rt/ports/ARMCMx/chcore_v7m.h"
 495              		.file 11 "../ChibiOS/os/rt/include/chtm.h"
 496              		.file 12 "../ChibiOS/os/rt/include/chsem.h"
 497              		.file 13 "../ChibiOS/os/rt/include/chmtx.h"
 498              		.file 14 "../ChibiOS/os/ext/CMSIS/include/core_cm4.h"
 499              		.file 15 "../ChibiOS/os/hal/ports/STM32/LLD/DMAv1/stm32_dma.h"
 500              		.section	.debug_info,"",%progbits
 501              	.Ldebug_info0:
 502 0000 79080000 		.4byte	0x879
 503 0004 0400     		.2byte	0x4
 504 0006 00000000 		.4byte	.Ldebug_abbrev0
 505 000a 04       		.byte	0x4
 506 000b 01       		.uleb128 0x1
ARM GAS  /tmp/ccGgfXy6.s 			page 24


 507 000c 65050000 		.4byte	.LASF125
 508 0010 01       		.byte	0x1
 509 0011 05020000 		.4byte	.LASF126
 510 0015 F4020000 		.4byte	.LASF127
 511 0019 18000000 		.4byte	.Ldebug_ranges0+0x18
 512 001d 00000000 		.4byte	0
 513 0021 00000000 		.4byte	.Ldebug_line0
 514 0025 02       		.uleb128 0x2
 515 0026 04       		.byte	0x4
 516 0027 05       		.byte	0x5
 517 0028 696E7400 		.ascii	"int\000"
 518 002c 03       		.uleb128 0x3
 519 002d 0D000000 		.4byte	.LASF2
 520 0031 02       		.byte	0x2
 521 0032 D4       		.byte	0xd4
 522 0033 37000000 		.4byte	0x37
 523 0037 04       		.uleb128 0x4
 524 0038 04       		.byte	0x4
 525 0039 07       		.byte	0x7
 526 003a 92010000 		.4byte	.LASF0
 527 003e 04       		.uleb128 0x4
 528 003f 01       		.byte	0x1
 529 0040 06       		.byte	0x6
 530 0041 C5000000 		.4byte	.LASF1
 531 0045 03       		.uleb128 0x3
 532 0046 24000000 		.4byte	.LASF3
 533 004a 03       		.byte	0x3
 534 004b 1C       		.byte	0x1c
 535 004c 50000000 		.4byte	0x50
 536 0050 04       		.uleb128 0x4
 537 0051 01       		.byte	0x1
 538 0052 08       		.byte	0x8
 539 0053 D1030000 		.4byte	.LASF4
 540 0057 04       		.uleb128 0x4
 541 0058 02       		.byte	0x2
 542 0059 05       		.byte	0x5
 543 005a E9030000 		.4byte	.LASF5
 544 005e 04       		.uleb128 0x4
 545 005f 02       		.byte	0x2
 546 0060 07       		.byte	0x7
 547 0061 DB010000 		.4byte	.LASF6
 548 0065 03       		.uleb128 0x3
 549 0066 65020000 		.4byte	.LASF7
 550 006a 03       		.byte	0x3
 551 006b 37       		.byte	0x37
 552 006c 70000000 		.4byte	0x70
 553 0070 04       		.uleb128 0x4
 554 0071 04       		.byte	0x4
 555 0072 05       		.byte	0x5
 556 0073 12010000 		.4byte	.LASF8
 557 0077 03       		.uleb128 0x3
 558 0078 D6040000 		.4byte	.LASF9
 559 007c 03       		.byte	0x3
 560 007d 38       		.byte	0x38
 561 007e 82000000 		.4byte	0x82
 562 0082 04       		.uleb128 0x4
 563 0083 04       		.byte	0x4
ARM GAS  /tmp/ccGgfXy6.s 			page 25


 564 0084 07       		.byte	0x7
 565 0085 8C040000 		.4byte	.LASF10
 566 0089 04       		.uleb128 0x4
 567 008a 08       		.byte	0x8
 568 008b 05       		.byte	0x5
 569 008c B7000000 		.4byte	.LASF11
 570 0090 03       		.uleb128 0x3
 571 0091 6D030000 		.4byte	.LASF12
 572 0095 03       		.byte	0x3
 573 0096 4E       		.byte	0x4e
 574 0097 9B000000 		.4byte	0x9b
 575 009b 04       		.uleb128 0x4
 576 009c 08       		.byte	0x8
 577 009d 07       		.byte	0x7
 578 009e 49000000 		.4byte	.LASF13
 579 00a2 03       		.uleb128 0x3
 580 00a3 5D050000 		.4byte	.LASF14
 581 00a7 04       		.byte	0x4
 582 00a8 2A       		.byte	0x2a
 583 00a9 45000000 		.4byte	0x45
 584 00ad 03       		.uleb128 0x3
 585 00ae C9030000 		.4byte	.LASF15
 586 00b2 04       		.byte	0x4
 587 00b3 41       		.byte	0x41
 588 00b4 65000000 		.4byte	0x65
 589 00b8 03       		.uleb128 0x3
 590 00b9 53040000 		.4byte	.LASF16
 591 00bd 04       		.byte	0x4
 592 00be 42       		.byte	0x42
 593 00bf 77000000 		.4byte	0x77
 594 00c3 03       		.uleb128 0x3
 595 00c4 1B000000 		.4byte	.LASF17
 596 00c8 04       		.byte	0x4
 597 00c9 4E       		.byte	0x4e
 598 00ca 90000000 		.4byte	0x90
 599 00ce 03       		.uleb128 0x3
 600 00cf 17050000 		.4byte	.LASF18
 601 00d3 05       		.byte	0x5
 602 00d4 39       		.byte	0x39
 603 00d5 B8000000 		.4byte	0xb8
 604 00d9 03       		.uleb128 0x3
 605 00da 43020000 		.4byte	.LASF19
 606 00de 05       		.byte	0x5
 607 00df 3C       		.byte	0x3c
 608 00e0 A2000000 		.4byte	0xa2
 609 00e4 03       		.uleb128 0x3
 610 00e5 24010000 		.4byte	.LASF20
 611 00e9 05       		.byte	0x5
 612 00ea 3D       		.byte	0x3d
 613 00eb A2000000 		.4byte	0xa2
 614 00ef 03       		.uleb128 0x3
 615 00f0 87030000 		.4byte	.LASF21
 616 00f4 05       		.byte	0x5
 617 00f5 3E       		.byte	0x3e
 618 00f6 A2000000 		.4byte	0xa2
 619 00fa 03       		.uleb128 0x3
 620 00fb AB030000 		.4byte	.LASF22
ARM GAS  /tmp/ccGgfXy6.s 			page 26


 621 00ff 05       		.byte	0x5
 622 0100 40       		.byte	0x40
 623 0101 B8000000 		.4byte	0xb8
 624 0105 03       		.uleb128 0x3
 625 0106 F8010000 		.4byte	.LASF23
 626 010a 05       		.byte	0x5
 627 010b 41       		.byte	0x41
 628 010c AD000000 		.4byte	0xad
 629 0110 03       		.uleb128 0x3
 630 0111 59020000 		.4byte	.LASF24
 631 0115 05       		.byte	0x5
 632 0116 43       		.byte	0x43
 633 0117 B8000000 		.4byte	0xb8
 634 011b 03       		.uleb128 0x3
 635 011c 8C010000 		.4byte	.LASF25
 636 0120 05       		.byte	0x5
 637 0121 45       		.byte	0x45
 638 0122 AD000000 		.4byte	0xad
 639 0126 03       		.uleb128 0x3
 640 0127 B8040000 		.4byte	.LASF26
 641 012b 06       		.byte	0x6
 642 012c 33       		.byte	0x33
 643 012d B8000000 		.4byte	0xb8
 644 0131 03       		.uleb128 0x3
 645 0132 A8040000 		.4byte	.LASF27
 646 0136 06       		.byte	0x6
 647 0137 3F       		.byte	0x3f
 648 0138 3C010000 		.4byte	0x13c
 649 013c 05       		.uleb128 0x5
 650 013d EE010000 		.4byte	.LASF46
 651 0141 40       		.byte	0x40
 652 0142 07       		.byte	0x7
 653 0143 C2       		.byte	0xc2
 654 0144 1C020000 		.4byte	0x21c
 655 0148 06       		.uleb128 0x6
 656 0149 C6020000 		.4byte	.LASF28
 657 014d 07       		.byte	0x7
 658 014e C3       		.byte	0xc3
 659 014f 27020000 		.4byte	0x227
 660 0153 00       		.byte	0
 661 0154 06       		.uleb128 0x6
 662 0155 A4030000 		.4byte	.LASF29
 663 0159 07       		.byte	0x7
 664 015a C5       		.byte	0xc5
 665 015b 27020000 		.4byte	0x227
 666 015f 04       		.byte	0x4
 667 0160 06       		.uleb128 0x6
 668 0161 B0000000 		.4byte	.LASF30
 669 0165 07       		.byte	0x7
 670 0166 C7       		.byte	0xc7
 671 0167 FA000000 		.4byte	0xfa
 672 016b 08       		.byte	0x8
 673 016c 06       		.uleb128 0x6
 674 016d 60060000 		.4byte	.LASF31
 675 0171 07       		.byte	0x7
 676 0172 C8       		.byte	0xc8
 677 0173 30060000 		.4byte	0x630
ARM GAS  /tmp/ccGgfXy6.s 			page 27


 678 0177 0C       		.byte	0xc
 679 0178 06       		.uleb128 0x6
 680 0179 35010000 		.4byte	.LASF32
 681 017d 07       		.byte	0x7
 682 017e CA       		.byte	0xca
 683 017f 27020000 		.4byte	0x227
 684 0183 10       		.byte	0x10
 685 0184 06       		.uleb128 0x6
 686 0185 FB030000 		.4byte	.LASF33
 687 0189 07       		.byte	0x7
 688 018a CB       		.byte	0xcb
 689 018b 27020000 		.4byte	0x227
 690 018f 14       		.byte	0x14
 691 0190 06       		.uleb128 0x6
 692 0191 4C060000 		.4byte	.LASF34
 693 0195 07       		.byte	0x7
 694 0196 D2       		.byte	0xd2
 695 0197 BB070000 		.4byte	0x7bb
 696 019b 18       		.byte	0x18
 697 019c 06       		.uleb128 0x6
 698 019d F3030000 		.4byte	.LASF35
 699 01a1 07       		.byte	0x7
 700 01a2 DD       		.byte	0xdd
 701 01a3 E4000000 		.4byte	0xe4
 702 01a7 1C       		.byte	0x1c
 703 01a8 06       		.uleb128 0x6
 704 01a9 1A040000 		.4byte	.LASF36
 705 01ad 07       		.byte	0x7
 706 01ae E1       		.byte	0xe1
 707 01af D9000000 		.4byte	0xd9
 708 01b3 1D       		.byte	0x1d
 709 01b4 06       		.uleb128 0x6
 710 01b5 3F050000 		.4byte	.LASF37
 711 01b9 07       		.byte	0x7
 712 01ba E6       		.byte	0xe6
 713 01bb EF000000 		.4byte	0xef
 714 01bf 1E       		.byte	0x1e
 715 01c0 07       		.uleb128 0x7
 716 01c1 705F7500 		.ascii	"p_u\000"
 717 01c5 07       		.byte	0x7
 718 01c6 3701     		.2byte	0x137
 719 01c8 EA060000 		.4byte	0x6ea
 720 01cc 20       		.byte	0x20
 721 01cd 08       		.uleb128 0x8
 722 01ce 89020000 		.4byte	.LASF38
 723 01d2 07       		.byte	0x7
 724 01d3 3C01     		.2byte	0x13c
 725 01d5 2D020000 		.4byte	0x22d
 726 01d9 24       		.byte	0x24
 727 01da 08       		.uleb128 0x8
 728 01db BE010000 		.4byte	.LASF39
 729 01df 07       		.byte	0x7
 730 01e0 4201     		.2byte	0x142
 731 01e2 51020000 		.4byte	0x251
 732 01e6 28       		.byte	0x28
 733 01e7 08       		.uleb128 0x8
 734 01e8 48040000 		.4byte	.LASF40
ARM GAS  /tmp/ccGgfXy6.s 			page 28


 735 01ec 07       		.byte	0x7
 736 01ed 4801     		.2byte	0x148
 737 01ef 10010000 		.4byte	0x110
 738 01f3 30       		.byte	0x30
 739 01f4 08       		.uleb128 0x8
 740 01f5 DF030000 		.4byte	.LASF41
 741 01f9 07       		.byte	0x7
 742 01fa 4F01     		.2byte	0x14f
 743 01fc B5070000 		.4byte	0x7b5
 744 0200 34       		.byte	0x34
 745 0201 08       		.uleb128 0x8
 746 0202 C2040000 		.4byte	.LASF42
 747 0206 07       		.byte	0x7
 748 0207 5301     		.2byte	0x153
 749 0209 FA000000 		.4byte	0xfa
 750 020d 38       		.byte	0x38
 751 020e 08       		.uleb128 0x8
 752 020f DF000000 		.4byte	.LASF43
 753 0213 07       		.byte	0x7
 754 0214 5A01     		.2byte	0x15a
 755 0216 04030000 		.4byte	0x304
 756 021a 3C       		.byte	0x3c
 757 021b 00       		.byte	0
 758 021c 03       		.uleb128 0x3
 759 021d 9C020000 		.4byte	.LASF44
 760 0221 06       		.byte	0x6
 761 0222 44       		.byte	0x44
 762 0223 27020000 		.4byte	0x227
 763 0227 09       		.uleb128 0x9
 764 0228 04       		.byte	0x4
 765 0229 31010000 		.4byte	0x131
 766 022d 03       		.uleb128 0x3
 767 022e 7A020000 		.4byte	.LASF45
 768 0232 06       		.byte	0x6
 769 0233 49       		.byte	0x49
 770 0234 38020000 		.4byte	0x238
 771 0238 05       		.uleb128 0x5
 772 0239 74040000 		.4byte	.LASF47
 773 023d 04       		.byte	0x4
 774 023e 07       		.byte	0x7
 775 023f B0       		.byte	0xb0
 776 0240 51020000 		.4byte	0x251
 777 0244 06       		.uleb128 0x6
 778 0245 C6020000 		.4byte	.LASF28
 779 0249 07       		.byte	0x7
 780 024a B1       		.byte	0xb1
 781 024b 27020000 		.4byte	0x227
 782 024f 00       		.byte	0
 783 0250 00       		.byte	0
 784 0251 03       		.uleb128 0x3
 785 0252 26050000 		.4byte	.LASF48
 786 0256 06       		.byte	0x6
 787 0257 50       		.byte	0x50
 788 0258 5C020000 		.4byte	0x25c
 789 025c 05       		.uleb128 0x5
 790 025d 9F000000 		.4byte	.LASF49
 791 0261 08       		.byte	0x8
ARM GAS  /tmp/ccGgfXy6.s 			page 29


 792 0262 07       		.byte	0x7
 793 0263 B7       		.byte	0xb7
 794 0264 81020000 		.4byte	0x281
 795 0268 06       		.uleb128 0x6
 796 0269 C6020000 		.4byte	.LASF28
 797 026d 07       		.byte	0x7
 798 026e B8       		.byte	0xb8
 799 026f 27020000 		.4byte	0x227
 800 0273 00       		.byte	0
 801 0274 06       		.uleb128 0x6
 802 0275 A4030000 		.4byte	.LASF29
 803 0279 07       		.byte	0x7
 804 027a B9       		.byte	0xb9
 805 027b 27020000 		.4byte	0x227
 806 027f 04       		.byte	0x4
 807 0280 00       		.byte	0
 808 0281 03       		.uleb128 0x3
 809 0282 00000000 		.4byte	.LASF50
 810 0286 06       		.byte	0x6
 811 0287 57       		.byte	0x57
 812 0288 8C020000 		.4byte	0x28c
 813 028c 0A       		.uleb128 0xa
 814 028d 4B020000 		.4byte	.LASF51
 815 0291 1C       		.byte	0x1c
 816 0292 07       		.byte	0x7
 817 0293 9201     		.2byte	0x192
 818 0295 E8020000 		.4byte	0x2e8
 819 0299 08       		.uleb128 0x8
 820 029a 63040000 		.4byte	.LASF52
 821 029e 07       		.byte	0x7
 822 029f 9301     		.2byte	0x193
 823 02a1 51020000 		.4byte	0x251
 824 02a5 00       		.byte	0
 825 02a6 08       		.uleb128 0x8
 826 02a7 03040000 		.4byte	.LASF53
 827 02ab 07       		.byte	0x7
 828 02ac 9401     		.2byte	0x194
 829 02ae FA000000 		.4byte	0xfa
 830 02b2 08       		.byte	0x8
 831 02b3 08       		.uleb128 0x8
 832 02b4 3B030000 		.4byte	.LASF54
 833 02b8 07       		.byte	0x7
 834 02b9 9601     		.2byte	0x196
 835 02bb 30060000 		.4byte	0x630
 836 02bf 0C       		.byte	0xc
 837 02c0 08       		.uleb128 0x8
 838 02c1 45010000 		.4byte	.LASF55
 839 02c5 07       		.byte	0x7
 840 02c6 9901     		.2byte	0x199
 841 02c8 27020000 		.4byte	0x227
 842 02cc 10       		.byte	0x10
 843 02cd 08       		.uleb128 0x8
 844 02ce 02050000 		.4byte	.LASF56
 845 02d2 07       		.byte	0x7
 846 02d3 9A01     		.2byte	0x19a
 847 02d5 27020000 		.4byte	0x227
 848 02d9 14       		.byte	0x14
ARM GAS  /tmp/ccGgfXy6.s 			page 30


 849 02da 08       		.uleb128 0x8
 850 02db 5A030000 		.4byte	.LASF57
 851 02df 07       		.byte	0x7
 852 02e0 9D01     		.2byte	0x19d
 853 02e2 27020000 		.4byte	0x227
 854 02e6 18       		.byte	0x18
 855 02e7 00       		.byte	0
 856 02e8 03       		.uleb128 0x3
 857 02e9 CD040000 		.4byte	.LASF58
 858 02ed 06       		.byte	0x6
 859 02ee 5C       		.byte	0x5c
 860 02ef F3020000 		.4byte	0x2f3
 861 02f3 09       		.uleb128 0x9
 862 02f4 04       		.byte	0x4
 863 02f5 F9020000 		.4byte	0x2f9
 864 02f9 0B       		.uleb128 0xb
 865 02fa 04030000 		.4byte	0x304
 866 02fe 0C       		.uleb128 0xc
 867 02ff 04030000 		.4byte	0x304
 868 0303 00       		.byte	0
 869 0304 0D       		.uleb128 0xd
 870 0305 04       		.byte	0x4
 871 0306 03       		.uleb128 0x3
 872 0307 94030000 		.4byte	.LASF59
 873 030b 06       		.byte	0x6
 874 030c 61       		.byte	0x61
 875 030d 11030000 		.4byte	0x311
 876 0311 0A       		.uleb128 0xa
 877 0312 2A040000 		.4byte	.LASF60
 878 0316 14       		.byte	0x14
 879 0317 07       		.byte	0x7
 880 0318 6D01     		.2byte	0x16d
 881 031a 60030000 		.4byte	0x360
 882 031e 08       		.uleb128 0x8
 883 031f 9F010000 		.4byte	.LASF61
 884 0323 07       		.byte	0x7
 885 0324 6E01     		.2byte	0x16e
 886 0326 CD070000 		.4byte	0x7cd
 887 032a 00       		.byte	0
 888 032b 08       		.uleb128 0x8
 889 032c 56010000 		.4byte	.LASF62
 890 0330 07       		.byte	0x7
 891 0331 6F01     		.2byte	0x16f
 892 0333 CD070000 		.4byte	0x7cd
 893 0337 04       		.byte	0x4
 894 0338 08       		.uleb128 0x8
 895 0339 6B040000 		.4byte	.LASF63
 896 033d 07       		.byte	0x7
 897 033e 7001     		.2byte	0x170
 898 0340 26010000 		.4byte	0x126
 899 0344 08       		.byte	0x8
 900 0345 08       		.uleb128 0x8
 901 0346 66060000 		.4byte	.LASF64
 902 034a 07       		.byte	0x7
 903 034b 7101     		.2byte	0x171
 904 034d E8020000 		.4byte	0x2e8
 905 0351 0C       		.byte	0xc
ARM GAS  /tmp/ccGgfXy6.s 			page 31


 906 0352 08       		.uleb128 0x8
 907 0353 1F050000 		.4byte	.LASF65
 908 0357 07       		.byte	0x7
 909 0358 7301     		.2byte	0x173
 910 035a 04030000 		.4byte	0x304
 911 035e 10       		.byte	0x10
 912 035f 00       		.byte	0
 913 0360 03       		.uleb128 0x3
 914 0361 7C000000 		.4byte	.LASF66
 915 0365 06       		.byte	0x6
 916 0366 66       		.byte	0x66
 917 0367 6B030000 		.4byte	0x36b
 918 036b 0A       		.uleb128 0xa
 919 036c AF020000 		.4byte	.LASF67
 920 0370 10       		.byte	0x10
 921 0371 07       		.byte	0x7
 922 0372 7D01     		.2byte	0x17d
 923 0374 AD030000 		.4byte	0x3ad
 924 0378 08       		.uleb128 0x8
 925 0379 9F010000 		.4byte	.LASF61
 926 037d 07       		.byte	0x7
 927 037e 7E01     		.2byte	0x17e
 928 0380 CD070000 		.4byte	0x7cd
 929 0384 00       		.byte	0
 930 0385 08       		.uleb128 0x8
 931 0386 56010000 		.4byte	.LASF62
 932 038a 07       		.byte	0x7
 933 038b 8001     		.2byte	0x180
 934 038d CD070000 		.4byte	0x7cd
 935 0391 04       		.byte	0x4
 936 0392 08       		.uleb128 0x8
 937 0393 6B040000 		.4byte	.LASF63
 938 0397 07       		.byte	0x7
 939 0398 8201     		.2byte	0x182
 940 039a 26010000 		.4byte	0x126
 941 039e 08       		.byte	0x8
 942 039f 08       		.uleb128 0x8
 943 03a0 CD020000 		.4byte	.LASF68
 944 03a4 07       		.byte	0x7
 945 03a5 8A01     		.2byte	0x18a
 946 03a7 26010000 		.4byte	0x126
 947 03ab 0C       		.byte	0xc
 948 03ac 00       		.byte	0
 949 03ad 03       		.uleb128 0x3
 950 03ae 3A000000 		.4byte	.LASF69
 951 03b2 06       		.byte	0x6
 952 03b3 6B       		.byte	0x6b
 953 03b4 B8030000 		.4byte	0x3b8
 954 03b8 0A       		.uleb128 0xa
 955 03b9 B3030000 		.4byte	.LASF70
 956 03bd 04       		.byte	0x4
 957 03be 07       		.byte	0x7
 958 03bf A401     		.2byte	0x1a4
 959 03c1 D3030000 		.4byte	0x3d3
 960 03c5 08       		.uleb128 0x8
 961 03c6 E1040000 		.4byte	.LASF71
 962 03ca 07       		.byte	0x7
ARM GAS  /tmp/ccGgfXy6.s 			page 32


 963 03cb AC01     		.2byte	0x1ac
 964 03cd D3070000 		.4byte	0x7d3
 965 03d1 00       		.byte	0
 966 03d2 00       		.byte	0
 967 03d3 03       		.uleb128 0x3
 968 03d4 37020000 		.4byte	.LASF72
 969 03d8 06       		.byte	0x6
 970 03d9 70       		.byte	0x70
 971 03da DE030000 		.4byte	0x3de
 972 03de 0E       		.uleb128 0xe
 973 03df 08010000 		.4byte	.LASF73
 974 03e3 5001     		.2byte	0x150
 975 03e5 07       		.byte	0x7
 976 03e6 C401     		.2byte	0x1c4
 977 03e8 3A040000 		.4byte	0x43a
 978 03ec 08       		.uleb128 0x8
 979 03ed 5E010000 		.4byte	.LASF74
 980 03f1 07       		.byte	0x7
 981 03f2 C801     		.2byte	0x1c8
 982 03f4 81020000 		.4byte	0x281
 983 03f8 00       		.byte	0
 984 03f9 08       		.uleb128 0x8
 985 03fa EF000000 		.4byte	.LASF75
 986 03fe 07       		.byte	0x7
 987 03ff CC01     		.2byte	0x1cc
 988 0401 60030000 		.4byte	0x360
 989 0405 1C       		.byte	0x1c
 990 0406 07       		.uleb128 0x7
 991 0407 64626700 		.ascii	"dbg\000"
 992 040b 07       		.byte	0x7
 993 040c D001     		.2byte	0x1d0
 994 040e AD030000 		.4byte	0x3ad
 995 0412 2C       		.byte	0x2c
 996 0413 08       		.uleb128 0x8
 997 0414 69000000 		.4byte	.LASF76
 998 0418 07       		.byte	0x7
 999 0419 D401     		.2byte	0x1d4
 1000 041b 31010000 		.4byte	0x131
 1001 041f 30       		.byte	0x30
 1002 0420 07       		.uleb128 0x7
 1003 0421 746D00   		.ascii	"tm\000"
 1004 0424 07       		.byte	0x7
 1005 0425 D901     		.2byte	0x1d9
 1006 0427 DF060000 		.4byte	0x6df
 1007 042b 70       		.byte	0x70
 1008 042c 08       		.uleb128 0x8
 1009 042d 7D010000 		.4byte	.LASF77
 1010 0431 07       		.byte	0x7
 1011 0432 E501     		.2byte	0x1e5
 1012 0434 D8070000 		.4byte	0x7d8
 1013 0438 78       		.byte	0x78
 1014 0439 00       		.byte	0
 1015 043a 04       		.uleb128 0x4
 1016 043b 04       		.byte	0x4
 1017 043c 07       		.byte	0x7
 1018 043d 93020000 		.4byte	.LASF78
 1019 0441 0F       		.uleb128 0xf
ARM GAS  /tmp/ccGgfXy6.s 			page 33


 1020 0442 B8000000 		.4byte	0xb8
 1021 0446 10       		.uleb128 0x10
 1022 0447 B8000000 		.4byte	0xb8
 1023 044b 56040000 		.4byte	0x456
 1024 044f 11       		.uleb128 0x11
 1025 0450 3A040000 		.4byte	0x43a
 1026 0454 03       		.byte	0x3
 1027 0455 00       		.byte	0
 1028 0456 12       		.uleb128 0x12
 1029 0457 24       		.byte	0x24
 1030 0458 08       		.byte	0x8
 1031 0459 8A01     		.2byte	0x18a
 1032 045b D2040000 		.4byte	0x4d2
 1033 045f 07       		.uleb128 0x7
 1034 0460 41435200 		.ascii	"ACR\000"
 1035 0464 08       		.byte	0x8
 1036 0465 8C01     		.2byte	0x18c
 1037 0467 41040000 		.4byte	0x441
 1038 046b 00       		.byte	0
 1039 046c 08       		.uleb128 0x8
 1040 046d 8F030000 		.4byte	.LASF79
 1041 0471 08       		.byte	0x8
 1042 0472 8D01     		.2byte	0x18d
 1043 0474 41040000 		.4byte	0x441
 1044 0478 04       		.byte	0x4
 1045 0479 08       		.uleb128 0x8
 1046 047a 2D010000 		.4byte	.LASF80
 1047 047e 08       		.byte	0x8
 1048 047f 8E01     		.2byte	0x18e
 1049 0481 41040000 		.4byte	0x441
 1050 0485 08       		.byte	0x8
 1051 0486 07       		.uleb128 0x7
 1052 0487 535200   		.ascii	"SR\000"
 1053 048a 08       		.byte	0x8
 1054 048b 8F01     		.2byte	0x18f
 1055 048d 41040000 		.4byte	0x441
 1056 0491 0C       		.byte	0xc
 1057 0492 07       		.uleb128 0x7
 1058 0493 435200   		.ascii	"CR\000"
 1059 0496 08       		.byte	0x8
 1060 0497 9001     		.2byte	0x190
 1061 0499 41040000 		.4byte	0x441
 1062 049d 10       		.byte	0x10
 1063 049e 07       		.uleb128 0x7
 1064 049f 415200   		.ascii	"AR\000"
 1065 04a2 08       		.byte	0x8
 1066 04a3 9101     		.2byte	0x191
 1067 04a5 41040000 		.4byte	0x441
 1068 04a9 14       		.byte	0x14
 1069 04aa 08       		.uleb128 0x8
 1070 04ab 0A040000 		.4byte	.LASF81
 1071 04af 08       		.byte	0x8
 1072 04b0 9201     		.2byte	0x192
 1073 04b2 B8000000 		.4byte	0xb8
 1074 04b6 18       		.byte	0x18
 1075 04b7 07       		.uleb128 0x7
 1076 04b8 4F425200 		.ascii	"OBR\000"
ARM GAS  /tmp/ccGgfXy6.s 			page 34


 1077 04bc 08       		.byte	0x8
 1078 04bd 9301     		.2byte	0x193
 1079 04bf 41040000 		.4byte	0x441
 1080 04c3 1C       		.byte	0x1c
 1081 04c4 08       		.uleb128 0x8
 1082 04c5 9E040000 		.4byte	.LASF82
 1083 04c9 08       		.byte	0x8
 1084 04ca 9401     		.2byte	0x194
 1085 04cc 41040000 		.4byte	0x441
 1086 04d0 20       		.byte	0x20
 1087 04d1 00       		.byte	0
 1088 04d2 13       		.uleb128 0x13
 1089 04d3 D1000000 		.4byte	.LASF83
 1090 04d7 08       		.byte	0x8
 1091 04d8 9601     		.2byte	0x196
 1092 04da 56040000 		.4byte	0x456
 1093 04de 12       		.uleb128 0x12
 1094 04df 1C       		.byte	0x1c
 1095 04e0 08       		.byte	0x8
 1096 04e1 C601     		.2byte	0x1c6
 1097 04e3 1C050000 		.4byte	0x51c
 1098 04e7 08       		.uleb128 0x8
 1099 04e8 4B050000 		.4byte	.LASF84
 1100 04ec 08       		.byte	0x8
 1101 04ed C801     		.2byte	0x1c8
 1102 04ef 41040000 		.4byte	0x441
 1103 04f3 00       		.byte	0
 1104 04f4 07       		.uleb128 0x7
 1105 04f5 52435200 		.ascii	"RCR\000"
 1106 04f9 08       		.byte	0x8
 1107 04fa C901     		.2byte	0x1c9
 1108 04fc 41040000 		.4byte	0x441
 1109 0500 04       		.byte	0x4
 1110 0501 08       		.uleb128 0x8
 1111 0502 6E060000 		.4byte	.LASF85
 1112 0506 08       		.byte	0x8
 1113 0507 CA01     		.2byte	0x1ca
 1114 0509 1C050000 		.4byte	0x51c
 1115 050d 08       		.byte	0x8
 1116 050e 08       		.uleb128 0x8
 1117 050f 51050000 		.4byte	.LASF86
 1118 0513 08       		.byte	0x8
 1119 0514 CB01     		.2byte	0x1cb
 1120 0516 41040000 		.4byte	0x441
 1121 051a 18       		.byte	0x18
 1122 051b 00       		.byte	0
 1123 051c 0F       		.uleb128 0xf
 1124 051d 46040000 		.4byte	0x446
 1125 0521 13       		.uleb128 0x13
 1126 0522 78030000 		.4byte	.LASF87
 1127 0526 08       		.byte	0x8
 1128 0527 CC01     		.2byte	0x1cc
 1129 0529 DE040000 		.4byte	0x4de
 1130 052d 12       		.uleb128 0x12
 1131 052e 08       		.byte	0x8
 1132 052f 08       		.byte	0x8
 1133 0530 F201     		.2byte	0x1f2
ARM GAS  /tmp/ccGgfXy6.s 			page 35


 1134 0532 50050000 		.4byte	0x550
 1135 0536 07       		.uleb128 0x7
 1136 0537 435200   		.ascii	"CR\000"
 1137 053a 08       		.byte	0x8
 1138 053b F401     		.2byte	0x1f4
 1139 053d 41040000 		.4byte	0x441
 1140 0541 00       		.byte	0
 1141 0542 07       		.uleb128 0x7
 1142 0543 43535200 		.ascii	"CSR\000"
 1143 0547 08       		.byte	0x8
 1144 0548 F501     		.2byte	0x1f5
 1145 054a 41040000 		.4byte	0x441
 1146 054e 04       		.byte	0x4
 1147 054f 00       		.byte	0
 1148 0550 13       		.uleb128 0x13
 1149 0551 F6000000 		.4byte	.LASF88
 1150 0555 08       		.byte	0x8
 1151 0556 F601     		.2byte	0x1f6
 1152 0558 2D050000 		.4byte	0x52d
 1153 055c 12       		.uleb128 0x12
 1154 055d 34       		.byte	0x34
 1155 055e 08       		.byte	0x8
 1156 055f FB01     		.2byte	0x1fb
 1157 0561 0E060000 		.4byte	0x60e
 1158 0565 07       		.uleb128 0x7
 1159 0566 435200   		.ascii	"CR\000"
 1160 0569 08       		.byte	0x8
 1161 056a FD01     		.2byte	0x1fd
 1162 056c 41040000 		.4byte	0x441
 1163 0570 00       		.byte	0
 1164 0571 08       		.uleb128 0x8
 1165 0572 53060000 		.4byte	.LASF89
 1166 0576 08       		.byte	0x8
 1167 0577 FE01     		.2byte	0x1fe
 1168 0579 41040000 		.4byte	0x441
 1169 057d 04       		.byte	0x4
 1170 057e 07       		.uleb128 0x7
 1171 057f 43495200 		.ascii	"CIR\000"
 1172 0583 08       		.byte	0x8
 1173 0584 FF01     		.2byte	0x1ff
 1174 0586 41040000 		.4byte	0x441
 1175 058a 08       		.byte	0x8
 1176 058b 08       		.uleb128 0x8
 1177 058c 1B010000 		.4byte	.LASF90
 1178 0590 08       		.byte	0x8
 1179 0591 0002     		.2byte	0x200
 1180 0593 41040000 		.4byte	0x441
 1181 0597 0C       		.byte	0xc
 1182 0598 08       		.uleb128 0x8
 1183 0599 64030000 		.4byte	.LASF91
 1184 059d 08       		.byte	0x8
 1185 059e 0102     		.2byte	0x201
 1186 05a0 41040000 		.4byte	0x441
 1187 05a4 10       		.byte	0x10
 1188 05a5 08       		.uleb128 0x8
 1189 05a6 FE010000 		.4byte	.LASF92
 1190 05aa 08       		.byte	0x8
ARM GAS  /tmp/ccGgfXy6.s 			page 36


 1191 05ab 0202     		.2byte	0x202
 1192 05ad 41040000 		.4byte	0x441
 1193 05b1 14       		.byte	0x14
 1194 05b2 08       		.uleb128 0x8
 1195 05b3 22040000 		.4byte	.LASF93
 1196 05b7 08       		.byte	0x8
 1197 05b8 0302     		.2byte	0x203
 1198 05ba 41040000 		.4byte	0x441
 1199 05be 18       		.byte	0x18
 1200 05bf 08       		.uleb128 0x8
 1201 05c0 F2040000 		.4byte	.LASF94
 1202 05c4 08       		.byte	0x8
 1203 05c5 0402     		.2byte	0x204
 1204 05c7 41040000 		.4byte	0x441
 1205 05cb 1C       		.byte	0x1c
 1206 05cc 08       		.uleb128 0x8
 1207 05cd 46050000 		.4byte	.LASF95
 1208 05d1 08       		.byte	0x8
 1209 05d2 0502     		.2byte	0x205
 1210 05d4 41040000 		.4byte	0x441
 1211 05d8 20       		.byte	0x20
 1212 05d9 07       		.uleb128 0x7
 1213 05da 43535200 		.ascii	"CSR\000"
 1214 05de 08       		.byte	0x8
 1215 05df 0602     		.2byte	0x206
 1216 05e1 41040000 		.4byte	0x441
 1217 05e5 24       		.byte	0x24
 1218 05e6 08       		.uleb128 0x8
 1219 05e7 52030000 		.4byte	.LASF96
 1220 05eb 08       		.byte	0x8
 1221 05ec 0702     		.2byte	0x207
 1222 05ee 41040000 		.4byte	0x441
 1223 05f2 28       		.byte	0x28
 1224 05f3 08       		.uleb128 0x8
 1225 05f4 51050000 		.4byte	.LASF86
 1226 05f8 08       		.byte	0x8
 1227 05f9 0802     		.2byte	0x208
 1228 05fb 41040000 		.4byte	0x441
 1229 05ff 2C       		.byte	0x2c
 1230 0600 08       		.uleb128 0x8
 1231 0601 57050000 		.4byte	.LASF97
 1232 0605 08       		.byte	0x8
 1233 0606 0902     		.2byte	0x209
 1234 0608 41040000 		.4byte	0x441
 1235 060c 30       		.byte	0x30
 1236 060d 00       		.byte	0
 1237 060e 13       		.uleb128 0x13
 1238 060f C9010000 		.4byte	.LASF98
 1239 0613 08       		.byte	0x8
 1240 0614 0A02     		.2byte	0x20a
 1241 0616 5C050000 		.4byte	0x55c
 1242 061a 03       		.uleb128 0x3
 1243 061b 4D010000 		.4byte	.LASF99
 1244 061f 09       		.byte	0x9
 1245 0620 65       		.byte	0x65
 1246 0621 04030000 		.4byte	0x304
 1247 0625 03       		.uleb128 0x3
ARM GAS  /tmp/ccGgfXy6.s 			page 37


 1248 0626 6F020000 		.4byte	.LASF100
 1249 062a 09       		.byte	0x9
 1250 062b 6D       		.byte	0x6d
 1251 062c C3000000 		.4byte	0xc3
 1252 0630 05       		.uleb128 0x5
 1253 0631 FA040000 		.4byte	.LASF101
 1254 0635 04       		.byte	0x4
 1255 0636 09       		.byte	0x9
 1256 0637 89       		.byte	0x89
 1257 0638 49060000 		.4byte	0x649
 1258 063c 14       		.uleb128 0x14
 1259 063d 72313300 		.ascii	"r13\000"
 1260 0641 09       		.byte	0x9
 1261 0642 8A       		.byte	0x8a
 1262 0643 C4060000 		.4byte	0x6c4
 1263 0647 00       		.byte	0
 1264 0648 00       		.byte	0
 1265 0649 05       		.uleb128 0x5
 1266 064a 2E000000 		.4byte	.LASF102
 1267 064e 24       		.byte	0x24
 1268 064f 0A       		.byte	0xa
 1269 0650 FD       		.byte	0xfd
 1270 0651 C4060000 		.4byte	0x6c4
 1271 0655 07       		.uleb128 0x7
 1272 0656 723400   		.ascii	"r4\000"
 1273 0659 0A       		.byte	0xa
 1274 065a 1001     		.2byte	0x110
 1275 065c 1A060000 		.4byte	0x61a
 1276 0660 00       		.byte	0
 1277 0661 07       		.uleb128 0x7
 1278 0662 723500   		.ascii	"r5\000"
 1279 0665 0A       		.byte	0xa
 1280 0666 1101     		.2byte	0x111
 1281 0668 1A060000 		.4byte	0x61a
 1282 066c 04       		.byte	0x4
 1283 066d 07       		.uleb128 0x7
 1284 066e 723600   		.ascii	"r6\000"
 1285 0671 0A       		.byte	0xa
 1286 0672 1201     		.2byte	0x112
 1287 0674 1A060000 		.4byte	0x61a
 1288 0678 08       		.byte	0x8
 1289 0679 07       		.uleb128 0x7
 1290 067a 723700   		.ascii	"r7\000"
 1291 067d 0A       		.byte	0xa
 1292 067e 1301     		.2byte	0x113
 1293 0680 1A060000 		.4byte	0x61a
 1294 0684 0C       		.byte	0xc
 1295 0685 07       		.uleb128 0x7
 1296 0686 723800   		.ascii	"r8\000"
 1297 0689 0A       		.byte	0xa
 1298 068a 1401     		.2byte	0x114
 1299 068c 1A060000 		.4byte	0x61a
 1300 0690 10       		.byte	0x10
 1301 0691 07       		.uleb128 0x7
 1302 0692 723900   		.ascii	"r9\000"
 1303 0695 0A       		.byte	0xa
 1304 0696 1501     		.2byte	0x115
ARM GAS  /tmp/ccGgfXy6.s 			page 38


 1305 0698 1A060000 		.4byte	0x61a
 1306 069c 14       		.byte	0x14
 1307 069d 07       		.uleb128 0x7
 1308 069e 72313000 		.ascii	"r10\000"
 1309 06a2 0A       		.byte	0xa
 1310 06a3 1601     		.2byte	0x116
 1311 06a5 1A060000 		.4byte	0x61a
 1312 06a9 18       		.byte	0x18
 1313 06aa 07       		.uleb128 0x7
 1314 06ab 72313100 		.ascii	"r11\000"
 1315 06af 0A       		.byte	0xa
 1316 06b0 1701     		.2byte	0x117
 1317 06b2 1A060000 		.4byte	0x61a
 1318 06b6 1C       		.byte	0x1c
 1319 06b7 07       		.uleb128 0x7
 1320 06b8 6C7200   		.ascii	"lr\000"
 1321 06bb 0A       		.byte	0xa
 1322 06bc 1801     		.2byte	0x118
 1323 06be 1A060000 		.4byte	0x61a
 1324 06c2 20       		.byte	0x20
 1325 06c3 00       		.byte	0
 1326 06c4 09       		.uleb128 0x9
 1327 06c5 04       		.byte	0x4
 1328 06c6 49060000 		.4byte	0x649
 1329 06ca 15       		.uleb128 0x15
 1330 06cb 04       		.byte	0x4
 1331 06cc 0B       		.byte	0xb
 1332 06cd 38       		.byte	0x38
 1333 06ce DF060000 		.4byte	0x6df
 1334 06d2 06       		.uleb128 0x6
 1335 06d3 EB040000 		.4byte	.LASF103
 1336 06d7 0B       		.byte	0xb
 1337 06d8 3C       		.byte	0x3c
 1338 06d9 CE000000 		.4byte	0xce
 1339 06dd 00       		.byte	0
 1340 06de 00       		.byte	0
 1341 06df 03       		.uleb128 0x3
 1342 06e0 41030000 		.4byte	.LASF104
 1343 06e4 0B       		.byte	0xb
 1344 06e5 3D       		.byte	0x3d
 1345 06e6 CA060000 		.4byte	0x6ca
 1346 06ea 16       		.uleb128 0x16
 1347 06eb 04       		.byte	0x4
 1348 06ec 07       		.byte	0x7
 1349 06ed FA       		.byte	0xfa
 1350 06ee 53070000 		.4byte	0x753
 1351 06f2 17       		.uleb128 0x17
 1352 06f3 14000000 		.4byte	.LASF105
 1353 06f7 07       		.byte	0x7
 1354 06f8 0101     		.2byte	0x101
 1355 06fa 05010000 		.4byte	0x105
 1356 06fe 17       		.uleb128 0x17
 1357 06ff 60000000 		.4byte	.LASF106
 1358 0703 07       		.byte	0x7
 1359 0704 0801     		.2byte	0x108
 1360 0706 05010000 		.4byte	0x105
 1361 070a 17       		.uleb128 0x17
ARM GAS  /tmp/ccGgfXy6.s 			page 39


 1362 070b 45060000 		.4byte	.LASF107
 1363 070f 07       		.byte	0x7
 1364 0710 0F01     		.2byte	0x10f
 1365 0712 04030000 		.4byte	0x304
 1366 0716 17       		.uleb128 0x17
 1367 0717 02010000 		.4byte	.LASF108
 1368 071b 07       		.byte	0x7
 1369 071c 1601     		.2byte	0x116
 1370 071e 53070000 		.4byte	0x753
 1371 0722 17       		.uleb128 0x17
 1372 0723 74000000 		.4byte	.LASF109
 1373 0727 07       		.byte	0x7
 1374 0728 1B01     		.2byte	0x11b
 1375 072a 05010000 		.4byte	0x105
 1376 072e 17       		.uleb128 0x17
 1377 072f B7010000 		.4byte	.LASF110
 1378 0733 07       		.byte	0x7
 1379 0734 2401     		.2byte	0x124
 1380 0736 7E070000 		.4byte	0x77e
 1381 073a 17       		.uleb128 0x17
 1382 073b 5C040000 		.4byte	.LASF111
 1383 073f 07       		.byte	0x7
 1384 0740 2D01     		.2byte	0x12d
 1385 0742 B5070000 		.4byte	0x7b5
 1386 0746 17       		.uleb128 0x17
 1387 0747 13040000 		.4byte	.LASF112
 1388 074b 07       		.byte	0x7
 1389 074c 3501     		.2byte	0x135
 1390 074e 10010000 		.4byte	0x110
 1391 0752 00       		.byte	0
 1392 0753 09       		.uleb128 0x9
 1393 0754 04       		.byte	0x4
 1394 0755 1C020000 		.4byte	0x21c
 1395 0759 05       		.uleb128 0x5
 1396 075a 3B040000 		.4byte	.LASF113
 1397 075e 0C       		.byte	0xc
 1398 075f 0C       		.byte	0xc
 1399 0760 34       		.byte	0x34
 1400 0761 7E070000 		.4byte	0x77e
 1401 0765 06       		.uleb128 0x6
 1402 0766 3D010000 		.4byte	.LASF114
 1403 076a 0C       		.byte	0xc
 1404 076b 35       		.byte	0x35
 1405 076c 51020000 		.4byte	0x251
 1406 0770 00       		.byte	0
 1407 0771 06       		.uleb128 0x6
 1408 0772 D5010000 		.4byte	.LASF115
 1409 0776 0C       		.byte	0xc
 1410 0777 37       		.byte	0x37
 1411 0778 1B010000 		.4byte	0x11b
 1412 077c 08       		.byte	0x8
 1413 077d 00       		.byte	0
 1414 077e 09       		.uleb128 0x9
 1415 077f 04       		.byte	0x4
 1416 0780 59070000 		.4byte	0x759
 1417 0784 05       		.uleb128 0x5
 1418 0785 36050000 		.4byte	.LASF116
ARM GAS  /tmp/ccGgfXy6.s 			page 40


 1419 0789 10       		.byte	0x10
 1420 078a 0D       		.byte	0xd
 1421 078b 39       		.byte	0x39
 1422 078c B5070000 		.4byte	0x7b5
 1423 0790 06       		.uleb128 0x6
 1424 0791 E7000000 		.4byte	.LASF117
 1425 0795 0D       		.byte	0xd
 1426 0796 3A       		.byte	0x3a
 1427 0797 51020000 		.4byte	0x251
 1428 079b 00       		.byte	0
 1429 079c 06       		.uleb128 0x6
 1430 079d 58060000 		.4byte	.LASF118
 1431 07a1 0D       		.byte	0xd
 1432 07a2 3C       		.byte	0x3c
 1433 07a3 27020000 		.4byte	0x227
 1434 07a7 08       		.byte	0x8
 1435 07a8 06       		.uleb128 0x6
 1436 07a9 B1040000 		.4byte	.LASF119
 1437 07ad 0D       		.byte	0xd
 1438 07ae 3E       		.byte	0x3e
 1439 07af F3070000 		.4byte	0x7f3
 1440 07b3 0C       		.byte	0xc
 1441 07b4 00       		.byte	0
 1442 07b5 09       		.uleb128 0x9
 1443 07b6 04       		.byte	0x4
 1444 07b7 84070000 		.4byte	0x784
 1445 07bb 09       		.uleb128 0x9
 1446 07bc 04       		.byte	0x4
 1447 07bd C1070000 		.4byte	0x7c1
 1448 07c1 18       		.uleb128 0x18
 1449 07c2 C6070000 		.4byte	0x7c6
 1450 07c6 04       		.uleb128 0x4
 1451 07c7 01       		.byte	0x1
 1452 07c8 08       		.byte	0x8
 1453 07c9 A3040000 		.4byte	.LASF120
 1454 07cd 09       		.uleb128 0x9
 1455 07ce 04       		.byte	0x4
 1456 07cf 06030000 		.4byte	0x306
 1457 07d3 0F       		.uleb128 0xf
 1458 07d4 BB070000 		.4byte	0x7bb
 1459 07d8 10       		.uleb128 0x10
 1460 07d9 25060000 		.4byte	0x625
 1461 07dd E8070000 		.4byte	0x7e8
 1462 07e1 11       		.uleb128 0x11
 1463 07e2 3A040000 		.4byte	0x43a
 1464 07e6 1A       		.byte	0x1a
 1465 07e7 00       		.byte	0
 1466 07e8 03       		.uleb128 0x3
 1467 07e9 75010000 		.4byte	.LASF121
 1468 07ed 0D       		.byte	0xd
 1469 07ee 34       		.byte	0x34
 1470 07ef 84070000 		.4byte	0x784
 1471 07f3 09       		.uleb128 0x9
 1472 07f4 04       		.byte	0x4
 1473 07f5 E8070000 		.4byte	0x7e8
 1474 07f9 04       		.uleb128 0x4
 1475 07fa 01       		.byte	0x1
ARM GAS  /tmp/ccGgfXy6.s 			page 41


 1476 07fb 02       		.byte	0x2
 1477 07fc C3030000 		.4byte	.LASF122
 1478 0800 19       		.uleb128 0x19
 1479 0801 D9020000 		.4byte	.LASF128
 1480 0805 01       		.byte	0x1
 1481 0806 36       		.byte	0x36
 1482 0807 01       		.byte	0x1
 1483 0808 1A       		.uleb128 0x1a
 1484 0809 0A050000 		.4byte	.LASF129
 1485 080d 01       		.byte	0x1
 1486 080e 69       		.byte	0x69
 1487 080f 00000000 		.4byte	.LFB273
 1488 0813 80000000 		.4byte	.LFE273-.LFB273
 1489 0817 01       		.uleb128 0x1
 1490 0818 9C       		.byte	0x9c
 1491 0819 36080000 		.4byte	0x836
 1492 081d 1B       		.uleb128 0x1b
 1493 081e 00080000 		.4byte	0x800
 1494 0822 02000000 		.4byte	.LBB4
 1495 0826 00000000 		.4byte	.Ldebug_ranges0+0
 1496 082a 01       		.byte	0x1
 1497 082b 74       		.byte	0x74
 1498 082c 1C       		.uleb128 0x1c
 1499 082d 5E000000 		.4byte	.LVL0
 1500 0831 74080000 		.4byte	0x874
 1501 0835 00       		.byte	0
 1502 0836 1D       		.uleb128 0x1d
 1503 0837 64010000 		.4byte	.LASF130
 1504 083b 01       		.byte	0x1
 1505 083c 90       		.byte	0x90
 1506 083d 00000000 		.4byte	.LFB274
 1507 0841 A0000000 		.4byte	.LFE274-.LFB274
 1508 0845 01       		.uleb128 0x1
 1509 0846 9C       		.byte	0x9c
 1510 0847 1E       		.uleb128 0x1e
 1511 0848 92000000 		.4byte	.LASF123
 1512 084c 0E       		.byte	0xe
 1513 084d FA06     		.2byte	0x6fa
 1514 084f 53080000 		.4byte	0x853
 1515 0853 0F       		.uleb128 0xf
 1516 0854 AD000000 		.4byte	0xad
 1517 0858 1F       		.uleb128 0x1f
 1518 0859 A7010000 		.4byte	.LASF124
 1519 085d 01       		.byte	0x1
 1520 085e 27       		.byte	0x27
 1521 085f B8000000 		.4byte	0xb8
 1522 0863 05       		.uleb128 0x5
 1523 0864 03       		.byte	0x3
 1524 0865 00000000 		.4byte	SystemCoreClock
 1525 0869 20       		.uleb128 0x20
 1526 086a 636800   		.ascii	"ch\000"
 1527 086d 07       		.byte	0x7
 1528 086e 0B02     		.2byte	0x20b
 1529 0870 D3030000 		.4byte	0x3d3
 1530 0874 21       		.uleb128 0x21
 1531 0875 84040000 		.4byte	.LASF131
 1532 0879 0F       		.byte	0xf
ARM GAS  /tmp/ccGgfXy6.s 			page 42


 1533 087a D401     		.2byte	0x1d4
 1534 087c 00       		.byte	0
 1535              		.section	.debug_abbrev,"",%progbits
 1536              	.Ldebug_abbrev0:
 1537 0000 01       		.uleb128 0x1
 1538 0001 11       		.uleb128 0x11
 1539 0002 01       		.byte	0x1
 1540 0003 25       		.uleb128 0x25
 1541 0004 0E       		.uleb128 0xe
 1542 0005 13       		.uleb128 0x13
 1543 0006 0B       		.uleb128 0xb
 1544 0007 03       		.uleb128 0x3
 1545 0008 0E       		.uleb128 0xe
 1546 0009 1B       		.uleb128 0x1b
 1547 000a 0E       		.uleb128 0xe
 1548 000b 55       		.uleb128 0x55
 1549 000c 17       		.uleb128 0x17
 1550 000d 11       		.uleb128 0x11
 1551 000e 01       		.uleb128 0x1
 1552 000f 10       		.uleb128 0x10
 1553 0010 17       		.uleb128 0x17
 1554 0011 00       		.byte	0
 1555 0012 00       		.byte	0
 1556 0013 02       		.uleb128 0x2
 1557 0014 24       		.uleb128 0x24
 1558 0015 00       		.byte	0
 1559 0016 0B       		.uleb128 0xb
 1560 0017 0B       		.uleb128 0xb
 1561 0018 3E       		.uleb128 0x3e
 1562 0019 0B       		.uleb128 0xb
 1563 001a 03       		.uleb128 0x3
 1564 001b 08       		.uleb128 0x8
 1565 001c 00       		.byte	0
 1566 001d 00       		.byte	0
 1567 001e 03       		.uleb128 0x3
 1568 001f 16       		.uleb128 0x16
 1569 0020 00       		.byte	0
 1570 0021 03       		.uleb128 0x3
 1571 0022 0E       		.uleb128 0xe
 1572 0023 3A       		.uleb128 0x3a
 1573 0024 0B       		.uleb128 0xb
 1574 0025 3B       		.uleb128 0x3b
 1575 0026 0B       		.uleb128 0xb
 1576 0027 49       		.uleb128 0x49
 1577 0028 13       		.uleb128 0x13
 1578 0029 00       		.byte	0
 1579 002a 00       		.byte	0
 1580 002b 04       		.uleb128 0x4
 1581 002c 24       		.uleb128 0x24
 1582 002d 00       		.byte	0
 1583 002e 0B       		.uleb128 0xb
 1584 002f 0B       		.uleb128 0xb
 1585 0030 3E       		.uleb128 0x3e
 1586 0031 0B       		.uleb128 0xb
 1587 0032 03       		.uleb128 0x3
 1588 0033 0E       		.uleb128 0xe
 1589 0034 00       		.byte	0
ARM GAS  /tmp/ccGgfXy6.s 			page 43


 1590 0035 00       		.byte	0
 1591 0036 05       		.uleb128 0x5
 1592 0037 13       		.uleb128 0x13
 1593 0038 01       		.byte	0x1
 1594 0039 03       		.uleb128 0x3
 1595 003a 0E       		.uleb128 0xe
 1596 003b 0B       		.uleb128 0xb
 1597 003c 0B       		.uleb128 0xb
 1598 003d 3A       		.uleb128 0x3a
 1599 003e 0B       		.uleb128 0xb
 1600 003f 3B       		.uleb128 0x3b
 1601 0040 0B       		.uleb128 0xb
 1602 0041 01       		.uleb128 0x1
 1603 0042 13       		.uleb128 0x13
 1604 0043 00       		.byte	0
 1605 0044 00       		.byte	0
 1606 0045 06       		.uleb128 0x6
 1607 0046 0D       		.uleb128 0xd
 1608 0047 00       		.byte	0
 1609 0048 03       		.uleb128 0x3
 1610 0049 0E       		.uleb128 0xe
 1611 004a 3A       		.uleb128 0x3a
 1612 004b 0B       		.uleb128 0xb
 1613 004c 3B       		.uleb128 0x3b
 1614 004d 0B       		.uleb128 0xb
 1615 004e 49       		.uleb128 0x49
 1616 004f 13       		.uleb128 0x13
 1617 0050 38       		.uleb128 0x38
 1618 0051 0B       		.uleb128 0xb
 1619 0052 00       		.byte	0
 1620 0053 00       		.byte	0
 1621 0054 07       		.uleb128 0x7
 1622 0055 0D       		.uleb128 0xd
 1623 0056 00       		.byte	0
 1624 0057 03       		.uleb128 0x3
 1625 0058 08       		.uleb128 0x8
 1626 0059 3A       		.uleb128 0x3a
 1627 005a 0B       		.uleb128 0xb
 1628 005b 3B       		.uleb128 0x3b
 1629 005c 05       		.uleb128 0x5
 1630 005d 49       		.uleb128 0x49
 1631 005e 13       		.uleb128 0x13
 1632 005f 38       		.uleb128 0x38
 1633 0060 0B       		.uleb128 0xb
 1634 0061 00       		.byte	0
 1635 0062 00       		.byte	0
 1636 0063 08       		.uleb128 0x8
 1637 0064 0D       		.uleb128 0xd
 1638 0065 00       		.byte	0
 1639 0066 03       		.uleb128 0x3
 1640 0067 0E       		.uleb128 0xe
 1641 0068 3A       		.uleb128 0x3a
 1642 0069 0B       		.uleb128 0xb
 1643 006a 3B       		.uleb128 0x3b
 1644 006b 05       		.uleb128 0x5
 1645 006c 49       		.uleb128 0x49
 1646 006d 13       		.uleb128 0x13
ARM GAS  /tmp/ccGgfXy6.s 			page 44


 1647 006e 38       		.uleb128 0x38
 1648 006f 0B       		.uleb128 0xb
 1649 0070 00       		.byte	0
 1650 0071 00       		.byte	0
 1651 0072 09       		.uleb128 0x9
 1652 0073 0F       		.uleb128 0xf
 1653 0074 00       		.byte	0
 1654 0075 0B       		.uleb128 0xb
 1655 0076 0B       		.uleb128 0xb
 1656 0077 49       		.uleb128 0x49
 1657 0078 13       		.uleb128 0x13
 1658 0079 00       		.byte	0
 1659 007a 00       		.byte	0
 1660 007b 0A       		.uleb128 0xa
 1661 007c 13       		.uleb128 0x13
 1662 007d 01       		.byte	0x1
 1663 007e 03       		.uleb128 0x3
 1664 007f 0E       		.uleb128 0xe
 1665 0080 0B       		.uleb128 0xb
 1666 0081 0B       		.uleb128 0xb
 1667 0082 3A       		.uleb128 0x3a
 1668 0083 0B       		.uleb128 0xb
 1669 0084 3B       		.uleb128 0x3b
 1670 0085 05       		.uleb128 0x5
 1671 0086 01       		.uleb128 0x1
 1672 0087 13       		.uleb128 0x13
 1673 0088 00       		.byte	0
 1674 0089 00       		.byte	0
 1675 008a 0B       		.uleb128 0xb
 1676 008b 15       		.uleb128 0x15
 1677 008c 01       		.byte	0x1
 1678 008d 27       		.uleb128 0x27
 1679 008e 19       		.uleb128 0x19
 1680 008f 01       		.uleb128 0x1
 1681 0090 13       		.uleb128 0x13
 1682 0091 00       		.byte	0
 1683 0092 00       		.byte	0
 1684 0093 0C       		.uleb128 0xc
 1685 0094 05       		.uleb128 0x5
 1686 0095 00       		.byte	0
 1687 0096 49       		.uleb128 0x49
 1688 0097 13       		.uleb128 0x13
 1689 0098 00       		.byte	0
 1690 0099 00       		.byte	0
 1691 009a 0D       		.uleb128 0xd
 1692 009b 0F       		.uleb128 0xf
 1693 009c 00       		.byte	0
 1694 009d 0B       		.uleb128 0xb
 1695 009e 0B       		.uleb128 0xb
 1696 009f 00       		.byte	0
 1697 00a0 00       		.byte	0
 1698 00a1 0E       		.uleb128 0xe
 1699 00a2 13       		.uleb128 0x13
 1700 00a3 01       		.byte	0x1
 1701 00a4 03       		.uleb128 0x3
 1702 00a5 0E       		.uleb128 0xe
 1703 00a6 0B       		.uleb128 0xb
ARM GAS  /tmp/ccGgfXy6.s 			page 45


 1704 00a7 05       		.uleb128 0x5
 1705 00a8 3A       		.uleb128 0x3a
 1706 00a9 0B       		.uleb128 0xb
 1707 00aa 3B       		.uleb128 0x3b
 1708 00ab 05       		.uleb128 0x5
 1709 00ac 01       		.uleb128 0x1
 1710 00ad 13       		.uleb128 0x13
 1711 00ae 00       		.byte	0
 1712 00af 00       		.byte	0
 1713 00b0 0F       		.uleb128 0xf
 1714 00b1 35       		.uleb128 0x35
 1715 00b2 00       		.byte	0
 1716 00b3 49       		.uleb128 0x49
 1717 00b4 13       		.uleb128 0x13
 1718 00b5 00       		.byte	0
 1719 00b6 00       		.byte	0
 1720 00b7 10       		.uleb128 0x10
 1721 00b8 01       		.uleb128 0x1
 1722 00b9 01       		.byte	0x1
 1723 00ba 49       		.uleb128 0x49
 1724 00bb 13       		.uleb128 0x13
 1725 00bc 01       		.uleb128 0x1
 1726 00bd 13       		.uleb128 0x13
 1727 00be 00       		.byte	0
 1728 00bf 00       		.byte	0
 1729 00c0 11       		.uleb128 0x11
 1730 00c1 21       		.uleb128 0x21
 1731 00c2 00       		.byte	0
 1732 00c3 49       		.uleb128 0x49
 1733 00c4 13       		.uleb128 0x13
 1734 00c5 2F       		.uleb128 0x2f
 1735 00c6 0B       		.uleb128 0xb
 1736 00c7 00       		.byte	0
 1737 00c8 00       		.byte	0
 1738 00c9 12       		.uleb128 0x12
 1739 00ca 13       		.uleb128 0x13
 1740 00cb 01       		.byte	0x1
 1741 00cc 0B       		.uleb128 0xb
 1742 00cd 0B       		.uleb128 0xb
 1743 00ce 3A       		.uleb128 0x3a
 1744 00cf 0B       		.uleb128 0xb
 1745 00d0 3B       		.uleb128 0x3b
 1746 00d1 05       		.uleb128 0x5
 1747 00d2 01       		.uleb128 0x1
 1748 00d3 13       		.uleb128 0x13
 1749 00d4 00       		.byte	0
 1750 00d5 00       		.byte	0
 1751 00d6 13       		.uleb128 0x13
 1752 00d7 16       		.uleb128 0x16
 1753 00d8 00       		.byte	0
 1754 00d9 03       		.uleb128 0x3
 1755 00da 0E       		.uleb128 0xe
 1756 00db 3A       		.uleb128 0x3a
 1757 00dc 0B       		.uleb128 0xb
 1758 00dd 3B       		.uleb128 0x3b
 1759 00de 05       		.uleb128 0x5
 1760 00df 49       		.uleb128 0x49
ARM GAS  /tmp/ccGgfXy6.s 			page 46


 1761 00e0 13       		.uleb128 0x13
 1762 00e1 00       		.byte	0
 1763 00e2 00       		.byte	0
 1764 00e3 14       		.uleb128 0x14
 1765 00e4 0D       		.uleb128 0xd
 1766 00e5 00       		.byte	0
 1767 00e6 03       		.uleb128 0x3
 1768 00e7 08       		.uleb128 0x8
 1769 00e8 3A       		.uleb128 0x3a
 1770 00e9 0B       		.uleb128 0xb
 1771 00ea 3B       		.uleb128 0x3b
 1772 00eb 0B       		.uleb128 0xb
 1773 00ec 49       		.uleb128 0x49
 1774 00ed 13       		.uleb128 0x13
 1775 00ee 38       		.uleb128 0x38
 1776 00ef 0B       		.uleb128 0xb
 1777 00f0 00       		.byte	0
 1778 00f1 00       		.byte	0
 1779 00f2 15       		.uleb128 0x15
 1780 00f3 13       		.uleb128 0x13
 1781 00f4 01       		.byte	0x1
 1782 00f5 0B       		.uleb128 0xb
 1783 00f6 0B       		.uleb128 0xb
 1784 00f7 3A       		.uleb128 0x3a
 1785 00f8 0B       		.uleb128 0xb
 1786 00f9 3B       		.uleb128 0x3b
 1787 00fa 0B       		.uleb128 0xb
 1788 00fb 01       		.uleb128 0x1
 1789 00fc 13       		.uleb128 0x13
 1790 00fd 00       		.byte	0
 1791 00fe 00       		.byte	0
 1792 00ff 16       		.uleb128 0x16
 1793 0100 17       		.uleb128 0x17
 1794 0101 01       		.byte	0x1
 1795 0102 0B       		.uleb128 0xb
 1796 0103 0B       		.uleb128 0xb
 1797 0104 3A       		.uleb128 0x3a
 1798 0105 0B       		.uleb128 0xb
 1799 0106 3B       		.uleb128 0x3b
 1800 0107 0B       		.uleb128 0xb
 1801 0108 01       		.uleb128 0x1
 1802 0109 13       		.uleb128 0x13
 1803 010a 00       		.byte	0
 1804 010b 00       		.byte	0
 1805 010c 17       		.uleb128 0x17
 1806 010d 0D       		.uleb128 0xd
 1807 010e 00       		.byte	0
 1808 010f 03       		.uleb128 0x3
 1809 0110 0E       		.uleb128 0xe
 1810 0111 3A       		.uleb128 0x3a
 1811 0112 0B       		.uleb128 0xb
 1812 0113 3B       		.uleb128 0x3b
 1813 0114 05       		.uleb128 0x5
 1814 0115 49       		.uleb128 0x49
 1815 0116 13       		.uleb128 0x13
 1816 0117 00       		.byte	0
 1817 0118 00       		.byte	0
ARM GAS  /tmp/ccGgfXy6.s 			page 47


 1818 0119 18       		.uleb128 0x18
 1819 011a 26       		.uleb128 0x26
 1820 011b 00       		.byte	0
 1821 011c 49       		.uleb128 0x49
 1822 011d 13       		.uleb128 0x13
 1823 011e 00       		.byte	0
 1824 011f 00       		.byte	0
 1825 0120 19       		.uleb128 0x19
 1826 0121 2E       		.uleb128 0x2e
 1827 0122 00       		.byte	0
 1828 0123 03       		.uleb128 0x3
 1829 0124 0E       		.uleb128 0xe
 1830 0125 3A       		.uleb128 0x3a
 1831 0126 0B       		.uleb128 0xb
 1832 0127 3B       		.uleb128 0x3b
 1833 0128 0B       		.uleb128 0xb
 1834 0129 27       		.uleb128 0x27
 1835 012a 19       		.uleb128 0x19
 1836 012b 20       		.uleb128 0x20
 1837 012c 0B       		.uleb128 0xb
 1838 012d 00       		.byte	0
 1839 012e 00       		.byte	0
 1840 012f 1A       		.uleb128 0x1a
 1841 0130 2E       		.uleb128 0x2e
 1842 0131 01       		.byte	0x1
 1843 0132 3F       		.uleb128 0x3f
 1844 0133 19       		.uleb128 0x19
 1845 0134 03       		.uleb128 0x3
 1846 0135 0E       		.uleb128 0xe
 1847 0136 3A       		.uleb128 0x3a
 1848 0137 0B       		.uleb128 0xb
 1849 0138 3B       		.uleb128 0x3b
 1850 0139 0B       		.uleb128 0xb
 1851 013a 27       		.uleb128 0x27
 1852 013b 19       		.uleb128 0x19
 1853 013c 11       		.uleb128 0x11
 1854 013d 01       		.uleb128 0x1
 1855 013e 12       		.uleb128 0x12
 1856 013f 06       		.uleb128 0x6
 1857 0140 40       		.uleb128 0x40
 1858 0141 18       		.uleb128 0x18
 1859 0142 9742     		.uleb128 0x2117
 1860 0144 19       		.uleb128 0x19
 1861 0145 01       		.uleb128 0x1
 1862 0146 13       		.uleb128 0x13
 1863 0147 00       		.byte	0
 1864 0148 00       		.byte	0
 1865 0149 1B       		.uleb128 0x1b
 1866 014a 1D       		.uleb128 0x1d
 1867 014b 00       		.byte	0
 1868 014c 31       		.uleb128 0x31
 1869 014d 13       		.uleb128 0x13
 1870 014e 52       		.uleb128 0x52
 1871 014f 01       		.uleb128 0x1
 1872 0150 55       		.uleb128 0x55
 1873 0151 17       		.uleb128 0x17
 1874 0152 58       		.uleb128 0x58
ARM GAS  /tmp/ccGgfXy6.s 			page 48


 1875 0153 0B       		.uleb128 0xb
 1876 0154 59       		.uleb128 0x59
 1877 0155 0B       		.uleb128 0xb
 1878 0156 00       		.byte	0
 1879 0157 00       		.byte	0
 1880 0158 1C       		.uleb128 0x1c
 1881 0159 898201   		.uleb128 0x4109
 1882 015c 00       		.byte	0
 1883 015d 11       		.uleb128 0x11
 1884 015e 01       		.uleb128 0x1
 1885 015f 31       		.uleb128 0x31
 1886 0160 13       		.uleb128 0x13
 1887 0161 00       		.byte	0
 1888 0162 00       		.byte	0
 1889 0163 1D       		.uleb128 0x1d
 1890 0164 2E       		.uleb128 0x2e
 1891 0165 00       		.byte	0
 1892 0166 3F       		.uleb128 0x3f
 1893 0167 19       		.uleb128 0x19
 1894 0168 03       		.uleb128 0x3
 1895 0169 0E       		.uleb128 0xe
 1896 016a 3A       		.uleb128 0x3a
 1897 016b 0B       		.uleb128 0xb
 1898 016c 3B       		.uleb128 0x3b
 1899 016d 0B       		.uleb128 0xb
 1900 016e 27       		.uleb128 0x27
 1901 016f 19       		.uleb128 0x19
 1902 0170 11       		.uleb128 0x11
 1903 0171 01       		.uleb128 0x1
 1904 0172 12       		.uleb128 0x12
 1905 0173 06       		.uleb128 0x6
 1906 0174 40       		.uleb128 0x40
 1907 0175 18       		.uleb128 0x18
 1908 0176 9742     		.uleb128 0x2117
 1909 0178 19       		.uleb128 0x19
 1910 0179 00       		.byte	0
 1911 017a 00       		.byte	0
 1912 017b 1E       		.uleb128 0x1e
 1913 017c 34       		.uleb128 0x34
 1914 017d 00       		.byte	0
 1915 017e 03       		.uleb128 0x3
 1916 017f 0E       		.uleb128 0xe
 1917 0180 3A       		.uleb128 0x3a
 1918 0181 0B       		.uleb128 0xb
 1919 0182 3B       		.uleb128 0x3b
 1920 0183 05       		.uleb128 0x5
 1921 0184 49       		.uleb128 0x49
 1922 0185 13       		.uleb128 0x13
 1923 0186 3F       		.uleb128 0x3f
 1924 0187 19       		.uleb128 0x19
 1925 0188 3C       		.uleb128 0x3c
 1926 0189 19       		.uleb128 0x19
 1927 018a 00       		.byte	0
 1928 018b 00       		.byte	0
 1929 018c 1F       		.uleb128 0x1f
 1930 018d 34       		.uleb128 0x34
 1931 018e 00       		.byte	0
ARM GAS  /tmp/ccGgfXy6.s 			page 49


 1932 018f 03       		.uleb128 0x3
 1933 0190 0E       		.uleb128 0xe
 1934 0191 3A       		.uleb128 0x3a
 1935 0192 0B       		.uleb128 0xb
 1936 0193 3B       		.uleb128 0x3b
 1937 0194 0B       		.uleb128 0xb
 1938 0195 49       		.uleb128 0x49
 1939 0196 13       		.uleb128 0x13
 1940 0197 3F       		.uleb128 0x3f
 1941 0198 19       		.uleb128 0x19
 1942 0199 02       		.uleb128 0x2
 1943 019a 18       		.uleb128 0x18
 1944 019b 00       		.byte	0
 1945 019c 00       		.byte	0
 1946 019d 20       		.uleb128 0x20
 1947 019e 34       		.uleb128 0x34
 1948 019f 00       		.byte	0
 1949 01a0 03       		.uleb128 0x3
 1950 01a1 08       		.uleb128 0x8
 1951 01a2 3A       		.uleb128 0x3a
 1952 01a3 0B       		.uleb128 0xb
 1953 01a4 3B       		.uleb128 0x3b
 1954 01a5 05       		.uleb128 0x5
 1955 01a6 49       		.uleb128 0x49
 1956 01a7 13       		.uleb128 0x13
 1957 01a8 3F       		.uleb128 0x3f
 1958 01a9 19       		.uleb128 0x19
 1959 01aa 3C       		.uleb128 0x3c
 1960 01ab 19       		.uleb128 0x19
 1961 01ac 00       		.byte	0
 1962 01ad 00       		.byte	0
 1963 01ae 21       		.uleb128 0x21
 1964 01af 2E       		.uleb128 0x2e
 1965 01b0 00       		.byte	0
 1966 01b1 3F       		.uleb128 0x3f
 1967 01b2 19       		.uleb128 0x19
 1968 01b3 03       		.uleb128 0x3
 1969 01b4 0E       		.uleb128 0xe
 1970 01b5 3A       		.uleb128 0x3a
 1971 01b6 0B       		.uleb128 0xb
 1972 01b7 3B       		.uleb128 0x3b
 1973 01b8 05       		.uleb128 0x5
 1974 01b9 27       		.uleb128 0x27
 1975 01ba 19       		.uleb128 0x19
 1976 01bb 3C       		.uleb128 0x3c
 1977 01bc 19       		.uleb128 0x19
 1978 01bd 00       		.byte	0
 1979 01be 00       		.byte	0
 1980 01bf 00       		.byte	0
 1981              		.section	.debug_aranges,"",%progbits
 1982 0000 24000000 		.4byte	0x24
 1983 0004 0200     		.2byte	0x2
 1984 0006 00000000 		.4byte	.Ldebug_info0
 1985 000a 04       		.byte	0x4
 1986 000b 00       		.byte	0
 1987 000c 0000     		.2byte	0
 1988 000e 0000     		.2byte	0
ARM GAS  /tmp/ccGgfXy6.s 			page 50


 1989 0010 00000000 		.4byte	.LFB273
 1990 0014 80000000 		.4byte	.LFE273-.LFB273
 1991 0018 00000000 		.4byte	.LFB274
 1992 001c A0000000 		.4byte	.LFE274-.LFB274
 1993 0020 00000000 		.4byte	0
 1994 0024 00000000 		.4byte	0
 1995              		.section	.debug_ranges,"",%progbits
 1996              	.Ldebug_ranges0:
 1997 0000 02000000 		.4byte	.LBB4
 1998 0004 04000000 		.4byte	.LBE4
 1999 0008 26000000 		.4byte	.LBB7
 2000 000c 5A000000 		.4byte	.LBE7
 2001 0010 00000000 		.4byte	0
 2002 0014 00000000 		.4byte	0
 2003 0018 00000000 		.4byte	.LFB273
 2004 001c 80000000 		.4byte	.LFE273
 2005 0020 00000000 		.4byte	.LFB274
 2006 0024 A0000000 		.4byte	.LFE274
 2007 0028 00000000 		.4byte	0
 2008 002c 00000000 		.4byte	0
 2009              		.section	.debug_line,"",%progbits
 2010              	.Ldebug_line0:
 2011 0000 A2030000 		.section	.debug_str,"MS",%progbits,1
 2011      02002B03 
 2011      00000201 
 2011      FB0E0D00 
 2011      01010101 
 2012              	.LASF50:
 2013 0000 72656164 		.ascii	"ready_list_t\000"
 2013      795F6C69 
 2013      73745F74 
 2013      00
 2014              	.LASF2:
 2015 000d 73697A65 		.ascii	"size_t\000"
 2015      5F7400
 2016              	.LASF105:
 2017 0014 7264796D 		.ascii	"rdymsg\000"
 2017      736700
 2018              	.LASF17:
 2019 001b 75696E74 		.ascii	"uint64_t\000"
 2019      36345F74 
 2019      00
 2020              	.LASF3:
 2021 0024 5F5F7569 		.ascii	"__uint8_t\000"
 2021      6E74385F 
 2021      7400
 2022              	.LASF102:
 2023 002e 706F7274 		.ascii	"port_intctx\000"
 2023      5F696E74 
 2023      63747800 
 2024              	.LASF69:
 2025 003a 73797374 		.ascii	"system_debug_t\000"
 2025      656D5F64 
 2025      65627567 
 2025      5F7400
 2026              	.LASF13:
 2027 0049 6C6F6E67 		.ascii	"long long unsigned int\000"
ARM GAS  /tmp/ccGgfXy6.s 			page 51


 2027      206C6F6E 
 2027      6720756E 
 2027      7369676E 
 2027      65642069 
 2028              	.LASF106:
 2029 0060 65786974 		.ascii	"exitcode\000"
 2029      636F6465 
 2029      00
 2030              	.LASF76:
 2031 0069 6D61696E 		.ascii	"mainthread\000"
 2031      74687265 
 2031      616400
 2032              	.LASF109:
 2033 0074 73656E74 		.ascii	"sentmsg\000"
 2033      6D736700 
 2034              	.LASF66:
 2035 007c 76697274 		.ascii	"virtual_timers_list_t\000"
 2035      75616C5F 
 2035      74696D65 
 2035      72735F6C 
 2035      6973745F 
 2036              	.LASF123:
 2037 0092 49544D5F 		.ascii	"ITM_RxBuffer\000"
 2037      52784275 
 2037      66666572 
 2037      00
 2038              	.LASF49:
 2039 009f 63685F74 		.ascii	"ch_threads_queue\000"
 2039      68726561 
 2039      64735F71 
 2039      75657565 
 2039      00
 2040              	.LASF30:
 2041 00b0 705F7072 		.ascii	"p_prio\000"
 2041      696F00
 2042              	.LASF11:
 2043 00b7 6C6F6E67 		.ascii	"long long int\000"
 2043      206C6F6E 
 2043      6720696E 
 2043      7400
 2044              	.LASF1:
 2045 00c5 7369676E 		.ascii	"signed char\000"
 2045      65642063 
 2045      68617200 
 2046              	.LASF83:
 2047 00d1 464C4153 		.ascii	"FLASH_TypeDef\000"
 2047      485F5479 
 2047      70654465 
 2047      6600
 2048              	.LASF43:
 2049 00df 705F6D70 		.ascii	"p_mpool\000"
 2049      6F6F6C00 
 2050              	.LASF117:
 2051 00e7 6D5F7175 		.ascii	"m_queue\000"
 2051      65756500 
 2052              	.LASF75:
 2053 00ef 76746C69 		.ascii	"vtlist\000"
ARM GAS  /tmp/ccGgfXy6.s 			page 52


 2053      737400
 2054              	.LASF88:
 2055 00f6 5057525F 		.ascii	"PWR_TypeDef\000"
 2055      54797065 
 2055      44656600 
 2056              	.LASF108:
 2057 0102 77747472 		.ascii	"wttrp\000"
 2057      7000
 2058              	.LASF73:
 2059 0108 63685F73 		.ascii	"ch_system\000"
 2059      79737465 
 2059      6D00
 2060              	.LASF8:
 2061 0112 6C6F6E67 		.ascii	"long int\000"
 2061      20696E74 
 2061      00
 2062              	.LASF90:
 2063 011b 41504232 		.ascii	"APB2RSTR\000"
 2063      52535452 
 2063      00
 2064              	.LASF20:
 2065 0124 74737461 		.ascii	"tstate_t\000"
 2065      74655F74 
 2065      00
 2066              	.LASF80:
 2067 012d 4F50544B 		.ascii	"OPTKEYR\000"
 2067      45595200 
 2068              	.LASF32:
 2069 0135 705F6E65 		.ascii	"p_newer\000"
 2069      77657200 
 2070              	.LASF114:
 2071 013d 735F7175 		.ascii	"s_queue\000"
 2071      65756500 
 2072              	.LASF55:
 2073 0145 725F6E65 		.ascii	"r_newer\000"
 2073      77657200 
 2074              	.LASF99:
 2075 014d 72656761 		.ascii	"regarm_t\000"
 2075      726D5F74 
 2075      00
 2076              	.LASF62:
 2077 0156 76745F70 		.ascii	"vt_prev\000"
 2077      72657600 
 2078              	.LASF74:
 2079 015e 726C6973 		.ascii	"rlist\000"
 2079      7400
 2080              	.LASF130:
 2081 0164 73746D33 		.ascii	"stm32_clock_init\000"
 2081      325F636C 
 2081      6F636B5F 
 2081      696E6974 
 2081      00
 2082              	.LASF121:
 2083 0175 6D757465 		.ascii	"mutex_t\000"
 2083      785F7400 
 2084              	.LASF77:
 2085 017d 69646C65 		.ascii	"idle_thread_wa\000"
ARM GAS  /tmp/ccGgfXy6.s 			page 53


 2085      5F746872 
 2085      6561645F 
 2085      776100
 2086              	.LASF25:
 2087 018c 636E745F 		.ascii	"cnt_t\000"
 2087      7400
 2088              	.LASF0:
 2089 0192 756E7369 		.ascii	"unsigned int\000"
 2089      676E6564 
 2089      20696E74 
 2089      00
 2090              	.LASF61:
 2091 019f 76745F6E 		.ascii	"vt_next\000"
 2091      65787400 
 2092              	.LASF124:
 2093 01a7 53797374 		.ascii	"SystemCoreClock\000"
 2093      656D436F 
 2093      7265436C 
 2093      6F636B00 
 2094              	.LASF110:
 2095 01b7 77747365 		.ascii	"wtsemp\000"
 2095      6D7000
 2096              	.LASF39:
 2097 01be 705F6D73 		.ascii	"p_msgqueue\000"
 2097      67717565 
 2097      756500
 2098              	.LASF98:
 2099 01c9 5243435F 		.ascii	"RCC_TypeDef\000"
 2099      54797065 
 2099      44656600 
 2100              	.LASF115:
 2101 01d5 735F636E 		.ascii	"s_cnt\000"
 2101      7400
 2102              	.LASF6:
 2103 01db 73686F72 		.ascii	"short unsigned int\000"
 2103      7420756E 
 2103      7369676E 
 2103      65642069 
 2103      6E7400
 2104              	.LASF46:
 2105 01ee 63685F74 		.ascii	"ch_thread\000"
 2105      68726561 
 2105      6400
 2106              	.LASF23:
 2107 01f8 6D73675F 		.ascii	"msg_t\000"
 2107      7400
 2108              	.LASF92:
 2109 01fe 41484245 		.ascii	"AHBENR\000"
 2109      4E5200
 2110              	.LASF126:
 2111 0205 2E2E2F43 		.ascii	"../ChibiOS/os/hal/ports/STM32/STM32F3xx/hal_lld.c\000"
 2111      68696269 
 2111      4F532F6F 
 2111      732F6861 
 2111      6C2F706F 
 2112              	.LASF72:
 2113 0237 63685F73 		.ascii	"ch_system_t\000"
ARM GAS  /tmp/ccGgfXy6.s 			page 54


 2113      79737465 
 2113      6D5F7400 
 2114              	.LASF19:
 2115 0243 746D6F64 		.ascii	"tmode_t\000"
 2115      655F7400 
 2116              	.LASF51:
 2117 024b 63685F72 		.ascii	"ch_ready_list\000"
 2117      65616479 
 2117      5F6C6973 
 2117      7400
 2118              	.LASF24:
 2119 0259 6576656E 		.ascii	"eventmask_t\000"
 2119      746D6173 
 2119      6B5F7400 
 2120              	.LASF7:
 2121 0265 5F5F696E 		.ascii	"__int32_t\000"
 2121      7433325F 
 2121      7400
 2122              	.LASF100:
 2123 026f 73746B61 		.ascii	"stkalign_t\000"
 2123      6C69676E 
 2123      5F7400
 2124              	.LASF45:
 2125 027a 74687265 		.ascii	"threads_list_t\000"
 2125      6164735F 
 2125      6C697374 
 2125      5F7400
 2126              	.LASF38:
 2127 0289 705F7761 		.ascii	"p_waiting\000"
 2127      6974696E 
 2127      6700
 2128              	.LASF78:
 2129 0293 73697A65 		.ascii	"sizetype\000"
 2129      74797065 
 2129      00
 2130              	.LASF44:
 2131 029c 74687265 		.ascii	"thread_reference_t\000"
 2131      61645F72 
 2131      65666572 
 2131      656E6365 
 2131      5F7400
 2132              	.LASF67:
 2133 02af 63685F76 		.ascii	"ch_virtual_timers_list\000"
 2133      69727475 
 2133      616C5F74 
 2133      696D6572 
 2133      735F6C69 
 2134              	.LASF28:
 2135 02c6 705F6E65 		.ascii	"p_next\000"
 2135      787400
 2136              	.LASF68:
 2137 02cd 76745F6C 		.ascii	"vt_lasttime\000"
 2137      61737474 
 2137      696D6500 
 2138              	.LASF128:
 2139 02d9 68616C5F 		.ascii	"hal_lld_backup_domain_init\000"
 2139      6C6C645F 
ARM GAS  /tmp/ccGgfXy6.s 			page 55


 2139      6261636B 
 2139      75705F64 
 2139      6F6D6169 
 2140              	.LASF127:
 2141 02f4 2F6E6673 		.ascii	"/nfs/nfs4/home/galexeev/classes/P442WifiTrailCounte"
 2141      2F6E6673 
 2141      342F686F 
 2141      6D652F67 
 2141      616C6578 
 2142 0327 7250726F 		.ascii	"rProject/milestone3\000"
 2142      6A656374 
 2142      2F6D696C 
 2142      6573746F 
 2142      6E653300 
 2143              	.LASF54:
 2144 033b 725F6374 		.ascii	"r_ctx\000"
 2144      7800
 2145              	.LASF104:
 2146 0341 746D5F63 		.ascii	"tm_calibration_t\000"
 2146      616C6962 
 2146      72617469 
 2146      6F6E5F74 
 2146      00
 2147              	.LASF96:
 2148 0352 41484252 		.ascii	"AHBRSTR\000"
 2148      53545200 
 2149              	.LASF57:
 2150 035a 725F6375 		.ascii	"r_current\000"
 2150      7272656E 
 2150      7400
 2151              	.LASF91:
 2152 0364 41504231 		.ascii	"APB1RSTR\000"
 2152      52535452 
 2152      00
 2153              	.LASF12:
 2154 036d 5F5F7569 		.ascii	"__uint64_t\000"
 2154      6E743634 
 2154      5F7400
 2155              	.LASF87:
 2156 0378 53595343 		.ascii	"SYSCFG_TypeDef\000"
 2156      46475F54 
 2156      79706544 
 2156      656600
 2157              	.LASF21:
 2158 0387 74726566 		.ascii	"trefs_t\000"
 2158      735F7400 
 2159              	.LASF79:
 2160 038f 4B455952 		.ascii	"KEYR\000"
 2160      00
 2161              	.LASF59:
 2162 0394 76697274 		.ascii	"virtual_timer_t\000"
 2162      75616C5F 
 2162      74696D65 
 2162      725F7400 
 2163              	.LASF29:
 2164 03a4 705F7072 		.ascii	"p_prev\000"
 2164      657600
ARM GAS  /tmp/ccGgfXy6.s 			page 56


 2165              	.LASF22:
 2166 03ab 74707269 		.ascii	"tprio_t\000"
 2166      6F5F7400 
 2167              	.LASF70:
 2168 03b3 63685F73 		.ascii	"ch_system_debug\000"
 2168      79737465 
 2168      6D5F6465 
 2168      62756700 
 2169              	.LASF122:
 2170 03c3 5F426F6F 		.ascii	"_Bool\000"
 2170      6C00
 2171              	.LASF15:
 2172 03c9 696E7433 		.ascii	"int32_t\000"
 2172      325F7400 
 2173              	.LASF4:
 2174 03d1 756E7369 		.ascii	"unsigned char\000"
 2174      676E6564 
 2174      20636861 
 2174      7200
 2175              	.LASF41:
 2176 03df 705F6D74 		.ascii	"p_mtxlist\000"
 2176      786C6973 
 2176      7400
 2177              	.LASF5:
 2178 03e9 73686F72 		.ascii	"short int\000"
 2178      7420696E 
 2178      7400
 2179              	.LASF35:
 2180 03f3 705F7374 		.ascii	"p_state\000"
 2180      61746500 
 2181              	.LASF33:
 2182 03fb 705F6F6C 		.ascii	"p_older\000"
 2182      64657200 
 2183              	.LASF53:
 2184 0403 725F7072 		.ascii	"r_prio\000"
 2184      696F00
 2185              	.LASF81:
 2186 040a 52455345 		.ascii	"RESERVED\000"
 2186      52564544 
 2186      00
 2187              	.LASF112:
 2188 0413 65776D61 		.ascii	"ewmask\000"
 2188      736B00
 2189              	.LASF36:
 2190 041a 705F666C 		.ascii	"p_flags\000"
 2190      61677300 
 2191              	.LASF93:
 2192 0422 41504232 		.ascii	"APB2ENR\000"
 2192      454E5200 
 2193              	.LASF60:
 2194 042a 63685F76 		.ascii	"ch_virtual_timer\000"
 2194      69727475 
 2194      616C5F74 
 2194      696D6572 
 2194      00
 2195              	.LASF113:
 2196 043b 63685F73 		.ascii	"ch_semaphore\000"
ARM GAS  /tmp/ccGgfXy6.s 			page 57


 2196      656D6170 
 2196      686F7265 
 2196      00
 2197              	.LASF40:
 2198 0448 705F6570 		.ascii	"p_epending\000"
 2198      656E6469 
 2198      6E6700
 2199              	.LASF16:
 2200 0453 75696E74 		.ascii	"uint32_t\000"
 2200      33325F74 
 2200      00
 2201              	.LASF111:
 2202 045c 77746D74 		.ascii	"wtmtxp\000"
 2202      787000
 2203              	.LASF52:
 2204 0463 725F7175 		.ascii	"r_queue\000"
 2204      65756500 
 2205              	.LASF63:
 2206 046b 76745F64 		.ascii	"vt_delta\000"
 2206      656C7461 
 2206      00
 2207              	.LASF47:
 2208 0474 63685F74 		.ascii	"ch_threads_list\000"
 2208      68726561 
 2208      64735F6C 
 2208      69737400 
 2209              	.LASF131:
 2210 0484 646D6149 		.ascii	"dmaInit\000"
 2210      6E697400 
 2211              	.LASF10:
 2212 048c 6C6F6E67 		.ascii	"long unsigned int\000"
 2212      20756E73 
 2212      69676E65 
 2212      6420696E 
 2212      7400
 2213              	.LASF82:
 2214 049e 57525052 		.ascii	"WRPR\000"
 2214      00
 2215              	.LASF120:
 2216 04a3 63686172 		.ascii	"char\000"
 2216      00
 2217              	.LASF27:
 2218 04a8 74687265 		.ascii	"thread_t\000"
 2218      61645F74 
 2218      00
 2219              	.LASF119:
 2220 04b1 6D5F6E65 		.ascii	"m_next\000"
 2220      787400
 2221              	.LASF26:
 2222 04b8 73797374 		.ascii	"systime_t\000"
 2222      696D655F 
 2222      7400
 2223              	.LASF42:
 2224 04c2 705F7265 		.ascii	"p_realprio\000"
 2224      616C7072 
 2224      696F00
 2225              	.LASF58:
ARM GAS  /tmp/ccGgfXy6.s 			page 58


 2226 04cd 76746675 		.ascii	"vtfunc_t\000"
 2226      6E635F74 
 2226      00
 2227              	.LASF9:
 2228 04d6 5F5F7569 		.ascii	"__uint32_t\000"
 2228      6E743332 
 2228      5F7400
 2229              	.LASF71:
 2230 04e1 70616E69 		.ascii	"panic_msg\000"
 2230      635F6D73 
 2230      6700
 2231              	.LASF103:
 2232 04eb 6F666673 		.ascii	"offset\000"
 2232      657400
 2233              	.LASF94:
 2234 04f2 41504231 		.ascii	"APB1ENR\000"
 2234      454E5200 
 2235              	.LASF101:
 2236 04fa 636F6E74 		.ascii	"context\000"
 2236      65787400 
 2237              	.LASF56:
 2238 0502 725F6F6C 		.ascii	"r_older\000"
 2238      64657200 
 2239              	.LASF129:
 2240 050a 68616C5F 		.ascii	"hal_lld_init\000"
 2240      6C6C645F 
 2240      696E6974 
 2240      00
 2241              	.LASF18:
 2242 0517 7274636E 		.ascii	"rtcnt_t\000"
 2242      745F7400 
 2243              	.LASF65:
 2244 051f 76745F70 		.ascii	"vt_par\000"
 2244      617200
 2245              	.LASF48:
 2246 0526 74687265 		.ascii	"threads_queue_t\000"
 2246      6164735F 
 2246      71756575 
 2246      655F7400 
 2247              	.LASF116:
 2248 0536 63685F6D 		.ascii	"ch_mutex\000"
 2248      75746578 
 2248      00
 2249              	.LASF37:
 2250 053f 705F7265 		.ascii	"p_refs\000"
 2250      667300
 2251              	.LASF95:
 2252 0546 42444352 		.ascii	"BDCR\000"
 2252      00
 2253              	.LASF84:
 2254 054b 43464752 		.ascii	"CFGR1\000"
 2254      3100
 2255              	.LASF86:
 2256 0551 43464752 		.ascii	"CFGR2\000"
 2256      3200
 2257              	.LASF97:
 2258 0557 43464752 		.ascii	"CFGR3\000"
ARM GAS  /tmp/ccGgfXy6.s 			page 59


 2258      3300
 2259              	.LASF14:
 2260 055d 75696E74 		.ascii	"uint8_t\000"
 2260      385F7400 
 2261              	.LASF125:
 2262 0565 474E5520 		.ascii	"GNU C 4.8.4 20140526 (release) [ARM/embedded-4_8-br"
 2262      4320342E 
 2262      382E3420 
 2262      32303134 
 2262      30353236 
 2263 0598 616E6368 		.ascii	"anch revision 211358] -mcpu=cortex-m4 -mno-thumb-in"
 2263      20726576 
 2263      6973696F 
 2263      6E203231 
 2263      31333538 
 2264 05cb 74657277 		.ascii	"terwork -mthumb -ggdb -O2 -fomit-frame-pointer -fal"
 2264      6F726B20 
 2264      2D6D7468 
 2264      756D6220 
 2264      2D676764 
 2265 05fe 69676E2D 		.ascii	"ign-functions=16 -ffunction-sections -fdata-section"
 2265      66756E63 
 2265      74696F6E 
 2265      733D3136 
 2265      202D6666 
 2266 0631 73202D66 		.ascii	"s -fno-common -flto\000"
 2266      6E6F2D63 
 2266      6F6D6D6F 
 2266      6E202D66 
 2266      6C746F00 
 2267              	.LASF107:
 2268 0645 77746F62 		.ascii	"wtobjp\000"
 2268      6A7000
 2269              	.LASF34:
 2270 064c 705F6E61 		.ascii	"p_name\000"
 2270      6D6500
 2271              	.LASF89:
 2272 0653 43464752 		.ascii	"CFGR\000"
 2272      00
 2273              	.LASF118:
 2274 0658 6D5F6F77 		.ascii	"m_owner\000"
 2274      6E657200 
 2275              	.LASF31:
 2276 0660 705F6374 		.ascii	"p_ctx\000"
 2276      7800
 2277              	.LASF64:
 2278 0666 76745F66 		.ascii	"vt_func\000"
 2278      756E6300 
 2279              	.LASF85:
 2280 066e 45585449 		.ascii	"EXTICR\000"
 2280      435200
 2281              		.comm	__gnu_lto_v1,1,1
 2282              		.ident	"GCC: (GNU Tools for ARM Embedded Processors) 4.8.4 20140526 (release) [ARM/embedded-4_8-br
ARM GAS  /tmp/ccGgfXy6.s 			page 60


DEFINED SYMBOLS
                            *ABS*:00000000 hal_lld.c
     /tmp/ccGgfXy6.s:259    .text.hal_lld_init:00000000 $t
     /tmp/ccGgfXy6.s:265    .text.hal_lld_init:00000000 hal_lld_init
     /tmp/ccGgfXy6.s:356    .text.hal_lld_init:00000074 $d
     /tmp/ccGgfXy6.s:363    .text.stm32_clock_init:00000000 $t
     /tmp/ccGgfXy6.s:369    .text.stm32_clock_init:00000000 stm32_clock_init
     /tmp/ccGgfXy6.s:471    .text.stm32_clock_init:00000094 $d
     /tmp/ccGgfXy6.s:482    .data.SystemCoreClock:00000000 SystemCoreClock
     /tmp/ccGgfXy6.s:479    .data.SystemCoreClock:00000000 $d
                            *COM*:00000001 __gnu_lto_v1
                     .debug_frame:00000010 $d

UNDEFINED SYMBOLS
dmaInit
