ARM GAS  /tmp/ccDhhCX2.s 			page 1


   1              		.syntax unified
   2              		.cpu cortex-m4
   3              		.fpu softvfp
   4              		.eabi_attribute 20, 1
   5              		.eabi_attribute 21, 1
   6              		.eabi_attribute 23, 3
   7              		.eabi_attribute 24, 1
   8              		.eabi_attribute 25, 1
   9              		.eabi_attribute 26, 1
  10              		.eabi_attribute 30, 6
  11              		.eabi_attribute 34, 1
  12              		.eabi_attribute 18, 4
  13              		.thumb
  14              		.file	"memstreams.c"
  15              		.text
  16              	.Ltext0:
  17              		.section	.gnu.lto_.inline.55bd48482f2a07cb,"",%progbits
  18 0000 789C6362 		.ascii	"x\234cb`b\300\006\262\2404+\003\003\037/\003\003\223"
  18      6062C006 
  18      B2A0342B 
  18      03031F2F 
  18      030393
  19 0013 C484D38C 		.ascii	"\304\204\323\214\014,\020\305\214\230BL\014\242\262"
  19      0C2C10C5 
  19      8C98424C 
  19      0CA2B2
  20 0022 4052AEE1 		.ascii	"@R\256\341\027\\\210\005\250\206\201\031\2078\013\003"
  20      175C8805 
  20      A8868119 
  20      87380B03 
  21 0032 073B509C 		.ascii	"\007;P\234gC.L\230\001\000\011~\010\264"
  21      67432E4C 
  21      98010009 
  21      7E08B4
  22              		.text
  23              		.section	.gnu.lto_put.55bd48482f2a07cb,"",%progbits
  24 0000 789C9D53 		.ascii	"x\234\235S\277k\024A\024~ofv\357\267Q\2600]H%\036\334"
  24      BF6B1441 
  24      147E6F66 
  24      76EFB751 
  24      B0305D48 
  25 0017 E25F6061 		.ascii	"\342_`ae\245\240B,,\356b\330,dQ<\373\233K\216 *\022"
  25      65A5A042 
  25      2C2CEE62 
  25      D82C6451 
  25      3CFB9B4B 
  26 002f 42C01815 		.ascii	"B\300\030\025\223B\361\027\230\323\346\212\024[H8<\002"
  26      9342F117 
  26      98D3E68A 
  26      145B4838 
  26      3C02
  27 0041 111B0D08 		.ascii	"\021\033\015\010GNbca\231B\\\337\314\334n\016Q\263\372"
  27      474E6263 
  27      6199425C 
  27      DFCCDC6E 
  27      0E51B3FA 
  28 0055 E0DECDBC 		.ascii	"\340\336\315\274\367}\357}\363f\226\001\203_\315\241"
ARM GAS  /tmp/ccDhhCX2.s 			page 2


  28      F77DEF7D 
  28      F3669601 
  28      835FCDA1 
  29 0065 DF9A0038 		.ascii	"\337\232\0008\25666 !\2201\016 \031E\245\340hQDho!\022"
  29      AE363620 
  29      2190310E 
  29      201945A5 
  29      E0685144 
  30 007d 08A1C6B8 		.ascii	"\010\241\306\270\260\260vA\355 3\012+R\316w\037\365"
  30      B0B07641 
  30      ED20330A 
  30      2B52CE77 
  30      1FF5
  31 008f 36F1EE42 		.ascii	"6\361\356B\320X\226\337\303\020\321S\311q\2041Z\341"
  31      D05896DF 
  31      C310D153 
  31      C9718431 
  31      5AE1
  32 00a1 88FE5305 		.ascii	"\210\376S\005\007\315\020\345\247\317g\332\262\021\204"
  32      07CD10E5 
  32      A7CF67DA 
  32      B21184
  33 00b0 E189A49C 		.ascii	"\341\211\244\234\305\340\301\372\333\025$n\375[\030"
  33      C5E0C1FA 
  33      DB15246E 
  33      FD5B18
  34 00bf 0E79C893 		.ascii	"\016y\310\223\265\012\036\316\336\032\276\261<='\177"
  34      B50A1ECE 
  34      DE1ABEB1 
  34      3C3D277F 
  35 00cf 90440F45 		.ascii	"\220D\017EB\205\357\377Y\341\274|\365Df\364(x\342>A"
  35      4285EFFF 
  35      59E1BC7C 
  35      F54466F4 
  35      2878E23E 
  36 00e4 73F6F6A0 		.ascii	"s\366\366\240\274\377i\225\220\023\334Y_\030\226{\255"
  36      BCFF6995 
  36      9013DC59 
  36      5F18967B 
  36      AD
  37 00f5 2C0625DC 		.ascii	",\006%\334\207\371\222\005\3350|\321\\\333^\302C\007"
  37      87F99205 
  37      DD307CD1 
  37      5CDB5EC2 
  37      4307
  38 0107 1068EC0C 		.ascii	"\020h\354\014}\004\016e|\212\243 (\002\226r\266\312"
  38      7D040E65 
  38      7C8AA320 
  38      28029672 
  38      B6CA
  39 0119 A5C889B4 		.ascii	"\245\310\211\264\332f\324*KP\314\251m^\271\002\350["
  39      DA66D42A 
  39      4B50CCA9 
  39      6D5EB902 
  39      E85B
  40 012b 237C43CA 		.ascii	"#|C\312\271\021SAk';\247\375y\365\026\371\006Lwv\267"
  40      B9115341 
ARM GAS  /tmp/ccDhhCX2.s 			page 3


  40      6B273BA7 
  40      FD79F516 
  40      F9064C77 
  41 0141 DBAC8CCF 		.ascii	"\333\254\214\317\351\015\272\310]\025\246\350V\213\036"
  41      E90DBAC8 
  41      5D15A6E8 
  41      568B1E
  42 0150 5C141545 		.ascii	"\\\024\025E8\346\241}\017\226Hx\212P\352\000\226\226"
  42      38E6A17D 
  42      0F964878 
  42      8A50EA00 
  42      9696
  43 0162 5DC1E800 		.ascii	"]\301\350\000\212\264\231\213(\326\337(\021\247\015"
  43      8AB4998B 
  43      28D6DF28 
  43      11A70D
  44 0171 6FBED40B 		.ascii	"o\276\324\013q\027\267\017\000\243\217\033}\255\017"
  44      7117B70F 
  44      00A38F1B 
  44      7DAD0F
  45 0180 BDA311C4 		.ascii	"\275\243\021\304VU8\015\325\030\326\"\2540\330\255\335"
  45      5655380D 
  45      D518D622 
  45      AC30D8AD 
  45      DD
  46 0191 5E10AB4E 		.ascii	"^\020\253Ni\011\342\367\022\330\200\352\325lDI\307\252"
  46      6909E2F7 
  46      12D880EA 
  46      D56C4449 
  46      C7AA
  47 01a3 EB52CA8B 		.ascii	"\353R\312\213\177V\276\00137g\036\307\2552\256B\246"
  47      7F56BE01 
  47      3337671E 
  47      C7AD32AE 
  47      42A6
  48 01b5 75B9CEEA 		.ascii	"u\271\316\352\220\011\367\253\244<L\023b\314|\021d."
  48      9009F7AB 
  48      A43C4C13 
  48      62CC7C11 
  48      642E
  49 01c7 664DDFC5 		.ascii	"fM\337\305\235n\\!W\204g\004>\270\357\314\250\363u\036"
  49      9D6E5C21 
  49      57846704 
  49      3EB8EFCC 
  49      A8F3751E 
  50 01db B1F24454 		.ascii	"\261\362DT \033\315QN\231D\262ZD\327\244Vk\347HT\260"
  50      201BCD51 
  50      4E9944B2 
  50      5A44D7A4 
  50      566BE748 
  51 01f1 A007BC77 		.ascii	"\240\007\274w\007\304\340\035\250\323\311.\251\221\275"
  51      07C4E01D 
  51      A8D3C92E 
  51      A991BD
  52 0200 D34BD714 		.ascii	"\323K\327\024\370\010H7\302\2776\017\023O\334\177\235"
  52      F8084837 
  52      C2BF360F 
ARM GAS  /tmp/ccDhhCX2.s 			page 4


  52      134FDC7F 
  52      9D
  53 0211 574F8B32 		.ascii	"WO\2132j\264\305R\31199\351U\274\323g\235\313Ug\262"
  53      6AB4C552 
  53      C93939E9 
  53      55BCD367 
  53      9DCB5567 
  54 0226 3CE54C79 		.ascii	"<\345Ly\025\247z\355\352D\331\257:\376\204\337_\226"
  54      15A77AED 
  54      EA44D9AF 
  54      3AFE84DF 
  54      5F96
  55 0238 C681FBD5 		.ascii	"\306\201\373\325+?\001\207\010\025\217"
  55      2B3F0187 
  55      08158F
  56              		.text
  57              		.section	.gnu.lto_get.55bd48482f2a07cb,"",%progbits
  58 0000 789CB553 		.ascii	"x\234\265SKk\024A\020\256\352\356\331\367\372\000Qr"
  58      4B6B1441 
  58      10AEEAEE 
  58      D9F7FA00 
  58      5172
  59 0012 0B39890B 		.ascii	"\0139\211\013;\202?\300\203'O\012\032\210\307\335\030"
  59      3B823FC0 
  59      83274F0A 
  59      1A88C7DD 
  59      18
  60 0023 36035914 		.ascii	"6\003Y\024W\317\333\233\335\210(\321\020r\210\217Cr"
  60      57CFDB9B 
  60      DD8828D1 
  60      1072888F 
  60      4372
  61 0035 F341500C 		.ascii	"\363AP\014\221\240\010s\220e1\011(\"\306xY!\020\330"
  61      91A00873 
  61      90653109 
  61      2822C678 
  61      592110D8 
  62 0049 43C83187 		.ascii	"C\3101\207\340X\325\223\031\203\254f\020,\230\232\356"
  62      E058D593 
  62      1983AC66 
  62      102C989A 
  62      EE
  63 005a EAEFABFA 		.ascii	"\352\357\253\372\272\272[\200\200\337\315\246oG\001"
  63      BABA5B80 
  63      80DFCDA6 
  63      6F4701
  64 0069 9CE2490C 		.ascii	"\234\342I\014\220\020(\204\004\320\202\242ZI\264(\242"
  64      90102884 
  64      04D082A2 
  64      5A49B428 
  64      A2
  65 007a 8CB71009 		.ascii	"\214\267\020\011\204P\025RYX\275\3043H\365\301\254\326"
  65      84501552 
  65      5958BDC4 
  65      3348F5C1 
  65      ACD6
  66 008c 93EDB1CE 		.ascii	"\223\355\261\316\007\274?\3456f\364\216\347!:\2748\210"
ARM GAS  /tmp/ccDhhCX2.s 			page 5


  66      07BC3FE5 
  66      3666F48E 
  66      E7213ABC 
  66      3888
  67 009e 304023EC 		.ascii	"0@#\3545?N\270\327|\242\376\266~\276\245\033\256\347"
  67      353F4EB8 
  67      D77CA2FE 
  67      B67EBEA5 
  67      1BAEE7
  68 00b1 9D8ECA99 		.ascii	"\235\216\312\231v?5\337\317\"qk[\236w\320A\031\255\224"
  68      763F35DF 
  68      CF22716B 
  68      5B9E77D0 
  68      4119AD94 
  69 00c5 FBF9E6DD 		.ascii	"\373\371\346\335\236\3333\243\023\372\007ItP\3757\205"
  69      9EDB33A3 
  69      13FA0749 
  69      7450FD37 
  69      85
  70 00d6 93FAE563 		.ascii	"\223\372\345c\2354\255\220\221\353\270_\232\367\366"
  70      9D34AD90 
  70      91EBB85F 
  70      9AF7F6
  71 00e5 CAFB9752 		.ascii	"\312\373\227R\0219\356\233\346\3701\335\326A)K@\036"
  71      1139EE9B 
  71      E6F831DD 
  71      D641294B 
  71      401E
  72 00f7 4366C267 		.ascii	"Cf\302gbW\346\333\346T\217\376%2&\340$\356S\363\271"
  72      6257E6DB 
  72      E6548FFE 
  72      253226E0 
  72      24EE53F3 
  73 010c 70DB9EB7 		.ascii	"p\333\236\267<\277\365}\016\017\037@\240\003\023XF\220"
  73      3CBFF57D 
  73      0E0F1F40 
  73      A0031358 
  73      4690
  74 011e 50C067D8 		.ascii	"P\300g\330\007\212\"`\261\213\361Z\234\234J\3604\311"
  74      078A2260 
  74      B18BF15A 
  74      9C9C4AF0 
  74      34C9
  75 0130 A314A19E 		.ascii	"\243\024\241\236\020*\315\221\014\273,\230#'JC\353\211"
  75      102ACD91 
  75      0CBB2C98 
  75      23274A43 
  75      EB89
  76 0142 5E7FD94F 		.ascii	"^\177\331Oe\266Ov\321\370~\276\316r\005F\227V7Z\242"
  76      65B64F76 
  76      D1F87EBE 
  76      CE720546 
  76      9756375A 
  77 0157 8073748D 		.ascii	"\200st\215K(K\034\246\350\3324\335\331 \252rp\302\301"
  77      4B284B1C 
  77      A6E8DA34 
  77      DDD920AA 
ARM GAS  /tmp/ccDhhCX2.s 			page 6


  77      7270C2C1 
  78 016b F8437840 		.ascii	"\370Cx@;H\020\212w\0223\372\213a'\230\364\"\035P\254"
  78      3B48108A 
  78      771233FA 
  78      8B612798 
  78      F4221D50 
  79 0180 BF51024E 		.ascii	"\277Q\002N\013\336m\324\262a\225\022\277\244\300\372"
  79      0BDE6DD4 
  79      B2619512 
  79      BFA4C0FA 
  80 0190 791BAC6F 		.ascii	"y\033\254oq\261s<\200\3048\213\244\356\372\206\325\000"
  80      71B1733C 
  80      80C4388B 
  80      A4EEFA86 
  80      D500
  81 01a2 AB7CECDA 		.ascii	"\253|\354\332j\247\035\252\216\033\011\252\273\004\321"
  81      6AA71DAA 
  81      8E1B09AA 
  81      BB04D1
  82 01b1 55752254 		.ascii	"Uu\"T]\323Z\337\370\263\362\025\250\337\251\277\012"
  82      5DD35ADF 
  82      F8B3F215 
  82      A8DFA9BF 
  82      0A
  83 01c2 4B25A91A 		.ascii	"K%\251\032\261M\272\327cG\203pj7\021=C\213@\003\376"
  83      B14DBAD7 
  83      63478370 
  83      6A37113D 
  83      438B4003 
  84 01d7 BB0AEB6E 		.ascii	"\273\012\353nw\266\303\014\351\034<%\344\241}{F\225"
  84      77B6C30C 
  84      E91C3C25 
  84      E4A17D7B 
  84      4695
  85 01e9 6FC98095 		.ascii	"o\311\200\225!\"\203\342\350\247<\353/D\313EtC\332\254"
  85      212283E2 
  85      E8A73CEB 
  85      2F44CB45 
  85      7443DAAC 
  86 01fd CF8F8719 		.ascii	"\317\217\207\031\263\244:h*\235\206\\\202\032m\3532"
  86      B3A43A68 
  86      2A9D865C 
  86      821A6DEB 
  86      32
  87 020e 533E9A61 		.ascii	"S>\232a\311g\177\005\244\343\220\217\026\216\020G-/"
  87      C9677F05 
  87      A4E3908F 
  87      168E1047 
  87      2D2F
  88 0220 64F85ED1 		.ascii	"d\370^\321\012\3675\227\317\333g\206\235\242s\356\202"
  88      0AF73597 
  88      CFDB6786 
  88      9DA273EE 
  88      82
  89 0231 7DA5620F 		.ascii	"}\245b\017\027F\354\021\247hW\256_\033*\224+vy\250\274"
  89      1746EC11 
  89      A76857AE 
ARM GAS  /tmp/ccDhhCX2.s 			page 7


  89      5F1B2A94 
  89      2B7679A8 
  90 0246 3BCC0F02 		.ascii	";\314\017\002\026e\271r\365'\201+'G"
  90      1665B972 
  90      F527812B 
  90      2747
  91              		.text
  92              		.section	.gnu.lto_writes.55bd48482f2a07cb,"",%progbits
  93 0000 789C9D93 		.ascii	"x\234\235\223\317k\023Q\020\307g\366m6\277\177TD\360"
  93      CF6B1351 
  93      10C767F6 
  93      6D36BF7F 
  93      5444F0
  94 0013 22A54703 		.ascii	"\"\245G\003Y\374\013<\364\344I\301\026\364\230\304\272"
  94      59FC0B3C 
  94      F4E449C1 
  94      16F498C4 
  94      BA
  95 0024 5DE8A218 		.ascii	"]\350\242\030\301\203\207\274mz\210\277 x\222\364`{"
  95      C18387BC 
  95      6D7A88BF 
  95      207892F4 
  95      607B
  96 0036 A8881605 		.ascii	"\250\210\026\005\275\324\2239xH\011EEJm\212\220\203"
  96      BDD49339 
  96      78480945 
  96      454A6D8A 
  96      9083
  97 0048 DE2CD88B 		.ascii	"\336,\330\213\024\021\327\231\335\354v\021\251k\026"
  97      1411D799 
  97      DDEC7611 
  97      A96B16
  98 0057 32FBDEBC 		.ascii	"2\373\336\274\371\314|g\336F\001\005\376|t\372m\306"
  98      F9CC7C67 
  98      DE460105 
  98      FE7C74FA 
  98      6DC6
  99 0069 004EF146 		.ascii	"\000N\361F\003\244\010T\024\001 \025\225\214*\220^\250"
  99      03A40854 
  99      14012015 
  99      958C2A90 
  99      5EA8
 100 007b 2285600C 		.ascii	"\"\205`\014\221\202\020\352\212PcX\277\310;\310L\300"
 100      918210EA 
 100      8A506358 
 100      BFC83BC8 
 100      4CC0
 101 008d B294F707 		.ascii	"\262\224\367\007+\355{\307o/\315\267\344/\307A\223\217"
 101      2BED7BC7 
 101      6F2FCDB7 
 101      E42FC741 
 101      938F
 102 009f AA081768 		.ascii	"\252\010\027h\205\343\356\213\323\205\037\017\223\237"
 102      85E3EE8B 
 102      D3851F0F 
 102      939F
 103 00ad 3E9FEBCA 		.ascii	">\237\353\312\205\216\343\234\216\316|\370\177\246\263"
ARM GAS  /tmp/ccDhhCX2.s 			page 8


 103      858EE39C 
 103      8ECE7CF8 
 103      7FA6B3
 104 00bc B9D75D46 		.ascii	"\271\327]Fb\355o\216\223\217^jo\204R[\257\326\303\245"
 104      62ED6F8E 
 104      938F5E6A 
 104      6F84525B 
 104      AFD6C3A5 
 105 00d0 44C4522F 		.ascii	"D\304R/G\230\304\213\3072\271$\177:\2160\371\236\"\311"
 105      4798C48B 
 105      C732B924 
 105      7F3A8E30 
 105      F99E22C9 
 106 00e4 DB1E6D12 		.ascii	"\333\036m\022\341R\321\230vgg\343n\252e7\245\343\324"
 106      E152D198 
 106      766767E3 
 106      6EAA6537 
 106      A5E3D4
 107 00f7 4DFE8222 		.ascii	"M\376\202\"\351{\275\262\036\222\247)P\302\177\200\317"
 107      E97BBDB2 
 107      1E92A729 
 107      50C27F80 
 107      CF
 108 0108 95CEC071 		.ascii	"\225\316\300q\276>}\370\375\330\021\004\013AA\013i\356"
 108      BE3E7DF8 
 108      FDD81104 
 108      0B41410B 
 108      69EE
 109 011a 655CC509 		.ascii	"e\\\305\011P\201\004\307\330hl\342t\006\011^%\331\244"
 109      508104C7 
 109      D8686CE2 
 109      7406095E 
 109      25D9A4
 110 012d 383E4D2B 		.ascii	"8>M+\221\341m\226\214\232\243\020%\317\333\002\2331"
 110      91E16D96 
 110      8C9AA310 
 110      25CFDB02 
 110      9B31
 111 013f 70C5538E 		.ascii	"p\305S\216\005)[\343^V\267\031z\246\\;\315\377\033\261"
 111      05295BE3 
 111      5E56B719 
 111      7AA65C3B 
 111      CDFF1BB1 
 112 0153 01F3BDFD 		.ascii	"\001\363\275\375\255\243e|F\361\006\012\203\275\344"
 112      ADA3657C 
 112      46F1060A 
 112      83BDE4
 113 0162 ECAFB5B3 		.ascii	"\354\257\265\263\276S-\302IJ\267\010mj$NA\334\220\346"
 113      BE532DC2 
 113      494AB708 
 113      6D6A244E 
 113      41DC90E6 
 114 0176 B65141BF 		.ascii	"\266QA\277!f\336\245}$v\030\202\001\322\270\325x\204"
 114      2166DEA5 
 114      7D247618 
 114      8201D2B8 
 114      D57884
ARM GAS  /tmp/ccDhhCX2.s 			page 9


 115 0189 3EA35125 		.ascii	">\243Q%\203Uw\341\315\027;\033r\307\017\3466\315\337"
 115      835577E1 
 115      CD173B1B 
 115      72C70FE6 
 115      36CDDF
 116 019c 26ABEE7F 		.ascii	"&\253\356\177l\347\374\220DT\201\255\000IF\026x\302"
 116      6CE7FC90 
 116      445481AD 
 116      00494616 
 116      78C2
 117 01ae 47525488 		.ascii	"GRT\210@_\207:\324\261\337\017\222\246\335\244\342\357"
 117      405F873A 
 117      D4B1DF0F 
 117      92A6DDA4 
 117      E2EF
 118 01c0 4995908E 		.ascii	"I\225\220\216\203Ae\002\035\266\224\362\306\241Z\356"
 118      83416502 
 118      1DB694F2 
 118      C6A15AEE 
 119 01d0 342EFB58 		.ascii	"4.\373X\226\212\021\014\360\0264\317\007p\023~\310\246"
 119      968A110C 
 119      F01634CF 
 119      0770137E 
 119      C8A6
 120 01e2 2C9898A8 		.ascii	",\230\230\250\016)7.g \245Kz\205\037,\006b\363ExB%\013"
 120      0E29372E 
 120      6720A54B 
 120      7A851F2C 
 120      0662F345 
 121 01fa 51A6D014 		.ascii	"Q\246\320\024>U \320\340#\312v\306sF\313C\250\013\365"
 121      3E5520D0 
 121      E023CA76 
 121      C67346CB 
 121      43A80BF5 
 122 020e D676821B 		.ascii	"\326v\202\033\0373\274\303m@\272d\205LJ\254\356\"O\227"
 122      1F33BCC3 
 122      6D40BA64 
 122      854C4AAC 
 122      EE224F97 
 123 0222 1A123DB0 		.ascii	"\032\022=\260\023\000\227\370\306\337\203=\330\325\002"
 123      130097F8 
 123      C6DF833D 
 123      D8D502
 124 0231 CE1336C5 		.ascii	"\316\0236\3054\217\265X*\351\223\263f\305<{^\277R\323"
 124      348FB558 
 124      2AE993B3 
 124      66C53C7B 
 124      5EBF52D3 
 125 0245 67CB73FA 		.ascii	"g\313s\372\234Y\321k\327\257\315\224\255\232n\315X\303"
 125      9C59D16B 
 125      D7AFCD94 
 125      AD9A6ECD 
 125      58C3
 126 0257 65A90AC2 		.ascii	"e\251\012\302\252]\375\015m\301Cu"
 126      AA5DFD0D 
 126      6DC14375 
 127              		.text
ARM GAS  /tmp/ccDhhCX2.s 			page 10


 128              		.section	.gnu.lto_reads.55bd48482f2a07cb,"",%progbits
 129 0000 789C9D93 		.ascii	"x\234\235\223\317k\023Q\020\307g\366m6\277\233T<\350"
 129      CF6B1351 
 129      10C767F6 
 129      6D36BF9B 
 129      543CE8
 130 0013 454A8F06 		.ascii	"EJ\217\006\262\370\027x\360\344I\301\026\364\230\304"
 130      B2F81778 
 130      F0E449C1 
 130      16F498C4 
 131 0023 BA5D6850 		.ascii	"\272]hP\2147\017y\333\364\020\265B\360$-\324V\020DD"
 131      8C370F79 
 131      DBF410B5 
 131      42F0242D 
 131      D4561044 
 132 0038 452F3DE6 		.ascii	"E/=\346 \222\022K\355E\264\202\311\301\036<Y\361R\177"
 132      2092124B 
 132      ED45B482 
 132      C9C11E3C 
 132      59F1527F 
 133 004c D4E7CC6E 		.ascii	"\324\347\314nv]D\352\232\205\314\2767o>3\337\231\267"
 133      765D44EA 
 133      9A85CCBE 
 133      376F3E33 
 133      DF99B7
 134 005f D140833F 		.ascii	"\321@\203?\037\223~\257c\000\307xc\000R\004j\232\000"
 134      1F937EAF 
 134      6300C778 
 134      63005204 
 134      6A9A00
 135 0072 909A4E46 		.ascii	"\220\232NF\027H/\324\221B0\206HA\010uM\3501\254\237"
 135      17482FD4 
 135      91423086 
 135      48410875 
 135      4DE831AC 
 136 0087 E31D64C6 		.ascii	"\343\035d\306aE\312[\375\355\245\233\207\257/\317\266"
 136      6145CA5B 
 136      FDEDA59B 
 136      87AF2FCF 
 136      B6
 137 0098 E44FA5D0 		.ascii	"\344O\245\320\346\243\012\302YZ\341\230\373\342t\341"
 137      E6A30AC2 
 137      595AE198 
 137      FBE274E1 
 138 00a8 C7C3E4BB 		.ascii	"\307\303\344\273\017\247;r\256\255\324\361\350\314\346"
 138      0FA73B72 
 138      AEADD4F1 
 138      E8CCE6
 139 00b7 FF33EDAF 		.ascii	"\3773\355\257\237;+H\254\263\243T.z\251\336\020\245"
 139      9F3B2B48 
 139      ACB3A354 
 139      2E7AA9DE 
 139      10A5
 140 00c9 BE7F5C0B 		.ascii	"\276\177\\\013\227\022\021K=\033b\022O\357\313\344\262"
 140      9712114B 
 140      3D1B6212 
 140      4FEFCBE4 
ARM GAS  /tmp/ccDhhCX2.s 			page 11


 140      B2
 141 00da FCA194B0 		.ascii	"\374\241\224\260\371\236\"\311\333\333\033j\022\341"
 141      F99E22C9 
 141      DBDB1B6A 
 141      12E1
 142 00e8 52D19885 		.ascii	"R\321\230\205\266Z\237O\265\234\246T\252n\363\027\024"
 142      B65A9F4F 
 142      B59CA654 
 142      AA6EF317 
 142      14
 143 00f9 49DF977B 		.ascii	"I\337\227{k!y\206\006E\374\007\370Xk\367\225\232\337"
 143      6B217986 
 143      0645FC07 
 143      F8586BF7 
 143      959ADF
 144 010c 587C7108 		.ascii	"X|q\010\017 T\0214\254\"\015\276\204\017q\034t \305"
 144      0F205411 
 144      34AC220D 
 144      BE840F71 
 144      1C7420C5 
 145 0120 3136069B 		.ascii	"16\006\2338\235A\202WI6)\216O\323Jdx\233%\243\217P\210"
 145      389D4182 
 145      57493629 
 145      8E4FD34A 
 145      64789B25 
 146 0138 96E36D9E 		.ascii	"\226\343m\236\315(\270\352)\307\234\224\2551/\253\333"
 146      CD28B8EA 
 146      29C79C94 
 146      AD312FAB 
 146      DB
 147 0149 0D3D13AE 		.ascii	"\015=\023\256\235\344?\216X\207\331\356\352\373\203"
 147      9DE43F8E 
 147      5887D9EE 
 147      EAFB83
 148 0158 257C44F1 		.ascii	"%|D\361\026\012\213\275\344\334\332]\312\372N\275\000"
 148      160A8BBD 
 148      E4DCDA5D 
 148      CAFA4EBD 
 148      00
 149 0169 4729DD22 		.ascii	"G)\335\",P'q\012\342\216\014\267\2172\372\0351\363$"
 149      2C502771 
 149      0AE28E0C 
 149      B78F32FA 
 149      1D31F324 
 150 017d ED23B1FD 		.ascii	"\355#\261\375\020\014\220\306\265\306]\364\031\203*"
 150      100C90C6 
 150      B5C65DF4 
 150      19832A
 151 018c 59ACBA03 		.ascii	"Y\254\272\003\317\267\235l\310\035\377=\270I\3768Y\365"
 151      CFB79D6C 
 151      C81DFF3D 
 151      B849FE38 
 151      59F5
 152 019e D6ED3B23 		.ascii	"\326\355;#~H\"\252\300\235@`2\262\300#>\222\242B\004"
 152      7E4822AA 
 152      C09D4060 
 152      32B2C023 
ARM GAS  /tmp/ccDhhCX2.s 			page 12


 152      3E92A242 
 153 01b3 FA3AF481 		.ascii	"\372:\364\201\216\325^0\275\264\233T\374=\251\026\322"
 153      8ED55E30 
 153      BDB49B54 
 153      FC3DA916 
 153      D2
 154 01c4 F12A909E 		.ascii	"\361*\220\236\011t8R\312\372\276Zn4.\370X\226\212\021"
 154      09743852 
 154      CAFABE5A 
 154      6E342EF8 
 154      58968A11 
 155 01d8 0CB00186 		.ascii	"\014\260\001\206\347\003\270\012\337dS\346mLT\006\224"
 155      E703B80A 
 155      DF6453E6 
 155      6D4C5406 
 155      94
 156 01e9 85236E28 		.ascii	"\205#n(\245Kz\205\337\364r~\212\\\001\036P\311|\224"
 156      A54B7A85 
 156      DFF4727E 
 156      8A5C011E 
 156      50C97C94 
 157 01fd 2934854F 		.ascii	")4\205O\345\011\264\370\210\262\235\364\234\321\362"
 157      E509B4F8 
 157      88B29DF4 
 157      9CD1F2
 158 020c 10EA42DD 		.ascii	"\020\352B\335\335^p\343\243\226w\370\026\220.Y#\223"
 158      DD5E70E3 
 158      A39677F8 
 158      16902E59 
 158      2393
 159 021e 122F3F21 		.ascii	"\022/?!O\227\032\022]p\022\000\347\371\3067\301\351"
 159      4F971A12 
 159      5D701200 
 159      E7F9C637 
 159      C1E9
 160 0230 2B23E03C 		.ascii	"+#\340<a\023L\363X\013\305\242yb\332.\333\247\316\230"
 160      61134CF3 
 160      580BC5A2 
 160      7962DA2E 
 160      DBA7CE98 
 161 0244 176BE674 		.ascii	"\027k\346ti\306\234\261\313f\355\312\345\251R\265fV"
 161      69C69CB1 
 161      CB66EDCA 
 161      E5A952B5 
 161      6656
 162 0256 A7AA8365 		.ascii	"\247\252\203e\261\002\242Z\273\364\013\241\246E\023"
 162      B102A25A 
 162      BBF40BA1 
 162      A64513
 163              		.text
 164              		.section	.gnu.lto_msObjectInit.55bd48482f2a07cb,"",%progbits
 165 0000 789C8D8F 		.ascii	"x\234\215\217?K\003A\020\305\337\333\275+\355\322+X"
 165      3F4B0341 
 165      10C5DFDB 
 165      BD2BEDD2 
 165      2B58
 166 0012 066F3F84 		.ascii	"\006o?\204\037\300\"\021\264\274\013!9\310!xv)\262\376"
ARM GAS  /tmp/ccDhhCX2.s 			page 13


 166      1FC02211 
 166      B4BC0B21 
 166      39C82178 
 166      7629B2FE 
 167 0026 013BB13C 		.ascii	"\001;\261<\024\013[\213h\231\322^,\354\354Lo\257!\010"
 167      140B5B8B 
 167      6899D25E 
 167      2CECEC4C 
 167      6FAF2108 
 168 003a 7176F76C 		.ascii	"qv\367lb\212\014\354\354\314\360~ow\024\024\226\243"
 168      628A0CEC 
 168      ECCCF07E 
 168      6F771414 
 168      96A3
 169 004c 21A722B0 		.ascii	"!\247\"\260\343\032\015\212\202\2122\0001R\034\035\322"
 169      E31A0D8A 
 169      828A3200 
 169      31521C1D 
 169      D2
 170 005d CB1ED5F3 		.ascii	"\313\036\325\363t\261\030?]\216\177x\247b\262 \224$"
 170      74B1183F 
 170      5D8E7F78 
 170      A762B220 
 170      9424
 171 006f 6A492A92 		.ascii	"jI*\222\244E\025\343\302\332\353-\240\343\251\266\317"
 171      A44515E3 
 171      C2DAEB2D 
 171      A0E3A9B6 
 171      CF
 172 0080 FBCE53BF 		.ascii	"\373\316S\277\342l~\376y\265\231\362\2361\232x\260\022"
 172      E26C7EFE 
 172      79B599F2 
 172      9E319A78 
 172      B012
 173 0092 1B39718B 		.ascii	"\0339q\213\033\346d\217<\220;|0\013\217b\210\271\255"
 173      1BE6648F 
 173      3C903B7C 
 173      300B8F62 
 173      88B9AD
 174 00a5 AC6D89AC 		.ascii	"\254m\211\254`\344G\342\3632\373\232q\331G\257\366\011"
 174      60E447E2 
 174      F332FB9A 
 174      71D947AF 
 174      F609
 175 00b7 463DD73B 		.ascii	"F=\327;\262\372\376OF\253IU\223:\220\223\365I]\223\221"
 175      B2FAFE4F 
 175      46AB4955 
 175      933A9093 
 175      F5495D93 
 176 00cc 2727EFEB 		.ascii	"''\357\353\223aE7\361\325\033N\247\037\333\201\375\213"
 176      93614537 
 176      F1D51B4E 
 176      A71FDB81 
 176      FD8B
 177 00de B65BC9E9 		.ascii	"\266[\311\351\233Ibv\373y\226\357\265\314Qi\372\351"
 177      9B496276 
 177      FB7996EF 
ARM GAS  /tmp/ccDhhCX2.s 			page 14


 177      B5CC5169 
 177      FAE9
 178 00f0 C00CF2CC 		.ascii	"\300\014\362\314\224'\307\335\264(M\321-\3522\351\340"
 178      9427C7DD 
 178      B4284DD1 
 178      2DEA32E9 
 178      E0
 179 0101 178B3D67 		.ascii	"\027\213=g\315"
 179      CD
 180              		.text
 181              		.section	.gnu.lto_.symbol_nodes.55bd48482f2a07cb,"",%progbits
 182 0000 789C4DC8 		.ascii	"x\234M\310\271\021\2000\020CQ\255\026\323\006\265\321"
 182      B9118030 
 182      104351AD 
 182      16D306B5 
 182      D1
 183 0011 020DC811 		.ascii	"\002\015\310\021\003\2319\313\"bh\200\224\"\010\354"
 183      039939CB 
 183      22626880 
 183      942208EC 
 184 0021 C04AFE3C 		.ascii	"\300J\376<\021\304\2002\256\024\220.@\272\347\236\033"
 184      11C48032 
 184      AE14902E 
 184      40BAE79E 
 184      1B
 185 0032 651513C5 		.ascii	"e\025\023\305\212\013\345\025\017\252)|&\013;\321\312"
 185      8A0BE515 
 185      0FAA297C 
 185      260B3BD1 
 185      CA
 186 0043 EDA4427E 		.ascii	"\355\244B~c4g\213w\374:\367\\\374iv$+"
 186      6334678B 
 186      77FC3AF7 
 186      5CFC6976 
 186      242B
 187              		.text
 188              		.section	.gnu.lto_.refs.55bd48482f2a07cb,"",%progbits
 189 0000 789C6362 		.ascii	"x\234cb`b\340g\200\000F\026&V\026V&&&f&\006&F\006\000"
 189      6062E067 
 189      80004616 
 189      26561656 
 189      26262666 
 190 001a 032B0037 		.ascii	"\003+\0007"
 191              		.text
 192              		.section	.gnu.lto_.decls.55bd48482f2a07cb,"",%progbits
 193 0000 789CBD58 		.ascii	"x\234\275X]l\024U\024\276w\366\247]h\260i\204\300\213"
 193      5D6C1455 
 193      14BE77F6 
 193      A75D68B0 
 193      6984C08B 
 194 0014 2C283E40 		.ascii	",(>@\332\021\254\244/\202\244\017\340C\301\210\030_"
 194      DA11ACA4 
 194      2F82A40F 
 194      E043C188 
 194      185F
 195 0026 4C33DD9D 		.ascii	"L3\335\235v\327t\177\334\231\212\350\203\227\026\001"
 195      76D7747F 
ARM GAS  /tmp/ccDhhCX2.s 			page 15


 195      DC998AE8 
 195      83971601 
 196 0036 8986827F 		.ascii	"\211\206\202\177`\002\335\362g0!\320\022\004S\012\013"
 196      6002DDF2 
 196      673021D0 
 196      1204530A 
 196      0B
 197 0047 156C44A4 		.ascii	"\025lD\244\201\200\012b\026,\240\242\241\245 ?\245\326"
 197      81800A62 
 197      162CA0A2 
 197      A1A5203F 
 197      A5D6
 198 0059 73EFDCDD 		.ascii	"s\357\334\335\235\231\316\354nM\344f\317\354\235\231"
 198      9D99CEEC 
 198      6E4DE466 
 198      CFEC9D99 
 199 0069 7BBE73EE 		.ascii	"{\276s\356\371\316\271\367\356\012H@\345\002B\303\320"
 199      F9CEB9F7 
 199      EE0A4840 
 199      E50242C3 
 199      D0
 200 007a EA4A105A 		.ascii	"\352J\020Z\350@\310\215\020\232\2032\215\336\267\202"
 200      E840C88D 
 200      109A8332 
 200      8DDEB782 
 201 008a 74801C01 		.ascii	"t\200\034\0019\015r\021\304\203\021\202\017\232\204"
 201      390D7211 
 201      C4831182 
 201      0F9A84
 202 0099 91A1D1B1 		.ascii	"\221\241\321\261\036\020\027\3108\220\"\220\255 \347"
 202      1E1017C8 
 202      38902290 
 202      AD20E7
 203 00a8 4092205D 		.ascii	"@\222 ] \227@v\203\2009t\017d\020\344\016\322\360Z\371"
 203      20974076 
 203      83803974 
 203      0F6410E4 
 203      0ED2F05A 
 204 00bd F32F410E 		.ascii	"\363/A\016\200L6\341wd\301\337m\262\341\340\330C:|\252"
 204      804C36E1 
 204      7764C1DF 
 204      6DB2E1E0 
 204      D8433A7C 
 205 00d2 0F534687 		.ascii	"\017SF\207A\274&l:\2771&l\212;\227c&9\356\024\320\033"
 205      41BC266C 
 205      3ABF3126 
 205      6C8A3B97 
 205      632639EE 
 206 00e9 8347FA2F 		.ascii	"\203G\372/p\014\032\033'|\237\002\371\016\344$\310T"
 206      700C1A1B 
 206      277C9F02 
 206      F90EE424 
 206      C854
 207 00fb 93ADD336 		.ascii	"\223\255\3236\266\346e\261\245\237\213\3001R\266.\200"
 207      B6E665B1 
 207      A59F8BC0 
 207      3152B62E 
ARM GAS  /tmp/ccDhhCX2.s 			page 16


 207      80
 208 010c FC04721E 		.ascii	"\374\004r\036\344q\223\255\213\334\3165\216\231\344"
 208      E47193AD 
 208      8BDCCE35 
 208      8E99E4
 209 011b B6BAF8F3 		.ascii	"\266\272\370\363\253\03435\227!\036\253\224\236\003"
 209      AB1C3335 
 209      97211EAB 
 209      949E03
 210 012a 6E5C206E 		.ascii	"n\\ n\220\002<\222\363\311h3I\364$\217]\356\303\033"
 210      90023C92 
 210      F3C96833 
 210      49F4248F 
 210      5DEEC31B 
 211 013e 49620581 		.ascii	"Ib\005\201t\"\030M@\037\023h\361\225\204`\325\203V\363"
 211      7422184D 
 211      401F1368 
 211      F1958460 
 211      D58356F3 
 212 0152 9B05DD30 		.ascii	"\233\005\3350\335W\260\204\307y\220\227u\212<l\006\323"
 212      DD57B084 
 212      C7799097 
 212      758A3C6C 
 212      06D3
 213 0164 D036429A 		.ascii	"\3206B\232\223\235\333\337\177\226\220B\011o\305\036"
 213      939DDBDF 
 213      7F969042 
 213      096FC51E 
 214 0174 98A58CD1 		.ascii	"\230\245\214\321t\264\023T\233\011\271<\333d\230\265"
 214      74B41354 
 214      9B09B93C 
 214      DB6498B5 
 215 0184 BCA1E367 		.ascii	"\274\241\343g\277\031O\234\022\376\234\001_\305\030"
 215      BF194F9C 
 215      12FE9C01 
 215      5FC518
 216 0193 4978079E 		.ascii	"Ix\007\236>Z\230d\347\251\375\025\314\303/\030\320\200"
 216      3E5A9864 
 216      E7A9FD15 
 216      CCC32F18 
 216      D080
 217 01a5 600492B0 		.ascii	"`\004\222\260\333\243\367\217\335\247\006P4\270\245"
 217      DBA3F78F 
 217      DDA70650 
 217      34B8A5
 218 01b4 96EED2B2 		.ascii	"\226\356\322\262\303\357\360'\364\246\000=t=\253iR\210"
 218      C3EFF027 
 218      F4A6003D 
 218      743DAB69 
 218      5288
 219 01c6 2D7802EB 		.ascii	"-x\002\3539X\242\301\203\271cS}\026\250F\222\334N&n"
 219      3958A2C1 
 219      83B96353 
 219      7D16A846 
 219      92DC4E26 
 220 01db C804AA30 		.ascii	"\310\004\2520\205\2003\201:\273j\327\014\026\250\335"
 220      85803381 
ARM GAS  /tmp/ccDhhCX2.s 			page 17


 220      3ABB6AD7 
 220      0C16A8DD 
 221 01eb 2C504382 		.ascii	",PC\202E\304\363\002\352\\\273Y\213x;\003z\327a\216"
 221      45C4F302 
 221      EA5CBB59 
 221      8B783B03 
 221      7AD7618E 
 222 01ff 3836451C 		.ascii	"86E\034\033#\300^\363\316\2601\207\362\031+\341%\216"
 222      1B23C05E 
 222      F3CEB031 
 222      87F2192B 
 222      E1258E
 223 0212 B48280D6 		.ascii	"\264\202\200\326\232\314?\201\266\022\262>\371\365\345"
 223      9ACC3F81 
 223      B612B23E 
 223      F9F5E5
 224 0221 6E4C4A58 		.ascii	"nLJX\244\004\364!\033\323\212'[F\230\015\342zd\343\253"
 224      A404F421 
 224      1BD38A27 
 224      5B46980D 
 224      E27A64E3 
 225 0236 135311FA 		.ascii	"\023S\021\372\304\254e\010\2066\012\332\223h;%\264\263"
 225      C4AC6508 
 225      86360ADA 
 225      93683B25 
 225      B4B3
 226 0248 F785055A 		.ascii	"\367\205\005Z\231\240,\266\370\014\366aA?m\255d\023"
 226      99A02CB6 
 226      F80CF661 
 226      413F6DAD 
 226      6413
 227 025a 078E1735 		.ascii	"\007\216\0275/O\016\017\267x\015\325\252\241\332\345"
 227      2F4F0E0F 
 227      B7780DD5 
 227      AAA1DAE5 
 228 026a C6418BDC 		.ascii	"\306A\213\3340\205h\203e\210H\277\177\001\037\275\037"
 228      30856883 
 228      658848BF 
 228      7F011FBD 
 228      1F
 229 027b DC917047 		.ascii	"\334\221pG\326\370\330L\324N\211{w\310r\242\235C@\316"
 229      D6F8D84C 
 229      D44E897B 
 229      77C872A2 
 229      9D4340CE 
 230 028f 7AF26078 		.ascii	"z\362`x\270\311i\26125\346S\367\367>;7\200\033AG\302"
 230      B8C969B1 
 230      3235E653 
 230      F7F73E3B 
 230      37801B41 
 231 02a5 5D8CAE16 		.ascii	"]\214\256\026\2479\017]\246<t\031s\313\345\311th\001"
 231      A7390F5D 
 231      A63C7419 
 231      73CBE5C9 
 231      746801
 232 02b8 3E625F80 		.ascii	">b_\200G\355\013p,Z\223\3618]D\011\333\"\222\360\036"
 232      47ED0B70 
ARM GAS  /tmp/ccDhhCX2.s 			page 18


 232      2C5A93F1 
 232      385D4409 
 232      DB2292F0 
 233 02cd 3C2D77A2 		.ascii	"<-w\242\333y\322\215\307\352\346\224\366\247K\313E\023"
 233      DB79D28D 
 233      C7EAE694 
 233      F6A74BCB 
 233      4513
 234 02df F13B9C96 		.ascii	"\361;\234\226\265q\354\323\315\223H\\0\220\177$\237"
 234      B571ECD3 
 234      CD93485C 
 234      30907F24 
 234      9F
 235 02f0 E2382C2F 		.ascii	"\3428,/\320<\020\320.\006m\257\305\374\344j\267\251"
 235      D03C10D0 
 235      2E066DAF 
 235      C5FCE46A 
 235      B7A9
 236 0302 9A46D29E 		.ascii	"\232F\322\236\034j]\272\232j$\207Y\252u\361T\263\323"
 236      1C6A5DBA 
 236      9A6A2487 
 236      59AA75F1 
 236      54B3D3
 237 0315 E2913961 		.ascii	"\342\2219a\231j}r7\351\033\036^[l*\251\256,%u&O\266"
 237      996A7D72 
 237      37E91B1E 
 237      5E5B6C2A 
 237      A9AE2C25 
 238 032d B525C00E 		.ascii	"\265%\300\016\345\334h\230j\267d\212\3341\225\350\351"
 238      E5DC6898 
 238      6AB7648A 
 238      DC3195E8 
 238      E9
 239 033e 7C586AA3 		.ascii	"|Xj\243\341\246\326%\374}\016\255s:\226~H\261$\341\236"
 239      E1A6D625 
 239      FC7D0EAD 
 239      733A967E 
 239      48B124E1 
 240 0353 1C6AD958 		.ascii	"\034j\331X\262\323\342Q\371q$K\361D\242e\325\011\233"
 240      B2D3E251 
 240      F971244B 
 240      F144A265 
 240      D5099B
 241 0366 0541C273 		.ascii	"\005A\302s\306\333\206\370\027#Q\006rJ\320:\212\342"
 241      C6DB86F8 
 241      17235106 
 241      724AD03A 
 241      8AE2
 242 0378 D52D2371 		.ascii	"\325-#q\234\002x\024\245\327\221\376_{&5\261e\344\022"
 242      9C027814 
 242      A5D791FE 
 242      5F7B2635 
 242      B165E412 
 243 038c 2E019C5E 		.ascii	".\001\234^\023\0239q\250#\275\240\252)1T\222\330t\274"
 243      13133971 
 243      A823BDA0 
 243      AA293154 
ARM GAS  /tmp/ccDhhCX2.s 			page 19


 243      92D874BC 
 244 03a0 881E6EE8 		.ascii	"\210\036n\350sd\2003\264)(\016\016'\332V\266@=\036\305"
 244      73648033 
 244      B429280E 
 244      0E27DA56 
 244      B6403D1E 
 245 03b5 56FEC300 		.ascii	"V\376\303\000\2543M\322\246\213Y\336\364\203\267\026"
 245      AC334DD2 
 245      A68B59DE 
 245      F483B716 
 246 03c5 1E1A8749 		.ascii	"\036\032\207I\370wF\350\037f/\007%\257\3664\267\217"
 246      F87746E8 
 246      1F662F07 
 246      25AFF634 
 246      B78F
 247 03d7 43278B9A 		.ascii	"C'\213\232%S\366\323U\321\216\232\2772\331/\240\177"
 247      2553F6D3 
 247      55D18E9A 
 247      BF32D92F 
 247      A07F
 248 03e9 584CA921 		.ascii	"XL\251!\253\341\274\2535>\300`\234\264\023\342q\233"
 248      ABE1BCAB 
 248      353EC060 
 248      9CB413E2 
 248      719B
 249 03fb 8C9FC962 		.ascii	"\214\237\311b\274Oo|\205k\264\306\2759\215o\311b| c"
 249      BC4F6F7C 
 249      856BB4C6 
 249      BD398D6F 
 249      C9627C20 
 250 0410 5CDBE873 		.ascii	"\\\333\350s\032/\034\335\314\017f1~[o\374\320\250\215"
 250      1A2F1CDD 
 250      CC0F6631 
 250      7E5B6FFC 
 250      D0A88D
 251 0423 7B4DE4A7 		.ascii	"{M\344\247\262B\302\177\342)p\275\301\2567\331\365\026"
 251      B242C27F 
 251      E22970BD 
 251      C1AE37D9 
 251      F516
 252 0435 5CD3CDCE 		.ascii	"\\\323\315\316\237kz&\336cL\364\376\3274H\264\303\371"
 252      9F6B7A26 
 252      DE634CF4 
 252      FED73448 
 252      B4C3F9
 253 0448 48D2162D 		.ascii	"H\322\026-\001}0j0\013ZS\333\322G\371\200\345\242)\005"
 253      017D306A 
 253      300B5A53 
 253      DBD247F9 
 253      80E5A229 
 254 045d B671D460 		.ascii	"\266q\324`Y<\333\224\017X\261\205gVM\277PI\370\012;"
 254      593CDB94 
 254      0F58B185 
 254      67564DBF 
 254      5049F80A 
 255 0472 875C6564 		.ascii	"\207\\ed\336a\327{\354:\310\256C\371\320\233\314\320"
 255      DE61D77B 
ARM GAS  /tmp/ccDhhCX2.s 			page 20


 255      EC3AC8AE 
 255      43F9D09B 
 255      CCD0
 256 0484 9BDEE0F8 		.ascii	"\233\336\340\370\276g\336\360rl\200\333\\\226G\225+"
 256      BE67DEF0 
 256      726C80DB 
 256      5C964795 
 256      2B
 257 0495 03DD4EF8 		.ascii	"\003\335N\370\025\353\324L\011\250\215\015\273h\273"
 257      15EBD44C 
 257      09A88D0D 
 257      BB68BB
 258 04a4 3325B1E9 		.ascii	"3%\261\351\264\242\355\203wY%\330\253\351\366\301D\333"
 258      B4A2ED83 
 258      775925D8 
 258      ABE9F6C1 
 258      44DB
 259 04b6 AA4DDAE9 		.ascii	"\252M\332\351H\333\013\357\347Pe\323\341\026[2[\350"
 259      48DB0BEF 
 259      E75065D3 
 259      E1165B32 
 259      5BE8
 260 04c8 837CD452 		.ascii	"\203|\324Rgj\330\377\232\342\230\270\331f\207\270\236"
 260      676AD8FF 
 260      9AE298B8 
 260      D96687B8 
 260      9E
 261 04d9 81B74661 		.ascii	"\201\267Fa\304\266\231\334\223\274p\375n#^\327\024g"
 261      C4B699DC 
 261      93BC70FD 
 261      6E235ED7 
 261      1467
 262 04eb 479C479A 		.ascii	"G\234G\232H|\206i\357\204S\301H\363\214\011\001\355"
 262      487C8669 
 262      EF8453C1 
 262      48F38C09 
 262      01ED
 263 04fd A47F20A4 		.ascii	"\244\177 \244n\332\340\2063\364\030\372\312\275\211"
 263      6EDAE086 
 263      33F418FA 
 263      CABD89
 264 050c 149A3367 		.ascii	"\024\2323g\215`{(\222\360<K\312M\024w\270\365\024s\303"
 264      8D607B28 
 264      92F03C4B 
 264      CA4D1477 
 264      B8F51473 
 265 0521 47F55E7C 		.ascii	"G\365^|\353\266\372K!\335\246\242V\322\323\223\274r"
 265      EBB6FA4B 
 265      21DDA6A2 
 265      56D2D393 
 265      BC72
 266 0533 BDC7B99C 		.ascii	"\275\307\271\234\376\263A\317\013\030f\365\033K\352"
 266      FEB341CF 
 266      0B1866F5 
 266      1B4BEA
 267 0542 BF59C429 		.ascii	"\277Y\304)\274\345&\210\370\020\332\312\321^\262:\361"
 267      BCE52688 
ARM GAS  /tmp/ccDhhCX2.s 			page 21


 267      F810DACA 
 267      D15EB23A 
 267      F1
 268 0553 5C4A93AE 		.ascii	"\\J\223\256mo\243\373\004\316\356{\261\266ui\247M\246"
 268      6D6FA3FB 
 268      04CEEE7B 
 268      B1B67569 
 268      A74DA6
 269 0566 7423F3F6 		.ascii	"t#\363\366\014\326\366\026\355\224\303\336\336\314\274"
 269      0CD6F616 
 269      ED94C3DE 
 269      DECCBC
 270 0575 EDC7DAE2 		.ascii	"\355\307\332\342\257\375\372cooe\336\016bmu\326~2\261"
 270      AFFDFA63 
 270      6F6F65DE 
 270      0E626D75 
 270      D67E32B1 
 271 0589 E6452D94 		.ascii	"\346E-\224\374}\307\211\327\233\246\276UO=\037q~%\021"
 271      FC7DC789 
 271      D79BA6BE 
 271      554F3D1F 
 271      717E2511 
 272 059d 84F4880E 		.ascii	"\204\364\210\016\375\010\323\336@Y\262+\326Va\254\011"
 272      FD08D3DE 
 272      4059B22B 
 272      D65661AC 
 272      09
 273 05ae F7E7E5C5 		.ascii	"\367\347\345\3058\015{\304\302p\263\301\360iCV\316("
 273      380D7BC4 
 273      C270B3C1 
 273      F0694356 
 273      CE28
 274 05c0 2B132B03 		.ascii	"+\023+\003\301\232\340\242\305bD\021\003R\275X\037\254"
 274      C19AE0A2 
 274      C5624411 
 274      0352BD58 
 274      1FAC
 275 05d2 11153526 		.ascii	"\021\0255&K!E\014\311!\336-\363\241\331\306\2611U\214"
 275      4B21450C 
 275      C921DE2D 
 275      F3A1D9C6 
 275      B131558C 
 276 05e6 4662AA22 		.ascii	"Fb\252\"\316{\261\252\262\352M\321\027\011E\203\365"
 276      CE7BB1AA 
 276      B2EA4DD1 
 276      17094583 
 276      F5
 277 05f7 724C11E7 		.ascii	"rL\021\347WV\212\276\200\272,*+e\001\344\012)u\325\252"
 277      57568ABE 
 277      80BA2C2A 
 277      2B6501E4 
 277      0A2975D5 
 278 060c 7BFEC225 		.ascii	"{\376\302%\336J\244\210\341Z&\317\210\201HH\026c\262"
 278      DE4AA488 
 278      E15A26CF 
 278      88814848 
 278      1663B2
ARM GAS  /tmp/ccDhhCX2.s 			page 22


 279 061f 224B315F 		.ascii	"\"K1_\000,\307\374K\245\230,J\261\320,\261\316\347+"
 279      002CC7FC 
 279      4BA5982C 
 279      4AB1D02C 
 279      B1CEE72B 
 280 0633 854EA91C 		.ascii	"\205N\251\034\252\221\375~\331\237~\020\216\204\345"
 280      AA91FD7E 
 280      D99F7E10 
 280      8E84E5
 281 0642 5259AA09 		.ascii	"RY\252\011\226\226WW\224\316zjf\371\353\263D\303\013"
 281      96965757 
 281      94CE7A6A 
 281      66F9EBB3 
 281      44C30B
 282 0655 3118F6D5 		.ascii	"1\030\366\3257\370e\230\203?\030V\301\201\002\370zz"
 282      37F86598 
 282      833F1856 
 282      C18102F8 
 282      7A7A
 283 0667 56B5DA84 		.ascii	"V\265\332\204\037\236\361\220\344\013\004\303\262X\355"
 283      1F9EF190 
 283      E40B04C3 
 283      B258ED
 284 0676 976BA586 		.ascii	"\227k\245\206z\265:\025\015Ou5w\247\240\001:\025\325"
 284      7AB53A15 
 284      0D4F7535 
 284      77A7A001 
 284      3A15D5
 285 0689 2A3CE13D 		.ascii	"*<\341=G\264A\025\202Q\\\343\250\223\325\345\377\213"
 285      47B44115 
 285      82515CE3 
 285      A893D5E5 
 285      FF8B
 286 069b B7945C18 		.ascii	"\267\224\\\030`\362\272\274\254\242\254\\\0378\360\032"
 286      60F2BABC 
 286      ACA2AC5C 
 286      1F38F01A 
 287 06ab 7C752BC1 		.ascii	"|u+\301\267d\240ni,\250\312\212P\023\305a\027$\203_"
 287      B764A06E 
 287      692CA8CA 
 287      8A5013C5 
 287      61172483 
 288 06c0 C93F6B02 		.ascii	"\311?k\002\250\250J\016Eb\313\026\263\007\364F\353\275"
 288      A8A84A0E 
 288      4562CB16 
 288      B307F446 
 288      EBBD
 289 06d2 5CF5928B 		.ascii	"\\\365\222\213\341:)\242\343\215\220\352\256i\250\255"
 289      E13A29A2 
 289      E38D90EA 
 289      AE69A8AD 
 290 06e2 95634E6A 		.ascii	"\225cNj\324!G\024w\244\266V\221\325\242\220\262\250"
 290      D4214714 
 290      77A4B656 
 290      91D5A290 
 290      B2A8
 291 06f4 E635D9A7 		.ascii	"\3465\331\247>\037\016\252\216\220\022}\250)\024\013"
ARM GAS  /tmp/ccDhhCX2.s 			page 23


 291      3E1F0EAA 
 291      8E90127D 
 291      A829140B 
 292 0704 86EB680A 		.ascii	"\206\353h\012\301\273pC}}Am\330\253De\037\236\351\206"
 292      C1BB7043 
 292      7D7D416D 
 292      D8AB4465 
 292      1F9EE986 
 293 0718 49FAA2CB 		.ascii	"I\372\242\313\340\205\032\210E\226:\353e\251\366_\203"
 293      E0851A88 
 293      45963AEB 
 293      65A9F65F 
 293      83
 294 0729 11CA2F   		.ascii	"\021\312/"
 295              		.text
 296              		.section	.gnu.lto_.symtab.55bd48482f2a07cb,"",%progbits
 297 0000 6D734F62 		.ascii	"msObjectInit\000\000\000\000\000\000\000\000\000\000"
 297      6A656374 
 297      496E6974 
 297      00000000 
 297      00000000 
 298 0016 0000DD00 		.ascii	"\000\000\335\000\000\000"
 298      0000
 299              		.text
 300              		.section	.gnu.lto_.opts,"",%progbits
 301 0000 272D6D63 		.ascii	"'-mcpu=cortex-m4' '-mno-thumb-interwork' '-mthumb' "
 301      70753D63 
 301      6F727465 
 301      782D6D34 
 301      2720272D 
 302 0033 272D6767 		.ascii	"'-ggdb' '-O0' '-fomit-frame-pointer' '-falign-funct"
 302      64622720 
 302      272D4F30 
 302      2720272D 
 302      666F6D69 
 303 0066 696F6E73 		.ascii	"ions=16' '-ffunction-sections' '-fdata-sections' '-"
 303      3D313627 
 303      20272D66 
 303      66756E63 
 303      74696F6E 
 304 0099 666E6F2D 		.ascii	"fno-common' '-flto'\000"
 304      636F6D6D 
 304      6F6E2720 
 304      272D666C 
 304      746F2700 
 305              		.text
 306              		.cfi_sections	.debug_frame
 307              		.section	.text.writes,"ax",%progbits
 308              		.align	2
 309              		.p2align 4,,15
 310              		.thumb
 311              		.thumb_func
 312              		.type	writes, %function
 313              	writes:
 314              	.LFB272:
 315              		.file 1 "../ChibiOS/os/hal/lib/streams/memstreams.c"
 316              		.loc 1 46 0
ARM GAS  /tmp/ccDhhCX2.s 			page 24


 317              		.cfi_startproc
 318              		@ args = 0, pretend = 0, frame = 24
 319              		@ frame_needed = 0, uses_anonymous_args = 0
 320 0000 00B5     		push	{lr}
 321              		.cfi_def_cfa_offset 4
 322              		.cfi_offset 14, -4
 323 0002 87B0     		sub	sp, sp, #28
 324              		.cfi_def_cfa_offset 32
 325 0004 0390     		str	r0, [sp, #12]
 326 0006 0291     		str	r1, [sp, #8]
 327 0008 0192     		str	r2, [sp, #4]
 328              		.loc 1 47 0
 329 000a 039B     		ldr	r3, [sp, #12]
 330 000c 0593     		str	r3, [sp, #20]
 331              		.loc 1 49 0
 332 000e 059B     		ldr	r3, [sp, #20]
 333 0010 9A68     		ldr	r2, [r3, #8]
 334 0012 059B     		ldr	r3, [sp, #20]
 335 0014 DB68     		ldr	r3, [r3, #12]
 336 0016 D21A     		subs	r2, r2, r3
 337 0018 019B     		ldr	r3, [sp, #4]
 338 001a 9A42     		cmp	r2, r3
 339 001c 05D2     		bcs	.L2
 340              		.loc 1 50 0
 341 001e 059B     		ldr	r3, [sp, #20]
 342 0020 9A68     		ldr	r2, [r3, #8]
 343 0022 059B     		ldr	r3, [sp, #20]
 344 0024 DB68     		ldr	r3, [r3, #12]
 345 0026 D31A     		subs	r3, r2, r3
 346 0028 0193     		str	r3, [sp, #4]
 347              	.L2:
 348              		.loc 1 51 0
 349 002a 059B     		ldr	r3, [sp, #20]
 350 002c 5A68     		ldr	r2, [r3, #4]
 351 002e 059B     		ldr	r3, [sp, #20]
 352 0030 DB68     		ldr	r3, [r3, #12]
 353 0032 1344     		add	r3, r3, r2
 354 0034 1846     		mov	r0, r3
 355 0036 0299     		ldr	r1, [sp, #8]
 356 0038 019A     		ldr	r2, [sp, #4]
 357 003a FFF7FEFF 		bl	memcpy
 358              		.loc 1 52 0
 359 003e 059B     		ldr	r3, [sp, #20]
 360 0040 DA68     		ldr	r2, [r3, #12]
 361 0042 019B     		ldr	r3, [sp, #4]
 362 0044 1A44     		add	r2, r2, r3
 363 0046 059B     		ldr	r3, [sp, #20]
 364 0048 DA60     		str	r2, [r3, #12]
 365              		.loc 1 53 0
 366 004a 019B     		ldr	r3, [sp, #4]
 367              		.loc 1 54 0
 368 004c 1846     		mov	r0, r3
 369 004e 07B0     		add	sp, sp, #28
 370              		@ sp needed
 371 0050 5DF804FB 		ldr	pc, [sp], #4
 372              		.cfi_endproc
 373              	.LFE272:
ARM GAS  /tmp/ccDhhCX2.s 			page 25


 374              		.size	writes, .-writes
 375 0054 AFF30080 		.section	.text.reads,"ax",%progbits
 375      AFF30080 
 375      AFF30080 
 376              		.align	2
 377              		.p2align 4,,15
 378              		.thumb
 379              		.thumb_func
 380              		.type	reads, %function
 381              	reads:
 382              	.LFB273:
 383              		.loc 1 56 0
 384              		.cfi_startproc
 385              		@ args = 0, pretend = 0, frame = 24
 386              		@ frame_needed = 0, uses_anonymous_args = 0
 387 0000 00B5     		push	{lr}
 388              		.cfi_def_cfa_offset 4
 389              		.cfi_offset 14, -4
 390 0002 87B0     		sub	sp, sp, #28
 391              		.cfi_def_cfa_offset 32
 392 0004 0390     		str	r0, [sp, #12]
 393 0006 0291     		str	r1, [sp, #8]
 394 0008 0192     		str	r2, [sp, #4]
 395              		.loc 1 57 0
 396 000a 039B     		ldr	r3, [sp, #12]
 397 000c 0593     		str	r3, [sp, #20]
 398              		.loc 1 59 0
 399 000e 059B     		ldr	r3, [sp, #20]
 400 0010 DA68     		ldr	r2, [r3, #12]
 401 0012 059B     		ldr	r3, [sp, #20]
 402 0014 1B69     		ldr	r3, [r3, #16]
 403 0016 D21A     		subs	r2, r2, r3
 404 0018 019B     		ldr	r3, [sp, #4]
 405 001a 9A42     		cmp	r2, r3
 406 001c 05D2     		bcs	.L5
 407              		.loc 1 60 0
 408 001e 059B     		ldr	r3, [sp, #20]
 409 0020 DA68     		ldr	r2, [r3, #12]
 410 0022 059B     		ldr	r3, [sp, #20]
 411 0024 1B69     		ldr	r3, [r3, #16]
 412 0026 D31A     		subs	r3, r2, r3
 413 0028 0193     		str	r3, [sp, #4]
 414              	.L5:
 415              		.loc 1 61 0
 416 002a 059B     		ldr	r3, [sp, #20]
 417 002c 5A68     		ldr	r2, [r3, #4]
 418 002e 059B     		ldr	r3, [sp, #20]
 419 0030 1B69     		ldr	r3, [r3, #16]
 420 0032 1344     		add	r3, r3, r2
 421 0034 0298     		ldr	r0, [sp, #8]
 422 0036 1946     		mov	r1, r3
 423 0038 019A     		ldr	r2, [sp, #4]
 424 003a FFF7FEFF 		bl	memcpy
 425              		.loc 1 62 0
 426 003e 059B     		ldr	r3, [sp, #20]
 427 0040 1A69     		ldr	r2, [r3, #16]
 428 0042 019B     		ldr	r3, [sp, #4]
ARM GAS  /tmp/ccDhhCX2.s 			page 26


 429 0044 1A44     		add	r2, r2, r3
 430 0046 059B     		ldr	r3, [sp, #20]
 431 0048 1A61     		str	r2, [r3, #16]
 432              		.loc 1 63 0
 433 004a 019B     		ldr	r3, [sp, #4]
 434              		.loc 1 64 0
 435 004c 1846     		mov	r0, r3
 436 004e 07B0     		add	sp, sp, #28
 437              		@ sp needed
 438 0050 5DF804FB 		ldr	pc, [sp], #4
 439              		.cfi_endproc
 440              	.LFE273:
 441              		.size	reads, .-reads
 442 0054 AFF30080 		.section	.text.put,"ax",%progbits
 442      AFF30080 
 442      AFF30080 
 443              		.align	2
 444              		.p2align 4,,15
 445              		.thumb
 446              		.thumb_func
 447              		.type	put, %function
 448              	put:
 449              	.LFB274:
 450              		.loc 1 66 0
 451              		.cfi_startproc
 452              		@ args = 0, pretend = 0, frame = 16
 453              		@ frame_needed = 0, uses_anonymous_args = 0
 454              		@ link register save eliminated.
 455 0000 84B0     		sub	sp, sp, #16
 456              		.cfi_def_cfa_offset 16
 457 0002 0190     		str	r0, [sp, #4]
 458 0004 0B46     		mov	r3, r1
 459 0006 8DF80330 		strb	r3, [sp, #3]
 460              		.loc 1 67 0
 461 000a 019B     		ldr	r3, [sp, #4]
 462 000c 0393     		str	r3, [sp, #12]
 463              		.loc 1 69 0
 464 000e 039B     		ldr	r3, [sp, #12]
 465 0010 9A68     		ldr	r2, [r3, #8]
 466 0012 039B     		ldr	r3, [sp, #12]
 467 0014 DB68     		ldr	r3, [r3, #12]
 468 0016 9A42     		cmp	r2, r3
 469 0018 02D1     		bne	.L8
 470              		.loc 1 70 0
 471 001a 6FF00103 		mvn	r3, #1
 472 001e 0DE0     		b	.L9
 473              	.L8:
 474              		.loc 1 71 0
 475 0020 039B     		ldr	r3, [sp, #12]
 476 0022 5A68     		ldr	r2, [r3, #4]
 477 0024 039B     		ldr	r3, [sp, #12]
 478 0026 DB68     		ldr	r3, [r3, #12]
 479 0028 1344     		add	r3, r3, r2
 480 002a 9DF80320 		ldrb	r2, [sp, #3]
 481 002e 1A70     		strb	r2, [r3]
 482              		.loc 1 72 0
 483 0030 039B     		ldr	r3, [sp, #12]
ARM GAS  /tmp/ccDhhCX2.s 			page 27


 484 0032 DB68     		ldr	r3, [r3, #12]
 485 0034 5A1C     		adds	r2, r3, #1
 486 0036 039B     		ldr	r3, [sp, #12]
 487 0038 DA60     		str	r2, [r3, #12]
 488              		.loc 1 73 0
 489 003a 0023     		movs	r3, #0
 490              	.L9:
 491              		.loc 1 74 0
 492 003c 1846     		mov	r0, r3
 493 003e 04B0     		add	sp, sp, #16
 494              		@ sp needed
 495 0040 7047     		bx	lr
 496              		.cfi_endproc
 497              	.LFE274:
 498              		.size	put, .-put
 499 0042 00BFAFF3 		.section	.text.get,"ax",%progbits
 499      0080AFF3 
 499      0080AFF3 
 499      0080
 500              		.align	2
 501              		.p2align 4,,15
 502              		.thumb
 503              		.thumb_func
 504              		.type	get, %function
 505              	get:
 506              	.LFB275:
 507              		.loc 1 76 0
 508              		.cfi_startproc
 509              		@ args = 0, pretend = 0, frame = 16
 510              		@ frame_needed = 0, uses_anonymous_args = 0
 511              		@ link register save eliminated.
 512 0000 84B0     		sub	sp, sp, #16
 513              		.cfi_def_cfa_offset 16
 514 0002 0190     		str	r0, [sp, #4]
 515              		.loc 1 78 0
 516 0004 019B     		ldr	r3, [sp, #4]
 517 0006 0393     		str	r3, [sp, #12]
 518              		.loc 1 80 0
 519 0008 039B     		ldr	r3, [sp, #12]
 520 000a DA68     		ldr	r2, [r3, #12]
 521 000c 039B     		ldr	r3, [sp, #12]
 522 000e 1B69     		ldr	r3, [r3, #16]
 523 0010 9A42     		cmp	r2, r3
 524 0012 02D1     		bne	.L11
 525              		.loc 1 81 0
 526 0014 6FF00103 		mvn	r3, #1
 527 0018 0EE0     		b	.L12
 528              	.L11:
 529              		.loc 1 82 0
 530 001a 039B     		ldr	r3, [sp, #12]
 531 001c 5A68     		ldr	r2, [r3, #4]
 532 001e 039B     		ldr	r3, [sp, #12]
 533 0020 1B69     		ldr	r3, [r3, #16]
 534 0022 1344     		add	r3, r3, r2
 535 0024 1B78     		ldrb	r3, [r3]
 536 0026 8DF80B30 		strb	r3, [sp, #11]
 537              		.loc 1 83 0
ARM GAS  /tmp/ccDhhCX2.s 			page 28


 538 002a 039B     		ldr	r3, [sp, #12]
 539 002c 1B69     		ldr	r3, [r3, #16]
 540 002e 5A1C     		adds	r2, r3, #1
 541 0030 039B     		ldr	r3, [sp, #12]
 542 0032 1A61     		str	r2, [r3, #16]
 543              		.loc 1 84 0
 544 0034 9DF80B30 		ldrb	r3, [sp, #11]	@ zero_extendqisi2
 545              	.L12:
 546              		.loc 1 85 0
 547 0038 1846     		mov	r0, r3
 548 003a 04B0     		add	sp, sp, #16
 549              		@ sp needed
 550 003c 7047     		bx	lr
 551              		.cfi_endproc
 552              	.LFE275:
 553              		.size	get, .-get
 554 003e 00BF     		.section	.rodata.vmt,"a",%progbits
 555              		.align	2
 556              		.type	vmt, %object
 557              		.size	vmt, 16
 558              	vmt:
 559 0000 00000000 		.word	writes
 560 0004 00000000 		.word	reads
 561 0008 00000000 		.word	put
 562 000c 00000000 		.word	get
 563              		.section	.text.msObjectInit,"ax",%progbits
 564              		.align	2
 565              		.p2align 4,,15
 566              		.global	msObjectInit
 567              		.thumb
 568              		.thumb_func
 569              		.type	msObjectInit, %function
 570              	msObjectInit:
 571              	.LFB276:
 572              		.loc 1 104 0
 573              		.cfi_startproc
 574              		@ args = 0, pretend = 0, frame = 16
 575              		@ frame_needed = 0, uses_anonymous_args = 0
 576              		@ link register save eliminated.
 577 0000 84B0     		sub	sp, sp, #16
 578              		.cfi_def_cfa_offset 16
 579 0002 0390     		str	r0, [sp, #12]
 580 0004 0291     		str	r1, [sp, #8]
 581 0006 0192     		str	r2, [sp, #4]
 582 0008 0093     		str	r3, [sp]
 583              		.loc 1 106 0
 584 000a 039B     		ldr	r3, [sp, #12]
 585 000c 074A     		ldr	r2, .L14
 586 000e 1A60     		str	r2, [r3]
 587              		.loc 1 107 0
 588 0010 039B     		ldr	r3, [sp, #12]
 589 0012 029A     		ldr	r2, [sp, #8]
 590 0014 5A60     		str	r2, [r3, #4]
 591              		.loc 1 108 0
 592 0016 039B     		ldr	r3, [sp, #12]
 593 0018 019A     		ldr	r2, [sp, #4]
 594 001a 9A60     		str	r2, [r3, #8]
ARM GAS  /tmp/ccDhhCX2.s 			page 29


 595              		.loc 1 109 0
 596 001c 039B     		ldr	r3, [sp, #12]
 597 001e 009A     		ldr	r2, [sp]
 598 0020 DA60     		str	r2, [r3, #12]
 599              		.loc 1 110 0
 600 0022 039B     		ldr	r3, [sp, #12]
 601 0024 0022     		movs	r2, #0
 602 0026 1A61     		str	r2, [r3, #16]
 603              		.loc 1 111 0
 604 0028 04B0     		add	sp, sp, #16
 605              		@ sp needed
 606 002a 7047     		bx	lr
 607              	.L15:
 608              		.align	2
 609              	.L14:
 610 002c 00000000 		.word	vmt
 611              		.cfi_endproc
 612              	.LFE276:
 613              		.size	msObjectInit, .-msObjectInit
 614              		.text
 615              	.Letext0:
 616              		.file 2 "/nfs/nfs5/home/research/hardware/arm2/gcc-arm-embedded/gcc-arm-none-eabi-4_8-2014q2/lib/g
 617              		.file 3 "/nfs/nfs5/home/research/hardware/arm2/gcc-arm-embedded/gcc-arm-none-eabi-4_8-2014q2/arm-n
 618              		.file 4 "/nfs/nfs5/home/research/hardware/arm2/gcc-arm-embedded/gcc-arm-none-eabi-4_8-2014q2/arm-n
 619              		.file 5 "../ChibiOS/os/rt/ports/ARMCMx/compilers/GCC/chtypes.h"
 620              		.file 6 "../ChibiOS/os/rt/include/chsystypes.h"
 621              		.file 7 "../ChibiOS/os/rt/include/chschd.h"
 622              		.file 8 "../ChibiOS/os/rt/ports/ARMCMx/chcore.h"
 623              		.file 9 "../ChibiOS/os/rt/ports/ARMCMx/chcore_v7m.h"
 624              		.file 10 "../ChibiOS/os/rt/include/chtm.h"
 625              		.file 11 "../ChibiOS/os/rt/include/chsem.h"
 626              		.file 12 "../ChibiOS/os/rt/include/chmtx.h"
 627              		.file 13 "../ChibiOS/os/hal/lib/streams/memstreams.h"
 628              		.file 14 "../ChibiOS/os/ext/CMSIS/include/core_cm4.h"
 629              		.section	.debug_info,"",%progbits
 630              	.Ldebug_info0:
 631 0000 EB080000 		.4byte	0x8eb
 632 0004 0400     		.2byte	0x4
 633 0006 00000000 		.4byte	.Ldebug_abbrev0
 634 000a 04       		.byte	0x4
 635 000b 01       		.uleb128 0x1
 636 000c 65010000 		.4byte	.LASF113
 637 0010 01       		.byte	0x1
 638 0011 AE030000 		.4byte	.LASF114
 639 0015 AC040000 		.4byte	.LASF115
 640 0019 00000000 		.4byte	.Ldebug_ranges0+0
 641 001d 00000000 		.4byte	0
 642 0021 00000000 		.4byte	.Ldebug_line0
 643 0025 02       		.uleb128 0x2
 644 0026 04       		.byte	0x4
 645 0027 05       		.byte	0x5
 646 0028 696E7400 		.ascii	"int\000"
 647 002c 03       		.uleb128 0x3
 648 002d 15000000 		.4byte	.LASF2
 649 0031 02       		.byte	0x2
 650 0032 D4       		.byte	0xd4
 651 0033 37000000 		.4byte	0x37
ARM GAS  /tmp/ccDhhCX2.s 			page 30


 652 0037 04       		.uleb128 0x4
 653 0038 04       		.byte	0x4
 654 0039 07       		.byte	0x7
 655 003a 45020000 		.4byte	.LASF0
 656 003e 04       		.uleb128 0x4
 657 003f 01       		.byte	0x1
 658 0040 06       		.byte	0x6
 659 0041 D3000000 		.4byte	.LASF1
 660 0045 03       		.uleb128 0x3
 661 0046 2C000000 		.4byte	.LASF3
 662 004a 03       		.byte	0x3
 663 004b 1C       		.byte	0x1c
 664 004c 50000000 		.4byte	0x50
 665 0050 04       		.uleb128 0x4
 666 0051 01       		.byte	0x1
 667 0052 08       		.byte	0x8
 668 0053 04040000 		.4byte	.LASF4
 669 0057 04       		.uleb128 0x4
 670 0058 02       		.byte	0x2
 671 0059 05       		.byte	0x5
 672 005a 24040000 		.4byte	.LASF5
 673 005e 04       		.uleb128 0x4
 674 005f 02       		.byte	0x2
 675 0060 07       		.byte	0x7
 676 0061 72020000 		.4byte	.LASF6
 677 0065 03       		.uleb128 0x3
 678 0066 CA020000 		.4byte	.LASF7
 679 006a 03       		.byte	0x3
 680 006b 37       		.byte	0x37
 681 006c 70000000 		.4byte	0x70
 682 0070 04       		.uleb128 0x4
 683 0071 04       		.byte	0x4
 684 0072 05       		.byte	0x5
 685 0073 06010000 		.4byte	.LASF8
 686 0077 03       		.uleb128 0x3
 687 0078 41050000 		.4byte	.LASF9
 688 007c 03       		.byte	0x3
 689 007d 38       		.byte	0x38
 690 007e 82000000 		.4byte	0x82
 691 0082 04       		.uleb128 0x4
 692 0083 04       		.byte	0x4
 693 0084 07       		.byte	0x7
 694 0085 F7040000 		.4byte	.LASF10
 695 0089 04       		.uleb128 0x4
 696 008a 08       		.byte	0x8
 697 008b 05       		.byte	0x5
 698 008c C5000000 		.4byte	.LASF11
 699 0090 03       		.uleb128 0x3
 700 0091 84030000 		.4byte	.LASF12
 701 0095 03       		.byte	0x3
 702 0096 4E       		.byte	0x4e
 703 0097 9B000000 		.4byte	0x9b
 704 009b 04       		.uleb128 0x4
 705 009c 08       		.byte	0x8
 706 009d 07       		.byte	0x7
 707 009e 51000000 		.4byte	.LASF13
 708 00a2 04       		.uleb128 0x4
ARM GAS  /tmp/ccDhhCX2.s 			page 31


 709 00a3 04       		.byte	0x4
 710 00a4 07       		.byte	0x7
 711 00a5 FC020000 		.4byte	.LASF14
 712 00a9 05       		.uleb128 0x5
 713 00aa 04       		.byte	0x4
 714 00ab 04       		.uleb128 0x4
 715 00ac 01       		.byte	0x1
 716 00ad 08       		.byte	0x8
 717 00ae 0E050000 		.4byte	.LASF15
 718 00b2 06       		.uleb128 0x6
 719 00b3 04       		.byte	0x4
 720 00b4 B8000000 		.4byte	0xb8
 721 00b8 07       		.uleb128 0x7
 722 00b9 AB000000 		.4byte	0xab
 723 00bd 03       		.uleb128 0x3
 724 00be 9A050000 		.4byte	.LASF16
 725 00c2 04       		.byte	0x4
 726 00c3 2A       		.byte	0x2a
 727 00c4 45000000 		.4byte	0x45
 728 00c8 03       		.uleb128 0x3
 729 00c9 FC030000 		.4byte	.LASF17
 730 00cd 04       		.byte	0x4
 731 00ce 41       		.byte	0x41
 732 00cf 65000000 		.4byte	0x65
 733 00d3 03       		.uleb128 0x3
 734 00d4 7B040000 		.4byte	.LASF18
 735 00d8 04       		.byte	0x4
 736 00d9 42       		.byte	0x42
 737 00da 77000000 		.4byte	0x77
 738 00de 03       		.uleb128 0x3
 739 00df 23000000 		.4byte	.LASF19
 740 00e3 04       		.byte	0x4
 741 00e4 4E       		.byte	0x4e
 742 00e5 90000000 		.4byte	0x90
 743 00e9 03       		.uleb128 0x3
 744 00ea 65050000 		.4byte	.LASF20
 745 00ee 05       		.byte	0x5
 746 00ef 39       		.byte	0x39
 747 00f0 D3000000 		.4byte	0xd3
 748 00f4 03       		.uleb128 0x3
 749 00f5 A8020000 		.4byte	.LASF21
 750 00f9 05       		.byte	0x5
 751 00fa 3C       		.byte	0x3c
 752 00fb BD000000 		.4byte	0xbd
 753 00ff 03       		.uleb128 0x3
 754 0100 0F010000 		.4byte	.LASF22
 755 0104 05       		.byte	0x5
 756 0105 3D       		.byte	0x3d
 757 0106 BD000000 		.4byte	0xbd
 758 010a 03       		.uleb128 0x3
 759 010b 00000000 		.4byte	.LASF23
 760 010f 05       		.byte	0x5
 761 0110 3E       		.byte	0x3e
 762 0111 BD000000 		.4byte	0xbd
 763 0115 03       		.uleb128 0x3
 764 0116 A6030000 		.4byte	.LASF24
 765 011a 05       		.byte	0x5
ARM GAS  /tmp/ccDhhCX2.s 			page 32


 766 011b 40       		.byte	0x40
 767 011c D3000000 		.4byte	0xd3
 768 0120 03       		.uleb128 0x3
 769 0121 8F020000 		.4byte	.LASF25
 770 0125 05       		.byte	0x5
 771 0126 41       		.byte	0x41
 772 0127 C8000000 		.4byte	0xc8
 773 012b 03       		.uleb128 0x3
 774 012c BE020000 		.4byte	.LASF26
 775 0130 05       		.byte	0x5
 776 0131 43       		.byte	0x43
 777 0132 D3000000 		.4byte	0xd3
 778 0136 03       		.uleb128 0x3
 779 0137 5F010000 		.4byte	.LASF27
 780 013b 05       		.byte	0x5
 781 013c 45       		.byte	0x45
 782 013d C8000000 		.4byte	0xc8
 783 0141 03       		.uleb128 0x3
 784 0142 23050000 		.4byte	.LASF28
 785 0146 06       		.byte	0x6
 786 0147 33       		.byte	0x33
 787 0148 D3000000 		.4byte	0xd3
 788 014c 03       		.uleb128 0x3
 789 014d 13050000 		.4byte	.LASF29
 790 0151 06       		.byte	0x6
 791 0152 3F       		.byte	0x3f
 792 0153 57010000 		.4byte	0x157
 793 0157 08       		.uleb128 0x8
 794 0158 85020000 		.4byte	.LASF49
 795 015c 44       		.byte	0x44
 796 015d 07       		.byte	0x7
 797 015e C2       		.byte	0xc2
 798 015f 43020000 		.4byte	0x243
 799 0163 09       		.uleb128 0x9
 800 0164 3C040000 		.4byte	.LASF30
 801 0168 07       		.byte	0x7
 802 0169 C3       		.byte	0xc3
 803 016a 4E020000 		.4byte	0x24e
 804 016e 00       		.byte	0
 805 016f 09       		.uleb128 0x9
 806 0170 9F030000 		.4byte	.LASF31
 807 0174 07       		.byte	0x7
 808 0175 C5       		.byte	0xc5
 809 0176 4E020000 		.4byte	0x24e
 810 017a 04       		.byte	0x4
 811 017b 09       		.uleb128 0x9
 812 017c B8000000 		.4byte	.LASF32
 813 0180 07       		.byte	0x7
 814 0181 C7       		.byte	0xc7
 815 0182 15010000 		.4byte	0x115
 816 0186 08       		.byte	0x8
 817 0187 09       		.uleb128 0x9
 818 0188 C5050000 		.4byte	.LASF33
 819 018c 07       		.byte	0x7
 820 018d C8       		.byte	0xc8
 821 018e 75040000 		.4byte	0x475
 822 0192 0C       		.byte	0xc
ARM GAS  /tmp/ccDhhCX2.s 			page 33


 823 0193 09       		.uleb128 0x9
 824 0194 1F010000 		.4byte	.LASF34
 825 0198 07       		.byte	0x7
 826 0199 CA       		.byte	0xca
 827 019a 4E020000 		.4byte	0x24e
 828 019e 10       		.byte	0x10
 829 019f 09       		.uleb128 0x9
 830 01a0 3B030000 		.4byte	.LASF35
 831 01a4 07       		.byte	0x7
 832 01a5 CB       		.byte	0xcb
 833 01a6 4E020000 		.4byte	0x24e
 834 01aa 14       		.byte	0x14
 835 01ab 09       		.uleb128 0x9
 836 01ac 4B040000 		.4byte	.LASF36
 837 01b0 07       		.byte	0x7
 838 01b1 D2       		.byte	0xd2
 839 01b2 B2000000 		.4byte	0xb2
 840 01b6 18       		.byte	0x18
 841 01b7 09       		.uleb128 0x9
 842 01b8 5A030000 		.4byte	.LASF37
 843 01bc 07       		.byte	0x7
 844 01bd D8       		.byte	0xd8
 845 01be 00060000 		.4byte	0x600
 846 01c2 1C       		.byte	0x1c
 847 01c3 09       		.uleb128 0x9
 848 01c4 12040000 		.4byte	.LASF38
 849 01c8 07       		.byte	0x7
 850 01c9 DD       		.byte	0xdd
 851 01ca FF000000 		.4byte	0xff
 852 01ce 20       		.byte	0x20
 853 01cf 09       		.uleb128 0x9
 854 01d0 43040000 		.4byte	.LASF39
 855 01d4 07       		.byte	0x7
 856 01d5 E1       		.byte	0xe1
 857 01d6 F4000000 		.4byte	0xf4
 858 01da 21       		.byte	0x21
 859 01db 09       		.uleb128 0x9
 860 01dc 8D050000 		.4byte	.LASF40
 861 01e0 07       		.byte	0x7
 862 01e1 E6       		.byte	0xe6
 863 01e2 0A010000 		.4byte	0x10a
 864 01e6 22       		.byte	0x22
 865 01e7 0A       		.uleb128 0xa
 866 01e8 705F7500 		.ascii	"p_u\000"
 867 01ec 07       		.byte	0x7
 868 01ed 3701     		.2byte	0x137
 869 01ef 2F050000 		.4byte	0x52f
 870 01f3 24       		.byte	0x24
 871 01f4 0B       		.uleb128 0xb
 872 01f5 F2020000 		.4byte	.LASF41
 873 01f9 07       		.byte	0x7
 874 01fa 3C01     		.2byte	0x13c
 875 01fc 54020000 		.4byte	0x254
 876 0200 28       		.byte	0x28
 877 0201 0B       		.uleb128 0xb
 878 0202 61020000 		.4byte	.LASF42
 879 0206 07       		.byte	0x7
ARM GAS  /tmp/ccDhhCX2.s 			page 34


 880 0207 4201     		.2byte	0x142
 881 0209 78020000 		.4byte	0x278
 882 020d 2C       		.byte	0x2c
 883 020e 0B       		.uleb128 0xb
 884 020f 70040000 		.4byte	.LASF43
 885 0213 07       		.byte	0x7
 886 0214 4801     		.2byte	0x148
 887 0216 2B010000 		.4byte	0x12b
 888 021a 34       		.byte	0x34
 889 021b 0B       		.uleb128 0xb
 890 021c 1A040000 		.4byte	.LASF44
 891 0220 07       		.byte	0x7
 892 0221 4F01     		.2byte	0x14f
 893 0223 FA050000 		.4byte	0x5fa
 894 0227 38       		.byte	0x38
 895 0228 0B       		.uleb128 0xb
 896 0229 2D050000 		.4byte	.LASF45
 897 022d 07       		.byte	0x7
 898 022e 5301     		.2byte	0x153
 899 0230 15010000 		.4byte	0x115
 900 0234 3C       		.byte	0x3c
 901 0235 0B       		.uleb128 0xb
 902 0236 DF000000 		.4byte	.LASF46
 903 023a 07       		.byte	0x7
 904 023b 5A01     		.2byte	0x15a
 905 023d A9000000 		.4byte	0xa9
 906 0241 40       		.byte	0x40
 907 0242 00       		.byte	0
 908 0243 03       		.uleb128 0x3
 909 0244 05030000 		.4byte	.LASF47
 910 0248 06       		.byte	0x6
 911 0249 44       		.byte	0x44
 912 024a 4E020000 		.4byte	0x24e
 913 024e 06       		.uleb128 0x6
 914 024f 04       		.byte	0x4
 915 0250 4C010000 		.4byte	0x14c
 916 0254 03       		.uleb128 0x3
 917 0255 AE050000 		.4byte	.LASF48
 918 0259 06       		.byte	0x6
 919 025a 49       		.byte	0x49
 920 025b 5F020000 		.4byte	0x25f
 921 025f 08       		.uleb128 0x8
 922 0260 9C040000 		.4byte	.LASF50
 923 0264 04       		.byte	0x4
 924 0265 07       		.byte	0x7
 925 0266 B0       		.byte	0xb0
 926 0267 78020000 		.4byte	0x278
 927 026b 09       		.uleb128 0x9
 928 026c 3C040000 		.4byte	.LASF30
 929 0270 07       		.byte	0x7
 930 0271 B1       		.byte	0xb1
 931 0272 4E020000 		.4byte	0x24e
 932 0276 00       		.byte	0
 933 0277 00       		.byte	0
 934 0278 03       		.uleb128 0x3
 935 0279 74050000 		.4byte	.LASF51
 936 027d 06       		.byte	0x6
ARM GAS  /tmp/ccDhhCX2.s 			page 35


 937 027e 50       		.byte	0x50
 938 027f 83020000 		.4byte	0x283
 939 0283 08       		.uleb128 0x8
 940 0284 A7000000 		.4byte	.LASF52
 941 0288 08       		.byte	0x8
 942 0289 07       		.byte	0x7
 943 028a B7       		.byte	0xb7
 944 028b A8020000 		.4byte	0x2a8
 945 028f 09       		.uleb128 0x9
 946 0290 3C040000 		.4byte	.LASF30
 947 0294 07       		.byte	0x7
 948 0295 B8       		.byte	0xb8
 949 0296 4E020000 		.4byte	0x24e
 950 029a 00       		.byte	0
 951 029b 09       		.uleb128 0x9
 952 029c 9F030000 		.4byte	.LASF31
 953 02a0 07       		.byte	0x7
 954 02a1 B9       		.byte	0xb9
 955 02a2 4E020000 		.4byte	0x24e
 956 02a6 04       		.byte	0x4
 957 02a7 00       		.byte	0
 958 02a8 03       		.uleb128 0x3
 959 02a9 08000000 		.4byte	.LASF53
 960 02ad 06       		.byte	0x6
 961 02ae 57       		.byte	0x57
 962 02af B3020000 		.4byte	0x2b3
 963 02b3 0C       		.uleb128 0xc
 964 02b4 B0020000 		.4byte	.LASF54
 965 02b8 1C       		.byte	0x1c
 966 02b9 07       		.byte	0x7
 967 02ba 9201     		.2byte	0x192
 968 02bc 0F030000 		.4byte	0x30f
 969 02c0 0B       		.uleb128 0xb
 970 02c1 8B040000 		.4byte	.LASF55
 971 02c5 07       		.byte	0x7
 972 02c6 9301     		.2byte	0x193
 973 02c8 78020000 		.4byte	0x278
 974 02cc 00       		.byte	0
 975 02cd 0B       		.uleb128 0xb
 976 02ce 2E040000 		.4byte	.LASF56
 977 02d2 07       		.byte	0x7
 978 02d3 9401     		.2byte	0x194
 979 02d5 15010000 		.4byte	0x115
 980 02d9 08       		.byte	0x8
 981 02da 0B       		.uleb128 0xb
 982 02db 43030000 		.4byte	.LASF57
 983 02df 07       		.byte	0x7
 984 02e0 9601     		.2byte	0x196
 985 02e2 75040000 		.4byte	0x475
 986 02e6 0C       		.byte	0xc
 987 02e7 0B       		.uleb128 0xb
 988 02e8 2F010000 		.4byte	.LASF58
 989 02ec 07       		.byte	0x7
 990 02ed 9901     		.2byte	0x199
 991 02ef 4E020000 		.4byte	0x24e
 992 02f3 10       		.byte	0x10
 993 02f4 0B       		.uleb128 0xb
ARM GAS  /tmp/ccDhhCX2.s 			page 36


 994 02f5 6F030000 		.4byte	.LASF59
 995 02f9 07       		.byte	0x7
 996 02fa 9A01     		.2byte	0x19a
 997 02fc 4E020000 		.4byte	0x24e
 998 0300 14       		.byte	0x14
 999 0301 0B       		.uleb128 0xb
 1000 0302 65030000 		.4byte	.LASF60
 1001 0306 07       		.byte	0x7
 1002 0307 9D01     		.2byte	0x19d
 1003 0309 4E020000 		.4byte	0x24e
 1004 030d 18       		.byte	0x18
 1005 030e 00       		.byte	0
 1006 030f 03       		.uleb128 0x3
 1007 0310 38050000 		.4byte	.LASF61
 1008 0314 06       		.byte	0x6
 1009 0315 5C       		.byte	0x5c
 1010 0316 1A030000 		.4byte	0x31a
 1011 031a 06       		.uleb128 0x6
 1012 031b 04       		.byte	0x4
 1013 031c 20030000 		.4byte	0x320
 1014 0320 0D       		.uleb128 0xd
 1015 0321 2B030000 		.4byte	0x32b
 1016 0325 0E       		.uleb128 0xe
 1017 0326 A9000000 		.4byte	0xa9
 1018 032a 00       		.byte	0
 1019 032b 03       		.uleb128 0x3
 1020 032c 8F030000 		.4byte	.LASF62
 1021 0330 06       		.byte	0x6
 1022 0331 61       		.byte	0x61
 1023 0332 36030000 		.4byte	0x336
 1024 0336 0C       		.uleb128 0xc
 1025 0337 52040000 		.4byte	.LASF63
 1026 033b 14       		.byte	0x14
 1027 033c 07       		.byte	0x7
 1028 033d 6D01     		.2byte	0x16d
 1029 033f 85030000 		.4byte	0x385
 1030 0343 0B       		.uleb128 0xb
 1031 0344 52020000 		.4byte	.LASF64
 1032 0348 07       		.byte	0x7
 1033 0349 6E01     		.2byte	0x16e
 1034 034b 06060000 		.4byte	0x606
 1035 034f 00       		.byte	0
 1036 0350 0B       		.uleb128 0xb
 1037 0351 40010000 		.4byte	.LASF65
 1038 0355 07       		.byte	0x7
 1039 0356 6F01     		.2byte	0x16f
 1040 0358 06060000 		.4byte	0x606
 1041 035c 04       		.byte	0x4
 1042 035d 0B       		.uleb128 0xb
 1043 035e 93040000 		.4byte	.LASF66
 1044 0362 07       		.byte	0x7
 1045 0363 7001     		.2byte	0x170
 1046 0365 41010000 		.4byte	0x141
 1047 0369 08       		.byte	0x8
 1048 036a 0B       		.uleb128 0xb
 1049 036b CB050000 		.4byte	.LASF67
 1050 036f 07       		.byte	0x7
ARM GAS  /tmp/ccDhhCX2.s 			page 37


 1051 0370 7101     		.2byte	0x171
 1052 0372 0F030000 		.4byte	0x30f
 1053 0376 0C       		.byte	0xc
 1054 0377 0B       		.uleb128 0xb
 1055 0378 6D050000 		.4byte	.LASF68
 1056 037c 07       		.byte	0x7
 1057 037d 7301     		.2byte	0x173
 1058 037f A9000000 		.4byte	0xa9
 1059 0383 10       		.byte	0x10
 1060 0384 00       		.byte	0
 1061 0385 03       		.uleb128 0x3
 1062 0386 84000000 		.4byte	.LASF69
 1063 038a 06       		.byte	0x6
 1064 038b 66       		.byte	0x66
 1065 038c 90030000 		.4byte	0x390
 1066 0390 0C       		.uleb128 0xc
 1067 0391 18030000 		.4byte	.LASF70
 1068 0395 10       		.byte	0x10
 1069 0396 07       		.byte	0x7
 1070 0397 7D01     		.2byte	0x17d
 1071 0399 D2030000 		.4byte	0x3d2
 1072 039d 0B       		.uleb128 0xb
 1073 039e 52020000 		.4byte	.LASF64
 1074 03a2 07       		.byte	0x7
 1075 03a3 7E01     		.2byte	0x17e
 1076 03a5 06060000 		.4byte	0x606
 1077 03a9 00       		.byte	0
 1078 03aa 0B       		.uleb128 0xb
 1079 03ab 40010000 		.4byte	.LASF65
 1080 03af 07       		.byte	0x7
 1081 03b0 8001     		.2byte	0x180
 1082 03b2 06060000 		.4byte	0x606
 1083 03b6 04       		.byte	0x4
 1084 03b7 0B       		.uleb128 0xb
 1085 03b8 93040000 		.4byte	.LASF66
 1086 03bc 07       		.byte	0x7
 1087 03bd 8201     		.2byte	0x182
 1088 03bf 41010000 		.4byte	0x141
 1089 03c3 08       		.byte	0x8
 1090 03c4 0B       		.uleb128 0xb
 1091 03c5 2F030000 		.4byte	.LASF71
 1092 03c9 07       		.byte	0x7
 1093 03ca 8A01     		.2byte	0x18a
 1094 03cc 41010000 		.4byte	0x141
 1095 03d0 0C       		.byte	0xc
 1096 03d1 00       		.byte	0
 1097 03d2 03       		.uleb128 0x3
 1098 03d3 42000000 		.4byte	.LASF72
 1099 03d7 06       		.byte	0x6
 1100 03d8 6B       		.byte	0x6b
 1101 03d9 DD030000 		.4byte	0x3dd
 1102 03dd 0C       		.uleb128 0xc
 1103 03de E6030000 		.4byte	.LASF73
 1104 03e2 04       		.byte	0x4
 1105 03e3 07       		.byte	0x7
 1106 03e4 A401     		.2byte	0x1a4
 1107 03e6 F8030000 		.4byte	0x3f8
ARM GAS  /tmp/ccDhhCX2.s 			page 38


 1108 03ea 0B       		.uleb128 0xb
 1109 03eb 4C050000 		.4byte	.LASF74
 1110 03ef 07       		.byte	0x7
 1111 03f0 AC01     		.2byte	0x1ac
 1112 03f2 0C060000 		.4byte	0x60c
 1113 03f6 00       		.byte	0
 1114 03f7 00       		.byte	0
 1115 03f8 03       		.uleb128 0x3
 1116 03f9 95020000 		.4byte	.LASF75
 1117 03fd 06       		.byte	0x6
 1118 03fe 70       		.byte	0x70
 1119 03ff 03040000 		.4byte	0x403
 1120 0403 0F       		.uleb128 0xf
 1121 0404 FC000000 		.4byte	.LASF76
 1122 0408 5001     		.2byte	0x150
 1123 040a 07       		.byte	0x7
 1124 040b C401     		.2byte	0x1c4
 1125 040d 5F040000 		.4byte	0x45f
 1126 0411 0B       		.uleb128 0xb
 1127 0412 94050000 		.4byte	.LASF77
 1128 0416 07       		.byte	0x7
 1129 0417 C801     		.2byte	0x1c8
 1130 0419 A8020000 		.4byte	0x2a8
 1131 041d 00       		.byte	0
 1132 041e 0B       		.uleb128 0xb
 1133 041f EF000000 		.4byte	.LASF78
 1134 0423 07       		.byte	0x7
 1135 0424 CC01     		.2byte	0x1cc
 1136 0426 85030000 		.4byte	0x385
 1137 042a 1C       		.byte	0x1c
 1138 042b 0A       		.uleb128 0xa
 1139 042c 64626700 		.ascii	"dbg\000"
 1140 0430 07       		.byte	0x7
 1141 0431 D001     		.2byte	0x1d0
 1142 0433 D2030000 		.4byte	0x3d2
 1143 0437 2C       		.byte	0x2c
 1144 0438 0B       		.uleb128 0xb
 1145 0439 71000000 		.4byte	.LASF79
 1146 043d 07       		.byte	0x7
 1147 043e D401     		.2byte	0x1d4
 1148 0440 4C010000 		.4byte	0x14c
 1149 0444 30       		.byte	0x30
 1150 0445 0A       		.uleb128 0xa
 1151 0446 746D00   		.ascii	"tm\000"
 1152 0449 07       		.byte	0x7
 1153 044a D901     		.2byte	0x1d9
 1154 044c 24050000 		.4byte	0x524
 1155 0450 74       		.byte	0x74
 1156 0451 0B       		.uleb128 0xb
 1157 0452 50010000 		.4byte	.LASF80
 1158 0456 07       		.byte	0x7
 1159 0457 E501     		.2byte	0x1e5
 1160 0459 11060000 		.4byte	0x611
 1161 045d 78       		.byte	0x78
 1162 045e 00       		.byte	0
 1163 045f 03       		.uleb128 0x3
 1164 0460 37010000 		.4byte	.LASF81
ARM GAS  /tmp/ccDhhCX2.s 			page 39


 1165 0464 08       		.byte	0x8
 1166 0465 65       		.byte	0x65
 1167 0466 A9000000 		.4byte	0xa9
 1168 046a 03       		.uleb128 0x3
 1169 046b D4020000 		.4byte	.LASF82
 1170 046f 08       		.byte	0x8
 1171 0470 6D       		.byte	0x6d
 1172 0471 DE000000 		.4byte	0xde
 1173 0475 08       		.uleb128 0x8
 1174 0476 5D050000 		.4byte	.LASF83
 1175 047a 04       		.byte	0x4
 1176 047b 08       		.byte	0x8
 1177 047c 89       		.byte	0x89
 1178 047d 8E040000 		.4byte	0x48e
 1179 0481 10       		.uleb128 0x10
 1180 0482 72313300 		.ascii	"r13\000"
 1181 0486 08       		.byte	0x8
 1182 0487 8A       		.byte	0x8a
 1183 0488 09050000 		.4byte	0x509
 1184 048c 00       		.byte	0
 1185 048d 00       		.byte	0
 1186 048e 08       		.uleb128 0x8
 1187 048f 36000000 		.4byte	.LASF84
 1188 0493 24       		.byte	0x24
 1189 0494 09       		.byte	0x9
 1190 0495 FD       		.byte	0xfd
 1191 0496 09050000 		.4byte	0x509
 1192 049a 0A       		.uleb128 0xa
 1193 049b 723400   		.ascii	"r4\000"
 1194 049e 09       		.byte	0x9
 1195 049f 1001     		.2byte	0x110
 1196 04a1 5F040000 		.4byte	0x45f
 1197 04a5 00       		.byte	0
 1198 04a6 0A       		.uleb128 0xa
 1199 04a7 723500   		.ascii	"r5\000"
 1200 04aa 09       		.byte	0x9
 1201 04ab 1101     		.2byte	0x111
 1202 04ad 5F040000 		.4byte	0x45f
 1203 04b1 04       		.byte	0x4
 1204 04b2 0A       		.uleb128 0xa
 1205 04b3 723600   		.ascii	"r6\000"
 1206 04b6 09       		.byte	0x9
 1207 04b7 1201     		.2byte	0x112
 1208 04b9 5F040000 		.4byte	0x45f
 1209 04bd 08       		.byte	0x8
 1210 04be 0A       		.uleb128 0xa
 1211 04bf 723700   		.ascii	"r7\000"
 1212 04c2 09       		.byte	0x9
 1213 04c3 1301     		.2byte	0x113
 1214 04c5 5F040000 		.4byte	0x45f
 1215 04c9 0C       		.byte	0xc
 1216 04ca 0A       		.uleb128 0xa
 1217 04cb 723800   		.ascii	"r8\000"
 1218 04ce 09       		.byte	0x9
 1219 04cf 1401     		.2byte	0x114
 1220 04d1 5F040000 		.4byte	0x45f
 1221 04d5 10       		.byte	0x10
ARM GAS  /tmp/ccDhhCX2.s 			page 40


 1222 04d6 0A       		.uleb128 0xa
 1223 04d7 723900   		.ascii	"r9\000"
 1224 04da 09       		.byte	0x9
 1225 04db 1501     		.2byte	0x115
 1226 04dd 5F040000 		.4byte	0x45f
 1227 04e1 14       		.byte	0x14
 1228 04e2 0A       		.uleb128 0xa
 1229 04e3 72313000 		.ascii	"r10\000"
 1230 04e7 09       		.byte	0x9
 1231 04e8 1601     		.2byte	0x116
 1232 04ea 5F040000 		.4byte	0x45f
 1233 04ee 18       		.byte	0x18
 1234 04ef 0A       		.uleb128 0xa
 1235 04f0 72313100 		.ascii	"r11\000"
 1236 04f4 09       		.byte	0x9
 1237 04f5 1701     		.2byte	0x117
 1238 04f7 5F040000 		.4byte	0x45f
 1239 04fb 1C       		.byte	0x1c
 1240 04fc 0A       		.uleb128 0xa
 1241 04fd 6C7200   		.ascii	"lr\000"
 1242 0500 09       		.byte	0x9
 1243 0501 1801     		.2byte	0x118
 1244 0503 5F040000 		.4byte	0x45f
 1245 0507 20       		.byte	0x20
 1246 0508 00       		.byte	0
 1247 0509 06       		.uleb128 0x6
 1248 050a 04       		.byte	0x4
 1249 050b 8E040000 		.4byte	0x48e
 1250 050f 11       		.uleb128 0x11
 1251 0510 04       		.byte	0x4
 1252 0511 0A       		.byte	0xa
 1253 0512 38       		.byte	0x38
 1254 0513 24050000 		.4byte	0x524
 1255 0517 09       		.uleb128 0x9
 1256 0518 56050000 		.4byte	.LASF85
 1257 051c 0A       		.byte	0xa
 1258 051d 3C       		.byte	0x3c
 1259 051e E9000000 		.4byte	0xe9
 1260 0522 00       		.byte	0
 1261 0523 00       		.byte	0
 1262 0524 03       		.uleb128 0x3
 1263 0525 49030000 		.4byte	.LASF86
 1264 0529 0A       		.byte	0xa
 1265 052a 3D       		.byte	0x3d
 1266 052b 0F050000 		.4byte	0x50f
 1267 052f 12       		.uleb128 0x12
 1268 0530 04       		.byte	0x4
 1269 0531 07       		.byte	0x7
 1270 0532 FA       		.byte	0xfa
 1271 0533 98050000 		.4byte	0x598
 1272 0537 13       		.uleb128 0x13
 1273 0538 1C000000 		.4byte	.LASF87
 1274 053c 07       		.byte	0x7
 1275 053d 0101     		.2byte	0x101
 1276 053f 20010000 		.4byte	0x120
 1277 0543 13       		.uleb128 0x13
 1278 0544 68000000 		.4byte	.LASF88
ARM GAS  /tmp/ccDhhCX2.s 			page 41


 1279 0548 07       		.byte	0x7
 1280 0549 0801     		.2byte	0x108
 1281 054b 20010000 		.4byte	0x120
 1282 054f 13       		.uleb128 0x13
 1283 0550 A2050000 		.4byte	.LASF89
 1284 0554 07       		.byte	0x7
 1285 0555 0F01     		.2byte	0x10f
 1286 0557 A9000000 		.4byte	0xa9
 1287 055b 13       		.uleb128 0x13
 1288 055c F6000000 		.4byte	.LASF90
 1289 0560 07       		.byte	0x7
 1290 0561 1601     		.2byte	0x116
 1291 0563 98050000 		.4byte	0x598
 1292 0567 13       		.uleb128 0x13
 1293 0568 7C000000 		.4byte	.LASF91
 1294 056c 07       		.byte	0x7
 1295 056d 1B01     		.2byte	0x11b
 1296 056f 20010000 		.4byte	0x120
 1297 0573 13       		.uleb128 0x13
 1298 0574 5A020000 		.4byte	.LASF92
 1299 0578 07       		.byte	0x7
 1300 0579 2401     		.2byte	0x124
 1301 057b C3050000 		.4byte	0x5c3
 1302 057f 13       		.uleb128 0x13
 1303 0580 84040000 		.4byte	.LASF93
 1304 0584 07       		.byte	0x7
 1305 0585 2D01     		.2byte	0x12d
 1306 0587 FA050000 		.4byte	0x5fa
 1307 058b 13       		.uleb128 0x13
 1308 058c 35040000 		.4byte	.LASF94
 1309 0590 07       		.byte	0x7
 1310 0591 3501     		.2byte	0x135
 1311 0593 2B010000 		.4byte	0x12b
 1312 0597 00       		.byte	0
 1313 0598 06       		.uleb128 0x6
 1314 0599 04       		.byte	0x4
 1315 059a 43020000 		.4byte	0x243
 1316 059e 08       		.uleb128 0x8
 1317 059f 63040000 		.4byte	.LASF95
 1318 05a3 0C       		.byte	0xc
 1319 05a4 0B       		.byte	0xb
 1320 05a5 34       		.byte	0x34
 1321 05a6 C3050000 		.4byte	0x5c3
 1322 05aa 09       		.uleb128 0x9
 1323 05ab 27010000 		.4byte	.LASF96
 1324 05af 0B       		.byte	0xb
 1325 05b0 35       		.byte	0x35
 1326 05b1 78020000 		.4byte	0x278
 1327 05b5 00       		.byte	0
 1328 05b6 09       		.uleb128 0x9
 1329 05b7 6C020000 		.4byte	.LASF97
 1330 05bb 0B       		.byte	0xb
 1331 05bc 37       		.byte	0x37
 1332 05bd 36010000 		.4byte	0x136
 1333 05c1 08       		.byte	0x8
 1334 05c2 00       		.byte	0
 1335 05c3 06       		.uleb128 0x6
ARM GAS  /tmp/ccDhhCX2.s 			page 42


 1336 05c4 04       		.byte	0x4
 1337 05c5 9E050000 		.4byte	0x59e
 1338 05c9 08       		.uleb128 0x8
 1339 05ca 84050000 		.4byte	.LASF98
 1340 05ce 10       		.byte	0x10
 1341 05cf 0C       		.byte	0xc
 1342 05d0 39       		.byte	0x39
 1343 05d1 FA050000 		.4byte	0x5fa
 1344 05d5 09       		.uleb128 0x9
 1345 05d6 E7000000 		.4byte	.LASF99
 1346 05da 0C       		.byte	0xc
 1347 05db 3A       		.byte	0x3a
 1348 05dc 78020000 		.4byte	0x278
 1349 05e0 00       		.byte	0
 1350 05e1 09       		.uleb128 0x9
 1351 05e2 BD050000 		.4byte	.LASF100
 1352 05e6 0C       		.byte	0xc
 1353 05e7 3C       		.byte	0x3c
 1354 05e8 4E020000 		.4byte	0x24e
 1355 05ec 08       		.byte	0x8
 1356 05ed 09       		.uleb128 0x9
 1357 05ee 1C050000 		.4byte	.LASF101
 1358 05f2 0C       		.byte	0xc
 1359 05f3 3E       		.byte	0x3e
 1360 05f4 2C060000 		.4byte	0x62c
 1361 05f8 0C       		.byte	0xc
 1362 05f9 00       		.byte	0
 1363 05fa 06       		.uleb128 0x6
 1364 05fb 04       		.byte	0x4
 1365 05fc C9050000 		.4byte	0x5c9
 1366 0600 06       		.uleb128 0x6
 1367 0601 04       		.byte	0x4
 1368 0602 6A040000 		.4byte	0x46a
 1369 0606 06       		.uleb128 0x6
 1370 0607 04       		.byte	0x4
 1371 0608 2B030000 		.4byte	0x32b
 1372 060c 14       		.uleb128 0x14
 1373 060d B2000000 		.4byte	0xb2
 1374 0611 15       		.uleb128 0x15
 1375 0612 6A040000 		.4byte	0x46a
 1376 0616 21060000 		.4byte	0x621
 1377 061a 16       		.uleb128 0x16
 1378 061b A2000000 		.4byte	0xa2
 1379 061f 1A       		.byte	0x1a
 1380 0620 00       		.byte	0
 1381 0621 03       		.uleb128 0x3
 1382 0622 48010000 		.4byte	.LASF102
 1383 0626 0C       		.byte	0xc
 1384 0627 34       		.byte	0x34
 1385 0628 C9050000 		.4byte	0x5c9
 1386 062c 06       		.uleb128 0x6
 1387 062d 04       		.byte	0x4
 1388 062e 21060000 		.4byte	0x621
 1389 0632 06       		.uleb128 0x6
 1390 0633 04       		.byte	0x4
 1391 0634 BD000000 		.4byte	0xbd
 1392 0638 17       		.uleb128 0x17
ARM GAS  /tmp/ccDhhCX2.s 			page 43


 1393 0639 2C000000 		.4byte	0x2c
 1394 063d 51060000 		.4byte	0x651
 1395 0641 0E       		.uleb128 0xe
 1396 0642 A9000000 		.4byte	0xa9
 1397 0646 0E       		.uleb128 0xe
 1398 0647 51060000 		.4byte	0x651
 1399 064b 0E       		.uleb128 0xe
 1400 064c 2C000000 		.4byte	0x2c
 1401 0650 00       		.byte	0
 1402 0651 06       		.uleb128 0x6
 1403 0652 04       		.byte	0x4
 1404 0653 57060000 		.4byte	0x657
 1405 0657 07       		.uleb128 0x7
 1406 0658 BD000000 		.4byte	0xbd
 1407 065c 06       		.uleb128 0x6
 1408 065d 04       		.byte	0x4
 1409 065e 38060000 		.4byte	0x638
 1410 0662 17       		.uleb128 0x17
 1411 0663 2C000000 		.4byte	0x2c
 1412 0667 7B060000 		.4byte	0x67b
 1413 066b 0E       		.uleb128 0xe
 1414 066c A9000000 		.4byte	0xa9
 1415 0670 0E       		.uleb128 0xe
 1416 0671 32060000 		.4byte	0x632
 1417 0675 0E       		.uleb128 0xe
 1418 0676 2C000000 		.4byte	0x2c
 1419 067a 00       		.byte	0
 1420 067b 06       		.uleb128 0x6
 1421 067c 04       		.byte	0x4
 1422 067d 62060000 		.4byte	0x662
 1423 0681 17       		.uleb128 0x17
 1424 0682 20010000 		.4byte	0x120
 1425 0686 95060000 		.4byte	0x695
 1426 068a 0E       		.uleb128 0xe
 1427 068b A9000000 		.4byte	0xa9
 1428 068f 0E       		.uleb128 0xe
 1429 0690 BD000000 		.4byte	0xbd
 1430 0694 00       		.byte	0
 1431 0695 06       		.uleb128 0x6
 1432 0696 04       		.byte	0x4
 1433 0697 81060000 		.4byte	0x681
 1434 069b 17       		.uleb128 0x17
 1435 069c 20010000 		.4byte	0x120
 1436 06a0 AA060000 		.4byte	0x6aa
 1437 06a4 0E       		.uleb128 0xe
 1438 06a5 A9000000 		.4byte	0xa9
 1439 06a9 00       		.byte	0
 1440 06aa 06       		.uleb128 0x6
 1441 06ab 04       		.byte	0x4
 1442 06ac 9B060000 		.4byte	0x69b
 1443 06b0 04       		.uleb128 0x4
 1444 06b1 01       		.byte	0x1
 1445 06b2 02       		.byte	0x2
 1446 06b3 F6030000 		.4byte	.LASF103
 1447 06b7 08       		.uleb128 0x8
 1448 06b8 77030000 		.4byte	.LASF104
 1449 06bc 10       		.byte	0x10
ARM GAS  /tmp/ccDhhCX2.s 			page 44


 1450 06bd 0D       		.byte	0xd
 1451 06be 3D       		.byte	0x3d
 1452 06bf F4060000 		.4byte	0x6f4
 1453 06c3 09       		.uleb128 0x9
 1454 06c4 EC020000 		.4byte	.LASF105
 1455 06c8 0D       		.byte	0xd
 1456 06c9 3E       		.byte	0x3e
 1457 06ca 5C060000 		.4byte	0x65c
 1458 06ce 00       		.byte	0
 1459 06cf 09       		.uleb128 0x9
 1460 06d0 09050000 		.4byte	.LASF106
 1461 06d4 0D       		.byte	0xd
 1462 06d5 3E       		.byte	0x3e
 1463 06d6 7B060000 		.4byte	0x67b
 1464 06da 04       		.byte	0x4
 1465 06db 10       		.uleb128 0x10
 1466 06dc 70757400 		.ascii	"put\000"
 1467 06e0 0D       		.byte	0xd
 1468 06e1 3E       		.byte	0x3e
 1469 06e2 95060000 		.4byte	0x695
 1470 06e6 08       		.byte	0x8
 1471 06e7 10       		.uleb128 0x10
 1472 06e8 67657400 		.ascii	"get\000"
 1473 06ec 0D       		.byte	0xd
 1474 06ed 3E       		.byte	0x3e
 1475 06ee AA060000 		.4byte	0x6aa
 1476 06f2 0C       		.byte	0xc
 1477 06f3 00       		.byte	0
 1478 06f4 11       		.uleb128 0x11
 1479 06f5 14       		.byte	0x14
 1480 06f6 0D       		.byte	0xd
 1481 06f7 46       		.byte	0x46
 1482 06f8 39070000 		.4byte	0x739
 1483 06fc 10       		.uleb128 0x10
 1484 06fd 766D7400 		.ascii	"vmt\000"
 1485 0701 0D       		.byte	0xd
 1486 0702 48       		.byte	0x48
 1487 0703 39070000 		.4byte	0x739
 1488 0707 00       		.byte	0
 1489 0708 09       		.uleb128 0x9
 1490 0709 18010000 		.4byte	.LASF107
 1491 070d 0D       		.byte	0xd
 1492 070e 49       		.byte	0x49
 1493 070f 32060000 		.4byte	0x632
 1494 0713 04       		.byte	0x4
 1495 0714 09       		.uleb128 0x9
 1496 0715 A9050000 		.4byte	.LASF108
 1497 0719 0D       		.byte	0xd
 1498 071a 49       		.byte	0x49
 1499 071b 2C000000 		.4byte	0x2c
 1500 071f 08       		.byte	0x8
 1501 0720 10       		.uleb128 0x10
 1502 0721 656F7300 		.ascii	"eos\000"
 1503 0725 0D       		.byte	0xd
 1504 0726 49       		.byte	0x49
 1505 0727 2C000000 		.4byte	0x2c
 1506 072b 0C       		.byte	0xc
ARM GAS  /tmp/ccDhhCX2.s 			page 45


 1507 072c 09       		.uleb128 0x9
 1508 072d 56050000 		.4byte	.LASF85
 1509 0731 0D       		.byte	0xd
 1510 0732 49       		.byte	0x49
 1511 0733 2C000000 		.4byte	0x2c
 1512 0737 10       		.byte	0x10
 1513 0738 00       		.byte	0
 1514 0739 06       		.uleb128 0x6
 1515 073a 04       		.byte	0x4
 1516 073b 3F070000 		.4byte	0x73f
 1517 073f 07       		.uleb128 0x7
 1518 0740 B7060000 		.4byte	0x6b7
 1519 0744 03       		.uleb128 0x3
 1520 0745 D9030000 		.4byte	.LASF109
 1521 0749 0D       		.byte	0xd
 1522 074a 4A       		.byte	0x4a
 1523 074b F4060000 		.4byte	0x6f4
 1524 074f 18       		.uleb128 0x18
 1525 0750 A1020000 		.4byte	.LASF110
 1526 0754 01       		.byte	0x1
 1527 0755 2E       		.byte	0x2e
 1528 0756 2C000000 		.4byte	0x2c
 1529 075a 00000000 		.4byte	.LFB272
 1530 075e 54000000 		.4byte	.LFE272-.LFB272
 1531 0762 01       		.uleb128 0x1
 1532 0763 9C       		.byte	0x9c
 1533 0764 9D070000 		.4byte	0x79d
 1534 0768 19       		.uleb128 0x19
 1535 0769 697000   		.ascii	"ip\000"
 1536 076c 01       		.byte	0x1
 1537 076d 2E       		.byte	0x2e
 1538 076e A9000000 		.4byte	0xa9
 1539 0772 02       		.uleb128 0x2
 1540 0773 91       		.byte	0x91
 1541 0774 6C       		.sleb128 -20
 1542 0775 19       		.uleb128 0x19
 1543 0776 627000   		.ascii	"bp\000"
 1544 0779 01       		.byte	0x1
 1545 077a 2E       		.byte	0x2e
 1546 077b 51060000 		.4byte	0x651
 1547 077f 02       		.uleb128 0x2
 1548 0780 91       		.byte	0x91
 1549 0781 68       		.sleb128 -24
 1550 0782 19       		.uleb128 0x19
 1551 0783 6E00     		.ascii	"n\000"
 1552 0785 01       		.byte	0x1
 1553 0786 2E       		.byte	0x2e
 1554 0787 2C000000 		.4byte	0x2c
 1555 078b 02       		.uleb128 0x2
 1556 078c 91       		.byte	0x91
 1557 078d 64       		.sleb128 -28
 1558 078e 1A       		.uleb128 0x1a
 1559 078f 6D737000 		.ascii	"msp\000"
 1560 0793 01       		.byte	0x1
 1561 0794 2F       		.byte	0x2f
 1562 0795 9D070000 		.4byte	0x79d
 1563 0799 02       		.uleb128 0x2
ARM GAS  /tmp/ccDhhCX2.s 			page 46


 1564 079a 91       		.byte	0x91
 1565 079b 74       		.sleb128 -12
 1566 079c 00       		.byte	0
 1567 079d 06       		.uleb128 0x6
 1568 079e 04       		.byte	0x4
 1569 079f 44070000 		.4byte	0x744
 1570 07a3 18       		.uleb128 0x18
 1571 07a4 BF000000 		.4byte	.LASF111
 1572 07a8 01       		.byte	0x1
 1573 07a9 38       		.byte	0x38
 1574 07aa 2C000000 		.4byte	0x2c
 1575 07ae 00000000 		.4byte	.LFB273
 1576 07b2 54000000 		.4byte	.LFE273-.LFB273
 1577 07b6 01       		.uleb128 0x1
 1578 07b7 9C       		.byte	0x9c
 1579 07b8 F1070000 		.4byte	0x7f1
 1580 07bc 19       		.uleb128 0x19
 1581 07bd 697000   		.ascii	"ip\000"
 1582 07c0 01       		.byte	0x1
 1583 07c1 38       		.byte	0x38
 1584 07c2 A9000000 		.4byte	0xa9
 1585 07c6 02       		.uleb128 0x2
 1586 07c7 91       		.byte	0x91
 1587 07c8 6C       		.sleb128 -20
 1588 07c9 19       		.uleb128 0x19
 1589 07ca 627000   		.ascii	"bp\000"
 1590 07cd 01       		.byte	0x1
 1591 07ce 38       		.byte	0x38
 1592 07cf 32060000 		.4byte	0x632
 1593 07d3 02       		.uleb128 0x2
 1594 07d4 91       		.byte	0x91
 1595 07d5 68       		.sleb128 -24
 1596 07d6 19       		.uleb128 0x19
 1597 07d7 6E00     		.ascii	"n\000"
 1598 07d9 01       		.byte	0x1
 1599 07da 38       		.byte	0x38
 1600 07db 2C000000 		.4byte	0x2c
 1601 07df 02       		.uleb128 0x2
 1602 07e0 91       		.byte	0x91
 1603 07e1 64       		.sleb128 -28
 1604 07e2 1A       		.uleb128 0x1a
 1605 07e3 6D737000 		.ascii	"msp\000"
 1606 07e7 01       		.byte	0x1
 1607 07e8 39       		.byte	0x39
 1608 07e9 9D070000 		.4byte	0x79d
 1609 07ed 02       		.uleb128 0x2
 1610 07ee 91       		.byte	0x91
 1611 07ef 74       		.sleb128 -12
 1612 07f0 00       		.byte	0
 1613 07f1 1B       		.uleb128 0x1b
 1614 07f2 70757400 		.ascii	"put\000"
 1615 07f6 01       		.byte	0x1
 1616 07f7 42       		.byte	0x42
 1617 07f8 20010000 		.4byte	0x120
 1618 07fc 00000000 		.4byte	.LFB274
 1619 0800 42000000 		.4byte	.LFE274-.LFB274
 1620 0804 01       		.uleb128 0x1
ARM GAS  /tmp/ccDhhCX2.s 			page 47


 1621 0805 9C       		.byte	0x9c
 1622 0806 32080000 		.4byte	0x832
 1623 080a 19       		.uleb128 0x19
 1624 080b 697000   		.ascii	"ip\000"
 1625 080e 01       		.byte	0x1
 1626 080f 42       		.byte	0x42
 1627 0810 A9000000 		.4byte	0xa9
 1628 0814 02       		.uleb128 0x2
 1629 0815 91       		.byte	0x91
 1630 0816 74       		.sleb128 -12
 1631 0817 19       		.uleb128 0x19
 1632 0818 6200     		.ascii	"b\000"
 1633 081a 01       		.byte	0x1
 1634 081b 42       		.byte	0x42
 1635 081c BD000000 		.4byte	0xbd
 1636 0820 02       		.uleb128 0x2
 1637 0821 91       		.byte	0x91
 1638 0822 73       		.sleb128 -13
 1639 0823 1A       		.uleb128 0x1a
 1640 0824 6D737000 		.ascii	"msp\000"
 1641 0828 01       		.byte	0x1
 1642 0829 43       		.byte	0x43
 1643 082a 9D070000 		.4byte	0x79d
 1644 082e 02       		.uleb128 0x2
 1645 082f 91       		.byte	0x91
 1646 0830 7C       		.sleb128 -4
 1647 0831 00       		.byte	0
 1648 0832 1B       		.uleb128 0x1b
 1649 0833 67657400 		.ascii	"get\000"
 1650 0837 01       		.byte	0x1
 1651 0838 4C       		.byte	0x4c
 1652 0839 20010000 		.4byte	0x120
 1653 083d 00000000 		.4byte	.LFB275
 1654 0841 3E000000 		.4byte	.LFE275-.LFB275
 1655 0845 01       		.uleb128 0x1
 1656 0846 9C       		.byte	0x9c
 1657 0847 73080000 		.4byte	0x873
 1658 084b 19       		.uleb128 0x19
 1659 084c 697000   		.ascii	"ip\000"
 1660 084f 01       		.byte	0x1
 1661 0850 4C       		.byte	0x4c
 1662 0851 A9000000 		.4byte	0xa9
 1663 0855 02       		.uleb128 0x2
 1664 0856 91       		.byte	0x91
 1665 0857 74       		.sleb128 -12
 1666 0858 1A       		.uleb128 0x1a
 1667 0859 6200     		.ascii	"b\000"
 1668 085b 01       		.byte	0x1
 1669 085c 4D       		.byte	0x4d
 1670 085d BD000000 		.4byte	0xbd
 1671 0861 02       		.uleb128 0x2
 1672 0862 91       		.byte	0x91
 1673 0863 7B       		.sleb128 -5
 1674 0864 1A       		.uleb128 0x1a
 1675 0865 6D737000 		.ascii	"msp\000"
 1676 0869 01       		.byte	0x1
 1677 086a 4E       		.byte	0x4e
ARM GAS  /tmp/ccDhhCX2.s 			page 48


 1678 086b 9D070000 		.4byte	0x79d
 1679 086f 02       		.uleb128 0x2
 1680 0870 91       		.byte	0x91
 1681 0871 7C       		.sleb128 -4
 1682 0872 00       		.byte	0
 1683 0873 1C       		.uleb128 0x1c
 1684 0874 DF020000 		.4byte	.LASF116
 1685 0878 01       		.byte	0x1
 1686 0879 67       		.byte	0x67
 1687 087a 00000000 		.4byte	.LFB276
 1688 087e 30000000 		.4byte	.LFE276-.LFB276
 1689 0882 01       		.uleb128 0x1
 1690 0883 9C       		.byte	0x9c
 1691 0884 C1080000 		.4byte	0x8c1
 1692 0888 19       		.uleb128 0x19
 1693 0889 6D737000 		.ascii	"msp\000"
 1694 088d 01       		.byte	0x1
 1695 088e 67       		.byte	0x67
 1696 088f 9D070000 		.4byte	0x79d
 1697 0893 02       		.uleb128 0x2
 1698 0894 91       		.byte	0x91
 1699 0895 7C       		.sleb128 -4
 1700 0896 1D       		.uleb128 0x1d
 1701 0897 18010000 		.4byte	.LASF107
 1702 089b 01       		.byte	0x1
 1703 089c 67       		.byte	0x67
 1704 089d 32060000 		.4byte	0x632
 1705 08a1 02       		.uleb128 0x2
 1706 08a2 91       		.byte	0x91
 1707 08a3 78       		.sleb128 -8
 1708 08a4 1D       		.uleb128 0x1d
 1709 08a5 A9050000 		.4byte	.LASF108
 1710 08a9 01       		.byte	0x1
 1711 08aa 68       		.byte	0x68
 1712 08ab 2C000000 		.4byte	0x2c
 1713 08af 02       		.uleb128 0x2
 1714 08b0 91       		.byte	0x91
 1715 08b1 74       		.sleb128 -12
 1716 08b2 19       		.uleb128 0x19
 1717 08b3 656F7300 		.ascii	"eos\000"
 1718 08b7 01       		.byte	0x1
 1719 08b8 68       		.byte	0x68
 1720 08b9 2C000000 		.4byte	0x2c
 1721 08bd 02       		.uleb128 0x2
 1722 08be 91       		.byte	0x91
 1723 08bf 70       		.sleb128 -16
 1724 08c0 00       		.byte	0
 1725 08c1 1A       		.uleb128 0x1a
 1726 08c2 766D7400 		.ascii	"vmt\000"
 1727 08c6 01       		.byte	0x1
 1728 08c7 57       		.byte	0x57
 1729 08c8 3F070000 		.4byte	0x73f
 1730 08cc 05       		.uleb128 0x5
 1731 08cd 03       		.byte	0x3
 1732 08ce 00000000 		.4byte	vmt
 1733 08d2 1E       		.uleb128 0x1e
 1734 08d3 9A000000 		.4byte	.LASF112
ARM GAS  /tmp/ccDhhCX2.s 			page 49


 1735 08d7 0E       		.byte	0xe
 1736 08d8 FA06     		.2byte	0x6fa
 1737 08da DE080000 		.4byte	0x8de
 1738 08de 14       		.uleb128 0x14
 1739 08df C8000000 		.4byte	0xc8
 1740 08e3 1F       		.uleb128 0x1f
 1741 08e4 636800   		.ascii	"ch\000"
 1742 08e7 07       		.byte	0x7
 1743 08e8 0B02     		.2byte	0x20b
 1744 08ea F8030000 		.4byte	0x3f8
 1745 08ee 00       		.byte	0
 1746              		.section	.debug_abbrev,"",%progbits
 1747              	.Ldebug_abbrev0:
 1748 0000 01       		.uleb128 0x1
 1749 0001 11       		.uleb128 0x11
 1750 0002 01       		.byte	0x1
 1751 0003 25       		.uleb128 0x25
 1752 0004 0E       		.uleb128 0xe
 1753 0005 13       		.uleb128 0x13
 1754 0006 0B       		.uleb128 0xb
 1755 0007 03       		.uleb128 0x3
 1756 0008 0E       		.uleb128 0xe
 1757 0009 1B       		.uleb128 0x1b
 1758 000a 0E       		.uleb128 0xe
 1759 000b 55       		.uleb128 0x55
 1760 000c 17       		.uleb128 0x17
 1761 000d 11       		.uleb128 0x11
 1762 000e 01       		.uleb128 0x1
 1763 000f 10       		.uleb128 0x10
 1764 0010 17       		.uleb128 0x17
 1765 0011 00       		.byte	0
 1766 0012 00       		.byte	0
 1767 0013 02       		.uleb128 0x2
 1768 0014 24       		.uleb128 0x24
 1769 0015 00       		.byte	0
 1770 0016 0B       		.uleb128 0xb
 1771 0017 0B       		.uleb128 0xb
 1772 0018 3E       		.uleb128 0x3e
 1773 0019 0B       		.uleb128 0xb
 1774 001a 03       		.uleb128 0x3
 1775 001b 08       		.uleb128 0x8
 1776 001c 00       		.byte	0
 1777 001d 00       		.byte	0
 1778 001e 03       		.uleb128 0x3
 1779 001f 16       		.uleb128 0x16
 1780 0020 00       		.byte	0
 1781 0021 03       		.uleb128 0x3
 1782 0022 0E       		.uleb128 0xe
 1783 0023 3A       		.uleb128 0x3a
 1784 0024 0B       		.uleb128 0xb
 1785 0025 3B       		.uleb128 0x3b
 1786 0026 0B       		.uleb128 0xb
 1787 0027 49       		.uleb128 0x49
 1788 0028 13       		.uleb128 0x13
 1789 0029 00       		.byte	0
 1790 002a 00       		.byte	0
 1791 002b 04       		.uleb128 0x4
ARM GAS  /tmp/ccDhhCX2.s 			page 50


 1792 002c 24       		.uleb128 0x24
 1793 002d 00       		.byte	0
 1794 002e 0B       		.uleb128 0xb
 1795 002f 0B       		.uleb128 0xb
 1796 0030 3E       		.uleb128 0x3e
 1797 0031 0B       		.uleb128 0xb
 1798 0032 03       		.uleb128 0x3
 1799 0033 0E       		.uleb128 0xe
 1800 0034 00       		.byte	0
 1801 0035 00       		.byte	0
 1802 0036 05       		.uleb128 0x5
 1803 0037 0F       		.uleb128 0xf
 1804 0038 00       		.byte	0
 1805 0039 0B       		.uleb128 0xb
 1806 003a 0B       		.uleb128 0xb
 1807 003b 00       		.byte	0
 1808 003c 00       		.byte	0
 1809 003d 06       		.uleb128 0x6
 1810 003e 0F       		.uleb128 0xf
 1811 003f 00       		.byte	0
 1812 0040 0B       		.uleb128 0xb
 1813 0041 0B       		.uleb128 0xb
 1814 0042 49       		.uleb128 0x49
 1815 0043 13       		.uleb128 0x13
 1816 0044 00       		.byte	0
 1817 0045 00       		.byte	0
 1818 0046 07       		.uleb128 0x7
 1819 0047 26       		.uleb128 0x26
 1820 0048 00       		.byte	0
 1821 0049 49       		.uleb128 0x49
 1822 004a 13       		.uleb128 0x13
 1823 004b 00       		.byte	0
 1824 004c 00       		.byte	0
 1825 004d 08       		.uleb128 0x8
 1826 004e 13       		.uleb128 0x13
 1827 004f 01       		.byte	0x1
 1828 0050 03       		.uleb128 0x3
 1829 0051 0E       		.uleb128 0xe
 1830 0052 0B       		.uleb128 0xb
 1831 0053 0B       		.uleb128 0xb
 1832 0054 3A       		.uleb128 0x3a
 1833 0055 0B       		.uleb128 0xb
 1834 0056 3B       		.uleb128 0x3b
 1835 0057 0B       		.uleb128 0xb
 1836 0058 01       		.uleb128 0x1
 1837 0059 13       		.uleb128 0x13
 1838 005a 00       		.byte	0
 1839 005b 00       		.byte	0
 1840 005c 09       		.uleb128 0x9
 1841 005d 0D       		.uleb128 0xd
 1842 005e 00       		.byte	0
 1843 005f 03       		.uleb128 0x3
 1844 0060 0E       		.uleb128 0xe
 1845 0061 3A       		.uleb128 0x3a
 1846 0062 0B       		.uleb128 0xb
 1847 0063 3B       		.uleb128 0x3b
 1848 0064 0B       		.uleb128 0xb
ARM GAS  /tmp/ccDhhCX2.s 			page 51


 1849 0065 49       		.uleb128 0x49
 1850 0066 13       		.uleb128 0x13
 1851 0067 38       		.uleb128 0x38
 1852 0068 0B       		.uleb128 0xb
 1853 0069 00       		.byte	0
 1854 006a 00       		.byte	0
 1855 006b 0A       		.uleb128 0xa
 1856 006c 0D       		.uleb128 0xd
 1857 006d 00       		.byte	0
 1858 006e 03       		.uleb128 0x3
 1859 006f 08       		.uleb128 0x8
 1860 0070 3A       		.uleb128 0x3a
 1861 0071 0B       		.uleb128 0xb
 1862 0072 3B       		.uleb128 0x3b
 1863 0073 05       		.uleb128 0x5
 1864 0074 49       		.uleb128 0x49
 1865 0075 13       		.uleb128 0x13
 1866 0076 38       		.uleb128 0x38
 1867 0077 0B       		.uleb128 0xb
 1868 0078 00       		.byte	0
 1869 0079 00       		.byte	0
 1870 007a 0B       		.uleb128 0xb
 1871 007b 0D       		.uleb128 0xd
 1872 007c 00       		.byte	0
 1873 007d 03       		.uleb128 0x3
 1874 007e 0E       		.uleb128 0xe
 1875 007f 3A       		.uleb128 0x3a
 1876 0080 0B       		.uleb128 0xb
 1877 0081 3B       		.uleb128 0x3b
 1878 0082 05       		.uleb128 0x5
 1879 0083 49       		.uleb128 0x49
 1880 0084 13       		.uleb128 0x13
 1881 0085 38       		.uleb128 0x38
 1882 0086 0B       		.uleb128 0xb
 1883 0087 00       		.byte	0
 1884 0088 00       		.byte	0
 1885 0089 0C       		.uleb128 0xc
 1886 008a 13       		.uleb128 0x13
 1887 008b 01       		.byte	0x1
 1888 008c 03       		.uleb128 0x3
 1889 008d 0E       		.uleb128 0xe
 1890 008e 0B       		.uleb128 0xb
 1891 008f 0B       		.uleb128 0xb
 1892 0090 3A       		.uleb128 0x3a
 1893 0091 0B       		.uleb128 0xb
 1894 0092 3B       		.uleb128 0x3b
 1895 0093 05       		.uleb128 0x5
 1896 0094 01       		.uleb128 0x1
 1897 0095 13       		.uleb128 0x13
 1898 0096 00       		.byte	0
 1899 0097 00       		.byte	0
 1900 0098 0D       		.uleb128 0xd
 1901 0099 15       		.uleb128 0x15
 1902 009a 01       		.byte	0x1
 1903 009b 27       		.uleb128 0x27
 1904 009c 19       		.uleb128 0x19
 1905 009d 01       		.uleb128 0x1
ARM GAS  /tmp/ccDhhCX2.s 			page 52


 1906 009e 13       		.uleb128 0x13
 1907 009f 00       		.byte	0
 1908 00a0 00       		.byte	0
 1909 00a1 0E       		.uleb128 0xe
 1910 00a2 05       		.uleb128 0x5
 1911 00a3 00       		.byte	0
 1912 00a4 49       		.uleb128 0x49
 1913 00a5 13       		.uleb128 0x13
 1914 00a6 00       		.byte	0
 1915 00a7 00       		.byte	0
 1916 00a8 0F       		.uleb128 0xf
 1917 00a9 13       		.uleb128 0x13
 1918 00aa 01       		.byte	0x1
 1919 00ab 03       		.uleb128 0x3
 1920 00ac 0E       		.uleb128 0xe
 1921 00ad 0B       		.uleb128 0xb
 1922 00ae 05       		.uleb128 0x5
 1923 00af 3A       		.uleb128 0x3a
 1924 00b0 0B       		.uleb128 0xb
 1925 00b1 3B       		.uleb128 0x3b
 1926 00b2 05       		.uleb128 0x5
 1927 00b3 01       		.uleb128 0x1
 1928 00b4 13       		.uleb128 0x13
 1929 00b5 00       		.byte	0
 1930 00b6 00       		.byte	0
 1931 00b7 10       		.uleb128 0x10
 1932 00b8 0D       		.uleb128 0xd
 1933 00b9 00       		.byte	0
 1934 00ba 03       		.uleb128 0x3
 1935 00bb 08       		.uleb128 0x8
 1936 00bc 3A       		.uleb128 0x3a
 1937 00bd 0B       		.uleb128 0xb
 1938 00be 3B       		.uleb128 0x3b
 1939 00bf 0B       		.uleb128 0xb
 1940 00c0 49       		.uleb128 0x49
 1941 00c1 13       		.uleb128 0x13
 1942 00c2 38       		.uleb128 0x38
 1943 00c3 0B       		.uleb128 0xb
 1944 00c4 00       		.byte	0
 1945 00c5 00       		.byte	0
 1946 00c6 11       		.uleb128 0x11
 1947 00c7 13       		.uleb128 0x13
 1948 00c8 01       		.byte	0x1
 1949 00c9 0B       		.uleb128 0xb
 1950 00ca 0B       		.uleb128 0xb
 1951 00cb 3A       		.uleb128 0x3a
 1952 00cc 0B       		.uleb128 0xb
 1953 00cd 3B       		.uleb128 0x3b
 1954 00ce 0B       		.uleb128 0xb
 1955 00cf 01       		.uleb128 0x1
 1956 00d0 13       		.uleb128 0x13
 1957 00d1 00       		.byte	0
 1958 00d2 00       		.byte	0
 1959 00d3 12       		.uleb128 0x12
 1960 00d4 17       		.uleb128 0x17
 1961 00d5 01       		.byte	0x1
 1962 00d6 0B       		.uleb128 0xb
ARM GAS  /tmp/ccDhhCX2.s 			page 53


 1963 00d7 0B       		.uleb128 0xb
 1964 00d8 3A       		.uleb128 0x3a
 1965 00d9 0B       		.uleb128 0xb
 1966 00da 3B       		.uleb128 0x3b
 1967 00db 0B       		.uleb128 0xb
 1968 00dc 01       		.uleb128 0x1
 1969 00dd 13       		.uleb128 0x13
 1970 00de 00       		.byte	0
 1971 00df 00       		.byte	0
 1972 00e0 13       		.uleb128 0x13
 1973 00e1 0D       		.uleb128 0xd
 1974 00e2 00       		.byte	0
 1975 00e3 03       		.uleb128 0x3
 1976 00e4 0E       		.uleb128 0xe
 1977 00e5 3A       		.uleb128 0x3a
 1978 00e6 0B       		.uleb128 0xb
 1979 00e7 3B       		.uleb128 0x3b
 1980 00e8 05       		.uleb128 0x5
 1981 00e9 49       		.uleb128 0x49
 1982 00ea 13       		.uleb128 0x13
 1983 00eb 00       		.byte	0
 1984 00ec 00       		.byte	0
 1985 00ed 14       		.uleb128 0x14
 1986 00ee 35       		.uleb128 0x35
 1987 00ef 00       		.byte	0
 1988 00f0 49       		.uleb128 0x49
 1989 00f1 13       		.uleb128 0x13
 1990 00f2 00       		.byte	0
 1991 00f3 00       		.byte	0
 1992 00f4 15       		.uleb128 0x15
 1993 00f5 01       		.uleb128 0x1
 1994 00f6 01       		.byte	0x1
 1995 00f7 49       		.uleb128 0x49
 1996 00f8 13       		.uleb128 0x13
 1997 00f9 01       		.uleb128 0x1
 1998 00fa 13       		.uleb128 0x13
 1999 00fb 00       		.byte	0
 2000 00fc 00       		.byte	0
 2001 00fd 16       		.uleb128 0x16
 2002 00fe 21       		.uleb128 0x21
 2003 00ff 00       		.byte	0
 2004 0100 49       		.uleb128 0x49
 2005 0101 13       		.uleb128 0x13
 2006 0102 2F       		.uleb128 0x2f
 2007 0103 0B       		.uleb128 0xb
 2008 0104 00       		.byte	0
 2009 0105 00       		.byte	0
 2010 0106 17       		.uleb128 0x17
 2011 0107 15       		.uleb128 0x15
 2012 0108 01       		.byte	0x1
 2013 0109 27       		.uleb128 0x27
 2014 010a 19       		.uleb128 0x19
 2015 010b 49       		.uleb128 0x49
 2016 010c 13       		.uleb128 0x13
 2017 010d 01       		.uleb128 0x1
 2018 010e 13       		.uleb128 0x13
 2019 010f 00       		.byte	0
ARM GAS  /tmp/ccDhhCX2.s 			page 54


 2020 0110 00       		.byte	0
 2021 0111 18       		.uleb128 0x18
 2022 0112 2E       		.uleb128 0x2e
 2023 0113 01       		.byte	0x1
 2024 0114 03       		.uleb128 0x3
 2025 0115 0E       		.uleb128 0xe
 2026 0116 3A       		.uleb128 0x3a
 2027 0117 0B       		.uleb128 0xb
 2028 0118 3B       		.uleb128 0x3b
 2029 0119 0B       		.uleb128 0xb
 2030 011a 27       		.uleb128 0x27
 2031 011b 19       		.uleb128 0x19
 2032 011c 49       		.uleb128 0x49
 2033 011d 13       		.uleb128 0x13
 2034 011e 11       		.uleb128 0x11
 2035 011f 01       		.uleb128 0x1
 2036 0120 12       		.uleb128 0x12
 2037 0121 06       		.uleb128 0x6
 2038 0122 40       		.uleb128 0x40
 2039 0123 18       		.uleb128 0x18
 2040 0124 9642     		.uleb128 0x2116
 2041 0126 19       		.uleb128 0x19
 2042 0127 01       		.uleb128 0x1
 2043 0128 13       		.uleb128 0x13
 2044 0129 00       		.byte	0
 2045 012a 00       		.byte	0
 2046 012b 19       		.uleb128 0x19
 2047 012c 05       		.uleb128 0x5
 2048 012d 00       		.byte	0
 2049 012e 03       		.uleb128 0x3
 2050 012f 08       		.uleb128 0x8
 2051 0130 3A       		.uleb128 0x3a
 2052 0131 0B       		.uleb128 0xb
 2053 0132 3B       		.uleb128 0x3b
 2054 0133 0B       		.uleb128 0xb
 2055 0134 49       		.uleb128 0x49
 2056 0135 13       		.uleb128 0x13
 2057 0136 02       		.uleb128 0x2
 2058 0137 18       		.uleb128 0x18
 2059 0138 00       		.byte	0
 2060 0139 00       		.byte	0
 2061 013a 1A       		.uleb128 0x1a
 2062 013b 34       		.uleb128 0x34
 2063 013c 00       		.byte	0
 2064 013d 03       		.uleb128 0x3
 2065 013e 08       		.uleb128 0x8
 2066 013f 3A       		.uleb128 0x3a
 2067 0140 0B       		.uleb128 0xb
 2068 0141 3B       		.uleb128 0x3b
 2069 0142 0B       		.uleb128 0xb
 2070 0143 49       		.uleb128 0x49
 2071 0144 13       		.uleb128 0x13
 2072 0145 02       		.uleb128 0x2
 2073 0146 18       		.uleb128 0x18
 2074 0147 00       		.byte	0
 2075 0148 00       		.byte	0
 2076 0149 1B       		.uleb128 0x1b
ARM GAS  /tmp/ccDhhCX2.s 			page 55


 2077 014a 2E       		.uleb128 0x2e
 2078 014b 01       		.byte	0x1
 2079 014c 03       		.uleb128 0x3
 2080 014d 08       		.uleb128 0x8
 2081 014e 3A       		.uleb128 0x3a
 2082 014f 0B       		.uleb128 0xb
 2083 0150 3B       		.uleb128 0x3b
 2084 0151 0B       		.uleb128 0xb
 2085 0152 27       		.uleb128 0x27
 2086 0153 19       		.uleb128 0x19
 2087 0154 49       		.uleb128 0x49
 2088 0155 13       		.uleb128 0x13
 2089 0156 11       		.uleb128 0x11
 2090 0157 01       		.uleb128 0x1
 2091 0158 12       		.uleb128 0x12
 2092 0159 06       		.uleb128 0x6
 2093 015a 40       		.uleb128 0x40
 2094 015b 18       		.uleb128 0x18
 2095 015c 9742     		.uleb128 0x2117
 2096 015e 19       		.uleb128 0x19
 2097 015f 01       		.uleb128 0x1
 2098 0160 13       		.uleb128 0x13
 2099 0161 00       		.byte	0
 2100 0162 00       		.byte	0
 2101 0163 1C       		.uleb128 0x1c
 2102 0164 2E       		.uleb128 0x2e
 2103 0165 01       		.byte	0x1
 2104 0166 3F       		.uleb128 0x3f
 2105 0167 19       		.uleb128 0x19
 2106 0168 03       		.uleb128 0x3
 2107 0169 0E       		.uleb128 0xe
 2108 016a 3A       		.uleb128 0x3a
 2109 016b 0B       		.uleb128 0xb
 2110 016c 3B       		.uleb128 0x3b
 2111 016d 0B       		.uleb128 0xb
 2112 016e 27       		.uleb128 0x27
 2113 016f 19       		.uleb128 0x19
 2114 0170 11       		.uleb128 0x11
 2115 0171 01       		.uleb128 0x1
 2116 0172 12       		.uleb128 0x12
 2117 0173 06       		.uleb128 0x6
 2118 0174 40       		.uleb128 0x40
 2119 0175 18       		.uleb128 0x18
 2120 0176 9742     		.uleb128 0x2117
 2121 0178 19       		.uleb128 0x19
 2122 0179 01       		.uleb128 0x1
 2123 017a 13       		.uleb128 0x13
 2124 017b 00       		.byte	0
 2125 017c 00       		.byte	0
 2126 017d 1D       		.uleb128 0x1d
 2127 017e 05       		.uleb128 0x5
 2128 017f 00       		.byte	0
 2129 0180 03       		.uleb128 0x3
 2130 0181 0E       		.uleb128 0xe
 2131 0182 3A       		.uleb128 0x3a
 2132 0183 0B       		.uleb128 0xb
 2133 0184 3B       		.uleb128 0x3b
ARM GAS  /tmp/ccDhhCX2.s 			page 56


 2134 0185 0B       		.uleb128 0xb
 2135 0186 49       		.uleb128 0x49
 2136 0187 13       		.uleb128 0x13
 2137 0188 02       		.uleb128 0x2
 2138 0189 18       		.uleb128 0x18
 2139 018a 00       		.byte	0
 2140 018b 00       		.byte	0
 2141 018c 1E       		.uleb128 0x1e
 2142 018d 34       		.uleb128 0x34
 2143 018e 00       		.byte	0
 2144 018f 03       		.uleb128 0x3
 2145 0190 0E       		.uleb128 0xe
 2146 0191 3A       		.uleb128 0x3a
 2147 0192 0B       		.uleb128 0xb
 2148 0193 3B       		.uleb128 0x3b
 2149 0194 05       		.uleb128 0x5
 2150 0195 49       		.uleb128 0x49
 2151 0196 13       		.uleb128 0x13
 2152 0197 3F       		.uleb128 0x3f
 2153 0198 19       		.uleb128 0x19
 2154 0199 3C       		.uleb128 0x3c
 2155 019a 19       		.uleb128 0x19
 2156 019b 00       		.byte	0
 2157 019c 00       		.byte	0
 2158 019d 1F       		.uleb128 0x1f
 2159 019e 34       		.uleb128 0x34
 2160 019f 00       		.byte	0
 2161 01a0 03       		.uleb128 0x3
 2162 01a1 08       		.uleb128 0x8
 2163 01a2 3A       		.uleb128 0x3a
 2164 01a3 0B       		.uleb128 0xb
 2165 01a4 3B       		.uleb128 0x3b
 2166 01a5 05       		.uleb128 0x5
 2167 01a6 49       		.uleb128 0x49
 2168 01a7 13       		.uleb128 0x13
 2169 01a8 3F       		.uleb128 0x3f
 2170 01a9 19       		.uleb128 0x19
 2171 01aa 3C       		.uleb128 0x3c
 2172 01ab 19       		.uleb128 0x19
 2173 01ac 00       		.byte	0
 2174 01ad 00       		.byte	0
 2175 01ae 00       		.byte	0
 2176              		.section	.debug_aranges,"",%progbits
 2177 0000 3C000000 		.4byte	0x3c
 2178 0004 0200     		.2byte	0x2
 2179 0006 00000000 		.4byte	.Ldebug_info0
 2180 000a 04       		.byte	0x4
 2181 000b 00       		.byte	0
 2182 000c 0000     		.2byte	0
 2183 000e 0000     		.2byte	0
 2184 0010 00000000 		.4byte	.LFB272
 2185 0014 54000000 		.4byte	.LFE272-.LFB272
 2186 0018 00000000 		.4byte	.LFB273
 2187 001c 54000000 		.4byte	.LFE273-.LFB273
 2188 0020 00000000 		.4byte	.LFB274
 2189 0024 42000000 		.4byte	.LFE274-.LFB274
 2190 0028 00000000 		.4byte	.LFB275
ARM GAS  /tmp/ccDhhCX2.s 			page 57


 2191 002c 3E000000 		.4byte	.LFE275-.LFB275
 2192 0030 00000000 		.4byte	.LFB276
 2193 0034 30000000 		.4byte	.LFE276-.LFB276
 2194 0038 00000000 		.4byte	0
 2195 003c 00000000 		.4byte	0
 2196              		.section	.debug_ranges,"",%progbits
 2197              	.Ldebug_ranges0:
 2198 0000 00000000 		.4byte	.LFB272
 2199 0004 54000000 		.4byte	.LFE272
 2200 0008 00000000 		.4byte	.LFB273
 2201 000c 54000000 		.4byte	.LFE273
 2202 0010 00000000 		.4byte	.LFB274
 2203 0014 42000000 		.4byte	.LFE274
 2204 0018 00000000 		.4byte	.LFB275
 2205 001c 3E000000 		.4byte	.LFE275
 2206 0020 00000000 		.4byte	.LFB276
 2207 0024 30000000 		.4byte	.LFE276
 2208 0028 00000000 		.4byte	0
 2209 002c 00000000 		.4byte	0
 2210              		.section	.debug_line,"",%progbits
 2211              	.Ldebug_line0:
 2212 0000 3D030000 		.section	.debug_str,"MS",%progbits,1
 2212      0200C702 
 2212      00000201 
 2212      FB0E0D00 
 2212      01010101 
 2213              	.LASF23:
 2214 0000 74726566 		.ascii	"trefs_t\000"
 2214      735F7400 
 2215              	.LASF53:
 2216 0008 72656164 		.ascii	"ready_list_t\000"
 2216      795F6C69 
 2216      73745F74 
 2216      00
 2217              	.LASF2:
 2218 0015 73697A65 		.ascii	"size_t\000"
 2218      5F7400
 2219              	.LASF87:
 2220 001c 7264796D 		.ascii	"rdymsg\000"
 2220      736700
 2221              	.LASF19:
 2222 0023 75696E74 		.ascii	"uint64_t\000"
 2222      36345F74 
 2222      00
 2223              	.LASF3:
 2224 002c 5F5F7569 		.ascii	"__uint8_t\000"
 2224      6E74385F 
 2224      7400
 2225              	.LASF84:
 2226 0036 706F7274 		.ascii	"port_intctx\000"
 2226      5F696E74 
 2226      63747800 
 2227              	.LASF72:
 2228 0042 73797374 		.ascii	"system_debug_t\000"
 2228      656D5F64 
 2228      65627567 
 2228      5F7400
ARM GAS  /tmp/ccDhhCX2.s 			page 58


 2229              	.LASF13:
 2230 0051 6C6F6E67 		.ascii	"long long unsigned int\000"
 2230      206C6F6E 
 2230      6720756E 
 2230      7369676E 
 2230      65642069 
 2231              	.LASF88:
 2232 0068 65786974 		.ascii	"exitcode\000"
 2232      636F6465 
 2232      00
 2233              	.LASF79:
 2234 0071 6D61696E 		.ascii	"mainthread\000"
 2234      74687265 
 2234      616400
 2235              	.LASF91:
 2236 007c 73656E74 		.ascii	"sentmsg\000"
 2236      6D736700 
 2237              	.LASF69:
 2238 0084 76697274 		.ascii	"virtual_timers_list_t\000"
 2238      75616C5F 
 2238      74696D65 
 2238      72735F6C 
 2238      6973745F 
 2239              	.LASF112:
 2240 009a 49544D5F 		.ascii	"ITM_RxBuffer\000"
 2240      52784275 
 2240      66666572 
 2240      00
 2241              	.LASF52:
 2242 00a7 63685F74 		.ascii	"ch_threads_queue\000"
 2242      68726561 
 2242      64735F71 
 2242      75657565 
 2242      00
 2243              	.LASF32:
 2244 00b8 705F7072 		.ascii	"p_prio\000"
 2244      696F00
 2245              	.LASF111:
 2246 00bf 72656164 		.ascii	"reads\000"
 2246      7300
 2247              	.LASF11:
 2248 00c5 6C6F6E67 		.ascii	"long long int\000"
 2248      206C6F6E 
 2248      6720696E 
 2248      7400
 2249              	.LASF1:
 2250 00d3 7369676E 		.ascii	"signed char\000"
 2250      65642063 
 2250      68617200 
 2251              	.LASF46:
 2252 00df 705F6D70 		.ascii	"p_mpool\000"
 2252      6F6F6C00 
 2253              	.LASF99:
 2254 00e7 6D5F7175 		.ascii	"m_queue\000"
 2254      65756500 
 2255              	.LASF78:
 2256 00ef 76746C69 		.ascii	"vtlist\000"
ARM GAS  /tmp/ccDhhCX2.s 			page 59


 2256      737400
 2257              	.LASF90:
 2258 00f6 77747472 		.ascii	"wttrp\000"
 2258      7000
 2259              	.LASF76:
 2260 00fc 63685F73 		.ascii	"ch_system\000"
 2260      79737465 
 2260      6D00
 2261              	.LASF8:
 2262 0106 6C6F6E67 		.ascii	"long int\000"
 2262      20696E74 
 2262      00
 2263              	.LASF22:
 2264 010f 74737461 		.ascii	"tstate_t\000"
 2264      74655F74 
 2264      00
 2265              	.LASF107:
 2266 0118 62756666 		.ascii	"buffer\000"
 2266      657200
 2267              	.LASF34:
 2268 011f 705F6E65 		.ascii	"p_newer\000"
 2268      77657200 
 2269              	.LASF96:
 2270 0127 735F7175 		.ascii	"s_queue\000"
 2270      65756500 
 2271              	.LASF58:
 2272 012f 725F6E65 		.ascii	"r_newer\000"
 2272      77657200 
 2273              	.LASF81:
 2274 0137 72656761 		.ascii	"regarm_t\000"
 2274      726D5F74 
 2274      00
 2275              	.LASF65:
 2276 0140 76745F70 		.ascii	"vt_prev\000"
 2276      72657600 
 2277              	.LASF102:
 2278 0148 6D757465 		.ascii	"mutex_t\000"
 2278      785F7400 
 2279              	.LASF80:
 2280 0150 69646C65 		.ascii	"idle_thread_wa\000"
 2280      5F746872 
 2280      6561645F 
 2280      776100
 2281              	.LASF27:
 2282 015f 636E745F 		.ascii	"cnt_t\000"
 2282      7400
 2283              	.LASF113:
 2284 0165 474E5520 		.ascii	"GNU C 4.8.4 20140526 (release) [ARM/embedded-4_8-br"
 2284      4320342E 
 2284      382E3420 
 2284      32303134 
 2284      30353236 
 2285 0198 616E6368 		.ascii	"anch revision 211358] -mcpu=cortex-m4 -mno-thumb-in"
 2285      20726576 
 2285      6973696F 
 2285      6E203231 
 2285      31333538 
ARM GAS  /tmp/ccDhhCX2.s 			page 60


 2286 01cb 74657277 		.ascii	"terwork -mthumb -ggdb -O0 -fomit-frame-pointer -fal"
 2286      6F726B20 
 2286      2D6D7468 
 2286      756D6220 
 2286      2D676764 
 2287 01fe 69676E2D 		.ascii	"ign-functions=16 -ffunction-sections -fdata-section"
 2287      66756E63 
 2287      74696F6E 
 2287      733D3136 
 2287      202D6666 
 2288 0231 73202D66 		.ascii	"s -fno-common -flto\000"
 2288      6E6F2D63 
 2288      6F6D6D6F 
 2288      6E202D66 
 2288      6C746F00 
 2289              	.LASF0:
 2290 0245 756E7369 		.ascii	"unsigned int\000"
 2290      676E6564 
 2290      20696E74 
 2290      00
 2291              	.LASF64:
 2292 0252 76745F6E 		.ascii	"vt_next\000"
 2292      65787400 
 2293              	.LASF92:
 2294 025a 77747365 		.ascii	"wtsemp\000"
 2294      6D7000
 2295              	.LASF42:
 2296 0261 705F6D73 		.ascii	"p_msgqueue\000"
 2296      67717565 
 2296      756500
 2297              	.LASF97:
 2298 026c 735F636E 		.ascii	"s_cnt\000"
 2298      7400
 2299              	.LASF6:
 2300 0272 73686F72 		.ascii	"short unsigned int\000"
 2300      7420756E 
 2300      7369676E 
 2300      65642069 
 2300      6E7400
 2301              	.LASF49:
 2302 0285 63685F74 		.ascii	"ch_thread\000"
 2302      68726561 
 2302      6400
 2303              	.LASF25:
 2304 028f 6D73675F 		.ascii	"msg_t\000"
 2304      7400
 2305              	.LASF75:
 2306 0295 63685F73 		.ascii	"ch_system_t\000"
 2306      79737465 
 2306      6D5F7400 
 2307              	.LASF110:
 2308 02a1 77726974 		.ascii	"writes\000"
 2308      657300
 2309              	.LASF21:
 2310 02a8 746D6F64 		.ascii	"tmode_t\000"
 2310      655F7400 
 2311              	.LASF54:
ARM GAS  /tmp/ccDhhCX2.s 			page 61


 2312 02b0 63685F72 		.ascii	"ch_ready_list\000"
 2312      65616479 
 2312      5F6C6973 
 2312      7400
 2313              	.LASF26:
 2314 02be 6576656E 		.ascii	"eventmask_t\000"
 2314      746D6173 
 2314      6B5F7400 
 2315              	.LASF7:
 2316 02ca 5F5F696E 		.ascii	"__int32_t\000"
 2316      7433325F 
 2316      7400
 2317              	.LASF82:
 2318 02d4 73746B61 		.ascii	"stkalign_t\000"
 2318      6C69676E 
 2318      5F7400
 2319              	.LASF116:
 2320 02df 6D734F62 		.ascii	"msObjectInit\000"
 2320      6A656374 
 2320      496E6974 
 2320      00
 2321              	.LASF105:
 2322 02ec 77726974 		.ascii	"write\000"
 2322      6500
 2323              	.LASF41:
 2324 02f2 705F7761 		.ascii	"p_waiting\000"
 2324      6974696E 
 2324      6700
 2325              	.LASF14:
 2326 02fc 73697A65 		.ascii	"sizetype\000"
 2326      74797065 
 2326      00
 2327              	.LASF47:
 2328 0305 74687265 		.ascii	"thread_reference_t\000"
 2328      61645F72 
 2328      65666572 
 2328      656E6365 
 2328      5F7400
 2329              	.LASF70:
 2330 0318 63685F76 		.ascii	"ch_virtual_timers_list\000"
 2330      69727475 
 2330      616C5F74 
 2330      696D6572 
 2330      735F6C69 
 2331              	.LASF71:
 2332 032f 76745F6C 		.ascii	"vt_lasttime\000"
 2332      61737474 
 2332      696D6500 
 2333              	.LASF35:
 2334 033b 705F6F6C 		.ascii	"p_older\000"
 2334      64657200 
 2335              	.LASF57:
 2336 0343 725F6374 		.ascii	"r_ctx\000"
 2336      7800
 2337              	.LASF86:
 2338 0349 746D5F63 		.ascii	"tm_calibration_t\000"
 2338      616C6962 
ARM GAS  /tmp/ccDhhCX2.s 			page 62


 2338      72617469 
 2338      6F6E5F74 
 2338      00
 2339              	.LASF37:
 2340 035a 705F7374 		.ascii	"p_stklimit\000"
 2340      6B6C696D 
 2340      697400
 2341              	.LASF60:
 2342 0365 725F6375 		.ascii	"r_current\000"
 2342      7272656E 
 2342      7400
 2343              	.LASF59:
 2344 036f 725F6F6C 		.ascii	"r_older\000"
 2344      64657200 
 2345              	.LASF104:
 2346 0377 4D656D53 		.ascii	"MemStreamVMT\000"
 2346      74726561 
 2346      6D564D54 
 2346      00
 2347              	.LASF12:
 2348 0384 5F5F7569 		.ascii	"__uint64_t\000"
 2348      6E743634 
 2348      5F7400
 2349              	.LASF62:
 2350 038f 76697274 		.ascii	"virtual_timer_t\000"
 2350      75616C5F 
 2350      74696D65 
 2350      725F7400 
 2351              	.LASF31:
 2352 039f 705F7072 		.ascii	"p_prev\000"
 2352      657600
 2353              	.LASF24:
 2354 03a6 74707269 		.ascii	"tprio_t\000"
 2354      6F5F7400 
 2355              	.LASF114:
 2356 03ae 2E2E2F43 		.ascii	"../ChibiOS/os/hal/lib/streams/memstreams.c\000"
 2356      68696269 
 2356      4F532F6F 
 2356      732F6861 
 2356      6C2F6C69 
 2357              	.LASF109:
 2358 03d9 4D656D6F 		.ascii	"MemoryStream\000"
 2358      72795374 
 2358      7265616D 
 2358      00
 2359              	.LASF73:
 2360 03e6 63685F73 		.ascii	"ch_system_debug\000"
 2360      79737465 
 2360      6D5F6465 
 2360      62756700 
 2361              	.LASF103:
 2362 03f6 5F426F6F 		.ascii	"_Bool\000"
 2362      6C00
 2363              	.LASF17:
 2364 03fc 696E7433 		.ascii	"int32_t\000"
 2364      325F7400 
 2365              	.LASF4:
ARM GAS  /tmp/ccDhhCX2.s 			page 63


 2366 0404 756E7369 		.ascii	"unsigned char\000"
 2366      676E6564 
 2366      20636861 
 2366      7200
 2367              	.LASF38:
 2368 0412 705F7374 		.ascii	"p_state\000"
 2368      61746500 
 2369              	.LASF44:
 2370 041a 705F6D74 		.ascii	"p_mtxlist\000"
 2370      786C6973 
 2370      7400
 2371              	.LASF5:
 2372 0424 73686F72 		.ascii	"short int\000"
 2372      7420696E 
 2372      7400
 2373              	.LASF56:
 2374 042e 725F7072 		.ascii	"r_prio\000"
 2374      696F00
 2375              	.LASF94:
 2376 0435 65776D61 		.ascii	"ewmask\000"
 2376      736B00
 2377              	.LASF30:
 2378 043c 705F6E65 		.ascii	"p_next\000"
 2378      787400
 2379              	.LASF39:
 2380 0443 705F666C 		.ascii	"p_flags\000"
 2380      61677300 
 2381              	.LASF36:
 2382 044b 705F6E61 		.ascii	"p_name\000"
 2382      6D6500
 2383              	.LASF63:
 2384 0452 63685F76 		.ascii	"ch_virtual_timer\000"
 2384      69727475 
 2384      616C5F74 
 2384      696D6572 
 2384      00
 2385              	.LASF95:
 2386 0463 63685F73 		.ascii	"ch_semaphore\000"
 2386      656D6170 
 2386      686F7265 
 2386      00
 2387              	.LASF43:
 2388 0470 705F6570 		.ascii	"p_epending\000"
 2388      656E6469 
 2388      6E6700
 2389              	.LASF18:
 2390 047b 75696E74 		.ascii	"uint32_t\000"
 2390      33325F74 
 2390      00
 2391              	.LASF93:
 2392 0484 77746D74 		.ascii	"wtmtxp\000"
 2392      787000
 2393              	.LASF55:
 2394 048b 725F7175 		.ascii	"r_queue\000"
 2394      65756500 
 2395              	.LASF66:
 2396 0493 76745F64 		.ascii	"vt_delta\000"
ARM GAS  /tmp/ccDhhCX2.s 			page 64


 2396      656C7461 
 2396      00
 2397              	.LASF50:
 2398 049c 63685F74 		.ascii	"ch_threads_list\000"
 2398      68726561 
 2398      64735F6C 
 2398      69737400 
 2399              	.LASF115:
 2400 04ac 2F6E6673 		.ascii	"/nfs/nfs4/home/irbrown/Courses/P442/P442WifiTrailCo"
 2400      2F6E6673 
 2400      342F686F 
 2400      6D652F69 
 2400      7262726F 
 2401 04df 756E7465 		.ascii	"unterProject/milestone3\000"
 2401      7250726F 
 2401      6A656374 
 2401      2F6D696C 
 2401      6573746F 
 2402              	.LASF10:
 2403 04f7 6C6F6E67 		.ascii	"long unsigned int\000"
 2403      20756E73 
 2403      69676E65 
 2403      6420696E 
 2403      7400
 2404              	.LASF106:
 2405 0509 72656164 		.ascii	"read\000"
 2405      00
 2406              	.LASF15:
 2407 050e 63686172 		.ascii	"char\000"
 2407      00
 2408              	.LASF29:
 2409 0513 74687265 		.ascii	"thread_t\000"
 2409      61645F74 
 2409      00
 2410              	.LASF101:
 2411 051c 6D5F6E65 		.ascii	"m_next\000"
 2411      787400
 2412              	.LASF28:
 2413 0523 73797374 		.ascii	"systime_t\000"
 2413      696D655F 
 2413      7400
 2414              	.LASF45:
 2415 052d 705F7265 		.ascii	"p_realprio\000"
 2415      616C7072 
 2415      696F00
 2416              	.LASF61:
 2417 0538 76746675 		.ascii	"vtfunc_t\000"
 2417      6E635F74 
 2417      00
 2418              	.LASF9:
 2419 0541 5F5F7569 		.ascii	"__uint32_t\000"
 2419      6E743332 
 2419      5F7400
 2420              	.LASF74:
 2421 054c 70616E69 		.ascii	"panic_msg\000"
 2421      635F6D73 
 2421      6700
ARM GAS  /tmp/ccDhhCX2.s 			page 65


 2422              	.LASF85:
 2423 0556 6F666673 		.ascii	"offset\000"
 2423      657400
 2424              	.LASF83:
 2425 055d 636F6E74 		.ascii	"context\000"
 2425      65787400 
 2426              	.LASF20:
 2427 0565 7274636E 		.ascii	"rtcnt_t\000"
 2427      745F7400 
 2428              	.LASF68:
 2429 056d 76745F70 		.ascii	"vt_par\000"
 2429      617200
 2430              	.LASF51:
 2431 0574 74687265 		.ascii	"threads_queue_t\000"
 2431      6164735F 
 2431      71756575 
 2431      655F7400 
 2432              	.LASF98:
 2433 0584 63685F6D 		.ascii	"ch_mutex\000"
 2433      75746578 
 2433      00
 2434              	.LASF40:
 2435 058d 705F7265 		.ascii	"p_refs\000"
 2435      667300
 2436              	.LASF77:
 2437 0594 726C6973 		.ascii	"rlist\000"
 2437      7400
 2438              	.LASF16:
 2439 059a 75696E74 		.ascii	"uint8_t\000"
 2439      385F7400 
 2440              	.LASF89:
 2441 05a2 77746F62 		.ascii	"wtobjp\000"
 2441      6A7000
 2442              	.LASF108:
 2443 05a9 73697A65 		.ascii	"size\000"
 2443      00
 2444              	.LASF48:
 2445 05ae 74687265 		.ascii	"threads_list_t\000"
 2445      6164735F 
 2445      6C697374 
 2445      5F7400
 2446              	.LASF100:
 2447 05bd 6D5F6F77 		.ascii	"m_owner\000"
 2447      6E657200 
 2448              	.LASF33:
 2449 05c5 705F6374 		.ascii	"p_ctx\000"
 2449      7800
 2450              	.LASF67:
 2451 05cb 76745F66 		.ascii	"vt_func\000"
 2451      756E6300 
 2452              		.comm	__gnu_lto_v1,1,1
 2453              		.ident	"GCC: (GNU Tools for ARM Embedded Processors) 4.8.4 20140526 (release) [ARM/embedded-4_8-br
ARM GAS  /tmp/ccDhhCX2.s 			page 66


DEFINED SYMBOLS
                            *ABS*:00000000 memstreams.c
     /tmp/ccDhhCX2.s:308    .text.writes:00000000 $t
     /tmp/ccDhhCX2.s:313    .text.writes:00000000 writes
     /tmp/ccDhhCX2.s:376    .text.reads:00000000 $t
     /tmp/ccDhhCX2.s:381    .text.reads:00000000 reads
     /tmp/ccDhhCX2.s:443    .text.put:00000000 $t
     /tmp/ccDhhCX2.s:448    .text.put:00000000 put
     /tmp/ccDhhCX2.s:500    .text.get:00000000 $t
     /tmp/ccDhhCX2.s:505    .text.get:00000000 get
     /tmp/ccDhhCX2.s:555    .rodata.vmt:00000000 $d
     /tmp/ccDhhCX2.s:558    .rodata.vmt:00000000 vmt
     /tmp/ccDhhCX2.s:564    .text.msObjectInit:00000000 $t
     /tmp/ccDhhCX2.s:570    .text.msObjectInit:00000000 msObjectInit
     /tmp/ccDhhCX2.s:610    .text.msObjectInit:0000002c $d
                            *COM*:00000001 __gnu_lto_v1
                     .debug_frame:00000010 $d

UNDEFINED SYMBOLS
memcpy
