ARM GAS  /tmp/ccDhhCX2.s 			page 1


   1              		.syntax unified
   2              		.cpu cortex-m4
   3              		.fpu softvfp
   4              		.eabi_attribute 20, 1
   5              		.eabi_attribute 21, 1
   6              		.eabi_attribute 23, 3
   7              		.eabi_attribute 24, 1
   8              		.eabi_attribute 25, 1
   9              		.eabi_attribute 26, 1
  10              		.eabi_attribute 30, 6
  11              		.eabi_attribute 34, 1
  12              		.eabi_attribute 18, 4
  13              		.thumb
  14              		.file	"memstreams.c"
  15              		.text
  16              	.Ltext0:
  17              		.section	.gnu.lto_.inline.55bd48482f2a07cb,"",%progbits
  18 0000 789C6362 		.ascii	"x\234cb`b\300\006\262\2404+\003\003\037/\003\003\223"
  18      6062C006 
  18      B2A0342B 
  18      03031F2F 
  18      030393
  19 0013 C484D38C 		.ascii	"\304\204\323\214\014,\020\305\214\230BL\014\242\262"
  19      0C2C10C5 
  19      8C98424C 
  19      0CA2B2
  20 0022 4052AEE1 		.ascii	"@R\256\341\027\\\210\005\250\206\201\031\2078\013\003"
  20      175C8805 
  20      A8868119 
  20      87380B03 
  21 0032 073B509C 		.ascii	"\007;P\234gC.L\230\001\000\011~\010\264"
  21      67432E4C 
  21      98010009 
  21      7E08B4
  22              		.text
  23              		.section	.gnu.lto_put.55bd48482f2a07cb,"",%progbits
  24 0000 789C9D53 		.ascii	"x\234\235S\277k\024A\024~ofv\357\267Q\2600]H%\036\334"
  24      BF6B1441 
  24      147E6F66 
  24      76EFB751 
  24      B0305D48 
  25 0017 E25F6061 		.ascii	"\342_`ae\245\240B,,\356b\330,dQ<\373\233K\216 *\022"
  25      65A5A042 
  25      2C2CEE62 
  25      D82C6451 
  25      3CFB9B4B 
  26 002f 42C01815 		.ascii	"B\300\030\025\223B\361\027\230\323\346\212\024[H8<\002"
  26      9342F117 
  26      98D3E68A 
  26      145B4838 
  26      3C02
  27 0041 111B0D08 		.ascii	"\021\033\015\010GNbca\231B\\\337\314\334n\016Q\263\372"
  27      474E6263 
  27      6199425C 
  27      DFCCDC6E 
  27      0E51B3FA 
  28 0055 E0DECDBC 		.ascii	"\340\336\315\274\367}\357}\363f\226\001\203_\315\241"
ARM GAS  /tmp/ccDhhCX2.s 			page 2


  28      F77DEF7D 
  28      F3669601 
  28      835FCDA1 
  29 0065 DF9A0038 		.ascii	"\337\232\0008\25666 !\2201\016 \031E\245\340hQDho!\022"
  29      AE363620 
  29      2190310E 
  29      201945A5 
  29      E0685144 
  30 007d 08A1C6B8 		.ascii	"\010\241\306\270\260\260vA\355 3\012+R\316w\037\365"
  30      B0B07641 
  30      ED20330A 
  30      2B52CE77 
  30      1FF5
  31 008f 36F1EE42 		.ascii	"6\361\356B\320X\226\337\303\020\321S\311q\2041Z\341"
  31      D05896DF 
  31      C310D153 
  31      C9718431 
  31      5AE1
  32 00a1 88FE5305 		.ascii	"\210\376S\005\007\315\020\345\247\317g\332\262\021\204"
  32      07CD10E5 
  32      A7CF67DA 
  32      B21184
  33 00b0 E189A49C 		.ascii	"\341\211\244\234\305\340\301\372\333\025$n\375[\030"
  33      C5E0C1FA 
  33      DB15246E 
  33      FD5B18
  34 00bf 0E79C893 		.ascii	"\016y\310\223\265\012\036\316\336\032\276\261<='\177"
  34      B50A1ECE 
  34      DE1ABEB1 
  34      3C3D277F 
  35 00cf 90440F45 		.ascii	"\220D\017EB\205\357\377Y\341\274|\365Df\364(x\342>A"
  35      4285EFFF 
  35      59E1BC7C 
  35      F54466F4 
  35      2878E23E 
  36 00e4 73F6F6A0 		.ascii	"s\366\366\240\274\377i\225\220\023\334Y_\030\226{\255"
  36      BCFF6995 
  36      9013DC59 
  36      5F18967B 
  36      AD
  37 00f5 2C0625DC 		.ascii	",\006%\334\207\371\222\005\3350|\321\\\333^\302C\007"
  37      87F99205 
  37      DD307CD1 
  37      5CDB5EC2 
  37      4307
  38 0107 1068EC0C 		.ascii	"\020h\354\014}\004\016e|\212\243 (\002\226r\266\312"
  38      7D040E65 
  38      7C8AA320 
  38      28029672 
  38      B6CA
  39 0119 A5C889B4 		.ascii	"\245\310\211\264\332f\324*KP\314\251m^\271\002\350["
  39      DA66D42A 
  39      4B50CCA9 
  39      6D5EB902 
  39      E85B
  40 012b 237C43CA 		.ascii	"#|C\312\271\021SAk';\247\375y\365\026\371\006Lwv\267"
  40      B9115341 
ARM GAS  /tmp/ccDhhCX2.s 			page 3


  40      6B273BA7 
  40      FD79F516 
  40      F9064C77 
  41 0141 DBAC8CCF 		.ascii	"\333\254\214\317\351\015\272\310]\025\246\350V\213\036"
  41      E90DBAC8 
  41      5D15A6E8 
  41      568B1E
  42 0150 5C141545 		.ascii	"\\\024\025E8\346\241}\017\226Hx\212P\352\000\226\226"
  42      38E6A17D 
  42      0F964878 
  42      8A50EA00 
  42      9696
  43 0162 5DC1E800 		.ascii	"]\301\350\000\212\264\231\213(\326\337(\021\247\015"
  43      8AB4998B 
  43      28D6DF28 
  43      11A70D
  44 0171 6FBED40B 		.ascii	"o\276\324\013q\027\267\017\000\243\217\033}\255\017"
  44      7117B70F 
  44      00A38F1B 
  44      7DAD0F
  45 0180 BDA311C4 		.ascii	"\275\243\021\304VU8\015\325\030\326\"\2540\330\255\335"
  45      5655380D 
  45      D518D622 
  45      AC30D8AD 
  45      DD
  46 0191 5E10AB4E 		.ascii	"^\020\253Ni\011\342\367\022\330\200\352\325lDI\307\252"
  46      6909E2F7 
  46      12D880EA 
  46      D56C4449 
  46      C7AA
  47 01a3 EB52CA8B 		.ascii	"\353R\312\213\177V\276\00137g\036\307\2552\256B\246"
  47      7F56BE01 
  47      3337671E 
  47      C7AD32AE 
  47      42A6
  48 01b5 75B9CEEA 		.ascii	"u\271\316\352\220\011\367\253\244<L\023b\314|\021d."
  48      9009F7AB 
  48      A43C4C13 
  48      62CC7C11 
  48      642E
  49 01c7 664DDFC5 		.ascii	"fM\337\305\235n\\!W\204g\004>\270\357\314\250\363u\036"
  49      9D6E5C21 
  49      57846704 
  49      3EB8EFCC 
  49      A8F3751E 
  50 01db B1F24454 		.ascii	"\261\362DT \033\315QN\231D\262ZD\327\244Vk\347HT\260"
  50      201BCD51 
  50      4E9944B2 
  50      5A44D7A4 
  50      566BE748 
  51 01f1 A007BC77 		.ascii	"\240\007\274w\007\304\340\035\250\323\311.\251\221\275"
  51      07C4E01D 
  51      A8D3C92E 
  51      A991BD
  52 0200 D34BD714 		.ascii	"\323K\327\024\370\010H7\302\2776\017\023O\334\177\235"
  52      F8084837 
  52      C2BF360F 
ARM GAS  /tmp/ccDhhCX2.s 			page 4


  52      134FDC7F 
  52      9D
  53 0211 574F8B32 		.ascii	"WO\2132j\264\305R\31199\351U\274\323g\235\313Ug\262"
  53      6AB4C552 
  53      C93939E9 
  53      55BCD367 
  53      9DCB5567 
  54 0226 3CE54C79 		.ascii	"<\345Ly\025\247z\355\352D\331\257:\376\204\337_\226"
  54      15A77AED 
  54      EA44D9AF 
  54      3AFE84DF 
  54      5F96
  55 0238 C681FBD5 		.ascii	"\306\201\373\325+?\001\207\010\025\217"
  55      2B3F0187 
  55      08158F
  56              		.text
  57              		.section	.gnu.lto_get.55bd48482f2a07cb,"",%progbits
  58 0000 789CB553 		.ascii	"x\234\265SKk\024A\020\256\352\356\331\367\372\000Qr"
  58      4B6B1441 
  58      10AEEAEE 
  58      D9F7FA00 
  58      5172
  59 0012 0B39890B 		.ascii	"\0139\211\013;\202?\300\203'O\012\032\210\307\335\030"
  59      3B823FC0 
  59      83274F0A 
  59      1A88C7DD 
  59      18
  60 0023 36035914 		.ascii	"6\003Y\024W\317\333\233\335\210(\321\020r\210\217Cr"
  60      57CFDB9B 
  60      DD8828D1 
  60      1072888F 
  60      4372
  61 0035 F341500C 		.ascii	"\363AP\014\221\240\010s\220e1\011(\"\306xY!\020\330"
  61      91A00873 
  61      90653109 
  61      2822C678 
  61      592110D8 
  62 0049 43C83187 		.ascii	"C\3101\207\340X\325\223\031\203\254f\020,\230\232\356"
  62      E058D593 
  62      1983AC66 
  62      102C989A 
  62      EE
  63 005a EAEFABFA 		.ascii	"\352\357\253\372\272\272[\200\200\337\315\246oG\001"
  63      BABA5B80 
  63      80DFCDA6 
  63      6F4701
  64 0069 9CE2490C 		.ascii	"\234\342I\014\220\020(\204\004\320\202\242ZI\264(\242"
  64      90102884 
  64      04D082A2 
  64      5A49B428 
  64      A2
  65 007a 8CB71009 		.ascii	"\214\267\020\011\204P\025RYX\275\3043H\365\301\254\326"
  65      84501552 
  65      5958BDC4 
  65      3348F5C1 
  65      ACD6
  66 008c 93EDB1CE 		.ascii	"\223\355\261\316\007\274?\3456f\364\216\347!:\2748\210"
ARM GAS  /tmp/ccDhhCX2.s 			page 5


  66      07BC3FE5 
  66      3666F48E 
  66      E7213ABC 
  66      3888
  67 009e 304023EC 		.ascii	"0@#\3545?N\270\327|\242\376\266~\276\245\033\256\347"
  67      353F4EB8 
  67      D77CA2FE 
  67      B67EBEA5 
  67      1BAEE7
  68 00b1 9D8ECA99 		.ascii	"\235\216\312\231v?5\337\317\"qk[\236w\320A\031\255\224"
  68      763F35DF 
  68      CF22716B 
  68      5B9E77D0 
  68      4119AD94 
  69 00c5 FBF9E6DD 		.ascii	"\373\371\346\335\236\3333\243\023\372\007ItP\3757\205"
  69      9EDB33A3 
  69      13FA0749 
  69      7450FD37 
  69      85
  70 00d6 93FAE563 		.ascii	"\223\372\345c\2354\255\220\221\353\270_\232\367\366"
  70      9D34AD90 
  70      91EBB85F 
  70      9AF7F6
  71 00e5 CAFB9752 		.ascii	"\312\373\227R\0219\356\233\346\3701\335\326A)K@\036"
  71      1139EE9B 
  71      E6F831DD 
  71      D641294B 
  71      401E
  72 00f7 4366C267 		.ascii	"Cf\302gbW\346\333\346T\217\376%2&\340$\356S\363\271"
  72      6257E6DB 
  72      E6548FFE 
  72      253226E0 
  72      24EE53F3 
  73 010c 70DB9EB7 		.ascii	"p\333\236\267<\277\365}\016\017\037@\240\003\023XF\220"
  73      3CBFF57D 
  73      0E0F1F40 
  73      A0031358 
  73      4690
  74 011e 50C067D8 		.ascii	"P\300g\330\007\212\"`\261\213\361Z\234\234J\3604\311"
  74      078A2260 
  74      B18BF15A 
  74      9C9C4AF0 
  74      34C9
  75 0130 A314A19E 		.ascii	"\243\024\241\236\020*\315\221\014\273,\230#'JC\353\211"
  75      102ACD91 
  75      0CBB2C98 
  75      23274A43 
  75      EB89
  76 0142 5E7FD94F 		.ascii	"^\177\331Oe\266Ov\321\370~\276\316r\005F\227V7Z\242"
  76      65B64F76 
  76      D1F87EBE 
  76      CE720546 
  76      9756375A 
  77 0157 8073748D 		.ascii	"\200st\215K(K\034\246\350\3324\335\331 \252rp\302\301"
  77      4B284B1C 
  77      A6E8DA34 
  77      DDD920AA 
ARM GAS  /tmp/ccDhhCX2.s 			page 6


  77      7270C2C1 
  78 016b F8437840 		.ascii	"\370Cx@;H\020\212w\0223\372\213a'\230\364\"\035P\254"
  78      3B48108A 
  78      771233FA 
  78      8B612798 
  78      F4221D50 
  79 0180 BF51024E 		.ascii	"\277Q\002N\013\336m\324\262a\225\022\277\244\300\372"
  79      0BDE6DD4 
  79      B2619512 
  79      BFA4C0FA 
  80 0190 791BAC6F 		.ascii	"y\033\254oq\261s<\200\3048\213\244\356\372\206\325\000"
  80      71B1733C 
  80      80C4388B 
  80      A4EEFA86 
  80      D500
  81 01a2 AB7CECDA 		.ascii	"\253|\354\332j\247\035\252\216\033\011\252\273\004\321"
  81      6AA71DAA 
  81      8E1B09AA 
  81      BB04D1
  82 01b1 55752254 		.ascii	"Uu\"T]\323Z\337\370\263\362\025\250\337\251\277\012"
  82      5DD35ADF 
  82      F8B3F215 
  82      A8DFA9BF 
  82      0A
  83 01c2 4B25A91A 		.ascii	"K%\251\032\261M\272\327cG\203pj7\021=C\213@\003\376"
  83      B14DBAD7 
  83      63478370 
  83      6A37113D 
  83      438B4003 
  84 01d7 BB0AEB6E 		.ascii	"\273\012\353nw\266\303\014\351\034<%\344\241}{F\225"
  84      77B6C30C 
  84      E91C3C25 
  84      E4A17D7B 
  84      4695
  85 01e9 6FC98095 		.ascii	"o\311\200\225!\"\203\342\350\247<\353/D\313EtC\332\254"
  85      212283E2 
  85      E8A73CEB 
  85      2F44CB45 
  85      7443DAAC 
  86 01fd CF8F8719 		.ascii	"\317\217\207\031\263\244:h*\235\206\\\202\032m\3532"
  86      B3A43A68 
  86      2A9D865C 
  86      821A6DEB 
  86      32
  87 020e 533E9A61 		.ascii	"S>\232a\311g\177\005\244\343\220\217\026\216\020G-/"
  87      C9677F05 
  87      A4E3908F 
  87      168E1047 
  87      2D2F
  88 0220 64F85ED1 		.ascii	"d\370^\321\012\3675\227\317\333g\206\235\242s\356\202"
  88      0AF73597 
  88      CFDB6786 
  88      9DA273EE 
  88      82
  89 0231 7DA5620F 		.ascii	"}\245b\017\027F\354\021\247hW\256_\033*\224+vy\250\274"
  89      1746EC11 
  89      A76857AE 
ARM GAS  /tmp/ccDhhCX2.s 			page 7


  89      5F1B2A94 
  89      2B7679A8 
  90 0246 3BCC0F02 		.ascii	";\314\017\002\026e\271r\365'\201+'G"
  90      1665B972 
  90      F527812B 
  90      2747
  91              		.text
  92              		.section	.gnu.lto_writes.55bd48482f2a07cb,"",%progbits
  93 0000 789C9D93 		.ascii	"x\234\235\223\317k\023Q\020\307g\366m6\277\177TD\360"
  93      CF6B1351 
  93      10C767F6 
  93      6D36BF7F 
  93      5444F0
  94 0013 22A54703 		.ascii	"\"\245G\003Y\374\013<\364\344I\301\026\364\230\304\272"
  94      59FC0B3C 
  94      F4E449C1 
  94      16F498C4 
  94      BA
  95 0024 5DE8A218 		.ascii	"]\350\242\030\301\203\207\274mz\210\277 x\222\364`{"
  95      C18387BC 
  95      6D7A88BF 
  95      207892F4 
  95      607B
  96 0036 A8881605 		.ascii	"\250\210\026\005\275\324\2239xH\011EEJm\212\220\203"
  96      BDD49339 
  96      78480945 
  96      454A6D8A 
  96      9083
  97 0048 DE2CD88B 		.ascii	"\336,\330\213\024\021\327\231\335\354v\021\251k\026"
  97      1411D799 
  97      DDEC7611 
  97      A96B16
  98 0057 32FBDEBC 		.ascii	"2\373\336\274\371\314|g\336F\001\005\376|t\372m\306"
  98      F9CC7C67 
  98      DE460105 
  98      FE7C74FA 
  98      6DC6
  99 0069 004EF146 		.ascii	"\000N\361F\003\244\010T\024\001 \025\225\214*\220^\250"
  99      03A40854 
  99      14012015 
  99      958C2A90 
  99      5EA8
 100 007b 2285600C 		.ascii	"\"\205`\014\221\202\020\352\212PcX\277\310;\310L\300"
 100      918210EA 
 100      8A506358 
 100      BFC83BC8 
 100      4CC0
 101 008d B294F707 		.ascii	"\262\224\367\007+\355{\307o/\315\267\344/\307A\223\217"
 101      2BED7BC7 
 101      6F2FCDB7 
 101      E42FC741 
 101      938F
 102 009f AA081768 		.ascii	"\252\010\027h\205\343\356\213\323\205\037\017\223\237"
 102      85E3EE8B 
 102      D3851F0F 
 102      939F
 103 00ad 3E9FEBCA 		.ascii	">\237\353\312\205\216\343\234\216\316|\370\177\246\263"
ARM GAS  /tmp/ccDhhCX2.s 			page 8


 103      858EE39C 
 103      8ECE7CF8 
 103      7FA6B3
 104 00bc B9D75D46 		.ascii	"\271\327]Fb\355o\216\223\217^jo\204R[\257\326\303\245"
 104      62ED6F8E 
 104      938F5E6A 
 104      6F84525B 
 104      AFD6C3A5 
 105 00d0 44C4522F 		.ascii	"D\304R/G\230\304\213\3072\271$\177:\2160\371\236\"\311"
 105      4798C48B 
 105      C732B924 
 105      7F3A8E30 
 105      F99E22C9 
 106 00e4 DB1E6D12 		.ascii	"\333\036m\022\341R\321\230vgg\343n\252e7\245\343\324"
 106      E152D198 
 106      766767E3 
 106      6EAA6537 
 106      A5E3D4
 107 00f7 4DFE8222 		.ascii	"M\376\202\"\351{\275\262\036\222\247)P\302\177\200\317"
 107      E97BBDB2 
 107      1E92A729 
 107      50C27F80 
 107      CF
 108 0108 95CEC071 		.ascii	"\225\316\300q\276>}\370\375\330\021\004\013AA\013i\356"
 108      BE3E7DF8 
 108      FDD81104 
 108      0B41410B 
 108      69EE
 109 011a 655CC509 		.ascii	"e\\\305\011P\201\004\307\330hl\342t\006\011^%\331\244"
 109      508104C7 
 109      D8686CE2 
 109      7406095E 
 109      25D9A4
 110 012d 383E4D2B 		.ascii	"8>M+\221\341m\226\214\232\243\020%\317\333\002\2331"
 110      91E16D96 
 110      8C9AA310 
 110      25CFDB02 
 110      9B31
 111 013f 70C5538E 		.ascii	"p\305S\216\005)[\343^V\267\031z\246\\;\315\377\033\261"
 111      05295BE3 
 111      5E56B719 
 111      7AA65C3B 
 111      CDFF1BB1 
 112 0153 01F3BDFD 		.ascii	"\001\363\275\375\255\243e|F\361\006\012\203\275\344"
 112      ADA3657C 
 112      46F1060A 
 112      83BDE4
 113 0162 ECAFB5B3 		.ascii	"\354\257\265\263\276S-\302IJ\267\010mj$NA\334\220\346"
 113      BE532DC2 
 113      494AB708 
 113      6D6A244E 
 113      41DC90E6 
 114 0176 B65141BF 		.ascii	"\266QA\277!f\336\245}$v\030\202\001\322\270\325x\204"
 114      2166DEA5 
 114      7D247618 
 114      8201D2B8 
 114      D57884
ARM GAS  /tmp/ccDhhCX2.s 			page 9


 115 0189 3EA35125 		.ascii	">\243Q%\203Uw\341\315\027;\033r\307\017\3466\315\337"
 115      835577E1 
 115      CD173B1B 
 115      72C70FE6 
 115      36CDDF
 116 019c 26ABEE7F 		.ascii	"&\253\356\177l\347\374\220DT\201\255\000IF\026x\302"
 116      6CE7FC90 
 116      445481AD 
 116      00494616 
 116      78C2
 117 01ae 47525488 		.ascii	"GRT\210@_\207:\324\261\337\017\222\246\335\244\342\357"
 117      405F873A 
 117      D4B1DF0F 
 117      92A6DDA4 
 117      E2EF
 118 01c0 4995908E 		.ascii	"I\225\220\216\203Ae\002\035\266\224\362\306\241Z\356"
 118      83416502 
 118      1DB694F2 
 118      C6A15AEE 
 119 01d0 342EFB58 		.ascii	"4.\373X\226\212\021\014\360\0264\317\007p\023~\310\246"
 119      968A110C 
 119      F01634CF 
 119      0770137E 
 119      C8A6
 120 01e2 2C9898A8 		.ascii	",\230\230\250\016)7.g \245Kz\205\037,\006b\363ExB%\013"
 120      0E29372E 
 120      6720A54B 
 120      7A851F2C 
 120      0662F345 
 121 01fa 51A6D014 		.ascii	"Q\246\320\024>U \320\340#\312v\306sF\313C\250\013\365"
 121      3E5520D0 
 121      E023CA76 
 121      C67346CB 
 121      43A80BF5 
 122 020e D676821B 		.ascii	"\326v\202\033\0373\274\303m@\272d\205LJ\254\356\"O\227"
 122      1F33BCC3 
 122      6D40BA64 
 122      854C4AAC 
 122      EE224F97 
 123 0222 1A123DB0 		.ascii	"\032\022=\260\023\000\227\370\306\337\203=\330\325\002"
 123      130097F8 
 123      C6DF833D 
 123      D8D502
 124 0231 CE1336C5 		.ascii	"\316\0236\3054\217\265X*\351\223\263f\305<{^\277R\323"
 124      348FB558 
 124      2AE993B3 
 124      66C53C7B 
 124      5EBF52D3 
 125 0245 67CB73FA 		.ascii	"g\313s\372\234Y\321k\327\257\315\224\255\232n\315X\303"
 125      9C59D16B 
 125      D7AFCD94 
 125      AD9A6ECD 
 125      58C3
 126 0257 65A90AC2 		.ascii	"e\251\012\302\252]\375\015m\301Cu"
 126      AA5DFD0D 
 126      6DC14375 
 127              		.text
ARM GAS  /tmp/ccDhhCX2.s 			page 10


 128              		.section	.gnu.lto_reads.55bd48482f2a07cb,"",%progbits
 129 0000 789C9D93 		.ascii	"x\234\235\223\317k\023Q\020\307g\366m6\277\233T<\350"
 129      CF6B1351 
 129      10C767F6 
 129      6D36BF9B 
 129      543CE8
 130 0013 454A8F06 		.ascii	"EJ\217\006\262\370\027x\360\344I\301\026\364\230\304"
 130      B2F81778 
 130      F0E449C1 
 130      16F498C4 
 131 0023 BA5D6850 		.ascii	"\272]hP\2147\017y\333\364\020\265B\360$-\324V\020DD"
 131      8C370F79 
 131      DBF410B5 
 131      42F0242D 
 131      D4561044 
 132 0038 452F3DE6 		.ascii	"E/=\346 \222\022K\355E\264\202\311\301\036<Y\361R\177"
 132      2092124B 
 132      ED45B482 
 132      C9C11E3C 
 132      59F1527F 
 133 004c D4E7CC6E 		.ascii	"\324\347\314nv]D\352\232\205\314\2767o>3\337\231\267"
 133      765D44EA 
 133      9A85CCBE 
 133      376F3E33 
 133      DF99B7
 134 005f D140833F 		.ascii	"\321@\203?\037\223~\257c\000\307xc\000R\004j\232\000"
 134      1F937EAF 
 134      6300C778 
 134      63005204 
 134      6A9A00
 135 0072 909A4E46 		.ascii	"\220\232NF\027H/\324\221B0\206HA\010uM\3501\254\237"
 135      17482FD4 
 135      91423086 
 135      48410875 
 135      4DE831AC 
 136 0087 E31D64C6 		.ascii	"\343\035d\306aE\312[\375\355\245\233\207\257/\317\266"
 136      6145CA5B 
 136      FDEDA59B 
 136      87AF2FCF 
 136      B6
 137 0098 E44FA5D0 		.ascii	"\344O\245\320\346\243\012\302YZ\341\230\373\342t\341"
 137      E6A30AC2 
 137      595AE198 
 137      FBE274E1 
 138 00a8 C7C3E4BB 		.ascii	"\307\303\344\273\017\247;r\256\255\324\361\350\314\346"
 138      0FA73B72 
 138      AEADD4F1 
 138      E8CCE6
 139 00b7 FF33EDAF 		.ascii	"\3773\355\257\237;+H\254\263\243T.z\251\336\020\245"
 139      9F3B2B48 
 139      ACB3A354 
 139      2E7AA9DE 
 139      10A5
 140 00c9 BE7F5C0B 		.ascii	"\276\177\\\013\227\022\021K=\033b\022O\357\313\344\262"
 140      9712114B 
 140      3D1B6212 
 140      4FEFCBE4 
ARM GAS  /tmp/ccDhhCX2.s 			page 11


 140      B2
 141 00da FCA194B0 		.ascii	"\374\241\224\260\371\236\"\311\333\333\033j\022\341"
 141      F99E22C9 
 141      DBDB1B6A 
 141      12E1
 142 00e8 52D19885 		.ascii	"R\321\230\205\266Z\237O\265\234\246T\252n\363\027\024"
 142      B65A9F4F 
 142      B59CA654 
 142      AA6EF317 
 142      14
 143 00f9 49DF977B 		.ascii	"I\337\227{k!y\206\006E\374\007\370Xk\367\225\232\337"
 143      6B217986 
 143      0645FC07 
 143      F8586BF7 
 143      959ADF
 144 010c 587C7108 		.ascii	"X|q\010\017 T\0214\254\"\015\276\204\017q\034t \305"
 144      0F205411 
 144      34AC220D 
 144      BE840F71 
 144      1C7420C5 
 145 0120 3136069B 		.ascii	"16\006\2338\235A\202WI6)\216O\323Jdx\233%\243\217P\210"
 145      389D4182 
 145      57493629 
 145      8E4FD34A 
 145      64789B25 
 146 0138 96E36D9E 		.ascii	"\226\343m\236\315(\270\352)\307\234\224\2551/\253\333"
 146      CD28B8EA 
 146      29C79C94 
 146      AD312FAB 
 146      DB
 147 0149 0D3D13AE 		.ascii	"\015=\023\256\235\344?\216X\207\331\356\352\373\203"
 147      9DE43F8E 
 147      5887D9EE 
 147      EAFB83
 148 0158 257C44F1 		.ascii	"%|D\361\026\012\213\275\344\334\332]\312\372N\275\000"
 148      160A8BBD 
 148      E4DCDA5D 
 148      CAFA4EBD 
 148      00
 149 0169 4729DD22 		.ascii	"G)\335\",P'q\012\342\216\014\267\2172\372\0351\363$"
 149      2C502771 
 149      0AE28E0C 
 149      B78F32FA 
 149      1D31F324 
 150 017d ED23B1FD 		.ascii	"\355#\261\375\020\014\220\306\265\306]\364\031\203*"
 150      100C90C6 
 150      B5C65DF4 
 150      19832A
 151 018c 59ACBA03 		.ascii	"Y\254\272\003\317\267\235l\310\035\377=\270I\3768Y\365"
 151      CFB79D6C 
 151      C81DFF3D 
 151      B849FE38 
 151      59F5
 152 019e D6ED3B23 		.ascii	"\326\355;#~H\"\252\300\235@`2\262\300#>\222\242B\004"
 152      7E4822AA 
 152      C09D4060 
 152      32B2C023 
ARM GAS  /tmp/ccDhhCX2.s 			page 12


 152      3E92A242 
 153 01b3 FA3AF481 		.ascii	"\372:\364\201\216\325^0\275\264\233T\374=\251\026\322"
 153      8ED55E30 
 153      BDB49B54 
 153      FC3DA916 
 153      D2
 154 01c4 F12A909E 		.ascii	"\361*\220\236\011t8R\312\372\276Zn4.\370X\226\212\021"
 154      09743852 
 154      CAFABE5A 
 154      6E342EF8 
 154      58968A11 
 155 01d8 0CB00186 		.ascii	"\014\260\001\206\347\003\270\012\337dS\346mLT\006\224"
 155      E703B80A 
 155      DF6453E6 
 155      6D4C5406 
 155      94
 156 01e9 85236E28 		.ascii	"\205#n(\245Kz\205\337\364r~\212\\\001\036P\311|\224"
 156      A54B7A85 
 156      DFF4727E 
 156      8A5C011E 
 156      50C97C94 
 157 01fd 2934854F 		.ascii	")4\205O\345\011\264\370\210\262\235\364\234\321\362"
 157      E509B4F8 
 157      88B29DF4 
 157      9CD1F2
 158 020c 10EA42DD 		.ascii	"\020\352B\335\335^p\343\243\226w\370\026\220.Y#\223"
 158      DD5E70E3 
 158      A39677F8 
 158      16902E59 
 158      2393
 159 021e 122F3F21 		.ascii	"\022/?!O\227\032\022]p\022\000\347\371\3067\301\351"
 159      4F971A12 
 159      5D701200 
 159      E7F9C637 
 159      C1E9
 160 0230 2B23E03C 		.ascii	"+#\340<a\023L\363X\013\305\242yb\332.\333\247\316\230"
 160      61134CF3 
 160      580BC5A2 
 160      7962DA2E 
 160      DBA7CE98 
 161 0244 176BE674 		.ascii	"\027k\346ti\306\234\261\313f\355\312\345\251R\265fV"
 161      69C69CB1 
 161      CB66EDCA 
 161      E5A952B5 
 161      6656
 162 0256 A7AA8365 		.ascii	"\247\252\203e\261\002\242Z\273\364\013\241\246E\023"
 162      B102A25A 
 162      BBF40BA1 
 162      A64513
 163              		.text
 164              		.section	.gnu.lto_msObjectInit.55bd48482f2a07cb,"",%progbits
 165 0000 789C8D8F 		.ascii	"x\234\215\217?K\003A\020\305\337\333\275+\355\322+X"
 165      3F4B0341 
 165      10C5DFDB 
 165      BD2BEDD2 
 165      2B58
 166 0012 066F3F84 		.ascii	"\006o?\204\037\300\"\021\264\274\013!9\310!xv)\262\376"
ARM GAS  /tmp/ccDhhCX2.s 			page 13


 166      1FC02211 
 166      B4BC0B21 
 166      39C82178 
 166      7629B2FE 
 167 0026 013BB13C 		.ascii	"\001;\261<\024\013[\213h\231\322^,\354\354Lo\257!\010"
 167      140B5B8B 
 167      6899D25E 
 167      2CECEC4C 
 167      6FAF2108 
 168 003a 7176F76C 		.ascii	"qv\367lb\212\014\354\354\314\360~ow\024\024\226\243"
 168      628A0CEC 
 168      ECCCF07E 
 168      6F771414 
 168      96A3
 169 004c 21A722B0 		.ascii	"!\247\"\260\343\032\015\212\202\2122\0001R\034\035\322"
 169      E31A0D8A 
 169      828A3200 
 169      31521C1D 
 169      D2
 170 005d CB1ED5F3 		.ascii	"\313\036\325\363t\261\030?]\216\177x\247b\262 \224$"
 170      74B1183F 
 170      5D8E7F78 
 170      A762B220 
 170      9424
 171 006f 6A492A92 		.ascii	"jI*\222\244E\025\343\302\332\353-\240\343\251\266\317"
 171      A44515E3 
 171      C2DAEB2D 
 171      A0E3A9B6 
 171      CF
 172 0080 FBCE53BF 		.ascii	"\373\316S\277\342l~\376y\265\231\362\2361\232x\260\022"
 172      E26C7EFE 
 172      79B599F2 
 172      9E319A78 
 172      B012
 173 0092 1B39718B 		.ascii	"\0339q\213\033\346d\217<\220;|0\013\217b\210\271\255"
 173      1BE6648F 
 173      3C903B7C 
 173      300B8F62 
 173      88B9AD
 174 00a5 AC6D89AC 		.ascii	"\254m\211\254`\344G\342\3632\373\232q\331G\257\366\011"
 174      60E447E2 
 174      F332FB9A 
 174      71D947AF 
 174      F609
 175 00b7 463DD73B 		.ascii	"F=\327;\262\372\376OF\253IU\223:\220\223\365I]\223\221"
 175      B2FAFE4F 
 175      46AB4955 
 175      933A9093 
 175      F5495D93 
 176 00cc 2727EFEB 		.ascii	"''\357\353\223aE7\361\325\033N\247\037\333\201\375\213"
 176      93614537 
 176      F1D51B4E 
 176      A71FDB81 
 176      FD8B
 177 00de B65BC9E9 		.ascii	"\266[\311\351\233Ibv\373y\226\357\265\314Qi\372\351"
 177      9B496276 
 177      FB7996EF 
ARM GAS  /tmp/ccDhhCX2.s 			page 14


 177      B5CC5169 
 177      FAE9
 178 00f0 C00CF2CC 		.ascii	"\300\014\362\314\224'\307\335\264(M\321-\3522\351\340"
 178      9427C7DD 
 178      B4284DD1 
 178      2DEA32E9 
 178      E0
 179 0101 178B3D67 		.ascii	"\027\213=g\315"
 179      CD
 180              		.text
 181              		.section	.gnu.lto_.symbol_nodes.55bd48482f2a07cb,"",%progbits
 182 0000 789C4DC8 		.ascii	"x\234M\310\271\021\2000\020CQ\255\026\323\006\265\321"
 182      B9118030 
 182      104351AD 
 182      16D306B5 
 182      D1
 183 0011 020DC811 		.ascii	"\002\015\310\021\003\2319\313\"bh\200\224\"\010\354"
 183      039939CB 
 183      22626880 
 183      942208EC 
 184 0021 C04AFE3C 		.ascii	"\300J\376<\021\304\2002\256\024\220.@\272\347\236\033"
 184      11C48032 
 184      AE14902E 
 184      40BAE79E 
 184      1B
 185 0032 651513C5 		.ascii	"e\025\023\305\212\013\345\025\017\252)|&\013;\321\312"
 185      8A0BE515 
 185      0FAA297C 
 185      260B3BD1 
 185      CA
 186 0043 EDA4427E 		.ascii	"\355\244B~c4g\213w\374:\367\\\374iv$+"
 186      6334678B 
 186      77FC3AF7 
 186      5CFC6976 
 186      242B
 187              		.text
 188              		.section	.gnu.lto_.refs.55bd48482f2a07cb,"",%progbits
 189 0000 789C6362 		.ascii	"x\234cb`b\340g\200\000F\026&V\026V&&&f&\006&F\006\000"
 189      6062E067 
 189      80004616 
 189      26561656 
 189      26262666 
 190 001a 032B0037 		.ascii	"\003+\0007"
 191              		.text
 192              		.section	.gnu.lto_.decls.55bd48482f2a07cb,"",%progbits
 193 0000 789CBD58 		.ascii	"x\234\275X]l\024U\024\276w\366\247]h\260i\204\300\213"
 193      5D6C1455 
 193      14BE77F6 
 193      A75D68B0 
 193      6984C08B 
 194 0014 2C283E40 		.ascii	",(>@\332\021\254\244/\202\244\017\340C\301\210\030_"
 194      DA11ACA4 
 194      2F82A40F 
 194      E043C188 
 194      185F
 195 0026 4C33DD9D 		.ascii	"L3\335\235v\327t\177\334\231\212\350\203\227\026\001"
 195      76D7747F 
ARM GAS  /tmp/ccDhhCX2.s 			page 15


 195      DC998AE8 
 195      83971601 
 196 0036 8986827F 		.ascii	"\211\206\202\177`\002\335\362g0!\320\022\004S\012\013"
 196      6002DDF2 
 196      673021D0 
 196      1204530A 
 196      0B
 197 0047 156C44A4 		.ascii	"\025lD\244\201\200\012b\026,\240\242\241\245 ?\245\326"
 197      81800A62 
 197      162CA0A2 
 197      A1A5203F 
 197      A5D6
 198 0059 73EFDCDD 		.ascii	"s\357\334\335\235\231\316\354nM\344f\317\354\235\231"
 198      9D99CEEC 
 198      6E4DE466 
 198      CFEC9D99 
 199 0069 7BBE73EE 		.ascii	"{\276s\356\371\316\271\367\356\012H@\345\002B\303\320"
 199      F9CEB9F7 
 199      EE0A4840 
 199      E50242C3 
 199      D0
 200 007a EA4A105A 		.ascii	"\352J\020Z\350@\310\215\020\232\2032\215\336\267\202"
 200      E840C88D 
 200      109A8332 
 200      8DDEB782 
 201 008a 74801C01 		.ascii	"t\200\034\0019\015r\021\304\203\021\202\017\232\204"
 201      390D7211 
 201      C4831182 
 201      0F9A84
 202 0099 91A1D1B1 		.ascii	"\221\241\321\261\036\020\027\3108\220\"\220\255 \347"
 202      1E1017C8 
 202      38902290 
 202      AD20E7
 203 00a8 4092205D 		.ascii	"@\222 ] \227@v\203\2009t\017d\020\344\016\322\360Z\371"
 203      20974076 
 203      83803974 
 203      0F6410E4 
 203      0ED2F05A 
 204 00bd F32F410E 		.ascii	"\363/A\016\200L6\341wd\301\337m\262\341\340\330C:|\252"
 204      804C36E1 
 204      7764C1DF 
 204      6DB2E1E0 
 204      D8433A7C 
 205 00d2 0F534687 		.ascii	"\017SF\207A\274&l:\2771&l\212;\227c&9\356\024\320\033"
 205      41BC266C 
 205      3ABF3126 
 205      6C8A3B97 
 205      632639EE 
 206 00e9 8347FA2F 		.ascii	"\203G\372/p\014\032\033'|\237\002\371\016\344$\310T"
 206      700C1A1B 
 206      277C9F02 
 206      F90EE424 
 206      C854
 207 00fb 93ADD336 		.ascii	"\223\255\3236\266\346e\261\245\237\213\3001R\266.\200"
 207      B6E665B1 
 207      A59F8BC0 
 207      3152B62E 
ARM GAS  /tmp/ccDhhCX2.s 			page 16


 207      80
 208 010c FC04721E 		.ascii	"\374\004r\036\344q\223\255\213\334\3165\216\231\344"
 208      E47193AD 
 208      8BDCCE35 
 208      8E99E4
 209 011b B6BAF8F3 		.ascii	"\266\272\370\363\253\03435\227!\036\253\224\236\003"
 209      AB1C3335 
 209      97211EAB 
 209      949E03
 210 012a 6E5C206E 		.ascii	"n\\ n\220\002<\222\363\311h3I\364$\217]\356\303\033"
 210      90023C92 
 210      F3C96833 
 210      49F4248F 
 210      5DEEC31B 
 211 013e 49620581 		.ascii	"Ib\005\201t\"\030M@\037\023h\361\225\204`\325\203V\363"
 211      7422184D 
 211      401F1368 
 211      F1958460 
 211      D58356F3 
 212 0152 9B05DD30 		.ascii	"\233\005\3350\335W\260\204\307y\220\227u\212<l\006\323"
 212      DD57B084 
 212      C7799097 
 212      758A3C6C 
 212      06D3
 213 0164 D036429A 		.ascii	"\3206B\232\223\235\333\337\177\226\220B\011o\305\036"
 213      939DDBDF 
 213      7F969042 
 213      096FC51E 
 214 0174 98A58CD1 		.ascii	"\230\245\214\321t\264\023T\233\011\271<\333d\230\265"
 214      74B41354 
 214      9B09B93C 
 214      DB6498B5 
 215 0184 BCA1E367 		.ascii	"\274\241\343g\277\031O\234\022\376\234\001_\305\030"
 215      BF194F9C 
 215      12FE9C01 
 215      5FC518
 216 0193 4978079E 		.ascii	"Ix\007\236>Z\230d\347\251\375\025\314\303/\030\320\200"
 216      3E5A9864 
 216      E7A9FD15 
 216      CCC32F18 
 216      D080
 217 01a5 600492B0 		.ascii	"`\004\222\260\333\243\367\217\335\247\006P4\270\245"
 217      DBA3F78F 
 217      DDA70650 
 217      34B8A5
 218 01b4 96EED2B2 		.ascii	"\226\356\322\262\303\357\360'\364\246\000=t=\253iR\210"
 218      C3EFF027 
 218      F4A6003D 
 218      743DAB69 
 218      5288
 219 01c6 2D7802EB 		.ascii	"-x\002\3539X\242\301\203\271cS}\026\250F\222\334N&n"
 219      3958A2C1 
 219      83B96353 
 219      7D16A846 
 219      92DC4E26 
 220 01db C804AA30 		.ascii	"\310\004\2520\205\2003\201:\273j\327\014\026\250\335"
 220      85803381 
ARM GAS  /tmp/ccDhhCX2.s 			page 17


 220      3ABB6AD7 
 220      0C16A8DD 
 221 01eb 2C504382 		.ascii	",PC\202E\304\363\002\352\\\273Y\213x;\003z\327a\216"
 221      45C4F302 
 221      EA5CBB59 
 221      8B783B03 
 221      7AD7618E 
 222 01ff 3836451C 		.ascii	"86E\034\033#\300^\363\316\2601\207\362\031+\341%\216"
 222      1B23C05E 
 222      F3CEB031 
 222      87F2192B 
 222      E1258E
 223 0212 B48280D6 		.ascii	"\264\202\200\326\232\314?\201\266\022\262>\371\365\345"
 223      9ACC3F81 
 223      B612B23E 
 223      F9F5E5
 224 0221 6E4C4A58 		.ascii	"nLJX\244\004\364!\033\323\212'[F\230\015\342zd\343\253"
 224      A404F421 
 224      1BD38A27 
 224      5B46980D 
 224      E27A64E3 
 225 0236 135311FA 		.ascii	"\023S\021\372\304\254e\010\2066\012\332\223h;%\264\263"
 225      C4AC6508 
 225      86360ADA 
 225      93683B25 
 225      B4B3
 226 0248 F785055A 		.ascii	"\367\205\005Z\231\240,\266\370\014\366aA?m\255d\023"
 226      99A02CB6 
 226      F80CF661 
 226      413F6DAD 
 226      6413
 227 025a 078E1735 		.ascii	"\007\216\0275/O\016\017\267x\015\325\252\241\332\345"
 227      2F4F0E0F 
 227      B7780DD5 
 227      AAA1DAE5 
 228 026a C6418BDC 		.ascii	"\306A\213\3340\205h\203e\210H\277\177\001\037\275\037"
 228      30856883 
 228      658848BF 
 228      7F011FBD 
 228      1F
 229 027b DC917047 		.ascii	"\334\221pG\326\370\330L\324N\211{w\310r\242\235C@\316"
 229      D6F8D84C 
 229      D44E897B 
 229      77C872A2 
 229      9D4340CE 
 230 028f 7AF26078 		.ascii	"z\362`x\270\311i\26125\346S\367\367>;7\200\033AG\302"
 230      B8C969B1 
 230      3235E653 
 230      F7F73E3B 
 230      37801B41 
 231 02a5 5D8CAE16 		.ascii	"]\214\256\026\2479\017]\246<t\031s\313\345\311th\001"
 231      A7390F5D 
 231      A63C7419 
 231      73CBE5C9 
 231      746801
 232 02b8 3E625F80 		.ascii	">b_\200G\355\013p,Z\223\3618]D\011\333\"\222\360\036"
 232      47ED0B70 
ARM GAS  /tmp/ccDhhCX2.s 			page 18


 232      2C5A93F1 
 232      385D4409 
 232      DB2292F0 
 233 02cd 3C2D77A2 		.ascii	"<-w\242\333y\322\215\307\352\346\224\366\247K\313E\023"
 233      DB79D28D 
 233      C7EAE694 
 233      F6A74BCB 
 233      4513
 234 02df F13B9C96 		.ascii	"\361;\234\226\265q\354\323\315\223H\\0\220\177$\237"
 234      B571ECD3 
 234      CD93485C 
 234      30907F24 
 234      9F
 235 02f0 E2382C2F 		.ascii	"\3428,/\320<\020\320.\006m\257\305\374\344j\267\251"
 235      D03C10D0 
 235      2E066DAF 
 235      C5FCE46A 
 235      B7A9
 236 0302 9A46D29E 		.ascii	"\232F\322\236\034j]\272\232j$\207Y\252u\361T\263\323"
 236      1C6A5DBA 
 236      9A6A2487 
 236      59AA75F1 
 236      54B3D3
 237 0315 E2913961 		.ascii	"\342\2219a\231j}r7\351\033\036^[l*\251\256,%u&O\266"
 237      996A7D72 
 237      37E91B1E 
 237      5E5B6C2A 
 237      A9AE2C25 
 238 032d B525C00E 		.ascii	"\265%\300\016\345\334h\230j\267d\212\3341\225\350\351"
 238      E5DC6898 
 238      6AB7648A 
 238      DC3195E8 
 238      E9
 239 033e 7C586AA3 		.ascii	"|Xj\243\341\246\326%\374}\016\255s:\226~H\261$\341\236"
 239      E1A6D625 
 239      FC7D0EAD 
 239      733A967E 
 239      48B124E1 
 240 0353 1C6AD958 		.ascii	"\034j\331X\262\323\342Q\371q$K\361D\242e\325\011\233"
 240      B2D3E251 
 240      F971244B 
 240      F144A265 
 240      D5099B
 241 0366 0541C273 		.ascii	"\005A\302s\306\333\206\370\027#Q\006rJ\320:\212\342"
 241      C6DB86F8 
 241      17235106 
 241      724AD03A 
 241      8AE2
 242 0378 D52D2371 		.ascii	"\325-#q\234\002x\024\245\327\221\376_{&5\261e\344\022"
 242      9C027814 
 242      A5D791FE 
 242      5F7B2635 
 242      B165E412 
 243 038c 2E019C5E 		.ascii	".\001\234^\023\0239q\250#\275\240\252)1T\222\330t\274"
 243      13133971 
 243      A823BDA0 
 243      AA293154 
ARM GAS  /tmp/ccDhhCX2.s 			page 19


 243      92D874BC 
 244 03a0 881E6EE8 		.ascii	"\210\036n\350sd\2003\264)(\016\016'\332V\266@=\036\305"
 244      73648033 
 244      B429280E 
 244      0E27DA56 
 244      B6403D1E 
 245 03b5 56FEC300 		.ascii	"V\376\303\000\2543M\322\246\213Y\336\364\203\267\026"
 245      AC334DD2 
 245      A68B59DE 
 245      F483B716 
 246 03c5 1E1A8749 		.ascii	"\036\032\207I\370wF\350\037f/\007%\257\3664\267\217"
 246      F87746E8 
 246      1F662F07 
 246      25AFF634 
 246      B78F
 247 03d7 43278B9A 		.ascii	"C'\213\232%S\366\323U\321\216\232\2772\331/\240\177"
 247      2553F6D3 
 247      55D18E9A 
 247      BF32D92F 
 247      A07F
 248 03e9 584CA921 		.ascii	"XL\251!\253\341\274\2535>\300`\234\264\023\342q\233"
 248      ABE1BCAB 
 248      353EC060 
 248      9CB413E2 
 248      719B
 249 03fb 8C9FC962 		.ascii	"\214\237\311b\274Oo|\205k\264\306\2759\215o\311b| c"
 249      BC4F6F7C 
 249      856BB4C6 
 249      BD398D6F 
 249      C9627C20 
 250 0410 5CDBE873 		.ascii	"\\\333\350s\032/\034\335\314\017f1~[o\374\320\250\215"
 250      1A2F1CDD 
 250      CC0F6631 
 250      7E5B6FFC 
 250      D0A88D
 251 0423 7B4DE4A7 		.ascii	"{M\344\247\262B\302\177\342)p\275\301\2567\331\365\026"
 251      B242C27F 
 251      E22970BD 
 251      C1AE37D9 
 251      F516
 252 0435 5CD3CDCE 		.ascii	"\\\323\315\316\237kz&\336cL\364\376\3274H\264\303\371"
 252      9F6B7A26 
 252      DE634CF4 
 252      FED73448 
 252      B4C3F9
 253 0448 48D2162D 		.ascii	"H\322\026-\001}0j0\013ZS\333\322G\371\200\345\242)\005"
 253      017D306A 
 253      300B5A53 
 253      DBD247F9 
 253      80E5A229 
 254 045d B671D460 		.ascii	"\266q\324`Y<\333\224\017X\261\205gVM\277PI\370\012;"
 254      593CDB94 
 254      0F58B185 
 254      67564DBF 
 254      5049F80A 
 255 0472 875C6564 		.ascii	"\207\\ed\336a\327{\354:\310\256C\371\320\233\314\320"
 255      DE61D77B 
ARM GAS  /tmp/ccDhhCX2.s 			page 20


 255      EC3AC8AE 
 255      43F9D09B 
 255      CCD0
 256 0484 9BDEE0F8 		.ascii	"\233\336\340\370\276g\336\360rl\200\333\\\226G\225+"
 256      BE67DEF0 
 256      726C80DB 
 256      5C964795 
 256      2B
 257 0495 03DD4EF8 		.ascii	"\003\335N\370\025\353\324L\011\250\215\015\273h\273"
 257      15EBD44C 
 257      09A88D0D 
 257      BB68BB
 258 04a4 3325B1E9 		.ascii	"3%\261\351\264\242\355\203wY%\330\253\351\366\301D\333"
 258      B4A2ED83 
 258      775925D8 
 258      ABE9F6C1 
 258      44DB
 259 04b6 AA4DDAE9 		.ascii	"\252M\332\351H\333\013\357\347Pe\323\341\026[2[\350"
 259      48DB0BEF 
 259      E75065D3 
 259      E1165B32 
 259      5BE8
 260 04c8 837CD452 		.ascii	"\203|\324Rgj\330\377\232\342\230\270\331f\207\270\236"
 260      676AD8FF 
 260      9AE298B8 
 260      D96687B8 
 260      9E
 261 04d9 81B74661 		.ascii	"\201\267Fa\304\266\231\334\223\274p\375n#^\327\024g"
 261      C4B699DC 
 261      93BC70FD 
 261      6E235ED7 
 261      1467
 262 04eb 479C479A 		.ascii	"G\234G\232H|\206i\357\204S\301H\363\214\011\001\355"
 262      487C8669 
 262      EF8453C1 
 262      48F38C09 
 262      01ED
 263 04fd A47F20A4 		.ascii	"\244\177 \244n\332\340\2063\364\030\372\312\275\211"
 263      6EDAE086 
 263      33F418FA 
 263      CABD89
 264 050c 149A3367 		.ascii	"\024\2323g\215`{(\222\360<K\312M\024w\270\365\024s\303"
 264      8D607B28 
 264      92F03C4B 
 264      CA4D1477 
 264      B8F51473 
 265 0521 47F55E7C 		.ascii	"G\365^|\353\266\372K!\335\246\242V\322\323\223\274r"
 265      EBB6FA4B 
 265      21DDA6A2 
 265      56D2D393 
 265      BC72
 266 0533 BDC7B99C 		.ascii	"\275\307\271\234\376\263A\317\013\030f\365\033K\352"
 266      FEB341CF 
 266      0B1866F5 
 266      1B4BEA
 267 0542 BF59C429 		.ascii	"\277Y\304)\274\345&\210\370\020\332\312\321^\262:\361"
 267      BCE52688 
ARM GAS  /tmp/ccDhhCX2.s 			page 21


 267      F810DACA 
 267      D15EB23A 
 267      F1
 268 0553 5C4A93AE 		.ascii	"\\J\223\256mo\243\373\004\316\356{\261\266ui\247M\246"
 268      6D6FA3FB 
 268      04CEEE7B 
 268      B1B67569 
 268      A74DA6
 269 0566 7423F3F6 		.ascii	"t#\363\366\014\326\366\026\355\224\303\336\336\314\274"
 269      0CD6F616 
 269      ED94C3DE 
 269      DECCBC
 270 0575 EDC7DAE2 		.ascii	"\355\307\332\342\257\375\372cooe\336\016bmu\326~2\261"
 270      AFFDFA63 
 270      6F6F65DE 
 270      0E626D75 
 270      D67E32B1 
 271 0589 E6452D94 		.ascii	"\346E-\224\374}\307\211\327\233\246\276UO=\037q~%\021"
 271      FC7DC789 
 271      D79BA6BE 
 271      554F3D1F 
 271      717E2511 
 272 059d 84F4880E 		.ascii	"\204\364\210\016\375\010\323\336@Y\262+\326Va\254\011"
 272      FD08D3DE 
 272      4059B22B 
 272      D65661AC 
 272      09
 273 05ae F7E7E5C5 		.ascii	"\367\347\345\3058\015{\304\302p\263\301\360iCV\316("
 273      380D7BC4 
 273      C270B3C1 
 273      F0694356 
 273      CE28
 274 05c0 2B132B03 		.ascii	"+\023+\003\301\232\340\242\305bD\021\003R\275X\037\254"
 274      C19AE0A2 
 274      C5624411 
 274      0352BD58 
 274      1FAC
 275 05d2 11153526 		.ascii	"\021\0255&K!E\014\311!\336-\363\241\331\306\2611U\214"
 275      4B21450C 
 275      C921DE2D 
 275      F3A1D9C6 
 275      B131558C 
 276 05e6 4662AA22 		.ascii	"Fb\252\"\316{\261\252\262\352M\321\027\011E\203\365"
 276      CE7BB1AA 
 276      B2EA4DD1 
 276      17094583 
 276      F5
 277 05f7 724C11E7 		.ascii	"rL\021\347WV\212\276\200\272,*+e\001\344\012)u\325\252"
 277      57568ABE 
 277      80BA2C2A 
 277      2B6501E4 
 277      0A2975D5 
 278 060c 7BFEC225 		.ascii	"{\376\302%\336J\244\210\341Z&\317\210\201HH\026c\262"
 278      DE4AA488 
 278      E15A26CF 
 278      88814848 
 278      1663B2
ARM GAS  /tmp/ccDhhCX2.s 			page 22


 279 061f 224B315F 		.ascii	"\"K1_\000,\307\374K\245\230,J\261\320,\261\316\347+"
 279      002CC7FC 
 279      4BA5982C 
 279      4AB1D02C 
 279      B1CEE72B 
 280 0633 854EA91C 		.ascii	"\205N\251\034\252\221\375~\331\237~\020\216\204\345"
 280      AA91FD7E 
 280      D99F7E10 
 280      8E84E5
 281 0642 5259AA09 		.ascii	"RY\252\011\226\226WW\224\316zjf\371\353\263D\303\013"
 281      96965757 
 281      94CE7A6A 
 281      66F9EBB3 
 281      44C30B
 282 0655 3118F6D5 		.ascii	"1\030\366\3257\370e\230\203?\030V\301\201\002\370zz"
 282      37F86598 
 282      833F1856 
 282      C18102F8 
 282      7A7A
 283 0667 56B5DA84 		.ascii	"V\265\332\204\037\236\361\220\344\013\004\303\262X\355"
 283      1F9EF190 
 283      E40B04C3 
 283      B258ED
 284 0676 976BA586 		.ascii	"\227k\245\206z\265:\025\015Ou5w\247\240\001:\025\325"
 284      7AB53A15 
 284      0D4F7535 
 284      77A7A001 
 284      3A15D5
 285 0689 2A3CE13D 		.ascii	"*<\341=G\264A\025\202Q\\\343\250\223\325\345\377\213"
 285      47B44115 
 285      82515CE3 
 285      A893D5E5 
 285      FF8B
 286 069b B7945C18 		.ascii	"\267\224\\\030`\362\272\274\254\242\254\\\0378\360\032"
 286      60F2BABC 
 286      ACA2AC5C 
 286      1F38F01A 
 287 06ab 7C752BC1 		.ascii	"|u+\301\267d\240ni,\250\312\212P\023\305a\027$\203_"
 287      B764A06E 
 287      692CA8CA 
 287      8A5013C5 
 287      61172483 
 288 06c0 C93F6B02 		.ascii	"\311?k\002\250\250J\016Eb\313\026\263\007\364F\353\275"
 288      A8A84A0E 
 288      4562CB16 
 288      B307F446 
 288      EBBD
 289 06d2 5CF5928B 		.ascii	"\\\365\222\213\341:)\242\343\215\220\352\256i\250\255"
 289      E13A29A2 
 289      E38D90EA 
 289      AE69A8AD 
 290 06e2 95634E6A 		.ascii	"\225cNj\324!G\024w\244\266V\221\325\242\220\262\250"
 290      D4214714 
 290      77A4B656 
 290      91D5A290 
 290      B2A8
 291 06f4 E635D9A7 		.ascii	"\3465\331\247>\037\016\252\216\220\022}\250)\024\013"
ARM GAS  /tmp/ccDhhCX2.s 			page 23


 291      3E1F0EAA 
 291      8E90127D 
 291      A829140B 
 292 0704 86EB680A 		.ascii	"\206\353h\012\301\273pC}}Am\330\253De\037\236\351\206"
 292      C1BB7043 
 292      7D7D416D 
 292      D8AB4465 
 292      1F9EE986 
 293 0718 49FAA2CB 		.ascii	"I\372\242\313\340\205\032\210E\226:\353e\251\366_\203"
 293      E0851A88 
 293      45963AEB 
 293      65A9F65F 
 293      83
 294 0729 11CA2F   		.ascii	"\021\312/"
 295              		.text
 296              		.section	.gnu.lto_.symtab.55bd48482f2a07cb,"",%progbits
 297 0000 6D734F62 		.ascii	"msObjectInit\000\000\000\000\000\000\000\000\000\000"
 297      6A656374 
 297      496E6974 
 297      00000000 
 297      00000000 
 298 0016 0000DD00 		.ascii	"\000\000\335\000\000\000"
 298      0000
 299              		.text
 300              		.section	.gnu.lto_.opts,"",%progbits
 301 0000 272D6D63 		.ascii	"'-mcpu=cortex-m4' '-mno-thumb-interwork' '-mthumb' "
 301      70753D63 
 301      6F727465 
 301      782D6D34 
 301      2720272D 
 302 0033 272D6767 		.ascii	"'-ggdb' '-O0' '-fomit-frame-pointer' '-falign-funct"
 302      64622720 
 302      272D4F30 
 302      2720272D 
 302      666F6D69 
 303 0066 696F6E73 		.ascii	"ions=16' '-ffunction-sections' '-fdata-sections' '-"
 303      3D313627 
 303      20272D66 
 303      66756E63 
 303      74696F6E 
 304 0099 666E6F2D 		.ascii	"fno-common' '-flto'\000"
 304      636F6D6D 
 304      6F6E2720 
 304      272D666C 
 304      746F2700 
 305              		.text
 306              		.cfi_sections	.debug_frame
 307              		.section	.text.writes,"ax",%progbits
 308              		.align	2
 309              		.p2align 4,,15
 310              		.thumb
 311              		.thumb_func
 312              		.type	writes, %function
 313              	writes:
 314              	.LFB272:
 315              		.file 1 "../ChibiOS/os/hal/lib/streams/memstreams.c"
 316              		.loc 1 46 0
ARM GAS  /tmp/ccDhhCX2.s 			page 24


 317              		.cfi_startproc
 318              		@ args = 0, pretend = 0, frame = 24
 319              		@ frame_needed = 0, uses_anonymous_args = 0
 320 0000 00B5     		push	{lr}
 321              		.cfi_def_cfa_offset 4
 322              		.cfi_offset 14, -4
 323 0002 87B0     		sub	sp, sp, #28
 324              		.cfi_def_cfa_offset 32
 325 0004 0390     		str	r0, [sp, #12]
 326 0006 0291     		str	r1, [sp, #8]
 327 0008 0192     		str	r2, [sp, #4]
 328              		.loc 1 47 0
 329 000a 039B     		ldr	r3, [sp, #12]
 330 000c 0593     		str	r3, [sp, #20]
 331              		.loc 1 49 0
 332 000e 059B     		ldr	r3, [sp, #20]
 333 0010 9A68     		ldr	r2, [r3, #8]
 334 0012 059B     		ldr	r3, [sp, #20]
 335 0014 DB68     		ldr	r3, [r3, #12]
 336 0016 D21A     		subs	r2, r2, r3
 337 0018 019B     		ldr	r3, [sp, #4]
 338 001a 9A42     		cmp	r2, r3
 339 001c 05D2     		bcs	.L2
 340              		.loc 1 50 0
 341 001e 059B     		ldr	r3, [sp, #20]
 342 0020 9A68     		ldr	r2, [r3, #8]
 343 0022 059B     		ldr	r3, [sp, #20]
 344 0024 DB68     		ldr	r3, [r3, #12]
 345 0026 D31A     		subs	r3, r2, r3
 346 0028 0193     		str	r3, [sp, #4]
 347              	.L2:
 348              		.loc 1 51 0
 349 002a 059B     		ldr	r3, [sp, #20]
 350 002c 5A68     		ldr	r2, [r3, #4]
 351 002e 059B     		ldr	r3, [sp, #20]
 352 0030 DB68     		ldr	r3, [r3, #12]
 353 0032 1344     		add	r3, r3, r2
 354 0034 1846     		mov	r0, r3
 355 0036 0299     		ldr	r1, [sp, #8]
 356 0038 019A     		ldr	r2, [sp, #4]
 357 003a FFF7FEFF 		bl	memcpy
 358              		.loc 1 52 0
 359 003e 059B     		ldr	r3, [sp, #20]
 360 0040 DA68     		ldr	r2, [r3, #12]
 361 0042 019B     		ldr	r3, [sp, #4]
 362 0044 1A44     		add	r2, r2, r3
 363 0046 059B     		ldr	r3, [sp, #20]
 364 0048 DA60     		str	r2, [r3, #12]
 365              		.loc 1 53 0
 366 004a 019B     		ldr	r3, [sp, #4]
 367              		.loc 1 54 0
 368 004c 1846     		mov	r0, r3
 369 004e 07B0     		add	sp, sp, #28
 370              		@ sp needed
 371 0050 5DF804FB 		ldr	pc, [sp], #4
 372              		.cfi_endproc
 373              	.LFE272:
ARM GAS  /tmp/ccDhhCX2.s 			page 25


 374              		.size	writes, .-writes
 375 0054 AFF30080 		.section	.text.reads,"ax",%progbits
 375      AFF30080 
 375      AFF30080 
 376              		.align	2
 377              		.p2align 4,,15
 378              		.thumb
 379              		.thumb_func
 380              		.type	reads, %function
 381              	reads:
 382              	.LFB273:
 383              		.loc 1 56 0
 384              		.cfi_startproc
 385              		@ args = 0, pretend = 0, frame = 24
 386              		@ frame_needed = 0, uses_anonymous_args = 0
 387 0000 00B5     		push	{lr}
 388              		.cfi_def_cfa_offset 4
 389              		.cfi_offset 14, -4
 390 0002 87B0     		sub	sp, sp, #28
 391              		.cfi_def_cfa_offset 32
 392 0004 0390     		str	r0, [sp, #12]
 393 0006 0291     		str	r1, [sp, #8]
 394 0008 0192     		str	r2, [sp, #4]
 395              		.loc 1 57 0
 396 000a 039B     		ldr	r3, [sp, #12]
 397 000c 0593     		str	r3, [sp, #20]
 398              		.loc 1 59 0
 399 000e 059B     		ldr	r3, [sp, #20]
 400 0010 DA68     		ldr	r2, [r3, #12]
 401 0012 059B     		ldr	r3, [sp, #20]
 402 0014 1B69     		ldr	r3, [r3, #16]
 403 0016 D21A     		subs	r2, r2, r3
 404 0018 019B     		ldr	r3, [sp, #4]
 405 001a 9A42     		cmp	r2, r3
 406 001c 05D2     		bcs	.L5
 407              		.loc 1 60 0
 408 001e 059B     		ldr	r3, [sp, #20]
 409 0020 DA68     		ldr	r2, [r3, #12]
 410 0022 059B     		ldr	r3, [sp, #20]
 411 0024 1B69     		ldr	r3, [r3, #16]
 412 0026 D31A     		subs	r3, r2, r3
 413 0028 0193     		str	r3, [sp, #4]
 414              	.L5:
 415              		.loc 1 61 0
 416 002a 059B     		ldr	r3, [sp, #20]
 417 002c 5A68     		ldr	r2, [r3, #4]
 418 002e 059B     		ldr	r3, [sp, #20]
 419 0030 1B69     		ldr	r3, [r3, #16]
 420 0032 1344     		add	r3, r3, r2
 421 0034 0298     		ldr	r0, [sp, #8]
 422 0036 1946     		mov	r1, r3
 423 0038 019A     		ldr	r2, [sp, #4]
 424 003a FFF7FEFF 		bl	memcpy
 425              		.loc 1 62 0
 426 003e 059B     		ldr	r3, [sp, #20]
 427 0040 1A69     		ldr	r2, [r3, #16]
 428 0042 019B     		ldr	r3, [sp, #4]
ARM GAS  /tmp/ccDhhCX2.s 			page 26


 429 0044 1A44     		add	r2, r2, r3
 430 0046 059B     		ldr	r3, [sp, #20]
 431 0048 1A61     		str	r2, [r3, #16]
 432              		.loc 1 63 0
 433 004a 019B     		ldr	r3, [sp, #4]
 434              		.loc 1 64 0
 435 004c 1846     		mov	r0, r3
 436 004e 07B0     		add	sp, sp, #28
 437              		@ sp needed
 438 0050 5DF804FB 		ldr	pc, [sp], #4
 439              		.cfi_endproc
 440              	.LFE273:
 441              		.size	reads, .-reads
 442 0054 AFF30080 		.section	.text.put,"ax",%progbits
 442      AFF30080 
 442      AFF30080 
 443              		.align	2
 444              		.p2align 4,,15
 445              		.thumb
 446              		.thumb_func
 447              		.type	put, %function
 448              	put:
 449              	.LFB274:
 450              		.loc 1 66 0
 451              		.cfi_startproc
 452              		@ args = 0, pretend = 0, frame = 16
 453              		@ frame_needed = 0, uses_anonymous_args = 0
 454              		@ link register save eliminated.
 455 0000 84B0     		sub	sp, sp, #16
 456              		.cfi_def_cfa_offset 16
 457 0002 0190     		str	r0, [sp, #4]
 458 0004 0B46     		mov	r3, r1
 459 0006 8DF80330 		strb	r3, [sp, #3]
 460              		.loc 1 67 0
 461 000a 019B     		ldr	r3, [sp, #4]
 462 000c 0393     		str	r3, [sp, #12]
 463              		.loc 1 69 0
 464 000e 039B     		ldr	r3, [sp, #12]
 465 0010 9A68     		ldr	r2, [r3, #8]
 466 0012 039B     		ldr	r3, [sp, #12]
 467 0014 DB68     		ldr	r3, [r3, #12]
 468 0016 9A42     		cmp	r2, r3
 469 0018 02D1     		bne	.L8
 470              		.loc 1 70 0
 471 001a 6FF00103 		mvn	r3, #1
 472 001e 0DE0     		b	.L9
 473              	.L8:
 474              		.loc 1 71 0
 475 0020 039B     		ldr	r3, [sp, #12]
 476 0022 5A68     		ldr	r2, [r3, #4]
 477 0024 039B     		ldr	r3, [sp, #12]
 478 0026 DB68     		ldr	r3, [r3, #12]
 479 0028 1344     		add	r3, r3, r2
 480 002a 9DF80320 		ldrb	r2, [sp, #3]
 481 002e 1A70     		strb	r2, [r3]
 482              		.loc 1 72 0
 483 0030 039B     		ldr	r3, [sp, #12]
ARM GAS  /tmp/ccDhhCX2.s 			page 27


 484 0032 DB68     		ldr	r3, [r3, #12]
 485 0034 5A1C     		adds	r2, r3, #1
 486 0036 039B     		ldr	r3, [sp, #12]
 487 0038 DA60     		str	r2, [r3, #12]
 488              		.loc 1 73 0
 489 003a 0023     		movs	r3, #0
 490              	.L9:
 491              		.loc 1 74 0
 492 003c 1846     		mov	r0, r3
 493 003e 04B0     		add	sp, sp, #16
 494              		@ sp needed
 495 0040 7047     		bx	lr
 496              		.cfi_endproc
 497              	.LFE274:
 498              		.size	put, .-put
 499 0042 00BFAFF3 		.section	.text.get,"ax",%progbits
 499      0080AFF3 
 499      0080AFF3 
 499      0080
 500              		.align	2
 501              		.p2align 4,,15
 502              		.thumb
 503              		.thumb_func
 504              		.type	get, %function
 505              	get:
 506              	.LFB275:
 507              		.loc 1 76 0
 508              		.cfi_startproc
 509              		@ args = 0, pretend = 0, frame = 16
 510              		@ frame_needed = 0, uses_anonymous_args = 0
 511              		@ link register save eliminated.
 512 0000 84B0     		sub	sp, sp, #16
 513              		.cfi_def_cfa_offset 16
 514 0002 0190     		str	r0, [sp, #4]
 515              		.loc 1 78 0
 516 0004 019B     		ldr	r3, [sp, #4]
 517 0006 0393     		str	r3, [sp, #12]
 518              		.loc 1 80 0
 519 0008 039B     		ldr	r3, [sp, #12]
 520 000a DA68     		ldr	r2, [r3, #12]
 521 000c 039B     		ldr	r3, [sp, #12]
 522 000e 1B69     		ldr	r3, [r3, #16]
 523 0010 9A42     		cmp	r2, r3
 524 0012 02D1     		bne	.L11
 525              		.loc 1 81 0
 526 0014 6FF00103 		mvn	r3, #1
 527 0018 0EE0     		b	.L12
 528              	.L11:
 529              		.loc 1 82 0
 530 001a 039B     		ldr	r3, [sp, #12]
 531 001c 5A68     		ldr	r2, [r3, #4]
 532 001e 039B     		ldr	r3, [sp, #12]
 533 0020 1B69     		ldr	r3, [r3, #16]
 534 0022 1344     		add	r3, r3, r2
 535 0024 1B78     		ldrb	r3, [r3]
 536 0026 8DF80B30 		strb	r3, [sp, #11]
 537              		.loc 1 83 0
ARM GAS  /tmp/ccDhhCX2.s 			page 28


 538 002a 039B     		ldr	r3, [sp, #12]
 539 002c 1B69     		ldr	r3, [r3, #16]
 540 002e 5A1C     		adds	r2, r3, #1
 541 0030 039B     		ldr	r3, [sp, #12]
 542 0032 1A61     		str	r2, [r3, #16]
 543              		.loc 1 84 0
 544 0034 9DF80B30 		ldrb	r3, [sp, #11]	@ zero_extendqisi2
 545              	.L12:
 546              		.loc 1 85 0
 547 0038 1846     		mov	r0, r3
 548 003a 04B0     		add	sp, sp, #16
 549              		@ sp needed
 550 003c 7047     		bx	lr
 551              		.cfi_endproc
 552              	.LFE275:
 553              		.size	get, .-get
 554 003e 00BF     		.section	.rodata.vmt,"a",%progbits
 555              		.align	2
 556              		.type	vmt, %object
 557              		.size	vmt, 16
 558              	vmt:
 559 0000 00000000 		.word	writes
 560 0004 00000000 		.word	reads
 561 0008 00000000 		.word	put
 562 000c 00000000 		.word	get
 563              		.section	.text.msObjectInit,"ax",%progbits
 564              		.align	2
 565              		.p2align 4,,15
 566              		.global	msObjectInit
 567              		.thumb
 568              		.thumb_func
 569              		.type	msObjectInit, %function
 570              	msObjectInit:
 571              	.LFB276:
 572              		.loc 1 104 0
 573              		.cfi_startproc
 574              		@ args = 0, pretend = 0, frame = 16
 575              		@ frame_needed = 0, uses_anonymous_args = 0
 576              		@ link register save eliminated.
 577 0000 84B0     		sub	sp, sp, #16
 578              		.cfi_def_cfa_offset 16
 579 0002 0390     		str	r0, [sp, #12]
 580 0004 0291     		str	r1, [sp, #8]
 581 0006 0192     		str	r2, [sp, #4]
 582 0008 0093     		str	r3, [sp]
 583              		.loc 1 106 0
 584 000a 039B     		ldr	r3, [sp, #12]
 585 000c 074A     		ldr	r2, .L14
 586 000e 1A60     		str	r2, [r3]
 587              		.loc 1 107 0
 588 0010 039B     		ldr	r3, [sp, #12]
 589 0012 029A     		ldr	r2, [sp, #8]
 590 0014 5A60     		str	r2, [r3, #4]
 591              		.loc 1 108 0
 592 0016 039B     		ldr	r3, [sp, #12]
 593 0018 019A     		ldr	r2, [sp, #4]
 594 001a 9A60     		str	r2, [r3, #8]
ARM GAS  /tmp/ccDhhCX2.s 			page 29


 595              		.loc 1 109 0
 596 001c 039B     		ldr	r3, [sp, #12]
 597 001e 009A     		ldr	r2, [sp]
 598 0020 DA60     		str	r2, [r3, #12]
 599              		.loc 1 110 0
 600 0022 039B     		ldr	r3, [sp, #12]
 601 0024 0022     		movs	r2, #0
 602 0026 1A61     		str	r2, [r3, #16]
 603              		.loc 1 111 0
 604 0028 04B0     		add	sp, sp, #16
 605              		@ sp needed
 606 002a 7047     		bx	lr
 607              	.L15:
 608              		.align	2
 609              	.L14:
 610 002c 00000000 		.word	vmt
 611              		.cfi_endproc
 612              	.LFE276:
 613              		.size	msObjectInit, .-msObjectInit
 614              		.text
 615              	.Letext0:
 616              		.file 2 "/nfs/nfs5/home/research/hardware/arm2/gcc-arm-embedded/gcc-arm-none-eabi-4_8-2014q2/lib/g
 617              		.file 3 "/nfs/nfs5/home/research/hardware/arm2/gcc-arm-embedded/gcc-arm-none-eabi-4_8-2014q2/arm-n
 618              		.file 4 "/nfs/nfs5/home/research/hardware/arm2/gcc-arm-embedded/gcc-arm-none-eabi-4_8-2014q2/arm-n
 619              		.file 5 "../ChibiOS/os/rt/ports/ARMCMx/compilers/GCC/chtypes.h"
 620              		.file 6 "../ChibiOS/os/rt/include/chsystypes.h"
 621              		.file 7 "../ChibiOS/os/rt/include/chschd.h"
 622              		.file 8 "../ChibiOS/os/rt/ports/ARMCMx/chcore.h"
 623              		.file 9 "../ChibiOS/os/rt/ports/ARMCMx/chcore_v7m.h"
 624              		.file 10 "../ChibiOS/os/rt/include/chtm.h"
 625              		.file 11 "../ChibiOS/os/rt/include/chsem.h"
 626              		.file 12 "../ChibiOS/os/rt/include/chmtx.h"
 627              		.file 13 "../ChibiOS/os/hal/lib/streams/memstreams.h"
 628              		.file 14 "../ChibiOS/os/ext/CMSIS/include/core_cm4.h"