ARM GAS  /tmp/cc6LWnwc.s 			page 1


   1              		.syntax unified
   2              		.cpu cortex-m4
   3              		.fpu softvfp
   4              		.eabi_attribute 20, 1
   5              		.eabi_attribute 21, 1
   6              		.eabi_attribute 23, 3
   7              		.eabi_attribute 24, 1
   8              		.eabi_attribute 25, 1
   9              		.eabi_attribute 26, 1
  10              		.eabi_attribute 30, 6
  11              		.eabi_attribute 34, 1
  12              		.eabi_attribute 18, 4
  13              		.thumb
  14              		.file	"nvic.c"
  15              		.text
  16              	.Ltext0:
  17              		.section	.gnu.lto_.inline.9dfbe7f719fbd464,"",%progbits
  18 0000 789C6362 		.ascii	"x\234cb`b\300\006\274\2414\013\003\003/\017\003\003"
  18      6062C006 
  18      BCA1340B 
  18      03032F0F 
  18      0303
  19 0012 93D881DD 		.ascii	"\223\330\201\335\214@\016X1#\003\007;P\210gC.L\204\211"
  19      8C400E58 
  19      31230307 
  19      3B508867 
  19      432E4C84 
  20 0027 8115A890 		.ascii	"\201\025\250\220\211\355\200\035L\204\231\201\235\015"
  20      89ED801D 
  20      4C849981 
  20      9D0D
  21 0035 28C2F520 		.ascii	"(\302\365 \026&\302\000\000\364\373\005\276"
  21      1626C200 
  21      00F4FB05 
  21      BE
  22              		.text
  23              		.section	.gnu.lto_nvicEnableVector.9dfbe7f719fbd464,"",%progbits
  24 0000 789CCD93 		.ascii	"x\234\315\223=h\024A\024\307\337\233\375\270\275\333"
  24      3D681441 
  24      14C7DF9B 
  24      FDB8BDDB 
  25 0010 FBB0B0B0 		.ascii	"\373\260\260\2603\304Rr\033AHa!\222\312\"\0304\202\226"
  25      33C45272 
  25      1B414861 
  25      2192CA22 
  25      18348296 
  26 0024 77575C16 		.ascii	"wW\\\026\274;1\"Vf\316\275\"`#\021A\242\205\261\220"
  26      BC3B3122 
  26      5666CEBD 
  26      22602311 
  26      41A285B1 
  27 0039 43922856 		.ascii	"C\222(V\001A\217\024\022\221 \351\305\273B+A\202\225"
  27      01418F14 
  27      129120E9 
  27      C5BB422B 
  27      418295
  28 004c 85B0BE37 		.ascii	"\205\260\2767{;\271$\032V\0333\260\2633\373\177\377"
ARM GAS  /tmp/cc6LWnwc.s 			page 2


  28      7B3BB924 
  28      1A561B33 
  28      B0B333FB 
  28      7FFF
  29 005e F7DE6F76 		.ascii	"\367\336ovW\200\200\335\3430]s\026\300\030o\014@\212"
  29      578080DD 
  29      E3305D73 
  29      16C0186F 
  29      0C408A
  30 0071 4081481B 		.ascii	"@\201H\033\204Y\201\263\227y\011\271aX\224r\276\367"
  30      845981B3 
  30      977909B9 
  30      61589472 
  30      BEF7
  31 0083 A5FB7E11 		.ascii	"\245\373~\021\345\274ln\205a\301g\251\202p\011}\304"
  31      E5BC6C6E 
  31      8561C167 
  31      A9827009 
  31      7DC4
  32 0095 217513E6 		.ascii	"!u\023\346\316\354\221M\276\3718\371@\266:ax\332Gc\333"
  32      CEEC914D 
  32      BEF938F9 
  32      40B63A61 
  32      78DA4763 
  33 00aa E3441EFC 		.ascii	"\343D\036\374\255g\245-\215\307\362g\030\032\211=\235"
  33      AD67A52D 
  33      8DC7F267 
  33      181A893D 
  33      9D
  34 00bb 7B6FFFA9 		.ascii	"{o\377\251\275\315\317\223\353q{f\"\317]\331\035\360"
  34      BDCDCF93 
  34      EB717B66 
  34      22CF5DD9 
  34      1DF0
  35 00cd 58024631 		.ascii	"X\002F1\231\355e[\246c*+a{\203\036;\231\247s\377\277"
  35      99ED655B 
  35      A6632A2B 
  35      617B831E 
  35      3B99A773 
  36 00e3 9DC4C983 		.ascii	"\235\304\311\203r\022\317E\247\027\206\217>,|:\202\207"
  36      7212CF45 
  36      A717868F 
  36      3E2C7C3A 
  36      8287
  37 00f5 10E81004 		.ascii	"\020\350\020\004\326\220\276q\372\236L\236,\332R\032"
  37      D690BE71 
  37      FA9E4C9E 
  37      2CDA521A 
  38 0105 12523499 		.ascii	"\022R4\231\016\224\360)\016C\2326V\206&\333e-\313Z\216"
  38      0E94F029 
  38      0E439A36 
  38      568626DB 
  38      652DCB5A 
  39 011a B425D2F2 		.ascii	"\264%\322\362\254\025@U\007\013Z\0042\244\372\2401\245"
  39      AC154055 
  39      070B5A04 
  39      32A4FAA0 
ARM GAS  /tmp/cc6LWnwc.s 			page 3


  39      31A5
  40 012c E68BFC07 		.ascii	"\346\213\374\007\031\033p{\365G\327(\341\013b\253\""
  40      191B707B 
  40      F547D728 
  40      E10B62AB 
  40      22
  41 013d 727F20D7 		.ascii	"r\177 \327\002\231\247\020\022\277\006\267b\315\250"
  41      0299A710 
  41      12BF06B7 
  41      62CDA8
  42 014c B2630382 		.ascii	"\262c\003\202e\035n\322Sv\244L\025\275v6\022F`I\266"
  42      651D6ED2 
  42      5376A44C 
  42      15BD7636 
  42      12466049 
  43 0161 9A728C84 		.ascii	"\232r\214\204\343\360\214\227\364f\235\207\260@\241"
  43      E3F08C97 
  43      F4669D87 
  43      B040A1
  44 0170 E9B8881A 		.ascii	"\351\270\210\032\345\376\275\312'\333_\231\252\360j"
  44      E5FEBDCA 
  44      27DB5F99 
  44      AAF06A
  45 017f BB1C57B1 		.ascii	"\273\034W\261w5\025\254\004O0\026Sde\335\262\242\206"
  45      773515AC 
  45      044F3016 
  45      536465DD 
  45      B2A286
  46 0192 BF05AFB5 		.ascii	"\277\005\257\265\346\250\264dx\245;\246\362\216\012"
  46      E6A8B464 
  46      78A53BA6 
  46      F28E0A
  47 01a1 3F1AA55A 		.ascii	"?\032\245Z\016\276\353\360\014\0136r\224\242y\267\345"
  47      0EBEEBF0 
  47      0C0B3672 
  47      94A279B7 
  47      E5
  48 01b2 EEE039E5 		.ascii	"\356\3409\345cf\233\307\325<\366 \017\366)R\232'\023"
  48      63669BC7 
  48      D53CF620 
  48      0FF62952 
  48      9A2713
  49 01c5 F1AC6B1E 		.ascii	"\361\254k\036w?\236\354><\271\275<yz\372'\236\202\346"
  49      773F9EEC 
  49      3E3CB9BD 
  49      3C797AFA 
  49      279E82E6 
  50 01d9 C9FF158F 		.ascii	"\311\377\025\217;\310#\372\024Y\315S\000\330\204f\357"
  50      3BC823FA 
  50      1459CD53 
  50      00D88466 
  50      EF
  51 01ea CEB12859 		.ascii	"\316\261(Y<\246\030\235\243G\212Eo|\332/\373\347.x\215"
  51      3CA6189D 
  51      A3478A45 
  51      6F7CDA2F 
  51      FBE72E78 
ARM GAS  /tmp/cc6LWnwc.s 			page 4


  52 01ff 196FBA74 		.ascii	"\031o\272t\305\273\332\270v}\306\2534j\265F\335;s~b"
  52      C5BBDAB8 
  52      767DC6AB 
  52      346AB546 
  52      DD3B737E 
  53 0214 7CE2A657 		.ascii	"|\342\246W\277\341W\212\0250\352\305Q\272N\374\002\231"
  53      BFE1578A 
  53      1530EAC5 
  53      51BA4EFC 
  53      0299
  54 0226 73448B   		.ascii	"sD\213"
  55              		.text
  56              		.section	.gnu.lto_nvicDisableVector.9dfbe7f719fbd464,"",%progbits
  57 0000 789C8D52 		.ascii	"x\234\215R;K\003A\020\236\331{\031\005E\260\261R\264"
  57      3B4B0341 
  57      109ED97B 
  57      190545B0 
  57      B152B4
  58 0013 94E4440B 		.ascii	"\224\344D\013\005\013\221\324\242\370\000-\223\024\361"
  58      050B91D4 
  58      A2F8002D 
  58      9314F1
  59 0022 C424A222 		.ascii	"\304$\242\"vnr\021\304J\254D\033\037\215\004_h\023\020"
  59      766E7211 
  59      C44AAC44 
  59      1B1F8D04 
  59      5F681310 
  60 0036 24A41045 		.ascii	"$\244\020E,\362\013\014\"\330I\020Kq\235\275\344b\222"
  60      2CF20B0C 
  60      22D84910 
  60      4B719DBD 
  60      E46292
  61 0049 EA066E77 		.ascii	"\352\006nwv\276\357\233\231\235[\006\014\032\255\203"
  61      76BEEF9B 
  61      999D5B06 
  61      0C1AAD83 
  62 0059 BE6F0A0F 		.ascii	"\276o\012\017\312\203\002H.2D: l2\334\234\227.\350="
  62      CA830248 
  62      2E32443A 
  62      206C32DC 
  62      9C972EE8 
  63 006e 70CCF95E 		.ascii	"p\314\371^q\353#\333\271s\224\332\345\277B\240%\241"
  63      71EB23DB 
  63      B97394DA 
  63      E5BF42A0 
  63      25A1
  64 0080 08C21C79 		.ascii	"\010\302\034y\330\355lL\255\317^\226\361\302\373\344"
  64      D8ED6C4C 
  64      ADCF5E96 
  64      F1C2FBE4 
  65 0090 234FE784 		.ascii	"#O\347\204\030\265P\361\244\331\345\2575\032\225A?z"
  65      18B550F1 
  65      A4D9E5AF 
  65      351A9541 
  65      3F7A
  66 00a2 93DD9C71 		.ascii	"\223\335\234q\337\021\377\021B!\231\307\366j5\2327M"
  66      DF11FF11 
ARM GAS  /tmp/cc6LWnwc.s 			page 5


  66      422199C7 
  66      F66A359A 
  66      374D
  67 00b4 AEF0F07C 		.ascii	"\256\360\360|\214\244M\226\204h\3630\211+\226+\012q"
  67      8CA44D96 
  67      8468F330 
  67      892B962B 
  67      0A71
  68 00c6 7E7BFD96 		.ascii	"~{\375\226\301\366&\004\2220\214!\215\234F\242B\010"
  68      C1F62604 
  68      92308C21 
  68      8D9C46A2 
  68      4208
  69 00d8 4FB10734 		.ascii	"O\261\0074:\250:-\232\001NN\212\244\351V\335Nv\262\031"
  69      3AA83A2D 
  69      9A014E4E 
  69      8AA4E956 
  69      DD4E76B2 
  70 00ed 679D957F 		.ascii	"g\235\225\177Iy\201Tv\377c8\204g\324t\024QV\005\236"
  70      49798154 
  70      76FF6338 
  70      8467D474 
  70      14515605 
  71 0102 B7792B51 		.ascii	"\267y+Q^\300\276\264O\320\005\225(2\211\253\232\203"
  71      5EC0BEB4 
  71      4FD00595 
  71      283289AB 
  71      9A83
  72 0114 A53EEDFB 		.ascii	"\245>\355\373*\246Fe:\022\334)nH\243\250C\357*\247\272"
  72      2AA64665 
  72      3A12DC29 
  72      6E48A3A8 
  72      43EF2AA7 
  73 0129 B0BFAA74 		.ascii	"\260\277\252t]\002\032J\226\304\362O\245\2262\344\207"
  73      5D021A4A 
  73      96C4F24F 
  73      A59632E4 
  73      87
  74 013a 739E4EF2 		.ascii	"s\236N\362\021\013\365>\310H\227\346b\034\302\001\361"
  74      110BF53E 
  74      C84897E6 
  74      621CC201 
  74      F1
  75 014b 9BDCFE1C 		.ascii	"\233\334\376\034\013W\366\250|\014\025Ow\372\312n/\272"
  75      0B57F6A8 
  75      7C0C154F 
  75      77FACA6E 
  75      2FBA
  76 015d 758C86FB 		.ascii	"u\214\206\373\344\263%\243\256\320\220\205\276\377B"
  76      E4B325A3 
  76      AED09085 
  76      BEFF42
  77 016c CDD54246 		.ascii	"\315\325BFm!\254\244w\037\276\304|\322)@\262\230\351"
  77      6D21ACA4 
  77      771FBEC4 
  77      7CD22940 
  77      B298E9
ARM GAS  /tmp/cc6LWnwc.s 			page 6


  78 017f 2D27746D 		.ascii	"-'tmF\322%\323\037\010\230\301\005+lML\233\211Us!\264"
  78      46D225D3 
  78      1F0898C1 
  78      052B6C4D 
  78      4C9B8955 
  79 0196 642E2756 		.ascii	"d.'V\326V\315H\"\026K\304\315\261\251\361\340\370\206"
  79      D656CD48 
  79      22164BC4 
  79      CDB1A9F1 
  79      E0F886
  80 01a9 195FB722 		.ascii	"\031_\267\"\201\010(\361\300\300\037.\375\265\346"
  80      810828F1 
  80      C0C01F2E 
  80      FDB5E6
  81              		.text
  82              		.section	.gnu.lto_nvicSetSystemHandlerPriority.9dfbe7f719fbd464,"",%progbits
  83 0000 789C8D51 		.ascii	"x\234\215Q;H\003A\020\235\331\275\0136\332\213M\320"
  83      3B480341 
  83      109DD9BD 
  83      0B36DA8B 
  83      4DD0
  84 0012 5292B5B3 		.ascii	"R\222\265\263\024Ie\021\024\215\240erEr\340\345\304"
  84      14496511 
  84      148DA065 
  84      724572E0 
  84      E5C4
  85 0024 88D865F2 		.ascii	"\210\330e\362\261\021\213`\025\214E\004\013\321\250"
  85      B1118B60 
  85      158C4504 
  85      0BD1A8
  86 0033 A9D432D8 		.ascii	"\251\3242\330G\260U\213\364\332\245\025\327\331\273"
  86      47B0558B 
  86      F4DAA515 
  86      D7D9BB
  87 0042 5CA15838 		.ascii	"\\\241X8\2603\263\363\346\315\333\217\000\001\277m\212"
  87      B033B3F3 
  87      E6CDDB8F 
  87      0001BF6D 
  87      8A
  88 0053 D7150228 		.ascii	"\327\025\002(\263\261\000\271\003\005J\366\022\271\014"
  88      B3B100B9 
  88      03054AF6 
  88      12B90C
  89 0062 086521B1 		.ascii	"\010e!\261\274\211\001>\015gD\307\203\203aw\362\260"
  89      BC89013E 
  89      0D6744C7 
  89      83836177 
  89      F2B0
  90 0074 5D6DD097 		.ascii	"]m\320\227\326\350\032\310A\330\340\014\343A\020\326"
  90      D6E81AC8 
  90      41D8E00C 
  90      E34110D6 
  91 0084 4F919046 		.ascii	"O\221\220F\257o+M\252\367\264^p\215B\304\031\0139\370"
  91      AF6F2B4D 
  91      AAF7B45E 
  91      708D42C4 
  91      190B39F8 
ARM GAS  /tmp/cc6LWnwc.s 			page 7


  92 0098 27E7E682 		.ascii	"'\347\346\202d\233>\265\226\377\340x\010\267\2427\320"
  92      649B3EB5 
  92      96FFE078 
  92      08B7A237 
  92      D0
  93 00a9 BA73DF3D 		.ascii	"\272s\337=\372\300S\021C\340\343\011\364\220\311<\300"
  93      FAC05311 
  93      43E0E309 
  93      F490C93C 
  93      C0
  94 00ba 32CEE6AD 		.ascii	"2\316\346\255y\010\033\352D\215\2707:?[f\344\031\225"
  94      79081BEA 
  94      448DB837 
  94      3A3F5B66 
  94      E41995
  95 00cd EB464EF6 		.ascii	"\353FN\366\241\372\320\034\316e\361\034m\310#\032U\240"
  95      A1FAD01C 
  95      CE65F11C 
  95      6DC8231A 
  95      55A0
  96 00df 971A4D70 		.ascii	"\227\032Mp#\203\357\265;\214@\2317\304>\324\256eT\262"
  96      2383EFB5 
  96      3B8C4099 
  96      37C43ED4 
  96      AE6554B2 
  97 00f3 B86A2896 		.ascii	"\270j(\226\025\264?.\205@\002:T\257\320<\003\263pi\322"
  97      15B43F2E 
  97      8540023A 
  97      54AFD03C 
  97      03B37069 
  98 0108 7117ED16 		.ascii	"q\027\355\026\234pk,R\011,7\212yfE\031\317z\206\312"
  98      9C706B2C 
  98      52092C37 
  98      8A796645 
  98      19CF7A86 
  99 011d E069261C 		.ascii	"\340i&\034\026Y\306\374\227\271W\"\231T\251\202\233"
  99      1659C6FC 
  99      97B95722 
  99      9954A982 
  99      9B
 100 012e 7397D794 		.ascii	"s\227\327\224_R\205\354\226\332\366wvK\312\361=\317"
 100      5F5285EC 
 100      96DAF677 
 100      764BCAF1 
 100      3DCF
 101 0140 2FAAC5D5 		.ascii	"/\252\305\325t*\275\257\212{\256\223t\340\033\363\320"
 101      742ABDAF 
 101      8A7BAE93 
 101      74E01BF3 
 101      D0
 102 0151 6A67     		.ascii	"jg"
 103              		.text
 104              		.section	.gnu.lto_nvicClearPending.9dfbe7f719fbd464,"",%progbits
 105 0000 789C9552 		.ascii	"x\234\225R=HBQ\024>\347\276\367\264\226\"hiJl\014}\201"
 105      3D484251 
 105      143EE7BE 
 105      F7B49622 
ARM GAS  /tmp/cc6LWnwc.s 			page 8


 105      68694A6C 
 106 0017 4BD010E1 		.ascii	"K\320\020\341\324 E\031\324\250\016\317\007\251\221"
 106      D4204519 
 106      D4A80ECF 
 106      07A991
 107 0026 116D5E7F 		.ascii	"\021m^\177\246&\021Zj\261Z$\254\240Ir\021\247\026\007"
 107      A626115A 
 107      6AB15A24 
 107      ACA04972 
 107      11A71607 
 108 003a F7028902 		.ascii	"\367\002\211\002ih\013\033\242\327\271\367\371\244\232"
 108      69680B1B 
 108      A2D7B9F7 
 108      F9A49A
 109 0049 F4C0BBF7 		.ascii	"\364\300\273\367\234\357;\337w\177\336e\300\340\177"
 109      9CEF3BDF 
 109      777FDE65 
 109      C0E07F
 110 0058 4CD37742 		.ascii	"L\323wBp@\024\012 \245\310\020\251@\3100\314\354\210"
 110      7040140A 
 110      20A5C810 
 110      A940C830 
 110      CCEC88
 111 006b 145C5E38 		.ascii	"\024\\^8\347\274\324y\355\325f\216\313\271\"\377\266"
 111      E7BCD479 
 111      EDD5668E 
 111      CBB922FF 
 111      B6
 112 007c 2C340515 		.ascii	",4\005\025C\330\246\014=rb\352_w[\306\333/\353\017\274"
 112      43D8A60C 
 112      3D7262EA 
 112      5F775BC6 
 112      DB2FEB0F 
 113 0091 D0B0AC65 		.ascii	"\320\260\254e\023\225\2414E\376\361K\2432X\300\341d"
 113      1395A134 
 113      45FEF14B 
 113      A33258C0 
 113      E164
 114 00a3 77153E5E 		.ascii	"w\025>^\346_\226\245\220l\310\245F\327\224\370\323("
 114      E65F96A5 
 114      906CC8A5 
 114      46D794F8 
 114      D328
 115 00b5 47BA658D 		.ascii	"G\272e\215\216e=\326\253\317]\234\032C\240\233c\230"
 115      8E653DD6 
 115      ABCF5D9C 
 115      1A43A09B 
 115      6398
 116 00c7 40BA6F12 		.ascii	"@\272o\022\253\020\301K\364\202F\205\352\022\203\033"
 116      AB10C14B 
 116      F4824685 
 116      EA12831B 
 117 00d7 A4272105 		.ascii	"\244'!\005\332\236G\272S\204\345\270%~\221\322\202\\"
 117      DA9E47BA 
 117      5384E5B8 
 117      257E91D2 
 117      825C
ARM GAS  /tmp/cc6LWnwc.s 			page 9


 118 00e9 EDB3B718 		.ascii	"\355\263\267\030\301\012j` \212U\2017\363|\202ZZ\220"
 118      C10A6A60 
 118      208A5581 
 118      37F37C82 
 118      5A5A90
 119 00fc BFC95FA0 		.ascii	"\277\311_\240C*\0062\301\253\232\344r\357\371\267\001"
 119      432A0632 
 119      C1AB9AE4 
 119      72EFF9B7 
 119      01
 120 010d A71AC28E 		.ascii	"\247\032\302\216\004u\305\2014Be\373\254mu=`\\\022F"
 120      0475C581 
 120      344265FB 
 120      AC6D753D 
 120      605C1246 
 121 0121 D1D337BA 		.ascii	"\321\3237\272\037\030\271\211\026`s\325F|P\345\205,"
 121      1F18B989 
 121      166073D5 
 121      467C50E5 
 121      852C
 122 0133 5F32519B 		.ascii	"_2Q\233\207+\221N\232\350:\203S\262p;\033\226\021\355"
 122      872B914E 
 122      9AE83A83 
 122      53B2703B 
 122      1B9611ED 
 123 0147 CF863CB3 		.ascii	"\317\206<\263\235\271\001\332\220\355t\347l3'\302\342"
 123      9DB901DA 
 123      90ED74E7 
 123      6C3327C2 
 123      E2
 124 0158 618A37EC 		.ascii	"a\2127\354\363\373\365`\334\214\232k\233z*\255\307#"
 124      F3FBF560 
 124      DC8C9A6B 
 124      9B7A2AAD 
 124      C723
 125 016a BBFA5E6A 		.ascii	"\273\372^j\377 \255\307R\211D*\251\257l\204\202\241"
 125      FF20ADC7 
 125      5289442A 
 125      A9AF6C84 
 125      82A1
 126 017c 233D7968 		.ascii	"#=yh\306\3741P\222\376\300\017\001S\241$"
 126      C6FC3150 
 126      92FEC00F 
 126      0153A124 
 127              		.text
 128              		.section	.gnu.lto_.symbol_nodes.9dfbe7f719fbd464,"",%progbits
 129 0000 789C4DC7 		.ascii	"x\234M\307\261\025\000\020\020D\301\275\257/\255m*<"
 129      B1150010 
 129      1044C1BD 
 129      AF2FAD6D 
 129      2A3C
 130 0012 F425548F 		.ascii	"\364%T\217\304{L6\010U]$\226rI\366nA\307\361u`\276N"
 130      C47B4C36 
 130      08555D24 
 130      967249F6 
 130      6E41C7F1 
 131 002a 5C5E7500 		.ascii	"\\^u\000]\226\023\207"
ARM GAS  /tmp/cc6LWnwc.s 			page 10


 131      5D961387 
 132              		.text
 133              		.section	.gnu.lto_.refs.9dfbe7f719fbd464,"",%progbits
 134 0000 789C6362 		.ascii	"x\234cb`b`d\200\002\000\000F\000\006"
 134      60626064 
 134      80020000 
 134      460006
 135              		.text
 136              		.section	.gnu.lto_.decls.9dfbe7f719fbd464,"",%progbits
 137 0000 789CBD59 		.ascii	"x\234\275Yml\024\307\031\236\331\333\303\276\340\022"
 137      6D6C14C7 
 137      199ED9DB 
 137      C3BEE012 
 138 0010 12A529A9 		.ascii	"\022\245)\251\250\342DMU\245\265\317q@\270\177\"\314"
 138      A8E2444D 
 138      55A5B5CF 
 138      7140B87F 
 138      22CC
 139 0022 D9D4F7C3 		.ascii	"\331\324\367\303\211u\007(J$\216\345\274\304'\331w\344"
 139      89750728 
 139      4A248EE5 
 139      BCC427D9 
 139      77E4
 140 0034 7CB4E1DF 		.ascii	"|\264\341\337\270\016)-42`\220\213\2209'\266\032*H\220"
 140      B80E292D 
 140      34326090 
 140      8B903927 
 140      B61A2A48 
 141 0049 432C1B21 		.ascii	"C,\033!z\202*q\222*\030\224\257\032\344\\\2424\037\255"
 141      7A822A71 
 141      922A1894 
 141      AF1AE45C 
 141      A2341FAD 
 142 005d 6AD2360A 		.ascii	"j\3226\012*\205\\\337\231\375\232\331\273\261w\243\252"
 142      2A855CDF 
 142      99FD9AD9 
 142      BBB177A3 
 142      AA
 143 006e 2BCDBBB3 		.ascii	"+\315\273\263\2733\317<\317;\357\314\276{\247 \005\015"
 143      BB33CF3C 
 143      CF3BEFCC 
 143      BE7BA720 
 143      050D
 144 0080 62844A70 		.ascii	"b\204Jp<\366]\204.(\010\005\021B\017!\347P\241\214@"
 144      3CF65D84 
 144      2E280805 
 144      11420F21 
 144      E750A18C 
 145 0095 19873209 		.ascii	"\031\2072\011\345,*?\350\363\032(\347\240,3\353\000"
 145      E52C2A3F 
 145      E8F31A28 
 145      E7A02C33 
 145      EB00
 146 00a7 8BAACCFE 		.ascii	"\213\252\314\376\024\363\023(\177\201r\036\312\033P"
 146      14F31328 
 146      7F81721E 
 146      CA1B50
ARM GAS  /tmp/cc6LWnwc.s 			page 11


 147 00b6 5E871280 		.ascii	"^\207\022\200\3621\224Y(\323f\037\212\0054\320KPN\270"
 147      F2319459 
 147      28D3661F 
 147      8A0534D0 
 147      4B504EB8 
 148 00ca C6A11C96 		.ascii	"\306\241\034\226\272\306\341\307\260p\317s\343Q\254"
 148      BAC6E1C7 
 148      B070CF73 
 148      E351AC
 149 00d9 4BE638D8 		.ascii	"K\3468\330\304\240\347\011\027\366\244\211\365\225K"
 149      C4A0E709 
 149      17F6A489 
 149      F5954B
 150 00e8 03C5B905 		.ascii	"\003\305\271\005*\327\314\353\0206\316\223&\377F\270"
 150      2AD7CCEB 
 150      1036CE93 
 150      26FF46B8 
 151 00f8 3803E7D3 		.ascii	"8\003\347\323.<\352\247j\011W\236'6\365c\263\017=\027"
 151      2E3CEAA7 
 151      6A09579E 
 151      2736F563 
 151      B30F3D17 
 152 010c 5C5877A3 		.ascii	"\\Xw\243a\222/\024\307\206\337\304d?\271Q*\365\253\350"
 152      61922F14 
 152      C786DFC4 
 152      643FB951 
 152      2AF5ABE8 
 153 0120 4E7490C0 		.ascii	"Nt\220\300\221\177\206\020\234\323\360C\337F\217b\015"
 153      917F8610 
 153      9CD3F043 
 153      DF468F62 
 153      0D
 154 0131 2F0BA15A 		.ascii	"/\013\241ZV\251\011\261\221\020\322\360s\370NV\0130"
 154      56A909B1 
 154      9110D2F0 
 154      73F84E56 
 154      0B30
 155 0143 5FA010DA 		.ascii	"_\240\020\332M\310/h\307\266i V\251\327}h\224\220\201"
 155      4DC82F68 
 155      C7B66920 
 155      56A9D77D 
 155      68949081 
 156 0157 E2C5637B 		.ascii	"\342\305c{\177LH\265\206Gq\010\372\216b\214\356G\307"
 156      7F4C48B5 
 156      86477108 
 156      FA8E628C 
 156      EE47C7
 157 016a 60D00142 		.ascii	"`\320\001B\236[\243\240\362\303;\366\237\367\234\371"
 157      9E5BA3A0 
 157      F2C33BF6 
 157      9FF79CF9 
 158 017a 09C37E81 		.ascii	"\011\303~\201aO)\030\230\376\016\337o\002i\270*\304"
 158      614F2918 
 158      98FE0EDF 
 158      6F0269B8 
 158      2AC4
 159 018c 03B36BAB 		.ascii	"\003\263k\253\001Ec\217\315\012\015\337[\221\337\346"
ARM GAS  /tmp/cc6LWnwc.s 			page 12


 159      0145638F 
 159      CD0A0DDF 
 159      5B91DFE6 
 160 019c A63B0C75 		.ascii	"\246;\014u\254\2621`\003(\350\217.F\337G\317\023\262"
 160      ACB23160 
 160      0328E88F 
 160      2E46DF47 
 160      CF13B2
 161 01af 1FE660F4 		.ascii	"\037\346`\364.\222W,\237\274\303Z\215\340\273+j5\261"
 161      2E92572C 
 161      9FBCC35A 
 161      8DE0BB2B 
 161      6A35B1
 162 01c2 8DAE644A 		.ascii	"\215\256dJo\263\272\275\347\245\033B?@ct\216\177Cv-"
 162      6FB3BABD 
 162      E7A51B42 
 162      3F406374 
 162      8E7F4376 
 163 01d7 C76C8A91 		.ascii	"\307l\212\221\331K\220z\034\013Sa\004K\341\324\2535"
 163      D94B907A 
 163      1C0B5361 
 163      044BE1D4 
 163      AB35
 164 01e9 037DC552 		.ascii	"\003}\305R\351h\255\367HyY\214\024\203\207\313/W*\372"
 164      E968ADF7 
 164      4879598C 
 164      148387CB 
 164      2F572AFA 
 165 01fd 851CB0C4 		.ascii	"\205\034\260\304i\370E\340\243\341\361o$n\334-\356\225"
 165      69F845E0 
 165      A3E1F16F 
 165      246EDC2D 
 165      EE95
 166 020f 8AE2BEB4 		.ascii	"\212\342\276\264\305\031\341\255\240\371\312\2648\237"
 166      C519E1AD 
 166      A0F9CAB4 
 166      389F
 167 021d EF09D016 		.ascii	"\357\011\320\026\223\236\246\352\246\243\346$S\263H"
 167      939EA6EA 
 167      A6A3E624 
 167      53B348
 168 022c 37899A49 		.ascii	"7\211\232I\267\232\251\212jN\277\346\250y\231\2519\020"
 168      B79AA98A 
 168      6A4EBFE6 
 168      A87999A9 
 168      3910
 169 023e A8A8669F 		.ascii	"\250\250f\237\333\311g\277\021\255\263nZ\177\020i-E"
 169      DBC967BF 
 169      11ADB36E 
 169      5A7F1069 
 169      2D45
 170 0250 BF7656F1 		.ascii	"\277vV\361\355h\037E\250\345\326s\276\210\255\301\236"
 170      ED681F45 
 170      A8E5D673 
 170      BE88ADC1 
 170      9E
 171 0261 5E89EC25 		.ascii	"^\211\354%\375\333\313W\327\263%}\036\337\016\032f\\"
ARM GAS  /tmp/cc6LWnwc.s 			page 13


 171      FDDBCB57 
 171      D7B3257D 
 171      1EDF0E1A 
 171      665C
 172 0273 1A3C0051 		.ascii	"\032<\000Q.\257Bg\243\033\203%\205}\227k\210j\334G\002"
 172      2EAF4267 
 172      A31B8325 
 172      857D976B 
 172      886ADC47 
 173 0288 A070DC83 		.ascii	"\240p\334\203\362\344\351\276\302\301\313\203\230\344"
 173      F2E4E9BE 
 173      C2C1CB83 
 173      98E4
 174 0296 CFE1DBD0 		.ascii	"\317\341\333\320\2009\030\333\222\372\027\334\2224<"
 174      803918DB 
 174      92FA17DC 
 174      92343C
 175 02a5 86EFF3B4 		.ascii	"\206\357\363\264g\230\275\211bu\257e\203;\243\031\216"
 175      6798BD89 
 175      6275AF65 
 175      833BA319 
 175      8E
 176 02b6 9734D3F0 		.ascii	"\2274\323\360\233@\214\036\214\0241I\261\026\262%\371"
 176      9B408C1E 
 176      8C143149 
 176      B116B225 
 176      F9
 177 02c7 27631EAD 		.ascii	"'c\036\255\333v\245J\230@\253\025\270}\226\271\235z"
 177      DB76A54A 
 177      9840AB15 
 177      B87D96B9 
 177      9D7A
 178 02d9 AB220B1B 		.ascii	"\253\"\013\033\307\002]f\357\263\324\205\340\357C\217"
 178      C7025D66 
 178      EFB3D485 
 178      E0EF438F 
 179 02e9 0F683241 		.ascii	"\017h2AK\254\376[\314\201/\370\0264#\021\364\035d)\370"
 179      4BACFE5B 
 179      CC812FF8 
 179      16342311 
 179      F41D6429 
 180 02fe A04C8130 		.ascii	"\240L\2010\254\340\322r\005\020\004C\240@\303\257\003"
 180      ACE0D272 
 180      05100443 
 180      A040C3AF 
 180      03
 181 030f 35057DEE 		.ascii	"5\005}\356\311\035\004\313\375q\230\241]`h\363\236\250"
 181      C91D04CB 
 181      FD7198A1 
 181      5D6068F3 
 181      9EA8
 182 0321 E56568C0 		.ascii	"\345eh\300\355\010\307\355\2327n\212\234\3330\307\355"
 182      ED08C7ED 
 182      9A376E8A 
 182      9CDB30C7 
 182      ED
 183 0332 86376E32 		.ascii	"\2067n24\340v\222\343\366\214\352\211[@\316m\234\343"
ARM GAS  /tmp/cc6LWnwc.s 			page 14


 183      34E07692 
 183      E3F68CEA 
 183      895B40CE 
 183      6D9CE3
 184 0345 B6A70CAD 		.ascii	"\266\247\014\255\"7\031\032p;\305q;\350\215\233*\347"
 184      2237191A 
 184      703BC571 
 184      3BE88D9B 
 184      2AE7
 185 0357 36B1408C 		.ascii	"6\261@\214/\263\000\212\330\014\331\017}\007\371G\222"
 185      2FB3008A 
 185      D80CD90F 
 185      7D07F947 
 185      92
 186 0368 205F6307 		.ascii	" _c\007\371\3412\015\342\270\226Kd\"\300%\223\217\237"
 186      F9E1320D 
 186      E2B8964B 
 186      6422C025 
 186      938F9F
 187 037b DC628918 		.ascii	"\334b\211\030\262\366\271\342\030Y1\344\354s\325\026"
 187      B2F6B9E2 
 187      185931E4 
 187      EC73D516 
 188 038b 10C5B4D2 		.ascii	"\020\305\264\322\272\317g\025\330\247\315\\m\241\016"
 188      BACF6715 
 188      D8A7CD5C 
 188      6DA10E
 189 039a 1AFE946D 		.ascii	"\032\376\224m\214X\334\030q\310\251\2240U3\252\212{"
 189      8C58DC18 
 189      71C8A994 
 189      305533AA 
 189      8A7B
 190 03ac BD076C3B 		.ascii	"\275\007l;\017\034nb/\215\277\262\227\364q\325\235\007"
 190      0F1C6E62 
 190      2F8DBFB2 
 190      97F471D5 
 190      9D07
 191 03be 62571EB8 		.ascii	"bW\036\270\010\027?m-\317\337j\361\372\302\000p\234"
 191      08173F6D 
 191      2DCFDF6A 
 191      F1FAC200 
 191      709C
 192 03d0 AAE1CFB8 		.ascii	"\252\341\317\270\310p\267\323\360\337}G\306\274$2\256"
 192      C870B7D3 
 192      F0DF7D47 
 192      C6BC2432 
 192      AE
 193 03e1 6281F9BC 		.ascii	"b\201\371\274\263\241O\224E\212\310\303\012\367%\322"
 193      B3A14F94 
 193      458AC8C3 
 193      0AF725D2 
 194 03f1 708737F3 		.ascii	"p\2077\363\374!\274\237\220\351\006Y\320\217\330/\342"
 194      FC21BC9F 
 194      90E90659 
 194      D08FD82F 
 194      E2
 195 0402 813B4C0A 		.ascii	"\201;L\012\377\360\255\355\237\022m\375A;\354\247\312"
ARM GAS  /tmp/cc6LWnwc.s 			page 15


 195      FFF0ADED 
 195      9F126DFD 
 195      413BECA7 
 195      CA
 196 0413 C4B846B6 		.ascii	"\304\270F\266\224U\311\342\276\277p\346r\015\335\013"
 196      9455C9E2 
 196      BEBF70E6 
 196      720DDD0B 
 197 0423 DE600173 		.ascii	"\336`\001s\336\015(\260\262|\263\262\002Z\245\203O?"
 197      DE0D28B0 
 197      B27CB3B2 
 197      025AA583 
 197      4F3F
 198 0435 34FC1A0B 		.ascii	"4\374\032\013\376i|\017\330\267\230\275\304\354\333"
 198      FE697C0F 
 198      D8B798BD 
 198      C4ECDB
 199 0444 CCBECBEC 		.ascii	"\314\276\313\354\373\314\3162{\205\3319f\213\314~\314"
 199      FBCCCE32 
 199      7B85D939 
 199      668BCC7E 
 199      CC
 200 0455 EC17CC7E 		.ascii	"\354\027\314~\011\326>d.<\207\227ZM\026\313\302\212"
 200      09D63E64 
 200      2E3C8797 
 200      5A4D16CB 
 200      C28A
 201 0467 F672DAEB 		.ascii	"\366r\332\353\254\247\302\007s\030\262\310k,\003\233"
 201      ACA7C207 
 201      7318B2C8 
 201      6B2C039B 
 202 0477 5617CDC0 		.ascii	"V\027\315\300\\ \224\302\365\262\004l\216%`\327\027"
 202      5C2094C2 
 202      F5B2046C 
 202      8E2560D7 
 202      17
 203 0488 4FC006FB 		.ascii	"O\300\006\373\013\007\347\006\357\242\011\230\235v\025"
 203      0B07E706 
 203      EFA20998 
 203      9D7615
 204 0497 FE076997 		.ascii	"\376\007i\227\202.2)\327\027\236f\301\265b\314\034\232"
 204      822E3229 
 204      D7179E66 
 204      C1B562CC 
 204      1C9A
 205 04a9 E362E63D 		.ascii	"\343b\346=\337`\265\002\330\020\017v\305\013X\265\234"
 205      DF60B502 
 205      D8100F76 
 205      C50B58B5 
 205      9C
 206 04ba D9611EEC 		.ascii	"\331a\036\354C\337`\"\263#<\330\247^\300\226\313\231"
 206      43DF6022 
 206      B3233CD8 
 206      A75EC096 
 206      CB99
 207 04cc 0DF3607F 		.ascii	"\015\363`\177\363\015\3063\203\334b3\377\262\322\360"
 207      F30DC633 
ARM GAS  /tmp/cc6LWnwc.s 			page 16


 207      83DC6233 
 207      FFB2D2F0 
 208 04dc 27CEE6B3 		.ascii	"'\316\346\263\305\352^\303:Hv_W+\015\357Q\374\356O{"
 208      C5EA5EC3 
 208      3A48765F 
 208      572B0DEF 
 208      51FCEE4F 
 209 04f1 95CAFB93 		.ascii	"\225\312\373\223\275\344\204V \372\252[\264@\302\254"
 209      BDE48456 
 209      20FAAA5B 
 209      B440C2AC 
 210 0501 AE907B70 		.ascii	"\256\220{p\234\367\340\277\274x\260V>\267\247x\260\177"
 210      9CF7E0BF 
 210      BC78B056 
 210      3EB7A778 
 210      B07F
 211 0513 7B01FBA1 		.ascii	"{\001\373\241\234\331\004\017\366\265o0\221\331$\017"
 211      9CD9040F 
 211      F6B56F30 
 211      91D9240F 
 212 0523 D61FF400 		.ascii	"\326\037\364\000\326 gv\232\007\333\355\033Ldv\206\007"
 212      D6206776 
 212      9A07DBED 
 212      1B4C6476 
 212      8607
 213 0535 7BD60B58 		.ascii	"{\326\013X\223\234\331Y\036\354\200o0\216\331`_af\263"
 213      939CD959 
 213      1EEC806F 
 213      308ED960 
 213      5F6166B3 
 214 0549 9D81E6D7 		.ascii	"\235\201\346\327\322\270\275\351\204\372Zq\245\013\315"
 214      D2B8BDE9 
 214      84FA5A71 
 214      A50BCD
 215 0558 46A5CD34 		.ascii	"F\245\3154<\354{E\034\225\254\0101\0319\352\254\210"
 215      3CEC7B45 
 215      1C95AC08 
 215      311939EA 
 215      AC88
 216 056a 21B76C81 		.ascii	"!\267l\201\204Y]+\361!\274\036.\031>\274\311|x\304\213"
 216      84595D2B 
 216      F121BC1E 
 216      2E193EBC 
 216      C97C78C4 
 217 057f 0FDBE460 		.ascii	"\017\333\344`o\363`y\337`\342\204\274\273Y\374$\340"
 217      6FF36079 
 217      DF60E284 
 217      BCBB59FC 
 217      24E0
 218 0591 E683D829 		.ascii	"\346\203\330)\312r~B\312\222(W3x\251\371\236\220\027"
 218      CA727E42 
 218      CA922857 
 218      3378A9F9 
 218      9E9017
 219 05a4 2413E2FC 		.ascii	"$\023\342\374\002\307\267\242\231\267[\266\310\302\254"
 219      02C7B7A2 
 219      99B75BB6 
ARM GAS  /tmp/cc6LWnwc.s 			page 17


 219      C8C2AC
 220 05b3 76C89CD8 		.ascii	"v\310\234\330Wx_\256;oC\335\261\220nw3\015\037\367\255"
 220      57785FAE 
 220      3B6F43DD 
 220      B1906E77 
 220      330D1FF7 
 221 05c8 FB8444B7 		.ascii	"\373\204D\267*\350>\341\350>\346\326-\2620\253[$\272"
 221      2AE83EE1 
 221      E83EE6D6 
 221      2DB230AB 
 221      5B24BA
 222 05db 21AB99DD 		.ascii	"!\253\231\335Lc\2072\325\360E\366c\332b`\333%\301\003"
 222      4C638732 
 222      D5F045F6 
 222      63DA6260 
 222      DB25C103 
 223 05ef 5BC3157E 		.ascii	"[\303\025~kx\321K$\356\256\364\033A\245\203O\3104\374"
 223      6B78D14B 
 223      24EEAEF4 
 223      1B41A583 
 223      4FC834FC 
 224 0603 1F9631DD 		.ascii	"\037\2261\335`\011e\211\331>\205\332~fw1\373Kf\177\305"
 224      60096589 
 224      D93E85DA 
 224      7E667731 
 224      FB4B667F 
 225 0618 ECB3CC0E 		.ascii	"\354\263\314\0160\273\237\331Af\0171;\304\354af\217"
 225      30BB9FD9 
 225      41660F31 
 225      3BC4EC61 
 225      668F
 226 062a 303BC2EC 		.ascii	"0;\302\354\363\314\2161\373{f_b\366\244\342!\205\375"
 226      F3CC8E31 
 226      FB7B665F 
 226      62F6A4E2 
 226      2185FD
 227 063d CA4961EF 		.ascii	"\312Ia\357E#df\246\270\353\352\020\336]$\003\344\353"
 227      45236466 
 227      A6B8EBEA 
 227      10DE5D24 
 227      03E4EB
 228 0650 5209BBBE 		.ascii	"R\011\273\276X\351Gba\341\217D\372w\203\302}Q\256\220"
 228      58E94762 
 228      61E18F44 
 228      FA7783C2 
 228      7D51AE90 
 229 0664 7DACBEA2 		.ascii	"}\254\276\242P\347Lp\241d\324\255\232\361\255z*(~&r"
 229      50E74C70 
 229      A164D4AD 
 229      9AF1AD7A 
 229      2A287E26 
 230 0679 9E5EB8AB 		.ascii	"\236^\270\2539\350gvl|OX\0254_\241M%\3154<\351{ULIV"
 230      39E86776 
 230      6C7C4F58 
 230      15345FA1 
 230      4D25CD34 
 231 0694 C54A81F5 		.ascii	"\305J\201\365\224\263*\246\202\256\337\270\335,\024"
ARM GAS  /tmp/cc6LWnwc.s 			page 18


 231      94B32AA6 
 231      82AEDFB8 
 231      DD2C14
 232 06a3 742E6825 		.ascii	"t.h%\372\364_-TW_\037\216t\245\266\246\036\211\2073"
 232      FAF45F2D 
 232      54575F1F 
 232      8E74A5B6 
 232      A61E8987 
 233 06b8 BDE12EAD 		.ascii	"\275\341.\255;\274=\223\315\365\206\223\231\236\236"
 233      3BBC3D93 
 233      CDF58693 
 233      999E9E
 234 06c7 4C3ADC1C 		.ascii	"L:\334\034k\217\264?\025N\377,\225\254O\242\336pz\033"
 234      6B8FB43F 
 234      154EFF2C 
 234      95AC4FA2 
 234      DE707A1B 
 235 06db 2BABC35D 		.ascii	"+\253\303]\231\036=\234\325{u-\233\354\202~\331\316"
 235      991E3D9C 
 235      D57B752D 
 235      9BEC827E 
 235      D9CE
 236 06ed 9F6B593D 		.ascii	"\237kY=\254e{\032\303O$\223uP\251\323{\266\352\235\235"
 236      AC657B1A 
 236      C34F2493 
 236      7550A9D3 
 236      7BB6EA9D 
 237 0702 7AA77D23 		.ascii	"z\247}#\235I\353u\272\2665U\267*\321T\327\330\360\300"
 237      9D49EB75 
 237      BAB63555 
 237      B72AD154 
 237      D7D8F0C0 
 238 0716 AA271BC3 		.ascii	"\252'\033\303\302\203p*\235\354\336\321\251\207{s\235"
 238      C283702A 
 238      9DECDED1 
 238      A9877B73 
 238      9D
 239 0727 A974AEBE 		.ascii	"\251t\256\276\013U\357\200\363\203\215\211\334\222\237"
 239      0B55EF80 
 239      F3838D89 
 239      DC929F
 240 0736 3EBCB136 		.ascii	">\274\2616\202\372\361\377\217D\217\226\354J\245\365"
 240      82FAF1FF 
 240      8F448F96 
 240      EC4AA5F5 
 241 0746 70A253DF 		.ascii	"p\242S\337\246\355\350\316%r;\267\353\275@\352\226D"
 241      A6EDE8CE 
 241      25723BB7 
 241      EBBD40EA 
 241      9644
 242 0758 C2A2B59C 		.ascii	"\302\242\265\234\372\2465\255m\355\3267\351\311\\&\213"
 242      FAA635AD 
 242      6DEDD637 
 242      E9C95C26 
 242      8B
 243 0769 D3EAF66C 		.ascii	"\323\352\366l*s\033\275\337\222\352u\036\254\244w\342"
 243      2A731BBD 
ARM GAS  /tmp/cc6LWnwc.s 			page 19


 243      DF92EA75 
 243      1EACA477 
 243      E2
 244 077a 7A2EBEB3 		.ascii	"z.\276\2637\247\367\264i\351\316n=\333\001M\263\251"
 244      37A7F7B4 
 244      69E9CE6E 
 244      3DDB014D 
 244      B3A9
 245 078c DCCEAA2E 		.ascii	"\334\316\252.\343\232\301E\272AQ\207\236\006\027<\361"
 245      E39AC145 
 245      BA415187 
 245      9E06173C 
 245      F1
 246 079d 237186F4 		.ascii	"#q\206\364\247r\341H{<\032\267I&3Y=\221\354Y\005\264"
 246      A772E148 
 246      7B3C1AB7 
 246      49263359 
 246      3D91EC59 
 247 07b3 420F6F8A 		.ascii	"B\017o\212F\022\033\200\244\032\215\267\306B\261V\260"
 247      46121B80 
 247      A41A8DB7 
 247      C642B156 
 247      B0
 248 07c4 9B5A5B1A 		.ascii	"\233Z[\032\324h\2445V\0353\256"
 248      D468A435 
 248      561D33AE 
 249 07d0 1E80871D 		.ascii	"\036\200\207\035\316\303Fx\310]>\250F\233\3279\227\253"
 249      CEC34678 
 249      C85D3EA8 
 249      469BD739 
 249      97AB
 250 07e2 AAA8D0A6 		.ascii	"\252\250\320\246D.dH\206\232\022\355\260\037\257V\343"
 250      442E6448 
 250      869A12ED 
 250      B01FAF56 
 250      E3
 251 07f3 1BA2B1EA 		.ascii	"\033\242\261\352xd\035\0336\030\351\330\030m\001\300"
 251      78641D1B 
 251      3618E9D8 
 251      186D01C0 
 252 0803 784CDDB4 		.ascii	"xL\335\264\341\221X\2609\032\213\304\002q(\021zn\353"
 252      E19158B0 
 252      391A8BC4 
 252      02712811 
 252      7A6EEB
 253 0816 08C6DBE8 		.ascii	"\010\306\333\350\303\310z0m\324\264\200\011\266\267"
 253      C3C87A30 
 253      6DD4B480 
 253      09B6B7
 254 0825 AF6F8EA9 		.ascii	"\257o\216\251\353\250i\206\353@\307\372X\240\005JsK"
 254      EBA86986 
 254      EB40C7FA 
 254      58A0054A 
 254      734B
 255 0837 4C856731 		.ascii	"L\205g1`\334\034\003\360\346HLM\302<W'\022\333v\244"
 255      60DC1C03 
 255      F0E6484C 
ARM GAS  /tmp/cc6LWnwc.s 			page 20


 255      4DC23C57 
 255      2712DB76 
 256 084c 9389C4B7 		.ascii	"\223\211\304\267\254J\375\232\206\246\325\377\005\001"
 256      AC4AFD9A 
 256      86A6D5FF 
 256      0501
 257 085a 2795F3   		.ascii	"'\225\363"
 258              		.text
 259              		.section	.gnu.lto_.symtab.9dfbe7f719fbd464,"",%progbits
 260 0000 6E766963 		.ascii	"nvicEnableVector\000\000\000\000\000\000\000\000\000"
 260      456E6162 
 260      6C655665 
 260      63746F72 
 260      00000000 
 261 0019 000000A1 		.ascii	"\000\000\000\241\000\000\000nvicDisableVector\000\000"
 261      0000006E 
 261      76696344 
 261      69736162 
 261      6C655665 
 262 0033 00000000 		.ascii	"\000\000\000\000\000\000\000\000\000\000\262\000\000"
 262      00000000 
 262      0000B200 
 262      00
 263 0040 006E7669 		.ascii	"\000nvicSetSystemHandlerPriority\000\000\000\000\000"
 263      63536574 
 263      53797374 
 263      656D4861 
 263      6E646C65 
 264 0062 00000000 		.ascii	"\000\000\000\000\000\000\000\270\000\000\000nvicCle"
 264      000000B8 
 264      0000006E 
 264      76696343 
 264      6C65
 265 0074 61725065 		.ascii	"arPending\000\000\000\000\000\000\000\000\000\000\000"
 265      6E64696E 
 265      67000000 
 265      00000000 
 265      00000000 
 266 0088 00BE0000 		.ascii	"\000\276\000\000\000"
 266      00
 267              		.text
 268              		.section	.gnu.lto_.opts,"",%progbits
 269 0000 272D6D63 		.ascii	"'-mcpu=cortex-m4' '-mno-thumb-interwork' '-mthumb' "
 269      70753D63 
 269      6F727465 
 269      782D6D34 
 269      2720272D 
 270 0033 272D6767 		.ascii	"'-ggdb' '-O0' '-fomit-frame-pointer' '-falign-funct"
 270      64622720 
 270      272D4F30 
 270      2720272D 
 270      666F6D69 
 271 0066 696F6E73 		.ascii	"ions=16' '-ffunction-sections' '-fdata-sections' '-"
 271      3D313627 
 271      20272D66 
 271      66756E63 
 271      74696F6E 
ARM GAS  /tmp/cc6LWnwc.s 			page 21


 272 0099 666E6F2D 		.ascii	"fno-common' '-flto'\000"
 272      636F6D6D 
 272      6F6E2720 
 272      272D666C 
 272      746F2700 
 273              		.text
 274              		.cfi_sections	.debug_frame
 275              		.section	.text.nvicEnableVector,"ax",%progbits
 276              		.align	2
 277              		.p2align 4,,15
 278              		.global	nvicEnableVector
 279              		.thumb
 280              		.thumb_func
 281              		.type	nvicEnableVector, %function
 282              	nvicEnableVector:
 283              	.LFB272:
 284              		.file 1 "../ChibiOS/os/hal/ports/common/ARMCMx/nvic.c"
 285              		.loc 1 57 0
 286              		.cfi_startproc
 287              		@ args = 0, pretend = 0, frame = 8
 288              		@ frame_needed = 0, uses_anonymous_args = 0
 289              		@ link register save eliminated.
 290 0000 82B0     		sub	sp, sp, #8
 291              		.cfi_def_cfa_offset 8
 292 0002 0190     		str	r0, [sp, #4]
 293 0004 0091     		str	r1, [sp]
 294              		.loc 1 63 0
 295 0006 1149     		ldr	r1, .L2
 296 0008 009B     		ldr	r3, [sp]
 297 000a DBB2     		uxtb	r3, r3
 298 000c 1B01     		lsls	r3, r3, #4
 299 000e DAB2     		uxtb	r2, r3
 300 0010 019B     		ldr	r3, [sp, #4]
 301 0012 0B44     		add	r3, r3, r1
 302 0014 03F54073 		add	r3, r3, #768
 303 0018 1A70     		strb	r2, [r3]
 304              		.loc 1 65 0
 305 001a 0C4B     		ldr	r3, .L2
 306 001c 019A     		ldr	r2, [sp, #4]
 307 001e 5209     		lsrs	r2, r2, #5
 308 0020 0199     		ldr	r1, [sp, #4]
 309 0022 01F01F01 		and	r1, r1, #31
 310 0026 0120     		movs	r0, #1
 311 0028 00FA01F1 		lsl	r1, r0, r1
 312 002c 6032     		adds	r2, r2, #96
 313 002e 43F82210 		str	r1, [r3, r2, lsl #2]
 314              		.loc 1 66 0
 315 0032 064B     		ldr	r3, .L2
 316 0034 019A     		ldr	r2, [sp, #4]
 317 0036 5209     		lsrs	r2, r2, #5
 318 0038 0199     		ldr	r1, [sp, #4]
 319 003a 01F01F01 		and	r1, r1, #31
 320 003e 0120     		movs	r0, #1
 321 0040 00FA01F1 		lsl	r1, r0, r1
 322 0044 43F82210 		str	r1, [r3, r2, lsl #2]
 323              		.loc 1 67 0
 324 0048 02B0     		add	sp, sp, #8
ARM GAS  /tmp/cc6LWnwc.s 			page 22


 325              		@ sp needed
 326 004a 7047     		bx	lr
 327              	.L3:
 328              		.align	2
 329              	.L2:
 330 004c 00E100E0 		.word	-536813312
 331              		.cfi_endproc
 332              	.LFE272:
 333              		.size	nvicEnableVector, .-nvicEnableVector
 334              		.section	.text.nvicDisableVector,"ax",%progbits
 335              		.align	2
 336              		.p2align 4,,15
 337              		.global	nvicDisableVector
 338              		.thumb
 339              		.thumb_func
 340              		.type	nvicDisableVector, %function
 341              	nvicDisableVector:
 342              	.LFB273:
 343              		.loc 1 74 0
 344              		.cfi_startproc
 345              		@ args = 0, pretend = 0, frame = 8
 346              		@ frame_needed = 0, uses_anonymous_args = 0
 347              		@ link register save eliminated.
 348 0000 82B0     		sub	sp, sp, #8
 349              		.cfi_def_cfa_offset 8
 350 0002 0190     		str	r0, [sp, #4]
 351              		.loc 1 76 0
 352 0004 0A4B     		ldr	r3, .L5
 353 0006 019A     		ldr	r2, [sp, #4]
 354 0008 5209     		lsrs	r2, r2, #5
 355 000a 0199     		ldr	r1, [sp, #4]
 356 000c 01F01F01 		and	r1, r1, #31
 357 0010 0120     		movs	r0, #1
 358 0012 00FA01F1 		lsl	r1, r0, r1
 359 0016 2032     		adds	r2, r2, #32
 360 0018 43F82210 		str	r1, [r3, r2, lsl #2]
 361              		.loc 1 80 0
 362 001c 044A     		ldr	r2, .L5
 363 001e 019B     		ldr	r3, [sp, #4]
 364 0020 1344     		add	r3, r3, r2
 365 0022 03F54073 		add	r3, r3, #768
 366 0026 0022     		movs	r2, #0
 367 0028 1A70     		strb	r2, [r3]
 368              		.loc 1 82 0
 369 002a 02B0     		add	sp, sp, #8
 370              		@ sp needed
 371 002c 7047     		bx	lr
 372              	.L6:
 373 002e 00BF     		.align	2
 374              	.L5:
 375 0030 00E100E0 		.word	-536813312
 376              		.cfi_endproc
 377              	.LFE273:
 378              		.size	nvicDisableVector, .-nvicDisableVector
 379 0034 AFF30080 		.section	.text.nvicSetSystemHandlerPriority,"ax",%progbits
 379      AFF30080 
 379      AFF30080 
ARM GAS  /tmp/cc6LWnwc.s 			page 23


 380              		.align	2
 381              		.p2align 4,,15
 382              		.global	nvicSetSystemHandlerPriority
 383              		.thumb
 384              		.thumb_func
 385              		.type	nvicSetSystemHandlerPriority, %function
 386              	nvicSetSystemHandlerPriority:
 387              	.LFB274:
 388              		.loc 1 90 0
 389              		.cfi_startproc
 390              		@ args = 0, pretend = 0, frame = 8
 391              		@ frame_needed = 0, uses_anonymous_args = 0
 392              		@ link register save eliminated.
 393 0000 82B0     		sub	sp, sp, #8
 394              		.cfi_def_cfa_offset 8
 395 0002 0190     		str	r0, [sp, #4]
 396 0004 0091     		str	r1, [sp]
 397              		.loc 1 100 0
 398 0006 0549     		ldr	r1, .L8
 399 0008 009B     		ldr	r3, [sp]
 400 000a DBB2     		uxtb	r3, r3
 401 000c 1B01     		lsls	r3, r3, #4
 402 000e DAB2     		uxtb	r2, r3
 403 0010 019B     		ldr	r3, [sp, #4]
 404 0012 0B44     		add	r3, r3, r1
 405 0014 1833     		adds	r3, r3, #24
 406 0016 1A70     		strb	r2, [r3]
 407              		.loc 1 102 0
 408 0018 02B0     		add	sp, sp, #8
 409              		@ sp needed
 410 001a 7047     		bx	lr
 411              	.L9:
 412              		.align	2
 413              	.L8:
 414 001c 00ED00E0 		.word	-536810240
 415              		.cfi_endproc
 416              	.LFE274:
 417              		.size	nvicSetSystemHandlerPriority, .-nvicSetSystemHandlerPriority
 418              		.section	.text.nvicClearPending,"ax",%progbits
 419              		.align	2
 420              		.p2align 4,,15
 421              		.global	nvicClearPending
 422              		.thumb
 423              		.thumb_func
 424              		.type	nvicClearPending, %function
 425              	nvicClearPending:
 426              	.LFB275:
 427              		.loc 1 109 0
 428              		.cfi_startproc
 429              		@ args = 0, pretend = 0, frame = 8
 430              		@ frame_needed = 0, uses_anonymous_args = 0
 431              		@ link register save eliminated.
 432 0000 82B0     		sub	sp, sp, #8
 433              		.cfi_def_cfa_offset 8
 434 0002 0190     		str	r0, [sp, #4]
 435              		.loc 1 111 0
 436 0004 064B     		ldr	r3, .L11
ARM GAS  /tmp/cc6LWnwc.s 			page 24


 437 0006 019A     		ldr	r2, [sp, #4]
 438 0008 5209     		lsrs	r2, r2, #5
 439 000a 0199     		ldr	r1, [sp, #4]
 440 000c 01F01F01 		and	r1, r1, #31
 441 0010 0120     		movs	r0, #1
 442 0012 00FA01F1 		lsl	r1, r0, r1
 443 0016 6032     		adds	r2, r2, #96
 444 0018 43F82210 		str	r1, [r3, r2, lsl #2]
 445              		.loc 1 112 0
 446 001c 02B0     		add	sp, sp, #8
 447              		@ sp needed
 448 001e 7047     		bx	lr
 449              	.L12:
 450              		.align	2
 451              	.L11:
 452 0020 00E100E0 		.word	-536813312
 453              		.cfi_endproc
 454              	.LFE275:
 455              		.size	nvicClearPending, .-nvicClearPending
 456 0024 AFF30080 		.text
 456      AFF30080 
 456      AFF30080 
 457              	.Letext0:
 458              		.file 2 "/nfs/nfs5/home/research/hardware/arm2/gcc-arm-embedded/gcc-arm-none-eabi-4_8-2014q2/arm-n
 459              		.file 3 "/nfs/nfs5/home/research/hardware/arm2/gcc-arm-embedded/gcc-arm-none-eabi-4_8-2014q2/arm-n
 460              		.file 4 "../ChibiOS/os/rt/ports/ARMCMx/compilers/GCC/chtypes.h"
 461              		.file 5 "../ChibiOS/os/rt/include/chsystypes.h"
 462              		.file 6 "../ChibiOS/os/rt/include/chschd.h"
 463              		.file 7 "../ChibiOS/os/ext/CMSIS/include/core_cm4.h"
 464              		.file 8 "../ChibiOS/os/rt/ports/ARMCMx/chcore.h"
 465              		.file 9 "../ChibiOS/os/rt/ports/ARMCMx/chcore_v7m.h"
 466              		.file 10 "../ChibiOS/os/rt/include/chtm.h"
 467              		.file 11 "../ChibiOS/os/rt/include/chsem.h"
 468              		.file 12 "../ChibiOS/os/rt/include/chmtx.h"