ARM GAS  /tmp/ccVm1riJ.s 			page 1


   1              		.syntax unified
   2              		.cpu cortex-m4
   3              		.fpu softvfp
   4              		.eabi_attribute 20, 1
   5              		.eabi_attribute 21, 1
   6              		.eabi_attribute 23, 3
   7              		.eabi_attribute 24, 1
   8              		.eabi_attribute 25, 1
   9              		.eabi_attribute 26, 1
  10              		.eabi_attribute 30, 6
  11              		.eabi_attribute 34, 1
  12              		.eabi_attribute 18, 4
  13              		.thumb
  14              		.file	"pal_lld.c"
  15              		.text
  16              	.Ltext0:
  17              		.section	.gnu.lto_.inline.844b16f61f739edb,"",%progbits
  18 0000 789C6362 		.ascii	"x\234cb`b\300\006\242\24043\003\203\240\000\003\003"
  18      6062C006 
  18      A2A03433 
  18      0383A000 
  18      0303
  19 0012 935CC32F 		.ascii	"\223\\\303/F\006\026\210bF\006\211\263@\212\211c\202"
  19      46061688 
  19      62460689 
  19      B3408A89 
  19      6382
  20 0024 1F4C8899 		.ascii	"\037L\210\231\007\037\301\304p\200\301\036H\325l\270"
  20      071FC1C4 
  20      7080C11E 
  20      48D56CB8 
  21 0034 C10ED3C1 		.ascii	"\301\016\323\301\000\000`\370\007f"
  21      000060F8 
  21      0766
  22              		.text
  23              		.section	.gnu.lto_initgpio.844b16f61f739edb,"",%progbits
  24 0000 789C9D92 		.ascii	"x\234\235\222\317K\002A\024\200\337\333\337n\005\005"
  24      CF4B0241 
  24      1480DFDB 
  24      DF6E0505 
  25 0010 5D3A0452 		.ascii	"]:\004R\307\300%\245\277\240 \002\303@\203:\205\032"
  25      C7C025A5 
  25      BFA02002 
  25      C340833A 
  25      851A
  26 0022 E8C28692 		.ascii	"\350\302\206\222\321\325U:D\204\210D\210\021\326-\272"
  26      D1D5553A 
  26      44848844 
  26      8811D62D 
  26      BA
  27 0033 78ED281D 		.ascii	"x\355(\035\202\016\202\335\":H\021\375\013vi\233\331"
  27      820E82DD 
  27      223A4811 
  27      FD0B7669 
  27      9BD9
  28 0045 1DC93A2C 		.ascii	"\035\311:,5\017\366\355\033f\277\371\336\362F\000\001"
  28      350FF6ED 
ARM GAS  /tmp/ccVm1riJ.s 			page 2


  28      1B66BFF9 
  28      DEF24600 
  28      01
  29 0056 7EC72479 		.ascii	"~\307$y>$\200\005\272\020\001\311\027( \222\005BQ\300"
  29      3E248005 
  29      BA1001C9 
  29      17282092 
  29      054251C0 
  30 006a E2262D41 		.ascii	"\342&-A\235\201K\333\256\365\336\232\347SG\027\345\252"
  30      9D814BDB 
  30      AEF5DE9A 
  30      E7534717 
  30      E5AA
  31 007c FDE93868 		.ascii	"\375\3518h\322\2554\302\006\2510\350\276\004\351\347"
  31      D2AD34C2 
  31      06A930E8 
  31      BE04E9E7 
  32 008c E91ED6AE 		.ascii	"\351\036\326\256\336\035\353\325\322\241\3558\305\277"
  32      DE1DEBD5 
  32      D2A1ED38 
  32      C5BF
  33 009a 43351EE8 		.ascii	"C5\036\350\204\007:\345\201\352<P\343_PKh\367\034\347"
  33      84073AE5 
  33      81EA3C50 
  33      E35F504B 
  33      68F71CE7 
  34 00ae B9F5DEAB 		.ascii	"\271\365\336\253\340\204\216\270\203d\200\204\023I\205"
  34      E0848EB8 
  34      83648084 
  34      134985
  35 00bd 12AD649A 		.ascii	"\022\255d\232\024\232T\2324\232\002\340\036M\366\016"
  35      149A549A 
  35      349A02E0 
  35      1E4DF60E 
  36 00cd 6CBB1A74 		.ascii	"l\273\032t%$\022n^\247\003\026;P~\3527\247\223x\205"
  36      2524126E 
  36      5EA70316 
  36      3B507EEA 
  36      37A79378 
  37 00e2 32645098 		.ascii	"2dP\230\203k{\334D\361\014\032\244\015)\203H\333\221"
  37      836B7BDC 
  37      44F10C1A 
  37      A40D2983 
  37      48DB91
  38 00f5 DD265238 		.ascii	"\335&R8h\247\003\267\367]\335\203(qP\262\347MT<H\315"
  38      68A703B7 
  38      F75DDD83 
  38      287150B2 
  38      E74D543C 
  39 010b A048218D 		.ascii	"\240H!\215A\036\225\241:j\253\277t\305\201N\362\327"
  39      411E95A1 
  39      3A6AABBF 
  39      74C5814E 
  39      F2D7
  40 011d 093C3A91 		.ascii	"\011<:\221\351$Ow3\244\223\375u\022\217Nf:\331\323="
  40      E9244F77 
  40      33A493FD 
ARM GAS  /tmp/ccVm1riJ.s 			page 3


  40      75128F4E 
  40      663AD9D3 
  41 0132 0EE9147F 		.ascii	"\016\351\024\177\235\302\243S\231N\361t\375!\235\352"
  41      9DC2A353 
  41      994EF174 
  41      FD219DEA 
  42 0142 AFD37874 		.ascii	"\257\323xt\001\246S\331\354^\277u\232\277N\347\321\215"
  42      01A653D9 
  42      EC5EBF75 
  42      9ABF4EE7 
  42      D18D
  43 0154 309DC666 		.ascii	"0\235\306f7\244\013\370\353FytcLG\376\362\001J\275\312"
  43      37A40BF8 
  43      EB467974 
  43      634C47FE 
  43      F2014ABD 
  44 0169 ACC70D22 		.ascii	"\254\307\015\"A\257.\275\203\221P\310X\314\232)3\026"
  44      41AF2EBD 
  44      839150C8 
  44      58CC9A29 
  44      3316
  45 017b 37720523 		.ascii	"7r\005#\233\264\214|nw\257`\304\023\253\221\260\021"
  45      9BB48C7C 
  45      6E77AF60 
  45      C413AB91 
  45      B011
  46 018d 8D2E19CB 		.ascii	"\215.\031\313k+\261\375\260\221OZ[\226\265\035J\303"
  46      6B2BB1FD 
  46      B0914F5A 
  46      5B96B51D 
  46      4AC3
  47 019f 17FEA21A 		.ascii	"\027\376\242\032\227"
  47      97
  48              		.text
  49              		.section	.gnu.lto__pal_lld_init.844b16f61f739edb,"",%progbits
  50 0000 789CB592 		.ascii	"x\234\265\222\301K\024Q\034\307\177\277\367ffwf\005"
  50      C14B1451 
  50      1CC77FBF 
  50      F7666677 
  50      6605
  51 0012 233A1875 		.ascii	"#:\030u\020\241S\260\003J\320\275 \004\305\300\015\262"
  51      10A153B0 
  51      034AD0BD 
  51      2004C5C0 
  51      0DB2
  52 0024 4BAC1BAC 		.ascii	"K\254\033\254\003\033JZ\227\016\373[5X\302h\350$yY\351"
  52      031B4A5A 
  52      970EFB5B 
  52      3558C268 
  52      E8247959 
  53 0039 B2141174 		.ascii	"\262\024\021t1oK \236$\274\210\207\016K\320\037Pv\020"
  53      316F4B20 
  53      9E24BC88 
  53      870E4BD0 
  53      1F507610 
  54 004d 29A7F79B 		.ascii	")\247\367\233\2673[\346af\241\037\314w\336\343\367\373"
  54      B7335BE6 
ARM GAS  /tmp/ccVm1riJ.s 			page 4


  54      6166A11F 
  54      CC77DEE3 
  54      F7FB
  55 005f 7E3FEF31 		.ascii	"~?\3571#@\300\311:\247\236\213\026\300\025\336H@5\201"
  55      2340C0C9 
  55      3AA79E8B 
  55      16C015DE 
  55      48403581 
  56 0073 02516D10 		.ascii	"\002Qm\020\252\002\253S\274\004g\010\326\211^\264\267"
  56      AA02AB53 
  56      BC046708 
  56      D6895EB4 
  56      B7
  57 0084 0E56CF3F 		.ascii	"\016V\317?m,\372t\034\004\350q\253\204p[\255p0|\011"
  57      6D2CFA74 
  57      1C04E871 
  57      AB84705B 
  57      AD70307C 
  58 0099 E3EF746D 		.ascii	"\343\357tm\243\367M\262\033\3643\010do\036\371\377<"
  58      A3F74DB2 
  58      1BF43308 
  58      646F1EF9 
  58      FF3C
  59 00ab ADDDED67 		.ascii	"\255\335\355g\177^\311Hh\333\333^q\374Z\235\202\240"
  59      7F5EC948 
  59      68DBDB5E 
  59      71FC5A9D 
  59      82A0
  60 00bd 9ADCF4B9 		.ascii	"\232\334\364\271\027\323\367^L\207\275\230\216S\231"
  60      17D3F75E 
  60      4C87BD98 
  60      8E5399
  61 00cc DE89563B 		.ascii	"\336\211V;\010V6~|i\342\331>\004\365i\005\213T\"\015"
  61      0856367E 
  61      7C69E2D9 
  61      3E04F569 
  61      058B5422 
  62 00e1 1613EF23 		.ascii	"\026\023\357#XjedX\262,6\213\303\222\203\020\002&,\023"
  62      586A6564 
  62      58B22C36 
  62      8BC39283 
  62      1002262C 
  63 00f6 F983214E 		.ascii	"\371\203!NU!\324[\374#\312\035X\374\260\1770P\3047h"
  63      5521D45B 
  63      FC23CA1D 
  63      58FCB07F 
  63      3050C437 
  64 010b 4219918F 		.ascii	"B\031\221\217\001\324\250\023\373T\363j\324\021':\037"
  64      01D4A813 
  64      FB54F36A 
  64      D411273A 
  64      1F
  65 011c EF441D79 		.ascii	"\357D\035y\031^\323r\355\214\207\346\032\274TSV4\035"
  65      195ED372 
  65      ED8C87E6 
  65      1ABC5453 
  65      56341D
ARM GAS  /tmp/ccVm1riJ.s 			page 5


  66 012f D63446D7 		.ascii	"\3264F\327\331\201\245M\031\271\014e\344!It(u\342\250"
  66      D981A54D 
  66      19B90C65 
  66      E4214974 
  66      2875E2A8 
  67 0143 EE9D1287 		.ascii	"\356\235\022\207\377\306\225\371f\352\200GK\257\236"
  67      FFC695F9 
  67      66EA8047 
  67      4BAF9E
  68 0152 5F8842AD 		.ascii	"_\210B\255\307pD\312ip\206O\364\320\303\214\016\311"
  68      C77044CA 
  68      6970864F 
  68      F4D0C38C 
  68      0EC9
  69 0164 96D1E410 		.ascii	"\226\321\344\020\273\023\022\037\012\340\023<iu\022"
  69      BB13121F 
  69      0AE0133C 
  69      697512
  70 0173 0038A0CE 		.ascii	"\0008\240\316\021N\2513\303\256\034\021\265\014\006"
  70      114EA933 
  70      C3AE1C11 
  70      B50C06
  71 0182 78D8D7C1 		.ascii	"x\330\327\301\276\355\217\250\231\304T\221\222Z\327"
  71      BEED8FA8 
  71      99C45491 
  71      925AD7
  72 0191 D44C97BA 		.ascii	"\324L\227\272\031S\263\211\2512%\325\327\324l\227\372"
  72      1953B389 
  72      A93225D5 
  72      D7D46C97 
  72      FA
  73 01a2 35A6DA89 		.ascii	"5\246\332\211\251FJ\352\252\246\332]\352\267\230\352"
  73      A9464AEA 
  73      AAA6DA5D 
  73      EAB798EA 
  74 01b2 24A69A29 		.ascii	"$\246\232)\251\015Mu\272\324_15\227\230j\245\244655"
  74      A90D4D75 
  74      BAD45F31 
  74      3597986A 
  74      A5A43635 
  75 01c7 175277A1 		.ascii	"\027Rw\241\326n^\212,\272\012<\316\177\313H>\357^\233"
  75      D66E5E8A 
  75      2CBA0A3C 
  75      CE7FCB48 
  75      3EEF5E9B 
  76 01db F1A6BD89 		.ascii	"\361\246\275\211Iwv\336\235)V\334\271\331\007\013\363"
  76      497776DE 
  76      9D2956DC 
  76      B9D9070B 
  76      F3
  77 01ec EE64617C 		.ascii	"\356da|d\330\035\033\273\356\336\2709:\361h\330\235"
  77      64D81D1B 
  77      BBEEDEB8 
  77      393AF168 
  77      D89D
  78 01fe 2B56EE56 		.ascii	"+V\356V*\367\362%\370\015H\015f\211"
  78      2AF7F225 
ARM GAS  /tmp/ccVm1riJ.s 			page 6


  78      F80D480D 
  78      6689
  79              		.text
  80              		.section	.gnu.lto__pal_lld_setgroupmode.844b16f61f739edb,"",%progbits
  81 0000 789CDD58 		.ascii	"x\234\335XmhSW\030>\347~$MZ\255\337\266~\326\372\375"
  81      6D685357 
  81      183EE77E 
  81      244D5AAD 
  81      DFB67ED6 
  82 0016 95D80FB5 		.ascii	"\225\330\017\265j\265Z\007\233\340\320\241e\012\003"
  82      6AB55A07 
  82      9BE0D0A1 
  82      650A03
  83 0025 8DB6C46E 		.ascii	"\215\266\304n\011\315\322n\260\375\230\267\246cbd\013"
  83      09CDD26E 
  83      B0FD98B7 
  83      A6636264 
  83      0B
  84 0036 C5357E54 		.ascii	"\3055~T\247c\260!\363c\212vZ\255Q\366\303\321\311\220"
  84      A763B021 
  84      F3638A76 
  84      5AAD51F6 
  84      C3D1C990 
  85 004a 291A8BB4 		.ascii	")\032\213\264\212\272\037\026\301\301t\240[\366\276"
  85      8ABA1F16 
  85      C1C174A0 
  85      5BF6BE
  86 0059 E79E7393 		.ascii	"\347\236s\223\264\205$\027\266\037\006|O\356\373\234"
  86      B4852417 
  86      B61F067C 
  86      4FEEFB9C 
  87 0069 E73DCFFB 		.ascii	"\347=\317\373\234sso\225\210D\372~j\340\337g#\011y\037"
  87      9C73736F 
  87      958844FA 
  87      7E6AE0DF 
  87      67230979 
  88 007e 2F720885 		.ascii	"/r\010\205\031T\2422DYR\010\321\244,\010\212\"\251\370"
  88      1954A232 
  88      44595208 
  88      D1A42C08 
  88      8A22A9F8 
  89 0092 DD82DF55 		.ascii	"\335\202\337Uj\005\324\302\242\225\002L\263$\033\242"
  89      6A05D4C2 
  89      A295024C 
  89      B3241BA2 
  90 00a2 76446D34 		.ascii	"vDm4\0332vV!\233R(J\311vIVT\2135\313f\317\246\3337b"
  90      1B327656 
  90      219B5228 
  90      4AC97649 
  90      56548B35 
  91 00bd 8E941492 		.ascii	"\216\224\024\222#\232\326\334\363\351\351{\362\276="
  91      239AD6DC 
  91      F3E9E97B 
  91      F2BE3D
  92 00cc 91A6C3DA 		.ascii	"\221\246\303\332\313X\214\322Z\004\267R\262\001\276"
  92      CB588CD2 
  92      5A04B752 
ARM GAS  /tmp/ccVm1riJ.s 			page 7


  92      B201BE
  93 00db D10236A0 		.ascii	"\321\0026\240\212\304\217N\214\354\357\334m\0175\356"
  93      8AC48F4E 
  93      8CECEFDC 
  93      6D0F35EE 
  94 00eb D462B1ED 		.ascii	"\324b\261\355\351\223Z\315\220\016\231!\235\351\374"
  94      E9935ACD 
  94      900E9921 
  94      9DE9FC
  95 00fa 227FD7E1 		.ascii	"\"\177\327\341\035!\355\037h+}Z{\360\033\0234\355\300"
  95      1D21ED1F 
  95      682B7D5A 
  95      7BF01B13 
  95      34EDC0
  96 010d C3B557B5 		.ascii	"\303\265W\265\246H,V\221.'\244u?\210s\3444\345]\014"
  96      A6482C56 
  96      912E27A4 
  96      753F8873 
  96      E434E55D 
  97 0122 B69A91F7 		.ascii	"\266\232\221\367\342A\346\362.e,/\244\235\372N\263\261"
  97      E241E6F2 
  97      2E652C2F 
  97      A49DFA4E 
  97      B3B1
  98 0134 8324A7DF 		.ascii	"\203$\247\337\322\365\316\203fZ\332\227\261\343\315"
  98      D2F5CE83 
  98      665ADA97 
  98      B1E3CD
  99 0143 DA972638 		.ascii	"\332\227&8\2473\347Dn\276j-\205\"\267\202I\267\223,"
  99      A733E744 
  99      6EBE6A2D 
  99      8522B782 
  99      49B7932C 
 100 0157 9105F4BF 		.ascii	"\221\005\364\277;\023\321\340!3\006~e\302\214\314\357"
 100      3B13D1E0 
 100      2133067E 
 100      65C28CCC 
 100      EF
 101 0168 DC66ED9C 		.ascii	"\334f\355\234\2113\321\025\014g\336RH\273\370?\335\205"
 101      8933D115 
 101      0C67DE52 
 101      48BBF83F 
 101      DD85
 102 017a 77CD39FE 		.ascii	"w\3159\376\203\011\367\016\232\340\264\233p\274\333"
 102      8309F70E 
 102      9AE0B49B 
 102      70BCDB
 103 0189 5C4B66E4 		.ascii	"\\Kf\344\231\271s\333L\264\364\364\325k)\034\374<_\213"
 103      99B973DB 
 103      4CB4F4F4 
 103      D56B291C 
 103      FC3C5F8B 
 104 019d B7A448A4 		.ascii	"\267\244H\244<\255\037\226\346\310\336\316\034\343\255"
 104      3CAD1F96 
 104      E6C8DECE 
 104      1CE3AD
 105 01ac 00689569 		.ascii	"\000h\225i\322\366'\323V\245IkM\246\275\225&\355P2\355"
ARM GAS  /tmp/ccVm1riJ.s 			page 8


 105      D2F627D3 
 105      56A5496B 
 105      4DA6BD95 
 105      26ED5032 
 106 01c1 ED346927 		.ascii	"\3554i'\223i\357\244Ik\013\356\351c\346\346\364\230"
 106      9369EFA4 
 106      496B0BEE 
 106      E963E6E6 
 106      F498
 107 01d3 DA9FD5C6 		.ascii	"\332\237\325\306\316\001\2536M\326\337I,O\232\254/k"
 107      CE01AB36 
 107      4DD6DF49 
 107      2C4F9AAC 
 107      2F6B
 108 01e5 125975A9 		.ascii	"\022Yu\251X'\244HO,\326\032\355\275\037\244\303WR\342"
 108      5827A448 
 108      4F2CD61A 
 108      EDBD1FA4 
 108      C35752E2 
 109 01f9 A5F016ED 		.ascii	"\245\360\026\355\242\235\264\220\3100^\203Q\201\361"
 109      A29DB490 
 109      C8305E83 
 109      5181F1
 110 0208 57185518 		.ascii	"W\030U\030\257\303h\201\361&\214V\352\245\360\202\254"
 110      AFC36881 
 110      F1268C56 
 110      EAA5F082 
 110      AC
 111 0219 4FB6615B 		.ascii	"O\266a[v\316\310\306\213\034N\033\204\027\20397\027"
 111      76CEC8C6 
 111      8B1C4E1B 
 111      84178339 
 111      3717
 112 022b 2F86C0C5 		.ascii	"/\206\300\305op1\224\027\032\006\205\310pDF`\030\211"
 112      6F703194 
 112      171A0685 
 112      C8704446 
 112      601889
 113 023e 61140479 		.ascii	"a\024\004y4L\270\005\023\3620\223\217a\014\246\307b"
 113      344CB805 
 113      13F23093 
 113      8F610CA6 
 113      C762
 114 0250 1807D85D 		.ascii	"\030\007\330]\300\306\003Y\232\200\330D\014\005\030"
 114      C0C60359 
 114      9A80D844 
 114      0C0518
 115 025f 266128C4 		.ascii	"&a(\3040\031\303\024\014S1L\003\322\031 M\307\0123\340"
 115      3019C314 
 115      0C53314C 
 115      03D21920 
 115      4DC70A33 
 116 0274 220A1733 		.ascii	"\"\012\0273\021\231\205a6\2069\030\346bp\340,'\206y"
 116      11998561 
 116      36863918 
 116      E66270E0 
 116      2C278679 
ARM GAS  /tmp/ccVm1riJ.s 			page 9


 117 0288 30B50BA6 		.ascii	"0\265\013\246\026a\272\030C\011\206R\014\3631,\300\260"
 117      1661BA18 
 117      43098652 
 117      0CF3312C 
 117      C0B0
 118 029a 10431986 		.ascii	"\020C\031\206E\030\026cX\202\241\034\303R\364v\031w"
 118      45181663 
 118      5882A11C 
 118      C352F476 
 118      1977
 119 02ac A8829BB3 		.ascii	"\250\202\233\263\234\373\262\202\333X\311-\201\217J"
 119      9CFBB282 
 119      DB58C92D 
 119      818F4A
 120 02bb 9AE07953 		.ascii	"\232\340yS\240\347u\226\316\321\031\272\205b\366V\366"
 120      A0E77596 
 120      CED119BA 
 120      8562F656 
 120      F6
 121 02cc 67C77A16 		.ascii	"g\307z\026\253\360\257\034\371\032\011\264\007N\264"
 121      ABF0AF1C 
 121      F91A09B4 
 121      074EB4
 122 02db 8C73D16E 		.ascii	"\214s\321n\252\0227\315rS+\036\000\330VB\030x\272\245"
 122      AA1237CD 
 122      72532B1E 
 122      00D85642 
 122      1878BAA5 
 123 02ef 5C803601 		.ascii	"\\\2006\001*:x<\340\027\220\035\320\015\372K\011\347"
 123      2A3A783C 
 123      E017901D 
 123      D00DFA4B 
 123      09E7
 124 0301 B5C579D9 		.ascii	"\265\305y\331\202\227\327\217\227\003(\343\031\353\265"
 124      8297D78F 
 124      970328E3 
 124      19EBB5
 125 0310 C7798304 		.ascii	"\307y\203\004os?\336`@\031O\025\274Kq^\256\340i\271"
 125      6F733FDE 
 125      6040194F 
 125      15BC4B71 
 125      5EAEE069 
 126 0325 FD884300 		.ascii	"\375\210C\000fD+\203v\374\270\363,\025\330P\004\214"
 126      66442B83 
 126      76FCB8F3 
 126      2C15D850 
 126      048C
 127 0337 935F850F 		.ascii	"\223_\205\017n\335\240\307-\023\305\234\341nJYm4\361"
 127      6EDDA0C7 
 127      2D13C59C 
 127      E16E4A59 
 127      6D34F1
 128 034a 2A69EA6D 		.ascii	"*i\352m,2\240\015\372\363@|\242\204\272\3510\011\302"
 128      2C32A00D 
 128      FAF3407C 
 128      A284BAE9 
 128      3009C2
ARM GAS  /tmp/ccVm1riJ.s 			page 10


 129 035d 52FBF7DD 		.ascii	"R\373\367\335\333\242D\002\177\245\013Q\237\233\256"
 129      DBA24402 
 129      7FA50B51 
 129      9F9BAE
 130 036c B0EF7EEA 		.ascii	"\260\357~\352\211\022\031\214\223~\301\3042\373\215"
 130      8912198C 
 130      937EC1C4 
 130      32FB8D
 131 037b 4D51A280 		.ascii	"MQ\242\200!\322\215\215nZa\357\355n\210\022\025\032"
 131      21D28D8D 
 131      6E5A61EF 
 131      ED6E8812 
 131      151A
 132 038d 957A115F 		.ascii	"\225z\021_n\177\331\015\004\013\210\224vwA\242\322\336"
 132      6E7FD90D 
 132      040B8894 
 132      767741A2 
 132      D2DE
 133 039f FA74338A 		.ascii	"\372t3\212T\204\310\347-o\030\207\341\026\333\364(\213"
 133      5484C8E7 
 133      2D6F1887 
 133      E116DBF4 
 133      288B
 134 03b1 5D2CDE65 		.ascii	"],\336e\007@\227\012\0377\035\341\246\026&X7\"\260+"
 134      0740970A 
 134      1F371DE1 
 134      A6162658 
 134      3722B02B 
 135 03c5 705672D1 		.ascii	"pVr\321\036\326\311H\200\0236z\307\223@\007\025\330"
 135      1ED6C948 
 135      8013367A 
 135      C7934007 
 135      15D8
 136 03d7 288019E1 		.ascii	"(\200\031\341X\340k#9\232\031;\212o\305\213\2262\001"
 136      58E06B23 
 136      399A193B 
 136      8A6FC58B 
 136      963201
 137 03ea E4F55BE5 		.ascii	"\344\365[\345\231A\312\0078y\225O\0044\006P}\021Y\244"
 137      9941CA07 
 137      3879954F 
 137      04340650 
 137      7D1159A4 
 138 03fe C6B25DCB 		.ascii	"\306\262]\313E\220\317~W@\343\000e\233\361\350rG\266"
 138      4590CF7E 
 138      5740E300 
 138      659BF1E8 
 138      7247B6
 139 0411 48B26515 		.ascii	"H\262e\025k\302~Ta\353\340\325\225;{\317G\215\272\023"
 139      6BC27E54 
 139      61EBE0D5 
 139      953B7BCF 
 139      478DBA13 
 140 0425 6693A35A 		.ascii	"f\223\243Z\023\314U\017\220\3750\200\305\343\221\252"
 140      13CC550F 
 140      90FD3080 
 140      C5E391AA 
ARM GAS  /tmp/ccVm1riJ.s 			page 11


 141 0435 33B7181B 		.ascii	"3\267\030\033\012K^\010\2342,\232\010\313\362v\217\032"
 141      0A4B5E08 
 141      9C322C9A 
 141      08CBF276 
 141      8F1A
 142 0447 C9022807 		.ascii	"\311\002(\007\020\313\237\013<2\362\223\0304\032\363"
 142      10CB9F0B 
 142      3C32F293 
 142      18341AF3 
 143 0457 577E0E71 		.ascii	"W~\016q\211l\335FmI\212\225\201-\344[\270\374\333\011"
 143      896CDD46 
 143      6D498A95 
 143      812DE45B 
 143      B8FCDB09 
 144 046b F20B53C8 		.ascii	"\362\013S\310\247\003\313\237<\220\374)P\016\240~\362"
 144      A703CB9F 
 144      3C90FC29 
 144      500EA07E 
 144      F2
 145 047c A7322853 		.ascii	"\2472(S\371\224\313\237*\344[\231|\330\270\023\341\011"
 145      F994CB9F 
 145      2AE45B99 
 145      7CD8B813 
 145      E109
 146 048e A2F43437 		.ascii	"\242\36447v\225\264\321\323\331FS\004\373n\364\014@"
 146      7695B4D1 
 146      D3D94653 
 146      04FB6EF4 
 146      0C40
 147 04a0 998A3B7B 		.ascii	"\231\212;{\333\357\031\204\231),\220\022-\3500\272\232"
 147      DBEF1984 
 147      99292C90 
 147      122DE830 
 147      BA9A
 148 04b2 05F5B805 		.ascii	"\005\365\270\005\361\223?\033\312\001\304-\370\303\310"
 148      F1933F1B 
 148      CA01C42D 
 148      F8C3C8
 149 04c1 CF6190AC 		.ascii	"\317a\220\254[p2\331\202\205)V\0066?\373ma\207(8W\334"
 149      5B7032D9 
 149      82852956 
 149      06363FFB 
 149      6D618728 
 150 04d8 189238FC 		.ascii	"\030\2228\374\037\013\310\001h\037O\234\3747\022\300"
 150      1F0BC801 
 150      681F4F9C 
 150      FC3712C0 
 151 04e8 BE9ECC03 		.ascii	"\276\236\314\003T\367\344v\202'E)<\221\023=\271o\264"
 151      54F7E476 
 151      82274529 
 151      3C91133D 
 151      B96FB4
 152 04fb 590CF5B8 		.ascii	"Y\014\365\270'\347\215d\011\224\003\210{\362\314\310"
 152      27E78D64 
 152      09940388 
 152      7BF2CCC8 
 153 050b 973248C9 		.ascii	"\2272H\311\320\023\231{R\252\213\376+A\364\374\024\242"
ARM GAS  /tmp/ccVm1riJ.s 			page 12


 153      D013997B 
 153      52AA8BFE 
 153      2B41F4FC 
 153      14A2
 154 051d 9544D171 		.ascii	"\225D\321q}\013\342\242\343\007|!\224\003\210\213~b"
 154      7D0BE2A2 
 154      E3077C21 
 154      9403888B 
 154      7E62
 155 052f E4CB18A4 		.ascii	"\344\313\030\244f(Z\341\242\313\370\351\353\210\213"
 155      66285AE1 
 155      A2CBF8E9 
 155      EB888B
 156 053e 5E9442B4 		.ascii	"^\224B\264:\260\350\305\003\211^\002\345\000\352'\272"
 156      3AB0E8C5 
 156      03895E02 
 156      E500EA27 
 156      BA
 157 054f 9C415286 		.ascii	"\234AR\206\242U.\272\\\334\200Y\372\243\342x\340qx\214"
 157      A2552EBA 
 157      5CDC8059 
 157      FAA3E278 
 157      E071788C 
 158 0563 78682DE5 		.ascii	"xh-\345\3173Y\177\236\375\364\373\345\347\301\034\003"
 158      CF33597F 
 158      9EFDF4FB 
 158      E5E7C11C 
 158      03
 159 0574 ECF344C3 		.ascii	"\354\363D\303w\007\033\024\251\242v\275\324\261\300"
 159      77071B14 
 159      A9A276BD 
 159      D4B1C0
 160 0583 F3B0F1EE 		.ascii	"\363\260\361\356\260\014n\020\243\024\003_\204\307\013"
 160      B00C6E10 
 160      A314035F 
 160      84C70B
 161 0592 B0024E4A 		.ascii	"\260\002NJ\342\013\302\261@,<V\200\313aG\222\301#F\325"
 161      E20BC2B1 
 161      402C3C56 
 161      80CB6147 
 161      92C12346 
 162 05a7 15D07822 		.ascii	"\025\320x\"\2663\360mk\236\000+\305\357\274PY\205\377"
 162      B633F06D 
 162      6B9E002B 
 162      C5EFBC50 
 162      5985FF
 163 05ba F32A7792 		.ascii	"\363*w\222F\350\265\032\317\332u\322\330\363\362!5\036"
 163      46E8B51A 
 163      CFDA75D2 
 163      D8F3F221 
 163      351E
 164 05cc 7CBC0B98 		.ascii	"|\274\013\230\217\365J\034\016\347\312m\265[j\327\254"
 164      8FF54A1C 
 164      0EE7CA6D 
 164      B55B6AD7 
 164      AC
 165 05dd 73D6D53B 		.ascii	"s\326\325;\267\271<N_\235\277\241\336\271n\375\233%"
ARM GAS  /tmp/ccVm1riJ.s 			page 13


 165      B7B93C4E 
 165      5F9DBFA1 
 165      DEB96EFD 
 165      9B25
 166 05ef C5CED5AB 		.ascii	"\305\316\325\253_s\276\276v\325\232\017\213\235>\227"
 166      5F73BEBE 
 166      76D59A0F 
 166      8B9D3E97 
 167 05ff 6793C753 		.ascii	"g\223\307S\355\330J\324-\265\015\216y\252\267\256\272"
 167      EDD84AD4 
 167      2DB50D8E 
 167      79AAB7AE 
 167      BA
 168 0610 C66FA96B 		.ascii	"\306o\251k\370\310W\343\267\326\325\373jj\252\375\252"
 168      F8C857E3 
 168      B7D6D5FB 
 168      6A6AAAFD 
 168      AA
 169 0621 EF035FB5 		.ascii	"\357\003_\265_qy\032\3742\314\312\302/^W\375{\222\267"
 169      5F71791A 
 169      FC32CCCA 
 169      C22F5E57 
 169      FD7B92B7 
 170 0635 48F2164B 		.ascii	"H\362\026K\336\322\177\001}r\004o"
 170      DED27F01 
 170      7D72046F 
 171              		.text
 172              		.section	.gnu.lto_.symbol_nodes.844b16f61f739edb,"",%progbits
 173 0000 789C6362 		.ascii	"x\234cb`b\210g\200\002\246\011L\365\014\014\023\316"
 173      60628867 
 173      8002A609 
 173      4CF50C0C 
 173      13CE
 174 0012 3130D4D7 		.ascii	"10\324\327_\351Hd\232\310T\317\010\345^\353`d\232\304"
 174      5FE94864 
 174      9AC854CF 
 174      08E55EEB 
 174      60649AC4 
 175 0026 54CF84E0 		.ascii	"T\317\204\3402320\034z\370\017L7\265\275\221\007\363"
 175      32333230 
 175      1C7AF80F 
 175      4C37B5BD 
 175      9107F3
 176 0039 A174533B 		.ascii	"\241tS;\224\017\245\233\272\336\3103\000\000\223\344"
 176      940FA59B 
 176      BADEC833 
 176      000093E4 
 177 0049 1CD1     		.ascii	"\034\321"
 178              		.text
 179              		.section	.gnu.lto_.refs.844b16f61f739edb,"",%progbits
 180 0000 789C6362 		.ascii	"x\234cb`b`d\200\002\000\000F\000\006"
 180      60626064 
 180      80020000 
 180      460006
 181              		.text
 182              		.section	.gnu.lto_.decls.844b16f61f739edb,"",%progbits
 183 0000 789CBD59 		.ascii	"x\234\275Y\177l\023\327\035\177\357\35481\270Y\004\002"
ARM GAS  /tmp/ccVm1riJ.s 			page 14


 183      7F6C13D7 
 183      1D7FEFEC 
 183      3831B859 
 183      0402
 184 0012 316D1246 		.ascii	"1m\022F[[T5\034$lc\232T\2218\201D\013\215e\203\266\376"
 184      5B5B5435 
 184      1C246C63 
 184      9A549138 
 184      81440B8D 
 185 002a 651DF185 		.ascii	"e\035\361\205xKb\317v6\366\337#)\224ekI\002\245\351"
 185      784B62CF 
 185      7636F6DF 
 185      23299465 
 185      6B4902A5 
 186 003f 4813D325 		.ascii	"H\023\323%\205\226\337\245\005\012ik\2722EE\"\214\211"
 186      8596DFA5 
 186      050A696B 
 186      BA324545 
 186      228C89
 187 0052 B11FB078 		.ascii	"\261\037\260x\021T\254\252\242\025\255M\0074\336\367"
 187      1154ACAA 
 187      A215AD4D 
 187      0734DEF7 
 188 0062 BD3BDBF7 		.ascii	"\275;\333\367\016_|\027\241\235\364\375\336\345\374"
 188      0E5F7C17 
 188      A19DF4FD 
 188      DEE5FC
 189 0071 7D9FEFE7 		.ascii	"}\237\357\347\275\367\375~\337\273\027\001\011(\201"
 189      BDF7FD7E 
 189      DFBB1701 
 189      092881
 190 0080 114AC3B5 		.ascii	"\021J\303\265\366\033\010\371m\010\331\021BO\241\334"
 190      F61B08F9 
 190      6D08D911 
 190      424FA1DC 
 191 0090 05AFD07E 		.ascii	"\005\257\320~\220i\2202\214\036\270\350oN\220b\220R"
 191      90699032 
 191      8C1EB8E8 
 191      6F4E9062 
 191      9052
 192 00a2 1017C863 		.ascii	"\020\027\310c`w\003\356\327A\016\203\214\200\014\253"
 192      607703EE 
 192      D7410E83 
 192      8C800CAB 
 193 00b2 BFDF0479 		.ascii	"\277\337\004y\013\344c\220S \267A\316\200|\0022\012"
 193      0BE46390 
 193      5320B741 
 193      CE807C02 
 193      320A
 194 00c4 F229C855 		.ascii	"\362)\310U\220)\220k \223 \207@\260\352K\000\371\017"
 194      9029906B 
 194      20932087 
 194      40B0EA4B 
 194      00F90F
 195 00d7 C81D1D0F 		.ascii	"\310\035\035\017\312\357\021\220\307q\216G\261\206\303"
 195      CAEF1190 
 195      C7718E47 
ARM GAS  /tmp/ccVm1riJ.s 			page 15


 195      B186C3
 196 00e6 7278BF1E 		.ascii	"rx\277\036\344\036<\337\005\251\303\012\247WU\273\357"
 196      E41E3CDF 
 196      05A9C30A 
 196      A75755BB 
 196      EF
 197 00f7 61C58900 		.ascii	"a\305\211\000b\007q\200\224\200\314\303\212\317i\325"
 197      62077180 
 197      9480CCC3 
 197      8ACF69D5 
 198 0107 3F352BD5 		.ascii	"?5+\325\215\003\035\227\022\335\030\320q<\252\351\377"
 198      8D031D97 
 198      12DD18D0 
 198      713CAAE9 
 198      FF
 199 0118 428AA9F6 		.ascii	"B\212\251\366\355\232:\006\247\324\276g\372Gqh\273e"
 199      ED9A3A06 
 199      A7D4BE67 
 199      FA477168 
 199      BB65
 200 012a 70FF16C8 		.ascii	"p\377\026\310R\220z\235\257\245h\220$/\247F&^\370:I"
 200      52907A9D 
 200      AFA56890 
 200      242FA746 
 200      265EF83A 
 201 013f 7426D3E9 		.ascii	"t&\323\351\367\327\242\305\350E\002Wb\007!8.\341\247"
 201      F7D7A2C5 
 201      E8450257 
 201      62072138 
 201      2EE1A7
 202 0152 16A11F63 		.ascii	"\026\241\037c\011\227:\221\233=\270\234\014\025!\011"
 202      09973A91 
 202      9B3DB89C 
 202      0C152109 
 203 0162 BF8A17AB 		.ascii	"\277\212\027\253\263J\373\204\346\243nB:i\303\272\261"
 203      B34AFB84 
 203      E6A36E42 
 203      3A69C3BA 
 203      B1
 204 0173 D205A897 		.ascii	"\322\005\250\227\242\270\307\240\013j\373\224\220\001"
 204      A2B8C7A0 
 204      0B6AFB94 
 204      9001
 205 0181 7812AC1F 		.ascii	"x\022\254\037E\303\204\364\244n\354\037\262\021R\"\341"
 205      45C384F4 
 205      A46EEC1F 
 205      B2115222 
 205      E1
 206 0192 11BC0060 		.ascii	"\021\274\000`~\202\321\023\350uh\330C\310\344\017\362"
 206      7E82D113 
 206      E87568D8 
 206      43C8E40F 
 206      F2
 207 01a3 44082A08 		.ascii	"D\010*\010L\231\275\016`\022>\210\237P\334\220\344\275"
 207      4C99BD0E 
 207      60123E88 
 207      9F50DC90 
ARM GAS  /tmp/ccVm1riJ.s 			page 16


 207      E4BD
 208 01b5 4B2E6257 		.ascii	"K.bW\336#\365\227<\3272\224 \317v%\323\227\006`8>\300"
 208      DE23F597 
 208      3CD73294 
 208      20CF7625 
 208      D3970660 
 209 01cc 4EB49390 		.ascii	"N\264\223\220.\265C(\3570\250\275\370\352\271\013\347"
 209      2EB54328 
 209      EF30A8BD 
 209      F8EAB90B 
 209      E7
 210 01dd 71270C18 		.ascii	"q'\014\030k\3229k\023\011\037\301\217\202.vf\211\320"
 210      6BD2396B 
 210      13091FC1 
 210      8F822E76 
 210      6689D0
 211 01f0 5F8B9DB9 		.ascii	"_\213\235\271\007\232B_\243\221r\007c\216\255\011x\225"
 211      079A425F 
 211      A3917207 
 211      638EAD09 
 211      7895
 212 0202 D1F4AED1 		.ascii	"\321\364\256\321\357\263q=\016\234\004Dl<\220\352/{"
 212      EFB3713D 
 212      0E9C0444 
 212      6C3C90EA 
 212      2F7B
 213 0214 99A163D1 		.ascii	"\231\241c\321\\@\277fN\351\230\347#\252>*\227j\300\315"
 213      5C40BF66 
 213      4EE998E7 
 213      23AA3E2A 
 213      976AC0CD 
 214 0228 43EAFAFE 		.ascii	"C\352\372\376A6\017\022>\314:\321k\031\317\315\315k"
 214      41360F12 
 214      3ECC3AD1 
 214      6B19CFCD 
 214      CD6B
 215 023a DFB8AB47 		.ascii	"\337\270\253G\312\200\365\233\001+1$\227\334\243\005"
 215      CA80F59B 
 215      012B3124 
 215      97DCA305 
 216 024a 4B5806E3 		.ascii	"KX\006\343\231\355\325\202\275f\006\254\314\230Y\277"
 216      99EDD582 
 216      BD6606AC 
 216      CC9859BF 
 217 025a 16EC0DCB 		.ascii	"\026\354\015\313`Zf\333\222\247\307?\302\244\317\265"
 217      605A66DB 
 217      92A7C73F 
 217      C2A4CFB5 
 218 026a 10F511B2 		.ascii	"\020\365\021\262\215$\034Fa\0075\211\232\220YM$\234"
 218      8D241C46 
 218      61073589 
 218      9A90594D 
 218      249C
 219 027c C40BF9C4 		.ascii	"\304\013\371\304\334\267\253\224&&}_ 1Ig\362\225\361"
 219      DCB7AB94 
 219      26267D5F 
 219      20314967 
ARM GAS  /tmp/ccVm1riJ.s 			page 17


 219      F295F1
 220 028f 0135208E 		.ascii	"\0015 \216\262\316\035e\235\243m\347\020`\340\374\355"
 220      B2CE1D65 
 220      9DA36DE7 
 220      1060E0FC 
 220      ED
 221 02a0 F1F9A4DB 		.ascii	"\361\371\244\333\245V\224\304\332\203\263\020\277\240"
 221      A55694C4 
 221      DA83B310 
 221      BFA0
 222 02ae AF2843E3 		.ascii	"\257(C\343\202[y]\230\367\211\361\201%$q>S\035\310\016"
 222      825B795D 
 222      98F789F1 
 222      81252471 
 222      3E531DC8 
 223 02c3 B25CE3AB 		.ascii	"\262\\\343\253,\343\213V\321lA9\375$K\3371\326\321\343"
 223      2CE38B56 
 223      D16C4139 
 223      FD244BDF 
 223      31D6D1E3 
 224 02d7 B6BC75C0 		.ascii	"\266\274u\300\004\320\364\256\003J\035\270\310\200\336"
 224      04D0F4AE 
 224      034A1DB8 
 224      C880DE
 225 02e6 79A00ED8 		.ascii	"y\240\016\330tu\300\306'\266\315\231{H\247m\310\232"
 225      7475C0C6 
 225      27B6CD99 
 225      7B48A76D 
 225      C89A
 226 02f8 B1803E64 		.ascii	"\261\200>d\016/\344\342\217#Yh\212:S\327o\015\262\241"
 226      0E2FE4E2 
 226      8F235968 
 226      8A3A53D7 
 226      6F0DB2A1 
 227 030c CB8CC498 		.ascii	"\313\214\304\230e\2742\335\234\010\350\322\\\303F\323"
 227      65BC32DD 
 227      9C08E8D2 
 227      5CC346D3 
 228 031c 73A5D312 		.ascii	"s\245\323\022\376\000/\003\375!h\215\203\313f\222n\211"
 228      FE002F03 
 228      FD21688D 
 228      83CB6692 
 228      6E89
 229 032e 41A72183 		.ascii	"A\247!\203\317h3\370\252e07\007vV\013\36673`ncf\243"
 229      CF6833F8 
 229      AA653037 
 229      0776560B 
 229      F6373360 
 230 0346 5AB009CB 		.ascii	"Z\260\011\313`<\263\367\264`7\315\200-\237mR\270\371"
 230      603CB3F7 
 230      B46037CD 
 230      802D9F6D 
 230      52B8F9
 231 0359 C9ED0024 		.ascii	"\311\355\000$\374\006[o\017\261\231z\213\351SL\237a"
 231      FC065B6F 
 231      0FB1997A 
 231      8BE9534C 
ARM GAS  /tmp/ccVm1riJ.s 			page 18


 231      9F61
 232 036b FA2CD3A3 		.ascii	"\372,\323\243L\277\307\364\237\230\276\312\3645\246"
 232      4CBFC7F4 
 232      9F98BECA 
 232      F435A6
 233 037a FFAA9D5F 		.ascii	"\377\252\235_\243\0221\214\347ksk\226]\021D6\326\356"
 233      A312318C 
 233      E76B736B 
 233      965D1144 
 233      36D6EE
 234 038d 5F7006EA 		.ascii	"_p\006\352\233(\223\270\311\227\257`w\276\275\016g+"
 234      9B2893B8 
 234      C997AF60 
 234      77BEBD0E 
 234      672B
 235 039f E17F40DF 		.ascii	"\341\177@\337\012\232Q\303\224\276\200\375}\234m\211"
 235      0A9A51C3 
 235      94BE80FD 
 235      7D9C6D89 
 236 03af 52A62AD8 		.ascii	"R\246*\330\204\256\362\336f\263\225\232\333\322\016"
 236      84AEF2DE 
 236      66B3959A 
 236      DBD20E
 237 03be 787794A9 		.ascii	"xw\224\251W\300\246,\203\2719\260/\264`\237\233\001"
 237      57C0A62C 
 237      83B939B0 
 237      2FB4609F 
 237      9B01
 238 03d0 335AD701 		.ascii	"3Z\327\001\354\256\026\354+\313`<\263\031-X\227\335"
 238      ECAE16EC 
 238      2BCB603C 
 238      B3192D58 
 238      97DD
 239 03e2 0498D1BA 		.ascii	"\004\230\321\272\016`}W4`\317Y\006\343\231\355\325\202"
 239      0E607D57 
 239      3460CF59 
 239      06E399ED 
 239      D582
 240 03f4 FDC60C58 		.ascii	"\375\306\014X\276z\245I8%\325\376\311Rm\222%\315M\246"
 240      BE7AA549 
 240      3825D5FE 
 240      C9526D92 
 240      25CD4DA6 
 241 0408 3F66FA36 		.ascii	"?f\3726\323\2370\375)\323S|\311\354\265\353\027&%05"
 241      D39F30FD 
 241      29D3537C 
 241      C9ECB5EB 
 241      17262530 
 242 041d 1E72118C 		.ascii	"\036r\021\214\346\342\303(m\257C\332j\335l\312-r\002"
 242      E6E2C328 
 242      6DAF43DA 
 242      6ADD6CCA 
 242      2D7202
 243 0430 1AD6D1FA 		.ascii	"\032\326\321\3726\372\035!}\251\221\241\327 \035\004"
 243      36FA1D21 
 243      7DA991A1 
 243      D7201D04 
ARM GAS  /tmp/ccVm1riJ.s 			page 19


 244 0440 25E70574 		.ascii	"%\347\005t\204Y\355\307K\0156\374\324JmJ\366\375\301"
 244      8459EDC7 
 244      4B0D36FC 
 244      D44A6D4A 
 244      F6FDC1
 245 0453 D58315AF 		.ascii	"\325\203\025\257\002:Y\240\241\312\35514B\023\374\034"
 245      023A59A0 
 245      A1CAED31 
 245      344213FC 
 245      1C
 246 0464 F12E611F 		.ascii	"\361.a\037dHm\304\361\376\014\013\332\027\364\323.\221"
 246      64486DC4 
 246      F1FE0C0B 
 246      DA17F4D3 
 246      2E91
 247 0476 4C7EB6E3 		.ascii	"L~\266\343\"\354\337\310\375t\272\313n\341\323\356\313"
 247      22ECDFC8 
 247      FD74BACB 
 247      6EE1D3EE 
 247      CB
 248 0487 C29F76BA 		.ascii	"\302\237v\272\"\226\234\227\3018H?\3332\237w\377:@?"
 248      22969C97 
 248      C138483F 
 248      DB329F77 
 248      FF3A403F 
 249 049b EFF25428 		.ascii	"\357\362T(\235\275\204\357\347\257d:;j9\243/e\347\256"
 249      9DBD84EF 
 249      E7AF643A 
 249      3B6A39A3 
 249      2F65E7AE 
 250 04af B0523663 		.ascii	"\260R6c\242\224\221\344\037\257\014`\245\224M\260O\316"
 250      A29491E4 
 250      1FAF0C60 
 250      A5944DB0 
 250      4FCE
 251 04c1 B36C0E66 		.ascii	"\263l\016fr\301\317\327\316\302\273\310\277\370h&)`"
 251      72C1CFD7 
 251      CEC2BBC8 
 251      BFF86826 
 251      2960
 252 04d3 E74D8119 		.ascii	"\347M\201\031\255\326\000\366o\015\330\230)\2605\306"
 252      ADD600F6 
 252      6F0DD898 
 252      29B035C6 
 253 04e3 CCBED480 		.ascii	"\314\276\324\200\215\233\002\363\0323\353\361\347\300"
 253      8D9B02F3 
 253      1A33EBF1 
 253      E7C0
 254 04f1 FE6C0A2C 		.ascii	"\376l\012,b\314\254_\003v\303\024\330N\234\207\232&"
 254      62CCAC5F 
 254      0376C314 
 254      D84E9C87 
 254      9A26
 255 0503 FC95FA93 		.ascii	"\374\225\372\223f\365\207\0104\373;\231~\226\351\035"
 255      66F58708 
 255      34FB3B99 
 255      7E96E91D 
ARM GAS  /tmp/ccVm1riJ.s 			page 20


 256 0513 4CEF64BA 		.ascii	"L\357d\272[\340*\317\315\007*\317\214\276\362\314p\225"
 256      5BE02ACF 
 256      CD072ACF 
 256      8CBEF2CC 
 256      7095
 257 0525 C702BA51 		.ascii	"\307\002\272Qz\335\315\325\034]\301\231\312_p\266O\335"
 257      7ADDCDD5 
 257      1C5DC199 
 257      CA5F70B6 
 257      4FDD
 258 0537 B6BF4C92 		.ascii	"\266\277L\222v\245\251\204?\207d\227\360\264a\341\270"
 258      76A5A984 
 258      3F876497 
 258      F0B461E1 
 258      B8
 259 0548 CB158EE7 		.ascii	"\313\025\216\347\311\3662\234\255\034\323\372\312\361"
 259      C9F6329C 
 259      AD1CD3FA 
 259      CAF1
 260 0556 BC90AF72 		.ascii	"\274\220\257r\314|\344\352\331\226J\247\207\334\346"
 260      CC7CE4EA 
 260      D9964AA7 
 260      87DCE6
 261 0565 CB46AF60 		.ascii	"\313F\257`\\6\224#\236|-3\265b\344\310\032\366\251\262"
 261      5C369423 
 261      9E7C2D33 
 261      B562E4C8 
 261      1AF6A9B2 
 262 0579 5BA0B5F1 		.ascii	"[\240\265\361\376\003\3632\314Uj\303\035\227\351C\222"
 262      FE03F332 
 262      CC556AC3 
 262      1D97E943 
 262      92
 263 058a 647AF722 		.ascii	"dz\367\"Z7^\022\330\212Z\244\367G\027G\316\237\2513"
 263      5A375E12 
 263      D88A5AA4 
 263      F7471747 
 263      CE9FA933 
 264 059e 12CB2CFA 		.ascii	"\022\313,\372\027\303B\262\217q\330\363\2208\350\202"
 264      17C342B2 
 264      8F71D8F3 
 264      9038E882 
 265 05ae EA95A2BC 		.ascii	"\352\225\242\274Au\353\330\177\325\240RF\374$3\353\021"
 265      4175EBD8 
 265      7FD5A052 
 265      46FC2433 
 265      EB11
 266 05c0 8C828A5A 		.ascii	"\214\202\212Z\251m\223\275\027\017++\2402xg\0124\245"
 266      A96D93BD 
 266      170F2B2B 
 266      A0327867 
 266      0A34A5
 267 05d3 5699A6BB 		.ascii	"V\231\246\273/\252\213\247\322\347w\0134\245V\331PN"
 267      2FAA8BA7 
 267      D2E7770B 
 267      34A556D9 
 267      504E
ARM GAS  /tmp/ccVm1riJ.s 			page 21


 268 05e5 A6BBBB12 		.ascii	"\246\273\273\022\2308\262\301L\333q\3433\310\007sv\032"
 268      9838B2C1 
 268      4CDB71E3 
 268      33C80773 
 268      761A
 269 05f7 920FE140 		.ascii	"\222\017\341@\256\320\011g\302\226\301]\235\013\353"
 269      AED00967 
 269      C296C15D 
 269      9D0BEB
 270 0606 17A72EFF 		.ascii	"\027\247.\377\012\237 \244\014\300\005Z\357\276\320"
 270      0A9F20A4 
 270      0CC0055A 
 270      EFBED0
 271 0615 CD464120 		.ascii	"\315FA J\361\220\240[\363\246'\330\232G\337\027>\321"
 271      4AF190A0 
 271      5BF3A627 
 271      D89A47DF 
 271      173ED1
 272 0628 BC37B187 		.ascii	"\2747\261\207;I\353t`\025s\016\333w\300\273?\241\371"
 272      3B49EB74 
 272      6015730E 
 272      DB77C0BB 
 272      3FA1F9
 273 063b 72DB6E19 		.ascii	"r\333n\031\314\315\201\315h\301\272\315\200\315r,\327"
 273      CCCD81CD 
 273      68C1BACD 
 273      80CD722C 
 273      D7
 274 064c 333946CF 		.ascii	"39F\317\2532p/X\206\343\271\365\361p/\231\201\233\345"
 274      AB32702F 
 274      5886E3B9 
 274      F5F1702F 
 274      99819BE5 
 275 0660 686E0F0F 		.ascii	"hn\017\017\227\260\014\307\263\333\313\303\0350\003"
 275      97B00CC7 
 275      B3DBCBC3 
 275      1D3003
 276 066f 37CBB143 		.ascii	"7\313\261C?\017w\3142\034\317\356\267<\334i3pncv\003"
 276      3F0F77CC 
 276      321CCFEE 
 276      B73CDC69 
 276      33706E63 
 277 0685 3CDCA865 		.ascii	"<\334\250e8\236\335 \017\2274\003\227\357\370A\205;"
 277      389EDD20 
 277      0F973403 
 277      97EFF841 
 277      853B
 278 0697 CEC38D59 		.ascii	"\316\303\215Y\206\343\331\275\311\303]2\003\2672\017"
 278      86E3D9BD 
 278      C9C35D32 
 278      03B7320F 
 279 06a7 BB7C97B6 		.ascii	"\273|\227\266\230\200\003\201\326\276#l\357r\214\351"
 279      98800381 
 279      D6BE236C 
 279      EF728CE9 
 280 06b7 134C9F64 		.ascii	"\023L\237d\372m\246O3\375\016\323\347\230~\227\351\367"
 280      FA6DA64F 
ARM GAS  /tmp/ccVm1riJ.s 			page 22


 280      33FD0ED3 
 280      E7987E97 
 280      E9F7
 281 06c9 993ECFF4 		.ascii	"\231>\317\364\357\231\276`f\367s@\310\256\343f\016D"
 281      EF99BE60 
 281      66F77340 
 281      C8AEE366 
 281      0E44
 282 06db 1EC2B79F 		.ascii	"\036\302\267\237n#B\377qeDn,G\316\215\206\200[\352\326"
 282      6E2342FF 
 282      7165446E 
 282      2C47CE8D 
 282      86805BEA 
 283 06f0 A4B3D36E 		.ascii	"\244\263\323n\260\340T\256X!zZB\233C\215~1\034\023["
 283      B0E054AE 
 283      58217A5A 
 283      429B438D 
 283      7E311C13 
 284 0705 A4563112 		.ascii	"\244V1\022\216\306c\242\177\343\206\312\012\261\241"
 284      8EC663A2 
 284      7FE386CA 
 284      0AB1A1
 285 0714 A1465CEF 		.ascii	"\241F\\\357\255o\374y\205\030\221Z\003\255\255\301\025"
 285      AD6FFC79 
 285      8518915A 
 285      03ADADC1 
 285      15
 286 0725 4D7368D3 		.ascii	"Msh\323\202\\\261x[eE`K$\024\016\304\035\353\237\336"
 286      825CB178 
 286      5B654560 
 286      4B24140E 
 286      C41DEB9F 
 287 073a E4F6A098 		.ascii	"\344\366\240\230\330\336\314\344;bK\270M\026\243rL\226"
 287      D8DECCE4 
 287      3B624BB8 
 287      4D16A372 
 287      4C96
 288 074c A24D2D80 		.ascii	"\242M-\200\030\015\376B\212\312\242\024m\253\020\267"
 288      180DFE42 
 288      8ACAA214 
 288      6DAB10B7 
 289 075c 343595C3 		.ascii	"45\225\303C\271\334\266Y\016\006\345`\366E{\270].\227"
 289      43B9DCB6 
 289      590E06E5 
 289      60F6457B 
 289      B85D2E97 
 290 0770 A5CDA1F2 		.ascii	"\245\315\241\362\325\2015\345\025+W\255\376Y\205\310"
 290      D58135E5 
 290      152B57AD 
 290      FE5985C8 
 291 0780 FD2086DA 		.ascii	"\375 \206\332\233Z;\202\262\030\213\007C\355q\340Q\322"
 291      9B5A3B82 
 291      B2188B07 
 291      43ED71E0 
 291      51D2
 292 0792 01772012 		.ascii	"\001w \022\357\302\377?\357mRSK\250]\026\003A\271Y\352"
 292      EFC2FF3F 
ARM GAS  /tmp/ccVm1riJ.s 			page 23


 292      EF6D5253 
 292      4BA85D16 
 292      0341B959 
 293 07a7 688D07E2 		.ascii	"h\215\007\342\277\214\3101`3/\020\310\360)\332\320X"
 293      BF8CC831 
 293      60332F10 
 293      C8F029DA 
 293      D058
 294 07b9 53EB7334 		.ascii	"S\353s4n|\306[\353+n\364{kkk|E\336M\336\032\237"
 294      6E7CC65B 
 294      EB2B6EF4 
 294      7B6B6B6B 
 294      7C45DE4D 
 295 07d0 AD1EA4B1 		.ascii	"\255\036\244\261\306\207\177\304\330\257\372n \2566"
 295      C6877FC4 
 295      D8AFFA6E 
 295      20AE36
 296 07df A48FB698 		.ascii	"\244\217\266\230\034/jj\005\356\270\316^\355\367\371"
 296      1C2F6A6A 
 296      05EEB8CE 
 296      5EEDF7F9 
 297 07ef EC0D9E1F 		.ascii	"\354\015\236\037\372\354U\353|\015T\325\331\252}\276"
 297      FAEC55EB 
 297      7C0D54D5 
 297      D9AA7DBE 
 298 07ff A2B67050 		.ascii	"\242\266pP\216:\302\324o\2648\034\213\310r0Z\024\351"
 298      8E3AC2D4 
 298      6FB4381C 
 298      8BC87230 
 298      5A14E9
 299 0812 8804A3B6 		.ascii	"\210\004\243\266p0j\227\232\243\255T\265,\320L\023\340"
 299      70306A97 
 299      9AA3AD54 
 299      B52CD04C 
 299      13E0
 300 0824 764402F1 		.ascii	"vD\002\361\222P{(N_\024Q\025q4\205\333\233C[\034\336"
 300      92507B28 
 300      4E5F1451 
 300      15713485 
 300      DB9B435B 
 301 083a AA1A292E 		.ascii	"\252\032).9\274\325\312\315\243\334j\224[\255r[GoNo"
 301      39BCD5CA 
 301      CDA3DC6A 
 301      945BAD72 
 301      5B476F4E 
 302 084f 558387B5 		.ascii	"U\203\207\265y$\240\306C\200B\316\0030\210\232P0\020"
 302      7924A0C6 
 302      438042CE 
 302      0330889A 
 302      503010
 303 0862 77298F6D 		.ascii	"w)\217mR\354\247\324_\230\262\015\304\027e\315\201\311"
 303      52ECA7D4 
 303      5F98B20D 
 303      C41765CD 
 303      81C9
 304 0874 9668B823 		.ascii	"\226h\270#B\337\333\251\245\235\232\332\351\237\272"
 304      42DFDBA9 
ARM GAS  /tmp/ccVm1riJ.s 			page 24


 304      A59D9ADA 
 304      E99FBA
 305 0883 5894B7C6 		.ascii	"X\224\267\306E\317\006\177\275\037bQ\011\307u\225[\267"
 305      45CF067F 
 305      BD1F6251 
 305      09C77595 
 305      5BB7
 306 0895 8AAC57CD 		.ascii	"\212\254W\315\225++\2676\301\250\317\367y<\201\2150"
 306      952B2BB7 
 306      36C1A8CF 
 306      F7793C81 
 306      8D30
 307 08a7 143572B3 		.ascii	"\0245r\263\340\361\331=\353\326\373l\236z_I\225\267"
 307      E0F1D93D 
 307      EBD6FB6C 
 307      9E7A5F49 
 307      95B7
 308 08b9 BAC2E7DF 		.ascii	"\272\302\347\337\310\036V\321\007GU]u\355\323\276b\372"
 308      C81E56D1 
 308      0747555D 
 308      75EDD3BE 
 308      62FA
 309 08cb 837A5F05 		.ascii	"\203z_\005w{u\215\007Z\370\341E]5\265+\242\020\025L"
 309      777B758D 
 309      075AF8E1 
 309      455D35B5 
 309      2BA21015 
 310 08e0 57FE0FD3 		.ascii	"W\376\017\323^\006/"
 310      5E062F
 311              		.text
 312              		.section	.gnu.lto_.symtab.844b16f61f739edb,"",%progbits
 313 0000 5F70616C 		.ascii	"_pal_lld_init\000\000\000\000\000\000\000\000\000\000"
 313      5F6C6C64 
 313      5F696E69 
 313      74000000 
 313      00000000 
 314 0017 0000F700 		.ascii	"\000\000\367\000\000\000_pal_lld_setgroupmode\000\000"
 314      00005F70 
 314      616C5F6C 
 314      6C645F73 
 314      65746772 
 315 0034 00000000 		.ascii	"\000\000\000\000\000\000\000\000\000\000\020\001\000"
 315      00000000 
 315      00001001 
 315      00
 316 0041 00       		.ascii	"\000"
 317              		.text
 318              		.section	.gnu.lto_.opts,"",%progbits
 319 0000 272D6D63 		.ascii	"'-mcpu=cortex-m4' '-mno-thumb-interwork' '-mthumb' "
 319      70753D63 
 319      6F727465 
 319      782D6D34 
 319      2720272D 
 320 0033 272D6767 		.ascii	"'-ggdb' '-O0' '-fomit-frame-pointer' '-falign-funct"
 320      64622720 
 320      272D4F30 
 320      2720272D 
ARM GAS  /tmp/ccVm1riJ.s 			page 25


 320      666F6D69 
 321 0066 696F6E73 		.ascii	"ions=16' '-ffunction-sections' '-fdata-sections' '-"
 321      3D313627 
 321      20272D66 
 321      66756E63 
 321      74696F6E 
 322 0099 666E6F2D 		.ascii	"fno-common' '-flto'\000"
 322      636F6D6D 
 322      6F6E2720 
 322      272D666C 
 322      746F2700 
 323              		.text
 324              		.cfi_sections	.debug_frame
 325              		.section	.text.initgpio,"ax",%progbits
 326              		.align	2
 327              		.p2align 4,,15
 328              		.thumb
 329              		.thumb_func
 330              		.type	initgpio, %function
 331              	initgpio:
 332              	.LFB272:
 333              		.file 1 "../ChibiOS/os/hal/ports/STM32/LLD/GPIOv2/pal_lld.c"
 334              		.loc 1 61 0
 335              		.cfi_startproc
 336              		@ args = 0, pretend = 0, frame = 8
 337              		@ frame_needed = 0, uses_anonymous_args = 0
 338              		@ link register save eliminated.
 339 0000 82B0     		sub	sp, sp, #8
 340              		.cfi_def_cfa_offset 8
 341 0002 0190     		str	r0, [sp, #4]
 342 0004 0091     		str	r1, [sp]
 343              		.loc 1 63 0
 344 0006 009B     		ldr	r3, [sp]
 345 0008 5A68     		ldr	r2, [r3, #4]
 346 000a 019B     		ldr	r3, [sp, #4]
 347 000c 5A60     		str	r2, [r3, #4]
 348              		.loc 1 64 0
 349 000e 009B     		ldr	r3, [sp]
 350 0010 9A68     		ldr	r2, [r3, #8]
 351 0012 019B     		ldr	r3, [sp, #4]
 352 0014 9A60     		str	r2, [r3, #8]
 353              		.loc 1 65 0
 354 0016 009B     		ldr	r3, [sp]
 355 0018 DA68     		ldr	r2, [r3, #12]
 356 001a 019B     		ldr	r3, [sp, #4]
 357 001c DA60     		str	r2, [r3, #12]
 358              		.loc 1 66 0
 359 001e 009B     		ldr	r3, [sp]
 360 0020 1A69     		ldr	r2, [r3, #16]
 361 0022 019B     		ldr	r3, [sp, #4]
 362 0024 5A61     		str	r2, [r3, #20]
 363              		.loc 1 67 0
 364 0026 009B     		ldr	r3, [sp]
 365 0028 5A69     		ldr	r2, [r3, #20]
 366 002a 019B     		ldr	r3, [sp, #4]
 367 002c 1A62     		str	r2, [r3, #32]
 368              		.loc 1 68 0
ARM GAS  /tmp/ccVm1riJ.s 			page 26


 369 002e 009B     		ldr	r3, [sp]
 370 0030 9A69     		ldr	r2, [r3, #24]
 371 0032 019B     		ldr	r3, [sp, #4]
 372 0034 5A62     		str	r2, [r3, #36]
 373              		.loc 1 69 0
 374 0036 009B     		ldr	r3, [sp]
 375 0038 1A68     		ldr	r2, [r3]
 376 003a 019B     		ldr	r3, [sp, #4]
 377 003c 1A60     		str	r2, [r3]
 378              		.loc 1 70 0
 379 003e 02B0     		add	sp, sp, #8
 380              		@ sp needed
 381 0040 7047     		bx	lr
 382              		.cfi_endproc
 383              	.LFE272:
 384              		.size	initgpio, .-initgpio
 385 0042 00BFAFF3 		.section	.text._pal_lld_init,"ax",%progbits
 385      0080AFF3 
 385      0080AFF3 
 385      0080
 386              		.align	2
 387              		.p2align 4,,15
 388              		.global	_pal_lld_init
 389              		.thumb
 390              		.thumb_func
 391              		.type	_pal_lld_init, %function
 392              	_pal_lld_init:
 393              	.LFB273:
 394              		.loc 1 88 0
 395              		.cfi_startproc
 396              		@ args = 0, pretend = 0, frame = 8
 397              		@ frame_needed = 0, uses_anonymous_args = 0
 398 0000 00B5     		push	{lr}
 399              		.cfi_def_cfa_offset 4
 400              		.cfi_offset 14, -4
 401 0002 83B0     		sub	sp, sp, #12
 402              		.cfi_def_cfa_offset 16
 403 0004 0190     		str	r0, [sp, #4]
 404              		.loc 1 102 0
 405 0006 164B     		ldr	r3, .L3
 406 0008 154A     		ldr	r2, .L3
 407 000a 5269     		ldr	r2, [r2, #20]
 408 000c 42F4FC02 		orr	r2, r2, #8257536
 409 0010 5A61     		str	r2, [r3, #20]
 410              		.loc 1 112 0
 411 0012 019B     		ldr	r3, [sp, #4]
 412 0014 4FF09040 		mov	r0, #1207959552
 413 0018 1946     		mov	r1, r3
 414 001a FFF7FEFF 		bl	initgpio
 415              		.loc 1 115 0
 416 001e 019B     		ldr	r3, [sp, #4]
 417 0020 1C33     		adds	r3, r3, #28
 418 0022 1048     		ldr	r0, .L3+4
 419 0024 1946     		mov	r1, r3
 420 0026 FFF7FEFF 		bl	initgpio
 421              		.loc 1 118 0
 422 002a 019B     		ldr	r3, [sp, #4]
ARM GAS  /tmp/ccVm1riJ.s 			page 27


 423 002c 3833     		adds	r3, r3, #56
 424 002e 0E48     		ldr	r0, .L3+8
 425 0030 1946     		mov	r1, r3
 426 0032 FFF7FEFF 		bl	initgpio
 427              		.loc 1 121 0
 428 0036 019B     		ldr	r3, [sp, #4]
 429 0038 5433     		adds	r3, r3, #84
 430 003a 0C48     		ldr	r0, .L3+12
 431 003c 1946     		mov	r1, r3
 432 003e FFF7FEFF 		bl	initgpio
 433              		.loc 1 124 0
 434 0042 019B     		ldr	r3, [sp, #4]
 435 0044 7033     		adds	r3, r3, #112
 436 0046 0A48     		ldr	r0, .L3+16
 437 0048 1946     		mov	r1, r3
 438 004a FFF7FEFF 		bl	initgpio
 439              		.loc 1 127 0
 440 004e 019B     		ldr	r3, [sp, #4]
 441 0050 8C33     		adds	r3, r3, #140
 442 0052 0848     		ldr	r0, .L3+20
 443 0054 1946     		mov	r1, r3
 444 0056 FFF7FEFF 		bl	initgpio
 445              		.loc 1 144 0
 446 005a 03B0     		add	sp, sp, #12
 447              		@ sp needed
 448 005c 5DF804FB 		ldr	pc, [sp], #4
 449              	.L4:
 450              		.align	2
 451              	.L3:
 452 0060 00100240 		.word	1073876992
 453 0064 00040048 		.word	1207960576
 454 0068 00080048 		.word	1207961600
 455 006c 000C0048 		.word	1207962624
 456 0070 00100048 		.word	1207963648
 457 0074 00140048 		.word	1207964672
 458              		.cfi_endproc
 459              	.LFE273:
 460              		.size	_pal_lld_init, .-_pal_lld_init
 461 0078 AFF30080 		.section	.text._pal_lld_setgroupmode,"ax",%progbits
 461      AFF30080 
 462              		.align	2
 463              		.p2align 4,,15
 464              		.global	_pal_lld_setgroupmode
 465              		.thumb
 466              		.thumb_func
 467              		.type	_pal_lld_setgroupmode, %function
 468              	_pal_lld_setgroupmode:
 469              	.LFB274:
 470              		.loc 1 161 0
 471              		.cfi_startproc
 472              		@ args = 0, pretend = 0, frame = 56
 473              		@ frame_needed = 0, uses_anonymous_args = 0
 474              		@ link register save eliminated.
 475 0000 8EB0     		sub	sp, sp, #56
 476              		.cfi_def_cfa_offset 56
 477 0002 0390     		str	r0, [sp, #12]
 478 0004 0291     		str	r1, [sp, #8]
ARM GAS  /tmp/ccVm1riJ.s 			page 28


 479 0006 0192     		str	r2, [sp, #4]
 480              		.loc 1 163 0
 481 0008 019B     		ldr	r3, [sp, #4]
 482 000a 03F00303 		and	r3, r3, #3
 483 000e 0D93     		str	r3, [sp, #52]
 484              		.loc 1 164 0
 485 0010 019B     		ldr	r3, [sp, #4]
 486 0012 03F00403 		and	r3, r3, #4
 487 0016 9B08     		lsrs	r3, r3, #2
 488 0018 0C93     		str	r3, [sp, #48]
 489              		.loc 1 165 0
 490 001a 019B     		ldr	r3, [sp, #4]
 491 001c 03F01803 		and	r3, r3, #24
 492 0020 DB08     		lsrs	r3, r3, #3
 493 0022 0B93     		str	r3, [sp, #44]
 494              		.loc 1 166 0
 495 0024 019B     		ldr	r3, [sp, #4]
 496 0026 03F06003 		and	r3, r3, #96
 497 002a 5B09     		lsrs	r3, r3, #5
 498 002c 0A93     		str	r3, [sp, #40]
 499              		.loc 1 167 0
 500 002e 019B     		ldr	r3, [sp, #4]
 501 0030 03F4F063 		and	r3, r3, #1920
 502 0034 DB09     		lsrs	r3, r3, #7
 503 0036 0893     		str	r3, [sp, #32]
 504              		.loc 1 168 0
 505 0038 0023     		movs	r3, #0
 506 003a 0993     		str	r3, [sp, #36]
 507              	.L11:
 508              		.loc 1 170 0
 509 003c 029B     		ldr	r3, [sp, #8]
 510 003e 03F00103 		and	r3, r3, #1
 511 0042 002B     		cmp	r3, #0
 512 0044 54D0     		beq	.L6
 513              	.LBB2:
 514              		.loc 1 173 0
 515 0046 099B     		ldr	r3, [sp, #36]
 516 0048 03F00703 		and	r3, r3, #7
 517 004c 9B00     		lsls	r3, r3, #2
 518 004e 089A     		ldr	r2, [sp, #32]
 519 0050 02FA03F3 		lsl	r3, r2, r3
 520 0054 0793     		str	r3, [sp, #28]
 521              		.loc 1 174 0
 522 0056 099B     		ldr	r3, [sp, #36]
 523 0058 03F00703 		and	r3, r3, #7
 524 005c 9B00     		lsls	r3, r3, #2
 525 005e 0F22     		movs	r2, #15
 526 0060 02FA03F3 		lsl	r3, r2, r3
 527 0064 0693     		str	r3, [sp, #24]
 528              		.loc 1 175 0
 529 0066 099B     		ldr	r3, [sp, #36]
 530 0068 072B     		cmp	r3, #7
 531 006a 09D8     		bhi	.L7
 532              		.loc 1 176 0
 533 006c 039B     		ldr	r3, [sp, #12]
 534 006e 1A6A     		ldr	r2, [r3, #32]
 535 0070 069B     		ldr	r3, [sp, #24]
ARM GAS  /tmp/ccVm1riJ.s 			page 29


 536 0072 DB43     		mvns	r3, r3
 537 0074 1A40     		ands	r2, r2, r3
 538 0076 079B     		ldr	r3, [sp, #28]
 539 0078 1A43     		orrs	r2, r2, r3
 540 007a 039B     		ldr	r3, [sp, #12]
 541 007c 1A62     		str	r2, [r3, #32]
 542 007e 08E0     		b	.L8
 543              	.L7:
 544              		.loc 1 178 0
 545 0080 039B     		ldr	r3, [sp, #12]
 546 0082 5A6A     		ldr	r2, [r3, #36]
 547 0084 069B     		ldr	r3, [sp, #24]
 548 0086 DB43     		mvns	r3, r3
 549 0088 1A40     		ands	r2, r2, r3
 550 008a 079B     		ldr	r3, [sp, #28]
 551 008c 1A43     		orrs	r2, r2, r3
 552 008e 039B     		ldr	r3, [sp, #12]
 553 0090 5A62     		str	r2, [r3, #36]
 554              	.L8:
 555              		.loc 1 179 0
 556 0092 099B     		ldr	r3, [sp, #36]
 557 0094 0122     		movs	r2, #1
 558 0096 02FA03F3 		lsl	r3, r2, r3
 559 009a 0593     		str	r3, [sp, #20]
 560              		.loc 1 180 0
 561 009c 039B     		ldr	r3, [sp, #12]
 562 009e 5A68     		ldr	r2, [r3, #4]
 563 00a0 059B     		ldr	r3, [sp, #20]
 564 00a2 DB43     		mvns	r3, r3
 565 00a4 1A40     		ands	r2, r2, r3
 566 00a6 0C9B     		ldr	r3, [sp, #48]
 567 00a8 1A43     		orrs	r2, r2, r3
 568 00aa 039B     		ldr	r3, [sp, #12]
 569 00ac 5A60     		str	r2, [r3, #4]
 570              		.loc 1 181 0
 571 00ae 099B     		ldr	r3, [sp, #36]
 572 00b0 5B00     		lsls	r3, r3, #1
 573 00b2 0322     		movs	r2, #3
 574 00b4 02FA03F3 		lsl	r3, r2, r3
 575 00b8 0493     		str	r3, [sp, #16]
 576              		.loc 1 182 0
 577 00ba 039B     		ldr	r3, [sp, #12]
 578 00bc 9A68     		ldr	r2, [r3, #8]
 579 00be 049B     		ldr	r3, [sp, #16]
 580 00c0 DB43     		mvns	r3, r3
 581 00c2 1A40     		ands	r2, r2, r3
 582 00c4 0B9B     		ldr	r3, [sp, #44]
 583 00c6 1A43     		orrs	r2, r2, r3
 584 00c8 039B     		ldr	r3, [sp, #12]
 585 00ca 9A60     		str	r2, [r3, #8]
 586              		.loc 1 183 0
 587 00cc 039B     		ldr	r3, [sp, #12]
 588 00ce DA68     		ldr	r2, [r3, #12]
 589 00d0 049B     		ldr	r3, [sp, #16]
 590 00d2 DB43     		mvns	r3, r3
 591 00d4 1A40     		ands	r2, r2, r3
 592 00d6 0A9B     		ldr	r3, [sp, #40]
ARM GAS  /tmp/ccVm1riJ.s 			page 30


 593 00d8 1A43     		orrs	r2, r2, r3
 594 00da 039B     		ldr	r3, [sp, #12]
 595 00dc DA60     		str	r2, [r3, #12]
 596              		.loc 1 184 0
 597 00de 039B     		ldr	r3, [sp, #12]
 598 00e0 1A68     		ldr	r2, [r3]
 599 00e2 049B     		ldr	r3, [sp, #16]
 600 00e4 DB43     		mvns	r3, r3
 601 00e6 1A40     		ands	r2, r2, r3
 602 00e8 0D9B     		ldr	r3, [sp, #52]
 603 00ea 1A43     		orrs	r2, r2, r3
 604 00ec 039B     		ldr	r3, [sp, #12]
 605 00ee 1A60     		str	r2, [r3]
 606              	.L6:
 607              	.LBE2:
 608              		.loc 1 186 0
 609 00f0 029B     		ldr	r3, [sp, #8]
 610 00f2 5B08     		lsrs	r3, r3, #1
 611 00f4 0293     		str	r3, [sp, #8]
 612              		.loc 1 187 0
 613 00f6 029B     		ldr	r3, [sp, #8]
 614 00f8 002B     		cmp	r3, #0
 615 00fa 00D1     		bne	.L9
 616              		.loc 1 188 0
 617 00fc 0FE0     		b	.L12
 618              	.L9:
 619              		.loc 1 189 0
 620 00fe 0C9B     		ldr	r3, [sp, #48]
 621 0100 5B00     		lsls	r3, r3, #1
 622 0102 0C93     		str	r3, [sp, #48]
 623              		.loc 1 190 0
 624 0104 0B9B     		ldr	r3, [sp, #44]
 625 0106 9B00     		lsls	r3, r3, #2
 626 0108 0B93     		str	r3, [sp, #44]
 627              		.loc 1 191 0
 628 010a 0A9B     		ldr	r3, [sp, #40]
 629 010c 9B00     		lsls	r3, r3, #2
 630 010e 0A93     		str	r3, [sp, #40]
 631              		.loc 1 192 0
 632 0110 0D9B     		ldr	r3, [sp, #52]
 633 0112 9B00     		lsls	r3, r3, #2
 634 0114 0D93     		str	r3, [sp, #52]
 635              		.loc 1 193 0
 636 0116 099B     		ldr	r3, [sp, #36]
 637 0118 0133     		adds	r3, r3, #1
 638 011a 0993     		str	r3, [sp, #36]
 639              		.loc 1 194 0
 640 011c 8EE7     		b	.L11
 641              	.L12:
 642              		.loc 1 195 0
 643 011e 0EB0     		add	sp, sp, #56
 644              		@ sp needed
 645 0120 7047     		bx	lr
 646              		.cfi_endproc
 647              	.LFE274:
 648              		.size	_pal_lld_setgroupmode, .-_pal_lld_setgroupmode
 649 0122 00BFAFF3 		.text
ARM GAS  /tmp/ccVm1riJ.s 			page 31


 649      0080AFF3 
 649      0080AFF3 
 649      0080
 650              	.Letext0:
 651              		.file 2 "/nfs/nfs5/home/research/hardware/arm2/gcc-arm-embedded/gcc-arm-none-eabi-4_8-2014q2/arm-n
 652              		.file 3 "/nfs/nfs5/home/research/hardware/arm2/gcc-arm-embedded/gcc-arm-none-eabi-4_8-2014q2/arm-n
 653              		.file 4 "../ChibiOS/os/rt/ports/ARMCMx/compilers/GCC/chtypes.h"
 654              		.file 5 "../ChibiOS/os/rt/include/chsystypes.h"
 655              		.file 6 "../ChibiOS/os/rt/include/chschd.h"
 656              		.file 7 "../ChibiOS/os/ext/CMSIS/ST/STM32F3xx/stm32f303xc.h"
 657              		.file 8 "../ChibiOS/os/rt/ports/ARMCMx/chcore.h"
 658              		.file 9 "../ChibiOS/os/rt/ports/ARMCMx/chcore_v7m.h"
 659              		.file 10 "../ChibiOS/os/rt/include/chtm.h"
 660              		.file 11 "../ChibiOS/os/rt/include/chsem.h"
 661              		.file 12 "../ChibiOS/os/rt/include/chmtx.h"
 662              		.file 13 "../ChibiOS/os/hal/ports/STM32/LLD/GPIOv2/pal_lld.h"
 663              		.file 14 "../ChibiOS/os/ext/CMSIS/include/core_cm4.h"