ARM GAS  /tmp/ccVm1riJ.s 			page 1


   1              		.syntax unified
   2              		.cpu cortex-m4
   3              		.fpu softvfp
   4              		.eabi_attribute 20, 1
   5              		.eabi_attribute 21, 1
   6              		.eabi_attribute 23, 3
   7              		.eabi_attribute 24, 1
   8              		.eabi_attribute 25, 1
   9              		.eabi_attribute 26, 1
  10              		.eabi_attribute 30, 6
  11              		.eabi_attribute 34, 1
  12              		.eabi_attribute 18, 4
  13              		.thumb
  14              		.file	"pal_lld.c"
  15              		.text
  16              	.Ltext0:
  17              		.section	.gnu.lto_.inline.844b16f61f739edb,"",%progbits
  18 0000 789C6362 		.ascii	"x\234cb`b\300\006\242\24043\003\203\240\000\003\003"
  18      6062C006 
  18      A2A03433 
  18      0383A000 
  18      0303
  19 0012 935CC32F 		.ascii	"\223\\\303/F\006\026\210bF\006\211\263@\212\211c\202"
  19      46061688 
  19      62460689 
  19      B3408A89 
  19      6382
  20 0024 1F4C8899 		.ascii	"\037L\210\231\007\037\301\304p\200\301\036H\325l\270"
  20      071FC1C4 
  20      7080C11E 
  20      48D56CB8 
  21 0034 C10ED3C1 		.ascii	"\301\016\323\301\000\000`\370\007f"
  21      000060F8 
  21      0766
  22              		.text
  23              		.section	.gnu.lto_initgpio.844b16f61f739edb,"",%progbits
  24 0000 789C9D92 		.ascii	"x\234\235\222\317K\002A\024\200\337\333\337n\005\005"
  24      CF4B0241 
  24      1480DFDB 
  24      DF6E0505 
  25 0010 5D3A0452 		.ascii	"]:\004R\307\300%\245\277\240 \002\303@\203:\205\032"
  25      C7C025A5 
  25      BFA02002 
  25      C340833A 
  25      851A
  26 0022 E8C28692 		.ascii	"\350\302\206\222\321\325U:D\204\210D\210\021\326-\272"
  26      D1D5553A 
  26      44848844 
  26      8811D62D 
  26      BA
  27 0033 78ED281D 		.ascii	"x\355(\035\202\016\202\335\":H\021\375\013vi\233\331"
  27      820E82DD 
  27      223A4811 
  27      FD0B7669 
  27      9BD9
  28 0045 1DC93A2C 		.ascii	"\035\311:,5\017\366\355\033f\277\371\336\362F\000\001"
  28      350FF6ED 
ARM GAS  /tmp/ccVm1riJ.s 			page 2


  28      1B66BFF9 
  28      DEF24600 
  28      01
  29 0056 7EC72479 		.ascii	"~\307$y>$\200\005\272\020\001\311\027( \222\005BQ\300"
  29      3E248005 
  29      BA1001C9 
  29      17282092 
  29      054251C0 
  30 006a E2262D41 		.ascii	"\342&-A\235\201K\333\256\365\336\232\347SG\027\345\252"
  30      9D814BDB 
  30      AEF5DE9A 
  30      E7534717 
  30      E5AA
  31 007c FDE93868 		.ascii	"\375\3518h\322\2554\302\006\2510\350\276\004\351\347"
  31      D2AD34C2 
  31      06A930E8 
  31      BE04E9E7 
  32 008c E91ED6AE 		.ascii	"\351\036\326\256\336\035\353\325\322\241\3558\305\277"
  32      DE1DEBD5 
  32      D2A1ED38 
  32      C5BF
  33 009a 43351EE8 		.ascii	"C5\036\350\204\007:\345\201\352<P\343_PKh\367\034\347"
  33      84073AE5 
  33      81EA3C50 
  33      E35F504B 
  33      68F71CE7 
  34 00ae B9F5DEAB 		.ascii	"\271\365\336\253\340\204\216\270\203d\200\204\023I\205"
  34      E0848EB8 
  34      83648084 
  34      134985
  35 00bd 12AD649A 		.ascii	"\022\255d\232\024\232T\2324\232\002\340\036M\366\016"
  35      149A549A 
  35      349A02E0 
  35      1E4DF60E 
  36 00cd 6CBB1A74 		.ascii	"l\273\032t%$\022n^\247\003\026;P~\3527\247\223x\205"
  36      2524126E 
  36      5EA70316 
  36      3B507EEA 
  36      37A79378 
  37 00e2 32645098 		.ascii	"2dP\230\203k{\334D\361\014\032\244\015)\203H\333\221"
  37      836B7BDC 
  37      44F10C1A 
  37      A40D2983 
  37      48DB91
  38 00f5 DD265238 		.ascii	"\335&R8h\247\003\267\367]\335\203(qP\262\347MT<H\315"
  38      68A703B7 
  38      F75DDD83 
  38      287150B2 
  38      E74D543C 
  39 010b A048218D 		.ascii	"\240H!\215A\036\225\241:j\253\277t\305\201N\362\327"
  39      411E95A1 
  39      3A6AABBF 
  39      74C5814E 
  39      F2D7
  40 011d 093C3A91 		.ascii	"\011<:\221\351$Ow3\244\223\375u\022\217Nf:\331\323="
  40      E9244F77 
  40      33A493FD 
ARM GAS  /tmp/ccVm1riJ.s 			page 3


  40      75128F4E 
  40      663AD9D3 
  41 0132 0EE9147F 		.ascii	"\016\351\024\177\235\302\243S\231N\361t\375!\235\352"
  41      9DC2A353 
  41      994EF174 
  41      FD219DEA 
  42 0142 AFD37874 		.ascii	"\257\323xt\001\246S\331\354^\277u\232\277N\347\321\215"
  42      01A653D9 
  42      EC5EBF75 
  42      9ABF4EE7 
  42      D18D
  43 0154 309DC666 		.ascii	"0\235\306f7\244\013\370\353FytcLG\376\362\001J\275\312"
  43      37A40BF8 
  43      EB467974 
  43      634C47FE 
  43      F2014ABD 
  44 0169 ACC70D22 		.ascii	"\254\307\015\"A\257.\275\203\221P\310X\314\232)3\026"
  44      41AF2EBD 
  44      839150C8 
  44      58CC9A29 
  44      3316
  45 017b 37720523 		.ascii	"7r\005#\233\264\214|nw\257`\304\023\253\221\260\021"
  45      9BB48C7C 
  45      6E77AF60 
  45      C413AB91 
  45      B011
  46 018d 8D2E19CB 		.ascii	"\215.\031\313k+\261\375\260\221OZ[\226\265\035J\303"
  46      6B2BB1FD 
  46      B0914F5A 
  46      5B96B51D 
  46      4AC3
  47 019f 17FEA21A 		.ascii	"\027\376\242\032\227"
  47      97
  48              		.text
  49              		.section	.gnu.lto__pal_lld_init.844b16f61f739edb,"",%progbits
  50 0000 789CB592 		.ascii	"x\234\265\222\301K\024Q\034\307\177\277\367ffwf\005"
  50      C14B1451 
  50      1CC77FBF 
  50      F7666677 
  50      6605
  51 0012 233A1875 		.ascii	"#:\030u\020\241S\260\003J\320\275 \004\305\300\015\262"
  51      10A153B0 
  51      034AD0BD 
  51      2004C5C0 
  51      0DB2
  52 0024 4BAC1BAC 		.ascii	"K\254\033\254\003\033JZ\227\016\373[5X\302h\350$yY\351"
  52      031B4A5A 
  52      970EFB5B 
  52      3558C268 
  52      E8247959 
  53 0039 B2141174 		.ascii	"\262\024\021t1oK \236$\274\210\207\016K\320\037Pv\020"
  53      316F4B20 
  53      9E24BC88 
  53      870E4BD0 
  53      1F507610 
  54 004d 29A7F79B 		.ascii	")\247\367\233\2673[\346af\241\037\314w\336\343\367\373"
  54      B7335BE6 
ARM GAS  /tmp/ccVm1riJ.s 			page 4


  54      6166A11F 
  54      CC77DEE3 
  54      F7FB
  55 005f 7E3FEF31 		.ascii	"~?\3571#@\300\311:\247\236\213\026\300\025\336H@5\201"
  55      2340C0C9 
  55      3AA79E8B 
  55      16C015DE 
  55      48403581 
  56 0073 02516D10 		.ascii	"\002Qm\020\252\002\253S\274\004g\010\326\211^\264\267"
  56      AA02AB53 
  56      BC046708 
  56      D6895EB4 
  56      B7
  57 0084 0E56CF3F 		.ascii	"\016V\317?m,\372t\034\004\350q\253\204p[\255p0|\011"
  57      6D2CFA74 
  57      1C04E871 
  57      AB84705B 
  57      AD70307C 
  58 0099 E3EF746D 		.ascii	"\343\357tm\243\367M\262\033\3643\010do\036\371\377<"
  58      A3F74DB2 
  58      1BF43308 
  58      646F1EF9 
  58      FF3C
  59 00ab ADDDED67 		.ascii	"\255\335\355g\177^\311Hh\333\333^q\374Z\235\202\240"
  59      7F5EC948 
  59      68DBDB5E 
  59      71FC5A9D 
  59      82A0
  60 00bd 9ADCF4B9 		.ascii	"\232\334\364\271\027\323\367^L\207\275\230\216S\231"
  60      17D3F75E 
  60      4C87BD98 
  60      8E5399
  61 00cc DE89563B 		.ascii	"\336\211V;\010V6~|i\342\331>\004\365i\005\213T\"\015"
  61      0856367E 
  61      7C69E2D9 
  61      3E04F569 
  61      058B5422 
  62 00e1 1613EF23 		.ascii	"\026\023\357#XjedX\262,6\213\303\222\203\020\002&,\023"
  62      586A6564 
  62      58B22C36 
  62      8BC39283 
  62      1002262C 
  63 00f6 F983214E 		.ascii	"\371\203!NU!\324[\374#\312\035X\374\260\1770P\3047h"
  63      5521D45B 
  63      FC23CA1D 
  63      58FCB07F 
  63      3050C437 
  64 010b 4219918F 		.ascii	"B\031\221\217\001\324\250\023\373T\363j\324\021':\037"
  64      01D4A813 
  64      FB54F36A 
  64      D411273A 
  64      1F
  65 011c EF441D79 		.ascii	"\357D\035y\031^\323r\355\214\207\346\032\274TSV4\035"
  65      195ED372 
  65      ED8C87E6 
  65      1ABC5453 
  65      56341D
ARM GAS  /tmp/ccVm1riJ.s 			page 5


  66 012f D63446D7 		.ascii	"\3264F\327\331\201\245M\031\271\014e\344!It(u\342\250"
  66      D981A54D 
  66      19B90C65 
  66      E4214974 
  66      2875E2A8 
  67 0143 EE9D1287 		.ascii	"\356\235\022\207\377\306\225\371f\352\200GK\257\236"
  67      FFC695F9 
  67      66EA8047 
  67      4BAF9E
  68 0152 5F8842AD 		.ascii	"_\210B\255\307pD\312ip\206O\364\320\303\214\016\311"
  68      C77044CA 
  68      6970864F 
  68      F4D0C38C 
  68      0EC9
  69 0164 96D1E410 		.ascii	"\226\321\344\020\273\023\022\037\012\340\023<iu\022"
  69      BB13121F 
  69      0AE0133C 
  69      697512
  70 0173 0038A0CE 		.ascii	"\0008\240\316\021N\2513\303\256\034\021\265\014\006"
  70      114EA933 
  70      C3AE1C11 
  70      B50C06
  71 0182 78D8D7C1 		.ascii	"x\330\327\301\276\355\217\250\231\304T\221\222Z\327"
  71      BEED8FA8 
  71      99C45491 
  71      925AD7
  72 0191 D44C97BA 		.ascii	"\324L\227\272\031S\263\211\2512%\325\327\324l\227\372"
  72      1953B389 
  72      A93225D5 
  72      D7D46C97 
  72      FA
  73 01a2 35A6DA89 		.ascii	"5\246\332\211\251FJ\352\252\246\332]\352\267\230\352"
  73      A9464AEA 
  73      AAA6DA5D 
  73      EAB798EA 
  74 01b2 24A69A29 		.ascii	"$\246\232)\251\015Mu\272\324_15\227\230j\245\244655"
  74      A90D4D75 
  74      BAD45F31 
  74      3597986A 
  74      A5A43635 
  75 01c7 175277A1 		.ascii	"\027Rw\241\326n^\212,\272\012<\316\177\313H>\357^\233"
  75      D66E5E8A 
  75      2CBA0A3C 
  75      CE7FCB48 
  75      3EEF5E9B 
  76 01db F1A6BD89 		.ascii	"\361\246\275\211Iwv\336\235)V\334\271\331\007\013\363"
  76      497776DE 
  76      9D2956DC 
  76      B9D9070B 
  76      F3
  77 01ec EE64617C 		.ascii	"\356da|d\330\035\033\273\356\336\2709:\361h\330\235"
  77      64D81D1B 
  77      BBEEDEB8 
  77      393AF168 
  77      D89D
  78 01fe 2B56EE56 		.ascii	"+V\356V*\367\362%\370\015H\015f\211"
  78      2AF7F225 
ARM GAS  /tmp/ccVm1riJ.s 			page 6


  78      F80D480D 
  78      6689
  79              		.text
  80              		.section	.gnu.lto__pal_lld_setgroupmode.844b16f61f739edb,"",%progbits
  81 0000 789CDD58 		.ascii	"x\234\335XmhSW\030>\347~$MZ\255\337\266~\326\372\375"
  81      6D685357 
  81      183EE77E 
  81      244D5AAD 
  81      DFB67ED6 
  82 0016 95D80FB5 		.ascii	"\225\330\017\265j\265Z\007\233\340\320\241e\012\003"
  82      6AB55A07 
  82      9BE0D0A1 
  82      650A03
  83 0025 8DB6C46E 		.ascii	"\215\266\304n\011\315\322n\260\375\230\267\246cbd\013"
  83      09CDD26E 
  83      B0FD98B7 
  83      A6636264 
  83      0B
  84 0036 C5357E54 		.ascii	"\3055~T\247c\260!\363c\212vZ\255Q\366\303\321\311\220"
  84      A763B021 
  84      F3638A76 
  84      5AAD51F6 
  84      C3D1C990 
  85 004a 291A8BB4 		.ascii	")\032\213\264\212\272\037\026\301\301t\240[\366\276"
  85      8ABA1F16 
  85      C1C174A0 
  85      5BF6BE
  86 0059 E79E7393 		.ascii	"\347\236s\223\264\205$\027\266\037\006|O\356\373\234"
  86      B4852417 
  86      B61F067C 
  86      4FEEFB9C 
  87 0069 E73DCFFB 		.ascii	"\347=\317\373\234sso\225\210D\372~j\340\337g#\011y\037"
  87      9C73736F 
  87      958844FA 
  87      7E6AE0DF 
  87      67230979 
  88 007e 2F720885 		.ascii	"/r\010\205\031T\2422DYR\010\321\244,\010\212\"\251\370"
  88      1954A232 
  88      44595208 
  88      D1A42C08 
  88      8A22A9F8 
  89 0092 DD82DF55 		.ascii	"\335\202\337Uj\005\324\302\242\225\002L\263$\033\242"
  89      6A05D4C2 
  89      A295024C 
  89      B3241BA2 
  90 00a2 76446D34 		.ascii	"vDm4\0332vV!\233R(J\311vIVT\2135\313f\317\246\3337b"
  90      1B327656 
  90      219B5228 
  90      4AC97649 
  90      56548B35 
  91 00bd 8E941492 		.ascii	"\216\224\024\222#\232\326\334\363\351\351{\362\276="
  91      239AD6DC 
  91      F3E9E97B 
  91      F2BE3D
  92 00cc 91A6C3DA 		.ascii	"\221\246\303\332\313X\214\322Z\004\267R\262\001\276"
  92      CB588CD2 
  92      5A04B752 
ARM GAS  /tmp/ccVm1riJ.s 			page 7


  92      B201BE
  93 00db D10236A0 		.ascii	"\321\0026\240\212\304\217N\214\354\357\334m\0175\356"
  93      8AC48F4E 
  93      8CECEFDC 
  93      6D0F35EE 
  94 00eb D462B1ED 		.ascii	"\324b\261\355\351\223Z\315\220\016\231!\235\351\374"
  94      E9935ACD 
  94      900E9921 
  94      9DE9FC
  95 00fa 227FD7E1 		.ascii	"\"\177\327\341\035!\355\037h+}Z{\360\033\0234\355\300"
  95      1D21ED1F 
  95      682B7D5A 
  95      7BF01B13 
  95      34EDC0
  96 010d C3B557B5 		.ascii	"\303\265W\265\246H,V\221.'\244u?\210s\3444\345]\014"
  96      A6482C56 
  96      912E27A4 
  96      753F8873 
  96      E434E55D 
  97 0122 B69A91F7 		.ascii	"\266\232\221\367\342A\346\362.e,/\244\235\372N\263\261"
  97      E241E6F2 
  97      2E652C2F 
  97      A49DFA4E 
  97      B3B1
  98 0134 8324A7DF 		.ascii	"\203$\247\337\322\365\316\203fZ\332\227\261\343\315"
  98      D2F5CE83 
  98      665ADA97 
  98      B1E3CD
  99 0143 DA972638 		.ascii	"\332\227&8\2473\347Dn\276j-\205\"\267\202I\267\223,"
  99      A733E744 
  99      6EBE6A2D 
  99      8522B782 
  99      49B7932C 
 100 0157 9105F4BF 		.ascii	"\221\005\364\277;\023\321\340!3\006~e\302\214\314\357"
 100      3B13D1E0 
 100      2133067E 
 100      65C28CCC 
 100      EF
 101 0168 DC66ED9C 		.ascii	"\334f\355\234\2113\321\025\014g\336RH\273\370?\335\205"
 101      8933D115 
 101      0C67DE52 
 101      48BBF83F 
 101      DD85
 102 017a 77CD39FE 		.ascii	"w\3159\376\203\011\367\016\232\340\264\233p\274\333"
 102      8309F70E 
 102      9AE0B49B 
 102      70BCDB
 103 0189 5C4B66E4 		.ascii	"\\Kf\344\231\271s\333L\264\364\364\325k)\034\374<_\213"
 103      99B973DB 
 103      4CB4F4F4 
 103      D56B291C 
 103      FC3C5F8B 
 104 019d B7A448A4 		.ascii	"\267\244H\244<\255\037\226\346\310\336\316\034\343\255"
 104      3CAD1F96 
 104      E6C8DECE 
 104      1CE3AD
 105 01ac 00689569 		.ascii	"\000h\225i\322\366'\323V\245IkM\246\275\225&\355P2\355"
ARM GAS  /tmp/ccVm1riJ.s 			page 8


 105      D2F627D3 
 105      56A5496B 
 105      4DA6BD95 
 105      26ED5032 
 106 01c1 ED346927 		.ascii	"\3554i'\223i\357\244Ik\013\356\351c\346\346\364\230"
 106      9369EFA4 
 106      496B0BEE 
 106      E963E6E6 
 106      F498
 107 01d3 DA9FD5C6 		.ascii	"\332\237\325\306\316\001\2536M\326\337I,O\232\254/k"
 107      CE01AB36 
 107      4DD6DF49 
 107      2C4F9AAC 
 107      2F6B
 108 01e5 125975A9 		.ascii	"\022Yu\251X'\244HO,\326\032\355\275\037\244\303WR\342"
 108      5827A448 
 108      4F2CD61A 
 108      EDBD1FA4 
 108      C35752E2 
 109 01f9 A5F016ED 		.ascii	"\245\360\026\355\242\235\264\220\3100^\203Q\201\361"
 109      A29DB490 
 109      C8305E83 
 109      5181F1
 110 0208 57185518 		.ascii	"W\030U\030\257\303h\201\361&\214V\352\245\360\202\254"
 110      AFC36881 
 110      F1268C56 
 110      EAA5F082 
 110      AC
 111 0219 4FB6615B 		.ascii	"O\266a[v\316\310\306\213\034N\033\204\027\20397\027"
 111      76CEC8C6 
 111      8B1C4E1B 
 111      84178339 
 111      3717
 112 022b 2F86C0C5 		.ascii	"/\206\300\305op1\224\027\032\006\205\310pDF`\030\211"
 112      6F703194 
 112      171A0685 
 112      C8704446 
 112      601889
 113 023e 61140479 		.ascii	"a\024\004y4L\270\005\023\3620\223\217a\014\246\307b"
 113      344CB805 
 113      13F23093 
 113      8F610CA6 
 113      C762
 114 0250 1807D85D 		.ascii	"\030\007\330]\300\306\003Y\232\200\330D\014\005\030"
 114      C0C60359 
 114      9A80D844 
 114      0C0518
 115 025f 266128C4 		.ascii	"&a(\3040\031\303\024\014S1L\003\322\031 M\307\0123\340"
 115      3019C314 
 115      0C53314C 
 115      03D21920 
 115      4DC70A33 
 116 0274 220A1733 		.ascii	"\"\012\0273\021\231\205a6\2069\030\346bp\340,'\206y"
 116      11998561 
 116      36863918 
 116      E66270E0 
 116      2C278679 
ARM GAS  /tmp/ccVm1riJ.s 			page 9


 117 0288 30B50BA6 		.ascii	"0\265\013\246\026a\272\030C\011\206R\014\3631,\300\260"
 117      1661BA18 
 117      43098652 
 117      0CF3312C 
 117      C0B0
 118 029a 10431986 		.ascii	"\020C\031\206E\030\026cX\202\241\034\303R\364v\031w"
 118      45181663 
 118      5882A11C 
 118      C352F476 
 118      1977
 119 02ac A8829BB3 		.ascii	"\250\202\233\263\234\373\262\202\333X\311-\201\217J"
 119      9CFBB282 
 119      DB58C92D 
 119      818F4A
 120 02bb 9AE07953 		.ascii	"\232\340yS\240\347u\226\316\321\031\272\205b\366V\366"
 120      A0E77596 
 120      CED119BA 
 120      8562F656 
 120      F6
 121 02cc 67C77A16 		.ascii	"g\307z\026\253\360\257\034\371\032\011\264\007N\264"
 121      ABF0AF1C 
 121      F91A09B4 
 121      074EB4
 122 02db 8C73D16E 		.ascii	"\214s\321n\252\0227\315rS+\036\000\330VB\030x\272\245"
 122      AA1237CD 
 122      72532B1E 
 122      00D85642 
 122      1878BAA5 
 123 02ef 5C803601 		.ascii	"\\\2006\001*:x<\340\027\220\035\320\015\372K\011\347"
 123      2A3A783C 
 123      E017901D 
 123      D00DFA4B 
 123      09E7
 124 0301 B5C579D9 		.ascii	"\265\305y\331\202\227\327\217\227\003(\343\031\353\265"
 124      8297D78F 
 124      970328E3 
 124      19EBB5
 125 0310 C7798304 		.ascii	"\307y\203\004os?\336`@\031O\025\274Kq^\256\340i\271"
 125      6F733FDE 
 125      6040194F 
 125      15BC4B71 
 125      5EAEE069 
 126 0325 FD884300 		.ascii	"\375\210C\000fD+\203v\374\270\363,\025\330P\004\214"
 126      66442B83 
 126      76FCB8F3 
 126      2C15D850 
 126      048C
 127 0337 935F850F 		.ascii	"\223_\205\017n\335\240\307-\023\305\234\341nJYm4\361"
 127      6EDDA0C7 
 127      2D13C59C 
 127      E16E4A59 
 127      6D34F1
 128 034a 2A69EA6D 		.ascii	"*i\352m,2\240\015\372\363@|\242\204\272\3510\011\302"
 128      2C32A00D 
 128      FAF3407C 
 128      A284BAE9 
 128      3009C2
ARM GAS  /tmp/ccVm1riJ.s 			page 10


 129 035d 52FBF7DD 		.ascii	"R\373\367\335\333\242D\002\177\245\013Q\237\233\256"
 129      DBA24402 
 129      7FA50B51 
 129      9F9BAE
 130 036c B0EF7EEA 		.ascii	"\260\357~\352\211\022\031\214\223~\301\3042\373\215"
 130      8912198C 
 130      937EC1C4 
 130      32FB8D
 131 037b 4D51A280 		.ascii	"MQ\242\200!\322\215\215nZa\357\355n\210\022\025\032"
 131      21D28D8D 
 131      6E5A61EF 
 131      ED6E8812 
 131      151A
 132 038d 957A115F 		.ascii	"\225z\021_n\177\331\015\004\013\210\224vwA\242\322\336"
 132      6E7FD90D 
 132      040B8894 
 132      767741A2 
 132      D2DE
 133 039f FA74338A 		.ascii	"\372t3\212T\204\310\347-o\030\207\341\026\333\364(\213"
 133      5484C8E7 
 133      2D6F1887 
 133      E116DBF4 
 133      288B
 134 03b1 5D2CDE65 		.ascii	"],\336e\007@\227\012\0377\035\341\246\026&X7\"\260+"
 134      0740970A 
 134      1F371DE1 
 134      A6162658 
 134      3722B02B 
 135 03c5 705672D1 		.ascii	"pVr\321\036\326\311H\200\0236z\307\223@\007\025\330"
 135      1ED6C948 
 135      8013367A 
 135      C7934007 
 135      15D8
 136 03d7 288019E1 		.ascii	"(\200\031\341X\340k#9\232\031;\212o\305\213\2262\001"
 136      58E06B23 
 136      399A193B 
 136      8A6FC58B 
 136      963201
 137 03ea E4F55BE5 		.ascii	"\344\365[\345\231A\312\0078y\225O\0044\006P}\021Y\244"
 137      9941CA07 
 137      3879954F 
 137      04340650 
 137      7D1159A4 
 138 03fe C6B25DCB 		.ascii	"\306\262]\313E\220\317~W@\343\000e\233\361\350rG\266"
 138      4590CF7E 
 138      5740E300 
 138      659BF1E8 
 138      7247B6
 139 0411 48B26515 		.ascii	"H\262e\025k\302~Ta\353\340\325\225;{\317G\215\272\023"
 139      6BC27E54 
 139      61EBE0D5 
 139      953B7BCF 
 139      478DBA13 
 140 0425 6693A35A 		.ascii	"f\223\243Z\023\314U\017\220\3750\200\305\343\221\252"
 140      13CC550F 
 140      90FD3080 
 140      C5E391AA 
ARM GAS  /tmp/ccVm1riJ.s 			page 11


 141 0435 33B7181B 		.ascii	"3\267\030\033\012K^\010\2342,\232\010\313\362v\217\032"
 141      0A4B5E08 
 141      9C322C9A 
 141      08CBF276 
 141      8F1A
 142 0447 C9022807 		.ascii	"\311\002(\007\020\313\237\013<2\362\223\0304\032\363"
 142      10CB9F0B 
 142      3C32F293 
 142      18341AF3 
 143 0457 577E0E71 		.ascii	"W~\016q\211l\335FmI\212\225\201-\344[\270\374\333\011"
 143      896CDD46 
 143      6D498A95 
 143      812DE45B 
 143      B8FCDB09 
 144 046b F20B53C8 		.ascii	"\362\013S\310\247\003\313\237<\220\374)P\016\240~\362"
 144      A703CB9F 
 144      3C90FC29 
 144      500EA07E 
 144      F2
 145 047c A7322853 		.ascii	"\2472(S\371\224\313\237*\344[\231|\330\270\023\341\011"
 145      F994CB9F 
 145      2AE45B99 
 145      7CD8B813 
 145      E109
 146 048e A2F43437 		.ascii	"\242\36447v\225\264\321\323\331FS\004\373n\364\014@"
 146      7695B4D1 
 146      D3D94653 
 146      04FB6EF4 
 146      0C40
 147 04a0 998A3B7B 		.ascii	"\231\212;{\333\357\031\204\231),\220\022-\3500\272\232"
 147      DBEF1984 
 147      99292C90 
 147      122DE830 
 147      BA9A
 148 04b2 05F5B805 		.ascii	"\005\365\270\005\361\223?\033\312\001\304-\370\303\310"
 148      F1933F1B 
 148      CA01C42D 
 148      F8C3C8
 149 04c1 CF6190AC 		.ascii	"\317a\220\254[p2\331\202\205)V\0066?\373ma\207(8W\334"
 149      5B7032D9 
 149      82852956 
 149      06363FFB 
 149      6D618728 
 150 04d8 189238FC 		.ascii	"\030\2228\374\037\013\310\001h\037O\234\3747\022\300"
 150      1F0BC801 
 150      681F4F9C 
 150      FC3712C0 
 151 04e8 BE9ECC03 		.ascii	"\276\236\314\003T\367\344v\202'E)<\221\023=\271o\264"
 151      54F7E476 
 151      82274529 
 151      3C91133D 
 151      B96FB4
 152 04fb 590CF5B8 		.ascii	"Y\014\365\270'\347\215d\011\224\003\210{\362\314\310"
 152      27E78D64 
 152      09940388 
 152      7BF2CCC8 
 153 050b 973248C9 		.ascii	"\2272H\311\320\023\231{R\252\213\376+A\364\374\024\242"
ARM GAS  /tmp/ccVm1riJ.s 			page 12


 153      D013997B 
 153      52AA8BFE 
 153      2B41F4FC 
 153      14A2
 154 051d 9544D171 		.ascii	"\225D\321q}\013\342\242\343\007|!\224\003\210\213~b"
 154      7D0BE2A2 
 154      E3077C21 
 154      9403888B 
 154      7E62
 155 052f E4CB18A4 		.ascii	"\344\313\030\244f(Z\341\242\313\370\351\353\210\213"
 155      66285AE1 
 155      A2CBF8E9 
 155      EB888B
 156 053e 5E9442B4 		.ascii	"^\224B\264:\260\350\305\003\211^\002\345\000\352'\272"
 156      3AB0E8C5 
 156      03895E02 
 156      E500EA27 
 156      BA
 157 054f 9C415286 		.ascii	"\234AR\206\242U.\272\\\334\200Y\372\243\342x\340qx\214"
 157      A2552EBA 
 157      5CDC8059 
 157      FAA3E278 
 157      E071788C 
 158 0563 78682DE5 		.ascii	"xh-\345\3173Y\177\236\375\364\373\345\347\301\034\003"
 158      CF33597F 
 158      9EFDF4FB 
 158      E5E7C11C 
 158      03
 159 0574 ECF344C3 		.ascii	"\354\363D\303w\007\033\024\251\242v\275\324\261\300"
 159      77071B14 
 159      A9A276BD 
 159      D4B1C0
 160 0583 F3B0F1EE 		.ascii	"\363\260\361\356\260\014n\020\243\024\003_\204\307\013"
 160      B00C6E10 
 160      A314035F 
 160      84C70B
 161 0592 B0024E4A 		.ascii	"\260\002NJ\342\013\302\261@,<V\200\313aG\222\301#F\325"
 161      E20BC2B1 
 161      402C3C56 
 161      80CB6147 
 161      92C12346 
 162 05a7 15D07822 		.ascii	"\025\320x\"\2663\360mk\236\000+\305\357\274PY\205\377"
 162      B633F06D 
 162      6B9E002B 
 162      C5EFBC50 
 162      5985FF
 163 05ba F32A7792 		.ascii	"\363*w\222F\350\265\032\317\332u\322\330\363\362!5\036"
 163      46E8B51A 
 163      CFDA75D2 
 163      D8F3F221 
 163      351E
 164 05cc 7CBC0B98 		.ascii	"|\274\013\230\217\365J\034\016\347\312m\265[j\327\254"
 164      8FF54A1C 
 164      0EE7CA6D 
 164      B55B6AD7 
 164      AC
 165 05dd 73D6D53B 		.ascii	"s\326\325;\267\271<N_\235\277\241\336\271n\375\233%"
ARM GAS  /tmp/ccVm1riJ.s 			page 13


 165      B7B93C4E 
 165      5F9DBFA1 
 165      DEB96EFD 
 165      9B25
 166 05ef C5CED5AB 		.ascii	"\305\316\325\253_s\276\276v\325\232\017\213\235>\227"
 166      5F73BEBE 
 166      76D59A0F 
 166      8B9D3E97 
 167 05ff 6793C753 		.ascii	"g\223\307S\355\330J\324-\265\015\216y\252\267\256\272"
 167      EDD84AD4 
 167      2DB50D8E 
 167      79AAB7AE 
 167      BA
 168 0610 C66FA96B 		.ascii	"\306o\251k\370\310W\343\267\326\325\373jj\252\375\252"
 168      F8C857E3 
 168      B7D6D5FB 
 168      6A6AAAFD 
 168      AA
 169 0621 EF035FB5 		.ascii	"\357\003_\265_qy\032\3742\314\312\302/^W\375{\222\267"
 169      5F71791A 
 169      FC32CCCA 
 169      C22F5E57 
 169      FD7B92B7 
 170 0635 48F2164B 		.ascii	"H\362\026K\336\322\177\001}r\004o"
 170      DED27F01 
 170      7D72046F 
 171              		.text
 172              		.section	.gnu.lto_.symbol_nodes.844b16f61f739edb,"",%progbits
 173 0000 789C6362 		.ascii	"x\234cb`b\210g\200\002\246\011L\365\014\014\023\316"
 173      60628867 
 173      8002A609 
 173      4CF50C0C 
 173      13CE
 174 0012 3130D4D7 		.ascii	"10\324\327_\351Hd\232\310T\317\010\345^\353`d\232\304"
 174      5FE94864 
 174      9AC854CF 
 174      08E55EEB 
 174      60649AC4 
 175 0026 54CF84E0 		.ascii	"T\317\204\3402320\034z\370\017L7\265\275\221\007\363"
 175      32333230 
 175      1C7AF80F 
 175      4C37B5BD 
 175      9107F3
 176 0039 A174533B 		.ascii	"\241tS;\224\017\245\233\272\336\3103\000\000\223\344"
 176      940FA59B 
 176      BADEC833 
 176      000093E4 
 177 0049 1CD1     		.ascii	"\034\321"
 178              		.text
 179              		.section	.gnu.lto_.refs.844b16f61f739edb,"",%progbits
 180 0000 789C6362 		.ascii	"x\234cb`b`d\200\002\000\000F\000\006"
 180      60626064 
 180      80020000 
 180      460006
 181              		.text
 182              		.section	.gnu.lto_.decls.844b16f61f739edb,"",%progbits
 183 0000 789CBD59 		.ascii	"x\234\275Y\177l\023\327\035\177\357\35481\270Y\004\002"
ARM GAS  /tmp/ccVm1riJ.s 			page 14


 183      7F6C13D7 
 183      1D7FEFEC 
 183      3831B859 
 183      0402
 184 0012 316D1246 		.ascii	"1m\022F[[T5\034$lc\232T\2218\201D\013\215e\203\266\376"
 184      5B5B5435 
 184      1C246C63 
 184      9A549138 
 184      81440B8D 
 185 002a 651DF185 		.ascii	"e\035\361\205xKb\317v6\366\337#)\224ekI\002\245\351"
 185      784B62CF 
 185      7636F6DF 
 185      23299465 
 185      6B4902A5 
 186 003f 4813D325 		.ascii	"H\023\323%\205\226\337\245\005\012ik\2722EE\"\214\211"
 186      8596DFA5 
 186      050A696B 
 186      BA324545 
 186      228C89
 187 0052 B11FB078 		.ascii	"\261\037\260x\021T\254\252\242\025\255M\0074\336\367"
 187      1154ACAA 
 187      A215AD4D 
 187      0734DEF7 
 188 0062 BD3BDBF7 		.ascii	"\275;\333\367\016_|\027\241\235\364\375\336\345\374"
 188      0E5F7C17 
 188      A19DF4FD 
 188      DEE5FC
 189 0071 7D9FEFE7 		.ascii	"}\237\357\347\275\367\375~\337\273\027\001\011(\201"
 189      BDF7FD7E 
 189      DFBB1701 
 189      092881
 190 0080 114AC3B5 		.ascii	"\021J\303\265\366\033\010\371m\010\331\021BO\241\334"
 190      F61B08F9 
 190      6D08D911 
 190      424FA1DC 
 191 0090 05AFD07E 		.ascii	"\005\257\320~\220i\2202\214\036\270\350oN\220b\220R"
 191      90699032 
 191      8C1EB8E8 
 191      6F4E9062 
 191      9052
 192 00a2 1017C863 		.ascii	"\020\027\310c`w\003\356\327A\016\203\214\200\014\253"
 192      607703EE 
 192      D7410E83 
 192      8C800CAB 
 193 00b2 BFDF0479 		.ascii	"\277\337\004y\013\344c\220S \267A\316\200|\0022\012"
 193      0BE46390 
 193      5320B741 
 193      CE807C02 
 193      320A
 194 00c4 F229C855 		.ascii	"\362)\310U\220)\220k \223 \207@\260\352K\000\371\017"
 194      9029906B 
 194      20932087 
 194      40B0EA4B 
 194      00F90F
 195 00d7 C81D1D0F 		.ascii	"\310\035\035\017\312\357\021\220\307q\216G\261\206\303"
 195      CAEF1190 
 195      C7718E47 
ARM GAS  /tmp/ccVm1riJ.s 			page 15


 195      B186C3
 196 00e6 7278BF1E 		.ascii	"rx\277\036\344\036<\337\005\251\303\012\247WU\273\357"
 196      E41E3CDF 
 196      05A9C30A 
 196      A75755BB 
 196      EF
 197 00f7 61C58900 		.ascii	"a\305\211\000b\007q\200\224\200\314\303\212\317i\325"
 197      62077180 
 197      9480CCC3 
 197      8ACF69D5 
 198 0107 3F352BD5 		.ascii	"?5+\325\215\003\035\227\022\335\030\320q<\252\351\377"
 198      8D031D97 
 198      12DD18D0 
 198      713CAAE9 
 198      FF
 199 0118 428AA9F6 		.ascii	"B\212\251\366\355\232:\006\247\324\276g\372Gqh\273e"
 199      ED9A3A06 
 199      A7D4BE67 
 199      FA477168 
 199      BB65
 200 012a 70FF16C8 		.ascii	"p\377\026\310R\220z\235\257\245h\220$/\247F&^\370:I"
 200      52907A9D 
 200      AFA56890 
 200      242FA746 
 200      265EF83A 
 201 013f 7426D3E9 		.ascii	"t&\323\351\367\327\242\305\350E\002Wb\007!8.\341\247"
 201      F7D7A2C5 
 201      E8450257 
 201      62072138 
 201      2EE1A7
 202 0152 16A11F63 		.ascii	"\026\241\037c\011\227:\221\233=\270\234\014\025!\011"
 202      09973A91 
 202      9B3DB89C 
 202      0C152109 
 203 0162 BF8A17AB 		.ascii	"\277\212\027\253\263J\373\204\346\243nB:i\303\272\261"
 203      B34AFB84 
 203      E6A36E42 
 203      3A69C3BA 
 203      B1
 204 0173 D205A897 		.ascii	"\322\005\250\227\242\270\307\240\013j\373\224\220\001"
 204      A2B8C7A0 
 204      0B6AFB94 
 204      9001
 205 0181 7812AC1F 		.ascii	"x\022\254\037E\303\204\364\244n\354\037\262\021R\"\341"
 205      45C384F4 
 205      A46EEC1F 
 205      B2115222 
 205      E1
 206 0192 11BC0060 		.ascii	"\021\274\000`~\202\321\023\350uh\330C\310\344\017\362"
 206      7E82D113 
 206      E87568D8 
 206      43C8E40F 
 206      F2
 207 01a3 44082A08 		.ascii	"D\010*\010L\231\275\016`\022>\210\237P\334\220\344\275"
 207      4C99BD0E 
 207      60123E88 
 207      9F50DC90 
ARM GAS  /tmp/ccVm1riJ.s 			page 16


 207      E4BD
 208 01b5 4B2E6257 		.ascii	"K.bW\336#\365\227<\3272\224 \317v%\323\227\006`8>\300"
 208      DE23F597 
 208      3CD73294 
 208      20CF7625 
 208      D3970660 
 209 01cc 4EB49390 		.ascii	"N\264\223\220.\265C(\3570\250\275\370\352\271\013\347"
 209      2EB54328 
 209      EF30A8BD 
 209      F8EAB90B 
 209      E7
 210 01dd 71270C18 		.ascii	"q'\014\030k\3229k\023\011\037\301\217\202.vf\211\320"
 210      6BD2396B 
 210      13091FC1 
 210      8F822E76 
 210      6689D0
 211 01f0 5F8B9DB9 		.ascii	"_\213\235\271\007\232B_\243\221r\007c\216\255\011x\225"
 211      079A425F 
 211      A3917207 
 211      638EAD09 
 211      7895
 212 0202 D1F4AED1 		.ascii	"\321\364\256\321\357\263q=\016\234\004Dl<\220\352/{"
 212      EFB3713D 
 212      0E9C0444 
 212      6C3C90EA 
 212      2F7B
 213 0214 99A163D1 		.ascii	"\231\241c\321\\@\277fN\351\230\347#\252>*\227j\300\315"
 213      5C40BF66 
 213      4EE998E7 
 213      23AA3E2A 
 213      976AC0CD 
 214 0228 43EAFAFE 		.ascii	"C\352\372\376A6\017\022>\314:\321k\031\317\315\315k"
 214      41360F12 
 214      3ECC3AD1 
 214      6B19CFCD 
 214      CD6B
 215 023a DFB8AB47 		.ascii	"\337\270\253G\312\200\365\233\001+1$\227\334\243\005"
 215      CA80F59B 
 215      012B3124 
 215      97DCA305 
 216 024a 4B5806E3 		.ascii	"KX\006\343\231\355\325\202\275f\006\254\314\230Y\277"
 216      99EDD582 
 216      BD6606AC 
 216      CC9859BF 
 217 025a 16EC0DCB 		.ascii	"\026\354\015\313`Zf\333\222\247\307?\302\244\317\265"
 217      605A66DB 
 217      92A7C73F 
 217      C2A4CFB5 
 218 026a 10F511B2 		.ascii	"\020\365\021\262\215$\034Fa\0075\211\232\220YM$\234"
 218      8D241C46 
 218      61073589 
 218      9A90594D 
 218      249C
 219 027c C40BF9C4 		.ascii	"\304\013\371\304\334\267\253\224&&}_ 1Ig\362\225\361"
 219      DCB7AB94 
 219      26267D5F 
 219      20314967 
ARM GAS  /tmp/ccVm1riJ.s 			page 17


 219      F295F1
 220 028f 0135208E 		.ascii	"\0015 \216\262\316\035e\235\243m\347\020`\340\374\355"
 220      B2CE1D65 
 220      9DA36DE7 
 220      1060E0FC 
 220      ED
 221 02a0 F1F9A4DB 		.ascii	"\361\371\244\333\245V\224\304\332\203\263\020\277\240"
 221      A55694C4 
 221      DA83B310 
 221      BFA0
 222 02ae AF2843E3 		.ascii	"\257(C\343\202[y]\230\367\211\361\201%$q>S\035\310\016"
 222      825B795D 
 222      98F789F1 
 222      81252471 
 222      3E531DC8 
 223 02c3 B25CE3AB 		.ascii	"\262\\\343\253,\343\213V\321lA9\375$K\3371\326\321\343"
 223      2CE38B56 
 223      D16C4139 
 223      FD244BDF 
 223      31D6D1E3 
 224 02d7 B6BC75C0 		.ascii	"\266\274u\300\004\320\364\256\003J\035\270\310\200\336"
 224      04D0F4AE 
 224      034A1DB8 
 224      C880DE
 225 02e6 79A00ED8 		.ascii	"y\240\016\330tu\300\306'\266\315\231{H\247m\310\232"
 225      7475C0C6 
 225      27B6CD99 
 225      7B48A76D 
 225      C89A
 226 02f8 B1803E64 		.ascii	"\261\200>d\016/\344\342\217#Yh\212:S\327o\015\262\241"
 226      0E2FE4E2 
 226      8F235968 
 226      8A3A53D7 
 226      6F0DB2A1 
 227 030c CB8CC498 		.ascii	"\313\214\304\230e\2742\335\234\010\350\322\\\303F\323"
 227      65BC32DD 
 227      9C08E8D2 
 227      5CC346D3 
 228 031c 73A5D312 		.ascii	"s\245\323\022\376\000/\003\375!h\215\203\313f\222n\211"
 228      FE002F03 
 228      FD21688D 
 228      83CB6692 
 228      6E89
 229 032e 41A72183 		.ascii	"A\247!\203\317h3\370\252e07\007vV\013\36673`ncf\243"
 229      CF6833F8 
 229      AA653037 
 229      0776560B 
 229      F6373360 
 230 0346 5AB009CB 		.ascii	"Z\260\011\313`<\263\367\264`7\315\200-\237mR\270\371"
 230      603CB3F7 
 230      B46037CD 
 230      802D9F6D 
 230      52B8F9
 231 0359 C9ED0024 		.ascii	"\311\355\000$\374\006[o\017\261\231z\213\351SL\237a"
 231      FC065B6F 
 231      0FB1997A 
 231      8BE9534C 
ARM GAS  /tmp/ccVm1riJ.s 			page 18


 231      9F61
 232 036b FA2CD3A3 		.ascii	"\372,\323\243L\277\307\364\237\230\276\312\3645\246"
 232      4CBFC7F4 
 232      9F98BECA 
 232      F435A6
 233 037a FFAA9D5F 		.ascii	"\377\252\235_\243\0221\214\347ksk\226]\021D6\326\356"
 233      A312318C 
 233      E76B736B 
 233      965D1144 
 233      36D6EE
 234 038d 5F7006EA 		.ascii	"_p\006\352\233(\223\270\311\227\257`w\276\275\016g+"
 234      9B2893B8 
 234      C997AF60 
 234      77BEBD0E 
 234      672B
 235 039f E17F40DF 		.ascii	"\341\177@\337\012\232Q\303\224\276\200\375}\234m\211"
 235      0A9A51C3 
 235      94BE80FD 
 235      7D9C6D89 
 236 03af 52A62AD8 		.ascii	"R\246*\330\204\256\362\336f\263\225\232\333\322\016"
 236      84AEF2DE 
 236      66B3959A 
 236      DBD20E
 237 03be 787794A9 		.ascii	"xw\224\251W\300\246,\203\2719\260/\264`\237\233\001"
 237      57C0A62C 
 237      83B939B0 
 237      2FB4609F 
 237      9B01
 238 03d0 335AD701 		.ascii	"3Z\327\001\354\256\026\354+\313`<\263\031-X\227\335"
 238      ECAE16EC 
 238      2BCB603C 
 238      B3192D58 
 238      97DD
 239 03e2 0498D1BA 		.ascii	"\004\230\321\272\016`}W4`\317Y\006\343\231\355\325\202"
 239      0E607D57 
 239      3460CF59 
 239      06E399ED 
 239      D582
 240 03f4 FDC60C58 		.ascii	"\375\306\014X\276z\245I8%\325\376\311Rm\222%\315M\246"
 240      BE7AA549 
 240      3825D5FE 
 240      C9526D92 
 240      25CD4DA6 
 241 0408 3F66FA36 		.ascii	"?f\3726\323\2370\375)\323S|\311\354\265\353\027&%05"
 241      D39F30FD 
 241      29D3537C 
 241      C9ECB5EB 
 241      17262530 
 242 041d 1E72118C 		.ascii	"\036r\021\214\346\342\303(m\257C\332j\335l\312-r\002"
 242      E6E2C328 
 242      6DAF43DA 
 242      6ADD6CCA 
 242      2D7202
 243 0430 1AD6D1FA 		.ascii	"\032\326\321\3726\372\035!}\251\221\241\327 \035\004"
 243      36FA1D21 
 243      7DA991A1 
 243      D7201D04 
ARM GAS  /tmp/ccVm1riJ.s 			page 19


 244 0440 25E70574 		.ascii	"%\347\005t\204Y\355\307K\0156\374\324JmJ\366\375\301"
 244      8459EDC7 
 244      4B0D36FC 
 244      D44A6D4A 
 244      F6FDC1
 245 0453 D58315AF 		.ascii	"\325\203\025\257\002:Y\240\241\312\35514B\023\374\034"
 245      023A59A0 
 245      A1CAED31 
 245      344213FC 
 245      1C
 246 0464 F12E611F 		.ascii	"\361.a\037dHm\304\361\376\014\013\332\027\364\323.\221"
 246      64486DC4 
 246      F1FE0C0B 
 246      DA17F4D3 
 246      2E91
 247 0476 4C7EB6E3 		.ascii	"L~\266\343\"\354\337\310\375t\272\313n\341\323\356\313"
 247      22ECDFC8 
 247      FD74BACB 
 247      6EE1D3EE 
 247      CB
 248 0487 C29F76BA 		.ascii	"\302\237v\272\"\226\234\227\3018H?\3332\237w\377:@?"
 248      22969C97 
 248      C138483F 
 248      DB329F77 
 248      FF3A403F 
 249 049b EFF25428 		.ascii	"\357\362T(\235\275\204\357\347\257d:;j9\243/e\347\256"
 249      9DBD84EF 
 249      E7AF643A 
 249      3B6A39A3 
 249      2F65E7AE 
 250 04af B0523663 		.ascii	"\260R6c\242\224\221\344\037\257\014`\245\224M\260O\316"
 250      A29491E4 
 250      1FAF0C60 
 250      A5944DB0 
 250      4FCE
 251 04c1 B36C0E66 		.ascii	"\263l\016fr\301\317\327\316\302\273\310\277\370h&)`"
 251      72C1CFD7 
 251      CEC2BBC8 
 251      BFF86826 
 251      2960
 252 04d3 E74D8119 		.ascii	"\347M\201\031\255\326\000\366o\015\330\230)\2605\306"
 252      ADD600F6 
 252      6F0DD898 
 252      29B035C6 
 253 04e3 CCBED480 		.ascii	"\314\276\324\200\215\233\002\363\0323\353\361\347\300"
 253      8D9B02F3 
 253      1A33EBF1 
 253      E7C0
 254 04f1 FE6C0A2C 		.ascii	"\376l\012,b\314\254_\003v\303\024\330N\234\207\232&"
 254      62CCAC5F 
 254      0376C314 
 254      D84E9C87 
 254      9A26
 255 0503 FC95FA93 		.ascii	"\374\225\372\223f\365\207\0104\373;\231~\226\351\035"
 255      66F58708 
 255      34FB3B99 
 255      7E96E91D 
ARM GAS  /tmp/ccVm1riJ.s 			page 20


 256 0513 4CEF64BA 		.ascii	"L\357d\272[\340*\317\315\007*\317\214\276\362\314p\225"
 256      5BE02ACF 
 256      CD072ACF 
 256      8CBEF2CC 
 256      7095
 257 0525 C702BA51 		.ascii	"\307\002\272Qz\335\315\325\034]\301\231\312_p\266O\335"
 257      7ADDCDD5 
 257      1C5DC199 
 257      CA5F70B6 
 257      4FDD
 258 0537 B6BF4C92 		.ascii	"\266\277L\222v\245\251\204?\207d\227\360\264a\341\270"
 258      76A5A984 
 258      3F876497 
 258      F0B461E1 
 258      B8
 259 0548 CB158EE7 		.ascii	"\313\025\216\347\311\3662\234\255\034\323\372\312\361"
 259      C9F6329C 
 259      AD1CD3FA 
 259      CAF1
 260 0556 BC90AF72 		.ascii	"\274\220\257r\314|\344\352\331\226J\247\207\334\346"
 260      CC7CE4EA 
 260      D9964AA7 
 260      87DCE6
 261 0565 CB46AF60 		.ascii	"\313F\257`\\6\224#\236|-3\265b\344\310\032\366\251\262"
 261      5C369423 
 261      9E7C2D33 
 261      B562E4C8 
 261      1AF6A9B2 
 262 0579 5BA0B5F1 		.ascii	"[\240\265\361\376\003\3632\314Uj\303\035\227\351C\222"
 262      FE03F332 
 262      CC556AC3 
 262      1D97E943 
 262      92
 263 058a 647AF722 		.ascii	"dz\367\"Z7^\022\330\212Z\244\367G\027G\316\237\2513"
 263      5A375E12 
 263      D88A5AA4 
 263      F7471747 
 263      CE9FA933 
 264 059e 12CB2CFA 		.ascii	"\022\313,\372\027\303B\262\217q\330\363\2208\350\202"
 264      17C342B2 
 264      8F71D8F3 
 264      9038E882 
 265 05ae EA95A2BC 		.ascii	"\352\225\242\274Au\353\330\177\325\240RF\374$3\353\021"
 265      4175EBD8 
 265      7FD5A052 
 265      46FC2433 
 265      EB11
 266 05c0 8C828A5A 		.ascii	"\214\202\212Z\251m\223\275\027\017++\2402xg\0124\245"
 266      A96D93BD 
 266      170F2B2B 
 266      A0327867 
 266      0A34A5
 267 05d3 5699A6BB 		.ascii	"V\231\246\273/\252\213\247\322\347w\0134\245V\331PN"
 267      2FAA8BA7 
 267      D2E7770B 
 267      34A556D9 
 267      504E
ARM GAS  /tmp/ccVm1riJ.s 			page 21


 268 05e5 A6BBBB12 		.ascii	"\246\273\273\022\2308\262\301L\333q\3433\310\007sv\032"
 268      9838B2C1 
 268      4CDB71E3 
 268      33C80773 
 268      761A
 269 05f7 920FE140 		.ascii	"\222\017\341@\256\320\011g\302\226\301]\235\013\353"
 269      AED00967 
 269      C296C15D 
 269      9D0BEB
 270 0606 17A72EFF 		.ascii	"\027\247.\377\012\237 \244\014\300\005Z\357\276\320"
 270      0A9F20A4 
 270      0CC0055A 
 270      EFBED0
 271 0615 CD464120 		.ascii	"\315FA J\361\220\240[\363\246'\330\232G\337\027>\321"
 271      4AF190A0 
 271      5BF3A627 
 271      D89A47DF 
 271      173ED1
 272 0628 BC37B187 		.ascii	"\2747\261\207;I\353t`\025s\016\333w\300\273?\241\371"
 272      3B49EB74 
 272      6015730E 
 272      DB77C0BB 
 272      3FA1F9
 273 063b 72DB6E19 		.ascii	"r\333n\031\314\315\201\315h\301\272\315\200\315r,\327"
 273      CCCD81CD 
 273      68C1BACD 
 273      80CD722C 
 273      D7
 274 064c 333946CF 		.ascii	"39F\317\2532p/X\206\343\271\365\361p/\231\201\233\345"
 274      AB32702F 
 274      5886E3B9 
 274      F5F1702F 
 274      99819BE5 
 275 0660 686E0F0F 		.ascii	"hn\017\017\227\260\014\307\263\333\313\303\0350\003"
 275      97B00CC7 
 275      B3DBCBC3 
 275      1D3003
 276 066f 37CBB143 		.ascii	"7\313\261C?\017w\3142\034\317\356\267<\334i3pncv\003"
 276      3F0F77CC 
 276      321CCFEE 
 276      B73CDC69 
 276      33706E63 
 277 0685 3CDCA865 		.ascii	"<\334\250e8\236\335 \017\2274\003\227\357\370A\205;"
 277      389EDD20 
 277      0F973403 
 277      97EFF841 
 277      853B
 278 0697 CEC38D59 		.ascii	"\316\303\215Y\206\343\331\275\311\303]2\003\2672\017"
 278      86E3D9BD 
 278      C9C35D32 
 278      03B7320F 
 279 06a7 BB7C97B6 		.ascii	"\273|\227\266\230\200\003\201\326\276#l\357r\214\351"
 279      98800381 
 279      D6BE236C 
 279      EF728CE9 
 280 06b7 134C9F64 		.ascii	"\023L\237d\372m\246O3\375\016\323\347\230~\227\351\367"
 280      FA6DA64F 
ARM GAS  /tmp/ccVm1riJ.s 			page 22


 280      33FD0ED3 
 280      E7987E97 
 280      E9F7
 281 06c9 993ECFF4 		.ascii	"\231>\317\364\357\231\276`f\367s@\310\256\343f\016D"
 281      EF99BE60 
 281      66F77340 
 281      C8AEE366 
 281      0E44
 282 06db 1EC2B79F 		.ascii	"\036\302\267\237n#B\377qeDn,G\316\215\206\200[\352\326"
 282      6E2342FF 
 282      7165446E 
 282      2C47CE8D 
 282      86805BEA 
 283 06f0 A4B3D36E 		.ascii	"\244\263\323n\260\340T\256X!zZB\233C\215~1\034\023["
 283      B0E054AE 
 283      58217A5A 
 283      429B438D 
 283      7E311C13 
 284 0705 A4563112 		.ascii	"\244V1\022\216\306c\242\177\343\206\312\012\261\241"
 284      8EC663A2 
 284      7FE386CA 
 284      0AB1A1
 285 0714 A1465CEF 		.ascii	"\241F\\\357\255o\374y\205\030\221Z\003\255\255\301\025"
 285      AD6FFC79 
 285      8518915A 
 285      03ADADC1 
 285      15
 286 0725 4D7368D3 		.ascii	"Msh\323\202\\\261x[eE`K$\024\016\304\035\353\237\336"
 286      825CB178 
 286      5B654560 
 286      4B24140E 
 286      C41DEB9F 
 287 073a E4F6A098 		.ascii	"\344\366\240\230\330\336\314\344;bK\270M\026\243rL\226"
 287      D8DECCE4 
 287      3B624BB8 
 287      4D16A372 
 287      4C96
 288 074c A24D2D80 		.ascii	"\242M-\200\030\015\376B\212\312\242\024m\253\020\267"
 288      180DFE42 
 288      8ACAA214 
 288      6DAB10B7 
 289 075c 343595C3 		.ascii	"45\225\303C\271\334\266Y\016\006\345`\366E{\270].\227"
 289      43B9DCB6 
 289      590E06E5 
 289      60F6457B 
 289      B85D2E97 
 290 0770 A5CDA1F2 		.ascii	"\245\315\241\362\325\2015\345\025+W\255\376Y\205\310"
 290      D58135E5 
 290      152B57AD 
 290      FE5985C8 
 291 0780 FD2086DA 		.ascii	"\375 \206\332\233Z;\202\262\030\213\007C\355q\340Q\322"
 291      9B5A3B82 
 291      B2188B07 
 291      43ED71E0 
 291      51D2
 292 0792 01772012 		.ascii	"\001w \022\357\302\377?\357mRSK\250]\026\003A\271Y\352"
 292      EFC2FF3F 
ARM GAS  /tmp/ccVm1riJ.s 			page 23


 292      EF6D5253 
 292      4BA85D16 
 292      0341B959 
 293 07a7 688D07E2 		.ascii	"h\215\007\342\277\214\3101`3/\020\310\360)\332\320X"
 293      BF8CC831 
 293      60332F10 
 293      C8F029DA 
 293      D058
 294 07b9 53EB7334 		.ascii	"S\353s4n|\306[\353+n\364{kkk|E\336M\336\032\237"
 294      6E7CC65B 
 294      EB2B6EF4 
 294      7B6B6B6B 
 294      7C45DE4D 
 295 07d0 AD1EA4B1 		.ascii	"\255\036\244\261\306\207\177\304\330\257\372n \2566"
 295      C6877FC4 
 295      D8AFFA6E 
 295      20AE36
 296 07df A48FB698 		.ascii	"\244\217\266\230\034/jj\005\356\270\316^\355\367\371"
 296      1C2F6A6A 
 296      05EEB8CE 
 296      5EEDF7F9 
 297 07ef EC0D9E1F 		.ascii	"\354\015\236\037\372\354U\353|\015T\325\331\252}\276"
 297      FAEC55EB 
 297      7C0D54D5 
 297      D9AA7DBE 
 298 07ff A2B67050 		.ascii	"\242\266pP\216:\302\324o\2648\034\213\310r0Z\024\351"
 298      8E3AC2D4 
 298      6FB4381C 
 298      8BC87230 
 298      5A14E9
 299 0812 8804A3B6 		.ascii	"\210\004\243\266p0j\227\232\243\255T\265,\320L\023\340"
 299      70306A97 
 299      9AA3AD54 
 299      B52CD04C 
 299      13E0
 300 0824 764402F1 		.ascii	"vD\002\361\222P{(N_\024Q\025q4\205\333\233C[\034\336"
 300      92507B28 
 300      4E5F1451 
 300      15713485 
 300      DB9B435B 
 301 083a AA1A292E 		.ascii	"\252\032).9\274\325\312\315\243\334j\224[\255r[GoNo"
 301      39BCD5CA 
 301      CDA3DC6A 
 301      945BAD72 
 301      5B476F4E 
 302 084f 558387B5 		.ascii	"U\203\207\265y$\240\306C\200B\316\0030\210\232P0\020"
 302      7924A0C6 
 302      438042CE 
 302      0330889A 
 302      503010
 303 0862 77298F6D 		.ascii	"w)\217mR\354\247\324_\230\262\015\304\027e\315\201\311"
 303      52ECA7D4 
 303      5F98B20D 
 303      C41765CD 
 303      81C9
 304 0874 9668B823 		.ascii	"\226h\270#B\337\333\251\245\235\232\332\351\237\272"
 304      42DFDBA9 
ARM GAS  /tmp/ccVm1riJ.s 			page 24


 304      A59D9ADA 
 304      E99FBA
 305 0883 5894B7C6 		.ascii	"X\224\267\306E\317\006\177\275\037bQ\011\307u\225[\267"
 305      45CF067F 
 305      BD1F6251 
 305      09C77595 
 305      5BB7
 306 0895 8AAC57CD 		.ascii	"\212\254W\315\225++\2676\301\250\317\367y<\201\2150"
 306      952B2BB7 
 306      36C1A8CF 
 306      F7793C81 
 306      8D30
 307 08a7 143572B3 		.ascii	"\0245r\263\340\361\331=\353\326\373l\236z_I\225\267"
 307      E0F1D93D 
 307      EBD6FB6C 
 307      9E7A5F49 
 307      95B7
 308 08b9 BAC2E7DF 		.ascii	"\272\302\347\337\310\036V\321\007GU]u\355\323\276b\372"
 308      C81E56D1 
 308      0747555D 
 308      75EDD3BE 
 308      62FA
 309 08cb 837A5F05 		.ascii	"\203z_\005w{u\215\007Z\370\341E]5\265+\242\020\025L"
 309      777B758D 
 309      075AF8E1 
 309      455D35B5 
 309      2BA21015 
 310 08e0 57FE0FD3 		.ascii	"W\376\017\323^\006/"
 310      5E062F
 311              		.text
 312              		.section	.gnu.lto_.symtab.844b16f61f739edb,"",%progbits
 313 0000 5F70616C 		.ascii	"_pal_lld_init\000\000\000\000\000\000\000\000\000\000"
 313      5F6C6C64 
 313      5F696E69 
 313      74000000 
 313      00000000 
 314 0017 0000F700 		.ascii	"\000\000\367\000\000\000_pal_lld_setgroupmode\000\000"
 314      00005F70 
 314      616C5F6C 
 314      6C645F73 
 314      65746772 
 315 0034 00000000 		.ascii	"\000\000\000\000\000\000\000\000\000\000\020\001\000"
 315      00000000 
 315      00001001 
 315      00
 316 0041 00       		.ascii	"\000"
 317              		.text
 318              		.section	.gnu.lto_.opts,"",%progbits
 319 0000 272D6D63 		.ascii	"'-mcpu=cortex-m4' '-mno-thumb-interwork' '-mthumb' "
 319      70753D63 
 319      6F727465 
 319      782D6D34 
 319      2720272D 
 320 0033 272D6767 		.ascii	"'-ggdb' '-O0' '-fomit-frame-pointer' '-falign-funct"
 320      64622720 
 320      272D4F30 
 320      2720272D 
ARM GAS  /tmp/ccVm1riJ.s 			page 25


 320      666F6D69 
 321 0066 696F6E73 		.ascii	"ions=16' '-ffunction-sections' '-fdata-sections' '-"
 321      3D313627 
 321      20272D66 
 321      66756E63 
 321      74696F6E 
 322 0099 666E6F2D 		.ascii	"fno-common' '-flto'\000"
 322      636F6D6D 
 322      6F6E2720 
 322      272D666C 
 322      746F2700 
 323              		.text
 324              		.cfi_sections	.debug_frame
 325              		.section	.text.initgpio,"ax",%progbits
 326              		.align	2
 327              		.p2align 4,,15
 328              		.thumb
 329              		.thumb_func
 330              		.type	initgpio, %function
 331              	initgpio:
 332              	.LFB272:
 333              		.file 1 "../ChibiOS/os/hal/ports/STM32/LLD/GPIOv2/pal_lld.c"
 334              		.loc 1 61 0
 335              		.cfi_startproc
 336              		@ args = 0, pretend = 0, frame = 8
 337              		@ frame_needed = 0, uses_anonymous_args = 0
 338              		@ link register save eliminated.
 339 0000 82B0     		sub	sp, sp, #8
 340              		.cfi_def_cfa_offset 8
 341 0002 0190     		str	r0, [sp, #4]
 342 0004 0091     		str	r1, [sp]
 343              		.loc 1 63 0
 344 0006 009B     		ldr	r3, [sp]
 345 0008 5A68     		ldr	r2, [r3, #4]
 346 000a 019B     		ldr	r3, [sp, #4]
 347 000c 5A60     		str	r2, [r3, #4]
 348              		.loc 1 64 0
 349 000e 009B     		ldr	r3, [sp]
 350 0010 9A68     		ldr	r2, [r3, #8]
 351 0012 019B     		ldr	r3, [sp, #4]
 352 0014 9A60     		str	r2, [r3, #8]
 353              		.loc 1 65 0
 354 0016 009B     		ldr	r3, [sp]
 355 0018 DA68     		ldr	r2, [r3, #12]
 356 001a 019B     		ldr	r3, [sp, #4]
 357 001c DA60     		str	r2, [r3, #12]
 358              		.loc 1 66 0
 359 001e 009B     		ldr	r3, [sp]
 360 0020 1A69     		ldr	r2, [r3, #16]
 361 0022 019B     		ldr	r3, [sp, #4]
 362 0024 5A61     		str	r2, [r3, #20]
 363              		.loc 1 67 0
 364 0026 009B     		ldr	r3, [sp]
 365 0028 5A69     		ldr	r2, [r3, #20]
 366 002a 019B     		ldr	r3, [sp, #4]
 367 002c 1A62     		str	r2, [r3, #32]
 368              		.loc 1 68 0
ARM GAS  /tmp/ccVm1riJ.s 			page 26


 369 002e 009B     		ldr	r3, [sp]
 370 0030 9A69     		ldr	r2, [r3, #24]
 371 0032 019B     		ldr	r3, [sp, #4]
 372 0034 5A62     		str	r2, [r3, #36]
 373              		.loc 1 69 0
 374 0036 009B     		ldr	r3, [sp]
 375 0038 1A68     		ldr	r2, [r3]
 376 003a 019B     		ldr	r3, [sp, #4]
 377 003c 1A60     		str	r2, [r3]
 378              		.loc 1 70 0
 379 003e 02B0     		add	sp, sp, #8
 380              		@ sp needed
 381 0040 7047     		bx	lr
 382              		.cfi_endproc
 383              	.LFE272:
 384              		.size	initgpio, .-initgpio
 385 0042 00BFAFF3 		.section	.text._pal_lld_init,"ax",%progbits
 385      0080AFF3 
 385      0080AFF3 
 385      0080
 386              		.align	2
 387              		.p2align 4,,15
 388              		.global	_pal_lld_init
 389              		.thumb
 390              		.thumb_func
 391              		.type	_pal_lld_init, %function
 392              	_pal_lld_init:
 393              	.LFB273:
 394              		.loc 1 88 0
 395              		.cfi_startproc
 396              		@ args = 0, pretend = 0, frame = 8
 397              		@ frame_needed = 0, uses_anonymous_args = 0
 398 0000 00B5     		push	{lr}
 399              		.cfi_def_cfa_offset 4
 400              		.cfi_offset 14, -4
 401 0002 83B0     		sub	sp, sp, #12
 402              		.cfi_def_cfa_offset 16
 403 0004 0190     		str	r0, [sp, #4]
 404              		.loc 1 102 0
 405 0006 164B     		ldr	r3, .L3
 406 0008 154A     		ldr	r2, .L3
 407 000a 5269     		ldr	r2, [r2, #20]
 408 000c 42F4FC02 		orr	r2, r2, #8257536
 409 0010 5A61     		str	r2, [r3, #20]
 410              		.loc 1 112 0
 411 0012 019B     		ldr	r3, [sp, #4]
 412 0014 4FF09040 		mov	r0, #1207959552
 413 0018 1946     		mov	r1, r3
 414 001a FFF7FEFF 		bl	initgpio
 415              		.loc 1 115 0
 416 001e 019B     		ldr	r3, [sp, #4]
 417 0020 1C33     		adds	r3, r3, #28
 418 0022 1048     		ldr	r0, .L3+4
 419 0024 1946     		mov	r1, r3
 420 0026 FFF7FEFF 		bl	initgpio
 421              		.loc 1 118 0
 422 002a 019B     		ldr	r3, [sp, #4]
ARM GAS  /tmp/ccVm1riJ.s 			page 27


 423 002c 3833     		adds	r3, r3, #56
 424 002e 0E48     		ldr	r0, .L3+8
 425 0030 1946     		mov	r1, r3
 426 0032 FFF7FEFF 		bl	initgpio
 427              		.loc 1 121 0
 428 0036 019B     		ldr	r3, [sp, #4]
 429 0038 5433     		adds	r3, r3, #84
 430 003a 0C48     		ldr	r0, .L3+12
 431 003c 1946     		mov	r1, r3
 432 003e FFF7FEFF 		bl	initgpio
 433              		.loc 1 124 0
 434 0042 019B     		ldr	r3, [sp, #4]
 435 0044 7033     		adds	r3, r3, #112
 436 0046 0A48     		ldr	r0, .L3+16
 437 0048 1946     		mov	r1, r3
 438 004a FFF7FEFF 		bl	initgpio
 439              		.loc 1 127 0
 440 004e 019B     		ldr	r3, [sp, #4]
 441 0050 8C33     		adds	r3, r3, #140
 442 0052 0848     		ldr	r0, .L3+20
 443 0054 1946     		mov	r1, r3
 444 0056 FFF7FEFF 		bl	initgpio
 445              		.loc 1 144 0
 446 005a 03B0     		add	sp, sp, #12
 447              		@ sp needed
 448 005c 5DF804FB 		ldr	pc, [sp], #4
 449              	.L4:
 450              		.align	2
 451              	.L3:
 452 0060 00100240 		.word	1073876992
 453 0064 00040048 		.word	1207960576
 454 0068 00080048 		.word	1207961600
 455 006c 000C0048 		.word	1207962624
 456 0070 00100048 		.word	1207963648
 457 0074 00140048 		.word	1207964672
 458              		.cfi_endproc
 459              	.LFE273:
 460              		.size	_pal_lld_init, .-_pal_lld_init
 461 0078 AFF30080 		.section	.text._pal_lld_setgroupmode,"ax",%progbits
 461      AFF30080 
 462              		.align	2
 463              		.p2align 4,,15
 464              		.global	_pal_lld_setgroupmode
 465              		.thumb
 466              		.thumb_func
 467              		.type	_pal_lld_setgroupmode, %function
 468              	_pal_lld_setgroupmode:
 469              	.LFB274:
 470              		.loc 1 161 0
 471              		.cfi_startproc
 472              		@ args = 0, pretend = 0, frame = 56
 473              		@ frame_needed = 0, uses_anonymous_args = 0
 474              		@ link register save eliminated.
 475 0000 8EB0     		sub	sp, sp, #56
 476              		.cfi_def_cfa_offset 56
 477 0002 0390     		str	r0, [sp, #12]
 478 0004 0291     		str	r1, [sp, #8]
ARM GAS  /tmp/ccVm1riJ.s 			page 28


 479 0006 0192     		str	r2, [sp, #4]
 480              		.loc 1 163 0
 481 0008 019B     		ldr	r3, [sp, #4]
 482 000a 03F00303 		and	r3, r3, #3
 483 000e 0D93     		str	r3, [sp, #52]
 484              		.loc 1 164 0
 485 0010 019B     		ldr	r3, [sp, #4]
 486 0012 03F00403 		and	r3, r3, #4
 487 0016 9B08     		lsrs	r3, r3, #2
 488 0018 0C93     		str	r3, [sp, #48]
 489              		.loc 1 165 0
 490 001a 019B     		ldr	r3, [sp, #4]
 491 001c 03F01803 		and	r3, r3, #24
 492 0020 DB08     		lsrs	r3, r3, #3
 493 0022 0B93     		str	r3, [sp, #44]
 494              		.loc 1 166 0
 495 0024 019B     		ldr	r3, [sp, #4]
 496 0026 03F06003 		and	r3, r3, #96
 497 002a 5B09     		lsrs	r3, r3, #5
 498 002c 0A93     		str	r3, [sp, #40]
 499              		.loc 1 167 0
 500 002e 019B     		ldr	r3, [sp, #4]
 501 0030 03F4F063 		and	r3, r3, #1920
 502 0034 DB09     		lsrs	r3, r3, #7
 503 0036 0893     		str	r3, [sp, #32]
 504              		.loc 1 168 0
 505 0038 0023     		movs	r3, #0
 506 003a 0993     		str	r3, [sp, #36]
 507              	.L11:
 508              		.loc 1 170 0
 509 003c 029B     		ldr	r3, [sp, #8]
 510 003e 03F00103 		and	r3, r3, #1
 511 0042 002B     		cmp	r3, #0
 512 0044 54D0     		beq	.L6
 513              	.LBB2:
 514              		.loc 1 173 0
 515 0046 099B     		ldr	r3, [sp, #36]
 516 0048 03F00703 		and	r3, r3, #7
 517 004c 9B00     		lsls	r3, r3, #2
 518 004e 089A     		ldr	r2, [sp, #32]
 519 0050 02FA03F3 		lsl	r3, r2, r3
 520 0054 0793     		str	r3, [sp, #28]
 521              		.loc 1 174 0
 522 0056 099B     		ldr	r3, [sp, #36]
 523 0058 03F00703 		and	r3, r3, #7
 524 005c 9B00     		lsls	r3, r3, #2
 525 005e 0F22     		movs	r2, #15
 526 0060 02FA03F3 		lsl	r3, r2, r3
 527 0064 0693     		str	r3, [sp, #24]
 528              		.loc 1 175 0
 529 0066 099B     		ldr	r3, [sp, #36]
 530 0068 072B     		cmp	r3, #7
 531 006a 09D8     		bhi	.L7
 532              		.loc 1 176 0
 533 006c 039B     		ldr	r3, [sp, #12]
 534 006e 1A6A     		ldr	r2, [r3, #32]
 535 0070 069B     		ldr	r3, [sp, #24]
ARM GAS  /tmp/ccVm1riJ.s 			page 29


 536 0072 DB43     		mvns	r3, r3
 537 0074 1A40     		ands	r2, r2, r3
 538 0076 079B     		ldr	r3, [sp, #28]
 539 0078 1A43     		orrs	r2, r2, r3
 540 007a 039B     		ldr	r3, [sp, #12]
 541 007c 1A62     		str	r2, [r3, #32]
 542 007e 08E0     		b	.L8
 543              	.L7:
 544              		.loc 1 178 0
 545 0080 039B     		ldr	r3, [sp, #12]
 546 0082 5A6A     		ldr	r2, [r3, #36]
 547 0084 069B     		ldr	r3, [sp, #24]
 548 0086 DB43     		mvns	r3, r3
 549 0088 1A40     		ands	r2, r2, r3
 550 008a 079B     		ldr	r3, [sp, #28]
 551 008c 1A43     		orrs	r2, r2, r3
 552 008e 039B     		ldr	r3, [sp, #12]
 553 0090 5A62     		str	r2, [r3, #36]
 554              	.L8:
 555              		.loc 1 179 0
 556 0092 099B     		ldr	r3, [sp, #36]
 557 0094 0122     		movs	r2, #1
 558 0096 02FA03F3 		lsl	r3, r2, r3
 559 009a 0593     		str	r3, [sp, #20]
 560              		.loc 1 180 0
 561 009c 039B     		ldr	r3, [sp, #12]
 562 009e 5A68     		ldr	r2, [r3, #4]
 563 00a0 059B     		ldr	r3, [sp, #20]
 564 00a2 DB43     		mvns	r3, r3
 565 00a4 1A40     		ands	r2, r2, r3
 566 00a6 0C9B     		ldr	r3, [sp, #48]
 567 00a8 1A43     		orrs	r2, r2, r3
 568 00aa 039B     		ldr	r3, [sp, #12]
 569 00ac 5A60     		str	r2, [r3, #4]
 570              		.loc 1 181 0
 571 00ae 099B     		ldr	r3, [sp, #36]
 572 00b0 5B00     		lsls	r3, r3, #1
 573 00b2 0322     		movs	r2, #3
 574 00b4 02FA03F3 		lsl	r3, r2, r3
 575 00b8 0493     		str	r3, [sp, #16]
 576              		.loc 1 182 0
 577 00ba 039B     		ldr	r3, [sp, #12]
 578 00bc 9A68     		ldr	r2, [r3, #8]
 579 00be 049B     		ldr	r3, [sp, #16]
 580 00c0 DB43     		mvns	r3, r3
 581 00c2 1A40     		ands	r2, r2, r3
 582 00c4 0B9B     		ldr	r3, [sp, #44]
 583 00c6 1A43     		orrs	r2, r2, r3
 584 00c8 039B     		ldr	r3, [sp, #12]
 585 00ca 9A60     		str	r2, [r3, #8]
 586              		.loc 1 183 0
 587 00cc 039B     		ldr	r3, [sp, #12]
 588 00ce DA68     		ldr	r2, [r3, #12]
 589 00d0 049B     		ldr	r3, [sp, #16]
 590 00d2 DB43     		mvns	r3, r3
 591 00d4 1A40     		ands	r2, r2, r3
 592 00d6 0A9B     		ldr	r3, [sp, #40]
ARM GAS  /tmp/ccVm1riJ.s 			page 30


 593 00d8 1A43     		orrs	r2, r2, r3
 594 00da 039B     		ldr	r3, [sp, #12]
 595 00dc DA60     		str	r2, [r3, #12]
 596              		.loc 1 184 0
 597 00de 039B     		ldr	r3, [sp, #12]
 598 00e0 1A68     		ldr	r2, [r3]
 599 00e2 049B     		ldr	r3, [sp, #16]
 600 00e4 DB43     		mvns	r3, r3
 601 00e6 1A40     		ands	r2, r2, r3
 602 00e8 0D9B     		ldr	r3, [sp, #52]
 603 00ea 1A43     		orrs	r2, r2, r3
 604 00ec 039B     		ldr	r3, [sp, #12]
 605 00ee 1A60     		str	r2, [r3]
 606              	.L6:
 607              	.LBE2:
 608              		.loc 1 186 0
 609 00f0 029B     		ldr	r3, [sp, #8]
 610 00f2 5B08     		lsrs	r3, r3, #1
 611 00f4 0293     		str	r3, [sp, #8]
 612              		.loc 1 187 0
 613 00f6 029B     		ldr	r3, [sp, #8]
 614 00f8 002B     		cmp	r3, #0
 615 00fa 00D1     		bne	.L9
 616              		.loc 1 188 0
 617 00fc 0FE0     		b	.L12
 618              	.L9:
 619              		.loc 1 189 0
 620 00fe 0C9B     		ldr	r3, [sp, #48]
 621 0100 5B00     		lsls	r3, r3, #1
 622 0102 0C93     		str	r3, [sp, #48]
 623              		.loc 1 190 0
 624 0104 0B9B     		ldr	r3, [sp, #44]
 625 0106 9B00     		lsls	r3, r3, #2
 626 0108 0B93     		str	r3, [sp, #44]
 627              		.loc 1 191 0
 628 010a 0A9B     		ldr	r3, [sp, #40]
 629 010c 9B00     		lsls	r3, r3, #2
 630 010e 0A93     		str	r3, [sp, #40]
 631              		.loc 1 192 0
 632 0110 0D9B     		ldr	r3, [sp, #52]
 633 0112 9B00     		lsls	r3, r3, #2
 634 0114 0D93     		str	r3, [sp, #52]
 635              		.loc 1 193 0
 636 0116 099B     		ldr	r3, [sp, #36]
 637 0118 0133     		adds	r3, r3, #1
 638 011a 0993     		str	r3, [sp, #36]
 639              		.loc 1 194 0
 640 011c 8EE7     		b	.L11
 641              	.L12:
 642              		.loc 1 195 0
 643 011e 0EB0     		add	sp, sp, #56
 644              		@ sp needed
 645 0120 7047     		bx	lr
 646              		.cfi_endproc
 647              	.LFE274:
 648              		.size	_pal_lld_setgroupmode, .-_pal_lld_setgroupmode
 649 0122 00BFAFF3 		.text
ARM GAS  /tmp/ccVm1riJ.s 			page 31


 649      0080AFF3 
 649      0080AFF3 
 649      0080
 650              	.Letext0:
 651              		.file 2 "/nfs/nfs5/home/research/hardware/arm2/gcc-arm-embedded/gcc-arm-none-eabi-4_8-2014q2/arm-n
 652              		.file 3 "/nfs/nfs5/home/research/hardware/arm2/gcc-arm-embedded/gcc-arm-none-eabi-4_8-2014q2/arm-n
 653              		.file 4 "../ChibiOS/os/rt/ports/ARMCMx/compilers/GCC/chtypes.h"
 654              		.file 5 "../ChibiOS/os/rt/include/chsystypes.h"
 655              		.file 6 "../ChibiOS/os/rt/include/chschd.h"
 656              		.file 7 "../ChibiOS/os/ext/CMSIS/ST/STM32F3xx/stm32f303xc.h"
 657              		.file 8 "../ChibiOS/os/rt/ports/ARMCMx/chcore.h"
 658              		.file 9 "../ChibiOS/os/rt/ports/ARMCMx/chcore_v7m.h"
 659              		.file 10 "../ChibiOS/os/rt/include/chtm.h"
 660              		.file 11 "../ChibiOS/os/rt/include/chsem.h"
 661              		.file 12 "../ChibiOS/os/rt/include/chmtx.h"
 662              		.file 13 "../ChibiOS/os/hal/ports/STM32/LLD/GPIOv2/pal_lld.h"
 663              		.file 14 "../ChibiOS/os/ext/CMSIS/include/core_cm4.h"
 664              		.section	.debug_info,"",%progbits
 665              	.Ldebug_info0:
 666 0000 310A0000 		.4byte	0xa31
 667 0004 0400     		.2byte	0x4
 668 0006 00000000 		.4byte	.Ldebug_abbrev0
 669 000a 04       		.byte	0x4
 670 000b 01       		.uleb128 0x1
 671 000c 0E020000 		.4byte	.LASF153
 672 0010 01       		.byte	0x1
 673 0011 18010000 		.4byte	.LASF154
 674 0015 55050000 		.4byte	.LASF155
 675 0019 00000000 		.4byte	.Ldebug_ranges0+0
 676 001d 00000000 		.4byte	0
 677 0021 00000000 		.4byte	.Ldebug_line0
 678 0025 02       		.uleb128 0x2
 679 0026 04       		.byte	0x4
 680 0027 05       		.byte	0x5
 681 0028 696E7400 		.ascii	"int\000"
 682 002c 03       		.uleb128 0x3
 683 002d 04       		.byte	0x4
 684 002e 07       		.byte	0x7
 685 002f EE020000 		.4byte	.LASF0
 686 0033 03       		.uleb128 0x3
 687 0034 01       		.byte	0x1
 688 0035 06       		.byte	0x6
 689 0036 F7000000 		.4byte	.LASF1
 690 003a 04       		.uleb128 0x4
 691 003b 36000000 		.4byte	.LASF4
 692 003f 02       		.byte	0x2
 693 0040 1C       		.byte	0x1c
 694 0041 45000000 		.4byte	0x45
 695 0045 03       		.uleb128 0x3
 696 0046 01       		.byte	0x1
 697 0047 08       		.byte	0x8
 698 0048 9B040000 		.4byte	.LASF2
 699 004c 03       		.uleb128 0x3
 700 004d 02       		.byte	0x2
 701 004e 05       		.byte	0x5
 702 004f BE040000 		.4byte	.LASF3
 703 0053 04       		.uleb128 0x4
ARM GAS  /tmp/ccVm1riJ.s 			page 32


 704 0054 C8050000 		.4byte	.LASF5
 705 0058 02       		.byte	0x2
 706 0059 26       		.byte	0x26
 707 005a 5E000000 		.4byte	0x5e
 708 005e 03       		.uleb128 0x3
 709 005f 02       		.byte	0x2
 710 0060 07       		.byte	0x7
 711 0061 29030000 		.4byte	.LASF6
 712 0065 04       		.uleb128 0x4
 713 0066 81030000 		.4byte	.LASF7
 714 006a 02       		.byte	0x2
 715 006b 37       		.byte	0x37
 716 006c 70000000 		.4byte	0x70
 717 0070 03       		.uleb128 0x3
 718 0071 04       		.byte	0x4
 719 0072 05       		.byte	0x5
 720 0073 67010000 		.4byte	.LASF8
 721 0077 04       		.uleb128 0x4
 722 0078 01060000 		.4byte	.LASF9
 723 007c 02       		.byte	0x2
 724 007d 38       		.byte	0x38
 725 007e 82000000 		.4byte	0x82
 726 0082 03       		.uleb128 0x3
 727 0083 04       		.byte	0x4
 728 0084 07       		.byte	0x7
 729 0085 A0050000 		.4byte	.LASF10
 730 0089 03       		.uleb128 0x3
 731 008a 08       		.byte	0x8
 732 008b 05       		.byte	0x5
 733 008c E9000000 		.4byte	.LASF11
 734 0090 04       		.uleb128 0x4
 735 0091 41040000 		.4byte	.LASF12
 736 0095 02       		.byte	0x2
 737 0096 4E       		.byte	0x4e
 738 0097 9B000000 		.4byte	0x9b
 739 009b 03       		.uleb128 0x3
 740 009c 08       		.byte	0x8
 741 009d 07       		.byte	0x7
 742 009e 75000000 		.4byte	.LASF13
 743 00a2 04       		.uleb128 0x4
 744 00a3 BE060000 		.4byte	.LASF14
 745 00a7 03       		.byte	0x3
 746 00a8 2A       		.byte	0x2a
 747 00a9 3A000000 		.4byte	0x3a
 748 00ad 04       		.uleb128 0x4
 749 00ae 89010000 		.4byte	.LASF15
 750 00b2 03       		.byte	0x3
 751 00b3 36       		.byte	0x36
 752 00b4 53000000 		.4byte	0x53
 753 00b8 04       		.uleb128 0x4
 754 00b9 93040000 		.4byte	.LASF16
 755 00bd 03       		.byte	0x3
 756 00be 41       		.byte	0x41
 757 00bf 65000000 		.4byte	0x65
 758 00c3 04       		.uleb128 0x4
 759 00c4 24050000 		.4byte	.LASF17
 760 00c8 03       		.byte	0x3
ARM GAS  /tmp/ccVm1riJ.s 			page 33


 761 00c9 42       		.byte	0x42
 762 00ca 77000000 		.4byte	0x77
 763 00ce 04       		.uleb128 0x4
 764 00cf 2D000000 		.4byte	.LASF18
 765 00d3 03       		.byte	0x3
 766 00d4 4E       		.byte	0x4e
 767 00d5 90000000 		.4byte	0x90
 768 00d9 04       		.uleb128 0x4
 769 00da 6A060000 		.4byte	.LASF19
 770 00de 04       		.byte	0x4
 771 00df 39       		.byte	0x39
 772 00e0 C3000000 		.4byte	0xc3
 773 00e4 04       		.uleb128 0x4
 774 00e5 5F030000 		.4byte	.LASF20
 775 00e9 04       		.byte	0x4
 776 00ea 3C       		.byte	0x3c
 777 00eb A2000000 		.4byte	0xa2
 778 00ef 04       		.uleb128 0x4
 779 00f0 80010000 		.4byte	.LASF21
 780 00f4 04       		.byte	0x4
 781 00f5 3D       		.byte	0x3d
 782 00f6 A2000000 		.4byte	0xa2
 783 00fa 04       		.uleb128 0x4
 784 00fb 56040000 		.4byte	.LASF22
 785 00ff 04       		.byte	0x4
 786 0100 3E       		.byte	0x3e
 787 0101 A2000000 		.4byte	0xa2
 788 0105 04       		.uleb128 0x4
 789 0106 75040000 		.4byte	.LASF23
 790 010a 04       		.byte	0x4
 791 010b 40       		.byte	0x40
 792 010c C3000000 		.4byte	0xc3
 793 0110 04       		.uleb128 0x4
 794 0111 4D030000 		.4byte	.LASF24
 795 0115 04       		.byte	0x4
 796 0116 41       		.byte	0x41
 797 0117 B8000000 		.4byte	0xb8
 798 011b 04       		.uleb128 0x4
 799 011c 75030000 		.4byte	.LASF25
 800 0120 04       		.byte	0x4
 801 0121 43       		.byte	0x43
 802 0122 C3000000 		.4byte	0xc3
 803 0126 04       		.uleb128 0x4
 804 0127 08020000 		.4byte	.LASF26
 805 012b 04       		.byte	0x4
 806 012c 45       		.byte	0x45
 807 012d B8000000 		.4byte	0xb8
 808 0131 04       		.uleb128 0x4
 809 0132 E3050000 		.4byte	.LASF27
 810 0136 05       		.byte	0x5
 811 0137 33       		.byte	0x33
 812 0138 C3000000 		.4byte	0xc3
 813 013c 04       		.uleb128 0x4
 814 013d D3050000 		.4byte	.LASF28
 815 0141 05       		.byte	0x5
 816 0142 3F       		.byte	0x3f
 817 0143 47010000 		.4byte	0x147
ARM GAS  /tmp/ccVm1riJ.s 			page 34


 818 0147 05       		.uleb128 0x5
 819 0148 43030000 		.4byte	.LASF48
 820 014c 44       		.byte	0x44
 821 014d 06       		.byte	0x6
 822 014e C2       		.byte	0xc2
 823 014f 33020000 		.4byte	0x233
 824 0153 06       		.uleb128 0x6
 825 0154 E8030000 		.4byte	.LASF29
 826 0158 06       		.byte	0x6
 827 0159 C3       		.byte	0xc3
 828 015a 3E020000 		.4byte	0x23e
 829 015e 00       		.byte	0
 830 015f 06       		.uleb128 0x6
 831 0160 6E040000 		.4byte	.LASF30
 832 0164 06       		.byte	0x6
 833 0165 C5       		.byte	0xc5
 834 0166 3E020000 		.4byte	0x23e
 835 016a 04       		.byte	0x4
 836 016b 06       		.uleb128 0x6
 837 016c E2000000 		.4byte	.LASF31
 838 0170 06       		.byte	0x6
 839 0171 C7       		.byte	0xc7
 840 0172 05010000 		.4byte	0x105
 841 0176 08       		.byte	0x8
 842 0177 06       		.uleb128 0x6
 843 0178 01070000 		.4byte	.LASF32
 844 017c 06       		.byte	0x6
 845 017d C8       		.byte	0xc8
 846 017e 31050000 		.4byte	0x531
 847 0182 0C       		.byte	0xc
 848 0183 06       		.uleb128 0x6
 849 0184 9B010000 		.4byte	.LASF33
 850 0188 06       		.byte	0x6
 851 0189 CA       		.byte	0xca
 852 018a 3E020000 		.4byte	0x23e
 853 018e 10       		.byte	0x10
 854 018f 06       		.uleb128 0x6
 855 0190 FB030000 		.4byte	.LASF34
 856 0194 06       		.byte	0x6
 857 0195 CB       		.byte	0xcb
 858 0196 3E020000 		.4byte	0x23e
 859 019a 14       		.byte	0x14
 860 019b 06       		.uleb128 0x6
 861 019c D3060000 		.4byte	.LASF35
 862 01a0 06       		.byte	0x6
 863 01a1 D2       		.byte	0xd2
 864 01a2 BC060000 		.4byte	0x6bc
 865 01a6 18       		.byte	0x18
 866 01a7 06       		.uleb128 0x6
 867 01a8 0C060000 		.4byte	.LASF36
 868 01ac 06       		.byte	0x6
 869 01ad D8       		.byte	0xd8
 870 01ae CE060000 		.4byte	0x6ce
 871 01b2 1C       		.byte	0x1c
 872 01b3 06       		.uleb128 0x6
 873 01b4 C8040000 		.4byte	.LASF37
 874 01b8 06       		.byte	0x6
ARM GAS  /tmp/ccVm1riJ.s 			page 35


 875 01b9 DD       		.byte	0xdd
 876 01ba EF000000 		.4byte	0xef
 877 01be 20       		.byte	0x20
 878 01bf 06       		.uleb128 0x6
 879 01c0 E5040000 		.4byte	.LASF38
 880 01c4 06       		.byte	0x6
 881 01c5 E1       		.byte	0xe1
 882 01c6 E4000000 		.4byte	0xe4
 883 01ca 21       		.byte	0x21
 884 01cb 06       		.uleb128 0x6
 885 01cc 92060000 		.4byte	.LASF39
 886 01d0 06       		.byte	0x6
 887 01d1 E6       		.byte	0xe6
 888 01d2 FA000000 		.4byte	0xfa
 889 01d6 22       		.byte	0x22
 890 01d7 07       		.uleb128 0x7
 891 01d8 705F7500 		.ascii	"p_u\000"
 892 01dc 06       		.byte	0x6
 893 01dd 3701     		.2byte	0x137
 894 01df EB050000 		.4byte	0x5eb
 895 01e3 24       		.byte	0x24
 896 01e4 08       		.uleb128 0x8
 897 01e5 A5030000 		.4byte	.LASF40
 898 01e9 06       		.byte	0x6
 899 01ea 3C01     		.2byte	0x13c
 900 01ec 44020000 		.4byte	0x244
 901 01f0 28       		.byte	0x28
 902 01f1 08       		.uleb128 0x8
 903 01f2 0A030000 		.4byte	.LASF41
 904 01f6 06       		.byte	0x6
 905 01f7 4201     		.2byte	0x142
 906 01f9 68020000 		.4byte	0x268
 907 01fd 2C       		.byte	0x2c
 908 01fe 08       		.uleb128 0x8
 909 01ff 19050000 		.4byte	.LASF42
 910 0203 06       		.byte	0x6
 911 0204 4801     		.2byte	0x148
 912 0206 1B010000 		.4byte	0x11b
 913 020a 34       		.byte	0x34
 914 020b 08       		.uleb128 0x8
 915 020c B4040000 		.4byte	.LASF43
 916 0210 06       		.byte	0x6
 917 0211 4F01     		.2byte	0x14f
 918 0213 B6060000 		.4byte	0x6b6
 919 0217 38       		.byte	0x38
 920 0218 08       		.uleb128 0x8
 921 0219 ED050000 		.4byte	.LASF44
 922 021d 06       		.byte	0x6
 923 021e 5301     		.2byte	0x153
 924 0220 05010000 		.4byte	0x105
 925 0224 3C       		.byte	0x3c
 926 0225 08       		.uleb128 0x8
 927 0226 08010000 		.4byte	.LASF45
 928 022a 06       		.byte	0x6
 929 022b 5A01     		.2byte	0x15a
 930 022d 1B030000 		.4byte	0x31b
 931 0231 40       		.byte	0x40
ARM GAS  /tmp/ccVm1riJ.s 			page 36


 932 0232 00       		.byte	0
 933 0233 04       		.uleb128 0x4
 934 0234 B8030000 		.4byte	.LASF46
 935 0238 05       		.byte	0x5
 936 0239 44       		.byte	0x44
 937 023a 3E020000 		.4byte	0x23e
 938 023e 09       		.uleb128 0x9
 939 023f 04       		.byte	0x4
 940 0240 3C010000 		.4byte	0x13c
 941 0244 04       		.uleb128 0x4
 942 0245 96030000 		.4byte	.LASF47
 943 0249 05       		.byte	0x5
 944 024a 49       		.byte	0x49
 945 024b 4F020000 		.4byte	0x24f
 946 024f 05       		.uleb128 0x5
 947 0250 45050000 		.4byte	.LASF49
 948 0254 04       		.byte	0x4
 949 0255 06       		.byte	0x6
 950 0256 B0       		.byte	0xb0
 951 0257 68020000 		.4byte	0x268
 952 025b 06       		.uleb128 0x6
 953 025c E8030000 		.4byte	.LASF29
 954 0260 06       		.byte	0x6
 955 0261 B1       		.byte	0xb1
 956 0262 3E020000 		.4byte	0x23e
 957 0266 00       		.byte	0
 958 0267 00       		.byte	0
 959 0268 04       		.uleb128 0x4
 960 0269 79060000 		.4byte	.LASF50
 961 026d 05       		.byte	0x5
 962 026e 50       		.byte	0x50
 963 026f 73020000 		.4byte	0x273
 964 0273 05       		.uleb128 0x5
 965 0274 D1000000 		.4byte	.LASF51
 966 0278 08       		.byte	0x8
 967 0279 06       		.byte	0x6
 968 027a B7       		.byte	0xb7
 969 027b 98020000 		.4byte	0x298
 970 027f 06       		.uleb128 0x6
 971 0280 E8030000 		.4byte	.LASF29
 972 0284 06       		.byte	0x6
 973 0285 B8       		.byte	0xb8
 974 0286 3E020000 		.4byte	0x23e
 975 028a 00       		.byte	0
 976 028b 06       		.uleb128 0x6
 977 028c 6E040000 		.4byte	.LASF30
 978 0290 06       		.byte	0x6
 979 0291 B9       		.byte	0xb9
 980 0292 3E020000 		.4byte	0x23e
 981 0296 04       		.byte	0x4
 982 0297 00       		.byte	0
 983 0298 04       		.uleb128 0x4
 984 0299 13000000 		.4byte	.LASF52
 985 029d 05       		.byte	0x5
 986 029e 57       		.byte	0x57
 987 029f A3020000 		.4byte	0x2a3
 988 02a3 0A       		.uleb128 0xa
ARM GAS  /tmp/ccVm1riJ.s 			page 37


 989 02a4 67030000 		.4byte	.LASF53
 990 02a8 1C       		.byte	0x1c
 991 02a9 06       		.byte	0x6
 992 02aa 9201     		.2byte	0x192
 993 02ac FF020000 		.4byte	0x2ff
 994 02b0 08       		.uleb128 0x8
 995 02b1 34050000 		.4byte	.LASF54
 996 02b5 06       		.byte	0x6
 997 02b6 9301     		.2byte	0x193
 998 02b8 68020000 		.4byte	0x268
 999 02bc 00       		.byte	0
 1000 02bd 08       		.uleb128 0x8
 1001 02be D0040000 		.4byte	.LASF55
 1002 02c2 06       		.byte	0x6
 1003 02c3 9401     		.2byte	0x194
 1004 02c5 05010000 		.4byte	0x105
 1005 02c9 08       		.byte	0x8
 1006 02ca 08       		.uleb128 0x8
 1007 02cb 03040000 		.4byte	.LASF56
 1008 02cf 06       		.byte	0x6
 1009 02d0 9601     		.2byte	0x196
 1010 02d2 31050000 		.4byte	0x531
 1011 02d6 0C       		.byte	0xc
 1012 02d7 08       		.uleb128 0x8
 1013 02d8 B3010000 		.4byte	.LASF57
 1014 02dc 06       		.byte	0x6
 1015 02dd 9901     		.2byte	0x199
 1016 02df 3E020000 		.4byte	0x23e
 1017 02e3 10       		.byte	0x10
 1018 02e4 08       		.uleb128 0x8
 1019 02e5 4C060000 		.4byte	.LASF58
 1020 02e9 06       		.byte	0x6
 1021 02ea 9A01     		.2byte	0x19a
 1022 02ec 3E020000 		.4byte	0x23e
 1023 02f0 14       		.byte	0x14
 1024 02f1 08       		.uleb128 0x8
 1025 02f2 2E040000 		.4byte	.LASF59
 1026 02f6 06       		.byte	0x6
 1027 02f7 9D01     		.2byte	0x19d
 1028 02f9 3E020000 		.4byte	0x23e
 1029 02fd 18       		.byte	0x18
 1030 02fe 00       		.byte	0
 1031 02ff 04       		.uleb128 0x4
 1032 0300 F8050000 		.4byte	.LASF60
 1033 0304 05       		.byte	0x5
 1034 0305 5C       		.byte	0x5c
 1035 0306 0A030000 		.4byte	0x30a
 1036 030a 09       		.uleb128 0x9
 1037 030b 04       		.byte	0x4
 1038 030c 10030000 		.4byte	0x310
 1039 0310 0B       		.uleb128 0xb
 1040 0311 1B030000 		.4byte	0x31b
 1041 0315 0C       		.uleb128 0xc
 1042 0316 1B030000 		.4byte	0x31b
 1043 031a 00       		.byte	0
 1044 031b 0D       		.uleb128 0xd
 1045 031c 04       		.byte	0x4
ARM GAS  /tmp/ccVm1riJ.s 			page 38


 1046 031d 04       		.uleb128 0x4
 1047 031e 5E040000 		.4byte	.LASF61
 1048 0322 05       		.byte	0x5
 1049 0323 61       		.byte	0x61
 1050 0324 28030000 		.4byte	0x328
 1051 0328 0A       		.uleb128 0xa
 1052 0329 FB040000 		.4byte	.LASF62
 1053 032d 14       		.byte	0x14
 1054 032e 06       		.byte	0x6
 1055 032f 6D01     		.2byte	0x16d
 1056 0331 77030000 		.4byte	0x377
 1057 0335 08       		.uleb128 0x8
 1058 0336 FB020000 		.4byte	.LASF63
 1059 033a 06       		.byte	0x6
 1060 033b 6E01     		.2byte	0x16e
 1061 033d D4060000 		.4byte	0x6d4
 1062 0341 00       		.byte	0
 1063 0342 08       		.uleb128 0x8
 1064 0343 C9010000 		.4byte	.LASF64
 1065 0347 06       		.byte	0x6
 1066 0348 6F01     		.2byte	0x16f
 1067 034a D4060000 		.4byte	0x6d4
 1068 034e 04       		.byte	0x4
 1069 034f 08       		.uleb128 0x8
 1070 0350 3C050000 		.4byte	.LASF65
 1071 0354 06       		.byte	0x6
 1072 0355 7001     		.2byte	0x170
 1073 0357 31010000 		.4byte	0x131
 1074 035b 08       		.byte	0x8
 1075 035c 08       		.uleb128 0x8
 1076 035d 07070000 		.4byte	.LASF66
 1077 0361 06       		.byte	0x6
 1078 0362 7101     		.2byte	0x171
 1079 0364 FF020000 		.4byte	0x2ff
 1080 0368 0C       		.byte	0xc
 1081 0369 08       		.uleb128 0x8
 1082 036a 72060000 		.4byte	.LASF67
 1083 036e 06       		.byte	0x6
 1084 036f 7301     		.2byte	0x173
 1085 0371 1B030000 		.4byte	0x31b
 1086 0375 10       		.byte	0x10
 1087 0376 00       		.byte	0
 1088 0377 04       		.uleb128 0x4
 1089 0378 AE000000 		.4byte	.LASF68
 1090 037c 05       		.byte	0x5
 1091 037d 66       		.byte	0x66
 1092 037e 82030000 		.4byte	0x382
 1093 0382 0A       		.uleb128 0xa
 1094 0383 CB030000 		.4byte	.LASF69
 1095 0387 10       		.byte	0x10
 1096 0388 06       		.byte	0x6
 1097 0389 7D01     		.2byte	0x17d
 1098 038b C4030000 		.4byte	0x3c4
 1099 038f 08       		.uleb128 0x8
 1100 0390 FB020000 		.4byte	.LASF63
 1101 0394 06       		.byte	0x6
 1102 0395 7E01     		.2byte	0x17e
ARM GAS  /tmp/ccVm1riJ.s 			page 39


 1103 0397 D4060000 		.4byte	0x6d4
 1104 039b 00       		.byte	0
 1105 039c 08       		.uleb128 0x8
 1106 039d C9010000 		.4byte	.LASF64
 1107 03a1 06       		.byte	0x6
 1108 03a2 8001     		.2byte	0x180
 1109 03a4 D4060000 		.4byte	0x6d4
 1110 03a8 04       		.byte	0x4
 1111 03a9 08       		.uleb128 0x8
 1112 03aa 3C050000 		.4byte	.LASF65
 1113 03ae 06       		.byte	0x6
 1114 03af 8201     		.2byte	0x182
 1115 03b1 31010000 		.4byte	0x131
 1116 03b5 08       		.byte	0x8
 1117 03b6 08       		.uleb128 0x8
 1118 03b7 EF030000 		.4byte	.LASF70
 1119 03bb 06       		.byte	0x6
 1120 03bc 8A01     		.2byte	0x18a
 1121 03be 31010000 		.4byte	0x131
 1122 03c2 0C       		.byte	0xc
 1123 03c3 00       		.byte	0
 1124 03c4 04       		.uleb128 0x4
 1125 03c5 53000000 		.4byte	.LASF71
 1126 03c9 05       		.byte	0x5
 1127 03ca 6B       		.byte	0x6b
 1128 03cb CF030000 		.4byte	0x3cf
 1129 03cf 0A       		.uleb128 0xa
 1130 03d0 7D040000 		.4byte	.LASF72
 1131 03d4 04       		.byte	0x4
 1132 03d5 06       		.byte	0x6
 1133 03d6 A401     		.2byte	0x1a4
 1134 03d8 EA030000 		.4byte	0x3ea
 1135 03dc 08       		.uleb128 0x8
 1136 03dd 20060000 		.4byte	.LASF73
 1137 03e1 06       		.byte	0x6
 1138 03e2 AC01     		.2byte	0x1ac
 1139 03e4 DA060000 		.4byte	0x6da
 1140 03e8 00       		.byte	0
 1141 03e9 00       		.byte	0
 1142 03ea 04       		.uleb128 0x4
 1143 03eb 53030000 		.4byte	.LASF74
 1144 03ef 05       		.byte	0x5
 1145 03f0 70       		.byte	0x70
 1146 03f1 F5030000 		.4byte	0x3f5
 1147 03f5 0E       		.uleb128 0xe
 1148 03f6 5D010000 		.4byte	.LASF75
 1149 03fa 5001     		.2byte	0x150
 1150 03fc 06       		.byte	0x6
 1151 03fd C401     		.2byte	0x1c4
 1152 03ff 51040000 		.4byte	0x451
 1153 0403 08       		.uleb128 0x8
 1154 0404 AC060000 		.4byte	.LASF76
 1155 0408 06       		.byte	0x6
 1156 0409 C801     		.2byte	0x1c8
 1157 040b 98020000 		.4byte	0x298
 1158 040f 00       		.byte	0
 1159 0410 08       		.uleb128 0x8
ARM GAS  /tmp/ccVm1riJ.s 			page 40


 1160 0411 D1010000 		.4byte	.LASF77
 1161 0415 06       		.byte	0x6
 1162 0416 CC01     		.2byte	0x1cc
 1163 0418 77030000 		.4byte	0x377
 1164 041c 1C       		.byte	0x1c
 1165 041d 07       		.uleb128 0x7
 1166 041e 64626700 		.ascii	"dbg\000"
 1167 0422 06       		.byte	0x6
 1168 0423 D001     		.2byte	0x1d0
 1169 0425 C4030000 		.4byte	0x3c4
 1170 0429 2C       		.byte	0x2c
 1171 042a 08       		.uleb128 0x8
 1172 042b 9B000000 		.4byte	.LASF78
 1173 042f 06       		.byte	0x6
 1174 0430 D401     		.2byte	0x1d4
 1175 0432 3C010000 		.4byte	0x13c
 1176 0436 30       		.byte	0x30
 1177 0437 07       		.uleb128 0x7
 1178 0438 746D00   		.ascii	"tm\000"
 1179 043b 06       		.byte	0x6
 1180 043c D901     		.2byte	0x1d9
 1181 043e E0050000 		.4byte	0x5e0
 1182 0442 74       		.byte	0x74
 1183 0443 08       		.uleb128 0x8
 1184 0444 F9010000 		.4byte	.LASF79
 1185 0448 06       		.byte	0x6
 1186 0449 E501     		.2byte	0x1e5
 1187 044b DF060000 		.4byte	0x6df
 1188 044f 78       		.byte	0x78
 1189 0450 00       		.byte	0
 1190 0451 03       		.uleb128 0x3
 1191 0452 04       		.byte	0x4
 1192 0453 07       		.byte	0x7
 1193 0454 AF030000 		.4byte	.LASF80
 1194 0458 0F       		.uleb128 0xf
 1195 0459 C3000000 		.4byte	0xc3
 1196 045d 10       		.uleb128 0x10
 1197 045e 34       		.byte	0x34
 1198 045f 07       		.byte	0x7
 1199 0460 FB01     		.2byte	0x1fb
 1200 0462 0F050000 		.4byte	0x50f
 1201 0466 07       		.uleb128 0x7
 1202 0467 435200   		.ascii	"CR\000"
 1203 046a 07       		.byte	0x7
 1204 046b FD01     		.2byte	0x1fd
 1205 046d 58040000 		.4byte	0x458
 1206 0471 00       		.byte	0
 1207 0472 08       		.uleb128 0x8
 1208 0473 E1060000 		.4byte	.LASF81
 1209 0477 07       		.byte	0x7
 1210 0478 FE01     		.2byte	0x1fe
 1211 047a 58040000 		.4byte	0x458
 1212 047e 04       		.byte	0x4
 1213 047f 07       		.uleb128 0x7
 1214 0480 43495200 		.ascii	"CIR\000"
 1215 0484 07       		.byte	0x7
 1216 0485 FF01     		.2byte	0x1ff
ARM GAS  /tmp/ccVm1riJ.s 			page 41


 1217 0487 58040000 		.4byte	0x458
 1218 048b 08       		.byte	0x8
 1219 048c 08       		.uleb128 0x8
 1220 048d 77010000 		.4byte	.LASF82
 1221 0491 07       		.byte	0x7
 1222 0492 0002     		.2byte	0x200
 1223 0494 58040000 		.4byte	0x458
 1224 0498 0C       		.byte	0xc
 1225 0499 08       		.uleb128 0x8
 1226 049a 38040000 		.4byte	.LASF83
 1227 049e 07       		.byte	0x7
 1228 049f 0102     		.2byte	0x201
 1229 04a1 58040000 		.4byte	0x458
 1230 04a5 10       		.byte	0x10
 1231 04a6 08       		.uleb128 0x8
 1232 04a7 0F070000 		.4byte	.LASF84
 1233 04ab 07       		.byte	0x7
 1234 04ac 0202     		.2byte	0x202
 1235 04ae 58040000 		.4byte	0x458
 1236 04b2 14       		.byte	0x14
 1237 04b3 08       		.uleb128 0x8
 1238 04b4 F3040000 		.4byte	.LASF85
 1239 04b8 07       		.byte	0x7
 1240 04b9 0302     		.2byte	0x203
 1241 04bb 58040000 		.4byte	0x458
 1242 04bf 18       		.byte	0x18
 1243 04c0 08       		.uleb128 0x8
 1244 04c1 31060000 		.4byte	.LASF86
 1245 04c5 07       		.byte	0x7
 1246 04c6 0402     		.2byte	0x204
 1247 04c8 58040000 		.4byte	0x458
 1248 04cc 1C       		.byte	0x1c
 1249 04cd 08       		.uleb128 0x8
 1250 04ce A7060000 		.4byte	.LASF87
 1251 04d2 07       		.byte	0x7
 1252 04d3 0502     		.2byte	0x205
 1253 04d5 58040000 		.4byte	0x458
 1254 04d9 20       		.byte	0x20
 1255 04da 07       		.uleb128 0x7
 1256 04db 43535200 		.ascii	"CSR\000"
 1257 04df 07       		.byte	0x7
 1258 04e0 0602     		.2byte	0x206
 1259 04e2 58040000 		.4byte	0x458
 1260 04e6 24       		.byte	0x24
 1261 04e7 08       		.uleb128 0x8
 1262 04e8 1F040000 		.4byte	.LASF88
 1263 04ec 07       		.byte	0x7
 1264 04ed 0702     		.2byte	0x207
 1265 04ef 58040000 		.4byte	0x458
 1266 04f3 28       		.byte	0x28
 1267 04f4 08       		.uleb128 0x8
 1268 04f5 B2060000 		.4byte	.LASF89
 1269 04f9 07       		.byte	0x7
 1270 04fa 0802     		.2byte	0x208
 1271 04fc 58040000 		.4byte	0x458
 1272 0500 2C       		.byte	0x2c
 1273 0501 08       		.uleb128 0x8
ARM GAS  /tmp/ccVm1riJ.s 			page 42


 1274 0502 B8060000 		.4byte	.LASF90
 1275 0506 07       		.byte	0x7
 1276 0507 0902     		.2byte	0x209
 1277 0509 58040000 		.4byte	0x458
 1278 050d 30       		.byte	0x30
 1279 050e 00       		.byte	0
 1280 050f 11       		.uleb128 0x11
 1281 0510 51010000 		.4byte	.LASF91
 1282 0514 07       		.byte	0x7
 1283 0515 0A02     		.2byte	0x20a
 1284 0517 5D040000 		.4byte	0x45d
 1285 051b 04       		.uleb128 0x4
 1286 051c C0010000 		.4byte	.LASF92
 1287 0520 08       		.byte	0x8
 1288 0521 65       		.byte	0x65
 1289 0522 1B030000 		.4byte	0x31b
 1290 0526 04       		.uleb128 0x4
 1291 0527 8B030000 		.4byte	.LASF93
 1292 052b 08       		.byte	0x8
 1293 052c 6D       		.byte	0x6d
 1294 052d CE000000 		.4byte	0xce
 1295 0531 05       		.uleb128 0x5
 1296 0532 44060000 		.4byte	.LASF94
 1297 0536 04       		.byte	0x4
 1298 0537 08       		.byte	0x8
 1299 0538 89       		.byte	0x89
 1300 0539 4A050000 		.4byte	0x54a
 1301 053d 12       		.uleb128 0x12
 1302 053e 72313300 		.ascii	"r13\000"
 1303 0542 08       		.byte	0x8
 1304 0543 8A       		.byte	0x8a
 1305 0544 C5050000 		.4byte	0x5c5
 1306 0548 00       		.byte	0
 1307 0549 00       		.byte	0
 1308 054a 05       		.uleb128 0x5
 1309 054b 47000000 		.4byte	.LASF95
 1310 054f 24       		.byte	0x24
 1311 0550 09       		.byte	0x9
 1312 0551 FD       		.byte	0xfd
 1313 0552 C5050000 		.4byte	0x5c5
 1314 0556 07       		.uleb128 0x7
 1315 0557 723400   		.ascii	"r4\000"
 1316 055a 09       		.byte	0x9
 1317 055b 1001     		.2byte	0x110
 1318 055d 1B050000 		.4byte	0x51b
 1319 0561 00       		.byte	0
 1320 0562 07       		.uleb128 0x7
 1321 0563 723500   		.ascii	"r5\000"
 1322 0566 09       		.byte	0x9
 1323 0567 1101     		.2byte	0x111
 1324 0569 1B050000 		.4byte	0x51b
 1325 056d 04       		.byte	0x4
 1326 056e 07       		.uleb128 0x7
 1327 056f 723600   		.ascii	"r6\000"
 1328 0572 09       		.byte	0x9
 1329 0573 1201     		.2byte	0x112
 1330 0575 1B050000 		.4byte	0x51b
ARM GAS  /tmp/ccVm1riJ.s 			page 43


 1331 0579 08       		.byte	0x8
 1332 057a 07       		.uleb128 0x7
 1333 057b 723700   		.ascii	"r7\000"
 1334 057e 09       		.byte	0x9
 1335 057f 1301     		.2byte	0x113
 1336 0581 1B050000 		.4byte	0x51b
 1337 0585 0C       		.byte	0xc
 1338 0586 07       		.uleb128 0x7
 1339 0587 723800   		.ascii	"r8\000"
 1340 058a 09       		.byte	0x9
 1341 058b 1401     		.2byte	0x114
 1342 058d 1B050000 		.4byte	0x51b
 1343 0591 10       		.byte	0x10
 1344 0592 07       		.uleb128 0x7
 1345 0593 723900   		.ascii	"r9\000"
 1346 0596 09       		.byte	0x9
 1347 0597 1501     		.2byte	0x115
 1348 0599 1B050000 		.4byte	0x51b
 1349 059d 14       		.byte	0x14
 1350 059e 07       		.uleb128 0x7
 1351 059f 72313000 		.ascii	"r10\000"
 1352 05a3 09       		.byte	0x9
 1353 05a4 1601     		.2byte	0x116
 1354 05a6 1B050000 		.4byte	0x51b
 1355 05aa 18       		.byte	0x18
 1356 05ab 07       		.uleb128 0x7
 1357 05ac 72313100 		.ascii	"r11\000"
 1358 05b0 09       		.byte	0x9
 1359 05b1 1701     		.2byte	0x117
 1360 05b3 1B050000 		.4byte	0x51b
 1361 05b7 1C       		.byte	0x1c
 1362 05b8 07       		.uleb128 0x7
 1363 05b9 6C7200   		.ascii	"lr\000"
 1364 05bc 09       		.byte	0x9
 1365 05bd 1801     		.2byte	0x118
 1366 05bf 1B050000 		.4byte	0x51b
 1367 05c3 20       		.byte	0x20
 1368 05c4 00       		.byte	0
 1369 05c5 09       		.uleb128 0x9
 1370 05c6 04       		.byte	0x4
 1371 05c7 4A050000 		.4byte	0x54a
 1372 05cb 13       		.uleb128 0x13
 1373 05cc 04       		.byte	0x4
 1374 05cd 0A       		.byte	0xa
 1375 05ce 38       		.byte	0x38
 1376 05cf E0050000 		.4byte	0x5e0
 1377 05d3 06       		.uleb128 0x6
 1378 05d4 2A060000 		.4byte	.LASF96
 1379 05d8 0A       		.byte	0xa
 1380 05d9 3C       		.byte	0x3c
 1381 05da D9000000 		.4byte	0xd9
 1382 05de 00       		.byte	0
 1383 05df 00       		.byte	0
 1384 05e0 04       		.uleb128 0x4
 1385 05e1 09040000 		.4byte	.LASF97
 1386 05e5 0A       		.byte	0xa
 1387 05e6 3D       		.byte	0x3d
ARM GAS  /tmp/ccVm1riJ.s 			page 44


 1388 05e7 CB050000 		.4byte	0x5cb
 1389 05eb 14       		.uleb128 0x14
 1390 05ec 04       		.byte	0x4
 1391 05ed 06       		.byte	0x6
 1392 05ee FA       		.byte	0xfa
 1393 05ef 54060000 		.4byte	0x654
 1394 05f3 15       		.uleb128 0x15
 1395 05f4 26000000 		.4byte	.LASF98
 1396 05f8 06       		.byte	0x6
 1397 05f9 0101     		.2byte	0x101
 1398 05fb 10010000 		.4byte	0x110
 1399 05ff 15       		.uleb128 0x15
 1400 0600 92000000 		.4byte	.LASF99
 1401 0604 06       		.byte	0x6
 1402 0605 0801     		.2byte	0x108
 1403 0607 10010000 		.4byte	0x110
 1404 060b 15       		.uleb128 0x15
 1405 060c CC060000 		.4byte	.LASF100
 1406 0610 06       		.byte	0x6
 1407 0611 0F01     		.2byte	0x10f
 1408 0613 1B030000 		.4byte	0x31b
 1409 0617 15       		.uleb128 0x15
 1410 0618 20000000 		.4byte	.LASF101
 1411 061c 06       		.byte	0x6
 1412 061d 1601     		.2byte	0x116
 1413 061f 54060000 		.4byte	0x654
 1414 0623 15       		.uleb128 0x15
 1415 0624 A6000000 		.4byte	.LASF102
 1416 0628 06       		.byte	0x6
 1417 0629 1B01     		.2byte	0x11b
 1418 062b 10010000 		.4byte	0x110
 1419 062f 15       		.uleb128 0x15
 1420 0630 03030000 		.4byte	.LASF103
 1421 0634 06       		.byte	0x6
 1422 0635 2401     		.2byte	0x124
 1423 0637 7F060000 		.4byte	0x67f
 1424 063b 15       		.uleb128 0x15
 1425 063c 2D050000 		.4byte	.LASF104
 1426 0640 06       		.byte	0x6
 1427 0641 2D01     		.2byte	0x12d
 1428 0643 B6060000 		.4byte	0x6b6
 1429 0647 15       		.uleb128 0x15
 1430 0648 DE040000 		.4byte	.LASF105
 1431 064c 06       		.byte	0x6
 1432 064d 3501     		.2byte	0x135
 1433 064f 1B010000 		.4byte	0x11b
 1434 0653 00       		.byte	0
 1435 0654 09       		.uleb128 0x9
 1436 0655 04       		.byte	0x4
 1437 0656 33020000 		.4byte	0x233
 1438 065a 05       		.uleb128 0x5
 1439 065b 0C050000 		.4byte	.LASF106
 1440 065f 0C       		.byte	0xc
 1441 0660 0B       		.byte	0xb
 1442 0661 34       		.byte	0x34
 1443 0662 7F060000 		.4byte	0x67f
 1444 0666 06       		.uleb128 0x6
ARM GAS  /tmp/ccVm1riJ.s 			page 45


 1445 0667 A3010000 		.4byte	.LASF107
 1446 066b 0B       		.byte	0xb
 1447 066c 35       		.byte	0x35
 1448 066d 68020000 		.4byte	0x268
 1449 0671 00       		.byte	0
 1450 0672 06       		.uleb128 0x6
 1451 0673 AE040000 		.4byte	.LASF108
 1452 0677 0B       		.byte	0xb
 1453 0678 37       		.byte	0x37
 1454 0679 26010000 		.4byte	0x126
 1455 067d 08       		.byte	0x8
 1456 067e 00       		.byte	0
 1457 067f 09       		.uleb128 0x9
 1458 0680 04       		.byte	0x4
 1459 0681 5A060000 		.4byte	0x65a
 1460 0685 05       		.uleb128 0x5
 1461 0686 89060000 		.4byte	.LASF109
 1462 068a 10       		.byte	0x10
 1463 068b 0C       		.byte	0xc
 1464 068c 39       		.byte	0x39
 1465 068d B6060000 		.4byte	0x6b6
 1466 0691 06       		.uleb128 0x6
 1467 0692 10010000 		.4byte	.LASF110
 1468 0696 0C       		.byte	0xc
 1469 0697 3A       		.byte	0x3a
 1470 0698 68020000 		.4byte	0x268
 1471 069c 00       		.byte	0
 1472 069d 06       		.uleb128 0x6
 1473 069e F9060000 		.4byte	.LASF111
 1474 06a2 0C       		.byte	0xc
 1475 06a3 3C       		.byte	0x3c
 1476 06a4 3E020000 		.4byte	0x23e
 1477 06a8 08       		.byte	0x8
 1478 06a9 06       		.uleb128 0x6
 1479 06aa DC050000 		.4byte	.LASF112
 1480 06ae 0C       		.byte	0xc
 1481 06af 3E       		.byte	0x3e
 1482 06b0 FA060000 		.4byte	0x6fa
 1483 06b4 0C       		.byte	0xc
 1484 06b5 00       		.byte	0
 1485 06b6 09       		.uleb128 0x9
 1486 06b7 04       		.byte	0x4
 1487 06b8 85060000 		.4byte	0x685
 1488 06bc 09       		.uleb128 0x9
 1489 06bd 04       		.byte	0x4
 1490 06be C2060000 		.4byte	0x6c2
 1491 06c2 16       		.uleb128 0x16
 1492 06c3 C7060000 		.4byte	0x6c7
 1493 06c7 03       		.uleb128 0x3
 1494 06c8 01       		.byte	0x1
 1495 06c9 08       		.byte	0x8
 1496 06ca B7050000 		.4byte	.LASF113
 1497 06ce 09       		.uleb128 0x9
 1498 06cf 04       		.byte	0x4
 1499 06d0 26050000 		.4byte	0x526
 1500 06d4 09       		.uleb128 0x9
 1501 06d5 04       		.byte	0x4
ARM GAS  /tmp/ccVm1riJ.s 			page 46


 1502 06d6 1D030000 		.4byte	0x31d
 1503 06da 0F       		.uleb128 0xf
 1504 06db BC060000 		.4byte	0x6bc
 1505 06df 17       		.uleb128 0x17
 1506 06e0 26050000 		.4byte	0x526
 1507 06e4 EF060000 		.4byte	0x6ef
 1508 06e8 18       		.uleb128 0x18
 1509 06e9 51040000 		.4byte	0x451
 1510 06ed 1A       		.byte	0x1a
 1511 06ee 00       		.byte	0
 1512 06ef 04       		.uleb128 0x4
 1513 06f0 EA010000 		.4byte	.LASF114
 1514 06f4 0C       		.byte	0xc
 1515 06f5 34       		.byte	0x34
 1516 06f6 85060000 		.4byte	0x685
 1517 06fa 09       		.uleb128 0x9
 1518 06fb 04       		.byte	0x4
 1519 06fc EF060000 		.4byte	0x6ef
 1520 0700 03       		.uleb128 0x3
 1521 0701 01       		.byte	0x1
 1522 0702 02       		.byte	0x2
 1523 0703 8D040000 		.4byte	.LASF115
 1524 0707 13       		.uleb128 0x13
 1525 0708 04       		.byte	0x4
 1526 0709 0D       		.byte	0xd
 1527 070a E7       		.byte	0xe7
 1528 070b 28070000 		.4byte	0x728
 1529 070f 12       		.uleb128 0x12
 1530 0710 73657400 		.ascii	"set\000"
 1531 0714 0D       		.byte	0xd
 1532 0715 E8       		.byte	0xe8
 1533 0716 AD000000 		.4byte	0xad
 1534 071a 00       		.byte	0
 1535 071b 06       		.uleb128 0x6
 1536 071c E2030000 		.4byte	.LASF116
 1537 0720 0D       		.byte	0xd
 1538 0721 E9       		.byte	0xe9
 1539 0722 AD000000 		.4byte	0xad
 1540 0726 02       		.byte	0x2
 1541 0727 00       		.byte	0
 1542 0728 14       		.uleb128 0x14
 1543 0729 04       		.byte	0x4
 1544 072a 0D       		.byte	0xd
 1545 072b E5       		.byte	0xe5
 1546 072c 43070000 		.4byte	0x743
 1547 0730 19       		.uleb128 0x19
 1548 0731 5700     		.ascii	"W\000"
 1549 0733 0D       		.byte	0xd
 1550 0734 E6       		.byte	0xe6
 1551 0735 C3000000 		.4byte	0xc3
 1552 0739 19       		.uleb128 0x19
 1553 073a 4800     		.ascii	"H\000"
 1554 073c 0D       		.byte	0xd
 1555 073d EA       		.byte	0xea
 1556 073e 07070000 		.4byte	0x707
 1557 0742 00       		.byte	0
 1558 0743 13       		.uleb128 0x13
ARM GAS  /tmp/ccVm1riJ.s 			page 47


 1559 0744 2C       		.byte	0x2c
 1560 0745 0D       		.byte	0xd
 1561 0746 DD       		.byte	0xdd
 1562 0747 D0070000 		.4byte	0x7d0
 1563 074b 06       		.uleb128 0x6
 1564 074c 6F000000 		.4byte	.LASF117
 1565 0750 0D       		.byte	0xd
 1566 0751 DF       		.byte	0xdf
 1567 0752 58040000 		.4byte	0x458
 1568 0756 00       		.byte	0
 1569 0757 06       		.uleb128 0x6
 1570 0758 40000000 		.4byte	.LASF118
 1571 075c 0D       		.byte	0xd
 1572 075d E0       		.byte	0xe0
 1573 075e 58040000 		.4byte	0x458
 1574 0762 04       		.byte	0x4
 1575 0763 06       		.uleb128 0x6
 1576 0764 AB010000 		.4byte	.LASF119
 1577 0768 0D       		.byte	0xd
 1578 0769 E1       		.byte	0xe1
 1579 076a 58040000 		.4byte	0x458
 1580 076e 08       		.byte	0x8
 1581 076f 06       		.uleb128 0x6
 1582 0770 8C000000 		.4byte	.LASF120
 1583 0774 0D       		.byte	0xd
 1584 0775 E2       		.byte	0xe2
 1585 0776 58040000 		.4byte	0x458
 1586 077a 0C       		.byte	0xc
 1587 077b 12       		.uleb128 0x12
 1588 077c 49445200 		.ascii	"IDR\000"
 1589 0780 0D       		.byte	0xd
 1590 0781 E3       		.byte	0xe3
 1591 0782 58040000 		.4byte	0x458
 1592 0786 10       		.byte	0x10
 1593 0787 12       		.uleb128 0x12
 1594 0788 4F445200 		.ascii	"ODR\000"
 1595 078c 0D       		.byte	0xd
 1596 078d E4       		.byte	0xe4
 1597 078e 58040000 		.4byte	0x458
 1598 0792 14       		.byte	0x14
 1599 0793 06       		.uleb128 0x6
 1600 0794 03010000 		.4byte	.LASF121
 1601 0798 0D       		.byte	0xd
 1602 0799 EB       		.byte	0xeb
 1603 079a D0070000 		.4byte	0x7d0
 1604 079e 18       		.byte	0x18
 1605 079f 06       		.uleb128 0x6
 1606 07a0 1D030000 		.4byte	.LASF122
 1607 07a4 0D       		.byte	0xd
 1608 07a5 EC       		.byte	0xec
 1609 07a6 58040000 		.4byte	0x458
 1610 07aa 1C       		.byte	0x1c
 1611 07ab 06       		.uleb128 0x6
 1612 07ac 51040000 		.4byte	.LASF123
 1613 07b0 0D       		.byte	0xd
 1614 07b1 ED       		.byte	0xed
 1615 07b2 58040000 		.4byte	0x458
ARM GAS  /tmp/ccVm1riJ.s 			page 48


 1616 07b6 20       		.byte	0x20
 1617 07b7 06       		.uleb128 0x6
 1618 07b8 4C040000 		.4byte	.LASF124
 1619 07bc 0D       		.byte	0xd
 1620 07bd EE       		.byte	0xee
 1621 07be 58040000 		.4byte	0x458
 1622 07c2 24       		.byte	0x24
 1623 07c3 12       		.uleb128 0x12
 1624 07c4 42525200 		.ascii	"BRR\000"
 1625 07c8 0D       		.byte	0xd
 1626 07c9 EF       		.byte	0xef
 1627 07ca 58040000 		.4byte	0x458
 1628 07ce 28       		.byte	0x28
 1629 07cf 00       		.byte	0
 1630 07d0 0F       		.uleb128 0xf
 1631 07d1 28070000 		.4byte	0x728
 1632 07d5 04       		.uleb128 0x4
 1633 07d6 D8010000 		.4byte	.LASF125
 1634 07da 0D       		.byte	0xd
 1635 07db F0       		.byte	0xf0
 1636 07dc 43070000 		.4byte	0x743
 1637 07e0 13       		.uleb128 0x13
 1638 07e1 1C       		.byte	0x1c
 1639 07e2 0D       		.byte	0xd
 1640 07e3 F5       		.byte	0xf5
 1641 07e4 3F080000 		.4byte	0x83f
 1642 07e8 06       		.uleb128 0x6
 1643 07e9 4B010000 		.4byte	.LASF126
 1644 07ed 0D       		.byte	0xd
 1645 07ee F7       		.byte	0xf7
 1646 07ef C3000000 		.4byte	0xc3
 1647 07f3 00       		.byte	0
 1648 07f4 06       		.uleb128 0x6
 1649 07f5 22030000 		.4byte	.LASF127
 1650 07f9 0D       		.byte	0xd
 1651 07fa F9       		.byte	0xf9
 1652 07fb C3000000 		.4byte	0xc3
 1653 07ff 04       		.byte	0x4
 1654 0800 06       		.uleb128 0x6
 1655 0801 15030000 		.4byte	.LASF128
 1656 0805 0D       		.byte	0xd
 1657 0806 FB       		.byte	0xfb
 1658 0807 C3000000 		.4byte	0xc3
 1659 080b 08       		.byte	0x8
 1660 080c 06       		.uleb128 0x6
 1661 080d C6060000 		.4byte	.LASF129
 1662 0811 0D       		.byte	0xd
 1663 0812 FD       		.byte	0xfd
 1664 0813 C3000000 		.4byte	0xc3
 1665 0817 0C       		.byte	0xc
 1666 0818 12       		.uleb128 0x12
 1667 0819 6F647200 		.ascii	"odr\000"
 1668 081d 0D       		.byte	0xd
 1669 081e FF       		.byte	0xff
 1670 081f C3000000 		.4byte	0xc3
 1671 0823 10       		.byte	0x10
 1672 0824 08       		.uleb128 0x8
ARM GAS  /tmp/ccVm1riJ.s 			page 49


 1673 0825 A9040000 		.4byte	.LASF130
 1674 0829 0D       		.byte	0xd
 1675 082a 0101     		.2byte	0x101
 1676 082c C3000000 		.4byte	0xc3
 1677 0830 14       		.byte	0x14
 1678 0831 08       		.uleb128 0x8
 1679 0832 1A040000 		.4byte	.LASF131
 1680 0836 0D       		.byte	0xd
 1681 0837 0301     		.2byte	0x103
 1682 0839 C3000000 		.4byte	0xc3
 1683 083d 18       		.byte	0x18
 1684 083e 00       		.byte	0
 1685 083f 11       		.uleb128 0x11
 1686 0840 00000000 		.4byte	.LASF132
 1687 0844 0D       		.byte	0xd
 1688 0845 0401     		.2byte	0x104
 1689 0847 E0070000 		.4byte	0x7e0
 1690 084b 10       		.uleb128 0x10
 1691 084c A8       		.byte	0xa8
 1692 084d 0D       		.byte	0xd
 1693 084e 0D01     		.2byte	0x10d
 1694 0850 A3080000 		.4byte	0x8a3
 1695 0854 08       		.uleb128 0x8
 1696 0855 D7040000 		.4byte	.LASF133
 1697 0859 0D       		.byte	0xd
 1698 085a 1001     		.2byte	0x110
 1699 085c 3F080000 		.4byte	0x83f
 1700 0860 00       		.byte	0
 1701 0861 08       		.uleb128 0x8
 1702 0862 F2010000 		.4byte	.LASF134
 1703 0866 0D       		.byte	0xd
 1704 0867 1401     		.2byte	0x114
 1705 0869 3F080000 		.4byte	0x83f
 1706 086d 1C       		.byte	0x1c
 1707 086e 08       		.uleb128 0x8
 1708 086f DA060000 		.4byte	.LASF135
 1709 0873 0D       		.byte	0xd
 1710 0874 1801     		.2byte	0x118
 1711 0876 3F080000 		.4byte	0x83f
 1712 087a 38       		.byte	0x38
 1713 087b 08       		.uleb128 0x8
 1714 087c 27040000 		.4byte	.LASF136
 1715 0880 0D       		.byte	0xd
 1716 0881 1C01     		.2byte	0x11c
 1717 0883 3F080000 		.4byte	0x83f
 1718 0887 54       		.byte	0x54
 1719 0888 08       		.uleb128 0x8
 1720 0889 70010000 		.4byte	.LASF137
 1721 088d 0D       		.byte	0xd
 1722 088e 2001     		.2byte	0x120
 1723 0890 3F080000 		.4byte	0x83f
 1724 0894 70       		.byte	0x70
 1725 0895 08       		.uleb128 0x8
 1726 0896 3C030000 		.4byte	.LASF138
 1727 089a 0D       		.byte	0xd
 1728 089b 2401     		.2byte	0x124
 1729 089d 3F080000 		.4byte	0x83f
ARM GAS  /tmp/ccVm1riJ.s 			page 50


 1730 08a1 8C       		.byte	0x8c
 1731 08a2 00       		.byte	0
 1732 08a3 11       		.uleb128 0x11
 1733 08a4 EF060000 		.4byte	.LASF139
 1734 08a8 0D       		.byte	0xd
 1735 08a9 3A01     		.2byte	0x13a
 1736 08ab 4B080000 		.4byte	0x84b
 1737 08af 11       		.uleb128 0x11
 1738 08b0 62000000 		.4byte	.LASF140
 1739 08b4 0D       		.byte	0xd
 1740 08b5 3F01     		.2byte	0x13f
 1741 08b7 C3000000 		.4byte	0xc3
 1742 08bb 11       		.uleb128 0x11
 1743 08bc E6060000 		.4byte	.LASF141
 1744 08c0 0D       		.byte	0xd
 1745 08c1 4401     		.2byte	0x144
 1746 08c3 C3000000 		.4byte	0xc3
 1747 08c7 11       		.uleb128 0x11
 1748 08c8 39060000 		.4byte	.LASF142
 1749 08cc 0D       		.byte	0xd
 1750 08cd 5101     		.2byte	0x151
 1751 08cf D3080000 		.4byte	0x8d3
 1752 08d3 09       		.uleb128 0x9
 1753 08d4 04       		.byte	0x4
 1754 08d5 D5070000 		.4byte	0x7d5
 1755 08d9 1A       		.uleb128 0x1a
 1756 08da 17060000 		.4byte	.LASF156
 1757 08de 01       		.byte	0x1
 1758 08df 3D       		.byte	0x3d
 1759 08e0 00000000 		.4byte	.LFB272
 1760 08e4 42000000 		.4byte	.LFE272-.LFB272
 1761 08e8 01       		.uleb128 0x1
 1762 08e9 9C       		.byte	0x9c
 1763 08ea 0B090000 		.4byte	0x90b
 1764 08ee 1B       		.uleb128 0x1b
 1765 08ef ED040000 		.4byte	.LASF143
 1766 08f3 01       		.byte	0x1
 1767 08f4 3D       		.byte	0x3d
 1768 08f5 D3080000 		.4byte	0x8d3
 1769 08f9 02       		.uleb128 0x2
 1770 08fa 91       		.byte	0x91
 1771 08fb 7C       		.sleb128 -4
 1772 08fc 1B       		.uleb128 0x1b
 1773 08fd C1050000 		.4byte	.LASF144
 1774 0901 01       		.byte	0x1
 1775 0902 3D       		.byte	0x3d
 1776 0903 0B090000 		.4byte	0x90b
 1777 0907 02       		.uleb128 0x2
 1778 0908 91       		.byte	0x91
 1779 0909 78       		.sleb128 -8
 1780 090a 00       		.byte	0
 1781 090b 09       		.uleb128 0x9
 1782 090c 04       		.byte	0x4
 1783 090d 11090000 		.4byte	0x911
 1784 0911 16       		.uleb128 0x16
 1785 0912 3F080000 		.4byte	0x83f
 1786 0916 1C       		.uleb128 0x1c
ARM GAS  /tmp/ccVm1riJ.s 			page 51


 1787 0917 99060000 		.4byte	.LASF145
 1788 091b 01       		.byte	0x1
 1789 091c 58       		.byte	0x58
 1790 091d 00000000 		.4byte	.LFB273
 1791 0921 78000000 		.4byte	.LFE273-.LFB273
 1792 0925 01       		.uleb128 0x1
 1793 0926 9C       		.byte	0x9c
 1794 0927 3A090000 		.4byte	0x93a
 1795 092b 1B       		.uleb128 0x1b
 1796 092c C1050000 		.4byte	.LASF144
 1797 0930 01       		.byte	0x1
 1798 0931 58       		.byte	0x58
 1799 0932 3A090000 		.4byte	0x93a
 1800 0936 02       		.uleb128 0x2
 1801 0937 91       		.byte	0x91
 1802 0938 74       		.sleb128 -12
 1803 0939 00       		.byte	0
 1804 093a 09       		.uleb128 0x9
 1805 093b 04       		.byte	0x4
 1806 093c 40090000 		.4byte	0x940
 1807 0940 16       		.uleb128 0x16
 1808 0941 A3080000 		.4byte	0x8a3
 1809 0945 1D       		.uleb128 0x1d
 1810 0946 54060000 		.4byte	.LASF146
 1811 094a 01       		.byte	0x1
 1812 094b 9F       		.byte	0x9f
 1813 094c 00000000 		.4byte	.LFB274
 1814 0950 22010000 		.4byte	.LFE274-.LFB274
 1815 0954 01       		.uleb128 0x1
 1816 0955 9C       		.byte	0x9c
 1817 0956 180A0000 		.4byte	0xa18
 1818 095a 1B       		.uleb128 0x1b
 1819 095b E5010000 		.4byte	.LASF147
 1820 095f 01       		.byte	0x1
 1821 0960 9F       		.byte	0x9f
 1822 0961 C7080000 		.4byte	0x8c7
 1823 0965 02       		.uleb128 0x2
 1824 0966 91       		.byte	0x91
 1825 0967 54       		.sleb128 -44
 1826 0968 1B       		.uleb128 0x1b
 1827 0969 BB010000 		.4byte	.LASF148
 1828 096d 01       		.byte	0x1
 1829 096e A0       		.byte	0xa0
 1830 096f AF080000 		.4byte	0x8af
 1831 0973 02       		.uleb128 0x2
 1832 0974 91       		.byte	0x91
 1833 0975 50       		.sleb128 -48
 1834 0976 1B       		.uleb128 0x1b
 1835 0977 BC050000 		.4byte	.LASF149
 1836 097b 01       		.byte	0x1
 1837 097c A1       		.byte	0xa1
 1838 097d BB080000 		.4byte	0x8bb
 1839 0981 02       		.uleb128 0x2
 1840 0982 91       		.byte	0x91
 1841 0983 4C       		.sleb128 -52
 1842 0984 1E       		.uleb128 0x1e
 1843 0985 4B010000 		.4byte	.LASF126
ARM GAS  /tmp/ccVm1riJ.s 			page 52


 1844 0989 01       		.byte	0x1
 1845 098a A3       		.byte	0xa3
 1846 098b C3000000 		.4byte	0xc3
 1847 098f 02       		.uleb128 0x2
 1848 0990 91       		.byte	0x91
 1849 0991 7C       		.sleb128 -4
 1850 0992 1E       		.uleb128 0x1e
 1851 0993 22030000 		.4byte	.LASF127
 1852 0997 01       		.byte	0x1
 1853 0998 A4       		.byte	0xa4
 1854 0999 C3000000 		.4byte	0xc3
 1855 099d 02       		.uleb128 0x2
 1856 099e 91       		.byte	0x91
 1857 099f 78       		.sleb128 -8
 1858 09a0 1E       		.uleb128 0x1e
 1859 09a1 15030000 		.4byte	.LASF128
 1860 09a5 01       		.byte	0x1
 1861 09a6 A5       		.byte	0xa5
 1862 09a7 C3000000 		.4byte	0xc3
 1863 09ab 02       		.uleb128 0x2
 1864 09ac 91       		.byte	0x91
 1865 09ad 74       		.sleb128 -12
 1866 09ae 1E       		.uleb128 0x1e
 1867 09af C6060000 		.4byte	.LASF129
 1868 09b3 01       		.byte	0x1
 1869 09b4 A6       		.byte	0xa6
 1870 09b5 C3000000 		.4byte	0xc3
 1871 09b9 02       		.uleb128 0x2
 1872 09ba 91       		.byte	0x91
 1873 09bb 70       		.sleb128 -16
 1874 09bc 1E       		.uleb128 0x1e
 1875 09bd B2050000 		.4byte	.LASF150
 1876 09c1 01       		.byte	0x1
 1877 09c2 A7       		.byte	0xa7
 1878 09c3 C3000000 		.4byte	0xc3
 1879 09c7 02       		.uleb128 0x2
 1880 09c8 91       		.byte	0x91
 1881 09c9 68       		.sleb128 -24
 1882 09ca 1F       		.uleb128 0x1f
 1883 09cb 62697400 		.ascii	"bit\000"
 1884 09cf 01       		.byte	0x1
 1885 09d0 A8       		.byte	0xa8
 1886 09d1 C3000000 		.4byte	0xc3
 1887 09d5 02       		.uleb128 0x2
 1888 09d6 91       		.byte	0x91
 1889 09d7 6C       		.sleb128 -20
 1890 09d8 20       		.uleb128 0x20
 1891 09d9 46000000 		.4byte	.LBB2
 1892 09dd AA000000 		.4byte	.LBE2-.LBB2
 1893 09e1 1E       		.uleb128 0x1e
 1894 09e2 92010000 		.4byte	.LASF151
 1895 09e6 01       		.byte	0x1
 1896 09e7 AB       		.byte	0xab
 1897 09e8 C3000000 		.4byte	0xc3
 1898 09ec 02       		.uleb128 0x2
 1899 09ed 91       		.byte	0x91
 1900 09ee 64       		.sleb128 -28
ARM GAS  /tmp/ccVm1riJ.s 			page 53


 1901 09ef 1F       		.uleb128 0x1f
 1902 09f0 6D3100   		.ascii	"m1\000"
 1903 09f3 01       		.byte	0x1
 1904 09f4 AB       		.byte	0xab
 1905 09f5 C3000000 		.4byte	0xc3
 1906 09f9 02       		.uleb128 0x2
 1907 09fa 91       		.byte	0x91
 1908 09fb 5C       		.sleb128 -36
 1909 09fc 1F       		.uleb128 0x1f
 1910 09fd 6D3200   		.ascii	"m2\000"
 1911 0a00 01       		.byte	0x1
 1912 0a01 AB       		.byte	0xab
 1913 0a02 C3000000 		.4byte	0xc3
 1914 0a06 02       		.uleb128 0x2
 1915 0a07 91       		.byte	0x91
 1916 0a08 58       		.sleb128 -40
 1917 0a09 1F       		.uleb128 0x1f
 1918 0a0a 6D3400   		.ascii	"m4\000"
 1919 0a0d 01       		.byte	0x1
 1920 0a0e AB       		.byte	0xab
 1921 0a0f C3000000 		.4byte	0xc3
 1922 0a13 02       		.uleb128 0x2
 1923 0a14 91       		.byte	0x91
 1924 0a15 60       		.sleb128 -32
 1925 0a16 00       		.byte	0
 1926 0a17 00       		.byte	0
 1927 0a18 21       		.uleb128 0x21
 1928 0a19 C4000000 		.4byte	.LASF152
 1929 0a1d 0E       		.byte	0xe
 1930 0a1e FA06     		.2byte	0x6fa
 1931 0a20 240A0000 		.4byte	0xa24
 1932 0a24 0F       		.uleb128 0xf
 1933 0a25 B8000000 		.4byte	0xb8
 1934 0a29 22       		.uleb128 0x22
 1935 0a2a 636800   		.ascii	"ch\000"
 1936 0a2d 06       		.byte	0x6
 1937 0a2e 0B02     		.2byte	0x20b
 1938 0a30 EA030000 		.4byte	0x3ea
 1939 0a34 00       		.byte	0
 1940              		.section	.debug_abbrev,"",%progbits
 1941              	.Ldebug_abbrev0:
 1942 0000 01       		.uleb128 0x1
 1943 0001 11       		.uleb128 0x11
 1944 0002 01       		.byte	0x1
 1945 0003 25       		.uleb128 0x25
 1946 0004 0E       		.uleb128 0xe
 1947 0005 13       		.uleb128 0x13
 1948 0006 0B       		.uleb128 0xb
 1949 0007 03       		.uleb128 0x3
 1950 0008 0E       		.uleb128 0xe
 1951 0009 1B       		.uleb128 0x1b
 1952 000a 0E       		.uleb128 0xe
 1953 000b 55       		.uleb128 0x55
 1954 000c 17       		.uleb128 0x17
 1955 000d 11       		.uleb128 0x11
 1956 000e 01       		.uleb128 0x1
 1957 000f 10       		.uleb128 0x10
ARM GAS  /tmp/ccVm1riJ.s 			page 54


 1958 0010 17       		.uleb128 0x17
 1959 0011 00       		.byte	0
 1960 0012 00       		.byte	0
 1961 0013 02       		.uleb128 0x2
 1962 0014 24       		.uleb128 0x24
 1963 0015 00       		.byte	0
 1964 0016 0B       		.uleb128 0xb
 1965 0017 0B       		.uleb128 0xb
 1966 0018 3E       		.uleb128 0x3e
 1967 0019 0B       		.uleb128 0xb
 1968 001a 03       		.uleb128 0x3
 1969 001b 08       		.uleb128 0x8
 1970 001c 00       		.byte	0
 1971 001d 00       		.byte	0
 1972 001e 03       		.uleb128 0x3
 1973 001f 24       		.uleb128 0x24
 1974 0020 00       		.byte	0
 1975 0021 0B       		.uleb128 0xb
 1976 0022 0B       		.uleb128 0xb
 1977 0023 3E       		.uleb128 0x3e
 1978 0024 0B       		.uleb128 0xb
 1979 0025 03       		.uleb128 0x3
 1980 0026 0E       		.uleb128 0xe
 1981 0027 00       		.byte	0
 1982 0028 00       		.byte	0
 1983 0029 04       		.uleb128 0x4
 1984 002a 16       		.uleb128 0x16
 1985 002b 00       		.byte	0
 1986 002c 03       		.uleb128 0x3
 1987 002d 0E       		.uleb128 0xe
 1988 002e 3A       		.uleb128 0x3a
 1989 002f 0B       		.uleb128 0xb
 1990 0030 3B       		.uleb128 0x3b
 1991 0031 0B       		.uleb128 0xb
 1992 0032 49       		.uleb128 0x49
 1993 0033 13       		.uleb128 0x13
 1994 0034 00       		.byte	0
 1995 0035 00       		.byte	0
 1996 0036 05       		.uleb128 0x5
 1997 0037 13       		.uleb128 0x13
 1998 0038 01       		.byte	0x1
 1999 0039 03       		.uleb128 0x3
 2000 003a 0E       		.uleb128 0xe
 2001 003b 0B       		.uleb128 0xb
 2002 003c 0B       		.uleb128 0xb
 2003 003d 3A       		.uleb128 0x3a
 2004 003e 0B       		.uleb128 0xb
 2005 003f 3B       		.uleb128 0x3b
 2006 0040 0B       		.uleb128 0xb
 2007 0041 01       		.uleb128 0x1
 2008 0042 13       		.uleb128 0x13
 2009 0043 00       		.byte	0
 2010 0044 00       		.byte	0
 2011 0045 06       		.uleb128 0x6
 2012 0046 0D       		.uleb128 0xd
 2013 0047 00       		.byte	0
 2014 0048 03       		.uleb128 0x3
ARM GAS  /tmp/ccVm1riJ.s 			page 55


 2015 0049 0E       		.uleb128 0xe
 2016 004a 3A       		.uleb128 0x3a
 2017 004b 0B       		.uleb128 0xb
 2018 004c 3B       		.uleb128 0x3b
 2019 004d 0B       		.uleb128 0xb
 2020 004e 49       		.uleb128 0x49
 2021 004f 13       		.uleb128 0x13
 2022 0050 38       		.uleb128 0x38
 2023 0051 0B       		.uleb128 0xb
 2024 0052 00       		.byte	0
 2025 0053 00       		.byte	0
 2026 0054 07       		.uleb128 0x7
 2027 0055 0D       		.uleb128 0xd
 2028 0056 00       		.byte	0
 2029 0057 03       		.uleb128 0x3
 2030 0058 08       		.uleb128 0x8
 2031 0059 3A       		.uleb128 0x3a
 2032 005a 0B       		.uleb128 0xb
 2033 005b 3B       		.uleb128 0x3b
 2034 005c 05       		.uleb128 0x5
 2035 005d 49       		.uleb128 0x49
 2036 005e 13       		.uleb128 0x13
 2037 005f 38       		.uleb128 0x38
 2038 0060 0B       		.uleb128 0xb
 2039 0061 00       		.byte	0
 2040 0062 00       		.byte	0
 2041 0063 08       		.uleb128 0x8
 2042 0064 0D       		.uleb128 0xd
 2043 0065 00       		.byte	0
 2044 0066 03       		.uleb128 0x3
 2045 0067 0E       		.uleb128 0xe
 2046 0068 3A       		.uleb128 0x3a
 2047 0069 0B       		.uleb128 0xb
 2048 006a 3B       		.uleb128 0x3b
 2049 006b 05       		.uleb128 0x5
 2050 006c 49       		.uleb128 0x49
 2051 006d 13       		.uleb128 0x13
 2052 006e 38       		.uleb128 0x38
 2053 006f 0B       		.uleb128 0xb
 2054 0070 00       		.byte	0
 2055 0071 00       		.byte	0
 2056 0072 09       		.uleb128 0x9
 2057 0073 0F       		.uleb128 0xf
 2058 0074 00       		.byte	0
 2059 0075 0B       		.uleb128 0xb
 2060 0076 0B       		.uleb128 0xb
 2061 0077 49       		.uleb128 0x49
 2062 0078 13       		.uleb128 0x13
 2063 0079 00       		.byte	0
 2064 007a 00       		.byte	0
 2065 007b 0A       		.uleb128 0xa
 2066 007c 13       		.uleb128 0x13
 2067 007d 01       		.byte	0x1
 2068 007e 03       		.uleb128 0x3
 2069 007f 0E       		.uleb128 0xe
 2070 0080 0B       		.uleb128 0xb
 2071 0081 0B       		.uleb128 0xb
ARM GAS  /tmp/ccVm1riJ.s 			page 56


 2072 0082 3A       		.uleb128 0x3a
 2073 0083 0B       		.uleb128 0xb
 2074 0084 3B       		.uleb128 0x3b
 2075 0085 05       		.uleb128 0x5
 2076 0086 01       		.uleb128 0x1
 2077 0087 13       		.uleb128 0x13
 2078 0088 00       		.byte	0
 2079 0089 00       		.byte	0
 2080 008a 0B       		.uleb128 0xb
 2081 008b 15       		.uleb128 0x15
 2082 008c 01       		.byte	0x1
 2083 008d 27       		.uleb128 0x27
 2084 008e 19       		.uleb128 0x19
 2085 008f 01       		.uleb128 0x1
 2086 0090 13       		.uleb128 0x13
 2087 0091 00       		.byte	0
 2088 0092 00       		.byte	0
 2089 0093 0C       		.uleb128 0xc
 2090 0094 05       		.uleb128 0x5
 2091 0095 00       		.byte	0
 2092 0096 49       		.uleb128 0x49
 2093 0097 13       		.uleb128 0x13
 2094 0098 00       		.byte	0
 2095 0099 00       		.byte	0
 2096 009a 0D       		.uleb128 0xd
 2097 009b 0F       		.uleb128 0xf
 2098 009c 00       		.byte	0
 2099 009d 0B       		.uleb128 0xb
 2100 009e 0B       		.uleb128 0xb
 2101 009f 00       		.byte	0
 2102 00a0 00       		.byte	0
 2103 00a1 0E       		.uleb128 0xe
 2104 00a2 13       		.uleb128 0x13
 2105 00a3 01       		.byte	0x1
 2106 00a4 03       		.uleb128 0x3
 2107 00a5 0E       		.uleb128 0xe
 2108 00a6 0B       		.uleb128 0xb
 2109 00a7 05       		.uleb128 0x5
 2110 00a8 3A       		.uleb128 0x3a
 2111 00a9 0B       		.uleb128 0xb
 2112 00aa 3B       		.uleb128 0x3b
 2113 00ab 05       		.uleb128 0x5
 2114 00ac 01       		.uleb128 0x1
 2115 00ad 13       		.uleb128 0x13
 2116 00ae 00       		.byte	0
 2117 00af 00       		.byte	0
 2118 00b0 0F       		.uleb128 0xf
 2119 00b1 35       		.uleb128 0x35
 2120 00b2 00       		.byte	0
 2121 00b3 49       		.uleb128 0x49
 2122 00b4 13       		.uleb128 0x13
 2123 00b5 00       		.byte	0
 2124 00b6 00       		.byte	0
 2125 00b7 10       		.uleb128 0x10
 2126 00b8 13       		.uleb128 0x13
 2127 00b9 01       		.byte	0x1
 2128 00ba 0B       		.uleb128 0xb
ARM GAS  /tmp/ccVm1riJ.s 			page 57


 2129 00bb 0B       		.uleb128 0xb
 2130 00bc 3A       		.uleb128 0x3a
 2131 00bd 0B       		.uleb128 0xb
 2132 00be 3B       		.uleb128 0x3b
 2133 00bf 05       		.uleb128 0x5
 2134 00c0 01       		.uleb128 0x1
 2135 00c1 13       		.uleb128 0x13
 2136 00c2 00       		.byte	0
 2137 00c3 00       		.byte	0
 2138 00c4 11       		.uleb128 0x11
 2139 00c5 16       		.uleb128 0x16
 2140 00c6 00       		.byte	0
 2141 00c7 03       		.uleb128 0x3
 2142 00c8 0E       		.uleb128 0xe
 2143 00c9 3A       		.uleb128 0x3a
 2144 00ca 0B       		.uleb128 0xb
 2145 00cb 3B       		.uleb128 0x3b
 2146 00cc 05       		.uleb128 0x5
 2147 00cd 49       		.uleb128 0x49
 2148 00ce 13       		.uleb128 0x13
 2149 00cf 00       		.byte	0
 2150 00d0 00       		.byte	0
 2151 00d1 12       		.uleb128 0x12
 2152 00d2 0D       		.uleb128 0xd
 2153 00d3 00       		.byte	0
 2154 00d4 03       		.uleb128 0x3
 2155 00d5 08       		.uleb128 0x8
 2156 00d6 3A       		.uleb128 0x3a
 2157 00d7 0B       		.uleb128 0xb
 2158 00d8 3B       		.uleb128 0x3b
 2159 00d9 0B       		.uleb128 0xb
 2160 00da 49       		.uleb128 0x49
 2161 00db 13       		.uleb128 0x13
 2162 00dc 38       		.uleb128 0x38
 2163 00dd 0B       		.uleb128 0xb
 2164 00de 00       		.byte	0
 2165 00df 00       		.byte	0
 2166 00e0 13       		.uleb128 0x13
 2167 00e1 13       		.uleb128 0x13
 2168 00e2 01       		.byte	0x1
 2169 00e3 0B       		.uleb128 0xb
 2170 00e4 0B       		.uleb128 0xb
 2171 00e5 3A       		.uleb128 0x3a
 2172 00e6 0B       		.uleb128 0xb
 2173 00e7 3B       		.uleb128 0x3b
 2174 00e8 0B       		.uleb128 0xb
 2175 00e9 01       		.uleb128 0x1
 2176 00ea 13       		.uleb128 0x13
 2177 00eb 00       		.byte	0
 2178 00ec 00       		.byte	0
 2179 00ed 14       		.uleb128 0x14
 2180 00ee 17       		.uleb128 0x17
 2181 00ef 01       		.byte	0x1
 2182 00f0 0B       		.uleb128 0xb
 2183 00f1 0B       		.uleb128 0xb
 2184 00f2 3A       		.uleb128 0x3a
 2185 00f3 0B       		.uleb128 0xb
ARM GAS  /tmp/ccVm1riJ.s 			page 58


 2186 00f4 3B       		.uleb128 0x3b
 2187 00f5 0B       		.uleb128 0xb
 2188 00f6 01       		.uleb128 0x1
 2189 00f7 13       		.uleb128 0x13
 2190 00f8 00       		.byte	0
 2191 00f9 00       		.byte	0
 2192 00fa 15       		.uleb128 0x15
 2193 00fb 0D       		.uleb128 0xd
 2194 00fc 00       		.byte	0
 2195 00fd 03       		.uleb128 0x3
 2196 00fe 0E       		.uleb128 0xe
 2197 00ff 3A       		.uleb128 0x3a
 2198 0100 0B       		.uleb128 0xb
 2199 0101 3B       		.uleb128 0x3b
 2200 0102 05       		.uleb128 0x5
 2201 0103 49       		.uleb128 0x49
 2202 0104 13       		.uleb128 0x13
 2203 0105 00       		.byte	0
 2204 0106 00       		.byte	0
 2205 0107 16       		.uleb128 0x16
 2206 0108 26       		.uleb128 0x26
 2207 0109 00       		.byte	0
 2208 010a 49       		.uleb128 0x49
 2209 010b 13       		.uleb128 0x13
 2210 010c 00       		.byte	0
 2211 010d 00       		.byte	0
 2212 010e 17       		.uleb128 0x17
 2213 010f 01       		.uleb128 0x1
 2214 0110 01       		.byte	0x1
 2215 0111 49       		.uleb128 0x49
 2216 0112 13       		.uleb128 0x13
 2217 0113 01       		.uleb128 0x1
 2218 0114 13       		.uleb128 0x13
 2219 0115 00       		.byte	0
 2220 0116 00       		.byte	0
 2221 0117 18       		.uleb128 0x18
 2222 0118 21       		.uleb128 0x21
 2223 0119 00       		.byte	0
 2224 011a 49       		.uleb128 0x49
 2225 011b 13       		.uleb128 0x13
 2226 011c 2F       		.uleb128 0x2f
 2227 011d 0B       		.uleb128 0xb
 2228 011e 00       		.byte	0
 2229 011f 00       		.byte	0
 2230 0120 19       		.uleb128 0x19
 2231 0121 0D       		.uleb128 0xd
 2232 0122 00       		.byte	0
 2233 0123 03       		.uleb128 0x3
 2234 0124 08       		.uleb128 0x8
 2235 0125 3A       		.uleb128 0x3a
 2236 0126 0B       		.uleb128 0xb
 2237 0127 3B       		.uleb128 0x3b
 2238 0128 0B       		.uleb128 0xb
 2239 0129 49       		.uleb128 0x49
 2240 012a 13       		.uleb128 0x13
 2241 012b 00       		.byte	0
 2242 012c 00       		.byte	0
ARM GAS  /tmp/ccVm1riJ.s 			page 59


 2243 012d 1A       		.uleb128 0x1a
 2244 012e 2E       		.uleb128 0x2e
 2245 012f 01       		.byte	0x1
 2246 0130 03       		.uleb128 0x3
 2247 0131 0E       		.uleb128 0xe
 2248 0132 3A       		.uleb128 0x3a
 2249 0133 0B       		.uleb128 0xb
 2250 0134 3B       		.uleb128 0x3b
 2251 0135 0B       		.uleb128 0xb
 2252 0136 27       		.uleb128 0x27
 2253 0137 19       		.uleb128 0x19
 2254 0138 11       		.uleb128 0x11
 2255 0139 01       		.uleb128 0x1
 2256 013a 12       		.uleb128 0x12
 2257 013b 06       		.uleb128 0x6
 2258 013c 40       		.uleb128 0x40
 2259 013d 18       		.uleb128 0x18
 2260 013e 9742     		.uleb128 0x2117
 2261 0140 19       		.uleb128 0x19
 2262 0141 01       		.uleb128 0x1
 2263 0142 13       		.uleb128 0x13
 2264 0143 00       		.byte	0
 2265 0144 00       		.byte	0
 2266 0145 1B       		.uleb128 0x1b
 2267 0146 05       		.uleb128 0x5
 2268 0147 00       		.byte	0
 2269 0148 03       		.uleb128 0x3
 2270 0149 0E       		.uleb128 0xe
 2271 014a 3A       		.uleb128 0x3a
 2272 014b 0B       		.uleb128 0xb
 2273 014c 3B       		.uleb128 0x3b
 2274 014d 0B       		.uleb128 0xb
 2275 014e 49       		.uleb128 0x49
 2276 014f 13       		.uleb128 0x13
 2277 0150 02       		.uleb128 0x2
 2278 0151 18       		.uleb128 0x18
 2279 0152 00       		.byte	0
 2280 0153 00       		.byte	0
 2281 0154 1C       		.uleb128 0x1c
 2282 0155 2E       		.uleb128 0x2e
 2283 0156 01       		.byte	0x1
 2284 0157 3F       		.uleb128 0x3f
 2285 0158 19       		.uleb128 0x19
 2286 0159 03       		.uleb128 0x3
 2287 015a 0E       		.uleb128 0xe
 2288 015b 3A       		.uleb128 0x3a
 2289 015c 0B       		.uleb128 0xb
 2290 015d 3B       		.uleb128 0x3b
 2291 015e 0B       		.uleb128 0xb
 2292 015f 27       		.uleb128 0x27
 2293 0160 19       		.uleb128 0x19
 2294 0161 11       		.uleb128 0x11
 2295 0162 01       		.uleb128 0x1
 2296 0163 12       		.uleb128 0x12
 2297 0164 06       		.uleb128 0x6
 2298 0165 40       		.uleb128 0x40
 2299 0166 18       		.uleb128 0x18
ARM GAS  /tmp/ccVm1riJ.s 			page 60


 2300 0167 9642     		.uleb128 0x2116
 2301 0169 19       		.uleb128 0x19
 2302 016a 01       		.uleb128 0x1
 2303 016b 13       		.uleb128 0x13
 2304 016c 00       		.byte	0
 2305 016d 00       		.byte	0
 2306 016e 1D       		.uleb128 0x1d
 2307 016f 2E       		.uleb128 0x2e
 2308 0170 01       		.byte	0x1
 2309 0171 3F       		.uleb128 0x3f
 2310 0172 19       		.uleb128 0x19
 2311 0173 03       		.uleb128 0x3
 2312 0174 0E       		.uleb128 0xe
 2313 0175 3A       		.uleb128 0x3a
 2314 0176 0B       		.uleb128 0xb
 2315 0177 3B       		.uleb128 0x3b
 2316 0178 0B       		.uleb128 0xb
 2317 0179 27       		.uleb128 0x27
 2318 017a 19       		.uleb128 0x19
 2319 017b 11       		.uleb128 0x11
 2320 017c 01       		.uleb128 0x1
 2321 017d 12       		.uleb128 0x12
 2322 017e 06       		.uleb128 0x6
 2323 017f 40       		.uleb128 0x40
 2324 0180 18       		.uleb128 0x18
 2325 0181 9742     		.uleb128 0x2117
 2326 0183 19       		.uleb128 0x19
 2327 0184 01       		.uleb128 0x1
 2328 0185 13       		.uleb128 0x13
 2329 0186 00       		.byte	0
 2330 0187 00       		.byte	0
 2331 0188 1E       		.uleb128 0x1e
 2332 0189 34       		.uleb128 0x34
 2333 018a 00       		.byte	0
 2334 018b 03       		.uleb128 0x3
 2335 018c 0E       		.uleb128 0xe
 2336 018d 3A       		.uleb128 0x3a
 2337 018e 0B       		.uleb128 0xb
 2338 018f 3B       		.uleb128 0x3b
 2339 0190 0B       		.uleb128 0xb
 2340 0191 49       		.uleb128 0x49
 2341 0192 13       		.uleb128 0x13
 2342 0193 02       		.uleb128 0x2
 2343 0194 18       		.uleb128 0x18
 2344 0195 00       		.byte	0
 2345 0196 00       		.byte	0
 2346 0197 1F       		.uleb128 0x1f
 2347 0198 34       		.uleb128 0x34
 2348 0199 00       		.byte	0
 2349 019a 03       		.uleb128 0x3
 2350 019b 08       		.uleb128 0x8
 2351 019c 3A       		.uleb128 0x3a
 2352 019d 0B       		.uleb128 0xb
 2353 019e 3B       		.uleb128 0x3b
 2354 019f 0B       		.uleb128 0xb
 2355 01a0 49       		.uleb128 0x49
 2356 01a1 13       		.uleb128 0x13
ARM GAS  /tmp/ccVm1riJ.s 			page 61


 2357 01a2 02       		.uleb128 0x2
 2358 01a3 18       		.uleb128 0x18
 2359 01a4 00       		.byte	0
 2360 01a5 00       		.byte	0
 2361 01a6 20       		.uleb128 0x20
 2362 01a7 0B       		.uleb128 0xb
 2363 01a8 01       		.byte	0x1
 2364 01a9 11       		.uleb128 0x11
 2365 01aa 01       		.uleb128 0x1
 2366 01ab 12       		.uleb128 0x12
 2367 01ac 06       		.uleb128 0x6
 2368 01ad 00       		.byte	0
 2369 01ae 00       		.byte	0
 2370 01af 21       		.uleb128 0x21
 2371 01b0 34       		.uleb128 0x34
 2372 01b1 00       		.byte	0
 2373 01b2 03       		.uleb128 0x3
 2374 01b3 0E       		.uleb128 0xe
 2375 01b4 3A       		.uleb128 0x3a
 2376 01b5 0B       		.uleb128 0xb
 2377 01b6 3B       		.uleb128 0x3b
 2378 01b7 05       		.uleb128 0x5
 2379 01b8 49       		.uleb128 0x49
 2380 01b9 13       		.uleb128 0x13
 2381 01ba 3F       		.uleb128 0x3f
 2382 01bb 19       		.uleb128 0x19
 2383 01bc 3C       		.uleb128 0x3c
 2384 01bd 19       		.uleb128 0x19
 2385 01be 00       		.byte	0
 2386 01bf 00       		.byte	0
 2387 01c0 22       		.uleb128 0x22
 2388 01c1 34       		.uleb128 0x34
 2389 01c2 00       		.byte	0
 2390 01c3 03       		.uleb128 0x3
 2391 01c4 08       		.uleb128 0x8
 2392 01c5 3A       		.uleb128 0x3a
 2393 01c6 0B       		.uleb128 0xb
 2394 01c7 3B       		.uleb128 0x3b
 2395 01c8 05       		.uleb128 0x5
 2396 01c9 49       		.uleb128 0x49
 2397 01ca 13       		.uleb128 0x13
 2398 01cb 3F       		.uleb128 0x3f
 2399 01cc 19       		.uleb128 0x19
 2400 01cd 3C       		.uleb128 0x3c
 2401 01ce 19       		.uleb128 0x19
 2402 01cf 00       		.byte	0
 2403 01d0 00       		.byte	0
 2404 01d1 00       		.byte	0
 2405              		.section	.debug_aranges,"",%progbits
 2406 0000 2C000000 		.4byte	0x2c
 2407 0004 0200     		.2byte	0x2
 2408 0006 00000000 		.4byte	.Ldebug_info0
 2409 000a 04       		.byte	0x4
 2410 000b 00       		.byte	0
 2411 000c 0000     		.2byte	0
 2412 000e 0000     		.2byte	0
 2413 0010 00000000 		.4byte	.LFB272
ARM GAS  /tmp/ccVm1riJ.s 			page 62


 2414 0014 42000000 		.4byte	.LFE272-.LFB272
 2415 0018 00000000 		.4byte	.LFB273
 2416 001c 78000000 		.4byte	.LFE273-.LFB273
 2417 0020 00000000 		.4byte	.LFB274
 2418 0024 22010000 		.4byte	.LFE274-.LFB274
 2419 0028 00000000 		.4byte	0
 2420 002c 00000000 		.4byte	0
 2421              		.section	.debug_ranges,"",%progbits
 2422              	.Ldebug_ranges0:
 2423 0000 00000000 		.4byte	.LFB272
 2424 0004 42000000 		.4byte	.LFE272
 2425 0008 00000000 		.4byte	.LFB273
 2426 000c 78000000 		.4byte	.LFE273
 2427 0010 00000000 		.4byte	.LFB274
 2428 0014 22010000 		.4byte	.LFE274
 2429 0018 00000000 		.4byte	0
 2430 001c 00000000 		.4byte	0
 2431              		.section	.debug_line,"",%progbits
 2432              	.Ldebug_line0:
 2433 0000 E5020000 		.section	.debug_str,"MS",%progbits,1
 2433      02007E02 
 2433      00000201 
 2433      FB0E0D00 
 2433      01010101 
 2434              	.LASF132:
 2435 0000 73746D33 		.ascii	"stm32_gpio_setup_t\000"
 2435      325F6770 
 2435      696F5F73 
 2435      65747570 
 2435      5F7400
 2436              	.LASF52:
 2437 0013 72656164 		.ascii	"ready_list_t\000"
 2437      795F6C69 
 2437      73745F74 
 2437      00
 2438              	.LASF101:
 2439 0020 77747472 		.ascii	"wttrp\000"
 2439      7000
 2440              	.LASF98:
 2441 0026 7264796D 		.ascii	"rdymsg\000"
 2441      736700
 2442              	.LASF18:
 2443 002d 75696E74 		.ascii	"uint64_t\000"
 2443      36345F74 
 2443      00
 2444              	.LASF4:
 2445 0036 5F5F7569 		.ascii	"__uint8_t\000"
 2445      6E74385F 
 2445      7400
 2446              	.LASF118:
 2447 0040 4F545950 		.ascii	"OTYPER\000"
 2447      455200
 2448              	.LASF95:
 2449 0047 706F7274 		.ascii	"port_intctx\000"
 2449      5F696E74 
 2449      63747800 
 2450              	.LASF71:
ARM GAS  /tmp/ccVm1riJ.s 			page 63


 2451 0053 73797374 		.ascii	"system_debug_t\000"
 2451      656D5F64 
 2451      65627567 
 2451      5F7400
 2452              	.LASF140:
 2453 0062 696F706F 		.ascii	"ioportmask_t\000"
 2453      72746D61 
 2453      736B5F74 
 2453      00
 2454              	.LASF117:
 2455 006f 4D4F4445 		.ascii	"MODER\000"
 2455      5200
 2456              	.LASF13:
 2457 0075 6C6F6E67 		.ascii	"long long unsigned int\000"
 2457      206C6F6E 
 2457      6720756E 
 2457      7369676E 
 2457      65642069 
 2458              	.LASF120:
 2459 008c 50555044 		.ascii	"PUPDR\000"
 2459      5200
 2460              	.LASF99:
 2461 0092 65786974 		.ascii	"exitcode\000"
 2461      636F6465 
 2461      00
 2462              	.LASF78:
 2463 009b 6D61696E 		.ascii	"mainthread\000"
 2463      74687265 
 2463      616400
 2464              	.LASF102:
 2465 00a6 73656E74 		.ascii	"sentmsg\000"
 2465      6D736700 
 2466              	.LASF68:
 2467 00ae 76697274 		.ascii	"virtual_timers_list_t\000"
 2467      75616C5F 
 2467      74696D65 
 2467      72735F6C 
 2467      6973745F 
 2468              	.LASF152:
 2469 00c4 49544D5F 		.ascii	"ITM_RxBuffer\000"
 2469      52784275 
 2469      66666572 
 2469      00
 2470              	.LASF51:
 2471 00d1 63685F74 		.ascii	"ch_threads_queue\000"
 2471      68726561 
 2471      64735F71 
 2471      75657565 
 2471      00
 2472              	.LASF31:
 2473 00e2 705F7072 		.ascii	"p_prio\000"
 2473      696F00
 2474              	.LASF11:
 2475 00e9 6C6F6E67 		.ascii	"long long int\000"
 2475      206C6F6E 
 2475      6720696E 
 2475      7400
ARM GAS  /tmp/ccVm1riJ.s 			page 64


 2476              	.LASF1:
 2477 00f7 7369676E 		.ascii	"signed char\000"
 2477      65642063 
 2477      68617200 
 2478              	.LASF121:
 2479 0103 42535252 		.ascii	"BSRR\000"
 2479      00
 2480              	.LASF45:
 2481 0108 705F6D70 		.ascii	"p_mpool\000"
 2481      6F6F6C00 
 2482              	.LASF110:
 2483 0110 6D5F7175 		.ascii	"m_queue\000"
 2483      65756500 
 2484              	.LASF154:
 2485 0118 2E2E2F43 		.ascii	"../ChibiOS/os/hal/ports/STM32/LLD/GPIOv2/pal_lld.c\000"
 2485      68696269 
 2485      4F532F6F 
 2485      732F6861 
 2485      6C2F706F 
 2486              	.LASF126:
 2487 014b 6D6F6465 		.ascii	"moder\000"
 2487      7200
 2488              	.LASF91:
 2489 0151 5243435F 		.ascii	"RCC_TypeDef\000"
 2489      54797065 
 2489      44656600 
 2490              	.LASF75:
 2491 015d 63685F73 		.ascii	"ch_system\000"
 2491      79737465 
 2491      6D00
 2492              	.LASF8:
 2493 0167 6C6F6E67 		.ascii	"long int\000"
 2493      20696E74 
 2493      00
 2494              	.LASF137:
 2495 0170 50454461 		.ascii	"PEData\000"
 2495      746100
 2496              	.LASF82:
 2497 0177 41504232 		.ascii	"APB2RSTR\000"
 2497      52535452 
 2497      00
 2498              	.LASF21:
 2499 0180 74737461 		.ascii	"tstate_t\000"
 2499      74655F74 
 2499      00
 2500              	.LASF15:
 2501 0189 75696E74 		.ascii	"uint16_t\000"
 2501      31365F74 
 2501      00
 2502              	.LASF151:
 2503 0192 616C7472 		.ascii	"altrmask\000"
 2503      6D61736B 
 2503      00
 2504              	.LASF33:
 2505 019b 705F6E65 		.ascii	"p_newer\000"
 2505      77657200 
 2506              	.LASF107:
ARM GAS  /tmp/ccVm1riJ.s 			page 65


 2507 01a3 735F7175 		.ascii	"s_queue\000"
 2507      65756500 
 2508              	.LASF119:
 2509 01ab 4F535045 		.ascii	"OSPEEDR\000"
 2509      45445200 
 2510              	.LASF57:
 2511 01b3 725F6E65 		.ascii	"r_newer\000"
 2511      77657200 
 2512              	.LASF148:
 2513 01bb 6D61736B 		.ascii	"mask\000"
 2513      00
 2514              	.LASF92:
 2515 01c0 72656761 		.ascii	"regarm_t\000"
 2515      726D5F74 
 2515      00
 2516              	.LASF64:
 2517 01c9 76745F70 		.ascii	"vt_prev\000"
 2517      72657600 
 2518              	.LASF77:
 2519 01d1 76746C69 		.ascii	"vtlist\000"
 2519      737400
 2520              	.LASF125:
 2521 01d8 73746D33 		.ascii	"stm32_gpio_t\000"
 2521      325F6770 
 2521      696F5F74 
 2521      00
 2522              	.LASF147:
 2523 01e5 706F7274 		.ascii	"port\000"
 2523      00
 2524              	.LASF114:
 2525 01ea 6D757465 		.ascii	"mutex_t\000"
 2525      785F7400 
 2526              	.LASF134:
 2527 01f2 50424461 		.ascii	"PBData\000"
 2527      746100
 2528              	.LASF79:
 2529 01f9 69646C65 		.ascii	"idle_thread_wa\000"
 2529      5F746872 
 2529      6561645F 
 2529      776100
 2530              	.LASF26:
 2531 0208 636E745F 		.ascii	"cnt_t\000"
 2531      7400
 2532              	.LASF153:
 2533 020e 474E5520 		.ascii	"GNU C 4.8.4 20140526 (release) [ARM/embedded-4_8-br"
 2533      4320342E 
 2533      382E3420 
 2533      32303134 
 2533      30353236 
 2534 0241 616E6368 		.ascii	"anch revision 211358] -mcpu=cortex-m4 -mno-thumb-in"
 2534      20726576 
 2534      6973696F 
 2534      6E203231 
 2534      31333538 
 2535 0274 74657277 		.ascii	"terwork -mthumb -ggdb -O0 -fomit-frame-pointer -fal"
 2535      6F726B20 
 2535      2D6D7468 
ARM GAS  /tmp/ccVm1riJ.s 			page 66


 2535      756D6220 
 2535      2D676764 
 2536 02a7 69676E2D 		.ascii	"ign-functions=16 -ffunction-sections -fdata-section"
 2536      66756E63 
 2536      74696F6E 
 2536      733D3136 
 2536      202D6666 
 2537 02da 73202D66 		.ascii	"s -fno-common -flto\000"
 2537      6E6F2D63 
 2537      6F6D6D6F 
 2537      6E202D66 
 2537      6C746F00 
 2538              	.LASF0:
 2539 02ee 756E7369 		.ascii	"unsigned int\000"
 2539      676E6564 
 2539      20696E74 
 2539      00
 2540              	.LASF63:
 2541 02fb 76745F6E 		.ascii	"vt_next\000"
 2541      65787400 
 2542              	.LASF103:
 2543 0303 77747365 		.ascii	"wtsemp\000"
 2543      6D7000
 2544              	.LASF41:
 2545 030a 705F6D73 		.ascii	"p_msgqueue\000"
 2545      67717565 
 2545      756500
 2546              	.LASF128:
 2547 0315 6F737065 		.ascii	"ospeedr\000"
 2547      65647200 
 2548              	.LASF122:
 2549 031d 4C434B52 		.ascii	"LCKR\000"
 2549      00
 2550              	.LASF127:
 2551 0322 6F747970 		.ascii	"otyper\000"
 2551      657200
 2552              	.LASF6:
 2553 0329 73686F72 		.ascii	"short unsigned int\000"
 2553      7420756E 
 2553      7369676E 
 2553      65642069 
 2553      6E7400
 2554              	.LASF138:
 2555 033c 50464461 		.ascii	"PFData\000"
 2555      746100
 2556              	.LASF48:
 2557 0343 63685F74 		.ascii	"ch_thread\000"
 2557      68726561 
 2557      6400
 2558              	.LASF24:
 2559 034d 6D73675F 		.ascii	"msg_t\000"
 2559      7400
 2560              	.LASF74:
 2561 0353 63685F73 		.ascii	"ch_system_t\000"
 2561      79737465 
 2561      6D5F7400 
 2562              	.LASF20:
ARM GAS  /tmp/ccVm1riJ.s 			page 67


 2563 035f 746D6F64 		.ascii	"tmode_t\000"
 2563      655F7400 
 2564              	.LASF53:
 2565 0367 63685F72 		.ascii	"ch_ready_list\000"
 2565      65616479 
 2565      5F6C6973 
 2565      7400
 2566              	.LASF25:
 2567 0375 6576656E 		.ascii	"eventmask_t\000"
 2567      746D6173 
 2567      6B5F7400 
 2568              	.LASF7:
 2569 0381 5F5F696E 		.ascii	"__int32_t\000"
 2569      7433325F 
 2569      7400
 2570              	.LASF93:
 2571 038b 73746B61 		.ascii	"stkalign_t\000"
 2571      6C69676E 
 2571      5F7400
 2572              	.LASF47:
 2573 0396 74687265 		.ascii	"threads_list_t\000"
 2573      6164735F 
 2573      6C697374 
 2573      5F7400
 2574              	.LASF40:
 2575 03a5 705F7761 		.ascii	"p_waiting\000"
 2575      6974696E 
 2575      6700
 2576              	.LASF80:
 2577 03af 73697A65 		.ascii	"sizetype\000"
 2577      74797065 
 2577      00
 2578              	.LASF46:
 2579 03b8 74687265 		.ascii	"thread_reference_t\000"
 2579      61645F72 
 2579      65666572 
 2579      656E6365 
 2579      5F7400
 2580              	.LASF69:
 2581 03cb 63685F76 		.ascii	"ch_virtual_timers_list\000"
 2581      69727475 
 2581      616C5F74 
 2581      696D6572 
 2581      735F6C69 
 2582              	.LASF116:
 2583 03e2 636C6561 		.ascii	"clear\000"
 2583      7200
 2584              	.LASF29:
 2585 03e8 705F6E65 		.ascii	"p_next\000"
 2585      787400
 2586              	.LASF70:
 2587 03ef 76745F6C 		.ascii	"vt_lasttime\000"
 2587      61737474 
 2587      696D6500 
 2588              	.LASF34:
 2589 03fb 705F6F6C 		.ascii	"p_older\000"
 2589      64657200 
ARM GAS  /tmp/ccVm1riJ.s 			page 68


 2590              	.LASF56:
 2591 0403 725F6374 		.ascii	"r_ctx\000"
 2591      7800
 2592              	.LASF97:
 2593 0409 746D5F63 		.ascii	"tm_calibration_t\000"
 2593      616C6962 
 2593      72617469 
 2593      6F6E5F74 
 2593      00
 2594              	.LASF131:
 2595 041a 61667268 		.ascii	"afrh\000"
 2595      00
 2596              	.LASF88:
 2597 041f 41484252 		.ascii	"AHBRSTR\000"
 2597      53545200 
 2598              	.LASF136:
 2599 0427 50444461 		.ascii	"PDData\000"
 2599      746100
 2600              	.LASF59:
 2601 042e 725F6375 		.ascii	"r_current\000"
 2601      7272656E 
 2601      7400
 2602              	.LASF83:
 2603 0438 41504231 		.ascii	"APB1RSTR\000"
 2603      52535452 
 2603      00
 2604              	.LASF12:
 2605 0441 5F5F7569 		.ascii	"__uint64_t\000"
 2605      6E743634 
 2605      5F7400
 2606              	.LASF124:
 2607 044c 41465248 		.ascii	"AFRH\000"
 2607      00
 2608              	.LASF123:
 2609 0451 4146524C 		.ascii	"AFRL\000"
 2609      00
 2610              	.LASF22:
 2611 0456 74726566 		.ascii	"trefs_t\000"
 2611      735F7400 
 2612              	.LASF61:
 2613 045e 76697274 		.ascii	"virtual_timer_t\000"
 2613      75616C5F 
 2613      74696D65 
 2613      725F7400 
 2614              	.LASF30:
 2615 046e 705F7072 		.ascii	"p_prev\000"
 2615      657600
 2616              	.LASF23:
 2617 0475 74707269 		.ascii	"tprio_t\000"
 2617      6F5F7400 
 2618              	.LASF72:
 2619 047d 63685F73 		.ascii	"ch_system_debug\000"
 2619      79737465 
 2619      6D5F6465 
 2619      62756700 
 2620              	.LASF115:
 2621 048d 5F426F6F 		.ascii	"_Bool\000"
ARM GAS  /tmp/ccVm1riJ.s 			page 69


 2621      6C00
 2622              	.LASF16:
 2623 0493 696E7433 		.ascii	"int32_t\000"
 2623      325F7400 
 2624              	.LASF2:
 2625 049b 756E7369 		.ascii	"unsigned char\000"
 2625      676E6564 
 2625      20636861 
 2625      7200
 2626              	.LASF130:
 2627 04a9 6166726C 		.ascii	"afrl\000"
 2627      00
 2628              	.LASF108:
 2629 04ae 735F636E 		.ascii	"s_cnt\000"
 2629      7400
 2630              	.LASF43:
 2631 04b4 705F6D74 		.ascii	"p_mtxlist\000"
 2631      786C6973 
 2631      7400
 2632              	.LASF3:
 2633 04be 73686F72 		.ascii	"short int\000"
 2633      7420696E 
 2633      7400
 2634              	.LASF37:
 2635 04c8 705F7374 		.ascii	"p_state\000"
 2635      61746500 
 2636              	.LASF55:
 2637 04d0 725F7072 		.ascii	"r_prio\000"
 2637      696F00
 2638              	.LASF133:
 2639 04d7 50414461 		.ascii	"PAData\000"
 2639      746100
 2640              	.LASF105:
 2641 04de 65776D61 		.ascii	"ewmask\000"
 2641      736B00
 2642              	.LASF38:
 2643 04e5 705F666C 		.ascii	"p_flags\000"
 2643      61677300 
 2644              	.LASF143:
 2645 04ed 6770696F 		.ascii	"gpiop\000"
 2645      7000
 2646              	.LASF85:
 2647 04f3 41504232 		.ascii	"APB2ENR\000"
 2647      454E5200 
 2648              	.LASF62:
 2649 04fb 63685F76 		.ascii	"ch_virtual_timer\000"
 2649      69727475 
 2649      616C5F74 
 2649      696D6572 
 2649      00
 2650              	.LASF106:
 2651 050c 63685F73 		.ascii	"ch_semaphore\000"
 2651      656D6170 
 2651      686F7265 
 2651      00
 2652              	.LASF42:
 2653 0519 705F6570 		.ascii	"p_epending\000"
ARM GAS  /tmp/ccVm1riJ.s 			page 70


 2653      656E6469 
 2653      6E6700
 2654              	.LASF17:
 2655 0524 75696E74 		.ascii	"uint32_t\000"
 2655      33325F74 
 2655      00
 2656              	.LASF104:
 2657 052d 77746D74 		.ascii	"wtmtxp\000"
 2657      787000
 2658              	.LASF54:
 2659 0534 725F7175 		.ascii	"r_queue\000"
 2659      65756500 
 2660              	.LASF65:
 2661 053c 76745F64 		.ascii	"vt_delta\000"
 2661      656C7461 
 2661      00
 2662              	.LASF49:
 2663 0545 63685F74 		.ascii	"ch_threads_list\000"
 2663      68726561 
 2663      64735F6C 
 2663      69737400 
 2664              	.LASF155:
 2665 0555 2F6E6673 		.ascii	"/nfs/nfs4/home/irbrown/Courses/P442/P442WifiTrailCo"
 2665      2F6E6673 
 2665      342F686F 
 2665      6D652F69 
 2665      7262726F 
 2666 0588 756E7465 		.ascii	"unterProject/milestone3\000"
 2666      7250726F 
 2666      6A656374 
 2666      2F6D696C 
 2666      6573746F 
 2667              	.LASF10:
 2668 05a0 6C6F6E67 		.ascii	"long unsigned int\000"
 2668      20756E73 
 2668      69676E65 
 2668      6420696E 
 2668      7400
 2669              	.LASF150:
 2670 05b2 616C7472 		.ascii	"altr\000"
 2670      00
 2671              	.LASF113:
 2672 05b7 63686172 		.ascii	"char\000"
 2672      00
 2673              	.LASF149:
 2674 05bc 6D6F6465 		.ascii	"mode\000"
 2674      00
 2675              	.LASF144:
 2676 05c1 636F6E66 		.ascii	"config\000"
 2676      696700
 2677              	.LASF5:
 2678 05c8 5F5F7569 		.ascii	"__uint16_t\000"
 2678      6E743136 
 2678      5F7400
 2679              	.LASF28:
 2680 05d3 74687265 		.ascii	"thread_t\000"
 2680      61645F74 
ARM GAS  /tmp/ccVm1riJ.s 			page 71


 2680      00
 2681              	.LASF112:
 2682 05dc 6D5F6E65 		.ascii	"m_next\000"
 2682      787400
 2683              	.LASF27:
 2684 05e3 73797374 		.ascii	"systime_t\000"
 2684      696D655F 
 2684      7400
 2685              	.LASF44:
 2686 05ed 705F7265 		.ascii	"p_realprio\000"
 2686      616C7072 
 2686      696F00
 2687              	.LASF60:
 2688 05f8 76746675 		.ascii	"vtfunc_t\000"
 2688      6E635F74 
 2688      00
 2689              	.LASF9:
 2690 0601 5F5F7569 		.ascii	"__uint32_t\000"
 2690      6E743332 
 2690      5F7400
 2691              	.LASF36:
 2692 060c 705F7374 		.ascii	"p_stklimit\000"
 2692      6B6C696D 
 2692      697400
 2693              	.LASF156:
 2694 0617 696E6974 		.ascii	"initgpio\000"
 2694      6770696F 
 2694      00
 2695              	.LASF73:
 2696 0620 70616E69 		.ascii	"panic_msg\000"
 2696      635F6D73 
 2696      6700
 2697              	.LASF96:
 2698 062a 6F666673 		.ascii	"offset\000"
 2698      657400
 2699              	.LASF86:
 2700 0631 41504231 		.ascii	"APB1ENR\000"
 2700      454E5200 
 2701              	.LASF142:
 2702 0639 696F706F 		.ascii	"ioportid_t\000"
 2702      72746964 
 2702      5F7400
 2703              	.LASF94:
 2704 0644 636F6E74 		.ascii	"context\000"
 2704      65787400 
 2705              	.LASF58:
 2706 064c 725F6F6C 		.ascii	"r_older\000"
 2706      64657200 
 2707              	.LASF146:
 2708 0654 5F70616C 		.ascii	"_pal_lld_setgroupmode\000"
 2708      5F6C6C64 
 2708      5F736574 
 2708      67726F75 
 2708      706D6F64 
 2709              	.LASF19:
 2710 066a 7274636E 		.ascii	"rtcnt_t\000"
 2710      745F7400 
ARM GAS  /tmp/ccVm1riJ.s 			page 72


 2711              	.LASF67:
 2712 0672 76745F70 		.ascii	"vt_par\000"
 2712      617200
 2713              	.LASF50:
 2714 0679 74687265 		.ascii	"threads_queue_t\000"
 2714      6164735F 
 2714      71756575 
 2714      655F7400 
 2715              	.LASF109:
 2716 0689 63685F6D 		.ascii	"ch_mutex\000"
 2716      75746578 
 2716      00
 2717              	.LASF39:
 2718 0692 705F7265 		.ascii	"p_refs\000"
 2718      667300
 2719              	.LASF145:
 2720 0699 5F70616C 		.ascii	"_pal_lld_init\000"
 2720      5F6C6C64 
 2720      5F696E69 
 2720      7400
 2721              	.LASF87:
 2722 06a7 42444352 		.ascii	"BDCR\000"
 2722      00
 2723              	.LASF76:
 2724 06ac 726C6973 		.ascii	"rlist\000"
 2724      7400
 2725              	.LASF89:
 2726 06b2 43464752 		.ascii	"CFGR2\000"
 2726      3200
 2727              	.LASF90:
 2728 06b8 43464752 		.ascii	"CFGR3\000"
 2728      3300
 2729              	.LASF14:
 2730 06be 75696E74 		.ascii	"uint8_t\000"
 2730      385F7400 
 2731              	.LASF129:
 2732 06c6 70757064 		.ascii	"pupdr\000"
 2732      7200
 2733              	.LASF100:
 2734 06cc 77746F62 		.ascii	"wtobjp\000"
 2734      6A7000
 2735              	.LASF35:
 2736 06d3 705F6E61 		.ascii	"p_name\000"
 2736      6D6500
 2737              	.LASF135:
 2738 06da 50434461 		.ascii	"PCData\000"
 2738      746100
 2739              	.LASF81:
 2740 06e1 43464752 		.ascii	"CFGR\000"
 2740      00
 2741              	.LASF141:
 2742 06e6 696F6D6F 		.ascii	"iomode_t\000"
 2742      64655F74 
 2742      00
 2743              	.LASF139:
 2744 06ef 50414C43 		.ascii	"PALConfig\000"
 2744      6F6E6669 
ARM GAS  /tmp/ccVm1riJ.s 			page 73


 2744      6700
 2745              	.LASF111:
 2746 06f9 6D5F6F77 		.ascii	"m_owner\000"
 2746      6E657200 
 2747              	.LASF32:
 2748 0701 705F6374 		.ascii	"p_ctx\000"
 2748      7800
 2749              	.LASF66:
 2750 0707 76745F66 		.ascii	"vt_func\000"
 2750      756E6300 
 2751              	.LASF84:
 2752 070f 41484245 		.ascii	"AHBENR\000"
 2752      4E5200
 2753              		.comm	__gnu_lto_v1,1,1
 2754              		.ident	"GCC: (GNU Tools for ARM Embedded Processors) 4.8.4 20140526 (release) [ARM/embedded-4_8-br
ARM GAS  /tmp/ccVm1riJ.s 			page 74


DEFINED SYMBOLS
                            *ABS*:00000000 pal_lld.c
     /tmp/ccVm1riJ.s:326    .text.initgpio:00000000 $t
     /tmp/ccVm1riJ.s:331    .text.initgpio:00000000 initgpio
     /tmp/ccVm1riJ.s:386    .text._pal_lld_init:00000000 $t
     /tmp/ccVm1riJ.s:392    .text._pal_lld_init:00000000 _pal_lld_init
     /tmp/ccVm1riJ.s:452    .text._pal_lld_init:00000060 $d
     /tmp/ccVm1riJ.s:462    .text._pal_lld_setgroupmode:00000000 $t
     /tmp/ccVm1riJ.s:468    .text._pal_lld_setgroupmode:00000000 _pal_lld_setgroupmode
                            *COM*:00000001 __gnu_lto_v1
                     .debug_frame:00000010 $d
     /tmp/ccVm1riJ.s:461    .text._pal_lld_init:00000078 $t

NO UNDEFINED SYMBOLS
