ARM GAS  /tmp/ccA2omAw.s 			page 1


   1              		.syntax unified
   2              		.cpu cortex-m4
   3              		.fpu softvfp
   4              		.eabi_attribute 20, 1
   5              		.eabi_attribute 21, 1
   6              		.eabi_attribute 23, 3
   7              		.eabi_attribute 24, 1
   8              		.eabi_attribute 25, 1
   9              		.eabi_attribute 26, 1
  10              		.eabi_attribute 30, 6
  11              		.eabi_attribute 34, 1
  12              		.eabi_attribute 18, 4
  13              		.thumb
  14              		.file	"serial.c"
  15              		.text
  16              	.Ltext0:
  17              		.section	.gnu.lto_.inline.404ae09438864646,"",%progbits
  18 0000 789C8592 		.ascii	"x\234\205\222[\016\2020\020E\257\245\024(\217\202`|"
  18      5B0E8230 
  18      1045AFA5 
  18      14288F82 
  18      607C
  19 0012 9198E8B7 		.ascii	"\221\230\350\267\376\372\347N\334\233K1\272\021\227"
  19      FEFAE74E 
  19      DC9B4B31 
  19      BA1197
  20 0021 E0129C8C 		.ascii	"\340\022\234\214\002)L\"\037'\355\341v2SPP\220\236\347"
  20      02294C22 
  20      1F27EDE1 
  20      76325350 
  20      50909EE7 
  21 0035 4FB7800E 		.ascii	"O\267\200\016\000\245\337'\350ov61\012:#\252\333\256"
  21      00A5DF27 
  21      E86F7636 
  21      310A3A23 
  21      AADBAE
  22 0048 CF584220 		.ascii	"\317XB k=9\037\"\324d\314\375\322\03131\221\\,\226u"
  22      6B3D391F 
  22      22D464CC 
  22      FDD21933 
  22      31915C2C 
  23 005e 8230F7B5 		.ascii	"\2020\367\265J\011\026I\345k\343\010\251\2543Y\347\262"
  23      4A091649 
  23      E56BE308 
  23      A9AC3359 
  23      E7B2
  24 0070 2E1097BE 		.ascii	".\020\227\276\016\013\202\223u\211\310\371ZS\303\250"
  24      0E0B8293 
  24      7589C8F9 
  24      5A53C3A8 
  25 0080 643D97A7 		.ascii	"d=\227\247\254a\012_\007\024C#\247\027\250\217\243["
  25      AC610A5F 
  25      07144323 
  25      A717A88F 
  25      A35B
  26 0092 761DF876 		.ascii	"v\035\370v\226H\016\243Om\273\232\274Z!\177@H0\270\304"
  26      96480EA3 
ARM GAS  /tmp/ccA2omAw.s 			page 2


  26      4F6DBB9A 
  26      BC5A217F 
  26      404830B8 
  27 00a7 00766B34 		.ascii	"\000vk4g\332\333\327\325k\220g\342\025c\203\264\365"
  27      67DADBD7 
  27      D56B9067 
  27      E2156383 
  27      B4F5
  28 00b9 1B1BDE6D 		.ascii	"\033\033\336m\021\357\245_\253\357\251\375\027\300\007"
  28      11EFA55F 
  28      ABEFA9FD 
  28      17C007
  29 00c8 CA21218F 		.ascii	"\312!!\217"
  30              		.text
  31              		.section	.gnu.lto_port_lock.404ae09438864646,"",%progbits
  32 0000 789C6362 		.ascii	"x\234cb`b@\007\"@,\310\310\300P\007\342030\002U021\002"
  32      60624007 
  32      22402CC8 
  32      C8C05007 
  32      E2303330 
  33 001a 05181819 		.ascii	"\005\030\030\031\352\231\030\353#AL\006F%\206\205\015"
  33      EA9918EB 
  33      23414C06 
  33      46258685 
  33      0D
  34 002b 0D931EB4 		.ascii	"\015\223\036\264>{\3144\263\341@\313\202\206?\377\377"
  34      3E7BCC34 
  34      B3E140CB 
  34      82863FFF 
  34      FF
  35 003c 33326632 		.ascii	"32f2\002M\324cdHfd\210\000r\030\025\300\024\023\013"
  35      024DD463 
  35      64486664 
  35      88007218 
  35      15C01413 
  36 0051 AA15EB99 		.ascii	"\252\025\353\231\016<\370\377\377D\347\363\275@\223"
  36      0E3CF8FF 
  36      FF44E7F3 
  36      BD4093
  37 0060 19121917 		.ascii	"\031\022\031\027\002M\003\002V\206\226\206\206\011\012"
  37      024D0302 
  37      56869686 
  37      86090A
  38 006f 0C20DD40 		.ascii	"\014 \335@\020\002&CA\016`>\313\320\264\003H\24732\202"
  38      10022643 
  38      410E603E 
  38      CBD0B403 
  38      48A73332 
  39 0084 CC6300AA 		.ascii	"\314c\000\252a8\307\320\364\361\315\214\307\022p]`F"
  39      6138C7D0 
  39      F4F1CD8C 
  39      C712705D 
  39      6046
  40 0096 C381EE2B 		.ascii	"\303\201\356+\355\2540#\023\031\0273\262\002\215\203"
  40      EDAC3023 
  40      13191733 
  40      B2028D83 
ARM GAS  /tmp/ccA2omAw.s 			page 3


  41 00a6 38190893 		.ascii	"8\031\010\223\231A>f\206x[\216\241dn\303\014\207LFf"
  41      99413E66 
  41      86785B8E 
  41      A1646EC3 
  41      0C874C46 
  42 00bb 102F1DAC 		.ascii	"\020/\035\254\012.U\016\221\202\272\374\"C\343\203\235"
  42      0A2E550E 
  42      9182BAFC 
  42      2243E383 
  42      9D
  43 00cc FA10E360 		.ascii	"\372\020\343` \004\244\001\244Z[OO\3379#3)\323?X?\277"
  43      2004A401 
  43      A45A5B4F 
  43      4FDF3923 
  43      3329D33F 
  44 00e3 58BFA844 		.ascii	"X\277\250D\277 \277\250\244X\3371\310\327\331\267B?"
  44      BF20BFA8 
  44      A458DF31 
  44      C8D7D9B7 
  44      423F
  45 00f5 392339BF 		.ascii	"9#9\277(5\276\314<W/\203\201\265,1\2474U\017UGjE\211"
  45      2835BECC 
  45      3C572F83 
  45      81B52C31 
  45      A734550F 
  46 010e BEB36FB0 		.ascii	"\276\263o\260g\260~f^rNiJ\252>XGr\256[i^2P\223\200o"
  46      67B07E66 
  46      5E724E69 
  46      4AAA3E58 
  46      4772AE5B 
  47 0129 70904252 		.ascii	"p\220BRbqjAQ\246\216\202\252\001\003S\021\003{njn~Q"
  47      62716A41 
  47      51A68E82 
  47      AA010353 
  47      11037B6E 
  48 0141 2503005A 		.ascii	"%\003\000Z\240au"
  48      A06175
  49              		.text
  50              		.section	.gnu.lto_port_unlock.404ae09438864646,"",%progbits
  51 0000 789C6362 		.ascii	"x\234cb`b@\007\"@,\310\310\300P\007\342030\002U021\002"
  51      60624007 
  51      22402CC8 
  51      C8C05007 
  51      E2303330 
  52 001a 05181819 		.ascii	"\005\030\030\031\352\231\030\353#AL\006F%\206\205\015"
  52      EA9918EB 
  52      23414C06 
  52      46258685 
  52      0D
  53 002b 0D931EB4 		.ascii	"\015\223\036\264~z\3144\263\341@\313\202\206?\377\377"
  53      7E7ACC34 
  53      B3E140CB 
  53      82863FFF 
  53      FF
  54 003c 33326632 		.ascii	"32f2\002M\324cdHfd\210\000r\030\025\300\024\023\013"
  54      024DD463 
  54      64486664 
ARM GAS  /tmp/ccA2omAw.s 			page 4


  54      88007218 
  54      15C01413 
  55 0051 AA15EB99 		.ascii	"\252\025\353\231\016<\370\377\377E\347\376}@\223\031"
  55      0E3CF8FF 
  55      FF45E7FE 
  55      7D409319 
  56 0061 12191702 		.ascii	"\022\031\027\002M\003\002V\206\226\206\206\011\012\014"
  56      4D030256 
  56      86968686 
  56      090A0C
  57 0070 20DD4010 		.ascii	" \335@\020\002&CA\016`>\313\320\264\003H\24732\202\314"
  57      02264341 
  57      0E603ECB 
  57      D0B40348 
  57      A7333282 
  58 0085 031B728E 		.ascii	"\003\033r\216\241\351\343\233\031\217%\340\272\300\214"
  58      A1E9E39B 
  58      198F25E0 
  58      BAC08C
  59 0094 8603A79F 		.ascii	"\206\003\247\237\266\263\302\214Ld\\\314\310\0124\016"
  59      B6B3C28C 
  59      4C645CCC 
  59      C80A340E 
  60 00a4 E264204C 		.ascii	"\342d Lf\006\371\230\031\342m9\206\222\271\0153\034"
  60      6606F998 
  60      19E26D39 
  60      8692B90D 
  60      331C
  61 00b6 32199941 		.ascii	"2\031\231A\274t\260*\270T9D\012\352\362\213\014\215"
  61      BC74B02A 
  61      B8543944 
  61      0AEAF28B 
  61      0C8D
  62 00c8 0FCEEB43 		.ascii	"\017\316\353C\214\203\201\020\220\006\220jm==}\347\214"
  62      8C838110 
  62      9006906A 
  62      6D3D3D7D 
  62      E78C
  63 00da CCA44CFF 		.ascii	"\314\244L\377`\375\374b\375\242\022\375\202\374\242"
  63      60FDFC62 
  63      FDA212FD 
  63      82FCA2
  64 00e9 92627DC7 		.ascii	"\222b}\307 _g\337\012\375\344\214\344\374\242\324\370"
  64      205F67DF 
  64      0AFDE48C 
  64      E4FCA2D4 
  64      F8
  65 00fa 32F35CBD 		.ascii	"2\363\\\275\014\006\326\262\304\234\322T=T\035\251\025"
  65      0C06D6B2 
  65      C49CD254 
  65      3D541DA9 
  65      15
  66 010b 25FACEBE 		.ascii	"%\372\316\276\301\236\301\372\231y\3119\245)\251\372"
  66      C19EC1FA 
  66      9979C939 
  66      A529A9FA 
  67 011b 601DC9B9 		.ascii	"`\035\311\271n\245y\311@M\002\276\301A\012I\211\305"
ARM GAS  /tmp/ccA2omAw.s 			page 5


  67      6EA579C9 
  67      404D02BE 
  67      C1410A49 
  67      89C5
  68 012d A9054599 		.ascii	"\251\005E\231:\012\252\006\014LE\014\354\271\251\271"
  68      3A0AAA06 
  68      0C4C450C 
  68      ECB9A9B9 
  69 013d F945950C 		.ascii	"\371E\225\014\000\233\025a\301"
  69      009B1561 
  69      C1
  70              		.text
  71              		.section	.gnu.lto_chSysLock.404ae09438864646,"",%progbits
  72 0000 789C6362 		.ascii	"x\234cb`b@\007\"@\\\006\304\312 \0163\003#P\005#\023"
  72      60624007 
  72      22405C06 
  72      C4CA200E 
  72      33032350 
  73 0017 232390C3 		.ascii	"##\220\303\310P\317\304X\037\311\010V\266\236\351\300"
  73      C850CFC4 
  73      581FC908 
  73      56B69EE9 
  73      C0
  74 0028 83FFFFD7 		.ascii	"\203\377\377\327}\231\266\354\017\343m&\220\030+CKC"
  74      7D99B6EC 
  74      0FE36D26 
  74      90182B43 
  74      4B43
  75 003a C3040506 		.ascii	"\303\004\005\006\206d\260\212\0200\031\012\322\317|"
  75      8664B08A 
  75      1030190A 
  75      D2CF7C
  76 0049 9EA1F9C1 		.ascii	"\236\241\371\301\236n\366D\306\205\214\254@\301j\206"
  76      9E6EF644 
  76      C6858CAC 
  76      40C16A86 
  77 0059 5F0D1D0D 		.ascii	"_\015\035\015\002\231\214@\245\020\3232A\364E\206\306"
  77      02998C40 
  77      A510D332 
  77      41F44586 
  77      C6
  78 006a 07FBB561 		.ascii	"\007\373\265a\212  \004$\001r\244\242\236\236\276sF"
  78      8A202004 
  78      240172A4 
  78      A29E9EBE 
  78      7346
  79 007c 6652A67F 		.ascii	"fR\246\177\260~~\261~Q\211~f^rNiJ\252~rFqe\261^\006"
  79      B07E7EB1 
  79      7E51897E 
  79      665E724E 
  79      694AAA7E 
  80 0097 0300A9F5 		.ascii	"\003\000\251\365'\020"
  80      2710
  81              		.text
  82              		.section	.gnu.lto_chSysUnlock.404ae09438864646,"",%progbits
  83 0000 789C6362 		.ascii	"x\234cb`b@\007\322@\334\301\310\300\240\014\342\260"
  83      60624007 
ARM GAS  /tmp/ccA2omAw.s 			page 6


  83      D240DCC1 
  83      C8C0A00C 
  83      E2B0
  84 0012 30300255 		.ascii	"00\002U0212\003IfF\2400\003#C=\0233c}$\210\315\300\246"
  84      30323132 
  84      03496646 
  84      A0300323 
  84      433D1333 
  85 002d C4B0B0A1 		.ascii	"\304\260\260\241a\322\203\247\337gIv-h\232\320\360\357"
  85      61D283A7 
  85      DF674976 
  85      2D689AD0 
  85      F0EF
  86 003f FF7FC64C 		.ascii	"\377\177\306L\220T2#C\004\220\305\250\000\246\230XP"
  86      90543223 
  86      430490C5 
  86      A800A698 
  86      5850
  87 0051 2D81686B 		.ascii	"-\201hk\330\264\242\201sA\303\237\377\377\231\311\323"
  87      D8B4A281 
  87      7341C39F 
  87      FFFF99C9 
  87      D3
  88 0062 C33C58EC 		.ascii	"\303<X\354\311edX\317t\340\301\377\377ov\356|\364\206"
  88      C9656458 
  88      CF74E0C1 
  88      FFFF6F76 
  88      EE7CF486 
  89 0076 5114640B 		.ascii	"Q\024d\013+CKC\303\004\205\\\250\215@\020\002%\201A"
  89      2B434B43 
  89      C304855C 
  89      A88D4010 
  89      02258141 
  90 008a CA1C0A32 		.ascii	"\312\034\0122\224\371<C\363\203\327\247\331\023\031"
  90      94F93C43 
  90      F383D7A7 
  90      D91319
  91 0099 9731B202 		.ascii	"\2271\262\002\245\252\031~5t4\010d2\262$\203\303\232"
  91      A5AA197E 
  91      35743408 
  91      6432B224 
  91      83C39A
  92 00ac 81211324 		.ascii	"\201!\023$~\221\241\361\301\033m\230\"\010\010\001)"
  92      7E91A1F1 
  92      C11B6D98 
  92      22080801 
  92      29
  93 00bd 00C59EA2 		.ascii	"\000\305\236\242\236\236\276sFfR\246\177\260~~\261~"
  93      9E9EBE73 
  93      466652A6 
  93      7FB07E7E 
  93      B17E
  94 00cf 51897E66 		.ascii	"Q\211~f^rNiJ\252~rFqe\261^\006\003\000\341Gc\351"
  94      5E724E69 
  94      4AAA7E72 
  94      467165B1 
  94      5E060300 
ARM GAS  /tmp/ccA2omAw.s 			page 7


  95              		.text
  96              		.section	.gnu.lto_chEvtObjectInit.404ae09438864646,"",%progbits
  97 0000 789C6362 		.ascii	"x\234cb`b@\007\"@\334\017\304j \0163\003#P\005#\023"
  97      60624007 
  97      2240DC0F 
  97      C46A200E 
  97      33032350 
  98 0017 232390C3 		.ascii	"##\220\303\310P\317\304X\037\311\010V\266\236\351\300"
  98      C850CFC4 
  98      581FC908 
  98      56B69EE9 
  98      C0
  99 0028 83FFFFD7 		.ascii	"\203\377\377\327m9\275\347\016\343Z&\240\202\\\2608"
  99      6D39BDE7 
  99      0EE35A26 
  99      A0825CB0 
  99      38
 100 0039 2B434B43 		.ascii	"+CKC\303\004\005\006\206d07\004L\206\202\014a>\313\320"
 100      C3040506 
 100      86643037 
 100      044C8682 
 100      0C613ECB 
 101 004e 747AC6F6 		.ascii	"tz\306\366\203L\211\214\013\031Y\031\264\031V5\000\001"
 101      834C898C 
 101      0B195919 
 101      B4195635 
 101      0001
 102 0060 6F2623C3 		.ascii	"o&#\303l\206Y\214\231\214\214\351\214\214\021@\032\342"
 102      6C86598C 
 102      998C8CE9 
 102      8C8C1140 
 102      1AE2
 103 0072 A224882D 		.ascii	"\242$\210-\014\351 \233/24>\270\253\012\321\007\003"
 103      0CE9209B 
 103      2F32343E 
 103      B8AB0AD1 
 103      0703
 104 0084 21200990 		.ascii	"! \011\220Z\025==}\347\214\314\244L\377`\375\374b\375"
 104      5A153D3D 
 104      7DE78CCC 
 104      A44CFF60 
 104      FDFC62FD 
 105 0098 A212FDCC 		.ascii	"\242\022\375\314\274\344\234\322\224T\375\344\214\324"
 105      BCE49CD2 
 105      9454FDE4 
 105      8CD4
 106 00a6 B2D4BC92 		.ascii	"\262\324\274\222b\275\014\006\000\225\324+\367"
 106      62BD0C06 
 106      0095D42B 
 106      F7
 107              		.text
 108              		.section	.gnu.lto_chIQIsEmptyI.404ae09438864646,"",%progbits
 109 0000 789C6362 		.ascii	"x\234cb`b@\007\322@\254\317\310\300\240\006\342\260"
 109      60624007 
 109      D240ACCF 
 109      C8C0A006 
 109      E2B0
ARM GAS  /tmp/ccA2omAw.s 			page 8


 110 0012 30300255 		.ascii	"00\002U0212\003IfF\2400\003#C=\0233c}$\210\315\300\244"
 110      30323132 
 110      03496646 
 110      A0300323 
 110      433D1333 
 111 002d C4B0B0A1 		.ascii	"\304\260\260\241a\326\203\247\273f\211w=h\230\320\360"
 111      61D683A7 
 111      BB668977 
 111      3D6898D0 
 111      F0
 112 003e EFFF7FC6 		.ascii	"\357\377\177\306L\220T2#C\004\220\305\310\001\246\230"
 112      4C905432 
 112      23430490 
 112      C5C801A6 
 112      98
 113 004f 18512D01 		.ascii	"\030Q-\001k\233\324p\371I\300\211\206\226\003\377\377"
 113      6B9BD470 
 113      F949C089 
 113      869603FF 
 113      FF
 114 0060 DB67826C 		.ascii	"\333g\202l\200\351Q\200\350aA\325\263\236\351\300\203"
 114      80E95180 
 114      E86141D5 
 114      B39EE9C0 
 114      83
 115 0071 FFFFFFCC 		.ascii	"\377\377\377\314\336\372\370\015\243\010\013#c.#\320"
 115      DEFAF80D 
 115      A3080B23 
 115      632E23D0 
 116 0081 F5407DCC 		.ascii	"\365@}\314\014`\013\031X\031Z\032\032&(\200\215\001"
 116      0C600B19 
 116      58195A1A 
 116      1A262880 
 116      8D01
 117 0093 82103019 		.ascii	"\202\0200\031\012r?\363Y\206C\267~\354:\305\224\310"
 117      0A723FF3 
 117      598643B7 
 117      7EEC3AC5 
 117      94C8
 118 00a5 B8989195 		.ascii	"\270\230\221\225!\235\221I\233aUC\013\320\016\226\331"
 118      219D9149 
 118      9B615543 
 118      0BD00E96 
 118      D9
 119 00b6 0CB38014 		.ascii	"\014\263\200\024k:##\310J6\260EIp\307\236eh>\337\314"
 119      6B3A2323 
 119      C84A36B0 
 119      454970C7 
 119      9E65683E 
 120 00cc 07D3C50C 		.ascii	"\007\323\305\014\324\010R\305\014\223\016\0051\231O"
 120      D40852C5 
 120      0C930E05 
 120      31994F
 121 00db 33347230 		.ascii	"34r00\244\200\002\347\"\003#\\1DI\010H\030\024\310*"
 121      30A48002 
 121      E7220323 
 121      5C314449 
ARM GAS  /tmp/ccA2omAw.s 			page 9


 121      08481814 
 122 00f1 7A7AFACE 		.ascii	"zz\372\316\031\231I\231\376\301\372\371\305\372E%\372"
 122      19994999 
 122      FEC1FAF9 
 122      C5FA4525 
 122      FA
 123 0102 9979C939 		.ascii	"\231y\3119\245)\251\372\311\031\205\245\251\245\251"
 123      A529A9FA 
 123      C91985A5 
 123      A9A5A9
 124 0111 C57A190C 		.ascii	"\305z\031\014\000\323CK\211"
 124      00D3434B 
 124      89
 125              		.text
 126              		.section	.gnu.lto_chOQIsFullI.404ae09438864646,"",%progbits
 127 0000 789C6362 		.ascii	"x\234cb`b@\007\322@\254\317\310\300\240\006\342\260"
 127      60624007 
 127      D240ACCF 
 127      C8C0A006 
 127      E2B0
 128 0012 30300255 		.ascii	"00\002U0212\003IfF\2400\003#C=\0233c}$\210\315\300\244"
 128      30323132 
 128      03496646 
 128      A0300323 
 128      433D1333 
 129 002d C4B0B0A1 		.ascii	"\304\260\260\241a\326\203\247\353f\213w=h\230\320\360"
 129      61D683A7 
 129      EB668B77 
 129      3D6898D0 
 129      F0
 130 003e EFFF7FC6 		.ascii	"\357\377\177\306L\220T2#C\004\220\305\310\001\246\230"
 130      4C905432 
 130      23430490 
 130      C5C801A6 
 130      98
 131 004f 18512D01 		.ascii	"\030Q-\001k\233\324p\371I\300\211\206\226\003\377\377"
 131      6B9BD470 
 131      F949C089 
 131      869603FF 
 131      FF
 132 0060 DB67826C 		.ascii	"\333g\202l\200\351Q\200\350aA\325\263\236\351\300\203"
 132      80E95180 
 132      E86141D5 
 132      B39EE9C0 
 132      83
 133 0071 FFFFFF5C 		.ascii	"\377\377\377\\\335\372x\017\243\030\013#c.#\320\365"
 133      DDFA780F 
 133      A3180B23 
 133      632E23D0 
 133      F5
 134 0082 407DCC0C 		.ascii	"@}\314\014`\013\031X\031Z\032\032&(\200\215\001\202"
 134      600B1958 
 134      195A1A1A 
 134      2628808D 
 134      0182
 135 0094 1030190A 		.ascii	"\0200\031\012r?\363Y\206C\267~\254;\315\224\310\270"
 135      723FF359 
ARM GAS  /tmp/ccA2omAw.s 			page 10


 135      8643B77E 
 135      AC3BCD94 
 135      C8B8
 136 00a6 98919521 		.ascii	"\230\221\225!\235\221I\233aUC\013\320\016\226\331\014"
 136      9D91499B 
 136      6155430B 
 136      D00E96D9 
 136      0C
 137 00b7 B380146B 		.ascii	"\263\200\024k:##\310J6\260EIp\307\236eh>\337\314\007"
 137      3A2323C8 
 137      4A36B045 
 137      4970C79E 
 137      65683EDF 
 138 00cd D3C50CD4 		.ascii	"\323\305\014\324\010R\305\014\223\016\0051\231O34r0"
 138      0852C50C 
 138      930E0531 
 138      994F3334 
 138      7230
 139 00df 30A48002 		.ascii	"0\244\200\002\347\"\003#\\1DI\010H\030\024\310*zz\372"
 139      E7220323 
 139      5C314449 
 139      08481814 
 139      C82A7A7A 
 140 00f4 CE199949 		.ascii	"\316\031\231I\231\376\301\372\371\305\372E%\372\231"
 140      99FEC1FA 
 140      F9C5FA45 
 140      25FA99
 141 0103 79C939A5 		.ascii	"y\3119\245)\251\372\311\031\205\245\251\245\251\305"
 141      29A9FAC9 
 141      1985A5A9 
 141      A5A9C5
 142 0112 7A190C00 		.ascii	"z\031\014\000\311\024K\177"
 142      C9144B7F 
 143              		.text
 144              		.section	.gnu.lto_osalSysLock.404ae09438864646,"",%progbits
 145 0000 789C6362 		.ascii	"x\234cb`b@\007\"@\\\006\304\312 \0163\003#P\005#\023"
 145      60624007 
 145      22405C06 
 145      C4CA200E 
 145      33032350 
 146 0017 232390C3 		.ascii	"##\220\303\310P\317\304X\037\311\010V\266\236\351\300"
 146      C850CFC4 
 146      581FC908 
 146      56B69EE9 
 146      C0
 147 0028 83FFFFD7 		.ascii	"\203\377\377\327m\233\277\374\015\343_&\220\030+CKC"
 147      6D9BBFFC 
 147      0DE35F26 
 147      90182B43 
 147      4B43
 148 003a C3040506 		.ascii	"\303\004\005\006\206d\260\212\0200\031\012\322\317|"
 148      8664B08A 
 148      1030190A 
 148      D2CF7C
 149 0049 9EA1F9C1 		.ascii	"\236\241\371\301\335~\366D\306\205\214\254@\301j\206"
 149      DD7EF644 
 149      C6858CAC 
ARM GAS  /tmp/ccA2omAw.s 			page 11


 149      40C16A86 
 150 0059 5F0D1D0D 		.ascii	"_\015\035\015\002\231\214@\245\020\3232A\364E\206\306"
 150      02998C40 
 150      A510D332 
 150      41F44586 
 150      C6
 151 006a 07F7F461 		.ascii	"\007\367\364a\212  \004$\001r\244\242\236\236\276sF"
 151      8A202004 
 151      240172A4 
 151      A29E9EBE 
 151      7346
 152 007c 6652A67F 		.ascii	"fR\246\177\260~~\261~Fb\016\220\002\022E%`Z/\203\001"
 152      B07E7EB1 
 152      7E46620E 
 152      90021245 
 152      25605A2F 
 153 0092 00A9FA26 		.ascii	"\000\251\372&\352"
 153      EA
 154              		.text
 155              		.section	.gnu.lto_osalSysUnlock.404ae09438864646,"",%progbits
 156 0000 789C6362 		.ascii	"x\234cb`b@\007\"@\\\006\304\312 \0163\003#P\005#\023"
 156      60624007 
 156      22405C06 
 156      C4CA200E 
 156      33032350 
 157 0017 232390C3 		.ascii	"##\220\303\310P\317\304X\037\311\010V\266\236\351\300"
 157      C850CFC4 
 157      581FC908 
 157      56B69EE9 
 157      C0
 158 0028 83FFFFD7 		.ascii	"\203\377\377\327\335\231\277f\016\343\177&\220\030+"
 158      DD99BF66 
 158      0EE37F26 
 158      90182B
 159 0037 434B43C3 		.ascii	"CKC\303\004\005\006\206d\260\212\0200\031\012\322\317"
 159      04050686 
 159      64B08A10 
 159      30190AD2 
 159      CF
 160 0048 7C9EA1F9 		.ascii	"|\236\241\371\301\217\363\354\211\214\013\031Y\201\202"
 160      C18FF3EC 
 160      898C0B19 
 160      598182
 161 0057 D50CBF1A 		.ascii	"\325\014\277\032:\032\0042\031\201J!\246e\202\350\213"
 161      3A1A0432 
 161      19814A21 
 161      A66582E8 
 161      8B
 162 0068 0C8D0F7E 		.ascii	"\014\215\017~\352\303\024A@\010H\002\344HE==}\347\214"
 162      EAC31441 
 162      40084802 
 162      E448453D 
 162      3D7DE78C 
 163 007c CCA44CFF 		.ascii	"\314\244L\377`\375\374b\375\214\304\034 \005$\212J\300"
 163      60FDFC62 
 163      FD8CC41C 
 163      2005248A 
ARM GAS  /tmp/ccA2omAw.s 			page 12


 163      4AC0
 164 008e B45E0603 		.ascii	"\264^\006\003\000\300I'="
 164      00C04927 
 164      3D
 165              		.text
 166              		.section	.gnu.lto_osalEventObjectInit.404ae09438864646,"",%progbits
 167 0000 789C6362 		.ascii	"x\234cb`b@\007\"@\334\010\304\312 \0163\003#P\005#\023"
 167      60624007 
 167      2240DC08 
 167      C4CA200E 
 167      33032350 
 168 0017 232390C3 		.ascii	"##\220\303\310P\317\304X\037\311\010V\266\236\351\300"
 168      C850CFC4 
 168      581FC908 
 168      56B69EE9 
 168      C0
 169 0028 83FFFFD7 		.ascii	"\203\377\377\327\335\372\374\3428\343\217\235,@\025"
 169      DDFAFCE2 
 169      38E38F9D 
 169      2C4015
 170 0037 B9600956 		.ascii	"\271`\011V\206\226\206\206\011\012\014\014\311`n\010"
 170      86968686 
 170      090A0C0C 
 170      C9606E08 
 171 0047 980C0599 		.ascii	"\230\014\005\231\302|\236\241\345\301\373\235+\030\023"
 171      C27C9EA1 
 171      E5C1FB9D 
 171      2B1813
 172 0056 191732B2 		.ascii	"\031\0272\262\002E\253\031~5t4\010d2\002\325B\014Mg"
 172      0245AB19 
 172      7E357434 
 172      08643202 
 172      D5420C4D 
 173 006b 64CC0431 		.ascii	"d\314\0041/24>\000\032\012S\010\001! \031\220{\025\365"
 173      2F32343E 
 173      001A0A53 
 173      08012120 
 173      19907B15 
 174 0080 F4F49D33 		.ascii	"\364\364\23532\2232\375\203\365\363\213\3653\022s\200"
 174      329332FD 
 174      83F5F38B 
 174      F5331273 
 174      80
 175 0091 1490282A 		.ascii	"\024\220(*\001\323z\031\014\000\373\014*\240"
 175      01D37A19 
 175      0C00FB0C 
 175      2AA0
 176              		.text
 177              		.section	.gnu.lto_write.404ae09438864646,"",%progbits
 178 0000 789C7D51 		.ascii	"x\234}Q=K\003A\020}o\367.\306*V6\026FK\205\334O\260"
 178      3D4B0341 
 178      107D6FF7 
 178      2EC62A56 
 178      3616464B 
 179 0018 F0072898 		.ascii	"\360\007(\230\200b\225\234rY\210\010Ig\212l4\242\215"
 179      8062959C 
 179      72598808 
ARM GAS  /tmp/ccA2omAw.s 			page 13


 179      49678A6C 
 179      34A28D
 180 002b 20296321 		.ascii	" )c!!\255`!\366)\025\021\021K\233\024\376\000+\2134"
 180      21AD6021 
 180      F6291511 
 180      114B9B14 
 180      FE002B8B 
 181 0040 EBEC0545 		.ascii	"\353\354\005E-\034\330\331\331\335y\037\303*(\374\215"
 181      2D1CD8D9 
 181      D9DD791F 
 181      C32A28FC 
 181      8D
 182 0051 3959DB04 		.ascii	"9Y\333\004\026\374!\000\245\203\212Z\262\246\\\203h"
 182      16FC2100 
 182      A5838A5A 
 182      B2A65C83 
 182      68
 183 0062 29CDD696 		.ascii	")\315\326\226\257\241\026\321\267\2667:~\275\357\323"
 183      AFA116D1 
 183      B7B6373A 
 183      7EBDEFD3 
 184 0072 766DFBDD 		.ascii	"vm\373\335\271\234\361O1\261IC\346\323M\005\277ERX\327"
 184      B99CF14F 
 184      31B14943 
 184      E6D34D05 
 184      BF455258 
 185 0087 DEBEADDF 		.ascii	"\336\276\255\337\331\316\320\271\025\343\025\376\307"
 185      D9CED0B9 
 185      15E315FE 
 185      C7
 186 0094 5CABE1C8 		.ascii	"\\\253\341\310\271\253\263\313\217\331\014\271G\361"
 186      B9ABB3CB 
 186      8FD90CB9 
 186      47F1
 187 00a2 2E282D15 		.ascii	".(-\025\003I*D*\214\020\035k\317\363)\235D1\315%?\207"
 187      03492A44 
 187      2A8C101D 
 187      6BCFF329 
 187      9D4431CD 
 188 00b9 7EC4E1F8 		.ascii	"~\304\341\370\350\346\205e\016\030\"\241j\342@8\226"
 188      E8E68565 
 188      0E1822A1 
 188      6AE24038 
 188      96
 189 00ca B164185C 		.ascii	"\261d\030\\\240'\252aBz\365L\252Y\341\017\003O8\031"
 189      A027AA61 
 189      427AF54C 
 189      AA59E10F 
 189      034F3819 
 190 00de EA2F68D8 		.ascii	"\352/h\330\304\330\236\332\031\303\251\230\223.\341"
 190      C4D89EDA 
 190      19C3A998 
 190      932EE1
 191 00ed 4BA81306 		.ascii	"K\250\023\006\036\237u\0229\2614=\001\227\374\200\372"
 191      1E9F7512 
 191      39B1343D 
 191      0197FC80 
ARM GAS  /tmp/ccA2omAw.s 			page 14


 191      FA
 192 00fe 01ED2CB0 		.ascii	"\001\355,\260\343\353g|\333\010'-E\317\343?d\276P\210"
 192      E3EB677C 
 192      DB08272D 
 192      45CFE33F 
 192      64BE5088 
 193 0112 56ABA662 		.ascii	"V\253\246b\3266\242\375FT-\327\242F=\216\032\273uS\256"
 193      D636A2FD 
 193      46542DD7 
 193      A2463D8E 
 193      1ABB7553 
 194 0127 15627C02 		.ascii	"\025b|\002\207\361P\234"
 194      87F1509C 
 195              		.text
 196              		.section	.gnu.lto_writet.404ae09438864646,"",%progbits
 197 0000 789C7D51 		.ascii	"x\234}Q\261J\003A\020\235\267{\227X\332\252\205\321"
 197      B14A0341 
 197      109DB77B 
 197      9758DAAA 
 197      85D1
 198 0012 52E1EE13 		.ascii	"R\341\356\023,\374\000\005\023P\254.\247\\\026\"B\256"
 198      2CFC0005 
 198      1350AC2E 
 198      A75C1622 
 198      42AE
 199 0024 3345D618 		.ascii	"3E\326\030Q\204@\260\222\263I\260\025,$\375\225\202"
 199      518440B0 
 199      92B349B0 
 199      152C24FD 
 199      9582
 200 0036 88D85BA4 		.ascii	"\210\330[\244\260\363\017R\270\316\356\241\250\205\013"
 200      B0F30F52 
 200      B8CEEEA1 
 200      A8850B
 201 0045 FB766677 		.ascii	"\373vfw\336{3\254 A\177\327\002\357]\020-\331\304#p"
 201      DE7B33AC 
 201      20417FD7 
 201      02EF5D10 
 201      2DD9C423 
 202 005a 050424A3 		.ascii	"\005\004$\243\004_\023\250#$:;6&\261L#\255\263\311\351"
 202      045F13A8 
 202      23243A3B 
 202      3626B14C 
 202      23ADB3C9 
 203 006f FBD5DCC5 		.ascii	"\373\325\334\305\260;\320\037\306@\331\247\030\264\315"
 203      B03BD01F 
 203      C640D9A7 
 203      18B4CD
 204 007e 112AEE10 		.ascii	"\021*\356\020\336o\023G\273\324\343\267\315\007\335"
 204      DE6F1347 
 204      BBD4E3B7 
 204      CD07DD
 205 008d CB8D5953 		.ascii	"\313\215YS\326\341\177\316\235\310'\306\334\216\207"
 205      D6E17FCE 
 205      9DC827C6 
 205      DC8E87
 206 009c FD5764A2 		.ascii	"\375Wd\242\014\034\200\333g\242\344\010\036\203\360"
ARM GAS  /tmp/ccA2omAw.s 			page 15


 206      0C1C80DB 
 206      67A2E408 
 206      1E83F0
 207 00ab 1964895C 		.ascii	"\031d\211\\\003\344SO\353A\305\311\362\252:\254\331"
 207      03E4534F 
 207      EB41C5C9 
 207      F2AA3AAC 
 207      D9
 208 00bc 79E41375 		.ascii	"y\344\023u\247'\367\375\371\0107\360)\201h\323\021\013"
 208      A727F7FD 
 208      F90837F0 
 208      298168D3 
 208      110B
 209 00ce ADD28A82 		.ascii	"\255\322\212\202wM\031\273\373\011`\273(9\357:~4\362"
 209      774D19BB 
 209      FB0960BB 
 209      2839EF3A 
 209      7E34F2
 210 00e1 4C67B9FC 		.ascii	"Lg\271\374\242\226\3324\325\347zV\241\034\243\250b\275"
 210      A296DA34 
 210      D5E77A56 
 210      A11CA3A8 
 210      62BD
 211 00f3 04328197 		.ascii	"\0042\201\227\300W\230)H5;\240|\244c\316\367\300\243"
 211      C0579829 
 211      48353BA0 
 211      7CA463CE 
 211      F7C0A3
 212 0106 BD10BE35 		.ascii	"\275\020\2765\212\222\252\345\333\017Y\014\202p\275"
 212      8A92AAE5 
 212      DB0F590C 
 212      8270BD
 213 0115 A1EA6A63 		.ascii	"\241\352jc+<L\303F\324\014\323V\034\246\373-\0255\203"
 213      2B3C4CC3 
 213      46D40CD3 
 213      561CA6FB 
 213      2D153583 
 214 0129 983E01A2 		.ascii	"\230>\001\242AM\243"
 214      414DA3
 215              		.text
 216              		.section	.gnu.lto_read.404ae09438864646,"",%progbits
 217 0000 789C7D51 		.ascii	"x\234}Q=K\003A\020}o\367.\306*v\026\026FK\205\334O\260"
 217      3D4B0341 
 217      107D6FF7 
 217      2EC62A76 
 217      1616464B 
 218 0018 F0072898 		.ascii	"\360\007(\230\200b\225\234rY\210\010Ig\212l4\240\205"
 218      8062959C 
 218      72598808 
 218      49678A6C 
 218      34A085
 219 002b 85A44CAA 		.ascii	"\205\244L\252\340\017H\225>\215\240\210\210\330K\012"
 219      E00F4895 
 219      3E8DA088 
 219      88D84B0A 
 220 003b B1B1B14E 		.ascii	"\261\261\261N\263\316^P\324\302\201\235\235\335\235"
 220      B3CE5E50 
ARM GAS  /tmp/ccA2omAw.s 			page 16


 220      D4C2819D 
 220      9DDD9D
 221 004a F731AC82 		.ascii	"\3671\254\202\302\337X\222\265O`\305\037\002P:\250\250"
 221      C2DF5892 
 221      B54F60C5 
 221      1F02503A 
 221      A8A8
 222 005c 256BCA35 		.ascii	"%k\3125\210\226\322l\355\371\032j\025\003k{\223\233"
 222      8896D26C 
 222      EDF91A6A 
 222      15036B7B 
 222      939B
 223 006e 97BB016D 		.ascii	"\227\273\001m\327\266?\234\313\031\377\024\023\2734"
 223      D7B63F9C 
 223      CB19FF14 
 223      13BB34
 224 007d 643EDD54 		.ascii	"d>\335T\360[$\205u\355\350u\373\326v\306\316m\030\257"
 224      F05B2485 
 224      75EDE875 
 224      FBD676C6 
 224      CE6D18AF 
 225 0091 F03F66A8 		.ascii	"\360?f\250\306\023\347.\207\375\267\305\014yD\361.("
 225      C613E72E 
 225      87FDB7C5 
 225      0C7944F1 
 225      2E28
 226 00a3 2D150349 		.ascii	"-\025\003I*D*\214\020\035k\257\362)\235D1\315%?\207"
 226      2A442A8C 
 226      101D6BAF 
 226      F2299D44 
 226      31CD253F 
 227 00b8 7EC0E9F4 		.ascii	"~\300\351\364\354\375\231e^3DB\325\304\211p\254c\315"
 227      ECFD9965 
 227      5E334442 
 227      D5C48970 
 227      AC63CD
 228 00cb 30E8A327 		.ascii	"0\350\243'\252aBz\365L\252Y\341\017\003\2178\037\353"
 228      AA61427A 
 228      F54CAA59 
 228      E10F038F 
 228      381FEB
 229 00de 2F68D8C4 		.ascii	"/h\330\304\324^\330\005\303\271\230\263.\341K\250\023"
 229      D45ED805 
 229      C3B998B3 
 229      2EE14BA8 
 229      13
 230 00ef 061E9F75 		.ascii	"\006\036\237u\0229\2614?\003\227\374\200\372\036\355"
 230      1239B134 
 230      3F0397FC 
 230      80FA1EED 
 231 00ff 2C70E0EB 		.ascii	",p\340\353'|\333\010g-E\317\343?d\271P\2106\253\246"
 231      277CDB08 
 231      672D45CF 
 231      E33F64B9 
 231      508836AB 
 232 0114 62B676A2 		.ascii	"b\266v\242\343FT-\327\242F=\216\032\207uS\256\025b|"
 232      E346542D 
ARM GAS  /tmp/ccA2omAw.s 			page 17


 232      D7A2463D 
 232      8E1A8775 
 232      53AE1562 
 233 0129 02010551 		.ascii	"\002\001\005Q\006"
 233      06
 234              		.text
 235              		.section	.gnu.lto_readt.404ae09438864646,"",%progbits
 236 0000 789C7D51 		.ascii	"x\234}Q\261J\003A\020\235\267{w\261\264U\013\243\245"
 236      B14A0341 
 236      109DB77B 
 236      77B1B455 
 236      0BA3A5
 237 0013 C2DD2758 		.ascii	"\302\335'X\370\001\012&\240X]N\271,D\204\\g\212\254"
 237      F8010A26 
 237      A0585D4E 
 237      B92C4484 
 237      5C678AAC 
 238 0027 31A08842 		.ascii	"1\240\210B\260\222\244Q\304N\260J\177\245 \"\376A\212"
 238      B092A451 
 238      C44EB04A 
 238      7FA52022 
 238      FE418A
 239 003a 809D1F10 		.ascii	"\200\235\037\020\304uv\017E-\\\330\2673\273\363\336"
 239      C475760F 
 239      452D5CD8 
 239      B733BBF3 
 239      DE
 240 004b 9B610509 		.ascii	"\233a\005\011\372\273\346xo\203h\301&\036\201+  \031"
 240      FABBE678 
 240      6F8368C1 
 240      261E812B 
 240      202019
 241 005e 25F89A40 		.ascii	"%\370\232@m!\321\336\2621\211E\272\326\272?\272}\273"
 241      6D21D1DE 
 241      B2318945 
 241      BAD6BA3F 
 241      BA7DBB
 242 0071 9C39BDEA 		.ascii	"\2349\275\352\364\364\2071P\366)\001mr\204\262;\204"
 242      F4F48731 
 242      50F62901 
 242      6D7284B2 
 242      3B84
 243 0083 F7DBC4D1 		.ascii	"\367\333\304\321.\364p\274\376\240\273\2711+\312:\374"
 243      2EF470BC 
 243      FEA0BBB9 
 243      312BCA3A 
 243      FC
 244 0094 CFB917F9 		.ascii	"\317\271\027\371\310\230\367\341\370\354\016\003Q\002"
 244      C898F7E1 
 244      F8EC0E03 
 244      5102
 245 00a2 F6C0ED33 		.ascii	"\366\300\3553Qr\004\217A\370\0142 \327\000\371\324\325"
 245      5172048F 
 245      41F80C32 
 245      20D700F9 
 245      D4D5
 246 00b4 BA5776B2 		.ascii	"\272Wv\262\274*\016\253v\036\371D\235\311\321\353\371"
ARM GAS  /tmp/ccA2omAw.s 			page 18


 246      BC2A0EAB 
 246      761EF944 
 246      9DC9D1EB 
 246      F9
 247 00c5 6C8C1BF8 		.ascii	"l\214\033\370\224B\264\350\200\205\226iI\301\033P\237"
 247      9442B4E8 
 247      80859669 
 247      49C11B50 
 247      9F
 248 00d6 DDFD14B0 		.ascii	"\335\375\024\260]\004\316\273\206\037\215<\323q.\277"
 248      5D04CEBB 
 248      861F8D3C 
 248      D3712EBF 
 249 00e6 A8418B26 		.ascii	"\250A\213&\372DO+\224\022\024U\254\227B\246\360R\370"
 249      FA444F2B 
 249      94121455 
 249      AC9742A6 
 249      F052F8
 250 00f9 0A5305A9 		.ascii	"\012S\005\251j\007\224\217t\310\371\016x\264\027\302"
 250      6A07948F 
 250      74C8F90E 
 250      78B417C2 
 251 0109 B7465152 		.ascii	"\267FQR\261|\373!\363a\030\255\326UM\255mD\373YT\217"
 251      B17CFB21 
 251      F36118AD 
 251      D6554DAD 
 251      6D44FB59 
 252 011f 1B51D64C 		.ascii	"\033Q\326L\242l\267\251\342F\230\320'_\344N^"
 252      A26CB7A9 
 252      E24698D0 
 252      275FE44E 
 252      5E
 253              		.text
 254              		.section	.gnu.lto_put.404ae09438864646,"",%progbits
 255 0000 789C7D91 		.ascii	"x\234}\221\277JC1\024\306\277/\271W\353\244\243\177"
 255      BF4A4331 
 255      14C6BF2F 
 255      B957EBA4 
 255      A37F
 256 0012 06ABA342 		.ascii	"\006\253\243B\357#8\370\000\012\266\240c{\2256P\021"
 256      EF2338F8 
 256      000AB6A0 
 256      637B9536 
 256      5011
 257 0024 DACD0E8D 		.ascii	"\332\315\016\215\265\212\210C\321\245\350\242\364\001"
 257      B58A8843 
 257      D1A5E8A2 
 257      F401
 258 0032 9CDCEF28 		.ascii	"\234\334\357(\210\212oP\304Qp\357`<\271UQ\007\003IN"
 258      888A6F50 
 258      C45170EF 
 258      603CB955 
 258      51070349 
 259 0047 92F3FBBE 		.ascii	"\222\363\373\276s\210\202\302\3371#3O`\316\037\002P"
 259      738882C2 
 259      DF312333 
 259      4F60CE1F 
ARM GAS  /tmp/ccA2omAw.s 			page 19


 259      0250
 260 0059 32A8A865 		.ascii	"2\250\250e\325\224k\020M\245\331\334\3601\324<\256\254"
 260      D5946B10 
 260      4DA5D9DC 
 260      F031D43C 
 260      AEAC
 261 006b EDF60F9E 		.ascii	"\355\366\017\236\273S\307\227\255\216}w\216\306?\305"
 261      BB53C797 
 261      AD8E7D77 
 261      8EC63FC5 
 262 007b C4BA44CC 		.ascii	"\304\272D\314\246\233\012~\233\244\330\251\275yY\275"
 262      A69B0A7E 
 262      9BA4D8A9 
 262      BD7959BD 
 263 008b B5EDC4B9 		.ascii	"\265\355\304\271%\343\035\376g\256U\322w\356\365\355"
 263      25E31DFE 
 263      67AE55D2 
 263      77EEF5ED 
 264 009b EC619221 		.ascii	"\354a\222!\271M)^0-\021\003\244\246\010\321\266\266"
 264      B94D295E 
 264      302D1103 
 264      A4A608D1 
 264      B6B6
 265 00ad 934DA53E 		.ascii	"\223M\245>\373\000\012\276\007}\217\326`\277w2]d\217"
 265      FB000ABE 
 265      077D8FD6 
 265      60BF7732 
 265      5D648F
 266 00c0 21CA540D 		.ascii	"!\312T\015\354\012\276\210\005\303\340\002\347\342\030"
 266      EC0ABE88 
 266      05C3E002 
 266      E7E218
 267 00cf 9649EF3C 		.ascii	"\226I\357<\222\372\225\370\303\374\021\207\211\376B"
 267      92FA95F8 
 267      C3FC1187 
 267      89FE42
 268 00de 830606F6 		.ascii	"\203\006\006\366\310N\030\216\306\034f\211^\231\332"
 268      C84E188E 
 268      C61C6689 
 268      5E99DA
 269 00ed C3192763 		.ascii	"\303\031'c\\\352\031\033\222\005\337\231\276\303^\006"
 269      5CEA191B 
 269      9205DF99 
 269      BEC35E06 
 270 00fd D8F4953C 		.ascii	"\330\364\225<\201\337B\303\224\274\027\361?1\233\313"
 270      81DF42C3 
 270      94BC17F1 
 270      3F319BCB 
 271 010d 45CB1553 		.ascii	"E\313\025S2+k\321N=\252\024\253Q\275\026G\365\255\232"
 271      322B6BD1 
 271      4E3DAA14 
 271      AB51BD16 
 271      47F5AD9A 
 272 0121 29567331 		.ascii	")Vs1>\000\317\035O\325"
 272      3E00CF1D 
 272      4FD5
 273              		.text
ARM GAS  /tmp/ccA2omAw.s 			page 20


 274              		.section	.gnu.lto_putt.404ae09438864646,"",%progbits
 275 0000 789C7D51 		.ascii	"x\234}Q\261J\003A\020\235\267{\027-\265T\013\243\245"
 275      B14A0341 
 275      109DB77B 
 275      172DB554 
 275      0BA3A5
 276 0013 C2DD2758 		.ascii	"\302\335'X\370\001\212&\240\345\345\224\313BD\310u\246"
 276      F8018A26 
 276      A0E5E594 
 276      CB4244C8 
 276      75A6
 277 0025 C81A8388 		.ascii	"\310\032\203\210\244\010V\3014\006?\300B\322_\023\020"
 277      A40856C1 
 277      34063FC0 
 277      42D25F13 
 277      10
 278 0036 44C43F08 		.ascii	"D\304?\010(6\372\005)\\g\367P\324\302\201\235}\263;"
 278      2836FA05 
 278      295C67F7 
 278      50D4C281 
 278      9D7DB33B 
 279 004a EFBD1D56 		.ascii	"\357\275\035V\220\240\277\261\300k\013DK\266\360\010"
 279      90A0BFB1 
 279      C06B0B44 
 279      4BB6F008 
 280 005a DC0101C9 		.ascii	"\334\001\001\311Y\202\217\011\324\024\022\315]\213I"
 280      59828F09 
 280      D41412CD 
 280      5D8B49
 281 0069 2CD340EB 		.ascii	",\323@\353\336x\364\332\233;\277ju\365\2071P\366*\006"
 281      DE78F4DA 
 281      9B3BBF6A 
 281      75F58731 
 281      50F62A06 
 282 007d ED3042D1 		.ascii	"\3550B\321m\302\373m\342h\027z\370\262y\247\333\231"
 282      6DC2FB6D 
 282      E268177A 
 282      F8B279A7 
 282      DB99
 283 008f 316BCA3A 		.ascii	"1k\312:\374\317\271\021\331\330\230\316\355\373s\037"
 283      FCCFB911 
 283      D9D898CE 
 283      EDFB731F 
 284 009f B305E000 		.ascii	"\263\005\340\000\374z\346IF\3608\011\237\2345\371\324"
 284      FC7AE649 
 284      46F03809 
 284      9F9C35F9 
 284      D4
 285 00b0 D6BA5B74 		.ascii	"\326\272[t\202\034%\227\313v\022\371@\255\311\311[g"
 285      821C2597 
 285      CB7612F9 
 285      40ADC9C9 
 285      5B67
 286 00c2 3EC2357C 		.ascii	">\3025|J \032t\304\032\253\264\242\340\365\351\222}"
 286      4A201A74 
 286      C41AABB4 
 286      A2E0F5E9 
ARM GAS  /tmp/ccA2omAw.s 			page 21


 286      927D
 287 00d4 FD04B0FE 		.ascii	"\375\004\260\376\005\347Z\301\217'<\322i&\277\250~\203"
 287      05E75AC1 
 287      8F273CD2 
 287      6926BFA8 
 287      7E83
 288 00e6 26FA4CCF 		.ascii	"&\372L\317(L\305\310\273X/\201L\340)L\347\214\262\235"
 288      284CC5C8 
 288      BB582F81 
 288      4CE0294C 
 288      E78CB29D 
 289 00fa 4BDED331 		.ascii	"K\336\3231\327{\026?\021\276\005\362\226\222%\333\177"
 289      D77B163F 
 289      11BE05F2 
 289      969225DB 
 289      7F
 290 010b 580C8270 		.ascii	"X\014\202p\275\252*jc;<L\303jT\013\323z\034\246\373"
 290      BDAA2A6A 
 290      633B3C4C 
 290      C36A540B 
 290      D37A1CA6 
 291 0120 7515D582 		.ascii	"u\025\325\202\230>\001\227\031L\324"
 291      983E0197 
 291      194CD4
 292              		.text
 293              		.section	.gnu.lto_get.404ae09438864646,"",%progbits
 294 0000 789C7D51 		.ascii	"x\234}Q\261JCA\020\234\271{\321X\251\245Z\030-\025\362"
 294      B14A4341 
 294      109CB97B 
 294      D158A9A5 
 294      5A182D15 
 295 0015 3EC1C25A 		.ascii	">\301\302Z\024L@\313\227\247$\007\021!\351L\2213F\020"
 295      144C40CB 
 295      97A72407 
 295      1121E94C 
 295      91334610 
 296 0029 11095621 		.ascii	"\021\011V!6\212X\213\205\330X\244\024D\304?\210\350"
 296      368A588B 
 296      85D858A4 
 296      1444C43F 
 296      88E8
 297 003b 0758A7F0 		.ascii	"\007X\247\360\334{AQ\013\027nooofg\216SP\370\033S\262"
 297      DC7B4151 
 297      0B176E6F 
 297      6F6F6667 
 297      8E5350F8 
 298 0052 9608CCF8 		.ascii	"\226\010\314\370C\000\012\202\212Z\262\246\264A\324"
 298      43000A82 
 298      8A5AB2A6 
 298      B441D4
 299 0061 95667DDD 		.ascii	"\225f}\335\327P\2638\267\266\335\273|mO\034\2365Z\366"
 299      D750B338 
 299      B7B6DDBB 
 299      7C6D4F1C 
 299      9E355AF6 
 300 0075 C3391A7F 		.ascii	"\3039\032\177\025\023kR1\223l*\370-\222\320N\354\315"
 300      15136B52 
ARM GAS  /tmp/ccA2omAw.s 			page 22


 300      31936C2A 
 300      F82D92D0 
 300      4EECCD
 301 0088 DBCABD6D 		.ascii	"\333\312\275mv\235[0^\341\177\316\225\352\366\234\273"
 301      769D5B30 
 301      5EE17FCE 
 301      95EAF69C 
 301      BB
 302 0099 BB7E7F39 		.ascii	"\273~\1779\346x@nQ\334\013O#\021D\012Mk[\231d\214D."
 302      E678406E 
 302      51DC0B4F 
 302      2311440A 
 302      4D6B5B99 
 303 00b1 C979EF5F 		.ascii	"\311y\357_?\242\321\337\273=\232\214x\301\024\212T5"
 303      3FA2D1DF 
 303      BB3D9A8C 
 303      78C1148A 
 303      5435
 304 00c3 EC08731E 		.ascii	"\354\010s\036s\206\301):\242\226*\222^u(\321*\360\207"
 304      7386C129 
 304      3AA2962A 
 304      925E7528 
 304      D12AF087 
 305 00d7 F013F6BB 		.ascii	"\360\023\366\273\372\213\252k\350\333\003;f8\034s\200"
 305      FA8BAA6B 
 305      E8DB033B 
 305      66381C73 
 305      80
 306 00e8 92799E99 		.ascii	"\222y\236\231v\022\243bfd@\313\373'\351\007\354\246"
 306      7612A362 
 306      666440CB 
 306      FB27E907 
 306      ECA6
 307 00fa 810D0F7D 		.ascii	"\201\015\017}\006\277\247\014 9\337\366_0\235\315\206"
 307      06BFA70C 
 307      2039DFF6 
 307      5F309DCD 
 307      86
 308 010b 8B255330 		.ascii	"\213%S0\313\253\341v5,E\345\260Z\211\303\352f\305D\345"
 308      CBABE176 
 308      352C45E5 
 308      B05A89C3 
 308      EA66C544 
 309 0120 6C8C4FA9 		.ascii	"l\214O\251\350O\250"
 309      E84FA8
 310              		.text
 311              		.section	.gnu.lto_gett.404ae09438864646,"",%progbits
 312 0000 789C7D90 		.ascii	"x\234}\220\261J\003A\020\206\347\337\275SK-\325\302"
 312      B14A0341 
 312      1086E7DF 
 312      BD534B2D 
 312      D5C2
 313 0012 68A970FB 		.ascii	"h\251p\373\010\026v6\012&\240\345\345\224\313BD\310"
 313      08167636 
 313      0A26A0E5 
 313      E594CB42 
 313      44C8
ARM GAS  /tmp/ccA2omAw.s 			page 23


 314 0024 75A6C81A 		.ascii	"u\246\310\032#\210X\004\253\240M\202\215\235\205\330"
 314      23885804 
 314      ABA04D82 
 314      8D9D85D8 
 315 0034 5F298888 		.ascii	"_)\210\210\275E@\305wH\341:\273\207\242\026\016\354"
 315      BD4540C5 
 315      7748E13A 
 315      BB87A216 
 315      0EEC
 316 0046 ECCCEEFC 		.ascii	"\354\314\356\374\363\355\254 A\177m\226\327*\210\346"
 316      F3EDAC20 
 316      417F6D96 
 316      D72A88E6 
 317 0056 5D1210B8 		.ascii	"]\022\020\270\002\002\222\275\004\037\023\250%$Z[.&"
 317      020292BD 
 317      041F13A8 
 317      25245A5B 
 317      2E26
 318 0068 B1400363 		.ascii	"\261@\003cz\303\267\367\336\364I\277\3355\037\326B\273"
 318      7AC3B7F7 
 318      DEF449BF 
 318      DD351FD6 
 318      42BB
 319 007a AB04B4C9 		.ascii	"\253\004\264\311\021J~\023\301o\210\227\235\231\333"
 319      114A7E13 
 319      C16F8897 
 319      9D99DB
 320 0089 D7F53BD3 		.ascii	"\327\365;\323\311\255]\326\216\360\277\346Z\344Ck\237"
 320      C9AD5DD6 
 320      8EF0BFE6 
 320      5AE4436B 
 320      9F
 321 009a 6FFA2F57 		.ascii	"o\372/W\230\012\201]\360\353Y'9B@\236J!u\214\351\226"
 321      980A815D 
 321      F0EB5927 
 321      3942409E 
 321      4A21758C 
 322 00b0 7C2FB6B2 		.ascii	"|/\266\262\367\0257\204|\240\366\350\320\236\316\304"
 322      F7153784 
 322      7CA0F6E8 
 322      D09ECEC4 
 323 00c0 B8444829 		.ascii	"\270DH)D\223\366Y\276D\213\032\301\005\23532L\001\207"
 323      4493F659 
 323      BE448B1A 
 323      C1059D33 
 323      324C0187 
 324 00d4 1EF3C02A 		.ascii	"\036\363\300*~\320\037\351(\227_\322\240I#sl&5\306\023"
 324      7ED01FE9 
 324      28975FD2 
 324      A0492373 
 324      6C2635C6 
 325 00e9 1455DC2F 		.ascii	"\024U\334/\205\324\230(\312+n\036yO\007\234o;\374\023"
 325      85D49828 
 325      CA2B6E1E 
 325      794F079C 
 325      6F3BFC13 
 326 00fd E15B5D94 		.ascii	"\341[]\224\224\235\322\375\377\\\024\251\225\232\256"
ARM GAS  /tmp/ccA2omAw.s 			page 24


 326      949DD2FD 
 326      FF5C14A9 
 326      959AAE
 327 010c EAB50DB5 		.ascii	"\352\265\015\265\227\251Z\\WY#Q\331NC\307\365(\241O"
 327      97A95A5C 
 327      57592351 
 327      D94E43C7 
 327      F528A14F 
 328 0120 D7254C2B 		.ascii	"\327%L+"
 329              		.text
 330              		.section	.gnu.lto_osalOsRescheduleS.404ae09438864646,"",%progbits
 331 0000 789C6362 		.ascii	"x\234cb`b@\007\"@\\\011\304\312 \0163\003#P\005#\023"
 331      60624007 
 331      22405C09 
 331      C4CA200E 
 331      33032350 
 332 0017 232390C3 		.ascii	"##\220\303\310P\317\304X\037\311\010V\266\236\351\300"
 332      C850CFC4 
 332      581FC908 
 332      56B69EE9 
 332      C0
 333 0028 83FFFFD7 		.ascii	"\203\377\377\327\335y\366\340(\343\316\315, AV\206\226"
 333      DD79F6E0 
 333      28E3CECD 
 333      2C204156 
 333      8696
 334 003a 8686090A 		.ascii	"\206\206\011\012\014\014\311`%!`2\024d\000\363y\206"
 334      0C0CC960 
 334      25216032 
 334      146400F3 
 334      7986
 335 004c E6073B36 		.ascii	"\346\007;6\257aLd\\\310\310\012\024\255f\370\325\320"
 335      AF614C64 
 335      5CC8C80A 
 335      14AD66F8 
 335      D5D0
 336 005e D12090C9 		.ascii	"\321 \220\311\010T\0131/\023D_dh|\0004\014\246\012\002"
 336      08540B31 
 336      2F13445F 
 336      64687C00 
 336      340CA60A 
 337 0073 42403220 		.ascii	"B@2 w*\352\351\351;gd&e\372\007\353\347\027\353g$\346"
 337      772AEAE9 
 337      E93B6764 
 337      2665FA07 
 337      EBE717EB 
 338 008a 00292051 		.ascii	"\000) QT\002\246\3652\030\000\272\224(\345"
 338      5402A6F5 
 338      321800BA 
 338      9428E5
 339              		.text
 340              		.section	.gnu.lto_osalEventBroadcastFlagsI.404ae09438864646,"",%progbits
 341 0000 789C6362 		.ascii	"x\234cb`b@\007\"@\334\001\304\312 \0163\003#P\005#\023"
 341      60624007 
 341      2240DC01 
 341      C4CA200E 
 341      33032350 
ARM GAS  /tmp/ccA2omAw.s 			page 25


 342 0017 232390C3 		.ascii	"##\220\303\310P\317\304X\037\311\010V\266\236\351\300"
 342      C850CFC4 
 342      581FC908 
 342      56B69EE9 
 342      C0
 343 0028 83FFFFD7 		.ascii	"\203\377\377\327m\371vB\342\316fwfF\306\\F\006& \001"
 343      6DF97642 
 343      E2CE6677 
 343      6646C65C 
 343      46062620 
 344 003d 92656568 		.ascii	"\222eehih\230\240\300\300\220\014V\033\002&CA&1\237"
 344      696898A0 
 344      C0C0900C 
 344      561B0226 
 344      43412631 
 345 0052 67687D30 		.ascii	"gh}0g\367\036\306D\306\205\214\254@\321j\206_\015\035"
 345      67F71EC6 
 345      44C6858C 
 345      AC40D16A 
 345      865F0D1D 
 346 0066 0D02998C 		.ascii	"\015\002\231\214@\265\020\203\323\031\031\323\031\231"
 346      40B51083 
 346      D31919D3 
 346      1999
 347 0074 3241BC8B 		.ascii	"2A\274\213\014\215\017\346\356f\201\251\205\200\020"
 347      0C8D0FE6 
 347      EE6681A9 
 347      858010
 348 0083 900CC8D9 		.ascii	"\220\014\310\331\212zz\372\316\031\231I\231\376\301"
 348      8A7A7AFA 
 348      CE199949 
 348      99FEC1
 349 0092 FAF9C5FA 		.ascii	"\372\371\305\372\031\2119@\012H\024\225\200i\275\014"
 349      19893940 
 349      0A481495 
 349      8069BD0C 
 350 00a2 060033F0 		.ascii	"\006\0003\360*\035"
 350      2A1D
 351              		.text
 352              		.section	.gnu.lto_sdInit.404ae09438864646,"",%progbits
 353 0000 789C6362 		.ascii	"x\234cb`b@\007\"@\\\006\304\212 \0163\003#P\005#\023"
 353      60624007 
 353      22405C06 
 353      C48A200E 
 353      33032350 
 354 0017 232390C3 		.ascii	"##\220\303\310P\317\304X\037\311\010V\266\236\351\300"
 354      C850CFC4 
 354      581FC908 
 354      56B69EE9 
 354      C0
 355 0028 83FFFFD7 		.ascii	"\203\377\377\327\3558>\365\017\343\\&\220\030+CKC\303"
 355      ED383EF5 
 355      0FE35C26 
 355      90182B43 
 355      4B43C3
 356 003b 04050686 		.ascii	"\004\005\006\206d\260\212\0200\031\012\322\317|\236"
 356      64B08A10 
ARM GAS  /tmp/ccA2omAw.s 			page 26


 356      30190AD2 
 356      CF7C9E
 357 004a A1F9C1BD 		.ascii	"\241\371\301\275\303\354\211\214\013\031Y\201\202\325"
 357      C3EC898C 
 357      0B195981 
 357      82D5
 358 0058 0CBF1A3A 		.ascii	"\014\277\032:\032\0042\031\201J!\246e\202\350\213\014"
 358      1A043219 
 358      814A21A6 
 358      6582E88B 
 358      0C
 359 0069 8D0FEE2B 		.ascii	"\215\017\356+\303\024A@\010H\002\344Hy==}\347\214\314"
 359      C3144140 
 359      084802E4 
 359      48793D3D 
 359      7DE78CCC 
 360 007d A44CFF60 		.ascii	"\244L\377`\375\374b\375\214\304\034\375\342\242d\375"
 360      FDFC62FD 
 360      8CC41CFD 
 360      E2A264FD 
 361 008d E2D4A2CC 		.ascii	"\342\324\242\314\304\034\275d\006\000O7&("
 361      C41CBD64 
 361      06004F37 
 361      2628
 362              		.text
 363              		.section	.gnu.lto_sdObjectInit.404ae09438864646,"",%progbits
 364 0000 789CB593 		.ascii	"x\234\265\2239K\003A\024\307\337\233\331\315\345\025"
 364      394B0341 
 364      14C7DF9B 
 364      D9CDE515 
 365 0010 8FC242F0 		.ascii	"\217\302B\360\000\033\205\354'\260\362\003X\250\240"
 365      001B85EC 
 365      27B0F203 
 365      58A8A0
 366 001f 655C240E 		.ascii	"e\\$\016$\010\246\020\264\310DSX\004\024\331B\215\205"
 366      2408A610 
 366      B4C84453 
 366      580414D9 
 366      428D85
 367 0032 07886821 		.ascii	"\007\210h!\330\250]Z\005\211\371\006i\354\265\015\201"
 367      D8A85D5A 
 367      0589F906 
 367      69ECB50D 
 367      81
 368 0043 F5CDECC6 		.ascii	"\365\315\354\306s=\032\037\354\354\274\335\371\277\377"
 368      733D1A1F 
 368      ECECBCDD 
 368      F9BFFF
 369 0052 6FDEEC32 		.ascii	"o\336\3542`\3609z\350z\340\000\203*\341\200\264\002"
 369      60F0397A 
 369      E87AE000 
 369      832AE180 
 369      B402
 370 0064 19222508 		.ascii	"\031\"%\0109\206\271Y5\005s\010\016\245\334\256=\036"
 370      3986B959 
 370      35057308 
 370      0EA5DCAE 
ARM GAS  /tmp/ccA2omAw.s 			page 27


 370      3D1E
 371 0076 3DB35DA7 		.ascii	"=\263]\247\\8\220\015\327E\024\352\245\2150C3\034\320"
 371      5C38900D 
 371      D74514EA 
 371      A58D3043 
 371      331CD0
 372 0089 37667CAC 		.ascii	"7f|\254\357\011\313\245\273\333C\224\3332\377\344\272"
 372      EF09CBA5 
 372      BBDB4394 
 372      DB32FFE4 
 372      BA
 373 009a 1D02F9DF 		.ascii	"\035\002\371\337d\362\362TF\265\027\027h\374\321j\377"
 373      64F2F254 
 373      46B51717 
 373      68FCD16A 
 373      FF
 374 00ab AE18DBCA 		.ascii	"\256\030\333\312oH\327\315\0114\377\303\350\202\225"
 374      6F48D7CD 
 374      0934FFC3 
 374      E88295
 375 00ba 6BAE5BAC 		.ascii	"k\256[\254>\025\033x\312\242\210\031\244\316R38\015"
 375      3E151B78 
 375      CAA28819 
 375      A4CE5233 
 375      380D
 376 00cc DCA0C130 		.ascii	"\334\240\3010\351\031\206hf\206U\032\241T\365\336\204"
 376      E9198668 
 376      6686551A 
 376      A154F5DE 
 376      84
 377 00dd 82945B03 		.ascii	"\202\224[\003\332\200bJ\217\323\352\025\277\207\265"
 377      DA80624A 
 377      8FD3EA15 
 377      BF87B5
 378 00ec FAFAB9D3 		.ascii	"\372\372\271\323\227\304\023\242\036\2053I\321&0T\202"
 378      97C413A2 
 378      1E853349 
 378      D1263054 
 378      82
 379 00fd 3D6208A7 		.ascii	"=b\010\247\020\025KD\023\314\241G\262\012u\271#\345"
 379      10154B44 
 379      13CCA147 
 379      B20A75B9 
 379      23E5
 380 010f 182DCBA8 		.ascii	"\030-\313\250\246R\350:\027N\302\253\223B\266\012+\204"
 380      A652E83A 
 380      174EC2AB 
 380      9342B60A 
 380      2B84
 381 0121 E6175C16 		.ascii	"\346\027\\\026\030\015.\210o\373\253@\241\354\353=\213"
 381      180D2E88 
 381      6FFBAB40 
 381      A1ECEB3D 
 381      8B
 382 0132 0D191718 		.ascii	"\015\031\027\030\263\3755TS`\213v\272\3369~\306\317"
 382      B3FD3554 
 382      53608B76 
ARM GAS  /tmp/ccA2omAw.s 			page 28


 382      BADE397E 
 382      C6CF
 383 0144 C4ADC106 		.ascii	"\304\255\301\006\336\267\247\236\264b\223\363\312\341"
 383      DEB7A79E 
 383      B46293F3 
 383      CAE1
 384 0152 4D4EAE39 		.ascii	"MN\2569\371(\214\010l\013\256\300\337\020\225\372Uj"
 384      F9288C08 
 384      6C0BAEC0 
 384      DF1095FA 
 384      556A
 385 0164 68A9A1A5 		.ascii	"h\251\241\245\355\301\322w'X\201\336/{\353\260}<\342"
 385      EDC1D277 
 385      275881DE 
 385      2F7BEBB0 
 385      7D3CE2
 386 0177 A07A4A19 		.ascii	"\240zJ\031\217Sb\246\324G\336\351\323\336\3644\035C"
 386      8F5362A6 
 386      D447DEE9 
 386      D3DEF434 
 386      1D43
 387 0189 DAD1D48E 		.ascii	"\332\321\324\216]\301\216\3467\260\341\337aC?\303v\333"
 387      5DC18EE6 
 387      37B0E1DF 
 387      61433FC3 
 387      76DB
 388 019b 7E278883 		.ascii	"~'\210\203\352\275\302F4,\375\320U\310\3276\207\233"
 388      EABDC246 
 388      342CFDD0 
 388      55C8D736 
 388      879B
 389 01ad 3A2FA6D4 		.ascii	":/\246\324\341\251=\366'\022\326\370\202\230\023\023"
 389      E1A93DF6 
 389      2712D6F8 
 389      82981313 
 390 01bd 93D662D6 		.ascii	"\223\326b\326ZH\246\255\354\222me\347\227D2\235\260"
 390      5A48A6AD 
 390      EC926D65 
 390      E7974432 
 390      9DB0
 391 01cf E105ECCE 		.ascii	"\341\005\354\316\314\375"
 391      CCFD
 392              		.text
 393              		.section	.gnu.lto_sdStart.404ae09438864646,"",%progbits
 394 0000 789C8D50 		.ascii	"x\234\215P=K\003A\020\235\267{g\242 \210\215\245\032"
 394      3D4B0341 
 394      109DB77B 
 394      67A22088 
 394      8DA51A
 395 0013 B012723F 		.ascii	"\260\022r?\302\037`a\002Z&\207$\0139\204\\i\221\365"
 395      C21F6061 
 395      025A2687 
 395      240B3984 
 395      5C6991F5 
 396 0027 E340AC0E 		.ascii	"\343@\254\016;\265Ql\304\"i\203$`c)ba\177 \376\000\301"
 396      3BB5516C 
 396      C4226983 
ARM GAS  /tmp/ccA2omAw.s 			page 29


 396      24606329 
 396      62617F20 
 397 003e 42443C67 		.ascii	"BD<gr'B\264\360\301\316\316\356\274\231}o\025)\032G"
 397      722742B4 
 397      F0C1CECE 
 397      EEBC997D 
 397      6F15291A 
 398 0053 89570CA2 		.ascii	"\211W\014\242E9\270\004f@As\324p8:\340\"\201:J;\350"
 398      4539B804 
 398      66404173 
 398      D470383A 
 398      E022813A 
 399 006a 6CC88174 		.ascii	"l\310\201t\211\316\255=J\242\356\361\334abc\373\231"
 399      89CEAD3D 
 399      4AA2EEF1 
 399      DC616263 
 399      FB99
 400 007c A63052F2 		.ascii	"\2460R\362A\353\234\2418\332\024\306\337\2226\333\275"
 400      41EB9CA1 
 400      38DA14C6 
 400      DF9236DB 
 400      BD
 401 008d B4FACC7E 		.ascii	"\264\372\314~\244\251\376GO\000\352\251\233$M\007\217"
 401      A4A9FE47 
 401      4F00EAA9 
 401      9B244D07 
 401      8F
 402 009e AF4F43CC 		.ascii	"\257OC\314j \000\263\002Q\312\202\367\255\215\027\202"
 402      6A2000B3 
 402      0251CA82 
 402      F7AD8D17 
 402      82
 403 00af 7C0EA392 		.ascii	"|\016\243\222G\256\352\252\370\320\367\264\227\364n"
 403      47AEEAAA 
 403      F8D0F7B4 
 403      97F46E
 404 00be 0B355CC0 		.ascii	"\0135\\\300\345\3226\275\333\003;c\240}do\0311*\250"
 404      E5D236BD 
 404      DB033B63 
 404      A07D646F 
 404      19312AA8 
 405 00d2 4AC2FC28 		.ascii	"J\302\374(\271~\376\315w}d\337\327\000\032P\006\023"
 405      B97EFECD 
 405      777D64DF 
 405      D7001A50 
 405      0613
 406 00e4 4477B4DB 		.ascii	"Dw\264\333\177\353\276 #/\323\225eL\033\024N\351\204"
 406      7FEBBE20 
 406      232FD395 
 406      654C1B14 
 406      4EE984
 407 00f7 CD14992A 		.ascii	"\315\024\231*\246&G}\365\334\232\334\024d\224(\033D"
 407      A626477D 
 407      F5DC9ADC 
 407      14649428 
 407      1B44
 408 0109 537F29D3 		.ascii	"S\177)\323?\312\036h'\031.}\2232TD\272\214\230/\227"
ARM GAS  /tmp/ccA2omAw.s 			page 30


 408      3FCA1E68 
 408      27192E7D 
 408      93325444 
 408      BA8C982F 
 409 011e BD95A6A9 		.ascii	"\275\225\246\251\233\3255o+\364\232\265\226\027\266"
 409      9BD5356F 
 409      2BF49AB5 
 409      9617B6
 410 012d 7D2FDC6C 		.ascii	"}/\334l\233Z\253\354\323\027\005Ea\004"
 410      9B5AABEC 
 410      D3170545 
 410      6104
 411              		.text
 412              		.section	.gnu.lto_sdStop.404ae09438864646,"",%progbits
 413 0000 789C8D52 		.ascii	"x\234\215R=K\003A\020\235\331\3353&~E\033K?\300\306"
 413      3D4B0341 
 413      109DD9DD 
 413      33267E45 
 413      1B4B3FC0 
 414 0015 40EE47F8 		.ascii	"@\356G\370\003,L@\313xH\\H\020Lg\212\254&\201 \026\301"
 414      032C4C40 
 414      CB78485C 
 414      48104C67 
 414      8AAC2681 
 415 002c 46D42616 		.ascii	"F\324&\026\301\217BK\305\312\306JD\024;\005\017\301"
 415      C18F424B 
 415      C5CAC64A 
 415      44143B05 
 415      0FC1
 416 003e 4AFD0322 		.ascii	"J\375\003\"\256\263w\027\024s\250\003\2677\267\363\336"
 416      AEB37717 
 416      1473A803 
 416      B737B7F3 
 416      DE
 417 004f BE37B3C7 		.ascii	"\2767\263\307\200\301\317\030\245\347\211\266G\314\207"
 417      80C1CF18 
 417      A5E789B6 
 417      47CC87
 418 005e 05482932 		.ascii	"\005H)2\344\264r\024\264\012D* \224\030\027X\232A\017"
 418      E4B47214 
 418      B40A442A 
 418      20941817 
 418      589A410F 
 419 0072 360A3B4A 		.ascii	"6\012;J\255\273\315\343\315\301UW\325\325\207\326(M"
 419      ADBBCDE3 
 419      CDC15557 
 419      D5D587D6 
 419      284D
 420 0084 C94198A6 		.ascii	"\311A\230\246\014;\275\027\303\237Z\206\246\016\367"
 420      0C3BBD17 
 420      C39F5A86 
 420      A60EF7
 421 0093 146FA877 		.ascii	"\024o\250w\255\371\2779g7\027k\261\372rMi]\222\306]"
 421      ADF9BF39 
 421      6737176B 
 421      B1FA724D 
 421      695D92C6 
ARM GAS  /tmp/ccA2omAw.s 			page 31


 422 00a8 8B34EC93 		.ascii	"\2134\354\223D(\351\366;I\374E\312#\034\2613W\353\265"
 422      4428E9F6 
 422      3B49FC45 
 422      CA231CB1 
 422      3357EBB5 
 423 00bc BBC6E32B 		.ascii	"\273\306\343+\016P\347y\244y\220\036\007\217O\363\251"
 423      0E50E779 
 423      A479901E 
 423      078F4FF3 
 423      A9
 424 00cd 28551FCE 		.ascii	"(U\037\316\007\266)R\301Jc\343ic\214_A\331\275?\217"
 424      07B62952 
 424      C14A63E3 
 424      69638C5F 
 424      41D9BD3F 
 425 00e2 64B08916 		.ascii	"d\260\211\026\225\212\360\246j*.\321r\320oMb\207/\230"
 425      958AF0A6 
 425      6A2A2ED1 
 425      72D06F4D 
 425      62872F98 
 426 00f6 366712BE 		.ascii	"6g\022\276\322x\260\332\340\021\007\375\313\312\"y\355"
 426      D278B0DA 
 426      E01107FD 
 426      CBCA2279 
 426      ED
 427 0107 04B88495 		.ascii	"\004\270\204\225\223\332)\372\300\004\034(\212\036\211"
 427      93DA29FA 
 427      C0041C28 
 427      8A1E89
 428 0116 D16DD822 		.ascii	"\321m\330\"@\214`\246\251.\2173\033\014\321\354DMN\344"
 428      408C60A6 
 428      A92E8F33 
 428      1B0CD1EC 
 428      444D4EE4 
 429 012a B7F2EE06 		.ascii	"\267\362\356\006\367\331YdEX\242\276\0220.\261;\374"
 429      F7D95964 
 429      4558A2BE 
 429      12302EB1 
 429      3BFC
 430 013c 846FF770 		.ascii	"\204o\367p\005\242\315_\217c\272\365\3741\211\275\201"
 430      05A2CD5F 
 430      8F63BAF5 
 430      FC3189BD 
 430      81
 431 014d C4FE604B 		.ascii	"\304\376`K\201{\012\302S\350\013W`\277+\304\035\024"
 431      817B0AC2 
 431      53E80B57 
 431      60BF2BC4 
 431      1D14
 432 015f 8102FD28 		.ascii	"\201\002\375(\375\006Tv\237\253]a\223\265\276&kP/\325"
 432      FD065476 
 432      9FAB5D61 
 432      93B5BE26 
 432      6B502FD5 
 433 0173 5818AAE3 		.ascii	"X\030\252\343\013u\015\313\356\353X\013\344G\312\364"
 433      0B750DCB 
 433      EEEB580B 
ARM GAS  /tmp/ccA2omAw.s 			page 32


 433      E447CAF4 
 434 0183 6C4C0D25 		.ascii	"lL\015%\223\366\304\274\234\225\223S\366B\301\236\317"
 434      93F6C4BC 
 434      9C959353 
 434      F642C19E 
 434      CF
 435 0194 E4ECC2A2 		.ascii	"\344\354\302\242c\027\346\026e&\227t\340\023\341A\244"
 435      6317E616 
 435      65269774 
 435      E013E141 
 435      A4
 436 01a5 2C       		.ascii	","
 437              		.text
 438              		.section	.gnu.lto_sdIncomingDataI.404ae09438864646,"",%progbits
 439 0000 789CAD93 		.ascii	"x\234\255\223\277k\024A\024\307\337w~\354\356\2511\001"
 439      BF6B1441 
 439      14C7DF77 
 439      7EECEEA9 
 439      3101
 440 0012 2B2BA38D 		.ascii	"++\243\215\240p\373G\344\017\2600\001-/\213\\\006r\010"
 440      A070FB47 
 440      E40FB030 
 440      012D2F8B 
 440      5C067208 
 441 0026 B9CE1499 		.ascii	"\271\316\024\231\213\021\304*Xj\212\244\312U*v!\210"
 441      8B11C42A 
 441      586A8AA4 
 441      CA552A76 
 441      2188
 442 0038 57088A62 		.ascii	"W\010\212b\304\377\340@\304\306B\261\020bp|o\177\334"
 442      C4FFE040 
 442      C4C642B1 
 442      1062707C 
 442      6F7FDC
 443 004b AD92E202 		.ascii	"\255\222\342\002\016\354\314\316\354\373\276\367y\337"
 443      0EECCCCE 
 443      ECFBBEF7 
 443      79DF
 444 0059 611529FA 		.ascii	"a\025)\372w\314\361\363Z\023]\224MB\340\010(\360\001"
 444      77CCF1F3 
 444      5A135D94 
 444      4D42E008 
 444      28F001
 445 006c B432445E 		.ascii	"\2642D^Y\236\214\001/\260*\222\223XN\"\360\202\030`"
 445      599E8C01 
 445      2FB02A92 
 445      93584E22 
 445      F0821860 
 446 0080 19684D69 		.ascii	"\031hMic\243\030k7eO\361%\332\361\376\341\360\336\227"
 446      63A3186B 
 446      37654FF1 
 446      25DAF1FE 
 446      E1F0DE97 
 447 0094 BDF30FB6 		.ascii	"\275\363\017\266\3277\375\357\020\340\344S\006\272\301"
 447      D737FDEF 
 447      10E0E453 
 447      06BAC1
ARM GAS  /tmp/ccA2omAw.s 			page 33


 448 00a3 6F98CD17 		.ascii	"o\230\315\027\251P\037\205\314?\351{\275\355\217B\320"
 448      A9501F85 
 448      CC3FE97B 
 448      BDED8F42 
 448      D0
 449 00b4 4E482A4D 		.ascii	"NH*MRhp\234f\260\177\360v\007\254\355}\013a\332\301"
 449      5268709C 
 449      66B07FF0 
 449      7607ACED 
 449      7D0B61DA 
 450 00c9 4C566AF0 		.ascii	"LVj\360\342\340]]6\031\341\246\177\336\367\215\212\320"
 450      E2E05D5D 
 450      3619E1A6 
 450      7FDEF78D 
 450      8AD0
 451 00db 4E58EAE5 		.ascii	"NX\352\345\011\011;\240\247j0\014\341\350\373\263O}"
 451      09093BA0 
 451      A76A300C 
 451      E1E8FBB3 
 451      4F7D
 452 00ed 9C6B001D 		.ascii	"\234k\000\035\360\3750\245\346I\033\236\214\225m\304"
 452      F0FD30A5 
 452      E6491B9E 
 452      8C956DC4 
 453 00fd 1FF85618 		.ascii	"\037\370V\030%\241<1Y\332`\314\331N\331\020\217\371"
 453      25A13C31 
 453      59DA60CC 
 453      D94ED910 
 453      8FF9
 454 010f 72E6FBD5 		.ascii	"r\346\373\325\013\342\252~O\353\207w\177l\305-\354r"
 454      0BE2AA7E 
 454      4FEB8777 
 454      7F6CC52D 
 454      EC72
 455 0121 0F6DA855 		.ascii	"\017m\250U\272\303\311\256\322\025\207\3501=b\244\270"
 455      BAC3C9AE 
 455      D21587E8 
 455      313D62A4 
 455      B8
 456 0132 0D085A92 		.ascii	"\015\010Z\222\003-\326\235\377@\246\022\352U:\364\367"
 456      032DD69D 
 456      FF40A612 
 456      EA553AF4 
 456      F7
 457 0143 FD8C4323 		.ascii	"\375\214C#C\021\303\331\034N\021\275\241\215\257\275"
 457      4311C3D9 
 457      1C4E11BD 
 457      A18DAFBD 
 458 0153 A951A0E4 		.ascii	"\251Q\240\344\322\365\036\027\204\266 \371\271e\253"
 458      D2F51E17 
 458      84B620F9 
 458      B965AB
 459 0162 38939398 		.ascii	"8\223\223\230\234\344\364\361$\250\223\224B\242\021"
 459      9CE4F4F1 
 459      24A89394 
 459      42A211
 460 0171 C8990CAA 		.ascii	"\310\231\014\252\0041\"\233\022\263\316V5mU\363\327"
ARM GAS  /tmp/ccA2omAw.s 			page 34


 460      0431229B 
 460      12B3CE56 
 460      356D55F3 
 460      D7
 461 0182 B87B7BC2 		.ascii	"\270{{\302\356G\260\361\250\350tV6\307\331\332\210\034"
 461      EE47B0F1 
 461      A8E87456 
 461      36C7D9DA 
 461      881C
 462 0194 66C48057 		.ascii	"f\304\200W\237\307\006\304\222\316\376m@T\301\204\261"
 462      9FC706C4 
 462      92CEFE6D 
 462      4054C184 
 462      B1
 463 01a5 01C9FF34 		.ascii	"\001\311\3774 \311\015\360\250;\300\377\256\376H\275"
 463      20C90DF0 
 463      A83BC0FF 
 463      AEFE48BD 
 464 01b5 61FF72A5 		.ascii	"a\377r\245,\306\274\344\025\341\205f3\235[r\213\356"
 464      2CC6BCE4 
 464      15E18566 
 464      339D5B72 
 464      8BEE
 465 01c7 DAF5F476 		.ascii	"\332\365\364v7]j-\247\335\225,\355\336Zq\255\345fF\177"
 465      375D6A2D 
 465      A7DD952C 
 465      EDDE5A71 
 465      ADE56646 
 466 01dc 005A6BC8 		.ascii	"\000Zk\310\212"
 466      8A
 467              		.text
 468              		.section	.gnu.lto_sdRequestDataI.404ae09438864646,"",%progbits
 469 0000 789C8D92 		.ascii	"x\234\215\222\317K\033A\024\307\337w~$\251\277Z\360"
 469      CF4B1B41 
 469      14C7DF77 
 469      7E24A9BF 
 469      5AF0
 470 0012 945325DE 		.ascii	"\224S%\336\024\262\267\376\003\376\001\0364`\217\311"
 470      14B2B7FE 
 470      03FE011E 
 470      34608FC9 
 471 0022 2A71C120 		.ascii	"*q\301 \230[=d\242\"E\220\204\200 Z\202B\351\265\024"
 471      985B3D64 
 471      A2224590 
 471      8480205A 
 471      8242E9B5 
 472 0037 F1E0C915 		.ascii	"\361\340\311\025<hK\011\275\025z\021Q\274\026\012\005"
 472      3C684B09 
 472      BD157A11 
 472      51BC160A 
 472      05
 473 0048 3DB8BED9 		.ascii	"=\270\276\331M\342\"\202\031\33073;\357\373\336g\276"
 473      4DE22282 
 473      19D83733 
 473      3BEFFBDE 
 473      67BE
 474 005a 8C20414F 		.ascii	"\214 AO\307;\376\326\371\367\250\335$\011\274\204\200"
ARM GAS  /tmp/ccA2omAw.s 			page 35


 474      C73BFED6 
 474      F9F7A8DD 
 474      2409BC84 
 474      80
 475 006b E4288522 		.ascii	"\344(\205\"2BsP\012<A#\3011\001p*\250\"\244\322\011"
 475      32427350 
 475      0A3C4123 
 475      C1310170 
 475      2AA822A4 
 476 0081 54DEDB2D 		.ascii	"T\336\333-\351\014\355\033\323\270\270\376w\224\336"
 476      E90CED1B 
 476      D3B8B8FE 
 476      7794DE
 477 0090 D85BA99B 		.ascii	"\330[\251\233\373 \200g\217\\\320\014\2570\022N\266"
 477      FB208067 
 477      8F5CD00C 
 477      AF30124E 
 477      B6
 478 00a1 687C4432 		.ascii	"h|D2\377\240\365}\037\246a\252\177\203\340\265g\373"
 478      FFA0F57D 
 478      1FA661AA 
 478      7F83E0B5 
 478      67FB
 479 00b3 F720DBF6 		.ascii	"\367 \333\366\017[\347q\231\352IV\367\267j\233i\363"
 479      0F5BE771 
 479      99EA4956 
 479      F7B76A9B 
 479      69F3
 480 00c5 08A90465 		.ascii	"\010\251\004e\360\202\262\004\372*\374\213 \370t{u\371"
 480      F082B204 
 480      FA2AFC8B 
 480      20F8747B 
 480      75F9
 481 00d7 07C3EC42 		.ascii	"\007\303\354B\011\354\026_QR\036\237\221!\305\033\251"
 481      09EC165F 
 481      51521E9F 
 481      9121C51B 
 481      A9
 482 00e8 29C4204D 		.ascii	")\304 Mk\334i$:)\265}\3401\335\216\354\263\314\331{"
 482      6BDC6924 
 482      3A29B57D 
 482      E031DD8E 
 482      ECB3CCD9 
 483 00fd CA9FB472 		.ascii	"\312\237\264r\267z\334L\346\361\205].B,\323\007\256"
 483      B77ADC4C 
 483      E6F1855D 
 483      2E422CD3 
 483      07AE
 484 010f 3A4E631E 		.ascii	":Nc\036\364.\3550L\242\010X\250d\210R@\214\253Ek\276"
 484      F42EED30 
 484      4CA20858 
 484      A8648852 
 484      408CAB45 
 485 0125 EE48E532 		.ascii	"\356H\3452\335\231\217\346\215\207\224\213(\213\353"
 485      DD998FE6 
 485      8D87948B 
 485      288BEB
ARM GAS  /tmp/ccA2omAw.s 			page 36


 486 0134 79784574 		.ascii	"yxEtF\247\327'\337j\262\233j\353\365\305o\230\263\334"
 486      46A7D727 
 486      DF6AB29B 
 486      6AEBF5C5 
 486      6F98B3DC 
 487 0148 11CD4DB3 		.ascii	"\021\315M\263[R\20542\244\351\177\236\006q\232\266\220"
 487      5B528534 
 487      32A4E97F 
 487      9E06719A 
 487      B690
 488 015a A88B32E0 		.ascii	"\250\2132\340B\264Q\224\225\015\246\330\242\241NO\035"
 488      42B45194 
 488      950DA6D8 
 488      A2A14E4F 
 488      1D
 489 016b F53CFFFD 		.ascii	"\365<\377\375?\335i\251\213\326\227\350\230\037\234"
 489      3FDD69A9 
 489      8BD697E8 
 489      981F9C
 490 017a FC41D514 		.ascii	"\374A\325\024\321\254\255\362\213\320\315\212R\246m"
 490      D1ACADF2 
 490      8BD0CD8A 
 490      52A66D
 491 0189 7B5BFF6D 		.ascii	"{[\377m6\353L\314{\005or\312Y,;\363\371\005\247\274"
 491      36EB4CCC 
 491      7B056F72 
 491      CA592C3B 
 491      F3F905A7 
 492 019e E43AE5B9 		.ascii	"\344:\345\271%/\277\220u\011\205\007\345\342\2162"
 492      252FBF90 
 492      75098507 
 492      E5E28E32 
 493              		.text
 494              		.section	.gnu.lto_sdPutWouldBlock.404ae09438864646,"",%progbits
 495 0000 789C8551 		.ascii	"x\234\205Q=K\003A\024|o\367\316\3044Z\010\242\026\206"
 495      3D4B0341 
 495      147C6FF7 
 495      CEC4345A 
 495      08A21686 
 496 0014 D829E47E 		.ascii	"\330)\344~\204?\300\302\010Z^NI\026\"B\322\231\"\233"
 496      843FC0C2 
 496      085A5E4E 
 496      49162242 
 496      D299229B 
 497 0028 0FC548C0 		.ascii	"\017\305H\300`#\304\306$Z[ku\235\210J\320_p\210\265"
 497      6023C4C6 
 497      245A5B6B 
 497      759D884A 
 497      D05F7088 
 498 003d 584A04D7 		.ascii	"XJ\004\327\267w\271`$\340\302\355\275\235\235\331\231"
 498      B777B960 
 498      24E0C2ED 
 498      BD9D9DD9 
 498      99
 499 004e B7CB80C1 		.ascii	"\267\313\200\301\337\261@\337;\002,\351\205\001H\014"
 499      DFB140DF 
 499      3B022CE9 
ARM GAS  /tmp/ccA2omAw.s 			page 37


 499      8501480C 
 500 005e 64C869E6 		.ascii	"d\310i\346H0 \224\030\307\322\226\256\201'\240-\345"
 500      48302094 
 500      18C7D296 
 500      AE8127A0 
 500      2DE5
 501 0070 A977D0B9 		.ascii	"\251w\320\271\235;\276\2504\345\267R(\364\226\203\260"
 501      9D3BBEA8 
 501      34E5B752 
 501      28F49683 
 501      B0
 502 0081 4915C6FD 		.ascii	"I\025\306\375\0373FM|Y\313={\271i\243<\224\345\017\245"
 502      1F33464D 
 502      7C59CB3D 
 502      7BB969A3 
 502      3C94E50F 
 503 0096 A6843609 		.ascii	"\246\2046\011e\321@\206cd\247\356\327IcVz2t\343\014"
 503      65D14086 
 503      6364A7EE 
 503      D7496356 
 503      7A3274E3 
 504 00ab 12F88FF2 		.ascii	"\022\370\217\362\232\271\236R\217\352\355\265\2013&"
 504      9AB99E52 
 504      8FEAEDB5 
 504      813326
 505 00ba E22E52EB 		.ascii	"\342.R\353\024\224\203\215]LP\243\276=\230P\223\262"
 505      1494838D 
 505      5D4C50A3 
 505      BE3D9850 
 505      93B2
 506 00cc 190F403F 		.ascii	"\031\017@?\016\215\224?o\350\253\340=\250z\352.b\343"
 506      0E8D943F 
 506      6FE8ABE0 
 506      3DA87AEA 
 506      2E62E3
 507 00df 159A0416 		.ascii	"\025\232\004\026\241/\217\344\264@\303\301\300Rh\374"
 507      A12F8FE4 
 507      B440C3C1 
 507      C05268FC 
 508 00ef 092AFD6A 		.ascii	"\011*\375j\367r@\313 +\302>\271\255\300\262\300\211"
 508      F77240CB 
 508      202BC23E 
 508      B9ADC0B2 
 508      C089
 509 0101 736851C2 		.ascii	"shQ\302H\006Q'\215\372\252\364\357\274=\250\271f(\345"
 509      48065127 
 509      8DFAAAF4 
 509      EFBC3DA8 
 509      B96628E5 
 510 0115 438B4907 		.ascii	"C\213I\007\203\347\242\363\004\3064\257\352\325\353"
 510      83E7A2F3 
 510      04C634AF 
 510      EAD5EB
 511 0124 B17159F8 		.ascii	"\261qY\370H\226\373\317\316|x\236\221\031lRCT\360\007"
 511      4896FBCF 
 511      CE7C789E 
 511      91196C52 
ARM GAS  /tmp/ccA2omAw.s 			page 38


 511      4354F007 
 512 0138 2853846D 		.ascii	"(S\204m\235\376\031p\310\012()\015k\323\305d\322Z\315"
 512      9DFE1970 
 512      C80A2829 
 512      0D6BD3C5 
 512      64D25ACD 
 513 014c 8AB4585B 		.ascii	"\212\264X[\267\366\012V\326\316Y\205\274c\025v\362\302"
 513      B7F60A56 
 513      D6CE5985 
 513      BC631576 
 513      F2C2
 514 015e CE251DC0 		.ascii	"\316%\035\300\364\017~\371t\356"
 514      F40F7EF9 
 514      74EE
 515              		.text
 516              		.section	.gnu.lto_sdGetWouldBlock.404ae09438864646,"",%progbits
 517 0000 789C8551 		.ascii	"x\234\205Q\277K\303@\030\375^.\261\265\213\016\202\250"
 517      BF4BC340 
 517      18FD5E2E 
 517      B1B58B0E 
 517      82A8
 518 0012 83A56E0A 		.ascii	"\203\245n\012\315\037\341\037\340`\005\035\323(\355"
 518      CD1FE11F 
 518      E060051D 
 518      D328ED
 519 0021 41456837 		.ascii	"AEh7;\364\372\003Qq(\005A\352b\221\256v\325\202\220"
 519      3BF4FA03 
 519      51712805 
 519      41EA6291 
 519      AE76D582 
 520 0036 B58888CE 		.ascii	"\265\210\210\316\012A\0207q\265\203\361.i\212\225\202"
 520      0A411037 
 520      71B583F1 
 520      2E698A95 
 520      82
 521 0047 07B97CF7 		.ascii	"\007\271|\367\356\275{\357\273\323H\243\277cA~\037 "
 521      EEBD7BEF 
 521      BBD348A3 
 521      BF63417E 
 521      1F20
 522 0059 5A520B9D 		.ascii	"ZR\013\235 \031\320\300\344\314 a\002\2254\206\322\226"
 522      2019D0C0 
 522      E4CC2061 
 522      02953486 
 522      D296
 523 006b AA8925A8 		.ascii	"\252\211%\250%D\303m_u\347\216/*u\361\355y\340j\313"
 523      2544C36D 
 523      5F75E78E 
 523      2F2A75F1 
 523      ED79E06A 
 524 0080 066DCA0A 		.ascii	"\006m\312\012q\377\247\351\243&\276\254\351|=\335\264"
 524      71FFA7E9 
 524      A326BEAC 
 524      E97C3DDD 
 524      B4
 525 0091 200E44F9 		.ascii	" \016D\371\323\363\246\2702\011e\321@\2061\262\206\363"
 525      D3F3A6B8 
ARM GAS  /tmp/ccA2omAw.s 			page 39


 525      320965D1 
 525      408631B2 
 525      86F3
 526 00a3 D2389915 		.ascii	"\3228\231\025\256\010\335\230F\011\374\243\354h\216"
 526      AE08DD98 
 526      4609FCA3 
 526      EC688E
 527 00b2 EB79CFA7 		.ascii	"\353y\317\247o\257\267\2301\200]\310\326ePF\026.\221"
 527      6FAFB798 
 527      31805DC8 
 527      D6655046 
 527      162E91
 528 00c5 908DFAF6 		.ascii	"\220\215\372\366dPM\210z<\000\3758r\244\374yC]\005{"
 528      64504D88 
 528      7A3C00FD 
 528      3872A4FC 
 528      79435D05 
 529 00da A0AA7BDD 		.ascii	"\240\252{\335\213Xh\303\220`\221\372\342PLs\3506\002"
 529      8B5868C3 
 529      906091FA 
 529      E2504C73 
 529      E83602
 530 00ed 4BAEF07B 		.ascii	"K\256\360{\252\364\253\357\355\001-\003\255H\373\322"
 530      AAF4ABEF 
 530      ED012D03 
 530      AD48FBD2 
 531 00fd 6D859639 		.ascii	"m\205\2269&\316\251)\023F2\200J\032\365U\351\337y\037"
 531      26CEA929 
 531      13463280 
 531      4A1AF555 
 531      E9DF791F 
 532 0111 A8E618A1 		.ascii	"\250\346\030\241\224\015-&m\004\317%\317\343\210)^\325"
 532      940D2D26 
 532      6D04CF25 
 532      CFE38829 
 532      5ED5
 533 0123 ED1EC5C6 		.ascii	"\355\036\305\306ea#Yzg\235\371\360<=3\330\224\015\311"
 533      65612359 
 533      7A679DF9 
 533      F03C3D33 
 533      D8940DC9 
 534 0137 82DD5159 		.ascii	"\202\335QYF\330V\351\037\011CV@I)X\231.&\223\346j\226"
 534      46D856E9 
 534      1F094356 
 534      40492958 
 534      992E2693 
 535 014e A7F9DABA 		.ascii	"\247\371\332\272\271W0\263V\316,\344m\263\260\223\347"
 535      B95730B3 
 535      56CE2CE4 
 535      6DB3B093 
 535      E7
 536 015f 562E6913 		.ascii	"V.i\023\322?\025\257u\027"
 536      D23F15AF 
 536      7517
 537              		.text
 538              		.section	.gnu.lto_.symbol_nodes.404ae09438864646,"",%progbits
 539 0000 789C4DCE 		.ascii	"x\234M\316\307N[A\024\306\3613\337\305\215\216\015\370"
ARM GAS  /tmp/ccA2omAw.s 			page 40


 539      C74E5B41 
 539      14C6F133 
 539      DFC58D8E 
 539      0DF8
 540 0012 BA80E9F5 		.ascii	"\272\200\351\365\251x\222\3172RD\331\220B\032%\211\235"
 540      A97892CF 
 540      325244D9 
 540      90421A25 
 540      899D
 541 0024 04244044 		.ascii	"\004$@D\341\001\220\222=+\204\262\014\354\"EbEv)\014"
 541      E1019092 
 541      3D2B84B2 
 541      0CEC2245 
 541      62457629 
 542 0039 67943977 		.ascii	"g\2249w\363\327\357\334i\020\310y\"\372\341\257Pd\353"
 542      F3D7EFDC 
 542      6910C879 
 542      22FAE1AF 
 542      5064EB
 543 004c 4284DC5E 		.ascii	"B\204\334^[A\323\321\031\0368\302\360\32011\374\346"
 543      5B41D3D1 
 543      191E38C2 
 543      F0D03131 
 543      FCE6
 544 005e D865F8C3 		.ascii	"\330e\370\3031cx\353\2305\274s\314\031\376r\314\033"
 544      316378EB 
 544      9835BC73 
 544      CC19FE72 
 544      CC1B
 545 0070 6E8005C3 		.ascii	"n\200\005\303-\260;\360r}\005\317\301\036\303\307`\257"
 545      2DB03BF0 
 545      727D05CF 
 545      C11EC3C7 
 545      60AF
 546 0082 E10BB0CF 		.ascii	"\341\013\260\317\360\011\330o\370\014\0340|\012\016"
 546      F009D86F 
 546      F80C1C30 
 546      7C0A0E
 547 0091 1A6E8343 		.ascii	"\032n\203C\206\277\035\213\346\031\233`\311\360\025"
 547      86BF1D8B 
 547      E6199B60 
 547      C9F015
 548 00a0 381C78B5 		.ascii	"8\034x\265\346\360\032\034\211\314\274\204d\231`\007"
 548      E6F01A1C 
 548      89CCBC84 
 548      64996007 
 549 00b0 1C358B76 		.ascii	"\0345\213v\301\262\341\036\230\032\356\203\025\3037"
 549      C1B2E11E 
 549      981AEE83 
 549      15C337
 550 00bf 60D5F02D 		.ascii	"`\325\360-X\213t\357\300\272\262\331t\256\015\216Eu"
 550      588B74EF 
 550      C0BAB2D9 
 550      74AE0D8E 
 550      4575
 551 00d1 C0F1A8F7 		.ascii	"\300\361\250\367`#\352\024\234\210\372\014NF}\000\247"
 551      6023EA14 
ARM GAS  /tmp/ccA2omAw.s 			page 41


 551      9C88FA0C 
 551      4E467D00 
 551      A7
 552 00e2 A20EC0E9 		.ascii	"\242\016\300\351\250\217\340L\324!8\033u\002\316E\035"
 552      A88FE04C 
 552      D421381B 
 552      7502CE45 
 552      1D
 553 00f3 83F35147 		.ascii	"\203\363QG\340B\324'p1\352\014\\\372\257\004\"\255\357"
 553      E042D427 
 553      7031EA0C 
 553      5CFAAF04 
 553      22ADEF
 554 0106 7F5C9238 		.ascii	"\177\\\2228m\016\332|\242-ti\273\307\244\343\333\023"
 554      6D0EDA7C 
 554      A22D7469 
 554      BBC7A4E3 
 554      DB13
 555 0118 DA3BAEED 		.ascii	"\332;\256\355\013\355oh\007B\007'\264C\241\305IY\365"
 555      0BED6F68 
 555      07420727 
 555      B443A1C5 
 555      4959F5
 556 012b 2D4D6987 		.ascii	"-Mi\207\247\265#\005\371\362\320Y\371z\355;#\235G?\033"
 556      A7B52305 
 556      F9F2D059 
 556      F97AED3B 
 556      239D473F 
 557 0140 4939A7F7 		.ascii	"I9\247\367\226\347t\1779/7\276i\230\247\213:O\027d\325"
 557      96E7747F 
 557      392F37BE 
 557      6998A78B 
 557      3A4F1764 
 558 0155 EF4BE775 		.ascii	"\357K\347u\177Z\224\233\207\346\245\345\317\251d\244"
 558      7F5A949B 
 558      87E6A5E5 
 558      CFA964A4 
 559 0165 EDD7554A 		.ascii	"\355\327UJ\322\362\363\312\222\256\273w\333\377\257"
 559      D2F2F3CA 
 559      92AEBB77 
 559      DBFFAF
 560 0174 2EEB39D5 		.ascii	".\3539\325\360\277\026\316\257e\365]\265po=\314\353"
 560      F0BF16CE 
 560      AF65F55D 
 560      B5706F3D 
 560      CCEB
 561 0186 199DD775 		.ascii	"\031\235\327u.\377\000\337\331:\027"
 561      2EFF00DF 
 561      D93A17
 562              		.text
 563              		.section	.gnu.lto_.refs.404ae09438864646,"",%progbits
 564 0000 789C6362 		.ascii	"x\234cb`b\020g\200\000FQ&1\0161&.&\036&>&\001&~&A&n"
 564      60621067 
 564      80004651 
 564      26310E31 
 564      262E261E 
 565 001e 265E0600 		.ascii	"&^\006\000\015\263\000\344"
ARM GAS  /tmp/ccA2omAw.s 			page 42


 565      0DB300E4 
 566              		.text
 567              		.section	.gnu.lto_.decls.404ae09438864646,"",%progbits
 568 0000 789CBD5C 		.ascii	"x\234\275\\\011x\024E\276\357cf\222\201\000\001\305"
 568      09781445 
 568      BEEF6366 
 568      92810001 
 568      C5
 569 0011 65DD758D 		.ascii	"e\335u\215\373v\367\371t%\\^\373\276'*\240\346=\021"
 569      FB76F7F9 
 569      74255C5E 
 569      FBBE272A 
 569      A0E63D11 
 570 0025 4C705DF7 		.ascii	"Lp]\367}\373\306!i\310h\216a\246\003\370\216\317N\200"
 570      7DFBC621 
 570      69C8688E 
 570      61A603F8 
 570      8ECF4E80 
 571 0039 A8C81108 		.ascii	"\250\310\021\010\227\021\004\004Q\020\205E%\002&\231"
 571      97110404 
 571      51108545 
 571      25022699 
 572 0049 B810C221 		.ascii	"\270\020\302!\011\211\004\302\031\020u\005\025\002r"
 572      098904C2 
 572      19107505 
 572      150272
 573 0058 A379FFAA 		.ascii	"\243y\377\252\256\356\351\256\351\352\351\011\272\375"
 573      AEEEE9AE 
 573      E9EAE909 
 573      BAFD
 574 0066 A5AAAFAA 		.ascii	"\245\252\257\252\337\377\254\177UW\325D\340\004\356"
 574      DFFFAC7F 
 574      5557D544 
 574      E004EE
 575 0075 912E1CD7 		.ascii	"\221.\034\327\001GN>\307\375\242+\307\335\304q\334}"
 575      01474E3E 
 575      C7FDA22B 
 575      C7DDC471 
 575      DC7D
 576 0087 5CF4B81D 		.ascii	"\\\364\270\035\322RH+ \255\204\264\032\322\032H\323"
 576      D252482B 
 576      20AD84B4 
 576      1AD21A48 
 576      D3
 577 0098 798EAB82 		.ascii	"y\216\253\202T\017i\007\244]\220\232 \035\205\324\016"
 577      540F6907 
 577      A45D909A 
 577      201D85D4 
 577      0E
 578 00a9 E90AA424 		.ascii	"\351\012\244$\201\343R!\335\010)\015\322\255\220n\207"
 578      81E35221 
 578      DD08290D 
 578      D2AD906E 
 578      87
 579 00ba 3408D2DD 		.ascii	"4\010\322\335\220V@\252\206\264\031\322NHM\220\366A"
 579      905640AA 
 579      86B419D2 
ARM GAS  /tmp/ccA2omAw.s 			page 43


 579      4E484D90 
 579      F641
 580 00cc 3A08E933 		.ascii	":\010\3513H' \235\206t\016\322\005H\227 ]\201$\212\034"
 580      4827209D 
 580      86740ED2 
 580      05489720 
 580      5D81248A 
 581 00e1 D7155237 		.ascii	"\327\025R7H=!\365\206\3643H\277\204\004d\2714\2213\035"
 581      483D21F5 
 581      86F43348 
 581      BF840464 
 581      B9349133 
 582 00f6 887F37A4 		.ascii	"\210\1777\244fH\335!\245@\272\015\312\374\236\224\023"
 582      6648DD21 
 582      A540BA0D 
 582      CAFC9E94 
 582      13
 583 0107 4899BE54 		.ascii	"H\231\276T=\216\310\035\257\356\012F\335\225\344\375"
 583      3D8EC81D 
 583      AFEE0A46 
 583      DD95E4FD 
 584 0117 DDF0EE75 		.ascii	"\335\360\356u.Z~%\241G\037H\267\036H\233\015\264\222"
 584      2E5A7E25 
 584      A1471F48 
 584      B71E489B 
 584      0DB492
 585 012a 2CEAAF26 		.ascii	",\352\257&4\221\254\367Pt\221m\320\243\215\220\336\203"
 585      3491ACF7 
 585      5074916D 
 585      D0A38D90 
 585      DE83
 586 013c B48E94DB 		.ascii	"\264\216\224\333@\316k\310y*o\256\207\354\211h\315\344"
 586      40CE6BC8 
 586      792A6FAE 
 586      87EC8968 
 586      CDE4
 587 014e A3B491DC 		.ascii	"\243\264\221\334K\340~\016\244r^\255\267\230\234Qy\304"
 587      4BE07E0E 
 587      A4725EAD 
 587      B7989C51 
 587      79C4
 588 0160 CB4638DF 		.ascii	"\313F8\337G\361Pe\203U\013)BaU\021\254-p\036La\325\363"
 588      47F15065 
 588      83550B29 
 588      42615511 
 588      AC2D701E 
 589 0178 D63A44CF 		.ascii	"\326:D\317WZ\350p\007\243<z\276\332\242\374.R\376~("
 589      575AE870 
 589      07A33C7A 
 589      BEDAA2FC 
 589      2E52FE7E 
 590 018d BFD6501E 		.ascii	"\277\326P\036=\327t\325H\351\012\37194\033\356u\203"
 590      3DD774D5 
 590      48E90AF9 
 590      39341BEE 
 590      7583
 591 019f 7C1122DB 		.ascii	"|\021\"\333\277B\345?@z@TupHP1r\005\025\027\325E\376"
ARM GAS  /tmp/ccA2omAw.s 			page 44


 591      BF42E53F 
 591      407A4054 
 591      75704850 
 591      31720515 
 592 01b7 ED82EBFD 		.ascii	"\355\202\353\375\350\032\322aH\017Rr\243v\344u@\203"
 592      E81AD261 
 592      480F5272 
 592      A376E475 
 592      4083
 593 01c9 C63F4AF0 		.ascii	"\306?J\360\221\276O\302\365\327\220\276\201\364-\244"
 593      91BE4FC2 
 593      F5D790BE 
 593      81F42DA4 
 594 01d9 21148D76 		.ascii	"!\024\215v\0139\312\211\2755\032C\211\034\307\011\235"
 594      0B39CA89 
 594      BD351A43 
 594      891CC709 
 594      9D
 595 01ea 31840EAA 		.ascii	"1\204\016\252\373\031\221\343\002\\_\204t\011\3220\212"
 595      FB1991E3 
 595      025C5F84 
 595      7409D230 
 595      8A
 596 01fb C6150B39 		.ascii	"\306\025\0139\254h\320\370W\010>\222C@m\036\321B\367"
 596      AC68D0F8 
 596      57083E92 
 596      43406D1E 
 596      D142F7
 597 020e 901EA268 		.ascii	"\220\036\242h\2408\203\344\270\315FW\017\0239NR\372"
 597      A03883E4 
 597      B8CD4657 
 597      0F13394E 
 597      52FA
 598 0220 4A227106 		.ascii	"J\"q\006A\246\300\271\033\244G(|\024\303\274\016\360"
 598      41A6C0B9 
 598      1BA44728 
 598      7C14C3BC 
 598      0EF0
 599 0232 69EC5482 		.ascii	"i\354T\202\215tt\003\234\177\006\251\017\244\014\012"
 599      8D747403 
 599      9C7F06A9 
 599      0FA40C0A 
 600 0242 FF460BFE 		.ascii	"\377F\013\376i\035\375;\341\277\235\322\323\215$F\242"
 600      691DFD3B 
 600      E1BF9DD2 
 600      D38D2446 
 600      A2
 601 0253 EB5F41F6 		.ascii	"\353_A\366\037\024v\232\005\357V\3304n\032\301Ep\277"
 601      1F14769A 
 601      05EF56D8 
 601      346E1AC1 
 601      4570BF
 602 0266 85F3EF20 		.ascii	"\205\363\357 =Ja\337*X\267\265[I\314\246\217\333I\371"
 602      3D4A61DF 
 602      2A58B7B5 
 602      5B49CCA6 
 602      8FDB49F9 
ARM GAS  /tmp/ccA2omAw.s 			page 45


 603 027a E1287E0A 		.ascii	"\341(~\012\321\362\267\223\370\216\256\373A\326\237"
 603      D1F2B793 
 603      F88EAEFB 
 603      41D69F
 604 0289 AA3B8841 		.ascii	"\252;\210Ag\020\351\023\350\003\365-\27595\366\031e"
 604      6710E913 
 604      E803F52D 
 604      BD3935F6 
 604      1965
 605 029b 7E4C54ED 		.ascii	"~LT\355\366\200\020\225\035\305H\255\355\377YP\365\362"
 605      F6801095 
 605      1DC548AD 
 605      EDFF5950 
 605      F5F2
 606 02ad 2C9C4788 		.ascii	",\234G\210\252\317\272D\325\316#\341|UPmp?\234\237\204"
 606      AACFBA44 
 606      D5CE23E1 
 606      7C55506D 
 606      703F9C9F 
 607 02c2 F494A0EA 		.ascii	"\364\224\240\352\353\031A\265y\001\2615\242\217\342"
 607      EB1941B5 
 607      7901B135 
 607      A28FE2
 608 02d1 07EAA7AE 		.ascii	"\007\352\247\256\220g\213\341\274\024\3222!\266\177"
 608      90678BE1 
 608      BC14D232 
 608      21B67F
 609 02e0 5A41ECFF 		.ascii	"ZA\354\377\027!\312\257&\353\343p~SPy\323xFvz\212\340"
 609      1721CAAF 
 609      26EBE370 
 609      7E535079 
 609      D3784676 
 610 02f7 A2BA2816 		.ascii	"\242\272(\026\242\376\020\3058\004\235\011\331Fx\276"
 610      A2FE10C5 
 610      38049D09 
 610      D94678BE 
 611 0307 89D20DEA 		.ascii	"\211\322\015\352k{Qt\"$\266k\364\236\204s\015E\017\311"
 611      6B7B5174 
 611      2224B66B 
 611      F49E8473 
 611      0D450FC9 
 612 031b FF2778DE 		.ascii	"\377'x\336KT\365\363\024\234\273\213*\255\247\210\354"
 612      4B54F5F3 
 612      149CBB8B 
 612      2AADA788 
 612      EC
 613 032c 63886EAA 		.ascii	"c\210n\252\011?\275I\337\214\372h\344\017Z\\\3763\334"
 613      093FBD49 
 613      DF8CFA68 
 613      E40F5A5C 
 613      FE33DC
 614 033f 7F4CF185 		.ascii	"\177L\361\205\372\377\236\304F\032_\250\357@\366C\375"
 614      FAFF9EC4 
 614      461A5FA8 
 614      EF40F643 
 614      FD
 615 0350 A1D157FF 		.ascii	"\241\321W\377\002\365g\360\252\335\206\2236\201|\351"
ARM GAS  /tmp/ccA2omAw.s 			page 46


 615      02F567F0 
 615      AADD8693 
 615      36817CE9 
 616 0360 BFE0BA8F 		.ascii	"\277\340\272\217\250\322\030C\354\343\"\330\250\257"
 616      A8D21843 
 616      ECE322D8 
 616      A8AF
 617 036e 423EF633 		.ascii	"B>\3663\302\263\017\262mp\277\235\342\003\215Az\020"
 617      C2B30FB2 
 617      6D70BF9D 
 617      E2038D41 
 617      7A10
 618 0380 9D687C20 		.ascii	"\235h| \036n\243\332z6\324\277ITy\243\371@\220\271\204"
 618      1E6EA3DA 
 618      7A36D4BF 
 618      495479A3 
 618      F94090B9 
 619 0395 BE4830D1 		.ascii	"\276H0\321\270\344vr\237\003Y#\\\007(\037@c\237\256"
 619      B8E47672 
 619      9F035923 
 619      5C07281F 
 619      40639FAE 
 620 03a9 14ED9906 		.ascii	"\024\355\231\006\273\030\351?\003\317\252\371h\254q"
 620      BB18E93F 
 620      03CFAAF9 
 620      68AC71
 621 03b8 91FAF564 		.ascii	"\221\372\365dL\246\351\272\005\262g):\373\010\035Z\327"
 621      4CA6E9BA 
 621      05B26729 
 621      3AFB081D 
 621      5AD7
 622 03ca 1A1D2B5D 		.ascii	"\032\035+]kq\301E\352#:\323\015t\366C\226G\321\271\231"
 622      6B71C145 
 622      EA233AD3 
 622      0D74F643 
 622      9647D1B9 
 623 03df 7B4D8934 		.ascii	"{M\2114\266M\371\3423\341\025%2Y\201!\246\302\247\335"
 623      B64DF9E2 
 623      33E11525 
 623      32598121 
 623      A6C2A7DD 
 624 03f3 C0CD55E0 		.ascii	"\300\315U\340XR\252(\274\354\347\357\353\315\375\211"
 624      5852AA28 
 624      BCECE7EF 
 624      EBCDFD89 
 625 0403 F7F3DDBD 		.ascii	"\367\363\335\275\\\032\276H\361b\032\034\347\347_\347"
 625      5C1ABE48 
 625      F1621A1C 
 625      E7E75FE7 
 626 0413 6F20574F 		.ascii	"o WO\350#\255\276<w\033\267\022\352\227)J\311\2578\253"
 626      E823ADBE 
 626      3C771BB7 
 626      12EA9729 
 626      4AC9AF38 
 627 0428 E377DC1B 		.ascii	"\343w\334\033\210\200\362\226\"bx\004\260\224\277\331"
 627      8880F296 
 627      22627804 
ARM GAS  /tmp/ccA2omAw.s 			page 47


 627      B094BFD9 
 628 0438 58C4CF2F 		.ascii	"X\304\317/\343M\206WY\215\224\035I)+n\353\350X\274$"
 628      E34D8657 
 628      598D941D 
 628      49292B6E 
 628      EBE858BC 
 629 044d 55252F70 		.ascii	"U%/p\203y(\275\234\277\315\026~\005\015\377\246\025"
 629      837928BD 
 629      9CBFCD16 
 629      7E050DFF 
 629      A615
 630 045f 7CDBFAD2 		.ascii	"|\333\372\322Cn\203&4\022\371NH\254\244I\254\262\224"
 630      436E8326 
 630      3412F94E 
 630      48ACA449 
 630      ACB294
 631 0472 60E1DE18 		.ascii	"`\341\336\030\011&8\201_M\303\277c)\301\274\251\337"
 631      09263881 
 631      5F4DC3BF 
 631      6329C1BC 
 631      A9DF
 632 0484 74CE966B 		.ascii	"t\316\226k\211-E\354-\340~S\301~\250\342#\365\335{q"
 632      892D45EC 
 632      2DE07E53 
 632      C17EA8E2 
 632      23F5DD7B 
 633 0499 B3308AA7 		.ascii	"\2630\212\247\036\274\321\012\340\267\334r0x\244\252"
 633      1EBCD10A 
 633      E0B7DC72 
 633      3078A4AA 
 634 04a9 0EE9EC3D 		.ascii	"\016\351\354=\276\027`\274\305\233\245\212\213!p\225"
 634      BE1760BC 
 634      C59BA58A 
 634      8B217095 
 635 04b9 B8CA7AA8 		.ascii	"\270\312z\250\256V\304\250J\344\203\322\353\025\227"
 635      AE56C4A8 
 635      4AE483D2 
 635      EB1597
 636 04c8 FA9CA314 		.ascii	"\372\234\243\024e8n\341\226\000\303\221\312\322E?W\226"
 636      65386EE1 
 636      9600C391 
 636      CAD2453F 
 636      5796
 637 04da 7CCC5BF1 		.ascii	"|\314[\361\237f \015\303\\B\373\372(\377\255\337#\376"
 637      9F66200D 
 637      C35C42FB 
 637      FA28FFAD 
 637      DF23FE
 638 04ed 3761FE37 		.ascii	"7a\3767[\363\317\306\020\270=\270J5\315\377Y\177\232"
 638      5BF3CFC6 
 638      10B83DB8 
 638      4A35CDFF 
 638      597F9A
 639 0500 FA343EF7 		.ascii	"\3724>\367\347\276\332\306+\263S\374\374F\020@\340\216"
 639      E7BEDAC6 
 639      2BB353FC 
 639      FC461040 
ARM GAS  /tmp/ccA2omAw.s 			page 48


 639      E08E
 640 0512 EB80560A 		.ascii	"\353\200V\012#\227\352A\012\230\341.K\365\375\342*\302"
 640      2397EA41 
 640      0A98E12E 
 640      4BF5FDE2 
 640      2AC2
 641 0524 A5010DD5 		.ascii	"\245\001\015\325\025\321\366a\303`\244\362-X\023\345"
 641      15D1F661 
 641      C360A4F2 
 641      2D5813E5 
 642 0534 427C4D98 		.ascii	"B|M\230@\004n!\256ROi\242mQ\371\226I|1\270\242\372."
 642      40046E21 
 642      AE524F69 
 642      A26D51F9 
 642      96497C31 
 643 054c BE3EE6CF 		.ascii	"\276>\346\317P\255\351\3477c\205l\323q;\247\220\212"
 643      50ADE9E7 
 643      3763856C 
 643      D3713BA7 
 643      908A
 644 055e 5D29657E 		.ascii	"])e~\015\2541a\2604\023\330\342]\0131s^\356\305\250"
 644      0DAC3161 
 644      B03413D8 
 644      E25D0B31 
 644      735EEEC5 
 645 0573 86EDDA47 		.ascii	"\206\355\332G\333\221y\233w\363\223\260\374\215PM\340"
 645      DB91799B 
 645      77F393B0 
 645      FC8D504D 
 645      E0
 646 0584 668866D5 		.ascii	"f\210f\325:\207:T\261\245\226/\301P\315\030j\252\253"
 646      3A873A54 
 646      B1A5962F 
 646      C150CD18 
 646      6AAAAB
 647 0597 B3507B8F 		.ascii	"\263P{\217E\346\023\256Z0\324\002\267\031\312\317'\351"
 647      45E613AE 
 647      5A30D402 
 647      B719CACF 
 647      27E9
 648 05a9 8AD4EFB5 		.ascii	"\212\324\357\265\002\010\017\277&\027h\236\242\007\367"
 648      02080FBF 
 648      2617689E 
 648      A207F7
 649 05b8 131717B8 		.ascii	"\023\027\027\270en\007\306Kfy\202\322\266\260|\247\210"
 649      656E07C6 
 649      4B667982 
 649      D2B6B07C 
 649      A788
 650 05ca E2A4E820 		.ascii	"\342\244\350 .\255\302\264\016\320\336\274\347d\375"
 650      2EADC2B4 
 650      0ED0DEBC 
 650      E764FD
 651 05d9 BF2C5094 		.ascii	"\277,P\224T\365U|g\376`\373|g\241I\320\310\377\006\223"
 651      54F5557C 
 651      67FE60FB 
 651      7C67A149 
ARM GAS  /tmp/ccA2omAw.s 			page 49


 651      D0C8FF06 
 652 05ee DF8FC9B7 		.ascii	"\337\217\311\267\321\344\337\350\250\345\025%Y}\023"
 652      D1E4DFE8 
 652      A8E51525 
 652      597D13
 653 05fd 9FFAEEA6 		.ascii	"\237\372\356\2469\261\324\231=\002q\215='\377\376\313"
 653      39B1D499 
 653      3D02718D 
 653      3D27FFFE 
 653      CB
 654 060e C558C4E3 		.ascii	"\305X\304\343\270\311|\021\343\031\203\273\232m\007"
 654      B8C97C11 
 654      E31983BB 
 654      9A6D07
 655 061d F7860202 		.ascii	"\367\206\002\002wJg\276S-\266\355\215U\333q\177&j,\234"
 655      774A67BE 
 655      532DB6ED 
 655      8D55DB71 
 655      7F266A2C 
 656 0632 491830CD 		.ascii	"I\0300\315\244\207O\233p\010P\301\3169\001czQI\244\305"
 656      A4874F9B 
 656      700850C1 
 656      CE390163 
 656      7A5149A4 
 657 0647 08763161 		.ascii	"\010v1a03g\373\214`W\234\200\245\2629\333o\004\373!"
 657      303367FB 
 657      8C60579C 
 657      80A5B239 
 657      DB6F04FB 
 658 065c 61303367 		.ascii	"a03g\007\215`\305\036\007`}\330\234\0356\202MI\030\314"
 658      078D60C5 
 658      1E07607D 
 658      D89C1D36 
 658      824D4918 
 659 0671 CCD96923 		.ascii	"\314\331i#\330KN\300\322,8\323\017\326\340\350\010\257"
 659      D84B4EC0 
 659      D22C38D3 
 659      0FD6E0E8 
 659      08AF
 660 0683 BBB9C04D 		.ascii	"\273\271\300M\363h\341 A\227\346\242\030e\236D\303\227"
 660      F368E120 
 660      4197E6A2 
 660      18659E44 
 660      C397
 661 0695 496EE849 		.ascii	"In\350I?Y\306\227OR\352\373i\275\331<'\2106\016\263"
 661      3F59C697 
 661      4F52EAFB 
 661      69BDD93C 
 661      2788360E 
 662 06aa DED835BE 		.ascii	"\336\3305\276\2260\230\331,\237\"0S\244!\335Q\333\033"
 662      963098D9 
 662      2C9F2230 
 662      53A421DD 
 662      51DB1B
 663 06bd 913E0BA2 		.ascii	"\221>\013\242\241.Y\303B_/j\\\203\317\006A/\254\364"
 663      A12E59C3 
 663      425F2F6A 
ARM GAS  /tmp/ccA2omAw.s 			page 50


 663      5C83CF06 
 663      412FACF4 
 664 06d1 E9635DD6 		.ascii	"\351c]\326\317\027\013\277\205\274D\360\352\\\250\327"
 664      CF170BBF 
 664      85BC44F0 
 664      EA5CA8D7 
 665 06e1 DA5507FE 		.ascii	"\332U\007\376\356Y\341\241\246\005\265#^U\226't\030"
 665      EE59E1A1 
 665      A605B523 
 665      5E559627 
 665      7418
 666 06f3 3DE16D27 		.ascii	"=\341m'j\262i\012\247Yj\212\224*/\362\305\177\375\245"
 666      6AB2690A 
 666      A7596A8A 
 666      942A2FF2 
 666      C57FFDA5 
 667 0707 5EEF7EA3 		.ascii	"^\357~\243OD\203\363M\253pp~A@\335\366:\217\345\010"
 667      4F4483F3 
 667      4DAB7070 
 667      7E4140DD 
 667      F63A8FE5 
 668 071c C011D6A1 		.ascii	"\300\021\326\241\212\006m81\025\203Uu\036l\311\336c"
 668      8A066D38 
 668      31158355 
 668      751E6CC9 
 668      DE63
 669 072e F522EE99 		.ascii	"\365\"\356\231\246c\250:\017\335ix\251\341\204\327\334"
 669      A663A83A 
 669      0FDD6978 
 669      A9E184D7 
 669      DC
 670 073f E17BBDD1 		.ascii	"\341{\275\321\213\016\3550\333\361'\255\303\262}\251"
 670      8B0EED30 
 670      DBF127AD 
 670      C3B27DA9 
 671 074f 60B0FDEE 		.ascii	"`\260\375\356\204moj\"m\013\233\017\213\363\225H\261"
 671      846D6F6A 
 671      226D0B9B 
 671      0F8BF395 
 671      48B1
 672 0761 687076DB 		.ascii	"hpv\333\226\001\303\307\226\352\177\303z\235\215\365"
 672      9601C3C7 
 672      96EA7FC3 
 672      7A9D8DF5 
 673 0771 7AD0DA44 		.ascii	"z\320\332D\016\200\016U\274s;\006\232\213\201>\3574"
 673      0E800E55 
 673      BC733B06 
 673      9A8B813E 
 673      EF34
 674 0783 D0DE636D 		.ascii	"\320\336cm\223\310\320q\001\206\372&\306\326<ek\336"
 674      93C8D071 
 674      0186FA26 
 674      C6D63C65 
 674      6BDE
 675 0795 6C03DE1B 		.ascii	"l\003\336\033\275\210\261\327\217XV\340.\320\0063\011"
 675      BD88B1D7 
 675      8F5856E0 
ARM GAS  /tmp/ccA2omAw.s 			page 51


 675      2ED00633 
 675      09
 676 07a6 64D33B68 		.ascii	"d\323;h!\267\371x9\177\266DY\320/\001\213\315#\026["
 676      21B7F978 
 676      397FB644 
 676      59D02F01 
 676      8BCD2316 
 677 07bb 84B5D311 		.ascii	"\204\265\323\021\243\235\271Bb\352\021\270\027\222\022"
 677      A39DB942 
 677      62EA11B8 
 677      179212
 678 07ca 1523D92C 		.ascii	"\025#\331,F\371"
 678      46F9
 679 07d0 979D10A3 		.ascii	"\227\235\020\243F\025\343u,\306\314\244k\027c~\302b"
 679      4615E375 
 679      2CC6CCA4 
 679      6B17637E 
 679      C262
 680 07e2 A41AC480 		.ascii	"\244\032\304\200O\311\346\013s\324\016\360:n\266\375"
 680      4FC9E60B 
 680      73D40EF0 
 680      3A6EB6FD 
 681 07f2 001E4FF7 		.ascii	"\000\036O\367\010\327\231?\312\3175\240O}\3648\336\320"
 681      08D7993F 
 681      CACF35A0 
 681      4F7DF438 
 681      DED0
 682 0804 59899437 		.ascii	"Y\211\2247\031>\364\024G\037z-\372\207\336*\254\262"
 682      193EF414 
 682      471F7A2D 
 682      FA87DE2A 
 682      ACB2
 683 0816 D7922C9A 		.ascii	"\327\222,\232\230\023\250%\207\366\367F\237\342\357"
 683      9813A825 
 683      87F6F746 
 683      9FE2EF
 684 0825 6098E59D 		.ascii	"`\230\345\235\205\201\226z\261\224p\264\026C\255\216"
 684      8581967A 
 684      B19470B4 
 684      1643AD8E 
 685 0835 31A287B2 		.ascii	"1\242\207\262\241\307lC\270E\264.\342 \371<y\202n\222"
 685      A1C76C43 
 685      B845B42E 
 685      E220F93C 
 685      79826E92 
 686 0849 B87F783D 		.ascii	"\270\177x=\201[\217\331G\366Kp\020\246\371O\371\316"
 686      815B8FD9 
 686      47F64B70 
 686      10A6F94F 
 686      F9CE
 687 085b 39DA004A 		.ascii	"9\332\000J5Q\3255!\226Djfks\025\203\321\020\252\356"
 687      3551D535 
 687      2196446A 
 687      666B7315 
 687      83D110AA 
 688 0870 1AE1F098 		.ascii	"\032\341\360\230\33346\240\276\334\2660\272\036b\360"
 688      DB3436A0 
ARM GAS  /tmp/ccA2omAw.s 			page 52


 688      BEDCB630 
 688      BA1E62F0 
 689 0880 0D33EBB4 		.ascii	"\0153\353\264\036}\243\200\030\372$\306\340\233y\352"
 689      1E7DA380 
 689      18FA24C6 
 689      E09B79EA 
 690 0890 E30D3D30 		.ascii	"\343\015=0\024a5\246\015\306~\260\355Z\015\321|\210"
 690      146135A6 
 690      0DC67EB0 
 690      ED5A0DD1 
 690      7C88
 691 08a2 32C417D7 		.ascii	"2\304\027\327\250\271W\312\235M\001>\255a\245`A\276"
 691      A8B957CA 
 691      9D4D013E 
 691      AD61A560 
 691      41BE
 692 08b4 C5643F16 		.ascii	"\305d?\026\250\317\354\013\035m\245D\217\350]\374hq"
 692      A8CFEC0B 
 692      1D6DA544 
 692      8FE85DFC 
 692      6871
 693 08c6 E073AF32 		.ascii	"\340s\2572;\305\202\236\325\270k\303\314Og\361\2231"
 693      3BC5829E 
 693      D5B86BC3 
 693      CC4F67F1 
 693      9331
 694 08d8 7A9D8026 		.ascii	"z\235\200&\333\026%[O\233\336\317\002\022\270wp\225"
 694      DB16255B 
 694      4F9BDECF 
 694      0212B877 
 694      7095
 695 08ea 6D34E310 		.ascii	"m4\343\020!K\310d\3336\007\214\227D\332_6N\266\371\371"
 695      214BC864 
 695      DB36078C 
 695      9744DA5F 
 695      364EB6F9 
 696 08ff 9DBC4070 		.ascii	"\235\274@p;g\2073;\364/\012?\277+a\2604+V5O\215J\353"
 696      3B678733 
 696      3BF42F0A 
 696      3FBF2B61 
 696      B0342B56 
 697 0918 E777E02F 		.ascii	"\347w\340/\201\235\302-\220\177\002\271~\010\\u\262"
 697      819DC22D 
 697      907F02B9 
 697      7E085C75 
 697      B2
 698 0929 66532BD5 		.ascii	"fS+\325\305w\316\013\035\027\347\251\316\231H\354\257"
 698      C577CE0B 
 698      1D17E7A9 
 698      CE9948EC 
 698      AF
 699 093a D327F9D4 		.ascii	"\323'\371\324\361o2\335\360\336\241\273\313\204B\337"
 699      F16F32DD 
 699      F0DEA1BB 
 699      CB8442DF 
 700 094a 4E5AA8B8 		.ascii	"NZ\250\270\337\216\364\301j\330\265\306\206\335\224"
 700      DF8EF4C1 
ARM GAS  /tmp/ccA2omAw.s 			page 53


 700      6AD8B5C6 
 700      86DD94
 701 0959 7C4DCD10 		.ascii	"|M\315\020\374\357\333\345\252\356\3425DE\237GO\305"
 701      FCEFDBE5 
 701      AAEEE235 
 701      44459F47 
 701      4FC5
 702 096b 945B31E5 		.ascii	"\224[1\345\275\264C\317}s\333\013\304\241\367:j\211"
 702      BDB443CF 
 702      7D73DB0B 
 702      C4A1F73A 
 702      6A89
 703 097d E7704BD4 		.ascii	"\347pK\324Z\326d\257\206\332\031_(\211\\\322\346\346"
 703      5AD664AF 
 703      86DA195F 
 703      28895CD2 
 703      E6E6
 704 098f D54FE469 		.ascii	"\325O\344i4\234S+\020\270\253\016\346\346\315\212\321"
 704      349C532B 
 704      10B8AB0E 
 704      E6E6CD8A 
 704      D1
 705 09a0 16293E47 		.ascii	"\026)>G#\2276,\323\034/\355Z\252f\014\256\265\327\320"
 705      2397362C 
 705      D31C2FED 
 705      5AAA660C 
 705      AEB5D7D0 
 706 09b4 525A714B 		.ascii	"RZqK\331\217[\312A\234\0376\266\027\226[\0341\272\305"
 706      D98F5BCA 
 706      419C1F36 
 706      B617965B 
 706      1C31BAC5 
 707 09c8 C284E54E 		.ascii	"\302\204\345Ns\350}-F2\313\274\327\346}\013\233\317"
 707      73E87D2D 
 707      4632CBBC 
 707      D7E67D0B 
 707      9BCF
 708 09da BBF0BC61 		.ascii	"\273\360\274a\002\263\363-[\264\206\373\005n\270\253"
 708      02B3F32D 
 708      5BB486FB 
 708      056EB8AB 
 709 09ea 62B4DB4C 		.ascii	"b\264\333L\177\3158\231\252^\337YQ\364\003\006'^\007"
 709      7FCD3899 
 709      AA5EDF59 
 709      51F40306 
 709      275E07
 710 09fd 5F9B6916 		.ascii	"_\233i\026Z\327\207;?\220^\326\341Z^\333\206\206\235"
 710      5AD7873B 
 710      3F905ED6 
 710      E15A5EDB 
 710      86869D
 711 0a10 C5A467FA 		.ascii	"\305\244g\372\032\373Z\255\327\272g\262\2318o\304UN"
 711      1AFB5AAD 
 711      D7BA67B2 
 711      99386FC4 
 711      554E
 712 0a22 C5F44CE5 		.ascii	"\305\364L\345\337i=\323)G=S\263e\317t*\361\236\311\352"
ARM GAS  /tmp/ccA2omAw.s 			page 54


 712      DF693DD3 
 712      29473D53 
 712      B365CF74 
 712      2AF19EC9 
 713 0a37 3032E8E7 		.ascii	"02\350\347\333q\0239c\356F\332\234h\377V\2263*\221\271"
 713      DB711339 
 713      63EE46DA 
 713      9C68FF56 
 713      96332A91 
 714 0a4c 2D0B7995 		.ascii	"-\013y\225\1775\024\235\240\361\254B\221\011\317h\315"
 714      7F35149D 
 714      A0F1AC42 
 714      9109CF68 
 714      CD
 715 0a5d 92C8DA16 		.ascii	"\222\310\332\026\334\263\252^z\316\011s\375\330`5\363"
 715      DCB3AA5E 
 715      7ACE0973 
 715      FDD86035 
 715      F3
 716 0a6e 34E5B6E0 		.ascii	"4\345\266\340q\242\322\305\001\336=,aK\"{[\026\022<"
 716      71A2D2C5 
 716      01DE3D2C 
 716      614B227B 
 716      5B16123C 
 717 0a82 758D6B6A 		.ascii	"u\215kj\302xf\376\316\3153\215\253\347:\201\273\337"
 717      C27866FE 
 717      CECD338D 
 717      ABE73A81 
 717      BBDF
 718 0a94 B1EDA36B 		.ascii	"\261\355\243k\224~~;\217l\277\203\307\003\011\2347\340"
 718      947E7E3B 
 718      8F6CBF83 
 718      C703099C 
 718      37E0
 719 0aa6 7C3FCE2F 		.ascii	"|?\316/\343\374*\316\177\300\371\024\034Bg\341|!\316"
 719      E3FC2ACE 
 719      7FC0F914 
 719      1C4267E1 
 719      7C21CE
 720 0ab9 97E27C05 		.ascii	"\227\342|\005\316O\342\374;\234\237\307\371E\234_\306"
 720      CE4FE2FC 
 720      3B9C9FC7 
 720      F9459C5F 
 720      C6
 721 0aca F9552781 		.ascii	"\371U'\201\227\032\217\303\350\260K\242\013\302&]\266"
 721      971A8FC3 
 721      E8B04BA2 
 721      0BC2265D 
 721      B6
 722 0adb CDDF5E73 		.ascii	"\315\337^s/YMQ\235g\245\023@\233^lv\035xb\"\013\240"
 722      2F594D51 
 722      9D67A513 
 722      409B5E6C 
 722      761D7862 
 723 0af2 FAD8A844 		.ascii	"\372\330\250DD\364\337\353\362\243\204\330H\302b\320"
 723      44F4DFEB 
 723      F2A384D8 
ARM GAS  /tmp/ccA2omAw.s 			page 55


 723      48C262D0 
 724 0b02 7AD9324B 		.ascii	"z\3312K\373\010Q\031\333\346\004\321j:\335\332\315\252"
 724      FB085119 
 724      DBE604D1 
 724      6A3ADDDA 
 724      CDAA
 725 0b14 0D6E16C1 		.ascii	"\015n\026\301nV\213]\350o8\357\300.Q,\242\274Tt\340"
 725      6E568B5D 
 725      E86F38EF 
 725      C02E512C 
 725      A2BC5474 
 726 0b29 181B8DB3 		.ascii	"\030\033\215\263\320\315]\264m\023?J4\\o`\365C\314\352"
 726      D0CD5DB4 
 726      6D133F4A 
 726      345C6F60 
 726      F543CCEA 
 727 0b3d 06DE014B 		.ascii	"\006\336\001K\353\242,E\267\003a\376\016P6\376\015\267"
 727      EBA22C45 
 727      B70361FE 
 727      0E5036FE 
 727      0DB7
 728 0b4f 4C516647 		.ascii	"LQfG>xy=\264kA\255)p'q\2515\374\315\226\024t|\2625\246"
 728      3E78793D 
 728      B46B41AD 
 728      29702771 
 728      A935FCCD 
 729 0b6a 5519D947 		.ascii	"U\031\331G\337\032\263\206\336\032\363\222h\2655\246"
 729      DF1AB386 
 729      DE1AF392 
 729      68B535A6 
 730 0b7a BAF2D270 		.ascii	"\272\362\322p\326\326\230d\356\005<\0276E)\346\307\351"
 730      D6D69864 
 730      EE053C17 
 730      364529E6 
 730      C7E9
 731 0b8c 42329627 		.ascii	"B2\226'\374\374L1\031\215\276\2722\027\027P\001M[\352"
 731      FCFC4C31 
 731      198DBEBA 
 731      32171750 
 731      014D5BEA 
 732 0ba0 B5766533 		.ascii	"\265ve3\277<C\214\273\005\207\275NLF\207\013\222\200"
 732      BF3C438C 
 732      BB0587BD 
 732      4E4C4687 
 732      0B9280
 733 0bb3 BD3922EA 		.ascii	"\2759\"\352e*\272\306\337\267a\005\321\201\007\230\363"
 733      652ABAC6 
 733      DFB76105 
 733      D1810798 
 733      F3
 734 0bc4 31C65B89 		.ascii	"1\306[\211b@\223\306U*Dj\027\314\246\322\0244\217\205"
 734      624093C6 
 734      552A446A 
 734      17CCA6D2 
 734      14348F85 
 735 0bd8 9EC71FB9 		.ascii	"\236\307\037\271W\325\231;\314\217t\314N\214\335'O\212"
 735      57D5993B 
ARM GAS  /tmp/ccA2omAw.s 			page 56


 735      CC8F74CC 
 735      4E8CDD27 
 735      4F8A
 736 0bea 54EB616A 		.ascii	"T\353aj\222\2230\265\250\372\350\037\326(J\252\203\300"
 736      929330B5 
 736      A8FAE81F 
 736      D6284AAA 
 736      83C0
 737 0bfc 06315F44 		.ascii	"\0061_Dm\304m\216Rno\364B\217R\333R\350`\347\246b\235"
 737      6DC46D8E 
 737      526E6FF4 
 737      428F52DB 
 737      52E860E7 
 738 0c13 1394C614 		.ascii	"\023\224\306\024J\027\211\205\354\266\232\312\332\033"
 738      4A178985 
 738      ECB69ACA 
 738      DA1B
 739 0c21 37AE5394 		.ascii	"7\256S\224\227<\324\204\022\232\304e\271\346\012\321"
 739      973CD484 
 739      129AC465 
 739      B9E60AD1 
 740 0c31 1070F627 		.ascii	"\020p\366'\314A\232\221\203HS\035\036\276 L\201\373"
 740      CC419A91 
 740      8348531D 
 740      1EBE204C 
 740      81FB
 741 0c43 CC0998CD 		.ascii	"\314\011\230\315\272e\213\021\354\253\204\301\314\234"
 741      BA658B11 
 741      ECAB84C1 
 741      CC9C
 742 0c51 ED3382B5 		.ascii	"\3553\202\265;\001\263Y\335;P\2670v\036*\201\015y6\321"
 742      3B01B359 
 742      DD3B50B7 
 742      30761E2A 
 742      810D7936 
 743 0c66 406D9ECC 		.ascii	"@m\236\314P,Z\207b\266\307G\346\252{\354\326`\301/Q"
 743      502C5A87 
 743      62B6C747 
 743      E6AA7BEC 
 743      D660C12F 
 744 0c7b 7E4A9146 		.ascii	"~J\221F\214\261H\177 ve4\356\230w\0027\251[\242\012"
 744      8CB1487F 
 744      20766534 
 744      EE987702 
 744      37A95BA2 
 745 0c90 365BEB50 		.ascii	"6[\353P\251id8\315\011\\\232\205\275\254\016c\004\203"
 745      A9696438 
 745      CD095C9A 
 745      85BDAC0E 
 745      630483
 746 0ca3 D11D6EE3 		.ascii	"\321\035n\343\213p\007\275\030\347o\340\374-\234\257"
 746      8B7007BD 
 746      18E76FE0 
 746      FC2D9CAF 
 747 0cb3 C2F96A9C 		.ascii	"\302\371j\234\277\213\363Jc'\376\323\240\262,P\3160"
 747      BF8BF34A 
 747      6327FED3 
ARM GAS  /tmp/ccA2omAw.s 			page 57


 747      A0B22C50 
 747      CE30
 748 0cc5 BEC09577 		.ascii	"\276\300\225w\263\354\207k\312\337W\373\341rl\374%\270"
 748      B3EC876B 
 748      CADF57FB 
 748      E1726CFC 
 748      25B8
 749 0cd7 D47491D5 		.ascii	"\324t\221\325\017\023|\334\017\227(\255\007Q?\254\366"
 749      0F137CDC 
 749      0F9728AD 
 749      07513FAC 
 749      F6
 750 0ce8 70A65AA6 		.ascii	"p\246Z\246\256\223p\263\301\252[\216\034\336\257o\210"
 750      AE9370B3 
 750      C1AA5B8E 
 750      1CDEAF6F 
 750      88
 751 0cf9 A51A0782 		.ascii	"\245\032\007\202e\211Y\375#\364\225M\250\257\254\305"
 751      658959FD 
 751      23F4954D 
 751      A8AFACC5 
 752 0d09 FDDCF26E 		.ascii	"\375\334\362nth\236/R\023)?\271\345\"L\313\275gm\271"
 752      74689E2F 
 752      5213293F 
 752      B9E5224C 
 752      CBBD676D 
 753 0d1e 2315C472 		.ascii	"#\025\304r\021l\271\032\\\252\212i\271\210\215\345\252"
 753      116CB91A 
 753      5CAA8A69 
 753      B9888DE5 
 753      AA
 754 0d2f EC2DB7D9 		.ascii	"\354-\267\331r@5\357\333\326\377\263\330-\3759\305\255"
 754      724035EF 
 754      DBD6FFB3 
 754      D82DFD39 
 754      C5AD
 755 0d41 F57EE67A 		.ascii	"\365~\346z\221\032\264m\263\364\216\203\261\033\276"
 755      911AB46D 
 755      B3F48E83 
 755      B11BBE
 756 0d50 DB1DE1EF 		.ascii	"\333\035\341\357\240\361wZ\342\357?[\317+\263\225\253"
 756      A0F1775A 
 756      E2EF3F5B 
 756      CF2BB395 
 756      AB
 757 0d61 1D1D9326 		.ascii	"\035\035\223&\243I\205\265\230D\207\245\302\225v\351"
 757      A34985B5 
 757      984487A5 
 757      C29576E9 
 758 0d71 117520EA 		.ascii	"\021u \352\347_\026Q\351]Le\333\014Ww\321\2345Xjw\357"
 758      E75F1651 
 758      E95D4C65 
 758      DB0C5777 
 758      D19C3558 
 759 0d88 99DDE7F9 		.ascii	"\231\335\347\371Y\360M\242\234\206\236\237n\033\257"
 759      59F04DA2 
 759      9C869E9F 
ARM GAS  /tmp/ccA2omAw.s 			page 58


 759      6E1BAF
 760 0d97 8BECCEBA 		.ascii	"\213\354\316\272\331\3346px\264j'\016\366\344\370\371"
 760      D9DC3670 
 760      78B46A27 
 760      0EF6E4F8 
 760      F9
 761 0da8 79784224 		.ascii	"yxB$\316z.\213\223\026\321\270\302\244\363\203\230\347"
 761      CE7A2E8B 
 761      9316D1B8 
 761      C2A4F383 
 761      98E7
 762 0dba 62BDBCBB 		.ascii	"b\275\274\273\245\322/\344<B\002\374\006\\\240\211\251"
 762      A5D22FE4 
 762      3C4202FC 
 762      065CA089 
 762      A9
 763 0dcb 73B41791 		.ascii	"s\264\027\221T\252B\226j\301\315\342\2438\2650\217\244"
 763      54AA4296 
 763      6AC1CDE2 
 763      A338B530 
 763      8FA4
 764 0ddd DA5954ED 		.ascii	"\332YT\355u\374\001X\023\247\032\221\201\264\246\232"
 764      75FC0158 
 764      13A71A91 
 764      81B4A69A 
 765 0ded E3231FD1 		.ascii	"\343#\037\321\236\261k\021\255\264Zz\342\247u\304\323"
 765      9EB16B11 
 765      ADB45A7A 
 765      E2A775C4 
 765      D3
 766 0dfe E94DFB76 		.ascii	"\351M\373v\246>\3066\265\256}Z\355\344\336\371W\373"
 766      A63EC636 
 766      B5AE7D5A 
 766      EDE4DEF9 
 766      57FB
 767 0e10 86860F6E 		.ascii	"\206\206\017n\303\313\377_b\315\324v\247ce'\276\331"
 767      C3CBFF5F 
 767      62CDD476 
 767      A7636527 
 767      BED9
 768 0e22 63CDBFC3 		.ascii	"c\315\277\303\322\374\250\031\334\370\021\014W\275d"
 768      D2FCA819 
 768      DCF8110C 
 768      57BD64
 769 0e31 6FE901DC 		.ascii	"o\351\001\334\360\216:q\202\032\315\011\374\374\241"
 769      F08E3A71 
 769      821ACD09 
 769      FCFCA1
 770 0e40 38B58C4E 		.ascii	"8\265\214NpNs\002?\177$N5\254QRm1\330\217\327t\324\204"
 770      704E7302 
 770      3F7F244E 
 770      35AC5152 
 770      6D31D88F 
 771 0e58 856157FC 		.ascii	"\205aW\374\322\306{X\265\210\322NXz\317i\011\307\211"
 771      D2C67B58 
 771      B588D24E 
 771      587ACF69 
ARM GAS  /tmp/ccA2omAw.s 			page 59


 771      09C789
 772 0e6b 9989C489 		.ascii	"\231\211\304\2113v\316\263\302\332y(\243\355\267n\263"
 772      3376CEB3 
 772      C2DA7928 
 772      A3EDB76E 
 772      B3
 773 0e7c E7489BD5 		.ascii	"\347H\233\325\314\325\356\304\\\213\221\336W\030\314"
 773      CCD5EEC4 
 773      5C8B91DE 
 773      5718CC
 774 0e8b C5AEB5C2 		.ascii	"\305\256\265\302`\256=\264\271\330\325\354\332,\253"
 774      60AE3DB4 
 774      B9D8D5EC 
 774      DA2CAB
 775 0e9a 16D1D579 		.ascii	"\026\321\325y\353\261Kg\332\354\325N\250]\277\377\322"
 775      EBB14B67 
 775      DAECD54E 
 775      A85DBFFF 
 775      D2
 776 0eab D20C47EC 		.ascii	"\322\014G\354C\247f\206+N\314\360W\332\014\354ZF3\354"
 776      43A76686 
 776      2B4ECCF0 
 776      57DA0CEC 
 776      5A4633EC 
 777 0ebf A5CDC0AE 		.ascii	"\245\315\300\256fl5\263\242\255\306\317\237\212S\321"
 777      666C35B3 
 777      A2ADC6CF 
 777      9F8A53D1 
 778 0ecf AED5B06A 		.ascii	"\256\325\260j\021\245\027\273\254\354\367\375%\275\367"
 778      11A517BB 
 778      ACECF7FD 
 778      25BDF7
 779 0ede 77719409 		.ascii	"wq\224\011W\331|\016\277\350\2621!\331\014E\231\350"
 779      57D97C0E 
 779      BFE8B231 
 779      21D90C45 
 779      99E8
 780 0ef0 736B13B5 		.ascii	"sk\023\265S&z\301\345\300D\257\374\245\217\266w\357"
 780      53267AC1 
 780      E5C044AF 
 780      FCA58FB6 
 780      77EF
 781 0f02 2B0C6BA8 		.ascii	"+\014k\250Eu\337\204\0312\016\251\302*[%\250*c\321\""
 781      4575DF84 
 781      19320EA9 
 781      C22A5B25 
 781      A82A63D1 
 782 0f17 42BE6CA9 		.ascii	"B\276l\251\262\265,\227\267\323\327,\007\372\212\343"
 782      B2B52C97 
 782      B7D3D72C 
 782      07FA8AE3 
 783 0f27 E227ADF5 		.ascii	"\342'\255\365w\226\322_\231\023\375\275\252\351\317"
 783      7796D25F 
 783      9913FDBD 
 783      AAE9CF
 784 0f36 CFCF7051 		.ascii	"\317\317pQ\265\254\364g\2144FOe\0233z*\255vV-\242\253"
 784      B5ACF467 
ARM GAS  /tmp/ccA2omAw.s 			page 60


 784      8C34464F 
 784      6513337A 
 784      2AAD7656 
 785 0f4d B9966A9F 		.ascii	"\271\226j\237\327\031\265\277j\241vJ\255\247\235\271"
 785      D719B5BF 
 785      6AA1764A 
 785      ADA79DB9 
 786 0f5d 6585AD5A 		.ascii	"e\205\255Z\031\202\262*\021\356\026Y\012\272\2613\202"
 786      1982B22A 
 786      11EE1659 
 786      0ABAB133 
 786      82
 787 0f6e 2EB5F32F 		.ascii	".\265\363/k\177\372\316\231?-q\342O\213i\307`\327\262"
 787      6B7FFACE 
 787      993F2D71 
 787      E24F8B69 
 787      C760D7B2 
 788 0f82 730C562D 		.ascii	"s\014V-\"\344r+}\265\315\377\266\275\202\257}\243TA"
 788      22E4722B 
 788      7DB5CDFF 
 788      B6BD82AF 
 788      7DA35441 
 789 0f96 5A7BDEF0 		.ascii	"Z{\336\360\231t\251\273\223\317"
 789      9974A9BB 
 789      93CF
 790 0fa0 A4B75CD4 		.ascii	"\244\267\\\324\307\310JK\253\254;o\374Lr>\211\265\232"
 790      C7C84A4B 
 790      ABAC3B6F 
 790      FC4C723E 
 790      89B59A
 791 0fb3 360CFA2E 		.ascii	"6\014\372.\322oJ,-\363r\017K\313\\\241?\276\336f*\031"
 791      D26F4A2C 
 791      2DF3720F 
 791      4BCB5CA1 
 791      3FBEDE66 
 792 0fc9 7F7C69CB 		.ascii	"\177|i\313\014\347\033\223\340#\325\245-\354,\307\350"
 792      0CE71B93 
 792      E023D5A5 
 792      2DEC2CC7 
 792      E8
 793 0fda ECBA2546 		.ascii	"\354\272%F\003E\336;\337&(s\"\274\256\257\267i}\255"
 793      0345DE3B 
 793      DF262873 
 793      22BCAEAF 
 793      B7697DAD 
 794 0fee 89D5D792 		.ascii	"\211\325\327\222\010\214Z\217\3364O\377v\323L\262\252"
 794      088C5A8F 
 794      DE344FFF 
 794      76D34CB2 
 794      AA
 795 0fff 87       		.ascii	"\207"
 796 1000 1393BC4F 		.ascii	"\023\223\274O\223\370\300\212D\244l;\243\241\330\230"
 796      93F8C08A 
 796      44A46C3B 
 796      A3A1D898 
 797 1010 E3435742 		.ascii	"\343CWB\263&mI\032\300\377r\372\327@\363\225\366_T\341"
 797      B3266D49 
ARM GAS  /tmp/ccA2omAw.s 			page 61


 797      1AC0FF72 
 797      FAD740F3 
 797      95F65F54 
 798 1025 9F1D6C72 		.ascii	"\237\035lr\241\251\223=\224Pqq\374|\025\016\272\325"
 798      A1A9933D 
 798      94507171 
 798      FC7C150E 
 798      BAD5
 799 1037 2E6A89A0 		.ascii	".j\211\240\375\005\274D\200\236\307[\"(\211\234\333"
 799      FD05BC44 
 799      809EC75B 
 799      2228899C 
 799      DB
 800 1048 BA9CB9CB 		.ascii	"\272\234\271\313\017\012\360\306m4\372\344O\032v\260"
 800      0F0AF0C6 
 800      6D34FAE4 
 800      4F1A76B0 
 801 1058 63C0B1D5 		.ascii	"c\300\261\325n\033S1?\3777\314\345f\232\313M*\227\233"
 801      6E1B5331 
 801      3FFF37CC 
 801      E5669ACB 
 801      4D2A979B 
 802 106c 1D7159B5 		.ascii	"\035qY\265\025o\032\242fP\233mfP\267\272\014\263@\255"
 802      156F1AA2 
 802      66509B6D 
 802      6650B7BA 
 802      0CB340AD 
 803 1080 A2C682CD 		.ascii	"\242\306\202\315\224\246z\230\2474U\362\012\372n\242"
 803      94A67A98 
 803      A73455F2 
 803      0AFA6EA2 
 804 1090 A7F9CFD8 		.ascii	"\247\371\317\330\020\337f$~>a\342iq\211\243\201\023"
 804      10DF6624 
 804      7E3E61E2 
 804      697189A3 
 804      8113
 805 10a2 8BF80E23 		.ascii	"\213\370\016#\361\227]\016\210\263W9,\211\277jC\374"
 805      F1975D0E 
 805      88B35739 
 805      2C89BF6A 
 805      43FC
 806 10b4 1323F145 		.ascii	"\023#\361E\011\023\217/\371,\033\342\015F\342s\235\020"
 806      09138F2F 
 806      F92C1BE2 
 806      0D46E273 
 806      9D10
 807 10c6 672F8858 		.ascii	"g/\210X\022_jC|\267\221\370\362\204\211\307\227\374"
 807      125F6A43 
 807      7CB791F8 
 807      F28489C7 
 807      97FC
 808 10d8 988DC335 		.ascii	"\230\215\3035\033\211\237p\342p\354\005\027K\342Wm\210"
 808      1B899F70 
 808      E270EC05 
 808      174BE257 
 808      6D88
 809 10ea EF31122F 		.ascii	"\3571\022/v\"\271\325b\004\027\305Pc\201\237\257s\241"
ARM GAS  /tmp/ccA2omAw.s 			page 62


 809      7622B9D5 
 809      620417C5 
 809      5063819F 
 809      AF73A1
 810 10fd 49DF7A9C 		.ascii	"I\337z\234o\307\371N\234\357\302y#\316\233p\376\251"
 810      6FC7F94E 
 810      9CEFC279 
 810      23CE9B70 
 810      FEA9
 811 110f CBC1C470 		.ascii	"\313\301\304p\255\313\260\370v\006\207\333\352N\206"
 811      ADCBB0F8 
 811      760687DB 
 811      EA4E86
 812 111e 0425727E 		.ascii	"\004%r~+^\342R\377I\303\371\204\301\314\346~WQDO\022"
 812      2B5EE252 
 812      FF49C3F9 
 812      84C1CCE6 
 812      7E575144 
 813 1134 57AAAE9D 		.ascii	"W\252\256\235\227\304\371\035I\344\214G\360\363\373"
 813      97C4F91D 
 813      49E48C47 
 813      F0F3FB
 814 1143 5D4940F9 		.ascii	"]I@\371*\325k8\000A\2528\004\225M\321\370@i\017\024"
 814      2AD56B38 
 814      0041AA38 
 814      04954DD1 
 814      F840690F 
 815 1158 8DD1739B 		.ascii	"\215\321s\233h\214\373;\201+MU7T\272\274\321ge\321g"
 815      688CFB3B 
 815      812B4D55 
 815      3754BABC 
 815      D16765D1 
 816 116d BCA1E882 		.ascii	"\274\241\350\202\350c\255\363E\267\266?A\2122\347\347"
 816      E863ADF3 
 816      45B7B63F 
 816      418A32E7 
 816      E7
 817 117e 0FBBD0B4 		.ascii	"\017\273\320\264\351\021\227hYM\340\226\246R\232\267"
 817      E9119768 
 817      594DE096 
 817      A6529AB7 
 818 118e FAFD0BFB 		.ascii	"\372\375\013\373\367\353\221\013[\325\275\255\352R\377"
 818      F7EB910B 
 818      5BD5BDAD 
 818      EA52FF
 819 119d 9B349A79 		.ascii	"\2334\232y\275#^\304B\232\207\246\243-\206\274\353\010"
 819      BD235EC4 
 819      429A87A6 
 819      A32D86BC 
 819      EB08
 820 11af AD1F9339 		.ascii	"\255\037\2239\204&zzre\270\207]`^Z6\357iEj;\351\352"
 820      84267A7A 
 820      7265B887 
 820      5D605E5A 
 820      36EF6945 
 821 11c7 89AF4C5B 		.ascii	"\211\257L[\254q\011V\203\370\332\025\375\351f\2127z"
 821      AC710956 
ARM GAS  /tmp/ccA2omAw.s 			page 63


 821      83F8DA15 
 821      FDE9668A 
 821      377A
 822 11d9 A1FD2301 		.ascii	"\241\375#\001\201\373\200\026\301L\226\\\216\264U\210"
 822      81FB8016 
 822      C14C965C 
 822      8EB45588 
 823 11e9 E8517913 		.ascii	"\350Qy\023\270\017\035\241=\315n'\261\221\311j\224\244"
 823      B80F1DA1 
 823      3DCD6E27 
 823      B191C96A 
 823      94A4
 824 11fb 6BF9F77A 		.ascii	"k\371\367z\223i;\277l\373*\262W\362\014\036n\235J\215"
 824      93693BBF 
 824      6CFB2AB2 
 824      57F20C1E 
 824      6E9D4A8D 
 825 120f 3FDC3201 		.ascii	"?\3342\001!\205\235\243\0071sO\324\253\377<\340\\\374"
 825      21859DA3 
 825      0731734F 
 825      D4ABFF3C 
 825      E05CFC
 826 1222 61CCE449 		.ascii	"a\314\344I\221WN\324\013\321\335\264\366{( \250\341"
 826      91574ED4 
 826      0BD1DDB4 
 826      F67B2820 
 826      A8E1
 827 1234 5D434EF6 		.ascii	"]CN\366m}\217\2059\327\271`\006|U 1P3\270\210\333iq"
 827      6D7D8F85 
 827      39D7B960 
 827      067C5520 
 827      315033B8 
 828 124c CF44E1D2 		.ascii	"\317D\341\322Lp\013\315pS\234\300\261\332(\300\275f"
 828      4C700BCD 
 828      70539CC0 
 828      B1DA28C0 
 828      BD66
 829 125e 867B2961 		.ascii	"\206{)a83wk\315p\323\235\300\261\306\011\000\267\316"
 829      3833776B 
 829      CD70D39D 
 829      C0B1C609 
 829      00B7CE
 830 1271 0C373B61 		.ascii	"\0147;a83w\357\233\341\346;\201c\365\345\000\267\336"
 830      383377EF 
 830      9BE1E63B 
 830      8163F5E5 
 830      00B7DE
 831 1284 0CF76AC2 		.ascii	"\014\367j\302pf\356>4\303-v\002\227\306\346n\343\211"
 831      7066EE3E 
 831      34C32D76 
 831      0297C6E6 
 831      6EE389
 832 1297 08AF4C4D 		.ascii	"\010\257LM!\255A)Un}+\332\032R5\000\2013\374\342\266"
 832      21AD4129 
 832      556E7D2B 
 832      DA1A5235 
 832      008133FC 
ARM GAS  /tmp/ccA2omAw.s 			page 64


 833 12ad F2F7D0DE 		.ascii	"\362\367\320\336\310\232\213]\005??\315\215\232\217"
 833      C89A8B5D 
 833      053F3FCD 
 833      8D9A8F
 834 12bc 686E3EA2 		.ascii	"hn>\2427z\321\321\201\377\207\332\262\236\346H\340\000"
 834      377AD1D1 
 834      81FF87DA 
 834      B29EE648 
 834      E000
 835 12ce 5CFF31E0 		.ascii	"\\\3771\340\3519d\033\346L7\3761 \005E\350\351G|v\022"
 835      E939641B 
 835      E64C37FE 
 835      31200545 
 835      E8E9477C 
 836 12e4 2A2C7095 		.ascii	"*,p\225\264\001LlZ\031\300`O\245\244\355\302\2623+\371"
 836      B4014C6C 
 836      5A19C060 
 836      4FA5A4ED 
 836      C2B2332B 
 837 12f9 DD934A95 		.ascii	"\335\223J\225\306\247\375\374t,\303\246\204!\373\231"
 837      C6A7FDFC 
 837      742CC3A6 
 837      8421FB99 
 838 1309 6C5A0331 		.ascii	"lZ\0031n\201\022)\201\017\361\2271\340\026'\200\314"
 838      6E811229 
 838      810FF197 
 838      31E01627 
 838      80CC
 839 131b 5DDF2591 		.ascii	"]\337%\221\335'\376\316\023@\225\303m\011\003\246r\314"
 839      DD27FECE 
 839      134095C3 
 839      6D0903A6 
 839      72CC
 840 132d C318D4E1 		.ascii	"\303\030\324\341[\015\0177.\3401\345e\234_\305\371\017"
 840      5B0D0F37 
 840      2EE031E5 
 840      659C5FC5 
 840      F90F
 841 133f 3857DC28 		.ascii	"8W\334(/\301\371d\234\227\342\374E\234O\305y9\316\347"
 841      2FC1F964 
 841      9C97E2FC 
 841      459C4FC5 
 841      7939CEE7 
 842 1353 E27CBEDB 		.ascii	"\342|\276\333\301\250\264\3358*m\356\351` \031d\333"
 842      C1A8B4DD 
 842      382A6DEE 
 842      E9602019 
 842      64DB
 843 1365 B3F94AEB 		.ascii	"\263\371J\353\315d\377\255\372\357\214Z\235\000N\264"
 843      CD64FFAD 
 843      FAEF8C5A 
 843      9D004EB4 
 844 1375 50BEB5AE 		.ascii	"P\276\265\256\252\015\272\252\301\272\212`\315\354\305"
 844      AA0DBAAA 
 844      C1BA8A60 
 844      CDECC5
 845 1384 792BCEBF 		.ascii	"y+\316\277\300\371\337q~\002\347\337\342\3744\316+\234"
ARM GAS  /tmp/ccA2omAw.s 			page 65


 845      C0F9DF71 
 845      7E02E7DF 
 845      E2FC34CE 
 845      2B9C
 846 1396 E8646354 		.ascii	"\350dcT'\372$\327\032jE\207\334\323+8T\013\324W?ko\335"
 846      27FA24D7 
 846      1A6A4587 
 846      DCD32B38 
 846      540BD457 
 847 13ae A6AE7E22 		.ascii	"\246\256~\"l\201\373\032\227\253dN_a\016\310\214\331"
 847      6C81FB1A 
 847      97AB644E 
 847      5F610EC8 
 847      8CD9
 848 13c0 6E3463A6 		.ascii	"n4c\246n\351:\035\247\332\032\303J\316|uIF\255x\321"
 848      6EE93A1D 
 848      A7DA1AC3 
 848      4ACE7C75 
 848      4946AD78 
 849 13d5 49457D1E 		.ascii	"IE}\036k\2722%\225\327'\262*\351\211\254\327\334V\023"
 849      6BBA3225 
 849      95D727B2 
 849      2AE989AC 
 849      D7DC5613 
 850 13e9 592D9D98 		.ascii	"Y-\235\230\310z\323M\315+\"\271\355\376u\0355#d\361"
 850      C87AD34D 
 850      CD2B22B9 
 850      EDFE751D 
 850      352364F1 
 851 13fd C3AAB659 		.ascii	"\303\252\266Y\353\316\214@A1\356\017\261\374\374j\010"
 851      EBCE8C40 
 851      4131EE0F 
 851      B1FCFC6A 
 851      08
 852 140e D1718BA1 		.ascii	"\321q\213\241\202\357\272\251\201\327\206f<{\204\236"
 852      82EFBAA9 
 852      81D78666 
 852      3C7B849E 
 853 141e C79F3DDA 		.ascii	"\307\237=\332\335\374\032\331\340\2466\212\017{\361"
 853      DDFC1AD9 
 853      E0A6368A 
 853      0F7BF1
 854 142d 04B313C3 		.ascii	"\004\263\023\303%\300\333\337\214\277\375T\260\352\204"
 854      25C0DBDF 
 854      8CBFFD54 
 854      B0EA84
 855 143c C1D24C60 		.ascii	"\301\322L`g\214`\037;\001\263\371\035\301e#X]\302`i"
 855      678C601F 
 855      3B01B3F9 
 855      1DC16523 
 855      585DC260 
 856 1451 94FEB4A6 		.ascii	"\224\376\264\246\276\006w\245kqP[\207\363\367q\276\336"
 856      BE0677A5 
 856      6B71505B 
 856      87F3F771 
 856      BEDE
 857 1463 D898056E 		.ascii	"\330\230\005n{/\272\373S\355c\300\213\032\222\213\217"
ARM GAS  /tmp/ccA2omAw.s 			page 66


 857      7B2FBAFB 
 857      53ED63C0 
 857      8B1A928B 
 857      8F
 858 1474 C8F2DA55 		.ascii	"\310\362\332U\356\256&PS\004\330\333\213\021\001Zo\373"
 858      EEAE2650 
 858      5304D8DB 
 858      8B11015A 
 858      6FFB
 859 1486 281A01FC 		.ascii	"(\032\001\374\374\0227\232\250X\341v\022\001\016\240"
 859      FC12379A 
 859      A858E176 
 859      12010EA0 
 860 1496 0880A842 		.ascii	"\010\200\250B\200\301\360\354j\2047\313\206\214j\231"
 860      80C1F0EC 
 860      6A8437CB 
 860      868C6A99 
 861 14a6 18DF60D9 		.ascii	"\030\337`\331\220\327\356H\274!\327X5dJ3_XjF]\3356\352"
 861      90D7EE48 
 861      BC21D758 
 861      35644A33 
 861      5F586A46 
 862 14be A4DA5E27 		.ascii	"\244\332^'\014\341\252i\341j-\205{mW\342\302m\261\211"
 862      0CE1AA69 
 862      E16A2D85 
 862      7B6D57E2 
 862      C26DB189 
 863 14d2 52AC75E2 		.ascii	"R\254u\342o\254\205}E\242\204\335\354\310\001\232\351"
 863      6FAC857D 
 863      45A284DD 
 863      ECC8019A 
 863      E9
 864 14e3 954E4335 		.ascii	"\225NC5\333\225b\263\2166\323:\252\267\324Qy\303\216"
 864      DB9562B3 
 864      8E36D33A 
 864      AAB7D451 
 864      79C38E
 865 14f6 4E2DA77F 		.ascii	"N-\247\177\342\300\011\276w\250\227\235\016\235`M\351"
 865      E2C009BE 
 865      77A8979D 
 865      0E9D604D 
 865      E9
 866 1507 94545774 		.ascii	"\224TWt\355\215U\215p\330`)\357\245\231ly\3556\2576"
 866      ED8D558D 
 866      70D86029 
 866      EFA5996C 
 866      79ED36AF 
 867 151c 3B9077DA 		.ascii	";\220w\332u\316\344mr$o\211\362\315\024lPm\303g\023"
 867      75CEE46D 
 867      72246F89 
 867      F2CD146C 
 867      506DC367 
 868 1531 C30F0887 		.ascii	"\303\017\010\207{,\345E\377TNm\003\252\014\002\267\320"
 868      7B2CE545 
 868      FF544E6D 
 868      03AA0C02 
 868      B7D0
ARM GAS  /tmp/ccA2omAw.s 			page 67


 869 1543 2197FB3A 		.ascii	"!\227\373:\307\345>{.[c\271l+k\253\251l\035\\\261N\231"
 869      C7E53E7B 
 869      2E5B63B9 
 869      6C2B6BAB 
 869      A96C1D5C 
 870 155a FC92F243 		.ascii	"\374\222\362C\307\363|\002\033s\016\321fA;f\035\356"
 870      C7F37C02 
 870      1B730ED1 
 870      66413B66 
 870      1DEE
 871 156c A6632D33 		.ascii	"\246c-3\257\246\024\244\261~\314\212\365HK\3034\205"
 871      AFA614A4 
 871      B17ECC8A 
 871      F5484BC3 
 871      3485
 872 157e C72ABE39 		.ascii	"\307*\2769\001\276\217\323|\227\213\327\274\243\250"
 872      01BE8FD3 
 872      7C978BD7 
 872      BCA3A8
 873 158d 8AC1F757 		.ascii	"\212\301\367W\226|\237m\230\366seiI\244\243cp\"\355"
 873      967C9F6D 
 873      98F67365 
 873      6949A4A3 
 873      637022ED 
 874 15a1 FEA4ADC2 		.ascii	"\376\244\255\302\235\355\013\371\204\301\350)KF?e*\330"
 874      9DED0BF9 
 874      84C1E829 
 874      4B463F65 
 874      2AD8
 875 15b3 8ECF765B 		.ascii	"\216\317v[\005[\363u\220\301\327w\226>\273\250\371`"
 875      055BF375 
 875      90C1D777 
 875      963EBBA8 
 875      F960
 876 15c5 9F05BACF 		.ascii	"\237\005\272\317j\353\305'\031\030\347-1\346m\337*\274"
 876      6AEBC527 
 876      1918E72D 
 876      31E66DDF 
 876      2ABC
 877 15d7 A27C8CB6 		.ascii	"\242|\214\266c?\317\251K\357\002w\225\001q\321\022\242"
 877      633FCFA9 
 877      4BEF0277 
 877      950171D1 
 877      12A2
 878 15e9 6CDDB15C 		.ascii	"l\335\261\\\003\204\312\305\254\353\255!.[BTW\266\337"
 878      0384CAC5 
 878      ACEBAD21 
 878      2E5B4254 
 878      57B6DF
 879 15fc A74338EF 		.ascii	"\247C8\357*\257\332\272B<\037\246\277\261\006[}b-b\310"
 879      2AAFDABA 
 879      423C1FA6 
 879      BFB1065B 
 879      7D622D62 
 880 1611 51E2B1F2 		.ascii	"Q\342\261\362\224\217\230\236b#\305d\317\265\264DGR"
 880      948F989E 
 880      6223C564 
ARM GAS  /tmp/ccA2omAw.s 			page 68


 880      CFB5B444 
 880      4752
 881 1623 AC664831 		.ascii	"\254fH1\325J\0120\350\011\243A\337\304A{\023\003b\232"
 881      D54A0A30 
 881      E809A341 
 881      DFC4417B 
 881      1303629A 
 882 1637 25447565 		.ascii	"%Duemg\014:\303J\025\224,\365\014F\312,-r\2723\026\231"
 882      6D670C3A 
 882      C34A1594 
 882      2CF50C46 
 882      CA2C2D72 
 883 164f 4DB31189 		.ascii	"M\263\021\211e\243\231\301\306\034\206J\317\030UZ\203"
 883      65A399C1 
 883      C61C864A 
 883      CF18555A 
 883      83
 884 1660 557A9801 		.ascii	"Uz\230\0011\317\022\242\246r\333}\257\260z(\273@\264"
 884      31CF12A2 
 884      A672DB7D 
 884      AFB07A28 
 884      BB40B4
 885 1673 C0D6BFAC 		.ascii	"\300\326\277\254\007\224'\030\254\275j\251\344\357:"
 885      07942718 
 885      ACBD6AA9 
 885      E4EF3A
 886 1682 15201739 		.ascii	"\025 \0279\320\362Y\006\037\213\315|\374\232[\2524\242"
 886      D0F25906 
 886      1F8BCD7C 
 886      FC9A5BAA 
 886      34A2
 887 1694 5F3F1CFD 		.ascii	"_?\034\375\305'%\212\362\022\37278|\207\350\347?\306"
 887      C527258A 
 887      F212FA37 
 887      387C87E8 
 887      E73FC6
 888 16a7 53382D78 		.ascii	"S8-x\024\213P\264on\323\256\015\216\024A\307 \356=\345"
 888      148B50B4 
 888      6F6ED3AE 
 888      0D8E1441 
 888      C720EE3D 
 889 16bc C588A257 		.ascii	"\305\210\242WE\253\262\377\303]V^T\"W\352xu\247\205"
 889      45ABB2FF 
 889      C35D565E 
 889      542257EA 
 889      7875A785 
 890 16d0 BA571F57 		.ascii	"\272W\037W\253\327_+w\252;!\324M\301\370\345\366\350"
 890      ABD75F2B 
 890      77AA3B21 
 890      D44DC1F8 
 890      E5F6E8
 891 16e3 CBC7D59D 		.ascii	"\313\307\325\235\012\352\366I\374rg\364\345\177\252"
 891      0AEAF649 
 891      FC7267F4 
 891      E57FAA
 892 16f2 3B09D4BD 		.ascii	";\011\324\275o\370\345\256(\325\357\021\325\006\374"
 892      6FF8E5AE 
ARM GAS  /tmp/ccA2omAw.s 			page 69


 892      28D5EF11 
 892      D506FC
 893 1701 BA4C7BDD 		.ascii	"\272L{\335\030\255;P]\213W\367\201\341\227M\321\227"
 893      18AD3B50 
 893      5D8B57F7 
 893      81E1974D 
 893      D197
 894 1713 83D5B572 		.ascii	"\203\325\265ruw8~\371i\364\245O]\313V7\301\342\203,"
 894      7577387E 
 894      F969F4A5 
 894      4F5DCB56 
 894      37C1E283 
 895 1728 BE2DB91F 		.ascii	"\276-\271\037\255\276\225D-g\232q\304\237}\236D\027"
 895      ADBE9544 
 895      2D679A71 
 895      C49F7D9E 
 895      4417
 896 173a DFDEF658 		.ascii	"\337\336\366X/\276i\3432\343\272\237\201\362=Z\271$"
 896      2FBE69E3 
 896      32E3BA9F 
 896      81F23D5A 
 896      B924
 897 174c 82B33A61 		.ascii	"\202\263:a\312\3570({\014.\034il\273\364e\3234~\326"
 897      CAEF3028 
 897      7B0C2E1C 
 897      696CBBF4 
 897      65D3347E 
 898 1761 1A6D475C 		.ascii	"\032mG\\\244\314\345<\\\254\241\035\271\031\377\362"
 898      A4CCE53C 
 898      5CACA11D 
 898      B919FFF2 
 899 1771 C5E4C86F 		.ascii	"\305\344\310o\3676:2Y/\336\320\233\310\257\315\275\251"
 899      F7363A32 
 899      592FDED0 
 899      9BC8AFCD 
 899      BDA9
 900 1783 9368EA84 		.ascii	"\223h\352\204\306V\\\343]\017k\014L~?A\276L\316\026"
 900      C6565CE3 
 900      5D0F6B0C 
 900      4C7E3F41 
 900      BE4CCE16 
 901 1797 1B7E2C84 		.ascii	"\033~,\204*\231\232\313_\315\315\205\332\356\200zl\226"
 901      2A999ACB 
 901      5FCDCD85 
 901      DAEE807A 
 901      6C96
 902 17a9 6C951E7D 		.ascii	"l\225\036}\366\2014\262\312\272Sw\026\227E\212\227\240"
 902      F68134B2 
 902      CABA5377 
 902      1697458A 
 902      97A0
 903 17bb 4F189E37 		.ascii	"O\030\2367ZN\211Z\356i\015(\305\316\276T)\030\330'l"
 903      5A4E895A 
 903      EE690D28 
 903      C5CEBE54 
 903      2918D827 
 904 17d0 DF4D0CFB 		.ascii	"\337M\014\373\232'M\264Rh\354\207\365\272:\372?\003"
ARM GAS  /tmp/ccA2omAw.s 			page 70


 904      9A274DB4 
 904      5268EC87 
 904      F5BA3AFA 
 904      3F03
 905 17e2 282604AE 		.ascii	"(&\004\256\245\267\266s\240\013\\\244q\213\201\023\010"
 905      A5B7B673 
 905      A00B5CA4 
 905      718B8113 
 905      08
 906 17f3 BF471F2B 		.ascii	"\277G\037+\216(\321\317\333\351\306_d\251\205\"\027"
 906      8E28D1CF 
 906      DBE9C65F 
 906      64A98522 
 906      17
 907 1804 2B1441D0 		.ascii	"+\024A\320KT\031K\320\277\207\265\321y$\252s\252\026"
 907      4B54194B 
 907      D0BF87B5 
 907      D17924AA 
 907      73AA16
 908 1817 FAD860D5 		.ascii	"\372\330`\325\252\215\326\",\267\234i\367(\223\223u"
 908      AA8DD622 
 908      2CB79C69 
 908      F7289393 
 908      75
 909 1828 7E9A2C38 		.ascii	"~\232,8\336_j\344\370\250\015\307\307mho\246iG.\026"
 909      DE5F6AE4 
 909      F8A80DC7 
 909      C76D686F 
 909      A669472E 
 910 183d 1B6602DA 		.ascii	"\033f\002\332-\010\177g\"|\305\206\360I\033\302[c\010"
 910      2D087F67 
 910      227CC586 
 910      F0491BC2 
 910      5B6308
 911 1850 CF36E1BE 		.ascii	"\3176\341\276\340\212\245\274\336T\242\314\305\246\334"
 911      E08AA5BC 
 911      DE54A2CC 
 911      C5A6DC
 912 185f 6E43797B 		.ascii	"nCy{\014\345\205&\334\012\013\312\215\246\022Kl(\257"
 912      0CE58526 
 912      DC0A0BCA 
 912      8DA6124B 
 912      6C28AF
 913 1872 B6DB75C6 		.ascii	"\266\333u\306t\017\264\361\200Uk\027\263\026\032\177"
 913      740FB4F1 
 913      80556B17 
 913      B3161A7F 
 914 1882 B26A3530 		.ascii	"\262j50k]\265\321M#\263\326\2336\265v\323\241&r`\373"
 914      6B5DB5D1 
 914      4D23B3D6 
 914      9B36B576 
 914      D3A12672 
 915 1898 4B0AAF94 		.ascii	"K\012\257\224*\305hC\254\251w2D\232\373\315\223\273"
 915      2AC56843 
 915      ACA97732 
 915      449AFBCD 
 915      93BB
ARM GAS  /tmp/ccA2omAw.s 			page 71


 916 18aa AC4E8C2A 		.ascii	"\254N\214*\006]a\302\241f\017#\324\030\377'i\264\024"
 916      065D61C2 
 916      A1660F23 
 916      D418FF27 
 916      69B414
 917 18bd 5C7EE4A1 		.ascii	"\\~\344\241f])&\004\356\270)\324P\312\252\261Q\326^"
 917      665D2926 
 917      04EEB829 
 917      D450CAAA 
 917      B151D65E 
 918 18d1 A68A67DB 		.ascii	"\246\212g\333\230s\037\263\326\014\233Z\2551\206y\177"
 918      98731FB3 
 918      D60C9B5A 
 918      AD318679 
 918      7F
 919 18e2 8792BC16 		.ascii	"\207\222\274\026\006\0210\232e\304\177f\317\035\355"
 919      0611309A 
 919      65C47F66 
 919      CF1DED
 920 18f1 91750519 		.ascii	"\221u\005\031\246`\251j\002w\306NA3l\366\351\035b\212"
 920      A660A96A 
 920      0277C64E 
 920      41336CF6 
 920      E91D628A 
 921 1905 BAC046D4 		.ascii	"\272\300F\324\303\261\242\356\212'*\275\200\303\350"
 921      C3B1A2EE 
 921      8A272ABD 
 921      80C3E8
 922 1914 EB62D779 		.ascii	"\353b\327y\216\352*\321\366&\321\267\232\206\014\023"
 922      8EEA2AD1 
 922      F626D1B7 
 922      9A860C13 
 923 1924 B0348CC0 		.ascii	"\2604\214\300)7\330\250h\221\215\260\237\305\010[\321"
 923      2937D8A8 
 923      68918DB0 
 923      9FC5085B 
 923      D1
 924 1935 104FD889 		.ascii	"\020O\330\211\032H\017;Y\251R~\376\213\204\033\333\227"
 924      1A480F3B 
 924      59A9527E 
 924      FE8B841B 
 924      DB97
 925 1947 8CC6D63D 		.ascii	"\214\306\326=\252(C)]S\206)Y\212\011\201\233aR\024\211"
 925      AA284329 
 925      5D538629 
 925      598A0981 
 925      9B615214 
 926 195c C9950D4A 		.ascii	"\311\225\015JZ\232\036\223w\272\3311\271\332\306\333"
 926      5A9A1E93 
 926      77BAD931 
 926      B9DAC6DB 
 927 196c 4EC4F406 		.ascii	"N\304\364\006\013f\033c}\223;\2667\270l*\261\3174[~"
 927      0B661B63 
 927      7D933BB6 
 927      37B86C2A 
 927      B1CF345B 
 928 1981 7BDFBEE9 		.ascii	"{\337\276\351Cr\003\243\003#\262\322\013\303\351!9="
ARM GAS  /tmp/ccA2omAw.s 			page 72


 928      437203A3 
 928      0323B2D2 
 928      0BC3E921 
 928      393D
 929 1993 581892C3 		.ascii	"X\030\222\303\351\017d\016\0372|bzvnvaH\362\215\277"
 929      E90F640E 
 929      1F327C62 
 929      7A766E76 
 929      6148F28D 
 930 19a8 3BBF6F2E 		.ascii	";\277o.\347E\257|y\205\331\317z\036~\354\211\264!\\"
 930      E745AF7C 
 930      7985D9CF 
 930      7A1E7EEC 
 930      89B4215C 
 931 19bc 57FCA0A8 		.ascii	"W\374\240\250\000=\272%\006(P\220\235W\224#\001F\370"
 931      003DBA25 
 931      06285090 
 931      9D579423 
 931      0146F8
 932 19cf B930AA9E 		.ascii	"\2710\252\236\235\233\365\\\370Q(\333\025_=\201\353"
 932      9D9BF55C 
 932      F85128DB 
 932      155F3D81 
 932      EB
 933 19e0 FDC6A69E 		.ascii	"\375\306\246\2364^*\220Q\325\356\370\312\027.,\012e"
 933      345E2A90 
 933      51D5EEF8 
 933      CA172E2C 
 933      0A65
 934 19f2 4B3E39C5 		.ascii	"K>9\305x\233\252\336\344\005\302\262T \205|rw\363\203"
 934      789BAADE 
 934      E405C2B2 
 934      5420857C 
 934      7277F383 
 935 1a06 2429CF57 		.ascii	"$)\317W M\224\177g\317\240\374\\PB\244\222\345\334\220"
 935      204D947F 
 935      67CFA0FC 
 935      5C5042A4 
 935      92E5DC90 
 936 1a1a E4CFF1C9 		.ascii	"\344\317\361\311\300\256O\275\376\265]\315\354\334\034"
 936      C0AE4FBD 
 936      FEB55DCD 
 936      ECDC1C
 937 1a29 A8E50962 		.ascii	"\250\345\011b\032p\012\206\244\361w\305Qja~0\220'\205"
 937      1A700A86 
 937      A4F177C5 
 937      516A617E 
 937      30902785 
 938 1a3d C2E90F0F 		.ascii	"\302\351\017\017\031\002\030\032\351$9\030\012\024\372"
 938      1902181A 
 938      E9243918 
 938      0A14FA
 939 1a4c A060C118 		.ascii	"\240`\301\030\234\356L\317-\314\227\322CRX\362\207\262"
 939      9CEE4CCF 
 939      2DCC97D2 
 939      435258F2 
 939      87B2
ARM GAS  /tmp/ccA2omAw.s 			page 73


 940 1a5e 73D373FD 		.ascii	"s\323s\375\241\234\011\376\220\224\356\017\345\017H"
 940      A19C09FE 
 940      9094EE0F 
 940      E50F48
 941 1a6d 1F9B9D7D 		.ascii	"\037\233\235}\007\\\334!\345\217\226rr\244\034\375A"
 941      075CDC21 
 941      E58F9672 
 941      72A41CFD 
 941      41
 942 1a7e 41618174 		.ascii	"Aa\201t\207\344\037\035\270c\220\357\236;\006\364\353"
 942      87E41F1D 
 942      B86390EF 
 942      9E3B06F4 
 942      EB
 943 1a8f 3F68DC80 		.ascii	"?h\334\200t\323\013]\200\260\234\023(\220\221\330Ep"
 943      74D30B5D 
 943      80B09C13 
 943      289091D8 
 943      4570
 944 1aa1 1E38C027 		.ascii	"\0368\300'O\342\377q\324\363\375\331\271\201\002)\335"
 944      4FE2FF71 
 944      D4F3FDD9 
 944      B9810229 
 944      DD
 945 1ab2 97238DF1 		.ascii	"\227#\215\361\027\345\311>M\023]|>\215\037\254\322@"
 945      17E5C93E 
 945      4D135D7C 
 945      3E8D1FAC 
 945      D240
 946 1ac4 61527661 		.ascii	"aRva\201\014\032\376g'\376\012\010\252k\002F\266<19"
 946      810C1AFE 
 946      6727FE0A 
 946      08AA6B02 
 946      46B63C31 
 947 1ad9 248D0506 		.ascii	"$\215\005\006|\262\020\032$\204\356\024Bw\011\241\273"
 947      7CB2101A 
 947      2484EE14 
 947      427709A1 
 947      BB
 948 1aea 85D03D42 		.ascii	"\205\320=B\350^1\324\277\037\244\376B^\010N\003\335"
 948      E85E31D4 
 948      BF1FA4FE 
 948      425E084E 
 948      03DD
 949 1afc 411F944F 		.ascii	"A\037\224OB\306\234\000\236\023\364\025\346\345H!W6"
 949      42C69C00 
 949      9E13F415 
 949      E6E54821 
 949      5736
 950 1b0e 888E2CEC 		.ascii	"\210\216,\354\317\227\272\204\345g\375y\201\261\005"
 950      CF97BA84 
 950      E567FD79 
 950      81B105
 951 1b1d 3E19ABEC 		.ascii	">\031\253\354\256A>\231p\213/\203>(\220\027\310\017"
 951      AE413E99 
 951      708B2F83 
 951      3E289017 
ARM GAS  /tmp/ccA2omAw.s 			page 74


 951      C80F
 952 1b2f C8C97258 		.ascii	"\310\311rX\366\313\340\255I\350\345=\340Pj1\270JB\245"
 952      F6CBE0AD 
 952      49E8E53D 
 952      E0506A31 
 952      B84A42A5 
 953 1b43 E05D929C 		.ascii	"\340]\222\234_\230#\341\3731y\376\261\341$9$\215\011"
 953      5F9823E1 
 953      FB3179FE 
 953      B1E12439 
 953      248D09
 954 1b56 6399D185 		.ascii	"c\231\321\205;?<\026^\022E@uM%\241\234\347\340U\262"
 954      3B3F3C16 
 954      5E124540 
 954      754D25A1 
 954      9CE7E055 
 955 1b6b 34312067 		.ascii	"41 g\003\200g\202\\8\372\231`/\342\271PU\012I\005\250"
 955      03806782 
 955      5C38FA99 
 955      602FE2B9 
 955      50550A49 
 956 1b81 A1B827C8 		.ascii	"\241\270'\310r(\230\024\206\366\000\025R\300\243\303"
 956      72289814 
 956      86F60015 
 956      52C0A3C3 
 957 1b91 52BE3F98 		.ascii	"R\276?\230\013:\262m\257\022j\356=T\274\260o\\\221T"
 957      0B3AB26D 
 957      AF126AEE 
 957      3D54BCB0 
 957      6F5C9154 
 958 1ba5 0460A97A 		.ascii	"\004`\251z\203 \217\222\310\331\235\015\315Mv\207}p"
 958      83208F92 
 958      C8D99D0D 
 958      CD4D7687 
 958      7D70
 959 1bb7 065EA076 		.ascii	"\006^\240v0\031\312\346\027\201\301\354\310\344\313"
 959      3019CAE6 
 959      1781C1EC 
 959      C8E4CB
 960 1bc6 1391D7E7 		.ascii	"\023\221\327\347\023\264|_\341\004\324^q=\2202_mR\023"
 960      13B47C5F 
 960      E104D45E 
 960      713D9032 
 960      5F6D5213 
 961 1bda 642817EC 		.ascii	"d(\027\354\212\033u\276?\374,\274\221&\240\0131\350"
 961      8A1B75BE 
 961      3FFC2CBC 
 961      9126A00B 
 961      31E8
 962 1bec 2BEAAE31 		.ascii	"+\352\2561\204Z\273O\356a`\021=\361\006}\023\374\001"
 962      845ABB4F 
 962      EE616011 
 962      3DF1067D 
 962      13FC01
 963 1bff 39503016 		.ascii	"9P0\026\014\003\032\300\204\340R\012J\005\340\370c\341"
 963      0C031AC0 
 963      84E0520A 
ARM GAS  /tmp/ccA2omAw.s 			page 75


 963      4A05E0F8 
 963      63E1
 964 1c11 3D80A392 		.ascii	"=\200\243\222]\220\312\375y\330\325\340a\260\2600\257"
 964      5D90CAFD 
 964      79D8D5E0 
 964      61B0B030 
 964      AF
 965 1c22 2B040E2D 		.ascii	"+\004\016-\210x\341Z\215Fj\354\301\346\002\027\200\307"
 965      8878E15A 
 965      8D466AEC 
 965      C1E60217 
 965      80C7
 966 1c34 F812BD9F 		.ascii	"\370\022\275\237\240\332P\012c\276\201\225a\343\345"
 966      A0DA500A 
 966      63BE8195 
 966      61E3E5
 967 1c43 11A39F91 		.ascii	"\021\243\237\221\262\345\214\202\200,J\341\240]\254"
 967      B2E58C82 
 967      802C4AE1 
 967      A05DAC
 968 1c52 C3AC21DF 		.ascii	"\303\254!\337w\373\036\004\342\335\002\005\301\"YS}"
 968      77FB1E04 
 968      E2DD0205 
 968      C1225953 
 968      7D
 969 1c63 17080BE4 		.ascii	"\027\010\013\3442Y\273\364\216\323d+\376I\232l^`4*@"
 969      3259BBF4 
 969      8ED3642B 
 969      FE499A6C 
 969      5E60342A 
 970 1c78 35DD417D 		.ascii	"5\335A}\357\351;\310\030>\240\351\242\370\027\016\374"
 970      EFE93BC8 
 970      183EA0E9 
 970      A2F8170E 
 970      FC
 971 1c89 3730073C 		.ascii	"70\007<e\027\026AC\015%\217\363\215.\032\003\216\350"
 971      65171641 
 971      430D258F 
 971      F38D2E1A 
 971      038EE8
 972 1c9c 1EE7930B 		.ascii	"\036\347\223\013\203I\300l((\207\340\034\312\201\263"
 972      8349C06C 
 972      282887E0 
 972      1CCA81B3 
 973 1cac 775C41A1 		.ascii	"w\\A\241\034\030\363\034\3103\316\247^z\306\201\266"
 973      1C18F31C 
 973      C833CEA7 
 973      5E7AC681 
 973      B6
 974 1cbd 0B9E0527 		.ascii	"\013\236\005'\315x<#<,?(?\227!\006\306\005\273\027\026"
 974      CD783C23 
 974      3C2C3F28 
 974      3F972106 
 974      C605BB17 
 975 1cd2 C9065540 		.ascii	"\311\006U@\3371\002\336?T\224\227\227!\026\216\013R"
 975      DF3102DE 
 975      3F549497 
ARM GAS  /tmp/ccA2omAw.s 			page 76


 975      9721168E 
 975      0B52
 976 1ce4 0E96EBCF 		.ascii	"\016\226\353\317\203\023d\240\\tF\241\000\235I\317\323"
 976      831364A0 
 976      5C7446A1 
 976      009D49CF 
 976      D3
 977 1cf5 8D5CAB7D 		.ascii	"\215\\\253}\317u\350n\030\262g\324N7\307\342\205C\331"
 977      CF75E86E 
 977      18B267D4 
 977      4E37C7E2 
 977      8543D9
 978 1d08 E9612914 		.ascii	"\351a)\024\000\264l\316=!\024\220%!\020\024F\007\371"
 978      00B46CCE 
 978      3D211490 
 978      25211014 
 978      4607F9
 979 1d1b 022FEA39 		.ascii	"\002/\3529\002\371\300\227\007?\227\223\320\035p\354"
 979      02F9C097 
 979      073F9793 
 979      D01D70EC 
 980 1d2b 424EE846 		.ascii	"BN\350F\231,\002\367\374h\027\344\2628V\222]\220\344"
 980      992C02F7 
 980      FC6817E4 
 980      B2385692 
 980      5D90E4
 981 1d3e 9E88F288 		.ascii	"\236\210\362\210p\246\004\375\207\224S\224'e\365\321"
 981      70A604FD 
 981      87945394 
 981      2765F5D1 
 982 1d4e 79793054 		.ascii	"yy0T\350\317\311\366\207\345\207\220?e\270\261[y\302"
 982      E8CFC9F6 
 982      87E58790 
 982      3F65B8B1 
 982      5B79C2
 983 1d61 3988BB7F 		.ascii	"9\210\273\177\212\345N\267\205\312a.\227\222\205\257"
 983      8AE54EB7 
 983      85CA612E 
 983      979285AF 
 984 1d71 868602E3 		.ascii	"\206\206\002\343\245P\017\343\315\037\207\217\022\307"
 984      A5500FE3 
 984      CD1F878F 
 984      12C7
 985 1d7f E7CB6EEC 		.ascii	"\347\313n\354\302\336p\016\011P\336\254\241\276'\036"
 985      C2DE700E 
 985      0950DEAC 
 985      A1BE271E 
 986 1d8f CB782C63 		.ascii	"\313x,cT\022\\e\215\03212\031\316\231\303\036\030\372"
 986      54125C65 
 986      8D1A3132 
 986      19CE99C3 
 986      1E18FA
 987 1da2 941B17F1 		.ascii	"\224\033\027\361\004\260\362=\205\370$\004F\013\205"
 987      04B0F23D 
 987      85F82404 
 987      460B85
 988 1db1 A3079A39 		.ascii	"\243\007\2329\001\217O\0372<+#+=k\024\374\015\0378\340"
ARM GAS  /tmp/ccA2omAw.s 			page 77


 988      018F4F1F 
 988      323C2B23 
 988      2B3D6B14 
 988      FC0D1F38 
 989 1dc6 A1811327 		.ascii	"\241\201\023'\202\203\344\017\0340f`\277\201\023\263"
 989      8283E40F 
 989      1C306660 
 989      BF8113B3 
 990 1dd6 81B36E4F 		.ascii	"\201\263nOd=\2209\3127\012\242\374Pi\2148$\263?\244"
 990      643D9039 
 990      CA370AA2 
 990      FC50698C 
 990      3824B33F 
 991 1deb 0190068A 		.ascii	"\001\220\006\212\017ff\272\036\03652\323\2259jD\246"
 991      0F6666BA 
 991      1E1E3532 
 991      D395396A 
 991      44A6
 992 1dfd 98F978A6 		.ascii	"\230\371x\246\230\221\005iH&\216\262\375\357\322\243"
 992      98910569 
 992      48268EB2 
 992      FDEFD2A3 
 993 1e0d 2CBA1433 		.ascii	",\272\0243\207fz3\207e\015\313\374\343\260\241\375\305"
 993      87667A33 
 993      87650DCB 
 993      FCE3B0A1 
 993      FDC5
 994 1e1f 5186BB01 		.ascii	"Q\206\273\001\356\242\260?$\273\263\221}S\3029\206\006"
 994      EEA2B03F 
 994      24BBB391 
 994      7D53C239 
 994      8606
 995 1e31 18CE0942 		.ascii	"\030\316\011B,\305\276\226T\250\236\357\216U\247\332"
 995      2CC5BE96 
 995      54A89EEF 
 995      8E55A7DA 
 996 1e41 9D6009D2 		.ascii	"\235`\011\322\037}th:fy\374\000\242^_^\036\352\356\335"
 996      1F7D7468 
 996      3A6679FC 
 996      00A25E5F 
 996      5E1EEAEE 
 997 1e56 E1A024E5 		.ascii	"\341\240$\345\210\331\241\376\220\006@\032H\224>\244"
 997      88D9A1FE 
 997      9006401A 
 997      48943EA4 
 998 1e66 B0604C60 		.ascii	"\260`L`lR8'K\006.<\331\370\326\203n\013\203=\220\011"
 998      6C523827 
 998      4B062E3C 
 998      D9F8D683 
 998      6E0B833D 
 999 1e7c A1EF8716 		.ascii	"\241\357\207\026;\324/\3733\272\207s2%\320hX\306\267"
 999      3BD42FFB 
 999      33BA8773 
 999      3225D068 
 999      58C6B7
 1000 1e8f F07A6491 		.ascii	"\360zd\221\374daQ^\316\203\210y\270\177X2\334\247\""
 1000      FC646151 
ARM GAS  /tmp/ccA2omAw.s 			page 78


 1000      5ECE8388 
 1000      79B87F58 
 1000      32DCA722 
 1001 1ea3 C77F1239 		.ascii	"\307\177\0229\331(\325\305z\240\226\222\011\036F\356"
 1001      D928D5C5 
 1001      7AA09692 
 1001      091E46EE 
 1002 1eb3 BBA30200 		.ascii	"\273\243\002\000\021\275\315x\034\020\310-T\317\312"
 1002      11BDCD78 
 1002      1C10C82D 
 1002      54CFCA
 1003 1ec2 CE3538DC 		.ascii	"\31658\334\3658@Q\316\3265\234\203D\204\236&\240\342"
 1003      F5384051 
 1003      CED6359C 
 1003      8344849E 
 1003      26A0E2
 1004 1ed5 45F587F1 		.ascii	"E\365\207\361\242\267)\244d\030\011\332Ee%,\311\031"
 1004      A2B729A4 
 1004      641809DA 
 1004      4565252C 
 1004      C919
 1005 1ee7 5D502DF5 		.ascii	"]P-\365\262\253^\244\020u\010\031\210\271\214d\364\036"
 1005      B2AB5EA4 
 1005      10750819 
 1005      88B98C64 
 1005      F41E
 1006 1ef9 D8CAE8CB 		.ascii	"\330\312\350\313r =&\242\221gv\376CE\005\330w|\320w"
 1006      72203D26 
 1006      A2916776 
 1006      FE434505 
 1006      D8777CD0 
 1007 1f0e C9BE071F 		.ascii	"\311\276\007\037\310\032623\243\233?o\202\377\2710\360"
 1007      C81A3632 
 1007      33A39B3F 
 1007      6F82FFB9 
 1007      30F0
 1008 1f20 09314372 		.ascii	"\0111Cr\217\367\347\025I\311>\337\030(\353\363u\323"
 1008      8FF7E715 
 1008      49C93EDF 
 1008      1828EBF3 
 1008      75D3
 1009 1f32 2EFADE79 		.ascii	".\372\336yw\277\376\321\273\273\373\017\270\323tw\257"
 1009      77BFFED1 
 1009      BBBBFB0F 
 1009      B8D37477 
 1009      AF
 1010 1f43 F16EE020 		.ascii	"\361n\340 \323\335\275\377\017\236\000\242 "
 1010      D3DDBDFF 
 1010      0F9E00A2 
 1010      20
 1011              		.text
 1012              		.section	.gnu.lto_.symtab.404ae09438864646,"",%progbits
 1013 0000 7364496E 		.ascii	"sdInit\000\000\000\000\000\000\000\000\000\000\000\000"
 1013      69740000 
 1013      00000000 
 1013      00000000 
 1013      0000
ARM GAS  /tmp/ccA2omAw.s 			page 79


 1014 0012 34020000 		.ascii	"4\002\000\000sdObjectInit\000\000\000\000\000\000\000"
 1014      73644F62 
 1014      6A656374 
 1014      496E6974 
 1014      00000000 
 1015 0029 00000000 		.ascii	"\000\000\000\000\0007\002\000\000sdStart\000\000\000"
 1015      00370200 
 1015      00736453 
 1015      74617274 
 1015      000000
 1016 003c 00000000 		.ascii	"\000\000\000\000\000\000\000\000\000\246\002\000\000"
 1016      00000000 
 1016      00A60200 
 1016      00
 1017 0049 73645374 		.ascii	"sdStop\000\000\000\000\000\000\000\000\000\000\000\000"
 1017      6F700000 
 1017      00000000 
 1017      00000000 
 1017      0000
 1018 005b BE020000 		.ascii	"\276\002\000\000sdIncomingDataI\000\000\000\000\000"
 1018      7364496E 
 1018      636F6D69 
 1018      6E674461 
 1018      74614900 
 1019 0073 00000000 		.ascii	"\000\000\000\000\000\000\000\304\002\000\000sdReque"
 1019      000000C4 
 1019      02000073 
 1019      64526571 
 1019      7565
 1020 0085 73744461 		.ascii	"stDataI\000\000\000\000\000\000\000\000\000\000\000"
 1020      74614900 
 1020      00000000 
 1020      00000000 
 1020      0000
 1021 0097 00CC0200 		.ascii	"\000\314\002\000\000sdPutWouldBlock\000\000\000\000"
 1021      00736450 
 1021      7574576F 
 1021      756C6442 
 1021      6C6F636B 
 1022 00af 00000000 		.ascii	"\000\000\000\000\000\000\000\000\322\002\000\000sdG"
 1022      00000000 
 1022      D2020000 
 1022      736447
 1023 00be 6574576F 		.ascii	"etWouldBlock\000\000\000\000\000\000\000\000\000\000"
 1023      756C6442 
 1023      6C6F636B 
 1023      00000000 
 1023      00000000 
 1024 00d4 0000D802 		.ascii	"\000\000\330\002\000\000chOQWriteTimeout\000\000\002"
 1024      00006368 
 1024      4F515772 
 1024      69746554 
 1024      696D656F 
 1025 00ed 00000000 		.ascii	"\000\000\000\000\000\000\000\000\000\334\002\000\000"
 1025      00000000 
 1025      00DC0200 
 1025      00
ARM GAS  /tmp/ccA2omAw.s 			page 80


 1026 00fa 63684951 		.ascii	"chIQReadTimeout\000\000\002\000\000\000\000\000\000"
 1026      52656164 
 1026      54696D65 
 1026      6F757400 
 1026      00020000 
 1027 0112 000000E3 		.ascii	"\000\000\000\343\002\000\000chOQPutTimeout\000\000\002"
 1027      02000063 
 1027      684F5150 
 1027      75745469 
 1027      6D656F75 
 1028 012a 00000000 		.ascii	"\000\000\000\000\000\000\000\000\000\352\002\000\000"
 1028      00000000 
 1028      00EA0200 
 1028      00
 1029 0137 63684951 		.ascii	"chIQGetTimeout\000\000\002\000\000\000\000\000\000\000"
 1029      47657454 
 1029      696D656F 
 1029      75740000 
 1029      02000000 
 1030 014f 0000F002 		.ascii	"\000\000\360\002\000\000chSchRescheduleS\000\000\002"
 1030      00006368 
 1030      53636852 
 1030      65736368 
 1030      6564756C 
 1031 0168 00000000 		.ascii	"\000\000\000\000\000\000\000\000\000\365\002\000\000"
 1031      00000000 
 1031      00F50200 
 1031      00
 1032 0175 63684576 		.ascii	"chEvtBroadcastFlagsI\000\000\002\000\000\000\000\000"
 1032      7442726F 
 1032      61646361 
 1032      7374466C 
 1032      61677349 
 1033 0191 00000000 		.ascii	"\000\000\000\000\367\002\000\000sd_lld_init\000\000"
 1033      F7020000 
 1033      73645F6C 
 1033      6C645F69 
 1033      6E697400 
 1034 01a6 02000000 		.ascii	"\002\000\000\000\000\000\000\000\000\000\371\002\000"
 1034      00000000 
 1034      0000F902 
 1034      00
 1035 01b3 0063684F 		.ascii	"\000chOQObjectInit\000\000\002\000\000\000\000\000\000"
 1035      514F626A 
 1035      65637449 
 1035      6E697400 
 1035      00020000 
 1036 01cb 000000FB 		.ascii	"\000\000\000\373\002\000\000chIQObjectInit\000\000\002"
 1036      02000063 
 1036      6849514F 
 1036      626A6563 
 1036      74496E69 
 1037 01e3 00000000 		.ascii	"\000\000\000\000\000\000\000\000\000\003\003\000\000"
 1037      00000000 
 1037      00030300 
 1037      00
 1038 01f0 73645F6C 		.ascii	"sd_lld_start\000\000\002\000\000\000\000\000\000\000"
ARM GAS  /tmp/ccA2omAw.s 			page 81


 1038      6C645F73 
 1038      74617274 
 1038      00000200 
 1038      00000000 
 1039 0206 00000B03 		.ascii	"\000\000\013\003\000\000chIQResetI\000\000\002\000\000"
 1039      00006368 
 1039      49515265 
 1039      73657449 
 1039      00000200 
 1040 021b 00000000 		.ascii	"\000\000\000\000\000\000\000\015\003\000\000chOQRes"
 1040      0000000D 
 1040      03000063 
 1040      684F5152 
 1040      6573
 1041 022d 65744900 		.ascii	"etI\000\000\002\000\000\000\000\000\000\000\000\000"
 1041      00020000 
 1041      00000000 
 1041      000000
 1042 023c 11030000 		.ascii	"\021\003\000\000sd_lld_stop\000\000\002\000\000\000"
 1042      73645F6C 
 1042      6C645F73 
 1042      746F7000 
 1042      00020000 
 1043 0251 00000000 		.ascii	"\000\000\000\000\000\000\025\003\000\000chIQPutI\000"
 1043      00001503 
 1043      00006368 
 1043      49515075 
 1043      744900
 1044 0264 00020000 		.ascii	"\000\002\000\000\000\000\000\000\000\000\000\027\003"
 1044      00000000 
 1044      00000017 
 1044      03
 1045 0271 00006368 		.ascii	"\000\000chOQGetI\000\000\002\000\000\000\000\000\000"
 1045      4F514765 
 1045      74490000 
 1045      02000000 
 1045      000000
 1046 0284 0000001C 		.ascii	"\000\000\000\034\003\000\000"
 1046      030000
 1047              		.text
 1048              		.section	.gnu.lto_.opts,"",%progbits
 1049 0000 272D6D63 		.ascii	"'-mcpu=cortex-m4' '-mno-thumb-interwork' '-mthumb' "
 1049      70753D63 
 1049      6F727465 
 1049      782D6D34 
 1049      2720272D 
 1050 0033 272D6767 		.ascii	"'-ggdb' '-O0' '-fomit-frame-pointer' '-falign-funct"
 1050      64622720 
 1050      272D4F30 
 1050      2720272D 
 1050      666F6D69 
 1051 0066 696F6E73 		.ascii	"ions=16' '-ffunction-sections' '-fdata-sections' '-"
 1051      3D313627 
 1051      20272D66 
 1051      66756E63 
 1051      74696F6E 
 1052 0099 666E6F2D 		.ascii	"fno-common' '-flto'\000"
ARM GAS  /tmp/ccA2omAw.s 			page 82


 1052      636F6D6D 
 1052      6F6E2720 
 1052      272D666C 
 1052      746F2700 
 1053              		.text
 1054              		.cfi_sections	.debug_frame
 1055              		.section	.text.port_lock,"ax",%progbits
 1056              		.align	2
 1057              		.p2align 4,,15
 1058              		.thumb
 1059              		.thumb_func
 1060              		.type	port_lock, %function
 1061              	port_lock:
 1062              	.LFB127:
 1063              		.file 1 "../ChibiOS/os/rt/ports/ARMCMx/chcore_v7m.h"
 1064              		.loc 1 456 0
 1065              		.cfi_startproc
 1066              		@ args = 0, pretend = 0, frame = 8
 1067              		@ frame_needed = 0, uses_anonymous_args = 0
 1068              		@ link register save eliminated.
 1069 0000 82B0     		sub	sp, sp, #8
 1070              		.cfi_def_cfa_offset 8
 1071 0002 2023     		movs	r3, #32
 1072 0004 0193     		str	r3, [sp, #4]
 1073              	.LBB6:
 1074              	.LBB7:
 1075              		.file 2 "../ChibiOS/os/ext/CMSIS/include/core_cmFunc.h"
 1076              		.loc 2 548 0
 1077 0006 019B     		ldr	r3, [sp, #4]
 1078              	@ 548 "../ChibiOS/os/ext/CMSIS/include/core_cmFunc.h" 1
 1079 0008 83F31188 		MSR basepri, r3
 1080              	@ 0 "" 2
 1081              		.thumb
 1082              	.LBE7:
 1083              	.LBE6:
 1084              		.loc 1 473 0
 1085 000c 02B0     		add	sp, sp, #8
 1086              		@ sp needed
 1087 000e 7047     		bx	lr
 1088              		.cfi_endproc
 1089              	.LFE127:
 1090              		.size	port_lock, .-port_lock
 1091              		.section	.text.port_unlock,"ax",%progbits
 1092              		.align	2
 1093              		.p2align 4,,15
 1094              		.thumb
 1095              		.thumb_func
 1096              		.type	port_unlock, %function
 1097              	port_unlock:
 1098              	.LFB128:
 1099              		.loc 1 480 0
 1100              		.cfi_startproc
 1101              		@ args = 0, pretend = 0, frame = 8
 1102              		@ frame_needed = 0, uses_anonymous_args = 0
 1103              		@ link register save eliminated.
 1104 0000 82B0     		sub	sp, sp, #8
 1105              		.cfi_def_cfa_offset 8
ARM GAS  /tmp/ccA2omAw.s 			page 83


 1106 0002 0023     		movs	r3, #0
 1107 0004 0193     		str	r3, [sp, #4]
 1108              	.LBB8:
 1109              	.LBB9:
 1110              		.loc 2 548 0
 1111 0006 019B     		ldr	r3, [sp, #4]
 1112              	@ 548 "../ChibiOS/os/ext/CMSIS/include/core_cmFunc.h" 1
 1113 0008 83F31188 		MSR basepri, r3
 1114              	@ 0 "" 2
 1115              		.thumb
 1116              	.LBE9:
 1117              	.LBE8:
 1118              		.loc 1 487 0
 1119 000c 02B0     		add	sp, sp, #8
 1120              		@ sp needed
 1121 000e 7047     		bx	lr
 1122              		.cfi_endproc
 1123              	.LFE128:
 1124              		.size	port_unlock, .-port_unlock
 1125              		.section	.text.chSysLock,"ax",%progbits
 1126              		.align	2
 1127              		.p2align 4,,15
 1128              		.thumb
 1129              		.thumb_func
 1130              		.type	chSysLock, %function
 1131              	chSysLock:
 1132              	.LFB167:
 1133              		.file 3 "../ChibiOS/os/rt/include/chsys.h"
 1134              		.loc 3 346 0
 1135              		.cfi_startproc
 1136              		@ args = 0, pretend = 0, frame = 0
 1137              		@ frame_needed = 0, uses_anonymous_args = 0
 1138 0000 08B5     		push	{r3, lr}
 1139              		.cfi_def_cfa_offset 8
 1140              		.cfi_offset 3, -8
 1141              		.cfi_offset 14, -4
 1142              		.loc 3 348 0
 1143 0002 FFF7FEFF 		bl	port_lock
 1144              		.loc 3 351 0
 1145 0006 08BD     		pop	{r3, pc}
 1146              		.cfi_endproc
 1147              	.LFE167:
 1148              		.size	chSysLock, .-chSysLock
 1149              		.section	.text.chSysUnlock,"ax",%progbits
 1150              		.align	2
 1151              		.p2align 4,,15
 1152              		.thumb
 1153              		.thumb_func
 1154              		.type	chSysUnlock, %function
 1155              	chSysUnlock:
 1156              	.LFB168:
 1157              		.loc 3 358 0
 1158              		.cfi_startproc
 1159              		@ args = 0, pretend = 0, frame = 0
 1160              		@ frame_needed = 0, uses_anonymous_args = 0
 1161 0000 08B5     		push	{r3, lr}
 1162              		.cfi_def_cfa_offset 8
ARM GAS  /tmp/ccA2omAw.s 			page 84


 1163              		.cfi_offset 3, -8
 1164              		.cfi_offset 14, -4
 1165              		.loc 3 371 0
 1166 0002 FFF7FEFF 		bl	port_unlock
 1167              		.loc 3 372 0
 1168 0006 08BD     		pop	{r3, pc}
 1169              		.cfi_endproc
 1170              	.LFE168:
 1171              		.size	chSysUnlock, .-chSysUnlock
 1172 0008 AFF30080 		.section	.text.chEvtObjectInit,"ax",%progbits
 1172      AFF30080 
 1173              		.align	2
 1174              		.p2align 4,,15
 1175              		.thumb
 1176              		.thumb_func
 1177              		.type	chEvtObjectInit, %function
 1178              	chEvtObjectInit:
 1179              	.LFB216:
 1180              		.file 4 "../ChibiOS/os/rt/include/chevents.h"
 1181              		.loc 4 170 0
 1182              		.cfi_startproc
 1183              		@ args = 0, pretend = 0, frame = 8
 1184              		@ frame_needed = 0, uses_anonymous_args = 0
 1185              		@ link register save eliminated.
 1186 0000 82B0     		sub	sp, sp, #8
 1187              		.cfi_def_cfa_offset 8
 1188 0002 0190     		str	r0, [sp, #4]
 1189              		.loc 4 172 0
 1190 0004 019B     		ldr	r3, [sp, #4]
 1191 0006 019A     		ldr	r2, [sp, #4]
 1192 0008 1A60     		str	r2, [r3]
 1193              		.loc 4 173 0
 1194 000a 02B0     		add	sp, sp, #8
 1195              		@ sp needed
 1196 000c 7047     		bx	lr
 1197              		.cfi_endproc
 1198              	.LFE216:
 1199              		.size	chEvtObjectInit, .-chEvtObjectInit
 1200 000e 00BF     		.section	.text.chIQIsEmptyI,"ax",%progbits
 1201              		.align	2
 1202              		.p2align 4,,15
 1203              		.thumb
 1204              		.thumb_func
 1205              		.type	chIQIsEmptyI, %function
 1206              	chIQIsEmptyI:
 1207              	.LFB233:
 1208              		.file 5 "../ChibiOS/os/rt/include/chqueues.h"
 1209              		.loc 5 303 0
 1210              		.cfi_startproc
 1211              		@ args = 0, pretend = 0, frame = 8
 1212              		@ frame_needed = 0, uses_anonymous_args = 0
 1213              		@ link register save eliminated.
 1214 0000 82B0     		sub	sp, sp, #8
 1215              		.cfi_def_cfa_offset 8
 1216 0002 0190     		str	r0, [sp, #4]
 1217              		.loc 5 307 0
 1218 0004 019B     		ldr	r3, [sp, #4]
ARM GAS  /tmp/ccA2omAw.s 			page 85


 1219 0006 9B68     		ldr	r3, [r3, #8]
 1220 0008 002B     		cmp	r3, #0
 1221 000a 14BF     		ite	ne
 1222 000c 0023     		movne	r3, #0
 1223 000e 0123     		moveq	r3, #1
 1224 0010 DBB2     		uxtb	r3, r3
 1225              		.loc 5 308 0
 1226 0012 1846     		mov	r0, r3
 1227 0014 02B0     		add	sp, sp, #8
 1228              		@ sp needed
 1229 0016 7047     		bx	lr
 1230              		.cfi_endproc
 1231              	.LFE233:
 1232              		.size	chIQIsEmptyI, .-chIQIsEmptyI
 1233 0018 AFF30080 		.section	.text.chOQIsFullI,"ax",%progbits
 1233      AFF30080 
 1234              		.align	2
 1235              		.p2align 4,,15
 1236              		.thumb
 1237              		.thumb_func
 1238              		.type	chOQIsFullI, %function
 1239              	chOQIsFullI:
 1240              	.LFB239:
 1241              		.loc 5 407 0
 1242              		.cfi_startproc
 1243              		@ args = 0, pretend = 0, frame = 8
 1244              		@ frame_needed = 0, uses_anonymous_args = 0
 1245              		@ link register save eliminated.
 1246 0000 82B0     		sub	sp, sp, #8
 1247              		.cfi_def_cfa_offset 8
 1248 0002 0190     		str	r0, [sp, #4]
 1249              		.loc 5 411 0
 1250 0004 019B     		ldr	r3, [sp, #4]
 1251 0006 9B68     		ldr	r3, [r3, #8]
 1252 0008 002B     		cmp	r3, #0
 1253 000a 14BF     		ite	ne
 1254 000c 0023     		movne	r3, #0
 1255 000e 0123     		moveq	r3, #1
 1256 0010 DBB2     		uxtb	r3, r3
 1257              		.loc 5 412 0
 1258 0012 1846     		mov	r0, r3
 1259 0014 02B0     		add	sp, sp, #8
 1260              		@ sp needed
 1261 0016 7047     		bx	lr
 1262              		.cfi_endproc
 1263              	.LFE239:
 1264              		.size	chOQIsFullI, .-chOQIsFullI
 1265 0018 AFF30080 		.section	.text.osalSysLock,"ax",%progbits
 1265      AFF30080 
 1266              		.align	2
 1267              		.p2align 4,,15
 1268              		.thumb
 1269              		.thumb_func
 1270              		.type	osalSysLock, %function
 1271              	osalSysLock:
 1272              	.LFB245:
 1273              		.file 6 "../ChibiOS/os/hal/osal/rt/osal.h"
ARM GAS  /tmp/ccA2omAw.s 			page 86


 1274              		.loc 6 491 0
 1275              		.cfi_startproc
 1276              		@ args = 0, pretend = 0, frame = 0
 1277              		@ frame_needed = 0, uses_anonymous_args = 0
 1278 0000 08B5     		push	{r3, lr}
 1279              		.cfi_def_cfa_offset 8
 1280              		.cfi_offset 3, -8
 1281              		.cfi_offset 14, -4
 1282              		.loc 6 493 0
 1283 0002 FFF7FEFF 		bl	chSysLock
 1284              		.loc 6 494 0
 1285 0006 08BD     		pop	{r3, pc}
 1286              		.cfi_endproc
 1287              	.LFE245:
 1288              		.size	osalSysLock, .-osalSysLock
 1289              		.section	.text.osalSysUnlock,"ax",%progbits
 1290              		.align	2
 1291              		.p2align 4,,15
 1292              		.thumb
 1293              		.thumb_func
 1294              		.type	osalSysUnlock, %function
 1295              	osalSysUnlock:
 1296              	.LFB246:
 1297              		.loc 6 502 0
 1298              		.cfi_startproc
 1299              		@ args = 0, pretend = 0, frame = 0
 1300              		@ frame_needed = 0, uses_anonymous_args = 0
 1301 0000 08B5     		push	{r3, lr}
 1302              		.cfi_def_cfa_offset 8
 1303              		.cfi_offset 3, -8
 1304              		.cfi_offset 14, -4
 1305              		.loc 6 504 0
 1306 0002 FFF7FEFF 		bl	chSysUnlock
 1307              		.loc 6 505 0
 1308 0006 08BD     		pop	{r3, pc}
 1309              		.cfi_endproc
 1310              	.LFE246:
 1311              		.size	osalSysUnlock, .-osalSysUnlock
 1312 0008 AFF30080 		.section	.text.osalOsRescheduleS,"ax",%progbits
 1312      AFF30080 
 1313              		.align	2
 1314              		.p2align 4,,15
 1315              		.thumb
 1316              		.thumb_func
 1317              		.type	osalOsRescheduleS, %function
 1318              	osalOsRescheduleS:
 1319              	.LFB253:
 1320              		.loc 6 598 0
 1321              		.cfi_startproc
 1322              		@ args = 0, pretend = 0, frame = 0
 1323              		@ frame_needed = 0, uses_anonymous_args = 0
 1324 0000 08B5     		push	{r3, lr}
 1325              		.cfi_def_cfa_offset 8
 1326              		.cfi_offset 3, -8
 1327              		.cfi_offset 14, -4
 1328              		.loc 6 600 0
 1329 0002 FFF7FEFF 		bl	chSchRescheduleS
ARM GAS  /tmp/ccA2omAw.s 			page 87


 1330              		.loc 6 601 0
 1331 0006 08BD     		pop	{r3, pc}
 1332              		.cfi_endproc
 1333              	.LFE253:
 1334              		.size	osalOsRescheduleS, .-osalOsRescheduleS
 1335 0008 AFF30080 		.section	.text.osalEventObjectInit,"ax",%progbits
 1335      AFF30080 
 1336              		.align	2
 1337              		.p2align 4,,15
 1338              		.thumb
 1339              		.thumb_func
 1340              		.type	osalEventObjectInit, %function
 1341              	osalEventObjectInit:
 1342              	.LFB266:
 1343              		.loc 6 821 0
 1344              		.cfi_startproc
 1345              		@ args = 0, pretend = 0, frame = 8
 1346              		@ frame_needed = 0, uses_anonymous_args = 0
 1347 0000 00B5     		push	{lr}
 1348              		.cfi_def_cfa_offset 4
 1349              		.cfi_offset 14, -4
 1350 0002 83B0     		sub	sp, sp, #12
 1351              		.cfi_def_cfa_offset 16
 1352 0004 0190     		str	r0, [sp, #4]
 1353              		.loc 6 823 0
 1354 0006 0198     		ldr	r0, [sp, #4]
 1355 0008 FFF7FEFF 		bl	chEvtObjectInit
 1356              		.loc 6 824 0
 1357 000c 03B0     		add	sp, sp, #12
 1358              		@ sp needed
 1359 000e 5DF804FB 		ldr	pc, [sp], #4
 1360              		.cfi_endproc
 1361              	.LFE266:
 1362              		.size	osalEventObjectInit, .-osalEventObjectInit
 1363 0012 00BFAFF3 		.section	.text.osalEventBroadcastFlagsI,"ax",%progbits
 1363      0080AFF3 
 1363      0080AFF3 
 1363      0080
 1364              		.align	2
 1365              		.p2align 4,,15
 1366              		.thumb
 1367              		.thumb_func
 1368              		.type	osalEventBroadcastFlagsI, %function
 1369              	osalEventBroadcastFlagsI:
 1370              	.LFB267:
 1371              		.loc 6 842 0
 1372              		.cfi_startproc
 1373              		@ args = 0, pretend = 0, frame = 8
 1374              		@ frame_needed = 0, uses_anonymous_args = 0
 1375 0000 00B5     		push	{lr}
 1376              		.cfi_def_cfa_offset 4
 1377              		.cfi_offset 14, -4
 1378 0002 83B0     		sub	sp, sp, #12
 1379              		.cfi_def_cfa_offset 16
 1380 0004 0190     		str	r0, [sp, #4]
 1381 0006 0091     		str	r1, [sp]
 1382              		.loc 6 844 0
ARM GAS  /tmp/ccA2omAw.s 			page 88


 1383 0008 0198     		ldr	r0, [sp, #4]
 1384 000a 0099     		ldr	r1, [sp]
 1385 000c FFF7FEFF 		bl	chEvtBroadcastFlagsI
 1386              		.loc 6 845 0
 1387 0010 03B0     		add	sp, sp, #12
 1388              		@ sp needed
 1389 0012 5DF804FB 		ldr	pc, [sp], #4
 1390              		.cfi_endproc
 1391              	.LFE267:
 1392              		.size	osalEventBroadcastFlagsI, .-osalEventBroadcastFlagsI
 1393 0016 00BFAFF3 		.section	.text.write,"ax",%progbits
 1393      0080AFF3 
 1393      0080
 1394              		.align	2
 1395              		.p2align 4,,15
 1396              		.thumb
 1397              		.thumb_func
 1398              		.type	write, %function
 1399              	write:
 1400              	.LFB272:
 1401              		.file 7 "../ChibiOS/os/hal/src/serial.c"
 1402              		.loc 7 50 0
 1403              		.cfi_startproc
 1404              		@ args = 0, pretend = 0, frame = 16
 1405              		@ frame_needed = 0, uses_anonymous_args = 0
 1406 0000 00B5     		push	{lr}
 1407              		.cfi_def_cfa_offset 4
 1408              		.cfi_offset 14, -4
 1409 0002 85B0     		sub	sp, sp, #20
 1410              		.cfi_def_cfa_offset 24
 1411 0004 0390     		str	r0, [sp, #12]
 1412 0006 0291     		str	r1, [sp, #8]
 1413 0008 0192     		str	r2, [sp, #4]
 1414              		.loc 7 52 0
 1415 000a 039B     		ldr	r3, [sp, #12]
 1416 000c 3033     		adds	r3, r3, #48
 1417 000e 1846     		mov	r0, r3
 1418 0010 0299     		ldr	r1, [sp, #8]
 1419 0012 019A     		ldr	r2, [sp, #4]
 1420 0014 4FF0FF33 		mov	r3, #-1
 1421 0018 FFF7FEFF 		bl	chOQWriteTimeout
 1422 001c 0346     		mov	r3, r0
 1423              		.loc 7 54 0
 1424 001e 1846     		mov	r0, r3
 1425 0020 05B0     		add	sp, sp, #20
 1426              		@ sp needed
 1427 0022 5DF804FB 		ldr	pc, [sp], #4
 1428              		.cfi_endproc
 1429              	.LFE272:
 1430              		.size	write, .-write
 1431 0026 00BFAFF3 		.section	.text.read,"ax",%progbits
 1431      0080AFF3 
 1431      0080
 1432              		.align	2
 1433              		.p2align 4,,15
 1434              		.thumb
 1435              		.thumb_func
ARM GAS  /tmp/ccA2omAw.s 			page 89


 1436              		.type	read, %function
 1437              	read:
 1438              	.LFB273:
 1439              		.loc 7 56 0
 1440              		.cfi_startproc
 1441              		@ args = 0, pretend = 0, frame = 16
 1442              		@ frame_needed = 0, uses_anonymous_args = 0
 1443 0000 00B5     		push	{lr}
 1444              		.cfi_def_cfa_offset 4
 1445              		.cfi_offset 14, -4
 1446 0002 85B0     		sub	sp, sp, #20
 1447              		.cfi_def_cfa_offset 24
 1448 0004 0390     		str	r0, [sp, #12]
 1449 0006 0291     		str	r1, [sp, #8]
 1450 0008 0192     		str	r2, [sp, #4]
 1451              		.loc 7 58 0
 1452 000a 039B     		ldr	r3, [sp, #12]
 1453 000c 0C33     		adds	r3, r3, #12
 1454 000e 1846     		mov	r0, r3
 1455 0010 0299     		ldr	r1, [sp, #8]
 1456 0012 019A     		ldr	r2, [sp, #4]
 1457 0014 4FF0FF33 		mov	r3, #-1
 1458 0018 FFF7FEFF 		bl	chIQReadTimeout
 1459 001c 0346     		mov	r3, r0
 1460              		.loc 7 60 0
 1461 001e 1846     		mov	r0, r3
 1462 0020 05B0     		add	sp, sp, #20
 1463              		@ sp needed
 1464 0022 5DF804FB 		ldr	pc, [sp], #4
 1465              		.cfi_endproc
 1466              	.LFE273:
 1467              		.size	read, .-read
 1468 0026 00BFAFF3 		.section	.text.put,"ax",%progbits
 1468      0080AFF3 
 1468      0080
 1469              		.align	2
 1470              		.p2align 4,,15
 1471              		.thumb
 1472              		.thumb_func
 1473              		.type	put, %function
 1474              	put:
 1475              	.LFB274:
 1476              		.loc 7 62 0
 1477              		.cfi_startproc
 1478              		@ args = 0, pretend = 0, frame = 8
 1479              		@ frame_needed = 0, uses_anonymous_args = 0
 1480 0000 00B5     		push	{lr}
 1481              		.cfi_def_cfa_offset 4
 1482              		.cfi_offset 14, -4
 1483 0002 83B0     		sub	sp, sp, #12
 1484              		.cfi_def_cfa_offset 16
 1485 0004 0190     		str	r0, [sp, #4]
 1486 0006 0B46     		mov	r3, r1
 1487 0008 8DF80330 		strb	r3, [sp, #3]
 1488              		.loc 7 64 0
 1489 000c 019B     		ldr	r3, [sp, #4]
 1490 000e 03F13002 		add	r2, r3, #48
ARM GAS  /tmp/ccA2omAw.s 			page 90


 1491 0012 9DF80330 		ldrb	r3, [sp, #3]	@ zero_extendqisi2
 1492 0016 1046     		mov	r0, r2
 1493 0018 1946     		mov	r1, r3
 1494 001a 4FF0FF32 		mov	r2, #-1
 1495 001e FFF7FEFF 		bl	chOQPutTimeout
 1496 0022 0346     		mov	r3, r0
 1497              		.loc 7 65 0
 1498 0024 1846     		mov	r0, r3
 1499 0026 03B0     		add	sp, sp, #12
 1500              		@ sp needed
 1501 0028 5DF804FB 		ldr	pc, [sp], #4
 1502              		.cfi_endproc
 1503              	.LFE274:
 1504              		.size	put, .-put
 1505 002c AFF30080 		.section	.text.get,"ax",%progbits
 1506              		.align	2
 1507              		.p2align 4,,15
 1508              		.thumb
 1509              		.thumb_func
 1510              		.type	get, %function
 1511              	get:
 1512              	.LFB275:
 1513              		.loc 7 67 0
 1514              		.cfi_startproc
 1515              		@ args = 0, pretend = 0, frame = 8
 1516              		@ frame_needed = 0, uses_anonymous_args = 0
 1517 0000 00B5     		push	{lr}
 1518              		.cfi_def_cfa_offset 4
 1519              		.cfi_offset 14, -4
 1520 0002 83B0     		sub	sp, sp, #12
 1521              		.cfi_def_cfa_offset 16
 1522 0004 0190     		str	r0, [sp, #4]
 1523              		.loc 7 69 0
 1524 0006 019B     		ldr	r3, [sp, #4]
 1525 0008 0C33     		adds	r3, r3, #12
 1526 000a 1846     		mov	r0, r3
 1527 000c 4FF0FF31 		mov	r1, #-1
 1528 0010 FFF7FEFF 		bl	chIQGetTimeout
 1529 0014 0346     		mov	r3, r0
 1530              		.loc 7 70 0
 1531 0016 1846     		mov	r0, r3
 1532 0018 03B0     		add	sp, sp, #12
 1533              		@ sp needed
 1534 001a 5DF804FB 		ldr	pc, [sp], #4
 1535              		.cfi_endproc
 1536              	.LFE275:
 1537              		.size	get, .-get
 1538 001e 00BF     		.section	.text.putt,"ax",%progbits
 1539              		.align	2
 1540              		.p2align 4,,15
 1541              		.thumb
 1542              		.thumb_func
 1543              		.type	putt, %function
 1544              	putt:
 1545              	.LFB276:
 1546              		.loc 7 72 0
 1547              		.cfi_startproc
ARM GAS  /tmp/ccA2omAw.s 			page 91


 1548              		@ args = 0, pretend = 0, frame = 16
 1549              		@ frame_needed = 0, uses_anonymous_args = 0
 1550 0000 00B5     		push	{lr}
 1551              		.cfi_def_cfa_offset 4
 1552              		.cfi_offset 14, -4
 1553 0002 85B0     		sub	sp, sp, #20
 1554              		.cfi_def_cfa_offset 24
 1555 0004 0390     		str	r0, [sp, #12]
 1556 0006 0B46     		mov	r3, r1
 1557 0008 0192     		str	r2, [sp, #4]
 1558 000a 8DF80B30 		strb	r3, [sp, #11]
 1559              		.loc 7 74 0
 1560 000e 039B     		ldr	r3, [sp, #12]
 1561 0010 03F13002 		add	r2, r3, #48
 1562 0014 9DF80B30 		ldrb	r3, [sp, #11]	@ zero_extendqisi2
 1563 0018 1046     		mov	r0, r2
 1564 001a 1946     		mov	r1, r3
 1565 001c 019A     		ldr	r2, [sp, #4]
 1566 001e FFF7FEFF 		bl	chOQPutTimeout
 1567 0022 0346     		mov	r3, r0
 1568              		.loc 7 75 0
 1569 0024 1846     		mov	r0, r3
 1570 0026 05B0     		add	sp, sp, #20
 1571              		@ sp needed
 1572 0028 5DF804FB 		ldr	pc, [sp], #4
 1573              		.cfi_endproc
 1574              	.LFE276:
 1575              		.size	putt, .-putt
 1576 002c AFF30080 		.section	.text.gett,"ax",%progbits
 1577              		.align	2
 1578              		.p2align 4,,15
 1579              		.thumb
 1580              		.thumb_func
 1581              		.type	gett, %function
 1582              	gett:
 1583              	.LFB277:
 1584              		.loc 7 77 0
 1585              		.cfi_startproc
 1586              		@ args = 0, pretend = 0, frame = 8
 1587              		@ frame_needed = 0, uses_anonymous_args = 0
 1588 0000 00B5     		push	{lr}
 1589              		.cfi_def_cfa_offset 4
 1590              		.cfi_offset 14, -4
 1591 0002 83B0     		sub	sp, sp, #12
 1592              		.cfi_def_cfa_offset 16
 1593 0004 0190     		str	r0, [sp, #4]
 1594 0006 0091     		str	r1, [sp]
 1595              		.loc 7 79 0
 1596 0008 019B     		ldr	r3, [sp, #4]
 1597 000a 0C33     		adds	r3, r3, #12
 1598 000c 1846     		mov	r0, r3
 1599 000e 0099     		ldr	r1, [sp]
 1600 0010 FFF7FEFF 		bl	chIQGetTimeout
 1601 0014 0346     		mov	r3, r0
 1602              		.loc 7 80 0
 1603 0016 1846     		mov	r0, r3
 1604 0018 03B0     		add	sp, sp, #12
ARM GAS  /tmp/ccA2omAw.s 			page 92


 1605              		@ sp needed
 1606 001a 5DF804FB 		ldr	pc, [sp], #4
 1607              		.cfi_endproc
 1608              	.LFE277:
 1609              		.size	gett, .-gett
 1610 001e 00BF     		.section	.text.writet,"ax",%progbits
 1611              		.align	2
 1612              		.p2align 4,,15
 1613              		.thumb
 1614              		.thumb_func
 1615              		.type	writet, %function
 1616              	writet:
 1617              	.LFB278:
 1618              		.loc 7 82 0
 1619              		.cfi_startproc
 1620              		@ args = 0, pretend = 0, frame = 16
 1621              		@ frame_needed = 0, uses_anonymous_args = 0
 1622 0000 00B5     		push	{lr}
 1623              		.cfi_def_cfa_offset 4
 1624              		.cfi_offset 14, -4
 1625 0002 85B0     		sub	sp, sp, #20
 1626              		.cfi_def_cfa_offset 24
 1627 0004 0390     		str	r0, [sp, #12]
 1628 0006 0291     		str	r1, [sp, #8]
 1629 0008 0192     		str	r2, [sp, #4]
 1630 000a 0093     		str	r3, [sp]
 1631              		.loc 7 84 0
 1632 000c 039B     		ldr	r3, [sp, #12]
 1633 000e 3033     		adds	r3, r3, #48
 1634 0010 1846     		mov	r0, r3
 1635 0012 0299     		ldr	r1, [sp, #8]
 1636 0014 019A     		ldr	r2, [sp, #4]
 1637 0016 009B     		ldr	r3, [sp]
 1638 0018 FFF7FEFF 		bl	chOQWriteTimeout
 1639 001c 0346     		mov	r3, r0
 1640              		.loc 7 85 0
 1641 001e 1846     		mov	r0, r3
 1642 0020 05B0     		add	sp, sp, #20
 1643              		@ sp needed
 1644 0022 5DF804FB 		ldr	pc, [sp], #4
 1645              		.cfi_endproc
 1646              	.LFE278:
 1647              		.size	writet, .-writet
 1648 0026 00BFAFF3 		.section	.text.readt,"ax",%progbits
 1648      0080AFF3 
 1648      0080
 1649              		.align	2
 1650              		.p2align 4,,15
 1651              		.thumb
 1652              		.thumb_func
 1653              		.type	readt, %function
 1654              	readt:
 1655              	.LFB279:
 1656              		.loc 7 87 0
 1657              		.cfi_startproc
 1658              		@ args = 0, pretend = 0, frame = 16
 1659              		@ frame_needed = 0, uses_anonymous_args = 0
ARM GAS  /tmp/ccA2omAw.s 			page 93


 1660 0000 00B5     		push	{lr}
 1661              		.cfi_def_cfa_offset 4
 1662              		.cfi_offset 14, -4
 1663 0002 85B0     		sub	sp, sp, #20
 1664              		.cfi_def_cfa_offset 24
 1665 0004 0390     		str	r0, [sp, #12]
 1666 0006 0291     		str	r1, [sp, #8]
 1667 0008 0192     		str	r2, [sp, #4]
 1668 000a 0093     		str	r3, [sp]
 1669              		.loc 7 89 0
 1670 000c 039B     		ldr	r3, [sp, #12]
 1671 000e 0C33     		adds	r3, r3, #12
 1672 0010 1846     		mov	r0, r3
 1673 0012 0299     		ldr	r1, [sp, #8]
 1674 0014 019A     		ldr	r2, [sp, #4]
 1675 0016 009B     		ldr	r3, [sp]
 1676 0018 FFF7FEFF 		bl	chIQReadTimeout
 1677 001c 0346     		mov	r3, r0
 1678              		.loc 7 90 0
 1679 001e 1846     		mov	r0, r3
 1680 0020 05B0     		add	sp, sp, #20
 1681              		@ sp needed
 1682 0022 5DF804FB 		ldr	pc, [sp], #4
 1683              		.cfi_endproc
 1684              	.LFE279:
 1685              		.size	readt, .-readt
 1686 0026 00BFAFF3 		.section	.rodata.vmt,"a",%progbits
 1686      0080AFF3 
 1686      0080
 1687              		.align	2
 1688              		.type	vmt, %object
 1689              		.size	vmt, 32
 1690              	vmt:
 1691 0000 00000000 		.word	write
 1692 0004 00000000 		.word	read
 1693 0008 00000000 		.word	put
 1694 000c 00000000 		.word	get
 1695 0010 00000000 		.word	putt
 1696 0014 00000000 		.word	gett
 1697 0018 00000000 		.word	writet
 1698 001c 00000000 		.word	readt
 1699              		.section	.text.sdInit,"ax",%progbits
 1700              		.align	2
 1701              		.p2align 4,,15
 1702              		.global	sdInit
 1703              		.thumb
 1704              		.thumb_func
 1705              		.type	sdInit, %function
 1706              	sdInit:
 1707              	.LFB280:
 1708              		.loc 7 108 0
 1709              		.cfi_startproc
 1710              		@ args = 0, pretend = 0, frame = 0
 1711              		@ frame_needed = 0, uses_anonymous_args = 0
 1712 0000 08B5     		push	{r3, lr}
 1713              		.cfi_def_cfa_offset 8
 1714              		.cfi_offset 3, -8
ARM GAS  /tmp/ccA2omAw.s 			page 94


 1715              		.cfi_offset 14, -4
 1716              		.loc 7 110 0
 1717 0002 FFF7FEFF 		bl	sd_lld_init
 1718              		.loc 7 111 0
 1719 0006 08BD     		pop	{r3, pc}
 1720              		.cfi_endproc
 1721              	.LFE280:
 1722              		.size	sdInit, .-sdInit
 1723              		.section	.text.sdObjectInit,"ax",%progbits
 1724              		.align	2
 1725              		.p2align 4,,15
 1726              		.global	sdObjectInit
 1727              		.thumb
 1728              		.thumb_func
 1729              		.type	sdObjectInit, %function
 1730              	sdObjectInit:
 1731              	.LFB281:
 1732              		.loc 7 128 0
 1733              		.cfi_startproc
 1734              		@ args = 0, pretend = 0, frame = 16
 1735              		@ frame_needed = 0, uses_anonymous_args = 0
 1736 0000 00B5     		push	{lr}
 1737              		.cfi_def_cfa_offset 4
 1738              		.cfi_offset 14, -4
 1739 0002 87B0     		sub	sp, sp, #28
 1740              		.cfi_def_cfa_offset 32
 1741 0004 0590     		str	r0, [sp, #20]
 1742 0006 0491     		str	r1, [sp, #16]
 1743 0008 0392     		str	r2, [sp, #12]
 1744              		.loc 7 130 0
 1745 000a 059B     		ldr	r3, [sp, #20]
 1746 000c 134A     		ldr	r2, .L33
 1747 000e 1A60     		str	r2, [r3]
 1748              		.loc 7 131 0
 1749 0010 059B     		ldr	r3, [sp, #20]
 1750 0012 0433     		adds	r3, r3, #4
 1751 0014 1846     		mov	r0, r3
 1752 0016 FFF7FEFF 		bl	osalEventObjectInit
 1753              		.loc 7 132 0
 1754 001a 059B     		ldr	r3, [sp, #20]
 1755 001c 0122     		movs	r2, #1
 1756 001e 1A72     		strb	r2, [r3, #8]
 1757              		.loc 7 133 0
 1758 0020 059B     		ldr	r3, [sp, #20]
 1759 0022 03F10C02 		add	r2, r3, #12
 1760 0026 059B     		ldr	r3, [sp, #20]
 1761 0028 5433     		adds	r3, r3, #84
 1762 002a 0599     		ldr	r1, [sp, #20]
 1763 002c 0091     		str	r1, [sp]
 1764 002e 1046     		mov	r0, r2
 1765 0030 1946     		mov	r1, r3
 1766 0032 1022     		movs	r2, #16
 1767 0034 049B     		ldr	r3, [sp, #16]
 1768 0036 FFF7FEFF 		bl	chIQObjectInit
 1769              		.loc 7 134 0
 1770 003a 059B     		ldr	r3, [sp, #20]
 1771 003c 03F13002 		add	r2, r3, #48
ARM GAS  /tmp/ccA2omAw.s 			page 95


 1772 0040 059B     		ldr	r3, [sp, #20]
 1773 0042 6433     		adds	r3, r3, #100
 1774 0044 0599     		ldr	r1, [sp, #20]
 1775 0046 0091     		str	r1, [sp]
 1776 0048 1046     		mov	r0, r2
 1777 004a 1946     		mov	r1, r3
 1778 004c 1022     		movs	r2, #16
 1779 004e 039B     		ldr	r3, [sp, #12]
 1780 0050 FFF7FEFF 		bl	chOQObjectInit
 1781              		.loc 7 135 0
 1782 0054 07B0     		add	sp, sp, #28
 1783              		@ sp needed
 1784 0056 5DF804FB 		ldr	pc, [sp], #4
 1785              	.L34:
 1786 005a 00BF     		.align	2
 1787              	.L33:
 1788 005c 00000000 		.word	vmt
 1789              		.cfi_endproc
 1790              	.LFE281:
 1791              		.size	sdObjectInit, .-sdObjectInit
 1792              		.section	.text.sdStart,"ax",%progbits
 1793              		.align	2
 1794              		.p2align 4,,15
 1795              		.global	sdStart
 1796              		.thumb
 1797              		.thumb_func
 1798              		.type	sdStart, %function
 1799              	sdStart:
 1800              	.LFB282:
 1801              		.loc 7 147 0
 1802              		.cfi_startproc
 1803              		@ args = 0, pretend = 0, frame = 8
 1804              		@ frame_needed = 0, uses_anonymous_args = 0
 1805 0000 00B5     		push	{lr}
 1806              		.cfi_def_cfa_offset 4
 1807              		.cfi_offset 14, -4
 1808 0002 83B0     		sub	sp, sp, #12
 1809              		.cfi_def_cfa_offset 16
 1810 0004 0190     		str	r0, [sp, #4]
 1811 0006 0091     		str	r1, [sp]
 1812              		.loc 7 151 0
 1813 0008 FFF7FEFF 		bl	osalSysLock
 1814              		.loc 7 154 0
 1815 000c 0198     		ldr	r0, [sp, #4]
 1816 000e 0099     		ldr	r1, [sp]
 1817 0010 FFF7FEFF 		bl	sd_lld_start
 1818              		.loc 7 155 0
 1819 0014 019B     		ldr	r3, [sp, #4]
 1820 0016 0222     		movs	r2, #2
 1821 0018 1A72     		strb	r2, [r3, #8]
 1822              		.loc 7 156 0
 1823 001a FFF7FEFF 		bl	osalSysUnlock
 1824              		.loc 7 157 0
 1825 001e 03B0     		add	sp, sp, #12
 1826              		@ sp needed
 1827 0020 5DF804FB 		ldr	pc, [sp], #4
 1828              		.cfi_endproc
ARM GAS  /tmp/ccA2omAw.s 			page 96


 1829              	.LFE282:
 1830              		.size	sdStart, .-sdStart
 1831 0024 AFF30080 		.section	.text.sdStop,"ax",%progbits
 1831      AFF30080 
 1831      AFF30080 
 1832              		.align	2
 1833              		.p2align 4,,15
 1834              		.global	sdStop
 1835              		.thumb
 1836              		.thumb_func
 1837              		.type	sdStop, %function
 1838              	sdStop:
 1839              	.LFB283:
 1840              		.loc 7 168 0
 1841              		.cfi_startproc
 1842              		@ args = 0, pretend = 0, frame = 8
 1843              		@ frame_needed = 0, uses_anonymous_args = 0
 1844 0000 00B5     		push	{lr}
 1845              		.cfi_def_cfa_offset 4
 1846              		.cfi_offset 14, -4
 1847 0002 83B0     		sub	sp, sp, #12
 1848              		.cfi_def_cfa_offset 16
 1849 0004 0190     		str	r0, [sp, #4]
 1850              		.loc 7 172 0
 1851 0006 FFF7FEFF 		bl	osalSysLock
 1852              		.loc 7 175 0
 1853 000a 0198     		ldr	r0, [sp, #4]
 1854 000c FFF7FEFF 		bl	sd_lld_stop
 1855              		.loc 7 176 0
 1856 0010 019B     		ldr	r3, [sp, #4]
 1857 0012 0122     		movs	r2, #1
 1858 0014 1A72     		strb	r2, [r3, #8]
 1859              		.loc 7 177 0
 1860 0016 019B     		ldr	r3, [sp, #4]
 1861 0018 3033     		adds	r3, r3, #48
 1862 001a 1846     		mov	r0, r3
 1863 001c FFF7FEFF 		bl	chOQResetI
 1864              		.loc 7 178 0
 1865 0020 019B     		ldr	r3, [sp, #4]
 1866 0022 0C33     		adds	r3, r3, #12
 1867 0024 1846     		mov	r0, r3
 1868 0026 FFF7FEFF 		bl	chIQResetI
 1869              		.loc 7 179 0
 1870 002a FFF7FEFF 		bl	osalOsRescheduleS
 1871              		.loc 7 180 0
 1872 002e FFF7FEFF 		bl	osalSysUnlock
 1873              		.loc 7 181 0
 1874 0032 03B0     		add	sp, sp, #12
 1875              		@ sp needed
 1876 0034 5DF804FB 		ldr	pc, [sp], #4
 1877              		.cfi_endproc
 1878              	.LFE283:
 1879              		.size	sdStop, .-sdStop
 1880 0038 AFF30080 		.section	.text.sdIncomingDataI,"ax",%progbits
 1880      AFF30080 
 1881              		.align	2
 1882              		.p2align 4,,15
ARM GAS  /tmp/ccA2omAw.s 			page 97


 1883              		.global	sdIncomingDataI
 1884              		.thumb
 1885              		.thumb_func
 1886              		.type	sdIncomingDataI, %function
 1887              	sdIncomingDataI:
 1888              	.LFB284:
 1889              		.loc 7 199 0
 1890              		.cfi_startproc
 1891              		@ args = 0, pretend = 0, frame = 8
 1892              		@ frame_needed = 0, uses_anonymous_args = 0
 1893 0000 00B5     		push	{lr}
 1894              		.cfi_def_cfa_offset 4
 1895              		.cfi_offset 14, -4
 1896 0002 83B0     		sub	sp, sp, #12
 1897              		.cfi_def_cfa_offset 16
 1898 0004 0190     		str	r0, [sp, #4]
 1899 0006 0B46     		mov	r3, r1
 1900 0008 8DF80330 		strb	r3, [sp, #3]
 1901              		.loc 7 204 0
 1902 000c 019B     		ldr	r3, [sp, #4]
 1903 000e 0C33     		adds	r3, r3, #12
 1904 0010 1846     		mov	r0, r3
 1905 0012 FFF7FEFF 		bl	chIQIsEmptyI
 1906 0016 0346     		mov	r3, r0
 1907 0018 002B     		cmp	r3, #0
 1908 001a 05D0     		beq	.L38
 1909              		.loc 7 205 0
 1910 001c 019B     		ldr	r3, [sp, #4]
 1911 001e 0433     		adds	r3, r3, #4
 1912 0020 1846     		mov	r0, r3
 1913 0022 0421     		movs	r1, #4
 1914 0024 FFF7FEFF 		bl	osalEventBroadcastFlagsI
 1915              	.L38:
 1916              		.loc 7 206 0
 1917 0028 019B     		ldr	r3, [sp, #4]
 1918 002a 03F10C02 		add	r2, r3, #12
 1919 002e 9DF80330 		ldrb	r3, [sp, #3]	@ zero_extendqisi2
 1920 0032 1046     		mov	r0, r2
 1921 0034 1946     		mov	r1, r3
 1922 0036 FFF7FEFF 		bl	chIQPutI
 1923 003a 0346     		mov	r3, r0
 1924 003c 002B     		cmp	r3, #0
 1925 003e 05DA     		bge	.L37
 1926              		.loc 7 207 0
 1927 0040 019B     		ldr	r3, [sp, #4]
 1928 0042 0433     		adds	r3, r3, #4
 1929 0044 1846     		mov	r0, r3
 1930 0046 8021     		movs	r1, #128
 1931 0048 FFF7FEFF 		bl	osalEventBroadcastFlagsI
 1932              	.L37:
 1933              		.loc 7 208 0
 1934 004c 03B0     		add	sp, sp, #12
 1935              		@ sp needed
 1936 004e 5DF804FB 		ldr	pc, [sp], #4
 1937              		.cfi_endproc
 1938              	.LFE284:
 1939              		.size	sdIncomingDataI, .-sdIncomingDataI
ARM GAS  /tmp/ccA2omAw.s 			page 98


 1940 0052 00BFAFF3 		.section	.text.sdRequestDataI,"ax",%progbits
 1940      0080AFF3 
 1940      0080AFF3 
 1940      0080
 1941              		.align	2
 1942              		.p2align 4,,15
 1943              		.global	sdRequestDataI
 1944              		.thumb
 1945              		.thumb_func
 1946              		.type	sdRequestDataI, %function
 1947              	sdRequestDataI:
 1948              	.LFB285:
 1949              		.loc 7 225 0
 1950              		.cfi_startproc
 1951              		@ args = 0, pretend = 0, frame = 16
 1952              		@ frame_needed = 0, uses_anonymous_args = 0
 1953 0000 00B5     		push	{lr}
 1954              		.cfi_def_cfa_offset 4
 1955              		.cfi_offset 14, -4
 1956 0002 85B0     		sub	sp, sp, #20
 1957              		.cfi_def_cfa_offset 24
 1958 0004 0190     		str	r0, [sp, #4]
 1959              		.loc 7 231 0
 1960 0006 019B     		ldr	r3, [sp, #4]
 1961 0008 3033     		adds	r3, r3, #48
 1962 000a 1846     		mov	r0, r3
 1963 000c FFF7FEFF 		bl	chOQGetI
 1964 0010 0390     		str	r0, [sp, #12]
 1965              		.loc 7 232 0
 1966 0012 039B     		ldr	r3, [sp, #12]
 1967 0014 002B     		cmp	r3, #0
 1968 0016 05DA     		bge	.L41
 1969              		.loc 7 233 0
 1970 0018 019B     		ldr	r3, [sp, #4]
 1971 001a 0433     		adds	r3, r3, #4
 1972 001c 1846     		mov	r0, r3
 1973 001e 0821     		movs	r1, #8
 1974 0020 FFF7FEFF 		bl	osalEventBroadcastFlagsI
 1975              	.L41:
 1976              		.loc 7 234 0
 1977 0024 039B     		ldr	r3, [sp, #12]
 1978              		.loc 7 235 0
 1979 0026 1846     		mov	r0, r3
 1980 0028 05B0     		add	sp, sp, #20
 1981              		@ sp needed
 1982 002a 5DF804FB 		ldr	pc, [sp], #4
 1983              		.cfi_endproc
 1984              	.LFE285:
 1985              		.size	sdRequestDataI, .-sdRequestDataI
 1986 002e 00BF     		.section	.text.sdPutWouldBlock,"ax",%progbits
 1987              		.align	2
 1988              		.p2align 4,,15
 1989              		.global	sdPutWouldBlock
 1990              		.thumb
 1991              		.thumb_func
 1992              		.type	sdPutWouldBlock, %function
 1993              	sdPutWouldBlock:
ARM GAS  /tmp/ccA2omAw.s 			page 99


 1994              	.LFB286:
 1995              		.loc 7 252 0
 1996              		.cfi_startproc
 1997              		@ args = 0, pretend = 0, frame = 16
 1998              		@ frame_needed = 0, uses_anonymous_args = 0
 1999 0000 00B5     		push	{lr}
 2000              		.cfi_def_cfa_offset 4
 2001              		.cfi_offset 14, -4
 2002 0002 85B0     		sub	sp, sp, #20
 2003              		.cfi_def_cfa_offset 24
 2004 0004 0190     		str	r0, [sp, #4]
 2005              		.loc 7 255 0
 2006 0006 FFF7FEFF 		bl	osalSysLock
 2007              		.loc 7 256 0
 2008 000a 019B     		ldr	r3, [sp, #4]
 2009 000c 3033     		adds	r3, r3, #48
 2010 000e 1846     		mov	r0, r3
 2011 0010 FFF7FEFF 		bl	chOQIsFullI
 2012 0014 0346     		mov	r3, r0
 2013 0016 8DF80F30 		strb	r3, [sp, #15]
 2014              		.loc 7 257 0
 2015 001a FFF7FEFF 		bl	osalSysUnlock
 2016              		.loc 7 259 0
 2017 001e 9DF80F30 		ldrb	r3, [sp, #15]	@ zero_extendqisi2
 2018              		.loc 7 260 0
 2019 0022 1846     		mov	r0, r3
 2020 0024 05B0     		add	sp, sp, #20
 2021              		@ sp needed
 2022 0026 5DF804FB 		ldr	pc, [sp], #4
 2023              		.cfi_endproc
 2024              	.LFE286:
 2025              		.size	sdPutWouldBlock, .-sdPutWouldBlock
 2026 002a 00BFAFF3 		.section	.text.sdGetWouldBlock,"ax",%progbits
 2026      0080
 2027              		.align	2
 2028              		.p2align 4,,15
 2029              		.global	sdGetWouldBlock
 2030              		.thumb
 2031              		.thumb_func
 2032              		.type	sdGetWouldBlock, %function
 2033              	sdGetWouldBlock:
 2034              	.LFB287:
 2035              		.loc 7 277 0
 2036              		.cfi_startproc
 2037              		@ args = 0, pretend = 0, frame = 16
 2038              		@ frame_needed = 0, uses_anonymous_args = 0
 2039 0000 00B5     		push	{lr}
 2040              		.cfi_def_cfa_offset 4
 2041              		.cfi_offset 14, -4
 2042 0002 85B0     		sub	sp, sp, #20
 2043              		.cfi_def_cfa_offset 24
 2044 0004 0190     		str	r0, [sp, #4]
 2045              		.loc 7 280 0
 2046 0006 FFF7FEFF 		bl	osalSysLock
 2047              		.loc 7 281 0
 2048 000a 019B     		ldr	r3, [sp, #4]
 2049 000c 0C33     		adds	r3, r3, #12
ARM GAS  /tmp/ccA2omAw.s 			page 100


 2050 000e 1846     		mov	r0, r3
 2051 0010 FFF7FEFF 		bl	chIQIsEmptyI
 2052 0014 0346     		mov	r3, r0
 2053 0016 8DF80F30 		strb	r3, [sp, #15]
 2054              		.loc 7 282 0
 2055 001a FFF7FEFF 		bl	osalSysUnlock
 2056              		.loc 7 284 0
 2057 001e 9DF80F30 		ldrb	r3, [sp, #15]	@ zero_extendqisi2
 2058              		.loc 7 285 0
 2059 0022 1846     		mov	r0, r3
 2060 0024 05B0     		add	sp, sp, #20
 2061              		@ sp needed
 2062 0026 5DF804FB 		ldr	pc, [sp], #4
 2063              		.cfi_endproc
 2064              	.LFE287:
 2065              		.size	sdGetWouldBlock, .-sdGetWouldBlock
 2066 002a 00BFAFF3 		.text
 2066      0080
 2067              	.Letext0:
 2068              		.file 8 "/nfs/nfs5/home/research/hardware/arm2/gcc-arm-embedded/gcc-arm-none-eabi-4_8-2014q2/lib/g
 2069              		.file 9 "/nfs/nfs5/home/research/hardware/arm2/gcc-arm-embedded/gcc-arm-none-eabi-4_8-2014q2/arm-n
 2070              		.file 10 "/nfs/nfs5/home/research/hardware/arm2/gcc-arm-embedded/gcc-arm-none-eabi-4_8-2014q2/arm-
 2071              		.file 11 "../ChibiOS/os/rt/ports/ARMCMx/compilers/GCC/chtypes.h"
 2072              		.file 12 "../ChibiOS/os/rt/include/chsystypes.h"
 2073              		.file 13 "../ChibiOS/os/rt/include/chschd.h"
 2074              		.file 14 "../ChibiOS/os/ext/CMSIS/ST/STM32F3xx/stm32f303xc.h"
 2075              		.file 15 "../ChibiOS/os/rt/ports/ARMCMx/chcore.h"
 2076              		.file 16 "../ChibiOS/os/rt/include/chtm.h"
 2077              		.file 17 "../ChibiOS/os/rt/include/chsem.h"
 2078              		.file 18 "../ChibiOS/os/rt/include/chmtx.h"
 2079              		.file 19 "../ChibiOS/os/hal/include/serial.h"
 2080              		.file 20 "../ChibiOS/os/hal/ports/STM32/LLD/USARTv2/serial_lld.h"
 2081              		.file 21 "../ChibiOS/os/ext/CMSIS/include/core_cm4.h"
 2082              		.section	.debug_info,"",%progbits
 2083              	.Ldebug_info0:
 2084 0000 C6100000 		.4byte	0x10c6
 2085 0004 0400     		.2byte	0x4
 2086 0006 00000000 		.4byte	.Ldebug_abbrev0
 2087 000a 04       		.byte	0x4
 2088 000b 01       		.uleb128 0x1
 2089 000c EB030000 		.4byte	.LASF185
 2090 0010 01       		.byte	0x1
 2091 0011 00050000 		.4byte	.LASF186
 2092 0015 C5060000 		.4byte	.LASF187
 2093 0019 00000000 		.4byte	.Ldebug_ranges0+0
 2094 001d 00000000 		.4byte	0
 2095 0021 00000000 		.4byte	.Ldebug_line0
 2096 0025 02       		.uleb128 0x2
 2097 0026 04       		.byte	0x4
 2098 0027 05       		.byte	0x5
 2099 0028 696E7400 		.ascii	"int\000"
 2100 002c 03       		.uleb128 0x3
 2101 002d 23000000 		.4byte	.LASF2
 2102 0031 08       		.byte	0x8
 2103 0032 D4       		.byte	0xd4
 2104 0033 37000000 		.4byte	0x37
 2105 0037 04       		.uleb128 0x4
ARM GAS  /tmp/ccA2omAw.s 			page 101


 2106 0038 04       		.byte	0x4
 2107 0039 07       		.byte	0x7
 2108 003a 52020000 		.4byte	.LASF0
 2109 003e 04       		.uleb128 0x4
 2110 003f 01       		.byte	0x1
 2111 0040 06       		.byte	0x6
 2112 0041 2D010000 		.4byte	.LASF1
 2113 0045 03       		.uleb128 0x3
 2114 0046 43000000 		.4byte	.LASF3
 2115 004a 09       		.byte	0x9
 2116 004b 1C       		.byte	0x1c
 2117 004c 50000000 		.4byte	0x50
 2118 0050 04       		.uleb128 0x4
 2119 0051 01       		.byte	0x1
 2120 0052 08       		.byte	0x8
 2121 0053 B8050000 		.4byte	.LASF4
 2122 0057 04       		.uleb128 0x4
 2123 0058 02       		.byte	0x2
 2124 0059 05       		.byte	0x5
 2125 005a ED050000 		.4byte	.LASF5
 2126 005e 03       		.uleb128 0x3
 2127 005f 4B070000 		.4byte	.LASF6
 2128 0063 09       		.byte	0x9
 2129 0064 26       		.byte	0x26
 2130 0065 69000000 		.4byte	0x69
 2131 0069 04       		.uleb128 0x4
 2132 006a 02       		.byte	0x2
 2133 006b 07       		.byte	0x7
 2134 006c CA020000 		.4byte	.LASF7
 2135 0070 03       		.uleb128 0x3
 2136 0071 7D060000 		.4byte	.LASF8
 2137 0075 09       		.byte	0x9
 2138 0076 37       		.byte	0x37
 2139 0077 7B000000 		.4byte	0x7b
 2140 007b 04       		.uleb128 0x4
 2141 007c 04       		.byte	0x4
 2142 007d 05       		.byte	0x5
 2143 007e 88010000 		.4byte	.LASF9
 2144 0082 03       		.uleb128 0x3
 2145 0083 84070000 		.4byte	.LASF10
 2146 0087 09       		.byte	0x9
 2147 0088 38       		.byte	0x38
 2148 0089 8D000000 		.4byte	0x8d
 2149 008d 04       		.uleb128 0x4
 2150 008e 04       		.byte	0x4
 2151 008f 07       		.byte	0x7
 2152 0090 10070000 		.4byte	.LASF11
 2153 0094 04       		.uleb128 0x4
 2154 0095 08       		.byte	0x8
 2155 0096 05       		.byte	0x5
 2156 0097 1F010000 		.4byte	.LASF12
 2157 009b 03       		.uleb128 0x3
 2158 009c 36050000 		.4byte	.LASF13
 2159 00a0 09       		.byte	0x9
 2160 00a1 4E       		.byte	0x4e
 2161 00a2 A6000000 		.4byte	0xa6
 2162 00a6 04       		.uleb128 0x4
ARM GAS  /tmp/ccA2omAw.s 			page 102


 2163 00a7 08       		.byte	0x8
 2164 00a8 07       		.byte	0x7
 2165 00a9 46010000 		.4byte	.LASF14
 2166 00ad 03       		.uleb128 0x3
 2167 00ae 59080000 		.4byte	.LASF15
 2168 00b2 0A       		.byte	0xa
 2169 00b3 2A       		.byte	0x2a
 2170 00b4 45000000 		.4byte	0x45
 2171 00b8 03       		.uleb128 0x3
 2172 00b9 67020000 		.4byte	.LASF16
 2173 00bd 0A       		.byte	0xa
 2174 00be 36       		.byte	0x36
 2175 00bf 5E000000 		.4byte	0x5e
 2176 00c3 03       		.uleb128 0x3
 2177 00c4 B0050000 		.4byte	.LASF17
 2178 00c8 0A       		.byte	0xa
 2179 00c9 41       		.byte	0x41
 2180 00ca 70000000 		.4byte	0x70
 2181 00ce 03       		.uleb128 0x3
 2182 00cf 87060000 		.4byte	.LASF18
 2183 00d3 0A       		.byte	0xa
 2184 00d4 42       		.byte	0x42
 2185 00d5 82000000 		.4byte	0x82
 2186 00d9 03       		.uleb128 0x3
 2187 00da 3A000000 		.4byte	.LASF19
 2188 00de 0A       		.byte	0xa
 2189 00df 4E       		.byte	0x4e
 2190 00e0 9B000000 		.4byte	0x9b
 2191 00e4 03       		.uleb128 0x3
 2192 00e5 D9070000 		.4byte	.LASF20
 2193 00e9 0B       		.byte	0xb
 2194 00ea 39       		.byte	0x39
 2195 00eb CE000000 		.4byte	0xce
 2196 00ef 03       		.uleb128 0x3
 2197 00f0 27030000 		.4byte	.LASF21
 2198 00f4 0B       		.byte	0xb
 2199 00f5 3C       		.byte	0x3c
 2200 00f6 AD000000 		.4byte	0xad
 2201 00fa 03       		.uleb128 0x3
 2202 00fb 9E010000 		.4byte	.LASF22
 2203 00ff 0B       		.byte	0xb
 2204 0100 3D       		.byte	0x3d
 2205 0101 AD000000 		.4byte	0xad
 2206 0105 03       		.uleb128 0x3
 2207 0106 0E000000 		.4byte	.LASF23
 2208 010a 0B       		.byte	0xb
 2209 010b 3E       		.byte	0x3e
 2210 010c AD000000 		.4byte	0xad
 2211 0110 03       		.uleb128 0x3
 2212 0111 8A050000 		.4byte	.LASF24
 2213 0115 0B       		.byte	0xb
 2214 0116 40       		.byte	0x40
 2215 0117 CE000000 		.4byte	0xce
 2216 011b 03       		.uleb128 0x3
 2217 011c F1020000 		.4byte	.LASF25
 2218 0120 0B       		.byte	0xb
 2219 0121 41       		.byte	0x41
ARM GAS  /tmp/ccA2omAw.s 			page 103


 2220 0122 C3000000 		.4byte	0xc3
 2221 0126 03       		.uleb128 0x3
 2222 0127 3D030000 		.4byte	.LASF26
 2223 012b 0B       		.byte	0xb
 2224 012c 43       		.byte	0x43
 2225 012d CE000000 		.4byte	0xce
 2226 0131 03       		.uleb128 0x3
 2227 0132 F1070000 		.4byte	.LASF27
 2228 0136 0B       		.byte	0xb
 2229 0137 44       		.byte	0x44
 2230 0138 CE000000 		.4byte	0xce
 2231 013c 03       		.uleb128 0x3
 2232 013d 46020000 		.4byte	.LASF28
 2233 0141 0B       		.byte	0xb
 2234 0142 45       		.byte	0x45
 2235 0143 C3000000 		.4byte	0xc3
 2236 0147 03       		.uleb128 0x3
 2237 0148 66070000 		.4byte	.LASF29
 2238 014c 0C       		.byte	0xc
 2239 014d 33       		.byte	0x33
 2240 014e CE000000 		.4byte	0xce
 2241 0152 03       		.uleb128 0x3
 2242 0153 56070000 		.4byte	.LASF30
 2243 0157 0C       		.byte	0xc
 2244 0158 3F       		.byte	0x3f
 2245 0159 5D010000 		.4byte	0x15d
 2246 015d 05       		.uleb128 0x5
 2247 015e DD020000 		.4byte	.LASF50
 2248 0162 44       		.byte	0x44
 2249 0163 0D       		.byte	0xd
 2250 0164 C2       		.byte	0xc2
 2251 0165 49020000 		.4byte	0x249
 2252 0169 06       		.uleb128 0x6
 2253 016a 05060000 		.4byte	.LASF31
 2254 016e 0D       		.byte	0xd
 2255 016f C3       		.byte	0xc3
 2256 0170 54020000 		.4byte	0x254
 2257 0174 00       		.byte	0
 2258 0175 06       		.uleb128 0x6
 2259 0176 77050000 		.4byte	.LASF32
 2260 017a 0D       		.byte	0xd
 2261 017b C5       		.byte	0xc5
 2262 017c 54020000 		.4byte	0x254
 2263 0180 04       		.byte	0x4
 2264 0181 06       		.uleb128 0x6
 2265 0182 CA030000 		.4byte	.LASF33
 2266 0186 0D       		.byte	0xd
 2267 0187 C7       		.byte	0xc7
 2268 0188 10010000 		.4byte	0x110
 2269 018c 08       		.byte	0x8
 2270 018d 06       		.uleb128 0x6
 2271 018e CB080000 		.4byte	.LASF34
 2272 0192 0D       		.byte	0xd
 2273 0193 C8       		.byte	0xc8
 2274 0194 4D050000 		.4byte	0x54d
 2275 0198 0C       		.byte	0xc
 2276 0199 06       		.uleb128 0x6
ARM GAS  /tmp/ccA2omAw.s 			page 104


 2277 019a C7010000 		.4byte	.LASF35
 2278 019e 0D       		.byte	0xd
 2279 019f CA       		.byte	0xca
 2280 01a0 54020000 		.4byte	0x254
 2281 01a4 10       		.byte	0x10
 2282 01a5 06       		.uleb128 0x6
 2283 01a6 DD030000 		.4byte	.LASF36
 2284 01aa 0D       		.byte	0xd
 2285 01ab CB       		.byte	0xcb
 2286 01ac 54020000 		.4byte	0x254
 2287 01b0 14       		.byte	0x14
 2288 01b1 06       		.uleb128 0x6
 2289 01b2 14060000 		.4byte	.LASF37
 2290 01b6 0D       		.byte	0xd
 2291 01b7 D2       		.byte	0xd2
 2292 01b8 D8060000 		.4byte	0x6d8
 2293 01bc 18       		.byte	0x18
 2294 01bd 06       		.uleb128 0x6
 2295 01be DC040000 		.4byte	.LASF38
 2296 01c2 0D       		.byte	0xd
 2297 01c3 D8       		.byte	0xd8
 2298 01c4 EA060000 		.4byte	0x6ea
 2299 01c8 1C       		.byte	0x1c
 2300 01c9 06       		.uleb128 0x6
 2301 01ca DB050000 		.4byte	.LASF39
 2302 01ce 0D       		.byte	0xd
 2303 01cf DD       		.byte	0xdd
 2304 01d0 FA000000 		.4byte	0xfa
 2305 01d4 20       		.byte	0x20
 2306 01d5 06       		.uleb128 0x6
 2307 01d6 0C060000 		.4byte	.LASF40
 2308 01da 0D       		.byte	0xd
 2309 01db E1       		.byte	0xe1
 2310 01dc EF000000 		.4byte	0xef
 2311 01e0 21       		.byte	0x21
 2312 01e1 06       		.uleb128 0x6
 2313 01e2 A7010000 		.4byte	.LASF41
 2314 01e6 0D       		.byte	0xd
 2315 01e7 E6       		.byte	0xe6
 2316 01e8 05010000 		.4byte	0x105
 2317 01ec 22       		.byte	0x22
 2318 01ed 07       		.uleb128 0x7
 2319 01ee 705F7500 		.ascii	"p_u\000"
 2320 01f2 0D       		.byte	0xd
 2321 01f3 3701     		.2byte	0x137
 2322 01f5 07060000 		.4byte	0x607
 2323 01f9 24       		.byte	0x24
 2324 01fa 08       		.uleb128 0x8
 2325 01fb 7D030000 		.4byte	.LASF42
 2326 01ff 0D       		.byte	0xd
 2327 0200 3C01     		.2byte	0x13c
 2328 0202 5A020000 		.4byte	0x25a
 2329 0206 28       		.byte	0x28
 2330 0207 08       		.uleb128 0x8
 2331 0208 96020000 		.4byte	.LASF43
 2332 020c 0D       		.byte	0xd
 2333 020d 4201     		.2byte	0x142
ARM GAS  /tmp/ccA2omAw.s 			page 105


 2334 020f 7E020000 		.4byte	0x27e
 2335 0213 2C       		.byte	0x2c
 2336 0214 08       		.uleb128 0x8
 2337 0215 68060000 		.4byte	.LASF44
 2338 0219 0D       		.byte	0xd
 2339 021a 4801     		.2byte	0x148
 2340 021c 26010000 		.4byte	0x126
 2341 0220 34       		.byte	0x34
 2342 0221 08       		.uleb128 0x8
 2343 0222 E3050000 		.4byte	.LASF45
 2344 0226 0D       		.byte	0xd
 2345 0227 4F01     		.2byte	0x14f
 2346 0229 D2060000 		.4byte	0x6d2
 2347 022d 38       		.byte	0x38
 2348 022e 08       		.uleb128 0x8
 2349 022f 70070000 		.4byte	.LASF46
 2350 0233 0D       		.byte	0xd
 2351 0234 5301     		.2byte	0x153
 2352 0236 10010000 		.4byte	0x110
 2353 023a 3C       		.byte	0x3c
 2354 023b 08       		.uleb128 0x8
 2355 023c 3E010000 		.4byte	.LASF47
 2356 0240 0D       		.byte	0xd
 2357 0241 5A01     		.2byte	0x15a
 2358 0243 31030000 		.4byte	0x331
 2359 0247 40       		.byte	0x40
 2360 0248 00       		.byte	0
 2361 0249 03       		.uleb128 0x3
 2362 024a 90030000 		.4byte	.LASF48
 2363 024e 0C       		.byte	0xc
 2364 024f 44       		.byte	0x44
 2365 0250 54020000 		.4byte	0x254
 2366 0254 09       		.uleb128 0x9
 2367 0255 04       		.byte	0x4
 2368 0256 52010000 		.4byte	0x152
 2369 025a 03       		.uleb128 0x3
 2370 025b 76080000 		.4byte	.LASF49
 2371 025f 0C       		.byte	0xc
 2372 0260 49       		.byte	0x49
 2373 0261 65020000 		.4byte	0x265
 2374 0265 05       		.uleb128 0x5
 2375 0266 A8060000 		.4byte	.LASF51
 2376 026a 04       		.byte	0x4
 2377 026b 0D       		.byte	0xd
 2378 026c B0       		.byte	0xb0
 2379 026d 7E020000 		.4byte	0x27e
 2380 0271 06       		.uleb128 0x6
 2381 0272 05060000 		.4byte	.LASF31
 2382 0276 0D       		.byte	0xd
 2383 0277 B1       		.byte	0xb1
 2384 0278 54020000 		.4byte	0x254
 2385 027c 00       		.byte	0
 2386 027d 00       		.byte	0
 2387 027e 03       		.uleb128 0x3
 2388 027f 3A060000 		.4byte	.LASF52
 2389 0283 0C       		.byte	0xc
 2390 0284 50       		.byte	0x50
ARM GAS  /tmp/ccA2omAw.s 			page 106


 2391 0285 89020000 		.4byte	0x289
 2392 0289 05       		.uleb128 0x5
 2393 028a F1000000 		.4byte	.LASF53
 2394 028e 08       		.byte	0x8
 2395 028f 0D       		.byte	0xd
 2396 0290 B7       		.byte	0xb7
 2397 0291 AE020000 		.4byte	0x2ae
 2398 0295 06       		.uleb128 0x6
 2399 0296 05060000 		.4byte	.LASF31
 2400 029a 0D       		.byte	0xd
 2401 029b B8       		.byte	0xb8
 2402 029c 54020000 		.4byte	0x254
 2403 02a0 00       		.byte	0
 2404 02a1 06       		.uleb128 0x6
 2405 02a2 77050000 		.4byte	.LASF32
 2406 02a6 0D       		.byte	0xd
 2407 02a7 B9       		.byte	0xb9
 2408 02a8 54020000 		.4byte	0x254
 2409 02ac 04       		.byte	0x4
 2410 02ad 00       		.byte	0
 2411 02ae 03       		.uleb128 0x3
 2412 02af 16000000 		.4byte	.LASF54
 2413 02b3 0C       		.byte	0xc
 2414 02b4 57       		.byte	0x57
 2415 02b5 B9020000 		.4byte	0x2b9
 2416 02b9 0A       		.uleb128 0xa
 2417 02ba 2F030000 		.4byte	.LASF55
 2418 02be 1C       		.byte	0x1c
 2419 02bf 0D       		.byte	0xd
 2420 02c0 9201     		.2byte	0x192
 2421 02c2 15030000 		.4byte	0x315
 2422 02c6 08       		.uleb128 0x8
 2423 02c7 97060000 		.4byte	.LASF56
 2424 02cb 0D       		.byte	0xd
 2425 02cc 9301     		.2byte	0x193
 2426 02ce 7E020000 		.4byte	0x27e
 2427 02d2 00       		.byte	0
 2428 02d3 08       		.uleb128 0x8
 2429 02d4 F7050000 		.4byte	.LASF57
 2430 02d8 0D       		.byte	0xd
 2431 02d9 9401     		.2byte	0x194
 2432 02db 10010000 		.4byte	0x110
 2433 02df 08       		.byte	0x8
 2434 02e0 08       		.uleb128 0x8
 2435 02e1 E5030000 		.4byte	.LASF58
 2436 02e5 0D       		.byte	0xd
 2437 02e6 9601     		.2byte	0x196
 2438 02e8 4D050000 		.4byte	0x54d
 2439 02ec 0C       		.byte	0xc
 2440 02ed 08       		.uleb128 0x8
 2441 02ee E5010000 		.4byte	.LASF59
 2442 02f2 0D       		.byte	0xd
 2443 02f3 9901     		.2byte	0x199
 2444 02f5 54020000 		.4byte	0x254
 2445 02f9 10       		.byte	0x10
 2446 02fa 08       		.uleb128 0x8
 2447 02fb F8040000 		.4byte	.LASF60
ARM GAS  /tmp/ccA2omAw.s 			page 107


 2448 02ff 0D       		.byte	0xd
 2449 0300 9A01     		.2byte	0x19a
 2450 0302 54020000 		.4byte	0x254
 2451 0306 14       		.byte	0x14
 2452 0307 08       		.uleb128 0x8
 2453 0308 EE040000 		.4byte	.LASF61
 2454 030c 0D       		.byte	0xd
 2455 030d 9D01     		.2byte	0x19d
 2456 030f 54020000 		.4byte	0x254
 2457 0313 18       		.byte	0x18
 2458 0314 00       		.byte	0
 2459 0315 03       		.uleb128 0x3
 2460 0316 7B070000 		.4byte	.LASF62
 2461 031a 0C       		.byte	0xc
 2462 031b 5C       		.byte	0x5c
 2463 031c 20030000 		.4byte	0x320
 2464 0320 09       		.uleb128 0x9
 2465 0321 04       		.byte	0x4
 2466 0322 26030000 		.4byte	0x326
 2467 0326 0B       		.uleb128 0xb
 2468 0327 31030000 		.4byte	0x331
 2469 032b 0C       		.uleb128 0xc
 2470 032c 31030000 		.4byte	0x331
 2471 0330 00       		.byte	0
 2472 0331 0D       		.uleb128 0xd
 2473 0332 04       		.byte	0x4
 2474 0333 03       		.uleb128 0x3
 2475 0334 67050000 		.4byte	.LASF63
 2476 0338 0C       		.byte	0xc
 2477 0339 61       		.byte	0x61
 2478 033a 3E030000 		.4byte	0x33e
 2479 033e 0A       		.uleb128 0xa
 2480 033f 4A060000 		.4byte	.LASF64
 2481 0343 14       		.byte	0x14
 2482 0344 0D       		.byte	0xd
 2483 0345 6D01     		.2byte	0x16d
 2484 0347 8D030000 		.4byte	0x38d
 2485 034b 08       		.uleb128 0x8
 2486 034c 5F020000 		.4byte	.LASF65
 2487 0350 0D       		.byte	0xd
 2488 0351 6E01     		.2byte	0x16e
 2489 0353 F0060000 		.4byte	0x6f0
 2490 0357 00       		.byte	0
 2491 0358 08       		.uleb128 0x8
 2492 0359 F6010000 		.4byte	.LASF66
 2493 035d 0D       		.byte	0xd
 2494 035e 6F01     		.2byte	0x16f
 2495 0360 F0060000 		.4byte	0x6f0
 2496 0364 04       		.byte	0x4
 2497 0365 08       		.uleb128 0x8
 2498 0366 9F060000 		.4byte	.LASF67
 2499 036a 0D       		.byte	0xd
 2500 036b 7001     		.2byte	0x170
 2501 036d 47010000 		.4byte	0x147
 2502 0371 08       		.byte	0x8
 2503 0372 08       		.uleb128 0x8
 2504 0373 D1080000 		.4byte	.LASF68
ARM GAS  /tmp/ccA2omAw.s 			page 108


 2505 0377 0D       		.byte	0xd
 2506 0378 7101     		.2byte	0x171
 2507 037a 15030000 		.4byte	0x315
 2508 037e 0C       		.byte	0xc
 2509 037f 08       		.uleb128 0x8
 2510 0380 EA070000 		.4byte	.LASF69
 2511 0384 0D       		.byte	0xd
 2512 0385 7301     		.2byte	0x173
 2513 0387 31030000 		.4byte	0x331
 2514 038b 10       		.byte	0x10
 2515 038c 00       		.byte	0
 2516 038d 03       		.uleb128 0x3
 2517 038e C3000000 		.4byte	.LASF70
 2518 0392 0C       		.byte	0xc
 2519 0393 66       		.byte	0x66
 2520 0394 98030000 		.4byte	0x398
 2521 0398 0A       		.uleb128 0xa
 2522 0399 A3030000 		.4byte	.LASF71
 2523 039d 10       		.byte	0x10
 2524 039e 0D       		.byte	0xd
 2525 039f 7D01     		.2byte	0x17d
 2526 03a1 DA030000 		.4byte	0x3da
 2527 03a5 08       		.uleb128 0x8
 2528 03a6 5F020000 		.4byte	.LASF65
 2529 03aa 0D       		.byte	0xd
 2530 03ab 7E01     		.2byte	0x17e
 2531 03ad F0060000 		.4byte	0x6f0
 2532 03b1 00       		.byte	0
 2533 03b2 08       		.uleb128 0x8
 2534 03b3 F6010000 		.4byte	.LASF66
 2535 03b7 0D       		.byte	0xd
 2536 03b8 8001     		.2byte	0x180
 2537 03ba F0060000 		.4byte	0x6f0
 2538 03be 04       		.byte	0x4
 2539 03bf 08       		.uleb128 0x8
 2540 03c0 9F060000 		.4byte	.LASF67
 2541 03c4 0D       		.byte	0xd
 2542 03c5 8201     		.2byte	0x182
 2543 03c7 47010000 		.4byte	0x147
 2544 03cb 08       		.byte	0x8
 2545 03cc 08       		.uleb128 0x8
 2546 03cd D1030000 		.4byte	.LASF72
 2547 03d1 0D       		.byte	0xd
 2548 03d2 8A01     		.2byte	0x18a
 2549 03d4 47010000 		.4byte	0x147
 2550 03d8 0C       		.byte	0xc
 2551 03d9 00       		.byte	0
 2552 03da 03       		.uleb128 0x3
 2553 03db 59000000 		.4byte	.LASF73
 2554 03df 0C       		.byte	0xc
 2555 03e0 6B       		.byte	0x6b
 2556 03e1 E5030000 		.4byte	0x3e5
 2557 03e5 0A       		.uleb128 0xa
 2558 03e6 9A050000 		.4byte	.LASF74
 2559 03ea 04       		.byte	0x4
 2560 03eb 0D       		.byte	0xd
 2561 03ec A401     		.2byte	0x1a4
ARM GAS  /tmp/ccA2omAw.s 			page 109


 2562 03ee 00040000 		.4byte	0x400
 2563 03f2 08       		.uleb128 0x8
 2564 03f3 9D070000 		.4byte	.LASF75
 2565 03f7 0D       		.byte	0xd
 2566 03f8 AC01     		.2byte	0x1ac
 2567 03fa F6060000 		.4byte	0x6f6
 2568 03fe 00       		.byte	0
 2569 03ff 00       		.byte	0
 2570 0400 03       		.uleb128 0x3
 2571 0401 06030000 		.4byte	.LASF76
 2572 0405 0C       		.byte	0xc
 2573 0406 70       		.byte	0x70
 2574 0407 0B040000 		.4byte	0x40b
 2575 040b 0E       		.uleb128 0xe
 2576 040c 7E010000 		.4byte	.LASF77
 2577 0410 5001     		.2byte	0x150
 2578 0412 0D       		.byte	0xd
 2579 0413 C401     		.2byte	0x1c4
 2580 0415 67040000 		.4byte	0x467
 2581 0419 08       		.uleb128 0x8
 2582 041a 44080000 		.4byte	.LASF78
 2583 041e 0D       		.byte	0xd
 2584 041f C801     		.2byte	0x1c8
 2585 0421 AE020000 		.4byte	0x2ae
 2586 0425 00       		.byte	0
 2587 0426 08       		.uleb128 0x8
 2588 0427 65010000 		.4byte	.LASF79
 2589 042b 0D       		.byte	0xd
 2590 042c CC01     		.2byte	0x1cc
 2591 042e 8D030000 		.4byte	0x38d
 2592 0432 1C       		.byte	0x1c
 2593 0433 07       		.uleb128 0x7
 2594 0434 64626700 		.ascii	"dbg\000"
 2595 0438 0D       		.byte	0xd
 2596 0439 D001     		.2byte	0x1d0
 2597 043b DA030000 		.4byte	0x3da
 2598 043f 2C       		.byte	0x2c
 2599 0440 08       		.uleb128 0x8
 2600 0441 B0000000 		.4byte	.LASF80
 2601 0445 0D       		.byte	0xd
 2602 0446 D401     		.2byte	0x1d4
 2603 0448 52010000 		.4byte	0x152
 2604 044c 30       		.byte	0x30
 2605 044d 07       		.uleb128 0x7
 2606 044e 746D00   		.ascii	"tm\000"
 2607 0451 0D       		.byte	0xd
 2608 0452 D901     		.2byte	0x1d9
 2609 0454 FC050000 		.4byte	0x5fc
 2610 0458 74       		.byte	0x74
 2611 0459 08       		.uleb128 0x8
 2612 045a 37020000 		.4byte	.LASF81
 2613 045e 0D       		.byte	0xd
 2614 045f E501     		.2byte	0x1e5
 2615 0461 FB060000 		.4byte	0x6fb
 2616 0465 78       		.byte	0x78
 2617 0466 00       		.byte	0
 2618 0467 04       		.uleb128 0x4
ARM GAS  /tmp/ccA2omAw.s 			page 110


 2619 0468 04       		.byte	0x4
 2620 0469 07       		.byte	0x7
 2621 046a 87030000 		.4byte	.LASF82
 2622 046e 0F       		.uleb128 0xf
 2623 046f CE000000 		.4byte	0xce
 2624 0473 0F       		.uleb128 0xf
 2625 0474 B8000000 		.4byte	0xb8
 2626 0478 10       		.uleb128 0x10
 2627 0479 2C       		.byte	0x2c
 2628 047a 0E       		.byte	0xe
 2629 047b 8202     		.2byte	0x282
 2630 047d 2B050000 		.4byte	0x52b
 2631 0481 07       		.uleb128 0x7
 2632 0482 43523100 		.ascii	"CR1\000"
 2633 0486 0E       		.byte	0xe
 2634 0487 8402     		.2byte	0x284
 2635 0489 6E040000 		.4byte	0x46e
 2636 048d 00       		.byte	0
 2637 048e 07       		.uleb128 0x7
 2638 048f 43523200 		.ascii	"CR2\000"
 2639 0493 0E       		.byte	0xe
 2640 0494 8502     		.2byte	0x285
 2641 0496 6E040000 		.4byte	0x46e
 2642 049a 04       		.byte	0x4
 2643 049b 07       		.uleb128 0x7
 2644 049c 43523300 		.ascii	"CR3\000"
 2645 04a0 0E       		.byte	0xe
 2646 04a1 8602     		.2byte	0x286
 2647 04a3 6E040000 		.4byte	0x46e
 2648 04a7 08       		.byte	0x8
 2649 04a8 07       		.uleb128 0x7
 2650 04a9 42525200 		.ascii	"BRR\000"
 2651 04ad 0E       		.byte	0xe
 2652 04ae 8702     		.2byte	0x287
 2653 04b0 6E040000 		.4byte	0x46e
 2654 04b4 0C       		.byte	0xc
 2655 04b5 08       		.uleb128 0x8
 2656 04b6 39010000 		.4byte	.LASF83
 2657 04ba 0E       		.byte	0xe
 2658 04bb 8802     		.2byte	0x288
 2659 04bd 6E040000 		.4byte	0x46e
 2660 04c1 10       		.byte	0x10
 2661 04c2 08       		.uleb128 0x8
 2662 04c3 A7070000 		.4byte	.LASF84
 2663 04c7 0E       		.byte	0xe
 2664 04c8 8902     		.2byte	0x289
 2665 04ca 6E040000 		.4byte	0x46e
 2666 04ce 14       		.byte	0x14
 2667 04cf 07       		.uleb128 0x7
 2668 04d0 52515200 		.ascii	"RQR\000"
 2669 04d4 0E       		.byte	0xe
 2670 04d5 8A02     		.2byte	0x28a
 2671 04d7 6E040000 		.4byte	0x46e
 2672 04db 18       		.byte	0x18
 2673 04dc 07       		.uleb128 0x7
 2674 04dd 49535200 		.ascii	"ISR\000"
 2675 04e1 0E       		.byte	0xe
ARM GAS  /tmp/ccA2omAw.s 			page 111


 2676 04e2 8B02     		.2byte	0x28b
 2677 04e4 6E040000 		.4byte	0x46e
 2678 04e8 1C       		.byte	0x1c
 2679 04e9 07       		.uleb128 0x7
 2680 04ea 49435200 		.ascii	"ICR\000"
 2681 04ee 0E       		.byte	0xe
 2682 04ef 8C02     		.2byte	0x28c
 2683 04f1 6E040000 		.4byte	0x46e
 2684 04f5 20       		.byte	0x20
 2685 04f6 07       		.uleb128 0x7
 2686 04f7 52445200 		.ascii	"RDR\000"
 2687 04fb 0E       		.byte	0xe
 2688 04fc 8D02     		.2byte	0x28d
 2689 04fe 73040000 		.4byte	0x473
 2690 0502 24       		.byte	0x24
 2691 0503 08       		.uleb128 0x8
 2692 0504 53050000 		.4byte	.LASF85
 2693 0508 0E       		.byte	0xe
 2694 0509 8E02     		.2byte	0x28e
 2695 050b B8000000 		.4byte	0xb8
 2696 050f 26       		.byte	0x26
 2697 0510 07       		.uleb128 0x7
 2698 0511 54445200 		.ascii	"TDR\000"
 2699 0515 0E       		.byte	0xe
 2700 0516 8F02     		.2byte	0x28f
 2701 0518 73040000 		.4byte	0x473
 2702 051c 28       		.byte	0x28
 2703 051d 08       		.uleb128 0x8
 2704 051e 5D050000 		.4byte	.LASF86
 2705 0522 0E       		.byte	0xe
 2706 0523 9002     		.2byte	0x290
 2707 0525 B8000000 		.4byte	0xb8
 2708 0529 2A       		.byte	0x2a
 2709 052a 00       		.byte	0
 2710 052b 11       		.uleb128 0x11
 2711 052c 12030000 		.4byte	.LASF87
 2712 0530 0E       		.byte	0xe
 2713 0531 9102     		.2byte	0x291
 2714 0533 78040000 		.4byte	0x478
 2715 0537 03       		.uleb128 0x3
 2716 0538 ED010000 		.4byte	.LASF88
 2717 053c 0F       		.byte	0xf
 2718 053d 65       		.byte	0x65
 2719 053e 31030000 		.4byte	0x331
 2720 0542 03       		.uleb128 0x3
 2721 0543 59030000 		.4byte	.LASF89
 2722 0547 0F       		.byte	0xf
 2723 0548 6D       		.byte	0x6d
 2724 0549 D9000000 		.4byte	0xd9
 2725 054d 05       		.uleb128 0x5
 2726 054e BD070000 		.4byte	.LASF90
 2727 0552 04       		.byte	0x4
 2728 0553 0F       		.byte	0xf
 2729 0554 89       		.byte	0x89
 2730 0555 66050000 		.4byte	0x566
 2731 0559 12       		.uleb128 0x12
 2732 055a 72313300 		.ascii	"r13\000"
ARM GAS  /tmp/ccA2omAw.s 			page 112


 2733 055e 0F       		.byte	0xf
 2734 055f 8A       		.byte	0x8a
 2735 0560 E1050000 		.4byte	0x5e1
 2736 0564 00       		.byte	0
 2737 0565 00       		.byte	0
 2738 0566 05       		.uleb128 0x5
 2739 0567 4D000000 		.4byte	.LASF91
 2740 056b 24       		.byte	0x24
 2741 056c 01       		.byte	0x1
 2742 056d FD       		.byte	0xfd
 2743 056e E1050000 		.4byte	0x5e1
 2744 0572 07       		.uleb128 0x7
 2745 0573 723400   		.ascii	"r4\000"
 2746 0576 01       		.byte	0x1
 2747 0577 1001     		.2byte	0x110
 2748 0579 37050000 		.4byte	0x537
 2749 057d 00       		.byte	0
 2750 057e 07       		.uleb128 0x7
 2751 057f 723500   		.ascii	"r5\000"
 2752 0582 01       		.byte	0x1
 2753 0583 1101     		.2byte	0x111
 2754 0585 37050000 		.4byte	0x537
 2755 0589 04       		.byte	0x4
 2756 058a 07       		.uleb128 0x7
 2757 058b 723600   		.ascii	"r6\000"
 2758 058e 01       		.byte	0x1
 2759 058f 1201     		.2byte	0x112
 2760 0591 37050000 		.4byte	0x537
 2761 0595 08       		.byte	0x8
 2762 0596 07       		.uleb128 0x7
 2763 0597 723700   		.ascii	"r7\000"
 2764 059a 01       		.byte	0x1
 2765 059b 1301     		.2byte	0x113
 2766 059d 37050000 		.4byte	0x537
 2767 05a1 0C       		.byte	0xc
 2768 05a2 07       		.uleb128 0x7
 2769 05a3 723800   		.ascii	"r8\000"
 2770 05a6 01       		.byte	0x1
 2771 05a7 1401     		.2byte	0x114
 2772 05a9 37050000 		.4byte	0x537
 2773 05ad 10       		.byte	0x10
 2774 05ae 07       		.uleb128 0x7
 2775 05af 723900   		.ascii	"r9\000"
 2776 05b2 01       		.byte	0x1
 2777 05b3 1501     		.2byte	0x115
 2778 05b5 37050000 		.4byte	0x537
 2779 05b9 14       		.byte	0x14
 2780 05ba 07       		.uleb128 0x7
 2781 05bb 72313000 		.ascii	"r10\000"
 2782 05bf 01       		.byte	0x1
 2783 05c0 1601     		.2byte	0x116
 2784 05c2 37050000 		.4byte	0x537
 2785 05c6 18       		.byte	0x18
 2786 05c7 07       		.uleb128 0x7
 2787 05c8 72313100 		.ascii	"r11\000"
 2788 05cc 01       		.byte	0x1
 2789 05cd 1701     		.2byte	0x117
ARM GAS  /tmp/ccA2omAw.s 			page 113


 2790 05cf 37050000 		.4byte	0x537
 2791 05d3 1C       		.byte	0x1c
 2792 05d4 07       		.uleb128 0x7
 2793 05d5 6C7200   		.ascii	"lr\000"
 2794 05d8 01       		.byte	0x1
 2795 05d9 1801     		.2byte	0x118
 2796 05db 37050000 		.4byte	0x537
 2797 05df 20       		.byte	0x20
 2798 05e0 00       		.byte	0
 2799 05e1 09       		.uleb128 0x9
 2800 05e2 04       		.byte	0x4
 2801 05e3 66050000 		.4byte	0x566
 2802 05e7 13       		.uleb128 0x13
 2803 05e8 04       		.byte	0x4
 2804 05e9 10       		.byte	0x10
 2805 05ea 38       		.byte	0x38
 2806 05eb FC050000 		.4byte	0x5fc
 2807 05ef 06       		.uleb128 0x6
 2808 05f0 FE010000 		.4byte	.LASF92
 2809 05f4 10       		.byte	0x10
 2810 05f5 3C       		.byte	0x3c
 2811 05f6 E4000000 		.4byte	0xe4
 2812 05fa 00       		.byte	0
 2813 05fb 00       		.byte	0
 2814 05fc 03       		.uleb128 0x3
 2815 05fd CB040000 		.4byte	.LASF93
 2816 0601 10       		.byte	0x10
 2817 0602 3D       		.byte	0x3d
 2818 0603 E7050000 		.4byte	0x5e7
 2819 0607 14       		.uleb128 0x14
 2820 0608 04       		.byte	0x4
 2821 0609 0D       		.byte	0xd
 2822 060a FA       		.byte	0xfa
 2823 060b 70060000 		.4byte	0x670
 2824 060f 15       		.uleb128 0x15
 2825 0610 33060000 		.4byte	.LASF94
 2826 0614 0D       		.byte	0xd
 2827 0615 0101     		.2byte	0x101
 2828 0617 1B010000 		.4byte	0x11b
 2829 061b 15       		.uleb128 0x15
 2830 061c A7000000 		.4byte	.LASF95
 2831 0620 0D       		.byte	0xd
 2832 0621 0801     		.2byte	0x108
 2833 0623 1B010000 		.4byte	0x11b
 2834 0627 15       		.uleb128 0x15
 2835 0628 6F080000 		.4byte	.LASF96
 2836 062c 0D       		.byte	0xd
 2837 062d 0F01     		.2byte	0x10f
 2838 062f 31030000 		.4byte	0x331
 2839 0633 15       		.uleb128 0x15
 2840 0634 C4030000 		.4byte	.LASF97
 2841 0638 0D       		.byte	0xd
 2842 0639 1601     		.2byte	0x116
 2843 063b 70060000 		.4byte	0x670
 2844 063f 15       		.uleb128 0x15
 2845 0640 BB000000 		.4byte	.LASF98
 2846 0644 0D       		.byte	0xd
ARM GAS  /tmp/ccA2omAw.s 			page 114


 2847 0645 1B01     		.2byte	0x11b
 2848 0647 1B010000 		.4byte	0x11b
 2849 064b 15       		.uleb128 0x15
 2850 064c 88020000 		.4byte	.LASF99
 2851 0650 0D       		.byte	0xd
 2852 0651 2401     		.2byte	0x124
 2853 0653 9B060000 		.4byte	0x69b
 2854 0657 15       		.uleb128 0x15
 2855 0658 90060000 		.4byte	.LASF100
 2856 065c 0D       		.byte	0xd
 2857 065d 2D01     		.2byte	0x12d
 2858 065f D2060000 		.4byte	0x6d2
 2859 0663 15       		.uleb128 0x15
 2860 0664 FE050000 		.4byte	.LASF101
 2861 0668 0D       		.byte	0xd
 2862 0669 3501     		.2byte	0x135
 2863 066b 26010000 		.4byte	0x126
 2864 066f 00       		.byte	0
 2865 0670 09       		.uleb128 0x9
 2866 0671 04       		.byte	0x4
 2867 0672 49020000 		.4byte	0x249
 2868 0676 05       		.uleb128 0x5
 2869 0677 5B060000 		.4byte	.LASF102
 2870 067b 0C       		.byte	0xc
 2871 067c 11       		.byte	0x11
 2872 067d 34       		.byte	0x34
 2873 067e 9B060000 		.4byte	0x69b
 2874 0682 06       		.uleb128 0x6
 2875 0683 CF010000 		.4byte	.LASF103
 2876 0687 11       		.byte	0x11
 2877 0688 35       		.byte	0x35
 2878 0689 7E020000 		.4byte	0x27e
 2879 068d 00       		.byte	0
 2880 068e 06       		.uleb128 0x6
 2881 068f AE020000 		.4byte	.LASF104
 2882 0693 11       		.byte	0x11
 2883 0694 37       		.byte	0x37
 2884 0695 3C010000 		.4byte	0x13c
 2885 0699 08       		.byte	0x8
 2886 069a 00       		.byte	0
 2887 069b 09       		.uleb128 0x9
 2888 069c 04       		.byte	0x4
 2889 069d 76060000 		.4byte	0x676
 2890 06a1 05       		.uleb128 0x5
 2891 06a2 1D080000 		.4byte	.LASF105
 2892 06a6 10       		.byte	0x10
 2893 06a7 12       		.byte	0x12
 2894 06a8 39       		.byte	0x39
 2895 06a9 D2060000 		.4byte	0x6d2
 2896 06ad 06       		.uleb128 0x6
 2897 06ae 5D010000 		.4byte	.LASF106
 2898 06b2 12       		.byte	0x12
 2899 06b3 3A       		.byte	0x3a
 2900 06b4 7E020000 		.4byte	0x27e
 2901 06b8 00       		.byte	0
 2902 06b9 06       		.uleb128 0x6
 2903 06ba C3080000 		.4byte	.LASF107
ARM GAS  /tmp/ccA2omAw.s 			page 115


 2904 06be 12       		.byte	0x12
 2905 06bf 3C       		.byte	0x3c
 2906 06c0 54020000 		.4byte	0x254
 2907 06c4 08       		.byte	0x8
 2908 06c5 06       		.uleb128 0x6
 2909 06c6 5F070000 		.4byte	.LASF108
 2910 06ca 12       		.byte	0x12
 2911 06cb 3E       		.byte	0x3e
 2912 06cc 16070000 		.4byte	0x716
 2913 06d0 0C       		.byte	0xc
 2914 06d1 00       		.byte	0
 2915 06d2 09       		.uleb128 0x9
 2916 06d3 04       		.byte	0x4
 2917 06d4 A1060000 		.4byte	0x6a1
 2918 06d8 09       		.uleb128 0x9
 2919 06d9 04       		.byte	0x4
 2920 06da DE060000 		.4byte	0x6de
 2921 06de 16       		.uleb128 0x16
 2922 06df E3060000 		.4byte	0x6e3
 2923 06e3 04       		.uleb128 0x4
 2924 06e4 01       		.byte	0x1
 2925 06e5 08       		.byte	0x8
 2926 06e6 27070000 		.4byte	.LASF109
 2927 06ea 09       		.uleb128 0x9
 2928 06eb 04       		.byte	0x4
 2929 06ec 42050000 		.4byte	0x542
 2930 06f0 09       		.uleb128 0x9
 2931 06f1 04       		.byte	0x4
 2932 06f2 33030000 		.4byte	0x333
 2933 06f6 0F       		.uleb128 0xf
 2934 06f7 D8060000 		.4byte	0x6d8
 2935 06fb 17       		.uleb128 0x17
 2936 06fc 42050000 		.4byte	0x542
 2937 0700 0B070000 		.4byte	0x70b
 2938 0704 18       		.uleb128 0x18
 2939 0705 67040000 		.4byte	0x467
 2940 0709 1A       		.byte	0x1a
 2941 070a 00       		.byte	0
 2942 070b 03       		.uleb128 0x3
 2943 070c 11020000 		.4byte	.LASF110
 2944 0710 12       		.byte	0x12
 2945 0711 34       		.byte	0x34
 2946 0712 A1060000 		.4byte	0x6a1
 2947 0716 09       		.uleb128 0x9
 2948 0717 04       		.byte	0x4
 2949 0718 0B070000 		.4byte	0x70b
 2950 071c 03       		.uleb128 0x3
 2951 071d AC070000 		.4byte	.LASF111
 2952 0721 04       		.byte	0x4
 2953 0722 34       		.byte	0x34
 2954 0723 27070000 		.4byte	0x727
 2955 0727 05       		.uleb128 0x5
 2956 0728 D9080000 		.4byte	.LASF112
 2957 072c 14       		.byte	0x14
 2958 072d 04       		.byte	0x4
 2959 072e 39       		.byte	0x39
 2960 072f 70070000 		.4byte	0x770
ARM GAS  /tmp/ccA2omAw.s 			page 116


 2961 0733 06       		.uleb128 0x6
 2962 0734 FE020000 		.4byte	.LASF113
 2963 0738 04       		.byte	0x4
 2964 0739 3A       		.byte	0x3a
 2965 073a 70070000 		.4byte	0x770
 2966 073e 00       		.byte	0
 2967 073f 06       		.uleb128 0x6
 2968 0740 C6050000 		.4byte	.LASF114
 2969 0744 04       		.byte	0x4
 2970 0745 3D       		.byte	0x3d
 2971 0746 54020000 		.4byte	0x254
 2972 074a 04       		.byte	0x4
 2973 074b 06       		.uleb128 0x6
 2974 074c 1F050000 		.4byte	.LASF115
 2975 0750 04       		.byte	0x4
 2976 0751 3F       		.byte	0x3f
 2977 0752 26010000 		.4byte	0x126
 2978 0756 08       		.byte	0x8
 2979 0757 06       		.uleb128 0x6
 2980 0758 D2050000 		.4byte	.LASF116
 2981 075c 04       		.byte	0x4
 2982 075d 41       		.byte	0x41
 2983 075e 31010000 		.4byte	0x131
 2984 0762 0C       		.byte	0xc
 2985 0763 06       		.uleb128 0x6
 2986 0764 E7020000 		.4byte	.LASF117
 2987 0768 04       		.byte	0x4
 2988 0769 43       		.byte	0x43
 2989 076a 31010000 		.4byte	0x131
 2990 076e 10       		.byte	0x10
 2991 076f 00       		.byte	0
 2992 0770 09       		.uleb128 0x9
 2993 0771 04       		.byte	0x4
 2994 0772 1C070000 		.4byte	0x71c
 2995 0776 05       		.uleb128 0x5
 2996 0777 91010000 		.4byte	.LASF118
 2997 077b 04       		.byte	0x4
 2998 077c 04       		.byte	0x4
 2999 077d 4A       		.byte	0x4a
 3000 077e 8F070000 		.4byte	0x78f
 3001 0782 06       		.uleb128 0x6
 3002 0783 26080000 		.4byte	.LASF119
 3003 0787 04       		.byte	0x4
 3004 0788 4B       		.byte	0x4b
 3005 0789 70070000 		.4byte	0x770
 3006 078d 00       		.byte	0
 3007 078e 00       		.byte	0
 3008 078f 03       		.uleb128 0x3
 3009 0790 28020000 		.4byte	.LASF120
 3010 0794 04       		.byte	0x4
 3011 0795 4E       		.byte	0x4e
 3012 0796 76070000 		.4byte	0x776
 3013 079a 03       		.uleb128 0x3
 3014 079b E6000000 		.4byte	.LASF121
 3015 079f 05       		.byte	0x5
 3016 07a0 3F       		.byte	0x3f
 3017 07a1 A5070000 		.4byte	0x7a5
ARM GAS  /tmp/ccA2omAw.s 			page 117


 3018 07a5 05       		.uleb128 0x5
 3019 07a6 1F020000 		.4byte	.LASF122
 3020 07aa 24       		.byte	0x24
 3021 07ab 05       		.byte	0x5
 3022 07ac 4D       		.byte	0x4d
 3023 07ad 12080000 		.4byte	0x812
 3024 07b1 06       		.uleb128 0x6
 3025 07b2 15010000 		.4byte	.LASF123
 3026 07b6 05       		.byte	0x5
 3027 07b7 4E       		.byte	0x4e
 3028 07b8 7E020000 		.4byte	0x27e
 3029 07bc 00       		.byte	0
 3030 07bd 06       		.uleb128 0x6
 3031 07be BA030000 		.4byte	.LASF124
 3032 07c2 05       		.byte	0x5
 3033 07c3 4F       		.byte	0x4f
 3034 07c4 34080000 		.4byte	0x834
 3035 07c8 08       		.byte	0x8
 3036 07c9 06       		.uleb128 0x6
 3037 07ca AE010000 		.4byte	.LASF125
 3038 07ce 05       		.byte	0x5
 3039 07cf 50       		.byte	0x50
 3040 07d0 39080000 		.4byte	0x839
 3041 07d4 0C       		.byte	0xc
 3042 07d5 06       		.uleb128 0x6
 3043 07d6 17080000 		.4byte	.LASF126
 3044 07da 05       		.byte	0x5
 3045 07db 51       		.byte	0x51
 3046 07dc 39080000 		.4byte	0x839
 3047 07e0 10       		.byte	0x10
 3048 07e1 06       		.uleb128 0x6
 3049 07e2 B7010000 		.4byte	.LASF127
 3050 07e6 05       		.byte	0x5
 3051 07e7 53       		.byte	0x53
 3052 07e8 39080000 		.4byte	0x839
 3053 07ec 14       		.byte	0x14
 3054 07ed 06       		.uleb128 0x6
 3055 07ee 92050000 		.4byte	.LASF128
 3056 07f2 05       		.byte	0x5
 3057 07f3 54       		.byte	0x54
 3058 07f4 39080000 		.4byte	0x839
 3059 07f8 18       		.byte	0x18
 3060 07f9 06       		.uleb128 0x6
 3061 07fa 3B080000 		.4byte	.LASF129
 3062 07fe 05       		.byte	0x5
 3063 07ff 55       		.byte	0x55
 3064 0800 12080000 		.4byte	0x812
 3065 0804 1C       		.byte	0x1c
 3066 0805 06       		.uleb128 0x6
 3067 0806 BC080000 		.4byte	.LASF130
 3068 080a 05       		.byte	0x5
 3069 080b 56       		.byte	0x56
 3070 080c 31030000 		.4byte	0x331
 3071 0810 20       		.byte	0x20
 3072 0811 00       		.byte	0
 3073 0812 03       		.uleb128 0x3
 3074 0813 4F030000 		.4byte	.LASF131
ARM GAS  /tmp/ccA2omAw.s 			page 118


 3075 0817 05       		.byte	0x5
 3076 0818 42       		.byte	0x42
 3077 0819 1D080000 		.4byte	0x81d
 3078 081d 09       		.uleb128 0x9
 3079 081e 04       		.byte	0x4
 3080 081f 23080000 		.4byte	0x823
 3081 0823 0B       		.uleb128 0xb
 3082 0824 2E080000 		.4byte	0x82e
 3083 0828 0C       		.uleb128 0xc
 3084 0829 2E080000 		.4byte	0x82e
 3085 082d 00       		.byte	0
 3086 082e 09       		.uleb128 0x9
 3087 082f 04       		.byte	0x4
 3088 0830 9A070000 		.4byte	0x79a
 3089 0834 0F       		.uleb128 0xf
 3090 0835 2C000000 		.4byte	0x2c
 3091 0839 09       		.uleb128 0x9
 3092 083a 04       		.byte	0x4
 3093 083b AD000000 		.4byte	0xad
 3094 083f 03       		.uleb128 0x3
 3095 0840 6A030000 		.4byte	.LASF132
 3096 0844 05       		.byte	0x5
 3097 0845 64       		.byte	0x64
 3098 0846 9A070000 		.4byte	0x79a
 3099 084a 03       		.uleb128 0x3
 3100 084b FE070000 		.4byte	.LASF133
 3101 084f 05       		.byte	0x5
 3102 0850 71       		.byte	0x71
 3103 0851 9A070000 		.4byte	0x79a
 3104 0855 19       		.uleb128 0x19
 3105 0856 2C000000 		.4byte	0x2c
 3106 085a 6E080000 		.4byte	0x86e
 3107 085e 0C       		.uleb128 0xc
 3108 085f 31030000 		.4byte	0x331
 3109 0863 0C       		.uleb128 0xc
 3110 0864 6E080000 		.4byte	0x86e
 3111 0868 0C       		.uleb128 0xc
 3112 0869 2C000000 		.4byte	0x2c
 3113 086d 00       		.byte	0
 3114 086e 09       		.uleb128 0x9
 3115 086f 04       		.byte	0x4
 3116 0870 74080000 		.4byte	0x874
 3117 0874 16       		.uleb128 0x16
 3118 0875 AD000000 		.4byte	0xad
 3119 0879 09       		.uleb128 0x9
 3120 087a 04       		.byte	0x4
 3121 087b 55080000 		.4byte	0x855
 3122 087f 19       		.uleb128 0x19
 3123 0880 2C000000 		.4byte	0x2c
 3124 0884 98080000 		.4byte	0x898
 3125 0888 0C       		.uleb128 0xc
 3126 0889 31030000 		.4byte	0x331
 3127 088d 0C       		.uleb128 0xc
 3128 088e 39080000 		.4byte	0x839
 3129 0892 0C       		.uleb128 0xc
 3130 0893 2C000000 		.4byte	0x2c
 3131 0897 00       		.byte	0
ARM GAS  /tmp/ccA2omAw.s 			page 119


 3132 0898 09       		.uleb128 0x9
 3133 0899 04       		.byte	0x4
 3134 089a 7F080000 		.4byte	0x87f
 3135 089e 19       		.uleb128 0x19
 3136 089f 1B010000 		.4byte	0x11b
 3137 08a3 B2080000 		.4byte	0x8b2
 3138 08a7 0C       		.uleb128 0xc
 3139 08a8 31030000 		.4byte	0x331
 3140 08ac 0C       		.uleb128 0xc
 3141 08ad AD000000 		.4byte	0xad
 3142 08b1 00       		.byte	0
 3143 08b2 09       		.uleb128 0x9
 3144 08b3 04       		.byte	0x4
 3145 08b4 9E080000 		.4byte	0x89e
 3146 08b8 19       		.uleb128 0x19
 3147 08b9 1B010000 		.4byte	0x11b
 3148 08bd C7080000 		.4byte	0x8c7
 3149 08c1 0C       		.uleb128 0xc
 3150 08c2 31030000 		.4byte	0x331
 3151 08c6 00       		.byte	0
 3152 08c7 09       		.uleb128 0x9
 3153 08c8 04       		.byte	0x4
 3154 08c9 B8080000 		.4byte	0x8b8
 3155 08cd 19       		.uleb128 0x19
 3156 08ce 1B010000 		.4byte	0x11b
 3157 08d2 E6080000 		.4byte	0x8e6
 3158 08d6 0C       		.uleb128 0xc
 3159 08d7 31030000 		.4byte	0x331
 3160 08db 0C       		.uleb128 0xc
 3161 08dc AD000000 		.4byte	0xad
 3162 08e0 0C       		.uleb128 0xc
 3163 08e1 47010000 		.4byte	0x147
 3164 08e5 00       		.byte	0
 3165 08e6 09       		.uleb128 0x9
 3166 08e7 04       		.byte	0x4
 3167 08e8 CD080000 		.4byte	0x8cd
 3168 08ec 19       		.uleb128 0x19
 3169 08ed 1B010000 		.4byte	0x11b
 3170 08f1 00090000 		.4byte	0x900
 3171 08f5 0C       		.uleb128 0xc
 3172 08f6 31030000 		.4byte	0x331
 3173 08fa 0C       		.uleb128 0xc
 3174 08fb 47010000 		.4byte	0x147
 3175 08ff 00       		.byte	0
 3176 0900 09       		.uleb128 0x9
 3177 0901 04       		.byte	0x4
 3178 0902 EC080000 		.4byte	0x8ec
 3179 0906 19       		.uleb128 0x19
 3180 0907 2C000000 		.4byte	0x2c
 3181 090b 24090000 		.4byte	0x924
 3182 090f 0C       		.uleb128 0xc
 3183 0910 31030000 		.4byte	0x331
 3184 0914 0C       		.uleb128 0xc
 3185 0915 6E080000 		.4byte	0x86e
 3186 0919 0C       		.uleb128 0xc
 3187 091a 2C000000 		.4byte	0x2c
 3188 091e 0C       		.uleb128 0xc
ARM GAS  /tmp/ccA2omAw.s 			page 120


 3189 091f 47010000 		.4byte	0x147
 3190 0923 00       		.byte	0
 3191 0924 09       		.uleb128 0x9
 3192 0925 04       		.byte	0x4
 3193 0926 06090000 		.4byte	0x906
 3194 092a 19       		.uleb128 0x19
 3195 092b 2C000000 		.4byte	0x2c
 3196 092f 48090000 		.4byte	0x948
 3197 0933 0C       		.uleb128 0xc
 3198 0934 31030000 		.4byte	0x331
 3199 0938 0C       		.uleb128 0xc
 3200 0939 39080000 		.4byte	0x839
 3201 093d 0C       		.uleb128 0xc
 3202 093e 2C000000 		.4byte	0x2c
 3203 0942 0C       		.uleb128 0xc
 3204 0943 47010000 		.4byte	0x147
 3205 0947 00       		.byte	0
 3206 0948 09       		.uleb128 0x9
 3207 0949 04       		.byte	0x4
 3208 094a 2A090000 		.4byte	0x92a
 3209 094e 04       		.uleb128 0x4
 3210 094f 01       		.byte	0x1
 3211 0950 02       		.byte	0x2
 3212 0951 AA050000 		.4byte	.LASF134
 3213 0955 1A       		.uleb128 0x1a
 3214 0956 01       		.byte	0x1
 3215 0957 13       		.byte	0x13
 3216 0958 55       		.byte	0x55
 3217 0959 70090000 		.4byte	0x970
 3218 095d 1B       		.uleb128 0x1b
 3219 095e 73060000 		.4byte	.LASF135
 3220 0962 00       		.sleb128 0
 3221 0963 1B       		.uleb128 0x1b
 3222 0964 BF010000 		.4byte	.LASF136
 3223 0968 01       		.sleb128 1
 3224 0969 1B       		.uleb128 0x1b
 3225 096a E1070000 		.4byte	.LASF137
 3226 096e 02       		.sleb128 2
 3227 096f 00       		.byte	0
 3228 0970 03       		.uleb128 0x3
 3229 0971 0D080000 		.4byte	.LASF138
 3230 0975 13       		.byte	0x13
 3231 0976 59       		.byte	0x59
 3232 0977 55090000 		.4byte	0x955
 3233 097b 03       		.uleb128 0x3
 3234 097c B8060000 		.4byte	.LASF139
 3235 0980 13       		.byte	0x13
 3236 0981 5E       		.byte	0x5e
 3237 0982 86090000 		.4byte	0x986
 3238 0986 05       		.uleb128 0x5
 3239 0987 B8060000 		.4byte	.LASF139
 3240 098b 7C       		.byte	0x7c
 3241 098c 13       		.byte	0x13
 3242 098d 78       		.byte	0x78
 3243 098e FD090000 		.4byte	0x9fd
 3244 0992 12       		.uleb128 0x12
 3245 0993 766D7400 		.ascii	"vmt\000"
ARM GAS  /tmp/ccA2omAw.s 			page 121


 3246 0997 13       		.byte	0x13
 3247 0998 7A       		.byte	0x7a
 3248 0999 B40A0000 		.4byte	0xab4
 3249 099d 00       		.byte	0
 3250 099e 06       		.uleb128 0x6
 3251 099f B4020000 		.4byte	.LASF140
 3252 09a3 13       		.byte	0x13
 3253 09a4 7B       		.byte	0x7b
 3254 09a5 8F070000 		.4byte	0x78f
 3255 09a9 04       		.byte	0x4
 3256 09aa 06       		.uleb128 0x6
 3257 09ab 78010000 		.4byte	.LASF141
 3258 09af 13       		.byte	0x13
 3259 09b0 7B       		.byte	0x7b
 3260 09b1 70090000 		.4byte	0x970
 3261 09b5 08       		.byte	0x8
 3262 09b6 06       		.uleb128 0x6
 3263 09b7 8F020000 		.4byte	.LASF142
 3264 09bb 13       		.byte	0x13
 3265 09bc 7B       		.byte	0x7b
 3266 09bd 3F080000 		.4byte	0x83f
 3267 09c1 0C       		.byte	0xc
 3268 09c2 06       		.uleb128 0x6
 3269 09c3 F7020000 		.4byte	.LASF143
 3270 09c7 13       		.byte	0x13
 3271 09c8 7B       		.byte	0x7b
 3272 09c9 4A080000 		.4byte	0x84a
 3273 09cd 30       		.byte	0x30
 3274 09ce 12       		.uleb128 0x12
 3275 09cf 696200   		.ascii	"ib\000"
 3276 09d2 13       		.byte	0x13
 3277 09d3 7B       		.byte	0x7b
 3278 09d4 BF0A0000 		.4byte	0xabf
 3279 09d8 54       		.byte	0x54
 3280 09d9 12       		.uleb128 0x12
 3281 09da 6F6200   		.ascii	"ob\000"
 3282 09dd 13       		.byte	0x13
 3283 09de 7B       		.byte	0x7b
 3284 09df BF0A0000 		.4byte	0xabf
 3285 09e3 64       		.byte	0x64
 3286 09e4 06       		.uleb128 0x6
 3287 09e5 4C020000 		.4byte	.LASF144
 3288 09e9 13       		.byte	0x13
 3289 09ea 7B       		.byte	0x7b
 3290 09eb CF0A0000 		.4byte	0xacf
 3291 09ef 74       		.byte	0x74
 3292 09f0 06       		.uleb128 0x6
 3293 09f1 91080000 		.4byte	.LASF145
 3294 09f5 13       		.byte	0x13
 3295 09f6 7B       		.byte	0x7b
 3296 09f7 CE000000 		.4byte	0xce
 3297 09fb 78       		.byte	0x78
 3298 09fc 00       		.byte	0
 3299 09fd 10       		.uleb128 0x10
 3300 09fe 10       		.byte	0x10
 3301 09ff 14       		.byte	0x14
 3302 0a00 2C01     		.2byte	0x12c
ARM GAS  /tmp/ccA2omAw.s 			page 122


 3303 0a02 3B0A0000 		.4byte	0xa3b
 3304 0a06 08       		.uleb128 0x8
 3305 0a07 49030000 		.4byte	.LASF146
 3306 0a0b 14       		.byte	0x14
 3307 0a0c 3001     		.2byte	0x130
 3308 0a0e CE000000 		.4byte	0xce
 3309 0a12 00       		.byte	0
 3310 0a13 07       		.uleb128 0x7
 3311 0a14 63723100 		.ascii	"cr1\000"
 3312 0a18 14       		.byte	0x14
 3313 0a19 3501     		.2byte	0x135
 3314 0a1b CE000000 		.4byte	0xce
 3315 0a1f 04       		.byte	0x4
 3316 0a20 07       		.uleb128 0x7
 3317 0a21 63723200 		.ascii	"cr2\000"
 3318 0a25 14       		.byte	0x14
 3319 0a26 3901     		.2byte	0x139
 3320 0a28 CE000000 		.4byte	0xce
 3321 0a2c 08       		.byte	0x8
 3322 0a2d 07       		.uleb128 0x7
 3323 0a2e 63723300 		.ascii	"cr3\000"
 3324 0a32 14       		.byte	0x14
 3325 0a33 3D01     		.2byte	0x13d
 3326 0a35 CE000000 		.4byte	0xce
 3327 0a39 0C       		.byte	0xc
 3328 0a3a 00       		.byte	0
 3329 0a3b 11       		.uleb128 0x11
 3330 0a3c 29050000 		.4byte	.LASF147
 3331 0a40 14       		.byte	0x14
 3332 0a41 3E01     		.2byte	0x13e
 3333 0a43 FD090000 		.4byte	0x9fd
 3334 0a47 05       		.uleb128 0x5
 3335 0a48 70020000 		.4byte	.LASF148
 3336 0a4c 20       		.byte	0x20
 3337 0a4d 13       		.byte	0x13
 3338 0a4e 6D       		.byte	0x6d
 3339 0a4f B40A0000 		.4byte	0xab4
 3340 0a53 06       		.uleb128 0x6
 3341 0a54 64030000 		.4byte	.LASF149
 3342 0a58 13       		.byte	0x13
 3343 0a59 6E       		.byte	0x6e
 3344 0a5a 79080000 		.4byte	0x879
 3345 0a5e 00       		.byte	0
 3346 0a5f 06       		.uleb128 0x6
 3347 0a60 22070000 		.4byte	.LASF150
 3348 0a64 13       		.byte	0x13
 3349 0a65 6E       		.byte	0x6e
 3350 0a66 98080000 		.4byte	0x898
 3351 0a6a 04       		.byte	0x4
 3352 0a6b 12       		.uleb128 0x12
 3353 0a6c 70757400 		.ascii	"put\000"
 3354 0a70 13       		.byte	0x13
 3355 0a71 6E       		.byte	0x6e
 3356 0a72 B2080000 		.4byte	0x8b2
 3357 0a76 08       		.byte	0x8
 3358 0a77 12       		.uleb128 0x12
 3359 0a78 67657400 		.ascii	"get\000"
ARM GAS  /tmp/ccA2omAw.s 			page 123


 3360 0a7c 13       		.byte	0x13
 3361 0a7d 6E       		.byte	0x6e
 3362 0a7e C7080000 		.4byte	0x8c7
 3363 0a82 0C       		.byte	0xc
 3364 0a83 06       		.uleb128 0x6
 3365 0a84 78030000 		.4byte	.LASF151
 3366 0a88 13       		.byte	0x13
 3367 0a89 6E       		.byte	0x6e
 3368 0a8a E6080000 		.4byte	0x8e6
 3369 0a8e 10       		.byte	0x10
 3370 0a8f 06       		.uleb128 0x6
 3371 0a90 A9020000 		.4byte	.LASF152
 3372 0a94 13       		.byte	0x13
 3373 0a95 6E       		.byte	0x6e
 3374 0a96 00090000 		.4byte	0x900
 3375 0a9a 14       		.byte	0x14
 3376 0a9b 06       		.uleb128 0x6
 3377 0a9c 20030000 		.4byte	.LASF153
 3378 0aa0 13       		.byte	0x13
 3379 0aa1 6E       		.byte	0x6e
 3380 0aa2 24090000 		.4byte	0x924
 3381 0aa6 18       		.byte	0x18
 3382 0aa7 06       		.uleb128 0x6
 3383 0aa8 0F010000 		.4byte	.LASF154
 3384 0aac 13       		.byte	0x13
 3385 0aad 6E       		.byte	0x6e
 3386 0aae 48090000 		.4byte	0x948
 3387 0ab2 1C       		.byte	0x1c
 3388 0ab3 00       		.byte	0
 3389 0ab4 09       		.uleb128 0x9
 3390 0ab5 04       		.byte	0x4
 3391 0ab6 BA0A0000 		.4byte	0xaba
 3392 0aba 16       		.uleb128 0x16
 3393 0abb 470A0000 		.4byte	0xa47
 3394 0abf 17       		.uleb128 0x17
 3395 0ac0 AD000000 		.4byte	0xad
 3396 0ac4 CF0A0000 		.4byte	0xacf
 3397 0ac8 18       		.uleb128 0x18
 3398 0ac9 67040000 		.4byte	0x467
 3399 0acd 0F       		.byte	0xf
 3400 0ace 00       		.byte	0
 3401 0acf 09       		.uleb128 0x9
 3402 0ad0 04       		.byte	0x4
 3403 0ad1 2B050000 		.4byte	0x52b
 3404 0ad5 1C       		.uleb128 0x1c
 3405 0ad6 8F070000 		.4byte	.LASF188
 3406 0ada 02       		.byte	0x2
 3407 0adb 2202     		.2byte	0x222
 3408 0add 03       		.byte	0x3
 3409 0ade EF0A0000 		.4byte	0xaef
 3410 0ae2 1D       		.uleb128 0x1d
 3411 0ae3 19020000 		.4byte	.LASF189
 3412 0ae7 02       		.byte	0x2
 3413 0ae8 2202     		.2byte	0x222
 3414 0aea CE000000 		.4byte	0xce
 3415 0aee 00       		.byte	0
 3416 0aef 1E       		.uleb128 0x1e
ARM GAS  /tmp/ccA2omAw.s 			page 124


 3417 0af0 68000000 		.4byte	.LASF155
 3418 0af4 01       		.byte	0x1
 3419 0af5 C801     		.2byte	0x1c8
 3420 0af7 00000000 		.4byte	.LFB127
 3421 0afb 10000000 		.4byte	.LFE127-.LFB127
 3422 0aff 01       		.uleb128 0x1
 3423 0b00 9C       		.byte	0x9c
 3424 0b01 1F0B0000 		.4byte	0xb1f
 3425 0b05 1F       		.uleb128 0x1f
 3426 0b06 D50A0000 		.4byte	0xad5
 3427 0b0a 06000000 		.4byte	.LBB6
 3428 0b0e 06000000 		.4byte	.LBE6-.LBB6
 3429 0b12 01       		.byte	0x1
 3430 0b13 D001     		.2byte	0x1d0
 3431 0b15 20       		.uleb128 0x20
 3432 0b16 E20A0000 		.4byte	0xae2
 3433 0b1a 02       		.uleb128 0x2
 3434 0b1b 91       		.byte	0x91
 3435 0b1c 7C       		.sleb128 -4
 3436 0b1d 00       		.byte	0
 3437 0b1e 00       		.byte	0
 3438 0b1f 1E       		.uleb128 0x1e
 3439 0b20 6C010000 		.4byte	.LASF156
 3440 0b24 01       		.byte	0x1
 3441 0b25 E001     		.2byte	0x1e0
 3442 0b27 00000000 		.4byte	.LFB128
 3443 0b2b 10000000 		.4byte	.LFE128-.LFB128
 3444 0b2f 01       		.uleb128 0x1
 3445 0b30 9C       		.byte	0x9c
 3446 0b31 4F0B0000 		.4byte	0xb4f
 3447 0b35 1F       		.uleb128 0x1f
 3448 0b36 D50A0000 		.4byte	0xad5
 3449 0b3a 06000000 		.4byte	.LBB8
 3450 0b3e 06000000 		.4byte	.LBE8-.LBB8
 3451 0b42 01       		.byte	0x1
 3452 0b43 E301     		.2byte	0x1e3
 3453 0b45 20       		.uleb128 0x20
 3454 0b46 E20A0000 		.4byte	0xae2
 3455 0b4a 02       		.uleb128 0x2
 3456 0b4b 91       		.byte	0x91
 3457 0b4c 7C       		.sleb128 -4
 3458 0b4d 00       		.byte	0
 3459 0b4e 00       		.byte	0
 3460 0b4f 21       		.uleb128 0x21
 3461 0b50 1B060000 		.4byte	.LASF161
 3462 0b54 03       		.byte	0x3
 3463 0b55 5A01     		.2byte	0x15a
 3464 0b57 00000000 		.4byte	.LFB167
 3465 0b5b 08000000 		.4byte	.LFE167-.LFB167
 3466 0b5f 01       		.uleb128 0x1
 3467 0b60 9C       		.byte	0x9c
 3468 0b61 22       		.uleb128 0x22
 3469 0b62 85080000 		.4byte	.LASF157
 3470 0b66 03       		.byte	0x3
 3471 0b67 6601     		.2byte	0x166
 3472 0b69 00000000 		.4byte	.LFB168
 3473 0b6d 08000000 		.4byte	.LFE168-.LFB168
ARM GAS  /tmp/ccA2omAw.s 			page 125


 3474 0b71 01       		.uleb128 0x1
 3475 0b72 9C       		.byte	0x9c
 3476 0b73 810B0000 		.4byte	0xb81
 3477 0b77 23       		.uleb128 0x23
 3478 0b78 D7010000 		.4byte	.LASF174
 3479 0b7c 910B0000 		.4byte	0xb91
 3480 0b80 00       		.byte	0
 3481 0b81 17       		.uleb128 0x17
 3482 0b82 E3060000 		.4byte	0x6e3
 3483 0b86 910B0000 		.4byte	0xb91
 3484 0b8a 18       		.uleb128 0x18
 3485 0b8b 67040000 		.4byte	0x467
 3486 0b8f 0B       		.byte	0xb
 3487 0b90 00       		.byte	0
 3488 0b91 16       		.uleb128 0x16
 3489 0b92 810B0000 		.4byte	0xb81
 3490 0b96 24       		.uleb128 0x24
 3491 0b97 BA020000 		.4byte	.LASF158
 3492 0b9b 04       		.byte	0x4
 3493 0b9c AA       		.byte	0xaa
 3494 0b9d 00000000 		.4byte	.LFB216
 3495 0ba1 0E000000 		.4byte	.LFE216-.LFB216
 3496 0ba5 01       		.uleb128 0x1
 3497 0ba6 9C       		.byte	0x9c
 3498 0ba7 BA0B0000 		.4byte	0xbba
 3499 0bab 25       		.uleb128 0x25
 3500 0bac 65737000 		.ascii	"esp\000"
 3501 0bb0 04       		.byte	0x4
 3502 0bb1 AA       		.byte	0xaa
 3503 0bb2 BA0B0000 		.4byte	0xbba
 3504 0bb6 02       		.uleb128 0x2
 3505 0bb7 91       		.byte	0x91
 3506 0bb8 7C       		.sleb128 -4
 3507 0bb9 00       		.byte	0
 3508 0bba 09       		.uleb128 0x9
 3509 0bbb 04       		.byte	0x4
 3510 0bbc 8F070000 		.4byte	0x78f
 3511 0bc0 26       		.uleb128 0x26
 3512 0bc1 2E080000 		.4byte	.LASF159
 3513 0bc5 05       		.byte	0x5
 3514 0bc6 2F01     		.2byte	0x12f
 3515 0bc8 4E090000 		.4byte	0x94e
 3516 0bcc 00000000 		.4byte	.LFB233
 3517 0bd0 18000000 		.4byte	.LFE233-.LFB233
 3518 0bd4 01       		.uleb128 0x1
 3519 0bd5 9C       		.byte	0x9c
 3520 0bd6 EA0B0000 		.4byte	0xbea
 3521 0bda 27       		.uleb128 0x27
 3522 0bdb 69717000 		.ascii	"iqp\000"
 3523 0bdf 05       		.byte	0x5
 3524 0be0 2F01     		.2byte	0x12f
 3525 0be2 EA0B0000 		.4byte	0xbea
 3526 0be6 02       		.uleb128 0x2
 3527 0be7 91       		.byte	0x91
 3528 0be8 7C       		.sleb128 -4
 3529 0be9 00       		.byte	0
 3530 0bea 09       		.uleb128 0x9
ARM GAS  /tmp/ccA2omAw.s 			page 126


 3531 0beb 04       		.byte	0x4
 3532 0bec 3F080000 		.4byte	0x83f
 3533 0bf0 26       		.uleb128 0x26
 3534 0bf1 7E050000 		.4byte	.LASF160
 3535 0bf5 05       		.byte	0x5
 3536 0bf6 9701     		.2byte	0x197
 3537 0bf8 4E090000 		.4byte	0x94e
 3538 0bfc 00000000 		.4byte	.LFB239
 3539 0c00 18000000 		.4byte	.LFE239-.LFB239
 3540 0c04 01       		.uleb128 0x1
 3541 0c05 9C       		.byte	0x9c
 3542 0c06 1A0C0000 		.4byte	0xc1a
 3543 0c0a 27       		.uleb128 0x27
 3544 0c0b 6F717000 		.ascii	"oqp\000"
 3545 0c0f 05       		.byte	0x5
 3546 0c10 9701     		.2byte	0x197
 3547 0c12 1A0C0000 		.4byte	0xc1a
 3548 0c16 02       		.uleb128 0x2
 3549 0c17 91       		.byte	0x91
 3550 0c18 7C       		.sleb128 -4
 3551 0c19 00       		.byte	0
 3552 0c1a 09       		.uleb128 0x9
 3553 0c1b 04       		.byte	0x4
 3554 0c1c 4A080000 		.4byte	0x84a
 3555 0c20 21       		.uleb128 0x21
 3556 0c21 05020000 		.4byte	.LASF162
 3557 0c25 06       		.byte	0x6
 3558 0c26 EB01     		.2byte	0x1eb
 3559 0c28 00000000 		.4byte	.LFB245
 3560 0c2c 08000000 		.4byte	.LFE245-.LFB245
 3561 0c30 01       		.uleb128 0x1
 3562 0c31 9C       		.byte	0x9c
 3563 0c32 21       		.uleb128 0x21
 3564 0c33 25060000 		.4byte	.LASF163
 3565 0c37 06       		.byte	0x6
 3566 0c38 F601     		.2byte	0x1f6
 3567 0c3a 00000000 		.4byte	.LFB246
 3568 0c3e 08000000 		.4byte	.LFE246-.LFB246
 3569 0c42 01       		.uleb128 0x1
 3570 0c43 9C       		.byte	0x9c
 3571 0c44 21       		.uleb128 0x21
 3572 0c45 41050000 		.4byte	.LASF164
 3573 0c49 06       		.byte	0x6
 3574 0c4a 5602     		.2byte	0x256
 3575 0c4c 00000000 		.4byte	.LFB253
 3576 0c50 08000000 		.4byte	.LFE253-.LFB253
 3577 0c54 01       		.uleb128 0x1
 3578 0c55 9C       		.byte	0x9c
 3579 0c56 22       		.uleb128 0x22
 3580 0c57 C5070000 		.4byte	.LASF165
 3581 0c5b 06       		.byte	0x6
 3582 0c5c 3503     		.2byte	0x335
 3583 0c5e 00000000 		.4byte	.LFB266
 3584 0c62 12000000 		.4byte	.LFE266-.LFB266
 3585 0c66 01       		.uleb128 0x1
 3586 0c67 9C       		.byte	0x9c
 3587 0c68 7C0C0000 		.4byte	0xc7c
ARM GAS  /tmp/ccA2omAw.s 			page 127


 3588 0c6c 27       		.uleb128 0x27
 3589 0c6d 65737000 		.ascii	"esp\000"
 3590 0c71 06       		.byte	0x6
 3591 0c72 3503     		.2byte	0x335
 3592 0c74 BA0B0000 		.4byte	0xbba
 3593 0c78 02       		.uleb128 0x2
 3594 0c79 91       		.byte	0x91
 3595 0c7a 74       		.sleb128 -12
 3596 0c7b 00       		.byte	0
 3597 0c7c 22       		.uleb128 0x22
 3598 0c7d 80000000 		.4byte	.LASF166
 3599 0c81 06       		.byte	0x6
 3600 0c82 4903     		.2byte	0x349
 3601 0c84 00000000 		.4byte	.LFB267
 3602 0c88 16000000 		.4byte	.LFE267-.LFB267
 3603 0c8c 01       		.uleb128 0x1
 3604 0c8d 9C       		.byte	0x9c
 3605 0c8e B10C0000 		.4byte	0xcb1
 3606 0c92 27       		.uleb128 0x27
 3607 0c93 65737000 		.ascii	"esp\000"
 3608 0c97 06       		.byte	0x6
 3609 0c98 4903     		.2byte	0x349
 3610 0c9a BA0B0000 		.4byte	0xbba
 3611 0c9e 02       		.uleb128 0x2
 3612 0c9f 91       		.byte	0x91
 3613 0ca0 74       		.sleb128 -12
 3614 0ca1 28       		.uleb128 0x28
 3615 0ca2 61080000 		.4byte	.LASF167
 3616 0ca6 06       		.byte	0x6
 3617 0ca7 4A03     		.2byte	0x34a
 3618 0ca9 31010000 		.4byte	0x131
 3619 0cad 02       		.uleb128 0x2
 3620 0cae 91       		.byte	0x91
 3621 0caf 70       		.sleb128 -16
 3622 0cb0 00       		.byte	0
 3623 0cb1 29       		.uleb128 0x29
 3624 0cb2 64030000 		.4byte	.LASF149
 3625 0cb6 07       		.byte	0x7
 3626 0cb7 32       		.byte	0x32
 3627 0cb8 2C000000 		.4byte	0x2c
 3628 0cbc 00000000 		.4byte	.LFB272
 3629 0cc0 26000000 		.4byte	.LFE272-.LFB272
 3630 0cc4 01       		.uleb128 0x1
 3631 0cc5 9C       		.byte	0x9c
 3632 0cc6 F10C0000 		.4byte	0xcf1
 3633 0cca 25       		.uleb128 0x25
 3634 0ccb 697000   		.ascii	"ip\000"
 3635 0cce 07       		.byte	0x7
 3636 0ccf 32       		.byte	0x32
 3637 0cd0 31030000 		.4byte	0x331
 3638 0cd4 02       		.uleb128 0x2
 3639 0cd5 91       		.byte	0x91
 3640 0cd6 74       		.sleb128 -12
 3641 0cd7 25       		.uleb128 0x25
 3642 0cd8 627000   		.ascii	"bp\000"
 3643 0cdb 07       		.byte	0x7
 3644 0cdc 32       		.byte	0x32
ARM GAS  /tmp/ccA2omAw.s 			page 128


 3645 0cdd 6E080000 		.4byte	0x86e
 3646 0ce1 02       		.uleb128 0x2
 3647 0ce2 91       		.byte	0x91
 3648 0ce3 70       		.sleb128 -16
 3649 0ce4 25       		.uleb128 0x25
 3650 0ce5 6E00     		.ascii	"n\000"
 3651 0ce7 07       		.byte	0x7
 3652 0ce8 32       		.byte	0x32
 3653 0ce9 2C000000 		.4byte	0x2c
 3654 0ced 02       		.uleb128 0x2
 3655 0cee 91       		.byte	0x91
 3656 0cef 6C       		.sleb128 -20
 3657 0cf0 00       		.byte	0
 3658 0cf1 29       		.uleb128 0x29
 3659 0cf2 22070000 		.4byte	.LASF150
 3660 0cf6 07       		.byte	0x7
 3661 0cf7 38       		.byte	0x38
 3662 0cf8 2C000000 		.4byte	0x2c
 3663 0cfc 00000000 		.4byte	.LFB273
 3664 0d00 26000000 		.4byte	.LFE273-.LFB273
 3665 0d04 01       		.uleb128 0x1
 3666 0d05 9C       		.byte	0x9c
 3667 0d06 310D0000 		.4byte	0xd31
 3668 0d0a 25       		.uleb128 0x25
 3669 0d0b 697000   		.ascii	"ip\000"
 3670 0d0e 07       		.byte	0x7
 3671 0d0f 38       		.byte	0x38
 3672 0d10 31030000 		.4byte	0x331
 3673 0d14 02       		.uleb128 0x2
 3674 0d15 91       		.byte	0x91
 3675 0d16 74       		.sleb128 -12
 3676 0d17 25       		.uleb128 0x25
 3677 0d18 627000   		.ascii	"bp\000"
 3678 0d1b 07       		.byte	0x7
 3679 0d1c 38       		.byte	0x38
 3680 0d1d 39080000 		.4byte	0x839
 3681 0d21 02       		.uleb128 0x2
 3682 0d22 91       		.byte	0x91
 3683 0d23 70       		.sleb128 -16
 3684 0d24 25       		.uleb128 0x25
 3685 0d25 6E00     		.ascii	"n\000"
 3686 0d27 07       		.byte	0x7
 3687 0d28 38       		.byte	0x38
 3688 0d29 2C000000 		.4byte	0x2c
 3689 0d2d 02       		.uleb128 0x2
 3690 0d2e 91       		.byte	0x91
 3691 0d2f 6C       		.sleb128 -20
 3692 0d30 00       		.byte	0
 3693 0d31 2A       		.uleb128 0x2a
 3694 0d32 70757400 		.ascii	"put\000"
 3695 0d36 07       		.byte	0x7
 3696 0d37 3E       		.byte	0x3e
 3697 0d38 1B010000 		.4byte	0x11b
 3698 0d3c 00000000 		.4byte	.LFB274
 3699 0d40 2C000000 		.4byte	.LFE274-.LFB274
 3700 0d44 01       		.uleb128 0x1
 3701 0d45 9C       		.byte	0x9c
ARM GAS  /tmp/ccA2omAw.s 			page 129


 3702 0d46 640D0000 		.4byte	0xd64
 3703 0d4a 25       		.uleb128 0x25
 3704 0d4b 697000   		.ascii	"ip\000"
 3705 0d4e 07       		.byte	0x7
 3706 0d4f 3E       		.byte	0x3e
 3707 0d50 31030000 		.4byte	0x331
 3708 0d54 02       		.uleb128 0x2
 3709 0d55 91       		.byte	0x91
 3710 0d56 74       		.sleb128 -12
 3711 0d57 25       		.uleb128 0x25
 3712 0d58 6200     		.ascii	"b\000"
 3713 0d5a 07       		.byte	0x7
 3714 0d5b 3E       		.byte	0x3e
 3715 0d5c AD000000 		.4byte	0xad
 3716 0d60 02       		.uleb128 0x2
 3717 0d61 91       		.byte	0x91
 3718 0d62 73       		.sleb128 -13
 3719 0d63 00       		.byte	0
 3720 0d64 2A       		.uleb128 0x2a
 3721 0d65 67657400 		.ascii	"get\000"
 3722 0d69 07       		.byte	0x7
 3723 0d6a 43       		.byte	0x43
 3724 0d6b 1B010000 		.4byte	0x11b
 3725 0d6f 00000000 		.4byte	.LFB275
 3726 0d73 1E000000 		.4byte	.LFE275-.LFB275
 3727 0d77 01       		.uleb128 0x1
 3728 0d78 9C       		.byte	0x9c
 3729 0d79 8B0D0000 		.4byte	0xd8b
 3730 0d7d 25       		.uleb128 0x25
 3731 0d7e 697000   		.ascii	"ip\000"
 3732 0d81 07       		.byte	0x7
 3733 0d82 43       		.byte	0x43
 3734 0d83 31030000 		.4byte	0x331
 3735 0d87 02       		.uleb128 0x2
 3736 0d88 91       		.byte	0x91
 3737 0d89 74       		.sleb128 -12
 3738 0d8a 00       		.byte	0
 3739 0d8b 29       		.uleb128 0x29
 3740 0d8c 78030000 		.4byte	.LASF151
 3741 0d90 07       		.byte	0x7
 3742 0d91 48       		.byte	0x48
 3743 0d92 1B010000 		.4byte	0x11b
 3744 0d96 00000000 		.4byte	.LFB276
 3745 0d9a 2C000000 		.4byte	.LFE276-.LFB276
 3746 0d9e 01       		.uleb128 0x1
 3747 0d9f 9C       		.byte	0x9c
 3748 0da0 CC0D0000 		.4byte	0xdcc
 3749 0da4 25       		.uleb128 0x25
 3750 0da5 697000   		.ascii	"ip\000"
 3751 0da8 07       		.byte	0x7
 3752 0da9 48       		.byte	0x48
 3753 0daa 31030000 		.4byte	0x331
 3754 0dae 02       		.uleb128 0x2
 3755 0daf 91       		.byte	0x91
 3756 0db0 74       		.sleb128 -12
 3757 0db1 25       		.uleb128 0x25
 3758 0db2 6200     		.ascii	"b\000"
ARM GAS  /tmp/ccA2omAw.s 			page 130


 3759 0db4 07       		.byte	0x7
 3760 0db5 48       		.byte	0x48
 3761 0db6 AD000000 		.4byte	0xad
 3762 0dba 02       		.uleb128 0x2
 3763 0dbb 91       		.byte	0x91
 3764 0dbc 73       		.sleb128 -13
 3765 0dbd 2B       		.uleb128 0x2b
 3766 0dbe A1020000 		.4byte	.LASF168
 3767 0dc2 07       		.byte	0x7
 3768 0dc3 48       		.byte	0x48
 3769 0dc4 47010000 		.4byte	0x147
 3770 0dc8 02       		.uleb128 0x2
 3771 0dc9 91       		.byte	0x91
 3772 0dca 6C       		.sleb128 -20
 3773 0dcb 00       		.byte	0
 3774 0dcc 29       		.uleb128 0x29
 3775 0dcd A9020000 		.4byte	.LASF152
 3776 0dd1 07       		.byte	0x7
 3777 0dd2 4D       		.byte	0x4d
 3778 0dd3 1B010000 		.4byte	0x11b
 3779 0dd7 00000000 		.4byte	.LFB277
 3780 0ddb 1E000000 		.4byte	.LFE277-.LFB277
 3781 0ddf 01       		.uleb128 0x1
 3782 0de0 9C       		.byte	0x9c
 3783 0de1 010E0000 		.4byte	0xe01
 3784 0de5 25       		.uleb128 0x25
 3785 0de6 697000   		.ascii	"ip\000"
 3786 0de9 07       		.byte	0x7
 3787 0dea 4D       		.byte	0x4d
 3788 0deb 31030000 		.4byte	0x331
 3789 0def 02       		.uleb128 0x2
 3790 0df0 91       		.byte	0x91
 3791 0df1 74       		.sleb128 -12
 3792 0df2 2B       		.uleb128 0x2b
 3793 0df3 A1020000 		.4byte	.LASF168
 3794 0df7 07       		.byte	0x7
 3795 0df8 4D       		.byte	0x4d
 3796 0df9 47010000 		.4byte	0x147
 3797 0dfd 02       		.uleb128 0x2
 3798 0dfe 91       		.byte	0x91
 3799 0dff 70       		.sleb128 -16
 3800 0e00 00       		.byte	0
 3801 0e01 29       		.uleb128 0x29
 3802 0e02 20030000 		.4byte	.LASF153
 3803 0e06 07       		.byte	0x7
 3804 0e07 52       		.byte	0x52
 3805 0e08 2C000000 		.4byte	0x2c
 3806 0e0c 00000000 		.4byte	.LFB278
 3807 0e10 26000000 		.4byte	.LFE278-.LFB278
 3808 0e14 01       		.uleb128 0x1
 3809 0e15 9C       		.byte	0x9c
 3810 0e16 4F0E0000 		.4byte	0xe4f
 3811 0e1a 25       		.uleb128 0x25
 3812 0e1b 697000   		.ascii	"ip\000"
 3813 0e1e 07       		.byte	0x7
 3814 0e1f 52       		.byte	0x52
 3815 0e20 31030000 		.4byte	0x331
ARM GAS  /tmp/ccA2omAw.s 			page 131


 3816 0e24 02       		.uleb128 0x2
 3817 0e25 91       		.byte	0x91
 3818 0e26 74       		.sleb128 -12
 3819 0e27 25       		.uleb128 0x25
 3820 0e28 627000   		.ascii	"bp\000"
 3821 0e2b 07       		.byte	0x7
 3822 0e2c 52       		.byte	0x52
 3823 0e2d 6E080000 		.4byte	0x86e
 3824 0e31 02       		.uleb128 0x2
 3825 0e32 91       		.byte	0x91
 3826 0e33 70       		.sleb128 -16
 3827 0e34 25       		.uleb128 0x25
 3828 0e35 6E00     		.ascii	"n\000"
 3829 0e37 07       		.byte	0x7
 3830 0e38 52       		.byte	0x52
 3831 0e39 2C000000 		.4byte	0x2c
 3832 0e3d 02       		.uleb128 0x2
 3833 0e3e 91       		.byte	0x91
 3834 0e3f 6C       		.sleb128 -20
 3835 0e40 2B       		.uleb128 0x2b
 3836 0e41 A1020000 		.4byte	.LASF168
 3837 0e45 07       		.byte	0x7
 3838 0e46 52       		.byte	0x52
 3839 0e47 47010000 		.4byte	0x147
 3840 0e4b 02       		.uleb128 0x2
 3841 0e4c 91       		.byte	0x91
 3842 0e4d 68       		.sleb128 -24
 3843 0e4e 00       		.byte	0
 3844 0e4f 29       		.uleb128 0x29
 3845 0e50 0F010000 		.4byte	.LASF154
 3846 0e54 07       		.byte	0x7
 3847 0e55 57       		.byte	0x57
 3848 0e56 2C000000 		.4byte	0x2c
 3849 0e5a 00000000 		.4byte	.LFB279
 3850 0e5e 26000000 		.4byte	.LFE279-.LFB279
 3851 0e62 01       		.uleb128 0x1
 3852 0e63 9C       		.byte	0x9c
 3853 0e64 9D0E0000 		.4byte	0xe9d
 3854 0e68 25       		.uleb128 0x25
 3855 0e69 697000   		.ascii	"ip\000"
 3856 0e6c 07       		.byte	0x7
 3857 0e6d 57       		.byte	0x57
 3858 0e6e 31030000 		.4byte	0x331
 3859 0e72 02       		.uleb128 0x2
 3860 0e73 91       		.byte	0x91
 3861 0e74 74       		.sleb128 -12
 3862 0e75 25       		.uleb128 0x25
 3863 0e76 627000   		.ascii	"bp\000"
 3864 0e79 07       		.byte	0x7
 3865 0e7a 57       		.byte	0x57
 3866 0e7b 39080000 		.4byte	0x839
 3867 0e7f 02       		.uleb128 0x2
 3868 0e80 91       		.byte	0x91
 3869 0e81 70       		.sleb128 -16
 3870 0e82 25       		.uleb128 0x25
 3871 0e83 6E00     		.ascii	"n\000"
 3872 0e85 07       		.byte	0x7
ARM GAS  /tmp/ccA2omAw.s 			page 132


 3873 0e86 57       		.byte	0x57
 3874 0e87 2C000000 		.4byte	0x2c
 3875 0e8b 02       		.uleb128 0x2
 3876 0e8c 91       		.byte	0x91
 3877 0e8d 6C       		.sleb128 -20
 3878 0e8e 2B       		.uleb128 0x2b
 3879 0e8f A1020000 		.4byte	.LASF168
 3880 0e93 07       		.byte	0x7
 3881 0e94 57       		.byte	0x57
 3882 0e95 47010000 		.4byte	0x147
 3883 0e99 02       		.uleb128 0x2
 3884 0e9a 91       		.byte	0x91
 3885 0e9b 68       		.sleb128 -24
 3886 0e9c 00       		.byte	0
 3887 0e9d 2C       		.uleb128 0x2c
 3888 0e9e A7080000 		.4byte	.LASF190
 3889 0ea2 07       		.byte	0x7
 3890 0ea3 6C       		.byte	0x6c
 3891 0ea4 00000000 		.4byte	.LFB280
 3892 0ea8 08000000 		.4byte	.LFE280-.LFB280
 3893 0eac 01       		.uleb128 0x1
 3894 0ead 9C       		.byte	0x9c
 3895 0eae 2D       		.uleb128 0x2d
 3896 0eaf 02010000 		.4byte	.LASF171
 3897 0eb3 07       		.byte	0x7
 3898 0eb4 80       		.byte	0x80
 3899 0eb5 00000000 		.4byte	.LFB281
 3900 0eb9 60000000 		.4byte	.LFE281-.LFB281
 3901 0ebd 01       		.uleb128 0x1
 3902 0ebe 9C       		.byte	0x9c
 3903 0ebf EE0E0000 		.4byte	0xeee
 3904 0ec3 25       		.uleb128 0x25
 3905 0ec4 73647000 		.ascii	"sdp\000"
 3906 0ec8 07       		.byte	0x7
 3907 0ec9 80       		.byte	0x80
 3908 0eca EE0E0000 		.4byte	0xeee
 3909 0ece 02       		.uleb128 0x2
 3910 0ecf 91       		.byte	0x91
 3911 0ed0 74       		.sleb128 -12
 3912 0ed1 2B       		.uleb128 0x2b
 3913 0ed2 80020000 		.4byte	.LASF169
 3914 0ed6 07       		.byte	0x7
 3915 0ed7 80       		.byte	0x80
 3916 0ed8 12080000 		.4byte	0x812
 3917 0edc 02       		.uleb128 0x2
 3918 0edd 91       		.byte	0x91
 3919 0ede 70       		.sleb128 -16
 3920 0edf 2B       		.uleb128 0x2b
 3921 0ee0 67080000 		.4byte	.LASF170
 3922 0ee4 07       		.byte	0x7
 3923 0ee5 80       		.byte	0x80
 3924 0ee6 12080000 		.4byte	0x812
 3925 0eea 02       		.uleb128 0x2
 3926 0eeb 91       		.byte	0x91
 3927 0eec 6C       		.sleb128 -20
 3928 0eed 00       		.byte	0
 3929 0eee 09       		.uleb128 0x9
ARM GAS  /tmp/ccA2omAw.s 			page 133


 3930 0eef 04       		.byte	0x4
 3931 0ef0 7B090000 		.4byte	0x97b
 3932 0ef4 2D       		.uleb128 0x2d
 3933 0ef5 43070000 		.4byte	.LASF172
 3934 0ef9 07       		.byte	0x7
 3935 0efa 93       		.byte	0x93
 3936 0efb 00000000 		.4byte	.LFB282
 3937 0eff 24000000 		.4byte	.LFE282-.LFB282
 3938 0f03 01       		.uleb128 0x1
 3939 0f04 9C       		.byte	0x9c
 3940 0f05 2F0F0000 		.4byte	0xf2f
 3941 0f09 25       		.uleb128 0x25
 3942 0f0a 73647000 		.ascii	"sdp\000"
 3943 0f0e 07       		.byte	0x7
 3944 0f0f 93       		.byte	0x93
 3945 0f10 EE0E0000 		.4byte	0xeee
 3946 0f14 02       		.uleb128 0x2
 3947 0f15 91       		.byte	0x91
 3948 0f16 74       		.sleb128 -12
 3949 0f17 2B       		.uleb128 0x2b
 3950 0f18 3C070000 		.4byte	.LASF173
 3951 0f1c 07       		.byte	0x7
 3952 0f1d 93       		.byte	0x93
 3953 0f1e 2F0F0000 		.4byte	0xf2f
 3954 0f22 02       		.uleb128 0x2
 3955 0f23 91       		.byte	0x91
 3956 0f24 70       		.sleb128 -16
 3957 0f25 23       		.uleb128 0x23
 3958 0f26 00000000 		.4byte	.LASF175
 3959 0f2a 4A0F0000 		.4byte	0xf4a
 3960 0f2e 00       		.byte	0
 3961 0f2f 09       		.uleb128 0x9
 3962 0f30 04       		.byte	0x4
 3963 0f31 350F0000 		.4byte	0xf35
 3964 0f35 16       		.uleb128 0x16
 3965 0f36 3B0A0000 		.4byte	0xa3b
 3966 0f3a 17       		.uleb128 0x17
 3967 0f3b E3060000 		.4byte	0x6e3
 3968 0f3f 4A0F0000 		.4byte	0xf4a
 3969 0f43 18       		.uleb128 0x18
 3970 0f44 67040000 		.4byte	0x467
 3971 0f48 07       		.byte	0x7
 3972 0f49 00       		.byte	0
 3973 0f4a 16       		.uleb128 0x16
 3974 0f4b 3A0F0000 		.4byte	0xf3a
 3975 0f4f 2D       		.uleb128 0x2d
 3976 0f50 E7040000 		.4byte	.LASF176
 3977 0f54 07       		.byte	0x7
 3978 0f55 A8       		.byte	0xa8
 3979 0f56 00000000 		.4byte	.LFB283
 3980 0f5a 38000000 		.4byte	.LFE283-.LFB283
 3981 0f5e 01       		.uleb128 0x1
 3982 0f5f 9C       		.byte	0x9c
 3983 0f60 7C0F0000 		.4byte	0xf7c
 3984 0f64 25       		.uleb128 0x25
 3985 0f65 73647000 		.ascii	"sdp\000"
 3986 0f69 07       		.byte	0x7
ARM GAS  /tmp/ccA2omAw.s 			page 134


 3987 0f6a A8       		.byte	0xa8
 3988 0f6b EE0E0000 		.4byte	0xeee
 3989 0f6f 02       		.uleb128 0x2
 3990 0f70 91       		.byte	0x91
 3991 0f71 74       		.sleb128 -12
 3992 0f72 23       		.uleb128 0x23
 3993 0f73 AE080000 		.4byte	.LASF177
 3994 0f77 8C0F0000 		.4byte	0xf8c
 3995 0f7b 00       		.byte	0
 3996 0f7c 17       		.uleb128 0x17
 3997 0f7d E3060000 		.4byte	0x6e3
 3998 0f81 8C0F0000 		.4byte	0xf8c
 3999 0f85 18       		.uleb128 0x18
 4000 0f86 67040000 		.4byte	0x467
 4001 0f8a 06       		.byte	0x6
 4002 0f8b 00       		.byte	0
 4003 0f8c 16       		.uleb128 0x16
 4004 0f8d 7C0F0000 		.4byte	0xf7c
 4005 0f91 2D       		.uleb128 0x2d
 4006 0f92 2C070000 		.4byte	.LASF178
 4007 0f96 07       		.byte	0x7
 4008 0f97 C7       		.byte	0xc7
 4009 0f98 00000000 		.4byte	.LFB284
 4010 0f9c 52000000 		.4byte	.LFE284-.LFB284
 4011 0fa0 01       		.uleb128 0x1
 4012 0fa1 9C       		.byte	0x9c
 4013 0fa2 CA0F0000 		.4byte	0xfca
 4014 0fa6 25       		.uleb128 0x25
 4015 0fa7 73647000 		.ascii	"sdp\000"
 4016 0fab 07       		.byte	0x7
 4017 0fac C7       		.byte	0xc7
 4018 0fad EE0E0000 		.4byte	0xeee
 4019 0fb1 02       		.uleb128 0x2
 4020 0fb2 91       		.byte	0x91
 4021 0fb3 74       		.sleb128 -12
 4022 0fb4 25       		.uleb128 0x25
 4023 0fb5 6200     		.ascii	"b\000"
 4024 0fb7 07       		.byte	0x7
 4025 0fb8 C7       		.byte	0xc7
 4026 0fb9 AD000000 		.4byte	0xad
 4027 0fbd 02       		.uleb128 0x2
 4028 0fbe 91       		.byte	0x91
 4029 0fbf 73       		.sleb128 -13
 4030 0fc0 23       		.uleb128 0x23
 4031 0fc1 72000000 		.4byte	.LASF179
 4032 0fc5 DA0F0000 		.4byte	0xfda
 4033 0fc9 00       		.byte	0
 4034 0fca 17       		.uleb128 0x17
 4035 0fcb E3060000 		.4byte	0x6e3
 4036 0fcf DA0F0000 		.4byte	0xfda
 4037 0fd3 18       		.uleb128 0x18
 4038 0fd4 67040000 		.4byte	0x467
 4039 0fd8 0F       		.byte	0xf
 4040 0fd9 00       		.byte	0
 4041 0fda 16       		.uleb128 0x16
 4042 0fdb CA0F0000 		.4byte	0xfca
 4043 0fdf 2E       		.uleb128 0x2e
ARM GAS  /tmp/ccA2omAw.s 			page 135


 4044 0fe0 4A080000 		.4byte	.LASF181
 4045 0fe4 07       		.byte	0x7
 4046 0fe5 E1       		.byte	0xe1
 4047 0fe6 1B010000 		.4byte	0x11b
 4048 0fea 00000000 		.4byte	.LFB285
 4049 0fee 2E000000 		.4byte	.LFE285-.LFB285
 4050 0ff2 01       		.uleb128 0x1
 4051 0ff3 9C       		.byte	0x9c
 4052 0ff4 1C100000 		.4byte	0x101c
 4053 0ff8 25       		.uleb128 0x25
 4054 0ff9 73647000 		.ascii	"sdp\000"
 4055 0ffd 07       		.byte	0x7
 4056 0ffe E1       		.byte	0xe1
 4057 0fff EE0E0000 		.4byte	0xeee
 4058 1003 02       		.uleb128 0x2
 4059 1004 91       		.byte	0x91
 4060 1005 6C       		.sleb128 -20
 4061 1006 2F       		.uleb128 0x2f
 4062 1007 6200     		.ascii	"b\000"
 4063 1009 07       		.byte	0x7
 4064 100a E2       		.byte	0xe2
 4065 100b 1B010000 		.4byte	0x11b
 4066 100f 02       		.uleb128 0x2
 4067 1010 91       		.byte	0x91
 4068 1011 74       		.sleb128 -12
 4069 1012 23       		.uleb128 0x23
 4070 1013 99000000 		.4byte	.LASF180
 4071 1017 2C100000 		.4byte	0x102c
 4072 101b 00       		.byte	0
 4073 101c 17       		.uleb128 0x17
 4074 101d E3060000 		.4byte	0x6e3
 4075 1021 2C100000 		.4byte	0x102c
 4076 1025 18       		.uleb128 0x18
 4077 1026 67040000 		.4byte	0x467
 4078 102a 0E       		.byte	0xe
 4079 102b 00       		.byte	0
 4080 102c 16       		.uleb128 0x16
 4081 102d 1C100000 		.4byte	0x101c
 4082 1031 2E       		.uleb128 0x2e
 4083 1032 2A000000 		.4byte	.LASF182
 4084 1036 07       		.byte	0x7
 4085 1037 FC       		.byte	0xfc
 4086 1038 4E090000 		.4byte	0x94e
 4087 103c 00000000 		.4byte	.LFB286
 4088 1040 2A000000 		.4byte	.LFE286-.LFB286
 4089 1044 01       		.uleb128 0x1
 4090 1045 9C       		.byte	0x9c
 4091 1046 65100000 		.4byte	0x1065
 4092 104a 25       		.uleb128 0x25
 4093 104b 73647000 		.ascii	"sdp\000"
 4094 104f 07       		.byte	0x7
 4095 1050 FC       		.byte	0xfc
 4096 1051 EE0E0000 		.4byte	0xeee
 4097 1055 02       		.uleb128 0x2
 4098 1056 91       		.byte	0x91
 4099 1057 6C       		.sleb128 -20
 4100 1058 2F       		.uleb128 0x2f
ARM GAS  /tmp/ccA2omAw.s 			page 136


 4101 1059 6200     		.ascii	"b\000"
 4102 105b 07       		.byte	0x7
 4103 105c FD       		.byte	0xfd
 4104 105d 4E090000 		.4byte	0x94e
 4105 1061 02       		.uleb128 0x2
 4106 1062 91       		.byte	0x91
 4107 1063 77       		.sleb128 -9
 4108 1064 00       		.byte	0
 4109 1065 30       		.uleb128 0x30
 4110 1066 97080000 		.4byte	.LASF183
 4111 106a 07       		.byte	0x7
 4112 106b 1501     		.2byte	0x115
 4113 106d 4E090000 		.4byte	0x94e
 4114 1071 00000000 		.4byte	.LFB287
 4115 1075 2A000000 		.4byte	.LFE287-.LFB287
 4116 1079 01       		.uleb128 0x1
 4117 107a 9C       		.byte	0x9c
 4118 107b 9C100000 		.4byte	0x109c
 4119 107f 27       		.uleb128 0x27
 4120 1080 73647000 		.ascii	"sdp\000"
 4121 1084 07       		.byte	0x7
 4122 1085 1501     		.2byte	0x115
 4123 1087 EE0E0000 		.4byte	0xeee
 4124 108b 02       		.uleb128 0x2
 4125 108c 91       		.byte	0x91
 4126 108d 6C       		.sleb128 -20
 4127 108e 31       		.uleb128 0x31
 4128 108f 6200     		.ascii	"b\000"
 4129 1091 07       		.byte	0x7
 4130 1092 1601     		.2byte	0x116
 4131 1094 4E090000 		.4byte	0x94e
 4132 1098 02       		.uleb128 0x2
 4133 1099 91       		.byte	0x91
 4134 109a 77       		.sleb128 -9
 4135 109b 00       		.byte	0
 4136 109c 2F       		.uleb128 0x2f
 4137 109d 766D7400 		.ascii	"vmt\000"
 4138 10a1 07       		.byte	0x7
 4139 10a2 5C       		.byte	0x5c
 4140 10a3 BA0A0000 		.4byte	0xaba
 4141 10a7 05       		.uleb128 0x5
 4142 10a8 03       		.byte	0x3
 4143 10a9 00000000 		.4byte	vmt
 4144 10ad 32       		.uleb128 0x32
 4145 10ae D9000000 		.4byte	.LASF184
 4146 10b2 15       		.byte	0x15
 4147 10b3 FA06     		.2byte	0x6fa
 4148 10b5 B9100000 		.4byte	0x10b9
 4149 10b9 0F       		.uleb128 0xf
 4150 10ba C3000000 		.4byte	0xc3
 4151 10be 33       		.uleb128 0x33
 4152 10bf 636800   		.ascii	"ch\000"
 4153 10c2 0D       		.byte	0xd
 4154 10c3 0B02     		.2byte	0x20b
 4155 10c5 00040000 		.4byte	0x400
 4156 10c9 00       		.byte	0
 4157              		.section	.debug_abbrev,"",%progbits
ARM GAS  /tmp/ccA2omAw.s 			page 137


 4158              	.Ldebug_abbrev0:
 4159 0000 01       		.uleb128 0x1
 4160 0001 11       		.uleb128 0x11
 4161 0002 01       		.byte	0x1
 4162 0003 25       		.uleb128 0x25
 4163 0004 0E       		.uleb128 0xe
 4164 0005 13       		.uleb128 0x13
 4165 0006 0B       		.uleb128 0xb
 4166 0007 03       		.uleb128 0x3
 4167 0008 0E       		.uleb128 0xe
 4168 0009 1B       		.uleb128 0x1b
 4169 000a 0E       		.uleb128 0xe
 4170 000b 55       		.uleb128 0x55
 4171 000c 17       		.uleb128 0x17
 4172 000d 11       		.uleb128 0x11
 4173 000e 01       		.uleb128 0x1
 4174 000f 10       		.uleb128 0x10
 4175 0010 17       		.uleb128 0x17
 4176 0011 00       		.byte	0
 4177 0012 00       		.byte	0
 4178 0013 02       		.uleb128 0x2
 4179 0014 24       		.uleb128 0x24
 4180 0015 00       		.byte	0
 4181 0016 0B       		.uleb128 0xb
 4182 0017 0B       		.uleb128 0xb
 4183 0018 3E       		.uleb128 0x3e
 4184 0019 0B       		.uleb128 0xb
 4185 001a 03       		.uleb128 0x3
 4186 001b 08       		.uleb128 0x8
 4187 001c 00       		.byte	0
 4188 001d 00       		.byte	0
 4189 001e 03       		.uleb128 0x3
 4190 001f 16       		.uleb128 0x16
 4191 0020 00       		.byte	0
 4192 0021 03       		.uleb128 0x3
 4193 0022 0E       		.uleb128 0xe
 4194 0023 3A       		.uleb128 0x3a
 4195 0024 0B       		.uleb128 0xb
 4196 0025 3B       		.uleb128 0x3b
 4197 0026 0B       		.uleb128 0xb
 4198 0027 49       		.uleb128 0x49
 4199 0028 13       		.uleb128 0x13
 4200 0029 00       		.byte	0
 4201 002a 00       		.byte	0
 4202 002b 04       		.uleb128 0x4
 4203 002c 24       		.uleb128 0x24
 4204 002d 00       		.byte	0
 4205 002e 0B       		.uleb128 0xb
 4206 002f 0B       		.uleb128 0xb
 4207 0030 3E       		.uleb128 0x3e
 4208 0031 0B       		.uleb128 0xb
 4209 0032 03       		.uleb128 0x3
 4210 0033 0E       		.uleb128 0xe
 4211 0034 00       		.byte	0
 4212 0035 00       		.byte	0
 4213 0036 05       		.uleb128 0x5
 4214 0037 13       		.uleb128 0x13
ARM GAS  /tmp/ccA2omAw.s 			page 138


 4215 0038 01       		.byte	0x1
 4216 0039 03       		.uleb128 0x3
 4217 003a 0E       		.uleb128 0xe
 4218 003b 0B       		.uleb128 0xb
 4219 003c 0B       		.uleb128 0xb
 4220 003d 3A       		.uleb128 0x3a
 4221 003e 0B       		.uleb128 0xb
 4222 003f 3B       		.uleb128 0x3b
 4223 0040 0B       		.uleb128 0xb
 4224 0041 01       		.uleb128 0x1
 4225 0042 13       		.uleb128 0x13
 4226 0043 00       		.byte	0
 4227 0044 00       		.byte	0
 4228 0045 06       		.uleb128 0x6
 4229 0046 0D       		.uleb128 0xd
 4230 0047 00       		.byte	0
 4231 0048 03       		.uleb128 0x3
 4232 0049 0E       		.uleb128 0xe
 4233 004a 3A       		.uleb128 0x3a
 4234 004b 0B       		.uleb128 0xb
 4235 004c 3B       		.uleb128 0x3b
 4236 004d 0B       		.uleb128 0xb
 4237 004e 49       		.uleb128 0x49
 4238 004f 13       		.uleb128 0x13
 4239 0050 38       		.uleb128 0x38
 4240 0051 0B       		.uleb128 0xb
 4241 0052 00       		.byte	0
 4242 0053 00       		.byte	0
 4243 0054 07       		.uleb128 0x7
 4244 0055 0D       		.uleb128 0xd
 4245 0056 00       		.byte	0
 4246 0057 03       		.uleb128 0x3
 4247 0058 08       		.uleb128 0x8
 4248 0059 3A       		.uleb128 0x3a
 4249 005a 0B       		.uleb128 0xb
 4250 005b 3B       		.uleb128 0x3b
 4251 005c 05       		.uleb128 0x5
 4252 005d 49       		.uleb128 0x49
 4253 005e 13       		.uleb128 0x13
 4254 005f 38       		.uleb128 0x38
 4255 0060 0B       		.uleb128 0xb
 4256 0061 00       		.byte	0
 4257 0062 00       		.byte	0
 4258 0063 08       		.uleb128 0x8
 4259 0064 0D       		.uleb128 0xd
 4260 0065 00       		.byte	0
 4261 0066 03       		.uleb128 0x3
 4262 0067 0E       		.uleb128 0xe
 4263 0068 3A       		.uleb128 0x3a
 4264 0069 0B       		.uleb128 0xb
 4265 006a 3B       		.uleb128 0x3b
 4266 006b 05       		.uleb128 0x5
 4267 006c 49       		.uleb128 0x49
 4268 006d 13       		.uleb128 0x13
 4269 006e 38       		.uleb128 0x38
 4270 006f 0B       		.uleb128 0xb
 4271 0070 00       		.byte	0
ARM GAS  /tmp/ccA2omAw.s 			page 139


 4272 0071 00       		.byte	0
 4273 0072 09       		.uleb128 0x9
 4274 0073 0F       		.uleb128 0xf
 4275 0074 00       		.byte	0
 4276 0075 0B       		.uleb128 0xb
 4277 0076 0B       		.uleb128 0xb
 4278 0077 49       		.uleb128 0x49
 4279 0078 13       		.uleb128 0x13
 4280 0079 00       		.byte	0
 4281 007a 00       		.byte	0
 4282 007b 0A       		.uleb128 0xa
 4283 007c 13       		.uleb128 0x13
 4284 007d 01       		.byte	0x1
 4285 007e 03       		.uleb128 0x3
 4286 007f 0E       		.uleb128 0xe
 4287 0080 0B       		.uleb128 0xb
 4288 0081 0B       		.uleb128 0xb
 4289 0082 3A       		.uleb128 0x3a
 4290 0083 0B       		.uleb128 0xb
 4291 0084 3B       		.uleb128 0x3b
 4292 0085 05       		.uleb128 0x5
 4293 0086 01       		.uleb128 0x1
 4294 0087 13       		.uleb128 0x13
 4295 0088 00       		.byte	0
 4296 0089 00       		.byte	0
 4297 008a 0B       		.uleb128 0xb
 4298 008b 15       		.uleb128 0x15
 4299 008c 01       		.byte	0x1
 4300 008d 27       		.uleb128 0x27
 4301 008e 19       		.uleb128 0x19
 4302 008f 01       		.uleb128 0x1
 4303 0090 13       		.uleb128 0x13
 4304 0091 00       		.byte	0
 4305 0092 00       		.byte	0
 4306 0093 0C       		.uleb128 0xc
 4307 0094 05       		.uleb128 0x5
 4308 0095 00       		.byte	0
 4309 0096 49       		.uleb128 0x49
 4310 0097 13       		.uleb128 0x13
 4311 0098 00       		.byte	0
 4312 0099 00       		.byte	0
 4313 009a 0D       		.uleb128 0xd
 4314 009b 0F       		.uleb128 0xf
 4315 009c 00       		.byte	0
 4316 009d 0B       		.uleb128 0xb
 4317 009e 0B       		.uleb128 0xb
 4318 009f 00       		.byte	0
 4319 00a0 00       		.byte	0
 4320 00a1 0E       		.uleb128 0xe
 4321 00a2 13       		.uleb128 0x13
 4322 00a3 01       		.byte	0x1
 4323 00a4 03       		.uleb128 0x3
 4324 00a5 0E       		.uleb128 0xe
 4325 00a6 0B       		.uleb128 0xb
 4326 00a7 05       		.uleb128 0x5
 4327 00a8 3A       		.uleb128 0x3a
 4328 00a9 0B       		.uleb128 0xb
ARM GAS  /tmp/ccA2omAw.s 			page 140


 4329 00aa 3B       		.uleb128 0x3b
 4330 00ab 05       		.uleb128 0x5
 4331 00ac 01       		.uleb128 0x1
 4332 00ad 13       		.uleb128 0x13
 4333 00ae 00       		.byte	0
 4334 00af 00       		.byte	0
 4335 00b0 0F       		.uleb128 0xf
 4336 00b1 35       		.uleb128 0x35
 4337 00b2 00       		.byte	0
 4338 00b3 49       		.uleb128 0x49
 4339 00b4 13       		.uleb128 0x13
 4340 00b5 00       		.byte	0
 4341 00b6 00       		.byte	0
 4342 00b7 10       		.uleb128 0x10
 4343 00b8 13       		.uleb128 0x13
 4344 00b9 01       		.byte	0x1
 4345 00ba 0B       		.uleb128 0xb
 4346 00bb 0B       		.uleb128 0xb
 4347 00bc 3A       		.uleb128 0x3a
 4348 00bd 0B       		.uleb128 0xb
 4349 00be 3B       		.uleb128 0x3b
 4350 00bf 05       		.uleb128 0x5
 4351 00c0 01       		.uleb128 0x1
 4352 00c1 13       		.uleb128 0x13
 4353 00c2 00       		.byte	0
 4354 00c3 00       		.byte	0
 4355 00c4 11       		.uleb128 0x11
 4356 00c5 16       		.uleb128 0x16
 4357 00c6 00       		.byte	0
 4358 00c7 03       		.uleb128 0x3
 4359 00c8 0E       		.uleb128 0xe
 4360 00c9 3A       		.uleb128 0x3a
 4361 00ca 0B       		.uleb128 0xb
 4362 00cb 3B       		.uleb128 0x3b
 4363 00cc 05       		.uleb128 0x5
 4364 00cd 49       		.uleb128 0x49
 4365 00ce 13       		.uleb128 0x13
 4366 00cf 00       		.byte	0
 4367 00d0 00       		.byte	0
 4368 00d1 12       		.uleb128 0x12
 4369 00d2 0D       		.uleb128 0xd
 4370 00d3 00       		.byte	0
 4371 00d4 03       		.uleb128 0x3
 4372 00d5 08       		.uleb128 0x8
 4373 00d6 3A       		.uleb128 0x3a
 4374 00d7 0B       		.uleb128 0xb
 4375 00d8 3B       		.uleb128 0x3b
 4376 00d9 0B       		.uleb128 0xb
 4377 00da 49       		.uleb128 0x49
 4378 00db 13       		.uleb128 0x13
 4379 00dc 38       		.uleb128 0x38
 4380 00dd 0B       		.uleb128 0xb
 4381 00de 00       		.byte	0
 4382 00df 00       		.byte	0
 4383 00e0 13       		.uleb128 0x13
 4384 00e1 13       		.uleb128 0x13
 4385 00e2 01       		.byte	0x1
ARM GAS  /tmp/ccA2omAw.s 			page 141


 4386 00e3 0B       		.uleb128 0xb
 4387 00e4 0B       		.uleb128 0xb
 4388 00e5 3A       		.uleb128 0x3a
 4389 00e6 0B       		.uleb128 0xb
 4390 00e7 3B       		.uleb128 0x3b
 4391 00e8 0B       		.uleb128 0xb
 4392 00e9 01       		.uleb128 0x1
 4393 00ea 13       		.uleb128 0x13
 4394 00eb 00       		.byte	0
 4395 00ec 00       		.byte	0
 4396 00ed 14       		.uleb128 0x14
 4397 00ee 17       		.uleb128 0x17
 4398 00ef 01       		.byte	0x1
 4399 00f0 0B       		.uleb128 0xb
 4400 00f1 0B       		.uleb128 0xb
 4401 00f2 3A       		.uleb128 0x3a
 4402 00f3 0B       		.uleb128 0xb
 4403 00f4 3B       		.uleb128 0x3b
 4404 00f5 0B       		.uleb128 0xb
 4405 00f6 01       		.uleb128 0x1
 4406 00f7 13       		.uleb128 0x13
 4407 00f8 00       		.byte	0
 4408 00f9 00       		.byte	0
 4409 00fa 15       		.uleb128 0x15
 4410 00fb 0D       		.uleb128 0xd
 4411 00fc 00       		.byte	0
 4412 00fd 03       		.uleb128 0x3
 4413 00fe 0E       		.uleb128 0xe
 4414 00ff 3A       		.uleb128 0x3a
 4415 0100 0B       		.uleb128 0xb
 4416 0101 3B       		.uleb128 0x3b
 4417 0102 05       		.uleb128 0x5
 4418 0103 49       		.uleb128 0x49
 4419 0104 13       		.uleb128 0x13
 4420 0105 00       		.byte	0
 4421 0106 00       		.byte	0
 4422 0107 16       		.uleb128 0x16
 4423 0108 26       		.uleb128 0x26
 4424 0109 00       		.byte	0
 4425 010a 49       		.uleb128 0x49
 4426 010b 13       		.uleb128 0x13
 4427 010c 00       		.byte	0
 4428 010d 00       		.byte	0
 4429 010e 17       		.uleb128 0x17
 4430 010f 01       		.uleb128 0x1
 4431 0110 01       		.byte	0x1
 4432 0111 49       		.uleb128 0x49
 4433 0112 13       		.uleb128 0x13
 4434 0113 01       		.uleb128 0x1
 4435 0114 13       		.uleb128 0x13
 4436 0115 00       		.byte	0
 4437 0116 00       		.byte	0
 4438 0117 18       		.uleb128 0x18
 4439 0118 21       		.uleb128 0x21
 4440 0119 00       		.byte	0
 4441 011a 49       		.uleb128 0x49
 4442 011b 13       		.uleb128 0x13
ARM GAS  /tmp/ccA2omAw.s 			page 142


 4443 011c 2F       		.uleb128 0x2f
 4444 011d 0B       		.uleb128 0xb
 4445 011e 00       		.byte	0
 4446 011f 00       		.byte	0
 4447 0120 19       		.uleb128 0x19
 4448 0121 15       		.uleb128 0x15
 4449 0122 01       		.byte	0x1
 4450 0123 27       		.uleb128 0x27
 4451 0124 19       		.uleb128 0x19
 4452 0125 49       		.uleb128 0x49
 4453 0126 13       		.uleb128 0x13
 4454 0127 01       		.uleb128 0x1
 4455 0128 13       		.uleb128 0x13
 4456 0129 00       		.byte	0
 4457 012a 00       		.byte	0
 4458 012b 1A       		.uleb128 0x1a
 4459 012c 04       		.uleb128 0x4
 4460 012d 01       		.byte	0x1
 4461 012e 0B       		.uleb128 0xb
 4462 012f 0B       		.uleb128 0xb
 4463 0130 3A       		.uleb128 0x3a
 4464 0131 0B       		.uleb128 0xb
 4465 0132 3B       		.uleb128 0x3b
 4466 0133 0B       		.uleb128 0xb
 4467 0134 01       		.uleb128 0x1
 4468 0135 13       		.uleb128 0x13
 4469 0136 00       		.byte	0
 4470 0137 00       		.byte	0
 4471 0138 1B       		.uleb128 0x1b
 4472 0139 28       		.uleb128 0x28
 4473 013a 00       		.byte	0
 4474 013b 03       		.uleb128 0x3
 4475 013c 0E       		.uleb128 0xe
 4476 013d 1C       		.uleb128 0x1c
 4477 013e 0D       		.uleb128 0xd
 4478 013f 00       		.byte	0
 4479 0140 00       		.byte	0
 4480 0141 1C       		.uleb128 0x1c
 4481 0142 2E       		.uleb128 0x2e
 4482 0143 01       		.byte	0x1
 4483 0144 03       		.uleb128 0x3
 4484 0145 0E       		.uleb128 0xe
 4485 0146 3A       		.uleb128 0x3a
 4486 0147 0B       		.uleb128 0xb
 4487 0148 3B       		.uleb128 0x3b
 4488 0149 05       		.uleb128 0x5
 4489 014a 27       		.uleb128 0x27
 4490 014b 19       		.uleb128 0x19
 4491 014c 20       		.uleb128 0x20
 4492 014d 0B       		.uleb128 0xb
 4493 014e 01       		.uleb128 0x1
 4494 014f 13       		.uleb128 0x13
 4495 0150 00       		.byte	0
 4496 0151 00       		.byte	0
 4497 0152 1D       		.uleb128 0x1d
 4498 0153 05       		.uleb128 0x5
 4499 0154 00       		.byte	0
ARM GAS  /tmp/ccA2omAw.s 			page 143


 4500 0155 03       		.uleb128 0x3
 4501 0156 0E       		.uleb128 0xe
 4502 0157 3A       		.uleb128 0x3a
 4503 0158 0B       		.uleb128 0xb
 4504 0159 3B       		.uleb128 0x3b
 4505 015a 05       		.uleb128 0x5
 4506 015b 49       		.uleb128 0x49
 4507 015c 13       		.uleb128 0x13
 4508 015d 00       		.byte	0
 4509 015e 00       		.byte	0
 4510 015f 1E       		.uleb128 0x1e
 4511 0160 2E       		.uleb128 0x2e
 4512 0161 01       		.byte	0x1
 4513 0162 03       		.uleb128 0x3
 4514 0163 0E       		.uleb128 0xe
 4515 0164 3A       		.uleb128 0x3a
 4516 0165 0B       		.uleb128 0xb
 4517 0166 3B       		.uleb128 0x3b
 4518 0167 05       		.uleb128 0x5
 4519 0168 27       		.uleb128 0x27
 4520 0169 19       		.uleb128 0x19
 4521 016a 11       		.uleb128 0x11
 4522 016b 01       		.uleb128 0x1
 4523 016c 12       		.uleb128 0x12
 4524 016d 06       		.uleb128 0x6
 4525 016e 40       		.uleb128 0x40
 4526 016f 18       		.uleb128 0x18
 4527 0170 9742     		.uleb128 0x2117
 4528 0172 19       		.uleb128 0x19
 4529 0173 01       		.uleb128 0x1
 4530 0174 13       		.uleb128 0x13
 4531 0175 00       		.byte	0
 4532 0176 00       		.byte	0
 4533 0177 1F       		.uleb128 0x1f
 4534 0178 1D       		.uleb128 0x1d
 4535 0179 01       		.byte	0x1
 4536 017a 31       		.uleb128 0x31
 4537 017b 13       		.uleb128 0x13
 4538 017c 11       		.uleb128 0x11
 4539 017d 01       		.uleb128 0x1
 4540 017e 12       		.uleb128 0x12
 4541 017f 06       		.uleb128 0x6
 4542 0180 58       		.uleb128 0x58
 4543 0181 0B       		.uleb128 0xb
 4544 0182 59       		.uleb128 0x59
 4545 0183 05       		.uleb128 0x5
 4546 0184 00       		.byte	0
 4547 0185 00       		.byte	0
 4548 0186 20       		.uleb128 0x20
 4549 0187 05       		.uleb128 0x5
 4550 0188 00       		.byte	0
 4551 0189 31       		.uleb128 0x31
 4552 018a 13       		.uleb128 0x13
 4553 018b 02       		.uleb128 0x2
 4554 018c 18       		.uleb128 0x18
 4555 018d 00       		.byte	0
 4556 018e 00       		.byte	0
ARM GAS  /tmp/ccA2omAw.s 			page 144


 4557 018f 21       		.uleb128 0x21
 4558 0190 2E       		.uleb128 0x2e
 4559 0191 00       		.byte	0
 4560 0192 03       		.uleb128 0x3
 4561 0193 0E       		.uleb128 0xe
 4562 0194 3A       		.uleb128 0x3a
 4563 0195 0B       		.uleb128 0xb
 4564 0196 3B       		.uleb128 0x3b
 4565 0197 05       		.uleb128 0x5
 4566 0198 27       		.uleb128 0x27
 4567 0199 19       		.uleb128 0x19
 4568 019a 11       		.uleb128 0x11
 4569 019b 01       		.uleb128 0x1
 4570 019c 12       		.uleb128 0x12
 4571 019d 06       		.uleb128 0x6
 4572 019e 40       		.uleb128 0x40
 4573 019f 18       		.uleb128 0x18
 4574 01a0 9642     		.uleb128 0x2116
 4575 01a2 19       		.uleb128 0x19
 4576 01a3 00       		.byte	0
 4577 01a4 00       		.byte	0
 4578 01a5 22       		.uleb128 0x22
 4579 01a6 2E       		.uleb128 0x2e
 4580 01a7 01       		.byte	0x1
 4581 01a8 03       		.uleb128 0x3
 4582 01a9 0E       		.uleb128 0xe
 4583 01aa 3A       		.uleb128 0x3a
 4584 01ab 0B       		.uleb128 0xb
 4585 01ac 3B       		.uleb128 0x3b
 4586 01ad 05       		.uleb128 0x5
 4587 01ae 27       		.uleb128 0x27
 4588 01af 19       		.uleb128 0x19
 4589 01b0 11       		.uleb128 0x11
 4590 01b1 01       		.uleb128 0x1
 4591 01b2 12       		.uleb128 0x12
 4592 01b3 06       		.uleb128 0x6
 4593 01b4 40       		.uleb128 0x40
 4594 01b5 18       		.uleb128 0x18
 4595 01b6 9642     		.uleb128 0x2116
 4596 01b8 19       		.uleb128 0x19
 4597 01b9 01       		.uleb128 0x1
 4598 01ba 13       		.uleb128 0x13
 4599 01bb 00       		.byte	0
 4600 01bc 00       		.byte	0
 4601 01bd 23       		.uleb128 0x23
 4602 01be 34       		.uleb128 0x34
 4603 01bf 00       		.byte	0
 4604 01c0 03       		.uleb128 0x3
 4605 01c1 0E       		.uleb128 0xe
 4606 01c2 49       		.uleb128 0x49
 4607 01c3 13       		.uleb128 0x13
 4608 01c4 34       		.uleb128 0x34
 4609 01c5 19       		.uleb128 0x19
 4610 01c6 00       		.byte	0
 4611 01c7 00       		.byte	0
 4612 01c8 24       		.uleb128 0x24
 4613 01c9 2E       		.uleb128 0x2e
ARM GAS  /tmp/ccA2omAw.s 			page 145


 4614 01ca 01       		.byte	0x1
 4615 01cb 03       		.uleb128 0x3
 4616 01cc 0E       		.uleb128 0xe
 4617 01cd 3A       		.uleb128 0x3a
 4618 01ce 0B       		.uleb128 0xb
 4619 01cf 3B       		.uleb128 0x3b
 4620 01d0 0B       		.uleb128 0xb
 4621 01d1 27       		.uleb128 0x27
 4622 01d2 19       		.uleb128 0x19
 4623 01d3 11       		.uleb128 0x11
 4624 01d4 01       		.uleb128 0x1
 4625 01d5 12       		.uleb128 0x12
 4626 01d6 06       		.uleb128 0x6
 4627 01d7 40       		.uleb128 0x40
 4628 01d8 18       		.uleb128 0x18
 4629 01d9 9742     		.uleb128 0x2117
 4630 01db 19       		.uleb128 0x19
 4631 01dc 01       		.uleb128 0x1
 4632 01dd 13       		.uleb128 0x13
 4633 01de 00       		.byte	0
 4634 01df 00       		.byte	0
 4635 01e0 25       		.uleb128 0x25
 4636 01e1 05       		.uleb128 0x5
 4637 01e2 00       		.byte	0
 4638 01e3 03       		.uleb128 0x3
 4639 01e4 08       		.uleb128 0x8
 4640 01e5 3A       		.uleb128 0x3a
 4641 01e6 0B       		.uleb128 0xb
 4642 01e7 3B       		.uleb128 0x3b
 4643 01e8 0B       		.uleb128 0xb
 4644 01e9 49       		.uleb128 0x49
 4645 01ea 13       		.uleb128 0x13
 4646 01eb 02       		.uleb128 0x2
 4647 01ec 18       		.uleb128 0x18
 4648 01ed 00       		.byte	0
 4649 01ee 00       		.byte	0
 4650 01ef 26       		.uleb128 0x26
 4651 01f0 2E       		.uleb128 0x2e
 4652 01f1 01       		.byte	0x1
 4653 01f2 03       		.uleb128 0x3
 4654 01f3 0E       		.uleb128 0xe
 4655 01f4 3A       		.uleb128 0x3a
 4656 01f5 0B       		.uleb128 0xb
 4657 01f6 3B       		.uleb128 0x3b
 4658 01f7 05       		.uleb128 0x5
 4659 01f8 27       		.uleb128 0x27
 4660 01f9 19       		.uleb128 0x19
 4661 01fa 49       		.uleb128 0x49
 4662 01fb 13       		.uleb128 0x13
 4663 01fc 11       		.uleb128 0x11
 4664 01fd 01       		.uleb128 0x1
 4665 01fe 12       		.uleb128 0x12
 4666 01ff 06       		.uleb128 0x6
 4667 0200 40       		.uleb128 0x40
 4668 0201 18       		.uleb128 0x18
 4669 0202 9742     		.uleb128 0x2117
 4670 0204 19       		.uleb128 0x19
ARM GAS  /tmp/ccA2omAw.s 			page 146


 4671 0205 01       		.uleb128 0x1
 4672 0206 13       		.uleb128 0x13
 4673 0207 00       		.byte	0
 4674 0208 00       		.byte	0
 4675 0209 27       		.uleb128 0x27
 4676 020a 05       		.uleb128 0x5
 4677 020b 00       		.byte	0
 4678 020c 03       		.uleb128 0x3
 4679 020d 08       		.uleb128 0x8
 4680 020e 3A       		.uleb128 0x3a
 4681 020f 0B       		.uleb128 0xb
 4682 0210 3B       		.uleb128 0x3b
 4683 0211 05       		.uleb128 0x5
 4684 0212 49       		.uleb128 0x49
 4685 0213 13       		.uleb128 0x13
 4686 0214 02       		.uleb128 0x2
 4687 0215 18       		.uleb128 0x18
 4688 0216 00       		.byte	0
 4689 0217 00       		.byte	0
 4690 0218 28       		.uleb128 0x28
 4691 0219 05       		.uleb128 0x5
 4692 021a 00       		.byte	0
 4693 021b 03       		.uleb128 0x3
 4694 021c 0E       		.uleb128 0xe
 4695 021d 3A       		.uleb128 0x3a
 4696 021e 0B       		.uleb128 0xb
 4697 021f 3B       		.uleb128 0x3b
 4698 0220 05       		.uleb128 0x5
 4699 0221 49       		.uleb128 0x49
 4700 0222 13       		.uleb128 0x13
 4701 0223 02       		.uleb128 0x2
 4702 0224 18       		.uleb128 0x18
 4703 0225 00       		.byte	0
 4704 0226 00       		.byte	0
 4705 0227 29       		.uleb128 0x29
 4706 0228 2E       		.uleb128 0x2e
 4707 0229 01       		.byte	0x1
 4708 022a 03       		.uleb128 0x3
 4709 022b 0E       		.uleb128 0xe
 4710 022c 3A       		.uleb128 0x3a
 4711 022d 0B       		.uleb128 0xb
 4712 022e 3B       		.uleb128 0x3b
 4713 022f 0B       		.uleb128 0xb
 4714 0230 27       		.uleb128 0x27
 4715 0231 19       		.uleb128 0x19
 4716 0232 49       		.uleb128 0x49
 4717 0233 13       		.uleb128 0x13
 4718 0234 11       		.uleb128 0x11
 4719 0235 01       		.uleb128 0x1
 4720 0236 12       		.uleb128 0x12
 4721 0237 06       		.uleb128 0x6
 4722 0238 40       		.uleb128 0x40
 4723 0239 18       		.uleb128 0x18
 4724 023a 9642     		.uleb128 0x2116
 4725 023c 19       		.uleb128 0x19
 4726 023d 01       		.uleb128 0x1
 4727 023e 13       		.uleb128 0x13
ARM GAS  /tmp/ccA2omAw.s 			page 147


 4728 023f 00       		.byte	0
 4729 0240 00       		.byte	0
 4730 0241 2A       		.uleb128 0x2a
 4731 0242 2E       		.uleb128 0x2e
 4732 0243 01       		.byte	0x1
 4733 0244 03       		.uleb128 0x3
 4734 0245 08       		.uleb128 0x8
 4735 0246 3A       		.uleb128 0x3a
 4736 0247 0B       		.uleb128 0xb
 4737 0248 3B       		.uleb128 0x3b
 4738 0249 0B       		.uleb128 0xb
 4739 024a 27       		.uleb128 0x27
 4740 024b 19       		.uleb128 0x19
 4741 024c 49       		.uleb128 0x49
 4742 024d 13       		.uleb128 0x13
 4743 024e 11       		.uleb128 0x11
 4744 024f 01       		.uleb128 0x1
 4745 0250 12       		.uleb128 0x12
 4746 0251 06       		.uleb128 0x6
 4747 0252 40       		.uleb128 0x40
 4748 0253 18       		.uleb128 0x18
 4749 0254 9642     		.uleb128 0x2116
 4750 0256 19       		.uleb128 0x19
 4751 0257 01       		.uleb128 0x1
 4752 0258 13       		.uleb128 0x13
 4753 0259 00       		.byte	0
 4754 025a 00       		.byte	0
 4755 025b 2B       		.uleb128 0x2b
 4756 025c 05       		.uleb128 0x5
 4757 025d 00       		.byte	0
 4758 025e 03       		.uleb128 0x3
 4759 025f 0E       		.uleb128 0xe
 4760 0260 3A       		.uleb128 0x3a
 4761 0261 0B       		.uleb128 0xb
 4762 0262 3B       		.uleb128 0x3b
 4763 0263 0B       		.uleb128 0xb
 4764 0264 49       		.uleb128 0x49
 4765 0265 13       		.uleb128 0x13
 4766 0266 02       		.uleb128 0x2
 4767 0267 18       		.uleb128 0x18
 4768 0268 00       		.byte	0
 4769 0269 00       		.byte	0
 4770 026a 2C       		.uleb128 0x2c
 4771 026b 2E       		.uleb128 0x2e
 4772 026c 00       		.byte	0
 4773 026d 3F       		.uleb128 0x3f
 4774 026e 19       		.uleb128 0x19
 4775 026f 03       		.uleb128 0x3
 4776 0270 0E       		.uleb128 0xe
 4777 0271 3A       		.uleb128 0x3a
 4778 0272 0B       		.uleb128 0xb
 4779 0273 3B       		.uleb128 0x3b
 4780 0274 0B       		.uleb128 0xb
 4781 0275 27       		.uleb128 0x27
 4782 0276 19       		.uleb128 0x19
 4783 0277 11       		.uleb128 0x11
 4784 0278 01       		.uleb128 0x1
ARM GAS  /tmp/ccA2omAw.s 			page 148


 4785 0279 12       		.uleb128 0x12
 4786 027a 06       		.uleb128 0x6
 4787 027b 40       		.uleb128 0x40
 4788 027c 18       		.uleb128 0x18
 4789 027d 9642     		.uleb128 0x2116
 4790 027f 19       		.uleb128 0x19
 4791 0280 00       		.byte	0
 4792 0281 00       		.byte	0
 4793 0282 2D       		.uleb128 0x2d
 4794 0283 2E       		.uleb128 0x2e
 4795 0284 01       		.byte	0x1
 4796 0285 3F       		.uleb128 0x3f
 4797 0286 19       		.uleb128 0x19
 4798 0287 03       		.uleb128 0x3
 4799 0288 0E       		.uleb128 0xe
 4800 0289 3A       		.uleb128 0x3a
 4801 028a 0B       		.uleb128 0xb
 4802 028b 3B       		.uleb128 0x3b
 4803 028c 0B       		.uleb128 0xb
 4804 028d 27       		.uleb128 0x27
 4805 028e 19       		.uleb128 0x19
 4806 028f 11       		.uleb128 0x11
 4807 0290 01       		.uleb128 0x1
 4808 0291 12       		.uleb128 0x12
 4809 0292 06       		.uleb128 0x6
 4810 0293 40       		.uleb128 0x40
 4811 0294 18       		.uleb128 0x18
 4812 0295 9642     		.uleb128 0x2116
 4813 0297 19       		.uleb128 0x19
 4814 0298 01       		.uleb128 0x1
 4815 0299 13       		.uleb128 0x13
 4816 029a 00       		.byte	0
 4817 029b 00       		.byte	0
 4818 029c 2E       		.uleb128 0x2e
 4819 029d 2E       		.uleb128 0x2e
 4820 029e 01       		.byte	0x1
 4821 029f 3F       		.uleb128 0x3f
 4822 02a0 19       		.uleb128 0x19
 4823 02a1 03       		.uleb128 0x3
 4824 02a2 0E       		.uleb128 0xe
 4825 02a3 3A       		.uleb128 0x3a
 4826 02a4 0B       		.uleb128 0xb
 4827 02a5 3B       		.uleb128 0x3b
 4828 02a6 0B       		.uleb128 0xb
 4829 02a7 27       		.uleb128 0x27
 4830 02a8 19       		.uleb128 0x19
 4831 02a9 49       		.uleb128 0x49
 4832 02aa 13       		.uleb128 0x13
 4833 02ab 11       		.uleb128 0x11
 4834 02ac 01       		.uleb128 0x1
 4835 02ad 12       		.uleb128 0x12
 4836 02ae 06       		.uleb128 0x6
 4837 02af 40       		.uleb128 0x40
 4838 02b0 18       		.uleb128 0x18
 4839 02b1 9642     		.uleb128 0x2116
 4840 02b3 19       		.uleb128 0x19
 4841 02b4 01       		.uleb128 0x1
ARM GAS  /tmp/ccA2omAw.s 			page 149


 4842 02b5 13       		.uleb128 0x13
 4843 02b6 00       		.byte	0
 4844 02b7 00       		.byte	0
 4845 02b8 2F       		.uleb128 0x2f
 4846 02b9 34       		.uleb128 0x34
 4847 02ba 00       		.byte	0
 4848 02bb 03       		.uleb128 0x3
 4849 02bc 08       		.uleb128 0x8
 4850 02bd 3A       		.uleb128 0x3a
 4851 02be 0B       		.uleb128 0xb
 4852 02bf 3B       		.uleb128 0x3b
 4853 02c0 0B       		.uleb128 0xb
 4854 02c1 49       		.uleb128 0x49
 4855 02c2 13       		.uleb128 0x13
 4856 02c3 02       		.uleb128 0x2
 4857 02c4 18       		.uleb128 0x18
 4858 02c5 00       		.byte	0
 4859 02c6 00       		.byte	0
 4860 02c7 30       		.uleb128 0x30
 4861 02c8 2E       		.uleb128 0x2e
 4862 02c9 01       		.byte	0x1
 4863 02ca 3F       		.uleb128 0x3f
 4864 02cb 19       		.uleb128 0x19
 4865 02cc 03       		.uleb128 0x3
 4866 02cd 0E       		.uleb128 0xe
 4867 02ce 3A       		.uleb128 0x3a
 4868 02cf 0B       		.uleb128 0xb
 4869 02d0 3B       		.uleb128 0x3b
 4870 02d1 05       		.uleb128 0x5
 4871 02d2 27       		.uleb128 0x27
 4872 02d3 19       		.uleb128 0x19
 4873 02d4 49       		.uleb128 0x49
 4874 02d5 13       		.uleb128 0x13
 4875 02d6 11       		.uleb128 0x11
 4876 02d7 01       		.uleb128 0x1
 4877 02d8 12       		.uleb128 0x12
 4878 02d9 06       		.uleb128 0x6
 4879 02da 40       		.uleb128 0x40
 4880 02db 18       		.uleb128 0x18
 4881 02dc 9642     		.uleb128 0x2116
 4882 02de 19       		.uleb128 0x19
 4883 02df 01       		.uleb128 0x1
 4884 02e0 13       		.uleb128 0x13
 4885 02e1 00       		.byte	0
 4886 02e2 00       		.byte	0
 4887 02e3 31       		.uleb128 0x31
 4888 02e4 34       		.uleb128 0x34
 4889 02e5 00       		.byte	0
 4890 02e6 03       		.uleb128 0x3
 4891 02e7 08       		.uleb128 0x8
 4892 02e8 3A       		.uleb128 0x3a
 4893 02e9 0B       		.uleb128 0xb
 4894 02ea 3B       		.uleb128 0x3b
 4895 02eb 05       		.uleb128 0x5
 4896 02ec 49       		.uleb128 0x49
 4897 02ed 13       		.uleb128 0x13
 4898 02ee 02       		.uleb128 0x2
ARM GAS  /tmp/ccA2omAw.s 			page 150


 4899 02ef 18       		.uleb128 0x18
 4900 02f0 00       		.byte	0
 4901 02f1 00       		.byte	0
 4902 02f2 32       		.uleb128 0x32
 4903 02f3 34       		.uleb128 0x34
 4904 02f4 00       		.byte	0
 4905 02f5 03       		.uleb128 0x3
 4906 02f6 0E       		.uleb128 0xe
 4907 02f7 3A       		.uleb128 0x3a
 4908 02f8 0B       		.uleb128 0xb
 4909 02f9 3B       		.uleb128 0x3b
 4910 02fa 05       		.uleb128 0x5
 4911 02fb 49       		.uleb128 0x49
 4912 02fc 13       		.uleb128 0x13
 4913 02fd 3F       		.uleb128 0x3f
 4914 02fe 19       		.uleb128 0x19
 4915 02ff 3C       		.uleb128 0x3c
 4916 0300 19       		.uleb128 0x19
 4917 0301 00       		.byte	0
 4918 0302 00       		.byte	0
 4919 0303 33       		.uleb128 0x33
 4920 0304 34       		.uleb128 0x34
 4921 0305 00       		.byte	0
 4922 0306 03       		.uleb128 0x3
 4923 0307 08       		.uleb128 0x8
 4924 0308 3A       		.uleb128 0x3a
 4925 0309 0B       		.uleb128 0xb
 4926 030a 3B       		.uleb128 0x3b
 4927 030b 05       		.uleb128 0x5
 4928 030c 49       		.uleb128 0x49
 4929 030d 13       		.uleb128 0x13
 4930 030e 3F       		.uleb128 0x3f
 4931 030f 19       		.uleb128 0x19
 4932 0310 3C       		.uleb128 0x3c
 4933 0311 19       		.uleb128 0x19
 4934 0312 00       		.byte	0
 4935 0313 00       		.byte	0
 4936 0314 00       		.byte	0
 4937              		.section	.debug_aranges,"",%progbits
 4938 0000 F4000000 		.4byte	0xf4
 4939 0004 0200     		.2byte	0x2
 4940 0006 00000000 		.4byte	.Ldebug_info0
 4941 000a 04       		.byte	0x4
 4942 000b 00       		.byte	0
 4943 000c 0000     		.2byte	0
 4944 000e 0000     		.2byte	0
 4945 0010 00000000 		.4byte	.LFB127
 4946 0014 10000000 		.4byte	.LFE127-.LFB127
 4947 0018 00000000 		.4byte	.LFB128
 4948 001c 10000000 		.4byte	.LFE128-.LFB128
 4949 0020 00000000 		.4byte	.LFB167
 4950 0024 08000000 		.4byte	.LFE167-.LFB167
 4951 0028 00000000 		.4byte	.LFB168
 4952 002c 08000000 		.4byte	.LFE168-.LFB168
 4953 0030 00000000 		.4byte	.LFB216
 4954 0034 0E000000 		.4byte	.LFE216-.LFB216
 4955 0038 00000000 		.4byte	.LFB233
ARM GAS  /tmp/ccA2omAw.s 			page 151


 4956 003c 18000000 		.4byte	.LFE233-.LFB233
 4957 0040 00000000 		.4byte	.LFB239
 4958 0044 18000000 		.4byte	.LFE239-.LFB239
 4959 0048 00000000 		.4byte	.LFB245
 4960 004c 08000000 		.4byte	.LFE245-.LFB245
 4961 0050 00000000 		.4byte	.LFB246
 4962 0054 08000000 		.4byte	.LFE246-.LFB246
 4963 0058 00000000 		.4byte	.LFB253
 4964 005c 08000000 		.4byte	.LFE253-.LFB253
 4965 0060 00000000 		.4byte	.LFB266
 4966 0064 12000000 		.4byte	.LFE266-.LFB266
 4967 0068 00000000 		.4byte	.LFB267
 4968 006c 16000000 		.4byte	.LFE267-.LFB267
 4969 0070 00000000 		.4byte	.LFB272
 4970 0074 26000000 		.4byte	.LFE272-.LFB272
 4971 0078 00000000 		.4byte	.LFB273
 4972 007c 26000000 		.4byte	.LFE273-.LFB273
 4973 0080 00000000 		.4byte	.LFB274
 4974 0084 2C000000 		.4byte	.LFE274-.LFB274
 4975 0088 00000000 		.4byte	.LFB275
 4976 008c 1E000000 		.4byte	.LFE275-.LFB275
 4977 0090 00000000 		.4byte	.LFB276
 4978 0094 2C000000 		.4byte	.LFE276-.LFB276
 4979 0098 00000000 		.4byte	.LFB277
 4980 009c 1E000000 		.4byte	.LFE277-.LFB277
 4981 00a0 00000000 		.4byte	.LFB278
 4982 00a4 26000000 		.4byte	.LFE278-.LFB278
 4983 00a8 00000000 		.4byte	.LFB279
 4984 00ac 26000000 		.4byte	.LFE279-.LFB279
 4985 00b0 00000000 		.4byte	.LFB280
 4986 00b4 08000000 		.4byte	.LFE280-.LFB280
 4987 00b8 00000000 		.4byte	.LFB281
 4988 00bc 60000000 		.4byte	.LFE281-.LFB281
 4989 00c0 00000000 		.4byte	.LFB282
 4990 00c4 24000000 		.4byte	.LFE282-.LFB282
 4991 00c8 00000000 		.4byte	.LFB283
 4992 00cc 38000000 		.4byte	.LFE283-.LFB283
 4993 00d0 00000000 		.4byte	.LFB284
 4994 00d4 52000000 		.4byte	.LFE284-.LFB284
 4995 00d8 00000000 		.4byte	.LFB285
 4996 00dc 2E000000 		.4byte	.LFE285-.LFB285
 4997 00e0 00000000 		.4byte	.LFB286
 4998 00e4 2A000000 		.4byte	.LFE286-.LFB286
 4999 00e8 00000000 		.4byte	.LFB287
 5000 00ec 2A000000 		.4byte	.LFE287-.LFB287
 5001 00f0 00000000 		.4byte	0
 5002 00f4 00000000 		.4byte	0
 5003              		.section	.debug_ranges,"",%progbits
 5004              	.Ldebug_ranges0:
 5005 0000 00000000 		.4byte	.LFB127
 5006 0004 10000000 		.4byte	.LFE127
 5007 0008 00000000 		.4byte	.LFB128
 5008 000c 10000000 		.4byte	.LFE128
 5009 0010 00000000 		.4byte	.LFB167
 5010 0014 08000000 		.4byte	.LFE167
 5011 0018 00000000 		.4byte	.LFB168
 5012 001c 08000000 		.4byte	.LFE168
ARM GAS  /tmp/ccA2omAw.s 			page 152


 5013 0020 00000000 		.4byte	.LFB216
 5014 0024 0E000000 		.4byte	.LFE216
 5015 0028 00000000 		.4byte	.LFB233
 5016 002c 18000000 		.4byte	.LFE233
 5017 0030 00000000 		.4byte	.LFB239
 5018 0034 18000000 		.4byte	.LFE239
 5019 0038 00000000 		.4byte	.LFB245
 5020 003c 08000000 		.4byte	.LFE245
 5021 0040 00000000 		.4byte	.LFB246
 5022 0044 08000000 		.4byte	.LFE246
 5023 0048 00000000 		.4byte	.LFB253
 5024 004c 08000000 		.4byte	.LFE253
 5025 0050 00000000 		.4byte	.LFB266
 5026 0054 12000000 		.4byte	.LFE266
 5027 0058 00000000 		.4byte	.LFB267
 5028 005c 16000000 		.4byte	.LFE267
 5029 0060 00000000 		.4byte	.LFB272
 5030 0064 26000000 		.4byte	.LFE272
 5031 0068 00000000 		.4byte	.LFB273
 5032 006c 26000000 		.4byte	.LFE273
 5033 0070 00000000 		.4byte	.LFB274
 5034 0074 2C000000 		.4byte	.LFE274
 5035 0078 00000000 		.4byte	.LFB275
 5036 007c 1E000000 		.4byte	.LFE275
 5037 0080 00000000 		.4byte	.LFB276
 5038 0084 2C000000 		.4byte	.LFE276
 5039 0088 00000000 		.4byte	.LFB277
 5040 008c 1E000000 		.4byte	.LFE277
 5041 0090 00000000 		.4byte	.LFB278
 5042 0094 26000000 		.4byte	.LFE278
 5043 0098 00000000 		.4byte	.LFB279
 5044 009c 26000000 		.4byte	.LFE279
 5045 00a0 00000000 		.4byte	.LFB280
 5046 00a4 08000000 		.4byte	.LFE280
 5047 00a8 00000000 		.4byte	.LFB281
 5048 00ac 60000000 		.4byte	.LFE281
 5049 00b0 00000000 		.4byte	.LFB282
 5050 00b4 24000000 		.4byte	.LFE282
 5051 00b8 00000000 		.4byte	.LFB283
 5052 00bc 38000000 		.4byte	.LFE283
 5053 00c0 00000000 		.4byte	.LFB284
 5054 00c4 52000000 		.4byte	.LFE284
 5055 00c8 00000000 		.4byte	.LFB285
 5056 00cc 2E000000 		.4byte	.LFE285
 5057 00d0 00000000 		.4byte	.LFB286
 5058 00d4 2A000000 		.4byte	.LFE286
 5059 00d8 00000000 		.4byte	.LFB287
 5060 00dc 2A000000 		.4byte	.LFE287
 5061 00e0 00000000 		.4byte	0
 5062 00e4 00000000 		.4byte	0
 5063              		.section	.debug_line,"",%progbits
 5064              	.Ldebug_line0:
 5065 0000 FA050000 		.section	.debug_str,"MS",%progbits,1
 5065      02009D03 
 5065      00000201 
 5065      FB0E0D00 
 5065      01010101 
ARM GAS  /tmp/ccA2omAw.s 			page 153


 5066              	.LASF175:
 5067 0000 5F5F6675 		.ascii	"__func__.7125\000"
 5067      6E635F5F 
 5067      2E373132 
 5067      3500
 5068              	.LASF23:
 5069 000e 74726566 		.ascii	"trefs_t\000"
 5069      735F7400 
 5070              	.LASF54:
 5071 0016 72656164 		.ascii	"ready_list_t\000"
 5071      795F6C69 
 5071      73745F74 
 5071      00
 5072              	.LASF2:
 5073 0023 73697A65 		.ascii	"size_t\000"
 5073      5F7400
 5074              	.LASF182:
 5075 002a 73645075 		.ascii	"sdPutWouldBlock\000"
 5075      74576F75 
 5075      6C64426C 
 5075      6F636B00 
 5076              	.LASF19:
 5077 003a 75696E74 		.ascii	"uint64_t\000"
 5077      36345F74 
 5077      00
 5078              	.LASF3:
 5079 0043 5F5F7569 		.ascii	"__uint8_t\000"
 5079      6E74385F 
 5079      7400
 5080              	.LASF91:
 5081 004d 706F7274 		.ascii	"port_intctx\000"
 5081      5F696E74 
 5081      63747800 
 5082              	.LASF73:
 5083 0059 73797374 		.ascii	"system_debug_t\000"
 5083      656D5F64 
 5083      65627567 
 5083      5F7400
 5084              	.LASF155:
 5085 0068 706F7274 		.ascii	"port_lock\000"
 5085      5F6C6F63 
 5085      6B00
 5086              	.LASF179:
 5087 0072 5F5F6675 		.ascii	"__func__.7134\000"
 5087      6E635F5F 
 5087      2E373133 
 5087      3400
 5088              	.LASF166:
 5089 0080 6F73616C 		.ascii	"osalEventBroadcastFlagsI\000"
 5089      4576656E 
 5089      7442726F 
 5089      61646361 
 5089      7374466C 
 5090              	.LASF180:
 5091 0099 5F5F6675 		.ascii	"__func__.7139\000"
 5091      6E635F5F 
 5091      2E373133 
ARM GAS  /tmp/ccA2omAw.s 			page 154


 5091      3900
 5092              	.LASF95:
 5093 00a7 65786974 		.ascii	"exitcode\000"
 5093      636F6465 
 5093      00
 5094              	.LASF80:
 5095 00b0 6D61696E 		.ascii	"mainthread\000"
 5095      74687265 
 5095      616400
 5096              	.LASF98:
 5097 00bb 73656E74 		.ascii	"sentmsg\000"
 5097      6D736700 
 5098              	.LASF70:
 5099 00c3 76697274 		.ascii	"virtual_timers_list_t\000"
 5099      75616C5F 
 5099      74696D65 
 5099      72735F6C 
 5099      6973745F 
 5100              	.LASF184:
 5101 00d9 49544D5F 		.ascii	"ITM_RxBuffer\000"
 5101      52784275 
 5101      66666572 
 5101      00
 5102              	.LASF121:
 5103 00e6 696F5F71 		.ascii	"io_queue_t\000"
 5103      75657565 
 5103      5F7400
 5104              	.LASF53:
 5105 00f1 63685F74 		.ascii	"ch_threads_queue\000"
 5105      68726561 
 5105      64735F71 
 5105      75657565 
 5105      00
 5106              	.LASF171:
 5107 0102 73644F62 		.ascii	"sdObjectInit\000"
 5107      6A656374 
 5107      496E6974 
 5107      00
 5108              	.LASF154:
 5109 010f 72656164 		.ascii	"readt\000"
 5109      7400
 5110              	.LASF123:
 5111 0115 715F7761 		.ascii	"q_waiting\000"
 5111      6974696E 
 5111      6700
 5112              	.LASF12:
 5113 011f 6C6F6E67 		.ascii	"long long int\000"
 5113      206C6F6E 
 5113      6720696E 
 5113      7400
 5114              	.LASF1:
 5115 012d 7369676E 		.ascii	"signed char\000"
 5115      65642063 
 5115      68617200 
 5116              	.LASF83:
 5117 0139 47545052 		.ascii	"GTPR\000"
 5117      00
ARM GAS  /tmp/ccA2omAw.s 			page 155


 5118              	.LASF47:
 5119 013e 705F6D70 		.ascii	"p_mpool\000"
 5119      6F6F6C00 
 5120              	.LASF14:
 5121 0146 6C6F6E67 		.ascii	"long long unsigned int\000"
 5121      206C6F6E 
 5121      6720756E 
 5121      7369676E 
 5121      65642069 
 5122              	.LASF106:
 5123 015d 6D5F7175 		.ascii	"m_queue\000"
 5123      65756500 
 5124              	.LASF79:
 5125 0165 76746C69 		.ascii	"vtlist\000"
 5125      737400
 5126              	.LASF156:
 5127 016c 706F7274 		.ascii	"port_unlock\000"
 5127      5F756E6C 
 5127      6F636B00 
 5128              	.LASF141:
 5129 0178 73746174 		.ascii	"state\000"
 5129      6500
 5130              	.LASF77:
 5131 017e 63685F73 		.ascii	"ch_system\000"
 5131      79737465 
 5131      6D00
 5132              	.LASF9:
 5133 0188 6C6F6E67 		.ascii	"long int\000"
 5133      20696E74 
 5133      00
 5134              	.LASF118:
 5135 0191 6576656E 		.ascii	"event_source\000"
 5135      745F736F 
 5135      75726365 
 5135      00
 5136              	.LASF22:
 5137 019e 74737461 		.ascii	"tstate_t\000"
 5137      74655F74 
 5137      00
 5138              	.LASF41:
 5139 01a7 705F7265 		.ascii	"p_refs\000"
 5139      667300
 5140              	.LASF125:
 5141 01ae 715F6275 		.ascii	"q_buffer\000"
 5141      66666572 
 5141      00
 5142              	.LASF127:
 5143 01b7 715F7772 		.ascii	"q_wrptr\000"
 5143      70747200 
 5144              	.LASF136:
 5145 01bf 53445F53 		.ascii	"SD_STOP\000"
 5145      544F5000 
 5146              	.LASF35:
 5147 01c7 705F6E65 		.ascii	"p_newer\000"
 5147      77657200 
 5148              	.LASF103:
 5149 01cf 735F7175 		.ascii	"s_queue\000"
ARM GAS  /tmp/ccA2omAw.s 			page 156


 5149      65756500 
 5150              	.LASF174:
 5151 01d7 5F5F6675 		.ascii	"__func__.5701\000"
 5151      6E635F5F 
 5151      2E353730 
 5151      3100
 5152              	.LASF59:
 5153 01e5 725F6E65 		.ascii	"r_newer\000"
 5153      77657200 
 5154              	.LASF88:
 5155 01ed 72656761 		.ascii	"regarm_t\000"
 5155      726D5F74 
 5155      00
 5156              	.LASF66:
 5157 01f6 76745F70 		.ascii	"vt_prev\000"
 5157      72657600 
 5158              	.LASF92:
 5159 01fe 6F666673 		.ascii	"offset\000"
 5159      657400
 5160              	.LASF162:
 5161 0205 6F73616C 		.ascii	"osalSysLock\000"
 5161      5379734C 
 5161      6F636B00 
 5162              	.LASF110:
 5163 0211 6D757465 		.ascii	"mutex_t\000"
 5163      785F7400 
 5164              	.LASF189:
 5165 0219 76616C75 		.ascii	"value\000"
 5165      6500
 5166              	.LASF122:
 5167 021f 696F5F71 		.ascii	"io_queue\000"
 5167      75657565 
 5167      00
 5168              	.LASF120:
 5169 0228 6576656E 		.ascii	"event_source_t\000"
 5169      745F736F 
 5169      75726365 
 5169      5F7400
 5170              	.LASF81:
 5171 0237 69646C65 		.ascii	"idle_thread_wa\000"
 5171      5F746872 
 5171      6561645F 
 5171      776100
 5172              	.LASF28:
 5173 0246 636E745F 		.ascii	"cnt_t\000"
 5173      7400
 5174              	.LASF144:
 5175 024c 75736172 		.ascii	"usart\000"
 5175      7400
 5176              	.LASF0:
 5177 0252 756E7369 		.ascii	"unsigned int\000"
 5177      676E6564 
 5177      20696E74 
 5177      00
 5178              	.LASF65:
 5179 025f 76745F6E 		.ascii	"vt_next\000"
 5179      65787400 
ARM GAS  /tmp/ccA2omAw.s 			page 157


 5180              	.LASF16:
 5181 0267 75696E74 		.ascii	"uint16_t\000"
 5181      31365F74 
 5181      00
 5182              	.LASF148:
 5183 0270 53657269 		.ascii	"SerialDriverVMT\000"
 5183      616C4472 
 5183      69766572 
 5183      564D5400 
 5184              	.LASF169:
 5185 0280 696E6F74 		.ascii	"inotify\000"
 5185      69667900 
 5186              	.LASF99:
 5187 0288 77747365 		.ascii	"wtsemp\000"
 5187      6D7000
 5188              	.LASF142:
 5189 028f 69717565 		.ascii	"iqueue\000"
 5189      756500
 5190              	.LASF43:
 5191 0296 705F6D73 		.ascii	"p_msgqueue\000"
 5191      67717565 
 5191      756500
 5192              	.LASF168:
 5193 02a1 74696D65 		.ascii	"timeout\000"
 5193      6F757400 
 5194              	.LASF152:
 5195 02a9 67657474 		.ascii	"gett\000"
 5195      00
 5196              	.LASF104:
 5197 02ae 735F636E 		.ascii	"s_cnt\000"
 5197      7400
 5198              	.LASF140:
 5199 02b4 6576656E 		.ascii	"event\000"
 5199      7400
 5200              	.LASF158:
 5201 02ba 63684576 		.ascii	"chEvtObjectInit\000"
 5201      744F626A 
 5201      65637449 
 5201      6E697400 
 5202              	.LASF7:
 5203 02ca 73686F72 		.ascii	"short unsigned int\000"
 5203      7420756E 
 5203      7369676E 
 5203      65642069 
 5203      6E7400
 5204              	.LASF50:
 5205 02dd 63685F74 		.ascii	"ch_thread\000"
 5205      68726561 
 5205      6400
 5206              	.LASF117:
 5207 02e7 656C5F77 		.ascii	"el_wflags\000"
 5207      666C6167 
 5207      7300
 5208              	.LASF25:
 5209 02f1 6D73675F 		.ascii	"msg_t\000"
 5209      7400
 5210              	.LASF143:
ARM GAS  /tmp/ccA2omAw.s 			page 158


 5211 02f7 6F717565 		.ascii	"oqueue\000"
 5211      756500
 5212              	.LASF113:
 5213 02fe 656C5F6E 		.ascii	"el_next\000"
 5213      65787400 
 5214              	.LASF76:
 5215 0306 63685F73 		.ascii	"ch_system_t\000"
 5215      79737465 
 5215      6D5F7400 
 5216              	.LASF87:
 5217 0312 55534152 		.ascii	"USART_TypeDef\000"
 5217      545F5479 
 5217      70654465 
 5217      6600
 5218              	.LASF153:
 5219 0320 77726974 		.ascii	"writet\000"
 5219      657400
 5220              	.LASF21:
 5221 0327 746D6F64 		.ascii	"tmode_t\000"
 5221      655F7400 
 5222              	.LASF55:
 5223 032f 63685F72 		.ascii	"ch_ready_list\000"
 5223      65616479 
 5223      5F6C6973 
 5223      7400
 5224              	.LASF26:
 5225 033d 6576656E 		.ascii	"eventmask_t\000"
 5225      746D6173 
 5225      6B5F7400 
 5226              	.LASF146:
 5227 0349 73706565 		.ascii	"speed\000"
 5227      6400
 5228              	.LASF131:
 5229 034f 716E6F74 		.ascii	"qnotify_t\000"
 5229      6966795F 
 5229      7400
 5230              	.LASF89:
 5231 0359 73746B61 		.ascii	"stkalign_t\000"
 5231      6C69676E 
 5231      5F7400
 5232              	.LASF149:
 5233 0364 77726974 		.ascii	"write\000"
 5233      6500
 5234              	.LASF132:
 5235 036a 696E7075 		.ascii	"input_queue_t\000"
 5235      745F7175 
 5235      6575655F 
 5235      7400
 5236              	.LASF151:
 5237 0378 70757474 		.ascii	"putt\000"
 5237      00
 5238              	.LASF42:
 5239 037d 705F7761 		.ascii	"p_waiting\000"
 5239      6974696E 
 5239      6700
 5240              	.LASF82:
 5241 0387 73697A65 		.ascii	"sizetype\000"
ARM GAS  /tmp/ccA2omAw.s 			page 159


 5241      74797065 
 5241      00
 5242              	.LASF48:
 5243 0390 74687265 		.ascii	"thread_reference_t\000"
 5243      61645F72 
 5243      65666572 
 5243      656E6365 
 5243      5F7400
 5244              	.LASF71:
 5245 03a3 63685F76 		.ascii	"ch_virtual_timers_list\000"
 5245      69727475 
 5245      616C5F74 
 5245      696D6572 
 5245      735F6C69 
 5246              	.LASF124:
 5247 03ba 715F636F 		.ascii	"q_counter\000"
 5247      756E7465 
 5247      7200
 5248              	.LASF97:
 5249 03c4 77747472 		.ascii	"wttrp\000"
 5249      7000
 5250              	.LASF33:
 5251 03ca 705F7072 		.ascii	"p_prio\000"
 5251      696F00
 5252              	.LASF72:
 5253 03d1 76745F6C 		.ascii	"vt_lasttime\000"
 5253      61737474 
 5253      696D6500 
 5254              	.LASF36:
 5255 03dd 705F6F6C 		.ascii	"p_older\000"
 5255      64657200 
 5256              	.LASF58:
 5257 03e5 725F6374 		.ascii	"r_ctx\000"
 5257      7800
 5258              	.LASF185:
 5259 03eb 474E5520 		.ascii	"GNU C 4.8.4 20140526 (release) [ARM/embedded-4_8-br"
 5259      4320342E 
 5259      382E3420 
 5259      32303134 
 5259      30353236 
 5260 041e 616E6368 		.ascii	"anch revision 211358] -mcpu=cortex-m4 -mno-thumb-in"
 5260      20726576 
 5260      6973696F 
 5260      6E203231 
 5260      31333538 
 5261 0451 74657277 		.ascii	"terwork -mthumb -ggdb -O0 -fomit-frame-pointer -fal"
 5261      6F726B20 
 5261      2D6D7468 
 5261      756D6220 
 5261      2D676764 
 5262 0484 69676E2D 		.ascii	"ign-functions=16 -ffunction-sections -fdata-section"
 5262      66756E63 
 5262      74696F6E 
 5262      733D3136 
 5262      202D6666 
 5263 04b7 73202D66 		.ascii	"s -fno-common -flto\000"
 5263      6E6F2D63 
ARM GAS  /tmp/ccA2omAw.s 			page 160


 5263      6F6D6D6F 
 5263      6E202D66 
 5263      6C746F00 
 5264              	.LASF93:
 5265 04cb 746D5F63 		.ascii	"tm_calibration_t\000"
 5265      616C6962 
 5265      72617469 
 5265      6F6E5F74 
 5265      00
 5266              	.LASF38:
 5267 04dc 705F7374 		.ascii	"p_stklimit\000"
 5267      6B6C696D 
 5267      697400
 5268              	.LASF176:
 5269 04e7 73645374 		.ascii	"sdStop\000"
 5269      6F7000
 5270              	.LASF61:
 5271 04ee 725F6375 		.ascii	"r_current\000"
 5271      7272656E 
 5271      7400
 5272              	.LASF60:
 5273 04f8 725F6F6C 		.ascii	"r_older\000"
 5273      64657200 
 5274              	.LASF186:
 5275 0500 2E2E2F43 		.ascii	"../ChibiOS/os/hal/src/serial.c\000"
 5275      68696269 
 5275      4F532F6F 
 5275      732F6861 
 5275      6C2F7372 
 5276              	.LASF115:
 5277 051f 656C5F65 		.ascii	"el_events\000"
 5277      76656E74 
 5277      7300
 5278              	.LASF147:
 5279 0529 53657269 		.ascii	"SerialConfig\000"
 5279      616C436F 
 5279      6E666967 
 5279      00
 5280              	.LASF13:
 5281 0536 5F5F7569 		.ascii	"__uint64_t\000"
 5281      6E743634 
 5281      5F7400
 5282              	.LASF164:
 5283 0541 6F73616C 		.ascii	"osalOsRescheduleS\000"
 5283      4F735265 
 5283      73636865 
 5283      64756C65 
 5283      5300
 5284              	.LASF85:
 5285 0553 52455345 		.ascii	"RESERVED1\000"
 5285      52564544 
 5285      3100
 5286              	.LASF86:
 5287 055d 52455345 		.ascii	"RESERVED2\000"
 5287      52564544 
 5287      3200
 5288              	.LASF63:
ARM GAS  /tmp/ccA2omAw.s 			page 161


 5289 0567 76697274 		.ascii	"virtual_timer_t\000"
 5289      75616C5F 
 5289      74696D65 
 5289      725F7400 
 5290              	.LASF32:
 5291 0577 705F7072 		.ascii	"p_prev\000"
 5291      657600
 5292              	.LASF160:
 5293 057e 63684F51 		.ascii	"chOQIsFullI\000"
 5293      49734675 
 5293      6C6C4900 
 5294              	.LASF24:
 5295 058a 74707269 		.ascii	"tprio_t\000"
 5295      6F5F7400 
 5296              	.LASF128:
 5297 0592 715F7264 		.ascii	"q_rdptr\000"
 5297      70747200 
 5298              	.LASF74:
 5299 059a 63685F73 		.ascii	"ch_system_debug\000"
 5299      79737465 
 5299      6D5F6465 
 5299      62756700 
 5300              	.LASF134:
 5301 05aa 5F426F6F 		.ascii	"_Bool\000"
 5301      6C00
 5302              	.LASF17:
 5303 05b0 696E7433 		.ascii	"int32_t\000"
 5303      325F7400 
 5304              	.LASF4:
 5305 05b8 756E7369 		.ascii	"unsigned char\000"
 5305      676E6564 
 5305      20636861 
 5305      7200
 5306              	.LASF114:
 5307 05c6 656C5F6C 		.ascii	"el_listener\000"
 5307      69737465 
 5307      6E657200 
 5308              	.LASF116:
 5309 05d2 656C5F66 		.ascii	"el_flags\000"
 5309      6C616773 
 5309      00
 5310              	.LASF39:
 5311 05db 705F7374 		.ascii	"p_state\000"
 5311      61746500 
 5312              	.LASF45:
 5313 05e3 705F6D74 		.ascii	"p_mtxlist\000"
 5313      786C6973 
 5313      7400
 5314              	.LASF5:
 5315 05ed 73686F72 		.ascii	"short int\000"
 5315      7420696E 
 5315      7400
 5316              	.LASF57:
 5317 05f7 725F7072 		.ascii	"r_prio\000"
 5317      696F00
 5318              	.LASF101:
 5319 05fe 65776D61 		.ascii	"ewmask\000"
ARM GAS  /tmp/ccA2omAw.s 			page 162


 5319      736B00
 5320              	.LASF31:
 5321 0605 705F6E65 		.ascii	"p_next\000"
 5321      787400
 5322              	.LASF40:
 5323 060c 705F666C 		.ascii	"p_flags\000"
 5323      61677300 
 5324              	.LASF37:
 5325 0614 705F6E61 		.ascii	"p_name\000"
 5325      6D6500
 5326              	.LASF161:
 5327 061b 63685379 		.ascii	"chSysLock\000"
 5327      734C6F63 
 5327      6B00
 5328              	.LASF163:
 5329 0625 6F73616C 		.ascii	"osalSysUnlock\000"
 5329      53797355 
 5329      6E6C6F63 
 5329      6B00
 5330              	.LASF94:
 5331 0633 7264796D 		.ascii	"rdymsg\000"
 5331      736700
 5332              	.LASF52:
 5333 063a 74687265 		.ascii	"threads_queue_t\000"
 5333      6164735F 
 5333      71756575 
 5333      655F7400 
 5334              	.LASF64:
 5335 064a 63685F76 		.ascii	"ch_virtual_timer\000"
 5335      69727475 
 5335      616C5F74 
 5335      696D6572 
 5335      00
 5336              	.LASF102:
 5337 065b 63685F73 		.ascii	"ch_semaphore\000"
 5337      656D6170 
 5337      686F7265 
 5337      00
 5338              	.LASF44:
 5339 0668 705F6570 		.ascii	"p_epending\000"
 5339      656E6469 
 5339      6E6700
 5340              	.LASF135:
 5341 0673 53445F55 		.ascii	"SD_UNINIT\000"
 5341      4E494E49 
 5341      5400
 5342              	.LASF8:
 5343 067d 5F5F696E 		.ascii	"__int32_t\000"
 5343      7433325F 
 5343      7400
 5344              	.LASF18:
 5345 0687 75696E74 		.ascii	"uint32_t\000"
 5345      33325F74 
 5345      00
 5346              	.LASF100:
 5347 0690 77746D74 		.ascii	"wtmtxp\000"
 5347      787000
ARM GAS  /tmp/ccA2omAw.s 			page 163


 5348              	.LASF56:
 5349 0697 725F7175 		.ascii	"r_queue\000"
 5349      65756500 
 5350              	.LASF67:
 5351 069f 76745F64 		.ascii	"vt_delta\000"
 5351      656C7461 
 5351      00
 5352              	.LASF51:
 5353 06a8 63685F74 		.ascii	"ch_threads_list\000"
 5353      68726561 
 5353      64735F6C 
 5353      69737400 
 5354              	.LASF139:
 5355 06b8 53657269 		.ascii	"SerialDriver\000"
 5355      616C4472 
 5355      69766572 
 5355      00
 5356              	.LASF187:
 5357 06c5 2F6E6673 		.ascii	"/nfs/nfs4/home/irbrown/Courses/P442/P442WifiTrailCo"
 5357      2F6E6673 
 5357      342F686F 
 5357      6D652F69 
 5357      7262726F 
 5358 06f8 756E7465 		.ascii	"unterProject/milestone3\000"
 5358      7250726F 
 5358      6A656374 
 5358      2F6D696C 
 5358      6573746F 
 5359              	.LASF11:
 5360 0710 6C6F6E67 		.ascii	"long unsigned int\000"
 5360      20756E73 
 5360      69676E65 
 5360      6420696E 
 5360      7400
 5361              	.LASF150:
 5362 0722 72656164 		.ascii	"read\000"
 5362      00
 5363              	.LASF109:
 5364 0727 63686172 		.ascii	"char\000"
 5364      00
 5365              	.LASF178:
 5366 072c 7364496E 		.ascii	"sdIncomingDataI\000"
 5366      636F6D69 
 5366      6E674461 
 5366      74614900 
 5367              	.LASF173:
 5368 073c 636F6E66 		.ascii	"config\000"
 5368      696700
 5369              	.LASF172:
 5370 0743 73645374 		.ascii	"sdStart\000"
 5370      61727400 
 5371              	.LASF6:
 5372 074b 5F5F7569 		.ascii	"__uint16_t\000"
 5372      6E743136 
 5372      5F7400
 5373              	.LASF30:
 5374 0756 74687265 		.ascii	"thread_t\000"
ARM GAS  /tmp/ccA2omAw.s 			page 164


 5374      61645F74 
 5374      00
 5375              	.LASF108:
 5376 075f 6D5F6E65 		.ascii	"m_next\000"
 5376      787400
 5377              	.LASF29:
 5378 0766 73797374 		.ascii	"systime_t\000"
 5378      696D655F 
 5378      7400
 5379              	.LASF46:
 5380 0770 705F7265 		.ascii	"p_realprio\000"
 5380      616C7072 
 5380      696F00
 5381              	.LASF62:
 5382 077b 76746675 		.ascii	"vtfunc_t\000"
 5382      6E635F74 
 5382      00
 5383              	.LASF10:
 5384 0784 5F5F7569 		.ascii	"__uint32_t\000"
 5384      6E743332 
 5384      5F7400
 5385              	.LASF188:
 5386 078f 5F5F7365 		.ascii	"__set_BASEPRI\000"
 5386      745F4241 
 5386      53455052 
 5386      4900
 5387              	.LASF75:
 5388 079d 70616E69 		.ascii	"panic_msg\000"
 5388      635F6D73 
 5388      6700
 5389              	.LASF84:
 5390 07a7 52544F52 		.ascii	"RTOR\000"
 5390      00
 5391              	.LASF111:
 5392 07ac 6576656E 		.ascii	"event_listener_t\000"
 5392      745F6C69 
 5392      7374656E 
 5392      65725F74 
 5392      00
 5393              	.LASF90:
 5394 07bd 636F6E74 		.ascii	"context\000"
 5394      65787400 
 5395              	.LASF165:
 5396 07c5 6F73616C 		.ascii	"osalEventObjectInit\000"
 5396      4576656E 
 5396      744F626A 
 5396      65637449 
 5396      6E697400 
 5397              	.LASF20:
 5398 07d9 7274636E 		.ascii	"rtcnt_t\000"
 5398      745F7400 
 5399              	.LASF137:
 5400 07e1 53445F52 		.ascii	"SD_READY\000"
 5400      45414459 
 5400      00
 5401              	.LASF69:
 5402 07ea 76745F70 		.ascii	"vt_par\000"
ARM GAS  /tmp/ccA2omAw.s 			page 165


 5402      617200
 5403              	.LASF27:
 5404 07f1 6576656E 		.ascii	"eventflags_t\000"
 5404      74666C61 
 5404      67735F74 
 5404      00
 5405              	.LASF133:
 5406 07fe 6F757470 		.ascii	"output_queue_t\000"
 5406      75745F71 
 5406      75657565 
 5406      5F7400
 5407              	.LASF138:
 5408 080d 73647374 		.ascii	"sdstate_t\000"
 5408      6174655F 
 5408      7400
 5409              	.LASF126:
 5410 0817 715F746F 		.ascii	"q_top\000"
 5410      7000
 5411              	.LASF105:
 5412 081d 63685F6D 		.ascii	"ch_mutex\000"
 5412      75746578 
 5412      00
 5413              	.LASF119:
 5414 0826 65735F6E 		.ascii	"es_next\000"
 5414      65787400 
 5415              	.LASF159:
 5416 082e 63684951 		.ascii	"chIQIsEmptyI\000"
 5416      4973456D 
 5416      70747949 
 5416      00
 5417              	.LASF129:
 5418 083b 715F6E6F 		.ascii	"q_notify\000"
 5418      74696679 
 5418      00
 5419              	.LASF78:
 5420 0844 726C6973 		.ascii	"rlist\000"
 5420      7400
 5421              	.LASF181:
 5422 084a 73645265 		.ascii	"sdRequestDataI\000"
 5422      71756573 
 5422      74446174 
 5422      614900
 5423              	.LASF15:
 5424 0859 75696E74 		.ascii	"uint8_t\000"
 5424      385F7400 
 5425              	.LASF167:
 5426 0861 666C6167 		.ascii	"flags\000"
 5426      7300
 5427              	.LASF170:
 5428 0867 6F6E6F74 		.ascii	"onotify\000"
 5428      69667900 
 5429              	.LASF96:
 5430 086f 77746F62 		.ascii	"wtobjp\000"
 5430      6A7000
 5431              	.LASF49:
 5432 0876 74687265 		.ascii	"threads_list_t\000"
 5432      6164735F 
ARM GAS  /tmp/ccA2omAw.s 			page 166


 5432      6C697374 
 5432      5F7400
 5433              	.LASF157:
 5434 0885 63685379 		.ascii	"chSysUnlock\000"
 5434      73556E6C 
 5434      6F636B00 
 5435              	.LASF145:
 5436 0891 636C6F63 		.ascii	"clock\000"
 5436      6B00
 5437              	.LASF183:
 5438 0897 73644765 		.ascii	"sdGetWouldBlock\000"
 5438      74576F75 
 5438      6C64426C 
 5438      6F636B00 
 5439              	.LASF190:
 5440 08a7 7364496E 		.ascii	"sdInit\000"
 5440      697400
 5441              	.LASF177:
 5442 08ae 5F5F6675 		.ascii	"__func__.7129\000"
 5442      6E635F5F 
 5442      2E373132 
 5442      3900
 5443              	.LASF130:
 5444 08bc 715F6C69 		.ascii	"q_link\000"
 5444      6E6B00
 5445              	.LASF107:
 5446 08c3 6D5F6F77 		.ascii	"m_owner\000"
 5446      6E657200 
 5447              	.LASF34:
 5448 08cb 705F6374 		.ascii	"p_ctx\000"
 5448      7800
 5449              	.LASF68:
 5450 08d1 76745F66 		.ascii	"vt_func\000"
 5450      756E6300 
 5451              	.LASF112:
 5452 08d9 6576656E 		.ascii	"event_listener\000"
 5452      745F6C69 
 5452      7374656E 
 5452      657200
 5453              		.comm	__gnu_lto_v1,1,1
 5454              		.ident	"GCC: (GNU Tools for ARM Embedded Processors) 4.8.4 20140526 (release) [ARM/embedded-4_8-br
ARM GAS  /tmp/ccA2omAw.s 			page 167


DEFINED SYMBOLS
                            *ABS*:00000000 serial.c
     /tmp/ccA2omAw.s:1056   .text.port_lock:00000000 $t
     /tmp/ccA2omAw.s:1061   .text.port_lock:00000000 port_lock
     /tmp/ccA2omAw.s:1092   .text.port_unlock:00000000 $t
     /tmp/ccA2omAw.s:1097   .text.port_unlock:00000000 port_unlock
     /tmp/ccA2omAw.s:1126   .text.chSysLock:00000000 $t
     /tmp/ccA2omAw.s:1131   .text.chSysLock:00000000 chSysLock
     /tmp/ccA2omAw.s:1150   .text.chSysUnlock:00000000 $t
     /tmp/ccA2omAw.s:1155   .text.chSysUnlock:00000000 chSysUnlock
     /tmp/ccA2omAw.s:1173   .text.chEvtObjectInit:00000000 $t
     /tmp/ccA2omAw.s:1178   .text.chEvtObjectInit:00000000 chEvtObjectInit
     /tmp/ccA2omAw.s:1201   .text.chIQIsEmptyI:00000000 $t
     /tmp/ccA2omAw.s:1206   .text.chIQIsEmptyI:00000000 chIQIsEmptyI
     /tmp/ccA2omAw.s:1234   .text.chOQIsFullI:00000000 $t
     /tmp/ccA2omAw.s:1239   .text.chOQIsFullI:00000000 chOQIsFullI
     /tmp/ccA2omAw.s:1266   .text.osalSysLock:00000000 $t
     /tmp/ccA2omAw.s:1271   .text.osalSysLock:00000000 osalSysLock
     /tmp/ccA2omAw.s:1290   .text.osalSysUnlock:00000000 $t
     /tmp/ccA2omAw.s:1295   .text.osalSysUnlock:00000000 osalSysUnlock
     /tmp/ccA2omAw.s:1313   .text.osalOsRescheduleS:00000000 $t
     /tmp/ccA2omAw.s:1318   .text.osalOsRescheduleS:00000000 osalOsRescheduleS
     /tmp/ccA2omAw.s:1336   .text.osalEventObjectInit:00000000 $t
     /tmp/ccA2omAw.s:1341   .text.osalEventObjectInit:00000000 osalEventObjectInit
     /tmp/ccA2omAw.s:1364   .text.osalEventBroadcastFlagsI:00000000 $t
     /tmp/ccA2omAw.s:1369   .text.osalEventBroadcastFlagsI:00000000 osalEventBroadcastFlagsI
     /tmp/ccA2omAw.s:1394   .text.write:00000000 $t
     /tmp/ccA2omAw.s:1399   .text.write:00000000 write
     /tmp/ccA2omAw.s:1432   .text.read:00000000 $t
     /tmp/ccA2omAw.s:1437   .text.read:00000000 read
     /tmp/ccA2omAw.s:1469   .text.put:00000000 $t
     /tmp/ccA2omAw.s:1474   .text.put:00000000 put
     /tmp/ccA2omAw.s:1506   .text.get:00000000 $t
     /tmp/ccA2omAw.s:1511   .text.get:00000000 get
     /tmp/ccA2omAw.s:1539   .text.putt:00000000 $t
     /tmp/ccA2omAw.s:1544   .text.putt:00000000 putt
     /tmp/ccA2omAw.s:1577   .text.gett:00000000 $t
     /tmp/ccA2omAw.s:1582   .text.gett:00000000 gett
     /tmp/ccA2omAw.s:1611   .text.writet:00000000 $t
     /tmp/ccA2omAw.s:1616   .text.writet:00000000 writet
     /tmp/ccA2omAw.s:1649   .text.readt:00000000 $t
     /tmp/ccA2omAw.s:1654   .text.readt:00000000 readt
     /tmp/ccA2omAw.s:1687   .rodata.vmt:00000000 $d
     /tmp/ccA2omAw.s:1690   .rodata.vmt:00000000 vmt
     /tmp/ccA2omAw.s:1700   .text.sdInit:00000000 $t
     /tmp/ccA2omAw.s:1706   .text.sdInit:00000000 sdInit
     /tmp/ccA2omAw.s:1724   .text.sdObjectInit:00000000 $t
     /tmp/ccA2omAw.s:1730   .text.sdObjectInit:00000000 sdObjectInit
     /tmp/ccA2omAw.s:1788   .text.sdObjectInit:0000005c $d
     /tmp/ccA2omAw.s:1793   .text.sdStart:00000000 $t
     /tmp/ccA2omAw.s:1799   .text.sdStart:00000000 sdStart
     /tmp/ccA2omAw.s:1832   .text.sdStop:00000000 $t
     /tmp/ccA2omAw.s:1838   .text.sdStop:00000000 sdStop
     /tmp/ccA2omAw.s:1881   .text.sdIncomingDataI:00000000 $t
     /tmp/ccA2omAw.s:1887   .text.sdIncomingDataI:00000000 sdIncomingDataI
     /tmp/ccA2omAw.s:1941   .text.sdRequestDataI:00000000 $t
     /tmp/ccA2omAw.s:1947   .text.sdRequestDataI:00000000 sdRequestDataI
ARM GAS  /tmp/ccA2omAw.s 			page 168


     /tmp/ccA2omAw.s:1987   .text.sdPutWouldBlock:00000000 $t
     /tmp/ccA2omAw.s:1993   .text.sdPutWouldBlock:00000000 sdPutWouldBlock
     /tmp/ccA2omAw.s:2027   .text.sdGetWouldBlock:00000000 $t
     /tmp/ccA2omAw.s:2033   .text.sdGetWouldBlock:00000000 sdGetWouldBlock
                            *COM*:00000001 __gnu_lto_v1
                     .debug_frame:00000010 $d

UNDEFINED SYMBOLS
chSchRescheduleS
chEvtBroadcastFlagsI
chOQWriteTimeout
chIQReadTimeout
chOQPutTimeout
chIQGetTimeout
sd_lld_init
chIQObjectInit
chOQObjectInit
sd_lld_start
sd_lld_stop
chOQResetI
chIQResetI
chIQPutI
chOQGetI
