ARM GAS  /tmp/ccvXw1t5.s 			page 1


   1              		.syntax unified
   2              		.cpu cortex-m4
   3              		.fpu softvfp
   4              		.eabi_attribute 20, 1
   5              		.eabi_attribute 21, 1
   6              		.eabi_attribute 23, 3
   7              		.eabi_attribute 24, 1
   8              		.eabi_attribute 25, 1
   9              		.eabi_attribute 26, 1
  10              		.eabi_attribute 30, 6
  11              		.eabi_attribute 34, 1
  12              		.eabi_attribute 18, 4
  13              		.thumb
  14              		.file	"st.c"
  15              		.text
  16              	.Ltext0:
  17              		.section	.gnu.lto_.inline.6928f84c12209545,"",%progbits
  18 0000 789C6362 		.ascii	"x\234cb`b\300\006\366BiN\006\0066V\006\006&\216\011"
  18      6062C006 
  18      F642694E 
  18      06063656 
  18      0606268E 
  19 0015 7E0C2C10 		.ascii	"~\014,\020\265\214\014,\314@\021\226\017z0\021&\014"
  19      B58C0C2C 
  19      CC401196 
  19      0F7A3011 
  19      260C
  20 0027 11660C11 		.ascii	"\021f\014\021\026\006\026\036\240\010\323\002y\2709"
  20      1606161E 
  20      A008D302 
  20      79B839
  21 0036 5C408295 		.ascii	"\\@\202\225\201\225\027U\230\211\033H\260aW\315\216"
  21      81951755 
  21      98891B48 
  21      B06157CD 
  21      8E
  22 0047 5D350776 		.ascii	"]5\007va\006\000mN\011\373"
  22      6106006D 
  22      4E09FB
  23              		.text
  24              		.section	.gnu.lto_st_lld_start_alarm.6928f84c12209545,"",%progbits
  25 0000 789C6362 		.ascii	"x\234cb`b@\007\"@\254\016\0246\006q\230\031\030\201"
  25      60624007 
  25      2240AC0E 
  25      14360671 
  25      98191881 
  26 0014 4C462646 		.ascii	"LF&FF \207\221\241\236\211\261>\222\021,\241\304\260"
  26      46208791 
  26      A19E89B1 
  26      3E92112C 
  26      A1C4B0
  27 0027 B0A161D2 		.ascii	"\260\241a\322\203\247\353~2\316\234r\240eA\303\237\377"
  27      83A7EB7E 
  27      32CE9C72 
  27      A06541C3 
  27      9FFF
  28 0039 FF191933 		.ascii	"\377\031\0313A\222\311\214\014\021@\026\243\002\230"
ARM GAS  /tmp/ccvXw1t5.s 			page 2


  28      4192C98C 
  28      0C114016 
  28      A30298
  29 0048 62624135 		.ascii	"bbA5\037\242\361\300\217S=\\\023\032;\032\376\377\257"
  29      1FA2F1C0 
  29      8F533D5C 
  29      131A3B1A 
  29      FEFFAF
  30 005b 275ED32F 		.ascii	"'^\323/\2224\255g:\360\340\377\3779\327\367<\336\307"
  30      9234AD67 
  30      3AF0E0FF 
  30      FF39D7F7 
  30      3CDEC7
  31 006e 28C4CAC8 		.ascii	"(\304\312\310\000\324\302\304\230\313\010\364\024\220"
  31      00D4C2C4 
  31      98CB08F4 
  31      1490
  32 007c C5C20036 		.ascii	"\305\302\0006\201\201\225\241\245\241a\202\002\330,"
  32      818195A1 
  32      A5A16182 
  32      02D82C
  33 008b 20080193 		.ascii	" \010\001\223\241 _3\237eh\332\361\003\350\277D\306"
  33      A1205F33 
  33      9F6568DA 
  33      F103E8BF 
  33      44C6
  34 009d 258CAC0C 		.ascii	"%\214\254\014\351\214\214 K\030\032\200\000d\321Y\206"
  34      E98C8C20 
  34      4B181A80 
  34      0064D159 
  34      86
  35 00ae 43A727F0 		.ascii	"C\247'\360A\344t\031\3264\26446Df22k3\254\0021\3553"
  35      41E47419 
  35      D634B434 
  35      36446632 
  35      326B33AC 
  36 00c6 19596633 		.ascii	"\031Yf3\314\002j`\205i\004\203$(\015\022a\203\2734\035"
  36      CC026A60 
  36      85690483 
  36      24280D12 
  36      6183BB34 
  37 00db 641FC8BA 		.ascii	"d\037\310\272\216\365p\333\230\321m\333\001\263\015"
  37      8EF570DB 
  37      98D16DDB 
  37      01B30D
  38 00ea 610533DC 		.ascii	"a\0053\334\012fd+\030\341V030@\014^\2010\230\205$\203"
  38      0A66642B 
  38      18E15630 
  38      3330400C 
  38      5E813098 
  39 0101 59900D66 		.ascii	"Y\220\015fB\030\014b^dh|\260O\025\242\027\006B@\266"
  39      42180C62 
  39      5E64687C 
  39      B04F15A2 
  39      17064240 
  40 0116 83240DF5 		.ascii	"\203$\015\365\364\364\23532\2232\375\203\365\363\213"
  40      F4F49D33 
ARM GAS  /tmp/ccvXw1t5.s 			page 3


  40      329332FD 
  40      83F5F38B 
  41 0126 F5331273 		.ascii	"\3653\022s\364\013\362\213J\212\365\203C|\215\215\364"
  41      F40BF28B 
  41      4A8AF583 
  41      437C8D8D 
  41      F4
  42 0137 7D7C5CF4 		.ascii	"}|\\\364C<}\313\014\365\213K\342srR\3642\030\000%A\211"
  42      433C7DCB 
  42      0CF58B4B 
  42      E2737252 
  42      F4321800 
  43 014e 8E       		.ascii	"\216"
  44              		.text
  45              		.section	.gnu.lto_st_lld_stop_alarm.6928f84c12209545,"",%progbits
  46 0000 789C6362 		.ascii	"x\234cb`b@\007\"@\374\034\210\215A\034f\006F\240\012"
  46      60624007 
  46      2240FC1C 
  46      888D411C 
  46      660646A0 
  47 0015 46264646 		.ascii	"F&FF \207\221\241\236\211\261>\022\304d`TbX\330\320"
  47      208791A1 
  47      9E89B13E 
  47      12C46460 
  47      546258D8 
  48 002a 30E9C1D3 		.ascii	"0\351\301\323\315?\031gN9\320\262\240\341\317\377\377"
  48      CD3F1967 
  48      4E39D0B2 
  48      A0E1CFFF 
  48      FF
  49 003b 8C8C9920 		.ascii	"\214\214\231 \311dF\206\010 \213Q\001L1\261\240\232"
  49      C9644686 
  49      08208B51 
  49      014C31B1 
  49      A09A
  50 004d BF9EE9C0 		.ascii	"\277\236\351\300\203\377\377\357\334\374\360\350\006"
  50      83FFFFEF 
  50      DCFCF0E8 
  50      06
  51 005a A3101323 		.ascii	"\243\020\023#\003X\013\003+CKC\303\004\005\260f \010"
  51      03580B03 
  51      2B434B43 
  51      C30405B0 
  51      662008
  52 006d 0193A120 		.ascii	"\001\223\241 \313\231\31724\355\370\001\264&\221q\021"
  52      CB99CF32 
  52      34EDF801 
  52      B4269171 
  52      11
  53 007e 232B433A 		.ascii	"#+C:##\310T\206\006 \000\231|\226\341\320\216\013\334"
  53      2323C854 
  53      86062000 
  53      997C96E1 
  53      D08E0BDC 
  54 0092 10396D86 		.ascii	"\0209m\206U\015-\215\015\366\231\214\314\263\031f\001"
  54      550D2D8D 
  54      0DF6998C 
ARM GAS  /tmp/ccvXw1t5.s 			page 4


  54      CCB31966 
  54      01
  55 00a3 55B1C054 		.ascii	"U\261\300T\203A\022\224\006\2110\203\030\027\031\032"
  55      83411294 
  55      06893083 
  55      1817191A 
  56 00b3 1FDC5085 		.ascii	"\037\334P\205\350\205\201\020\220WA\241b\250\247\247"
  56      E8858110 
  56      905741A1 
  56      62A8A7A7 
  57 00c3 EF9C9199 		.ascii	"\357\234\221\231\224\351\037\254\237_\254\237\221\230"
  57      94E91FAC 
  57      9F5FAC9F 
  57      9198
  58 00d1 A35F905F 		.ascii	"\243_\220_TR\254\037\034\342kl\244\357\343\343\242\037"
  58      5452AC1F 
  58      1CE26B6C 
  58      A4EFE3E3 
  58      A21F
  59 00e3 E2E95B66 		.ascii	"\342\351[f\250_\\\022\237\223\223\242\227\301\000\000"
  59      A85F5C12 
  59      9F9393A2 
  59      97C10000 
  60 00f3 0BEA46BA 		.ascii	"\013\352F\272"
  61              		.text
  62              		.section	.gnu.lto_st_lld_set_alarm.6928f84c12209545,"",%progbits
  63 0000 789C6362 		.ascii	"x\234cb`b@\007\"@\314\310\310\300`\014\342030\002U0"
  63      60624007 
  63      2240CCC8 
  63      C8C0600C 
  63      E2303330 
  64 0017 32810418 		.ascii	"2\201\004\030\030\031\352\231\030\353#AL\006F%\206\205"
  64      1819EA99 
  64      18EB2341 
  64      4C064625 
  64      8685
  65 0029 0D0D931E 		.ascii	"\015\015\223\036<\335\365\223q\346\224\003-\013\032"
  65      3CDDF593 
  65      71E69403 
  65      2D0B1A
  66 0038 FEFCFFCF 		.ascii	"\376\374\377\317\310\230\011\222Lfd\210\000\262\030"
  66      C8980992 
  66      4C666488 
  66      00B218
  67 0047 15C01413 		.ascii	"\025\300\024\023\013\252\371\353\231\016<\370\377\177"
  67      0BAAF9EB 
  67      990E3CF8 
  67      FF7F
  68 0055 CEDD2D8F 		.ascii	"\316\335-\217\3370\012132\000\26501\346\202\015eehi"
  68      DF300A31 
  68      333200B5 
  68      3031E682 
  68      0D656568 
  69 006a 6898A000 		.ascii	"h\230\240\0006\001\010B\300d(\310\005\314g\031\232v"
  69      36010842 
  69      C06428C8 
  69      05CC6719 
ARM GAS  /tmp/ccvXw1t5.s 			page 5


  69      9A76
  70 007c FC00DA95 		.ascii	"\374\000\332\225\310\270\210\221\225!\235\221\021d4"
  70      C8B88891 
  70      95219D91 
  70      116434
  71 008b 43031080 		.ascii	"C\003\020\200\214?\313p\350\364\004>\210\234.\303\232"
  71      8C3FCB70 
  71      E8F4043E 
  71      889C2EC3 
  71      9A
  72 009c 8696C686 		.ascii	"\206\226\306\206\310LFfm\206U \246}&#\313l\206Y@\015"
  72      C84C4666 
  72      6D865520 
  72      A67D2623 
  72      CB6C8659 
  73 00b2 AC308D60 		.ascii	"\2540\215`\220\004\245A\"lp\367\245\203\354\273\310"
  73      9004A541 
  73      226C70F7 
  73      A583ECBB 
  73      C8
  74 00c3 D0F8E08D 		.ascii	"\320\370\340\215*\304@\030\010\001\005\002(\274\014"
  74      2AC44018 
  74      08010502 
  74      28BC0C
  75 00d2 F5F4F49D 		.ascii	"\365\364\364\23532\2232\375\203\365\363\213\3653\022"
  75      33329332 
  75      FD83F5F3 
  75      8BF53312 
  76 00e2 73F40BF2 		.ascii	"s\364\013\362\213J\212\365\203C|\215\215\364}|\\\364"
  76      8B4A8AF5 
  76      83437C8D 
  76      8DF47D7C 
  76      5CF4
  77 00f4 433C7DCB 		.ascii	"C<}\313\014\365\213K\342srR\3642\030\000f\005I\357"
  77      0CF58B4B 
  77      E2737252 
  77      F4321800 
  77      660549EF 
  78              		.text
  79              		.section	.gnu.lto_st_lld_get_alarm.6928f84c12209545,"",%progbits
  80 0000 789C6362 		.ascii	"x\234cb`b@\007\322@\354\301\310\300`\014\342\26000\002"
  80      60624007 
  80      D240ECC1 
  80      C8C0600C 
  80      E2B03030 
  81 0015 55303231 		.ascii	"U0212\003IfF\2400\003#C=\0233c}$\210\315\300\244\304"
  81      32034966 
  81      46A03003 
  81      23433D13 
  81      33637D24 
  82 002e B0B0A161 		.ascii	"\260\260\241a\326\203\247\373gJv-h\232\320\360\357\377"
  82      D683A7FB 
  82      674A762D 
  82      689AD0F0 
  82      EFFF
  83 0040 7FC64C90 		.ascii	"\177\306L\220T2#C\004\220\305\250\000\246\230XP-\001"
  83      54322343 
ARM GAS  /tmp/ccvXw1t5.s 			page 6


  83      0490C5A8 
  83      00A69858 
  83      502D01
  84 0053 6B9BD430 		.ascii	"k\233\3240\371i\300\211\206\226\003\377\377\333g\202"
  84      F969C089 
  84      869603FF 
  84      FFDB6782 
  85 0063 6CC0AF67 		.ascii	"l\300\257g=\323\201\007\377\377\337\271\277\340q\007"
  85      3DD38107 
  85      FFFFDFB9 
  85      BFE07107 
  86 0073 A3303323 		.ascii	"\24303#\003P\013\023\003\330.\006V\206\226\206\206\011"
  86      03500B13 
  86      03D82E06 
  86      56869686 
  86      8609
  87 0085 0A601380 		.ascii	"\012`\023\200 \004L\206\202\234\316|\226\241i\307\217"
  87      20044C86 
  87      829CCE7C 
  87      96A169C7 
  87      8F
  88 0096 FD275912 		.ascii	"\375'Y\022\031\0273\2622\24432\202\214fn\000\002\220"
  88      191733B2 
  88      32A43332 
  88      828C666E 
  88      000290
  89 00a9 F167190E 		.ascii	"\361g\031\016\335)\200I1\3512\254ihil0\315dd\321fX\005"
  89      DD298049 
  89      31E932AC 
  89      6968696C 
  89      30CD6464 
  90 00c1 624E062A 		.ascii	"bN\006*f\235\3150\013H\261\301\364\202\035\223\304\010"
  90      669DCD30 
  90      0B48B1C1 
  90      F4821D93 
  90      C408
  91 00d3 71144884 		.ascii	"q\024H\204\035-\004CAj\230O34r00\244\200\324]dh<\300"
  91      1D2D0443 
  91      416A984F 
  91      33347230 
  91      30A480D4 
  92 00ec 0CB705A2 		.ascii	"\014\267\005\242(\004\024\230 \266\241\236\236\276s"
  92      28041498 
  92      20B6A19E 
  92      9EBE73
  93 00fb 466652A6 		.ascii	"FfR\246\177\260~~\261~Fb\216~A~QI\261~p\210\257\261"
  93      7FB07E7E 
  93      B17E4662 
  93      8E7E417E 
  93      5149B17E 
  94 0113 91BE8F8F 		.ascii	"\221\276\217\217\213~\210\247o\231\241~qI|NN\212^\006"
  94      8B7E88A7 
  94      6F99A17E 
  94      71497C4E 
  94      4E8A5E06 
  95 0127 03008366 		.ascii	"\003\000\203fV2"
  95      5632
ARM GAS  /tmp/ccvXw1t5.s 			page 7


  96              		.text
  97              		.section	.gnu.lto_stInit.6928f84c12209545,"",%progbits
  98 0000 789C6362 		.ascii	"x\234cb`b@\007\"@\\\014\304\262 \0163\003#P\005#\023"
  98      60624007 
  98      22405C0C 
  98      C4B2200E 
  98      33032350 
  99 0017 232390C3 		.ascii	"##\220\303\310P\317\304X\037\311\010V\266\236\351\300"
  99      C850CFC4 
  99      581FC908 
  99      56B69EE9 
  99      C0
 100 0028 83FFFFD7 		.ascii	"\203\377\377\327\375X\373\260\036,\311\312\320\322\320"
 100      FD58FBB0 
 100      1E2CC9CA 
 100      D0D2D0
 101 0037 30418181 		.ascii	"0A\201\201!\031,\037\002&CA\272\231\31734?\370g\223"
 101      21192C1F 
 101      02264341 
 101      BA99CF33 
 101      343FF867 
 102 004c C8B89091 		.ascii	"\310\270\220\221\025(V\315\360\253\241\243A \223\021"
 102      152856CD 
 102      F0ABA1A3 
 102      41209311 
 103 005c A8126254 		.ascii	"\250\022bT&\210\276\310\320\370\340?\023L\021\004\204"
 103      2688BEC8 
 103      D0F8E03F 
 103      134C1104 
 103      84
 104 006d 8024402E 		.ascii	"\200$@.\224\326\323\323w\316\310L\312\364\017\326\317"
 104      94D6D3D3 
 104      77CEC84C 
 104      CAF40FD6 
 104      CF
 105 007e 2FD6CF48 		.ascii	"/\326\317H\314\321/.J\326/.\321Kf\000\000\021\216#k"
 105      CCD12F2E 
 105      4AD62F2E 
 105      D14B6600 
 105      00118E23 
 106              		.text
 107              		.section	.gnu.lto_stStartAlarm.6928f84c12209545,"",%progbits
 108 0000 789C6362 		.ascii	"x\234cb`b@\007\322@|\000\210eA\034\026\006F\240\012"
 108      60624007 
 108      D2407C00 
 108      8865411C 
 108      160646A0 
 109 0015 46264666 		.ascii	"F&Ff \311\314\310\010\024bd\250gbf\254\217\004\261\031"
 109      20C9CCC8 
 109      08146264 
 109      A8676266 
 109      AC8F04B1 
 110 002a 98941816 		.ascii	"\230\224\030\02664Lz\360\364\371\014\361\256\007\015"
 110      36344C7A 
 110      F0F4F90C 
 110      F1AE070D 
 111 003a 131AFEFD 		.ascii	"\023\032\376\375\377\317\230\011\222Jfd\210\000\262"
ARM GAS  /tmp/ccvXw1t5.s 			page 8


 111      FFCF9809 
 111      924A6664 
 111      8800B2
 112 0049 1839C014 		.ascii	"\0309\300\024\023#\252%\271\214\014\353\231\016<\370"
 112      1323AA25 
 112      B98C0CEB 
 112      990E3CF8 
 113 0059 FFFFCEE6 		.ascii	"\377\377\316\346\035\217V1\012212\346\202Mgehih\230"
 113      1D8F5631 
 113      0A323132 
 113      E6824D67 
 113      65686968 
 114 006e A0900B35 		.ascii	"\240\220\0135\002\010B\240$\320\035\314\241 w0\237g"
 114      020842A0 
 114      24D01DCC 
 114      A1207730 
 114      9F67
 115 0080 6879B072 		.ascii	"hy\260r1w\"\343\"FV\240T5\303\257\206\216\006\201LF"
 115      317722E3 
 115      224656A0 
 115      5435C3AF 
 115      868E0681 
 116 0096 E6644688 		.ascii	"\346dF\2105\351\214@+Y\030\030.24>X\245\014S\007\001"
 116      35E98C40 
 116      2B591818 
 116      2E32343E 
 116      58A50C53 
 117 00ac 21203520 		.ascii	"! 5 _K\353\351\351;gd&e\372\007\353\347\027\353g$\346"
 117      5F4BEBE9 
 117      E93B6764 
 117      2665FA07 
 117      EBE717EB 
 118 00c3 E8171725 		.ascii	"\350\027\027%\353\027\227\350%3\000\000\004\3154\011"
 118      EB1797E8 
 118      25330000 
 118      04CD3409 
 119              		.text
 120              		.section	.gnu.lto_stStopAlarm.6928f84c12209545,"",%progbits
 121 0000 789C6362 		.ascii	"x\234cb`b@\007\"@\\\006\304\262 \0163\003#P\005#\023"
 121      60624007 
 121      22405C06 
 121      C4B2200E 
 121      33032350 
 122 0017 232390C3 		.ascii	"##\220\303\310P\317\304X\037\311\010V\266\236\351\300"
 122      C850CFC4 
 122      581FC908 
 122      56B69EE9 
 122      C0
 123 0028 83FFFFD7 		.ascii	"\203\377\377\327}k\233\363\206q6\023H\214\225\241\245"
 123      7D6B9BF3 
 123      86713613 
 123      488C95A1 
 123      A5
 124 0039 A1618202 		.ascii	"\241a\202\002\003C2XE\010\230\014\005\351g>\317\320"
 124      03433258 
 124      4508980C 
 124      05E9673E 
ARM GAS  /tmp/ccvXw1t5.s 			page 9


 124      CFD0
 125 004b FC606F33 		.ascii	"\374`o3w\"\343BFV\240`5\303\257\206\216\006\201LF\240"
 125      7722E342 
 125      4656A060 
 125      35C3AF86 
 125      8E06814C 
 126 0061 52886999 		.ascii	"R\210i\231 \372\"C\343\203}\3120E\020\020\002\222\000"
 126      20FA2243 
 126      E3837DCA 
 126      30451010 
 126      029200
 127 0074 39525A4F 		.ascii	"9RZOO\3379#3)\323?X?\277X?#1G\277\270(Y\277\270D/\231"
 127      4FDF3923 
 127      3329D33F 
 127      583FBF58 
 127      3F233147 
 128 0091 010084DE 		.ascii	"\001\000\204\336#\373"
 128      23FB
 129              		.text
 130              		.section	.gnu.lto_stSetAlarm.6928f84c12209545,"",%progbits
 131 0000 789C6362 		.ascii	"x\234cb`b@\007\322@\374\005\210eA\034\026\006F\240\012"
 131      60624007 
 131      D240FC05 
 131      8865411C 
 131      160646A0 
 132 0015 46264666 		.ascii	"F&Ff \311\314\310\010\024bd\250gbf\254\217\004\261\031"
 132      20C9CCC8 
 132      08146264 
 132      A8676266 
 132      AC8F04B1 
 133 002a 98951816 		.ascii	"\230\225\030\02664Lz\360\364\333\014\361\256\007\015"
 133      36344C7A 
 133      F0F4DB0C 
 133      F1AE070D 
 134 003a 131AFEFD 		.ascii	"\023\032\376\375\377\317\230\011\222Jfd\210\000\262"
 134      FFCF9809 
 134      924A6664 
 134      8800B2
 135 0049 1839C014 		.ascii	"\0309\300\024\023#\252%\020m\015\353V40/h\370\363\377"
 135      1323AA25 
 135      106D0DEB 
 135      5634302F 
 135      68F8F3FF 
 136 005d 3F33117A 		.ascii	"?3\021zr\031\031\3263\035x\360\377\377\234\335\033\036"
 136      721919D6 
 136      331D78F0 
 136      FFFF9CDD 
 136      1B1E
 137 006f DD631464 		.ascii	"\335c\024dbd\314\005\273\210\225\241\245\241a\202B."
 137      6264CC05 
 137      BB8895A1 
 137      A5A16182 
 137      422E
 138 0081 D4082008 		.ascii	"\324\010 \010\201\222@\2673\207\202\334\316|\236\241"
 138      819240B7 
 138      338782DC 
 138      CE7C9EA1 
ARM GAS  /tmp/ccvXw1t5.s 			page 10


 139 0091 E5C1DDC7 		.ascii	"\345\301\335\307\\\211\214\213\031Y\201R\325\014\277"
 139      5C898C8B 
 139      19598152 
 139      D50CBF
 140 00a0 1A3A1A04 		.ascii	"\032:\032\0042\031\231\223\031!\326\2443\002\255da`"
 140      32199993 
 140      1921D6A4 
 140      3302AD64 
 140      6160
 141 00b2 B8C8D0F8 		.ascii	"\270\310\320\370\340\2362L\035\004\204\200\324\200B"
 141      E09E324C 
 141      1D048480 
 141      D48042
 142 00c1 4A5A4F4F 		.ascii	"JZOO\3379#3)\323?X?\277X?#1G\277\270(Y\277\270D/\231"
 142      DF392333 
 142      29D33F58 
 142      3FBF583F 
 142      233147BF 
 143 00dd 01008089 		.ascii	"\001\000\200\211@\025"
 143      4015
 144              		.text
 145              		.section	.gnu.lto_stGetAlarm.6928f84c12209545,"",%progbits
 146 0000 789C6362 		.ascii	"x\234cb`b@\007J@l\311\310\300 \013\342\26020\002U02"
 146      60624007 
 146      4A406CC9 
 146      C8C0200B 
 146      E2B03230 
 147 0018 31320349 		.ascii	"12\003IfF\026 \311\302\010\224d`d\250gbfa\254\217\004"
 147      66461620 
 147      C9C20894 
 147      646064A8 
 147      67626661 
 148 002f 71185894 		.ascii	"q\030X\224\030\02664Lz\360\364\337\014\361\256\007\015"
 148      18163634 
 148      4C7AF0F4 
 148      DF0CF1AE 
 148      070D
 149 0041 131AFEFD 		.ascii	"\023\032\376\375\377\317\230\011\222Jfd\210\000\262"
 149      FFCF9809 
 149      924A6664 
 149      8800B2
 150 0050 1839C014 		.ascii	"\0309\300\024\023#\272] m\015\353V40/h\370\363\377?"
 150      1323BA5D 
 150      206D0DEB 
 150      5634302F 
 150      68F8F3FF 
 151 0065 33B17A66 		.ascii	"3\261zf\035\370u\274\207kBcG\303\377\377\365\231 \327"
 151      1DF875BC 
 151      876B4263 
 151      47C3FFFF 
 151      F59920D7 
 152 0079 C1342940 		.ascii	"\3014)@4\261\240j\312edX\317t\340\301\377\377s\366\177"
 152      34B1A06A 
 152      CA656458 
 152      CF74E0C1 
 152      FFFF73F6 
 153 008e 78F88F51 		.ascii	"x\370\217Q\020h(X\027\320\203-\015\015\023\024r\241"
ARM GAS  /tmp/ccvXw1t5.s 			page 11


 153      10682858 
 153      17D0832D 
 153      0D0D1314 
 153      72A1
 154 00a0 F6024108 		.ascii	"\366\002A\010\224\004\372\2339\024\244\206\371<C\363"
 154      9404FA9B 
 154      3914A486 
 154      F93C43F3 
 155 00b0 83BFC989 		.ascii	"\203\277\311\211\214K\030Y\031\322\031\031\253\031~"
 155      8C4B1859 
 155      19D21919 
 155      AB197E
 156 00bf 35743408 		.ascii	"5t4\010d2\262$3B\334\226\011\224\000\203PP\0101\237"
 156      6432B224 
 156      3342DC96 
 156      09940083 
 156      50500831 
 157 00d4 6668E460 		.ascii	"fh\344``H\001I^d`\204\353\203(\011\0011@\241.\255\247"
 157      60480149 
 157      5E646084 
 157      EB832809 
 157      013140A1 
 158 00eb A7EF9C91 		.ascii	"\247\357\234\221\231\224\351\037\254\237_\254\237\221"
 158      9994E91F 
 158      AC9F5FAC 
 158      9F91
 159 00f9 98A35F5C 		.ascii	"\230\243_\\\224\254_\\\242\227\314\000\000NOL\032"
 159      94AC5F5C 
 159      A297CC00 
 159      004E4F4C 
 159      1A
 160              		.text
 161              		.section	.gnu.lto_.symbol_nodes.6928f84c12209545,"",%progbits
 162 0000 789C4DC7 		.ascii	"x\234M\307\271\015\302P\024D\321\231\371^\313t%cA\342"
 162      B90DC250 
 162      1444D199 
 162      F95ECB74 
 162      256341E2 
 163 0014 85C0605C 		.ascii	"\205\300`\\\017\035\020\022S\011B\360-\371\335\344\352"
 163      0F1D1012 
 163      530942F0 
 163      2DF9DDE4 
 163      EA
 164 0025 08C2037B 		.ascii	"\010\302\003{\032i`y\002\3666t\232h\006\316\264\002"
 164      1A696079 
 164      02F63674 
 164      9A6806CE 
 164      B402
 165 0037 2F740A5C 		.ascii	"/t\012\\\344b\347k\240\256r\031x\223\253\300U\256\003"
 165      E462E76B 
 165      A0AE7219 
 165      7893ABC0 
 165      55AE03
 166 004a EF727390 		.ascii	"\357rs\220\233\334f\366=S\321\342\374\3760\225\300\351"
 166      9BDC66F6 
 166      3D53D1E2 
 166      FCFE3095 
ARM GAS  /tmp/ccvXw1t5.s 			page 12


 166      C0E9
 167 005c F78AF9B5 		.ascii	"\367\212\371\265\362\233\364?\276.\211<\262"
 167      F29BF43F 
 167      BE2E893C 
 167      B2
 168              		.text
 169              		.section	.gnu.lto_.refs.6928f84c12209545,"",%progbits
 170 0000 789C6362 		.ascii	"x\234cb`b`d\200\002\000\000F\000\006"
 170      60626064 
 170      80020000 
 170      460006
 171              		.text
 172              		.section	.gnu.lto_.decls.6928f84c12209545,"",%progbits
 173 0000 789CBD58 		.ascii	"x\234\275X}l\024E\024\237\331\273\226\273\266 \020\305"
 173      7D6C1445 
 173      149FD9BB 
 173      96BBB620 
 173      10C5
 174 0012 1A359C46 		.ascii	"\0325\234F\210\301\264K\013F\370\207\200\007\001\022"
 174      88C1B44B 
 174      0B46F887 
 174      80070112 
 175 0022 0AE40A09 		.ascii	"\012\344\012\011\011\177\234\303\335B/i\257x\267h\370"
 175      097F9CC3 
 175      DD422F69 
 175      AF78B768 
 175      F8
 176 0033 CB69A18A 		.ascii	"\313i\241\212\037\204C\201\360\025(\005\264h\004RH\301"
 176      1F844381 
 176      F0152805 
 176      B4680452 
 176      48C1
 177 0045 42608BDA 		.ascii	"B`\213\332Z\021\255\305\250@\224CB\324\370\035\004E"
 177      5A11ADC5 
 177      A8409443 
 177      42D4F81D 
 177      0445
 178 0057 90FA66F6 		.ascii	"\220\372f\366\343v\267\273e\317D7y\357\336\316\276\371"
 178      E376B7BB 
 178      65CF4437 
 178      79EFDECE 
 178      BEF9
 179 0069 BDDF7BF3 		.ascii	"\275\337{\363vv\367\004$\240\355\002B\375p<v7B>\037"
 179      7676F704 
 179      24A0ED02 
 179      42FD703C 
 179      7637423E 
 180 007e 424508A1 		.ascii	"BE\010\241)(w\260\363] m \355 \035 '@:A\272@z@\316\200"
 180      292877B0 
 180      F35D206D 
 180      20ED201D 
 180      2027403A 
 181 0099 F4A28107 		.ascii	"\364\242\201\007\2337\004\244\017d\030H\011\3109\220"
 181      9B3704A4 
 181      0F641848 
 181      09C83990 
 182 00a9 DF41CE82 		.ascii	"\337A\316\202\370A $\272\012r\011\344\"\010\326\346"
ARM GAS  /tmp/ccvXw1t5.s 			page 13


 182      F8412024 
 182      BA0A7209 
 182      E42208D6 
 182      E6
 183 00ba B1DF0336 		.ascii	"\261\337\0036<\306\241\300\001\357\254\346\257\317o"
 183      3CC6A1C0 
 183      01EFACE6 
 183      AFCF6F
 184 00c9 73E0D2EE 		.ascii	"s\340\322\356\201\013\326\270`\315\237\375\036\265\341"
 184      810BD6B8 
 184      60CD9FFD 
 184      1EB5E1
 185 00d8 B0FC0320 		.ascii	"\260\374\003 {L8}w\300\352\320~\207`+\026\253\243\300"
 185      7B4C387D 
 185      77C0EAD0 
 185      7E87602B 
 185      16ABA3C0 
 186 00ec F060FC90 		.ascii	"\360`\374\2206&h\343N\365\354\324\362\017\342\\\354"
 186      362668E3 
 186      4EF5ECD4 
 186      F20FE25C 
 186      EC
 187 00fd 12B05B4C 		.ascii	"\022\260[Ls\231\317.\315\036\012\327\336\265at\271\304"
 187      7399CF2E 
 187      CD1E0AD7 
 187      DEB56174 
 187      B9C4
 188 010f 64E34E75 		.ascii	"d\343Nu\353\361\020\223\371\264k\366\275p\355\264\015"
 188      EBF11093 
 188      F9B46BF6 
 188      BD70EDB4 
 188      0D
 189 0120 83F547A1 		.ascii	"\203\365G\241\015\203\325\357\0018?f\302a~\035\232\375"
 189      0D83D5EF 
 189      01383F66 
 189      C2617E1D 
 189      9AFD
 190 0132 205C1B6D 		.ascii	" \\\033m\253\327h\264\203*\275\331\275\373/\011[\250"
 190      ABD768B4 
 190      832ABDD9 
 190      BDFB2F09 
 190      5BA8
 191 0144 B29A42DB 		.ascii	"\262\232B\333R\034\032\2056R8\232\237\247\024\313\004"
 191      521C1A85 
 191      3652389A 
 191      9FA714CB 
 191      04
 192 0155 4FB9072D 		.ascii	"O\271\007-\302\004\017\013\242\0207J\202|=\020\"\270"
 192      C2040F0B 
 192      A210374A 
 192      827C3D10 
 192      22B8
 193 0167 058FE296 		.ascii	"\005\217\342\226\217G@A\264\206\322F6q\326\007@\313"
 193      8F474041 
 193      B486D246 
 193      3671D607 
 193      40CB
ARM GAS  /tmp/ccvXw1t5.s 			page 14


 194 0179 69D618B4 		.ascii	"i\326\030\264\207\322L\366\334\333g\005J\003\004\357"
 194      87D24CF6 
 194      DCDB6705 
 194      4A0304EF 
 195 0189 C14198BB 		.ascii	"\301A\230\273\030\243qh\037\304\314P\3322\301F\022\345"
 195      18A37168 
 195      1FC4CC50 
 195      DA32C146 
 195      12E5
 196 019b 07FDCE0B 		.ascii	"\007\375\316\013\357w\342F\240Np+\007\317b\014T\337"
 196      EF77E246 
 196      A04E702B 
 196      07CF620C 
 196      54DF
 197 01ad C0E3F286 		.ascii	"\300\343\362\206:\264\356\370d\316\362-\016\364\263"
 197      3AB4EEF8 
 197      64CEF22D 
 197      0EF4B3
 198 01bc 60052278 		.ascii	"`\005\"xH\320\314\221\237\353\016\014\215_\326\014\266"
 198      48D0CC91 
 198      9FEB0E0C 
 198      8D5FD60C 
 198      B6
 199 01cd 25DC85FE 		.ascii	"%\334\205\376cw\202\027\372\214\011\002\272a#\374\010"
 199      63778217 
 199      FA8C0902 
 199      BA6123FC 
 199      08
 200 01de DA4DE9AB 		.ascii	"\332M\351\253\260\334=\205\260\334~\275\372\257\370"
 200      B0DC3D85 
 200      B0DC7EBD 
 200      FAAFF8
 201 01ed 98DB2E3C 		.ascii	"\230\333.<\332\261\026\252\027\034c\321^\326\026\347"
 201      DAB116AA 
 201      171C63D1 
 201      5ED616E7 
 202 01fd E8FC52DE 		.ascii	"\350\374R\336\024H\233d\341\270\037\013\003\033L\331"
 202      14489B64 
 202      E1B81F0B 
 202      031B4CD9 
 203 020d 7ABA24D3 		.ascii	"z\272$\323\220\355\357\337\331<\334{s\035\322\232+\227"
 203      90EDEFDF 
 203      D93CDC7B 
 203      731DD29A 
 203      2B97
 204 021f 9480D6FB 		.ascii	"\224\200\326\373\254\031\031\254h+\365\031\254\332\354"
 204      AC1919AC 
 204      682BF519 
 204      ACDAEC
 205 022e AC0E3BB2 		.ascii	"\254\016;\262\352\313\261R[Y@\273}N\025\243'\245Yj\031"
 205      EACBB152 
 205      5B5940BB 
 205      7D4E15A3 
 205      27A5596A 
 206 0243 083E0850 		.ascii	"\010>\010P\004\267\377\233b\265\333i\035q\244u\363\364"
 206      04B7FF9B 
 206      62B5DB69 
ARM GAS  /tmp/ccvXw1t5.s 			page 15


 206      1D71A475 
 206      F3F4
 207 0255 F6FB6873 		.ascii	"\366\373hs\243\322\337\177R\011![\275\030\274[\301\216"
 207      A3D2DF7F 
 207      5209215B 
 207      BD18BC5B 
 207      C18E
 208 0267 3914ECB0 		.ascii	"9\024\354\260s\301\032i[+\015\352l\011\356p\311G\303"
 208      73C11A69 
 208      5B2B0DEA 
 208      6C09EE70 
 208      C947C3
 209 027a 3B3E9068 		.ascii	";>\220h\263\222\335\266\343Dan\333\320VL@\227<\255\321"
 209      B392DDB6 
 209      E344616E 
 209      DBD0564C 
 209      40973CAD 
 210 028f 097B314E 		.ascii	"\011{1N\016\214\221\355U:\272\2645\012\351K\364\235"
 210      0E8C91ED 
 210      553ABAB4 
 210      350AE94B 
 210      F49D
 211 02a1 F312DD8C 		.ascii	"\363\022\335\214\317\322\373\371\032\367\350\364\270"
 211      CFD2FBF9 
 211      1AF7E8F4 
 211      B8
 212 02ae 446B69D3 		.ascii	"Dki\323pl\320\352\264\323:\345H\353\272\211\226\232"
 212      706CD0EA 
 212      B4D33AE5 
 212      48EBBA89 
 212      969A
 213 02c0 F5DF9EB2 		.ascii	"\365\337\236\262\356\262\303w;\302\267u\333\263~\321"
 213      EEB2C377 
 213      3BC2B775 
 213      DBB37ED1 
 214 02d0 EF98F51F 		.ascii	"\357\230\365\037q\2431\337\343\215\331\363\257\262\356"
 214      71A331DF 
 214      E38DD9F3 
 214      AFB2EE
 215 02df B1D3FAD0 		.ascii	"\261\323\372\320\221\326\325\356\265zgN\325\372M@\033"
 215      91D6D5EE 
 215      B57A674E 
 215      D5FA4D40 
 215      1B
 216 02f0 FC9E3AEC 		.ascii	"\374\236:\354\314\340\035\366\261C\300L\366\312m\005"
 216      CCE01DF6 
 216      B143C04C 
 216      F6CA6D05 
 217 0300 6FA1A758 		.ascii	"o\241\247X\207=g\364\327\316\001\001U\210O\255\020\305"
 217      873D67F4 
 217      D7CE0101 
 217      55884FAD 
 217      10C5
 218 0312 E8A5DC36 		.ascii	"\350\245\3346?\022\255gY\207L\033>-\324i<\205\214\035"
 218      3F12AD67 
 218      59874C1B 
 218      3E2DD469 
ARM GAS  /tmp/ccvXw1t5.s 			page 16


 218      3C858C1D 
 219 0326 FFC8E55F 		.ascii	"\377\310\345_\223\253\370\263\343,\036\311\236\035\266"
 219      93ABF8B3 
 219      E32C1EC9 
 219      9E1DB6
 220 0335 5877C461 		.ascii	"Xw\304aD>\207\251\352$\216J\225\327.\224P\277:\216\034"
 220      443E87A9 
 220      EA248E4A 
 220      95D72E94 
 220      50BF3A8E 
 221 034a A86BC743 		.ascii	"\250k\307C\250\231\256^\245l\274\300n\377S\230?\246"
 221      A899AE5E 
 221      A56CBCC0 
 221      6EFF5398 
 221      3FA6
 222 035c 560DFA98 		.ascii	"V\015\372\230\"x\037\036\343\351\301 \240\037y&\214"
 222      22781F1E 
 222      E3E9C120 
 222      A01F7926 
 222      8C
 223 036d 82139266 		.ascii	"\202\023\222f\252\207\346`\245\265\351BI\206\020|\216"
 223      AA87E660 
 223      A5B5E942 
 223      4986107C 
 223      8E
 224 037e DF61BFE6 		.ascii	"\337a\277\346\015\026\262\200m6\203\375\356\005,\340"
 224      0D16B280 
 224      6D3683FD 
 224      EE052CE0 
 225 038e CE6CAB19 		.ascii	"\316l\253\031\354F\336`Vf\333\315`\267\275\200\015w"
 225      EC46DE60 
 225      5666DBCD 
 225      60B7BD80 
 225      0D77
 226 03a0 67B6C30C 		.ascii	"g\266\303\014\326P\220/\230\225\331A3X\223\027\260R"
 226      D650902F 
 226      9895D941 
 226      33589317 
 226      B052
 227 03b2 77666D66 		.ascii	"wfmf\260\227\363\006\2632;l\006[\357\005,\344\316\254"
 227      B097F306 
 227      B3323B6C 
 227      065BEF05 
 227      2CE4CEAC 
 228 03c6 DD0CB629 		.ascii	"\335\014\266)o0+\263\243f\260\255^\300\036ug\326a\006"
 228      6F302BB3 
 228      A366B0AD 
 228      5EC01E75 
 228      67D66106 
 229 03da DB913798 		.ascii	"\333\2217\230\225\331q3X\213\027\260\361n\314\032\224"
 229      95D97133 
 229      588B17B0 
 229      F16ECC1A 
 229      94
 230 03eb 138B3364 		.ascii	"\023\2133d\004\312h;\223\212\252\357N\330\332Zf\267"
 230      04CA683B 
 230      938AAAEF 
ARM GAS  /tmp/ccvXw1t5.s 			page 17


 230      4ED8DA5A 
 230      66B7
 231 03fd 56773782 		.ascii	"Vw7\202\257\341\021\334\342\333\020\325\266!\356\341"
 231      AFE111DC 
 231      E2DB10D5 
 231      B621EEE1 
 232 040d F6FA715D 		.ascii	"\366\372q]}\300\344n\177\315\310\275\221\232\275 \355"
 232      7DC0E46E 
 232      7FCDC8BD 
 232      919ABD20 
 232      ED
 233 041e D7ED695B 		.ascii	"\327\355i[Y8\345m-b\257\271\210oz)\342Tw\260>3\330\001"
 233      5938E56D 
 233      2D62AFB9 
 233      886F7A29 
 233      E25477B0 
 234 0436 2F60B3DC 		.ascii	"/`\263\334{\34533\330\241\274\301\254\314>7\203\035"
 234      7BE53333 
 234      D8A1BCC1 
 234      ACCC3E37 
 234      831D
 235 0448 F50236DF 		.ascii	"\365\0026\337\235\331\227f\260cy\203\231\2315(\347s"
 235      9DD99766 
 235      B0637983 
 235      99993528 
 235      E773
 236 045a 8DD73CD5 		.ascii	"\215\327<\325\326yS\255\273\255\305\255\325\325\215"
 236      D67953AD 
 236      BBADC5AD 
 236      D5D58D
 237 0469 E0D542BE 		.ascii	"\340\325B\276\215\327$87\236\371;2\347\005iw\332\323"
 237      8DD72438 
 237      379EF93B 
 237      32E70569 
 237      77DAD3
 238 047c B690D0CC 		.ascii	"\266\220\320\314E\0165t:\314\317{\202\277\340\017\344"
 238      450E3574 
 238      3ACCCF7B 
 238      82BFE00F 
 238      E4
 239 048d 2FF143A0 		.ascii	"/\361C\240/p\375\025\327\027\271\276\304\365e\256\257"
 239      2F70FD15 
 239      D717B9BE 
 239      C4F565AE 
 239      AF
 240 049e 70FD2DD7 		.ascii	"p\375-\327\337s\375\003\327?q\375\013\327\277q}\225"
 240      DF73FD03 
 240      D73F71FD 
 240      0BD7BF71 
 240      7D95
 241 04b0 EB3FB9FE 		.ascii	"\353?\271\376\213\353[\\\337\346\232\012L7\2026\016"
 241      8BEB5B5C 
 241      DFE69A0A 
 241      4C378236 
 241      0E
 242 04c1 B742F5E1 		.ascii	"\267B\365\341b\335%\204vBq\263M\337\004\033\375\306"
 242      62DD2584 
ARM GAS  /tmp/ccvXw1t5.s 			page 18


 242      764271B3 
 242      4DDF041B 
 242      FDC6
 243 04d3 6B6087F9 		.ascii	"k`\207\3715\320\362\376\244\276{\271\341\256\021\014"
 243      35D0F2FE 
 243      A4BE7BB9 
 243      E1AE110C 
 244 04e3 DC007A81 		.ascii	"\334\000z\201\315\3126\321\006\374\264\301$`^\022\365"
 244      CDCA36D1 
 244      06FCB4C1 
 244      24605E12 
 244      F5
 245 04f4 A508BA41 		.ascii	"\245\010\272A \370E!\000\353\321U\340\364\311\317\241"
 245      20F84521 
 245      00EBD155 
 245      E0F4C9CF 
 245      A1
 246 0505 99839E92 		.ascii	"\231\203\236\222j\353\026\036@\261e\020\212\257\344"
 246      6AEB161E 
 246      40B16510 
 246      8AAFE4
 247 0514 283E8C76 		.ascii	"(>\214v\321\336\336\354\266\257?\251h\310(\015\315\364"
 247      D1DEDEEC 
 247      B6AF3FA9 
 247      68C8280D 
 247      CDF4
 248 0526 567F3FC6 		.ascii	"V\177?\306\372\306\270y\230\366\377@v\257R\272y\330"
 248      FAC6B879 
 248      98F6FF40 
 248      76AF52BA 
 248      79D8
 249 0538 9D52309C 		.ascii	"\235R0\234ii\251\263/\301\031\201\365\304zS\227\252"
 249      6969A9B3 
 249      2FC11981 
 249      F5C47A53 
 249      97AA
 250 054a B66EF563 		.ascii	"\266n\365c\326\224\037\271\027a\360\251Z\320\032=\350"
 250      D6941FB9 
 250      1761F0A9 
 250      5AD01A3D 
 250      E8
 251 055b 50EE9BCB 		.ascii	"P\356\233\313G\365t\366\"\370\265\274o\267\015.\267"
 251      47F574F6 
 251      22F8B5BC 
 251      6FB70D2E 
 251      B7
 252 056c 5B8985F3 		.ascii	"[\211\205\363\206\334\355\366i\201\355{\314FB@\347\265"
 252      86DCEDF6 
 252      6981ED7B 
 252      CC464240 
 252      E7B5
 253 057e DC092EC2 		.ascii	"\334\011.\302\372\002)\355\3354p\220\256a\357\376\346"
 253      FA0229ED 
 253      DD347090 
 253      AE61EFFE 
 253      E6
 254 058f 64D6E592 		.ascii	"d\326\345\222Y\244\343\024\017\226\262\315\213\340-"
ARM GAS  /tmp/ccvXw1t5.s 			page 19


 254      59A4E314 
 254      0F96B2CD 
 254      8BE02D
 255 059e 79A7BCD5 		.ascii	"y\247\274\325%\345\"K\312\272\027\230\033\005\333\307"
 255      25E5224B 
 255      CABA1798 
 255      1B05DBC7 
 256 05ae 988D047C 		.ascii	"\230\215\004|\306ZR\266u\362\261A:y\273\275\223\225"
 256      C65A52B6 
 256      75F2B141 
 256      3A79BBBD 
 256      9395
 257 05c0 EBB94211 		.ascii	"\353\271B\021\274\031\222\323\343\237\031$\376uK|u;"
 257      BC1992D3 
 257      E39F1924 
 257      FE754B7C 
 257      753B
 258 05d2 50FEEEA6 		.ascii	"P\376\356\246\241\220\261\035\234\261|\025V\224\227"
 258      A190B11D 
 258      9CB17C15 
 258      569497
 259 05e1 8BE19AC4 		.ascii	"\213\341\232\304\222\304\274j\261>-\326\220Zqy}JN\213"
 259      92C4BC6A 
 259      B13E2DD6 
 259      905A7179 
 259      7D4A4E8B 
 260 05f5 D50BAA26 		.ascii	"\325\013\252&T\212s\346L\027\027\314\256z\246BL\313"
 260      548A73E6 
 260      4C1717CC 
 260      AE7AA642 
 260      4CCB
 261 0607 D1DADA78 		.ascii	"\321\332\332xy\015\032k\235\221\222\305D2V\273\".\211"
 261      790D1A6B 
 261      9D9192C5 
 261      443256BB 
 261      222E89
 262 061a B19AF4CA 		.ascii	"\261\232\364\312\264\274r\271\224\006\267 \263\023u"
 262      B4BC72B9 
 262      9406B720 
 262      B31375
 263 0629 52542E9C 		.ascii	"RT.\2349wa(\214\322br)\227\307\305\232\372:ILIi\211"
 263      39776128 
 263      8CD26272 
 263      2997C7C5 
 263      9AFA3A49 
 264 0641 A4623510 		.ascii	"\244b5\0203\025\177\226\244$\221\244\352*\305e\261X"
 264      33157F96 
 264      A42491A4 
 264      EA2AC565 
 264      B158
 265 0653 19186552 		.ascii	"\031\030eR\335\022)\036\227\342\306@\262>)\225IdI\242"
 265      DD12291E 
 265      97E2C640 
 265      B23E2995 
 265      496449A2 
 266 0667 6C627452 		.ascii	"lbtRY\345\370\212\211OW\212\226\013\006\221\264\034"
 266      59E5F88A 
ARM GAS  /tmp/ccvXw1t5.s 			page 20


 266      894F578A 
 266      960B0691 
 266      B41C
 267 0679 4F246520 		.ascii	"O$e \021X\001\277\023*\243\362*\374\377E\257#\261\232"
 267      115801BF 
 267      132AA3F2 
 267      2AFCFF45 
 267      AF23B19A 
 268 068d 445212A3 		.ascii	"DR\022\243qi)YQ+G\365\222\024E\243:\237\221j9\243i\231"
 268      71692959 
 268      512B47F5 
 268      921445A3 
 268      3A9F916A 
 269 06a5 A4E428A9 		.ascii	"\244\344(\251\005$?\253\326\010c\274~\271:<\\\037\221"
 269      05243FAB 
 269      D60863BC 
 269      7EB93A3C 
 269      5C1F91
 270 06b8 64EBC032 		.ascii	"d\353\3002}\340\376\201K\230N\305\240\010\3451T\230"
 270      7DE0FE81 
 270      4B984EC5 
 270      A008E531 
 270      5498
 271 06ca 96672713 		.ascii	"\226g'\023rIZ\256f\221\2461\377!d\011_\231b6X\277\234"
 271      72495AAE 
 271      6691A631 
 271      FF216409 
 271      5F996236 
 272 06e1 8F15812D 		.ascii	"\217\025\201-\311\2729S3\213\265P\011\200\230\350\275"
 272      C9BA3953 
 272      338BB550 
 272      098098E8 
 272      BD
 273 06f2 51EA5886 		.ascii	"Q\352X\206\211:\310\270\3308\211\312\276p\244\002\244"
 273      893AC8B8 
 273      D83889CA 
 273      BE70A402 
 273      A4
 274 0703 D25F5D15 		.ascii	"\322_]\025\216\370\247\317\236\021\021\252#\276\031"
 274      8EF8A7CF 
 274      9E1111AA 
 274      23BE19
 275 0712 332305E1 		.ascii	"3#\005\341pU\244\202\353J\1778<#\342\013\317]\340\233"
 275      7055A482 
 275      EB4A7F38 
 275      3C23E20B 
 275      CF5DE09B 
 276 0726 5F1DF64D 		.ascii	"_\035\366M\213D|\2210\234\303\204'\247/\210\370\246"
 276      8B447C91 
 276      309CC384 
 276      27A72F88 
 276      F8A6
 277 0738 B39955D3 		.ascii	"\263\231U\323\"\302<u\326\004\360_\024)\210>Y__\353"
 277      22C23C75 
 277      D604F05F 
 277      1429883E 
 277      595F5FEB 
ARM GAS  /tmp/ccvXw1t5.s 			page 21


 278 074c 8FC15206 		.ascii	"\217\301R\006\242\321\245+\222\261ht\250n\224?1~\322"
 278      A2D1A52B 
 278      92B16874 
 278      A86E943F 
 278      317ED2
 279 075f 78CBD913 		.ascii	"x\313\331\023\346\263\311\025\377\000\234\226\346H"
 279      E6B3C915 
 279      FF009C96 
 279      E648
 280              		.text
 281              		.section	.gnu.lto_.symtab.6928f84c12209545,"",%progbits
 282 0000 7374496E 		.ascii	"stInit\000\000\000\000\000\000\000\000\000\000\000\000"
 282      69740000 
 282      00000000 
 282      00000000 
 282      0000
 283 0012 BE000000 		.ascii	"\276\000\000\000stStartAlarm\000\000\000\000\000\000"
 283      73745374 
 283      61727441 
 283      6C61726D 
 283      00000000 
 284 0028 00000000 		.ascii	"\000\000\000\000\000\000\301\000\000\000stStopAlarm"
 284      0000C100 
 284      00007374 
 284      53746F70 
 284      416C6172 
 285 003d 00000000 		.ascii	"\000\000\000\000\000\000\000\000\000\000\000\000\306"
 285      00000000 
 285      00000000 
 285      C6
 286 004a 00000073 		.ascii	"\000\000\000stSetAlarm\000\000\000\000\000\000\000\000"
 286      74536574 
 286      416C6172 
 286      6D000000 
 286      00000000 
 287 005f 00000000 		.ascii	"\000\000\000\000\311\000\000\000stGetAlarm\000\000\000"
 287      C9000000 
 287      73744765 
 287      74416C61 
 287      726D0000 
 288 0074 00000000 		.ascii	"\000\000\000\000\000\000\000\000\000\315\000\000\000"
 288      00000000 
 288      00CD0000 
 288      00
 289 0081 73745F6C 		.ascii	"st_lld_init\000\000\002\000\000\000\000\000\000\000"
 289      6C645F69 
 289      6E697400 
 289      00020000 
 289      00000000 
 290 0096 0000D000 		.ascii	"\000\000\320\000\000\000"
 290      0000
 291              		.text
 292              		.section	.gnu.lto_.opts,"",%progbits
 293 0000 272D6D63 		.ascii	"'-mcpu=cortex-m4' '-mno-thumb-interwork' '-mthumb' "
 293      70753D63 
 293      6F727465 
 293      782D6D34 
ARM GAS  /tmp/ccvXw1t5.s 			page 22


 293      2720272D 
 294 0033 272D6767 		.ascii	"'-ggdb' '-O0' '-fomit-frame-pointer' '-falign-funct"
 294      64622720 
 294      272D4F30 
 294      2720272D 
 294      666F6D69 
 295 0066 696F6E73 		.ascii	"ions=16' '-ffunction-sections' '-fdata-sections' '-"
 295      3D313627 
 295      20272D66 
 295      66756E63 
 295      74696F6E 
 296 0099 666E6F2D 		.ascii	"fno-common' '-flto'\000"
 296      636F6D6D 
 296      6F6E2720 
 296      272D666C 
 296      746F2700 
 297              		.text
 298              		.cfi_sections	.debug_frame
 299              		.section	.text.st_lld_start_alarm,"ax",%progbits
 300              		.align	2
 301              		.p2align 4,,15
 302              		.thumb
 303              		.thumb_func
 304              		.type	st_lld_start_alarm, %function
 305              	st_lld_start_alarm:
 306              	.LFB137:
 307              		.file 1 "../ChibiOS/os/hal/ports/STM32/LLD/TIMv1/st_lld.h"
 308              		.loc 1 153 0
 309              		.cfi_startproc
 310              		@ args = 0, pretend = 0, frame = 8
 311              		@ frame_needed = 0, uses_anonymous_args = 0
 312              		@ link register save eliminated.
 313 0000 82B0     		sub	sp, sp, #8
 314              		.cfi_def_cfa_offset 8
 315 0002 0190     		str	r0, [sp, #4]
 316              		.loc 1 155 0
 317 0004 4FF08043 		mov	r3, #1073741824
 318 0008 019A     		ldr	r2, [sp, #4]
 319 000a 5A63     		str	r2, [r3, #52]
 320              		.loc 1 156 0
 321 000c 4FF08043 		mov	r3, #1073741824
 322 0010 0022     		movs	r2, #0
 323 0012 1A61     		str	r2, [r3, #16]
 324              		.loc 1 157 0
 325 0014 4FF08043 		mov	r3, #1073741824
 326 0018 0222     		movs	r2, #2
 327 001a DA60     		str	r2, [r3, #12]
 328              		.loc 1 158 0
 329 001c 02B0     		add	sp, sp, #8
 330              		@ sp needed
 331 001e 7047     		bx	lr
 332              		.cfi_endproc
 333              	.LFE137:
 334              		.size	st_lld_start_alarm, .-st_lld_start_alarm
 335              		.section	.text.st_lld_stop_alarm,"ax",%progbits
 336              		.align	2
 337              		.p2align 4,,15
ARM GAS  /tmp/ccvXw1t5.s 			page 23


 338              		.thumb
 339              		.thumb_func
 340              		.type	st_lld_stop_alarm, %function
 341              	st_lld_stop_alarm:
 342              	.LFB138:
 343              		.loc 1 165 0
 344              		.cfi_startproc
 345              		@ args = 0, pretend = 0, frame = 0
 346              		@ frame_needed = 0, uses_anonymous_args = 0
 347              		@ link register save eliminated.
 348              		.loc 1 167 0
 349 0000 4FF08043 		mov	r3, #1073741824
 350 0004 0022     		movs	r2, #0
 351 0006 DA60     		str	r2, [r3, #12]
 352              		.loc 1 168 0
 353 0008 7047     		bx	lr
 354              		.cfi_endproc
 355              	.LFE138:
 356              		.size	st_lld_stop_alarm, .-st_lld_stop_alarm
 357 000a 00BFAFF3 		.section	.text.st_lld_set_alarm,"ax",%progbits
 357      0080
 358              		.align	2
 359              		.p2align 4,,15
 360              		.thumb
 361              		.thumb_func
 362              		.type	st_lld_set_alarm, %function
 363              	st_lld_set_alarm:
 364              	.LFB139:
 365              		.loc 1 177 0
 366              		.cfi_startproc
 367              		@ args = 0, pretend = 0, frame = 8
 368              		@ frame_needed = 0, uses_anonymous_args = 0
 369              		@ link register save eliminated.
 370 0000 82B0     		sub	sp, sp, #8
 371              		.cfi_def_cfa_offset 8
 372 0002 0190     		str	r0, [sp, #4]
 373              		.loc 1 179 0
 374 0004 4FF08043 		mov	r3, #1073741824
 375 0008 019A     		ldr	r2, [sp, #4]
 376 000a 5A63     		str	r2, [r3, #52]
 377              		.loc 1 180 0
 378 000c 02B0     		add	sp, sp, #8
 379              		@ sp needed
 380 000e 7047     		bx	lr
 381              		.cfi_endproc
 382              	.LFE139:
 383              		.size	st_lld_set_alarm, .-st_lld_set_alarm
 384              		.section	.text.st_lld_get_alarm,"ax",%progbits
 385              		.align	2
 386              		.p2align 4,,15
 387              		.thumb
 388              		.thumb_func
 389              		.type	st_lld_get_alarm, %function
 390              	st_lld_get_alarm:
 391              	.LFB140:
 392              		.loc 1 189 0
 393              		.cfi_startproc
ARM GAS  /tmp/ccvXw1t5.s 			page 24


 394              		@ args = 0, pretend = 0, frame = 0
 395              		@ frame_needed = 0, uses_anonymous_args = 0
 396              		@ link register save eliminated.
 397              		.loc 1 191 0
 398 0000 4FF08043 		mov	r3, #1073741824
 399 0004 5B6B     		ldr	r3, [r3, #52]
 400              		.loc 1 192 0
 401 0006 1846     		mov	r0, r3
 402 0008 7047     		bx	lr
 403              		.cfi_endproc
 404              	.LFE140:
 405              		.size	st_lld_get_alarm, .-st_lld_get_alarm
 406 000a 00BFAFF3 		.section	.text.stInit,"ax",%progbits
 406      0080
 407              		.align	2
 408              		.p2align 4,,15
 409              		.global	stInit
 410              		.thumb
 411              		.thumb_func
 412              		.type	stInit, %function
 413              	stInit:
 414              	.LFB272:
 415              		.file 2 "../ChibiOS/os/hal/src/st.c"
 416              		.loc 2 60 0
 417              		.cfi_startproc
 418              		@ args = 0, pretend = 0, frame = 0
 419              		@ frame_needed = 0, uses_anonymous_args = 0
 420 0000 08B5     		push	{r3, lr}
 421              		.cfi_def_cfa_offset 8
 422              		.cfi_offset 3, -8
 423              		.cfi_offset 14, -4
 424              		.loc 2 62 0
 425 0002 FFF7FEFF 		bl	st_lld_init
 426              		.loc 2 63 0
 427 0006 08BD     		pop	{r3, pc}
 428              		.cfi_endproc
 429              	.LFE272:
 430              		.size	stInit, .-stInit
 431 0008 AFF30080 		.section	.text.stStartAlarm,"ax",%progbits
 431      AFF30080 
 432              		.align	2
 433              		.p2align 4,,15
 434              		.global	stStartAlarm
 435              		.thumb
 436              		.thumb_func
 437              		.type	stStartAlarm, %function
 438              	stStartAlarm:
 439              	.LFB273:
 440              		.loc 2 77 0
 441              		.cfi_startproc
 442              		@ args = 0, pretend = 0, frame = 8
 443              		@ frame_needed = 0, uses_anonymous_args = 0
 444 0000 00B5     		push	{lr}
 445              		.cfi_def_cfa_offset 4
 446              		.cfi_offset 14, -4
 447 0002 83B0     		sub	sp, sp, #12
 448              		.cfi_def_cfa_offset 16
ARM GAS  /tmp/ccvXw1t5.s 			page 25


 449 0004 0190     		str	r0, [sp, #4]
 450              		.loc 2 81 0
 451 0006 0198     		ldr	r0, [sp, #4]
 452 0008 FFF7FEFF 		bl	st_lld_start_alarm
 453              		.loc 2 82 0
 454 000c 03B0     		add	sp, sp, #12
 455              		@ sp needed
 456 000e 5DF804FB 		ldr	pc, [sp], #4
 457              		.cfi_endproc
 458              	.LFE273:
 459              		.size	stStartAlarm, .-stStartAlarm
 460 0012 00BFAFF3 		.section	.text.stStopAlarm,"ax",%progbits
 460      0080AFF3 
 460      0080AFF3 
 460      0080
 461              		.align	2
 462              		.p2align 4,,15
 463              		.global	stStopAlarm
 464              		.thumb
 465              		.thumb_func
 466              		.type	stStopAlarm, %function
 467              	stStopAlarm:
 468              	.LFB274:
 469              		.loc 2 91 0
 470              		.cfi_startproc
 471              		@ args = 0, pretend = 0, frame = 0
 472              		@ frame_needed = 0, uses_anonymous_args = 0
 473 0000 08B5     		push	{r3, lr}
 474              		.cfi_def_cfa_offset 8
 475              		.cfi_offset 3, -8
 476              		.cfi_offset 14, -4
 477              		.loc 2 93 0
 478 0002 FFF7FEFF 		bl	st_lld_stop_alarm
 479              		.loc 2 94 0
 480 0006 08BD     		pop	{r3, pc}
 481              		.cfi_endproc
 482              	.LFE274:
 483              		.size	stStopAlarm, .-stStopAlarm
 484              		.section	.text.stSetAlarm,"ax",%progbits
 485              		.align	2
 486              		.p2align 4,,15
 487              		.global	stSetAlarm
 488              		.thumb
 489              		.thumb_func
 490              		.type	stSetAlarm, %function
 491              	stSetAlarm:
 492              	.LFB275:
 493              		.loc 2 105 0
 494              		.cfi_startproc
 495              		@ args = 0, pretend = 0, frame = 8
 496              		@ frame_needed = 0, uses_anonymous_args = 0
 497 0000 00B5     		push	{lr}
 498              		.cfi_def_cfa_offset 4
 499              		.cfi_offset 14, -4
 500 0002 83B0     		sub	sp, sp, #12
 501              		.cfi_def_cfa_offset 16
 502 0004 0190     		str	r0, [sp, #4]
ARM GAS  /tmp/ccvXw1t5.s 			page 26


 503              		.loc 2 109 0
 504 0006 0198     		ldr	r0, [sp, #4]
 505 0008 FFF7FEFF 		bl	st_lld_set_alarm
 506              		.loc 2 110 0
 507 000c 03B0     		add	sp, sp, #12
 508              		@ sp needed
 509 000e 5DF804FB 		ldr	pc, [sp], #4
 510              		.cfi_endproc
 511              	.LFE275:
 512              		.size	stSetAlarm, .-stSetAlarm
 513 0012 00BFAFF3 		.section	.text.stGetAlarm,"ax",%progbits
 513      0080AFF3 
 513      0080AFF3 
 513      0080
 514              		.align	2
 515              		.p2align 4,,15
 516              		.global	stGetAlarm
 517              		.thumb
 518              		.thumb_func
 519              		.type	stGetAlarm, %function
 520              	stGetAlarm:
 521              	.LFB276:
 522              		.loc 2 121 0
 523              		.cfi_startproc
 524              		@ args = 0, pretend = 0, frame = 0
 525              		@ frame_needed = 0, uses_anonymous_args = 0
 526 0000 08B5     		push	{r3, lr}
 527              		.cfi_def_cfa_offset 8
 528              		.cfi_offset 3, -8
 529              		.cfi_offset 14, -4
 530              		.loc 2 125 0
 531 0002 FFF7FEFF 		bl	st_lld_get_alarm
 532 0006 0346     		mov	r3, r0
 533              		.loc 2 126 0
 534 0008 1846     		mov	r0, r3
 535 000a 08BD     		pop	{r3, pc}
 536              		.cfi_endproc
 537              	.LFE276:
 538              		.size	stGetAlarm, .-stGetAlarm
 539 000c AFF30080 		.text
 540              	.Letext0:
 541              		.file 3 "/nfs/nfs5/home/research/hardware/arm2/gcc-arm-embedded/gcc-arm-none-eabi-4_8-2014q2/arm-n
 542              		.file 4 "/nfs/nfs5/home/research/hardware/arm2/gcc-arm-embedded/gcc-arm-none-eabi-4_8-2014q2/arm-n
 543              		.file 5 "../ChibiOS/os/rt/ports/ARMCMx/compilers/GCC/chtypes.h"
 544              		.file 6 "../ChibiOS/os/rt/include/chsystypes.h"
 545              		.file 7 "../ChibiOS/os/rt/include/chschd.h"
 546              		.file 8 "../ChibiOS/os/rt/ports/ARMCMx/chcore.h"
 547              		.file 9 "../ChibiOS/os/rt/ports/ARMCMx/chcore_v7m.h"
 548              		.file 10 "../ChibiOS/os/hal/ports/STM32/LLD/TIMv1/stm32_tim.h"
 549              		.file 11 "../ChibiOS/os/rt/include/chtm.h"
 550              		.file 12 "../ChibiOS/os/rt/include/chsem.h"
 551              		.file 13 "../ChibiOS/os/rt/include/chmtx.h"
 552              		.file 14 "../ChibiOS/os/ext/CMSIS/include/core_cm4.h"