ARM GAS  /tmp/ccvXw1t5.s 			page 1


   1              		.syntax unified
   2              		.cpu cortex-m4
   3              		.fpu softvfp
   4              		.eabi_attribute 20, 1
   5              		.eabi_attribute 21, 1
   6              		.eabi_attribute 23, 3
   7              		.eabi_attribute 24, 1
   8              		.eabi_attribute 25, 1
   9              		.eabi_attribute 26, 1
  10              		.eabi_attribute 30, 6
  11              		.eabi_attribute 34, 1
  12              		.eabi_attribute 18, 4
  13              		.thumb
  14              		.file	"st.c"
  15              		.text
  16              	.Ltext0:
  17              		.section	.gnu.lto_.inline.6928f84c12209545,"",%progbits
  18 0000 789C6362 		.ascii	"x\234cb`b\300\006\366BiN\006\0066V\006\006&\216\011"
  18      6062C006 
  18      F642694E 
  18      06063656 
  18      0606268E 
  19 0015 7E0C2C10 		.ascii	"~\014,\020\265\214\014,\314@\021\226\017z0\021&\014"
  19      B58C0C2C 
  19      CC401196 
  19      0F7A3011 
  19      260C
  20 0027 11660C11 		.ascii	"\021f\014\021\026\006\026\036\240\010\323\002y\2709"
  20      1606161E 
  20      A008D302 
  20      79B839
  21 0036 5C408295 		.ascii	"\\@\202\225\201\225\027U\230\211\033H\260aW\315\216"
  21      81951755 
  21      98891B48 
  21      B06157CD 
  21      8E
  22 0047 5D350776 		.ascii	"]5\007va\006\000mN\011\373"
  22      6106006D 
  22      4E09FB
  23              		.text
  24              		.section	.gnu.lto_st_lld_start_alarm.6928f84c12209545,"",%progbits
  25 0000 789C6362 		.ascii	"x\234cb`b@\007\"@\254\016\0246\006q\230\031\030\201"
  25      60624007 
  25      2240AC0E 
  25      14360671 
  25      98191881 
  26 0014 4C462646 		.ascii	"LF&FF \207\221\241\236\211\261>\222\021,\241\304\260"
  26      46208791 
  26      A19E89B1 
  26      3E92112C 
  26      A1C4B0
  27 0027 B0A161D2 		.ascii	"\260\241a\322\203\247\353~2\316\234r\240eA\303\237\377"
  27      83A7EB7E 
  27      32CE9C72 
  27      A06541C3 
  27      9FFF
  28 0039 FF191933 		.ascii	"\377\031\0313A\222\311\214\014\021@\026\243\002\230"
ARM GAS  /tmp/ccvXw1t5.s 			page 2


  28      4192C98C 
  28      0C114016 
  28      A30298
  29 0048 62624135 		.ascii	"bbA5\037\242\361\300\217S=\\\023\032;\032\376\377\257"
  29      1FA2F1C0 
  29      8F533D5C 
  29      131A3B1A 
  29      FEFFAF
  30 005b 275ED32F 		.ascii	"'^\323/\2224\255g:\360\340\377\3779\327\367<\336\307"
  30      9234AD67 
  30      3AF0E0FF 
  30      FF39D7F7 
  30      3CDEC7
  31 006e 28C4CAC8 		.ascii	"(\304\312\310\000\324\302\304\230\313\010\364\024\220"
  31      00D4C2C4 
  31      98CB08F4 
  31      1490
  32 007c C5C20036 		.ascii	"\305\302\0006\201\201\225\241\245\241a\202\002\330,"
  32      818195A1 
  32      A5A16182 
  32      02D82C
  33 008b 20080193 		.ascii	" \010\001\223\241 _3\237eh\332\361\003\350\277D\306"
  33      A1205F33 
  33      9F6568DA 
  33      F103E8BF 
  33      44C6
  34 009d 258CAC0C 		.ascii	"%\214\254\014\351\214\214 K\030\032\200\000d\321Y\206"
  34      E98C8C20 
  34      4B181A80 
  34      0064D159 
  34      86
  35 00ae 43A727F0 		.ascii	"C\247'\360A\344t\031\3264\26446Df22k3\254\0021\3553"
  35      41E47419 
  35      D634B434 
  35      36446632 
  35      326B33AC 
  36 00c6 19596633 		.ascii	"\031Yf3\314\002j`\205i\004\203$(\015\022a\203\2734\035"
  36      CC026A60 
  36      85690483 
  36      24280D12 
  36      6183BB34 
  37 00db 641FC8BA 		.ascii	"d\037\310\272\216\365p\333\230\321m\333\001\263\015"
  37      8EF570DB 
  37      98D16DDB 
  37      01B30D
  38 00ea 610533DC 		.ascii	"a\0053\334\012fd+\030\341V030@\014^\2010\230\205$\203"
  38      0A66642B 
  38      18E15630 
  38      3330400C 
  38      5E813098 
  39 0101 59900D66 		.ascii	"Y\220\015fB\030\014b^dh|\260O\025\242\027\006B@\266"
  39      42180C62 
  39      5E64687C 
  39      B04F15A2 
  39      17064240 
  40 0116 83240DF5 		.ascii	"\203$\015\365\364\364\23532\2232\375\203\365\363\213"
  40      F4F49D33 
ARM GAS  /tmp/ccvXw1t5.s 			page 3


  40      329332FD 
  40      83F5F38B 
  41 0126 F5331273 		.ascii	"\3653\022s\364\013\362\213J\212\365\203C|\215\215\364"
  41      F40BF28B 
  41      4A8AF583 
  41      437C8D8D 
  41      F4
  42 0137 7D7C5CF4 		.ascii	"}|\\\364C<}\313\014\365\213K\342srR\3642\030\000%A\211"
  42      433C7DCB 
  42      0CF58B4B 
  42      E2737252 
  42      F4321800 
  43 014e 8E       		.ascii	"\216"
  44              		.text
  45              		.section	.gnu.lto_st_lld_stop_alarm.6928f84c12209545,"",%progbits
  46 0000 789C6362 		.ascii	"x\234cb`b@\007\"@\374\034\210\215A\034f\006F\240\012"
  46      60624007 
  46      2240FC1C 
  46      888D411C 
  46      660646A0 
  47 0015 46264646 		.ascii	"F&FF \207\221\241\236\211\261>\022\304d`TbX\330\320"
  47      208791A1 
  47      9E89B13E 
  47      12C46460 
  47      546258D8 
  48 002a 30E9C1D3 		.ascii	"0\351\301\323\315?\031gN9\320\262\240\341\317\377\377"
  48      CD3F1967 
  48      4E39D0B2 
  48      A0E1CFFF 
  48      FF
  49 003b 8C8C9920 		.ascii	"\214\214\231 \311dF\206\010 \213Q\001L1\261\240\232"
  49      C9644686 
  49      08208B51 
  49      014C31B1 
  49      A09A
  50 004d BF9EE9C0 		.ascii	"\277\236\351\300\203\377\377\357\334\374\360\350\006"
  50      83FFFFEF 
  50      DCFCF0E8 
  50      06
  51 005a A3101323 		.ascii	"\243\020\023#\003X\013\003+CKC\303\004\005\260f \010"
  51      03580B03 
  51      2B434B43 
  51      C30405B0 
  51      662008
  52 006d 0193A120 		.ascii	"\001\223\241 \313\231\31724\355\370\001\264&\221q\021"
  52      CB99CF32 
  52      34EDF801 
  52      B4269171 
  52      11
  53 007e 232B433A 		.ascii	"#+C:##\310T\206\006 \000\231|\226\341\320\216\013\334"
  53      2323C854 
  53      86062000 
  53      997C96E1 
  53      D08E0BDC 
  54 0092 10396D86 		.ascii	"\0209m\206U\015-\215\015\366\231\214\314\263\031f\001"
  54      550D2D8D 
  54      0DF6998C 
ARM GAS  /tmp/ccvXw1t5.s 			page 4


  54      CCB31966 
  54      01
  55 00a3 55B1C054 		.ascii	"U\261\300T\203A\022\224\006\2110\203\030\027\031\032"
  55      83411294 
  55      06893083 
  55      1817191A 
  56 00b3 1FDC5085 		.ascii	"\037\334P\205\350\205\201\020\220WA\241b\250\247\247"
  56      E8858110 
  56      905741A1 
  56      62A8A7A7 
  57 00c3 EF9C9199 		.ascii	"\357\234\221\231\224\351\037\254\237_\254\237\221\230"
  57      94E91FAC 
  57      9F5FAC9F 
  57      9198
  58 00d1 A35F905F 		.ascii	"\243_\220_TR\254\037\034\342kl\244\357\343\343\242\037"
  58      5452AC1F 
  58      1CE26B6C 
  58      A4EFE3E3 
  58      A21F
  59 00e3 E2E95B66 		.ascii	"\342\351[f\250_\\\022\237\223\223\242\227\301\000\000"
  59      A85F5C12 
  59      9F9393A2 
  59      97C10000 
  60 00f3 0BEA46BA 		.ascii	"\013\352F\272"
  61              		.text
  62              		.section	.gnu.lto_st_lld_set_alarm.6928f84c12209545,"",%progbits
  63 0000 789C6362 		.ascii	"x\234cb`b@\007\"@\314\310\310\300`\014\342030\002U0"
  63      60624007 
  63      2240CCC8 
  63      C8C0600C 
  63      E2303330 
  64 0017 32810418 		.ascii	"2\201\004\030\030\031\352\231\030\353#AL\006F%\206\205"
  64      1819EA99 
  64      18EB2341 
  64      4C064625 
  64      8685
  65 0029 0D0D931E 		.ascii	"\015\015\223\036<\335\365\223q\346\224\003-\013\032"
  65      3CDDF593 
  65      71E69403 
  65      2D0B1A
  66 0038 FEFCFFCF 		.ascii	"\376\374\377\317\310\230\011\222Lfd\210\000\262\030"
  66      C8980992 
  66      4C666488 
  66      00B218
  67 0047 15C01413 		.ascii	"\025\300\024\023\013\252\371\353\231\016<\370\377\177"
  67      0BAAF9EB 
  67      990E3CF8 
  67      FF7F
  68 0055 CEDD2D8F 		.ascii	"\316\335-\217\3370\012132\000\26501\346\202\015eehi"
  68      DF300A31 
  68      333200B5 
  68      3031E682 
  68      0D656568 
  69 006a 6898A000 		.ascii	"h\230\240\0006\001\010B\300d(\310\005\314g\031\232v"
  69      36010842 
  69      C06428C8 
  69      05CC6719 
ARM GAS  /tmp/ccvXw1t5.s 			page 5


  69      9A76
  70 007c FC00DA95 		.ascii	"\374\000\332\225\310\270\210\221\225!\235\221\021d4"
  70      C8B88891 
  70      95219D91 
  70      116434
  71 008b 43031080 		.ascii	"C\003\020\200\214?\313p\350\364\004>\210\234.\303\232"
  71      8C3FCB70 
  71      E8F4043E 
  71      889C2EC3 
  71      9A
  72 009c 8696C686 		.ascii	"\206\226\306\206\310LFfm\206U \246}&#\313l\206Y@\015"
  72      C84C4666 
  72      6D865520 
  72      A67D2623 
  72      CB6C8659 
  73 00b2 AC308D60 		.ascii	"\2540\215`\220\004\245A\"lp\367\245\203\354\273\310"
  73      9004A541 
  73      226C70F7 
  73      A583ECBB 
  73      C8
  74 00c3 D0F8E08D 		.ascii	"\320\370\340\215*\304@\030\010\001\005\002(\274\014"
  74      2AC44018 
  74      08010502 
  74      28BC0C
  75 00d2 F5F4F49D 		.ascii	"\365\364\364\23532\2232\375\203\365\363\213\3653\022"
  75      33329332 
  75      FD83F5F3 
  75      8BF53312 
  76 00e2 73F40BF2 		.ascii	"s\364\013\362\213J\212\365\203C|\215\215\364}|\\\364"
  76      8B4A8AF5 
  76      83437C8D 
  76      8DF47D7C 
  76      5CF4
  77 00f4 433C7DCB 		.ascii	"C<}\313\014\365\213K\342srR\3642\030\000f\005I\357"
  77      0CF58B4B 
  77      E2737252 
  77      F4321800 
  77      660549EF 
  78              		.text
  79              		.section	.gnu.lto_st_lld_get_alarm.6928f84c12209545,"",%progbits
  80 0000 789C6362 		.ascii	"x\234cb`b@\007\322@\354\301\310\300`\014\342\26000\002"
  80      60624007 
  80      D240ECC1 
  80      C8C0600C 
  80      E2B03030 
  81 0015 55303231 		.ascii	"U0212\003IfF\2400\003#C=\0233c}$\210\315\300\244\304"
  81      32034966 
  81      46A03003 
  81      23433D13 
  81      33637D24 
  82 002e B0B0A161 		.ascii	"\260\260\241a\326\203\247\373gJv-h\232\320\360\357\377"
  82      D683A7FB 
  82      674A762D 
  82      689AD0F0 
  82      EFFF
  83 0040 7FC64C90 		.ascii	"\177\306L\220T2#C\004\220\305\250\000\246\230XP-\001"
  83      54322343 
ARM GAS  /tmp/ccvXw1t5.s 			page 6


  83      0490C5A8 
  83      00A69858 
  83      502D01
  84 0053 6B9BD430 		.ascii	"k\233\3240\371i\300\211\206\226\003\377\377\333g\202"
  84      F969C089 
  84      869603FF 
  84      FFDB6782 
  85 0063 6CC0AF67 		.ascii	"l\300\257g=\323\201\007\377\377\337\271\277\340q\007"
  85      3DD38107 
  85      FFFFDFB9 
  85      BFE07107 
  86 0073 A3303323 		.ascii	"\24303#\003P\013\023\003\330.\006V\206\226\206\206\011"
  86      03500B13 
  86      03D82E06 
  86      56869686 
  86      8609
  87 0085 0A601380 		.ascii	"\012`\023\200 \004L\206\202\234\316|\226\241i\307\217"
  87      20044C86 
  87      829CCE7C 
  87      96A169C7 
  87      8F
  88 0096 FD275912 		.ascii	"\375'Y\022\031\0273\2622\24432\202\214fn\000\002\220"
  88      191733B2 
  88      32A43332 
  88      828C666E 
  88      000290
  89 00a9 F167190E 		.ascii	"\361g\031\016\335)\200I1\3512\254ihil0\315dd\321fX\005"
  89      DD298049 
  89      31E932AC 
  89      6968696C 
  89      30CD6464 
  90 00c1 624E062A 		.ascii	"bN\006*f\235\3150\013H\261\301\364\202\035\223\304\010"
  90      669DCD30 
  90      0B48B1C1 
  90      F4821D93 
  90      C408
  91 00d3 71144884 		.ascii	"q\024H\204\035-\004CAj\230O34r00\244\200\324]dh<\300"
  91      1D2D0443 
  91      416A984F 
  91      33347230 
  91      30A480D4 
  92 00ec 0CB705A2 		.ascii	"\014\267\005\242(\004\024\230 \266\241\236\236\276s"
  92      28041498 
  92      20B6A19E 
  92      9EBE73
  93 00fb 466652A6 		.ascii	"FfR\246\177\260~~\261~Fb\216~A~QI\261~p\210\257\261"
  93      7FB07E7E 
  93      B17E4662 
  93      8E7E417E 
  93      5149B17E 
  94 0113 91BE8F8F 		.ascii	"\221\276\217\217\213~\210\247o\231\241~qI|NN\212^\006"
  94      8B7E88A7 
  94      6F99A17E 
  94      71497C4E 
  94      4E8A5E06 
  95 0127 03008366 		.ascii	"\003\000\203fV2"
  95      5632
ARM GAS  /tmp/ccvXw1t5.s 			page 7


  96              		.text
  97              		.section	.gnu.lto_stInit.6928f84c12209545,"",%progbits
  98 0000 789C6362 		.ascii	"x\234cb`b@\007\"@\\\014\304\262 \0163\003#P\005#\023"
  98      60624007 
  98      22405C0C 
  98      C4B2200E 
  98      33032350 
  99 0017 232390C3 		.ascii	"##\220\303\310P\317\304X\037\311\010V\266\236\351\300"
  99      C850CFC4 
  99      581FC908 
  99      56B69EE9 
  99      C0
 100 0028 83FFFFD7 		.ascii	"\203\377\377\327\375X\373\260\036,\311\312\320\322\320"
 100      FD58FBB0 
 100      1E2CC9CA 
 100      D0D2D0
 101 0037 30418181 		.ascii	"0A\201\201!\031,\037\002&CA\272\231\31734?\370g\223"
 101      21192C1F 
 101      02264341 
 101      BA99CF33 
 101      343FF867 
 102 004c C8B89091 		.ascii	"\310\270\220\221\025(V\315\360\253\241\243A \223\021"
 102      152856CD 
 102      F0ABA1A3 
 102      41209311 
 103 005c A8126254 		.ascii	"\250\022bT&\210\276\310\320\370\340?\023L\021\004\204"
 103      2688BEC8 
 103      D0F8E03F 
 103      134C1104 
 103      84
 104 006d 8024402E 		.ascii	"\200$@.\224\326\323\323w\316\310L\312\364\017\326\317"
 104      94D6D3D3 
 104      77CEC84C 
 104      CAF40FD6 
 104      CF
 105 007e 2FD6CF48 		.ascii	"/\326\317H\314\321/.J\326/.\321Kf\000\000\021\216#k"
 105      CCD12F2E 
 105      4AD62F2E 
 105      D14B6600 
 105      00118E23 
 106              		.text
 107              		.section	.gnu.lto_stStartAlarm.6928f84c12209545,"",%progbits
 108 0000 789C6362 		.ascii	"x\234cb`b@\007\322@|\000\210eA\034\026\006F\240\012"
 108      60624007 
 108      D2407C00 
 108      8865411C 
 108      160646A0 
 109 0015 46264666 		.ascii	"F&Ff \311\314\310\010\024bd\250gbf\254\217\004\261\031"
 109      20C9CCC8 
 109      08146264 
 109      A8676266 
 109      AC8F04B1 
 110 002a 98941816 		.ascii	"\230\224\030\02664Lz\360\364\371\014\361\256\007\015"
 110      36344C7A 
 110      F0F4F90C 
 110      F1AE070D 
 111 003a 131AFEFD 		.ascii	"\023\032\376\375\377\317\230\011\222Jfd\210\000\262"
ARM GAS  /tmp/ccvXw1t5.s 			page 8


 111      FFCF9809 
 111      924A6664 
 111      8800B2
 112 0049 1839C014 		.ascii	"\0309\300\024\023#\252%\271\214\014\353\231\016<\370"
 112      1323AA25 
 112      B98C0CEB 
 112      990E3CF8 
 113 0059 FFFFCEE6 		.ascii	"\377\377\316\346\035\217V1\012212\346\202Mgehih\230"
 113      1D8F5631 
 113      0A323132 
 113      E6824D67 
 113      65686968 
 114 006e A0900B35 		.ascii	"\240\220\0135\002\010B\240$\320\035\314\241 w0\237g"
 114      020842A0 
 114      24D01DCC 
 114      A1207730 
 114      9F67
 115 0080 6879B072 		.ascii	"hy\260r1w\"\343\"FV\240T5\303\257\206\216\006\201LF"
 115      317722E3 
 115      224656A0 
 115      5435C3AF 
 115      868E0681 
 116 0096 E6644688 		.ascii	"\346dF\2105\351\214@+Y\030\030.24>X\245\014S\007\001"
 116      35E98C40 
 116      2B591818 
 116      2E32343E 
 116      58A50C53 
 117 00ac 21203520 		.ascii	"! 5 _K\353\351\351;gd&e\372\007\353\347\027\353g$\346"
 117      5F4BEBE9 
 117      E93B6764 
 117      2665FA07 
 117      EBE717EB 
 118 00c3 E8171725 		.ascii	"\350\027\027%\353\027\227\350%3\000\000\004\3154\011"
 118      EB1797E8 
 118      25330000 
 118      04CD3409 
 119              		.text
 120              		.section	.gnu.lto_stStopAlarm.6928f84c12209545,"",%progbits
 121 0000 789C6362 		.ascii	"x\234cb`b@\007\"@\\\006\304\262 \0163\003#P\005#\023"
 121      60624007 
 121      22405C06 
 121      C4B2200E 
 121      33032350 
 122 0017 232390C3 		.ascii	"##\220\303\310P\317\304X\037\311\010V\266\236\351\300"
 122      C850CFC4 
 122      581FC908 
 122      56B69EE9 
 122      C0
 123 0028 83FFFFD7 		.ascii	"\203\377\377\327}k\233\363\206q6\023H\214\225\241\245"
 123      7D6B9BF3 
 123      86713613 
 123      488C95A1 
 123      A5
 124 0039 A1618202 		.ascii	"\241a\202\002\003C2XE\010\230\014\005\351g>\317\320"
 124      03433258 
 124      4508980C 
 124      05E9673E 
ARM GAS  /tmp/ccvXw1t5.s 			page 9


 124      CFD0
 125 004b FC606F33 		.ascii	"\374`o3w\"\343BFV\240`5\303\257\206\216\006\201LF\240"
 125      7722E342 
 125      4656A060 
 125      35C3AF86 
 125      8E06814C 
 126 0061 52886999 		.ascii	"R\210i\231 \372\"C\343\203}\3120E\020\020\002\222\000"
 126      20FA2243 
 126      E3837DCA 
 126      30451010 
 126      029200
 127 0074 39525A4F 		.ascii	"9RZOO\3379#3)\323?X?\277X?#1G\277\270(Y\277\270D/\231"
 127      4FDF3923 
 127      3329D33F 
 127      583FBF58 
 127      3F233147 
 128 0091 010084DE 		.ascii	"\001\000\204\336#\373"
 128      23FB
 129              		.text
 130              		.section	.gnu.lto_stSetAlarm.6928f84c12209545,"",%progbits
 131 0000 789C6362 		.ascii	"x\234cb`b@\007\322@\374\005\210eA\034\026\006F\240\012"
 131      60624007 
 131      D240FC05 
 131      8865411C 
 131      160646A0 
 132 0015 46264666 		.ascii	"F&Ff \311\314\310\010\024bd\250gbf\254\217\004\261\031"
 132      20C9CCC8 
 132      08146264 
 132      A8676266 
 132      AC8F04B1 
 133 002a 98951816 		.ascii	"\230\225\030\02664Lz\360\364\333\014\361\256\007\015"
 133      36344C7A 
 133      F0F4DB0C 
 133      F1AE070D 
 134 003a 131AFEFD 		.ascii	"\023\032\376\375\377\317\230\011\222Jfd\210\000\262"
 134      FFCF9809 
 134      924A6664 
 134      8800B2
 135 0049 1839C014 		.ascii	"\0309\300\024\023#\252%\020m\015\353V40/h\370\363\377"
 135      1323AA25 
 135      106D0DEB 
 135      5634302F 
 135      68F8F3FF 
 136 005d 3F33117A 		.ascii	"?3\021zr\031\031\3263\035x\360\377\377\234\335\033\036"
 136      721919D6 
 136      331D78F0 
 136      FFFF9CDD 
 136      1B1E
 137 006f DD631464 		.ascii	"\335c\024dbd\314\005\273\210\225\241\245\241a\202B."
 137      6264CC05 
 137      BB8895A1 
 137      A5A16182 
 137      422E
 138 0081 D4082008 		.ascii	"\324\010 \010\201\222@\2673\207\202\334\316|\236\241"
 138      819240B7 
 138      338782DC 
 138      CE7C9EA1 
ARM GAS  /tmp/ccvXw1t5.s 			page 10


 139 0091 E5C1DDC7 		.ascii	"\345\301\335\307\\\211\214\213\031Y\201R\325\014\277"
 139      5C898C8B 
 139      19598152 
 139      D50CBF
 140 00a0 1A3A1A04 		.ascii	"\032:\032\0042\031\231\223\031!\326\2443\002\255da`"
 140      32199993 
 140      1921D6A4 
 140      3302AD64 
 140      6160
 141 00b2 B8C8D0F8 		.ascii	"\270\310\320\370\340\2362L\035\004\204\200\324\200B"
 141      E09E324C 
 141      1D048480 
 141      D48042
 142 00c1 4A5A4F4F 		.ascii	"JZOO\3379#3)\323?X?\277X?#1G\277\270(Y\277\270D/\231"
 142      DF392333 
 142      29D33F58 
 142      3FBF583F 
 142      233147BF 
 143 00dd 01008089 		.ascii	"\001\000\200\211@\025"
 143      4015
 144              		.text
 145              		.section	.gnu.lto_stGetAlarm.6928f84c12209545,"",%progbits
 146 0000 789C6362 		.ascii	"x\234cb`b@\007J@l\311\310\300 \013\342\26020\002U02"
 146      60624007 
 146      4A406CC9 
 146      C8C0200B 
 146      E2B03230 
 147 0018 31320349 		.ascii	"12\003IfF\026 \311\302\010\224d`d\250gbfa\254\217\004"
 147      66461620 
 147      C9C20894 
 147      646064A8 
 147      67626661 
 148 002f 71185894 		.ascii	"q\030X\224\030\02664Lz\360\364\337\014\361\256\007\015"
 148      18163634 
 148      4C7AF0F4 
 148      DF0CF1AE 
 148      070D
 149 0041 131AFEFD 		.ascii	"\023\032\376\375\377\317\230\011\222Jfd\210\000\262"
 149      FFCF9809 
 149      924A6664 
 149      8800B2
 150 0050 1839C014 		.ascii	"\0309\300\024\023#\272] m\015\353V40/h\370\363\377?"
 150      1323BA5D 
 150      206D0DEB 
 150      5634302F 
 150      68F8F3FF 
 151 0065 33B17A66 		.ascii	"3\261zf\035\370u\274\207kBcG\303\377\377\365\231 \327"
 151      1DF875BC 
 151      876B4263 
 151      47C3FFFF 
 151      F59920D7 
 152 0079 C1342940 		.ascii	"\3014)@4\261\240j\312edX\317t\340\301\377\377s\366\177"
 152      34B1A06A 
 152      CA656458 
 152      CF74E0C1 
 152      FFFF73F6 
 153 008e 78F88F51 		.ascii	"x\370\217Q\020h(X\027\320\203-\015\015\023\024r\241"
ARM GAS  /tmp/ccvXw1t5.s 			page 11


 153      10682858 
 153      17D0832D 
 153      0D0D1314 
 153      72A1
 154 00a0 F6024108 		.ascii	"\366\002A\010\224\004\372\2339\024\244\206\371<C\363"
 154      9404FA9B 
 154      3914A486 
 154      F93C43F3 
 155 00b0 83BFC989 		.ascii	"\203\277\311\211\214K\030Y\031\322\031\031\253\031~"
 155      8C4B1859 
 155      19D21919 
 155      AB197E
 156 00bf 35743408 		.ascii	"5t4\010d2\262$3B\334\226\011\224\000\203PP\0101\237"
 156      6432B224 
 156      3342DC96 
 156      09940083 
 156      50500831 
 157 00d4 6668E460 		.ascii	"fh\344``H\001I^d`\204\353\203(\011\0011@\241.\255\247"
 157      60480149 
 157      5E646084 
 157      EB832809 
 157      013140A1 
 158 00eb A7EF9C91 		.ascii	"\247\357\234\221\231\224\351\037\254\237_\254\237\221"
 158      9994E91F 
 158      AC9F5FAC 
 158      9F91
 159 00f9 98A35F5C 		.ascii	"\230\243_\\\224\254_\\\242\227\314\000\000NOL\032"
 159      94AC5F5C 
 159      A297CC00 
 159      004E4F4C 
 159      1A
 160              		.text
 161              		.section	.gnu.lto_.symbol_nodes.6928f84c12209545,"",%progbits
 162 0000 789C4DC7 		.ascii	"x\234M\307\271\015\302P\024D\321\231\371^\313t%cA\342"
 162      B90DC250 
 162      1444D199 
 162      F95ECB74 
 162      256341E2 
 163 0014 85C0605C 		.ascii	"\205\300`\\\017\035\020\022S\011B\360-\371\335\344\352"
 163      0F1D1012 
 163      530942F0 
 163      2DF9DDE4 
 163      EA
 164 0025 08C2037B 		.ascii	"\010\302\003{\032i`y\002\3666t\232h\006\316\264\002"
 164      1A696079 
 164      02F63674 
 164      9A6806CE 
 164      B402
 165 0037 2F740A5C 		.ascii	"/t\012\\\344b\347k\240\256r\031x\223\253\300U\256\003"
 165      E462E76B 
 165      A0AE7219 
 165      7893ABC0 
 165      55AE03
 166 004a EF727390 		.ascii	"\357rs\220\233\334f\366=S\321\342\374\3760\225\300\351"
 166      9BDC66F6 
 166      3D53D1E2 
 166      FCFE3095 
ARM GAS  /tmp/ccvXw1t5.s 			page 12


 166      C0E9
 167 005c F78AF9B5 		.ascii	"\367\212\371\265\362\233\364?\276.\211<\262"
 167      F29BF43F 
 167      BE2E893C 
 167      B2
 168              		.text
 169              		.section	.gnu.lto_.refs.6928f84c12209545,"",%progbits
 170 0000 789C6362 		.ascii	"x\234cb`b`d\200\002\000\000F\000\006"
 170      60626064 
 170      80020000 
 170      460006
 171              		.text
 172              		.section	.gnu.lto_.decls.6928f84c12209545,"",%progbits
 173 0000 789CBD58 		.ascii	"x\234\275X}l\024E\024\237\331\273\226\273\266 \020\305"
 173      7D6C1445 
 173      149FD9BB 
 173      96BBB620 
 173      10C5
 174 0012 1A359C46 		.ascii	"\0325\234F\210\301\264K\013F\370\207\200\007\001\022"
 174      88C1B44B 
 174      0B46F887 
 174      80070112 
 175 0022 0AE40A09 		.ascii	"\012\344\012\011\011\177\234\303\335B/i\257x\267h\370"
 175      097F9CC3 
 175      DD422F69 
 175      AF78B768 
 175      F8
 176 0033 CB69A18A 		.ascii	"\313i\241\212\037\204C\201\360\025(\005\264h\004RH\301"
 176      1F844381 
 176      F0152805 
 176      B4680452 
 176      48C1
 177 0045 42608BDA 		.ascii	"B`\213\332Z\021\255\305\250@\224CB\324\370\035\004E"
 177      5A11ADC5 
 177      A8409443 
 177      42D4F81D 
 177      0445
 178 0057 90FA66F6 		.ascii	"\220\372f\366\343v\267\273e\317D7y\357\336\316\276\371"
 178      E376B7BB 
 178      65CF4437 
 178      79EFDECE 
 178      BEF9
 179 0069 BDDF7BF3 		.ascii	"\275\337{\363vv\367\004$\240\355\002B\375p<v7B>\037"
 179      7676F704 
 179      24A0ED02 
 179      42FD703C 
 179      7637423E 
 180 007e 424508A1 		.ascii	"BE\010\241)(w\260\363] m \355 \035 '@:A\272@z@\316\200"
 180      292877B0 
 180      F35D206D 
 180      20ED201D 
 180      2027403A 
 181 0099 F4A28107 		.ascii	"\364\242\201\007\2337\004\244\017d\030H\011\3109\220"
 181      9B3704A4 
 181      0F641848 
 181      09C83990 
 182 00a9 DF41CE82 		.ascii	"\337A\316\202\370A $\272\012r\011\344\"\010\326\346"
ARM GAS  /tmp/ccvXw1t5.s 			page 13


 182      F8412024 
 182      BA0A7209 
 182      E42208D6 
 182      E6
 183 00ba B1DF0336 		.ascii	"\261\337\0036<\306\241\300\001\357\254\346\257\317o"
 183      3CC6A1C0 
 183      01EFACE6 
 183      AFCF6F
 184 00c9 73E0D2EE 		.ascii	"s\340\322\356\201\013\326\270`\315\237\375\036\265\341"
 184      810BD6B8 
 184      60CD9FFD 
 184      1EB5E1
 185 00d8 B0FC0320 		.ascii	"\260\374\003 {L8}w\300\352\320~\207`+\026\253\243\300"
 185      7B4C387D 
 185      77C0EAD0 
 185      7E87602B 
 185      16ABA3C0 
 186 00ec F060FC90 		.ascii	"\360`\374\2206&h\343N\365\354\324\362\017\342\\\354"
 186      362668E3 
 186      4EF5ECD4 
 186      F20FE25C 
 186      EC
 187 00fd 12B05B4C 		.ascii	"\022\260[Ls\231\317.\315\036\012\327\336\265at\271\304"
 187      7399CF2E 
 187      CD1E0AD7 
 187      DEB56174 
 187      B9C4
 188 010f 64E34E75 		.ascii	"d\343Nu\353\361\020\223\371\264k\366\275p\355\264\015"
 188      EBF11093 
 188      F9B46BF6 
 188      BD70EDB4 
 188      0D
 189 0120 83F547A1 		.ascii	"\203\365G\241\015\203\325\357\0018?f\302a~\035\232\375"
 189      0D83D5EF 
 189      01383F66 
 189      C2617E1D 
 189      9AFD
 190 0132 205C1B6D 		.ascii	" \\\033m\253\327h\264\203*\275\331\275\373/\011[\250"
 190      ABD768B4 
 190      832ABDD9 
 190      BDFB2F09 
 190      5BA8
 191 0144 B29A42DB 		.ascii	"\262\232B\333R\034\032\2056R8\232\237\247\024\313\004"
 191      521C1A85 
 191      3652389A 
 191      9FA714CB 
 191      04
 192 0155 4FB9072D 		.ascii	"O\271\007-\302\004\017\013\242\0207J\202|=\020\"\270"
 192      C2040F0B 
 192      A210374A 
 192      827C3D10 
 192      22B8
 193 0167 058FE296 		.ascii	"\005\217\342\226\217G@A\264\206\322F6q\326\007@\313"
 193      8F474041 
 193      B486D246 
 193      3671D607 
 193      40CB
ARM GAS  /tmp/ccvXw1t5.s 			page 14


 194 0179 69D618B4 		.ascii	"i\326\030\264\207\322L\366\334\333g\005J\003\004\357"
 194      87D24CF6 
 194      DCDB6705 
 194      4A0304EF 
 195 0189 C14198BB 		.ascii	"\301A\230\273\030\243qh\037\304\314P\3322\301F\022\345"
 195      18A37168 
 195      1FC4CC50 
 195      DA32C146 
 195      12E5
 196 019b 07FDCE0B 		.ascii	"\007\375\316\013\357w\342F\240Np+\007\317b\014T\337"
 196      EF77E246 
 196      A04E702B 
 196      07CF620C 
 196      54DF
 197 01ad C0E3F286 		.ascii	"\300\343\362\206:\264\356\370d\316\362-\016\364\263"
 197      3AB4EEF8 
 197      64CEF22D 
 197      0EF4B3
 198 01bc 60052278 		.ascii	"`\005\"xH\320\314\221\237\353\016\014\215_\326\014\266"
 198      48D0CC91 
 198      9FEB0E0C 
 198      8D5FD60C 
 198      B6
 199 01cd 25DC85FE 		.ascii	"%\334\205\376cw\202\027\372\214\011\002\272a#\374\010"
 199      63778217 
 199      FA8C0902 
 199      BA6123FC 
 199      08
 200 01de DA4DE9AB 		.ascii	"\332M\351\253\260\334=\205\260\334~\275\372\257\370"
 200      B0DC3D85 
 200      B0DC7EBD 
 200      FAAFF8
 201 01ed 98DB2E3C 		.ascii	"\230\333.<\332\261\026\252\027\034c\321^\326\026\347"
 201      DAB116AA 
 201      171C63D1 
 201      5ED616E7 
 202 01fd E8FC52DE 		.ascii	"\350\374R\336\024H\233d\341\270\037\013\003\033L\331"
 202      14489B64 
 202      E1B81F0B 
 202      031B4CD9 
 203 020d 7ABA24D3 		.ascii	"z\272$\323\220\355\357\337\331<\334{s\035\322\232+\227"
 203      90EDEFDF 
 203      D93CDC7B 
 203      731DD29A 
 203      2B97
 204 021f 9480D6FB 		.ascii	"\224\200\326\373\254\031\031\254h+\365\031\254\332\354"
 204      AC1919AC 
 204      682BF519 
 204      ACDAEC
 205 022e AC0E3BB2 		.ascii	"\254\016;\262\352\313\261R[Y@\273}N\025\243'\245Yj\031"
 205      EACBB152 
 205      5B5940BB 
 205      7D4E15A3 
 205      27A5596A 
 206 0243 083E0850 		.ascii	"\010>\010P\004\267\377\233b\265\333i\035q\244u\363\364"
 206      04B7FF9B 
 206      62B5DB69 
ARM GAS  /tmp/ccvXw1t5.s 			page 15


 206      1D71A475 
 206      F3F4
 207 0255 F6FB6873 		.ascii	"\366\373hs\243\322\337\177R\011![\275\030\274[\301\216"
 207      A3D2DF7F 
 207      5209215B 
 207      BD18BC5B 
 207      C18E
 208 0267 3914ECB0 		.ascii	"9\024\354\260s\301\032i[+\015\352l\011\356p\311G\303"
 208      73C11A69 
 208      5B2B0DEA 
 208      6C09EE70 
 208      C947C3
 209 027a 3B3E9068 		.ascii	";>\220h\263\222\335\266\343Dan\333\320VL@\227<\255\321"
 209      B392DDB6 
 209      E344616E 
 209      DBD0564C 
 209      40973CAD 
 210 028f 097B314E 		.ascii	"\011{1N\016\214\221\355U:\272\2645\012\351K\364\235"
 210      0E8C91ED 
 210      553ABAB4 
 210      350AE94B 
 210      F49D
 211 02a1 F312DD8C 		.ascii	"\363\022\335\214\317\322\373\371\032\367\350\364\270"
 211      CFD2FBF9 
 211      1AF7E8F4 
 211      B8
 212 02ae 446B69D3 		.ascii	"Dki\323pl\320\352\264\323:\345H\353\272\211\226\232"
 212      706CD0EA 
 212      B4D33AE5 
 212      48EBBA89 
 212      969A
 213 02c0 F5DF9EB2 		.ascii	"\365\337\236\262\356\262\303w;\302\267u\333\263~\321"
 213      EEB2C377 
 213      3BC2B775 
 213      DBB37ED1 
 214 02d0 EF98F51F 		.ascii	"\357\230\365\037q\2431\337\343\215\331\363\257\262\356"
 214      71A331DF 
 214      E38DD9F3 
 214      AFB2EE
 215 02df B1D3FAD0 		.ascii	"\261\323\372\320\221\326\325\356\265zgN\325\372M@\033"
 215      91D6D5EE 
 215      B57A674E 
 215      D5FA4D40 
 215      1B
 216 02f0 FC9E3AEC 		.ascii	"\374\236:\354\314\340\035\366\261C\300L\366\312m\005"
 216      CCE01DF6 
 216      B143C04C 
 216      F6CA6D05 
 217 0300 6FA1A758 		.ascii	"o\241\247X\207=g\364\327\316\001\001U\210O\255\020\305"
 217      873D67F4 
 217      D7CE0101 
 217      55884FAD 
 217      10C5
 218 0312 E8A5DC36 		.ascii	"\350\245\3346?\022\255gY\207L\033>-\324i<\205\214\035"
 218      3F12AD67 
 218      59874C1B 
 218      3E2DD469 
ARM GAS  /tmp/ccvXw1t5.s 			page 16


 218      3C858C1D 
 219 0326 FFC8E55F 		.ascii	"\377\310\345_\223\253\370\263\343,\036\311\236\035\266"
 219      93ABF8B3 
 219      E32C1EC9 
 219      9E1DB6
 220 0335 5877C461 		.ascii	"Xw\304aD>\207\251\352$\216J\225\327.\224P\277:\216\034"
 220      443E87A9 
 220      EA248E4A 
 220      95D72E94 
 220      50BF3A8E 
 221 034a A86BC743 		.ascii	"\250k\307C\250\231\256^\245l\274\300n\377S\230?\246"
 221      A899AE5E 
 221      A56CBCC0 
 221      6EFF5398 
 221      3FA6
 222 035c 560DFA98 		.ascii	"V\015\372\230\"x\037\036\343\351\301 \240\037y&\214"
 222      22781F1E 
 222      E3E9C120 
 222      A01F7926 
 222      8C
 223 036d 82139266 		.ascii	"\202\023\222f\252\207\346`\245\265\351BI\206\020|\216"
 223      AA87E660 
 223      A5B5E942 
 223      4986107C 
 223      8E
 224 037e DF61BFE6 		.ascii	"\337a\277\346\015\026\262\200m6\203\375\356\005,\340"
 224      0D16B280 
 224      6D3683FD 
 224      EE052CE0 
 225 038e CE6CAB19 		.ascii	"\316l\253\031\354F\336`Vf\333\315`\267\275\200\015w"
 225      EC46DE60 
 225      5666DBCD 
 225      60B7BD80 
 225      0D77
 226 03a0 67B6C30C 		.ascii	"g\266\303\014\326P\220/\230\225\331A3X\223\027\260R"
 226      D650902F 
 226      9895D941 
 226      33589317 
 226      B052
 227 03b2 77666D66 		.ascii	"wfmf\260\227\363\006\2632;l\006[\357\005,\344\316\254"
 227      B097F306 
 227      B3323B6C 
 227      065BEF05 
 227      2CE4CEAC 
 228 03c6 DD0CB629 		.ascii	"\335\014\266)o0+\263\243f\260\255^\300\036ug\326a\006"
 228      6F302BB3 
 228      A366B0AD 
 228      5EC01E75 
 228      67D66106 
 229 03da DB913798 		.ascii	"\333\2217\230\225\331q3X\213\027\260\361n\314\032\224"
 229      95D97133 
 229      588B17B0 
 229      F16ECC1A 
 229      94
 230 03eb 138B3364 		.ascii	"\023\2133d\004\312h;\223\212\252\357N\330\332Zf\267"
 230      04CA683B 
 230      938AAAEF 
ARM GAS  /tmp/ccvXw1t5.s 			page 17


 230      4ED8DA5A 
 230      66B7
 231 03fd 56773782 		.ascii	"Vw7\202\257\341\021\334\342\333\020\325\266!\356\341"
 231      AFE111DC 
 231      E2DB10D5 
 231      B621EEE1 
 232 040d F6FA715D 		.ascii	"\366\372q]}\300\344n\177\315\310\275\221\232\275 \355"
 232      7DC0E46E 
 232      7FCDC8BD 
 232      919ABD20 
 232      ED
 233 041e D7ED695B 		.ascii	"\327\355i[Y8\345m-b\257\271\210oz)\342Tw\260>3\330\001"
 233      5938E56D 
 233      2D62AFB9 
 233      886F7A29 
 233      E25477B0 
 234 0436 2F60B3DC 		.ascii	"/`\263\334{\34533\330\241\274\301\254\314>7\203\035"
 234      7BE53333 
 234      D8A1BCC1 
 234      ACCC3E37 
 234      831D
 235 0448 F50236DF 		.ascii	"\365\0026\337\235\331\227f\260cy\203\231\2315(\347s"
 235      9DD99766 
 235      B0637983 
 235      99993528 
 235      E773
 236 045a 8DD73CD5 		.ascii	"\215\327<\325\326yS\255\273\255\305\255\325\325\215"
 236      D67953AD 
 236      BBADC5AD 
 236      D5D58D
 237 0469 E0D542BE 		.ascii	"\340\325B\276\215\327$87\236\371;2\347\005iw\332\323"
 237      8DD72438 
 237      379EF93B 
 237      32E70569 
 237      77DAD3
 238 047c B690D0CC 		.ascii	"\266\220\320\314E\0165t:\314\317{\202\277\340\017\344"
 238      450E3574 
 238      3ACCCF7B 
 238      82BFE00F 
 238      E4
 239 048d 2FF143A0 		.ascii	"/\361C\240/p\375\025\327\027\271\276\304\365e\256\257"
 239      2F70FD15 
 239      D717B9BE 
 239      C4F565AE 
 239      AF
 240 049e 70FD2DD7 		.ascii	"p\375-\327\337s\375\003\327?q\375\013\327\277q}\225"
 240      DF73FD03 
 240      D73F71FD 
 240      0BD7BF71 
 240      7D95
 241 04b0 EB3FB9FE 		.ascii	"\353?\271\376\213\353[\\\337\346\232\012L7\2026\016"
 241      8BEB5B5C 
 241      DFE69A0A 
 241      4C378236 
 241      0E
 242 04c1 B742F5E1 		.ascii	"\267B\365\341b\335%\204vBq\263M\337\004\033\375\306"
 242      62DD2584 
ARM GAS  /tmp/ccvXw1t5.s 			page 18


 242      764271B3 
 242      4DDF041B 
 242      FDC6
 243 04d3 6B6087F9 		.ascii	"k`\207\3715\320\362\376\244\276{\271\341\256\021\014"
 243      35D0F2FE 
 243      A4BE7BB9 
 243      E1AE110C 
 244 04e3 DC007A81 		.ascii	"\334\000z\201\315\3126\321\006\374\264\301$`^\022\365"
 244      CDCA36D1 
 244      06FCB4C1 
 244      24605E12 
 244      F5
 245 04f4 A508BA41 		.ascii	"\245\010\272A \370E!\000\353\321U\340\364\311\317\241"
 245      20F84521 
 245      00EBD155 
 245      E0F4C9CF 
 245      A1
 246 0505 99839E92 		.ascii	"\231\203\236\222j\353\026\036@\261e\020\212\257\344"
 246      6AEB161E 
 246      40B16510 
 246      8AAFE4
 247 0514 283E8C76 		.ascii	"(>\214v\321\336\336\354\266\257?\251h\310(\015\315\364"
 247      D1DEDEEC 
 247      B6AF3FA9 
 247      68C8280D 
 247      CDF4
 248 0526 567F3FC6 		.ascii	"V\177?\306\372\306\270y\230\366\377@v\257R\272y\330"
 248      FAC6B879 
 248      98F6FF40 
 248      76AF52BA 
 248      79D8
 249 0538 9D52309C 		.ascii	"\235R0\234ii\251\263/\301\031\201\365\304zS\227\252"
 249      6969A9B3 
 249      2FC11981 
 249      F5C47A53 
 249      97AA
 250 054a B66EF563 		.ascii	"\266n\365c\326\224\037\271\027a\360\251Z\320\032=\350"
 250      D6941FB9 
 250      1761F0A9 
 250      5AD01A3D 
 250      E8
 251 055b 50EE9BCB 		.ascii	"P\356\233\313G\365t\366\"\370\265\274o\267\015.\267"
 251      47F574F6 
 251      22F8B5BC 
 251      6FB70D2E 
 251      B7
 252 056c 5B8985F3 		.ascii	"[\211\205\363\206\334\355\366i\201\355{\314FB@\347\265"
 252      86DCEDF6 
 252      6981ED7B 
 252      CC464240 
 252      E7B5
 253 057e DC092EC2 		.ascii	"\334\011.\302\372\002)\355\3354p\220\256a\357\376\346"
 253      FA0229ED 
 253      DD347090 
 253      AE61EFFE 
 253      E6
 254 058f 64D6E592 		.ascii	"d\326\345\222Y\244\343\024\017\226\262\315\213\340-"
ARM GAS  /tmp/ccvXw1t5.s 			page 19


 254      59A4E314 
 254      0F96B2CD 
 254      8BE02D
 255 059e 79A7BCD5 		.ascii	"y\247\274\325%\345\"K\312\272\027\230\033\005\333\307"
 255      25E5224B 
 255      CABA1798 
 255      1B05DBC7 
 256 05ae 988D047C 		.ascii	"\230\215\004|\306ZR\266u\362\261A:y\273\275\223\225"
 256      C65A52B6 
 256      75F2B141 
 256      3A79BBBD 
 256      9395
 257 05c0 EBB94211 		.ascii	"\353\271B\021\274\031\222\323\343\237\031$\376uK|u;"
 257      BC1992D3 
 257      E39F1924 
 257      FE754B7C 
 257      753B
 258 05d2 50FEEEA6 		.ascii	"P\376\356\246\241\220\261\035\234\261|\025V\224\227"
 258      A190B11D 
 258      9CB17C15 
 258      569497
 259 05e1 8BE19AC4 		.ascii	"\213\341\232\304\222\304\274j\261>-\326\220Zqy}JN\213"
 259      92C4BC6A 
 259      B13E2DD6 
 259      905A7179 
 259      7D4A4E8B 
 260 05f5 D50BAA26 		.ascii	"\325\013\252&T\212s\346L\027\027\314\256z\246BL\313"
 260      548A73E6 
 260      4C1717CC 
 260      AE7AA642 
 260      4CCB
 261 0607 D1DADA78 		.ascii	"\321\332\332xy\015\032k\235\221\222\305D2V\273\".\211"
 261      790D1A6B 
 261      9D9192C5 
 261      443256BB 
 261      222E89
 262 061a B19AF4CA 		.ascii	"\261\232\364\312\264\274r\271\224\006\267 \263\023u"
 262      B4BC72B9 
 262      9406B720 
 262      B31375
 263 0629 52542E9C 		.ascii	"RT.\2349wa(\214\322br)\227\307\305\232\372:ILIi\211"
 263      39776128 
 263      8CD26272 
 263      2997C7C5 
 263      9AFA3A49 
 264 0641 A4623510 		.ascii	"\244b5\0203\025\177\226\244$\221\244\352*\305e\261X"
 264      33157F96 
 264      A42491A4 
 264      EA2AC565 
 264      B158
 265 0653 19186552 		.ascii	"\031\030eR\335\022)\036\227\342\306@\262>)\225IdI\242"
 265      DD12291E 
 265      97E2C640 
 265      B23E2995 
 265      496449A2 
 266 0667 6C627452 		.ascii	"lbtRY\345\370\212\211OW\212\226\013\006\221\264\034"
 266      59E5F88A 
ARM GAS  /tmp/ccvXw1t5.s 			page 20


 266      894F578A 
 266      960B0691 
 266      B41C
 267 0679 4F246520 		.ascii	"O$e \021X\001\277\023*\243\362*\374\377E\257#\261\232"
 267      115801BF 
 267      132AA3F2 
 267      2AFCFF45 
 267      AF23B19A 
 268 068d 445212A3 		.ascii	"DR\022\243qi)YQ+G\365\222\024E\243:\237\221j9\243i\231"
 268      71692959 
 268      512B47F5 
 268      921445A3 
 268      3A9F916A 
 269 06a5 A4E428A9 		.ascii	"\244\344(\251\005$?\253\326\010c\274~\271:<\\\037\221"
 269      05243FAB 
 269      D60863BC 
 269      7EB93A3C 
 269      5C1F91
 270 06b8 64EBC032 		.ascii	"d\353\3002}\340\376\201K\230N\305\240\010\3451T\230"
 270      7DE0FE81 
 270      4B984EC5 
 270      A008E531 
 270      5498
 271 06ca 96672713 		.ascii	"\226g'\023rIZ\256f\221\2461\377!d\011_\231b6X\277\234"
 271      72495AAE 
 271      6691A631 
 271      FF216409 
 271      5F996236 
 272 06e1 8F15812D 		.ascii	"\217\025\201-\311\2729S3\213\265P\011\200\230\350\275"
 272      C9BA3953 
 272      338BB550 
 272      098098E8 
 272      BD
 273 06f2 51EA5886 		.ascii	"Q\352X\206\211:\310\270\3308\211\312\276p\244\002\244"
 273      893AC8B8 
 273      D83889CA 
 273      BE70A402 
 273      A4
 274 0703 D25F5D15 		.ascii	"\322_]\025\216\370\247\317\236\021\021\252#\276\031"
 274      8EF8A7CF 
 274      9E1111AA 
 274      23BE19
 275 0712 332305E1 		.ascii	"3#\005\341pU\244\202\353J\1778<#\342\013\317]\340\233"
 275      7055A482 
 275      EB4A7F38 
 275      3C23E20B 
 275      CF5DE09B 
 276 0726 5F1DF64D 		.ascii	"_\035\366M\213D|\2210\234\303\204'\247/\210\370\246"
 276      8B447C91 
 276      309CC384 
 276      27A72F88 
 276      F8A6
 277 0738 B39955D3 		.ascii	"\263\231U\323\"\302<u\326\004\360_\024)\210>Y__\353"
 277      22C23C75 
 277      D604F05F 
 277      1429883E 
 277      595F5FEB 
ARM GAS  /tmp/ccvXw1t5.s 			page 21


 278 074c 8FC15206 		.ascii	"\217\301R\006\242\321\245+\222\261ht\250n\224?1~\322"
 278      A2D1A52B 
 278      92B16874 
 278      A86E943F 
 278      317ED2
 279 075f 78CBD913 		.ascii	"x\313\331\023\346\263\311\025\377\000\234\226\346H"
 279      E6B3C915 
 279      FF009C96 
 279      E648
 280              		.text
 281              		.section	.gnu.lto_.symtab.6928f84c12209545,"",%progbits
 282 0000 7374496E 		.ascii	"stInit\000\000\000\000\000\000\000\000\000\000\000\000"
 282      69740000 
 282      00000000 
 282      00000000 
 282      0000
 283 0012 BE000000 		.ascii	"\276\000\000\000stStartAlarm\000\000\000\000\000\000"
 283      73745374 
 283      61727441 
 283      6C61726D 
 283      00000000 
 284 0028 00000000 		.ascii	"\000\000\000\000\000\000\301\000\000\000stStopAlarm"
 284      0000C100 
 284      00007374 
 284      53746F70 
 284      416C6172 
 285 003d 00000000 		.ascii	"\000\000\000\000\000\000\000\000\000\000\000\000\306"
 285      00000000 
 285      00000000 
 285      C6
 286 004a 00000073 		.ascii	"\000\000\000stSetAlarm\000\000\000\000\000\000\000\000"
 286      74536574 
 286      416C6172 
 286      6D000000 
 286      00000000 
 287 005f 00000000 		.ascii	"\000\000\000\000\311\000\000\000stGetAlarm\000\000\000"
 287      C9000000 
 287      73744765 
 287      74416C61 
 287      726D0000 
 288 0074 00000000 		.ascii	"\000\000\000\000\000\000\000\000\000\315\000\000\000"
 288      00000000 
 288      00CD0000 
 288      00
 289 0081 73745F6C 		.ascii	"st_lld_init\000\000\002\000\000\000\000\000\000\000"
 289      6C645F69 
 289      6E697400 
 289      00020000 
 289      00000000 
 290 0096 0000D000 		.ascii	"\000\000\320\000\000\000"
 290      0000
 291              		.text
 292              		.section	.gnu.lto_.opts,"",%progbits
 293 0000 272D6D63 		.ascii	"'-mcpu=cortex-m4' '-mno-thumb-interwork' '-mthumb' "
 293      70753D63 
 293      6F727465 
 293      782D6D34 
ARM GAS  /tmp/ccvXw1t5.s 			page 22


 293      2720272D 
 294 0033 272D6767 		.ascii	"'-ggdb' '-O0' '-fomit-frame-pointer' '-falign-funct"
 294      64622720 
 294      272D4F30 
 294      2720272D 
 294      666F6D69 
 295 0066 696F6E73 		.ascii	"ions=16' '-ffunction-sections' '-fdata-sections' '-"
 295      3D313627 
 295      20272D66 
 295      66756E63 
 295      74696F6E 
 296 0099 666E6F2D 		.ascii	"fno-common' '-flto'\000"
 296      636F6D6D 
 296      6F6E2720 
 296      272D666C 
 296      746F2700 
 297              		.text
 298              		.cfi_sections	.debug_frame
 299              		.section	.text.st_lld_start_alarm,"ax",%progbits
 300              		.align	2
 301              		.p2align 4,,15
 302              		.thumb
 303              		.thumb_func
 304              		.type	st_lld_start_alarm, %function
 305              	st_lld_start_alarm:
 306              	.LFB137:
 307              		.file 1 "../ChibiOS/os/hal/ports/STM32/LLD/TIMv1/st_lld.h"
 308              		.loc 1 153 0
 309              		.cfi_startproc
 310              		@ args = 0, pretend = 0, frame = 8
 311              		@ frame_needed = 0, uses_anonymous_args = 0
 312              		@ link register save eliminated.
 313 0000 82B0     		sub	sp, sp, #8
 314              		.cfi_def_cfa_offset 8
 315 0002 0190     		str	r0, [sp, #4]
 316              		.loc 1 155 0
 317 0004 4FF08043 		mov	r3, #1073741824
 318 0008 019A     		ldr	r2, [sp, #4]
 319 000a 5A63     		str	r2, [r3, #52]
 320              		.loc 1 156 0
 321 000c 4FF08043 		mov	r3, #1073741824
 322 0010 0022     		movs	r2, #0
 323 0012 1A61     		str	r2, [r3, #16]
 324              		.loc 1 157 0
 325 0014 4FF08043 		mov	r3, #1073741824
 326 0018 0222     		movs	r2, #2
 327 001a DA60     		str	r2, [r3, #12]
 328              		.loc 1 158 0
 329 001c 02B0     		add	sp, sp, #8
 330              		@ sp needed
 331 001e 7047     		bx	lr
 332              		.cfi_endproc
 333              	.LFE137:
 334              		.size	st_lld_start_alarm, .-st_lld_start_alarm
 335              		.section	.text.st_lld_stop_alarm,"ax",%progbits
 336              		.align	2
 337              		.p2align 4,,15
ARM GAS  /tmp/ccvXw1t5.s 			page 23


 338              		.thumb
 339              		.thumb_func
 340              		.type	st_lld_stop_alarm, %function
 341              	st_lld_stop_alarm:
 342              	.LFB138:
 343              		.loc 1 165 0
 344              		.cfi_startproc
 345              		@ args = 0, pretend = 0, frame = 0
 346              		@ frame_needed = 0, uses_anonymous_args = 0
 347              		@ link register save eliminated.
 348              		.loc 1 167 0
 349 0000 4FF08043 		mov	r3, #1073741824
 350 0004 0022     		movs	r2, #0
 351 0006 DA60     		str	r2, [r3, #12]
 352              		.loc 1 168 0
 353 0008 7047     		bx	lr
 354              		.cfi_endproc
 355              	.LFE138:
 356              		.size	st_lld_stop_alarm, .-st_lld_stop_alarm
 357 000a 00BFAFF3 		.section	.text.st_lld_set_alarm,"ax",%progbits
 357      0080
 358              		.align	2
 359              		.p2align 4,,15
 360              		.thumb
 361              		.thumb_func
 362              		.type	st_lld_set_alarm, %function
 363              	st_lld_set_alarm:
 364              	.LFB139:
 365              		.loc 1 177 0
 366              		.cfi_startproc
 367              		@ args = 0, pretend = 0, frame = 8
 368              		@ frame_needed = 0, uses_anonymous_args = 0
 369              		@ link register save eliminated.
 370 0000 82B0     		sub	sp, sp, #8
 371              		.cfi_def_cfa_offset 8
 372 0002 0190     		str	r0, [sp, #4]
 373              		.loc 1 179 0
 374 0004 4FF08043 		mov	r3, #1073741824
 375 0008 019A     		ldr	r2, [sp, #4]
 376 000a 5A63     		str	r2, [r3, #52]
 377              		.loc 1 180 0
 378 000c 02B0     		add	sp, sp, #8
 379              		@ sp needed
 380 000e 7047     		bx	lr
 381              		.cfi_endproc
 382              	.LFE139:
 383              		.size	st_lld_set_alarm, .-st_lld_set_alarm
 384              		.section	.text.st_lld_get_alarm,"ax",%progbits
 385              		.align	2
 386              		.p2align 4,,15
 387              		.thumb
 388              		.thumb_func
 389              		.type	st_lld_get_alarm, %function
 390              	st_lld_get_alarm:
 391              	.LFB140:
 392              		.loc 1 189 0
 393              		.cfi_startproc
ARM GAS  /tmp/ccvXw1t5.s 			page 24


 394              		@ args = 0, pretend = 0, frame = 0
 395              		@ frame_needed = 0, uses_anonymous_args = 0
 396              		@ link register save eliminated.
 397              		.loc 1 191 0
 398 0000 4FF08043 		mov	r3, #1073741824
 399 0004 5B6B     		ldr	r3, [r3, #52]
 400              		.loc 1 192 0
 401 0006 1846     		mov	r0, r3
 402 0008 7047     		bx	lr
 403              		.cfi_endproc
 404              	.LFE140:
 405              		.size	st_lld_get_alarm, .-st_lld_get_alarm
 406 000a 00BFAFF3 		.section	.text.stInit,"ax",%progbits
 406      0080
 407              		.align	2
 408              		.p2align 4,,15
 409              		.global	stInit
 410              		.thumb
 411              		.thumb_func
 412              		.type	stInit, %function
 413              	stInit:
 414              	.LFB272:
 415              		.file 2 "../ChibiOS/os/hal/src/st.c"
 416              		.loc 2 60 0
 417              		.cfi_startproc
 418              		@ args = 0, pretend = 0, frame = 0
 419              		@ frame_needed = 0, uses_anonymous_args = 0
 420 0000 08B5     		push	{r3, lr}
 421              		.cfi_def_cfa_offset 8
 422              		.cfi_offset 3, -8
 423              		.cfi_offset 14, -4
 424              		.loc 2 62 0
 425 0002 FFF7FEFF 		bl	st_lld_init
 426              		.loc 2 63 0
 427 0006 08BD     		pop	{r3, pc}
 428              		.cfi_endproc
 429              	.LFE272:
 430              		.size	stInit, .-stInit
 431 0008 AFF30080 		.section	.text.stStartAlarm,"ax",%progbits
 431      AFF30080 
 432              		.align	2
 433              		.p2align 4,,15
 434              		.global	stStartAlarm
 435              		.thumb
 436              		.thumb_func
 437              		.type	stStartAlarm, %function
 438              	stStartAlarm:
 439              	.LFB273:
 440              		.loc 2 77 0
 441              		.cfi_startproc
 442              		@ args = 0, pretend = 0, frame = 8
 443              		@ frame_needed = 0, uses_anonymous_args = 0
 444 0000 00B5     		push	{lr}
 445              		.cfi_def_cfa_offset 4
 446              		.cfi_offset 14, -4
 447 0002 83B0     		sub	sp, sp, #12
 448              		.cfi_def_cfa_offset 16
ARM GAS  /tmp/ccvXw1t5.s 			page 25


 449 0004 0190     		str	r0, [sp, #4]
 450              		.loc 2 81 0
 451 0006 0198     		ldr	r0, [sp, #4]
 452 0008 FFF7FEFF 		bl	st_lld_start_alarm
 453              		.loc 2 82 0
 454 000c 03B0     		add	sp, sp, #12
 455              		@ sp needed
 456 000e 5DF804FB 		ldr	pc, [sp], #4
 457              		.cfi_endproc
 458              	.LFE273:
 459              		.size	stStartAlarm, .-stStartAlarm
 460 0012 00BFAFF3 		.section	.text.stStopAlarm,"ax",%progbits
 460      0080AFF3 
 460      0080AFF3 
 460      0080
 461              		.align	2
 462              		.p2align 4,,15
 463              		.global	stStopAlarm
 464              		.thumb
 465              		.thumb_func
 466              		.type	stStopAlarm, %function
 467              	stStopAlarm:
 468              	.LFB274:
 469              		.loc 2 91 0
 470              		.cfi_startproc
 471              		@ args = 0, pretend = 0, frame = 0
 472              		@ frame_needed = 0, uses_anonymous_args = 0
 473 0000 08B5     		push	{r3, lr}
 474              		.cfi_def_cfa_offset 8
 475              		.cfi_offset 3, -8
 476              		.cfi_offset 14, -4
 477              		.loc 2 93 0
 478 0002 FFF7FEFF 		bl	st_lld_stop_alarm
 479              		.loc 2 94 0
 480 0006 08BD     		pop	{r3, pc}
 481              		.cfi_endproc
 482              	.LFE274:
 483              		.size	stStopAlarm, .-stStopAlarm
 484              		.section	.text.stSetAlarm,"ax",%progbits
 485              		.align	2
 486              		.p2align 4,,15
 487              		.global	stSetAlarm
 488              		.thumb
 489              		.thumb_func
 490              		.type	stSetAlarm, %function
 491              	stSetAlarm:
 492              	.LFB275:
 493              		.loc 2 105 0
 494              		.cfi_startproc
 495              		@ args = 0, pretend = 0, frame = 8
 496              		@ frame_needed = 0, uses_anonymous_args = 0
 497 0000 00B5     		push	{lr}
 498              		.cfi_def_cfa_offset 4
 499              		.cfi_offset 14, -4
 500 0002 83B0     		sub	sp, sp, #12
 501              		.cfi_def_cfa_offset 16
 502 0004 0190     		str	r0, [sp, #4]
ARM GAS  /tmp/ccvXw1t5.s 			page 26


 503              		.loc 2 109 0
 504 0006 0198     		ldr	r0, [sp, #4]
 505 0008 FFF7FEFF 		bl	st_lld_set_alarm
 506              		.loc 2 110 0
 507 000c 03B0     		add	sp, sp, #12
 508              		@ sp needed
 509 000e 5DF804FB 		ldr	pc, [sp], #4
 510              		.cfi_endproc
 511              	.LFE275:
 512              		.size	stSetAlarm, .-stSetAlarm
 513 0012 00BFAFF3 		.section	.text.stGetAlarm,"ax",%progbits
 513      0080AFF3 
 513      0080AFF3 
 513      0080
 514              		.align	2
 515              		.p2align 4,,15
 516              		.global	stGetAlarm
 517              		.thumb
 518              		.thumb_func
 519              		.type	stGetAlarm, %function
 520              	stGetAlarm:
 521              	.LFB276:
 522              		.loc 2 121 0
 523              		.cfi_startproc
 524              		@ args = 0, pretend = 0, frame = 0
 525              		@ frame_needed = 0, uses_anonymous_args = 0
 526 0000 08B5     		push	{r3, lr}
 527              		.cfi_def_cfa_offset 8
 528              		.cfi_offset 3, -8
 529              		.cfi_offset 14, -4
 530              		.loc 2 125 0
 531 0002 FFF7FEFF 		bl	st_lld_get_alarm
 532 0006 0346     		mov	r3, r0
 533              		.loc 2 126 0
 534 0008 1846     		mov	r0, r3
 535 000a 08BD     		pop	{r3, pc}
 536              		.cfi_endproc
 537              	.LFE276:
 538              		.size	stGetAlarm, .-stGetAlarm
 539 000c AFF30080 		.text
 540              	.Letext0:
 541              		.file 3 "/nfs/nfs5/home/research/hardware/arm2/gcc-arm-embedded/gcc-arm-none-eabi-4_8-2014q2/arm-n
 542              		.file 4 "/nfs/nfs5/home/research/hardware/arm2/gcc-arm-embedded/gcc-arm-none-eabi-4_8-2014q2/arm-n
 543              		.file 5 "../ChibiOS/os/rt/ports/ARMCMx/compilers/GCC/chtypes.h"
 544              		.file 6 "../ChibiOS/os/rt/include/chsystypes.h"
 545              		.file 7 "../ChibiOS/os/rt/include/chschd.h"
 546              		.file 8 "../ChibiOS/os/rt/ports/ARMCMx/chcore.h"
 547              		.file 9 "../ChibiOS/os/rt/ports/ARMCMx/chcore_v7m.h"
 548              		.file 10 "../ChibiOS/os/hal/ports/STM32/LLD/TIMv1/stm32_tim.h"
 549              		.file 11 "../ChibiOS/os/rt/include/chtm.h"
 550              		.file 12 "../ChibiOS/os/rt/include/chsem.h"
 551              		.file 13 "../ChibiOS/os/rt/include/chmtx.h"
 552              		.file 14 "../ChibiOS/os/ext/CMSIS/include/core_cm4.h"
 553              		.section	.debug_info,"",%progbits
 554              	.Ldebug_info0:
 555 0000 CA080000 		.4byte	0x8ca
 556 0004 0400     		.2byte	0x4
ARM GAS  /tmp/ccvXw1t5.s 			page 27


 557 0006 00000000 		.4byte	.Ldebug_abbrev0
 558 000a 04       		.byte	0x4
 559 000b 01       		.uleb128 0x1
 560 000c AE010000 		.4byte	.LASF125
 561 0010 01       		.byte	0x1
 562 0011 5B000000 		.4byte	.LASF126
 563 0015 C2040000 		.4byte	.LASF127
 564 0019 00000000 		.4byte	.Ldebug_ranges0+0
 565 001d 00000000 		.4byte	0
 566 0021 00000000 		.4byte	.Ldebug_line0
 567 0025 02       		.uleb128 0x2
 568 0026 04       		.byte	0x4
 569 0027 05       		.byte	0x5
 570 0028 696E7400 		.ascii	"int\000"
 571 002c 03       		.uleb128 0x3
 572 002d 04       		.byte	0x4
 573 002e 07       		.byte	0x7
 574 002f 8E020000 		.4byte	.LASF0
 575 0033 03       		.uleb128 0x3
 576 0034 01       		.byte	0x1
 577 0035 06       		.byte	0x6
 578 0036 FB000000 		.4byte	.LASF1
 579 003a 04       		.uleb128 0x4
 580 003b 28000000 		.4byte	.LASF5
 581 003f 03       		.byte	0x3
 582 0040 1C       		.byte	0x1c
 583 0041 45000000 		.4byte	0x45
 584 0045 03       		.uleb128 0x3
 585 0046 01       		.byte	0x1
 586 0047 08       		.byte	0x8
 587 0048 0B040000 		.4byte	.LASF2
 588 004c 03       		.uleb128 0x3
 589 004d 02       		.byte	0x2
 590 004e 05       		.byte	0x5
 591 004f 23040000 		.4byte	.LASF3
 592 0053 03       		.uleb128 0x3
 593 0054 02       		.byte	0x2
 594 0055 07       		.byte	0x7
 595 0056 5D010000 		.4byte	.LASF4
 596 005a 04       		.uleb128 0x4
 597 005b 02030000 		.4byte	.LASF6
 598 005f 03       		.byte	0x3
 599 0060 37       		.byte	0x37
 600 0061 65000000 		.4byte	0x65
 601 0065 03       		.uleb128 0x3
 602 0066 04       		.byte	0x4
 603 0067 05       		.byte	0x5
 604 0068 20010000 		.4byte	.LASF7
 605 006c 04       		.uleb128 0x4
 606 006d 63050000 		.4byte	.LASF8
 607 0071 03       		.byte	0x3
 608 0072 38       		.byte	0x38
 609 0073 77000000 		.4byte	0x77
 610 0077 03       		.uleb128 0x3
 611 0078 04       		.byte	0x4
 612 0079 07       		.byte	0x7
 613 007a 0D050000 		.4byte	.LASF9
ARM GAS  /tmp/ccvXw1t5.s 			page 28


 614 007e 03       		.uleb128 0x3
 615 007f 08       		.byte	0x8
 616 0080 05       		.byte	0x5
 617 0081 3F010000 		.4byte	.LASF10
 618 0085 04       		.uleb128 0x4
 619 0086 BB030000 		.4byte	.LASF11
 620 008a 03       		.byte	0x3
 621 008b 4E       		.byte	0x4e
 622 008c 90000000 		.4byte	0x90
 623 0090 03       		.uleb128 0x3
 624 0091 08       		.byte	0x8
 625 0092 07       		.byte	0x7
 626 0093 76000000 		.4byte	.LASF12
 627 0097 04       		.uleb128 0x4
 628 0098 4A040000 		.4byte	.LASF13
 629 009c 04       		.byte	0x4
 630 009d 2A       		.byte	0x2a
 631 009e 3A000000 		.4byte	0x3a
 632 00a2 04       		.uleb128 0x4
 633 00a3 03040000 		.4byte	.LASF14
 634 00a7 04       		.byte	0x4
 635 00a8 41       		.byte	0x41
 636 00a9 5A000000 		.4byte	0x5a
 637 00ad 04       		.uleb128 0x4
 638 00ae 91040000 		.4byte	.LASF15
 639 00b2 04       		.byte	0x4
 640 00b3 42       		.byte	0x42
 641 00b4 6C000000 		.4byte	0x6c
 642 00b8 04       		.uleb128 0x4
 643 00b9 1F000000 		.4byte	.LASF16
 644 00bd 04       		.byte	0x4
 645 00be 4E       		.byte	0x4e
 646 00bf 85000000 		.4byte	0x85
 647 00c3 04       		.uleb128 0x4
 648 00c4 94050000 		.4byte	.LASF17
 649 00c8 05       		.byte	0x5
 650 00c9 39       		.byte	0x39
 651 00ca AD000000 		.4byte	0xad
 652 00ce 04       		.uleb128 0x4
 653 00cf 29010000 		.4byte	.LASF18
 654 00d3 05       		.byte	0x5
 655 00d4 3C       		.byte	0x3c
 656 00d5 97000000 		.4byte	0x97
 657 00d9 04       		.uleb128 0x4
 658 00da 31010000 		.4byte	.LASF19
 659 00de 05       		.byte	0x5
 660 00df 3D       		.byte	0x3d
 661 00e0 97000000 		.4byte	0x97
 662 00e4 04       		.uleb128 0x4
 663 00e5 C6030000 		.4byte	.LASF20
 664 00e9 05       		.byte	0x5
 665 00ea 3E       		.byte	0x3e
 666 00eb 97000000 		.4byte	0x97
 667 00ef 04       		.uleb128 0x4
 668 00f0 E5030000 		.4byte	.LASF21
 669 00f4 05       		.byte	0x5
 670 00f5 40       		.byte	0x40
ARM GAS  /tmp/ccvXw1t5.s 			page 29


 671 00f6 AD000000 		.4byte	0xad
 672 00fa 04       		.uleb128 0x4
 673 00fb CA020000 		.4byte	.LASF22
 674 00ff 05       		.byte	0x5
 675 0100 41       		.byte	0x41
 676 0101 A2000000 		.4byte	0xa2
 677 0105 04       		.uleb128 0x4
 678 0106 F6020000 		.4byte	.LASF23
 679 010a 05       		.byte	0x5
 680 010b 43       		.byte	0x43
 681 010c AD000000 		.4byte	0xad
 682 0110 04       		.uleb128 0x4
 683 0111 A8010000 		.4byte	.LASF24
 684 0115 05       		.byte	0x5
 685 0116 45       		.byte	0x45
 686 0117 A2000000 		.4byte	0xa2
 687 011b 04       		.uleb128 0x4
 688 011c 45050000 		.4byte	.LASF25
 689 0120 06       		.byte	0x6
 690 0121 33       		.byte	0x33
 691 0122 AD000000 		.4byte	0xad
 692 0126 04       		.uleb128 0x4
 693 0127 35050000 		.4byte	.LASF26
 694 012b 06       		.byte	0x6
 695 012c 3F       		.byte	0x3f
 696 012d 31010000 		.4byte	0x131
 697 0131 05       		.uleb128 0x5
 698 0132 C0020000 		.4byte	.LASF46
 699 0136 44       		.byte	0x44
 700 0137 07       		.byte	0x7
 701 0138 C2       		.byte	0xc2
 702 0139 1D020000 		.4byte	0x21d
 703 013d 06       		.uleb128 0x6
 704 013e 43040000 		.4byte	.LASF27
 705 0142 07       		.byte	0x7
 706 0143 C3       		.byte	0xc3
 707 0144 28020000 		.4byte	0x228
 708 0148 00       		.byte	0
 709 0149 06       		.uleb128 0x6
 710 014a DE030000 		.4byte	.LASF28
 711 014e 07       		.byte	0x7
 712 014f C5       		.byte	0xc5
 713 0150 28020000 		.4byte	0x228
 714 0154 04       		.byte	0x4
 715 0155 06       		.uleb128 0x6
 716 0156 E2000000 		.4byte	.LASF29
 717 015a 07       		.byte	0x7
 718 015b C7       		.byte	0xc7
 719 015c EF000000 		.4byte	0xef
 720 0160 08       		.byte	0x8
 721 0161 06       		.uleb128 0x6
 722 0162 53060000 		.4byte	.LASF30
 723 0166 07       		.byte	0x7
 724 0167 C8       		.byte	0xc8
 725 0168 7D040000 		.4byte	0x47d
 726 016c 0C       		.byte	0xc
 727 016d 06       		.uleb128 0x6
ARM GAS  /tmp/ccvXw1t5.s 			page 30


 728 016e 4D010000 		.4byte	.LASF31
 729 0172 07       		.byte	0x7
 730 0173 CA       		.byte	0xca
 731 0174 28020000 		.4byte	0x228
 732 0178 10       		.byte	0x10
 733 0179 06       		.uleb128 0x6
 734 017a 73030000 		.4byte	.LASF32
 735 017e 07       		.byte	0x7
 736 017f CB       		.byte	0xcb
 737 0180 28020000 		.4byte	0x228
 738 0184 14       		.byte	0x14
 739 0185 06       		.uleb128 0x6
 740 0186 06060000 		.4byte	.LASF33
 741 018a 07       		.byte	0x7
 742 018b D2       		.byte	0xd2
 743 018c 2A070000 		.4byte	0x72a
 744 0190 18       		.byte	0x18
 745 0191 06       		.uleb128 0x6
 746 0192 99030000 		.4byte	.LASF34
 747 0196 07       		.byte	0x7
 748 0197 D8       		.byte	0xd8
 749 0198 3C070000 		.4byte	0x73c
 750 019c 1C       		.byte	0x1c
 751 019d 06       		.uleb128 0x6
 752 019e 2D040000 		.4byte	.LASF35
 753 01a2 07       		.byte	0x7
 754 01a3 DD       		.byte	0xdd
 755 01a4 D9000000 		.4byte	0xd9
 756 01a8 20       		.byte	0x20
 757 01a9 06       		.uleb128 0x6
 758 01aa 32060000 		.4byte	.LASF36
 759 01ae 07       		.byte	0x7
 760 01af E1       		.byte	0xe1
 761 01b0 CE000000 		.4byte	0xce
 762 01b4 21       		.byte	0x21
 763 01b5 06       		.uleb128 0x6
 764 01b6 CE050000 		.4byte	.LASF37
 765 01ba 07       		.byte	0x7
 766 01bb E6       		.byte	0xe6
 767 01bc E4000000 		.4byte	0xe4
 768 01c0 22       		.byte	0x22
 769 01c1 07       		.uleb128 0x7
 770 01c2 705F7500 		.ascii	"p_u\000"
 771 01c6 07       		.byte	0x7
 772 01c7 3701     		.2byte	0x137
 773 01c9 59060000 		.4byte	0x659
 774 01cd 24       		.byte	0x24
 775 01ce 08       		.uleb128 0x8
 776 01cf 2A030000 		.4byte	.LASF38
 777 01d3 07       		.byte	0x7
 778 01d4 3C01     		.2byte	0x13c
 779 01d6 2E020000 		.4byte	0x22e
 780 01da 28       		.byte	0x28
 781 01db 08       		.uleb128 0x8
 782 01dc AA020000 		.4byte	.LASF39
 783 01e0 07       		.byte	0x7
 784 01e1 4201     		.2byte	0x142
ARM GAS  /tmp/ccvXw1t5.s 			page 31


 785 01e3 52020000 		.4byte	0x252
 786 01e7 2C       		.byte	0x2c
 787 01e8 08       		.uleb128 0x8
 788 01e9 86040000 		.4byte	.LASF40
 789 01ed 07       		.byte	0x7
 790 01ee 4801     		.2byte	0x148
 791 01f0 05010000 		.4byte	0x105
 792 01f4 34       		.byte	0x34
 793 01f5 08       		.uleb128 0x8
 794 01f6 19040000 		.4byte	.LASF41
 795 01fa 07       		.byte	0x7
 796 01fb 4F01     		.2byte	0x14f
 797 01fd 24070000 		.4byte	0x724
 798 0201 38       		.byte	0x38
 799 0202 08       		.uleb128 0x8
 800 0203 4F050000 		.4byte	.LASF42
 801 0207 07       		.byte	0x7
 802 0208 5301     		.2byte	0x153
 803 020a EF000000 		.4byte	0xef
 804 020e 3C       		.byte	0x3c
 805 020f 08       		.uleb128 0x8
 806 0210 78010000 		.4byte	.LASF43
 807 0214 07       		.byte	0x7
 808 0215 5A01     		.2byte	0x15a
 809 0217 05030000 		.4byte	0x305
 810 021b 40       		.byte	0x40
 811 021c 00       		.byte	0
 812 021d 04       		.uleb128 0x4
 813 021e 3D030000 		.4byte	.LASF44
 814 0222 06       		.byte	0x6
 815 0223 44       		.byte	0x44
 816 0224 28020000 		.4byte	0x228
 817 0228 09       		.uleb128 0x9
 818 0229 04       		.byte	0x4
 819 022a 26010000 		.4byte	0x126
 820 022e 04       		.uleb128 0x4
 821 022f 1B060000 		.4byte	.LASF45
 822 0233 06       		.byte	0x6
 823 0234 49       		.byte	0x49
 824 0235 39020000 		.4byte	0x239
 825 0239 05       		.uleb128 0x5
 826 023a B2040000 		.4byte	.LASF47
 827 023e 04       		.byte	0x4
 828 023f 07       		.byte	0x7
 829 0240 B0       		.byte	0xb0
 830 0241 52020000 		.4byte	0x252
 831 0245 06       		.uleb128 0x6
 832 0246 43040000 		.4byte	.LASF27
 833 024a 07       		.byte	0x7
 834 024b B1       		.byte	0xb1
 835 024c 28020000 		.4byte	0x228
 836 0250 00       		.byte	0
 837 0251 00       		.byte	0
 838 0252 04       		.uleb128 0x4
 839 0253 B5050000 		.4byte	.LASF48
 840 0257 06       		.byte	0x6
 841 0258 50       		.byte	0x50
ARM GAS  /tmp/ccvXw1t5.s 			page 32


 842 0259 5D020000 		.4byte	0x25d
 843 025d 05       		.uleb128 0x5
 844 025e D1000000 		.4byte	.LASF49
 845 0262 08       		.byte	0x8
 846 0263 07       		.byte	0x7
 847 0264 B7       		.byte	0xb7
 848 0265 82020000 		.4byte	0x282
 849 0269 06       		.uleb128 0x6
 850 026a 43040000 		.4byte	.LASF27
 851 026e 07       		.byte	0x7
 852 026f B8       		.byte	0xb8
 853 0270 28020000 		.4byte	0x228
 854 0274 00       		.byte	0
 855 0275 06       		.uleb128 0x6
 856 0276 DE030000 		.4byte	.LASF28
 857 027a 07       		.byte	0x7
 858 027b B9       		.byte	0xb9
 859 027c 28020000 		.4byte	0x228
 860 0280 04       		.byte	0x4
 861 0281 00       		.byte	0
 862 0282 04       		.uleb128 0x4
 863 0283 00000000 		.4byte	.LASF50
 864 0287 06       		.byte	0x6
 865 0288 57       		.byte	0x57
 866 0289 8D020000 		.4byte	0x28d
 867 028d 0A       		.uleb128 0xa
 868 028e E8020000 		.4byte	.LASF51
 869 0292 1C       		.byte	0x1c
 870 0293 07       		.byte	0x7
 871 0294 9201     		.2byte	0x192
 872 0296 E9020000 		.4byte	0x2e9
 873 029a 08       		.uleb128 0x8
 874 029b A1040000 		.4byte	.LASF52
 875 029f 07       		.byte	0x7
 876 02a0 9301     		.2byte	0x193
 877 02a2 52020000 		.4byte	0x252
 878 02a6 00       		.byte	0
 879 02a7 08       		.uleb128 0x8
 880 02a8 35040000 		.4byte	.LASF53
 881 02ac 07       		.byte	0x7
 882 02ad 9401     		.2byte	0x194
 883 02af EF000000 		.4byte	0xef
 884 02b3 08       		.byte	0x8
 885 02b4 08       		.uleb128 0x8
 886 02b5 82030000 		.4byte	.LASF54
 887 02b9 07       		.byte	0x7
 888 02ba 9601     		.2byte	0x196
 889 02bc 7D040000 		.4byte	0x47d
 890 02c0 0C       		.byte	0xc
 891 02c1 08       		.uleb128 0x8
 892 02c2 70010000 		.4byte	.LASF55
 893 02c6 07       		.byte	0x7
 894 02c7 9901     		.2byte	0x199
 895 02c9 28020000 		.4byte	0x228
 896 02cd 10       		.byte	0x10
 897 02ce 08       		.uleb128 0x8
 898 02cf B3030000 		.4byte	.LASF56
ARM GAS  /tmp/ccvXw1t5.s 			page 33


 899 02d3 07       		.byte	0x7
 900 02d4 9A01     		.2byte	0x19a
 901 02d6 28020000 		.4byte	0x228
 902 02da 14       		.byte	0x14
 903 02db 08       		.uleb128 0x8
 904 02dc A9030000 		.4byte	.LASF57
 905 02e0 07       		.byte	0x7
 906 02e1 9D01     		.2byte	0x19d
 907 02e3 28020000 		.4byte	0x228
 908 02e7 18       		.byte	0x18
 909 02e8 00       		.byte	0
 910 02e9 04       		.uleb128 0x4
 911 02ea 5A050000 		.4byte	.LASF58
 912 02ee 06       		.byte	0x6
 913 02ef 5C       		.byte	0x5c
 914 02f0 F4020000 		.4byte	0x2f4
 915 02f4 09       		.uleb128 0x9
 916 02f5 04       		.byte	0x4
 917 02f6 FA020000 		.4byte	0x2fa
 918 02fa 0B       		.uleb128 0xb
 919 02fb 05030000 		.4byte	0x305
 920 02ff 0C       		.uleb128 0xc
 921 0300 05030000 		.4byte	0x305
 922 0304 00       		.byte	0
 923 0305 0D       		.uleb128 0xd
 924 0306 04       		.byte	0x4
 925 0307 04       		.uleb128 0x4
 926 0308 CE030000 		.4byte	.LASF59
 927 030c 06       		.byte	0x6
 928 030d 61       		.byte	0x61
 929 030e 12030000 		.4byte	0x312
 930 0312 0A       		.uleb128 0xa
 931 0313 52040000 		.4byte	.LASF60
 932 0317 14       		.byte	0x14
 933 0318 07       		.byte	0x7
 934 0319 6D01     		.2byte	0x16d
 935 031b 61030000 		.4byte	0x361
 936 031f 08       		.uleb128 0x8
 937 0320 9B020000 		.4byte	.LASF61
 938 0324 07       		.byte	0x7
 939 0325 6E01     		.2byte	0x16e
 940 0327 42070000 		.4byte	0x742
 941 032b 00       		.byte	0
 942 032c 08       		.uleb128 0x8
 943 032d 89010000 		.4byte	.LASF62
 944 0331 07       		.byte	0x7
 945 0332 6F01     		.2byte	0x16f
 946 0334 42070000 		.4byte	0x742
 947 0338 04       		.byte	0x4
 948 0339 08       		.uleb128 0x8
 949 033a A9040000 		.4byte	.LASF63
 950 033e 07       		.byte	0x7
 951 033f 7001     		.2byte	0x170
 952 0341 1B010000 		.4byte	0x11b
 953 0345 08       		.byte	0x8
 954 0346 08       		.uleb128 0x8
 955 0347 59060000 		.4byte	.LASF64
ARM GAS  /tmp/ccvXw1t5.s 			page 34


 956 034b 07       		.byte	0x7
 957 034c 7101     		.2byte	0x171
 958 034e E9020000 		.4byte	0x2e9
 959 0352 0C       		.byte	0xc
 960 0353 08       		.uleb128 0x8
 961 0354 AE050000 		.4byte	.LASF65
 962 0358 07       		.byte	0x7
 963 0359 7301     		.2byte	0x173
 964 035b 05030000 		.4byte	0x305
 965 035f 10       		.byte	0x10
 966 0360 00       		.byte	0
 967 0361 04       		.uleb128 0x4
 968 0362 A9000000 		.4byte	.LASF66
 969 0366 06       		.byte	0x6
 970 0367 66       		.byte	0x66
 971 0368 6C030000 		.4byte	0x36c
 972 036c 0A       		.uleb128 0xa
 973 036d 50030000 		.4byte	.LASF67
 974 0371 10       		.byte	0x10
 975 0372 07       		.byte	0x7
 976 0373 7D01     		.2byte	0x17d
 977 0375 AE030000 		.4byte	0x3ae
 978 0379 08       		.uleb128 0x8
 979 037a 9B020000 		.4byte	.LASF61
 980 037e 07       		.byte	0x7
 981 037f 7E01     		.2byte	0x17e
 982 0381 42070000 		.4byte	0x742
 983 0385 00       		.byte	0
 984 0386 08       		.uleb128 0x8
 985 0387 89010000 		.4byte	.LASF62
 986 038b 07       		.byte	0x7
 987 038c 8001     		.2byte	0x180
 988 038e 42070000 		.4byte	0x742
 989 0392 04       		.byte	0x4
 990 0393 08       		.uleb128 0x8
 991 0394 A9040000 		.4byte	.LASF63
 992 0398 07       		.byte	0x7
 993 0399 8201     		.2byte	0x182
 994 039b 1B010000 		.4byte	0x11b
 995 039f 08       		.byte	0x8
 996 03a0 08       		.uleb128 0x8
 997 03a1 67030000 		.4byte	.LASF68
 998 03a5 07       		.byte	0x7
 999 03a6 8A01     		.2byte	0x18a
 1000 03a8 1B010000 		.4byte	0x11b
 1001 03ac 0C       		.byte	0xc
 1002 03ad 00       		.byte	0
 1003 03ae 04       		.uleb128 0x4
 1004 03af 4C000000 		.4byte	.LASF69
 1005 03b3 06       		.byte	0x6
 1006 03b4 6B       		.byte	0x6b
 1007 03b5 B9030000 		.4byte	0x3b9
 1008 03b9 0A       		.uleb128 0xa
 1009 03ba ED030000 		.4byte	.LASF70
 1010 03be 04       		.byte	0x4
 1011 03bf 07       		.byte	0x7
 1012 03c0 A401     		.2byte	0x1a4
ARM GAS  /tmp/ccvXw1t5.s 			page 35


 1013 03c2 D4030000 		.4byte	0x3d4
 1014 03c6 08       		.uleb128 0x8
 1015 03c7 6E050000 		.4byte	.LASF71
 1016 03cb 07       		.byte	0x7
 1017 03cc AC01     		.2byte	0x1ac
 1018 03ce 48070000 		.4byte	0x748
 1019 03d2 00       		.byte	0
 1020 03d3 00       		.byte	0
 1021 03d4 04       		.uleb128 0x4
 1022 03d5 D0020000 		.4byte	.LASF72
 1023 03d9 06       		.byte	0x6
 1024 03da 70       		.byte	0x70
 1025 03db DF030000 		.4byte	0x3df
 1026 03df 0E       		.uleb128 0xe
 1027 03e0 16010000 		.4byte	.LASF73
 1028 03e4 5001     		.2byte	0x150
 1029 03e6 07       		.byte	0x7
 1030 03e7 C401     		.2byte	0x1c4
 1031 03e9 3B040000 		.4byte	0x43b
 1032 03ed 08       		.uleb128 0x8
 1033 03ee D5050000 		.4byte	.LASF74
 1034 03f2 07       		.byte	0x7
 1035 03f3 C801     		.2byte	0x1c8
 1036 03f5 82020000 		.4byte	0x282
 1037 03f9 00       		.byte	0
 1038 03fa 08       		.uleb128 0x8
 1039 03fb 0F010000 		.4byte	.LASF75
 1040 03ff 07       		.byte	0x7
 1041 0400 CC01     		.2byte	0x1cc
 1042 0402 61030000 		.4byte	0x361
 1043 0406 1C       		.byte	0x1c
 1044 0407 07       		.uleb128 0x7
 1045 0408 64626700 		.ascii	"dbg\000"
 1046 040c 07       		.byte	0x7
 1047 040d D001     		.2byte	0x1d0
 1048 040f AE030000 		.4byte	0x3ae
 1049 0413 2C       		.byte	0x2c
 1050 0414 08       		.uleb128 0x8
 1051 0415 96000000 		.4byte	.LASF76
 1052 0419 07       		.byte	0x7
 1053 041a D401     		.2byte	0x1d4
 1054 041c 26010000 		.4byte	0x126
 1055 0420 30       		.byte	0x30
 1056 0421 07       		.uleb128 0x7
 1057 0422 746D00   		.ascii	"tm\000"
 1058 0425 07       		.byte	0x7
 1059 0426 D901     		.2byte	0x1d9
 1060 0428 4E060000 		.4byte	0x64e
 1061 042c 74       		.byte	0x74
 1062 042d 08       		.uleb128 0x8
 1063 042e 99010000 		.4byte	.LASF77
 1064 0432 07       		.byte	0x7
 1065 0433 E501     		.2byte	0x1e5
 1066 0435 4D070000 		.4byte	0x74d
 1067 0439 78       		.byte	0x78
 1068 043a 00       		.byte	0
 1069 043b 03       		.uleb128 0x3
ARM GAS  /tmp/ccvXw1t5.s 			page 36


 1070 043c 04       		.byte	0x4
 1071 043d 07       		.byte	0x7
 1072 043e 34030000 		.4byte	.LASF78
 1073 0442 0F       		.uleb128 0xf
 1074 0443 AD000000 		.4byte	0xad
 1075 0447 10       		.uleb128 0x10
 1076 0448 AD000000 		.4byte	0xad
 1077 044c 57040000 		.4byte	0x457
 1078 0450 11       		.uleb128 0x11
 1079 0451 3B040000 		.4byte	0x43b
 1080 0455 01       		.byte	0x1
 1081 0456 00       		.byte	0
 1082 0457 10       		.uleb128 0x10
 1083 0458 AD000000 		.4byte	0xad
 1084 045c 67040000 		.4byte	0x467
 1085 0460 11       		.uleb128 0x11
 1086 0461 3B040000 		.4byte	0x43b
 1087 0465 03       		.byte	0x3
 1088 0466 00       		.byte	0
 1089 0467 04       		.uleb128 0x4
 1090 0468 80010000 		.4byte	.LASF79
 1091 046c 08       		.byte	0x8
 1092 046d 65       		.byte	0x65
 1093 046e 05030000 		.4byte	0x305
 1094 0472 04       		.uleb128 0x4
 1095 0473 1F030000 		.4byte	.LASF80
 1096 0477 08       		.byte	0x8
 1097 0478 6D       		.byte	0x6d
 1098 0479 B8000000 		.4byte	0xb8
 1099 047d 05       		.uleb128 0x5
 1100 047e 8C050000 		.4byte	.LASF81
 1101 0482 04       		.byte	0x4
 1102 0483 08       		.byte	0x8
 1103 0484 89       		.byte	0x89
 1104 0485 96040000 		.4byte	0x496
 1105 0489 12       		.uleb128 0x12
 1106 048a 72313300 		.ascii	"r13\000"
 1107 048e 08       		.byte	0x8
 1108 048f 8A       		.byte	0x8a
 1109 0490 11050000 		.4byte	0x511
 1110 0494 00       		.byte	0
 1111 0495 00       		.byte	0
 1112 0496 05       		.uleb128 0x5
 1113 0497 40000000 		.4byte	.LASF82
 1114 049b 24       		.byte	0x24
 1115 049c 09       		.byte	0x9
 1116 049d FD       		.byte	0xfd
 1117 049e 11050000 		.4byte	0x511
 1118 04a2 07       		.uleb128 0x7
 1119 04a3 723400   		.ascii	"r4\000"
 1120 04a6 09       		.byte	0x9
 1121 04a7 1001     		.2byte	0x110
 1122 04a9 67040000 		.4byte	0x467
 1123 04ad 00       		.byte	0
 1124 04ae 07       		.uleb128 0x7
 1125 04af 723500   		.ascii	"r5\000"
 1126 04b2 09       		.byte	0x9
ARM GAS  /tmp/ccvXw1t5.s 			page 37


 1127 04b3 1101     		.2byte	0x111
 1128 04b5 67040000 		.4byte	0x467
 1129 04b9 04       		.byte	0x4
 1130 04ba 07       		.uleb128 0x7
 1131 04bb 723600   		.ascii	"r6\000"
 1132 04be 09       		.byte	0x9
 1133 04bf 1201     		.2byte	0x112
 1134 04c1 67040000 		.4byte	0x467
 1135 04c5 08       		.byte	0x8
 1136 04c6 07       		.uleb128 0x7
 1137 04c7 723700   		.ascii	"r7\000"
 1138 04ca 09       		.byte	0x9
 1139 04cb 1301     		.2byte	0x113
 1140 04cd 67040000 		.4byte	0x467
 1141 04d1 0C       		.byte	0xc
 1142 04d2 07       		.uleb128 0x7
 1143 04d3 723800   		.ascii	"r8\000"
 1144 04d6 09       		.byte	0x9
 1145 04d7 1401     		.2byte	0x114
 1146 04d9 67040000 		.4byte	0x467
 1147 04dd 10       		.byte	0x10
 1148 04de 07       		.uleb128 0x7
 1149 04df 723900   		.ascii	"r9\000"
 1150 04e2 09       		.byte	0x9
 1151 04e3 1501     		.2byte	0x115
 1152 04e5 67040000 		.4byte	0x467
 1153 04e9 14       		.byte	0x14
 1154 04ea 07       		.uleb128 0x7
 1155 04eb 72313000 		.ascii	"r10\000"
 1156 04ef 09       		.byte	0x9
 1157 04f0 1601     		.2byte	0x116
 1158 04f2 67040000 		.4byte	0x467
 1159 04f6 18       		.byte	0x18
 1160 04f7 07       		.uleb128 0x7
 1161 04f8 72313100 		.ascii	"r11\000"
 1162 04fc 09       		.byte	0x9
 1163 04fd 1701     		.2byte	0x117
 1164 04ff 67040000 		.4byte	0x467
 1165 0503 1C       		.byte	0x1c
 1166 0504 07       		.uleb128 0x7
 1167 0505 6C7200   		.ascii	"lr\000"
 1168 0508 09       		.byte	0x9
 1169 0509 1801     		.2byte	0x118
 1170 050b 67040000 		.4byte	0x467
 1171 050f 20       		.byte	0x20
 1172 0510 00       		.byte	0
 1173 0511 09       		.uleb128 0x9
 1174 0512 04       		.byte	0x4
 1175 0513 96040000 		.4byte	0x496
 1176 0517 13       		.uleb128 0x13
 1177 0518 60       		.byte	0x60
 1178 0519 0A       		.byte	0xa
 1179 051a A101     		.2byte	0x1a1
 1180 051c 23060000 		.4byte	0x623
 1181 0520 07       		.uleb128 0x7
 1182 0521 43523100 		.ascii	"CR1\000"
 1183 0525 0A       		.byte	0xa
ARM GAS  /tmp/ccvXw1t5.s 			page 38


 1184 0526 A201     		.2byte	0x1a2
 1185 0528 42040000 		.4byte	0x442
 1186 052c 00       		.byte	0
 1187 052d 07       		.uleb128 0x7
 1188 052e 43523200 		.ascii	"CR2\000"
 1189 0532 0A       		.byte	0xa
 1190 0533 A301     		.2byte	0x1a3
 1191 0535 42040000 		.4byte	0x442
 1192 0539 04       		.byte	0x4
 1193 053a 08       		.uleb128 0x8
 1194 053b BB020000 		.4byte	.LASF83
 1195 053f 0A       		.byte	0xa
 1196 0540 A401     		.2byte	0x1a4
 1197 0542 42040000 		.4byte	0x442
 1198 0546 08       		.byte	0x8
 1199 0547 08       		.uleb128 0x8
 1200 0548 0D000000 		.4byte	.LASF84
 1201 054c 0A       		.byte	0xa
 1202 054d A501     		.2byte	0x1a5
 1203 054f 42040000 		.4byte	0x442
 1204 0553 0C       		.byte	0xc
 1205 0554 07       		.uleb128 0x7
 1206 0555 535200   		.ascii	"SR\000"
 1207 0558 0A       		.byte	0xa
 1208 0559 A601     		.2byte	0x1a6
 1209 055b 42040000 		.4byte	0x442
 1210 055f 10       		.byte	0x10
 1211 0560 07       		.uleb128 0x7
 1212 0561 45475200 		.ascii	"EGR\000"
 1213 0565 0A       		.byte	0xa
 1214 0566 A701     		.2byte	0x1a7
 1215 0568 42040000 		.4byte	0x442
 1216 056c 14       		.byte	0x14
 1217 056d 08       		.uleb128 0x8
 1218 056e E9000000 		.4byte	.LASF85
 1219 0572 0A       		.byte	0xa
 1220 0573 A801     		.2byte	0x1a8
 1221 0575 42040000 		.4byte	0x442
 1222 0579 18       		.byte	0x18
 1223 057a 08       		.uleb128 0x8
 1224 057b EF000000 		.4byte	.LASF86
 1225 057f 0A       		.byte	0xa
 1226 0580 A901     		.2byte	0x1a9
 1227 0582 42040000 		.4byte	0x442
 1228 0586 1C       		.byte	0x1c
 1229 0587 08       		.uleb128 0x8
 1230 0588 3A010000 		.4byte	.LASF87
 1231 058c 0A       		.byte	0xa
 1232 058d AA01     		.2byte	0x1aa
 1233 058f 42040000 		.4byte	0x442
 1234 0593 20       		.byte	0x20
 1235 0594 07       		.uleb128 0x7
 1236 0595 434E5400 		.ascii	"CNT\000"
 1237 0599 0A       		.byte	0xa
 1238 059a AB01     		.2byte	0x1ab
 1239 059c 42040000 		.4byte	0x442
 1240 05a0 24       		.byte	0x24
ARM GAS  /tmp/ccvXw1t5.s 			page 39


 1241 05a1 07       		.uleb128 0x7
 1242 05a2 50534300 		.ascii	"PSC\000"
 1243 05a6 0A       		.byte	0xa
 1244 05a7 AC01     		.2byte	0x1ac
 1245 05a9 42040000 		.4byte	0x442
 1246 05ad 28       		.byte	0x28
 1247 05ae 07       		.uleb128 0x7
 1248 05af 41525200 		.ascii	"ARR\000"
 1249 05b3 0A       		.byte	0xa
 1250 05b4 AD01     		.2byte	0x1ad
 1251 05b6 42040000 		.4byte	0x442
 1252 05ba 2C       		.byte	0x2c
 1253 05bb 07       		.uleb128 0x7
 1254 05bc 52435200 		.ascii	"RCR\000"
 1255 05c0 0A       		.byte	0xa
 1256 05c1 AE01     		.2byte	0x1ae
 1257 05c3 42040000 		.4byte	0x442
 1258 05c7 30       		.byte	0x30
 1259 05c8 07       		.uleb128 0x7
 1260 05c9 43435200 		.ascii	"CCR\000"
 1261 05cd 0A       		.byte	0xa
 1262 05ce AF01     		.2byte	0x1af
 1263 05d0 23060000 		.4byte	0x623
 1264 05d4 34       		.byte	0x34
 1265 05d5 08       		.uleb128 0x8
 1266 05d6 CC000000 		.4byte	.LASF88
 1267 05da 0A       		.byte	0xa
 1268 05db B001     		.2byte	0x1b0
 1269 05dd 42040000 		.4byte	0x442
 1270 05e1 44       		.byte	0x44
 1271 05e2 07       		.uleb128 0x7
 1272 05e3 44435200 		.ascii	"DCR\000"
 1273 05e7 0A       		.byte	0xa
 1274 05e8 B101     		.2byte	0x1b1
 1275 05ea 42040000 		.4byte	0x442
 1276 05ee 48       		.byte	0x48
 1277 05ef 08       		.uleb128 0x8
 1278 05f0 30050000 		.4byte	.LASF89
 1279 05f4 0A       		.byte	0xa
 1280 05f5 B201     		.2byte	0x1b2
 1281 05f7 42040000 		.4byte	0x442
 1282 05fb 4C       		.byte	0x4c
 1283 05fc 07       		.uleb128 0x7
 1284 05fd 4F5200   		.ascii	"OR\000"
 1285 0600 0A       		.byte	0xa
 1286 0601 B301     		.2byte	0x1b3
 1287 0603 42040000 		.4byte	0x442
 1288 0607 50       		.byte	0x50
 1289 0608 08       		.uleb128 0x8
 1290 0609 F5000000 		.4byte	.LASF90
 1291 060d 0A       		.byte	0xa
 1292 060e B401     		.2byte	0x1b4
 1293 0610 42040000 		.4byte	0x442
 1294 0614 54       		.byte	0x54
 1295 0615 08       		.uleb128 0x8
 1296 0616 81040000 		.4byte	.LASF91
 1297 061a 0A       		.byte	0xa
ARM GAS  /tmp/ccvXw1t5.s 			page 40


 1298 061b B501     		.2byte	0x1b5
 1299 061d 28060000 		.4byte	0x628
 1300 0621 58       		.byte	0x58
 1301 0622 00       		.byte	0
 1302 0623 0F       		.uleb128 0xf
 1303 0624 57040000 		.4byte	0x457
 1304 0628 0F       		.uleb128 0xf
 1305 0629 47040000 		.4byte	0x447
 1306 062d 14       		.uleb128 0x14
 1307 062e DC020000 		.4byte	.LASF92
 1308 0632 0A       		.byte	0xa
 1309 0633 B601     		.2byte	0x1b6
 1310 0635 17050000 		.4byte	0x517
 1311 0639 15       		.uleb128 0x15
 1312 063a 04       		.byte	0x4
 1313 063b 0B       		.byte	0xb
 1314 063c 38       		.byte	0x38
 1315 063d 4E060000 		.4byte	0x64e
 1316 0641 06       		.uleb128 0x6
 1317 0642 78050000 		.4byte	.LASF93
 1318 0646 0B       		.byte	0xb
 1319 0647 3C       		.byte	0x3c
 1320 0648 C3000000 		.4byte	0xc3
 1321 064c 00       		.byte	0
 1322 064d 00       		.byte	0
 1323 064e 04       		.uleb128 0x4
 1324 064f 88030000 		.4byte	.LASF94
 1325 0653 0B       		.byte	0xb
 1326 0654 3D       		.byte	0x3d
 1327 0655 39060000 		.4byte	0x639
 1328 0659 16       		.uleb128 0x16
 1329 065a 04       		.byte	0x4
 1330 065b 07       		.byte	0x7
 1331 065c FA       		.byte	0xfa
 1332 065d C2060000 		.4byte	0x6c2
 1333 0661 17       		.uleb128 0x17
 1334 0662 18000000 		.4byte	.LASF95
 1335 0666 07       		.byte	0x7
 1336 0667 0101     		.2byte	0x101
 1337 0669 FA000000 		.4byte	0xfa
 1338 066d 17       		.uleb128 0x17
 1339 066e 8D000000 		.4byte	.LASF96
 1340 0672 07       		.byte	0x7
 1341 0673 0801     		.2byte	0x108
 1342 0675 FA000000 		.4byte	0xfa
 1343 0679 17       		.uleb128 0x17
 1344 067a FF050000 		.4byte	.LASF97
 1345 067e 07       		.byte	0x7
 1346 067f 0F01     		.2byte	0x10f
 1347 0681 05030000 		.4byte	0x305
 1348 0685 17       		.uleb128 0x17
 1349 0686 12000000 		.4byte	.LASF98
 1350 068a 07       		.byte	0x7
 1351 068b 1601     		.2byte	0x116
 1352 068d C2060000 		.4byte	0x6c2
 1353 0691 17       		.uleb128 0x17
 1354 0692 A1000000 		.4byte	.LASF99
ARM GAS  /tmp/ccvXw1t5.s 			page 41


 1355 0696 07       		.byte	0x7
 1356 0697 1B01     		.2byte	0x11b
 1357 0699 FA000000 		.4byte	0xfa
 1358 069d 17       		.uleb128 0x17
 1359 069e A3020000 		.4byte	.LASF100
 1360 06a2 07       		.byte	0x7
 1361 06a3 2401     		.2byte	0x124
 1362 06a5 ED060000 		.4byte	0x6ed
 1363 06a9 17       		.uleb128 0x17
 1364 06aa 9A040000 		.4byte	.LASF101
 1365 06ae 07       		.byte	0x7
 1366 06af 2D01     		.2byte	0x12d
 1367 06b1 24070000 		.4byte	0x724
 1368 06b5 17       		.uleb128 0x17
 1369 06b6 3C040000 		.4byte	.LASF102
 1370 06ba 07       		.byte	0x7
 1371 06bb 3501     		.2byte	0x135
 1372 06bd 05010000 		.4byte	0x105
 1373 06c1 00       		.byte	0
 1374 06c2 09       		.uleb128 0x9
 1375 06c3 04       		.byte	0x4
 1376 06c4 1D020000 		.4byte	0x21d
 1377 06c8 05       		.uleb128 0x5
 1378 06c9 74040000 		.4byte	.LASF103
 1379 06cd 0C       		.byte	0xc
 1380 06ce 0C       		.byte	0xc
 1381 06cf 34       		.byte	0x34
 1382 06d0 ED060000 		.4byte	0x6ed
 1383 06d4 06       		.uleb128 0x6
 1384 06d5 55010000 		.4byte	.LASF104
 1385 06d9 0C       		.byte	0xc
 1386 06da 35       		.byte	0x35
 1387 06db 52020000 		.4byte	0x252
 1388 06df 00       		.byte	0
 1389 06e0 06       		.uleb128 0x6
 1390 06e1 B5020000 		.4byte	.LASF105
 1391 06e5 0C       		.byte	0xc
 1392 06e6 37       		.byte	0x37
 1393 06e7 10010000 		.4byte	0x110
 1394 06eb 08       		.byte	0x8
 1395 06ec 00       		.byte	0
 1396 06ed 09       		.uleb128 0x9
 1397 06ee 04       		.byte	0x4
 1398 06ef C8060000 		.4byte	0x6c8
 1399 06f3 05       		.uleb128 0x5
 1400 06f4 C5050000 		.4byte	.LASF106
 1401 06f8 10       		.byte	0x10
 1402 06f9 0D       		.byte	0xd
 1403 06fa 39       		.byte	0x39
 1404 06fb 24070000 		.4byte	0x724
 1405 06ff 06       		.uleb128 0x6
 1406 0700 07010000 		.4byte	.LASF107
 1407 0704 0D       		.byte	0xd
 1408 0705 3A       		.byte	0x3a
 1409 0706 52020000 		.4byte	0x252
 1410 070a 00       		.byte	0
 1411 070b 06       		.uleb128 0x6
ARM GAS  /tmp/ccvXw1t5.s 			page 42


 1412 070c 4B060000 		.4byte	.LASF108
 1413 0710 0D       		.byte	0xd
 1414 0711 3C       		.byte	0x3c
 1415 0712 28020000 		.4byte	0x228
 1416 0716 08       		.byte	0x8
 1417 0717 06       		.uleb128 0x6
 1418 0718 3E050000 		.4byte	.LASF109
 1419 071c 0D       		.byte	0xd
 1420 071d 3E       		.byte	0x3e
 1421 071e 68070000 		.4byte	0x768
 1422 0722 0C       		.byte	0xc
 1423 0723 00       		.byte	0
 1424 0724 09       		.uleb128 0x9
 1425 0725 04       		.byte	0x4
 1426 0726 F3060000 		.4byte	0x6f3
 1427 072a 09       		.uleb128 0x9
 1428 072b 04       		.byte	0x4
 1429 072c 30070000 		.4byte	0x730
 1430 0730 18       		.uleb128 0x18
 1431 0731 35070000 		.4byte	0x735
 1432 0735 03       		.uleb128 0x3
 1433 0736 01       		.byte	0x1
 1434 0737 08       		.byte	0x8
 1435 0738 2B050000 		.4byte	.LASF110
 1436 073c 09       		.uleb128 0x9
 1437 073d 04       		.byte	0x4
 1438 073e 72040000 		.4byte	0x472
 1439 0742 09       		.uleb128 0x9
 1440 0743 04       		.byte	0x4
 1441 0744 07030000 		.4byte	0x307
 1442 0748 0F       		.uleb128 0xf
 1443 0749 2A070000 		.4byte	0x72a
 1444 074d 10       		.uleb128 0x10
 1445 074e 72040000 		.4byte	0x472
 1446 0752 5D070000 		.4byte	0x75d
 1447 0756 11       		.uleb128 0x11
 1448 0757 3B040000 		.4byte	0x43b
 1449 075b 1A       		.byte	0x1a
 1450 075c 00       		.byte	0
 1451 075d 04       		.uleb128 0x4
 1452 075e 91010000 		.4byte	.LASF111
 1453 0762 0D       		.byte	0xd
 1454 0763 34       		.byte	0x34
 1455 0764 F3060000 		.4byte	0x6f3
 1456 0768 09       		.uleb128 0x9
 1457 0769 04       		.byte	0x4
 1458 076a 5D070000 		.4byte	0x75d
 1459 076e 03       		.uleb128 0x3
 1460 076f 01       		.byte	0x1
 1461 0770 02       		.byte	0x2
 1462 0771 FD030000 		.4byte	.LASF112
 1463 0775 19       		.uleb128 0x19
 1464 0776 0C030000 		.4byte	.LASF113
 1465 077a 01       		.byte	0x1
 1466 077b 99       		.byte	0x99
 1467 077c 00000000 		.4byte	.LFB137
 1468 0780 20000000 		.4byte	.LFE137-.LFB137
ARM GAS  /tmp/ccvXw1t5.s 			page 43


 1469 0784 01       		.uleb128 0x1
 1470 0785 9C       		.byte	0x9c
 1471 0786 99070000 		.4byte	0x799
 1472 078a 1A       		.uleb128 0x1a
 1473 078b A4030000 		.4byte	.LASF115
 1474 078f 01       		.byte	0x1
 1475 0790 99       		.byte	0x99
 1476 0791 1B010000 		.4byte	0x11b
 1477 0795 02       		.uleb128 0x2
 1478 0796 91       		.byte	0x91
 1479 0797 7C       		.sleb128 -4
 1480 0798 00       		.byte	0
 1481 0799 1B       		.uleb128 0x1b
 1482 079a 9C050000 		.4byte	.LASF128
 1483 079e 01       		.byte	0x1
 1484 079f A5       		.byte	0xa5
 1485 07a0 00000000 		.4byte	.LFB138
 1486 07a4 0A000000 		.4byte	.LFE138-.LFB138
 1487 07a8 01       		.uleb128 0x1
 1488 07a9 9C       		.byte	0x9c
 1489 07aa 19       		.uleb128 0x19
 1490 07ab 3A060000 		.4byte	.LASF114
 1491 07af 01       		.byte	0x1
 1492 07b0 B1       		.byte	0xb1
 1493 07b1 00000000 		.4byte	.LFB139
 1494 07b5 10000000 		.4byte	.LFE139-.LFB139
 1495 07b9 01       		.uleb128 0x1
 1496 07ba 9C       		.byte	0x9c
 1497 07bb CE070000 		.4byte	0x7ce
 1498 07bf 1A       		.uleb128 0x1a
 1499 07c0 A4030000 		.4byte	.LASF115
 1500 07c4 01       		.byte	0x1
 1501 07c5 B1       		.byte	0xb1
 1502 07c6 1B010000 		.4byte	0x11b
 1503 07ca 02       		.uleb128 0x2
 1504 07cb 91       		.byte	0x91
 1505 07cc 7C       		.sleb128 -4
 1506 07cd 00       		.byte	0
 1507 07ce 1C       		.uleb128 0x1c
 1508 07cf 63040000 		.4byte	.LASF129
 1509 07d3 01       		.byte	0x1
 1510 07d4 BD       		.byte	0xbd
 1511 07d5 1B010000 		.4byte	0x11b
 1512 07d9 00000000 		.4byte	.LFB140
 1513 07dd 0A000000 		.4byte	.LFE140-.LFB140
 1514 07e1 01       		.uleb128 0x1
 1515 07e2 9C       		.byte	0x9c
 1516 07e3 1D       		.uleb128 0x1d
 1517 07e4 7B030000 		.4byte	.LASF117
 1518 07e8 02       		.byte	0x2
 1519 07e9 3C       		.byte	0x3c
 1520 07ea 00000000 		.4byte	.LFB272
 1521 07ee 08000000 		.4byte	.LFE272-.LFB272
 1522 07f2 01       		.uleb128 0x1
 1523 07f3 9C       		.byte	0x9c
 1524 07f4 1E       		.uleb128 0x1e
 1525 07f5 7F050000 		.4byte	.LASF119
ARM GAS  /tmp/ccvXw1t5.s 			page 44


 1526 07f9 02       		.byte	0x2
 1527 07fa 4D       		.byte	0x4d
 1528 07fb 00000000 		.4byte	.LFB273
 1529 07ff 12000000 		.4byte	.LFE273-.LFB273
 1530 0803 01       		.uleb128 0x1
 1531 0804 9C       		.byte	0x9c
 1532 0805 21080000 		.4byte	0x821
 1533 0809 1A       		.uleb128 0x1a
 1534 080a 2A060000 		.4byte	.LASF116
 1535 080e 02       		.byte	0x2
 1536 080f 4D       		.byte	0x4d
 1537 0810 1B010000 		.4byte	0x11b
 1538 0814 02       		.uleb128 0x2
 1539 0815 91       		.byte	0x91
 1540 0816 74       		.sleb128 -12
 1541 0817 1F       		.uleb128 0x1f
 1542 0818 E6050000 		.4byte	.LASF121
 1543 081c 31080000 		.4byte	0x831
 1544 0820 00       		.byte	0
 1545 0821 10       		.uleb128 0x10
 1546 0822 35070000 		.4byte	0x735
 1547 0826 31080000 		.4byte	0x831
 1548 082a 11       		.uleb128 0x11
 1549 082b 3B040000 		.4byte	0x43b
 1550 082f 0C       		.byte	0xc
 1551 0830 00       		.byte	0
 1552 0831 18       		.uleb128 0x18
 1553 0832 21080000 		.4byte	0x821
 1554 0836 1D       		.uleb128 0x1d
 1555 0837 1F050000 		.4byte	.LASF118
 1556 083b 02       		.byte	0x2
 1557 083c 5B       		.byte	0x5b
 1558 083d 00000000 		.4byte	.LFB274
 1559 0841 08000000 		.4byte	.LFE274-.LFB274
 1560 0845 01       		.uleb128 0x1
 1561 0846 9C       		.byte	0x9c
 1562 0847 1E       		.uleb128 0x1e
 1563 0848 DB050000 		.4byte	.LASF120
 1564 084c 02       		.byte	0x2
 1565 084d 69       		.byte	0x69
 1566 084e 00000000 		.4byte	.LFB275
 1567 0852 12000000 		.4byte	.LFE275-.LFB275
 1568 0856 01       		.uleb128 0x1
 1569 0857 9C       		.byte	0x9c
 1570 0858 74080000 		.4byte	0x874
 1571 085c 1A       		.uleb128 0x1a
 1572 085d 2A060000 		.4byte	.LASF116
 1573 0861 02       		.byte	0x2
 1574 0862 69       		.byte	0x69
 1575 0863 1B010000 		.4byte	0x11b
 1576 0867 02       		.uleb128 0x2
 1577 0868 91       		.byte	0x91
 1578 0869 74       		.sleb128 -12
 1579 086a 1F       		.uleb128 0x1f
 1580 086b 0D060000 		.4byte	.LASF122
 1581 086f 84080000 		.4byte	0x884
 1582 0873 00       		.byte	0
ARM GAS  /tmp/ccvXw1t5.s 			page 45


 1583 0874 10       		.uleb128 0x10
 1584 0875 35070000 		.4byte	0x735
 1585 0879 84080000 		.4byte	0x884
 1586 087d 11       		.uleb128 0x11
 1587 087e 3B040000 		.4byte	0x43b
 1588 0882 0A       		.byte	0xa
 1589 0883 00       		.byte	0
 1590 0884 18       		.uleb128 0x18
 1591 0885 74080000 		.4byte	0x874
 1592 0889 20       		.uleb128 0x20
 1593 088a F4050000 		.4byte	.LASF130
 1594 088e 02       		.byte	0x2
 1595 088f 79       		.byte	0x79
 1596 0890 1B010000 		.4byte	0x11b
 1597 0894 00000000 		.4byte	.LFB276
 1598 0898 0C000000 		.4byte	.LFE276-.LFB276
 1599 089c 01       		.uleb128 0x1
 1600 089d 9C       		.byte	0x9c
 1601 089e AC080000 		.4byte	0x8ac
 1602 08a2 1F       		.uleb128 0x1f
 1603 08a3 32000000 		.4byte	.LASF123
 1604 08a7 AC080000 		.4byte	0x8ac
 1605 08ab 00       		.byte	0
 1606 08ac 18       		.uleb128 0x18
 1607 08ad 74080000 		.4byte	0x874
 1608 08b1 21       		.uleb128 0x21
 1609 08b2 BF000000 		.4byte	.LASF124
 1610 08b6 0E       		.byte	0xe
 1611 08b7 FA06     		.2byte	0x6fa
 1612 08b9 BD080000 		.4byte	0x8bd
 1613 08bd 0F       		.uleb128 0xf
 1614 08be A2000000 		.4byte	0xa2
 1615 08c2 22       		.uleb128 0x22
 1616 08c3 636800   		.ascii	"ch\000"
 1617 08c6 07       		.byte	0x7
 1618 08c7 0B02     		.2byte	0x20b
 1619 08c9 D4030000 		.4byte	0x3d4
 1620 08cd 00       		.byte	0
 1621              		.section	.debug_abbrev,"",%progbits
 1622              	.Ldebug_abbrev0:
 1623 0000 01       		.uleb128 0x1
 1624 0001 11       		.uleb128 0x11
 1625 0002 01       		.byte	0x1
 1626 0003 25       		.uleb128 0x25
 1627 0004 0E       		.uleb128 0xe
 1628 0005 13       		.uleb128 0x13
 1629 0006 0B       		.uleb128 0xb
 1630 0007 03       		.uleb128 0x3
 1631 0008 0E       		.uleb128 0xe
 1632 0009 1B       		.uleb128 0x1b
 1633 000a 0E       		.uleb128 0xe
 1634 000b 55       		.uleb128 0x55
 1635 000c 17       		.uleb128 0x17
 1636 000d 11       		.uleb128 0x11
 1637 000e 01       		.uleb128 0x1
 1638 000f 10       		.uleb128 0x10
 1639 0010 17       		.uleb128 0x17
ARM GAS  /tmp/ccvXw1t5.s 			page 46


 1640 0011 00       		.byte	0
 1641 0012 00       		.byte	0
 1642 0013 02       		.uleb128 0x2
 1643 0014 24       		.uleb128 0x24
 1644 0015 00       		.byte	0
 1645 0016 0B       		.uleb128 0xb
 1646 0017 0B       		.uleb128 0xb
 1647 0018 3E       		.uleb128 0x3e
 1648 0019 0B       		.uleb128 0xb
 1649 001a 03       		.uleb128 0x3
 1650 001b 08       		.uleb128 0x8
 1651 001c 00       		.byte	0
 1652 001d 00       		.byte	0
 1653 001e 03       		.uleb128 0x3
 1654 001f 24       		.uleb128 0x24
 1655 0020 00       		.byte	0
 1656 0021 0B       		.uleb128 0xb
 1657 0022 0B       		.uleb128 0xb
 1658 0023 3E       		.uleb128 0x3e
 1659 0024 0B       		.uleb128 0xb
 1660 0025 03       		.uleb128 0x3
 1661 0026 0E       		.uleb128 0xe
 1662 0027 00       		.byte	0
 1663 0028 00       		.byte	0
 1664 0029 04       		.uleb128 0x4
 1665 002a 16       		.uleb128 0x16
 1666 002b 00       		.byte	0
 1667 002c 03       		.uleb128 0x3
 1668 002d 0E       		.uleb128 0xe
 1669 002e 3A       		.uleb128 0x3a
 1670 002f 0B       		.uleb128 0xb
 1671 0030 3B       		.uleb128 0x3b
 1672 0031 0B       		.uleb128 0xb
 1673 0032 49       		.uleb128 0x49
 1674 0033 13       		.uleb128 0x13
 1675 0034 00       		.byte	0
 1676 0035 00       		.byte	0
 1677 0036 05       		.uleb128 0x5
 1678 0037 13       		.uleb128 0x13
 1679 0038 01       		.byte	0x1
 1680 0039 03       		.uleb128 0x3
 1681 003a 0E       		.uleb128 0xe
 1682 003b 0B       		.uleb128 0xb
 1683 003c 0B       		.uleb128 0xb
 1684 003d 3A       		.uleb128 0x3a
 1685 003e 0B       		.uleb128 0xb
 1686 003f 3B       		.uleb128 0x3b
 1687 0040 0B       		.uleb128 0xb
 1688 0041 01       		.uleb128 0x1
 1689 0042 13       		.uleb128 0x13
 1690 0043 00       		.byte	0
 1691 0044 00       		.byte	0
 1692 0045 06       		.uleb128 0x6
 1693 0046 0D       		.uleb128 0xd
 1694 0047 00       		.byte	0
 1695 0048 03       		.uleb128 0x3
 1696 0049 0E       		.uleb128 0xe
ARM GAS  /tmp/ccvXw1t5.s 			page 47


 1697 004a 3A       		.uleb128 0x3a
 1698 004b 0B       		.uleb128 0xb
 1699 004c 3B       		.uleb128 0x3b
 1700 004d 0B       		.uleb128 0xb
 1701 004e 49       		.uleb128 0x49
 1702 004f 13       		.uleb128 0x13
 1703 0050 38       		.uleb128 0x38
 1704 0051 0B       		.uleb128 0xb
 1705 0052 00       		.byte	0
 1706 0053 00       		.byte	0
 1707 0054 07       		.uleb128 0x7
 1708 0055 0D       		.uleb128 0xd
 1709 0056 00       		.byte	0
 1710 0057 03       		.uleb128 0x3
 1711 0058 08       		.uleb128 0x8
 1712 0059 3A       		.uleb128 0x3a
 1713 005a 0B       		.uleb128 0xb
 1714 005b 3B       		.uleb128 0x3b
 1715 005c 05       		.uleb128 0x5
 1716 005d 49       		.uleb128 0x49
 1717 005e 13       		.uleb128 0x13
 1718 005f 38       		.uleb128 0x38
 1719 0060 0B       		.uleb128 0xb
 1720 0061 00       		.byte	0
 1721 0062 00       		.byte	0
 1722 0063 08       		.uleb128 0x8
 1723 0064 0D       		.uleb128 0xd
 1724 0065 00       		.byte	0
 1725 0066 03       		.uleb128 0x3
 1726 0067 0E       		.uleb128 0xe
 1727 0068 3A       		.uleb128 0x3a
 1728 0069 0B       		.uleb128 0xb
 1729 006a 3B       		.uleb128 0x3b
 1730 006b 05       		.uleb128 0x5
 1731 006c 49       		.uleb128 0x49
 1732 006d 13       		.uleb128 0x13
 1733 006e 38       		.uleb128 0x38
 1734 006f 0B       		.uleb128 0xb
 1735 0070 00       		.byte	0
 1736 0071 00       		.byte	0
 1737 0072 09       		.uleb128 0x9
 1738 0073 0F       		.uleb128 0xf
 1739 0074 00       		.byte	0
 1740 0075 0B       		.uleb128 0xb
 1741 0076 0B       		.uleb128 0xb
 1742 0077 49       		.uleb128 0x49
 1743 0078 13       		.uleb128 0x13
 1744 0079 00       		.byte	0
 1745 007a 00       		.byte	0
 1746 007b 0A       		.uleb128 0xa
 1747 007c 13       		.uleb128 0x13
 1748 007d 01       		.byte	0x1
 1749 007e 03       		.uleb128 0x3
 1750 007f 0E       		.uleb128 0xe
 1751 0080 0B       		.uleb128 0xb
 1752 0081 0B       		.uleb128 0xb
 1753 0082 3A       		.uleb128 0x3a
ARM GAS  /tmp/ccvXw1t5.s 			page 48


 1754 0083 0B       		.uleb128 0xb
 1755 0084 3B       		.uleb128 0x3b
 1756 0085 05       		.uleb128 0x5
 1757 0086 01       		.uleb128 0x1
 1758 0087 13       		.uleb128 0x13
 1759 0088 00       		.byte	0
 1760 0089 00       		.byte	0
 1761 008a 0B       		.uleb128 0xb
 1762 008b 15       		.uleb128 0x15
 1763 008c 01       		.byte	0x1
 1764 008d 27       		.uleb128 0x27
 1765 008e 19       		.uleb128 0x19
 1766 008f 01       		.uleb128 0x1
 1767 0090 13       		.uleb128 0x13
 1768 0091 00       		.byte	0
 1769 0092 00       		.byte	0
 1770 0093 0C       		.uleb128 0xc
 1771 0094 05       		.uleb128 0x5
 1772 0095 00       		.byte	0
 1773 0096 49       		.uleb128 0x49
 1774 0097 13       		.uleb128 0x13
 1775 0098 00       		.byte	0
 1776 0099 00       		.byte	0
 1777 009a 0D       		.uleb128 0xd
 1778 009b 0F       		.uleb128 0xf
 1779 009c 00       		.byte	0
 1780 009d 0B       		.uleb128 0xb
 1781 009e 0B       		.uleb128 0xb
 1782 009f 00       		.byte	0
 1783 00a0 00       		.byte	0
 1784 00a1 0E       		.uleb128 0xe
 1785 00a2 13       		.uleb128 0x13
 1786 00a3 01       		.byte	0x1
 1787 00a4 03       		.uleb128 0x3
 1788 00a5 0E       		.uleb128 0xe
 1789 00a6 0B       		.uleb128 0xb
 1790 00a7 05       		.uleb128 0x5
 1791 00a8 3A       		.uleb128 0x3a
 1792 00a9 0B       		.uleb128 0xb
 1793 00aa 3B       		.uleb128 0x3b
 1794 00ab 05       		.uleb128 0x5
 1795 00ac 01       		.uleb128 0x1
 1796 00ad 13       		.uleb128 0x13
 1797 00ae 00       		.byte	0
 1798 00af 00       		.byte	0
 1799 00b0 0F       		.uleb128 0xf
 1800 00b1 35       		.uleb128 0x35
 1801 00b2 00       		.byte	0
 1802 00b3 49       		.uleb128 0x49
 1803 00b4 13       		.uleb128 0x13
 1804 00b5 00       		.byte	0
 1805 00b6 00       		.byte	0
 1806 00b7 10       		.uleb128 0x10
 1807 00b8 01       		.uleb128 0x1
 1808 00b9 01       		.byte	0x1
 1809 00ba 49       		.uleb128 0x49
 1810 00bb 13       		.uleb128 0x13
ARM GAS  /tmp/ccvXw1t5.s 			page 49


 1811 00bc 01       		.uleb128 0x1
 1812 00bd 13       		.uleb128 0x13
 1813 00be 00       		.byte	0
 1814 00bf 00       		.byte	0
 1815 00c0 11       		.uleb128 0x11
 1816 00c1 21       		.uleb128 0x21
 1817 00c2 00       		.byte	0
 1818 00c3 49       		.uleb128 0x49
 1819 00c4 13       		.uleb128 0x13
 1820 00c5 2F       		.uleb128 0x2f
 1821 00c6 0B       		.uleb128 0xb
 1822 00c7 00       		.byte	0
 1823 00c8 00       		.byte	0
 1824 00c9 12       		.uleb128 0x12
 1825 00ca 0D       		.uleb128 0xd
 1826 00cb 00       		.byte	0
 1827 00cc 03       		.uleb128 0x3
 1828 00cd 08       		.uleb128 0x8
 1829 00ce 3A       		.uleb128 0x3a
 1830 00cf 0B       		.uleb128 0xb
 1831 00d0 3B       		.uleb128 0x3b
 1832 00d1 0B       		.uleb128 0xb
 1833 00d2 49       		.uleb128 0x49
 1834 00d3 13       		.uleb128 0x13
 1835 00d4 38       		.uleb128 0x38
 1836 00d5 0B       		.uleb128 0xb
 1837 00d6 00       		.byte	0
 1838 00d7 00       		.byte	0
 1839 00d8 13       		.uleb128 0x13
 1840 00d9 13       		.uleb128 0x13
 1841 00da 01       		.byte	0x1
 1842 00db 0B       		.uleb128 0xb
 1843 00dc 0B       		.uleb128 0xb
 1844 00dd 3A       		.uleb128 0x3a
 1845 00de 0B       		.uleb128 0xb
 1846 00df 3B       		.uleb128 0x3b
 1847 00e0 05       		.uleb128 0x5
 1848 00e1 01       		.uleb128 0x1
 1849 00e2 13       		.uleb128 0x13
 1850 00e3 00       		.byte	0
 1851 00e4 00       		.byte	0
 1852 00e5 14       		.uleb128 0x14
 1853 00e6 16       		.uleb128 0x16
 1854 00e7 00       		.byte	0
 1855 00e8 03       		.uleb128 0x3
 1856 00e9 0E       		.uleb128 0xe
 1857 00ea 3A       		.uleb128 0x3a
 1858 00eb 0B       		.uleb128 0xb
 1859 00ec 3B       		.uleb128 0x3b
 1860 00ed 05       		.uleb128 0x5
 1861 00ee 49       		.uleb128 0x49
 1862 00ef 13       		.uleb128 0x13
 1863 00f0 00       		.byte	0
 1864 00f1 00       		.byte	0
 1865 00f2 15       		.uleb128 0x15
 1866 00f3 13       		.uleb128 0x13
 1867 00f4 01       		.byte	0x1
ARM GAS  /tmp/ccvXw1t5.s 			page 50


 1868 00f5 0B       		.uleb128 0xb
 1869 00f6 0B       		.uleb128 0xb
 1870 00f7 3A       		.uleb128 0x3a
 1871 00f8 0B       		.uleb128 0xb
 1872 00f9 3B       		.uleb128 0x3b
 1873 00fa 0B       		.uleb128 0xb
 1874 00fb 01       		.uleb128 0x1
 1875 00fc 13       		.uleb128 0x13
 1876 00fd 00       		.byte	0
 1877 00fe 00       		.byte	0
 1878 00ff 16       		.uleb128 0x16
 1879 0100 17       		.uleb128 0x17
 1880 0101 01       		.byte	0x1
 1881 0102 0B       		.uleb128 0xb
 1882 0103 0B       		.uleb128 0xb
 1883 0104 3A       		.uleb128 0x3a
 1884 0105 0B       		.uleb128 0xb
 1885 0106 3B       		.uleb128 0x3b
 1886 0107 0B       		.uleb128 0xb
 1887 0108 01       		.uleb128 0x1
 1888 0109 13       		.uleb128 0x13
 1889 010a 00       		.byte	0
 1890 010b 00       		.byte	0
 1891 010c 17       		.uleb128 0x17
 1892 010d 0D       		.uleb128 0xd
 1893 010e 00       		.byte	0
 1894 010f 03       		.uleb128 0x3
 1895 0110 0E       		.uleb128 0xe
 1896 0111 3A       		.uleb128 0x3a
 1897 0112 0B       		.uleb128 0xb
 1898 0113 3B       		.uleb128 0x3b
 1899 0114 05       		.uleb128 0x5
 1900 0115 49       		.uleb128 0x49
 1901 0116 13       		.uleb128 0x13
 1902 0117 00       		.byte	0
 1903 0118 00       		.byte	0
 1904 0119 18       		.uleb128 0x18
 1905 011a 26       		.uleb128 0x26
 1906 011b 00       		.byte	0
 1907 011c 49       		.uleb128 0x49
 1908 011d 13       		.uleb128 0x13
 1909 011e 00       		.byte	0
 1910 011f 00       		.byte	0
 1911 0120 19       		.uleb128 0x19
 1912 0121 2E       		.uleb128 0x2e
 1913 0122 01       		.byte	0x1
 1914 0123 03       		.uleb128 0x3
 1915 0124 0E       		.uleb128 0xe
 1916 0125 3A       		.uleb128 0x3a
 1917 0126 0B       		.uleb128 0xb
 1918 0127 3B       		.uleb128 0x3b
 1919 0128 0B       		.uleb128 0xb
 1920 0129 27       		.uleb128 0x27
 1921 012a 19       		.uleb128 0x19
 1922 012b 11       		.uleb128 0x11
 1923 012c 01       		.uleb128 0x1
 1924 012d 12       		.uleb128 0x12
ARM GAS  /tmp/ccvXw1t5.s 			page 51


 1925 012e 06       		.uleb128 0x6
 1926 012f 40       		.uleb128 0x40
 1927 0130 18       		.uleb128 0x18
 1928 0131 9742     		.uleb128 0x2117
 1929 0133 19       		.uleb128 0x19
 1930 0134 01       		.uleb128 0x1
 1931 0135 13       		.uleb128 0x13
 1932 0136 00       		.byte	0
 1933 0137 00       		.byte	0
 1934 0138 1A       		.uleb128 0x1a
 1935 0139 05       		.uleb128 0x5
 1936 013a 00       		.byte	0
 1937 013b 03       		.uleb128 0x3
 1938 013c 0E       		.uleb128 0xe
 1939 013d 3A       		.uleb128 0x3a
 1940 013e 0B       		.uleb128 0xb
 1941 013f 3B       		.uleb128 0x3b
 1942 0140 0B       		.uleb128 0xb
 1943 0141 49       		.uleb128 0x49
 1944 0142 13       		.uleb128 0x13
 1945 0143 02       		.uleb128 0x2
 1946 0144 18       		.uleb128 0x18
 1947 0145 00       		.byte	0
 1948 0146 00       		.byte	0
 1949 0147 1B       		.uleb128 0x1b
 1950 0148 2E       		.uleb128 0x2e
 1951 0149 00       		.byte	0
 1952 014a 03       		.uleb128 0x3
 1953 014b 0E       		.uleb128 0xe
 1954 014c 3A       		.uleb128 0x3a
 1955 014d 0B       		.uleb128 0xb
 1956 014e 3B       		.uleb128 0x3b
 1957 014f 0B       		.uleb128 0xb
 1958 0150 27       		.uleb128 0x27
 1959 0151 19       		.uleb128 0x19
 1960 0152 11       		.uleb128 0x11
 1961 0153 01       		.uleb128 0x1
 1962 0154 12       		.uleb128 0x12
 1963 0155 06       		.uleb128 0x6
 1964 0156 40       		.uleb128 0x40
 1965 0157 18       		.uleb128 0x18
 1966 0158 9742     		.uleb128 0x2117
 1967 015a 19       		.uleb128 0x19
 1968 015b 00       		.byte	0
 1969 015c 00       		.byte	0
 1970 015d 1C       		.uleb128 0x1c
 1971 015e 2E       		.uleb128 0x2e
 1972 015f 00       		.byte	0
 1973 0160 03       		.uleb128 0x3
 1974 0161 0E       		.uleb128 0xe
 1975 0162 3A       		.uleb128 0x3a
 1976 0163 0B       		.uleb128 0xb
 1977 0164 3B       		.uleb128 0x3b
 1978 0165 0B       		.uleb128 0xb
 1979 0166 27       		.uleb128 0x27
 1980 0167 19       		.uleb128 0x19
 1981 0168 49       		.uleb128 0x49
ARM GAS  /tmp/ccvXw1t5.s 			page 52


 1982 0169 13       		.uleb128 0x13
 1983 016a 11       		.uleb128 0x11
 1984 016b 01       		.uleb128 0x1
 1985 016c 12       		.uleb128 0x12
 1986 016d 06       		.uleb128 0x6
 1987 016e 40       		.uleb128 0x40
 1988 016f 18       		.uleb128 0x18
 1989 0170 9742     		.uleb128 0x2117
 1990 0172 19       		.uleb128 0x19
 1991 0173 00       		.byte	0
 1992 0174 00       		.byte	0
 1993 0175 1D       		.uleb128 0x1d
 1994 0176 2E       		.uleb128 0x2e
 1995 0177 00       		.byte	0
 1996 0178 3F       		.uleb128 0x3f
 1997 0179 19       		.uleb128 0x19
 1998 017a 03       		.uleb128 0x3
 1999 017b 0E       		.uleb128 0xe
 2000 017c 3A       		.uleb128 0x3a
 2001 017d 0B       		.uleb128 0xb
 2002 017e 3B       		.uleb128 0x3b
 2003 017f 0B       		.uleb128 0xb
 2004 0180 27       		.uleb128 0x27
 2005 0181 19       		.uleb128 0x19
 2006 0182 11       		.uleb128 0x11
 2007 0183 01       		.uleb128 0x1
 2008 0184 12       		.uleb128 0x12
 2009 0185 06       		.uleb128 0x6
 2010 0186 40       		.uleb128 0x40
 2011 0187 18       		.uleb128 0x18
 2012 0188 9642     		.uleb128 0x2116
 2013 018a 19       		.uleb128 0x19
 2014 018b 00       		.byte	0
 2015 018c 00       		.byte	0
 2016 018d 1E       		.uleb128 0x1e
 2017 018e 2E       		.uleb128 0x2e
 2018 018f 01       		.byte	0x1
 2019 0190 3F       		.uleb128 0x3f
 2020 0191 19       		.uleb128 0x19
 2021 0192 03       		.uleb128 0x3
 2022 0193 0E       		.uleb128 0xe
 2023 0194 3A       		.uleb128 0x3a
 2024 0195 0B       		.uleb128 0xb
 2025 0196 3B       		.uleb128 0x3b
 2026 0197 0B       		.uleb128 0xb
 2027 0198 27       		.uleb128 0x27
 2028 0199 19       		.uleb128 0x19
 2029 019a 11       		.uleb128 0x11
 2030 019b 01       		.uleb128 0x1
 2031 019c 12       		.uleb128 0x12
 2032 019d 06       		.uleb128 0x6
 2033 019e 40       		.uleb128 0x40
 2034 019f 18       		.uleb128 0x18
 2035 01a0 9642     		.uleb128 0x2116
 2036 01a2 19       		.uleb128 0x19
 2037 01a3 01       		.uleb128 0x1
 2038 01a4 13       		.uleb128 0x13
ARM GAS  /tmp/ccvXw1t5.s 			page 53


 2039 01a5 00       		.byte	0
 2040 01a6 00       		.byte	0
 2041 01a7 1F       		.uleb128 0x1f
 2042 01a8 34       		.uleb128 0x34
 2043 01a9 00       		.byte	0
 2044 01aa 03       		.uleb128 0x3
 2045 01ab 0E       		.uleb128 0xe
 2046 01ac 49       		.uleb128 0x49
 2047 01ad 13       		.uleb128 0x13
 2048 01ae 34       		.uleb128 0x34
 2049 01af 19       		.uleb128 0x19
 2050 01b0 00       		.byte	0
 2051 01b1 00       		.byte	0
 2052 01b2 20       		.uleb128 0x20
 2053 01b3 2E       		.uleb128 0x2e
 2054 01b4 01       		.byte	0x1
 2055 01b5 3F       		.uleb128 0x3f
 2056 01b6 19       		.uleb128 0x19
 2057 01b7 03       		.uleb128 0x3
 2058 01b8 0E       		.uleb128 0xe
 2059 01b9 3A       		.uleb128 0x3a
 2060 01ba 0B       		.uleb128 0xb
 2061 01bb 3B       		.uleb128 0x3b
 2062 01bc 0B       		.uleb128 0xb
 2063 01bd 27       		.uleb128 0x27
 2064 01be 19       		.uleb128 0x19
 2065 01bf 49       		.uleb128 0x49
 2066 01c0 13       		.uleb128 0x13
 2067 01c1 11       		.uleb128 0x11
 2068 01c2 01       		.uleb128 0x1
 2069 01c3 12       		.uleb128 0x12
 2070 01c4 06       		.uleb128 0x6
 2071 01c5 40       		.uleb128 0x40
 2072 01c6 18       		.uleb128 0x18
 2073 01c7 9642     		.uleb128 0x2116
 2074 01c9 19       		.uleb128 0x19
 2075 01ca 01       		.uleb128 0x1
 2076 01cb 13       		.uleb128 0x13
 2077 01cc 00       		.byte	0
 2078 01cd 00       		.byte	0
 2079 01ce 21       		.uleb128 0x21
 2080 01cf 34       		.uleb128 0x34
 2081 01d0 00       		.byte	0
 2082 01d1 03       		.uleb128 0x3
 2083 01d2 0E       		.uleb128 0xe
 2084 01d3 3A       		.uleb128 0x3a
 2085 01d4 0B       		.uleb128 0xb
 2086 01d5 3B       		.uleb128 0x3b
 2087 01d6 05       		.uleb128 0x5
 2088 01d7 49       		.uleb128 0x49
 2089 01d8 13       		.uleb128 0x13
 2090 01d9 3F       		.uleb128 0x3f
 2091 01da 19       		.uleb128 0x19
 2092 01db 3C       		.uleb128 0x3c
 2093 01dc 19       		.uleb128 0x19
 2094 01dd 00       		.byte	0
 2095 01de 00       		.byte	0
ARM GAS  /tmp/ccvXw1t5.s 			page 54


 2096 01df 22       		.uleb128 0x22
 2097 01e0 34       		.uleb128 0x34
 2098 01e1 00       		.byte	0
 2099 01e2 03       		.uleb128 0x3
 2100 01e3 08       		.uleb128 0x8
 2101 01e4 3A       		.uleb128 0x3a
 2102 01e5 0B       		.uleb128 0xb
 2103 01e6 3B       		.uleb128 0x3b
 2104 01e7 05       		.uleb128 0x5
 2105 01e8 49       		.uleb128 0x49
 2106 01e9 13       		.uleb128 0x13
 2107 01ea 3F       		.uleb128 0x3f
 2108 01eb 19       		.uleb128 0x19
 2109 01ec 3C       		.uleb128 0x3c
 2110 01ed 19       		.uleb128 0x19
 2111 01ee 00       		.byte	0
 2112 01ef 00       		.byte	0
 2113 01f0 00       		.byte	0
 2114              		.section	.debug_aranges,"",%progbits
 2115 0000 5C000000 		.4byte	0x5c
 2116 0004 0200     		.2byte	0x2
 2117 0006 00000000 		.4byte	.Ldebug_info0
 2118 000a 04       		.byte	0x4
 2119 000b 00       		.byte	0
 2120 000c 0000     		.2byte	0
 2121 000e 0000     		.2byte	0
 2122 0010 00000000 		.4byte	.LFB137
 2123 0014 20000000 		.4byte	.LFE137-.LFB137
 2124 0018 00000000 		.4byte	.LFB138
 2125 001c 0A000000 		.4byte	.LFE138-.LFB138
 2126 0020 00000000 		.4byte	.LFB139
 2127 0024 10000000 		.4byte	.LFE139-.LFB139
 2128 0028 00000000 		.4byte	.LFB140
 2129 002c 0A000000 		.4byte	.LFE140-.LFB140
 2130 0030 00000000 		.4byte	.LFB272
 2131 0034 08000000 		.4byte	.LFE272-.LFB272
 2132 0038 00000000 		.4byte	.LFB273
 2133 003c 12000000 		.4byte	.LFE273-.LFB273
 2134 0040 00000000 		.4byte	.LFB274
 2135 0044 08000000 		.4byte	.LFE274-.LFB274
 2136 0048 00000000 		.4byte	.LFB275
 2137 004c 12000000 		.4byte	.LFE275-.LFB275
 2138 0050 00000000 		.4byte	.LFB276
 2139 0054 0C000000 		.4byte	.LFE276-.LFB276
 2140 0058 00000000 		.4byte	0
 2141 005c 00000000 		.4byte	0
 2142              		.section	.debug_ranges,"",%progbits
 2143              	.Ldebug_ranges0:
 2144 0000 00000000 		.4byte	.LFB137
 2145 0004 20000000 		.4byte	.LFE137
 2146 0008 00000000 		.4byte	.LFB138
 2147 000c 0A000000 		.4byte	.LFE138
 2148 0010 00000000 		.4byte	.LFB139
 2149 0014 10000000 		.4byte	.LFE139
 2150 0018 00000000 		.4byte	.LFB140
 2151 001c 0A000000 		.4byte	.LFE140
 2152 0020 00000000 		.4byte	.LFB272
ARM GAS  /tmp/ccvXw1t5.s 			page 55


 2153 0024 08000000 		.4byte	.LFE272
 2154 0028 00000000 		.4byte	.LFB273
 2155 002c 12000000 		.4byte	.LFE273
 2156 0030 00000000 		.4byte	.LFB274
 2157 0034 08000000 		.4byte	.LFE274
 2158 0038 00000000 		.4byte	.LFB275
 2159 003c 12000000 		.4byte	.LFE275
 2160 0040 00000000 		.4byte	.LFB276
 2161 0044 0C000000 		.4byte	.LFE276
 2162 0048 00000000 		.4byte	0
 2163 004c 00000000 		.4byte	0
 2164              		.section	.debug_line,"",%progbits
 2165              	.Ldebug_line0:
 2166 0000 19030000 		.section	.debug_str,"MS",%progbits,1
 2166      02006602 
 2166      00000201 
 2166      FB0E0D00 
 2166      01010101 
 2167              	.LASF50:
 2168 0000 72656164 		.ascii	"ready_list_t\000"
 2168      795F6C69 
 2168      73745F74 
 2168      00
 2169              	.LASF84:
 2170 000d 44494552 		.ascii	"DIER\000"
 2170      00
 2171              	.LASF98:
 2172 0012 77747472 		.ascii	"wttrp\000"
 2172      7000
 2173              	.LASF95:
 2174 0018 7264796D 		.ascii	"rdymsg\000"
 2174      736700
 2175              	.LASF16:
 2176 001f 75696E74 		.ascii	"uint64_t\000"
 2176      36345F74 
 2176      00
 2177              	.LASF5:
 2178 0028 5F5F7569 		.ascii	"__uint8_t\000"
 2178      6E74385F 
 2178      7400
 2179              	.LASF123:
 2180 0032 5F5F6675 		.ascii	"__func__.7091\000"
 2180      6E635F5F 
 2180      2E373039 
 2180      3100
 2181              	.LASF82:
 2182 0040 706F7274 		.ascii	"port_intctx\000"
 2182      5F696E74 
 2182      63747800 
 2183              	.LASF69:
 2184 004c 73797374 		.ascii	"system_debug_t\000"
 2184      656D5F64 
 2184      65627567 
 2184      5F7400
 2185              	.LASF126:
 2186 005b 2E2E2F43 		.ascii	"../ChibiOS/os/hal/src/st.c\000"
 2186      68696269 
ARM GAS  /tmp/ccvXw1t5.s 			page 56


 2186      4F532F6F 
 2186      732F6861 
 2186      6C2F7372 
 2187              	.LASF12:
 2188 0076 6C6F6E67 		.ascii	"long long unsigned int\000"
 2188      206C6F6E 
 2188      6720756E 
 2188      7369676E 
 2188      65642069 
 2189              	.LASF96:
 2190 008d 65786974 		.ascii	"exitcode\000"
 2190      636F6465 
 2190      00
 2191              	.LASF76:
 2192 0096 6D61696E 		.ascii	"mainthread\000"
 2192      74687265 
 2192      616400
 2193              	.LASF99:
 2194 00a1 73656E74 		.ascii	"sentmsg\000"
 2194      6D736700 
 2195              	.LASF66:
 2196 00a9 76697274 		.ascii	"virtual_timers_list_t\000"
 2196      75616C5F 
 2196      74696D65 
 2196      72735F6C 
 2196      6973745F 
 2197              	.LASF124:
 2198 00bf 49544D5F 		.ascii	"ITM_RxBuffer\000"
 2198      52784275 
 2198      66666572 
 2198      00
 2199              	.LASF88:
 2200 00cc 42445452 		.ascii	"BDTR\000"
 2200      00
 2201              	.LASF49:
 2202 00d1 63685F74 		.ascii	"ch_threads_queue\000"
 2202      68726561 
 2202      64735F71 
 2202      75657565 
 2202      00
 2203              	.LASF29:
 2204 00e2 705F7072 		.ascii	"p_prio\000"
 2204      696F00
 2205              	.LASF85:
 2206 00e9 43434D52 		.ascii	"CCMR1\000"
 2206      3100
 2207              	.LASF86:
 2208 00ef 43434D52 		.ascii	"CCMR2\000"
 2208      3200
 2209              	.LASF90:
 2210 00f5 43434D52 		.ascii	"CCMR3\000"
 2210      3300
 2211              	.LASF1:
 2212 00fb 7369676E 		.ascii	"signed char\000"
 2212      65642063 
 2212      68617200 
 2213              	.LASF107:
ARM GAS  /tmp/ccvXw1t5.s 			page 57


 2214 0107 6D5F7175 		.ascii	"m_queue\000"
 2214      65756500 
 2215              	.LASF75:
 2216 010f 76746C69 		.ascii	"vtlist\000"
 2216      737400
 2217              	.LASF73:
 2218 0116 63685F73 		.ascii	"ch_system\000"
 2218      79737465 
 2218      6D00
 2219              	.LASF7:
 2220 0120 6C6F6E67 		.ascii	"long int\000"
 2220      20696E74 
 2220      00
 2221              	.LASF18:
 2222 0129 746D6F64 		.ascii	"tmode_t\000"
 2222      655F7400 
 2223              	.LASF19:
 2224 0131 74737461 		.ascii	"tstate_t\000"
 2224      74655F74 
 2224      00
 2225              	.LASF87:
 2226 013a 43434552 		.ascii	"CCER\000"
 2226      00
 2227              	.LASF10:
 2228 013f 6C6F6E67 		.ascii	"long long int\000"
 2228      206C6F6E 
 2228      6720696E 
 2228      7400
 2229              	.LASF31:
 2230 014d 705F6E65 		.ascii	"p_newer\000"
 2230      77657200 
 2231              	.LASF104:
 2232 0155 735F7175 		.ascii	"s_queue\000"
 2232      65756500 
 2233              	.LASF4:
 2234 015d 73686F72 		.ascii	"short unsigned int\000"
 2234      7420756E 
 2234      7369676E 
 2234      65642069 
 2234      6E7400
 2235              	.LASF55:
 2236 0170 725F6E65 		.ascii	"r_newer\000"
 2236      77657200 
 2237              	.LASF43:
 2238 0178 705F6D70 		.ascii	"p_mpool\000"
 2238      6F6F6C00 
 2239              	.LASF79:
 2240 0180 72656761 		.ascii	"regarm_t\000"
 2240      726D5F74 
 2240      00
 2241              	.LASF62:
 2242 0189 76745F70 		.ascii	"vt_prev\000"
 2242      72657600 
 2243              	.LASF111:
 2244 0191 6D757465 		.ascii	"mutex_t\000"
 2244      785F7400 
 2245              	.LASF77:
ARM GAS  /tmp/ccvXw1t5.s 			page 58


 2246 0199 69646C65 		.ascii	"idle_thread_wa\000"
 2246      5F746872 
 2246      6561645F 
 2246      776100
 2247              	.LASF24:
 2248 01a8 636E745F 		.ascii	"cnt_t\000"
 2248      7400
 2249              	.LASF125:
 2250 01ae 474E5520 		.ascii	"GNU C 4.8.4 20140526 (release) [ARM/embedded-4_8-br"
 2250      4320342E 
 2250      382E3420 
 2250      32303134 
 2250      30353236 
 2251 01e1 616E6368 		.ascii	"anch revision 211358] -mcpu=cortex-m4 -mno-thumb-in"
 2251      20726576 
 2251      6973696F 
 2251      6E203231 
 2251      31333538 
 2252 0214 74657277 		.ascii	"terwork -mthumb -ggdb -O0 -fomit-frame-pointer -fal"
 2252      6F726B20 
 2252      2D6D7468 
 2252      756D6220 
 2252      2D676764 
 2253 0247 69676E2D 		.ascii	"ign-functions=16 -ffunction-sections -fdata-section"
 2253      66756E63 
 2253      74696F6E 
 2253      733D3136 
 2253      202D6666 
 2254 027a 73202D66 		.ascii	"s -fno-common -flto\000"
 2254      6E6F2D63 
 2254      6F6D6D6F 
 2254      6E202D66 
 2254      6C746F00 
 2255              	.LASF0:
 2256 028e 756E7369 		.ascii	"unsigned int\000"
 2256      676E6564 
 2256      20696E74 
 2256      00
 2257              	.LASF61:
 2258 029b 76745F6E 		.ascii	"vt_next\000"
 2258      65787400 
 2259              	.LASF100:
 2260 02a3 77747365 		.ascii	"wtsemp\000"
 2260      6D7000
 2261              	.LASF39:
 2262 02aa 705F6D73 		.ascii	"p_msgqueue\000"
 2262      67717565 
 2262      756500
 2263              	.LASF105:
 2264 02b5 735F636E 		.ascii	"s_cnt\000"
 2264      7400
 2265              	.LASF83:
 2266 02bb 534D4352 		.ascii	"SMCR\000"
 2266      00
 2267              	.LASF46:
 2268 02c0 63685F74 		.ascii	"ch_thread\000"
 2268      68726561 
ARM GAS  /tmp/ccvXw1t5.s 			page 59


 2268      6400
 2269              	.LASF22:
 2270 02ca 6D73675F 		.ascii	"msg_t\000"
 2270      7400
 2271              	.LASF72:
 2272 02d0 63685F73 		.ascii	"ch_system_t\000"
 2272      79737465 
 2272      6D5F7400 
 2273              	.LASF92:
 2274 02dc 73746D33 		.ascii	"stm32_tim_t\000"
 2274      325F7469 
 2274      6D5F7400 
 2275              	.LASF51:
 2276 02e8 63685F72 		.ascii	"ch_ready_list\000"
 2276      65616479 
 2276      5F6C6973 
 2276      7400
 2277              	.LASF23:
 2278 02f6 6576656E 		.ascii	"eventmask_t\000"
 2278      746D6173 
 2278      6B5F7400 
 2279              	.LASF6:
 2280 0302 5F5F696E 		.ascii	"__int32_t\000"
 2280      7433325F 
 2280      7400
 2281              	.LASF113:
 2282 030c 73745F6C 		.ascii	"st_lld_start_alarm\000"
 2282      6C645F73 
 2282      74617274 
 2282      5F616C61 
 2282      726D00
 2283              	.LASF80:
 2284 031f 73746B61 		.ascii	"stkalign_t\000"
 2284      6C69676E 
 2284      5F7400
 2285              	.LASF38:
 2286 032a 705F7761 		.ascii	"p_waiting\000"
 2286      6974696E 
 2286      6700
 2287              	.LASF78:
 2288 0334 73697A65 		.ascii	"sizetype\000"
 2288      74797065 
 2288      00
 2289              	.LASF44:
 2290 033d 74687265 		.ascii	"thread_reference_t\000"
 2290      61645F72 
 2290      65666572 
 2290      656E6365 
 2290      5F7400
 2291              	.LASF67:
 2292 0350 63685F76 		.ascii	"ch_virtual_timers_list\000"
 2292      69727475 
 2292      616C5F74 
 2292      696D6572 
 2292      735F6C69 
 2293              	.LASF68:
 2294 0367 76745F6C 		.ascii	"vt_lasttime\000"
ARM GAS  /tmp/ccvXw1t5.s 			page 60


 2294      61737474 
 2294      696D6500 
 2295              	.LASF32:
 2296 0373 705F6F6C 		.ascii	"p_older\000"
 2296      64657200 
 2297              	.LASF117:
 2298 037b 7374496E 		.ascii	"stInit\000"
 2298      697400
 2299              	.LASF54:
 2300 0382 725F6374 		.ascii	"r_ctx\000"
 2300      7800
 2301              	.LASF94:
 2302 0388 746D5F63 		.ascii	"tm_calibration_t\000"
 2302      616C6962 
 2302      72617469 
 2302      6F6E5F74 
 2302      00
 2303              	.LASF34:
 2304 0399 705F7374 		.ascii	"p_stklimit\000"
 2304      6B6C696D 
 2304      697400
 2305              	.LASF115:
 2306 03a4 74696D65 		.ascii	"time\000"
 2306      00
 2307              	.LASF57:
 2308 03a9 725F6375 		.ascii	"r_current\000"
 2308      7272656E 
 2308      7400
 2309              	.LASF56:
 2310 03b3 725F6F6C 		.ascii	"r_older\000"
 2310      64657200 
 2311              	.LASF11:
 2312 03bb 5F5F7569 		.ascii	"__uint64_t\000"
 2312      6E743634 
 2312      5F7400
 2313              	.LASF20:
 2314 03c6 74726566 		.ascii	"trefs_t\000"
 2314      735F7400 
 2315              	.LASF59:
 2316 03ce 76697274 		.ascii	"virtual_timer_t\000"
 2316      75616C5F 
 2316      74696D65 
 2316      725F7400 
 2317              	.LASF28:
 2318 03de 705F7072 		.ascii	"p_prev\000"
 2318      657600
 2319              	.LASF21:
 2320 03e5 74707269 		.ascii	"tprio_t\000"
 2320      6F5F7400 
 2321              	.LASF70:
 2322 03ed 63685F73 		.ascii	"ch_system_debug\000"
 2322      79737465 
 2322      6D5F6465 
 2322      62756700 
 2323              	.LASF112:
 2324 03fd 5F426F6F 		.ascii	"_Bool\000"
 2324      6C00
ARM GAS  /tmp/ccvXw1t5.s 			page 61


 2325              	.LASF14:
 2326 0403 696E7433 		.ascii	"int32_t\000"
 2326      325F7400 
 2327              	.LASF2:
 2328 040b 756E7369 		.ascii	"unsigned char\000"
 2328      676E6564 
 2328      20636861 
 2328      7200
 2329              	.LASF41:
 2330 0419 705F6D74 		.ascii	"p_mtxlist\000"
 2330      786C6973 
 2330      7400
 2331              	.LASF3:
 2332 0423 73686F72 		.ascii	"short int\000"
 2332      7420696E 
 2332      7400
 2333              	.LASF35:
 2334 042d 705F7374 		.ascii	"p_state\000"
 2334      61746500 
 2335              	.LASF53:
 2336 0435 725F7072 		.ascii	"r_prio\000"
 2336      696F00
 2337              	.LASF102:
 2338 043c 65776D61 		.ascii	"ewmask\000"
 2338      736B00
 2339              	.LASF27:
 2340 0443 705F6E65 		.ascii	"p_next\000"
 2340      787400
 2341              	.LASF13:
 2342 044a 75696E74 		.ascii	"uint8_t\000"
 2342      385F7400 
 2343              	.LASF60:
 2344 0452 63685F76 		.ascii	"ch_virtual_timer\000"
 2344      69727475 
 2344      616C5F74 
 2344      696D6572 
 2344      00
 2345              	.LASF129:
 2346 0463 73745F6C 		.ascii	"st_lld_get_alarm\000"
 2346      6C645F67 
 2346      65745F61 
 2346      6C61726D 
 2346      00
 2347              	.LASF103:
 2348 0474 63685F73 		.ascii	"ch_semaphore\000"
 2348      656D6170 
 2348      686F7265 
 2348      00
 2349              	.LASF91:
 2350 0481 43435852 		.ascii	"CCXR\000"
 2350      00
 2351              	.LASF40:
 2352 0486 705F6570 		.ascii	"p_epending\000"
 2352      656E6469 
 2352      6E6700
 2353              	.LASF15:
 2354 0491 75696E74 		.ascii	"uint32_t\000"
ARM GAS  /tmp/ccvXw1t5.s 			page 62


 2354      33325F74 
 2354      00
 2355              	.LASF101:
 2356 049a 77746D74 		.ascii	"wtmtxp\000"
 2356      787000
 2357              	.LASF52:
 2358 04a1 725F7175 		.ascii	"r_queue\000"
 2358      65756500 
 2359              	.LASF63:
 2360 04a9 76745F64 		.ascii	"vt_delta\000"
 2360      656C7461 
 2360      00
 2361              	.LASF47:
 2362 04b2 63685F74 		.ascii	"ch_threads_list\000"
 2362      68726561 
 2362      64735F6C 
 2362      69737400 
 2363              	.LASF127:
 2364 04c2 2F6E6673 		.ascii	"/nfs/nfs4/home/irbrown/Courses/P442/P442WifiTrailCo"
 2364      2F6E6673 
 2364      342F686F 
 2364      6D652F69 
 2364      7262726F 
 2365 04f5 756E7465 		.ascii	"unterProject/milestone3\000"
 2365      7250726F 
 2365      6A656374 
 2365      2F6D696C 
 2365      6573746F 
 2366              	.LASF9:
 2367 050d 6C6F6E67 		.ascii	"long unsigned int\000"
 2367      20756E73 
 2367      69676E65 
 2367      6420696E 
 2367      7400
 2368              	.LASF118:
 2369 051f 73745374 		.ascii	"stStopAlarm\000"
 2369      6F70416C 
 2369      61726D00 
 2370              	.LASF110:
 2371 052b 63686172 		.ascii	"char\000"
 2371      00
 2372              	.LASF89:
 2373 0530 444D4152 		.ascii	"DMAR\000"
 2373      00
 2374              	.LASF26:
 2375 0535 74687265 		.ascii	"thread_t\000"
 2375      61645F74 
 2375      00
 2376              	.LASF109:
 2377 053e 6D5F6E65 		.ascii	"m_next\000"
 2377      787400
 2378              	.LASF25:
 2379 0545 73797374 		.ascii	"systime_t\000"
 2379      696D655F 
 2379      7400
 2380              	.LASF42:
 2381 054f 705F7265 		.ascii	"p_realprio\000"
ARM GAS  /tmp/ccvXw1t5.s 			page 63


 2381      616C7072 
 2381      696F00
 2382              	.LASF58:
 2383 055a 76746675 		.ascii	"vtfunc_t\000"
 2383      6E635F74 
 2383      00
 2384              	.LASF8:
 2385 0563 5F5F7569 		.ascii	"__uint32_t\000"
 2385      6E743332 
 2385      5F7400
 2386              	.LASF71:
 2387 056e 70616E69 		.ascii	"panic_msg\000"
 2387      635F6D73 
 2387      6700
 2388              	.LASF93:
 2389 0578 6F666673 		.ascii	"offset\000"
 2389      657400
 2390              	.LASF119:
 2391 057f 73745374 		.ascii	"stStartAlarm\000"
 2391      61727441 
 2391      6C61726D 
 2391      00
 2392              	.LASF81:
 2393 058c 636F6E74 		.ascii	"context\000"
 2393      65787400 
 2394              	.LASF17:
 2395 0594 7274636E 		.ascii	"rtcnt_t\000"
 2395      745F7400 
 2396              	.LASF128:
 2397 059c 73745F6C 		.ascii	"st_lld_stop_alarm\000"
 2397      6C645F73 
 2397      746F705F 
 2397      616C6172 
 2397      6D00
 2398              	.LASF65:
 2399 05ae 76745F70 		.ascii	"vt_par\000"
 2399      617200
 2400              	.LASF48:
 2401 05b5 74687265 		.ascii	"threads_queue_t\000"
 2401      6164735F 
 2401      71756575 
 2401      655F7400 
 2402              	.LASF106:
 2403 05c5 63685F6D 		.ascii	"ch_mutex\000"
 2403      75746578 
 2403      00
 2404              	.LASF37:
 2405 05ce 705F7265 		.ascii	"p_refs\000"
 2405      667300
 2406              	.LASF74:
 2407 05d5 726C6973 		.ascii	"rlist\000"
 2407      7400
 2408              	.LASF120:
 2409 05db 73745365 		.ascii	"stSetAlarm\000"
 2409      74416C61 
 2409      726D00
 2410              	.LASF121:
ARM GAS  /tmp/ccvXw1t5.s 			page 64


 2411 05e6 5F5F6675 		.ascii	"__func__.7080\000"
 2411      6E635F5F 
 2411      2E373038 
 2411      3000
 2412              	.LASF130:
 2413 05f4 73744765 		.ascii	"stGetAlarm\000"
 2413      74416C61 
 2413      726D00
 2414              	.LASF97:
 2415 05ff 77746F62 		.ascii	"wtobjp\000"
 2415      6A7000
 2416              	.LASF33:
 2417 0606 705F6E61 		.ascii	"p_name\000"
 2417      6D6500
 2418              	.LASF122:
 2419 060d 5F5F6675 		.ascii	"__func__.7087\000"
 2419      6E635F5F 
 2419      2E373038 
 2419      3700
 2420              	.LASF45:
 2421 061b 74687265 		.ascii	"threads_list_t\000"
 2421      6164735F 
 2421      6C697374 
 2421      5F7400
 2422              	.LASF116:
 2423 062a 61627374 		.ascii	"abstime\000"
 2423      696D6500 
 2424              	.LASF36:
 2425 0632 705F666C 		.ascii	"p_flags\000"
 2425      61677300 
 2426              	.LASF114:
 2427 063a 73745F6C 		.ascii	"st_lld_set_alarm\000"
 2427      6C645F73 
 2427      65745F61 
 2427      6C61726D 
 2427      00
 2428              	.LASF108:
 2429 064b 6D5F6F77 		.ascii	"m_owner\000"
 2429      6E657200 
 2430              	.LASF30:
 2431 0653 705F6374 		.ascii	"p_ctx\000"
 2431      7800
 2432              	.LASF64:
 2433 0659 76745F66 		.ascii	"vt_func\000"
 2433      756E6300 
 2434              		.comm	__gnu_lto_v1,1,1
 2435              		.ident	"GCC: (GNU Tools for ARM Embedded Processors) 4.8.4 20140526 (release) [ARM/embedded-4_8-br
ARM GAS  /tmp/ccvXw1t5.s 			page 65


DEFINED SYMBOLS
                            *ABS*:00000000 st.c
     /tmp/ccvXw1t5.s:300    .text.st_lld_start_alarm:00000000 $t
     /tmp/ccvXw1t5.s:305    .text.st_lld_start_alarm:00000000 st_lld_start_alarm
     /tmp/ccvXw1t5.s:336    .text.st_lld_stop_alarm:00000000 $t
     /tmp/ccvXw1t5.s:341    .text.st_lld_stop_alarm:00000000 st_lld_stop_alarm
     /tmp/ccvXw1t5.s:358    .text.st_lld_set_alarm:00000000 $t
     /tmp/ccvXw1t5.s:363    .text.st_lld_set_alarm:00000000 st_lld_set_alarm
     /tmp/ccvXw1t5.s:385    .text.st_lld_get_alarm:00000000 $t
     /tmp/ccvXw1t5.s:390    .text.st_lld_get_alarm:00000000 st_lld_get_alarm
     /tmp/ccvXw1t5.s:407    .text.stInit:00000000 $t
     /tmp/ccvXw1t5.s:413    .text.stInit:00000000 stInit
     /tmp/ccvXw1t5.s:432    .text.stStartAlarm:00000000 $t
     /tmp/ccvXw1t5.s:438    .text.stStartAlarm:00000000 stStartAlarm
     /tmp/ccvXw1t5.s:461    .text.stStopAlarm:00000000 $t
     /tmp/ccvXw1t5.s:467    .text.stStopAlarm:00000000 stStopAlarm
     /tmp/ccvXw1t5.s:485    .text.stSetAlarm:00000000 $t
     /tmp/ccvXw1t5.s:491    .text.stSetAlarm:00000000 stSetAlarm
     /tmp/ccvXw1t5.s:514    .text.stGetAlarm:00000000 $t
     /tmp/ccvXw1t5.s:520    .text.stGetAlarm:00000000 stGetAlarm
                            *COM*:00000001 __gnu_lto_v1
                     .debug_frame:00000010 $d

UNDEFINED SYMBOLS
st_lld_init
