ARM GAS  /tmp/ccQa7PDD.s 			page 1


   1              		.syntax unified
   2              		.cpu cortex-m4
   3              		.fpu softvfp
   4              		.eabi_attribute 20, 1
   5              		.eabi_attribute 21, 1
   6              		.eabi_attribute 23, 3
   7              		.eabi_attribute 24, 1
   8              		.eabi_attribute 25, 1
   9              		.eabi_attribute 26, 1
  10              		.eabi_attribute 30, 6
  11              		.eabi_attribute 34, 1
  12              		.eabi_attribute 18, 4
  13              		.thumb
  14              		.file	"st_lld.c"
  15              		.text
  16              	.Ltext0:
  17              		.section	.gnu.lto_.inline.5db31db1af51a0b5,"",%progbits
  18 0000 789C6362 		.ascii	"x\234cb`b\300\006X\031!47\003\003\0133\003\003\023\313"
  18      6062C006 
  18      58192134 
  18      3703030B 
  18      33030313 
  19 0015 073D0616 		.ascii	"\007=\006\026\210ZF\014\021&\006\026\036 \311\264@\036"
  19      885A460C 
  19      11260616 
  19      1E20C9B4 
  19      401E
  20 0027 AE860B48 		.ascii	"\256\206\013H0c\027f\301.\314\212]\230\015\2730;va\016"
  20      30631766 
  20      C12ECC8A 
  20      5D980DBB 
  20      303B7661 
  21 003c ECC29C0C 		.ascii	"\354\302\234\014<\372@a\236\015\271(\302h\004\027\203"
  21      3CFA4061 
  21      9E0DB928 
  21      C2680417 
  21      83
  22 004d 880C5095 		.ascii	"\210\014P\225\\\303/F\2302f\036\020\011\000w\351\014"
  22      5CC32F46 
  22      9832661E 
  22      10090077 
  22      E90C
  23 005f 63       		.ascii	"c"
  24              		.text
  25              		.section	.gnu.lto_port_lock.5db31db1af51a0b5,"",%progbits
  26 0000 789C6362 		.ascii	"x\234cb`b@\007\"@,\310\310\300P\007\342030\002U021\002"
  26      60624007 
  26      22402CC8 
  26      C8C05007 
  26      E2303330 
  27 001a 05181819 		.ascii	"\005\030\030\031\352\231\030\353#AL\006F%\206\205\015"
  27      EA9918EB 
  27      23414C06 
  27      46258685 
  27      0D
  28 002b 0D931EB4 		.ascii	"\015\223\036\264>{\3144\263\341@\313\202\206?\377\377"
  28      3E7BCC34 
ARM GAS  /tmp/ccQa7PDD.s 			page 2


  28      B3E140CB 
  28      82863FFF 
  28      FF
  29 003c 33326632 		.ascii	"32f2\002M\324cdHfd\210\000r\030\025\300\024\023\013"
  29      024DD463 
  29      64486664 
  29      88007218 
  29      15C01413 
  30 0051 AA15EB99 		.ascii	"\252\025\353\231\016<\370\377\377D\347\363\275@\223"
  30      0E3CF8FF 
  30      FF44E7F3 
  30      BD4093
  31 0060 19121917 		.ascii	"\031\022\031\027\002M\003\002V\206\226\206\206\011\012"
  31      024D0302 
  31      56869686 
  31      86090A
  32 006f 0C20DD40 		.ascii	"\014 \335@\020\002&CA\016`>\313\320\264\003H\24732\202"
  32      10022643 
  32      410E603E 
  32      CBD0B403 
  32      48A73332 
  33 0084 CC6300AA 		.ascii	"\314c\000\252a8\307\320\364\361\315\214\307\022p]`F"
  33      6138C7D0 
  33      F4F1CD8C 
  33      C712705D 
  33      6046
  34 0096 C381EE2B 		.ascii	"\303\201\356+\355\2540#\023\031\0273\262\002\215\203"
  34      EDAC3023 
  34      13191733 
  34      B2028D83 
  35 00a6 38190893 		.ascii	"8\031\010\223\231A>f\206x[\216\241dn\303\014\207LFf"
  35      99413E66 
  35      86785B8E 
  35      A1646EC3 
  35      0C874C46 
  36 00bb 102F1DAC 		.ascii	"\020/\035\254\012.U\016\221\202\272\374\"C\343\203\235"
  36      0A2E550E 
  36      9182BAFC 
  36      2243E383 
  36      9D
  37 00cc FA10E360 		.ascii	"\372\020\343` \004\244\001\244Z[OO\3379#3)\323?X?\277"
  37      2004A401 
  37      A45A5B4F 
  37      4FDF3923 
  37      3329D33F 
  38 00e3 58BFA844 		.ascii	"X\277\250D\277 \277\250\244X\3371\310\327\331\267B?"
  38      BF20BFA8 
  38      A458DF31 
  38      C8D7D9B7 
  38      423F
  39 00f5 392339BF 		.ascii	"9#9\277(5\276\314<W/\203\201\265,1\2474U\017UGjE\211"
  39      2835BECC 
  39      3C572F83 
  39      81B52C31 
  39      A734550F 
  40 010e BEB36FB0 		.ascii	"\276\263o\260g\260~f^rNiJ\252>XGr\256[i^2P\223\200o"
  40      67B07E66 
ARM GAS  /tmp/ccQa7PDD.s 			page 3


  40      5E724E69 
  40      4AAA3E58 
  40      4772AE5B 
  41 0129 70904252 		.ascii	"p\220BRbqjAQ\246\216\202\252\001\003S\021\003{njn~Q"
  41      62716A41 
  41      51A68E82 
  41      AA010353 
  41      11037B6E 
  42 0141 2503005A 		.ascii	"%\003\000Z\240au"
  42      A06175
  43              		.text
  44              		.section	.gnu.lto_port_unlock.5db31db1af51a0b5,"",%progbits
  45 0000 789C6362 		.ascii	"x\234cb`b@\007\"@,\310\310\300P\007\342030\002U021\002"
  45      60624007 
  45      22402CC8 
  45      C8C05007 
  45      E2303330 
  46 001a 05181819 		.ascii	"\005\030\030\031\352\231\030\353#AL\006F%\206\205\015"
  46      EA9918EB 
  46      23414C06 
  46      46258685 
  46      0D
  47 002b 0D931EB4 		.ascii	"\015\223\036\264~z\3144\263\341@\313\202\206?\377\377"
  47      7E7ACC34 
  47      B3E140CB 
  47      82863FFF 
  47      FF
  48 003c 33326632 		.ascii	"32f2\002M\324cdHfd\210\000r\030\025\300\024\023\013"
  48      024DD463 
  48      64486664 
  48      88007218 
  48      15C01413 
  49 0051 AA15EB99 		.ascii	"\252\025\353\231\016<\370\377\377E\347\376}@\223\031"
  49      0E3CF8FF 
  49      FF45E7FE 
  49      7D409319 
  50 0061 12191702 		.ascii	"\022\031\027\002M\003\002V\206\226\206\206\011\012\014"
  50      4D030256 
  50      86968686 
  50      090A0C
  51 0070 20DD4010 		.ascii	" \335@\020\002&CA\016`>\313\320\264\003H\24732\202\314"
  51      02264341 
  51      0E603ECB 
  51      D0B40348 
  51      A7333282 
  52 0085 031B728E 		.ascii	"\003\033r\216\241\351\343\233\031\217%\340\272\300\214"
  52      A1E9E39B 
  52      198F25E0 
  52      BAC08C
  53 0094 8603A79F 		.ascii	"\206\003\247\237\266\263\302\214Ld\\\314\310\0124\016"
  53      B6B3C28C 
  53      4C645CCC 
  53      C80A340E 
  54 00a4 E264204C 		.ascii	"\342d Lf\006\371\230\031\342m9\206\222\271\0153\034"
  54      6606F998 
  54      19E26D39 
  54      8692B90D 
ARM GAS  /tmp/ccQa7PDD.s 			page 4


  54      331C
  55 00b6 32199941 		.ascii	"2\031\231A\274t\260*\270T9D\012\352\362\213\014\215"
  55      BC74B02A 
  55      B8543944 
  55      0AEAF28B 
  55      0C8D
  56 00c8 0FCEEB43 		.ascii	"\017\316\353C\214\203\201\020\220\006\220jm==}\347\214"
  56      8C838110 
  56      9006906A 
  56      6D3D3D7D 
  56      E78C
  57 00da CCA44CFF 		.ascii	"\314\244L\377`\375\374b\375\242\022\375\202\374\242"
  57      60FDFC62 
  57      FDA212FD 
  57      82FCA2
  58 00e9 92627DC7 		.ascii	"\222b}\307 _g\337\012\375\344\214\344\374\242\324\370"
  58      205F67DF 
  58      0AFDE48C 
  58      E4FCA2D4 
  58      F8
  59 00fa 32F35CBD 		.ascii	"2\363\\\275\014\006\326\262\304\234\322T=T\035\251\025"
  59      0C06D6B2 
  59      C49CD254 
  59      3D541DA9 
  59      15
  60 010b 25FACEBE 		.ascii	"%\372\316\276\301\236\301\372\231y\3119\245)\251\372"
  60      C19EC1FA 
  60      9979C939 
  60      A529A9FA 
  61 011b 601DC9B9 		.ascii	"`\035\311\271n\245y\311@M\002\276\301A\012I\211\305"
  61      6EA579C9 
  61      404D02BE 
  61      C1410A49 
  61      89C5
  62 012d A9054599 		.ascii	"\251\005E\231:\012\252\006\014LE\014\354\271\251\271"
  62      3A0AAA06 
  62      0C4C450C 
  62      ECB9A9B9 
  63 013d F945950C 		.ascii	"\371E\225\014\000\233\025a\301"
  63      009B1561 
  63      C1
  64              		.text
  65              		.section	.gnu.lto_port_lock_from_isr.5db31db1af51a0b5,"",%progbits
  66 0000 789C6362 		.ascii	"x\234cb`b@\007\"@\\\006\304\272 \0163\003#P\005#\023"
  66      60624007 
  66      22405C06 
  66      C4BA200E 
  66      33032350 
  67 0017 232390C3 		.ascii	"##\220\303\310P\317\304X\037\311\010V\266\236\351\300"
  67      C850CFC4 
  67      581FC908 
  67      56B69EE9 
  67      C0
  68 0028 83FFFFD7 		.ascii	"\203\377\377\327\355\273\277n\015\343?&\220\030+CKC"
  68      EDBBBF6E 
  68      0DE33F26 
  68      90182B43 
ARM GAS  /tmp/ccQa7PDD.s 			page 5


  68      4B43
  69 003a C3040506 		.ascii	"\303\004\005\006\206d\260\212\0200\031\012\322\317|"
  69      8664B08A 
  69      1030190A 
  69      D2CF7C
  70 0049 9EA1F9C1 		.ascii	"\236\241\371\301\313~\366D\306\205\214\254@\301j\206"
  70      CB7EF644 
  70      C6858CAC 
  70      40C16A86 
  71 0059 5F0D1D0D 		.ascii	"_\015\035\015\002\231\214@\245\020\3232A\364E\206\306"
  71      02998C40 
  71      A510D332 
  71      41F44586 
  71      C6
  72 006a 07AFF461 		.ascii	"\007\257\364a\212  \004$\001r\244\266\236\236\276sF"
  72      8A202004 
  72      240172A4 
  72      B69E9EBE 
  72      7346
  73 007c 6652A67F 		.ascii	"fR\246\177\260~~\261~Q\211~A~QI\261\276c\220\257\263"
  73      B07E7EB1 
  73      7E51897E 
  73      417E5149 
  73      B1BE6390 
  74 0092 6F857E72 		.ascii	"o\205~rFr~Qj|\231y\256^\006\003\000`@*\240"
  74      46727E51 
  74      6A7C9979 
  74      AE5E0603 
  74      0060402A 
  75              		.text
  76              		.section	.gnu.lto_port_unlock_from_isr.5db31db1af51a0b5,"",%progbits
  77 0000 789C6362 		.ascii	"x\234cb`b@\007\"@\\\006\304\272 \0163\003#P\005#\023"
  77      60624007 
  77      22405C06 
  77      C4BA200E 
  77      33032350 
  78 0017 232390C3 		.ascii	"##\220\303\310P\317\304X\037\311\010V\266\236\351\300"
  78      C850CFC4 
  78      581FC908 
  78      56B69EE9 
  78      C0
  79 0028 83FFFFD7 		.ascii	"\203\377\377\327}\271\277\376\016\343\177&\220\030+"
  79      7DB9BFFE 
  79      0EE37F26 
  79      90182B
  80 0037 434B43C3 		.ascii	"CKC\303\004\005\006\206d\260\212\0200\031\012\322\317"
  80      04050686 
  80      64B08A10 
  80      30190AD2 
  80      CF
  81 0048 7C9EA1F9 		.ascii	"|\236\241\371\301\237\363\354\211\214\013\031Y\201\202"
  81      C19FF3EC 
  81      898C0B19 
  81      598182
  82 0057 D50CBF1A 		.ascii	"\325\014\277\032:\032\0042\031\201J!\246e\202\350\213"
  82      3A1A0432 
  82      19814A21 
ARM GAS  /tmp/ccQa7PDD.s 			page 6


  82      A66582E8 
  82      8B
  83 0068 0C8D0FFE 		.ascii	"\014\215\017\376\352\303\024A@\010H\002\344Hm==}\347"
  83      EAC31441 
  83      40084802 
  83      E4486D3D 
  83      3D7DE7
  84 007b 8CCCA44C 		.ascii	"\214\314\244L\377`\375\374b\375\242\022\375\202\374"
  84      FF60FDFC 
  84      62FDA212 
  84      FD82FC
  85 008a A292627D 		.ascii	"\242\222b}\307 _g\337\012\375\344\214\344\374\242\324"
  85      C7205F67 
  85      DF0AFDE4 
  85      8CE4FCA2 
  85      D4
  86 009b F832F35C 		.ascii	"\3702\363\\\275\014\006\000\303\301+n"
  86      BD0C0600 
  86      C3C12B6E 
  87              		.text
  88              		.section	.gnu.lto_chSysLockFromISR.5db31db1af51a0b5,"",%progbits
  89 0000 789C6362 		.ascii	"x\234cb`b@\007\"@\\\006\304\312 \0163\003#P\005#\023"
  89      60624007 
  89      22405C06 
  89      C4CA200E 
  89      33032350 
  90 0017 232390C3 		.ascii	"##\220\303\310P\317\304X\037\311\010V\266\236\351\300"
  90      C850CFC4 
  90      581FC908 
  90      56B69EE9 
  90      C0
  91 0028 83FFFFD7 		.ascii	"\203\377\377\327M\271\265\366\017\343\013&\220\030+"
  91      4DB9B5F6 
  91      0FE30B26 
  91      90182B
  92 0037 434B43C3 		.ascii	"CKC\303\004\005\006\206d\260\212\0200\031\012\322\317"
  92      04050686 
  92      64B08A10 
  92      30190AD2 
  92      CF
  93 0048 7C9EA1F9 		.ascii	"|\236\241\371A\317Z\356D\306\205\214\254@\301j\206_"
  93      41CF5AEE 
  93      44C6858C 
  93      AC40C16A 
  93      865F
  94 005a 0D1D0D02 		.ascii	"\015\035\015\002\231\214@\245\020\3232A\364E\206\306"
  94      998C40A5 
  94      10D33241 
  94      F44586C6 
  95 006a 07FDBA30 		.ascii	"\007\375\2720E\020\020\002\222\0009RQOO\3379#3)\323"
  95      45101002 
  95      92003952 
  95      514F4FDF 
  95      39233329 
  96 007f 3F583FBF 		.ascii	"?X?\277X\277\250D?3/9\2474%U?9\243\270\262X/\203\001"
  96      58BFA844 
  96      3F332F39 
ARM GAS  /tmp/ccQa7PDD.s 			page 7


  96      A7342555 
  96      3F39A3B8 
  97 0098 00967A26 		.ascii	"\000\226z&\320"
  97      D0
  98              		.text
  99              		.section	.gnu.lto_chSysUnlockFromISR.5db31db1af51a0b5,"",%progbits
 100 0000 789C6362 		.ascii	"x\234cb`b@\007\"@\\\006\304\312 \0163\003#P\005#\023"
 100      60624007 
 100      22405C06 
 100      C4CA200E 
 100      33032350 
 101 0017 232390C3 		.ascii	"##\220\303\310P\317\304X\037\311\010V\266\236\351\300"
 101      C850CFC4 
 101      581FC908 
 101      56B69EE9 
 101      C0
 102 0028 83FFFFD7 		.ascii	"\203\377\377\327\335\271\265n\017\343k&\220\030+CKC"
 102      DDB9B56E 
 102      0FE36B26 
 102      90182B43 
 102      4B43
 103 003a C3040506 		.ascii	"\303\004\005\006\206d\260\212\0200\031\012\322\317|"
 103      8664B08A 
 103      1030190A 
 103      D2CF7C
 104 0049 9EA1F9C1 		.ascii	"\236\241\371\301\256\267\334\211\214\013\031Y\201\202"
 104      AEB7DC89 
 104      8C0B1959 
 104      8182
 105 0057 D50CBF1A 		.ascii	"\325\014\277\032:\032\0042\031\201J!\246e\202\350\213"
 105      3A1A0432 
 105      19814A21 
 105      A66582E8 
 105      8B
 106 0068 0C8D0F76 		.ascii	"\014\215\017v\353\302\024A@\010H\002\344HE==}\347\214"
 106      EBC21441 
 106      40084802 
 106      E448453D 
 106      3D7DE78C 
 107 007c CCA44CFF 		.ascii	"\314\244L\377`\375\374b\375\242\022\375\314\274\344"
 107      60FDFC62 
 107      FDA212FD 
 107      CCBCE4
 108 008b 9CD29454 		.ascii	"\234\322\224T\375\344\214\342\312b\275\014\006\000\321"
 108      FDE48CE2 
 108      CA62BD0C 
 108      0600D1
 109 009a 3F2776   		.ascii	"?'v"
 110              		.text
 111              		.section	.gnu.lto_osalSysLockFromISR.5db31db1af51a0b5,"",%progbits
 112 0000 789C6362 		.ascii	"x\234cb`b@\007\"@\\\011\304\312 \0163\003#P\005#\023"
 112      60624007 
 112      22405C09 
 112      C4CA200E 
 112      33032350 
 113 0017 232390C3 		.ascii	"##\220\303\310P\317\304X\037\311\010V\266\236\351\300"
 113      C850CFC4 
ARM GAS  /tmp/ccQa7PDD.s 			page 8


 113      581FC908 
 113      56B69EE9 
 113      C0
 114 0028 83FFFFD7 		.ascii	"\203\377\377\327Mz\364\342(c\317F\026\220 +CKC\303\004"
 114      4D7AF4E2 
 114      2863CF46 
 114      1690202B 
 114      434B43C3 
 115 003d 05068664 		.ascii	"\005\006\206d\260\222\0200\031\0122\200\371<C\363\203"
 115      B0921030 
 115      190A3280 
 115      F93C43F3 
 115      83
 116 004e EE8D6B18 		.ascii	"\356\215k\030\023\031\0272\262\002E\253\031~5t4\010"
 116      13191732 
 116      B20245AB 
 116      197E3574 
 116      3408
 117 0060 643202D5 		.ascii	"d2\002\325B\314\313\004\321\027\031\032\037\000\015"
 117      42CCCB04 
 117      D117191A 
 117      1F000D
 118 006f 83A98280 		.ascii	"\203\251\202\200\020\220\014\310\235\212zz\372\316\031"
 118      10900CC8 
 118      9D8A7A7A 
 118      FACE19
 119 007e 994999FE 		.ascii	"\231I\231\376\301\372\371\305\372\031\2119@\012H\024"
 119      C1FAF9C5 
 119      FA198939 
 119      400A4814 
 120 008e 958069BD 		.ascii	"\225\200i\275\014\006\000]b(\022"
 120      0C06005D 
 120      622812
 121              		.text
 122              		.section	.gnu.lto_osalSysUnlockFromISR.5db31db1af51a0b5,"",%progbits
 123 0000 789C6362 		.ascii	"x\234cb`b@\007\"@\\\011\304\312 \0163\003#P\005#\023"
 123      60624007 
 123      22405C09 
 123      C4CA200E 
 123      33032350 
 124 0017 232390C3 		.ascii	"##\220\303\310P\317\304X\037\311\010V\266\236\351\300"
 124      C850CFC4 
 124      581FC908 
 124      56B69EE9 
 124      C0
 125 0028 83FFFFD7 		.ascii	"\203\377\377\327\355x\364\343(\343\374\215, AV\206\226"
 125      ED78F4E3 
 125      28E3FC8D 
 125      2C204156 
 125      8696
 126 003a 8686090A 		.ascii	"\206\206\011\012\014\014\311`%!`2\024d\000\363y\206"
 126      0C0CC960 
 126      25216032 
 126      146400F3 
 126      7986
 127 004c E607F336 		.ascii	"\346\007\3636naLd\\\310\310\012\024\255f\370\325\320"
 127      6E614C64 
ARM GAS  /tmp/ccQa7PDD.s 			page 9


 127      5CC8C80A 
 127      14AD66F8 
 127      D5D0
 128 005e D12090C9 		.ascii	"\321 \220\311\010T\0131/\023D_dh|\0004\014\246\012\002"
 128      08540B31 
 128      2F13445F 
 128      64687C00 
 128      340CA60A 
 129 0073 42403220 		.ascii	"B@2 w*\352\351\351;gd&e\372\007\353\347\027\353g$\346"
 129      772AEAE9 
 129      E93B6764 
 129      2665FA07 
 129      EBE717EB 
 130 008a 00292051 		.ascii	"\000) QT\002\246\3652\030\000\2246(\211"
 130      5402A6F5 
 130      32180094 
 130      362889
 131              		.text
 132              		.section	.gnu.lto_osalOsTimerHandlerI.5db31db1af51a0b5,"",%progbits
 133 0000 789C6362 		.ascii	"x\234cb`b@\007\"@\\\011\304\312 \0163\003#P\005#\023"
 133      60624007 
 133      22405C09 
 133      C4CA200E 
 133      33032350 
 134 0017 232390C3 		.ascii	"##\220\303\310P\317\304X\037\311\010V\266\236\351\300"
 134      C850CFC4 
 134      581FC908 
 134      56B69EE9 
 134      C0
 135 0028 83FFFFD7 		.ascii	"\203\377\377\327\315{\366\341(\343\254\315, AV\206\226"
 135      CD7BF6E1 
 135      28E3ACCD 
 135      2C204156 
 135      8696
 136 003a 8686090A 		.ascii	"\206\206\011\012\014\014\311`%!`2\024d\000\363y\206"
 136      0C0CC960 
 136      25216032 
 136      146400F3 
 136      7986
 137 004c E6073337 		.ascii	"\346\00737oaLd\\\310\310\012\024\255f\370\325\320\321"
 137      6F614C64 
 137      5CC8C80A 
 137      14AD66F8 
 137      D5D0D1
 138 005f 2090C908 		.ascii	" \220\311\010T\0131/\023D_dh|\0004\014\246\012\002B"
 138      540B312F 
 138      13445F64 
 138      687C0034 
 138      0CA60A02 
 139 0074 40322077 		.ascii	"@2 w*\352\351\351;gd&e\372\007\353\347\027\353g$\346"
 139      2AEAE9E9 
 139      3B676426 
 139      65FA07EB 
 139      E717EB67 
 140 008a 00292051 		.ascii	"\000) QT\002\246\3652\030\000\200 (b"
 140      5402A6F5 
 140      32180080 
ARM GAS  /tmp/ccQa7PDD.s 			page 10


 140      202862
 141              		.text
 142              		.section	.gnu.lto_VectorB0.5db31db1af51a0b5,"",%progbits
 143 0000 789C8D51 		.ascii	"x\234\215Q\261J\003A\020\235\331\335(\"\212`e\027l\024"
 143      B14A0341 
 143      109DD9DD 
 143      28228A60 
 143      65176C14 
 144 0014 841CEA07 		.ascii	"\204\034\352\007Xh#$($\001\265\221\030!9\010D\214\330"
 144      58682324 
 144      282401B5 
 144      91182139 
 144      08448CD8 
 145 0028 58B83107 		.ascii	"X\2701\007\212U\2204j\023\013Ql\004\253\200M\020\204"
 145      8A559034 
 145      6A130B51 
 145      6C04AB80 
 145      4D1084
 146 003b 2804B5B3 		.ascii	"(\004\265\2633\202hcg\023\215x\316\356y\0325E\006nf"
 146      33826863 
 146      67138D78 
 146      CEEE791A 
 146      3545066E 
 147 0050 67E7BD99 		.ascii	"g\347\275\231\267s\014\030\374\265~\372.\351zX%\036"
 147      B7730C18 
 147      FCB57EFA 
 147      2EE97A58 
 147      251E
 148 0062 403A2263 		.ascii	"@:\"c\034@2ANp\244\200\002\221\312\010\253\214\013\\"
 148      1C403241 
 148      4E70A480 
 148      0291CA08 
 148      AB8C0B5C 
 149 0076 9D560988 		.ascii	"\235V\011\210^\330\223r\253r^\273g\333\271\242\225\227"
 149      5ED89372 
 149      AB725EBB 
 149      67DBB9A2 
 149      9597
 150 0088 EFB68D68 		.ascii	"\357\266\215h\252b\024a\212N\350\325Au\2527\207(O\016"
 150      AA621461 
 150      8A4EE8D5 
 150      4175AA37 
 150      87284F0E 
 151 009c 659B2671 		.ascii	"e\233&q\023y\223\234\227\207\311\222\264\212\266=\322"
 151      1379939C 
 151      9787C992 
 151      B48AB63D 
 151      D2
 152 00ad 34A77877 		.ascii	"4\247xw\225\353\331\314\257e\345\007\351kB\3361+Vl\373"
 152      95EBD9CC 
 152      AF65E507 
 152      E96B42DE 
 152      312B566C 
 153 00c2 BD56BDB7 		.ascii	"\275V\275\267\261\333\203@\024F\216s\345\004\350\016"
 153      B1DB8340 
 153      14468E73 
 153      E504E80E 
ARM GAS  /tmp/ccQa7PDD.s 			page 11


 154 00d2 B42A4BCA 		.ascii	"\264*K\312\254W\367\"\013i\037V\353\343eX+\334\322R"
 154      AC57F722 
 154      0B691F56 
 154      EBE36558 
 154      2BDCD252 
 155 00e6 22B88F1E 		.ascii	"\"\270\217\036\210!\252! \311\324\2402\234\315\270\025"
 155      8821AA21 
 155      20C9D4A0 
 155      329CCDB8 
 155      15
 156 00f7 360047D2 		.ascii	"6\000G\322\242\252\330\205\035\012\036\027\254m\016"
 156      A2AAD885 
 156      1D0A1E17 
 156      AC6D0E
 157 0106 5D4565C8 		.ascii	"]Ee\310\234f\036\321\245qb*\030W\277\263\004\326s\272"
 157      9C661ED1 
 157      A571622A 
 157      1857BFB3 
 157      04D673BA 
 158 011a E3BBA4EF 		.ascii	"\343\273\244\357\353_\023V\251\326T\255]|k\022\1775"
 158      EB5F1356 
 158      A9D654AD 
 158      5D7C6B12 
 158      7F35
 159 012c 15AEDB9D 		.ascii	"\025\256\333\235\232\226\224\226\301zQ\342\277(u\243"
 159      9A969496 
 159      C17A51E2 
 159      BF2875A3 
 160 013c F7760599 		.ascii	"\367v\005\231\312\353\323\027\031`\005\336\344\206\354"
 160      CAEBD317 
 160      196005DE 
 160      E486EC
 161 014b 32B1258A 		.ascii	"2\261%\212\016\324\304V\007\365\266\336\331\010\305"
 161      0ED4C456 
 161      07F5B6DE 
 161      D908C5
 162 015a 7EA36A07 		.ascii	"~\243j\007\015Q\374\007\345\274\212\206s\205\377\210"
 162      0D51FC07 
 162      E5BC8A86 
 162      7385FF88 
 163 016a 35828B1F 		.ascii	"5\202\213\037\370\015\244+v\237\013r,\244\264\251\301"
 163      F80DA42B 
 163      769F0B72 
 163      2CA4B4A9 
 163      C1
 164 017b 833E9F31 		.ascii	"\203>\2371\0327\347\314\211\240\221L\031\361H\302XH"
 164      1A37E7CC 
 164      89A0914C 
 164      19F148C2 
 164      5848
 165 018d 2E2EA58C 		.ascii	"..\245\214`(0<d\370\375cFh<\260<h\244\226f\023\211y"
 165      6028303C 
 165      64F8FD63 
 165      46683CB0 
 165      3C68A496 
 166 01a5 5F143E01 		.ascii	"_\024>\001\361\205\261\331"
 166      F185B1D9 
ARM GAS  /tmp/ccQa7PDD.s 			page 12


 167              		.text
 168              		.section	.gnu.lto_st_lld_init.5db31db1af51a0b5,"",%progbits
 169 0000 789CB594 		.ascii	"x\234\265\224?h\023q\024\307\337\357\376\344\376\344"
 169      3F681371 
 169      14C7DFEF 
 169      FEE4FEE4 
 170 0010 AFD04571 		.ascii	"\257\320Eq(n\"\346\250]\2729\350Rhqh\004\353\"m\204"
 170      286E22E6 
 170      A85DBA39 
 170      E8526871 
 170      6804EB22 
 171 0026 3610A898 		.ascii	"6\020\250\230\342\"\230_j\205 \202A\267:\030\007!\244"
 171      E222985F 
 171      6A852082 
 171      41B73A18 
 171      0721A4
 172 0039 62D12982 		.ascii	"b\321)\202Cp\322\241\210\235\334L\267\270\211\210\224"
 172      4370D2A1 
 172      889DDC4C 
 172      B7B88988 
 172      94
 173 004a 503CDFCB 		.ascii	"P<\337\313\335\357\356\222\264\220;\350\017\362\275"
 173      DDEFEE92 
 173      B4903BE8 
 173      0FF2BD
 174 0059 BBBCF7FD 		.ascii	"\273\274\367\375\274w\277\273w\022H0\274&\360\367@\007"
 174      BC77BFBB 
 174      77124830 
 174      BC26F0F7 
 174      4007
 175 006b 98A60B19 		.ascii	"\230\246\013\031\030f0\2111\274`P\226Xy\221N!s\016^"
 175      18663089 
 175      31BC6050 
 175      96587991 
 175      4E21730E 
 176 0080 71FEACF3 		.ascii	"q\376\254\363\272\271u\372q}\243\306\377\3316+P(\317"
 176      BAB975FA 
 176      717DA3C6 
 176      FFD9362B 
 176      5028CF
 177 0093 E0069EB1 		.ascii	"\340\006\236\261\311\376AR\006\351\216\215\277op\243"
 177      C9FE4152 
 177      06E98E8D 
 177      BF6F70A3 
 178 00a3 CE0F6D5B 		.ascii	"\316\017m[\216\346\221O\316\323\376\276\367\304\254"
 178      8EE6914F 
 178      CED3FEBE 
 178      F7C4AC
 179 00b2 55AADCB6 		.ascii	"U\252\334\266\313\005\246D(\024\305s\2227\364c\357i"
 179      CB05A644 
 179      2814C573 
 179      9237F463 
 179      EF69
 180 00c4 F019A963 		.ascii	"\360\031\251c\332~\005\367a\\\323\357(\246?QL\177\243"
 180      DA7E05F7 
 180      615CD3EF 
 180      28A63F51 
ARM GAS  /tmp/ccQa7PDD.s 			page 13


 180      4C7FA3
 181 00d7 980EA298 		.ascii	"\230\016\242\230zQL\207\241L;R\273c\333\037\237\357"
 181      7A514C87 
 181      A14C3B52 
 181      BB63DB1F 
 181      9FEF
 182 00e9 EF77D9C4 		.ascii	"\357w\331\304)\0068\025\022\211\214\"+$*\212\022#\321"
 182      29063815 
 182      12898C22 
 182      2B242A8A 
 182      1223D1
 183 00fc E8522731 		.ascii	"\350R'1PT\223$N\222 I\222\244H\322$\031\350W\007\025"
 183      50549324 
 183      4E922049 
 183      92A448D2 
 183      2419E857 
 184 0112 3639AF4D 		.ascii	"69\257M\366\373\300\225\353\353u\032ny\0276Z\255\346"
 184      F6FBC095 
 184      EBEB751A 
 184      6E791736 
 184      5AADE6
 185 0125 9925F60E 		.ascii	"\231%\366\0163W\030\243\376\200\327\253\234z\304\340"
 185      335718A3 
 185      FE80D7AB 
 185      9C7AC4E0 
 186 0135 8C884843 		.ascii	"\214\210HC\221O7ED\276\000M\276Y\311\024X\354\005la"
 186      914F3745 
 186      44BE004D 
 186      BE59C914 
 186      58EC056C 
 187 014a 9626B2FB 		.ascii	"\226&\262\373k\231\211\373\334\205\207\037d\341R\320"
 187      6B9989FB 
 187      DC85871F 
 187      64E152D0 
 188 015a 48493273 		.ascii	"HI2sp\263N\340\010\026\033e\255\320\230Q\353\325mI\000"
 188      70B34EE0 
 188      08161B65 
 188      ADD09851 
 188      EBD56D49 
 189 016f 554A5378 		.ascii	"UJSx\273\306SC\255\307\206\"~\353\332p9]d\273\345\330"
 189      BBC65343 
 189      ADC78622 
 189      7EEBDA70 
 189      395D64BB 
 190 0185 51AD6392 		.ascii	"Q\255c\2226F\353\272\350i\200\205v\247\365\203\355\036"
 190      3646EBBA 
 190      E8698085 
 190      76A7F583 
 190      ED1E
 191 0197 134483F2 		.ascii	"\023D\203\362T\216\313\335\334V-\025\204\362\313\036"
 191      548ECBDD 
 191      DC562D15 
 191      84F2CB1E 
 192 01a7 D510D92E 		.ascii	"\325\020\331.\325\371\206\323?\261\2273\340\356\312"
 192      D5F986D3 
 192      3FB19733 
 192      E0EECA
ARM GAS  /tmp/ccQa7PDD.s 			page 14


 193 01b6 5B6F57CC 		.ascii	"[oW\314Pd3H\226}\262\215+\355\302\033><\036\012\036"
 193      50643348 
 193      967DB28D 
 193      2BEDC21B 
 193      3E3C1E0A 
 194 01cb 0FC2151F 		.ascii	"\017\302\025\037\016.\370\263\017N\034\013\276\010o"
 194      0E2EF8B3 
 194      0F4E1C0B 
 194      BE086F
 195 01da 08BC883E 		.ascii	"\010\274\210>\277\206\351\325H\004k\250^\215\2707k\003"
 195      BF86E9D5 
 195      48046BA8 
 195      5E8DB837 
 195      6B03
 196 01ec 15BB7EC5 		.ascii	"\025\273~\305d\250[I\006\313\304F\301\325\035\017\234"
 196      64A85B49 
 196      06CBC446 
 196      C1D51D0F 
 196      9C
 197 01fd 0A054E05 		.ascii	"\012\005N\005\301\332(\270\341\203\323\241\300\351 "
 197      C1DA28B8 
 197      E183D3A1 
 197      C0E920
 198 020c 58F7C0EE 		.ascii	"X\367\300\356+\214\233\357\2033\241\300\231 \330\030"
 198      2B8C9BEF 
 198      8333A1C0 
 198      9920D818 
 199 021c 047F8547 		.ascii	"\004\177\205G\235/?M\307\014p\037z\274\312q@\022yw\030"
 199      9D2F3F4D 
 199      C70C701F 
 199      7ABCCA71 
 199      40127977 
 200 0231 283379D6 		.ascii	"(3y\3269\320G\015\347\363\033T:\335\363\302\342\254"
 200      39D0470D 
 200      E7F31B54 
 200      3ADDF3C2 
 200      E2AC
 201 0243 1CA5D38B 		.ascii	"\034\245\323\213>\225\315ZWV\013\313\205k\013\326Z\311"
 201      3E95CD5A 
 201      57560BCB 
 201      856B0BD6 
 201      5AC9
 202 0255 5A5D2A5A 		.ascii	"Z]*Zw\326\356\256\227\254\205\334\374\364%kn\356\252"
 202      77D6EEAE 
 202      97AC85DC 
 202      FCF4256B 
 202      6EEEAA
 203 0268 959B9DBF 		.ascii	"\225\233\235\2777e\225\326o\025\213\267\263y\370\017"
 203      376595D6 
 203      6F158BB7 
 203      B379F80F 
 204 0278 9417E94C 		.ascii	"\224\027\351L"
 205              		.text
 206              		.section	.gnu.lto_.symbol_nodes.5db31db1af51a0b5,"",%progbits
 207 0000 789C4DC7 		.ascii	"x\234M\307;\022\301`\024\206\341\357\234?\367\310\032"
 207      3B12C160 
 207      1486E1EF 
ARM GAS  /tmp/ccQa7PDD.s 			page 15


 207      9C3FF7C8 
 207      1A
 208 0011 B2064BB2 		.ascii	"\262\006K\262\222/b\306\2442q[\201\212e\320+\325\250"
 208      922F62C6 
 208      A432715B 
 208      818A65D0 
 208      2BD5A8
 209 0024 D353184C 		.ascii	"\323S\030L\374\206\3636\357<\012\305P\340\323\027\010"
 209      FC86F336 
 209      EF3C0AC5 
 209      50E0D317 
 209      08
 210 0035 B447805C 		.ascii	"\264G\200\\7#\255\204b8\026\252a-t\206[a`\270\023\206"
 210      3723AD84 
 210      623816AA 
 210      612D7486 
 210      5B6160B8 
 211 004b 86376164 		.ascii	"\2067adx\027\306\206\017ab\330*\323/O\215\350\\\231"
 211      7817C686 
 211      0F6162D8 
 211      2AD32F4F 
 211      8DE85C99 
 212 005f FD294B65 		.ascii	"\375)Ke\356YU\"\013\345\340\257\225\262\370\311)P\237"
 212      EE595522 
 212      0BE5E0AF 
 212      95B2F8C9 
 212      29509F
 213 0072 9FE29CF8 		.ascii	"\237\342\234\370\007\352\037:\377(\360\217C\377$\307"
 213      07EA1F3A 
 213      FF28F08F 
 213      43FF24C7 
 214 0082 A47F1A61 		.ascii	"\244\177\032a\177\351\237\340\372y\214z\332\225.\035"
 214      7FE99FE0 
 214      FA798C7A 
 214      DA952E1D 
 215 0092 60D33F2B 		.ascii	"`\323?+p\230u%\336xxao"
 215      70987525 
 215      DE787861 
 215      6F
 216              		.text
 217              		.section	.gnu.lto_.refs.5db31db1af51a0b5,"",%progbits
 218 0000 789C6362 		.ascii	"x\234cb`b`d\200\002\000\000F\000\006"
 218      60626064 
 218      80020000 
 218      460006
 219              		.text
 220              		.section	.gnu.lto_.decls.5db31db1af51a0b5,"",%progbits
 221 0000 789CBD98 		.ascii	"x\234\275\230\177P\024\327\035\300\337\333\203\003\002"
 221      7F5014D7 
 221      1DC0DFDB 
 221      830302
 222 000f 4142D20C 		.ascii	"AB\322\014\376\323\340L\323\351\244\205\223\303N\355"
 222      FED3E04C 
 222      D3E9A485 
 222      93C34EED 
 223 001f 3FA97080 		.ascii	"?\251p\2000\025e\366\260\343\2443\275\256\307\022nz"
 223      301565F6 
ARM GAS  /tmp/ccQa7PDD.s 			page 16


 223      B0E3A433 
 223      BDAEC712 
 223      6E7A
 224 0031 3FCCDD41 		.ascii	"?\314\335A\360\257,\201\250\311\330\316I\224\242U<\215"
 224      F0AF2C81 
 224      A8C9D8CE 
 224      4994A255 
 224      3C8D
 225 0043 D2E050B1 		.ascii	"\322\340P\261D))\024O\253FC\177PM\211\205\2440\321\244"
 225      44292914 
 225      4FAB4643 
 225      7F504D89 
 225      85A430D1 
 226 0058 4D9C448D 		.ascii	"M\234D\215Z\307\211\015\375\276\267{w\373\366vq/\177"
 226      5AC7890D 
 226      FDBEB77B 
 226      77FBF676 
 226      712F7F
 227 006b F4CD7CBF 		.ascii	"\364\315|\277\273\367\366\275\317\367\373}\357\273\337"
 227      BBF7F6BD 
 227      CFF7FB7D 
 227      EFBBDF
 228 007a 7DC0210E 		.ascii	"}\300!\016e[\020Z\200\366\366R\204\3322\020\312C\010"
 228      655B105A 
 228      80F6F652 
 228      84DA3210 
 228      CA4308
 229 008d 3D8D922D 		.ascii	"=\215\222-\037\344\000H?\310\000\310 \310\020\3100\310"
 229      1FE40048 
 229      3FC800C8 
 229      20C810C8 
 229      30C8
 230 009f 09905190 		.ascii	"\011\220Q\2201\220\011\220S g@\316\201\234G\251\215"
 230      31900990 
 230      53206740 
 230      CE819C47 
 230      A98D
 231 00b1 70324126 		.ascii	"p2A&\025.\261u\011\344\262\362\234S\306\314\350\314"
 231      152EB175 
 231      09E4B2F2 
 231      9C53C6CC 
 231      E8CC
 232 00c3 ED3731B7 		.ascii	"\35571\267\337`\356\200\362\374\012\310A\325\370\001"
 232      DF60EE80 
 232      F2FC0AC8 
 232      41D5F801 
 233 00d3 C59EB60D 		.ascii	"\305\236\266\015\032\214\037Tlh\333\220\301\370!\305"
 233      1A8C1F54 
 233      6C68DB90 
 233      C1F821C5 
 234 00e3 86B60D1B 		.ascii	"\206\266\015\033\214\037Vlh\333\011\203\361'\024\033"
 234      8C1F566C 
 234      68DB0983 
 234      F127141B 
 235 00f3 DA366A30 		.ascii	"\3326j0~T\261\241mc\006\343I\377\031\235\361d\257\263"
 235      7E54B1A1 
 235      6D6306E3 
ARM GAS  /tmp/ccQa7PDD.s 			page 17


 235      49FF199D 
 235      F164AFB3 
 236 0107 41AEA2E4 		.ascii	"A\256\242\344^d\201\\\003\371P\305\301 \267\220\274"
 236      5E64815C 
 236      03F950C5 
 236      C120B790 
 236      BC
 237 0118 6F138ABF 		.ascii	"o\023\212\277c\212\037\347t\270$\177\226\200\024a\226"
 237      638A1FE7 
 237      74B8247F 
 237      96801461 
 237      96
 238 0129 BB12CBB6 		.ascii	"\273\022\313\266\010\177)\334\177\037\313v\254p\205"
 238      087F29DC 
 238      7F1FCB76 
 238      AC7085
 239 0138 9445D558 		.ascii	"\224E\325X\316\213\013 \017\201|\007~W\200,\020\037"
 239      CE8B0B20 
 239      0F817C07 
 239      7E57802C 
 239      101F
 240 014a E07A97F8 		.ascii	"\340z\227\370\000\327\233p\375\024\344\016\310'J\214"
 240      00D79B70 
 240      FD14E40E 
 240      C8274A8C 
 241 015a C4A65EAE 		.ascii	"\304\246^\256>\201\372\244\330\324\374K\037]\341vK\261"
 241      3E81FAA4 
 241      D8D4FC4B 
 241      1F5DE176 
 241      4BB1
 242 016c 2E095E11 		.ascii	".\011^\021\011\027?\216vI\320\242[$\011\207\005\374"
 242      09173F8E 
 242      7649D0A2 
 242      5B240987 
 242      05FC
 243 017e F4D7D006 		.ascii	"\364\327\320\006,\340\374\034TLo\362r\250?\010\011\370"
 243      2CE0FC1C 
 243      544C6FF2 
 243      72A83F08 
 243      09F8
 244 0190 207E5CB9 		.ascii	" ~\\\271[o\211\257h)FO\241\001\230\037\221\244\027\277"
 244      5B6F89AF 
 244      6829464F 
 244      A101981F 
 244      91A417BF 
 245 01a4 AE6314A1 		.ascii	"\256c\024\241o\242\303\304\200\364\272d\241x\0028\200"
 245      6FA2C3C4 
 245      80F4BA64 
 245      A1780238 
 245      80
 246 01b5 9F500F11 		.ascii	"\237P\017\021\360k\230Ku5\026\231\313\213t\314/,\354"
 246      F06B984B 
 246      75351699 
 246      CB8B74CC 
 246      2F2CEC
 247 01c8 8F16C8E6 		.ascii	"\217\026\310\3469\364\003\014\243\017\341\247\026\305"
 247      39F4030C 
ARM GAS  /tmp/ccQa7PDD.s 			page 18


 247      A30FE1A7 
 247      16C5
 248 01d6 F76BF1BF 		.ascii	"\367k\361\277\326\305O\244\342\177h\006?\240\305\037"
 248      D6C54FA4 
 248      E27F6806 
 248      3FA0C51F 
 249 01e6 D1C5DF4E 		.ascii	"\321\305\337N\305\377\304\014~P\213\377\215\036~~z\353"
 249      C5FFC40C 
 249      7E508BFF 
 249      8D1E7E7E 
 249      7AEB
 250 01f8 59AB6A1F 		.ascii	"Y\253j\037\343&va36\206\2646\216\351\206\360\336LJ\010"
 250      E3267661 
 250      333686B4 
 250      368EE986 
 250      F0DE4C4A 
 251 020d FDA6F8C3 		.ascii	"\375\246\370\303Z\376\033\2721|>y\246H'\206YS6Nhm\214"
 251      5AFE1BBA 
 251      317C3E79 
 251      A6482786 
 251      5953364E 
 252 0224 E8C630FA 		.ascii	"\350\3060\372\301y,uK\367\027\026:\2738\0247\361\231"
 252      C1792C75 
 252      4BF71716 
 252      3ABB3814 
 252      37F199
 253 0237 2913A35A 		.ascii	")\023\243Z\023o\352\232\350\373H\317D'g\306\304\230"
 253      136FEA9A 
 253      E8FB48CF 
 253      442767C6 
 253      C498
 254 0249 D6C478AA 		.ascii	"\326\304x\252\211hl~\356\342\365G\223+\225\260q\301"
 254      89686C7E 
 254      EEE2F547 
 254      932B95B0 
 254      71C1
 255 025b 948D09AD 		.ascii	"\224\215\011\255\215\223z6b\277\353\236\214\207\221"
 255      8D937A36 
 255      62BFEB9E 
 255      8C8791
 256 026a 91B070D1 		.ascii	"\221\260p\321\224\205SZ\013\247S-\314G\346\337\335\372"
 256      9485535A 
 256      0BA7532D 
 256      CC47E6DF 
 256      DDFA
 257 027c 5E17DED1 		.ascii	"^\027\336\321\031=/\335XXX\222\260\361\317\024\0332"
 257      193D2FDD 
 257      58585892 
 257      B0F1CF14 
 257      1B32
 258 028e E4AC2EE4 		.ascii	"\344\254.\344\352\335\267\3616\352\246%A\270i@xK\227"
 258      EADDB7F1 
 258      36EAA625 
 258      41B86940 
 258      784B97
 259 02a1 D0BBE7AF 		.ascii	"\320\273\347\257x\267t\232,\346\013\310|\001\274\240"
 259      78B7749A 
ARM GAS  /tmp/ccQa7PDD.s 			page 19


 259      2CE60BC8 
 259      7C01BCA0 
 260 02b1 14400B2D 		.ascii	"\024@\013-\263(\007m\203\242G&\326\236\207\332\2567"
 260      B328076D 
 260      83A24726 
 260      D69E87DA 
 260      AE37
 261 02c3 EB497408 		.ascii	"\353It\010J\343\374\337\177u\366\024~\021\370\002\236"
 261      4AE3FCDF 
 261      7F75F614 
 261      7E11F802 
 261      9E
 262 02d4 C439E425 		.ascii	"\3049\344%\312`\3355\217:y%\366K\334IQ\177\241\250\343"
 262      CA60DD35 
 262      8F3A7925 
 262      F64BDC49 
 262      517FA1A8 
 263 02e9 992C4AC0 		.ascii	"\231,J\300Y9\354\032\300\357\370\000\302\243\217\225"
 263      5939EC1A 
 263      C0EFF800 
 263      C2A38F95 
 264 02f9 1B724C5A 		.ascii	"\033rLZ\202\322\035\256\304/\007\203\324\037\004D\276"
 264      82D21DAE 
 264      C42F0783 
 264      D41F0444 
 264      BE
 265 030a 092733F5 		.ascii	"\011'3\365\367\342\"\273\027\217\240\010]\367U\275\371"
 265      F7E222BB 
 265      178FA008 
 265      5DF755BD 
 265      F9
 266 031b 4AF8F387 		.ascii	"J\370\363\207\245\242\242D\364\331\361\350q<z\362\221"
 266      A5A2A244 
 266      F4D9F1E8 
 266      713C7AF2 
 266      91
 267 032c E104FC0E 		.ascii	"\341\004\374\016\215{\212|\376\364\232<\000)^\313\367"
 267      8D7B8A7C 
 267      FEF49A3C 
 267      00295ECB 
 267      F7
 268 033d F1BB059C 		.ascii	"\361\273\005\234\300\027\304\361\2342\353\022~$\271"
 268      C017C4F1 
 268      9C32EB12 
 268      7E24B9
 269 034c 1792B217 		.ascii	"\027\222\262\027t\204Q>\274\253\262\223\227\223\274"
 269      7484513E 
 269      BCABB293 
 269      9793BC
 270 035b 893BA644 		.ascii	"\211;\246DX\334\233/[W8+\343\343\262\024\316\345\264"
 270      58DC9B2F 
 270      5B57382B 
 270      E3E3B214 
 270      CEE5B4
 271 036e 2DFFC3C0 		.ascii	"-\377\303\300\262U\261\254\224\327\331\317\246\266\343"
 271      B255B1AC 
 271      94D7D9CF 
ARM GAS  /tmp/ccQa7PDD.s 			page 20


 271      A6B6E3
 272 037d 1D435B24 		.ascii	"\035C[$R\304_\330\037\213d\230O\366Y6\331\345\315\326"
 272      52C45FD8 
 272      1F8B6498 
 272      4FF65936 
 272      D9E5CDD6 
 273 0391 EC749755 		.ascii	"\354t\227U\275\323t$\207\272\255J\374\337@\257IPN\376"
 273      BDD37424 
 273      87BAAD4A 
 273      FCDF40AF 
 273      49504EFE 
 274 03a5 762E2F92 		.ascii	"v./\222H\374(\2351\003\325B\317n\"\243\224\022s\253"
 274      48FC289D 
 274      3103D542 
 274      CF6E22A3 
 274      941273AB 
 275 03b9 A3A12851 		.ascii	"\243\241(Qbf\264%\346}6\237r\321+\311wH\256\013F\261"
 275      6266B425 
 275      E67D369F 
 275      72D12BC9 
 275      7748AE0B 
 276 03cf 5DC1B9BA 		.ascii	"]\301\271\272\263\012\321\016\272a\252wP\262\306'\377"
 276      B30AD10E 
 276      BA61AA77 
 276      50B2C627 
 276      FF
 277 03e0 14255EC2 		.ascii	"\024%^\302}\267n\370\345w\360C\\H\276WV6\343\037\310"
 277      7DB76EF8 
 277      E577F043 
 277      5C48BE57 
 277      5636E31F 
 278 03f5 214EFC1B 		.ascii	"!N\374\033\246\312\223\344\344\216\275:\233'e\310\375"
 278      A6CA93E4 
 278      E48EBD3A 
 278      9B2765C8 
 278      FD
 279 0406 48E70552 		.ascii	"H\347\005R\3322\024\225\272:c\273f\367.\225\242\247"
 279      DA321495 
 279      BA3A63BB 
 279      66F72E95 
 279      A2A7
 280 0418 31CD99CE 		.ascii	"1\315\231\316E+\207\200\377\204\2374\365bs\350_4\022"
 280      452B8780 
 280      FF849F34 
 280      F56273E8 
 280      5F3412
 281 042b E2821E29 		.ascii	"\342\202\036)\221n\361\334\313\317\321\270\3253\233"
 281      916EF1DC 
 281      CBCFD1B8 
 281      D5339B
 282 043a 1711047C 		.ascii	"\027\021\004|\215n\366\265\264a\305\014\254W\015\273"
 282      8D6EF6B5 
 282      B461C50C 
 282      AC570DBB 
 283 044a 6E06966D 		.ascii	"n\006\226m\354\331\0365\354v\3320\326\263\275j\330="
 283      ECD91E35 
 283      EC76DA30 
ARM GAS  /tmp/ccQa7PDD.s 			page 21


 283      D6B3BD6A 
 283      D83D
 284 045c 33B00263 		.ascii	"3\260\002c\317\372\324\260\373i\303X\317\216\251aR\226"
 284      CFFAD4B0 
 284      FB69C358 
 284      CF8EA961 
 284      5296
 285 046e 095891B1 		.ascii	"\011X\221\261g\303j\330\226\264a\254g\307\325\260\355"
 285      67C36AD8 
 285      96B461AC 
 285      67C7D5B0 
 285      ED
 286 047f 6660C5C6 		.ascii	"f`\305\306\236\215\250a;\322\206\261\236\215\252a\273"
 286      9E8DA861 
 286      3BD286B1 
 286      9E8DAA61 
 286      BB
 287 0490 CCC0BE65 		.ascii	"\314\300\276e\354\331\357\325\260\335i\303X\317\306"
 287      ECD9EFD5 
 287      B0DD69C3 
 287      58CFC6
 288 049f D5B07D66 		.ascii	"\325\260}f`\313\215<\353\210M\3748\"\304?I\244B^K~\222"
 288      60CB8D3C 
 288      EB884DFC 
 288      3822C43F 
 288      49A4425E 
 289 04b6 E044C9A4 		.ascii	"\340D\311\244\226z\330\244\3610\001o\345\322\375tm\343"
 289      967AD8A4 
 289      F130016F 
 289      E5D2FD74 
 289      6DE3
 290 04c8 F43F5DC9 		.ascii	"\364?]\311\357\212z\024\204}@\0336\353\205^\334\354"
 290      EF8A7A14 
 290      847D401B 
 290      36EB855E 
 290      DCEC
 291 04da 224EA917 		.ascii	"\"N\251\027\361\260\231E\\e\014\273\250\206\0351\003"
 291      F1B09945 
 291      5C650CBB 
 291      A8861D31 
 291      03
 292 04eb AB35CE95 		.ascii	"\2535\316\225w\324\260\243i\303X\317\246\325\2607\314"
 292      77D4B0A3 
 292      69C358CF 
 292      A6D5B037 
 292      CC
 293 04fc C01A8C3D 		.ascii	"\300\032\214=\273\254\206\215\244\015S{\326\021\233"
 293      BBAC868D 
 293      A40D537B 
 293      D6119B
 294 050b 49265E74 		.ascii	"I&^t\225&\363V\261\325\226\0316i8L\300=J\342%Oa\332"
 294      9526F356 
 294      B1D59619 
 294      3669384C 
 294      C03D4AE2 
 295 0523 9F1C1AD7 		.ascii	"\237\034\032\327\372\315P\224\333\015:\213\240\327\324"
 295      FACD5094 
ARM GAS  /tmp/ccQa7PDD.s 			page 22


 295      DB0D3A8B 
 295      A0D7D4
 296 0532 1F6C017F 		.ascii	"\037l\001\177L\277\250\237\340e\240?\245\372:\3257\251"
 296      4CBFA89F 
 296      E065A03F 
 296      A5FA3AD5 
 296      37A9
 297 0544 BE45F51D 		.ascii	"\276E\365\035\252\357R}\217\352/\250\376/\325\013Tw"
 297      AAEF527D 
 297      8FEA2FA8 
 297      FE2FD50B 
 297      5477
 298 0556 70447752 		.ascii	"pDwR\375\022\325\257P\275\235\352_P\035\241\272\233"
 298      FD12D5AF 
 298      50BD9DEA 
 298      5F501DA1 
 298      BA9B
 299 0568 EA9DA013 		.ascii	"\352\235\240\023\315\350\025\273j\376x\023\265\304'"
 299      CDE815BB 
 299      6AFE7813 
 299      B5C427
 300 0577 AF4089E3 		.ascii	"\257@\211\343\315\253_N\275\214\177+I\3607\377n\216"
 300      CDAB5F4E 
 300      BD8C7F2B 
 300      49F037FF 
 300      6E8E
 301 0589 9C6FEE64 		.ascii	"\234o\356d=\360|\303\202\210\027{9\315\371\346\356\034"
 301      3DF07CC3 
 301      8288177B 
 301      39CDF9E6 
 301      EE1C
 302 059b 3DDF90FE 		.ascii	"=\337\220\376\007\237o\276\230\333I\3177\361\034\354"
 302      079F6FBE 
 302      98DB49CF 
 302      37F11CEC 
 303 05ab C8C60AF3 		.ascii	"\310\306\012\363\253\035L\356\317\251\022\272+mX1\003"
 303      AB1D4CEE 
 303      CFA912BA 
 303      2B6D5831 
 303      03
 304 05bc FB520D7B 		.ascii	"\373R\015{\331\014l\221\203I\204\376\177\"/\216\373"
 304      D90C6C91 
 304      834984FE 
 304      7F222F8E 
 304      FB
 305 05cd 79DA38D6 		.ascii	"y\3328\326\267n\026\327c\006\267\310\341d'\213\333\237"
 305      B76E16D7 
 305      6306B7C8 
 305      E164278B 
 305      DB9F
 306 05df 368EF5AE 		.ascii	"6\216\365\256\207\305\365\233\301-r@\351eqG\323\306"
 306      87C5F59B 
 306      C12D7240 
 306      E9657147 
 306      D3C6
 307 05f1 B1DEED61 		.ascii	"\261\336\355aq#fp\305\306\336\355eqci\343X\357\372X"
 307      71236670 
ARM GAS  /tmp/ccQa7PDD.s 			page 23


 307      C5C6DEED 
 307      65716369 
 307      E358EFFA 
 308 0606 DC4933B8 		.ascii	"\334I3\270E\016*\307X\334[i\343X\357\206Y\334\237\315"
 308      450E2AC7 
 308      58DC5B69 
 308      E358EF86 
 308      59DC9FCD 
 309 061a E0F40E2B 		.ascii	"\340\364\016+zM]L\004\274\217#\265\267\217\326\303("
 309      7A4D5D4C 
 309      04BC8F23 
 309      B5B78FD6 
 309      C328
 310 062c D507A93E 		.ascii	"\325\007\251>Du?\325\257S}\204\352A\252\217R}\214\352"
 310      44753FD5 
 310      AF537D84 
 310      EA41AA8F 
 310      527D8CEA 
 311 0640 61AA8F53 		.ascii	"a\252\217S=b\246\242\366r\346\377`dN'rE\215\335\353"
 311      3D62A6A2 
 311      F672E6FF 
 311      60644E27 
 311      72458DDD 
 312 0655 21FFDC7C 		.ascii	"!\377\334|\223\026\323K\331\017\376c1\345\2345\256-"
 312      9316D34B 
 312      D90FFE63 
 312      31E59C35 
 312      AE2D
 313 0667 A6EF4FD3 		.ascii	"\246\357O\323b:n\252\230\336\234f\213\351\007\324\205"
 313      623A6EAA 
 313      98DE9C66 
 313      8BE907D4 
 313      85
 314 0678 F1AF5C4C 		.ascii	"\361\257\\L?\237N\324?\001\357\347\2704al\342\334\236"
 314      3F9F4ED4 
 314      3F01EFE7 
 314      B834616C 
 314      E2DC9E
 315 068b 5615D38F 		.ascii	"V\025\323\217\315x\266H1\375\217\032v#mX\361b98\256"
 315      CD78B648 
 315      31FD8F1A 
 315      76236D58 
 315      F1623938 
 316 06a0 CAC13FD0 		.ascii	"\312\301?\320\034\234\240\031\024\243\372\024\325\177"
 316      1C9CA019 
 316      14A3FA14 
 316      D57F
 317 06ae 34934DA3 		.ascii	"4\223M\243\006\331$\377\207\321h\326\331\344,\364\355"
 317      06D924FF 
 317      87D168D6 
 317      D9E42CF4 
 317      ED
 318 06bf D2529BA3 		.ascii	"\322R\233\243\305\263\321\263\316i\013\204l\301\260"
 318      C5B3D1B3 
 318      CE690B84 
 318      6CC1B0
 319 06ce 6D532018 		.ascii	"mS \030\016\331*\370zG}\273\315\335\342\016\004EW\333"
ARM GAS  /tmp/ccQa7PDD.s 			page 24


 319      0ED92AF8 
 319      7A477DBB 
 319      CDDDE20E 
 319      044557DB 
 320 06e2 F77CA52D 		.ascii	"\367|\245-(\207<ry\003\356\237YW\257]_\354@\271\264"
 320      28873C72 
 320      7903EE9F 
 320      5957AF5D 
 320      5FEC40B9 
 321 06f7 A3D54FBA 		.ascii	"\243\325O\272\012\023\017]\315\301\200\317\345\011\005"
 321      0A130F5D 
 321      CDC180CF 
 321      E50905
 322 0706 1F533D4E 		.ascii	"\037S=Nt.K1\350\361\273\275\255M\"\330\012m\016\201"
 322      742E4B31 
 322      E8F1BBBD 
 322      AD4D22D8 
 322      0A6D0E81 
 323 071a 9902778B 		.ascii	"\231\002w\213ssh\015L\252\2019uN\276\220v\254\247\034"
 323      7373680D 
 323      4CAA8139 
 323      754EBE90 
 323      76ACA71C 
 324 072e A54B4369 		.ascii	"\245KCi\021\274p\001\0058r\005J!\271\262\234\307\224"
 324      11BC7001 
 324      05387205 
 324      4A21B9B2 
 324      9CC794
 325 0741 2E86F428 		.ascii	".\206\364(\351\\\027j\364\370\304`\255\340o\362\212"
 325      E95C176A 
 325      F4F8C460 
 325      ADE06FF2 
 325      8A
 326 0752 C1BAB254 		.ascii	"\301\272\262T\272\274*\316\306\372r\273m\315\232*[c"
 326      BABC2ACE 
 326      C6FA72BB 
 326      6DCD9A2A 
 326      5B63
 327 0764 5D7D5B99 		.ascii	"]}[\231-\004\021{\233J\335(\373G\242;\034\010V.\317"
 327      2D04117B 
 327      9B4ADD28 
 327      FB47A23B 
 327      1C08562E 
 328 0779 95BB5C1E 		.ascii	"\225\273\\\036\277',\373\315\220\013]tM<\301\347\\\342"
 328      BF272CFB 
 328      CD900B5D 
 328      744D3CC1 
 328      E75CE2
 329 078c 268F37F0 		.ascii	"&\2177\360l\253Xbd\314\035\360\371\002\376\370N\370"
 329      6CAB5862 
 329      64CC1DF0 
 329      F902FEF8 
 329      4EF8
 330 079e DB3C6E08 		.ascii	"\333<n\010+d\3637S\371\256\255%\340\023mA1$\012Aw\013"
 330      2B64F337 
 330      53F9AEAD 
 330      25E0136D 
ARM GAS  /tmp/ccQa7PDD.s 			page 25


 330      4131240A 
 331 07b5 CC0B363D 		.ascii	"\314\0136=/\004E\233\020\364\331m\317\272\335%pS\"\372"
 331      2F04459B 
 331      10F4D96D 
 331      CFBADD25 
 331      705322FA 
 332 07c9 368A4D4D 		.ascii	"6\212MMbS\242"
 332      6253A2
 333 07d0 C31FF08B 		.ascii	"\303\037\360\213%\242\260\321S\262\302\265\262\304\276"
 333      25A2B0D1 
 333      53B2C2B5 
 333      B2C4BE
 334 07df BC6CC573 		.ascii	"\274l\305sv\033\363 \261\037\241p\223\307\037\006\233"
 334      761BF320 
 334      B11FA170 
 334      93C71F06 
 334      9B
 335 07f0 D9AD702D 		.ascii	"\331\255p-\267\273\302\235\370\377g\335'\270[<~\321"
 335      B7BBC29D 
 335      F8FF67DD 
 335      27B85B3C 
 335      7ED1
 336 0802 E66A129B 		.ascii	"\346j\022\233\205Vo\330\025\336\274I$\351\361\220\313"
 336      85566FD8 
 336      15DEBC49 
 336      24E9F190 
 336      CB
 337 0813 15F7A780 		.ascii	"\025\367\247\200,J\265_\330\350\025\345\365\317p\203"
 337      2C4AB55F 
 337      D8E815E5 
 337      F5CF7083 
 338 0823 23A5EC82 		.ascii	"#\245\354\202\212\355a\233\243\336Y\347L&\032Ii\267"
 338      8AED619B 
 338      A3DE59E7 
 338      4C261A49 
 338      69B7
 339 0835 AFA6D54F 		.ascii	"\257\246\325OV\364a\227+$\206]\225\025\316\352\006\276"
 339      56F46197 
 339      2B24865D 
 339      9515CEEA 
 339      06BE
 340 0847 EE61C1FB 		.ascii	"\356a\301\373\274\2609\004\373\347\005\353\231m\202"
 340      BCB03904 
 340      FBE705EB 
 340      996D82
 341 0856 B7555C61 		.ascii	"\267U\\a>\035|\304-\017yYr\023?\\a\213\203/\003\261"
 341      3E1D7CC4 
 341      2D0F7959 
 341      72133F5C 
 341      618B832F 
 342 086c 6738EB1D 		.ascii	"g8\353\035|FU]5\3179yK\365j>\323\341\250\347\313\250"
 342      7C46555D 
 342      35CF3979 
 342      4BF56A3E 
 342      D3E1A8E7 
 343 0882 B667381C 		.ascii	"\266g8\034\325\274\305\261\266\321\322\340tX*x\336\302"
 343      D5BCC5B1 
ARM GAS  /tmp/ccQa7PDD.s 			page 26


 343      B6D1D2E0 
 343      74582A78 
 343      DEC2
 344 0894 3BE0374C 		.ascii	";\3407L\250\254j\344-Udf}\005\317\255\223g\225\303\370"
 344      A8AC6AE4 
 344      2D556466 
 344      7D05CFAD 
 344      936795C3 
 345 08a9 0D7CB951 		.ascii	"\015|\271Q\254\316F\331\273\232\362\366v\331\257\346"
 345      ACCE46D9 
 345      BB9AF2F6 
 345      76D9AFE6 
 346 08b9 F2E5E5ED 		.ascii	"\362\345\345\355$\340\\\336\341p5\302jV\211\315\034"
 346      24E05CDE 
 346      E17035C2 
 346      6A5689CD 
 346      1C
 347 08ca 501D35AB 		.ascii	"P\0355\253\301N\035\237]\321Pi\347\235\215\364\246\214"
 347      C14E1D9F 
 347      5DD15069 
 347      E79D8DF4 
 347      A68C
 348 08dc DC582B6A 		.ascii	"\334X+j+\253\327\362Y\344\201r-\203+8D<sBGm%\031\227"
 348      2BABD7F2 
 348      59E48172 
 348      2D832B38 
 348      443C7342 
 349 08f5 491076AA 		.ascii	"I\020v\252\313\363\253*W\327;\326\307\015X\353\252\034"
 349      CBF3AB2A 
 349      57D73BD6 
 349      C70D58EB 
 349      AA1C
 350 0907 EBAAAAAD 		.ascii	"\353\252\252\255dj\3153\344b\257y\346\177kbe\364"
 350      646ACD33 
 350      E462AF79 
 350      E67F6B62 
 350      65F4
 351              		.text
 352              		.section	.gnu.lto_.symtab.5db31db1af51a0b5,"",%progbits
 353 0000 56656374 		.ascii	"VectorB0\000\000\000\000\000\000\000\000\000\000\000"
 353      6F724230 
 353      00000000 
 353      00000000 
 353      000000
 354 0013 00BE0000 		.ascii	"\000\276\000\000\000st_lld_init\000\000\000\000\000"
 354      0073745F 
 354      6C6C645F 
 354      696E6974 
 354      00000000 
 355 0028 00000000 		.ascii	"\000\000\000\000\000\000\000\301\000\000\000chSysTi"
 355      000000C1 
 355      00000063 
 355      68537973 
 355      5469
 356 003a 6D657248 		.ascii	"merHandlerI\000\000\002\000\000\000\000\000\000\000"
 356      616E646C 
 356      65724900 
ARM GAS  /tmp/ccQa7PDD.s 			page 27


 356      00020000 
 356      00000000 
 357 004f 0000C400 		.ascii	"\000\000\304\000\000\000_port_irq_epilogue\000\000\002"
 357      00005F70 
 357      6F72745F 
 357      6972715F 
 357      6570696C 
 358 006a 00000000 		.ascii	"\000\000\000\000\000\000\000\000\000\306\000\000\000"
 358      00000000 
 358      00C60000 
 358      00
 359 0077 6E766963 		.ascii	"nvicEnableVector\000\000\002\000\000\000\000\000\000"
 359      456E6162 
 359      6C655665 
 359      63746F72 
 359      00000200 
 360 0090 000000C8 		.ascii	"\000\000\000\310\000\000\000"
 360      000000
 361              		.text
 362              		.section	.gnu.lto_.opts,"",%progbits
 363 0000 272D6D63 		.ascii	"'-mcpu=cortex-m4' '-mno-thumb-interwork' '-mthumb' "
 363      70753D63 
 363      6F727465 
 363      782D6D34 
 363      2720272D 
 364 0033 272D6767 		.ascii	"'-ggdb' '-O0' '-fomit-frame-pointer' '-falign-funct"
 364      64622720 
 364      272D4F30 
 364      2720272D 
 364      666F6D69 
 365 0066 696F6E73 		.ascii	"ions=16' '-ffunction-sections' '-fdata-sections' '-"
 365      3D313627 
 365      20272D66 
 365      66756E63 
 365      74696F6E 
 366 0099 666E6F2D 		.ascii	"fno-common' '-flto'\000"
 366      636F6D6D 
 366      6F6E2720 
 366      272D666C 
 366      746F2700 
 367              		.text
 368              		.cfi_sections	.debug_frame
 369              		.section	.text.port_lock,"ax",%progbits
 370              		.align	2
 371              		.p2align 4,,15
 372              		.thumb
 373              		.thumb_func
 374              		.type	port_lock, %function
 375              	port_lock:
 376              	.LFB127:
 377              		.file 1 "../ChibiOS/os/rt/ports/ARMCMx/chcore_v7m.h"
 378              		.loc 1 456 0
 379              		.cfi_startproc
 380              		@ args = 0, pretend = 0, frame = 8
 381              		@ frame_needed = 0, uses_anonymous_args = 0
 382              		@ link register save eliminated.
 383 0000 82B0     		sub	sp, sp, #8
ARM GAS  /tmp/ccQa7PDD.s 			page 28


 384              		.cfi_def_cfa_offset 8
 385 0002 2023     		movs	r3, #32
 386 0004 0193     		str	r3, [sp, #4]
 387              	.LBB6:
 388              	.LBB7:
 389              		.file 2 "../ChibiOS/os/ext/CMSIS/include/core_cmFunc.h"
 390              		.loc 2 548 0
 391 0006 019B     		ldr	r3, [sp, #4]
 392              	@ 548 "../ChibiOS/os/ext/CMSIS/include/core_cmFunc.h" 1
 393 0008 83F31188 		MSR basepri, r3
 394              	@ 0 "" 2
 395              		.thumb
 396              	.LBE7:
 397              	.LBE6:
 398              		.loc 1 473 0
 399 000c 02B0     		add	sp, sp, #8
 400              		@ sp needed
 401 000e 7047     		bx	lr
 402              		.cfi_endproc
 403              	.LFE127:
 404              		.size	port_lock, .-port_lock
 405              		.section	.text.port_unlock,"ax",%progbits
 406              		.align	2
 407              		.p2align 4,,15
 408              		.thumb
 409              		.thumb_func
 410              		.type	port_unlock, %function
 411              	port_unlock:
 412              	.LFB128:
 413              		.loc 1 480 0
 414              		.cfi_startproc
 415              		@ args = 0, pretend = 0, frame = 8
 416              		@ frame_needed = 0, uses_anonymous_args = 0
 417              		@ link register save eliminated.
 418 0000 82B0     		sub	sp, sp, #8
 419              		.cfi_def_cfa_offset 8
 420 0002 0023     		movs	r3, #0
 421 0004 0193     		str	r3, [sp, #4]
 422              	.LBB8:
 423              	.LBB9:
 424              		.loc 2 548 0
 425 0006 019B     		ldr	r3, [sp, #4]
 426              	@ 548 "../ChibiOS/os/ext/CMSIS/include/core_cmFunc.h" 1
 427 0008 83F31188 		MSR basepri, r3
 428              	@ 0 "" 2
 429              		.thumb
 430              	.LBE9:
 431              	.LBE8:
 432              		.loc 1 487 0
 433 000c 02B0     		add	sp, sp, #8
 434              		@ sp needed
 435 000e 7047     		bx	lr
 436              		.cfi_endproc
 437              	.LFE128:
 438              		.size	port_unlock, .-port_unlock
 439              		.section	.text.port_lock_from_isr,"ax",%progbits
 440              		.align	2
ARM GAS  /tmp/ccQa7PDD.s 			page 29


 441              		.p2align 4,,15
 442              		.thumb
 443              		.thumb_func
 444              		.type	port_lock_from_isr, %function
 445              	port_lock_from_isr:
 446              	.LFB129:
 447              		.loc 1 495 0
 448              		.cfi_startproc
 449              		@ args = 0, pretend = 0, frame = 0
 450              		@ frame_needed = 0, uses_anonymous_args = 0
 451 0000 08B5     		push	{r3, lr}
 452              		.cfi_def_cfa_offset 8
 453              		.cfi_offset 3, -8
 454              		.cfi_offset 14, -4
 455              		.loc 1 497 0
 456 0002 FFF7FEFF 		bl	port_lock
 457              		.loc 1 498 0
 458 0006 08BD     		pop	{r3, pc}
 459              		.cfi_endproc
 460              	.LFE129:
 461              		.size	port_lock_from_isr, .-port_lock_from_isr
 462 0008 AFF30080 		.section	.text.port_unlock_from_isr,"ax",%progbits
 462      AFF30080 
 463              		.align	2
 464              		.p2align 4,,15
 465              		.thumb
 466              		.thumb_func
 467              		.type	port_unlock_from_isr, %function
 468              	port_unlock_from_isr:
 469              	.LFB130:
 470              		.loc 1 506 0
 471              		.cfi_startproc
 472              		@ args = 0, pretend = 0, frame = 0
 473              		@ frame_needed = 0, uses_anonymous_args = 0
 474 0000 08B5     		push	{r3, lr}
 475              		.cfi_def_cfa_offset 8
 476              		.cfi_offset 3, -8
 477              		.cfi_offset 14, -4
 478              		.loc 1 508 0
 479 0002 FFF7FEFF 		bl	port_unlock
 480              		.loc 1 509 0
 481 0006 08BD     		pop	{r3, pc}
 482              		.cfi_endproc
 483              	.LFE130:
 484              		.size	port_unlock_from_isr, .-port_unlock_from_isr
 485 0008 AFF30080 		.section	.text.chSysLockFromISR,"ax",%progbits
 485      AFF30080 
 486              		.align	2
 487              		.p2align 4,,15
 488              		.thumb
 489              		.thumb_func
 490              		.type	chSysLockFromISR, %function
 491              	chSysLockFromISR:
 492              	.LFB169:
 493              		.file 3 "../ChibiOS/os/rt/include/chsys.h"
 494              		.loc 3 386 0
 495              		.cfi_startproc
ARM GAS  /tmp/ccQa7PDD.s 			page 30


 496              		@ args = 0, pretend = 0, frame = 0
 497              		@ frame_needed = 0, uses_anonymous_args = 0
 498 0000 08B5     		push	{r3, lr}
 499              		.cfi_def_cfa_offset 8
 500              		.cfi_offset 3, -8
 501              		.cfi_offset 14, -4
 502              		.loc 3 388 0
 503 0002 FFF7FEFF 		bl	port_lock_from_isr
 504              		.loc 3 391 0
 505 0006 08BD     		pop	{r3, pc}
 506              		.cfi_endproc
 507              	.LFE169:
 508              		.size	chSysLockFromISR, .-chSysLockFromISR
 509              		.section	.text.chSysUnlockFromISR,"ax",%progbits
 510              		.align	2
 511              		.p2align 4,,15
 512              		.thumb
 513              		.thumb_func
 514              		.type	chSysUnlockFromISR, %function
 515              	chSysUnlockFromISR:
 516              	.LFB170:
 517              		.loc 3 406 0
 518              		.cfi_startproc
 519              		@ args = 0, pretend = 0, frame = 0
 520              		@ frame_needed = 0, uses_anonymous_args = 0
 521 0000 08B5     		push	{r3, lr}
 522              		.cfi_def_cfa_offset 8
 523              		.cfi_offset 3, -8
 524              		.cfi_offset 14, -4
 525              		.loc 3 410 0
 526 0002 FFF7FEFF 		bl	port_unlock_from_isr
 527              		.loc 3 411 0
 528 0006 08BD     		pop	{r3, pc}
 529              		.cfi_endproc
 530              	.LFE170:
 531              		.size	chSysUnlockFromISR, .-chSysUnlockFromISR
 532 0008 AFF30080 		.section	.text.osalSysLockFromISR,"ax",%progbits
 532      AFF30080 
 533              		.align	2
 534              		.p2align 4,,15
 535              		.thumb
 536              		.thumb_func
 537              		.type	osalSysLockFromISR, %function
 538              	osalSysLockFromISR:
 539              	.LFB247:
 540              		.file 4 "../ChibiOS/os/hal/osal/rt/osal.h"
 541              		.loc 4 513 0
 542              		.cfi_startproc
 543              		@ args = 0, pretend = 0, frame = 0
 544              		@ frame_needed = 0, uses_anonymous_args = 0
 545 0000 08B5     		push	{r3, lr}
 546              		.cfi_def_cfa_offset 8
 547              		.cfi_offset 3, -8
 548              		.cfi_offset 14, -4
 549              		.loc 4 515 0
 550 0002 FFF7FEFF 		bl	chSysLockFromISR
 551              		.loc 4 516 0
ARM GAS  /tmp/ccQa7PDD.s 			page 31


 552 0006 08BD     		pop	{r3, pc}
 553              		.cfi_endproc
 554              	.LFE247:
 555              		.size	osalSysLockFromISR, .-osalSysLockFromISR
 556              		.section	.text.osalSysUnlockFromISR,"ax",%progbits
 557              		.align	2
 558              		.p2align 4,,15
 559              		.thumb
 560              		.thumb_func
 561              		.type	osalSysUnlockFromISR, %function
 562              	osalSysUnlockFromISR:
 563              	.LFB248:
 564              		.loc 4 524 0
 565              		.cfi_startproc
 566              		@ args = 0, pretend = 0, frame = 0
 567              		@ frame_needed = 0, uses_anonymous_args = 0
 568 0000 08B5     		push	{r3, lr}
 569              		.cfi_def_cfa_offset 8
 570              		.cfi_offset 3, -8
 571              		.cfi_offset 14, -4
 572              		.loc 4 526 0
 573 0002 FFF7FEFF 		bl	chSysUnlockFromISR
 574              		.loc 4 527 0
 575 0006 08BD     		pop	{r3, pc}
 576              		.cfi_endproc
 577              	.LFE248:
 578              		.size	osalSysUnlockFromISR, .-osalSysUnlockFromISR
 579 0008 AFF30080 		.section	.text.osalOsTimerHandlerI,"ax",%progbits
 579      AFF30080 
 580              		.align	2
 581              		.p2align 4,,15
 582              		.thumb
 583              		.thumb_func
 584              		.type	osalOsTimerHandlerI, %function
 585              	osalOsTimerHandlerI:
 586              	.LFB252:
 587              		.loc 4 583 0
 588              		.cfi_startproc
 589              		@ args = 0, pretend = 0, frame = 0
 590              		@ frame_needed = 0, uses_anonymous_args = 0
 591 0000 08B5     		push	{r3, lr}
 592              		.cfi_def_cfa_offset 8
 593              		.cfi_offset 3, -8
 594              		.cfi_offset 14, -4
 595              		.loc 4 585 0
 596 0002 FFF7FEFF 		bl	chSysTimerHandlerI
 597              		.loc 4 586 0
 598 0006 08BD     		pop	{r3, pc}
 599              		.cfi_endproc
 600              	.LFE252:
 601              		.size	osalOsTimerHandlerI, .-osalOsTimerHandlerI
 602 0008 AFF30080 		.section	.text.VectorB0,"ax",%progbits
 602      AFF30080 
 603              		.align	2
 604              		.p2align 4,,15
 605              		.global	VectorB0
 606              		.thumb
ARM GAS  /tmp/ccQa7PDD.s 			page 32


 607              		.thumb_func
 608              		.type	VectorB0, %function
 609              	VectorB0:
 610              	.LFB272:
 611              		.file 5 "../ChibiOS/os/hal/ports/STM32/LLD/TIMv1/st_lld.c"
 612              		.loc 5 239 0
 613              		.cfi_startproc
 614              		@ args = 0, pretend = 0, frame = 0
 615              		@ frame_needed = 0, uses_anonymous_args = 0
 616 0000 08B5     		push	{r3, lr}
 617              		.cfi_def_cfa_offset 8
 618              		.cfi_offset 3, -8
 619              		.cfi_offset 14, -4
 620              		.loc 5 246 0
 621 0002 4FF08043 		mov	r3, #1073741824
 622 0006 1B69     		ldr	r3, [r3, #16]
 623 0008 03F00203 		and	r3, r3, #2
 624 000c 002B     		cmp	r3, #0
 625 000e 09D0     		beq	.L11
 626              		.loc 5 247 0
 627 0010 4FF08043 		mov	r3, #1073741824
 628 0014 0022     		movs	r2, #0
 629 0016 1A61     		str	r2, [r3, #16]
 630              		.loc 5 249 0
 631 0018 FFF7FEFF 		bl	osalSysLockFromISR
 632              		.loc 5 250 0
 633 001c FFF7FEFF 		bl	osalOsTimerHandlerI
 634              		.loc 5 251 0
 635 0020 FFF7FEFF 		bl	osalSysUnlockFromISR
 636              	.L11:
 637              		.loc 5 254 0
 638 0024 FFF7FEFF 		bl	_port_irq_epilogue
 639              		.loc 5 255 0
 640 0028 08BD     		pop	{r3, pc}
 641              		.cfi_endproc
 642              	.LFE272:
 643              		.size	VectorB0, .-VectorB0
 644 002a 00BFAFF3 		.section	.text.st_lld_init,"ax",%progbits
 644      0080
 645              		.align	2
 646              		.p2align 4,,15
 647              		.global	st_lld_init
 648              		.thumb
 649              		.thumb_func
 650              		.type	st_lld_init, %function
 651              	st_lld_init:
 652              	.LFB273:
 653              		.loc 5 267 0
 654              		.cfi_startproc
 655              		@ args = 0, pretend = 0, frame = 0
 656              		@ frame_needed = 0, uses_anonymous_args = 0
 657 0000 08B5     		push	{r3, lr}
 658              		.cfi_def_cfa_offset 8
 659              		.cfi_offset 3, -8
 660              		.cfi_offset 14, -4
 661              		.loc 5 273 0
 662 0002 194B     		ldr	r3, .L13
ARM GAS  /tmp/ccQa7PDD.s 			page 33


 663 0004 184A     		ldr	r2, .L13
 664 0006 D269     		ldr	r2, [r2, #28]
 665 0008 42F00102 		orr	r2, r2, #1
 666 000c DA61     		str	r2, [r3, #28]
 667              		.loc 5 276 0
 668 000e 174B     		ldr	r3, .L13+4
 669 0010 164A     		ldr	r2, .L13+4
 670 0012 9268     		ldr	r2, [r2, #8]
 671 0014 42F00102 		orr	r2, r2, #1
 672 0018 9A60     		str	r2, [r3, #8]
 673              		.loc 5 279 0
 674 001a 4FF08043 		mov	r3, #1073741824
 675 001e 41F61F42 		movw	r2, #7199
 676 0022 9A62     		str	r2, [r3, #40]
 677              		.loc 5 280 0
 678 0024 4FF08043 		mov	r3, #1073741824
 679 0028 4FF0FF32 		mov	r2, #-1
 680 002c DA62     		str	r2, [r3, #44]
 681              		.loc 5 281 0
 682 002e 4FF08043 		mov	r3, #1073741824
 683 0032 0022     		movs	r2, #0
 684 0034 9A61     		str	r2, [r3, #24]
 685              		.loc 5 282 0
 686 0036 4FF08043 		mov	r3, #1073741824
 687 003a 0022     		movs	r2, #0
 688 003c 5A63     		str	r2, [r3, #52]
 689              		.loc 5 283 0
 690 003e 4FF08043 		mov	r3, #1073741824
 691 0042 0022     		movs	r2, #0
 692 0044 DA60     		str	r2, [r3, #12]
 693              		.loc 5 284 0
 694 0046 4FF08043 		mov	r3, #1073741824
 695 004a 0022     		movs	r2, #0
 696 004c 5A60     		str	r2, [r3, #4]
 697              		.loc 5 285 0
 698 004e 4FF08043 		mov	r3, #1073741824
 699 0052 0122     		movs	r2, #1
 700 0054 5A61     		str	r2, [r3, #20]
 701              		.loc 5 286 0
 702 0056 4FF08043 		mov	r3, #1073741824
 703 005a 0122     		movs	r2, #1
 704 005c 1A60     		str	r2, [r3]
 705              		.loc 5 289 0
 706 005e 1C20     		movs	r0, #28
 707 0060 0821     		movs	r1, #8
 708 0062 FFF7FEFF 		bl	nvicEnableVector
 709              		.loc 5 304 0
 710 0066 08BD     		pop	{r3, pc}
 711              	.L14:
 712              		.align	2
 713              	.L13:
 714 0068 00100240 		.word	1073876992
 715 006c 002004E0 		.word	-536600576
 716              		.cfi_endproc
 717              	.LFE273:
 718              		.size	st_lld_init, .-st_lld_init
 719              		.text
ARM GAS  /tmp/ccQa7PDD.s 			page 34


 720              	.Letext0:
 721              		.file 6 "/nfs/nfs5/home/research/hardware/arm2/gcc-arm-embedded/gcc-arm-none-eabi-4_8-2014q2/arm-n
 722              		.file 7 "/nfs/nfs5/home/research/hardware/arm2/gcc-arm-embedded/gcc-arm-none-eabi-4_8-2014q2/arm-n
 723              		.file 8 "../ChibiOS/os/rt/ports/ARMCMx/compilers/GCC/chtypes.h"
 724              		.file 9 "../ChibiOS/os/rt/include/chsystypes.h"
 725              		.file 10 "../ChibiOS/os/rt/include/chschd.h"
 726              		.file 11 "../ChibiOS/os/ext/CMSIS/ST/STM32F3xx/stm32f303xc.h"
 727              		.file 12 "../ChibiOS/os/rt/ports/ARMCMx/chcore.h"
 728              		.file 13 "../ChibiOS/os/hal/ports/STM32/LLD/TIMv1/stm32_tim.h"
 729              		.file 14 "../ChibiOS/os/rt/include/chtm.h"
 730              		.file 15 "../ChibiOS/os/rt/include/chsem.h"
 731              		.file 16 "../ChibiOS/os/rt/include/chmtx.h"
 732              		.file 17 "../ChibiOS/os/ext/CMSIS/include/core_cm4.h"
 733              		.section	.debug_info,"",%progbits
 734              	.Ldebug_info0:
 735 0000 B0090000 		.4byte	0x9b0
 736 0004 0400     		.2byte	0x4
 737 0006 00000000 		.4byte	.Ldebug_abbrev0
 738 000a 04       		.byte	0x4
 739 000b 01       		.uleb128 0x1
 740 000c F0010000 		.4byte	.LASF140
 741 0010 01       		.byte	0x1
 742 0011 18030000 		.4byte	.LASF141
 743 0015 72050000 		.4byte	.LASF142
 744 0019 00000000 		.4byte	.Ldebug_ranges0+0
 745 001d 00000000 		.4byte	0
 746 0021 00000000 		.4byte	.Ldebug_line0
 747 0025 02       		.uleb128 0x2
 748 0026 04       		.byte	0x4
 749 0027 05       		.byte	0x5
 750 0028 696E7400 		.ascii	"int\000"
 751 002c 03       		.uleb128 0x3
 752 002d 04       		.byte	0x4
 753 002e 07       		.byte	0x7
 754 002f D0020000 		.4byte	.LASF0
 755 0033 03       		.uleb128 0x3
 756 0034 01       		.byte	0x1
 757 0035 06       		.byte	0x6
 758 0036 02010000 		.4byte	.LASF1
 759 003a 04       		.uleb128 0x4
 760 003b 33000000 		.4byte	.LASF5
 761 003f 06       		.byte	0x6
 762 0040 1C       		.byte	0x1c
 763 0041 45000000 		.4byte	0x45
 764 0045 03       		.uleb128 0x3
 765 0046 01       		.byte	0x1
 766 0047 08       		.byte	0x8
 767 0048 BA040000 		.4byte	.LASF2
 768 004c 03       		.uleb128 0x3
 769 004d 02       		.byte	0x2
 770 004e 05       		.byte	0x5
 771 004f DF040000 		.4byte	.LASF3
 772 0053 03       		.uleb128 0x3
 773 0054 02       		.byte	0x2
 774 0055 07       		.byte	0x7
 775 0056 7F010000 		.4byte	.LASF4
 776 005a 04       		.uleb128 0x4
ARM GAS  /tmp/ccQa7PDD.s 			page 35


 777 005b 83030000 		.4byte	.LASF6
 778 005f 06       		.byte	0x6
 779 0060 37       		.byte	0x37
 780 0061 65000000 		.4byte	0x65
 781 0065 03       		.uleb128 0x3
 782 0066 04       		.byte	0x4
 783 0067 05       		.byte	0x5
 784 0068 41010000 		.4byte	.LASF7
 785 006c 04       		.uleb128 0x4
 786 006d 1C060000 		.4byte	.LASF8
 787 0071 06       		.byte	0x6
 788 0072 38       		.byte	0x38
 789 0073 77000000 		.4byte	0x77
 790 0077 03       		.uleb128 0x3
 791 0078 04       		.byte	0x4
 792 0079 07       		.byte	0x7
 793 007a BD050000 		.4byte	.LASF9
 794 007e 03       		.uleb128 0x3
 795 007f 08       		.byte	0x8
 796 0080 05       		.byte	0x5
 797 0081 61010000 		.4byte	.LASF10
 798 0085 04       		.uleb128 0x4
 799 0086 50040000 		.4byte	.LASF11
 800 008a 06       		.byte	0x6
 801 008b 4E       		.byte	0x4e
 802 008c 90000000 		.4byte	0x90
 803 0090 03       		.uleb128 0x3
 804 0091 08       		.byte	0x8
 805 0092 07       		.byte	0x7
 806 0093 62000000 		.4byte	.LASF12
 807 0097 04       		.uleb128 0x4
 808 0098 B7060000 		.4byte	.LASF13
 809 009c 07       		.byte	0x7
 810 009d 2A       		.byte	0x2a
 811 009e 3A000000 		.4byte	0x3a
 812 00a2 04       		.uleb128 0x4
 813 00a3 B2040000 		.4byte	.LASF14
 814 00a7 07       		.byte	0x7
 815 00a8 41       		.byte	0x41
 816 00a9 5A000000 		.4byte	0x5a
 817 00ad 04       		.uleb128 0x4
 818 00ae 41050000 		.4byte	.LASF15
 819 00b2 07       		.byte	0x7
 820 00b3 42       		.byte	0x42
 821 00b4 6C000000 		.4byte	0x6c
 822 00b8 04       		.uleb128 0x4
 823 00b9 2A000000 		.4byte	.LASF16
 824 00bd 07       		.byte	0x7
 825 00be 4E       		.byte	0x4e
 826 00bf 85000000 		.4byte	0x85
 827 00c3 04       		.uleb128 0x4
 828 00c4 5E060000 		.4byte	.LASF17
 829 00c8 08       		.byte	0x8
 830 00c9 39       		.byte	0x39
 831 00ca AD000000 		.4byte	0xad
 832 00ce 04       		.uleb128 0x4
 833 00cf DC060000 		.4byte	.LASF18
ARM GAS  /tmp/ccQa7PDD.s 			page 36


 834 00d3 08       		.byte	0x8
 835 00d4 3C       		.byte	0x3c
 836 00d5 97000000 		.4byte	0x97
 837 00d9 04       		.uleb128 0x4
 838 00da 53010000 		.4byte	.LASF19
 839 00de 08       		.byte	0x8
 840 00df 3D       		.byte	0x3d
 841 00e0 97000000 		.4byte	0x97
 842 00e4 04       		.uleb128 0x4
 843 00e5 62040000 		.4byte	.LASF20
 844 00e9 08       		.byte	0x8
 845 00ea 3E       		.byte	0x3e
 846 00eb 97000000 		.4byte	0x97
 847 00ef 04       		.uleb128 0x4
 848 00f0 81040000 		.4byte	.LASF21
 849 00f4 08       		.byte	0x8
 850 00f5 40       		.byte	0x40
 851 00f6 AD000000 		.4byte	0xad
 852 00fa 04       		.uleb128 0x4
 853 00fb 49030000 		.4byte	.LASF22
 854 00ff 08       		.byte	0x8
 855 0100 41       		.byte	0x41
 856 0101 A2000000 		.4byte	0xa2
 857 0105 04       		.uleb128 0x4
 858 0106 77030000 		.4byte	.LASF23
 859 010a 08       		.byte	0x8
 860 010b 43       		.byte	0x43
 861 010c AD000000 		.4byte	0xad
 862 0110 04       		.uleb128 0x4
 863 0111 EA010000 		.4byte	.LASF24
 864 0115 08       		.byte	0x8
 865 0116 45       		.byte	0x45
 866 0117 A2000000 		.4byte	0xa2
 867 011b 04       		.uleb128 0x4
 868 011c FE050000 		.4byte	.LASF25
 869 0120 09       		.byte	0x9
 870 0121 33       		.byte	0x33
 871 0122 AD000000 		.4byte	0xad
 872 0126 04       		.uleb128 0x4
 873 0127 EE050000 		.4byte	.LASF26
 874 012b 09       		.byte	0x9
 875 012c 3F       		.byte	0x3f
 876 012d 31010000 		.4byte	0x131
 877 0131 05       		.uleb128 0x5
 878 0132 03030000 		.4byte	.LASF46
 879 0136 44       		.byte	0x44
 880 0137 0A       		.byte	0xa
 881 0138 C2       		.byte	0xc2
 882 0139 1D020000 		.4byte	0x21d
 883 013d 06       		.uleb128 0x6
 884 013e F8030000 		.4byte	.LASF27
 885 0142 0A       		.byte	0xa
 886 0143 C3       		.byte	0xc3
 887 0144 28020000 		.4byte	0x228
 888 0148 00       		.byte	0
 889 0149 06       		.uleb128 0x6
 890 014a 7A040000 		.4byte	.LASF28
ARM GAS  /tmp/ccQa7PDD.s 			page 37


 891 014e 0A       		.byte	0xa
 892 014f C5       		.byte	0xc5
 893 0150 28020000 		.4byte	0x228
 894 0154 04       		.byte	0x4
 895 0155 06       		.uleb128 0x6
 896 0156 E9000000 		.4byte	.LASF29
 897 015a 0A       		.byte	0xa
 898 015b C7       		.byte	0xc7
 899 015c EF000000 		.4byte	0xef
 900 0160 08       		.byte	0x8
 901 0161 06       		.uleb128 0x6
 902 0162 EC060000 		.4byte	.LASF30
 903 0166 0A       		.byte	0xa
 904 0167 C8       		.byte	0xc8
 905 0168 84050000 		.4byte	0x584
 906 016c 0C       		.byte	0xc
 907 016d 06       		.uleb128 0x6
 908 016e 6F010000 		.4byte	.LASF31
 909 0172 0A       		.byte	0xa
 910 0173 CA       		.byte	0xca
 911 0174 28020000 		.4byte	0x228
 912 0178 10       		.byte	0x10
 913 0179 06       		.uleb128 0x6
 914 017a 16040000 		.4byte	.LASF32
 915 017e 0A       		.byte	0xa
 916 017f CB       		.byte	0xcb
 917 0180 28020000 		.4byte	0x228
 918 0184 14       		.byte	0x14
 919 0185 06       		.uleb128 0x6
 920 0186 D0060000 		.4byte	.LASF33
 921 018a 0A       		.byte	0xa
 922 018b D2       		.byte	0xd2
 923 018c 31080000 		.4byte	0x831
 924 0190 18       		.byte	0x18
 925 0191 06       		.uleb128 0x6
 926 0192 1F000000 		.4byte	.LASF34
 927 0196 0A       		.byte	0xa
 928 0197 D8       		.byte	0xd8
 929 0198 43080000 		.4byte	0x843
 930 019c 1C       		.byte	0x1c
 931 019d 06       		.uleb128 0x6
 932 019e E9040000 		.4byte	.LASF35
 933 01a2 0A       		.byte	0xa
 934 01a3 DD       		.byte	0xdd
 935 01a4 D9000000 		.4byte	0xd9
 936 01a8 20       		.byte	0x20
 937 01a9 06       		.uleb128 0x6
 938 01aa FF040000 		.4byte	.LASF36
 939 01ae 0A       		.byte	0xa
 940 01af E1       		.byte	0xe1
 941 01b0 CE000000 		.4byte	0xce
 942 01b4 21       		.byte	0x21
 943 01b5 06       		.uleb128 0x6
 944 01b6 99060000 		.4byte	.LASF37
 945 01ba 0A       		.byte	0xa
 946 01bb E6       		.byte	0xe6
 947 01bc E4000000 		.4byte	0xe4
ARM GAS  /tmp/ccQa7PDD.s 			page 38


 948 01c0 22       		.byte	0x22
 949 01c1 07       		.uleb128 0x7
 950 01c2 705F7500 		.ascii	"p_u\000"
 951 01c6 0A       		.byte	0xa
 952 01c7 3701     		.2byte	0x137
 953 01c9 60070000 		.4byte	0x760
 954 01cd 24       		.byte	0x24
 955 01ce 08       		.uleb128 0x8
 956 01cf BB030000 		.4byte	.LASF38
 957 01d3 0A       		.byte	0xa
 958 01d4 3C01     		.2byte	0x13c
 959 01d6 2E020000 		.4byte	0x22e
 960 01da 28       		.byte	0x28
 961 01db 08       		.uleb128 0x8
 962 01dc EC020000 		.4byte	.LASF39
 963 01e0 0A       		.byte	0xa
 964 01e1 4201     		.2byte	0x142
 965 01e3 52020000 		.4byte	0x252
 966 01e7 2C       		.byte	0x2c
 967 01e8 08       		.uleb128 0x8
 968 01e9 FF030000 		.4byte	.LASF40
 969 01ed 0A       		.byte	0xa
 970 01ee 4801     		.2byte	0x148
 971 01f0 05010000 		.4byte	0x105
 972 01f4 34       		.byte	0x34
 973 01f5 08       		.uleb128 0x8
 974 01f6 D5040000 		.4byte	.LASF41
 975 01fa 0A       		.byte	0xa
 976 01fb 4F01     		.2byte	0x14f
 977 01fd 2B080000 		.4byte	0x82b
 978 0201 38       		.byte	0x38
 979 0202 08       		.uleb128 0x8
 980 0203 08060000 		.4byte	.LASF42
 981 0207 0A       		.byte	0xa
 982 0208 5301     		.2byte	0x153
 983 020a EF000000 		.4byte	0xef
 984 020e 3C       		.byte	0x3c
 985 020f 08       		.uleb128 0x8
 986 0210 9A010000 		.4byte	.LASF43
 987 0214 0A       		.byte	0xa
 988 0215 5A01     		.2byte	0x15a
 989 0217 05030000 		.4byte	0x305
 990 021b 40       		.byte	0x40
 991 021c 00       		.byte	0
 992 021d 04       		.uleb128 0x4
 993 021e CE030000 		.4byte	.LASF44
 994 0222 09       		.byte	0x9
 995 0223 44       		.byte	0x44
 996 0224 28020000 		.4byte	0x228
 997 0228 09       		.uleb128 0x9
 998 0229 04       		.byte	0x4
 999 022a 26010000 		.4byte	0x126
 1000 022e 04       		.uleb128 0x4
 1001 022f AC030000 		.4byte	.LASF45
 1002 0233 09       		.byte	0x9
 1003 0234 49       		.byte	0x49
 1004 0235 39020000 		.4byte	0x239
ARM GAS  /tmp/ccQa7PDD.s 			page 39


 1005 0239 05       		.uleb128 0x5
 1006 023a 62050000 		.4byte	.LASF47
 1007 023e 04       		.byte	0x4
 1008 023f 0A       		.byte	0xa
 1009 0240 B0       		.byte	0xb0
 1010 0241 52020000 		.4byte	0x252
 1011 0245 06       		.uleb128 0x6
 1012 0246 F8030000 		.4byte	.LASF27
 1013 024a 0A       		.byte	0xa
 1014 024b B1       		.byte	0xb1
 1015 024c 28020000 		.4byte	0x228
 1016 0250 00       		.byte	0
 1017 0251 00       		.byte	0
 1018 0252 04       		.uleb128 0x4
 1019 0253 80060000 		.4byte	.LASF48
 1020 0257 09       		.byte	0x9
 1021 0258 50       		.byte	0x50
 1022 0259 5D020000 		.4byte	0x25d
 1023 025d 05       		.uleb128 0x5
 1024 025e D8000000 		.4byte	.LASF49
 1025 0262 08       		.byte	0x8
 1026 0263 0A       		.byte	0xa
 1027 0264 B7       		.byte	0xb7
 1028 0265 82020000 		.4byte	0x282
 1029 0269 06       		.uleb128 0x6
 1030 026a F8030000 		.4byte	.LASF27
 1031 026e 0A       		.byte	0xa
 1032 026f B8       		.byte	0xb8
 1033 0270 28020000 		.4byte	0x228
 1034 0274 00       		.byte	0
 1035 0275 06       		.uleb128 0x6
 1036 0276 7A040000 		.4byte	.LASF28
 1037 027a 0A       		.byte	0xa
 1038 027b B9       		.byte	0xb9
 1039 027c 28020000 		.4byte	0x228
 1040 0280 04       		.byte	0x4
 1041 0281 00       		.byte	0
 1042 0282 04       		.uleb128 0x4
 1043 0283 00000000 		.4byte	.LASF50
 1044 0287 09       		.byte	0x9
 1045 0288 57       		.byte	0x57
 1046 0289 8D020000 		.4byte	0x28d
 1047 028d 0A       		.uleb128 0xa
 1048 028e 69030000 		.4byte	.LASF51
 1049 0292 1C       		.byte	0x1c
 1050 0293 0A       		.byte	0xa
 1051 0294 9201     		.2byte	0x192
 1052 0296 E9020000 		.4byte	0x2e9
 1053 029a 08       		.uleb128 0x8
 1054 029b 51050000 		.4byte	.LASF52
 1055 029f 0A       		.byte	0xa
 1056 02a0 9301     		.2byte	0x193
 1057 02a2 52020000 		.4byte	0x252
 1058 02a6 00       		.byte	0
 1059 02a7 08       		.uleb128 0x8
 1060 02a8 F1040000 		.4byte	.LASF53
 1061 02ac 0A       		.byte	0xa
ARM GAS  /tmp/ccQa7PDD.s 			page 40


 1062 02ad 9401     		.2byte	0x194
 1063 02af EF000000 		.4byte	0xef
 1064 02b3 08       		.byte	0x8
 1065 02b4 08       		.uleb128 0x8
 1066 02b5 1E040000 		.4byte	.LASF54
 1067 02b9 0A       		.byte	0xa
 1068 02ba 9601     		.2byte	0x196
 1069 02bc 84050000 		.4byte	0x584
 1070 02c0 0C       		.byte	0xc
 1071 02c1 08       		.uleb128 0x8
 1072 02c2 92010000 		.4byte	.LASF55
 1073 02c6 0A       		.byte	0xa
 1074 02c7 9901     		.2byte	0x199
 1075 02c9 28020000 		.4byte	0x228
 1076 02cd 10       		.byte	0x10
 1077 02ce 08       		.uleb128 0x8
 1078 02cf 56060000 		.4byte	.LASF56
 1079 02d3 0A       		.byte	0xa
 1080 02d4 9A01     		.2byte	0x19a
 1081 02d6 28020000 		.4byte	0x228
 1082 02da 14       		.byte	0x14
 1083 02db 08       		.uleb128 0x8
 1084 02dc 3D040000 		.4byte	.LASF57
 1085 02e0 0A       		.byte	0xa
 1086 02e1 9D01     		.2byte	0x19d
 1087 02e3 28020000 		.4byte	0x228
 1088 02e7 18       		.byte	0x18
 1089 02e8 00       		.byte	0
 1090 02e9 04       		.uleb128 0x4
 1091 02ea 13060000 		.4byte	.LASF58
 1092 02ee 09       		.byte	0x9
 1093 02ef 5C       		.byte	0x5c
 1094 02f0 F4020000 		.4byte	0x2f4
 1095 02f4 09       		.uleb128 0x9
 1096 02f5 04       		.byte	0x4
 1097 02f6 FA020000 		.4byte	0x2fa
 1098 02fa 0B       		.uleb128 0xb
 1099 02fb 05030000 		.4byte	0x305
 1100 02ff 0C       		.uleb128 0xc
 1101 0300 05030000 		.4byte	0x305
 1102 0304 00       		.byte	0
 1103 0305 0D       		.uleb128 0xd
 1104 0306 04       		.byte	0x4
 1105 0307 04       		.uleb128 0x4
 1106 0308 6A040000 		.4byte	.LASF59
 1107 030c 09       		.byte	0x9
 1108 030d 61       		.byte	0x61
 1109 030e 12030000 		.4byte	0x312
 1110 0312 0A       		.uleb128 0xa
 1111 0313 0F050000 		.4byte	.LASF60
 1112 0317 14       		.byte	0x14
 1113 0318 0A       		.byte	0xa
 1114 0319 6D01     		.2byte	0x16d
 1115 031b 61030000 		.4byte	0x361
 1116 031f 08       		.uleb128 0x8
 1117 0320 DD020000 		.4byte	.LASF61
 1118 0324 0A       		.byte	0xa
ARM GAS  /tmp/ccQa7PDD.s 			page 41


 1119 0325 6E01     		.2byte	0x16e
 1120 0327 49080000 		.4byte	0x849
 1121 032b 00       		.byte	0
 1122 032c 08       		.uleb128 0x8
 1123 032d AB010000 		.4byte	.LASF62
 1124 0331 0A       		.byte	0xa
 1125 0332 6F01     		.2byte	0x16f
 1126 0334 49080000 		.4byte	0x849
 1127 0338 04       		.byte	0x4
 1128 0339 08       		.uleb128 0x8
 1129 033a 59050000 		.4byte	.LASF63
 1130 033e 0A       		.byte	0xa
 1131 033f 7001     		.2byte	0x170
 1132 0341 1B010000 		.4byte	0x11b
 1133 0345 08       		.byte	0x8
 1134 0346 08       		.uleb128 0x8
 1135 0347 F2060000 		.4byte	.LASF64
 1136 034b 0A       		.byte	0xa
 1137 034c 7101     		.2byte	0x171
 1138 034e E9020000 		.4byte	0x2e9
 1139 0352 0C       		.byte	0xc
 1140 0353 08       		.uleb128 0x8
 1141 0354 79060000 		.4byte	.LASF65
 1142 0358 0A       		.byte	0xa
 1143 0359 7301     		.2byte	0x173
 1144 035b 05030000 		.4byte	0x305
 1145 035f 10       		.byte	0x10
 1146 0360 00       		.byte	0
 1147 0361 04       		.uleb128 0x4
 1148 0362 9C000000 		.4byte	.LASF66
 1149 0366 09       		.byte	0x9
 1150 0367 66       		.byte	0x66
 1151 0368 6C030000 		.4byte	0x36c
 1152 036c 0A       		.uleb128 0xa
 1153 036d E1030000 		.4byte	.LASF67
 1154 0371 10       		.byte	0x10
 1155 0372 0A       		.byte	0xa
 1156 0373 7D01     		.2byte	0x17d
 1157 0375 AE030000 		.4byte	0x3ae
 1158 0379 08       		.uleb128 0x8
 1159 037a DD020000 		.4byte	.LASF61
 1160 037e 0A       		.byte	0xa
 1161 037f 7E01     		.2byte	0x17e
 1162 0381 49080000 		.4byte	0x849
 1163 0385 00       		.byte	0
 1164 0386 08       		.uleb128 0x8
 1165 0387 AB010000 		.4byte	.LASF62
 1166 038b 0A       		.byte	0xa
 1167 038c 8001     		.2byte	0x180
 1168 038e 49080000 		.4byte	0x849
 1169 0392 04       		.byte	0x4
 1170 0393 08       		.uleb128 0x8
 1171 0394 59050000 		.4byte	.LASF63
 1172 0398 0A       		.byte	0xa
 1173 0399 8201     		.2byte	0x182
 1174 039b 1B010000 		.4byte	0x11b
 1175 039f 08       		.byte	0x8
ARM GAS  /tmp/ccQa7PDD.s 			page 42


 1176 03a0 08       		.uleb128 0x8
 1177 03a1 0A040000 		.4byte	.LASF68
 1178 03a5 0A       		.byte	0xa
 1179 03a6 8A01     		.2byte	0x18a
 1180 03a8 1B010000 		.4byte	0x11b
 1181 03ac 0C       		.byte	0xc
 1182 03ad 00       		.byte	0
 1183 03ae 04       		.uleb128 0x4
 1184 03af 49000000 		.4byte	.LASF69
 1185 03b3 09       		.byte	0x9
 1186 03b4 6B       		.byte	0x6b
 1187 03b5 B9030000 		.4byte	0x3b9
 1188 03b9 0A       		.uleb128 0xa
 1189 03ba 9C040000 		.4byte	.LASF70
 1190 03be 04       		.byte	0x4
 1191 03bf 0A       		.byte	0xa
 1192 03c0 A401     		.2byte	0x1a4
 1193 03c2 D4030000 		.4byte	0x3d4
 1194 03c6 08       		.uleb128 0x8
 1195 03c7 35060000 		.4byte	.LASF71
 1196 03cb 0A       		.byte	0xa
 1197 03cc AC01     		.2byte	0x1ac
 1198 03ce 4F080000 		.4byte	0x84f
 1199 03d2 00       		.byte	0
 1200 03d3 00       		.byte	0
 1201 03d4 04       		.uleb128 0x4
 1202 03d5 56030000 		.4byte	.LASF72
 1203 03d9 09       		.byte	0x9
 1204 03da 70       		.byte	0x70
 1205 03db DF030000 		.4byte	0x3df
 1206 03df 0E       		.uleb128 0xe
 1207 03e0 37010000 		.4byte	.LASF73
 1208 03e4 5001     		.2byte	0x150
 1209 03e6 0A       		.byte	0xa
 1210 03e7 C401     		.2byte	0x1c4
 1211 03e9 3B040000 		.4byte	0x43b
 1212 03ed 08       		.uleb128 0x8
 1213 03ee A5060000 		.4byte	.LASF74
 1214 03f2 0A       		.byte	0xa
 1215 03f3 C801     		.2byte	0x1c8
 1216 03f5 82020000 		.4byte	0x282
 1217 03f9 00       		.byte	0
 1218 03fa 08       		.uleb128 0x8
 1219 03fb B3010000 		.4byte	.LASF75
 1220 03ff 0A       		.byte	0xa
 1221 0400 CC01     		.2byte	0x1cc
 1222 0402 61030000 		.4byte	0x361
 1223 0406 1C       		.byte	0x1c
 1224 0407 07       		.uleb128 0x7
 1225 0408 64626700 		.ascii	"dbg\000"
 1226 040c 0A       		.byte	0xa
 1227 040d D001     		.2byte	0x1d0
 1228 040f AE030000 		.4byte	0x3ae
 1229 0413 2C       		.byte	0x2c
 1230 0414 08       		.uleb128 0x8
 1231 0415 89000000 		.4byte	.LASF76
 1232 0419 0A       		.byte	0xa
ARM GAS  /tmp/ccQa7PDD.s 			page 43


 1233 041a D401     		.2byte	0x1d4
 1234 041c 26010000 		.4byte	0x126
 1235 0420 30       		.byte	0x30
 1236 0421 07       		.uleb128 0x7
 1237 0422 746D00   		.ascii	"tm\000"
 1238 0425 0A       		.byte	0xa
 1239 0426 D901     		.2byte	0x1d9
 1240 0428 55070000 		.4byte	0x755
 1241 042c 74       		.byte	0x74
 1242 042d 08       		.uleb128 0x8
 1243 042e DB010000 		.4byte	.LASF77
 1244 0432 0A       		.byte	0xa
 1245 0433 E501     		.2byte	0x1e5
 1246 0435 54080000 		.4byte	0x854
 1247 0439 78       		.byte	0x78
 1248 043a 00       		.byte	0
 1249 043b 03       		.uleb128 0x3
 1250 043c 04       		.byte	0x4
 1251 043d 07       		.byte	0x7
 1252 043e C5030000 		.4byte	.LASF78
 1253 0442 0F       		.uleb128 0xf
 1254 0443 AD000000 		.4byte	0xad
 1255 0447 10       		.uleb128 0x10
 1256 0448 AD000000 		.4byte	0xad
 1257 044c 57040000 		.4byte	0x457
 1258 0450 11       		.uleb128 0x11
 1259 0451 3B040000 		.4byte	0x43b
 1260 0455 01       		.byte	0x1
 1261 0456 00       		.byte	0
 1262 0457 10       		.uleb128 0x10
 1263 0458 AD000000 		.4byte	0xad
 1264 045c 67040000 		.4byte	0x467
 1265 0460 11       		.uleb128 0x11
 1266 0461 3B040000 		.4byte	0x43b
 1267 0465 03       		.byte	0x3
 1268 0466 00       		.byte	0
 1269 0467 12       		.uleb128 0x12
 1270 0468 10       		.byte	0x10
 1271 0469 0B       		.byte	0xb
 1272 046a 5601     		.2byte	0x156
 1273 046c A4040000 		.4byte	0x4a4
 1274 0470 08       		.uleb128 0x8
 1275 0471 79000000 		.4byte	.LASF79
 1276 0475 0B       		.byte	0xb
 1277 0476 5801     		.2byte	0x158
 1278 0478 42040000 		.4byte	0x442
 1279 047c 00       		.byte	0
 1280 047d 07       		.uleb128 0x7
 1281 047e 435200   		.ascii	"CR\000"
 1282 0481 0B       		.byte	0xb
 1283 0482 5901     		.2byte	0x159
 1284 0484 42040000 		.4byte	0x442
 1285 0488 04       		.byte	0x4
 1286 0489 08       		.uleb128 0x8
 1287 048a 5B040000 		.4byte	.LASF80
 1288 048e 0B       		.byte	0xb
 1289 048f 5A01     		.2byte	0x15a
ARM GAS  /tmp/ccQa7PDD.s 			page 44


 1290 0491 42040000 		.4byte	0x442
 1291 0495 08       		.byte	0x8
 1292 0496 08       		.uleb128 0x8
 1293 0497 4F030000 		.4byte	.LASF81
 1294 049b 0B       		.byte	0xb
 1295 049c 5B01     		.2byte	0x15b
 1296 049e 42040000 		.4byte	0x442
 1297 04a2 0C       		.byte	0xc
 1298 04a3 00       		.byte	0
 1299 04a4 13       		.uleb128 0x13
 1300 04a5 32050000 		.4byte	.LASF82
 1301 04a9 0B       		.byte	0xb
 1302 04aa 5C01     		.2byte	0x15c
 1303 04ac 67040000 		.4byte	0x467
 1304 04b0 12       		.uleb128 0x12
 1305 04b1 34       		.byte	0x34
 1306 04b2 0B       		.byte	0xb
 1307 04b3 FB01     		.2byte	0x1fb
 1308 04b5 62050000 		.4byte	0x562
 1309 04b9 07       		.uleb128 0x7
 1310 04ba 435200   		.ascii	"CR\000"
 1311 04bd 0B       		.byte	0xb
 1312 04be FD01     		.2byte	0x1fd
 1313 04c0 42040000 		.4byte	0x442
 1314 04c4 00       		.byte	0
 1315 04c5 08       		.uleb128 0x8
 1316 04c6 D7060000 		.4byte	.LASF83
 1317 04ca 0B       		.byte	0xb
 1318 04cb FE01     		.2byte	0x1fe
 1319 04cd 42040000 		.4byte	0x442
 1320 04d1 04       		.byte	0x4
 1321 04d2 07       		.uleb128 0x7
 1322 04d3 43495200 		.ascii	"CIR\000"
 1323 04d7 0B       		.byte	0xb
 1324 04d8 FF01     		.2byte	0x1ff
 1325 04da 42040000 		.4byte	0x442
 1326 04de 08       		.byte	0x8
 1327 04df 08       		.uleb128 0x8
 1328 04e0 4A010000 		.4byte	.LASF84
 1329 04e4 0B       		.byte	0xb
 1330 04e5 0002     		.2byte	0x200
 1331 04e7 42040000 		.4byte	0x442
 1332 04eb 0C       		.byte	0xc
 1333 04ec 08       		.uleb128 0x8
 1334 04ed 47040000 		.4byte	.LASF85
 1335 04f1 0B       		.byte	0xb
 1336 04f2 0102     		.2byte	0x201
 1337 04f4 42040000 		.4byte	0x442
 1338 04f8 10       		.byte	0x10
 1339 04f9 08       		.uleb128 0x8
 1340 04fa FA060000 		.4byte	.LASF86
 1341 04fe 0B       		.byte	0xb
 1342 04ff 0202     		.2byte	0x202
 1343 0501 42040000 		.4byte	0x442
 1344 0505 14       		.byte	0x14
 1345 0506 08       		.uleb128 0x8
 1346 0507 07050000 		.4byte	.LASF87
ARM GAS  /tmp/ccQa7PDD.s 			page 45


 1347 050b 0B       		.byte	0xb
 1348 050c 0302     		.2byte	0x203
 1349 050e 42040000 		.4byte	0x442
 1350 0512 18       		.byte	0x18
 1351 0513 08       		.uleb128 0x8
 1352 0514 46060000 		.4byte	.LASF88
 1353 0518 0B       		.byte	0xb
 1354 0519 0402     		.2byte	0x204
 1355 051b 42040000 		.4byte	0x442
 1356 051f 1C       		.byte	0x1c
 1357 0520 08       		.uleb128 0x8
 1358 0521 A0060000 		.4byte	.LASF89
 1359 0525 0B       		.byte	0xb
 1360 0526 0502     		.2byte	0x205
 1361 0528 42040000 		.4byte	0x442
 1362 052c 20       		.byte	0x20
 1363 052d 07       		.uleb128 0x7
 1364 052e 43535200 		.ascii	"CSR\000"
 1365 0532 0B       		.byte	0xb
 1366 0533 0602     		.2byte	0x206
 1367 0535 42040000 		.4byte	0x442
 1368 0539 24       		.byte	0x24
 1369 053a 08       		.uleb128 0x8
 1370 053b 35040000 		.4byte	.LASF90
 1371 053f 0B       		.byte	0xb
 1372 0540 0702     		.2byte	0x207
 1373 0542 42040000 		.4byte	0x442
 1374 0546 28       		.byte	0x28
 1375 0547 08       		.uleb128 0x8
 1376 0548 AB060000 		.4byte	.LASF91
 1377 054c 0B       		.byte	0xb
 1378 054d 0802     		.2byte	0x208
 1379 054f 42040000 		.4byte	0x442
 1380 0553 2C       		.byte	0x2c
 1381 0554 08       		.uleb128 0x8
 1382 0555 B1060000 		.4byte	.LASF92
 1383 0559 0B       		.byte	0xb
 1384 055a 0902     		.2byte	0x209
 1385 055c 42040000 		.4byte	0x442
 1386 0560 30       		.byte	0x30
 1387 0561 00       		.byte	0
 1388 0562 13       		.uleb128 0x13
 1389 0563 F7020000 		.4byte	.LASF93
 1390 0567 0B       		.byte	0xb
 1391 0568 0A02     		.2byte	0x20a
 1392 056a B0040000 		.4byte	0x4b0
 1393 056e 04       		.uleb128 0x4
 1394 056f A2010000 		.4byte	.LASF94
 1395 0573 0C       		.byte	0xc
 1396 0574 65       		.byte	0x65
 1397 0575 05030000 		.4byte	0x305
 1398 0579 04       		.uleb128 0x4
 1399 057a 8D030000 		.4byte	.LASF95
 1400 057e 0C       		.byte	0xc
 1401 057f 6D       		.byte	0x6d
 1402 0580 B8000000 		.4byte	0xb8
 1403 0584 05       		.uleb128 0x5
ARM GAS  /tmp/ccQa7PDD.s 			page 46


 1404 0585 4E060000 		.4byte	.LASF96
 1405 0589 04       		.byte	0x4
 1406 058a 0C       		.byte	0xc
 1407 058b 89       		.byte	0x89
 1408 058c 9D050000 		.4byte	0x59d
 1409 0590 14       		.uleb128 0x14
 1410 0591 72313300 		.ascii	"r13\000"
 1411 0595 0C       		.byte	0xc
 1412 0596 8A       		.byte	0x8a
 1413 0597 18060000 		.4byte	0x618
 1414 059b 00       		.byte	0
 1415 059c 00       		.byte	0
 1416 059d 05       		.uleb128 0x5
 1417 059e 3D000000 		.4byte	.LASF97
 1418 05a2 24       		.byte	0x24
 1419 05a3 01       		.byte	0x1
 1420 05a4 FD       		.byte	0xfd
 1421 05a5 18060000 		.4byte	0x618
 1422 05a9 07       		.uleb128 0x7
 1423 05aa 723400   		.ascii	"r4\000"
 1424 05ad 01       		.byte	0x1
 1425 05ae 1001     		.2byte	0x110
 1426 05b0 6E050000 		.4byte	0x56e
 1427 05b4 00       		.byte	0
 1428 05b5 07       		.uleb128 0x7
 1429 05b6 723500   		.ascii	"r5\000"
 1430 05b9 01       		.byte	0x1
 1431 05ba 1101     		.2byte	0x111
 1432 05bc 6E050000 		.4byte	0x56e
 1433 05c0 04       		.byte	0x4
 1434 05c1 07       		.uleb128 0x7
 1435 05c2 723600   		.ascii	"r6\000"
 1436 05c5 01       		.byte	0x1
 1437 05c6 1201     		.2byte	0x112
 1438 05c8 6E050000 		.4byte	0x56e
 1439 05cc 08       		.byte	0x8
 1440 05cd 07       		.uleb128 0x7
 1441 05ce 723700   		.ascii	"r7\000"
 1442 05d1 01       		.byte	0x1
 1443 05d2 1301     		.2byte	0x113
 1444 05d4 6E050000 		.4byte	0x56e
 1445 05d8 0C       		.byte	0xc
 1446 05d9 07       		.uleb128 0x7
 1447 05da 723800   		.ascii	"r8\000"
 1448 05dd 01       		.byte	0x1
 1449 05de 1401     		.2byte	0x114
 1450 05e0 6E050000 		.4byte	0x56e
 1451 05e4 10       		.byte	0x10
 1452 05e5 07       		.uleb128 0x7
 1453 05e6 723900   		.ascii	"r9\000"
 1454 05e9 01       		.byte	0x1
 1455 05ea 1501     		.2byte	0x115
 1456 05ec 6E050000 		.4byte	0x56e
 1457 05f0 14       		.byte	0x14
 1458 05f1 07       		.uleb128 0x7
 1459 05f2 72313000 		.ascii	"r10\000"
 1460 05f6 01       		.byte	0x1
ARM GAS  /tmp/ccQa7PDD.s 			page 47


 1461 05f7 1601     		.2byte	0x116
 1462 05f9 6E050000 		.4byte	0x56e
 1463 05fd 18       		.byte	0x18
 1464 05fe 07       		.uleb128 0x7
 1465 05ff 72313100 		.ascii	"r11\000"
 1466 0603 01       		.byte	0x1
 1467 0604 1701     		.2byte	0x117
 1468 0606 6E050000 		.4byte	0x56e
 1469 060a 1C       		.byte	0x1c
 1470 060b 07       		.uleb128 0x7
 1471 060c 6C7200   		.ascii	"lr\000"
 1472 060f 01       		.byte	0x1
 1473 0610 1801     		.2byte	0x118
 1474 0612 6E050000 		.4byte	0x56e
 1475 0616 20       		.byte	0x20
 1476 0617 00       		.byte	0
 1477 0618 09       		.uleb128 0x9
 1478 0619 04       		.byte	0x4
 1479 061a 9D050000 		.4byte	0x59d
 1480 061e 12       		.uleb128 0x12
 1481 061f 60       		.byte	0x60
 1482 0620 0D       		.byte	0xd
 1483 0621 A101     		.2byte	0x1a1
 1484 0623 2A070000 		.4byte	0x72a
 1485 0627 07       		.uleb128 0x7
 1486 0628 43523100 		.ascii	"CR1\000"
 1487 062c 0D       		.byte	0xd
 1488 062d A201     		.2byte	0x1a2
 1489 062f 42040000 		.4byte	0x442
 1490 0633 00       		.byte	0
 1491 0634 07       		.uleb128 0x7
 1492 0635 43523200 		.ascii	"CR2\000"
 1493 0639 0D       		.byte	0xd
 1494 063a A301     		.2byte	0x1a3
 1495 063c 42040000 		.4byte	0x442
 1496 0640 04       		.byte	0x4
 1497 0641 08       		.uleb128 0x8
 1498 0642 13030000 		.4byte	.LASF98
 1499 0646 0D       		.byte	0xd
 1500 0647 A401     		.2byte	0x1a4
 1501 0649 42040000 		.4byte	0x442
 1502 064d 08       		.byte	0x8
 1503 064e 08       		.uleb128 0x8
 1504 064f 0D000000 		.4byte	.LASF99
 1505 0653 0D       		.byte	0xd
 1506 0654 A501     		.2byte	0x1a5
 1507 0656 42040000 		.4byte	0x442
 1508 065a 0C       		.byte	0xc
 1509 065b 07       		.uleb128 0x7
 1510 065c 535200   		.ascii	"SR\000"
 1511 065f 0D       		.byte	0xd
 1512 0660 A601     		.2byte	0x1a6
 1513 0662 42040000 		.4byte	0x442
 1514 0666 10       		.byte	0x10
 1515 0667 07       		.uleb128 0x7
 1516 0668 45475200 		.ascii	"EGR\000"
 1517 066c 0D       		.byte	0xd
ARM GAS  /tmp/ccQa7PDD.s 			page 48


 1518 066d A701     		.2byte	0x1a7
 1519 066f 42040000 		.4byte	0x442
 1520 0673 14       		.byte	0x14
 1521 0674 08       		.uleb128 0x8
 1522 0675 F0000000 		.4byte	.LASF100
 1523 0679 0D       		.byte	0xd
 1524 067a A801     		.2byte	0x1a8
 1525 067c 42040000 		.4byte	0x442
 1526 0680 18       		.byte	0x18
 1527 0681 08       		.uleb128 0x8
 1528 0682 F6000000 		.4byte	.LASF101
 1529 0686 0D       		.byte	0xd
 1530 0687 A901     		.2byte	0x1a9
 1531 0689 42040000 		.4byte	0x442
 1532 068d 1C       		.byte	0x1c
 1533 068e 08       		.uleb128 0x8
 1534 068f 5C010000 		.4byte	.LASF102
 1535 0693 0D       		.byte	0xd
 1536 0694 AA01     		.2byte	0x1aa
 1537 0696 42040000 		.4byte	0x442
 1538 069a 20       		.byte	0x20
 1539 069b 07       		.uleb128 0x7
 1540 069c 434E5400 		.ascii	"CNT\000"
 1541 06a0 0D       		.byte	0xd
 1542 06a1 AB01     		.2byte	0x1ab
 1543 06a3 42040000 		.4byte	0x442
 1544 06a7 24       		.byte	0x24
 1545 06a8 07       		.uleb128 0x7
 1546 06a9 50534300 		.ascii	"PSC\000"
 1547 06ad 0D       		.byte	0xd
 1548 06ae AC01     		.2byte	0x1ac
 1549 06b0 42040000 		.4byte	0x442
 1550 06b4 28       		.byte	0x28
 1551 06b5 07       		.uleb128 0x7
 1552 06b6 41525200 		.ascii	"ARR\000"
 1553 06ba 0D       		.byte	0xd
 1554 06bb AD01     		.2byte	0x1ad
 1555 06bd 42040000 		.4byte	0x442
 1556 06c1 2C       		.byte	0x2c
 1557 06c2 07       		.uleb128 0x7
 1558 06c3 52435200 		.ascii	"RCR\000"
 1559 06c7 0D       		.byte	0xd
 1560 06c8 AE01     		.2byte	0x1ae
 1561 06ca 42040000 		.4byte	0x442
 1562 06ce 30       		.byte	0x30
 1563 06cf 07       		.uleb128 0x7
 1564 06d0 43435200 		.ascii	"CCR\000"
 1565 06d4 0D       		.byte	0xd
 1566 06d5 AF01     		.2byte	0x1af
 1567 06d7 2A070000 		.4byte	0x72a
 1568 06db 34       		.byte	0x34
 1569 06dc 08       		.uleb128 0x8
 1570 06dd D3000000 		.4byte	.LASF103
 1571 06e1 0D       		.byte	0xd
 1572 06e2 B001     		.2byte	0x1b0
 1573 06e4 42040000 		.4byte	0x442
 1574 06e8 44       		.byte	0x44
ARM GAS  /tmp/ccQa7PDD.s 			page 49


 1575 06e9 07       		.uleb128 0x7
 1576 06ea 44435200 		.ascii	"DCR\000"
 1577 06ee 0D       		.byte	0xd
 1578 06ef B101     		.2byte	0x1b1
 1579 06f1 42040000 		.4byte	0x442
 1580 06f5 48       		.byte	0x48
 1581 06f6 08       		.uleb128 0x8
 1582 06f7 D4050000 		.4byte	.LASF104
 1583 06fb 0D       		.byte	0xd
 1584 06fc B201     		.2byte	0x1b2
 1585 06fe 42040000 		.4byte	0x442
 1586 0702 4C       		.byte	0x4c
 1587 0703 07       		.uleb128 0x7
 1588 0704 4F5200   		.ascii	"OR\000"
 1589 0707 0D       		.byte	0xd
 1590 0708 B301     		.2byte	0x1b3
 1591 070a 42040000 		.4byte	0x442
 1592 070e 50       		.byte	0x50
 1593 070f 08       		.uleb128 0x8
 1594 0710 FC000000 		.4byte	.LASF105
 1595 0714 0D       		.byte	0xd
 1596 0715 B401     		.2byte	0x1b4
 1597 0717 42040000 		.4byte	0x442
 1598 071b 54       		.byte	0x54
 1599 071c 08       		.uleb128 0x8
 1600 071d 2D050000 		.4byte	.LASF106
 1601 0721 0D       		.byte	0xd
 1602 0722 B501     		.2byte	0x1b5
 1603 0724 2F070000 		.4byte	0x72f
 1604 0728 58       		.byte	0x58
 1605 0729 00       		.byte	0
 1606 072a 0F       		.uleb128 0xf
 1607 072b 57040000 		.4byte	0x457
 1608 072f 0F       		.uleb128 0xf
 1609 0730 47040000 		.4byte	0x447
 1610 0734 13       		.uleb128 0x13
 1611 0735 0E010000 		.4byte	.LASF107
 1612 0739 0D       		.byte	0xd
 1613 073a B601     		.2byte	0x1b6
 1614 073c 1E060000 		.4byte	0x61e
 1615 0740 15       		.uleb128 0x15
 1616 0741 04       		.byte	0x4
 1617 0742 0E       		.byte	0xe
 1618 0743 38       		.byte	0x38
 1619 0744 55070000 		.4byte	0x755
 1620 0748 06       		.uleb128 0x6
 1621 0749 3F060000 		.4byte	.LASF108
 1622 074d 0E       		.byte	0xe
 1623 074e 3C       		.byte	0x3c
 1624 074f C3000000 		.4byte	0xc3
 1625 0753 00       		.byte	0
 1626 0754 00       		.byte	0
 1627 0755 04       		.uleb128 0x4
 1628 0756 24040000 		.4byte	.LASF109
 1629 075a 0E       		.byte	0xe
 1630 075b 3D       		.byte	0x3d
 1631 075c 40070000 		.4byte	0x740
ARM GAS  /tmp/ccQa7PDD.s 			page 50


 1632 0760 16       		.uleb128 0x16
 1633 0761 04       		.byte	0x4
 1634 0762 0A       		.byte	0xa
 1635 0763 FA       		.byte	0xfa
 1636 0764 C9070000 		.4byte	0x7c9
 1637 0768 17       		.uleb128 0x17
 1638 0769 18000000 		.4byte	.LASF110
 1639 076d 0A       		.byte	0xa
 1640 076e 0101     		.2byte	0x101
 1641 0770 FA000000 		.4byte	0xfa
 1642 0774 17       		.uleb128 0x17
 1643 0775 80000000 		.4byte	.LASF111
 1644 0779 0A       		.byte	0xa
 1645 077a 0801     		.2byte	0x108
 1646 077c FA000000 		.4byte	0xfa
 1647 0780 17       		.uleb128 0x17
 1648 0781 62030000 		.4byte	.LASF112
 1649 0785 0A       		.byte	0xa
 1650 0786 0F01     		.2byte	0x10f
 1651 0788 05030000 		.4byte	0x305
 1652 078c 17       		.uleb128 0x17
 1653 078d 12000000 		.4byte	.LASF113
 1654 0791 0A       		.byte	0xa
 1655 0792 1601     		.2byte	0x116
 1656 0794 C9070000 		.4byte	0x7c9
 1657 0798 17       		.uleb128 0x17
 1658 0799 94000000 		.4byte	.LASF114
 1659 079d 0A       		.byte	0xa
 1660 079e 1B01     		.2byte	0x11b
 1661 07a0 FA000000 		.4byte	0xfa
 1662 07a4 17       		.uleb128 0x17
 1663 07a5 E5020000 		.4byte	.LASF115
 1664 07a9 0A       		.byte	0xa
 1665 07aa 2401     		.2byte	0x124
 1666 07ac F4070000 		.4byte	0x7f4
 1667 07b0 17       		.uleb128 0x17
 1668 07b1 4A050000 		.4byte	.LASF116
 1669 07b5 0A       		.byte	0xa
 1670 07b6 2D01     		.2byte	0x12d
 1671 07b8 2B080000 		.4byte	0x82b
 1672 07bc 17       		.uleb128 0x17
 1673 07bd F8040000 		.4byte	.LASF117
 1674 07c1 0A       		.byte	0xa
 1675 07c2 3501     		.2byte	0x135
 1676 07c4 05010000 		.4byte	0x105
 1677 07c8 00       		.byte	0
 1678 07c9 09       		.uleb128 0x9
 1679 07ca 04       		.byte	0x4
 1680 07cb 1D020000 		.4byte	0x21d
 1681 07cf 05       		.uleb128 0x5
 1682 07d0 20050000 		.4byte	.LASF118
 1683 07d4 0C       		.byte	0xc
 1684 07d5 0F       		.byte	0xf
 1685 07d6 34       		.byte	0x34
 1686 07d7 F4070000 		.4byte	0x7f4
 1687 07db 06       		.uleb128 0x6
 1688 07dc 77010000 		.4byte	.LASF119
ARM GAS  /tmp/ccQa7PDD.s 			page 51


 1689 07e0 0F       		.byte	0xf
 1690 07e1 35       		.byte	0x35
 1691 07e2 52020000 		.4byte	0x252
 1692 07e6 00       		.byte	0
 1693 07e7 06       		.uleb128 0x6
 1694 07e8 0D030000 		.4byte	.LASF120
 1695 07ec 0F       		.byte	0xf
 1696 07ed 37       		.byte	0x37
 1697 07ee 10010000 		.4byte	0x110
 1698 07f2 08       		.byte	0x8
 1699 07f3 00       		.byte	0
 1700 07f4 09       		.uleb128 0x9
 1701 07f5 04       		.byte	0x4
 1702 07f6 CF070000 		.4byte	0x7cf
 1703 07fa 05       		.uleb128 0x5
 1704 07fb 90060000 		.4byte	.LASF121
 1705 07ff 10       		.byte	0x10
 1706 0800 10       		.byte	0x10
 1707 0801 39       		.byte	0x39
 1708 0802 2B080000 		.4byte	0x82b
 1709 0806 06       		.uleb128 0x6
 1710 0807 1A010000 		.4byte	.LASF122
 1711 080b 10       		.byte	0x10
 1712 080c 3A       		.byte	0x3a
 1713 080d 52020000 		.4byte	0x252
 1714 0811 00       		.byte	0
 1715 0812 06       		.uleb128 0x6
 1716 0813 E4060000 		.4byte	.LASF123
 1717 0817 10       		.byte	0x10
 1718 0818 3C       		.byte	0x3c
 1719 0819 28020000 		.4byte	0x228
 1720 081d 08       		.byte	0x8
 1721 081e 06       		.uleb128 0x6
 1722 081f F7050000 		.4byte	.LASF124
 1723 0823 10       		.byte	0x10
 1724 0824 3E       		.byte	0x3e
 1725 0825 6F080000 		.4byte	0x86f
 1726 0829 0C       		.byte	0xc
 1727 082a 00       		.byte	0
 1728 082b 09       		.uleb128 0x9
 1729 082c 04       		.byte	0x4
 1730 082d FA070000 		.4byte	0x7fa
 1731 0831 09       		.uleb128 0x9
 1732 0832 04       		.byte	0x4
 1733 0833 37080000 		.4byte	0x837
 1734 0837 18       		.uleb128 0x18
 1735 0838 3C080000 		.4byte	0x83c
 1736 083c 03       		.uleb128 0x3
 1737 083d 01       		.byte	0x1
 1738 083e 08       		.byte	0x8
 1739 083f CF050000 		.4byte	.LASF125
 1740 0843 09       		.uleb128 0x9
 1741 0844 04       		.byte	0x4
 1742 0845 79050000 		.4byte	0x579
 1743 0849 09       		.uleb128 0x9
 1744 084a 04       		.byte	0x4
 1745 084b 07030000 		.4byte	0x307
ARM GAS  /tmp/ccQa7PDD.s 			page 52


 1746 084f 0F       		.uleb128 0xf
 1747 0850 31080000 		.4byte	0x831
 1748 0854 10       		.uleb128 0x10
 1749 0855 79050000 		.4byte	0x579
 1750 0859 64080000 		.4byte	0x864
 1751 085d 11       		.uleb128 0x11
 1752 085e 3B040000 		.4byte	0x43b
 1753 0862 1A       		.byte	0x1a
 1754 0863 00       		.byte	0
 1755 0864 04       		.uleb128 0x4
 1756 0865 CD010000 		.4byte	.LASF126
 1757 0869 10       		.byte	0x10
 1758 086a 34       		.byte	0x34
 1759 086b FA070000 		.4byte	0x7fa
 1760 086f 09       		.uleb128 0x9
 1761 0870 04       		.byte	0x4
 1762 0871 64080000 		.4byte	0x864
 1763 0875 03       		.uleb128 0x3
 1764 0876 01       		.byte	0x1
 1765 0877 02       		.byte	0x2
 1766 0878 AC040000 		.4byte	.LASF127
 1767 087c 19       		.uleb128 0x19
 1768 087d 27060000 		.4byte	.LASF143
 1769 0881 02       		.byte	0x2
 1770 0882 2202     		.2byte	0x222
 1771 0884 03       		.byte	0x3
 1772 0885 96080000 		.4byte	0x896
 1773 0889 1A       		.uleb128 0x1a
 1774 088a D5010000 		.4byte	.LASF144
 1775 088e 02       		.byte	0x2
 1776 088f 2202     		.2byte	0x222
 1777 0891 AD000000 		.4byte	0xad
 1778 0895 00       		.byte	0
 1779 0896 1B       		.uleb128 0x1b
 1780 0897 58000000 		.4byte	.LASF128
 1781 089b 01       		.byte	0x1
 1782 089c C801     		.2byte	0x1c8
 1783 089e 00000000 		.4byte	.LFB127
 1784 08a2 10000000 		.4byte	.LFE127-.LFB127
 1785 08a6 01       		.uleb128 0x1
 1786 08a7 9C       		.byte	0x9c
 1787 08a8 C6080000 		.4byte	0x8c6
 1788 08ac 1C       		.uleb128 0x1c
 1789 08ad 7C080000 		.4byte	0x87c
 1790 08b1 06000000 		.4byte	.LBB6
 1791 08b5 06000000 		.4byte	.LBE6-.LBB6
 1792 08b9 01       		.byte	0x1
 1793 08ba D001     		.2byte	0x1d0
 1794 08bc 1D       		.uleb128 0x1d
 1795 08bd 89080000 		.4byte	0x889
 1796 08c1 02       		.uleb128 0x2
 1797 08c2 91       		.byte	0x91
 1798 08c3 7C       		.sleb128 -4
 1799 08c4 00       		.byte	0
 1800 08c5 00       		.byte	0
 1801 08c6 1B       		.uleb128 0x1b
 1802 08c7 2B010000 		.4byte	.LASF129
ARM GAS  /tmp/ccQa7PDD.s 			page 53


 1803 08cb 01       		.byte	0x1
 1804 08cc E001     		.2byte	0x1e0
 1805 08ce 00000000 		.4byte	.LFB128
 1806 08d2 10000000 		.4byte	.LFE128-.LFB128
 1807 08d6 01       		.uleb128 0x1
 1808 08d7 9C       		.byte	0x9c
 1809 08d8 F6080000 		.4byte	0x8f6
 1810 08dc 1C       		.uleb128 0x1c
 1811 08dd 7C080000 		.4byte	0x87c
 1812 08e1 06000000 		.4byte	.LBB8
 1813 08e5 06000000 		.4byte	.LBE8-.LBB8
 1814 08e9 01       		.byte	0x1
 1815 08ea E301     		.2byte	0x1e3
 1816 08ec 1D       		.uleb128 0x1d
 1817 08ed 89080000 		.4byte	0x889
 1818 08f1 02       		.uleb128 0x2
 1819 08f2 91       		.byte	0x91
 1820 08f3 7C       		.sleb128 -4
 1821 08f4 00       		.byte	0
 1822 08f5 00       		.byte	0
 1823 08f6 1E       		.uleb128 0x1e
 1824 08f7 66060000 		.4byte	.LASF130
 1825 08fb 01       		.byte	0x1
 1826 08fc EF01     		.2byte	0x1ef
 1827 08fe 00000000 		.4byte	.LFB129
 1828 0902 08000000 		.4byte	.LFE129-.LFB129
 1829 0906 01       		.uleb128 0x1
 1830 0907 9C       		.byte	0x9c
 1831 0908 1E       		.uleb128 0x1e
 1832 0909 D9050000 		.4byte	.LASF131
 1833 090d 01       		.byte	0x1
 1834 090e FA01     		.2byte	0x1fa
 1835 0910 00000000 		.4byte	.LFB130
 1836 0914 08000000 		.4byte	.LFE130-.LFB130
 1837 0918 01       		.uleb128 0x1
 1838 0919 9C       		.byte	0x9c
 1839 091a 1E       		.uleb128 0x1e
 1840 091b BF060000 		.4byte	.LASF132
 1841 091f 03       		.byte	0x3
 1842 0920 8201     		.2byte	0x182
 1843 0922 00000000 		.4byte	.LFB169
 1844 0926 08000000 		.4byte	.LFE169-.LFB169
 1845 092a 01       		.uleb128 0x1
 1846 092b 9C       		.byte	0x9c
 1847 092c 1E       		.uleb128 0x1e
 1848 092d 89040000 		.4byte	.LASF133
 1849 0931 03       		.byte	0x3
 1850 0932 9601     		.2byte	0x196
 1851 0934 00000000 		.4byte	.LFB170
 1852 0938 08000000 		.4byte	.LFE170-.LFB170
 1853 093c 01       		.uleb128 0x1
 1854 093d 9C       		.byte	0x9c
 1855 093e 1E       		.uleb128 0x1e
 1856 093f BA010000 		.4byte	.LASF134
 1857 0943 04       		.byte	0x4
 1858 0944 0102     		.2byte	0x201
 1859 0946 00000000 		.4byte	.LFB247
ARM GAS  /tmp/ccQa7PDD.s 			page 54


 1860 094a 08000000 		.4byte	.LFE247-.LFB247
 1861 094e 01       		.uleb128 0x1
 1862 094f 9C       		.byte	0x9c
 1863 0950 1E       		.uleb128 0x1e
 1864 0951 B2000000 		.4byte	.LASF135
 1865 0955 04       		.byte	0x4
 1866 0956 0C02     		.2byte	0x20c
 1867 0958 00000000 		.4byte	.LFB248
 1868 095c 08000000 		.4byte	.LFE248-.LFB248
 1869 0960 01       		.uleb128 0x1
 1870 0961 9C       		.byte	0x9c
 1871 0962 1E       		.uleb128 0x1e
 1872 0963 98030000 		.4byte	.LASF136
 1873 0967 04       		.byte	0x4
 1874 0968 4702     		.2byte	0x247
 1875 096a 00000000 		.4byte	.LFB252
 1876 096e 08000000 		.4byte	.LFE252-.LFB252
 1877 0972 01       		.uleb128 0x1
 1878 0973 9C       		.byte	0x9c
 1879 0974 1F       		.uleb128 0x1f
 1880 0975 22010000 		.4byte	.LASF137
 1881 0979 05       		.byte	0x5
 1882 097a EF       		.byte	0xef
 1883 097b 00000000 		.4byte	.LFB272
 1884 097f 2A000000 		.4byte	.LFE272-.LFB272
 1885 0983 01       		.uleb128 0x1
 1886 0984 9C       		.byte	0x9c
 1887 0985 20       		.uleb128 0x20
 1888 0986 C7000000 		.4byte	.LASF138
 1889 098a 05       		.byte	0x5
 1890 098b 0B01     		.2byte	0x10b
 1891 098d 00000000 		.4byte	.LFB273
 1892 0991 70000000 		.4byte	.LFE273-.LFB273
 1893 0995 01       		.uleb128 0x1
 1894 0996 9C       		.byte	0x9c
 1895 0997 21       		.uleb128 0x21
 1896 0998 C8040000 		.4byte	.LASF139
 1897 099c 11       		.byte	0x11
 1898 099d FA06     		.2byte	0x6fa
 1899 099f A3090000 		.4byte	0x9a3
 1900 09a3 0F       		.uleb128 0xf
 1901 09a4 A2000000 		.4byte	0xa2
 1902 09a8 22       		.uleb128 0x22
 1903 09a9 636800   		.ascii	"ch\000"
 1904 09ac 0A       		.byte	0xa
 1905 09ad 0B02     		.2byte	0x20b
 1906 09af D4030000 		.4byte	0x3d4
 1907 09b3 00       		.byte	0
 1908              		.section	.debug_abbrev,"",%progbits
 1909              	.Ldebug_abbrev0:
 1910 0000 01       		.uleb128 0x1
 1911 0001 11       		.uleb128 0x11
 1912 0002 01       		.byte	0x1
 1913 0003 25       		.uleb128 0x25
 1914 0004 0E       		.uleb128 0xe
 1915 0005 13       		.uleb128 0x13
 1916 0006 0B       		.uleb128 0xb
ARM GAS  /tmp/ccQa7PDD.s 			page 55


 1917 0007 03       		.uleb128 0x3
 1918 0008 0E       		.uleb128 0xe
 1919 0009 1B       		.uleb128 0x1b
 1920 000a 0E       		.uleb128 0xe
 1921 000b 55       		.uleb128 0x55
 1922 000c 17       		.uleb128 0x17
 1923 000d 11       		.uleb128 0x11
 1924 000e 01       		.uleb128 0x1
 1925 000f 10       		.uleb128 0x10
 1926 0010 17       		.uleb128 0x17
 1927 0011 00       		.byte	0
 1928 0012 00       		.byte	0
 1929 0013 02       		.uleb128 0x2
 1930 0014 24       		.uleb128 0x24
 1931 0015 00       		.byte	0
 1932 0016 0B       		.uleb128 0xb
 1933 0017 0B       		.uleb128 0xb
 1934 0018 3E       		.uleb128 0x3e
 1935 0019 0B       		.uleb128 0xb
 1936 001a 03       		.uleb128 0x3
 1937 001b 08       		.uleb128 0x8
 1938 001c 00       		.byte	0
 1939 001d 00       		.byte	0
 1940 001e 03       		.uleb128 0x3
 1941 001f 24       		.uleb128 0x24
 1942 0020 00       		.byte	0
 1943 0021 0B       		.uleb128 0xb
 1944 0022 0B       		.uleb128 0xb
 1945 0023 3E       		.uleb128 0x3e
 1946 0024 0B       		.uleb128 0xb
 1947 0025 03       		.uleb128 0x3
 1948 0026 0E       		.uleb128 0xe
 1949 0027 00       		.byte	0
 1950 0028 00       		.byte	0
 1951 0029 04       		.uleb128 0x4
 1952 002a 16       		.uleb128 0x16
 1953 002b 00       		.byte	0
 1954 002c 03       		.uleb128 0x3
 1955 002d 0E       		.uleb128 0xe
 1956 002e 3A       		.uleb128 0x3a
 1957 002f 0B       		.uleb128 0xb
 1958 0030 3B       		.uleb128 0x3b
 1959 0031 0B       		.uleb128 0xb
 1960 0032 49       		.uleb128 0x49
 1961 0033 13       		.uleb128 0x13
 1962 0034 00       		.byte	0
 1963 0035 00       		.byte	0
 1964 0036 05       		.uleb128 0x5
 1965 0037 13       		.uleb128 0x13
 1966 0038 01       		.byte	0x1
 1967 0039 03       		.uleb128 0x3
 1968 003a 0E       		.uleb128 0xe
 1969 003b 0B       		.uleb128 0xb
 1970 003c 0B       		.uleb128 0xb
 1971 003d 3A       		.uleb128 0x3a
 1972 003e 0B       		.uleb128 0xb
 1973 003f 3B       		.uleb128 0x3b
ARM GAS  /tmp/ccQa7PDD.s 			page 56


 1974 0040 0B       		.uleb128 0xb
 1975 0041 01       		.uleb128 0x1
 1976 0042 13       		.uleb128 0x13
 1977 0043 00       		.byte	0
 1978 0044 00       		.byte	0
 1979 0045 06       		.uleb128 0x6
 1980 0046 0D       		.uleb128 0xd
 1981 0047 00       		.byte	0
 1982 0048 03       		.uleb128 0x3
 1983 0049 0E       		.uleb128 0xe
 1984 004a 3A       		.uleb128 0x3a
 1985 004b 0B       		.uleb128 0xb
 1986 004c 3B       		.uleb128 0x3b
 1987 004d 0B       		.uleb128 0xb
 1988 004e 49       		.uleb128 0x49
 1989 004f 13       		.uleb128 0x13
 1990 0050 38       		.uleb128 0x38
 1991 0051 0B       		.uleb128 0xb
 1992 0052 00       		.byte	0
 1993 0053 00       		.byte	0
 1994 0054 07       		.uleb128 0x7
 1995 0055 0D       		.uleb128 0xd
 1996 0056 00       		.byte	0
 1997 0057 03       		.uleb128 0x3
 1998 0058 08       		.uleb128 0x8
 1999 0059 3A       		.uleb128 0x3a
 2000 005a 0B       		.uleb128 0xb
 2001 005b 3B       		.uleb128 0x3b
 2002 005c 05       		.uleb128 0x5
 2003 005d 49       		.uleb128 0x49
 2004 005e 13       		.uleb128 0x13
 2005 005f 38       		.uleb128 0x38
 2006 0060 0B       		.uleb128 0xb
 2007 0061 00       		.byte	0
 2008 0062 00       		.byte	0
 2009 0063 08       		.uleb128 0x8
 2010 0064 0D       		.uleb128 0xd
 2011 0065 00       		.byte	0
 2012 0066 03       		.uleb128 0x3
 2013 0067 0E       		.uleb128 0xe
 2014 0068 3A       		.uleb128 0x3a
 2015 0069 0B       		.uleb128 0xb
 2016 006a 3B       		.uleb128 0x3b
 2017 006b 05       		.uleb128 0x5
 2018 006c 49       		.uleb128 0x49
 2019 006d 13       		.uleb128 0x13
 2020 006e 38       		.uleb128 0x38
 2021 006f 0B       		.uleb128 0xb
 2022 0070 00       		.byte	0
 2023 0071 00       		.byte	0
 2024 0072 09       		.uleb128 0x9
 2025 0073 0F       		.uleb128 0xf
 2026 0074 00       		.byte	0
 2027 0075 0B       		.uleb128 0xb
 2028 0076 0B       		.uleb128 0xb
 2029 0077 49       		.uleb128 0x49
 2030 0078 13       		.uleb128 0x13
ARM GAS  /tmp/ccQa7PDD.s 			page 57


 2031 0079 00       		.byte	0
 2032 007a 00       		.byte	0
 2033 007b 0A       		.uleb128 0xa
 2034 007c 13       		.uleb128 0x13
 2035 007d 01       		.byte	0x1
 2036 007e 03       		.uleb128 0x3
 2037 007f 0E       		.uleb128 0xe
 2038 0080 0B       		.uleb128 0xb
 2039 0081 0B       		.uleb128 0xb
 2040 0082 3A       		.uleb128 0x3a
 2041 0083 0B       		.uleb128 0xb
 2042 0084 3B       		.uleb128 0x3b
 2043 0085 05       		.uleb128 0x5
 2044 0086 01       		.uleb128 0x1
 2045 0087 13       		.uleb128 0x13
 2046 0088 00       		.byte	0
 2047 0089 00       		.byte	0
 2048 008a 0B       		.uleb128 0xb
 2049 008b 15       		.uleb128 0x15
 2050 008c 01       		.byte	0x1
 2051 008d 27       		.uleb128 0x27
 2052 008e 19       		.uleb128 0x19
 2053 008f 01       		.uleb128 0x1
 2054 0090 13       		.uleb128 0x13
 2055 0091 00       		.byte	0
 2056 0092 00       		.byte	0
 2057 0093 0C       		.uleb128 0xc
 2058 0094 05       		.uleb128 0x5
 2059 0095 00       		.byte	0
 2060 0096 49       		.uleb128 0x49
 2061 0097 13       		.uleb128 0x13
 2062 0098 00       		.byte	0
 2063 0099 00       		.byte	0
 2064 009a 0D       		.uleb128 0xd
 2065 009b 0F       		.uleb128 0xf
 2066 009c 00       		.byte	0
 2067 009d 0B       		.uleb128 0xb
 2068 009e 0B       		.uleb128 0xb
 2069 009f 00       		.byte	0
 2070 00a0 00       		.byte	0
 2071 00a1 0E       		.uleb128 0xe
 2072 00a2 13       		.uleb128 0x13
 2073 00a3 01       		.byte	0x1
 2074 00a4 03       		.uleb128 0x3
 2075 00a5 0E       		.uleb128 0xe
 2076 00a6 0B       		.uleb128 0xb
 2077 00a7 05       		.uleb128 0x5
 2078 00a8 3A       		.uleb128 0x3a
 2079 00a9 0B       		.uleb128 0xb
 2080 00aa 3B       		.uleb128 0x3b
 2081 00ab 05       		.uleb128 0x5
 2082 00ac 01       		.uleb128 0x1
 2083 00ad 13       		.uleb128 0x13
 2084 00ae 00       		.byte	0
 2085 00af 00       		.byte	0
 2086 00b0 0F       		.uleb128 0xf
 2087 00b1 35       		.uleb128 0x35
ARM GAS  /tmp/ccQa7PDD.s 			page 58


 2088 00b2 00       		.byte	0
 2089 00b3 49       		.uleb128 0x49
 2090 00b4 13       		.uleb128 0x13
 2091 00b5 00       		.byte	0
 2092 00b6 00       		.byte	0
 2093 00b7 10       		.uleb128 0x10
 2094 00b8 01       		.uleb128 0x1
 2095 00b9 01       		.byte	0x1
 2096 00ba 49       		.uleb128 0x49
 2097 00bb 13       		.uleb128 0x13
 2098 00bc 01       		.uleb128 0x1
 2099 00bd 13       		.uleb128 0x13
 2100 00be 00       		.byte	0
 2101 00bf 00       		.byte	0
 2102 00c0 11       		.uleb128 0x11
 2103 00c1 21       		.uleb128 0x21
 2104 00c2 00       		.byte	0
 2105 00c3 49       		.uleb128 0x49
 2106 00c4 13       		.uleb128 0x13
 2107 00c5 2F       		.uleb128 0x2f
 2108 00c6 0B       		.uleb128 0xb
 2109 00c7 00       		.byte	0
 2110 00c8 00       		.byte	0
 2111 00c9 12       		.uleb128 0x12
 2112 00ca 13       		.uleb128 0x13
 2113 00cb 01       		.byte	0x1
 2114 00cc 0B       		.uleb128 0xb
 2115 00cd 0B       		.uleb128 0xb
 2116 00ce 3A       		.uleb128 0x3a
 2117 00cf 0B       		.uleb128 0xb
 2118 00d0 3B       		.uleb128 0x3b
 2119 00d1 05       		.uleb128 0x5
 2120 00d2 01       		.uleb128 0x1
 2121 00d3 13       		.uleb128 0x13
 2122 00d4 00       		.byte	0
 2123 00d5 00       		.byte	0
 2124 00d6 13       		.uleb128 0x13
 2125 00d7 16       		.uleb128 0x16
 2126 00d8 00       		.byte	0
 2127 00d9 03       		.uleb128 0x3
 2128 00da 0E       		.uleb128 0xe
 2129 00db 3A       		.uleb128 0x3a
 2130 00dc 0B       		.uleb128 0xb
 2131 00dd 3B       		.uleb128 0x3b
 2132 00de 05       		.uleb128 0x5
 2133 00df 49       		.uleb128 0x49
 2134 00e0 13       		.uleb128 0x13
 2135 00e1 00       		.byte	0
 2136 00e2 00       		.byte	0
 2137 00e3 14       		.uleb128 0x14
 2138 00e4 0D       		.uleb128 0xd
 2139 00e5 00       		.byte	0
 2140 00e6 03       		.uleb128 0x3
 2141 00e7 08       		.uleb128 0x8
 2142 00e8 3A       		.uleb128 0x3a
 2143 00e9 0B       		.uleb128 0xb
 2144 00ea 3B       		.uleb128 0x3b
ARM GAS  /tmp/ccQa7PDD.s 			page 59


 2145 00eb 0B       		.uleb128 0xb
 2146 00ec 49       		.uleb128 0x49
 2147 00ed 13       		.uleb128 0x13
 2148 00ee 38       		.uleb128 0x38
 2149 00ef 0B       		.uleb128 0xb
 2150 00f0 00       		.byte	0
 2151 00f1 00       		.byte	0
 2152 00f2 15       		.uleb128 0x15
 2153 00f3 13       		.uleb128 0x13
 2154 00f4 01       		.byte	0x1
 2155 00f5 0B       		.uleb128 0xb
 2156 00f6 0B       		.uleb128 0xb
 2157 00f7 3A       		.uleb128 0x3a
 2158 00f8 0B       		.uleb128 0xb
 2159 00f9 3B       		.uleb128 0x3b
 2160 00fa 0B       		.uleb128 0xb
 2161 00fb 01       		.uleb128 0x1
 2162 00fc 13       		.uleb128 0x13
 2163 00fd 00       		.byte	0
 2164 00fe 00       		.byte	0
 2165 00ff 16       		.uleb128 0x16
 2166 0100 17       		.uleb128 0x17
 2167 0101 01       		.byte	0x1
 2168 0102 0B       		.uleb128 0xb
 2169 0103 0B       		.uleb128 0xb
 2170 0104 3A       		.uleb128 0x3a
 2171 0105 0B       		.uleb128 0xb
 2172 0106 3B       		.uleb128 0x3b
 2173 0107 0B       		.uleb128 0xb
 2174 0108 01       		.uleb128 0x1
 2175 0109 13       		.uleb128 0x13
 2176 010a 00       		.byte	0
 2177 010b 00       		.byte	0
 2178 010c 17       		.uleb128 0x17
 2179 010d 0D       		.uleb128 0xd
 2180 010e 00       		.byte	0
 2181 010f 03       		.uleb128 0x3
 2182 0110 0E       		.uleb128 0xe
 2183 0111 3A       		.uleb128 0x3a
 2184 0112 0B       		.uleb128 0xb
 2185 0113 3B       		.uleb128 0x3b
 2186 0114 05       		.uleb128 0x5
 2187 0115 49       		.uleb128 0x49
 2188 0116 13       		.uleb128 0x13
 2189 0117 00       		.byte	0
 2190 0118 00       		.byte	0
 2191 0119 18       		.uleb128 0x18
 2192 011a 26       		.uleb128 0x26
 2193 011b 00       		.byte	0
 2194 011c 49       		.uleb128 0x49
 2195 011d 13       		.uleb128 0x13
 2196 011e 00       		.byte	0
 2197 011f 00       		.byte	0
 2198 0120 19       		.uleb128 0x19
 2199 0121 2E       		.uleb128 0x2e
 2200 0122 01       		.byte	0x1
 2201 0123 03       		.uleb128 0x3
ARM GAS  /tmp/ccQa7PDD.s 			page 60


 2202 0124 0E       		.uleb128 0xe
 2203 0125 3A       		.uleb128 0x3a
 2204 0126 0B       		.uleb128 0xb
 2205 0127 3B       		.uleb128 0x3b
 2206 0128 05       		.uleb128 0x5
 2207 0129 27       		.uleb128 0x27
 2208 012a 19       		.uleb128 0x19
 2209 012b 20       		.uleb128 0x20
 2210 012c 0B       		.uleb128 0xb
 2211 012d 01       		.uleb128 0x1
 2212 012e 13       		.uleb128 0x13
 2213 012f 00       		.byte	0
 2214 0130 00       		.byte	0
 2215 0131 1A       		.uleb128 0x1a
 2216 0132 05       		.uleb128 0x5
 2217 0133 00       		.byte	0
 2218 0134 03       		.uleb128 0x3
 2219 0135 0E       		.uleb128 0xe
 2220 0136 3A       		.uleb128 0x3a
 2221 0137 0B       		.uleb128 0xb
 2222 0138 3B       		.uleb128 0x3b
 2223 0139 05       		.uleb128 0x5
 2224 013a 49       		.uleb128 0x49
 2225 013b 13       		.uleb128 0x13
 2226 013c 00       		.byte	0
 2227 013d 00       		.byte	0
 2228 013e 1B       		.uleb128 0x1b
 2229 013f 2E       		.uleb128 0x2e
 2230 0140 01       		.byte	0x1
 2231 0141 03       		.uleb128 0x3
 2232 0142 0E       		.uleb128 0xe
 2233 0143 3A       		.uleb128 0x3a
 2234 0144 0B       		.uleb128 0xb
 2235 0145 3B       		.uleb128 0x3b
 2236 0146 05       		.uleb128 0x5
 2237 0147 27       		.uleb128 0x27
 2238 0148 19       		.uleb128 0x19
 2239 0149 11       		.uleb128 0x11
 2240 014a 01       		.uleb128 0x1
 2241 014b 12       		.uleb128 0x12
 2242 014c 06       		.uleb128 0x6
 2243 014d 40       		.uleb128 0x40
 2244 014e 18       		.uleb128 0x18
 2245 014f 9742     		.uleb128 0x2117
 2246 0151 19       		.uleb128 0x19
 2247 0152 01       		.uleb128 0x1
 2248 0153 13       		.uleb128 0x13
 2249 0154 00       		.byte	0
 2250 0155 00       		.byte	0
 2251 0156 1C       		.uleb128 0x1c
 2252 0157 1D       		.uleb128 0x1d
 2253 0158 01       		.byte	0x1
 2254 0159 31       		.uleb128 0x31
 2255 015a 13       		.uleb128 0x13
 2256 015b 11       		.uleb128 0x11
 2257 015c 01       		.uleb128 0x1
 2258 015d 12       		.uleb128 0x12
ARM GAS  /tmp/ccQa7PDD.s 			page 61


 2259 015e 06       		.uleb128 0x6
 2260 015f 58       		.uleb128 0x58
 2261 0160 0B       		.uleb128 0xb
 2262 0161 59       		.uleb128 0x59
 2263 0162 05       		.uleb128 0x5
 2264 0163 00       		.byte	0
 2265 0164 00       		.byte	0
 2266 0165 1D       		.uleb128 0x1d
 2267 0166 05       		.uleb128 0x5
 2268 0167 00       		.byte	0
 2269 0168 31       		.uleb128 0x31
 2270 0169 13       		.uleb128 0x13
 2271 016a 02       		.uleb128 0x2
 2272 016b 18       		.uleb128 0x18
 2273 016c 00       		.byte	0
 2274 016d 00       		.byte	0
 2275 016e 1E       		.uleb128 0x1e
 2276 016f 2E       		.uleb128 0x2e
 2277 0170 00       		.byte	0
 2278 0171 03       		.uleb128 0x3
 2279 0172 0E       		.uleb128 0xe
 2280 0173 3A       		.uleb128 0x3a
 2281 0174 0B       		.uleb128 0xb
 2282 0175 3B       		.uleb128 0x3b
 2283 0176 05       		.uleb128 0x5
 2284 0177 27       		.uleb128 0x27
 2285 0178 19       		.uleb128 0x19
 2286 0179 11       		.uleb128 0x11
 2287 017a 01       		.uleb128 0x1
 2288 017b 12       		.uleb128 0x12
 2289 017c 06       		.uleb128 0x6
 2290 017d 40       		.uleb128 0x40
 2291 017e 18       		.uleb128 0x18
 2292 017f 9642     		.uleb128 0x2116
 2293 0181 19       		.uleb128 0x19
 2294 0182 00       		.byte	0
 2295 0183 00       		.byte	0
 2296 0184 1F       		.uleb128 0x1f
 2297 0185 2E       		.uleb128 0x2e
 2298 0186 00       		.byte	0
 2299 0187 3F       		.uleb128 0x3f
 2300 0188 19       		.uleb128 0x19
 2301 0189 03       		.uleb128 0x3
 2302 018a 0E       		.uleb128 0xe
 2303 018b 3A       		.uleb128 0x3a
 2304 018c 0B       		.uleb128 0xb
 2305 018d 3B       		.uleb128 0x3b
 2306 018e 0B       		.uleb128 0xb
 2307 018f 27       		.uleb128 0x27
 2308 0190 19       		.uleb128 0x19
 2309 0191 11       		.uleb128 0x11
 2310 0192 01       		.uleb128 0x1
 2311 0193 12       		.uleb128 0x12
 2312 0194 06       		.uleb128 0x6
 2313 0195 40       		.uleb128 0x40
 2314 0196 18       		.uleb128 0x18
 2315 0197 9642     		.uleb128 0x2116
ARM GAS  /tmp/ccQa7PDD.s 			page 62


 2316 0199 19       		.uleb128 0x19
 2317 019a 00       		.byte	0
 2318 019b 00       		.byte	0
 2319 019c 20       		.uleb128 0x20
 2320 019d 2E       		.uleb128 0x2e
 2321 019e 00       		.byte	0
 2322 019f 3F       		.uleb128 0x3f
 2323 01a0 19       		.uleb128 0x19
 2324 01a1 03       		.uleb128 0x3
 2325 01a2 0E       		.uleb128 0xe
 2326 01a3 3A       		.uleb128 0x3a
 2327 01a4 0B       		.uleb128 0xb
 2328 01a5 3B       		.uleb128 0x3b
 2329 01a6 05       		.uleb128 0x5
 2330 01a7 27       		.uleb128 0x27
 2331 01a8 19       		.uleb128 0x19
 2332 01a9 11       		.uleb128 0x11
 2333 01aa 01       		.uleb128 0x1
 2334 01ab 12       		.uleb128 0x12
 2335 01ac 06       		.uleb128 0x6
 2336 01ad 40       		.uleb128 0x40
 2337 01ae 18       		.uleb128 0x18
 2338 01af 9642     		.uleb128 0x2116
 2339 01b1 19       		.uleb128 0x19
 2340 01b2 00       		.byte	0
 2341 01b3 00       		.byte	0
 2342 01b4 21       		.uleb128 0x21
 2343 01b5 34       		.uleb128 0x34
 2344 01b6 00       		.byte	0
 2345 01b7 03       		.uleb128 0x3
 2346 01b8 0E       		.uleb128 0xe
 2347 01b9 3A       		.uleb128 0x3a
 2348 01ba 0B       		.uleb128 0xb
 2349 01bb 3B       		.uleb128 0x3b
 2350 01bc 05       		.uleb128 0x5
 2351 01bd 49       		.uleb128 0x49
 2352 01be 13       		.uleb128 0x13
 2353 01bf 3F       		.uleb128 0x3f
 2354 01c0 19       		.uleb128 0x19
 2355 01c1 3C       		.uleb128 0x3c
 2356 01c2 19       		.uleb128 0x19
 2357 01c3 00       		.byte	0
 2358 01c4 00       		.byte	0
 2359 01c5 22       		.uleb128 0x22
 2360 01c6 34       		.uleb128 0x34
 2361 01c7 00       		.byte	0
 2362 01c8 03       		.uleb128 0x3
 2363 01c9 08       		.uleb128 0x8
 2364 01ca 3A       		.uleb128 0x3a
 2365 01cb 0B       		.uleb128 0xb
 2366 01cc 3B       		.uleb128 0x3b
 2367 01cd 05       		.uleb128 0x5
 2368 01ce 49       		.uleb128 0x49
 2369 01cf 13       		.uleb128 0x13
 2370 01d0 3F       		.uleb128 0x3f
 2371 01d1 19       		.uleb128 0x19
 2372 01d2 3C       		.uleb128 0x3c
ARM GAS  /tmp/ccQa7PDD.s 			page 63


 2373 01d3 19       		.uleb128 0x19
 2374 01d4 00       		.byte	0
 2375 01d5 00       		.byte	0
 2376 01d6 00       		.byte	0
 2377              		.section	.debug_aranges,"",%progbits
 2378 0000 6C000000 		.4byte	0x6c
 2379 0004 0200     		.2byte	0x2
 2380 0006 00000000 		.4byte	.Ldebug_info0
 2381 000a 04       		.byte	0x4
 2382 000b 00       		.byte	0
 2383 000c 0000     		.2byte	0
 2384 000e 0000     		.2byte	0
 2385 0010 00000000 		.4byte	.LFB127
 2386 0014 10000000 		.4byte	.LFE127-.LFB127
 2387 0018 00000000 		.4byte	.LFB128
 2388 001c 10000000 		.4byte	.LFE128-.LFB128
 2389 0020 00000000 		.4byte	.LFB129
 2390 0024 08000000 		.4byte	.LFE129-.LFB129
 2391 0028 00000000 		.4byte	.LFB130
 2392 002c 08000000 		.4byte	.LFE130-.LFB130
 2393 0030 00000000 		.4byte	.LFB169
 2394 0034 08000000 		.4byte	.LFE169-.LFB169
 2395 0038 00000000 		.4byte	.LFB170
 2396 003c 08000000 		.4byte	.LFE170-.LFB170
 2397 0040 00000000 		.4byte	.LFB247
 2398 0044 08000000 		.4byte	.LFE247-.LFB247
 2399 0048 00000000 		.4byte	.LFB248
 2400 004c 08000000 		.4byte	.LFE248-.LFB248
 2401 0050 00000000 		.4byte	.LFB252
 2402 0054 08000000 		.4byte	.LFE252-.LFB252
 2403 0058 00000000 		.4byte	.LFB272
 2404 005c 2A000000 		.4byte	.LFE272-.LFB272
 2405 0060 00000000 		.4byte	.LFB273
 2406 0064 70000000 		.4byte	.LFE273-.LFB273
 2407 0068 00000000 		.4byte	0
 2408 006c 00000000 		.4byte	0
 2409              		.section	.debug_ranges,"",%progbits
 2410              	.Ldebug_ranges0:
 2411 0000 00000000 		.4byte	.LFB127
 2412 0004 10000000 		.4byte	.LFE127
 2413 0008 00000000 		.4byte	.LFB128
 2414 000c 10000000 		.4byte	.LFE128
 2415 0010 00000000 		.4byte	.LFB129
 2416 0014 08000000 		.4byte	.LFE129
 2417 0018 00000000 		.4byte	.LFB130
 2418 001c 08000000 		.4byte	.LFE130
 2419 0020 00000000 		.4byte	.LFB169
 2420 0024 08000000 		.4byte	.LFE169
 2421 0028 00000000 		.4byte	.LFB170
 2422 002c 08000000 		.4byte	.LFE170
 2423 0030 00000000 		.4byte	.LFB247
 2424 0034 08000000 		.4byte	.LFE247
 2425 0038 00000000 		.4byte	.LFB248
 2426 003c 08000000 		.4byte	.LFE248
 2427 0040 00000000 		.4byte	.LFB252
 2428 0044 08000000 		.4byte	.LFE252
 2429 0048 00000000 		.4byte	.LFB272
ARM GAS  /tmp/ccQa7PDD.s 			page 64


 2430 004c 2A000000 		.4byte	.LFE272
 2431 0050 00000000 		.4byte	.LFB273
 2432 0054 70000000 		.4byte	.LFE273
 2433 0058 00000000 		.4byte	0
 2434 005c 00000000 		.4byte	0
 2435              		.section	.debug_line,"",%progbits
 2436              	.Ldebug_line0:
 2437 0000 BC030000 		.section	.debug_str,"MS",%progbits,1
 2437      0200BE02 
 2437      00000201 
 2437      FB0E0D00 
 2437      01010101 
 2438              	.LASF50:
 2439 0000 72656164 		.ascii	"ready_list_t\000"
 2439      795F6C69 
 2439      73745F74 
 2439      00
 2440              	.LASF99:
 2441 000d 44494552 		.ascii	"DIER\000"
 2441      00
 2442              	.LASF113:
 2443 0012 77747472 		.ascii	"wttrp\000"
 2443      7000
 2444              	.LASF110:
 2445 0018 7264796D 		.ascii	"rdymsg\000"
 2445      736700
 2446              	.LASF34:
 2447 001f 705F7374 		.ascii	"p_stklimit\000"
 2447      6B6C696D 
 2447      697400
 2448              	.LASF16:
 2449 002a 75696E74 		.ascii	"uint64_t\000"
 2449      36345F74 
 2449      00
 2450              	.LASF5:
 2451 0033 5F5F7569 		.ascii	"__uint8_t\000"
 2451      6E74385F 
 2451      7400
 2452              	.LASF97:
 2453 003d 706F7274 		.ascii	"port_intctx\000"
 2453      5F696E74 
 2453      63747800 
 2454              	.LASF69:
 2455 0049 73797374 		.ascii	"system_debug_t\000"
 2455      656D5F64 
 2455      65627567 
 2455      5F7400
 2456              	.LASF128:
 2457 0058 706F7274 		.ascii	"port_lock\000"
 2457      5F6C6F63 
 2457      6B00
 2458              	.LASF12:
 2459 0062 6C6F6E67 		.ascii	"long long unsigned int\000"
 2459      206C6F6E 
 2459      6720756E 
 2459      7369676E 
 2459      65642069 
ARM GAS  /tmp/ccQa7PDD.s 			page 65


 2460              	.LASF79:
 2461 0079 4944434F 		.ascii	"IDCODE\000"
 2461      444500
 2462              	.LASF111:
 2463 0080 65786974 		.ascii	"exitcode\000"
 2463      636F6465 
 2463      00
 2464              	.LASF76:
 2465 0089 6D61696E 		.ascii	"mainthread\000"
 2465      74687265 
 2465      616400
 2466              	.LASF114:
 2467 0094 73656E74 		.ascii	"sentmsg\000"
 2467      6D736700 
 2468              	.LASF66:
 2469 009c 76697274 		.ascii	"virtual_timers_list_t\000"
 2469      75616C5F 
 2469      74696D65 
 2469      72735F6C 
 2469      6973745F 
 2470              	.LASF135:
 2471 00b2 6F73616C 		.ascii	"osalSysUnlockFromISR\000"
 2471      53797355 
 2471      6E6C6F63 
 2471      6B46726F 
 2471      6D495352 
 2472              	.LASF138:
 2473 00c7 73745F6C 		.ascii	"st_lld_init\000"
 2473      6C645F69 
 2473      6E697400 
 2474              	.LASF103:
 2475 00d3 42445452 		.ascii	"BDTR\000"
 2475      00
 2476              	.LASF49:
 2477 00d8 63685F74 		.ascii	"ch_threads_queue\000"
 2477      68726561 
 2477      64735F71 
 2477      75657565 
 2477      00
 2478              	.LASF29:
 2479 00e9 705F7072 		.ascii	"p_prio\000"
 2479      696F00
 2480              	.LASF100:
 2481 00f0 43434D52 		.ascii	"CCMR1\000"
 2481      3100
 2482              	.LASF101:
 2483 00f6 43434D52 		.ascii	"CCMR2\000"
 2483      3200
 2484              	.LASF105:
 2485 00fc 43434D52 		.ascii	"CCMR3\000"
 2485      3300
 2486              	.LASF1:
 2487 0102 7369676E 		.ascii	"signed char\000"
 2487      65642063 
 2487      68617200 
 2488              	.LASF107:
 2489 010e 73746D33 		.ascii	"stm32_tim_t\000"
ARM GAS  /tmp/ccQa7PDD.s 			page 66


 2489      325F7469 
 2489      6D5F7400 
 2490              	.LASF122:
 2491 011a 6D5F7175 		.ascii	"m_queue\000"
 2491      65756500 
 2492              	.LASF137:
 2493 0122 56656374 		.ascii	"VectorB0\000"
 2493      6F724230 
 2493      00
 2494              	.LASF129:
 2495 012b 706F7274 		.ascii	"port_unlock\000"
 2495      5F756E6C 
 2495      6F636B00 
 2496              	.LASF73:
 2497 0137 63685F73 		.ascii	"ch_system\000"
 2497      79737465 
 2497      6D00
 2498              	.LASF7:
 2499 0141 6C6F6E67 		.ascii	"long int\000"
 2499      20696E74 
 2499      00
 2500              	.LASF84:
 2501 014a 41504232 		.ascii	"APB2RSTR\000"
 2501      52535452 
 2501      00
 2502              	.LASF19:
 2503 0153 74737461 		.ascii	"tstate_t\000"
 2503      74655F74 
 2503      00
 2504              	.LASF102:
 2505 015c 43434552 		.ascii	"CCER\000"
 2505      00
 2506              	.LASF10:
 2507 0161 6C6F6E67 		.ascii	"long long int\000"
 2507      206C6F6E 
 2507      6720696E 
 2507      7400
 2508              	.LASF31:
 2509 016f 705F6E65 		.ascii	"p_newer\000"
 2509      77657200 
 2510              	.LASF119:
 2511 0177 735F7175 		.ascii	"s_queue\000"
 2511      65756500 
 2512              	.LASF4:
 2513 017f 73686F72 		.ascii	"short unsigned int\000"
 2513      7420756E 
 2513      7369676E 
 2513      65642069 
 2513      6E7400
 2514              	.LASF55:
 2515 0192 725F6E65 		.ascii	"r_newer\000"
 2515      77657200 
 2516              	.LASF43:
 2517 019a 705F6D70 		.ascii	"p_mpool\000"
 2517      6F6F6C00 
 2518              	.LASF94:
 2519 01a2 72656761 		.ascii	"regarm_t\000"
ARM GAS  /tmp/ccQa7PDD.s 			page 67


 2519      726D5F74 
 2519      00
 2520              	.LASF62:
 2521 01ab 76745F70 		.ascii	"vt_prev\000"
 2521      72657600 
 2522              	.LASF75:
 2523 01b3 76746C69 		.ascii	"vtlist\000"
 2523      737400
 2524              	.LASF134:
 2525 01ba 6F73616C 		.ascii	"osalSysLockFromISR\000"
 2525      5379734C 
 2525      6F636B46 
 2525      726F6D49 
 2525      535200
 2526              	.LASF126:
 2527 01cd 6D757465 		.ascii	"mutex_t\000"
 2527      785F7400 
 2528              	.LASF144:
 2529 01d5 76616C75 		.ascii	"value\000"
 2529      6500
 2530              	.LASF77:
 2531 01db 69646C65 		.ascii	"idle_thread_wa\000"
 2531      5F746872 
 2531      6561645F 
 2531      776100
 2532              	.LASF24:
 2533 01ea 636E745F 		.ascii	"cnt_t\000"
 2533      7400
 2534              	.LASF140:
 2535 01f0 474E5520 		.ascii	"GNU C 4.8.4 20140526 (release) [ARM/embedded-4_8-br"
 2535      4320342E 
 2535      382E3420 
 2535      32303134 
 2535      30353236 
 2536 0223 616E6368 		.ascii	"anch revision 211358] -mcpu=cortex-m4 -mno-thumb-in"
 2536      20726576 
 2536      6973696F 
 2536      6E203231 
 2536      31333538 
 2537 0256 74657277 		.ascii	"terwork -mthumb -ggdb -O0 -fomit-frame-pointer -fal"
 2537      6F726B20 
 2537      2D6D7468 
 2537      756D6220 
 2537      2D676764 
 2538 0289 69676E2D 		.ascii	"ign-functions=16 -ffunction-sections -fdata-section"
 2538      66756E63 
 2538      74696F6E 
 2538      733D3136 
 2538      202D6666 
 2539 02bc 73202D66 		.ascii	"s -fno-common -flto\000"
 2539      6E6F2D63 
 2539      6F6D6D6F 
 2539      6E202D66 
 2539      6C746F00 
 2540              	.LASF0:
 2541 02d0 756E7369 		.ascii	"unsigned int\000"
 2541      676E6564 
ARM GAS  /tmp/ccQa7PDD.s 			page 68


 2541      20696E74 
 2541      00
 2542              	.LASF61:
 2543 02dd 76745F6E 		.ascii	"vt_next\000"
 2543      65787400 
 2544              	.LASF115:
 2545 02e5 77747365 		.ascii	"wtsemp\000"
 2545      6D7000
 2546              	.LASF39:
 2547 02ec 705F6D73 		.ascii	"p_msgqueue\000"
 2547      67717565 
 2547      756500
 2548              	.LASF93:
 2549 02f7 5243435F 		.ascii	"RCC_TypeDef\000"
 2549      54797065 
 2549      44656600 
 2550              	.LASF46:
 2551 0303 63685F74 		.ascii	"ch_thread\000"
 2551      68726561 
 2551      6400
 2552              	.LASF120:
 2553 030d 735F636E 		.ascii	"s_cnt\000"
 2553      7400
 2554              	.LASF98:
 2555 0313 534D4352 		.ascii	"SMCR\000"
 2555      00
 2556              	.LASF141:
 2557 0318 2E2E2F43 		.ascii	"../ChibiOS/os/hal/ports/STM32/LLD/TIMv1/st_lld.c\000"
 2557      68696269 
 2557      4F532F6F 
 2557      732F6861 
 2557      6C2F706F 
 2558              	.LASF22:
 2559 0349 6D73675F 		.ascii	"msg_t\000"
 2559      7400
 2560              	.LASF81:
 2561 034f 41504232 		.ascii	"APB2FZ\000"
 2561      465A00
 2562              	.LASF72:
 2563 0356 63685F73 		.ascii	"ch_system_t\000"
 2563      79737465 
 2563      6D5F7400 
 2564              	.LASF112:
 2565 0362 77746F62 		.ascii	"wtobjp\000"
 2565      6A7000
 2566              	.LASF51:
 2567 0369 63685F72 		.ascii	"ch_ready_list\000"
 2567      65616479 
 2567      5F6C6973 
 2567      7400
 2568              	.LASF23:
 2569 0377 6576656E 		.ascii	"eventmask_t\000"
 2569      746D6173 
 2569      6B5F7400 
 2570              	.LASF6:
 2571 0383 5F5F696E 		.ascii	"__int32_t\000"
 2571      7433325F 
ARM GAS  /tmp/ccQa7PDD.s 			page 69


 2571      7400
 2572              	.LASF95:
 2573 038d 73746B61 		.ascii	"stkalign_t\000"
 2573      6C69676E 
 2573      5F7400
 2574              	.LASF136:
 2575 0398 6F73616C 		.ascii	"osalOsTimerHandlerI\000"
 2575      4F735469 
 2575      6D657248 
 2575      616E646C 
 2575      65724900 
 2576              	.LASF45:
 2577 03ac 74687265 		.ascii	"threads_list_t\000"
 2577      6164735F 
 2577      6C697374 
 2577      5F7400
 2578              	.LASF38:
 2579 03bb 705F7761 		.ascii	"p_waiting\000"
 2579      6974696E 
 2579      6700
 2580              	.LASF78:
 2581 03c5 73697A65 		.ascii	"sizetype\000"
 2581      74797065 
 2581      00
 2582              	.LASF44:
 2583 03ce 74687265 		.ascii	"thread_reference_t\000"
 2583      61645F72 
 2583      65666572 
 2583      656E6365 
 2583      5F7400
 2584              	.LASF67:
 2585 03e1 63685F76 		.ascii	"ch_virtual_timers_list\000"
 2585      69727475 
 2585      616C5F74 
 2585      696D6572 
 2585      735F6C69 
 2586              	.LASF27:
 2587 03f8 705F6E65 		.ascii	"p_next\000"
 2587      787400
 2588              	.LASF40:
 2589 03ff 705F6570 		.ascii	"p_epending\000"
 2589      656E6469 
 2589      6E6700
 2590              	.LASF68:
 2591 040a 76745F6C 		.ascii	"vt_lasttime\000"
 2591      61737474 
 2591      696D6500 
 2592              	.LASF32:
 2593 0416 705F6F6C 		.ascii	"p_older\000"
 2593      64657200 
 2594              	.LASF54:
 2595 041e 725F6374 		.ascii	"r_ctx\000"
 2595      7800
 2596              	.LASF109:
 2597 0424 746D5F63 		.ascii	"tm_calibration_t\000"
 2597      616C6962 
 2597      72617469 
ARM GAS  /tmp/ccQa7PDD.s 			page 70


 2597      6F6E5F74 
 2597      00
 2598              	.LASF90:
 2599 0435 41484252 		.ascii	"AHBRSTR\000"
 2599      53545200 
 2600              	.LASF57:
 2601 043d 725F6375 		.ascii	"r_current\000"
 2601      7272656E 
 2601      7400
 2602              	.LASF85:
 2603 0447 41504231 		.ascii	"APB1RSTR\000"
 2603      52535452 
 2603      00
 2604              	.LASF11:
 2605 0450 5F5F7569 		.ascii	"__uint64_t\000"
 2605      6E743634 
 2605      5F7400
 2606              	.LASF80:
 2607 045b 41504231 		.ascii	"APB1FZ\000"
 2607      465A00
 2608              	.LASF20:
 2609 0462 74726566 		.ascii	"trefs_t\000"
 2609      735F7400 
 2610              	.LASF59:
 2611 046a 76697274 		.ascii	"virtual_timer_t\000"
 2611      75616C5F 
 2611      74696D65 
 2611      725F7400 
 2612              	.LASF28:
 2613 047a 705F7072 		.ascii	"p_prev\000"
 2613      657600
 2614              	.LASF21:
 2615 0481 74707269 		.ascii	"tprio_t\000"
 2615      6F5F7400 
 2616              	.LASF133:
 2617 0489 63685379 		.ascii	"chSysUnlockFromISR\000"
 2617      73556E6C 
 2617      6F636B46 
 2617      726F6D49 
 2617      535200
 2618              	.LASF70:
 2619 049c 63685F73 		.ascii	"ch_system_debug\000"
 2619      79737465 
 2619      6D5F6465 
 2619      62756700 
 2620              	.LASF127:
 2621 04ac 5F426F6F 		.ascii	"_Bool\000"
 2621      6C00
 2622              	.LASF14:
 2623 04b2 696E7433 		.ascii	"int32_t\000"
 2623      325F7400 
 2624              	.LASF2:
 2625 04ba 756E7369 		.ascii	"unsigned char\000"
 2625      676E6564 
 2625      20636861 
 2625      7200
 2626              	.LASF139:
ARM GAS  /tmp/ccQa7PDD.s 			page 71


 2627 04c8 49544D5F 		.ascii	"ITM_RxBuffer\000"
 2627      52784275 
 2627      66666572 
 2627      00
 2628              	.LASF41:
 2629 04d5 705F6D74 		.ascii	"p_mtxlist\000"
 2629      786C6973 
 2629      7400
 2630              	.LASF3:
 2631 04df 73686F72 		.ascii	"short int\000"
 2631      7420696E 
 2631      7400
 2632              	.LASF35:
 2633 04e9 705F7374 		.ascii	"p_state\000"
 2633      61746500 
 2634              	.LASF53:
 2635 04f1 725F7072 		.ascii	"r_prio\000"
 2635      696F00
 2636              	.LASF117:
 2637 04f8 65776D61 		.ascii	"ewmask\000"
 2637      736B00
 2638              	.LASF36:
 2639 04ff 705F666C 		.ascii	"p_flags\000"
 2639      61677300 
 2640              	.LASF87:
 2641 0507 41504232 		.ascii	"APB2ENR\000"
 2641      454E5200 
 2642              	.LASF60:
 2643 050f 63685F76 		.ascii	"ch_virtual_timer\000"
 2643      69727475 
 2643      616C5F74 
 2643      696D6572 
 2643      00
 2644              	.LASF118:
 2645 0520 63685F73 		.ascii	"ch_semaphore\000"
 2645      656D6170 
 2645      686F7265 
 2645      00
 2646              	.LASF106:
 2647 052d 43435852 		.ascii	"CCXR\000"
 2647      00
 2648              	.LASF82:
 2649 0532 4442474D 		.ascii	"DBGMCU_TypeDef\000"
 2649      43555F54 
 2649      79706544 
 2649      656600
 2650              	.LASF15:
 2651 0541 75696E74 		.ascii	"uint32_t\000"
 2651      33325F74 
 2651      00
 2652              	.LASF116:
 2653 054a 77746D74 		.ascii	"wtmtxp\000"
 2653      787000
 2654              	.LASF52:
 2655 0551 725F7175 		.ascii	"r_queue\000"
 2655      65756500 
 2656              	.LASF63:
ARM GAS  /tmp/ccQa7PDD.s 			page 72


 2657 0559 76745F64 		.ascii	"vt_delta\000"
 2657      656C7461 
 2657      00
 2658              	.LASF47:
 2659 0562 63685F74 		.ascii	"ch_threads_list\000"
 2659      68726561 
 2659      64735F6C 
 2659      69737400 
 2660              	.LASF142:
 2661 0572 2F6E6673 		.ascii	"/nfs/nfs4/home/irbrown/Courses/P442/P442WifiTrailCo"
 2661      2F6E6673 
 2661      342F686F 
 2661      6D652F69 
 2661      7262726F 
 2662 05a5 756E7465 		.ascii	"unterProject/milestone3\000"
 2662      7250726F 
 2662      6A656374 
 2662      2F6D696C 
 2662      6573746F 
 2663              	.LASF9:
 2664 05bd 6C6F6E67 		.ascii	"long unsigned int\000"
 2664      20756E73 
 2664      69676E65 
 2664      6420696E 
 2664      7400
 2665              	.LASF125:
 2666 05cf 63686172 		.ascii	"char\000"
 2666      00
 2667              	.LASF104:
 2668 05d4 444D4152 		.ascii	"DMAR\000"
 2668      00
 2669              	.LASF131:
 2670 05d9 706F7274 		.ascii	"port_unlock_from_isr\000"
 2670      5F756E6C 
 2670      6F636B5F 
 2670      66726F6D 
 2670      5F697372 
 2671              	.LASF26:
 2672 05ee 74687265 		.ascii	"thread_t\000"
 2672      61645F74 
 2672      00
 2673              	.LASF124:
 2674 05f7 6D5F6E65 		.ascii	"m_next\000"
 2674      787400
 2675              	.LASF25:
 2676 05fe 73797374 		.ascii	"systime_t\000"
 2676      696D655F 
 2676      7400
 2677              	.LASF42:
 2678 0608 705F7265 		.ascii	"p_realprio\000"
 2678      616C7072 
 2678      696F00
 2679              	.LASF58:
 2680 0613 76746675 		.ascii	"vtfunc_t\000"
 2680      6E635F74 
 2680      00
 2681              	.LASF8:
ARM GAS  /tmp/ccQa7PDD.s 			page 73


 2682 061c 5F5F7569 		.ascii	"__uint32_t\000"
 2682      6E743332 
 2682      5F7400
 2683              	.LASF143:
 2684 0627 5F5F7365 		.ascii	"__set_BASEPRI\000"
 2684      745F4241 
 2684      53455052 
 2684      4900
 2685              	.LASF71:
 2686 0635 70616E69 		.ascii	"panic_msg\000"
 2686      635F6D73 
 2686      6700
 2687              	.LASF108:
 2688 063f 6F666673 		.ascii	"offset\000"
 2688      657400
 2689              	.LASF88:
 2690 0646 41504231 		.ascii	"APB1ENR\000"
 2690      454E5200 
 2691              	.LASF96:
 2692 064e 636F6E74 		.ascii	"context\000"
 2692      65787400 
 2693              	.LASF56:
 2694 0656 725F6F6C 		.ascii	"r_older\000"
 2694      64657200 
 2695              	.LASF17:
 2696 065e 7274636E 		.ascii	"rtcnt_t\000"
 2696      745F7400 
 2697              	.LASF130:
 2698 0666 706F7274 		.ascii	"port_lock_from_isr\000"
 2698      5F6C6F63 
 2698      6B5F6672 
 2698      6F6D5F69 
 2698      737200
 2699              	.LASF65:
 2700 0679 76745F70 		.ascii	"vt_par\000"
 2700      617200
 2701              	.LASF48:
 2702 0680 74687265 		.ascii	"threads_queue_t\000"
 2702      6164735F 
 2702      71756575 
 2702      655F7400 
 2703              	.LASF121:
 2704 0690 63685F6D 		.ascii	"ch_mutex\000"
 2704      75746578 
 2704      00
 2705              	.LASF37:
 2706 0699 705F7265 		.ascii	"p_refs\000"
 2706      667300
 2707              	.LASF89:
 2708 06a0 42444352 		.ascii	"BDCR\000"
 2708      00
 2709              	.LASF74:
 2710 06a5 726C6973 		.ascii	"rlist\000"
 2710      7400
 2711              	.LASF91:
 2712 06ab 43464752 		.ascii	"CFGR2\000"
 2712      3200
ARM GAS  /tmp/ccQa7PDD.s 			page 74


 2713              	.LASF92:
 2714 06b1 43464752 		.ascii	"CFGR3\000"
 2714      3300
 2715              	.LASF13:
 2716 06b7 75696E74 		.ascii	"uint8_t\000"
 2716      385F7400 
 2717              	.LASF132:
 2718 06bf 63685379 		.ascii	"chSysLockFromISR\000"
 2718      734C6F63 
 2718      6B46726F 
 2718      6D495352 
 2718      00
 2719              	.LASF33:
 2720 06d0 705F6E61 		.ascii	"p_name\000"
 2720      6D6500
 2721              	.LASF83:
 2722 06d7 43464752 		.ascii	"CFGR\000"
 2722      00
 2723              	.LASF18:
 2724 06dc 746D6F64 		.ascii	"tmode_t\000"
 2724      655F7400 
 2725              	.LASF123:
 2726 06e4 6D5F6F77 		.ascii	"m_owner\000"
 2726      6E657200 
 2727              	.LASF30:
 2728 06ec 705F6374 		.ascii	"p_ctx\000"
 2728      7800
 2729              	.LASF64:
 2730 06f2 76745F66 		.ascii	"vt_func\000"
 2730      756E6300 
 2731              	.LASF86:
 2732 06fa 41484245 		.ascii	"AHBENR\000"
 2732      4E5200
 2733              		.comm	__gnu_lto_v1,1,1
 2734              		.ident	"GCC: (GNU Tools for ARM Embedded Processors) 4.8.4 20140526 (release) [ARM/embedded-4_8-br
ARM GAS  /tmp/ccQa7PDD.s 			page 75


DEFINED SYMBOLS
                            *ABS*:00000000 st_lld.c
     /tmp/ccQa7PDD.s:370    .text.port_lock:00000000 $t
     /tmp/ccQa7PDD.s:375    .text.port_lock:00000000 port_lock
     /tmp/ccQa7PDD.s:406    .text.port_unlock:00000000 $t
     /tmp/ccQa7PDD.s:411    .text.port_unlock:00000000 port_unlock
     /tmp/ccQa7PDD.s:440    .text.port_lock_from_isr:00000000 $t
     /tmp/ccQa7PDD.s:445    .text.port_lock_from_isr:00000000 port_lock_from_isr
     /tmp/ccQa7PDD.s:463    .text.port_unlock_from_isr:00000000 $t
     /tmp/ccQa7PDD.s:468    .text.port_unlock_from_isr:00000000 port_unlock_from_isr
     /tmp/ccQa7PDD.s:486    .text.chSysLockFromISR:00000000 $t
     /tmp/ccQa7PDD.s:491    .text.chSysLockFromISR:00000000 chSysLockFromISR
     /tmp/ccQa7PDD.s:510    .text.chSysUnlockFromISR:00000000 $t
     /tmp/ccQa7PDD.s:515    .text.chSysUnlockFromISR:00000000 chSysUnlockFromISR
     /tmp/ccQa7PDD.s:533    .text.osalSysLockFromISR:00000000 $t
     /tmp/ccQa7PDD.s:538    .text.osalSysLockFromISR:00000000 osalSysLockFromISR
     /tmp/ccQa7PDD.s:557    .text.osalSysUnlockFromISR:00000000 $t
     /tmp/ccQa7PDD.s:562    .text.osalSysUnlockFromISR:00000000 osalSysUnlockFromISR
     /tmp/ccQa7PDD.s:580    .text.osalOsTimerHandlerI:00000000 $t
     /tmp/ccQa7PDD.s:585    .text.osalOsTimerHandlerI:00000000 osalOsTimerHandlerI
     /tmp/ccQa7PDD.s:603    .text.VectorB0:00000000 $t
     /tmp/ccQa7PDD.s:609    .text.VectorB0:00000000 VectorB0
     /tmp/ccQa7PDD.s:645    .text.st_lld_init:00000000 $t
     /tmp/ccQa7PDD.s:651    .text.st_lld_init:00000000 st_lld_init
     /tmp/ccQa7PDD.s:714    .text.st_lld_init:00000068 $d
                            *COM*:00000001 __gnu_lto_v1
                     .debug_frame:00000010 $d

UNDEFINED SYMBOLS
chSysTimerHandlerI
_port_irq_epilogue
nvicEnableVector
