ARM GAS  /tmp/ccD580lS.s 			page 1


   1              		.syntax unified
   2              		.cpu cortex-m4
   3              		.fpu softvfp
   4              		.eabi_attribute 20, 1
   5              		.eabi_attribute 21, 1
   6              		.eabi_attribute 23, 3
   7              		.eabi_attribute 24, 1
   8              		.eabi_attribute 25, 1
   9              		.eabi_attribute 26, 1
  10              		.eabi_attribute 30, 2
  11              		.eabi_attribute 34, 1
  12              		.eabi_attribute 18, 4
  13              		.thumb
  14              		.file	"st_lld.c"
  15              		.text
  16              	.Ltext0:
  17              		.section	.gnu.lto_.jmpfuncs.aa65083ab2193431,"",%progbits
  18 0000 789C6362 		.ascii	"x\234cb`b\300\006\244\2414X\226\221\201\211)\2021\223"
  18      6062C006 
  18      A4A13458 
  18      96918189 
  18      29823193 
  19 0014 91410628 		.ascii	"\221A\006(\000fp\000E\001\031\363\001\323"
  19      00667000 
  19      450119F3 
  19      01D3
  20              		.text
  21              		.section	.gnu.lto_.inline.aa65083ab2193431,"",%progbits
  22 0000 789C6362 		.ascii	"x\234cb`b\300\006\254\2404P\226G\224\221\201\211\357"
  22      6062C006 
  22      ACA03450 
  22      96479491 
  22      8189EF
  23 0013 5E0003DB 		.ascii	"^\000\003\333\002y\260bF.8\301 \"\003\224\224yp\213"
  23      0279B062 
  23      462E38C1 
  23      20220394 
  23      9479708B 
  24 0027 112ECBCC 		.ascii	"\021.\313\314\003\326\305\000\000\260\004\005a"
  24      03D6C500 
  24      00B00405 
  24      61
  25              		.text
  26              		.section	.gnu.lto_.pureconst.aa65083ab2193431,"",%progbits
  27 0000 789C6362 		.ascii	"x\234cb`b`e\200\000&\006+F)\000\001f\000a"
  27      60626065 
  27      80002606 
  27      2B462900 
  27      01660061 
  28              		.text
  29              		.section	.gnu.lto_VectorB0.aa65083ab2193431,"",%progbits
  30 0000 789C8D53 		.ascii	"x\234\215SML\023Q\020\236\331\335\322\2024\201\273i"
  30      4D4C1351 
  30      109ED9DD 
  30      D2823481 
  30      BB69
  31 0012 2A89F100 		.ascii	"*\211\361\000\364\011\036\274j0&$4&\264$z\302ei\350"
ARM GAS  /tmp/ccD580lS.s 			page 2


  31      F4091EBC 
  31      6A302624 
  31      3426B424 
  31      7AC26569 
  32 0027 262D25DD 		.ascii	"&-%\335B \036x\245=\230@\"\321\030\377\1778(\211\007"
  32      42201E78 
  32      A53D9840 
  32      22D118FF 
  32      7F382889 
  33 003c 8962D4A0 		.ascii	"\211b\324\240\241D/\032\003\206\213\021\275\224\013"
  33      A1442F1A 
  33      03868B11 
  33      BD940B
  34 004b 07A35182 		.ascii	"\007\243Q\202\007\003\305:o\227.\333j\324I\346\315\274"
  34      0703C53A 
  34      6F972EDB 
  34      6AD449E6 
  34      CDBC
  35 005d 79F3F3BD 		.ascii	"y\363\363\275\357\355J A\245\264\222^\227\001\276\223"
  35      EFED4A20 
  35      41A5B492 
  35      5E9701BE 
  35      93
  36 006e 4517A034 		.ascii	"E\027\2404\271\004\220\366H\222<\347\003^\243\274c\300"
  36      B90490F6 
  36      48923CE7 
  36      035EA3BC 
  36      63C0
  37 0080 6B6554AC 		.ascii	"keT\254\260\202(\034@\030\225d\005GO\241\331dFZ\310"
  37      B082281C 
  37      40189564 
  37      05474FA1 
  37      D964465A 
  38 0095 178BF7E7 		.ascii	"\027\213\367\347\317\335*`N\362\312\240#(b!qA\226\363"
  38      CFDD2A60 
  38      4EF2CAA0 
  38      23286221 
  38      714196F3 
  39 00a9 493F8066 		.ascii	"I?\200fn\303\264\212\026](\011+/\302\213\017\357\267"
  39      6EC3B48A 
  39      165D2809 
  39      2B2FC28B 
  39      0FEFB7
  40 00bc 562515A7 		.ascii	"V%\025\247h|\037\312\215p\217gQG\274\006W\311H'i\221"
  40      687C1FCA 
  40      8D708F67 
  40      5147BC06 
  40      57C94827 
  41 00d2 398902A6 		.ascii	"9\211\002\246k\016\354\301\022\376E\310<\313\254a\251"
  41      6B0EECC1 
  41      12FE45C8 
  41      3CCBAC61 
  41      A9
  42 00e3 5CA10E22 		.ascii	"\\\241\016\"\315\274\351+\310~N{\355#3\356\224.\352"
  42      CDBCE92B 
  42      C87E4E7B 
  42      ED2333EE 
ARM GAS  /tmp/ccD580lS.s 			page 3


  42      942EEA
  43 00f6 36E71310 		.ascii	"6\347\023\020\236\376\330Z\337\201`\316O\363\320\177"
  43      9EFED85A 
  43      DF8160CE 
  43      4FF3D07F 
  44 0106 221011D3 		.ascii	"\"\020\021\323}\015c\036\200\006\230\342\374|~e\365"
  44      7D0D631E 
  44      800698E2 
  44      FC7C7E65 
  44      F5
  45 0117 79D315BE 		.ascii	"y\323\025\276\220\275\315\013\305\"R\212\"\301i\024"
  45      90BDCD0B 
  45      C522528A 
  45      22C16914 
  46 0127 14887C97 		.ascii	"\024\210|\227\3374UJ\371S\210\230BD\301\022\214\255"
  46      DF34554A 
  46      F9538898 
  46      4244C112 
  46      8CAD
  47 0139 2F656627 		.ascii	"/ef'd\233;\313Y\230}\271YG0\357b\203M,\237\316\355\265"
  47      649B3BCB 
  47      59987DB9 
  47      594730EF 
  47      62834D2C 
  48 0151 CF9F5C9C 		.ascii	"\317\237\\\234\3606\333\273\334\245\361\372\007.{\373"
  48      F036DBBB 
  48      DCA5F1FA 
  48      072E7BFB 
  49 0161 A6B0411B 		.ascii	"\246\260A\033\353\222\032\0120\022\251L\252\220\272"
  49      EB921A0A 
  49      3012A94C 
  49      AA90BA
  50 0170 C07C5684 		.ascii	"\300|V\204\025\012\021y\262\365\255\370\340\023\336"
  50      150A1179 
  50      B2F5ADF8 
  50      E013DE
  51 017f E0978FE8 		.ascii	"\340\227\217\350\350.\203\270{\376e\347\334c]\342-d"
  51      E82E83B8 
  51      7BFE65E7 
  51      DC635DE2 
  51      2D64
  52 0191 BE7DBDB3 		.ascii	"\276}\275\2636\321\\\211}|;\343\336\035_ee\237\201M"
  52      36D15C89 
  52      7D7C3BE3 
  52      DE1D5F65 
  52      659F814D 
  53 01a5 7E96D7E9 		.ascii	"~\226\327\351X\255\241[\305G\026\014\035k*\371\234\232"
  53      58ADA15B 
  53      C547160C 
  53      1D6B2AF9 
  53      9C9A
  54 01b7 AFE053C5 		.ascii	"\257\340S\305i\023\377?\011\205\277\022\372\261 \010"
  54      6913FF3F 
  54      0985BF12 
  54      FAB12008 
  55 01c7 7DEC2474 		.ascii	"}\354$t#\347s\020:\347e\016Bo\326/;\010\335\276\340"
  55      23E77310 
ARM GAS  /tmp/ccD580lS.s 			page 4


  55      3AE7650E 
  55      426FD62F 
  55      3B08DDBE 
  56 01dc B89187B4 		.ascii	"\270\221\207\264\232\264\206t\317\037\010Uq\206\034"
  56      9AB48674 
  56      CF1F0855 
  56      71861C
  57 01eb 1B528940 		.ascii	"\033R\211@\025\037\242\317\371I*\346oA4\346\177\366"
  57      151FA2CF 
  57      F9492AE6 
  57      6F4134E6 
  57      7FF6
  58 01fd 59BDCB69 		.ascii	"Y\275\313i\252\005\233\242eH\347\213\007JI\226\204\351"
  58      AA059BA2 
  58      6548E78B 
  58      074A4996 
  58      84E9
  59 020f 65A981E8 		.ascii	"e\251\201\350\335\022\010\260\266\250\336\243\237\010"
  59      DD1208B0 
  59      B6A8DEA3 
  59      9F08
  60 021d B184C1A2 		.ascii	"\261\204\301\242j\214\015$\222)\203\205\302\301C\255"
  60      6A8C0D24 
  60      92298385 
  60      C2C143AD 
  61 022d ACA3E318 		.ascii	"\254\243\343\030\013\267\007\207Z\230\221\352\216\305"
  61      0BB70787 
  61      5A9891EA 
  61      8EC5
  62 023b 7A031A34 		.ascii	"z\003\0324\226W$S;\005G;\203m\301a\246E\265D2\322=t"
  62      96572453 
  62      3B05473B 
  62      836DC161 
  62      A645B544 
  63 0253 381E8882 		.ascii	"8\036\210\202kH\215\015F\002\345\025\221\341\024k\013"
  63      6B488D0D 
  63      4602E515 
  63      91E1146B 
  63      0B
  64 0264 86DA434C 		.ascii	"\206\332CL\357\327b\203\275\021fVh\361\343\203\375\032"
  64      EFD76283 
  64      BD116656 
  64      68F1E383 
  64      FD1A
  65 0276 15EDFB6D 		.ascii	"\025\355\373m\200\235\0275F\214\3373\004\350\204A\013"
  65      809D1735 
  65      468CDF33 
  65      04E88441 
  65      0B
  66 0287 A50A4B19 		.ascii	"\245\012K\031u\301P\247\277G5\"\003I\275\311\277\377"
  66      75C150A7 
  66      BF473522 
  66      0349BDC9 
  66      BFFF
  67 0299 20484970 		.ascii	" HIp\307#\361Dr\004~\001\00322q"
  67      C723F144 
  67      72047E01 
ARM GAS  /tmp/ccD580lS.s 			page 5


  67      03323271 
  68              		.text
  69              		.section	.gnu.lto_st_lld_init.aa65083ab2193431,"",%progbits
  70 0000 789C95D3 		.ascii	"x\234\225\323\275KBQ\024\000\360s\356\363\371U\3641"
  70      BD4B4251 
  70      1400F073 
  70      EEF3F955 
  70      F431
  71 0012 260DAD11 		.ascii	"&\015\255\021\3710\227\266\206Z\004\245\301\027\344"
  71      F93097B6 
  71      865A04A5 
  71      C117E4
  72 0021 146AA00F 		.ascii	"\024j\240\017\004#\245\245\301+\03184H\223TP\255\032"
  72      0423A5A5 
  72      C12B1938 
  72      34489354 
  72      50AD1A
  73 0034 BAC56B13 		.ascii	"\272\305k\023\267\006\2156ir\254\377@Z\354\336\367e"
  73      B7068D36 
  73      6972ACFF 
  73      405AECDE 
  73      F765
  74 0046 6A48EFC0 		.ascii	"jH\357\300;\367=\357=?\217x\036\001\002\223\261\302"
  74      3BF73DEF 
  74      3D3F8F78 
  74      1E010293 
  74      B1C2
  75 0058 2E9F0320 		.ascii	".\237\003 \310V\024\000I\245\013Pt\023D~\003\010\005"
  75      C8561400 
  75      49A50B50 
  75      7413447E 
  75      030805
  76 006b 8285186A 		.ascii	"\202\205\030jg\233\244\325\037\016\033\317\327wW\330"
  76      679BA4D5 
  76      1F0E1BCF 
  76      D77757D8 
  77 007b 25CB0414 		.ascii	"%\313\004\024\004\201'\221''O,D(QZY\003Hj\2172\313\234"
  77      04812791 
  77      27274F2C 
  77      4428515A 
  77      5903486A 
  78 0093 3A40C257 		.ascii	":@\302W\241\003\355\017\265\346\213\343#\212\220B\262"
  78      A103ED0F 
  78      B5E68BE3 
  78      238A9042 
  78      B2
  79 00a4 01355A2A 		.ascii	"\0015Z*.)\210\267p\203\012\222C\226\004\372P\246\016"
  79      2E2988B7 
  79      70830A92 
  79      439604FA 
  79      50A60E
  80 00b7 D06EB5AF 		.ascii	"\320n\265\257N\240\331p\007.^\004\263ZH\351\347\001"
  80      4EA0D970 
  80      072E5E04 
  80      B35A48E9 
  80      E701
  81 00c9 B59D7648 		.ascii	"\265\235vH\337\260g\246\3703o\253\\'&,N\022\016^'\322"
ARM GAS  /tmp/ccD580lS.s 			page 6


  81      DFB067A6 
  81      F8336FAB 
  81      5C27262C 
  81      4E120E5E 
  82 00df 56852E68 		.ascii	"V\205.h\204h\020\370W[N\006\374\243\255\331&c\264bu"
  82      846810F8 
  82      575B4E06 
  82      FCA3ADD9 
  82      2663B462 
  83 00f4 506F0BBF 		.ascii	"Po\013\277\001\272c\011N^\346\242,\364\037\3462\004"
  83      01BA6309 
  83      4E5EE6A2 
  83      2CF41FE6 
  83      3204
  84 0106 FD7FE69F 		.ascii	"\375\177\346\237\340\375\266\336\203Zm\330f\204\021"
  84      E0FDB6DE 
  84      835A6DD8 
  84      668411
  85 0115 3364B168 		.ascii	"3d\261hH\252}\3111\222\300Pz\226\262\011O\\\211\261"
  85      48AA7DC9 
  85      3192C050 
  85      7A96B209 
  85      4F5C89B1 
  86 0129 CD11E89E 		.ascii	"\315\021\350\236\015\212\026\350\261fy\214\037\330o"
  86      0D8A16E8 
  86      B166798C 
  86      1FD86F
  87 0138 D239AD54 		.ascii	"\3229\255T\233\266\025\327\264\242\332W\334\226b\016"
  87      9BB615D7 
  87      B4A2DA57 
  87      DC96620E 
  88 0148 91DAB3AF 		.ascii	"\221\332\263\257x\306\2257\270\354\277~yu\004\340\034"
  88      78C69537 
  88      B8ECBF7E 
  88      797504E0 
  88      1C
  89 0159 BE6999B2 		.ascii	"\276i\231\262y\364&\215\231\343'\347V\365\305\315\336"
  89      79F4268D 
  89      99E327E7 
  89      56F5C5CD 
  89      DE
  90 016a E7798077 		.ascii	"\347y\200w(\366?\327\315\022=dv\234\275\313|\312\002"
  90      28F63FD7 
  90      CD123D64 
  90      769CBDCB 
  90      7CCA02
  91 017d 7EBFB49B 		.ascii	"~\277\264\233V\022\312~T\312\346\244t<#\235dO\3639)"
  91      5612CA7E 
  91      54CAE6A4 
  91      743C239D 
  91      644FF339 
  92 0192 2A47825B 		.ascii	"*G\202[R8\274'\311\241\310Y@\312\345\2172\231c\177\022"
  92      5238BC27 
  92      C9A1C859 
  92      40CAE58F 
  92      3299637F 
  93 01a7 7E00D9CC 		.ascii	"~\000\331\314\3706"
ARM GAS  /tmp/ccD580lS.s 			page 7


  93      F836
  94              		.text
  95              		.section	.gnu.lto_.symbol_nodes.aa65083ab2193431,"",%progbits
  96 0000 789C6362 		.ascii	"x\234cb`bHd\200\002\246\011L\365\014\014\023\31610\324"
  96      60624864 
  96      8002A609 
  96      4CF50C0C 
  96      13CE3130 
  97 0015 D7CFEB60 		.ascii	"\327\317\353`d\232\310T\317\210\3402Nb\252g\202p\033"
  97      649AC854 
  97      CF88E032 
  97      4E62AA67 
  97      82701B
  98 0028 1A181927 		.ascii	"\032\030\031'3\3253#xS\230\352Y\340<f\006f\206\303["
  98      33D53323 
  98      785398EA 
  98      59E03C66 
  98      066686C3 
  99 003d 4D988166 		.ascii	"M\230\201f/n{#\317\314\310\302p\270\375\215<\003\000"
  99      2F6E7B23 
  99      CFCCC8C2 
  99      70B8FD8D 
  99      3C0300
 100 0050 69D01BBE 		.ascii	"i\320\033\276"
 101              		.text
 102              		.section	.gnu.lto_.refs.aa65083ab2193431,"",%progbits
 103 0000 789C6362 		.ascii	"x\234cb`b`d\200\002\000\000F\000\006"
 103      60626064 
 103      80020000 
 103      460006
 104              		.text
 105              		.section	.gnu.lto_.decls.aa65083ab2193431,"",%progbits
 106 0000 789CBD98 		.ascii	"x\234\275\230kL\034\327\025\307\357\235\345\0310!\344"
 106      6B4C1CD7 
 106      15C7EF9D 
 106      E5193021 
 106      E4
 107 0011 21F2C920 		.ascii	"!\362\311 5U\225\010\326,\256\342~I\015\013\030$c\243"
 107      35559508 
 107      D62CAEE2 
 107      7E490D0B 
 107      182463A3 
 108 0025 595C59E9 		.ascii	"Y\\Y\351\207\355x\031\302\252\373pv\027\202?e(nj\334"
 108      87ED7819 
 108      C2AAFB70 
 108      7617823F 
 108      65286E6A 
 109 003a 5859BF10 		.ascii	"XY\277\020\2416\206&\244v\342\304\2178\011)\216\263"
 109      A1368626 
 109      A476E2C4 
 109      8F380929 
 109      8EB3
 110 004c 45B68BD2 		.ascii	"E\266\213\322\027P\2278qm(iZ%Nb\374\210M\355\330\333"
 110      17509738 
 110      716D2869 
 110      5A254E62 
 110      FC884DED 
ARM GAS  /tmp/ccD580lS.s 			page 8


 111 0062 73EFCC2C 		.ascii	"s\357\314,sgg\326\263\251\324\221\316\231\331\331{\177"
 111      736767D6 
 111      B3A9D491 
 111      CE99D9D9 
 111      7B7F
 112 0074 E77FEF3D 		.ascii	"\347\177\357={\271\007\016q\250\006#\024\207\353\342"
 112      7BB9070E 
 112      71A80623 
 112      1487EBE2 
 113 0084 C3087564 		.ascii	"\303\010ud dC\010=\001\006\257\321\020\222\257L\260"
 113      20644308 
 113      3D0106AF 
 113      D11092AF 
 113      4CB0
 114 0096 FD6007C1 		.ascii	"\375`\007\301\016\201\035\001{\023%_\244M\036X6\330"
 114      0E811D01 
 114      7B13255F 
 114      A44D1E58 
 114      36D8
 115 00a8 08D8BB60 		.ascii	"\010\330\273`_(\234\002\260|\260/\301.\203]\005;\240"
 115      5F289C02 
 115      B07CB02F 
 115      C12E835D 
 115      053BA0
 116 00bb C4390DB6 		.ascii	"\3049\015\266D\351\177\015\354\006\330M\260\333Hn\220"
 116      44E97F0D 
 116      EC06D84D 
 116      B0DB486E 
 116      90
 117 00cc 8BE598F9 		.ascii	"\213\345\230\371p\277\027\254\010\354A,k\321_\007\025"
 117      70BF17AC 
 117      08EC412C 
 117      6BD15F07 
 117      15
 118 00dd 96AAA118 		.ascii	"\226\252\241\030\332=\016\266\002\214\214U\325\364\021"
 118      DA3D0EB6 
 118      028C8C55 
 118      D5F411
 119 00ec 180C17D5 		.ascii	"\030\014\027\325bY\3371\260{\300\036\203\317+\301\246"
 119      6259DF31 
 119      B07BC01E 
 119      83CF2BC1 
 119      A6
 120 00fd E0F90CD8 		.ascii	"\340\371\014\330\007`g\301N\202\305\300\306\301N\200"
 120      076067C1 
 120      4E82C5C0 
 120      C6C14E80 
 121 010d 714A2CA3 		.ascii	"qJ,\243y\310E[$\351g\322\340sR\3758\214{=\026pA.*\241"
 121      79C8455B 
 121      24E967D2 
 121      E07352FD 
 121      388C7B3D 
 122 0127 0FF9B934 		.ascii	"\017\371\2714\354#\350eI\212\316\236\232\233\345$)G"
 122      EC23E865 
 122      498ACE9E 
 122      9A9BE524 
 122      2947
ARM GAS  /tmp/ccD580lS.s 			page 9


 123 0139 C0433817 		.ascii	"\300C8\027\220\035\030=\212\016H\360\215$\315\375\020"
 123      901D183D 
 123      8A0E48F0 
 123      8D24CDFD 
 123      10
 124 014a FF4FE8BD 		.ascii	"\377O\350\275[\217\377\200\242\207)\372\227\034F\002"
 124      5B8FFF80 
 124      A28729FA 
 124      971C4602 
 125 015a 7E193FAA 		.ascii	"~\031?\252\200\004\234\235\253\005\323\317j\003B\243"
 125      80049C9D 
 125      AB05D3CF 
 125      6A0342A3 
 126 016a 5F2B0F24 		.ascii	"_+\017$A\356E\3516_\212\006\244\301\331\331\363S\227"
 126      41EE45E9 
 126      365F8A06 
 126      A4C1D9D9 
 126      F35397
 127 017d EE7F518A 		.ascii	"\356\177Q\212m\226\342\361g\321Ch7\014\217\350\227p"
 127      6D96E2F1 
 127      67D14368 
 127      370C8FE8 
 127      9770
 128 018f 44C04F3C 		.ascii	"D\300O<h8\004\302?\200\037R\236\326\331\344\230\034"
 128      683804C2 
 128      3F801F52 
 128      9ED6D9E4 
 128      981C
 129 01a1 1AD70D02 		.ascii	"\032\327\015\002\241\357\242a\302\223\366K6J#\355\367"
 129      A1EFA261 
 129      C293F64B 
 129      364A23ED 
 129      F7
 130 01b2 E3A5ACD4 		.ascii	"\343\245\254\324W1\247}!\353\212\275\263\343\017X\332"
 130      5731A77D 
 130      21EB8ABD 
 130      B3E30F58 
 130      DA
 131 01c3 217D138F 		.ascii	"!}\023\217\333\224p\034\232\264\024\340\240>\300\353"
 131      DB94701C 
 131      9AB414E0 
 131      A03EC0EB 
 132 01d3 C90166A3 		.ascii	"\311\001f\243\263\267\246/\375\034o\357\036\034\227"
 132      B3B7A62F 
 132      FD1C6FEF 
 132      1E1C97
 133 01e2 E6C97CA8 		.ascii	"\346\311|\2501zl\372\0302\344\260!d\241\377\357\031"
 133      317A6CFA 
 133      1832E4B0 
 133      2164A1FF 
 133      EF19
 134 01f4 2F4A63F2 		.ascii	"/Jc\362\354\251\210\023&\210\243\206\210\251\201\277"
 134      ECA98813 
 134      2688A386 
 134      88A981BF 
 135 0204 E004C2FA 		.ascii	"\340\004\302\372\002\034S\026\300Fs\035\3119\312|`V"
 135      021C5316 
ARM GAS  /tmp/ccD580lS.s 			page 10


 135      C046731D 
 135      C939CA7C 
 135      6056
 136 0216 872E50DC 		.ascii	"\207.P\334D\330;\2540\232\305\335)\263X\300\277\306"
 136      44D83BAC 
 136      309AC5DD 
 136      29B358C0 
 136      BFC6
 137 0228 8F584AB3 		.ascii	"\217XJ\263\"\264\235\214\250DC\222\262T\324OP\342\007"
 137      22B49D8C 
 137      A8444392 
 137      B254D44F 
 137      50E207
 138 023b 3139371F 		.ascii	"197\037\350\206Q\013\370]\\\004ZOe\260Z\357\312!\242"
 138      E886510B 
 138      F85D5C04 
 138      5A4F65B0 
 138      5AEFCA21 
 139 0250 8E4357B9 		.ascii	"\216CW\271\023\245J\261\235\347\362\245\014\371=2\030"
 139      13A54AB1 
 139      9DE7F2A5 
 139      0CF93D32 
 139      18
 140 0261 BA7295A2 		.ascii	"\272r\225\242Aiswl\367\271=\017K\203c\200\034\241?\312"
 140      41697377 
 140      6CF7B93D 
 140      0F4B8363 
 140      801CA13F 
 141 0276 492A81F4 		.ascii	"I*\201\3645\232\002\345Q\276\224\006,\257\367\\~TPa"
 141      359A02E5 
 141      51BE9406 
 141      2CAFF75C 
 141      7E545061 
 142 028a 7F4B1B56 		.ascii	"\177K\033V\302\300\372\264\260\217\254\300r\314\225"
 142      C2C0FAB4 
 142      B08FACC0 
 142      72CC95
 143 0299 F56B6117 		.ascii	"\365ka\027\322\206\261\312\366ha\237X\201\025\232+\033"
 143      D286B1CA 
 143      F668619F 
 143      5881159A 
 143      2B1B
 144 02ab D0C2FE95 		.ascii	"\320\302\376\2256\214UvX\013\373\334\012\254\330\\\331"
 144      368C5576 
 144      580BFBDC 
 144      0AACD85C 
 144      D9
 145 02bc 512D6C3E 		.ascii	"Q-l>m\030\253\354\230\026v\335\012\254\304\\\331\333"
 145      6D18ABEC 
 145      981676DD 
 145      0AACC45C 
 145      D9DB
 146 02ce 5AD8ADB4 		.ascii	"Z\330\255\264a\254\262\021-,n\005\366=se\277\325\302"
 146      61ACB211 
 146      2D2C6E05 
 146      F63D7365 
 146      BFD5C2
ARM GAS  /tmp/ccD580lS.s 			page 11


 147 02e1 BA33D385 		.ascii	"\2723\323\205\261\312\216ka\277\260\002[f\246\254+v"
 147      B1CA8E6B 
 147      61BFB002 
 147      5B66A6AC 
 147      2B76
 148 02f3 E2C751E1 		.ascii	"\342\307Q\341>\024U\266\024\231\252n+\230M-m\263!\363"
 148      3E1455B6 
 148      1499AA6E 
 148      2B984D2D 
 148      6DB321F3 
 149 0307 6602FE18 		.ascii	"f\002\376\030\337G\237\350\376))\373'ma\266\211\237"
 149      DF479FE8 
 149      FE2929FB 
 149      276D61B6 
 149      899F
 150 0319 93B7E9C5 		.ascii	"\223\267\351\305\237\277\362\260\270ik[\221s\202~\330"
 150      9FBFF2B0 
 150      B8696B5B 
 150      9173827E 
 150      D8
 151 032a AC0AA371 		.ascii	"\254\012\243q\263\2238\241\235\304\027\254L\342Js\330"
 151      B39338A1 
 151      9DC417AC 
 151      4CE24A73 
 151      D8
 152 033b 9416B6CB 		.ascii	"\224\026\266\313\012\254\336<W\316ha}i\303Xe\323Z\330"
 152      0AACDE3C 
 152      57CE6861 
 152      7D69C358 
 152      65D35AD8 
 153 034f 5E2BB026 		.ascii	"^+\260&seg\265\260\301\264aZe]\261\217\027\023op\245"
 153      736567B5 
 153      B0C1B461 
 153      5A655DB1 
 153      8F17136F 
 154 0365 2EF356B2 		.ascii	".\363V\262\273-\323l\310\264\231\200?K;\361>7I<\355"
 154      BB2DD36C 
 154      C8B49980 
 154      3F4B3BF1 
 154      3E37493C 
 155 037a A176B115 		.ascii	"\241v\261\025\014\373\025\375\260\031\021\312\343z\203"
 155      0CFB15FD 
 155      B01911CA 
 155      E37A83
 156 0389 3934BAB4 		.ascii	"94\272\264\177\250\005\374\036=I\234\300\245\340c\324"
 156      7FA805FC 
 156      1E3D499C 
 156      C0A5E063 
 156      D4
 157 039a 8F517F92 		.ascii	"\217Q\177\222\372\323\324\217S\377\001\365\177\244\376"
 157      FAD3D48F 
 157      53FF01F5 
 157      7FA4FE
 158 03a9 CFD44F50 		.ascii	"\317\324OP?E\375\031\352\247\251?K\375y\352g\250\377"
 158      3F45FD19 
 158      EAA7A93F 
 158      4BFD79EA 
ARM GAS  /tmp/ccD580lS.s 			page 12


 158      67A8FF
 159 03bc 07F59F50 		.ascii	"\007\365\237P\377)\365\377\006\237\270\362\320\326\305"
 159      FF29F5FF 
 159      069FB8F2 
 159      D0D6C5
 160 03cb 93BB7C06 		.ascii	"\223\273|\0061\233\273/p\236\332+\261B}\005\312\321"
 160      319BBB2F 
 160      709EDA2B 
 160      B1427D05 
 160      CAD1
 161 03dd 7F76582A 		.ascii	"\177vX*.N\314A\216v^\345#\011t\340\004\374\025\315\245"
 161      2E4ECC41 
 161      8E765EE5 
 161      230974E0 
 161      04FC15CD 
 162 03f2 D7328D8A 		.ascii	"\3272\215\212\010\032\344+\315\002\311\317\352S\034"
 162      081AE42B 
 162      CD02C9CF 
 162      EA531C
 163 0401 27F0852A 		.ascii	"'\360\205*\236Sz}\251$\202f\351\324\335\253\257@\356"
 163      9E537A7D 
 163      A9248266 
 163      E9D4DDAB 
 163      AF40EE
 164 0414 AE745DA1 		.ascii	"\256t]\241v\315V:\\N;\207\256\230\344P\226\361\224\222"
 164      76CD563A 
 164      5C4E3B87 
 164      AE98E450 
 164      96F19492 
 165 0428 B3B119EA 		.ascii	"\263\261\031\352\352\342\224\222Sql~v\362\342\370\026"
 165      EAE29492 
 165      53716C7E 
 165      76F2E2F8 
 165      16
 166 0439 FCBBE1E7 		.ascii	"\374\273\341\347\244h\327l\374\331}\261B\365p=\225i"
 166      A468D76C 
 166      FCD97DB1 
 166      42F5703D 
 166      9569
 167 044b A506B8A6 		.ascii	"\245\006\270\246\257\001\276N>{C\224\205\376SYj\361"
 167      AF01BE4E 
 167      3E7B4394 
 167      85FE5359 
 167      6AF1
 168 045d 53AA46F8 		.ascii	"S\252F\370\324R\204\033\372\010\013\206\021nN_\312N"
 168      D452841B 
 168      FA080B86 
 168      116E4E5F 
 168      CA4E
 169 046f 8A70DD52 		.ascii	"\212p\335R\204\233\372\010\267\214\"\304\016_\310's"
 169      849BFA08 
 169      B78C22C4 
 169      0E5FC827 
 169      73
 170 0480 14D7CC51 		.ascii	"\024\327\314QO\226\025\376m=\377\216\341\010>\2742\361"
 170      4F9615FE 
 170      6D3DFF8E 
ARM GAS  /tmp/ccD580lS.s 			page 13


 170      E1083EBC 
 170      32F1
 171 0492 3CDE7E28 		.ascii	"<\336~(\261\022\321\014\353EJ\027gP\244\350\212\222"
 171      B112D10C 
 171      EB454A17 
 171      6750A4E8 
 171      8A92
 172 04a4 31462C6D 		.ascii	"1F,m\311\241\211,\345\227\361\035\364\222\004e\340\344"
 172      C9A1892C 
 172      E597F11D 
 172      F4920465 
 172      E0E4
 173 04b6 E9FC2856 		.ascii	"\351\374(V\353\360\013\264\207\304-5)M\224\342G\031"
 173      EBF00BB4 
 173      87C42D35 
 173      294D94E2 
 173      4719
 174 04c8 F3D5AEA6 		.ascii	"\363\325\256\246\342\304\230I'f\314\335\234\321\230"
 174      E2C49849 
 174      2766CCDD 
 174      9CD198
 175 04d7 272F2EF4 		.ascii	"'/.\364\031f\337?-\315l\217>\312V\243(\261\221\271q"
 175      1966DF3F 
 175      2DCD6C8F 
 175      3ECA56A3 
 175      28B191B9 
 176 04ec A5C4EDDE 		.ascii	"\245\304\355\336\302%\252\307\005K!\236\327\207\330"
 176      C225AAC7 
 176      054B219E 
 176      D787D8
 177 04fb 66389085 		.ascii	"f8\220\205\376\017\223\023|[\266\225\010/\350#D\015"
 177      FE0F9313 
 177      7C5BB695 
 177      082FE823 
 177      440D
 178 050d 23DCECBD 		.ascii	"#\334\354\275\235\234\340\203\226\"\354\320G\330i8M"
 178      9D9CE083 
 178      9622ECD0 
 178      47D86938 
 178      4D
 179 051e D199A404 		.ascii	"\321\231\244\004\177\313\022\177\267\236\337\313\362"
 179      7FCB127F 
 179      B79EDFCB 
 179      F2
 180 052b 0D4ACA41 		.ascii	"\015J\312A\233\232J\313Q\2424\335yg\242\007\037\221"
 180      9B9A4ACB 
 180      51A234DD 
 180      7967A207 
 180      1F91
 181 053d 2408DFC7 		.ascii	"$\010\337\307\221\332\364k]\370\273\202H\360_q\272\332"
 181      91DAF46B 
 181      5DF8BB82 
 181      48F05F71 
 181      BADA
 182 054f F4C60CAD 		.ascii	"\364\306\014\255M\311\373\273\327\246\267fv1\265iW\016"
 182      4DC9FBBB 
 182      D7A6B766 
ARM GAS  /tmp/ccD580lS.s 			page 14


 182      7631B569 
 182      570E
 183 0561 5698DFAE 		.ascii	"V\230\337\2566\375fFs\246\331\2346\254\204\201\335\321"
 183      36FD6646 
 183      73A6D99C 
 183      36AC8481 
 183      DDD1
 184 0573 C27AACC0 		.ascii	"\302z\254\300R\324\246Q\372\253\310Wq\333\322\306\261"
 184      52D4A651 
 184      FAABC857 
 184      71DBD2C6 
 184      B1
 185 0584 DA76B0B8 		.ascii	"\332v\260\270^+\270\024\365\351.\026\267/m\034\253\256"
 185      5E2BB814 
 185      F5E92E16 
 185      B72F6D1C 
 185      ABAE
 186 0596 97C5BD62 		.ascii	"\227\305\275b\005\227\242F\355cqo\244\215c\325\365\263"
 186      0597A246 
 186      ED63716F 
 186      A48D63D5 
 186      F5B3
 187 05a8 B8B7ADE0 		.ascii	"\270\267\255\340J\314\325\355aq\243i\343Xu\003,\356"
 187      4ACCD5ED 
 187      6171A369 
 187      E3587503 
 187      2CEE
 188 05ba 7D2BB814 		.ascii	"}+\270\024\265\352a\026\367\373\264q\254\272\243,\356"
 188      B5EA6116 
 188      F7FBB471 
 188      ACBAA32C 
 188      EE
 189 05cb 4F567046 		.ascii	"OVpF\365\252\321\245\335L\004\274\207#\347\347\275\034"
 189      F5AAD1A5 
 189      DD4C04BC 
 189      8723E7E7 
 189      BD1C
 190 05dd 39D3EEA3 		.ascii	"9\323\356\243~\210\372\227\250\037\246\3767\324\037"
 190      7E88FA97 
 190      A81FA6FE 
 190      37D41F
 191 05ec A0FE35EA 		.ascii	"\240\3765\352_\247\376\020\365G\250\177\223\372\267"
 191      5FA7FE10 
 191      F547A87F 
 191      93FAB7
 192 05fb 38F35371 		.ascii	"8\363Sq\237\211|\372?D.q\2043\372W\035S\246\312\373"
 192      9F897CFA 
 192      3F442E71 
 192      8433FA57 
 192      1D53A6CA 
 193 0610 6AEC3FBD 		.ascii	"j\354?\275\270\004\346\207n\251\177\315\271\373\277"
 193      B804E687 
 193      6EA97FCD 
 193      B9FBBF
 194 061f FB920AEE 		.ascii	"\373\222\012\356Q\375\226z~\232n\251\243\226\266\324"
 194      51FD967A 
 194      7E9A6EA9 
ARM GAS  /tmp/ccD580lS.s 			page 15


 194      A396B6D4 
 195 062f CBD3EC96 		.ascii	"\313\323\354\226:G%\214~\353-\365\312tb\027\024\360"
 195      3A47258C 
 195      7EEB2DF5 
 195      CA746217 
 195      14F0
 196 0641 00C7A509 		.ascii	"\000\307\245\011c\323\347\332\264fK\375\314\212\262"
 196      63D3E7DA 
 196      B4664BFD 
 196      CC8AB2
 197 0650 145BEA75 		.ascii	"\024[\352u-l>mXI\252L\034\325d\342q\232\211\357\321"
 197      2D6C3E6D 
 197      5849AA4C 
 197      1CD564E2 
 197      719A89EF 
 198 0665 3C7A9FFA 		.ascii	"<z\237\372\030\365c)rj$EN\235\\\314)]\257c)\212\211"
 198      18F56329 
 198      726A2445 
 198      4E9D5CCC 
 198      295DAF63 
 199 067c 538BBD50 		.ascii	"S\213\275P\330\036h\245\366}{[\320/\332CbX\024B\236"
 199      D81E68A5 
 199      F67D7B5B 
 199      D02FDA43 
 199      62581442 
 200 0691 367B9B10 		.ascii	"6{\233\020jyF\010\211v!\344w\330\237\362x\312\340\241"
 200      6A794608 
 200      897621E4 
 200      77D89FF2 
 200      78CAE0A1 
 201 06a5 4CF46F10 		.ascii	"L\364o\020[Z\304\226\304\213@0 \226\211\302\006o\331"
 201      5B5AC496 
 201      C48B4030 
 201      209689C2 
 201      066FD9
 202 06b8 72F78A32 		.ascii	"r\367\2122\307\262\212\345O;\354\314\027vo\300\343k"
 202      C7B28AE5 
 202      4F3BECCC 
 202      17766FC0 
 202      E36B
 203 06ca 6F11EDE1 		.ascii	"o\021\355\341H\2137\020)oC9\355p\257t\270#Y\253\326"
 203      488B3710 
 203      296F4339 
 203      ED70AF74 
 203      B82359AB 
 204 06df AC2B71A2 		.ascii	"\254+q\242n\374\377\023\341\027<m\336\200hw\267\210"
 204      6EFCFF13 
 204      E1173C6D 
 204      DE806877 
 204      B788
 205 06f1 AD42BB2F 		.ascii	"\255B\273/\342\216l\332(\206A\324=n\267*\253\242\274"
 205      E28E6CDA 
 205      288641D4 
 205      3D6EB72A 
 205      ABA2BC
 206 0704 DCEE6CF3 		.ascii	"\334\356l\363n\360\256u\331\203a\020\341\263o\014\206"
 206      6EF0AE75 
ARM GAS  /tmp/ccD580lS.s 			page 16


 206      D9836110 
 206      E1B36F0C 
 206      86
 207 0715 2261BBAB 		.ascii	"\"a\273\253\271\261\322a_\275\272\306\336\334\320\330"
 207      B9B1D261 
 207      5FBDBAC6 
 207      DEDCD0D8 
 208 0725 51012372 		.ascii	"Q\001#r\373|-\345\036\224\363#\321\023\011\206\252\227"
 208      FB7C2DE5 
 208      1E94F323 
 208      D1130986 
 208      AA97
 209 0737 E5C9AFDC 		.ascii	"\345\311\257\334\336\2007\362\030\213\011E\024J\025"
 209      DE8037F2 
 209      188B0945 
 209      144A15
 210 0746 DFE86CEC 		.ascii	"\337\350l\354\264{\332<\301\220\350\356x\334\017\321"
 210      B47BDA3C 
 210      C190E8EE 
 210      78DC0FD1 
 211 0756 8BDCE43B 		.ascii	"\213\334\344;\2677\364\264[\334\350\365\005\237j\027"
 211      B737F4B4 
 211      5BDCE8F5 
 211      059F6A17 
 212 0766 4B93BAAB 		.ascii	"K\223\272\253c\360\264\2057\021\311E\2366\327\246p\263"
 212      63F0B485 
 212      3711C945 
 212      9E36D7A6 
 212      70B3
 213 0778 D72F86EA 		.ascii	"\327/\206\352\205@\213O\0145\224\231I\367\004\375\376"
 213      85408B4F 
 213      0C359499 
 213      49F704FD 
 213      FE
 214 0789 60408D1D 		.ascii	"`@\215\035\350\360z\000PH\356\265\001a\203O\224\007"
 214      E8F07A00 
 214      5048EEB5 
 214      0161834F 
 214      9407
 215 079b B0DCFAC8 		.ascii	"\260\334\372\310\375d\246\274D{^\342\203;bs\362\025"
 215      FD64A6BC 
 215      447B5EE2 
 215      833B6273 
 215      F215
 216 07ad 608E0C57 		.ascii	"`\216\014W\243\223\317\250i\250\3459\027o\253]\305g"
 216      A393CFA8 
 216      69A8E539 
 216      176FAB5D 
 216      C567
 217 07bf 3A9D8D7C 		.ascii	":\235\215|\005\365\216\014\247\263\226\2679\3274\333"
 217      05F58E0C 
 217      A7B396B7 
 217      39D734DB 
 218 07cf 9A       		.ascii	"\232"
 219 07d0 5C4E5B15 		.ascii	"\\N[\025\317\333x'|\206\016\3255\315\274\255\206\364"
 219      CFDB7827 
 219      7C860ED5 
ARM GAS  /tmp/ccD580lS.s 			page 17


 219      35CDBCAD 
 219      86F4
 220 07e2 6CACE2B9 		.ascii	"l\254\342\271\265r\257Jh\277\236\317\360@2\224&\353"
 220      B572AF4A 
 220      68BF9ECF 
 220      F0403294 
 220      26EB
 221 07f4 0B86C1C1 		.ascii	"\013\206\301\301\344\220;\231\023r\207YY\035\364\374"
 221      E4903B99 
 221      13728759 
 221      591DF4FC 
 222 0804 B42E14F4 		.ascii	"\264.\024\3647\270\370B:M\232\027Et\256}\360\302\335"
 222      37B8F842 
 222      3A4D9A17 
 222      4574AE7D 
 222      F0C2DD
 223 0817 0A6FDCDE 		.ascii	"\012o\334\336p(7\361\252\234\015!vF\354\316FW\203kq"
 223      702837F1 
 223      AA9C0D21 
 223      7646ECCE 
 223      4657836B 
 224 082c F6C9AA79 		.ascii	"\366\311\252y\374u\355\0012\205K\334\356\260\030qWW"
 224      FC75ED01 
 224      32854BDC 
 224      EEB01871 
 224      5757
 225 083e B96A9BF8 		.ascii	"\271j\233\370\206%\202\357\031aS\030\226\337\007I\226"
 225      862582EF 
 225      19615318 
 225      96DF0749 
 225      96
 226 084f D921F8DA 		.ascii	"\331!\370\332\305\373\211\242\265\3542=\240\250\\\027"
 226      C5FB89A2 
 226      B5EC323D 
 226      A0A85C17 
 227 085f F0696451 		.ascii	"\360idQ\235\314\253\007\250\254\366\000\2435O\363\262"
 227      9DCCAB07 
 227      A8ACF600 
 227      A3354FF3 
 227      B2
 228 0870 D24CADAB 		.ascii	"\322L\255\253Y^\263\272\312\316Ny\265Z+\227Uv\022\311"
 228      595EB3BA 
 228      CACE4E79 
 228      B55A2B97 
 228      557612C9 
 229 0884 79BCD3E9 		.ascii	"y\274\323\351n\206\264\257\021[9\230kg\335*\230\375"
 229      6E86B4AF 
 229      115B3998 
 229      6B67DD2A 
 229      98FD
 230 0896 063EA7AA 		.ascii	"\006>\247\252\251\332\301\273\232\351C\005y\310\252"
 230      A9DAC1BB 
 230      9AE94305 
 230      79C8AA
 231 08a5 AAAFAE5D 		.ascii	"\252\257\256]\303g\223/\224{\005\334a\231\310z\271\340"
 231      C367932F 
 231      947B05DC 
ARM GAS  /tmp/ccD580lS.s 			page 18


 231      6199C87A 
 231      B9E0
 232 08b7 457D3569 		.ascii	"E}5i\227I\020\016\352+\013j\252W5:\327\251\001\262\032"
 232      9749100E 
 232      EA2B0B6A 
 232      AA57353A 
 232      D7A901B2 
 233 08cc 6A9C6B6B 		.ascii	"j\234kkj\263H\327\272'\311\315Q\367\344\177\001]/E\351"
 233      6AB348D7 
 233      BA27C9CD 
 233      51F7E47F 
 233      015D2F45 
 234              		.text
 235              		.section	.gnu.lto_.symtab.aa65083ab2193431,"",%progbits
 236 0000 56656374 		.ascii	"VectorB0\000\000\000\000\000\000\000\000\000\000\000"
 236      6F724230 
 236      00000000 
 236      00000000 
 236      000000
 237 0013 00A80000 		.ascii	"\000\250\000\000\000st_lld_init\000\000\000\000\000"
 237      0073745F 
 237      6C6C645F 
 237      696E6974 
 237      00000000 
 238 0028 00000000 		.ascii	"\000\000\000\000\000\000\000\254\000\000\000_port_i"
 238      000000AC 
 238      0000005F 
 238      706F7274 
 238      5F69
 239 003a 72715F65 		.ascii	"rq_epilogue\000\000\002\000\000\000\000\000\000\000"
 239      70696C6F 
 239      67756500 
 239      00020000 
 239      00000000 
 240 004f 0000AF00 		.ascii	"\000\000\257\000\000\000chSysTimerHandlerI\000\000\002"
 240      00006368 
 240      53797354 
 240      696D6572 
 240      48616E64 
 241 006a 00000000 		.ascii	"\000\000\000\000\000\000\000\000\000\261\000\000\000"
 241      00000000 
 241      00B10000 
 241      00
 242 0077 6E766963 		.ascii	"nvicEnableVector\000\000\002\000\000\000\000\000\000"
 242      456E6162 
 242      6C655665 
 242      63746F72 
 242      00000200 
 243 0090 000000B3 		.ascii	"\000\000\000\263\000\000\000"
 243      000000
 244              		.text
 245              		.section	.gnu.lto_.opts,"",%progbits
 246 0000 272D6D63 		.ascii	"'-mcpu=cortex-m4' '-mno-thumb-interwork' '-mthumb' "
 246      70753D63 
 246      6F727465 
 246      782D6D34 
 246      2720272D 
ARM GAS  /tmp/ccD580lS.s 			page 19


 247 0033 272D6767 		.ascii	"'-ggdb' '-O2' '-fomit-frame-pointer' '-falign-funct"
 247      64622720 
 247      272D4F32 
 247      2720272D 
 247      666F6D69 
 248 0066 696F6E73 		.ascii	"ions=16' '-ffunction-sections' '-fdata-sections' '-"
 248      3D313627 
 248      20272D66 
 248      66756E63 
 248      74696F6E 
 249 0099 666E6F2D 		.ascii	"fno-common' '-flto'\000"
 249      636F6D6D 
 249      6F6E2720 
 249      272D666C 
 249      746F2700 
 250              		.text
 251              		.cfi_sections	.debug_frame
 252              		.section	.text.VectorB0,"ax",%progbits
 253              		.align	2
 254              		.p2align 4,,15
 255              		.global	VectorB0
 256              		.thumb
 257              		.thumb_func
 258              		.type	VectorB0, %function
 259              	VectorB0:
 260              	.LFB272:
 261              		.file 1 "../ChibiOS/os/hal/ports/STM32/LLD/TIMv1/st_lld.c"
 262              		.loc 1 239 0
 263              		.cfi_startproc
 264              		@ args = 0, pretend = 0, frame = 0
 265              		@ frame_needed = 0, uses_anonymous_args = 0
 266              		.loc 1 246 0
 267 0000 4FF08043 		mov	r3, #1073741824
 268              		.loc 1 239 0
 269 0004 10B5     		push	{r4, lr}
 270              		.cfi_def_cfa_offset 8
 271              		.cfi_offset 4, -8
 272              		.cfi_offset 14, -4
 273              		.loc 1 246 0
 274 0006 1A69     		ldr	r2, [r3, #16]
 275 0008 9207     		lsls	r2, r2, #30
 276 000a 08D5     		bpl	.L2
 277              		.loc 1 247 0
 278 000c 0024     		movs	r4, #0
 279 000e 1C61     		str	r4, [r3, #16]
 280              	.LVL0:
 281              	.LBB52:
 282              	.LBB53:
 283              	.LBB54:
 284              	.LBB55:
 285              	.LBB56:
 286              	.LBB57:
 287              		.file 2 "../ChibiOS/os/ext/CMSIS/include/core_cmFunc.h"
 288              		.loc 2 548 0
 289 0010 2023     		movs	r3, #32
 290              	@ 548 "../ChibiOS/os/ext/CMSIS/include/core_cmFunc.h" 1
 291 0012 83F31188 		MSR basepri, r3
ARM GAS  /tmp/ccD580lS.s 			page 20


 292              	@ 0 "" 2
 293              		.thumb
 294              	.LBE57:
 295              	.LBE56:
 296              	.LBE55:
 297              	.LBE54:
 298              	.LBE53:
 299              	.LBE52:
 300              	.LBB58:
 301              	.LBB59:
 302              		.file 3 "../ChibiOS/os/hal/osal/rt/osal.h"
 303              		.loc 3 585 0
 304 0016 FFF7FEFF 		bl	chSysTimerHandlerI
 305              	.LVL1:
 306              	.LBE59:
 307              	.LBE58:
 308              	.LBB60:
 309              	.LBB61:
 310              	.LBB62:
 311              	.LBB63:
 312              	.LBB64:
 313              	.LBB65:
 314              		.loc 2 548 0
 315              	@ 548 "../ChibiOS/os/ext/CMSIS/include/core_cmFunc.h" 1
 316 001a 84F31188 		MSR basepri, r4
 317              	@ 0 "" 2
 318              	.LVL2:
 319              		.thumb
 320              	.L2:
 321              	.LBE65:
 322              	.LBE64:
 323              	.LBE63:
 324              	.LBE62:
 325              	.LBE61:
 326              	.LBE60:
 327              		.loc 1 255 0
 328 001e BDE81040 		pop	{r4, lr}
 329              		.loc 1 254 0
 330 0022 FFF7FEBF 		b	_port_irq_epilogue
 331              	.LVL3:
 332              		.cfi_endproc
 333              	.LFE272:
 334              		.size	VectorB0, .-VectorB0
 335 0026 00BFAFF3 		.section	.text.st_lld_init,"ax",%progbits
 335      0080AFF3 
 335      0080
 336              		.align	2
 337              		.p2align 4,,15
 338              		.global	st_lld_init
 339              		.thumb
 340              		.thumb_func
 341              		.type	st_lld_init, %function
 342              	st_lld_init:
 343              	.LFB273:
 344              		.loc 1 267 0
 345              		.cfi_startproc
 346              		@ args = 0, pretend = 0, frame = 0
ARM GAS  /tmp/ccD580lS.s 			page 21


 347              		@ frame_needed = 0, uses_anonymous_args = 0
 348              		@ link register save eliminated.
 349              		.loc 1 273 0
 350 0000 0F4B     		ldr	r3, .L8
 351              		.loc 1 276 0
 352 0002 1049     		ldr	r1, .L8+4
 353              		.loc 1 273 0
 354 0004 DA69     		ldr	r2, [r3, #28]
 355              		.loc 1 267 0
 356 0006 70B4     		push	{r4, r5, r6}
 357              		.cfi_def_cfa_offset 12
 358              		.cfi_offset 4, -12
 359              		.cfi_offset 5, -8
 360              		.cfi_offset 6, -4
 361              		.loc 1 273 0
 362 0008 42F00102 		orr	r2, r2, #1
 363 000c DA61     		str	r2, [r3, #28]
 364              		.loc 1 276 0
 365 000e 8868     		ldr	r0, [r1, #8]
 366              		.loc 1 279 0
 367 0010 4FF08043 		mov	r3, #1073741824
 368              		.loc 1 281 0
 369 0014 0022     		movs	r2, #0
 370              		.loc 1 285 0
 371 0016 0124     		movs	r4, #1
 372              		.loc 1 276 0
 373 0018 40F00100 		orr	r0, r0, #1
 374              		.loc 1 279 0
 375 001c 41F61F46 		movw	r6, #7199
 376              		.loc 1 280 0
 377 0020 4FF0FF35 		mov	r5, #-1
 378              		.loc 1 276 0
 379 0024 8860     		str	r0, [r1, #8]
 380              		.loc 1 279 0
 381 0026 9E62     		str	r6, [r3, #40]
 382              		.loc 1 289 0
 383 0028 1C20     		movs	r0, #28
 384              		.loc 1 280 0
 385 002a DD62     		str	r5, [r3, #44]
 386              		.loc 1 289 0
 387 002c 0821     		movs	r1, #8
 388              		.loc 1 281 0
 389 002e 9A61     		str	r2, [r3, #24]
 390              		.loc 1 282 0
 391 0030 5A63     		str	r2, [r3, #52]
 392              		.loc 1 283 0
 393 0032 DA60     		str	r2, [r3, #12]
 394              		.loc 1 284 0
 395 0034 5A60     		str	r2, [r3, #4]
 396              		.loc 1 285 0
 397 0036 5C61     		str	r4, [r3, #20]
 398              		.loc 1 286 0
 399 0038 1C60     		str	r4, [r3]
 400              		.loc 1 304 0
 401 003a 70BC     		pop	{r4, r5, r6}
 402              		.loc 1 289 0
 403 003c FFF7FEBF 		b	nvicEnableVector
ARM GAS  /tmp/ccD580lS.s 			page 22


 404              	.LVL4:
 405              	.L9:
 406              		.align	2
 407              	.L8:
 408 0040 00100240 		.word	1073876992
 409 0044 002004E0 		.word	-536600576
 410              		.cfi_endproc
 411              	.LFE273:
 412              		.size	st_lld_init, .-st_lld_init
 413 0048 AFF30080 		.text
 413      AFF30080 
 414              	.Letext0:
 415              		.file 4 "/nfs/nfs5/home/research/hardware/arm2/gcc-arm-embedded/gcc-arm-none-eabi-4_8-2014q2/arm-n
 416              		.file 5 "/nfs/nfs5/home/research/hardware/arm2/gcc-arm-embedded/gcc-arm-none-eabi-4_8-2014q2/arm-n
 417              		.file 6 "../ChibiOS/os/rt/ports/ARMCMx/compilers/GCC/chtypes.h"
 418              		.file 7 "../ChibiOS/os/rt/include/chsystypes.h"
 419              		.file 8 "../ChibiOS/os/rt/include/chschd.h"
 420              		.file 9 "../ChibiOS/os/ext/CMSIS/ST/STM32F3xx/stm32f303xc.h"
 421              		.file 10 "../ChibiOS/os/rt/ports/ARMCMx/chcore.h"
 422              		.file 11 "../ChibiOS/os/rt/ports/ARMCMx/chcore_v7m.h"
 423              		.file 12 "../ChibiOS/os/hal/ports/STM32/LLD/TIMv1/stm32_tim.h"
 424              		.file 13 "../ChibiOS/os/rt/include/chtm.h"
 425              		.file 14 "../ChibiOS/os/rt/include/chsem.h"
 426              		.file 15 "../ChibiOS/os/rt/include/chmtx.h"
 427              		.file 16 "../ChibiOS/os/rt/include/chsys.h"
 428              		.file 17 "../ChibiOS/os/ext/CMSIS/include/core_cm4.h"
 429              		.file 18 "../ChibiOS/os/hal/ports/common/ARMCMx/nvic.h"
 430              		.section	.debug_info,"",%progbits
 431              	.Ldebug_info0:
 432 0000 390A0000 		.4byte	0xa39
 433 0004 0400     		.2byte	0x4
 434 0006 00000000 		.4byte	.Ldebug_abbrev0
 435 000a 04       		.byte	0x4
 436 000b 01       		.uleb128 0x1
 437 000c 07060000 		.4byte	.LASF141
 438 0010 01       		.byte	0x1
 439 0011 3E020000 		.4byte	.LASF142
 440 0015 56030000 		.4byte	.LASF143
 441 0019 00000000 		.4byte	.Ldebug_ranges0+0
 442 001d 00000000 		.4byte	0
 443 0021 00000000 		.4byte	.Ldebug_line0
 444 0025 02       		.uleb128 0x2
 445 0026 04       		.byte	0x4
 446 0027 05       		.byte	0x5
 447 0028 696E7400 		.ascii	"int\000"
 448 002c 03       		.uleb128 0x3
 449 002d 04       		.byte	0x4
 450 002e 07       		.byte	0x7
 451 002f F6010000 		.4byte	.LASF0
 452 0033 03       		.uleb128 0x3
 453 0034 01       		.byte	0x1
 454 0035 06       		.byte	0x6
 455 0036 08010000 		.4byte	.LASF1
 456 003a 04       		.uleb128 0x4
 457 003b 28000000 		.4byte	.LASF5
 458 003f 04       		.byte	0x4
 459 0040 1C       		.byte	0x1c
ARM GAS  /tmp/ccD580lS.s 			page 23


 460 0041 45000000 		.4byte	0x45
 461 0045 03       		.uleb128 0x3
 462 0046 01       		.byte	0x1
 463 0047 08       		.byte	0x8
 464 0048 39040000 		.4byte	.LASF2
 465 004c 03       		.uleb128 0x3
 466 004d 02       		.byte	0x2
 467 004e 05       		.byte	0x5
 468 004f 5E040000 		.4byte	.LASF3
 469 0053 03       		.uleb128 0x3
 470 0054 02       		.byte	0x2
 471 0055 07       		.byte	0x7
 472 0056 85010000 		.4byte	.LASF4
 473 005a 04       		.uleb128 0x4
 474 005b BB020000 		.4byte	.LASF6
 475 005f 04       		.byte	0x4
 476 0060 37       		.byte	0x37
 477 0061 65000000 		.4byte	0x65
 478 0065 03       		.uleb128 0x3
 479 0066 04       		.byte	0x4
 480 0067 05       		.byte	0x5
 481 0068 47010000 		.4byte	.LASF7
 482 006c 04       		.uleb128 0x4
 483 006d 58050000 		.4byte	.LASF8
 484 0071 04       		.byte	0x4
 485 0072 38       		.byte	0x38
 486 0073 77000000 		.4byte	0x77
 487 0077 03       		.uleb128 0x3
 488 0078 04       		.byte	0x4
 489 0079 07       		.byte	0x7
 490 007a F1040000 		.4byte	.LASF9
 491 007e 03       		.uleb128 0x3
 492 007f 08       		.byte	0x8
 493 0080 05       		.byte	0x5
 494 0081 67010000 		.4byte	.LASF10
 495 0085 04       		.uleb128 0x4
 496 0086 CF030000 		.4byte	.LASF11
 497 008a 04       		.byte	0x4
 498 008b 4E       		.byte	0x4e
 499 008c 90000000 		.4byte	0x90
 500 0090 03       		.uleb128 0x3
 501 0091 08       		.byte	0x8
 502 0092 07       		.byte	0x7
 503 0093 57000000 		.4byte	.LASF12
 504 0097 04       		.uleb128 0x4
 505 0098 FF050000 		.4byte	.LASF13
 506 009c 05       		.byte	0x5
 507 009d 2A       		.byte	0x2a
 508 009e 3A000000 		.4byte	0x3a
 509 00a2 04       		.uleb128 0x4
 510 00a3 31040000 		.4byte	.LASF14
 511 00a7 05       		.byte	0x5
 512 00a8 41       		.byte	0x41
 513 00a9 5A000000 		.4byte	0x5a
 514 00ad 04       		.uleb128 0x4
 515 00ae C0040000 		.4byte	.LASF15
 516 00b2 05       		.byte	0x5
ARM GAS  /tmp/ccD580lS.s 			page 24


 517 00b3 42       		.byte	0x42
 518 00b4 6C000000 		.4byte	0x6c
 519 00b8 04       		.uleb128 0x4
 520 00b9 1F000000 		.4byte	.LASF16
 521 00bd 05       		.byte	0x5
 522 00be 4E       		.byte	0x4e
 523 00bf 85000000 		.4byte	0x85
 524 00c3 04       		.uleb128 0x4
 525 00c4 A6050000 		.4byte	.LASF17
 526 00c8 06       		.byte	0x6
 527 00c9 39       		.byte	0x39
 528 00ca AD000000 		.4byte	0xad
 529 00ce 04       		.uleb128 0x4
 530 00cf 04070000 		.4byte	.LASF18
 531 00d3 06       		.byte	0x6
 532 00d4 3C       		.byte	0x3c
 533 00d5 97000000 		.4byte	0x97
 534 00d9 04       		.uleb128 0x4
 535 00da 59010000 		.4byte	.LASF19
 536 00de 06       		.byte	0x6
 537 00df 3D       		.byte	0x3d
 538 00e0 97000000 		.4byte	0x97
 539 00e4 04       		.uleb128 0x4
 540 00e5 E1030000 		.4byte	.LASF20
 541 00e9 06       		.byte	0x6
 542 00ea 3E       		.byte	0x3e
 543 00eb 97000000 		.4byte	0x97
 544 00ef 04       		.uleb128 0x4
 545 00f0 00040000 		.4byte	.LASF21
 546 00f4 06       		.byte	0x6
 547 00f5 40       		.byte	0x40
 548 00f6 AD000000 		.4byte	0xad
 549 00fa 04       		.uleb128 0x4
 550 00fb 6F020000 		.4byte	.LASF22
 551 00ff 06       		.byte	0x6
 552 0100 41       		.byte	0x41
 553 0101 A2000000 		.4byte	0xa2
 554 0105 04       		.uleb128 0x4
 555 0106 AF020000 		.4byte	.LASF23
 556 010a 06       		.byte	0x6
 557 010b 43       		.byte	0x43
 558 010c AD000000 		.4byte	0xad
 559 0110 04       		.uleb128 0x4
 560 0111 F0010000 		.4byte	.LASF24
 561 0115 06       		.byte	0x6
 562 0116 45       		.byte	0x45
 563 0117 A2000000 		.4byte	0xa2
 564 011b 04       		.uleb128 0x4
 565 011c 32050000 		.4byte	.LASF25
 566 0120 07       		.byte	0x7
 567 0121 33       		.byte	0x33
 568 0122 AD000000 		.4byte	0xad
 569 0126 04       		.uleb128 0x4
 570 0127 22050000 		.4byte	.LASF26
 571 012b 07       		.byte	0x7
 572 012c 3F       		.byte	0x3f
 573 012d 31010000 		.4byte	0x131
ARM GAS  /tmp/ccD580lS.s 			page 25


 574 0131 05       		.uleb128 0x5
 575 0132 29020000 		.4byte	.LASF45
 576 0136 40       		.byte	0x40
 577 0137 08       		.byte	0x8
 578 0138 C2       		.byte	0xc2
 579 0139 11020000 		.4byte	0x211
 580 013d 06       		.uleb128 0x6
 581 013e 30030000 		.4byte	.LASF27
 582 0142 08       		.byte	0x8
 583 0143 C3       		.byte	0xc3
 584 0144 1C020000 		.4byte	0x21c
 585 0148 00       		.byte	0
 586 0149 06       		.uleb128 0x6
 587 014a F9030000 		.4byte	.LASF28
 588 014e 08       		.byte	0x8
 589 014f C5       		.byte	0xc5
 590 0150 1C020000 		.4byte	0x21c
 591 0154 04       		.byte	0x4
 592 0155 06       		.uleb128 0x6
 593 0156 DE000000 		.4byte	.LASF29
 594 015a 08       		.byte	0x8
 595 015b C7       		.byte	0xc7
 596 015c EF000000 		.4byte	0xef
 597 0160 08       		.byte	0x8
 598 0161 06       		.uleb128 0x6
 599 0162 14070000 		.4byte	.LASF30
 600 0166 08       		.byte	0x8
 601 0167 C8       		.byte	0xc8
 602 0168 78050000 		.4byte	0x578
 603 016c 0C       		.byte	0xc
 604 016d 06       		.uleb128 0x6
 605 016e 75010000 		.4byte	.LASF31
 606 0172 08       		.byte	0x8
 607 0173 CA       		.byte	0xca
 608 0174 1C020000 		.4byte	0x21c
 609 0178 10       		.byte	0x10
 610 0179 06       		.uleb128 0x6
 611 017a 4E030000 		.4byte	.LASF32
 612 017e 08       		.byte	0x8
 613 017f CB       		.byte	0xcb
 614 0180 1C020000 		.4byte	0x21c
 615 0184 14       		.byte	0x14
 616 0185 06       		.uleb128 0x6
 617 0186 F8060000 		.4byte	.LASF33
 618 018a 08       		.byte	0x8
 619 018b D2       		.byte	0xd2
 620 018c 25080000 		.4byte	0x825
 621 0190 18       		.byte	0x18
 622 0191 06       		.uleb128 0x6
 623 0192 68040000 		.4byte	.LASF34
 624 0196 08       		.byte	0x8
 625 0197 DD       		.byte	0xdd
 626 0198 D9000000 		.4byte	0xd9
 627 019c 1C       		.byte	0x1c
 628 019d 06       		.uleb128 0x6
 629 019e 7E040000 		.4byte	.LASF35
 630 01a2 08       		.byte	0x8
ARM GAS  /tmp/ccD580lS.s 			page 26


 631 01a3 E1       		.byte	0xe1
 632 01a4 CE000000 		.4byte	0xce
 633 01a8 1D       		.byte	0x1d
 634 01a9 06       		.uleb128 0x6
 635 01aa E1050000 		.4byte	.LASF36
 636 01ae 08       		.byte	0x8
 637 01af E6       		.byte	0xe6
 638 01b0 E4000000 		.4byte	0xe4
 639 01b4 1E       		.byte	0x1e
 640 01b5 07       		.uleb128 0x7
 641 01b6 705F7500 		.ascii	"p_u\000"
 642 01ba 08       		.byte	0x8
 643 01bb 3701     		.2byte	0x137
 644 01bd 54070000 		.4byte	0x754
 645 01c1 20       		.byte	0x20
 646 01c2 08       		.uleb128 0x8
 647 01c3 F3020000 		.4byte	.LASF37
 648 01c7 08       		.byte	0x8
 649 01c8 3C01     		.2byte	0x13c
 650 01ca 22020000 		.4byte	0x222
 651 01ce 24       		.byte	0x24
 652 01cf 08       		.uleb128 0x8
 653 01d0 12020000 		.4byte	.LASF38
 654 01d4 08       		.byte	0x8
 655 01d5 4201     		.2byte	0x142
 656 01d7 46020000 		.4byte	0x246
 657 01db 28       		.byte	0x28
 658 01dc 08       		.uleb128 0x8
 659 01dd 37030000 		.4byte	.LASF39
 660 01e1 08       		.byte	0x8
 661 01e2 4801     		.2byte	0x148
 662 01e4 05010000 		.4byte	0x105
 663 01e8 30       		.byte	0x30
 664 01e9 08       		.uleb128 0x8
 665 01ea 54040000 		.4byte	.LASF40
 666 01ee 08       		.byte	0x8
 667 01ef 4F01     		.2byte	0x14f
 668 01f1 1F080000 		.4byte	0x81f
 669 01f5 34       		.byte	0x34
 670 01f6 08       		.uleb128 0x8
 671 01f7 75020000 		.4byte	.LASF41
 672 01fb 08       		.byte	0x8
 673 01fc 5301     		.2byte	0x153
 674 01fe EF000000 		.4byte	0xef
 675 0202 38       		.byte	0x38
 676 0203 08       		.uleb128 0x8
 677 0204 A0010000 		.4byte	.LASF42
 678 0208 08       		.byte	0x8
 679 0209 5A01     		.2byte	0x15a
 680 020b F9020000 		.4byte	0x2f9
 681 020f 3C       		.byte	0x3c
 682 0210 00       		.byte	0
 683 0211 04       		.uleb128 0x4
 684 0212 06030000 		.4byte	.LASF43
 685 0216 07       		.byte	0x7
 686 0217 44       		.byte	0x44
 687 0218 1C020000 		.4byte	0x21c
ARM GAS  /tmp/ccD580lS.s 			page 27


 688 021c 09       		.uleb128 0x9
 689 021d 04       		.byte	0x4
 690 021e 26010000 		.4byte	0x126
 691 0222 04       		.uleb128 0x4
 692 0223 E4020000 		.4byte	.LASF44
 693 0227 07       		.byte	0x7
 694 0228 49       		.byte	0x49
 695 0229 2D020000 		.4byte	0x22d
 696 022d 05       		.uleb128 0x5
 697 022e E1040000 		.4byte	.LASF46
 698 0232 04       		.byte	0x4
 699 0233 08       		.byte	0x8
 700 0234 B0       		.byte	0xb0
 701 0235 46020000 		.4byte	0x246
 702 0239 06       		.uleb128 0x6
 703 023a 30030000 		.4byte	.LASF27
 704 023e 08       		.byte	0x8
 705 023f B1       		.byte	0xb1
 706 0240 1C020000 		.4byte	0x21c
 707 0244 00       		.byte	0
 708 0245 00       		.byte	0
 709 0246 04       		.uleb128 0x4
 710 0247 C8050000 		.4byte	.LASF47
 711 024b 07       		.byte	0x7
 712 024c 50       		.byte	0x50
 713 024d 51020000 		.4byte	0x251
 714 0251 05       		.uleb128 0x5
 715 0252 CD000000 		.4byte	.LASF48
 716 0256 08       		.byte	0x8
 717 0257 08       		.byte	0x8
 718 0258 B7       		.byte	0xb7
 719 0259 76020000 		.4byte	0x276
 720 025d 06       		.uleb128 0x6
 721 025e 30030000 		.4byte	.LASF27
 722 0262 08       		.byte	0x8
 723 0263 B8       		.byte	0xb8
 724 0264 1C020000 		.4byte	0x21c
 725 0268 00       		.byte	0
 726 0269 06       		.uleb128 0x6
 727 026a F9030000 		.4byte	.LASF28
 728 026e 08       		.byte	0x8
 729 026f B9       		.byte	0xb9
 730 0270 1C020000 		.4byte	0x21c
 731 0274 04       		.byte	0x4
 732 0275 00       		.byte	0
 733 0276 04       		.uleb128 0x4
 734 0277 00000000 		.4byte	.LASF49
 735 027b 07       		.byte	0x7
 736 027c 57       		.byte	0x57
 737 027d 81020000 		.4byte	0x281
 738 0281 0A       		.uleb128 0xa
 739 0282 A1020000 		.4byte	.LASF50
 740 0286 1C       		.byte	0x1c
 741 0287 08       		.byte	0x8
 742 0288 9201     		.2byte	0x192
 743 028a DD020000 		.4byte	0x2dd
 744 028e 08       		.uleb128 0x8
ARM GAS  /tmp/ccD580lS.s 			page 28


 745 028f D0040000 		.4byte	.LASF51
 746 0293 08       		.byte	0x8
 747 0294 9301     		.2byte	0x193
 748 0296 46020000 		.4byte	0x246
 749 029a 00       		.byte	0
 750 029b 08       		.uleb128 0x8
 751 029c 70040000 		.4byte	.LASF52
 752 02a0 08       		.byte	0x8
 753 02a1 9401     		.2byte	0x194
 754 02a3 EF000000 		.4byte	0xef
 755 02a7 08       		.byte	0x8
 756 02a8 08       		.uleb128 0x8
 757 02a9 9D030000 		.4byte	.LASF53
 758 02ad 08       		.byte	0x8
 759 02ae 9601     		.2byte	0x196
 760 02b0 78050000 		.4byte	0x578
 761 02b4 0C       		.byte	0xc
 762 02b5 08       		.uleb128 0x8
 763 02b6 98010000 		.4byte	.LASF54
 764 02ba 08       		.byte	0x8
 765 02bb 9901     		.2byte	0x199
 766 02bd 1C020000 		.4byte	0x21c
 767 02c1 10       		.byte	0x10
 768 02c2 08       		.uleb128 0x8
 769 02c3 92050000 		.4byte	.LASF55
 770 02c7 08       		.byte	0x8
 771 02c8 9A01     		.2byte	0x19a
 772 02ca 1C020000 		.4byte	0x21c
 773 02ce 14       		.byte	0x14
 774 02cf 08       		.uleb128 0x8
 775 02d0 BC030000 		.4byte	.LASF56
 776 02d4 08       		.byte	0x8
 777 02d5 9D01     		.2byte	0x19d
 778 02d7 1C020000 		.4byte	0x21c
 779 02db 18       		.byte	0x18
 780 02dc 00       		.byte	0
 781 02dd 04       		.uleb128 0x4
 782 02de 4F050000 		.4byte	.LASF57
 783 02e2 07       		.byte	0x7
 784 02e3 5C       		.byte	0x5c
 785 02e4 E8020000 		.4byte	0x2e8
 786 02e8 09       		.uleb128 0x9
 787 02e9 04       		.byte	0x4
 788 02ea EE020000 		.4byte	0x2ee
 789 02ee 0B       		.uleb128 0xb
 790 02ef F9020000 		.4byte	0x2f9
 791 02f3 0C       		.uleb128 0xc
 792 02f4 F9020000 		.4byte	0x2f9
 793 02f8 00       		.byte	0
 794 02f9 0D       		.uleb128 0xd
 795 02fa 04       		.byte	0x4
 796 02fb 04       		.uleb128 0x4
 797 02fc E9030000 		.4byte	.LASF58
 798 0300 07       		.byte	0x7
 799 0301 61       		.byte	0x61
 800 0302 06030000 		.4byte	0x306
 801 0306 0A       		.uleb128 0xa
ARM GAS  /tmp/ccD580lS.s 			page 29


 802 0307 8E040000 		.4byte	.LASF59
 803 030b 14       		.byte	0x14
 804 030c 08       		.byte	0x8
 805 030d 6D01     		.2byte	0x16d
 806 030f 55030000 		.4byte	0x355
 807 0313 08       		.uleb128 0x8
 808 0314 03020000 		.4byte	.LASF60
 809 0318 08       		.byte	0x8
 810 0319 6E01     		.2byte	0x16e
 811 031b 37080000 		.4byte	0x837
 812 031f 00       		.byte	0
 813 0320 08       		.uleb128 0x8
 814 0321 B1010000 		.4byte	.LASF61
 815 0325 08       		.byte	0x8
 816 0326 6F01     		.2byte	0x16f
 817 0328 37080000 		.4byte	0x837
 818 032c 04       		.byte	0x4
 819 032d 08       		.uleb128 0x8
 820 032e D8040000 		.4byte	.LASF62
 821 0332 08       		.byte	0x8
 822 0333 7001     		.2byte	0x170
 823 0335 1B010000 		.4byte	0x11b
 824 0339 08       		.byte	0x8
 825 033a 08       		.uleb128 0x8
 826 033b 1A070000 		.4byte	.LASF63
 827 033f 08       		.byte	0x8
 828 0340 7101     		.2byte	0x171
 829 0342 DD020000 		.4byte	0x2dd
 830 0346 0C       		.byte	0xc
 831 0347 08       		.uleb128 0x8
 832 0348 C1050000 		.4byte	.LASF64
 833 034c 08       		.byte	0x8
 834 034d 7301     		.2byte	0x173
 835 034f F9020000 		.4byte	0x2f9
 836 0353 10       		.byte	0x10
 837 0354 00       		.byte	0
 838 0355 04       		.uleb128 0x4
 839 0356 91000000 		.4byte	.LASF65
 840 035a 07       		.byte	0x7
 841 035b 66       		.byte	0x66
 842 035c 60030000 		.4byte	0x360
 843 0360 0A       		.uleb128 0xa
 844 0361 19030000 		.4byte	.LASF66
 845 0365 10       		.byte	0x10
 846 0366 08       		.byte	0x8
 847 0367 7D01     		.2byte	0x17d
 848 0369 A2030000 		.4byte	0x3a2
 849 036d 08       		.uleb128 0x8
 850 036e 03020000 		.4byte	.LASF60
 851 0372 08       		.byte	0x8
 852 0373 7E01     		.2byte	0x17e
 853 0375 37080000 		.4byte	0x837
 854 0379 00       		.byte	0
 855 037a 08       		.uleb128 0x8
 856 037b B1010000 		.4byte	.LASF61
 857 037f 08       		.byte	0x8
 858 0380 8001     		.2byte	0x180
ARM GAS  /tmp/ccD580lS.s 			page 30


 859 0382 37080000 		.4byte	0x837
 860 0386 04       		.byte	0x4
 861 0387 08       		.uleb128 0x8
 862 0388 D8040000 		.4byte	.LASF62
 863 038c 08       		.byte	0x8
 864 038d 8201     		.2byte	0x182
 865 038f 1B010000 		.4byte	0x11b
 866 0393 08       		.byte	0x8
 867 0394 08       		.uleb128 0x8
 868 0395 42030000 		.4byte	.LASF67
 869 0399 08       		.byte	0x8
 870 039a 8A01     		.2byte	0x18a
 871 039c 1B010000 		.4byte	0x11b
 872 03a0 0C       		.byte	0xc
 873 03a1 00       		.byte	0
 874 03a2 04       		.uleb128 0x4
 875 03a3 3E000000 		.4byte	.LASF68
 876 03a7 07       		.byte	0x7
 877 03a8 6B       		.byte	0x6b
 878 03a9 AD030000 		.4byte	0x3ad
 879 03ad 0A       		.uleb128 0xa
 880 03ae 1B040000 		.4byte	.LASF69
 881 03b2 04       		.byte	0x4
 882 03b3 08       		.byte	0x8
 883 03b4 A401     		.2byte	0x1a4
 884 03b6 C8030000 		.4byte	0x3c8
 885 03ba 08       		.uleb128 0x8
 886 03bb 71050000 		.4byte	.LASF70
 887 03bf 08       		.byte	0x8
 888 03c0 AC01     		.2byte	0x1ac
 889 03c2 3D080000 		.4byte	0x83d
 890 03c6 00       		.byte	0
 891 03c7 00       		.byte	0
 892 03c8 04       		.uleb128 0x4
 893 03c9 9A050000 		.4byte	.LASF71
 894 03cd 07       		.byte	0x7
 895 03ce 70       		.byte	0x70
 896 03cf D3030000 		.4byte	0x3d3
 897 03d3 0E       		.uleb128 0xe
 898 03d4 3D010000 		.4byte	.LASF72
 899 03d8 5001     		.2byte	0x150
 900 03da 08       		.byte	0x8
 901 03db C401     		.2byte	0x1c4
 902 03dd 2F040000 		.4byte	0x42f
 903 03e1 08       		.uleb128 0x8
 904 03e2 ED050000 		.4byte	.LASF73
 905 03e6 08       		.byte	0x8
 906 03e7 C801     		.2byte	0x1c8
 907 03e9 76020000 		.4byte	0x276
 908 03ed 00       		.byte	0
 909 03ee 08       		.uleb128 0x8
 910 03ef B9010000 		.4byte	.LASF74
 911 03f3 08       		.byte	0x8
 912 03f4 CC01     		.2byte	0x1cc
 913 03f6 55030000 		.4byte	0x355
 914 03fa 1C       		.byte	0x1c
 915 03fb 07       		.uleb128 0x7
ARM GAS  /tmp/ccD580lS.s 			page 31


 916 03fc 64626700 		.ascii	"dbg\000"
 917 0400 08       		.byte	0x8
 918 0401 D001     		.2byte	0x1d0
 919 0403 A2030000 		.4byte	0x3a2
 920 0407 2C       		.byte	0x2c
 921 0408 08       		.uleb128 0x8
 922 0409 7E000000 		.4byte	.LASF75
 923 040d 08       		.byte	0x8
 924 040e D401     		.2byte	0x1d4
 925 0410 26010000 		.4byte	0x126
 926 0414 30       		.byte	0x30
 927 0415 07       		.uleb128 0x7
 928 0416 746D00   		.ascii	"tm\000"
 929 0419 08       		.byte	0x8
 930 041a D901     		.2byte	0x1d9
 931 041c 49070000 		.4byte	0x749
 932 0420 70       		.byte	0x70
 933 0421 08       		.uleb128 0x8
 934 0422 E1010000 		.4byte	.LASF76
 935 0426 08       		.byte	0x8
 936 0427 E501     		.2byte	0x1e5
 937 0429 42080000 		.4byte	0x842
 938 042d 78       		.byte	0x78
 939 042e 00       		.byte	0
 940 042f 03       		.uleb128 0x3
 941 0430 04       		.byte	0x4
 942 0431 07       		.byte	0x7
 943 0432 FD020000 		.4byte	.LASF77
 944 0436 0F       		.uleb128 0xf
 945 0437 AD000000 		.4byte	0xad
 946 043b 10       		.uleb128 0x10
 947 043c AD000000 		.4byte	0xad
 948 0440 4B040000 		.4byte	0x44b
 949 0444 11       		.uleb128 0x11
 950 0445 2F040000 		.4byte	0x42f
 951 0449 01       		.byte	0x1
 952 044a 00       		.byte	0
 953 044b 10       		.uleb128 0x10
 954 044c AD000000 		.4byte	0xad
 955 0450 5B040000 		.4byte	0x45b
 956 0454 11       		.uleb128 0x11
 957 0455 2F040000 		.4byte	0x42f
 958 0459 03       		.byte	0x3
 959 045a 00       		.byte	0
 960 045b 12       		.uleb128 0x12
 961 045c 10       		.byte	0x10
 962 045d 09       		.byte	0x9
 963 045e 5601     		.2byte	0x156
 964 0460 98040000 		.4byte	0x498
 965 0464 08       		.uleb128 0x8
 966 0465 6E000000 		.4byte	.LASF78
 967 0469 09       		.byte	0x9
 968 046a 5801     		.2byte	0x158
 969 046c 36040000 		.4byte	0x436
 970 0470 00       		.byte	0
 971 0471 07       		.uleb128 0x7
 972 0472 435200   		.ascii	"CR\000"
ARM GAS  /tmp/ccD580lS.s 			page 32


 973 0475 09       		.byte	0x9
 974 0476 5901     		.2byte	0x159
 975 0478 36040000 		.4byte	0x436
 976 047c 04       		.byte	0x4
 977 047d 08       		.uleb128 0x8
 978 047e DA030000 		.4byte	.LASF79
 979 0482 09       		.byte	0x9
 980 0483 5A01     		.2byte	0x15a
 981 0485 36040000 		.4byte	0x436
 982 0489 08       		.byte	0x8
 983 048a 08       		.uleb128 0x8
 984 048b 80020000 		.4byte	.LASF80
 985 048f 09       		.byte	0x9
 986 0490 5B01     		.2byte	0x15b
 987 0492 36040000 		.4byte	0x436
 988 0496 0C       		.byte	0xc
 989 0497 00       		.byte	0
 990 0498 13       		.uleb128 0x13
 991 0499 B1040000 		.4byte	.LASF81
 992 049d 09       		.byte	0x9
 993 049e 5C01     		.2byte	0x15c
 994 04a0 5B040000 		.4byte	0x45b
 995 04a4 12       		.uleb128 0x12
 996 04a5 34       		.byte	0x34
 997 04a6 09       		.byte	0x9
 998 04a7 FB01     		.2byte	0x1fb
 999 04a9 56050000 		.4byte	0x556
 1000 04ad 07       		.uleb128 0x7
 1001 04ae 435200   		.ascii	"CR\000"
 1002 04b1 09       		.byte	0x9
 1003 04b2 FD01     		.2byte	0x1fd
 1004 04b4 36040000 		.4byte	0x436
 1005 04b8 00       		.byte	0
 1006 04b9 08       		.uleb128 0x8
 1007 04ba FF060000 		.4byte	.LASF82
 1008 04be 09       		.byte	0x9
 1009 04bf FE01     		.2byte	0x1fe
 1010 04c1 36040000 		.4byte	0x436
 1011 04c5 04       		.byte	0x4
 1012 04c6 07       		.uleb128 0x7
 1013 04c7 43495200 		.ascii	"CIR\000"
 1014 04cb 09       		.byte	0x9
 1015 04cc FF01     		.2byte	0x1ff
 1016 04ce 36040000 		.4byte	0x436
 1017 04d2 08       		.byte	0x8
 1018 04d3 08       		.uleb128 0x8
 1019 04d4 50010000 		.4byte	.LASF83
 1020 04d8 09       		.byte	0x9
 1021 04d9 0002     		.2byte	0x200
 1022 04db 36040000 		.4byte	0x436
 1023 04df 0C       		.byte	0xc
 1024 04e0 08       		.uleb128 0x8
 1025 04e1 C6030000 		.4byte	.LASF84
 1026 04e5 09       		.byte	0x9
 1027 04e6 0102     		.2byte	0x201
 1028 04e8 36040000 		.4byte	0x436
 1029 04ec 10       		.byte	0x10
ARM GAS  /tmp/ccD580lS.s 			page 33


 1030 04ed 08       		.uleb128 0x8
 1031 04ee 22070000 		.4byte	.LASF85
 1032 04f2 09       		.byte	0x9
 1033 04f3 0202     		.2byte	0x202
 1034 04f5 36040000 		.4byte	0x436
 1035 04f9 14       		.byte	0x14
 1036 04fa 08       		.uleb128 0x8
 1037 04fb 86040000 		.4byte	.LASF86
 1038 04ff 09       		.byte	0x9
 1039 0500 0302     		.2byte	0x203
 1040 0502 36040000 		.4byte	0x436
 1041 0506 18       		.byte	0x18
 1042 0507 08       		.uleb128 0x8
 1043 0508 82050000 		.4byte	.LASF87
 1044 050c 09       		.byte	0x9
 1045 050d 0402     		.2byte	0x204
 1046 050f 36040000 		.4byte	0x436
 1047 0513 1C       		.byte	0x1c
 1048 0514 08       		.uleb128 0x8
 1049 0515 E8050000 		.4byte	.LASF88
 1050 0519 09       		.byte	0x9
 1051 051a 0502     		.2byte	0x205
 1052 051c 36040000 		.4byte	0x436
 1053 0520 20       		.byte	0x20
 1054 0521 07       		.uleb128 0x7
 1055 0522 43535200 		.ascii	"CSR\000"
 1056 0526 09       		.byte	0x9
 1057 0527 0602     		.2byte	0x206
 1058 0529 36040000 		.4byte	0x436
 1059 052d 24       		.byte	0x24
 1060 052e 08       		.uleb128 0x8
 1061 052f B4030000 		.4byte	.LASF89
 1062 0533 09       		.byte	0x9
 1063 0534 0702     		.2byte	0x207
 1064 0536 36040000 		.4byte	0x436
 1065 053a 28       		.byte	0x28
 1066 053b 08       		.uleb128 0x8
 1067 053c F3050000 		.4byte	.LASF90
 1068 0540 09       		.byte	0x9
 1069 0541 0802     		.2byte	0x208
 1070 0543 36040000 		.4byte	0x436
 1071 0547 2C       		.byte	0x2c
 1072 0548 08       		.uleb128 0x8
 1073 0549 F9050000 		.4byte	.LASF91
 1074 054d 09       		.byte	0x9
 1075 054e 0902     		.2byte	0x209
 1076 0550 36040000 		.4byte	0x436
 1077 0554 30       		.byte	0x30
 1078 0555 00       		.byte	0
 1079 0556 13       		.uleb128 0x13
 1080 0557 1D020000 		.4byte	.LASF92
 1081 055b 09       		.byte	0x9
 1082 055c 0A02     		.2byte	0x20a
 1083 055e A4040000 		.4byte	0x4a4
 1084 0562 04       		.uleb128 0x4
 1085 0563 A8010000 		.4byte	.LASF93
 1086 0567 0A       		.byte	0xa
ARM GAS  /tmp/ccD580lS.s 			page 34


 1087 0568 65       		.byte	0x65
 1088 0569 F9020000 		.4byte	0x2f9
 1089 056d 04       		.uleb128 0x4
 1090 056e C5020000 		.4byte	.LASF94
 1091 0572 0A       		.byte	0xa
 1092 0573 6D       		.byte	0x6d
 1093 0574 B8000000 		.4byte	0xb8
 1094 0578 05       		.uleb128 0x5
 1095 0579 8A050000 		.4byte	.LASF95
 1096 057d 04       		.byte	0x4
 1097 057e 0A       		.byte	0xa
 1098 057f 89       		.byte	0x89
 1099 0580 91050000 		.4byte	0x591
 1100 0584 14       		.uleb128 0x14
 1101 0585 72313300 		.ascii	"r13\000"
 1102 0589 0A       		.byte	0xa
 1103 058a 8A       		.byte	0x8a
 1104 058b 0C060000 		.4byte	0x60c
 1105 058f 00       		.byte	0
 1106 0590 00       		.byte	0
 1107 0591 05       		.uleb128 0x5
 1108 0592 32000000 		.4byte	.LASF96
 1109 0596 24       		.byte	0x24
 1110 0597 0B       		.byte	0xb
 1111 0598 FD       		.byte	0xfd
 1112 0599 0C060000 		.4byte	0x60c
 1113 059d 07       		.uleb128 0x7
 1114 059e 723400   		.ascii	"r4\000"
 1115 05a1 0B       		.byte	0xb
 1116 05a2 1001     		.2byte	0x110
 1117 05a4 62050000 		.4byte	0x562
 1118 05a8 00       		.byte	0
 1119 05a9 07       		.uleb128 0x7
 1120 05aa 723500   		.ascii	"r5\000"
 1121 05ad 0B       		.byte	0xb
 1122 05ae 1101     		.2byte	0x111
 1123 05b0 62050000 		.4byte	0x562
 1124 05b4 04       		.byte	0x4
 1125 05b5 07       		.uleb128 0x7
 1126 05b6 723600   		.ascii	"r6\000"
 1127 05b9 0B       		.byte	0xb
 1128 05ba 1201     		.2byte	0x112
 1129 05bc 62050000 		.4byte	0x562
 1130 05c0 08       		.byte	0x8
 1131 05c1 07       		.uleb128 0x7
 1132 05c2 723700   		.ascii	"r7\000"
 1133 05c5 0B       		.byte	0xb
 1134 05c6 1301     		.2byte	0x113
 1135 05c8 62050000 		.4byte	0x562
 1136 05cc 0C       		.byte	0xc
 1137 05cd 07       		.uleb128 0x7
 1138 05ce 723800   		.ascii	"r8\000"
 1139 05d1 0B       		.byte	0xb
 1140 05d2 1401     		.2byte	0x114
 1141 05d4 62050000 		.4byte	0x562
 1142 05d8 10       		.byte	0x10
 1143 05d9 07       		.uleb128 0x7
ARM GAS  /tmp/ccD580lS.s 			page 35


 1144 05da 723900   		.ascii	"r9\000"
 1145 05dd 0B       		.byte	0xb
 1146 05de 1501     		.2byte	0x115
 1147 05e0 62050000 		.4byte	0x562
 1148 05e4 14       		.byte	0x14
 1149 05e5 07       		.uleb128 0x7
 1150 05e6 72313000 		.ascii	"r10\000"
 1151 05ea 0B       		.byte	0xb
 1152 05eb 1601     		.2byte	0x116
 1153 05ed 62050000 		.4byte	0x562
 1154 05f1 18       		.byte	0x18
 1155 05f2 07       		.uleb128 0x7
 1156 05f3 72313100 		.ascii	"r11\000"
 1157 05f7 0B       		.byte	0xb
 1158 05f8 1701     		.2byte	0x117
 1159 05fa 62050000 		.4byte	0x562
 1160 05fe 1C       		.byte	0x1c
 1161 05ff 07       		.uleb128 0x7
 1162 0600 6C7200   		.ascii	"lr\000"
 1163 0603 0B       		.byte	0xb
 1164 0604 1801     		.2byte	0x118
 1165 0606 62050000 		.4byte	0x562
 1166 060a 20       		.byte	0x20
 1167 060b 00       		.byte	0
 1168 060c 09       		.uleb128 0x9
 1169 060d 04       		.byte	0x4
 1170 060e 91050000 		.4byte	0x591
 1171 0612 12       		.uleb128 0x12
 1172 0613 60       		.byte	0x60
 1173 0614 0C       		.byte	0xc
 1174 0615 A101     		.2byte	0x1a1
 1175 0617 1E070000 		.4byte	0x71e
 1176 061b 07       		.uleb128 0x7
 1177 061c 43523100 		.ascii	"CR1\000"
 1178 0620 0C       		.byte	0xc
 1179 0621 A201     		.2byte	0x1a2
 1180 0623 36040000 		.4byte	0x436
 1181 0627 00       		.byte	0
 1182 0628 07       		.uleb128 0x7
 1183 0629 43523200 		.ascii	"CR2\000"
 1184 062d 0C       		.byte	0xc
 1185 062e A301     		.2byte	0x1a3
 1186 0630 36040000 		.4byte	0x436
 1187 0634 04       		.byte	0x4
 1188 0635 08       		.uleb128 0x8
 1189 0636 39020000 		.4byte	.LASF97
 1190 063a 0C       		.byte	0xc
 1191 063b A401     		.2byte	0x1a4
 1192 063d 36040000 		.4byte	0x436
 1193 0641 08       		.byte	0x8
 1194 0642 08       		.uleb128 0x8
 1195 0643 0D000000 		.4byte	.LASF98
 1196 0647 0C       		.byte	0xc
 1197 0648 A501     		.2byte	0x1a5
 1198 064a 36040000 		.4byte	0x436
 1199 064e 0C       		.byte	0xc
 1200 064f 07       		.uleb128 0x7
ARM GAS  /tmp/ccD580lS.s 			page 36


 1201 0650 535200   		.ascii	"SR\000"
 1202 0653 0C       		.byte	0xc
 1203 0654 A601     		.2byte	0x1a6
 1204 0656 36040000 		.4byte	0x436
 1205 065a 10       		.byte	0x10
 1206 065b 07       		.uleb128 0x7
 1207 065c 45475200 		.ascii	"EGR\000"
 1208 0660 0C       		.byte	0xc
 1209 0661 A701     		.2byte	0x1a7
 1210 0663 36040000 		.4byte	0x436
 1211 0667 14       		.byte	0x14
 1212 0668 08       		.uleb128 0x8
 1213 0669 F6000000 		.4byte	.LASF99
 1214 066d 0C       		.byte	0xc
 1215 066e A801     		.2byte	0x1a8
 1216 0670 36040000 		.4byte	0x436
 1217 0674 18       		.byte	0x18
 1218 0675 08       		.uleb128 0x8
 1219 0676 FC000000 		.4byte	.LASF100
 1220 067a 0C       		.byte	0xc
 1221 067b A901     		.2byte	0x1a9
 1222 067d 36040000 		.4byte	0x436
 1223 0681 1C       		.byte	0x1c
 1224 0682 08       		.uleb128 0x8
 1225 0683 62010000 		.4byte	.LASF101
 1226 0687 0C       		.byte	0xc
 1227 0688 AA01     		.2byte	0x1aa
 1228 068a 36040000 		.4byte	0x436
 1229 068e 20       		.byte	0x20
 1230 068f 07       		.uleb128 0x7
 1231 0690 434E5400 		.ascii	"CNT\000"
 1232 0694 0C       		.byte	0xc
 1233 0695 AB01     		.2byte	0x1ab
 1234 0697 36040000 		.4byte	0x436
 1235 069b 24       		.byte	0x24
 1236 069c 07       		.uleb128 0x7
 1237 069d 50534300 		.ascii	"PSC\000"
 1238 06a1 0C       		.byte	0xc
 1239 06a2 AC01     		.2byte	0x1ac
 1240 06a4 36040000 		.4byte	0x436
 1241 06a8 28       		.byte	0x28
 1242 06a9 07       		.uleb128 0x7
 1243 06aa 41525200 		.ascii	"ARR\000"
 1244 06ae 0C       		.byte	0xc
 1245 06af AD01     		.2byte	0x1ad
 1246 06b1 36040000 		.4byte	0x436
 1247 06b5 2C       		.byte	0x2c
 1248 06b6 07       		.uleb128 0x7
 1249 06b7 52435200 		.ascii	"RCR\000"
 1250 06bb 0C       		.byte	0xc
 1251 06bc AE01     		.2byte	0x1ae
 1252 06be 36040000 		.4byte	0x436
 1253 06c2 30       		.byte	0x30
 1254 06c3 07       		.uleb128 0x7
 1255 06c4 43435200 		.ascii	"CCR\000"
 1256 06c8 0C       		.byte	0xc
 1257 06c9 AF01     		.2byte	0x1af
ARM GAS  /tmp/ccD580lS.s 			page 37


 1258 06cb 1E070000 		.4byte	0x71e
 1259 06cf 34       		.byte	0x34
 1260 06d0 08       		.uleb128 0x8
 1261 06d1 C8000000 		.4byte	.LASF102
 1262 06d5 0C       		.byte	0xc
 1263 06d6 B001     		.2byte	0x1b0
 1264 06d8 36040000 		.4byte	0x436
 1265 06dc 44       		.byte	0x44
 1266 06dd 07       		.uleb128 0x7
 1267 06de 44435200 		.ascii	"DCR\000"
 1268 06e2 0C       		.byte	0xc
 1269 06e3 B101     		.2byte	0x1b1
 1270 06e5 36040000 		.4byte	0x436
 1271 06e9 48       		.byte	0x48
 1272 06ea 08       		.uleb128 0x8
 1273 06eb 08050000 		.4byte	.LASF103
 1274 06ef 0C       		.byte	0xc
 1275 06f0 B201     		.2byte	0x1b2
 1276 06f2 36040000 		.4byte	0x436
 1277 06f6 4C       		.byte	0x4c
 1278 06f7 07       		.uleb128 0x7
 1279 06f8 4F5200   		.ascii	"OR\000"
 1280 06fb 0C       		.byte	0xc
 1281 06fc B301     		.2byte	0x1b3
 1282 06fe 36040000 		.4byte	0x436
 1283 0702 50       		.byte	0x50
 1284 0703 08       		.uleb128 0x8
 1285 0704 02010000 		.4byte	.LASF104
 1286 0708 0C       		.byte	0xc
 1287 0709 B401     		.2byte	0x1b4
 1288 070b 36040000 		.4byte	0x436
 1289 070f 54       		.byte	0x54
 1290 0710 08       		.uleb128 0x8
 1291 0711 AC040000 		.4byte	.LASF105
 1292 0715 0C       		.byte	0xc
 1293 0716 B501     		.2byte	0x1b5
 1294 0718 23070000 		.4byte	0x723
 1295 071c 58       		.byte	0x58
 1296 071d 00       		.byte	0
 1297 071e 0F       		.uleb128 0xf
 1298 071f 4B040000 		.4byte	0x44b
 1299 0723 0F       		.uleb128 0xf
 1300 0724 3B040000 		.4byte	0x43b
 1301 0728 13       		.uleb128 0x13
 1302 0729 14010000 		.4byte	.LASF106
 1303 072d 0C       		.byte	0xc
 1304 072e B601     		.2byte	0x1b6
 1305 0730 12060000 		.4byte	0x612
 1306 0734 15       		.uleb128 0x15
 1307 0735 04       		.byte	0x4
 1308 0736 0D       		.byte	0xd
 1309 0737 38       		.byte	0x38
 1310 0738 49070000 		.4byte	0x749
 1311 073c 06       		.uleb128 0x6
 1312 073d 7B050000 		.4byte	.LASF107
 1313 0741 0D       		.byte	0xd
 1314 0742 3C       		.byte	0x3c
ARM GAS  /tmp/ccD580lS.s 			page 38


 1315 0743 C3000000 		.4byte	0xc3
 1316 0747 00       		.byte	0
 1317 0748 00       		.byte	0
 1318 0749 04       		.uleb128 0x4
 1319 074a A3030000 		.4byte	.LASF108
 1320 074e 0D       		.byte	0xd
 1321 074f 3D       		.byte	0x3d
 1322 0750 34070000 		.4byte	0x734
 1323 0754 16       		.uleb128 0x16
 1324 0755 04       		.byte	0x4
 1325 0756 08       		.byte	0x8
 1326 0757 FA       		.byte	0xfa
 1327 0758 BD070000 		.4byte	0x7bd
 1328 075c 17       		.uleb128 0x17
 1329 075d 18000000 		.4byte	.LASF109
 1330 0761 08       		.byte	0x8
 1331 0762 0101     		.2byte	0x101
 1332 0764 FA000000 		.4byte	0xfa
 1333 0768 17       		.uleb128 0x17
 1334 0769 75000000 		.4byte	.LASF110
 1335 076d 08       		.byte	0x8
 1336 076e 0801     		.2byte	0x108
 1337 0770 FA000000 		.4byte	0xfa
 1338 0774 17       		.uleb128 0x17
 1339 0775 9A020000 		.4byte	.LASF111
 1340 0779 08       		.byte	0x8
 1341 077a 0F01     		.2byte	0x10f
 1342 077c F9020000 		.4byte	0x2f9
 1343 0780 17       		.uleb128 0x17
 1344 0781 12000000 		.4byte	.LASF112
 1345 0785 08       		.byte	0x8
 1346 0786 1601     		.2byte	0x116
 1347 0788 BD070000 		.4byte	0x7bd
 1348 078c 17       		.uleb128 0x17
 1349 078d 89000000 		.4byte	.LASF113
 1350 0791 08       		.byte	0x8
 1351 0792 1B01     		.2byte	0x11b
 1352 0794 FA000000 		.4byte	0xfa
 1353 0798 17       		.uleb128 0x17
 1354 0799 0B020000 		.4byte	.LASF114
 1355 079d 08       		.byte	0x8
 1356 079e 2401     		.2byte	0x124
 1357 07a0 E8070000 		.4byte	0x7e8
 1358 07a4 17       		.uleb128 0x17
 1359 07a5 C9040000 		.4byte	.LASF115
 1360 07a9 08       		.byte	0x8
 1361 07aa 2D01     		.2byte	0x12d
 1362 07ac 1F080000 		.4byte	0x81f
 1363 07b0 17       		.uleb128 0x17
 1364 07b1 77040000 		.4byte	.LASF116
 1365 07b5 08       		.byte	0x8
 1366 07b6 3501     		.2byte	0x135
 1367 07b8 05010000 		.4byte	0x105
 1368 07bc 00       		.byte	0
 1369 07bd 09       		.uleb128 0x9
 1370 07be 04       		.byte	0x4
 1371 07bf 11020000 		.4byte	0x211
ARM GAS  /tmp/ccD580lS.s 			page 39


 1372 07c3 05       		.uleb128 0x5
 1373 07c4 9F040000 		.4byte	.LASF117
 1374 07c8 0C       		.byte	0xc
 1375 07c9 0E       		.byte	0xe
 1376 07ca 34       		.byte	0x34
 1377 07cb E8070000 		.4byte	0x7e8
 1378 07cf 06       		.uleb128 0x6
 1379 07d0 7D010000 		.4byte	.LASF118
 1380 07d4 0E       		.byte	0xe
 1381 07d5 35       		.byte	0x35
 1382 07d6 46020000 		.4byte	0x246
 1383 07da 00       		.byte	0
 1384 07db 06       		.uleb128 0x6
 1385 07dc 33020000 		.4byte	.LASF119
 1386 07e0 0E       		.byte	0xe
 1387 07e1 37       		.byte	0x37
 1388 07e2 10010000 		.4byte	0x110
 1389 07e6 08       		.byte	0x8
 1390 07e7 00       		.byte	0
 1391 07e8 09       		.uleb128 0x9
 1392 07e9 04       		.byte	0x4
 1393 07ea C3070000 		.4byte	0x7c3
 1394 07ee 05       		.uleb128 0x5
 1395 07ef D8050000 		.4byte	.LASF120
 1396 07f3 10       		.byte	0x10
 1397 07f4 0F       		.byte	0xf
 1398 07f5 39       		.byte	0x39
 1399 07f6 1F080000 		.4byte	0x81f
 1400 07fa 06       		.uleb128 0x6
 1401 07fb 20010000 		.4byte	.LASF121
 1402 07ff 0F       		.byte	0xf
 1403 0800 3A       		.byte	0x3a
 1404 0801 46020000 		.4byte	0x246
 1405 0805 00       		.byte	0
 1406 0806 06       		.uleb128 0x6
 1407 0807 0C070000 		.4byte	.LASF122
 1408 080b 0F       		.byte	0xf
 1409 080c 3C       		.byte	0x3c
 1410 080d 1C020000 		.4byte	0x21c
 1411 0811 08       		.byte	0x8
 1412 0812 06       		.uleb128 0x6
 1413 0813 2B050000 		.4byte	.LASF123
 1414 0817 0F       		.byte	0xf
 1415 0818 3E       		.byte	0x3e
 1416 0819 5D080000 		.4byte	0x85d
 1417 081d 0C       		.byte	0xc
 1418 081e 00       		.byte	0
 1419 081f 09       		.uleb128 0x9
 1420 0820 04       		.byte	0x4
 1421 0821 EE070000 		.4byte	0x7ee
 1422 0825 09       		.uleb128 0x9
 1423 0826 04       		.byte	0x4
 1424 0827 2B080000 		.4byte	0x82b
 1425 082b 18       		.uleb128 0x18
 1426 082c 30080000 		.4byte	0x830
 1427 0830 03       		.uleb128 0x3
 1428 0831 01       		.byte	0x1
ARM GAS  /tmp/ccD580lS.s 			page 40


 1429 0832 08       		.byte	0x8
 1430 0833 03050000 		.4byte	.LASF124
 1431 0837 09       		.uleb128 0x9
 1432 0838 04       		.byte	0x4
 1433 0839 FB020000 		.4byte	0x2fb
 1434 083d 0F       		.uleb128 0xf
 1435 083e 25080000 		.4byte	0x825
 1436 0842 10       		.uleb128 0x10
 1437 0843 6D050000 		.4byte	0x56d
 1438 0847 52080000 		.4byte	0x852
 1439 084b 11       		.uleb128 0x11
 1440 084c 2F040000 		.4byte	0x42f
 1441 0850 1A       		.byte	0x1a
 1442 0851 00       		.byte	0
 1443 0852 04       		.uleb128 0x4
 1444 0853 D3010000 		.4byte	.LASF125
 1445 0857 0F       		.byte	0xf
 1446 0858 34       		.byte	0x34
 1447 0859 EE070000 		.4byte	0x7ee
 1448 085d 09       		.uleb128 0x9
 1449 085e 04       		.byte	0x4
 1450 085f 52080000 		.4byte	0x852
 1451 0863 03       		.uleb128 0x3
 1452 0864 01       		.byte	0x1
 1453 0865 02       		.byte	0x2
 1454 0866 2B040000 		.4byte	.LASF126
 1455 086a 19       		.uleb128 0x19
 1456 086b 63050000 		.4byte	.LASF144
 1457 086f 02       		.byte	0x2
 1458 0870 2202     		.2byte	0x222
 1459 0872 03       		.byte	0x3
 1460 0873 84080000 		.4byte	0x884
 1461 0877 1A       		.uleb128 0x1a
 1462 0878 DB010000 		.4byte	.LASF145
 1463 087c 02       		.byte	0x2
 1464 087d 2202     		.2byte	0x222
 1465 087f AD000000 		.4byte	0xad
 1466 0883 00       		.byte	0
 1467 0884 1B       		.uleb128 0x1b
 1468 0885 4D000000 		.4byte	.LASF127
 1469 0889 0B       		.byte	0xb
 1470 088a C801     		.2byte	0x1c8
 1471 088c 03       		.byte	0x3
 1472 088d 1B       		.uleb128 0x1b
 1473 088e 31010000 		.4byte	.LASF128
 1474 0892 0B       		.byte	0xb
 1475 0893 E001     		.2byte	0x1e0
 1476 0895 03       		.byte	0x3
 1477 0896 1B       		.uleb128 0x1b
 1478 0897 AE050000 		.4byte	.LASF129
 1479 089b 0B       		.byte	0xb
 1480 089c EF01     		.2byte	0x1ef
 1481 089e 03       		.byte	0x3
 1482 089f 1B       		.uleb128 0x1b
 1483 08a0 0D050000 		.4byte	.LASF130
 1484 08a4 0B       		.byte	0xb
 1485 08a5 FA01     		.2byte	0x1fa
ARM GAS  /tmp/ccD580lS.s 			page 41


 1486 08a7 03       		.byte	0x3
 1487 08a8 1B       		.uleb128 0x1b
 1488 08a9 E7060000 		.4byte	.LASF131
 1489 08ad 10       		.byte	0x10
 1490 08ae 8201     		.2byte	0x182
 1491 08b0 03       		.byte	0x3
 1492 08b1 1B       		.uleb128 0x1b
 1493 08b2 08040000 		.4byte	.LASF132
 1494 08b6 10       		.byte	0x10
 1495 08b7 9601     		.2byte	0x196
 1496 08b9 03       		.byte	0x3
 1497 08ba 1B       		.uleb128 0x1b
 1498 08bb C0010000 		.4byte	.LASF133
 1499 08bf 03       		.byte	0x3
 1500 08c0 0102     		.2byte	0x201
 1501 08c2 03       		.byte	0x3
 1502 08c3 1B       		.uleb128 0x1b
 1503 08c4 D0020000 		.4byte	.LASF134
 1504 08c8 03       		.byte	0x3
 1505 08c9 4702     		.2byte	0x247
 1506 08cb 03       		.byte	0x3
 1507 08cc 1B       		.uleb128 0x1b
 1508 08cd A7000000 		.4byte	.LASF135
 1509 08d1 03       		.byte	0x3
 1510 08d2 0C02     		.2byte	0x20c
 1511 08d4 03       		.byte	0x3
 1512 08d5 1C       		.uleb128 0x1c
 1513 08d6 28010000 		.4byte	.LASF136
 1514 08da 01       		.byte	0x1
 1515 08db EF       		.byte	0xef
 1516 08dc 00000000 		.4byte	.LFB272
 1517 08e0 26000000 		.4byte	.LFE272-.LFB272
 1518 08e4 01       		.uleb128 0x1
 1519 08e5 9C       		.byte	0x9c
 1520 08e6 D3090000 		.4byte	0x9d3
 1521 08ea 1D       		.uleb128 0x1d
 1522 08eb BA080000 		.4byte	0x8ba
 1523 08ef 10000000 		.4byte	.LBB52
 1524 08f3 06000000 		.4byte	.LBE52-.LBB52
 1525 08f7 01       		.byte	0x1
 1526 08f8 F9       		.byte	0xf9
 1527 08f9 4B090000 		.4byte	0x94b
 1528 08fd 1E       		.uleb128 0x1e
 1529 08fe A8080000 		.4byte	0x8a8
 1530 0902 10000000 		.4byte	.LBB53
 1531 0906 06000000 		.4byte	.LBE53-.LBB53
 1532 090a 03       		.byte	0x3
 1533 090b 0302     		.2byte	0x203
 1534 090d 1E       		.uleb128 0x1e
 1535 090e 96080000 		.4byte	0x896
 1536 0912 10000000 		.4byte	.LBB54
 1537 0916 06000000 		.4byte	.LBE54-.LBB54
 1538 091a 10       		.byte	0x10
 1539 091b 8401     		.2byte	0x184
 1540 091d 1E       		.uleb128 0x1e
 1541 091e 84080000 		.4byte	0x884
 1542 0922 10000000 		.4byte	.LBB55
ARM GAS  /tmp/ccD580lS.s 			page 42


 1543 0926 06000000 		.4byte	.LBE55-.LBB55
 1544 092a 0B       		.byte	0xb
 1545 092b F101     		.2byte	0x1f1
 1546 092d 1E       		.uleb128 0x1e
 1547 092e 6A080000 		.4byte	0x86a
 1548 0932 10000000 		.4byte	.LBB56
 1549 0936 06000000 		.4byte	.LBE56-.LBB56
 1550 093a 0B       		.byte	0xb
 1551 093b D001     		.2byte	0x1d0
 1552 093d 1F       		.uleb128 0x1f
 1553 093e 77080000 		.4byte	0x877
 1554 0942 00000000 		.4byte	.LLST0
 1555 0946 00       		.byte	0
 1556 0947 00       		.byte	0
 1557 0948 00       		.byte	0
 1558 0949 00       		.byte	0
 1559 094a 00       		.byte	0
 1560 094b 1D       		.uleb128 0x1d
 1561 094c C3080000 		.4byte	0x8c3
 1562 0950 16000000 		.4byte	.LBB58
 1563 0954 04000000 		.4byte	.LBE58-.LBB58
 1564 0958 01       		.byte	0x1
 1565 0959 FA       		.byte	0xfa
 1566 095a 68090000 		.4byte	0x968
 1567 095e 20       		.uleb128 0x20
 1568 095f 1A000000 		.4byte	.LVL1
 1569 0963 1A0A0000 		.4byte	0xa1a
 1570 0967 00       		.byte	0
 1571 0968 1D       		.uleb128 0x1d
 1572 0969 CC080000 		.4byte	0x8cc
 1573 096d 1A000000 		.4byte	.LBB60
 1574 0971 04000000 		.4byte	.LBE60-.LBB60
 1575 0975 01       		.byte	0x1
 1576 0976 FB       		.byte	0xfb
 1577 0977 C9090000 		.4byte	0x9c9
 1578 097b 1E       		.uleb128 0x1e
 1579 097c B1080000 		.4byte	0x8b1
 1580 0980 1A000000 		.4byte	.LBB61
 1581 0984 04000000 		.4byte	.LBE61-.LBB61
 1582 0988 03       		.byte	0x3
 1583 0989 0E02     		.2byte	0x20e
 1584 098b 1E       		.uleb128 0x1e
 1585 098c 9F080000 		.4byte	0x89f
 1586 0990 1A000000 		.4byte	.LBB62
 1587 0994 04000000 		.4byte	.LBE62-.LBB62
 1588 0998 10       		.byte	0x10
 1589 0999 9A01     		.2byte	0x19a
 1590 099b 1E       		.uleb128 0x1e
 1591 099c 8D080000 		.4byte	0x88d
 1592 09a0 1A000000 		.4byte	.LBB63
 1593 09a4 04000000 		.4byte	.LBE63-.LBB63
 1594 09a8 0B       		.byte	0xb
 1595 09a9 FC01     		.2byte	0x1fc
 1596 09ab 1E       		.uleb128 0x1e
 1597 09ac 6A080000 		.4byte	0x86a
 1598 09b0 1A000000 		.4byte	.LBB64
 1599 09b4 04000000 		.4byte	.LBE64-.LBB64
ARM GAS  /tmp/ccD580lS.s 			page 43


 1600 09b8 0B       		.byte	0xb
 1601 09b9 E301     		.2byte	0x1e3
 1602 09bb 1F       		.uleb128 0x1f
 1603 09bc 77080000 		.4byte	0x877
 1604 09c0 15000000 		.4byte	.LLST1
 1605 09c4 00       		.byte	0
 1606 09c5 00       		.byte	0
 1607 09c6 00       		.byte	0
 1608 09c7 00       		.byte	0
 1609 09c8 00       		.byte	0
 1610 09c9 21       		.uleb128 0x21
 1611 09ca 26000000 		.4byte	.LVL3
 1612 09ce 220A0000 		.4byte	0xa22
 1613 09d2 00       		.byte	0
 1614 09d3 22       		.uleb128 0x22
 1615 09d4 BC000000 		.4byte	.LASF137
 1616 09d8 01       		.byte	0x1
 1617 09d9 0B01     		.2byte	0x10b
 1618 09db 00000000 		.4byte	.LFB273
 1619 09df 48000000 		.4byte	.LFE273-.LFB273
 1620 09e3 01       		.uleb128 0x1
 1621 09e4 9C       		.byte	0x9c
 1622 09e5 FE090000 		.4byte	0x9fe
 1623 09e9 23       		.uleb128 0x23
 1624 09ea 40000000 		.4byte	.LVL4
 1625 09ee 2A0A0000 		.4byte	0xa2a
 1626 09f2 24       		.uleb128 0x24
 1627 09f3 01       		.uleb128 0x1
 1628 09f4 51       		.byte	0x51
 1629 09f5 01       		.uleb128 0x1
 1630 09f6 38       		.byte	0x38
 1631 09f7 24       		.uleb128 0x24
 1632 09f8 01       		.uleb128 0x1
 1633 09f9 50       		.byte	0x50
 1634 09fa 01       		.uleb128 0x1
 1635 09fb 4C       		.byte	0x4c
 1636 09fc 00       		.byte	0
 1637 09fd 00       		.byte	0
 1638 09fe 25       		.uleb128 0x25
 1639 09ff 47040000 		.4byte	.LASF138
 1640 0a03 11       		.byte	0x11
 1641 0a04 FA06     		.2byte	0x6fa
 1642 0a06 0A0A0000 		.4byte	0xa0a
 1643 0a0a 0F       		.uleb128 0xf
 1644 0a0b A2000000 		.4byte	0xa2
 1645 0a0f 26       		.uleb128 0x26
 1646 0a10 636800   		.ascii	"ch\000"
 1647 0a13 08       		.byte	0x8
 1648 0a14 0B02     		.2byte	0x20b
 1649 0a16 C8030000 		.4byte	0x3c8
 1650 0a1a 27       		.uleb128 0x27
 1651 0a1b 3C050000 		.4byte	.LASF139
 1652 0a1f 10       		.byte	0x10
 1653 0a20 1801     		.2byte	0x118
 1654 0a22 27       		.uleb128 0x27
 1655 0a23 87020000 		.4byte	.LASF140
 1656 0a27 0B       		.byte	0xb
ARM GAS  /tmp/ccD580lS.s 			page 44


 1657 0a28 6F01     		.2byte	0x16f
 1658 0a2a 28       		.uleb128 0x28
 1659 0a2b E5000000 		.4byte	.LASF146
 1660 0a2f 12       		.byte	0x12
 1661 0a30 4E       		.byte	0x4e
 1662 0a31 0C       		.uleb128 0xc
 1663 0a32 AD000000 		.4byte	0xad
 1664 0a36 0C       		.uleb128 0xc
 1665 0a37 AD000000 		.4byte	0xad
 1666 0a3b 00       		.byte	0
 1667 0a3c 00       		.byte	0
 1668              		.section	.debug_abbrev,"",%progbits
 1669              	.Ldebug_abbrev0:
 1670 0000 01       		.uleb128 0x1
 1671 0001 11       		.uleb128 0x11
 1672 0002 01       		.byte	0x1
 1673 0003 25       		.uleb128 0x25
 1674 0004 0E       		.uleb128 0xe
 1675 0005 13       		.uleb128 0x13
 1676 0006 0B       		.uleb128 0xb
 1677 0007 03       		.uleb128 0x3
 1678 0008 0E       		.uleb128 0xe
 1679 0009 1B       		.uleb128 0x1b
 1680 000a 0E       		.uleb128 0xe
 1681 000b 55       		.uleb128 0x55
 1682 000c 17       		.uleb128 0x17
 1683 000d 11       		.uleb128 0x11
 1684 000e 01       		.uleb128 0x1
 1685 000f 10       		.uleb128 0x10
 1686 0010 17       		.uleb128 0x17
 1687 0011 00       		.byte	0
 1688 0012 00       		.byte	0
 1689 0013 02       		.uleb128 0x2
 1690 0014 24       		.uleb128 0x24
 1691 0015 00       		.byte	0
 1692 0016 0B       		.uleb128 0xb
 1693 0017 0B       		.uleb128 0xb
 1694 0018 3E       		.uleb128 0x3e
 1695 0019 0B       		.uleb128 0xb
 1696 001a 03       		.uleb128 0x3
 1697 001b 08       		.uleb128 0x8
 1698 001c 00       		.byte	0
 1699 001d 00       		.byte	0
 1700 001e 03       		.uleb128 0x3
 1701 001f 24       		.uleb128 0x24
 1702 0020 00       		.byte	0
 1703 0021 0B       		.uleb128 0xb
 1704 0022 0B       		.uleb128 0xb
 1705 0023 3E       		.uleb128 0x3e
 1706 0024 0B       		.uleb128 0xb
 1707 0025 03       		.uleb128 0x3
 1708 0026 0E       		.uleb128 0xe
 1709 0027 00       		.byte	0
 1710 0028 00       		.byte	0
 1711 0029 04       		.uleb128 0x4
 1712 002a 16       		.uleb128 0x16
 1713 002b 00       		.byte	0
ARM GAS  /tmp/ccD580lS.s 			page 45


 1714 002c 03       		.uleb128 0x3
 1715 002d 0E       		.uleb128 0xe
 1716 002e 3A       		.uleb128 0x3a
 1717 002f 0B       		.uleb128 0xb
 1718 0030 3B       		.uleb128 0x3b
 1719 0031 0B       		.uleb128 0xb
 1720 0032 49       		.uleb128 0x49
 1721 0033 13       		.uleb128 0x13
 1722 0034 00       		.byte	0
 1723 0035 00       		.byte	0
 1724 0036 05       		.uleb128 0x5
 1725 0037 13       		.uleb128 0x13
 1726 0038 01       		.byte	0x1
 1727 0039 03       		.uleb128 0x3
 1728 003a 0E       		.uleb128 0xe
 1729 003b 0B       		.uleb128 0xb
 1730 003c 0B       		.uleb128 0xb
 1731 003d 3A       		.uleb128 0x3a
 1732 003e 0B       		.uleb128 0xb
 1733 003f 3B       		.uleb128 0x3b
 1734 0040 0B       		.uleb128 0xb
 1735 0041 01       		.uleb128 0x1
 1736 0042 13       		.uleb128 0x13
 1737 0043 00       		.byte	0
 1738 0044 00       		.byte	0
 1739 0045 06       		.uleb128 0x6
 1740 0046 0D       		.uleb128 0xd
 1741 0047 00       		.byte	0
 1742 0048 03       		.uleb128 0x3
 1743 0049 0E       		.uleb128 0xe
 1744 004a 3A       		.uleb128 0x3a
 1745 004b 0B       		.uleb128 0xb
 1746 004c 3B       		.uleb128 0x3b
 1747 004d 0B       		.uleb128 0xb
 1748 004e 49       		.uleb128 0x49
 1749 004f 13       		.uleb128 0x13
 1750 0050 38       		.uleb128 0x38
 1751 0051 0B       		.uleb128 0xb
 1752 0052 00       		.byte	0
 1753 0053 00       		.byte	0
 1754 0054 07       		.uleb128 0x7
 1755 0055 0D       		.uleb128 0xd
 1756 0056 00       		.byte	0
 1757 0057 03       		.uleb128 0x3
 1758 0058 08       		.uleb128 0x8
 1759 0059 3A       		.uleb128 0x3a
 1760 005a 0B       		.uleb128 0xb
 1761 005b 3B       		.uleb128 0x3b
 1762 005c 05       		.uleb128 0x5
 1763 005d 49       		.uleb128 0x49
 1764 005e 13       		.uleb128 0x13
 1765 005f 38       		.uleb128 0x38
 1766 0060 0B       		.uleb128 0xb
 1767 0061 00       		.byte	0
 1768 0062 00       		.byte	0
 1769 0063 08       		.uleb128 0x8
 1770 0064 0D       		.uleb128 0xd
ARM GAS  /tmp/ccD580lS.s 			page 46


 1771 0065 00       		.byte	0
 1772 0066 03       		.uleb128 0x3
 1773 0067 0E       		.uleb128 0xe
 1774 0068 3A       		.uleb128 0x3a
 1775 0069 0B       		.uleb128 0xb
 1776 006a 3B       		.uleb128 0x3b
 1777 006b 05       		.uleb128 0x5
 1778 006c 49       		.uleb128 0x49
 1779 006d 13       		.uleb128 0x13
 1780 006e 38       		.uleb128 0x38
 1781 006f 0B       		.uleb128 0xb
 1782 0070 00       		.byte	0
 1783 0071 00       		.byte	0
 1784 0072 09       		.uleb128 0x9
 1785 0073 0F       		.uleb128 0xf
 1786 0074 00       		.byte	0
 1787 0075 0B       		.uleb128 0xb
 1788 0076 0B       		.uleb128 0xb
 1789 0077 49       		.uleb128 0x49
 1790 0078 13       		.uleb128 0x13
 1791 0079 00       		.byte	0
 1792 007a 00       		.byte	0
 1793 007b 0A       		.uleb128 0xa
 1794 007c 13       		.uleb128 0x13
 1795 007d 01       		.byte	0x1
 1796 007e 03       		.uleb128 0x3
 1797 007f 0E       		.uleb128 0xe
 1798 0080 0B       		.uleb128 0xb
 1799 0081 0B       		.uleb128 0xb
 1800 0082 3A       		.uleb128 0x3a
 1801 0083 0B       		.uleb128 0xb
 1802 0084 3B       		.uleb128 0x3b
 1803 0085 05       		.uleb128 0x5
 1804 0086 01       		.uleb128 0x1
 1805 0087 13       		.uleb128 0x13
 1806 0088 00       		.byte	0
 1807 0089 00       		.byte	0
 1808 008a 0B       		.uleb128 0xb
 1809 008b 15       		.uleb128 0x15
 1810 008c 01       		.byte	0x1
 1811 008d 27       		.uleb128 0x27
 1812 008e 19       		.uleb128 0x19
 1813 008f 01       		.uleb128 0x1
 1814 0090 13       		.uleb128 0x13
 1815 0091 00       		.byte	0
 1816 0092 00       		.byte	0
 1817 0093 0C       		.uleb128 0xc
 1818 0094 05       		.uleb128 0x5
 1819 0095 00       		.byte	0
 1820 0096 49       		.uleb128 0x49
 1821 0097 13       		.uleb128 0x13
 1822 0098 00       		.byte	0
 1823 0099 00       		.byte	0
 1824 009a 0D       		.uleb128 0xd
 1825 009b 0F       		.uleb128 0xf
 1826 009c 00       		.byte	0
 1827 009d 0B       		.uleb128 0xb
ARM GAS  /tmp/ccD580lS.s 			page 47


 1828 009e 0B       		.uleb128 0xb
 1829 009f 00       		.byte	0
 1830 00a0 00       		.byte	0
 1831 00a1 0E       		.uleb128 0xe
 1832 00a2 13       		.uleb128 0x13
 1833 00a3 01       		.byte	0x1
 1834 00a4 03       		.uleb128 0x3
 1835 00a5 0E       		.uleb128 0xe
 1836 00a6 0B       		.uleb128 0xb
 1837 00a7 05       		.uleb128 0x5
 1838 00a8 3A       		.uleb128 0x3a
 1839 00a9 0B       		.uleb128 0xb
 1840 00aa 3B       		.uleb128 0x3b
 1841 00ab 05       		.uleb128 0x5
 1842 00ac 01       		.uleb128 0x1
 1843 00ad 13       		.uleb128 0x13
 1844 00ae 00       		.byte	0
 1845 00af 00       		.byte	0
 1846 00b0 0F       		.uleb128 0xf
 1847 00b1 35       		.uleb128 0x35
 1848 00b2 00       		.byte	0
 1849 00b3 49       		.uleb128 0x49
 1850 00b4 13       		.uleb128 0x13
 1851 00b5 00       		.byte	0
 1852 00b6 00       		.byte	0
 1853 00b7 10       		.uleb128 0x10
 1854 00b8 01       		.uleb128 0x1
 1855 00b9 01       		.byte	0x1
 1856 00ba 49       		.uleb128 0x49
 1857 00bb 13       		.uleb128 0x13
 1858 00bc 01       		.uleb128 0x1
 1859 00bd 13       		.uleb128 0x13
 1860 00be 00       		.byte	0
 1861 00bf 00       		.byte	0
 1862 00c0 11       		.uleb128 0x11
 1863 00c1 21       		.uleb128 0x21
 1864 00c2 00       		.byte	0
 1865 00c3 49       		.uleb128 0x49
 1866 00c4 13       		.uleb128 0x13
 1867 00c5 2F       		.uleb128 0x2f
 1868 00c6 0B       		.uleb128 0xb
 1869 00c7 00       		.byte	0
 1870 00c8 00       		.byte	0
 1871 00c9 12       		.uleb128 0x12
 1872 00ca 13       		.uleb128 0x13
 1873 00cb 01       		.byte	0x1
 1874 00cc 0B       		.uleb128 0xb
 1875 00cd 0B       		.uleb128 0xb
 1876 00ce 3A       		.uleb128 0x3a
 1877 00cf 0B       		.uleb128 0xb
 1878 00d0 3B       		.uleb128 0x3b
 1879 00d1 05       		.uleb128 0x5
 1880 00d2 01       		.uleb128 0x1
 1881 00d3 13       		.uleb128 0x13
 1882 00d4 00       		.byte	0
 1883 00d5 00       		.byte	0
 1884 00d6 13       		.uleb128 0x13
ARM GAS  /tmp/ccD580lS.s 			page 48


 1885 00d7 16       		.uleb128 0x16
 1886 00d8 00       		.byte	0
 1887 00d9 03       		.uleb128 0x3
 1888 00da 0E       		.uleb128 0xe
 1889 00db 3A       		.uleb128 0x3a
 1890 00dc 0B       		.uleb128 0xb
 1891 00dd 3B       		.uleb128 0x3b
 1892 00de 05       		.uleb128 0x5
 1893 00df 49       		.uleb128 0x49
 1894 00e0 13       		.uleb128 0x13
 1895 00e1 00       		.byte	0
 1896 00e2 00       		.byte	0
 1897 00e3 14       		.uleb128 0x14
 1898 00e4 0D       		.uleb128 0xd
 1899 00e5 00       		.byte	0
 1900 00e6 03       		.uleb128 0x3
 1901 00e7 08       		.uleb128 0x8
 1902 00e8 3A       		.uleb128 0x3a
 1903 00e9 0B       		.uleb128 0xb
 1904 00ea 3B       		.uleb128 0x3b
 1905 00eb 0B       		.uleb128 0xb
 1906 00ec 49       		.uleb128 0x49
 1907 00ed 13       		.uleb128 0x13
 1908 00ee 38       		.uleb128 0x38
 1909 00ef 0B       		.uleb128 0xb
 1910 00f0 00       		.byte	0
 1911 00f1 00       		.byte	0
 1912 00f2 15       		.uleb128 0x15
 1913 00f3 13       		.uleb128 0x13
 1914 00f4 01       		.byte	0x1
 1915 00f5 0B       		.uleb128 0xb
 1916 00f6 0B       		.uleb128 0xb
 1917 00f7 3A       		.uleb128 0x3a
 1918 00f8 0B       		.uleb128 0xb
 1919 00f9 3B       		.uleb128 0x3b
 1920 00fa 0B       		.uleb128 0xb
 1921 00fb 01       		.uleb128 0x1
 1922 00fc 13       		.uleb128 0x13
 1923 00fd 00       		.byte	0
 1924 00fe 00       		.byte	0
 1925 00ff 16       		.uleb128 0x16
 1926 0100 17       		.uleb128 0x17
 1927 0101 01       		.byte	0x1
 1928 0102 0B       		.uleb128 0xb
 1929 0103 0B       		.uleb128 0xb
 1930 0104 3A       		.uleb128 0x3a
 1931 0105 0B       		.uleb128 0xb
 1932 0106 3B       		.uleb128 0x3b
 1933 0107 0B       		.uleb128 0xb
 1934 0108 01       		.uleb128 0x1
 1935 0109 13       		.uleb128 0x13
 1936 010a 00       		.byte	0
 1937 010b 00       		.byte	0
 1938 010c 17       		.uleb128 0x17
 1939 010d 0D       		.uleb128 0xd
 1940 010e 00       		.byte	0
 1941 010f 03       		.uleb128 0x3
ARM GAS  /tmp/ccD580lS.s 			page 49


 1942 0110 0E       		.uleb128 0xe
 1943 0111 3A       		.uleb128 0x3a
 1944 0112 0B       		.uleb128 0xb
 1945 0113 3B       		.uleb128 0x3b
 1946 0114 05       		.uleb128 0x5
 1947 0115 49       		.uleb128 0x49
 1948 0116 13       		.uleb128 0x13
 1949 0117 00       		.byte	0
 1950 0118 00       		.byte	0
 1951 0119 18       		.uleb128 0x18
 1952 011a 26       		.uleb128 0x26
 1953 011b 00       		.byte	0
 1954 011c 49       		.uleb128 0x49
 1955 011d 13       		.uleb128 0x13
 1956 011e 00       		.byte	0
 1957 011f 00       		.byte	0
 1958 0120 19       		.uleb128 0x19
 1959 0121 2E       		.uleb128 0x2e
 1960 0122 01       		.byte	0x1
 1961 0123 03       		.uleb128 0x3
 1962 0124 0E       		.uleb128 0xe
 1963 0125 3A       		.uleb128 0x3a
 1964 0126 0B       		.uleb128 0xb
 1965 0127 3B       		.uleb128 0x3b
 1966 0128 05       		.uleb128 0x5
 1967 0129 27       		.uleb128 0x27
 1968 012a 19       		.uleb128 0x19
 1969 012b 20       		.uleb128 0x20
 1970 012c 0B       		.uleb128 0xb
 1971 012d 01       		.uleb128 0x1
 1972 012e 13       		.uleb128 0x13
 1973 012f 00       		.byte	0
 1974 0130 00       		.byte	0
 1975 0131 1A       		.uleb128 0x1a
 1976 0132 05       		.uleb128 0x5
 1977 0133 00       		.byte	0
 1978 0134 03       		.uleb128 0x3
 1979 0135 0E       		.uleb128 0xe
 1980 0136 3A       		.uleb128 0x3a
 1981 0137 0B       		.uleb128 0xb
 1982 0138 3B       		.uleb128 0x3b
 1983 0139 05       		.uleb128 0x5
 1984 013a 49       		.uleb128 0x49
 1985 013b 13       		.uleb128 0x13
 1986 013c 00       		.byte	0
 1987 013d 00       		.byte	0
 1988 013e 1B       		.uleb128 0x1b
 1989 013f 2E       		.uleb128 0x2e
 1990 0140 00       		.byte	0
 1991 0141 03       		.uleb128 0x3
 1992 0142 0E       		.uleb128 0xe
 1993 0143 3A       		.uleb128 0x3a
 1994 0144 0B       		.uleb128 0xb
 1995 0145 3B       		.uleb128 0x3b
 1996 0146 05       		.uleb128 0x5
 1997 0147 27       		.uleb128 0x27
 1998 0148 19       		.uleb128 0x19
ARM GAS  /tmp/ccD580lS.s 			page 50


 1999 0149 20       		.uleb128 0x20
 2000 014a 0B       		.uleb128 0xb
 2001 014b 00       		.byte	0
 2002 014c 00       		.byte	0
 2003 014d 1C       		.uleb128 0x1c
 2004 014e 2E       		.uleb128 0x2e
 2005 014f 01       		.byte	0x1
 2006 0150 3F       		.uleb128 0x3f
 2007 0151 19       		.uleb128 0x19
 2008 0152 03       		.uleb128 0x3
 2009 0153 0E       		.uleb128 0xe
 2010 0154 3A       		.uleb128 0x3a
 2011 0155 0B       		.uleb128 0xb
 2012 0156 3B       		.uleb128 0x3b
 2013 0157 0B       		.uleb128 0xb
 2014 0158 27       		.uleb128 0x27
 2015 0159 19       		.uleb128 0x19
 2016 015a 11       		.uleb128 0x11
 2017 015b 01       		.uleb128 0x1
 2018 015c 12       		.uleb128 0x12
 2019 015d 06       		.uleb128 0x6
 2020 015e 40       		.uleb128 0x40
 2021 015f 18       		.uleb128 0x18
 2022 0160 9742     		.uleb128 0x2117
 2023 0162 19       		.uleb128 0x19
 2024 0163 01       		.uleb128 0x1
 2025 0164 13       		.uleb128 0x13
 2026 0165 00       		.byte	0
 2027 0166 00       		.byte	0
 2028 0167 1D       		.uleb128 0x1d
 2029 0168 1D       		.uleb128 0x1d
 2030 0169 01       		.byte	0x1
 2031 016a 31       		.uleb128 0x31
 2032 016b 13       		.uleb128 0x13
 2033 016c 11       		.uleb128 0x11
 2034 016d 01       		.uleb128 0x1
 2035 016e 12       		.uleb128 0x12
 2036 016f 06       		.uleb128 0x6
 2037 0170 58       		.uleb128 0x58
 2038 0171 0B       		.uleb128 0xb
 2039 0172 59       		.uleb128 0x59
 2040 0173 0B       		.uleb128 0xb
 2041 0174 01       		.uleb128 0x1
 2042 0175 13       		.uleb128 0x13
 2043 0176 00       		.byte	0
 2044 0177 00       		.byte	0
 2045 0178 1E       		.uleb128 0x1e
 2046 0179 1D       		.uleb128 0x1d
 2047 017a 01       		.byte	0x1
 2048 017b 31       		.uleb128 0x31
 2049 017c 13       		.uleb128 0x13
 2050 017d 11       		.uleb128 0x11
 2051 017e 01       		.uleb128 0x1
 2052 017f 12       		.uleb128 0x12
 2053 0180 06       		.uleb128 0x6
 2054 0181 58       		.uleb128 0x58
 2055 0182 0B       		.uleb128 0xb
ARM GAS  /tmp/ccD580lS.s 			page 51


 2056 0183 59       		.uleb128 0x59
 2057 0184 05       		.uleb128 0x5
 2058 0185 00       		.byte	0
 2059 0186 00       		.byte	0
 2060 0187 1F       		.uleb128 0x1f
 2061 0188 05       		.uleb128 0x5
 2062 0189 00       		.byte	0
 2063 018a 31       		.uleb128 0x31
 2064 018b 13       		.uleb128 0x13
 2065 018c 02       		.uleb128 0x2
 2066 018d 17       		.uleb128 0x17
 2067 018e 00       		.byte	0
 2068 018f 00       		.byte	0
 2069 0190 20       		.uleb128 0x20
 2070 0191 898201   		.uleb128 0x4109
 2071 0194 00       		.byte	0
 2072 0195 11       		.uleb128 0x11
 2073 0196 01       		.uleb128 0x1
 2074 0197 31       		.uleb128 0x31
 2075 0198 13       		.uleb128 0x13
 2076 0199 00       		.byte	0
 2077 019a 00       		.byte	0
 2078 019b 21       		.uleb128 0x21
 2079 019c 898201   		.uleb128 0x4109
 2080 019f 00       		.byte	0
 2081 01a0 11       		.uleb128 0x11
 2082 01a1 01       		.uleb128 0x1
 2083 01a2 9542     		.uleb128 0x2115
 2084 01a4 19       		.uleb128 0x19
 2085 01a5 31       		.uleb128 0x31
 2086 01a6 13       		.uleb128 0x13
 2087 01a7 00       		.byte	0
 2088 01a8 00       		.byte	0
 2089 01a9 22       		.uleb128 0x22
 2090 01aa 2E       		.uleb128 0x2e
 2091 01ab 01       		.byte	0x1
 2092 01ac 3F       		.uleb128 0x3f
 2093 01ad 19       		.uleb128 0x19
 2094 01ae 03       		.uleb128 0x3
 2095 01af 0E       		.uleb128 0xe
 2096 01b0 3A       		.uleb128 0x3a
 2097 01b1 0B       		.uleb128 0xb
 2098 01b2 3B       		.uleb128 0x3b
 2099 01b3 05       		.uleb128 0x5
 2100 01b4 27       		.uleb128 0x27
 2101 01b5 19       		.uleb128 0x19
 2102 01b6 11       		.uleb128 0x11
 2103 01b7 01       		.uleb128 0x1
 2104 01b8 12       		.uleb128 0x12
 2105 01b9 06       		.uleb128 0x6
 2106 01ba 40       		.uleb128 0x40
 2107 01bb 18       		.uleb128 0x18
 2108 01bc 9742     		.uleb128 0x2117
 2109 01be 19       		.uleb128 0x19
 2110 01bf 01       		.uleb128 0x1
 2111 01c0 13       		.uleb128 0x13
 2112 01c1 00       		.byte	0
ARM GAS  /tmp/ccD580lS.s 			page 52


 2113 01c2 00       		.byte	0
 2114 01c3 23       		.uleb128 0x23
 2115 01c4 898201   		.uleb128 0x4109
 2116 01c7 01       		.byte	0x1
 2117 01c8 11       		.uleb128 0x11
 2118 01c9 01       		.uleb128 0x1
 2119 01ca 9542     		.uleb128 0x2115
 2120 01cc 19       		.uleb128 0x19
 2121 01cd 31       		.uleb128 0x31
 2122 01ce 13       		.uleb128 0x13
 2123 01cf 00       		.byte	0
 2124 01d0 00       		.byte	0
 2125 01d1 24       		.uleb128 0x24
 2126 01d2 8A8201   		.uleb128 0x410a
 2127 01d5 00       		.byte	0
 2128 01d6 02       		.uleb128 0x2
 2129 01d7 18       		.uleb128 0x18
 2130 01d8 9142     		.uleb128 0x2111
 2131 01da 18       		.uleb128 0x18
 2132 01db 00       		.byte	0
 2133 01dc 00       		.byte	0
 2134 01dd 25       		.uleb128 0x25
 2135 01de 34       		.uleb128 0x34
 2136 01df 00       		.byte	0
 2137 01e0 03       		.uleb128 0x3
 2138 01e1 0E       		.uleb128 0xe
 2139 01e2 3A       		.uleb128 0x3a
 2140 01e3 0B       		.uleb128 0xb
 2141 01e4 3B       		.uleb128 0x3b
 2142 01e5 05       		.uleb128 0x5
 2143 01e6 49       		.uleb128 0x49
 2144 01e7 13       		.uleb128 0x13
 2145 01e8 3F       		.uleb128 0x3f
 2146 01e9 19       		.uleb128 0x19
 2147 01ea 3C       		.uleb128 0x3c
 2148 01eb 19       		.uleb128 0x19
 2149 01ec 00       		.byte	0
 2150 01ed 00       		.byte	0
 2151 01ee 26       		.uleb128 0x26
 2152 01ef 34       		.uleb128 0x34
 2153 01f0 00       		.byte	0
 2154 01f1 03       		.uleb128 0x3
 2155 01f2 08       		.uleb128 0x8
 2156 01f3 3A       		.uleb128 0x3a
 2157 01f4 0B       		.uleb128 0xb
 2158 01f5 3B       		.uleb128 0x3b
 2159 01f6 05       		.uleb128 0x5
 2160 01f7 49       		.uleb128 0x49
 2161 01f8 13       		.uleb128 0x13
 2162 01f9 3F       		.uleb128 0x3f
 2163 01fa 19       		.uleb128 0x19
 2164 01fb 3C       		.uleb128 0x3c
 2165 01fc 19       		.uleb128 0x19
 2166 01fd 00       		.byte	0
 2167 01fe 00       		.byte	0
 2168 01ff 27       		.uleb128 0x27
 2169 0200 2E       		.uleb128 0x2e
ARM GAS  /tmp/ccD580lS.s 			page 53


 2170 0201 00       		.byte	0
 2171 0202 3F       		.uleb128 0x3f
 2172 0203 19       		.uleb128 0x19
 2173 0204 03       		.uleb128 0x3
 2174 0205 0E       		.uleb128 0xe
 2175 0206 3A       		.uleb128 0x3a
 2176 0207 0B       		.uleb128 0xb
 2177 0208 3B       		.uleb128 0x3b
 2178 0209 05       		.uleb128 0x5
 2179 020a 27       		.uleb128 0x27
 2180 020b 19       		.uleb128 0x19
 2181 020c 3C       		.uleb128 0x3c
 2182 020d 19       		.uleb128 0x19
 2183 020e 00       		.byte	0
 2184 020f 00       		.byte	0
 2185 0210 28       		.uleb128 0x28
 2186 0211 2E       		.uleb128 0x2e
 2187 0212 01       		.byte	0x1
 2188 0213 3F       		.uleb128 0x3f
 2189 0214 19       		.uleb128 0x19
 2190 0215 03       		.uleb128 0x3
 2191 0216 0E       		.uleb128 0xe
 2192 0217 3A       		.uleb128 0x3a
 2193 0218 0B       		.uleb128 0xb
 2194 0219 3B       		.uleb128 0x3b
 2195 021a 0B       		.uleb128 0xb
 2196 021b 27       		.uleb128 0x27
 2197 021c 19       		.uleb128 0x19
 2198 021d 3C       		.uleb128 0x3c
 2199 021e 19       		.uleb128 0x19
 2200 021f 00       		.byte	0
 2201 0220 00       		.byte	0
 2202 0221 00       		.byte	0
 2203              		.section	.debug_loc,"",%progbits
 2204              	.Ldebug_loc0:
 2205              	.LLST0:
 2206 0000 10000000 		.4byte	.LVL0
 2207 0004 1E000000 		.4byte	.LVL2
 2208 0008 0300     		.2byte	0x3
 2209 000a 08       		.byte	0x8
 2210 000b 20       		.byte	0x20
 2211 000c 9F       		.byte	0x9f
 2212 000d 00000000 		.4byte	0
 2213 0011 00000000 		.4byte	0
 2214              	.LLST1:
 2215 0015 1A000000 		.4byte	.LVL1
 2216 0019 1E000000 		.4byte	.LVL2
 2217 001d 0200     		.2byte	0x2
 2218 001f 30       		.byte	0x30
 2219 0020 9F       		.byte	0x9f
 2220 0021 00000000 		.4byte	0
 2221 0025 00000000 		.4byte	0
 2222              		.section	.debug_aranges,"",%progbits
 2223 0000 24000000 		.4byte	0x24
 2224 0004 0200     		.2byte	0x2
 2225 0006 00000000 		.4byte	.Ldebug_info0
 2226 000a 04       		.byte	0x4
ARM GAS  /tmp/ccD580lS.s 			page 54


 2227 000b 00       		.byte	0
 2228 000c 0000     		.2byte	0
 2229 000e 0000     		.2byte	0
 2230 0010 00000000 		.4byte	.LFB272
 2231 0014 26000000 		.4byte	.LFE272-.LFB272
 2232 0018 00000000 		.4byte	.LFB273
 2233 001c 48000000 		.4byte	.LFE273-.LFB273
 2234 0020 00000000 		.4byte	0
 2235 0024 00000000 		.4byte	0
 2236              		.section	.debug_ranges,"",%progbits
 2237              	.Ldebug_ranges0:
 2238 0000 00000000 		.4byte	.LFB272
 2239 0004 26000000 		.4byte	.LFE272
 2240 0008 00000000 		.4byte	.LFB273
 2241 000c 48000000 		.4byte	.LFE273
 2242 0010 00000000 		.4byte	0
 2243 0014 00000000 		.4byte	0
 2244              		.section	.debug_line,"",%progbits
 2245              	.Ldebug_line0:
 2246 0000 5A030000 		.section	.debug_str,"MS",%progbits,1
 2246      0200EE02 
 2246      00000201 
 2246      FB0E0D00 
 2246      01010101 
 2247              	.LASF49:
 2248 0000 72656164 		.ascii	"ready_list_t\000"
 2248      795F6C69 
 2248      73745F74 
 2248      00
 2249              	.LASF98:
 2250 000d 44494552 		.ascii	"DIER\000"
 2250      00
 2251              	.LASF112:
 2252 0012 77747472 		.ascii	"wttrp\000"
 2252      7000
 2253              	.LASF109:
 2254 0018 7264796D 		.ascii	"rdymsg\000"
 2254      736700
 2255              	.LASF16:
 2256 001f 75696E74 		.ascii	"uint64_t\000"
 2256      36345F74 
 2256      00
 2257              	.LASF5:
 2258 0028 5F5F7569 		.ascii	"__uint8_t\000"
 2258      6E74385F 
 2258      7400
 2259              	.LASF96:
 2260 0032 706F7274 		.ascii	"port_intctx\000"
 2260      5F696E74 
 2260      63747800 
 2261              	.LASF68:
 2262 003e 73797374 		.ascii	"system_debug_t\000"
 2262      656D5F64 
 2262      65627567 
 2262      5F7400
 2263              	.LASF127:
 2264 004d 706F7274 		.ascii	"port_lock\000"
ARM GAS  /tmp/ccD580lS.s 			page 55


 2264      5F6C6F63 
 2264      6B00
 2265              	.LASF12:
 2266 0057 6C6F6E67 		.ascii	"long long unsigned int\000"
 2266      206C6F6E 
 2266      6720756E 
 2266      7369676E 
 2266      65642069 
 2267              	.LASF78:
 2268 006e 4944434F 		.ascii	"IDCODE\000"
 2268      444500
 2269              	.LASF110:
 2270 0075 65786974 		.ascii	"exitcode\000"
 2270      636F6465 
 2270      00
 2271              	.LASF75:
 2272 007e 6D61696E 		.ascii	"mainthread\000"
 2272      74687265 
 2272      616400
 2273              	.LASF113:
 2274 0089 73656E74 		.ascii	"sentmsg\000"
 2274      6D736700 
 2275              	.LASF65:
 2276 0091 76697274 		.ascii	"virtual_timers_list_t\000"
 2276      75616C5F 
 2276      74696D65 
 2276      72735F6C 
 2276      6973745F 
 2277              	.LASF135:
 2278 00a7 6F73616C 		.ascii	"osalSysUnlockFromISR\000"
 2278      53797355 
 2278      6E6C6F63 
 2278      6B46726F 
 2278      6D495352 
 2279              	.LASF137:
 2280 00bc 73745F6C 		.ascii	"st_lld_init\000"
 2280      6C645F69 
 2280      6E697400 
 2281              	.LASF102:
 2282 00c8 42445452 		.ascii	"BDTR\000"
 2282      00
 2283              	.LASF48:
 2284 00cd 63685F74 		.ascii	"ch_threads_queue\000"
 2284      68726561 
 2284      64735F71 
 2284      75657565 
 2284      00
 2285              	.LASF29:
 2286 00de 705F7072 		.ascii	"p_prio\000"
 2286      696F00
 2287              	.LASF146:
 2288 00e5 6E766963 		.ascii	"nvicEnableVector\000"
 2288      456E6162 
 2288      6C655665 
 2288      63746F72 
 2288      00
 2289              	.LASF99:
ARM GAS  /tmp/ccD580lS.s 			page 56


 2290 00f6 43434D52 		.ascii	"CCMR1\000"
 2290      3100
 2291              	.LASF100:
 2292 00fc 43434D52 		.ascii	"CCMR2\000"
 2292      3200
 2293              	.LASF104:
 2294 0102 43434D52 		.ascii	"CCMR3\000"
 2294      3300
 2295              	.LASF1:
 2296 0108 7369676E 		.ascii	"signed char\000"
 2296      65642063 
 2296      68617200 
 2297              	.LASF106:
 2298 0114 73746D33 		.ascii	"stm32_tim_t\000"
 2298      325F7469 
 2298      6D5F7400 
 2299              	.LASF121:
 2300 0120 6D5F7175 		.ascii	"m_queue\000"
 2300      65756500 
 2301              	.LASF136:
 2302 0128 56656374 		.ascii	"VectorB0\000"
 2302      6F724230 
 2302      00
 2303              	.LASF128:
 2304 0131 706F7274 		.ascii	"port_unlock\000"
 2304      5F756E6C 
 2304      6F636B00 
 2305              	.LASF72:
 2306 013d 63685F73 		.ascii	"ch_system\000"
 2306      79737465 
 2306      6D00
 2307              	.LASF7:
 2308 0147 6C6F6E67 		.ascii	"long int\000"
 2308      20696E74 
 2308      00
 2309              	.LASF83:
 2310 0150 41504232 		.ascii	"APB2RSTR\000"
 2310      52535452 
 2310      00
 2311              	.LASF19:
 2312 0159 74737461 		.ascii	"tstate_t\000"
 2312      74655F74 
 2312      00
 2313              	.LASF101:
 2314 0162 43434552 		.ascii	"CCER\000"
 2314      00
 2315              	.LASF10:
 2316 0167 6C6F6E67 		.ascii	"long long int\000"
 2316      206C6F6E 
 2316      6720696E 
 2316      7400
 2317              	.LASF31:
 2318 0175 705F6E65 		.ascii	"p_newer\000"
 2318      77657200 
 2319              	.LASF118:
 2320 017d 735F7175 		.ascii	"s_queue\000"
 2320      65756500 
ARM GAS  /tmp/ccD580lS.s 			page 57


 2321              	.LASF4:
 2322 0185 73686F72 		.ascii	"short unsigned int\000"
 2322      7420756E 
 2322      7369676E 
 2322      65642069 
 2322      6E7400
 2323              	.LASF54:
 2324 0198 725F6E65 		.ascii	"r_newer\000"
 2324      77657200 
 2325              	.LASF42:
 2326 01a0 705F6D70 		.ascii	"p_mpool\000"
 2326      6F6F6C00 
 2327              	.LASF93:
 2328 01a8 72656761 		.ascii	"regarm_t\000"
 2328      726D5F74 
 2328      00
 2329              	.LASF61:
 2330 01b1 76745F70 		.ascii	"vt_prev\000"
 2330      72657600 
 2331              	.LASF74:
 2332 01b9 76746C69 		.ascii	"vtlist\000"
 2332      737400
 2333              	.LASF133:
 2334 01c0 6F73616C 		.ascii	"osalSysLockFromISR\000"
 2334      5379734C 
 2334      6F636B46 
 2334      726F6D49 
 2334      535200
 2335              	.LASF125:
 2336 01d3 6D757465 		.ascii	"mutex_t\000"
 2336      785F7400 
 2337              	.LASF145:
 2338 01db 76616C75 		.ascii	"value\000"
 2338      6500
 2339              	.LASF76:
 2340 01e1 69646C65 		.ascii	"idle_thread_wa\000"
 2340      5F746872 
 2340      6561645F 
 2340      776100
 2341              	.LASF24:
 2342 01f0 636E745F 		.ascii	"cnt_t\000"
 2342      7400
 2343              	.LASF0:
 2344 01f6 756E7369 		.ascii	"unsigned int\000"
 2344      676E6564 
 2344      20696E74 
 2344      00
 2345              	.LASF60:
 2346 0203 76745F6E 		.ascii	"vt_next\000"
 2346      65787400 
 2347              	.LASF114:
 2348 020b 77747365 		.ascii	"wtsemp\000"
 2348      6D7000
 2349              	.LASF38:
 2350 0212 705F6D73 		.ascii	"p_msgqueue\000"
 2350      67717565 
 2350      756500
ARM GAS  /tmp/ccD580lS.s 			page 58


 2351              	.LASF92:
 2352 021d 5243435F 		.ascii	"RCC_TypeDef\000"
 2352      54797065 
 2352      44656600 
 2353              	.LASF45:
 2354 0229 63685F74 		.ascii	"ch_thread\000"
 2354      68726561 
 2354      6400
 2355              	.LASF119:
 2356 0233 735F636E 		.ascii	"s_cnt\000"
 2356      7400
 2357              	.LASF97:
 2358 0239 534D4352 		.ascii	"SMCR\000"
 2358      00
 2359              	.LASF142:
 2360 023e 2E2E2F43 		.ascii	"../ChibiOS/os/hal/ports/STM32/LLD/TIMv1/st_lld.c\000"
 2360      68696269 
 2360      4F532F6F 
 2360      732F6861 
 2360      6C2F706F 
 2361              	.LASF22:
 2362 026f 6D73675F 		.ascii	"msg_t\000"
 2362      7400
 2363              	.LASF41:
 2364 0275 705F7265 		.ascii	"p_realprio\000"
 2364      616C7072 
 2364      696F00
 2365              	.LASF80:
 2366 0280 41504232 		.ascii	"APB2FZ\000"
 2366      465A00
 2367              	.LASF140:
 2368 0287 5F706F72 		.ascii	"_port_irq_epilogue\000"
 2368      745F6972 
 2368      715F6570 
 2368      696C6F67 
 2368      756500
 2369              	.LASF111:
 2370 029a 77746F62 		.ascii	"wtobjp\000"
 2370      6A7000
 2371              	.LASF50:
 2372 02a1 63685F72 		.ascii	"ch_ready_list\000"
 2372      65616479 
 2372      5F6C6973 
 2372      7400
 2373              	.LASF23:
 2374 02af 6576656E 		.ascii	"eventmask_t\000"
 2374      746D6173 
 2374      6B5F7400 
 2375              	.LASF6:
 2376 02bb 5F5F696E 		.ascii	"__int32_t\000"
 2376      7433325F 
 2376      7400
 2377              	.LASF94:
 2378 02c5 73746B61 		.ascii	"stkalign_t\000"
 2378      6C69676E 
 2378      5F7400
 2379              	.LASF134:
ARM GAS  /tmp/ccD580lS.s 			page 59


 2380 02d0 6F73616C 		.ascii	"osalOsTimerHandlerI\000"
 2380      4F735469 
 2380      6D657248 
 2380      616E646C 
 2380      65724900 
 2381              	.LASF44:
 2382 02e4 74687265 		.ascii	"threads_list_t\000"
 2382      6164735F 
 2382      6C697374 
 2382      5F7400
 2383              	.LASF37:
 2384 02f3 705F7761 		.ascii	"p_waiting\000"
 2384      6974696E 
 2384      6700
 2385              	.LASF77:
 2386 02fd 73697A65 		.ascii	"sizetype\000"
 2386      74797065 
 2386      00
 2387              	.LASF43:
 2388 0306 74687265 		.ascii	"thread_reference_t\000"
 2388      61645F72 
 2388      65666572 
 2388      656E6365 
 2388      5F7400
 2389              	.LASF66:
 2390 0319 63685F76 		.ascii	"ch_virtual_timers_list\000"
 2390      69727475 
 2390      616C5F74 
 2390      696D6572 
 2390      735F6C69 
 2391              	.LASF27:
 2392 0330 705F6E65 		.ascii	"p_next\000"
 2392      787400
 2393              	.LASF39:
 2394 0337 705F6570 		.ascii	"p_epending\000"
 2394      656E6469 
 2394      6E6700
 2395              	.LASF67:
 2396 0342 76745F6C 		.ascii	"vt_lasttime\000"
 2396      61737474 
 2396      696D6500 
 2397              	.LASF32:
 2398 034e 705F6F6C 		.ascii	"p_older\000"
 2398      64657200 
 2399              	.LASF143:
 2400 0356 2F6E6673 		.ascii	"/nfs/nfs4/home/galexeev/classes/P442WifiTrailCounte"
 2400      2F6E6673 
 2400      342F686F 
 2400      6D652F67 
 2400      616C6578 
 2401 0389 7250726F 		.ascii	"rProject/milestone3\000"
 2401      6A656374 
 2401      2F6D696C 
 2401      6573746F 
 2401      6E653300 
 2402              	.LASF53:
 2403 039d 725F6374 		.ascii	"r_ctx\000"
ARM GAS  /tmp/ccD580lS.s 			page 60


 2403      7800
 2404              	.LASF108:
 2405 03a3 746D5F63 		.ascii	"tm_calibration_t\000"
 2405      616C6962 
 2405      72617469 
 2405      6F6E5F74 
 2405      00
 2406              	.LASF89:
 2407 03b4 41484252 		.ascii	"AHBRSTR\000"
 2407      53545200 
 2408              	.LASF56:
 2409 03bc 725F6375 		.ascii	"r_current\000"
 2409      7272656E 
 2409      7400
 2410              	.LASF84:
 2411 03c6 41504231 		.ascii	"APB1RSTR\000"
 2411      52535452 
 2411      00
 2412              	.LASF11:
 2413 03cf 5F5F7569 		.ascii	"__uint64_t\000"
 2413      6E743634 
 2413      5F7400
 2414              	.LASF79:
 2415 03da 41504231 		.ascii	"APB1FZ\000"
 2415      465A00
 2416              	.LASF20:
 2417 03e1 74726566 		.ascii	"trefs_t\000"
 2417      735F7400 
 2418              	.LASF58:
 2419 03e9 76697274 		.ascii	"virtual_timer_t\000"
 2419      75616C5F 
 2419      74696D65 
 2419      725F7400 
 2420              	.LASF28:
 2421 03f9 705F7072 		.ascii	"p_prev\000"
 2421      657600
 2422              	.LASF21:
 2423 0400 74707269 		.ascii	"tprio_t\000"
 2423      6F5F7400 
 2424              	.LASF132:
 2425 0408 63685379 		.ascii	"chSysUnlockFromISR\000"
 2425      73556E6C 
 2425      6F636B46 
 2425      726F6D49 
 2425      535200
 2426              	.LASF69:
 2427 041b 63685F73 		.ascii	"ch_system_debug\000"
 2427      79737465 
 2427      6D5F6465 
 2427      62756700 
 2428              	.LASF126:
 2429 042b 5F426F6F 		.ascii	"_Bool\000"
 2429      6C00
 2430              	.LASF14:
 2431 0431 696E7433 		.ascii	"int32_t\000"
 2431      325F7400 
 2432              	.LASF2:
ARM GAS  /tmp/ccD580lS.s 			page 61


 2433 0439 756E7369 		.ascii	"unsigned char\000"
 2433      676E6564 
 2433      20636861 
 2433      7200
 2434              	.LASF138:
 2435 0447 49544D5F 		.ascii	"ITM_RxBuffer\000"
 2435      52784275 
 2435      66666572 
 2435      00
 2436              	.LASF40:
 2437 0454 705F6D74 		.ascii	"p_mtxlist\000"
 2437      786C6973 
 2437      7400
 2438              	.LASF3:
 2439 045e 73686F72 		.ascii	"short int\000"
 2439      7420696E 
 2439      7400
 2440              	.LASF34:
 2441 0468 705F7374 		.ascii	"p_state\000"
 2441      61746500 
 2442              	.LASF52:
 2443 0470 725F7072 		.ascii	"r_prio\000"
 2443      696F00
 2444              	.LASF116:
 2445 0477 65776D61 		.ascii	"ewmask\000"
 2445      736B00
 2446              	.LASF35:
 2447 047e 705F666C 		.ascii	"p_flags\000"
 2447      61677300 
 2448              	.LASF86:
 2449 0486 41504232 		.ascii	"APB2ENR\000"
 2449      454E5200 
 2450              	.LASF59:
 2451 048e 63685F76 		.ascii	"ch_virtual_timer\000"
 2451      69727475 
 2451      616C5F74 
 2451      696D6572 
 2451      00
 2452              	.LASF117:
 2453 049f 63685F73 		.ascii	"ch_semaphore\000"
 2453      656D6170 
 2453      686F7265 
 2453      00
 2454              	.LASF105:
 2455 04ac 43435852 		.ascii	"CCXR\000"
 2455      00
 2456              	.LASF81:
 2457 04b1 4442474D 		.ascii	"DBGMCU_TypeDef\000"
 2457      43555F54 
 2457      79706544 
 2457      656600
 2458              	.LASF15:
 2459 04c0 75696E74 		.ascii	"uint32_t\000"
 2459      33325F74 
 2459      00
 2460              	.LASF115:
 2461 04c9 77746D74 		.ascii	"wtmtxp\000"
ARM GAS  /tmp/ccD580lS.s 			page 62


 2461      787000
 2462              	.LASF51:
 2463 04d0 725F7175 		.ascii	"r_queue\000"
 2463      65756500 
 2464              	.LASF62:
 2465 04d8 76745F64 		.ascii	"vt_delta\000"
 2465      656C7461 
 2465      00
 2466              	.LASF46:
 2467 04e1 63685F74 		.ascii	"ch_threads_list\000"
 2467      68726561 
 2467      64735F6C 
 2467      69737400 
 2468              	.LASF9:
 2469 04f1 6C6F6E67 		.ascii	"long unsigned int\000"
 2469      20756E73 
 2469      69676E65 
 2469      6420696E 
 2469      7400
 2470              	.LASF124:
 2471 0503 63686172 		.ascii	"char\000"
 2471      00
 2472              	.LASF103:
 2473 0508 444D4152 		.ascii	"DMAR\000"
 2473      00
 2474              	.LASF130:
 2475 050d 706F7274 		.ascii	"port_unlock_from_isr\000"
 2475      5F756E6C 
 2475      6F636B5F 
 2475      66726F6D 
 2475      5F697372 
 2476              	.LASF26:
 2477 0522 74687265 		.ascii	"thread_t\000"
 2477      61645F74 
 2477      00
 2478              	.LASF123:
 2479 052b 6D5F6E65 		.ascii	"m_next\000"
 2479      787400
 2480              	.LASF25:
 2481 0532 73797374 		.ascii	"systime_t\000"
 2481      696D655F 
 2481      7400
 2482              	.LASF139:
 2483 053c 63685379 		.ascii	"chSysTimerHandlerI\000"
 2483      7354696D 
 2483      65724861 
 2483      6E646C65 
 2483      724900
 2484              	.LASF57:
 2485 054f 76746675 		.ascii	"vtfunc_t\000"
 2485      6E635F74 
 2485      00
 2486              	.LASF8:
 2487 0558 5F5F7569 		.ascii	"__uint32_t\000"
 2487      6E743332 
 2487      5F7400
 2488              	.LASF144:
ARM GAS  /tmp/ccD580lS.s 			page 63


 2489 0563 5F5F7365 		.ascii	"__set_BASEPRI\000"
 2489      745F4241 
 2489      53455052 
 2489      4900
 2490              	.LASF70:
 2491 0571 70616E69 		.ascii	"panic_msg\000"
 2491      635F6D73 
 2491      6700
 2492              	.LASF107:
 2493 057b 6F666673 		.ascii	"offset\000"
 2493      657400
 2494              	.LASF87:
 2495 0582 41504231 		.ascii	"APB1ENR\000"
 2495      454E5200 
 2496              	.LASF95:
 2497 058a 636F6E74 		.ascii	"context\000"
 2497      65787400 
 2498              	.LASF55:
 2499 0592 725F6F6C 		.ascii	"r_older\000"
 2499      64657200 
 2500              	.LASF71:
 2501 059a 63685F73 		.ascii	"ch_system_t\000"
 2501      79737465 
 2501      6D5F7400 
 2502              	.LASF17:
 2503 05a6 7274636E 		.ascii	"rtcnt_t\000"
 2503      745F7400 
 2504              	.LASF129:
 2505 05ae 706F7274 		.ascii	"port_lock_from_isr\000"
 2505      5F6C6F63 
 2505      6B5F6672 
 2505      6F6D5F69 
 2505      737200
 2506              	.LASF64:
 2507 05c1 76745F70 		.ascii	"vt_par\000"
 2507      617200
 2508              	.LASF47:
 2509 05c8 74687265 		.ascii	"threads_queue_t\000"
 2509      6164735F 
 2509      71756575 
 2509      655F7400 
 2510              	.LASF120:
 2511 05d8 63685F6D 		.ascii	"ch_mutex\000"
 2511      75746578 
 2511      00
 2512              	.LASF36:
 2513 05e1 705F7265 		.ascii	"p_refs\000"
 2513      667300
 2514              	.LASF88:
 2515 05e8 42444352 		.ascii	"BDCR\000"
 2515      00
 2516              	.LASF73:
 2517 05ed 726C6973 		.ascii	"rlist\000"
 2517      7400
 2518              	.LASF90:
 2519 05f3 43464752 		.ascii	"CFGR2\000"
 2519      3200
ARM GAS  /tmp/ccD580lS.s 			page 64


 2520              	.LASF91:
 2521 05f9 43464752 		.ascii	"CFGR3\000"
 2521      3300
 2522              	.LASF13:
 2523 05ff 75696E74 		.ascii	"uint8_t\000"
 2523      385F7400 
 2524              	.LASF141:
 2525 0607 474E5520 		.ascii	"GNU C 4.8.4 20140526 (release) [ARM/embedded-4_8-br"
 2525      4320342E 
 2525      382E3420 
 2525      32303134 
 2525      30353236 
 2526 063a 616E6368 		.ascii	"anch revision 211358] -mcpu=cortex-m4 -mno-thumb-in"
 2526      20726576 
 2526      6973696F 
 2526      6E203231 
 2526      31333538 
 2527 066d 74657277 		.ascii	"terwork -mthumb -ggdb -O2 -fomit-frame-pointer -fal"
 2527      6F726B20 
 2527      2D6D7468 
 2527      756D6220 
 2527      2D676764 
 2528 06a0 69676E2D 		.ascii	"ign-functions=16 -ffunction-sections -fdata-section"
 2528      66756E63 
 2528      74696F6E 
 2528      733D3136 
 2528      202D6666 
 2529 06d3 73202D66 		.ascii	"s -fno-common -flto\000"
 2529      6E6F2D63 
 2529      6F6D6D6F 
 2529      6E202D66 
 2529      6C746F00 
 2530              	.LASF131:
 2531 06e7 63685379 		.ascii	"chSysLockFromISR\000"
 2531      734C6F63 
 2531      6B46726F 
 2531      6D495352 
 2531      00
 2532              	.LASF33:
 2533 06f8 705F6E61 		.ascii	"p_name\000"
 2533      6D6500
 2534              	.LASF82:
 2535 06ff 43464752 		.ascii	"CFGR\000"
 2535      00
 2536              	.LASF18:
 2537 0704 746D6F64 		.ascii	"tmode_t\000"
 2537      655F7400 
 2538              	.LASF122:
 2539 070c 6D5F6F77 		.ascii	"m_owner\000"
 2539      6E657200 
 2540              	.LASF30:
 2541 0714 705F6374 		.ascii	"p_ctx\000"
 2541      7800
 2542              	.LASF63:
 2543 071a 76745F66 		.ascii	"vt_func\000"
 2543      756E6300 
 2544              	.LASF85:
ARM GAS  /tmp/ccD580lS.s 			page 65


 2545 0722 41484245 		.ascii	"AHBENR\000"
 2545      4E5200
 2546              		.comm	__gnu_lto_v1,1,1
 2547              		.ident	"GCC: (GNU Tools for ARM Embedded Processors) 4.8.4 20140526 (release) [ARM/embedded-4_8-br
ARM GAS  /tmp/ccD580lS.s 			page 66


DEFINED SYMBOLS
                            *ABS*:00000000 st_lld.c
     /tmp/ccD580lS.s:253    .text.VectorB0:00000000 $t
     /tmp/ccD580lS.s:259    .text.VectorB0:00000000 VectorB0
     /tmp/ccD580lS.s:336    .text.st_lld_init:00000000 $t
     /tmp/ccD580lS.s:342    .text.st_lld_init:00000000 st_lld_init
     /tmp/ccD580lS.s:408    .text.st_lld_init:00000040 $d
                            *COM*:00000001 __gnu_lto_v1
                     .debug_frame:00000010 $d
     /tmp/ccD580lS.s:413    .text.st_lld_init:00000048 $t

UNDEFINED SYMBOLS
chSysTimerHandlerI
_port_irq_epilogue
nvicEnableVector
