ARM GAS  /tmp/ccD580lS.s 			page 1


   1              		.syntax unified
   2              		.cpu cortex-m4
   3              		.fpu softvfp
   4              		.eabi_attribute 20, 1
   5              		.eabi_attribute 21, 1
   6              		.eabi_attribute 23, 3
   7              		.eabi_attribute 24, 1
   8              		.eabi_attribute 25, 1
   9              		.eabi_attribute 26, 1
  10              		.eabi_attribute 30, 2
  11              		.eabi_attribute 34, 1
  12              		.eabi_attribute 18, 4
  13              		.thumb
  14              		.file	"st_lld.c"
  15              		.text
  16              	.Ltext0:
  17              		.section	.gnu.lto_.jmpfuncs.aa65083ab2193431,"",%progbits
  18 0000 789C6362 		.ascii	"x\234cb`b\300\006\244\2414X\226\221\201\211)\2021\223"
  18      6062C006 
  18      A4A13458 
  18      96918189 
  18      29823193 
  19 0014 91410628 		.ascii	"\221A\006(\000fp\000E\001\031\363\001\323"
  19      00667000 
  19      450119F3 
  19      01D3
  20              		.text
  21              		.section	.gnu.lto_.inline.aa65083ab2193431,"",%progbits
  22 0000 789C6362 		.ascii	"x\234cb`b\300\006\254\2404P\226G\224\221\201\211\357"
  22      6062C006 
  22      ACA03450 
  22      96479491 
  22      8189EF
  23 0013 5E0003DB 		.ascii	"^\000\003\333\002y\260bF.8\301 \"\003\224\224yp\213"
  23      0279B062 
  23      462E38C1 
  23      20220394 
  23      9479708B 
  24 0027 112ECBCC 		.ascii	"\021.\313\314\003\326\305\000\000\260\004\005a"
  24      03D6C500 
  24      00B00405 
  24      61
  25              		.text
  26              		.section	.gnu.lto_.pureconst.aa65083ab2193431,"",%progbits
  27 0000 789C6362 		.ascii	"x\234cb`b`e\200\000&\006+F)\000\001f\000a"
  27      60626065 
  27      80002606 
  27      2B462900 
  27      01660061 
  28              		.text
  29              		.section	.gnu.lto_VectorB0.aa65083ab2193431,"",%progbits
  30 0000 789C8D53 		.ascii	"x\234\215SML\023Q\020\236\331\335\322\2024\201\273i"
  30      4D4C1351 
  30      109ED9DD 
  30      D2823481 
  30      BB69
  31 0012 2A89F100 		.ascii	"*\211\361\000\364\011\036\274j0&$4&\264$z\302ei\350"
ARM GAS  /tmp/ccD580lS.s 			page 2


  31      F4091EBC 
  31      6A302624 
  31      3426B424 
  31      7AC26569 
  32 0027 262D25DD 		.ascii	"&-%\335B \036x\245=\230@\"\321\030\377\1778(\211\007"
  32      42201E78 
  32      A53D9840 
  32      22D118FF 
  32      7F382889 
  33 003c 8962D4A0 		.ascii	"\211b\324\240\241D/\032\003\206\213\021\275\224\013"
  33      A1442F1A 
  33      03868B11 
  33      BD940B
  34 004b 07A35182 		.ascii	"\007\243Q\202\007\003\305:o\227.\333j\324I\346\315\274"
  34      0703C53A 
  34      6F972EDB 
  34      6AD449E6 
  34      CDBC
  35 005d 79F3F3BD 		.ascii	"y\363\363\275\357\355J A\245\264\222^\227\001\276\223"
  35      EFED4A20 
  35      41A5B492 
  35      5E9701BE 
  35      93
  36 006e 4517A034 		.ascii	"E\027\2404\271\004\220\366H\222<\347\003^\243\274c\300"
  36      B90490F6 
  36      48923CE7 
  36      035EA3BC 
  36      63C0
  37 0080 6B6554AC 		.ascii	"keT\254\260\202(\034@\030\225d\005GO\241\331dFZ\310"
  37      B082281C 
  37      40189564 
  37      05474FA1 
  37      D964465A 
  38 0095 178BF7E7 		.ascii	"\027\213\367\347\317\335*`N\362\312\240#(b!qA\226\363"
  38      CFDD2A60 
  38      4EF2CAA0 
  38      23286221 
  38      714196F3 
  39 00a9 493F8066 		.ascii	"I?\200fn\303\264\212\026](\011+/\302\213\017\357\267"
  39      6EC3B48A 
  39      165D2809 
  39      2B2FC28B 
  39      0FEFB7
  40 00bc 562515A7 		.ascii	"V%\025\247h|\037\312\215p\217gQG\274\006W\311H'i\221"
  40      687C1FCA 
  40      8D708F67 
  40      5147BC06 
  40      57C94827 
  41 00d2 398902A6 		.ascii	"9\211\002\246k\016\354\301\022\376E\310<\313\254a\251"
  41      6B0EECC1 
  41      12FE45C8 
  41      3CCBAC61 
  41      A9
  42 00e3 5CA10E22 		.ascii	"\\\241\016\"\315\274\351+\310~N{\355#3\356\224.\352"
  42      CDBCE92B 
  42      C87E4E7B 
  42      ED2333EE 
ARM GAS  /tmp/ccD580lS.s 			page 3


  42      942EEA
  43 00f6 36E71310 		.ascii	"6\347\023\020\236\376\330Z\337\201`\316O\363\320\177"
  43      9EFED85A 
  43      DF8160CE 
  43      4FF3D07F 
  44 0106 221011D3 		.ascii	"\"\020\021\323}\015c\036\200\006\230\342\374|~e\365"
  44      7D0D631E 
  44      800698E2 
  44      FC7C7E65 
  44      F5
  45 0117 79D315BE 		.ascii	"y\323\025\276\220\275\315\013\305\"R\212\"\301i\024"
  45      90BDCD0B 
  45      C522528A 
  45      22C16914 
  46 0127 14887C97 		.ascii	"\024\210|\227\3374UJ\371S\210\230BD\301\022\214\255"
  46      DF34554A 
  46      F9538898 
  46      4244C112 
  46      8CAD
  47 0139 2F656627 		.ascii	"/ef'd\233;\313Y\230}\271YG0\357b\203M,\237\316\355\265"
  47      649B3BCB 
  47      59987DB9 
  47      594730EF 
  47      62834D2C 
  48 0151 CF9F5C9C 		.ascii	"\317\237\\\234\3606\333\273\334\245\361\372\007.{\373"
  48      F036DBBB 
  48      DCA5F1FA 
  48      072E7BFB 
  49 0161 A6B0411B 		.ascii	"\246\260A\033\353\222\032\0120\022\251L\252\220\272"
  49      EB921A0A 
  49      3012A94C 
  49      AA90BA
  50 0170 C07C5684 		.ascii	"\300|V\204\025\012\021y\262\365\255\370\340\023\336"
  50      150A1179 
  50      B2F5ADF8 
  50      E013DE
  51 017f E0978FE8 		.ascii	"\340\227\217\350\350.\203\270{\376e\347\334c]\342-d"
  51      E82E83B8 
  51      7BFE65E7 
  51      DC635DE2 
  51      2D64
  52 0191 BE7DBDB3 		.ascii	"\276}\275\2636\321\\\211}|;\343\336\035_ee\237\201M"
  52      36D15C89 
  52      7D7C3BE3 
  52      DE1D5F65 
  52      659F814D 
  53 01a5 7E96D7E9 		.ascii	"~\226\327\351X\255\241[\305G\026\014\035k*\371\234\232"
  53      58ADA15B 
  53      C547160C 
  53      1D6B2AF9 
  53      9C9A
  54 01b7 AFE053C5 		.ascii	"\257\340S\305i\023\377?\011\205\277\022\372\261 \010"
  54      6913FF3F 
  54      0985BF12 
  54      FAB12008 
  55 01c7 7DEC2474 		.ascii	"}\354$t#\347s\020:\347e\016Bo\326/;\010\335\276\340"
  55      23E77310 
ARM GAS  /tmp/ccD580lS.s 			page 4


  55      3AE7650E 
  55      426FD62F 
  55      3B08DDBE 
  56 01dc B89187B4 		.ascii	"\270\221\207\264\232\264\206t\317\037\010Uq\206\034"
  56      9AB48674 
  56      CF1F0855 
  56      71861C
  57 01eb 1B528940 		.ascii	"\033R\211@\025\037\242\317\371I*\346oA4\346\177\366"
  57      151FA2CF 
  57      F9492AE6 
  57      6F4134E6 
  57      7FF6
  58 01fd 59BDCB69 		.ascii	"Y\275\313i\252\005\233\242eH\347\213\007JI\226\204\351"
  58      AA059BA2 
  58      6548E78B 
  58      074A4996 
  58      84E9
  59 020f 65A981E8 		.ascii	"e\251\201\350\335\022\010\260\266\250\336\243\237\010"
  59      DD1208B0 
  59      B6A8DEA3 
  59      9F08
  60 021d B184C1A2 		.ascii	"\261\204\301\242j\214\015$\222)\203\205\302\301C\255"
  60      6A8C0D24 
  60      92298385 
  60      C2C143AD 
  61 022d ACA3E318 		.ascii	"\254\243\343\030\013\267\007\207Z\230\221\352\216\305"
  61      0BB70787 
  61      5A9891EA 
  61      8EC5
  62 023b 7A031A34 		.ascii	"z\003\0324\226W$S;\005G;\203m\301a\246E\265D2\322=t"
  62      96572453 
  62      3B05473B 
  62      836DC161 
  62      A645B544 
  63 0253 381E8882 		.ascii	"8\036\210\202kH\215\015F\002\345\025\221\341\024k\013"
  63      6B488D0D 
  63      4602E515 
  63      91E1146B 
  63      0B
  64 0264 86DA434C 		.ascii	"\206\332CL\357\327b\203\275\021fVh\361\343\203\375\032"
  64      EFD76283 
  64      BD116656 
  64      68F1E383 
  64      FD1A
  65 0276 15EDFB6D 		.ascii	"\025\355\373m\200\235\0275F\214\3373\004\350\204A\013"
  65      809D1735 
  65      468CDF33 
  65      04E88441 
  65      0B
  66 0287 A50A4B19 		.ascii	"\245\012K\031u\301P\247\277G5\"\003I\275\311\277\377"
  66      75C150A7 
  66      BF473522 
  66      0349BDC9 
  66      BFFF
  67 0299 20484970 		.ascii	" HIp\307#\361Dr\004~\001\00322q"
  67      C723F144 
  67      72047E01 
ARM GAS  /tmp/ccD580lS.s 			page 5


  67      03323271 
  68              		.text
  69              		.section	.gnu.lto_st_lld_init.aa65083ab2193431,"",%progbits
  70 0000 789C95D3 		.ascii	"x\234\225\323\275KBQ\024\000\360s\356\363\371U\3641"
  70      BD4B4251 
  70      1400F073 
  70      EEF3F955 
  70      F431
  71 0012 260DAD11 		.ascii	"&\015\255\021\3710\227\266\206Z\004\245\301\027\344"
  71      F93097B6 
  71      865A04A5 
  71      C117E4
  72 0021 146AA00F 		.ascii	"\024j\240\017\004#\245\245\301+\03184H\223TP\255\032"
  72      0423A5A5 
  72      C12B1938 
  72      34489354 
  72      50AD1A
  73 0034 BAC56B13 		.ascii	"\272\305k\023\267\006\2156ir\254\377@Z\354\336\367e"
  73      B7068D36 
  73      6972ACFF 
  73      405AECDE 
  73      F765
  74 0046 6A48EFC0 		.ascii	"jH\357\300;\367=\357=?\217x\036\001\002\223\261\302"
  74      3BF73DEF 
  74      3D3F8F78 
  74      1E010293 
  74      B1C2
  75 0058 2E9F0320 		.ascii	".\237\003 \310V\024\000I\245\013Pt\023D~\003\010\005"
  75      C8561400 
  75      49A50B50 
  75      7413447E 
  75      030805
  76 006b 8285186A 		.ascii	"\202\205\030jg\233\244\325\037\016\033\317\327wW\330"
  76      679BA4D5 
  76      1F0E1BCF 
  76      D77757D8 
  77 007b 25CB0414 		.ascii	"%\313\004\024\004\201'\221''O,D(QZY\003Hj\2172\313\234"
  77      04812791 
  77      27274F2C 
  77      4428515A 
  77      5903486A 
  78 0093 3A40C257 		.ascii	":@\302W\241\003\355\017\265\346\213\343#\212\220B\262"
  78      A103ED0F 
  78      B5E68BE3 
  78      238A9042 
  78      B2
  79 00a4 01355A2A 		.ascii	"\0015Z*.)\210\267p\203\012\222C\226\004\372P\246\016"
  79      2E2988B7 
  79      70830A92 
  79      439604FA 
  79      50A60E
  80 00b7 D06EB5AF 		.ascii	"\320n\265\257N\240\331p\007.^\004\263ZH\351\347\001"
  80      4EA0D970 
  80      072E5E04 
  80      B35A48E9 
  80      E701
  81 00c9 B59D7648 		.ascii	"\265\235vH\337\260g\246\3703o\253\\'&,N\022\016^'\322"
ARM GAS  /tmp/ccD580lS.s 			page 6


  81      DFB067A6 
  81      F8336FAB 
  81      5C27262C 
  81      4E120E5E 
  82 00df 56852E68 		.ascii	"V\205.h\204h\020\370W[N\006\374\243\255\331&c\264bu"
  82      846810F8 
  82      575B4E06 
  82      FCA3ADD9 
  82      2663B462 
  83 00f4 506F0BBF 		.ascii	"Po\013\277\001\272c\011N^\346\242,\364\037\3462\004"
  83      01BA6309 
  83      4E5EE6A2 
  83      2CF41FE6 
  83      3204
  84 0106 FD7FE69F 		.ascii	"\375\177\346\237\340\375\266\336\203Zm\330f\204\021"
  84      E0FDB6DE 
  84      835A6DD8 
  84      668411
  85 0115 3364B168 		.ascii	"3d\261hH\252}\3111\222\300Pz\226\262\011O\\\211\261"
  85      48AA7DC9 
  85      3192C050 
  85      7A96B209 
  85      4F5C89B1 
  86 0129 CD11E89E 		.ascii	"\315\021\350\236\015\212\026\350\261fy\214\037\330o"
  86      0D8A16E8 
  86      B166798C 
  86      1FD86F
  87 0138 D239AD54 		.ascii	"\3229\255T\233\266\025\327\264\242\332W\334\226b\016"
  87      9BB615D7 
  87      B4A2DA57 
  87      DC96620E 
  88 0148 91DAB3AF 		.ascii	"\221\332\263\257x\306\2257\270\354\277~yu\004\340\034"
  88      78C69537 
  88      B8ECBF7E 
  88      797504E0 
  88      1C
  89 0159 BE6999B2 		.ascii	"\276i\231\262y\364&\215\231\343'\347V\365\305\315\336"
  89      79F4268D 
  89      99E327E7 
  89      56F5C5CD 
  89      DE
  90 016a E7798077 		.ascii	"\347y\200w(\366?\327\315\022=dv\234\275\313|\312\002"
  90      28F63FD7 
  90      CD123D64 
  90      769CBDCB 
  90      7CCA02
  91 017d 7EBFB49B 		.ascii	"~\277\264\233V\022\312~T\312\346\244t<#\235dO\3639)"
  91      5612CA7E 
  91      54CAE6A4 
  91      743C239D 
  91      644FF339 
  92 0192 2A47825B 		.ascii	"*G\202[R8\274'\311\241\310Y@\312\345\2172\231c\177\022"
  92      5238BC27 
  92      C9A1C859 
  92      40CAE58F 
  92      3299637F 
  93 01a7 7E00D9CC 		.ascii	"~\000\331\314\3706"
ARM GAS  /tmp/ccD580lS.s 			page 7


  93      F836
  94              		.text
  95              		.section	.gnu.lto_.symbol_nodes.aa65083ab2193431,"",%progbits
  96 0000 789C6362 		.ascii	"x\234cb`bHd\200\002\246\011L\365\014\014\023\31610\324"
  96      60624864 
  96      8002A609 
  96      4CF50C0C 
  96      13CE3130 
  97 0015 D7CFEB60 		.ascii	"\327\317\353`d\232\310T\317\210\3402Nb\252g\202p\033"
  97      649AC854 
  97      CF88E032 
  97      4E62AA67 
  97      82701B
  98 0028 1A181927 		.ascii	"\032\030\031'3\3253#xS\230\352Y\340<f\006f\206\303["
  98      33D53323 
  98      785398EA 
  98      59E03C66 
  98      066686C3 
  99 003d 4D988166 		.ascii	"M\230\201f/n{#\317\314\310\302p\270\375\215<\003\000"
  99      2F6E7B23 
  99      CFCCC8C2 
  99      70B8FD8D 
  99      3C0300
 100 0050 69D01BBE 		.ascii	"i\320\033\276"
 101              		.text
 102              		.section	.gnu.lto_.refs.aa65083ab2193431,"",%progbits
 103 0000 789C6362 		.ascii	"x\234cb`b`d\200\002\000\000F\000\006"
 103      60626064 
 103      80020000 
 103      460006
 104              		.text
 105              		.section	.gnu.lto_.decls.aa65083ab2193431,"",%progbits
 106 0000 789CBD98 		.ascii	"x\234\275\230kL\034\327\025\307\357\235\345\0310!\344"
 106      6B4C1CD7 
 106      15C7EF9D 
 106      E5193021 
 106      E4
 107 0011 21F2C920 		.ascii	"!\362\311 5U\225\010\326,\256\342~I\015\013\030$c\243"
 107      35559508 
 107      D62CAEE2 
 107      7E490D0B 
 107      182463A3 
 108 0025 595C59E9 		.ascii	"Y\\Y\351\207\355x\031\302\252\373pv\027\202?e(nj\334"
 108      87ED7819 
 108      C2AAFB70 
 108      7617823F 
 108      65286E6A 
 109 003a 5859BF10 		.ascii	"XY\277\020\2416\206&\244v\342\304\2178\011)\216\263"
 109      A1368626 
 109      A476E2C4 
 109      8F380929 
 109      8EB3
 110 004c 45B68BD2 		.ascii	"E\266\213\322\027P\2278qm(iZ%Nb\374\210M\355\330\333"
 110      17509738 
 110      716D2869 
 110      5A254E62 
 110      FC884DED 
ARM GAS  /tmp/ccD580lS.s 			page 8


 111 0062 73EFCC2C 		.ascii	"s\357\314,sgg\326\263\251\324\221\316\231\331\331{\177"
 111      736767D6 
 111      B3A9D491 
 111      CE99D9D9 
 111      7B7F
 112 0074 E77FEF3D 		.ascii	"\347\177\357={\271\007\016q\250\006#\024\207\353\342"
 112      7BB9070E 
 112      71A80623 
 112      1487EBE2 
 113 0084 C3087564 		.ascii	"\303\010ud dC\010=\001\006\257\321\020\222\257L\260"
 113      20644308 
 113      3D0106AF 
 113      D11092AF 
 113      4CB0
 114 0096 FD6007C1 		.ascii	"\375`\007\301\016\201\035\001{\023%_\244M\036X6\330"
 114      0E811D01 
 114      7B13255F 
 114      A44D1E58 
 114      36D8
 115 00a8 08D8BB60 		.ascii	"\010\330\273`_(\234\002\260|\260/\301.\203]\005;\240"
 115      5F289C02 
 115      B07CB02F 
 115      C12E835D 
 115      053BA0
 116 00bb C4390DB6 		.ascii	"\3049\015\266D\351\177\015\354\006\330M\260\333Hn\220"
 116      44E97F0D 
 116      EC06D84D 
 116      B0DB486E 
 116      90
 117 00cc 8BE598F9 		.ascii	"\213\345\230\371p\277\027\254\010\354A,k\321_\007\025"
 117      70BF17AC 
 117      08EC412C 
 117      6BD15F07 
 117      15
 118 00dd 96AAA118 		.ascii	"\226\252\241\030\332=\016\266\002\214\214U\325\364\021"
 118      DA3D0EB6 
 118      028C8C55 
 118      D5F411
 119 00ec 180C17D5 		.ascii	"\030\014\027\325bY\3371\260{\300\036\203\317+\301\246"
 119      6259DF31 
 119      B07BC01E 
 119      83CF2BC1 
 119      A6
 120 00fd E0F90CD8 		.ascii	"\340\371\014\330\007`g\301N\202\305\300\306\301N\200"
 120      076067C1 
 120      4E82C5C0 
 120      C6C14E80 
 121 010d 714A2CA3 		.ascii	"qJ,\243y\310E[$\351g\322\340sR\3758\214{=\026pA.*\241"
 121      79C8455B 
 121      24E967D2 
 121      E07352FD 
 121      388C7B3D 
 122 0127 0FF9B934 		.ascii	"\017\371\2714\354#\350eI\212\316\236\232\233\345$)G"
 122      EC23E865 
 122      498ACE9E 
 122      9A9BE524 
 122      2947
ARM GAS  /tmp/ccD580lS.s 			page 9


 123 0139 C0433817 		.ascii	"\300C8\027\220\035\030=\212\016H\360\215$\315\375\020"
 123      901D183D 
 123      8A0E48F0 
 123      8D24CDFD 
 123      10
 124 014a FF4FE8BD 		.ascii	"\377O\350\275[\217\377\200\242\207)\372\227\034F\002"
 124      5B8FFF80 
 124      A28729FA 
 124      971C4602 
 125 015a 7E193FAA 		.ascii	"~\031?\252\200\004\234\235\253\005\323\317j\003B\243"
 125      80049C9D 
 125      AB05D3CF 
 125      6A0342A3 
 126 016a 5F2B0F24 		.ascii	"_+\017$A\356E\3516_\212\006\244\301\331\331\363S\227"
 126      41EE45E9 
 126      365F8A06 
 126      A4C1D9D9 
 126      F35397
 127 017d EE7F518A 		.ascii	"\356\177Q\212m\226\342\361g\321Ch7\014\217\350\227p"
 127      6D96E2F1 
 127      67D14368 
 127      370C8FE8 
 127      9770
 128 018f 44C04F3C 		.ascii	"D\300O<h8\004\302?\200\037R\236\326\331\344\230\034"
 128      683804C2 
 128      3F801F52 
 128      9ED6D9E4 
 128      981C
 129 01a1 1AD70D02 		.ascii	"\032\327\015\002\241\357\242a\302\223\366K6J#\355\367"
 129      A1EFA261 
 129      C293F64B 
 129      364A23ED 
 129      F7
 130 01b2 E3A5ACD4 		.ascii	"\343\245\254\324W1\247}!\353\212\275\263\343\017X\332"
 130      5731A77D 
 130      21EB8ABD 
 130      B3E30F58 
 130      DA
 131 01c3 217D138F 		.ascii	"!}\023\217\333\224p\034\232\264\024\340\240>\300\353"
 131      DB94701C 
 131      9AB414E0 
 131      A03EC0EB 
 132 01d3 C90166A3 		.ascii	"\311\001f\243\263\267\246/\375\034o\357\036\034\227"
 132      B3B7A62F 
 132      FD1C6FEF 
 132      1E1C97
 133 01e2 E6C97CA8 		.ascii	"\346\311|\2501zl\372\0302\344\260!d\241\377\357\031"
 133      317A6CFA 
 133      1832E4B0 
 133      2164A1FF 
 133      EF19
 134 01f4 2F4A63F2 		.ascii	"/Jc\362\354\251\210\023&\210\243\206\210\251\201\277"
 134      ECA98813 
 134      2688A386 
 134      88A981BF 
 135 0204 E004C2FA 		.ascii	"\340\004\302\372\002\034S\026\300Fs\035\3119\312|`V"
 135      021C5316 
ARM GAS  /tmp/ccD580lS.s 			page 10


 135      C046731D 
 135      C939CA7C 
 135      6056
 136 0216 872E50DC 		.ascii	"\207.P\334D\330;\2540\232\305\335)\263X\300\277\306"
 136      44D83BAC 
 136      309AC5DD 
 136      29B358C0 
 136      BFC6
 137 0228 8F584AB3 		.ascii	"\217XJ\263\"\264\235\214\250DC\222\262T\324OP\342\007"
 137      22B49D8C 
 137      A8444392 
 137      B254D44F 
 137      50E207
 138 023b 3139371F 		.ascii	"197\037\350\206Q\013\370]\\\004ZOe\260Z\357\312!\242"
 138      E886510B 
 138      F85D5C04 
 138      5A4F65B0 
 138      5AEFCA21 
 139 0250 8E4357B9 		.ascii	"\216CW\271\023\245J\261\235\347\362\245\014\371=2\030"
 139      13A54AB1 
 139      9DE7F2A5 
 139      0CF93D32 
 139      18
 140 0261 BA7295A2 		.ascii	"\272r\225\242Aiswl\367\271=\017K\203c\200\034\241?\312"
 140      41697377 
 140      6CF7B93D 
 140      0F4B8363 
 140      801CA13F 
 141 0276 492A81F4 		.ascii	"I*\201\3645\232\002\345Q\276\224\006,\257\367\\~TPa"
 141      359A02E5 
 141      51BE9406 
 141      2CAFF75C 
 141      7E545061 
 142 028a 7F4B1B56 		.ascii	"\177K\033V\302\300\372\264\260\217\254\300r\314\225"
 142      C2C0FAB4 
 142      B08FACC0 
 142      72CC95
 143 0299 F56B6117 		.ascii	"\365ka\027\322\206\261\312\366ha\237X\201\025\232+\033"
 143      D286B1CA 
 143      F668619F 
 143      5881159A 
 143      2B1B
 144 02ab D0C2FE95 		.ascii	"\320\302\376\2256\214UvX\013\373\334\012\254\330\\\331"
 144      368C5576 
 144      580BFBDC 
 144      0AACD85C 
 144      D9
 145 02bc 512D6C3E 		.ascii	"Q-l>m\030\253\354\230\026v\335\012\254\304\\\331\333"
 145      6D18ABEC 
 145      981676DD 
 145      0AACC45C 
 145      D9DB
 146 02ce 5AD8ADB4 		.ascii	"Z\330\255\264a\254\262\021-,n\005\366=se\277\325\302"
 146      61ACB211 
 146      2D2C6E05 
 146      F63D7365 
 146      BFD5C2
ARM GAS  /tmp/ccD580lS.s 			page 11


 147 02e1 BA33D385 		.ascii	"\2723\323\205\261\312\216ka\277\260\002[f\246\254+v"
 147      B1CA8E6B 
 147      61BFB002 
 147      5B66A6AC 
 147      2B76
 148 02f3 E2C751E1 		.ascii	"\342\307Q\341>\024U\266\024\231\252n+\230M-m\263!\363"
 148      3E1455B6 
 148      1499AA6E 
 148      2B984D2D 
 148      6DB321F3 
 149 0307 6602FE18 		.ascii	"f\002\376\030\337G\237\350\376))\373'ma\266\211\237"
 149      DF479FE8 
 149      FE2929FB 
 149      276D61B6 
 149      899F
 150 0319 93B7E9C5 		.ascii	"\223\267\351\305\237\277\362\260\270ik[\221s\202~\330"
 150      9FBFF2B0 
 150      B8696B5B 
 150      9173827E 
 150      D8
 151 032a AC0AA371 		.ascii	"\254\012\243q\263\2238\241\235\304\027\254L\342Js\330"
 151      B39338A1 
 151      9DC417AC 
 151      4CE24A73 
 151      D8
 152 033b 9416B6CB 		.ascii	"\224\026\266\313\012\254\336<W\316ha}i\303Xe\323Z\330"
 152      0AACDE3C 
 152      57CE6861 
 152      7D69C358 
 152      65D35AD8 
 153 034f 5E2BB026 		.ascii	"^+\260&seg\265\260\301\264aZe]\261\217\027\023op\245"
 153      736567B5 
 153      B0C1B461 
 153      5A655DB1 
 153      8F17136F 
 154 0365 2EF356B2 		.ascii	".\363V\262\273-\323l\310\264\231\200?K;\361>7I<\355"
 154      BB2DD36C 
 154      C8B49980 
 154      3F4B3BF1 
 154      3E37493C 
 155 037a A176B115 		.ascii	"\241v\261\025\014\373\025\375\260\031\021\312\343z\203"
 155      0CFB15FD 
 155      B01911CA 
 155      E37A83
 156 0389 3934BAB4 		.ascii	"94\272\264\177\250\005\374\036=I\234\300\245\340c\324"
 156      7FA805FC 
 156      1E3D499C 
 156      C0A5E063 
 156      D4
 157 039a 8F517F92 		.ascii	"\217Q\177\222\372\323\324\217S\377\001\365\177\244\376"
 157      FAD3D48F 
 157      53FF01F5 
 157      7FA4FE
 158 03a9 CFD44F50 		.ascii	"\317\324OP?E\375\031\352\247\251?K\375y\352g\250\377"
 158      3F45FD19 
 158      EAA7A93F 
 158      4BFD79EA 
ARM GAS  /tmp/ccD580lS.s 			page 12


 158      67A8FF
 159 03bc 07F59F50 		.ascii	"\007\365\237P\377)\365\377\006\237\270\362\320\326\305"
 159      FF29F5FF 
 159      069FB8F2 
 159      D0D6C5
 160 03cb 93BB7C06 		.ascii	"\223\273|\0061\233\273/p\236\332+\261B}\005\312\321"
 160      319BBB2F 
 160      709EDA2B 
 160      B1427D05 
 160      CAD1
 161 03dd 7F76582A 		.ascii	"\177vX*.N\314A\216v^\345#\011t\340\004\374\025\315\245"
 161      2E4ECC41 
 161      8E765EE5 
 161      230974E0 
 161      04FC15CD 
 162 03f2 D7328D8A 		.ascii	"\3272\215\212\010\032\344+\315\002\311\317\352S\034"
 162      081AE42B 
 162      CD02C9CF 
 162      EA531C
 163 0401 27F0852A 		.ascii	"'\360\205*\236Sz}\251$\202f\351\324\335\253\257@\356"
 163      9E537A7D 
 163      A9248266 
 163      E9D4DDAB 
 163      AF40EE
 164 0414 AE745DA1 		.ascii	"\256t]\241v\315V:\\N;\207\256\230\344P\226\361\224\222"
 164      76CD563A 
 164      5C4E3B87 
 164      AE98E450 
 164      96F19492 
 165 0428 B3B119EA 		.ascii	"\263\261\031\352\352\342\224\222Sql~v\362\342\370\026"
 165      EAE29492 
 165      53716C7E 
 165      76F2E2F8 
 165      16
 166 0439 FCBBE1E7 		.ascii	"\374\273\341\347\244h\327l\374\331}\261B\365p=\225i"
 166      A468D76C 
 166      FCD97DB1 
 166      42F5703D 
 166      9569
 167 044b A506B8A6 		.ascii	"\245\006\270\246\257\001\276N>{C\224\205\376SYj\361"
 167      AF01BE4E 
 167      3E7B4394 
 167      85FE5359 
 167      6AF1
 168 045d 53AA46F8 		.ascii	"S\252F\370\324R\204\033\372\010\013\206\021nN_\312N"
 168      D452841B 
 168      FA080B86 
 168      116E4E5F 
 168      CA4E
 169 046f 8A70DD52 		.ascii	"\212p\335R\204\233\372\010\267\214\"\304\016_\310's"
 169      849BFA08 
 169      B78C22C4 
 169      0E5FC827 
 169      73
 170 0480 14D7CC51 		.ascii	"\024\327\314QO\226\025\376m=\377\216\341\010>\2742\361"
 170      4F9615FE 
 170      6D3DFF8E 
ARM GAS  /tmp/ccD580lS.s 			page 13


 170      E1083EBC 
 170      32F1
 171 0492 3CDE7E28 		.ascii	"<\336~(\261\022\321\014\353EJ\027gP\244\350\212\222"
 171      B112D10C 
 171      EB454A17 
 171      6750A4E8 
 171      8A92
 172 04a4 31462C6D 		.ascii	"1F,m\311\241\211,\345\227\361\035\364\222\004e\340\344"
 172      C9A1892C 
 172      E597F11D 
 172      F4920465 
 172      E0E4
 173 04b6 E9FC2856 		.ascii	"\351\374(V\353\360\013\264\207\304-5)M\224\342G\031"
 173      EBF00BB4 
 173      87C42D35 
 173      294D94E2 
 173      4719
 174 04c8 F3D5AEA6 		.ascii	"\363\325\256\246\342\304\230I'f\314\335\234\321\230"
 174      E2C49849 
 174      2766CCDD 
 174      9CD198
 175 04d7 272F2EF4 		.ascii	"'/.\364\031f\337?-\315l\217>\312V\243(\261\221\271q"
 175      1966DF3F 
 175      2DCD6C8F 
 175      3ECA56A3 
 175      28B191B9 
 176 04ec A5C4EDDE 		.ascii	"\245\304\355\336\302%\252\307\005K!\236\327\207\330"
 176      C225AAC7 
 176      054B219E 
 176      D787D8
 177 04fb 66389085 		.ascii	"f8\220\205\376\017\223\023|[\266\225\010/\350#D\015"
 177      FE0F9313 
 177      7C5BB695 
 177      082FE823 
 177      440D
 178 050d 23DCECBD 		.ascii	"#\334\354\275\235\234\340\203\226\"\354\320G\330i8M"
 178      9D9CE083 
 178      9622ECD0 
 178      47D86938 
 178      4D
 179 051e D199A404 		.ascii	"\321\231\244\004\177\313\022\177\267\236\337\313\362"
 179      7FCB127F 
 179      B79EDFCB 
 179      F2
 180 052b 0D4ACA41 		.ascii	"\015J\312A\233\232J\313Q\2424\335yg\242\007\037\221"
 180      9B9A4ACB 
 180      51A234DD 
 180      7967A207 
 180      1F91
 181 053d 2408DFC7 		.ascii	"$\010\337\307\221\332\364k]\370\273\202H\360_q\272\332"
 181      91DAF46B 
 181      5DF8BB82 
 181      48F05F71 
 181      BADA
 182 054f F4C60CAD 		.ascii	"\364\306\014\255M\311\373\273\327\246\267fv1\265iW\016"
 182      4DC9FBBB 
 182      D7A6B766 
ARM GAS  /tmp/ccD580lS.s 			page 14


 182      7631B569 
 182      570E
 183 0561 5698DFAE 		.ascii	"V\230\337\2566\375fFs\246\331\2346\254\204\201\335\321"
 183      36FD6646 
 183      73A6D99C 
 183      36AC8481 
 183      DDD1
 184 0573 C27AACC0 		.ascii	"\302z\254\300R\324\246Q\372\253\310Wq\333\322\306\261"
 184      52D4A651 
 184      FAABC857 
 184      71DBD2C6 
 184      B1
 185 0584 DA76B0B8 		.ascii	"\332v\260\270^+\270\024\365\351.\026\267/m\034\253\256"
 185      5E2BB814 
 185      F5E92E16 
 185      B72F6D1C 
 185      ABAE
 186 0596 97C5BD62 		.ascii	"\227\305\275b\005\227\242F\355cqo\244\215c\325\365\263"
 186      0597A246 
 186      ED63716F 
 186      A48D63D5 
 186      F5B3
 187 05a8 B8B7ADE0 		.ascii	"\270\267\255\340J\314\325\355aq\243i\343Xu\003,\356"
 187      4ACCD5ED 
 187      6171A369 
 187      E3587503 
 187      2CEE
 188 05ba 7D2BB814 		.ascii	"}+\270\024\265\352a\026\367\373\264q\254\272\243,\356"
 188      B5EA6116 
 188      F7FBB471 
 188      ACBAA32C 
 188      EE
 189 05cb 4F567046 		.ascii	"OVpF\365\252\321\245\335L\004\274\207#\347\347\275\034"
 189      F5AAD1A5 
 189      DD4C04BC 
 189      8723E7E7 
 189      BD1C
 190 05dd 39D3EEA3 		.ascii	"9\323\356\243~\210\372\227\250\037\246\3767\324\037"
 190      7E88FA97 
 190      A81FA6FE 
 190      37D41F
 191 05ec A0FE35EA 		.ascii	"\240\3765\352_\247\376\020\365G\250\177\223\372\267"
 191      5FA7FE10 
 191      F547A87F 
 191      93FAB7
 192 05fb 38F35371 		.ascii	"8\363Sq\237\211|\372?D.q\2043\372W\035S\246\312\373"
 192      9F897CFA 
 192      3F442E71 
 192      8433FA57 
 192      1D53A6CA 
 193 0610 6AEC3FBD 		.ascii	"j\354?\275\270\004\346\207n\251\177\315\271\373\277"
 193      B804E687 
 193      6EA97FCD 
 193      B9FBBF
 194 061f FB920AEE 		.ascii	"\373\222\012\356Q\375\226z~\232n\251\243\226\266\324"
 194      51FD967A 
 194      7E9A6EA9 
ARM GAS  /tmp/ccD580lS.s 			page 15


 194      A396B6D4 
 195 062f CBD3EC96 		.ascii	"\313\323\354\226:G%\214~\353-\365\312tb\027\024\360"
 195      3A47258C 
 195      7EEB2DF5 
 195      CA746217 
 195      14F0
 196 0641 00C7A509 		.ascii	"\000\307\245\011c\323\347\332\264fK\375\314\212\262"
 196      63D3E7DA 
 196      B4664BFD 
 196      CC8AB2
 197 0650 145BEA75 		.ascii	"\024[\352u-l>mXI\252L\034\325d\342q\232\211\357\321"
 197      2D6C3E6D 
 197      5849AA4C 
 197      1CD564E2 
 197      719A89EF 
 198 0665 3C7A9FFA 		.ascii	"<z\237\372\030\365c)rj$EN\235\\\314)]\257c)\212\211"
 198      18F56329 
 198      726A2445 
 198      4E9D5CCC 
 198      295DAF63 
 199 067c 538BBD50 		.ascii	"S\213\275P\330\036h\245\366}{[\320/\332CbX\024B\236"
 199      D81E68A5 
 199      F67D7B5B 
 199      D02FDA43 
 199      62581442 
 200 0691 367B9B10 		.ascii	"6{\233\020jyF\010\211v!\344w\330\237\362x\312\340\241"
 200      6A794608 
 200      897621E4 
 200      77D89FF2 
 200      78CAE0A1 
 201 06a5 4CF46F10 		.ascii	"L\364o\020[Z\304\226\304\213@0 \226\211\302\006o\331"
 201      5B5AC496 
 201      C48B4030 
 201      209689C2 
 201      066FD9
 202 06b8 72F78A32 		.ascii	"r\367\2122\307\262\212\345O;\354\314\027vo\300\343k"
 202      C7B28AE5 
 202      4F3BECCC 
 202      17766FC0 
 202      E36B
 203 06ca 6F11EDE1 		.ascii	"o\021\355\341H\2137\020)oC9\355p\257t\270#Y\253\326"
 203      488B3710 
 203      296F4339 
 203      ED70AF74 
 203      B82359AB 
 204 06df AC2B71A2 		.ascii	"\254+q\242n\374\377\023\341\027<m\336\200hw\267\210"
 204      6EFCFF13 
 204      E1173C6D 
 204      DE806877 
 204      B788
 205 06f1 AD42BB2F 		.ascii	"\255B\273/\342\216l\332(\206A\324=n\267*\253\242\274"
 205      E28E6CDA 
 205      288641D4 
 205      3D6EB72A 
 205      ABA2BC
 206 0704 DCEE6CF3 		.ascii	"\334\356l\363n\360\256u\331\203a\020\341\263o\014\206"
 206      6EF0AE75 
ARM GAS  /tmp/ccD580lS.s 			page 16


 206      D9836110 
 206      E1B36F0C 
 206      86
 207 0715 2261BBAB 		.ascii	"\"a\273\253\271\261\322a_\275\272\306\336\334\320\330"
 207      B9B1D261 
 207      5FBDBAC6 
 207      DEDCD0D8 
 208 0725 51012372 		.ascii	"Q\001#r\373|-\345\036\224\363#\321\023\011\206\252\227"
 208      FB7C2DE5 
 208      1E94F323 
 208      D1130986 
 208      AA97
 209 0737 E5C9AFDC 		.ascii	"\345\311\257\334\336\2007\362\030\213\011E\024J\025"
 209      DE8037F2 
 209      188B0945 
 209      144A15
 210 0746 DFE86CEC 		.ascii	"\337\350l\354\264{\332<\301\220\350\356x\334\017\321"
 210      B47BDA3C 
 210      C190E8EE 
 210      78DC0FD1 
 211 0756 8BDCE43B 		.ascii	"\213\334\344;\2677\364\264[\334\350\365\005\237j\027"
 211      B737F4B4 
 211      5BDCE8F5 
 211      059F6A17 
 212 0766 4B93BAAB 		.ascii	"K\223\272\253c\360\264\2057\021\311E\2366\327\246p\263"
 212      63F0B485 
 212      3711C945 
 212      9E36D7A6 
 212      70B3
 213 0778 D72F86EA 		.ascii	"\327/\206\352\205@\213O\0145\224\231I\367\004\375\376"
 213      85408B4F 
 213      0C359499 
 213      49F704FD 
 213      FE
 214 0789 60408D1D 		.ascii	"`@\215\035\350\360z\000PH\356\265\001a\203O\224\007"
 214      E8F07A00 
 214      5048EEB5 
 214      0161834F 
 214      9407
 215 079b B0DCFAC8 		.ascii	"\260\334\372\310\375d\246\274D{^\342\203;bs\362\025"
 215      FD64A6BC 
 215      447B5EE2 
 215      833B6273 
 215      F215
 216 07ad 608E0C57 		.ascii	"`\216\014W\243\223\317\250i\250\3459\027o\253]\305g"
 216      A393CFA8 
 216      69A8E539 
 216      176FAB5D 
 216      C567
 217 07bf 3A9D8D7C 		.ascii	":\235\215|\005\365\216\014\247\263\226\2679\3274\333"
 217      05F58E0C 
 217      A7B396B7 
 217      39D734DB 
 218 07cf 9A       		.ascii	"\232"
 219 07d0 5C4E5B15 		.ascii	"\\N[\025\317\333x'|\206\016\3255\315\274\255\206\364"
 219      CFDB7827 
 219      7C860ED5 
ARM GAS  /tmp/ccD580lS.s 			page 17


 219      35CDBCAD 
 219      86F4
 220 07e2 6CACE2B9 		.ascii	"l\254\342\271\265r\257Jh\277\236\317\360@2\224&\353"
 220      B572AF4A 
 220      68BF9ECF 
 220      F0403294 
 220      26EB
 221 07f4 0B86C1C1 		.ascii	"\013\206\301\301\344\220;\231\023r\207YY\035\364\374"
 221      E4903B99 
 221      13728759 
 221      591DF4FC 
 222 0804 B42E14F4 		.ascii	"\264.\024\3647\270\370B:M\232\027Et\256}\360\302\335"
 222      37B8F842 
 222      3A4D9A17 
 222      4574AE7D 
 222      F0C2DD
 223 0817 0A6FDCDE 		.ascii	"\012o\334\336p(7\361\252\234\015!vF\354\316FW\203kq"
 223      702837F1 
 223      AA9C0D21 
 223      7646ECCE 
 223      4657836B 
 224 082c F6C9AA79 		.ascii	"\366\311\252y\374u\355\0012\205K\334\356\260\030qWW"
 224      FC75ED01 
 224      32854BDC 
 224      EEB01871 
 224      5757
 225 083e B96A9BF8 		.ascii	"\271j\233\370\206%\202\357\031aS\030\226\337\007I\226"
 225      862582EF 
 225      19615318 
 225      96DF0749 
 225      96
 226 084f D921F8DA 		.ascii	"\331!\370\332\305\373\211\242\265\3542=\240\250\\\027"
 226      C5FB89A2 
 226      B5EC323D 
 226      A0A85C17 
 227 085f F0696451 		.ascii	"\360idQ\235\314\253\007\250\254\366\000\2435O\363\262"
 227      9DCCAB07 
 227      A8ACF600 
 227      A3354FF3 
 227      B2
 228 0870 D24CADAB 		.ascii	"\322L\255\253Y^\263\272\312\316Ny\265Z+\227Uv\022\311"
 228      595EB3BA 
 228      CACE4E79 
 228      B55A2B97 
 228      557612C9 
 229 0884 79BCD3E9 		.ascii	"y\274\323\351n\206\264\257\021[9\230kg\335*\230\375"
 229      6E86B4AF 
 229      115B3998 
 229      6B67DD2A 
 229      98FD
 230 0896 063EA7AA 		.ascii	"\006>\247\252\251\332\301\273\232\351C\005y\310\252"
 230      A9DAC1BB 
 230      9AE94305 
 230      79C8AA
 231 08a5 AAAFAE5D 		.ascii	"\252\257\256]\303g\223/\224{\005\334a\231\310z\271\340"
 231      C367932F 
 231      947B05DC 
ARM GAS  /tmp/ccD580lS.s 			page 18


 231      6199C87A 
 231      B9E0
 232 08b7 457D3569 		.ascii	"E}5i\227I\020\016\352+\013j\252W5:\327\251\001\262\032"
 232      9749100E 
 232      EA2B0B6A 
 232      AA57353A 
 232      D7A901B2 
 233 08cc 6A9C6B6B 		.ascii	"j\234kkj\263H\327\272'\311\315Q\367\344\177\001]/E\351"
 233      6AB348D7 
 233      BA27C9CD 
 233      51F7E47F 
 233      015D2F45 
 234              		.text
 235              		.section	.gnu.lto_.symtab.aa65083ab2193431,"",%progbits
 236 0000 56656374 		.ascii	"VectorB0\000\000\000\000\000\000\000\000\000\000\000"
 236      6F724230 
 236      00000000 
 236      00000000 
 236      000000
 237 0013 00A80000 		.ascii	"\000\250\000\000\000st_lld_init\000\000\000\000\000"
 237      0073745F 
 237      6C6C645F 
 237      696E6974 
 237      00000000 
 238 0028 00000000 		.ascii	"\000\000\000\000\000\000\000\254\000\000\000_port_i"
 238      000000AC 
 238      0000005F 
 238      706F7274 
 238      5F69
 239 003a 72715F65 		.ascii	"rq_epilogue\000\000\002\000\000\000\000\000\000\000"
 239      70696C6F 
 239      67756500 
 239      00020000 
 239      00000000 
 240 004f 0000AF00 		.ascii	"\000\000\257\000\000\000chSysTimerHandlerI\000\000\002"
 240      00006368 
 240      53797354 
 240      696D6572 
 240      48616E64 
 241 006a 00000000 		.ascii	"\000\000\000\000\000\000\000\000\000\261\000\000\000"
 241      00000000 
 241      00B10000 
 241      00
 242 0077 6E766963 		.ascii	"nvicEnableVector\000\000\002\000\000\000\000\000\000"
 242      456E6162 
 242      6C655665 
 242      63746F72 
 242      00000200 
 243 0090 000000B3 		.ascii	"\000\000\000\263\000\000\000"
 243      000000
 244              		.text
 245              		.section	.gnu.lto_.opts,"",%progbits
 246 0000 272D6D63 		.ascii	"'-mcpu=cortex-m4' '-mno-thumb-interwork' '-mthumb' "
 246      70753D63 
 246      6F727465 
 246      782D6D34 
 246      2720272D 
ARM GAS  /tmp/ccD580lS.s 			page 19


 247 0033 272D6767 		.ascii	"'-ggdb' '-O2' '-fomit-frame-pointer' '-falign-funct"
 247      64622720 
 247      272D4F32 
 247      2720272D 
 247      666F6D69 
 248 0066 696F6E73 		.ascii	"ions=16' '-ffunction-sections' '-fdata-sections' '-"
 248      3D313627 
 248      20272D66 
 248      66756E63 
 248      74696F6E 
 249 0099 666E6F2D 		.ascii	"fno-common' '-flto'\000"
 249      636F6D6D 
 249      6F6E2720 
 249      272D666C 
 249      746F2700 
 250              		.text
 251              		.cfi_sections	.debug_frame
 252              		.section	.text.VectorB0,"ax",%progbits
 253              		.align	2
 254              		.p2align 4,,15
 255              		.global	VectorB0
 256              		.thumb
 257              		.thumb_func
 258              		.type	VectorB0, %function
 259              	VectorB0:
 260              	.LFB272:
 261              		.file 1 "../ChibiOS/os/hal/ports/STM32/LLD/TIMv1/st_lld.c"
 262              		.loc 1 239 0
 263              		.cfi_startproc
 264              		@ args = 0, pretend = 0, frame = 0
 265              		@ frame_needed = 0, uses_anonymous_args = 0
 266              		.loc 1 246 0
 267 0000 4FF08043 		mov	r3, #1073741824
 268              		.loc 1 239 0
 269 0004 10B5     		push	{r4, lr}
 270              		.cfi_def_cfa_offset 8
 271              		.cfi_offset 4, -8
 272              		.cfi_offset 14, -4
 273              		.loc 1 246 0
 274 0006 1A69     		ldr	r2, [r3, #16]
 275 0008 9207     		lsls	r2, r2, #30
 276 000a 08D5     		bpl	.L2
 277              		.loc 1 247 0
 278 000c 0024     		movs	r4, #0
 279 000e 1C61     		str	r4, [r3, #16]
 280              	.LVL0:
 281              	.LBB52:
 282              	.LBB53:
 283              	.LBB54:
 284              	.LBB55:
 285              	.LBB56:
 286              	.LBB57:
 287              		.file 2 "../ChibiOS/os/ext/CMSIS/include/core_cmFunc.h"
 288              		.loc 2 548 0
 289 0010 2023     		movs	r3, #32
 290              	@ 548 "../ChibiOS/os/ext/CMSIS/include/core_cmFunc.h" 1
 291 0012 83F31188 		MSR basepri, r3
ARM GAS  /tmp/ccD580lS.s 			page 20


 292              	@ 0 "" 2
 293              		.thumb
 294              	.LBE57:
 295              	.LBE56:
 296              	.LBE55:
 297              	.LBE54:
 298              	.LBE53:
 299              	.LBE52:
 300              	.LBB58:
 301              	.LBB59:
 302              		.file 3 "../ChibiOS/os/hal/osal/rt/osal.h"
 303              		.loc 3 585 0
 304 0016 FFF7FEFF 		bl	chSysTimerHandlerI
 305              	.LVL1:
 306              	.LBE59:
 307              	.LBE58:
 308              	.LBB60:
 309              	.LBB61:
 310              	.LBB62:
 311              	.LBB63:
 312              	.LBB64:
 313              	.LBB65:
 314              		.loc 2 548 0
 315              	@ 548 "../ChibiOS/os/ext/CMSIS/include/core_cmFunc.h" 1
 316 001a 84F31188 		MSR basepri, r4
 317              	@ 0 "" 2
 318              	.LVL2:
 319              		.thumb
 320              	.L2:
 321              	.LBE65:
 322              	.LBE64:
 323              	.LBE63:
 324              	.LBE62:
 325              	.LBE61:
 326              	.LBE60:
 327              		.loc 1 255 0
 328 001e BDE81040 		pop	{r4, lr}
 329              		.loc 1 254 0
 330 0022 FFF7FEBF 		b	_port_irq_epilogue
 331              	.LVL3:
 332              		.cfi_endproc
 333              	.LFE272:
 334              		.size	VectorB0, .-VectorB0
 335 0026 00BFAFF3 		.section	.text.st_lld_init,"ax",%progbits
 335      0080AFF3 
 335      0080
 336              		.align	2
 337              		.p2align 4,,15
 338              		.global	st_lld_init
 339              		.thumb
 340              		.thumb_func
 341              		.type	st_lld_init, %function
 342              	st_lld_init:
 343              	.LFB273:
 344              		.loc 1 267 0
 345              		.cfi_startproc
 346              		@ args = 0, pretend = 0, frame = 0
ARM GAS  /tmp/ccD580lS.s 			page 21


 347              		@ frame_needed = 0, uses_anonymous_args = 0
 348              		@ link register save eliminated.
 349              		.loc 1 273 0
 350 0000 0F4B     		ldr	r3, .L8
 351              		.loc 1 276 0
 352 0002 1049     		ldr	r1, .L8+4
 353              		.loc 1 273 0
 354 0004 DA69     		ldr	r2, [r3, #28]
 355              		.loc 1 267 0
 356 0006 70B4     		push	{r4, r5, r6}
 357              		.cfi_def_cfa_offset 12
 358              		.cfi_offset 4, -12
 359              		.cfi_offset 5, -8
 360              		.cfi_offset 6, -4
 361              		.loc 1 273 0
 362 0008 42F00102 		orr	r2, r2, #1
 363 000c DA61     		str	r2, [r3, #28]
 364              		.loc 1 276 0
 365 000e 8868     		ldr	r0, [r1, #8]
 366              		.loc 1 279 0
 367 0010 4FF08043 		mov	r3, #1073741824
 368              		.loc 1 281 0
 369 0014 0022     		movs	r2, #0
 370              		.loc 1 285 0
 371 0016 0124     		movs	r4, #1
 372              		.loc 1 276 0
 373 0018 40F00100 		orr	r0, r0, #1
 374              		.loc 1 279 0
 375 001c 41F61F46 		movw	r6, #7199
 376              		.loc 1 280 0
 377 0020 4FF0FF35 		mov	r5, #-1
 378              		.loc 1 276 0
 379 0024 8860     		str	r0, [r1, #8]
 380              		.loc 1 279 0
 381 0026 9E62     		str	r6, [r3, #40]
 382              		.loc 1 289 0
 383 0028 1C20     		movs	r0, #28
 384              		.loc 1 280 0
 385 002a DD62     		str	r5, [r3, #44]
 386              		.loc 1 289 0
 387 002c 0821     		movs	r1, #8
 388              		.loc 1 281 0
 389 002e 9A61     		str	r2, [r3, #24]
 390              		.loc 1 282 0
 391 0030 5A63     		str	r2, [r3, #52]
 392              		.loc 1 283 0
 393 0032 DA60     		str	r2, [r3, #12]
 394              		.loc 1 284 0
 395 0034 5A60     		str	r2, [r3, #4]
 396              		.loc 1 285 0
 397 0036 5C61     		str	r4, [r3, #20]
 398              		.loc 1 286 0
 399 0038 1C60     		str	r4, [r3]
 400              		.loc 1 304 0
 401 003a 70BC     		pop	{r4, r5, r6}
 402              		.loc 1 289 0
 403 003c FFF7FEBF 		b	nvicEnableVector
ARM GAS  /tmp/ccD580lS.s 			page 22


 404              	.LVL4:
 405              	.L9:
 406              		.align	2
 407              	.L8:
 408 0040 00100240 		.word	1073876992
 409 0044 002004E0 		.word	-536600576
 410              		.cfi_endproc
 411              	.LFE273:
 412              		.size	st_lld_init, .-st_lld_init
 413 0048 AFF30080 		.text
 413      AFF30080 
 414              	.Letext0:
 415              		.file 4 "/nfs/nfs5/home/research/hardware/arm2/gcc-arm-embedded/gcc-arm-none-eabi-4_8-2014q2/arm-n
 416              		.file 5 "/nfs/nfs5/home/research/hardware/arm2/gcc-arm-embedded/gcc-arm-none-eabi-4_8-2014q2/arm-n
 417              		.file 6 "../ChibiOS/os/rt/ports/ARMCMx/compilers/GCC/chtypes.h"
 418              		.file 7 "../ChibiOS/os/rt/include/chsystypes.h"
 419              		.file 8 "../ChibiOS/os/rt/include/chschd.h"
 420              		.file 9 "../ChibiOS/os/ext/CMSIS/ST/STM32F3xx/stm32f303xc.h"
 421              		.file 10 "../ChibiOS/os/rt/ports/ARMCMx/chcore.h"
 422              		.file 11 "../ChibiOS/os/rt/ports/ARMCMx/chcore_v7m.h"
 423              		.file 12 "../ChibiOS/os/hal/ports/STM32/LLD/TIMv1/stm32_tim.h"
 424              		.file 13 "../ChibiOS/os/rt/include/chtm.h"
 425              		.file 14 "../ChibiOS/os/rt/include/chsem.h"
 426              		.file 15 "../ChibiOS/os/rt/include/chmtx.h"
 427              		.file 16 "../ChibiOS/os/rt/include/chsys.h"
 428              		.file 17 "../ChibiOS/os/ext/CMSIS/include/core_cm4.h"
 429              		.file 18 "../ChibiOS/os/hal/ports/common/ARMCMx/nvic.h"