ARM GAS  /tmp/ccAE1QPe.s 			page 1


   1              		.syntax unified
   2              		.cpu cortex-m4
   3              		.fpu softvfp
   4              		.eabi_attribute 20, 1
   5              		.eabi_attribute 21, 1
   6              		.eabi_attribute 23, 3
   7              		.eabi_attribute 24, 1
   8              		.eabi_attribute 25, 1
   9              		.eabi_attribute 26, 1
  10              		.eabi_attribute 30, 6
  11              		.eabi_attribute 34, 1
  12              		.eabi_attribute 18, 4
  13              		.thumb
  14              		.file	"stm32_dma.c"
  15              		.text
  16              	.Ltext0:
  17              		.section	.gnu.lto_.inline.416affff27a3016b,"",%progbits
  18 0000 789C6362 		.ascii	"x\234cb`b\300\006\0262Bh~\006\0061-\006\006&\231\015"
  18      6062C006 
  18      16324268 
  18      7E060631 
  18      2D060626 
  19 0016 AF181958 		.ascii	"\257\030\031X \212\031\271\200\004\253 \220`\302'\311"
  19      208A19B9 
  19      8004AB20 
  19      9060C227 
  19      C9
  20 0027 8C4F9205 		.ascii	"\214O\222\005\237$+>I6|\222\354\370$9\360Ir\342\223"
  20      9F242B3E 
  20      49367C92 
  20      ECF82439 
  20      F04972E2 
  21 003c E4C227C9 		.ascii	"\344\302'\311\215O\222\007\237$/\003\0177PR\344\303"
  21      8D4F9207 
  21      9F242F03 
  21      0F375052 
  21      E4C3
  22 004e 6AB8A400 		.ascii	"j\270\244\000\203\231\035P(iA/\033L\210\231\007H\010"
  22      83991D50 
  22      2869412F 
  22      1B4C8899 
  22      074808
  23 0061 32286B03 		.ascii	"2(k\003\305\355\032\2760\303\304\231\270A$\000\013n"
  23      C5ED1ABE 
  23      30C3C499 
  23      B8412400 
  23      0B6E
  24 0073 20B8     		.ascii	" \270"
  25              		.text
  26              		.section	.gnu.lto_Vector6C.416affff27a3016b,"",%progbits
  27 0000 789CD555 		.ascii	"x\234\325UKk\024A\020\256\352\356\331\331\335\354c\242"
  27      4B6B1441 
  27      10AEEAEE 
  27      D9D9DDEC 
  27      63A2
  28 0012 07F11672 		.ascii	"\007\361\026r\021\214\356\220D\321\213\240\230\213\220"
  28      118CEE90 
ARM GAS  /tmp/ccAE1QPe.s 			page 2


  28      44D18BA0 
  28      988B90
  29 0021 E0210944 		.ascii	"\340!\011D/\262\273\301\311@\226\210\033D\360\220\216"
  29      2FB2BBC1 
  29      C9409688 
  29      1B44F090 
  29      8E
  30 0032 59413C05 		.ascii	"YA<\005O>.\361\026\022L\360q\020\274\210'\017\206\340"
  30      4F3E2EF1 
  30      16124CF0 
  30      7110BC88 
  30      270F86E0 
  31 0046 3F583C49 		.ascii	"?X<I\020/\336D\034\253zvf\037\006\262\304\0078\260\325"
  31      102FDE44 
  31      1CAB7A76 
  31      661F06B2 
  31      C40738B0 
  32 005b DD55DFF7 		.ascii	"\335U\337\367UuM\367\254\000\001\235\317I\372\3316\300"
  32      55754DF7 
  32      AC00019D 
  32      CF49FAD9 
  32      36C0
  33 006d 595E2400 		.ascii	"Y^$\000\011\201BH\000-,2J\012\025\317\025\322\200\026"
  33      09814248 
  33      002D2C32 
  33      4A0A15CF 
  33      15D28016 
  34 0081 22411116 		.ascii	"\"A\021\026\204T\026.\\\342\0258\375\360D\353\373\365"
  34      8454162E 
  34      5CE21538 
  34      FDF044EB 
  34      FBF5
  35 0093 3B3B0F0F 		.ascii	";;\017\017\335\253\353e\375#\010\320\347P\031a\212f"
  35      DDABEB65 
  35      FD2308D0 
  35      E7501961 
  35      8A66
  36 00a5 983483C0 		.ascii	"\2304\203\300\366\364!M?_\325\251\025\375=\010\244\217"
  36      F6F4214D 
  36      3F5FD5A9 
  36      15FD3D08 
  36      A48F
  37 00b7 B2C9E90B 		.ascii	"\262\311\351\0139jO\216\352\222\263\261\252e\304\351"
  37      396A4F8E 
  37      EA92B3B1 
  37      AA65C4E9 
  38 00c7 AEB6E5B6 		.ascii	"\256\266\345\266<\326_\254\355w9\335\366\355\177\351"
  38      3CD65FAC 
  38      ED7739DD 
  38      F6ED7FE9 
  39 00d7 41E21F71 		.ascii	"A\342\037q\354n9\272\311I\0128\205\373\242\235\331\213"
  39      EC6E39BA 
  39      C9490A38 
  39      85FBA29D 
  39      D98B
  40 00e9 B629DED4 		.ascii	"\266)\336\324\203\340\375\327O\037\327\361`/\002\275"
  40      83E0FDD7 
ARM GAS  /tmp/ccAE1QPe.s 			page 3


  40      4F1FD7F1 
  40      602F02BD 
  41 00f9 2401457C 		.ascii	"$\001E|\206\375 i!\025\031e\261;A\306\262y\231$\300"
  41      86FD2069 
  41      21151965 
  41      B13B41C6 
  41      B2799924 
  42 010e 260152BC 		.ascii	"&\001R\274H3\252\207\001\031\006d\331\227#\223\310\263"
  42      4833AA87 
  42      01190664 
  42      D9972393 
  42      C8B3
  43 0120 71C0EC18 		.ascii	"q\300\354\030,\250\321\213\3553{\247g\302\330I\276\376"
  43      2CA8D18B 
  43      ED337BA7 
  43      67C2D849 
  43      BEFE
  44 0132 720B6EBF 		.ascii	"r\013n\277z\260s\270\201\010\225\303\002\200\306\027"
  44      7AB073B8 
  44      810895C3 
  44      0280C617 
  45 0142 7C00003C 		.ascii	"|\000\000<\304\251\360\202\003\020\341\213,\342K\212"
  45      C4A9F082 
  45      0310E18B 
  45      2CE24B8A 
  46 0152 78283CFE 		.ascii	"x(<\376>\220\353t\344\221\014\224Z\337\325\312\200\337"
  46      3E90EB74 
  46      E4910C94 
  46      5ADFD5CA 
  46      80DF
  47 0164 5E8E226A 		.ascii	"^\216\"j\000\326t\215\242\251\307\360\210\206t\003\334"
  47      00D6748D 
  47      A2A9C7F0 
  47      88867403 
  47      DC
  48 0175 63644BF1 		.ascii	"cdK\361YlU\263vO\233\360\270\256-X\332\210]6%\360\370"
  48      596C55B3 
  48      764F9BF0 
  48      B8AE2D58 
  48      DA885D36 
  49 018c 4890F775 		.ascii	"H\220\367u\354MR\200%T\036:\")\012\306\221wP\373\214"
  49      EC4D5280 
  49      25541E3A 
  49      22290AC6 
  49      917750FB 
  50 01a1 71C4B85B 		.ascii	"q\304\270[\337\322$_7\331ZW\272c\227\315H\317\356\025"
  50      DFD2245F 
  50      37D95A57 
  50      BA6397CD 
  50      48CFEE15 
  51 01b5 673CDE27 		.ascii	"g<\336'U\3604veMy\031\323\244\013\241\363\327\016\245"
  51      55F03476 
  51      654D7919 
  51      D3A40BA1 
  51      F3D70EA5 
  52 01c9 5B3B14EA 		.ascii	"[;\024\352\022\323\210\307\215\315\015\300Q\0373\307"
  52      12D388C7 
ARM GAS  /tmp/ccAE1QPe.s 			page 4


  52      8DCD0DC0 
  52      511F33C7 
  53 01d9 E1988F59 		.ascii	"\341\230\217Yb.j\355\370\230\273\005\337\250>\232\345"
  53      622E6AED 
  53      F898BB05 
  53      DFA83E9A 
  53      E5
  54 01ea 2B86C84A 		.ascii	"+\206\310J\371\206B\364\327P\212gm-\31016\323\336\002"
  54      F98642F4 
  54      D7508A67 
  54      6D2DC831 
  54      36D3DE02 
  55 01fe 15B620CE 		.ascii	"\025\266 \316\232\377\023Y[\005\035#h\357OP6f\333`\205"
  55      9AFF1359 
  55      5B051D23 
  55      68EF4F50 
  55      3666DB60 
  56 0213 7A1CCEB3 		.ascii	"z\034\316\263q\250\315>:\3216(\"\267aie\315\216Nw\234"
  56      71A8CD3E 
  56      3AD13628 
  56      22B76169 
  56      65CD8E4E 
  57 0229 A0B7DCE8 		.ascii	"\240\267\334\350\260\217\007\000>\300b}\375H|\005 \274"
  57      B08F0700 
  57      3EC0627D 
  57      FD487C05 
  57      20BC
  58 023b 3804E0A4 		.ascii	"8\004\340\244'\012\005\367\374\214_\362/\216\273sUw"
  58      270A05F7 
  58      FC8C5FF2 
  58      2F8EBB73 
  58      5577
  59 024d A638EB5E 		.ascii	"\2468\353^\233\273>_u\307'\306\206\207\334\321\321\021"
  59      9BBB3E5F 
  59      75C727C6 
  59      8687DCD1 
  59      D111
  60 025f 7764ECDC 		.ascii	"wd\354\334\215A\267:_\031\036\2722])\026\312`]\235-"
  60      8D41B73A 
  60      5F191EBA 
  60      325D2916 
  60      CA605D9D 
  61 0274 7A55E94F 		.ascii	"zU\351O\337\374\011o\213wV"
  61      DFFC096F 
  61      8B7756
  62              		.text
  63              		.section	.gnu.lto_Vector70.416affff27a3016b,"",%progbits
  64 0000 789CD555 		.ascii	"x\234\325UKk\024A\020\256\232\356\331\331\367L\364 "
  64      4B6B1441 
  64      10AE9AEE 
  64      D9D9F74C 
  64      F420
  65 0012 DE422E82 		.ascii	"\336B.\202\321\035\222(z\021\024s\021\022<$\001\365"
  65      D11D9228 
  65      7A111473 
  65      11123C24 
  65      01F5
ARM GAS  /tmp/ccAE1QPe.s 			page 5


  66 0024 22BB1B9C 		.ascii	"\"\273\033\234\014d\211\270A\004\017\351\230\025\304"
  66      0C6489B8 
  66      41040FE9 
  66      9815C4
  67 0033 53F0E4E3 		.ascii	"S\360\344\343\022oA0\301\307A\360\"\236\304\030\202"
  67      126F4130 
  67      C1C741F0 
  67      229EC418 
  67      82
  68 0044 FF60F1E4 		.ascii	"\377`\361\344A<\344\"\2108V\365\354\366>\024\262\304"
  68      413CE422 
  68      883856F5 
  68      ECF63E14 
  68      B2C4
  69 0056 0738B0D5 		.ascii	"\0078\260\325\335U\337WU\375M\367\254\005\026t?G\351"
  69      DD55DF57 
  69      55FD4DF7 
  69      AC051674 
  69      3F47E9
  70 0069 E7380027 		.ascii	"\3478\000'y\221\000$\004Z\226\000P\226MF\012K\232\271"
  70      79910024 
  70      045A9600 
  70      50964D46 
  70      0A4B9AB9 
  71 007d 441AD046 		.ascii	"D\032\320F$(\302\202%\244\215\013\347y\005\336\000<"
  71      2428C282 
  71      25A48D0B 
  71      E77905DE 
  71      003C
  72 008f 54EA4EFD 		.ascii	"T\352N\375\346\366\275}\267\353jY}\217\"\0149TF8G3L"
  72      E6F6BD7D 
  72      B7EB6A59 
  72      7D8F220C 
  72      39544638 
  73 00a6 EAC1C2CE 		.ascii	"\352\301\302\316\3621M=]U\251\025\365-\212D\210\242"
  73      F2314D3D 
  73      5D55A915 
  73      F52D8A44 
  73      88A2
  74 00b8 C5E98F39 		.ascii	"\305\351\2179rG\216\354\221\263\266\252D\223\323[o\313"
  74      72478EEC 
  74      91B3B6AA 
  74      4493D35B 
  74      6FCB
  75 00ca 1D75ECBF 		.ascii	"\035u\354\277\330\333\357rz\325\355\177\321 \361\217"
  75      D8DBEF72 
  75      7AD5ED7F 
  75      D120F18F 
  76 00da 384EAF1C 		.ascii	"8N\257\034\325\342$-8\206\273\242\235\330\211\266n\275"
  76      D5E2242D 
  76      3886BBA2 
  76      9DD889B6 
  76      6EBD
  77 00ec AA47D1BB 		.ascii	"\252G\321\273/\037?l\340\336>\004zI\026\024\361\011"
  77      2F1F3F6C 
  77      E0DE3E04 
  77      7A491614 
ARM GAS  /tmp/ccAE1QPe.s 			page 6


  77      F109
  78 00fe 0E80A085 		.ascii	"\016\200\240\205\220d\244\315\356\004\031\333\341e\222"
  78      9064A4CD 
  78      EE0419DB 
  78      E16592
  79 010d 00EB0448 		.ascii	"\000\353\004H\361\"\315\250\014\003\262\014\310\261"
  79      F122CDA8 
  79      0C03B20C 
  79      C8B1
  80 011b 2F4F26E1 		.ascii	"/O&\341\262\361@\357\030l\250\321\213\355\327{\247g"
  80      B2F140EF 
  80      186CA8D1 
  80      8BEDD77B 
  80      A767
  81 012d 52DB29BE 		.ascii	"R\333)\276\376b\023n\274\270\273\275\277\201\2103\307"
  81      FE62136E 
  81      BCB8BBBD 
  81      BF818833 
  81      C7
  82 013e 0D008DCF 		.ascii	"\015\000\215\317\370\000\000\004\210\334=0\217\010\237"
  82      F8000004 
  82      88DC3D30 
  82      8F089F
  83 014d 45119F53 		.ascii	"E\021\237S$@+\340\357\003\271\2167=\202\201B\251[Jj"
  83      24402BE0 
  83      EF03B98E 
  83      373D8281 
  83      42A95B4A 
  84 0162 F0EB0BCD 		.ascii	"\360\353\013\315\210\034\204G\252F\321\324\003\270O"
  84      881C8447 
  84      AA46D1D4 
  84      03B84F
  85 0171 43BA01CE 		.ascii	"C\272\001\316h%J\346,\266g\263uY\331]6\021p_\233\260"
  85      68254AE6 
  85      2CB667B3 
  85      7559D95D 
  85      3611705F 
  86 0187 B4665C0E 		.ascii	"\264f\\\016\025\010\370H\220\367\245\361&)\300)\244"
  86      1508F848 
  86      90F7A5F1 
  86      2629C029 
  86      A4
  87 0198 0B5D9114 		.ascii	"\013]\221\024\005M\344\015\324>\241\211hw\373[\232\342"
  87      054DE40D 
  87      D43EA189 
  87      6877FB5B 
  87      9AE2
  88 01aa EB26DAFB 		.ascii	"\353&\332\373Jw\355\262\025\311\374\272\343l\300\373"
  88      4A77EDB2 
  88      15C9FCBA 
  88      E36CC0FB 
  89 01ba A40E1E1B 		.ascii	"\244\016\036\033WN\267\227\325\"\235\211\235?+\224n"
  89      574EB797 
  89      D5229D89 
  89      9D3F2B94 
  89      6E
  90 01cb 57289688 		.ascii	"W(\226\210\230:\271\0216?\010\007C\314\036\206C!\346"
ARM GAS  /tmp/ccAE1QPe.s 			page 7


  90      983AB911 
  90      363F0807 
  90      43CC1E86 
  90      4321E6
  91 01de 88B9A894 		.ascii	"\210\271\250\224\027b\376:|\245\376h\346V4\2213\271"
  91      1762FE3A 
  91      7CA5FE68 
  91      E6563491 
  91      33B9
  92 01f0 8D0CCDBF 		.ascii	"\215\014\315\277\206\222\231uH\220gl\266S\002\031K`"
  92      86929975 
  92      4890676C 
  92      B6530219 
  92      4B60
  93 0202 AABA7FA2 		.ascii	"\252\272\177\242j{BO'tv\227P4f[`\307\3718\354\262\361"
  93      6A7B424F 
  93      27747697 
  93      5034665B 
  93      60C7F938 
  94 0219 48E610BD 		.ascii	"H\346\020\275\3466(\"\266`i\345\255\323<\335\246@_\271"
  94      E6362822 
  94      B66069E5 
  94      ADD33CDD 
  94      A6405FB9 
  95 022d A170887B 		.ascii	"\241p\210{\000\336\303b}\343\200\271\002\020_\034\002"
  95      00DEC362 
  95      7DE380B9 
  95      02105F1C 
  95      02
  96 023e 70D12385 		.ascii	"p\321#\205\202\177z&,\205g'\374\271\252?S\234\365/\317"
  96      827F7A26 
  96      2C856727 
  96      FCB9AA3F 
  96      539CF52F 
  97 0253 5D99AFFA 		.ascii	"]\231\257\372\023\223\343#\303\376\330\330\250?:~\352"
  97      1393E323 
  97      C3FED8D8 
  97      A83F3A7E 
  97      EA
  98 0264 EA905F9D 		.ascii	"\352\220_\235\257\214\014_\234\256\024\013e\260/\315"
  98      AF8C0C5F 
  98      9CAE140B 
  98      65B02FCD 
  99 0274 1683AA08 		.ascii	"\026\203\252\010\247\257\375\000\203\342w\323"
  99      A7AFFD00 
  99      83E277D3 
 100              		.text
 101              		.section	.gnu.lto_Vector74.416affff27a3016b,"",%progbits
 102 0000 789CD555 		.ascii	"x\234\325UKk\024A\020\256\232\356\331\331\367L\364 "
 102      4B6B1441 
 102      10AE9AEE 
 102      D9D9F74C 
 102      F420
 103 0012 DE422E82 		.ascii	"\336B.\202\321\035L\024\275\010\212\271\010\011\036"
 103      D11D4C14 
 103      BD088AB9 
 103      08091E
ARM GAS  /tmp/ccAE1QPe.s 			page 8


 104 0021 92807A91 		.ascii	"\222\200z\221\335\015N\006\262D\334 \202\207t\314\012"
 104      DD0D4E06 
 104      B244DC20 
 104      828774CC 
 104      0A
 105 0032 E22978F2 		.ascii	"\342)x\362q\211\267 \230\340\343 x\021O\036\014\301"
 105      7189B720 
 105      98E0E320 
 105      78114F1E 
 105      0CC1
 106 0044 7FB07812 		.ascii	"\177\260x\022#\376\200U\034\253zv{\037\012Y\342\003"
 106      23FE8055 
 106      1CAB7A76 
 106      7B1F0A59 
 106      E203
 107 0056 1CD8EAEE 		.ascii	"\034\330\352\356\252\357\253\252\376\246{\326\002\013"
 107      AAEFABAA 
 107      FEA67BD6 
 107      020B
 108 0064 7A9F63F4 		.ascii	"z\237c\364s\034\200S\274H\000\022\002-K\000(\313&#\205"
 108      731C8053 
 108      BC480012 
 108      022D4B00 
 108      28CB2623 
 109 0079 25CD5C22 		.ascii	"%\315\\\"\015h#\022\024a\321\022\322\306\305\013\274"
 109      0D682312 
 109      1461D112 
 109      D2C6C50B 
 109      BC
 110 008a 026F081E 		.ascii	"\002o\010\036)u\267~\253q\177\337\235\272ZQ\337\243"
 110      2975B77E 
 110      AB717FDF 
 110      9DBA5A51 
 110      DFA3
 111 009c 08430E95 		.ascii	"\010C\016\225\021\316\323\014\223z\260\260\273|LS\317"
 111      11CED30C 
 111      937AB0B0 
 111      BB7C4C53 
 111      CF
 112 00ad D6546A55 		.ascii	"\326TjU}\213\"\021\242hs\006c\216\334\221#\373\344\254"
 112      7D8B2211 
 112      A2687306 
 112      638EDC91 
 112      23FBE4AC 
 113 00c1 AF29D1E2 		.ascii	"\257)\321\342\364\327\333JW\035\373/\366\366\273\234"
 113      F4D7DB4A 
 113      571DFB2F 
 113      F6F6BB9C 
 114 00d1 7E75FB5F 		.ascii	"~u\373_4H\374#\216\323/G\2659I\013\216\343\256h'w\242"
 114      3448FC23 
 114      8ED32F47 
 114      B539490B 
 114      8EE3AE68 
 115 00e8 6D58AFEB 		.ascii	"mX\257\353Q\364\356\353\307\017\333\270w\000\201^\222"
 115      51F4EEEB 
 115      C70FDBB8 
 115      7700815E 
ARM GAS  /tmp/ccAE1QPe.s 			page 9


 115      92
 116 00f9 05457C8A 		.ascii	"\005E|\212C h!$\031i\263;A\306vx\231$\300\006\001R\274"
 116      43206821 
 116      241969B3 
 116      3B41C676 
 116      789924C0 
 117 0111 48332AC3 		.ascii	"H3*\303\200,\003r\354\313\223I\270l<\320;\006\033j\364"
 117      802C0372 
 117      ECCB9349 
 117      B86C3CD0 
 117      3B061B6A 
 118 0126 6207F5DE 		.ascii	"b\007\365\336\351\231\322v\232\257\277\330\204\233/"
 118      E999D276 
 118      9AAFBFD8 
 118      849B2F
 119 0135 EF35F637 		.ascii	"\3575\3667\021q\346\270\001\240\3619\037\000\200\000"
 119      1171E6B8 
 119      01A0F139 
 119      1F008000 
 120 0145 91BBD75F 		.ascii	"\221\273\327_\024\"|\021E|A\221\000\255\200\277\017"
 120      14227C11 
 120      457C4191 
 120      00AD80BF 
 120      0F
 121 0156 E43AD1F2 		.ascii	"\344:\321\362\010\006\012\245n+\251\301o.\266\"r\030"
 121      08060AA5 
 121      6E2BA9C1 
 121      6F2EB622 
 121      7218
 122 0168 1EAB1A45 		.ascii	"\036\253\032ES\017\341\001\015\351&8\243\225(\231\263"
 122      530FE101 
 122      0DE92638 
 122      A3952899 
 122      B3
 123 0179 D899CDD6 		.ascii	"\330\231\315\326e\223\275e\023\001\367\265\011\313\353"
 123      6593BD65 
 123      1301F7B5 
 123      09CBEB
 124 0188 C6E55081 		.ascii	"\306\345P\201\200\217\004y_\031o\222\002\234B\272\320"
 124      808F0479 
 124      5F196F92 
 124      029C42BA 
 124      D0
 125 0199 134951D0 		.ascii	"\023IQ\320D\336B\3553\232\210vw\276\245i\276n\242\263"
 125      44DE42ED 
 125      339A8876 
 125      77BEA569 
 125      BE6EA2B3 
 126 01ad AF74CF2E 		.ascii	"\257t\317.\333\221\314\257;\316\006\274O\352\340\211"
 126      DB91CCAF 
 126      3BCE06BC 
 126      4FEAE089 
 127 01bd 71E5747B 		.ascii	"q\345t{Y-\322\331\330\371\263B\351N\205b\211\210\251"
 127      592DD2D9 
 127      D8F9B342 
 127      E94E8562 
 127      8988A9
ARM GAS  /tmp/ccAE1QPe.s 			page 10


 128 01d0 931B61F3 		.ascii	"\223\033a\363\303p0\304\354a8\024b\216\230KJy!\346o"
 128      C37030C4 
 128      EC613814 
 128      628E984B 
 128      4A7921E6 
 129 01e5 4083FAA3 		.ascii	"@\203\372\243\231[\321D\316\34463\264\376\032Jf\326"
 129      995BD144 
 129      CEE43633 
 129      B4FE1A4A 
 129      66D6
 130 01f7 25419EB1 		.ascii	"%A\236\261\331n\011d,\201\251\352\376\211\252\235\011"
 130      D96E0964 
 130      2C81A9EA 
 130      FE89AA9D 
 130      09
 131 0208 3D9DD0D9 		.ascii	"=\235\320\331]B\321\234m\201\035\347\343\260\313\306"
 131      5D42D19C 
 131      6D811DE7 
 131      E3B0CBC6 
 132 0218 239943F4 		.ascii	"#\231C\364Z\333\240\210\330\202\345\325ON\353t\233\002"
 132      5ADBA088 
 132      D882E5D5 
 132      4F4EEB74 
 132      9B02
 133 022a 03E5A6C2 		.ascii	"\003\345\246\302!\356\001x\017K\365\355\003\346\012"
 133      21EE0178 
 133      0F4BF5ED 
 133      03E60A
 134 0239 407C7108 		.ascii	"@|q\010\300E\217\026\012\376\231\331\260\024\236\233"
 134      C0458F16 
 134      0AFE99D9 
 134      B0149E9B 
 135 0249 F4E7ABFE 		.ascii	"\364\347\253\376lq\316\2772\177u\241\352ONM\214\216"
 135      6C71CEBF 
 135      327F75A1 
 135      EA4F4E4D 
 135      8C8E
 136 025b F8E3E363 		.ascii	"\370\343\343c\376\330\304\351kG\374\352Bet\344\322L"
 136      FED8C4E9 
 136      6B47FCEA 
 136      426574E4 
 136      D24C
 137 026d A5582883 		.ascii	"\245X(\203}y\256\030TE8s\375\007\2309xP"
 137      7D79AE18 
 137      54453873 
 137      FD079839 
 137      7850
 138              		.text
 139              		.section	.gnu.lto_Vector78.416affff27a3016b,"",%progbits
 140 0000 789CD555 		.ascii	"x\234\325U\315k\023A\024\177og6\233\217M\262\025A\360"
 140      CD6B1341 
 140      147F6F67 
 140      369B8F4D 
 140      B21541F0 
 141 0014 547AD36A 		.ascii	"Tz\323j\026[E/\202b/B\213\207\266\240^$Iq\273\320P1"
 141      165B452F 
 141      82622F42 
ARM GAS  /tmp/ccAE1QPe.s 			page 11


 141      8B87B6A0 
 141      5E244971 
 142 002c 45040F9D 		.ascii	"E\004\017\235\332\010\322^\212'\251\227\332S\021l\361"
 142      DA08D25E 
 142      8A27A997 
 142      DA53116C 
 142      F1
 143 003d E3207811 		.ascii	"\343 x\021O\036,\305\377 x\362 \376\001\"\256\357\315"
 143      4F1E2CC5 
 143      FF2078F2 
 143      20FE0122 
 143      AEEFCD
 144 0050 66A74914 		.ascii	"f\247I\024\032\352\007\270\22073\357\375~\357\275\371"
 144      1AEA07B8 
 144      903733EF 
 144      FD7EEFBD 
 144      F9
 145 0061 EDCCC602 		.ascii	"\355\314\306\002\013\272\237S\364s\034\200s\274H\001"
 145      0BBA9F53 
 145      F4731C80 
 145      73BC4801 
 146 0071 12022D4B 		.ascii	"\022\002-K\000(\313&#\205%\315\\\"\015h#\022\024a\336"
 146      0028CB26 
 146      238525CD 
 146      5C220D68 
 146      23121461 
 147 0086 12D2C6F9 		.ascii	"\022\322\306\371+\274\002o\000\036+\365\240yo}\365\320"
 147      2BBC026F 
 147      001E2BF5 
 147      A0796F7D 
 147      F5D0
 148 0098 5253ADA8 		.ascii	"RS\255\250\357Q\204!\207\252\010\227i\206i=X\330Y>\246"
 148      EF518421 
 148      87AA0897 
 148      6986693D 
 148      58D8593E 
 149 00ad A9E71B2A 		.ascii	"\251\347\033*\263\246\276E\221\010Q\354r\372c\216\334"
 149      B3A6BE45 
 149      910851EC 
 149      72FA638E 
 149      DC
 150 00be 93237BE4 		.ascii	"\223#{\344ln(\221pz\353m\245\243\216\375\027{\373]N"
 150      6C6E2891 
 150      707AEB6D 
 150      A5A38EFD 
 150      177BFB5D 
 151 00d3 AFBAFD2F 		.ascii	"\257\272\375/\032\244\376\021\307\351\225\243v9i\013"
 151      1AA4FE11 
 151      C7E995A3 
 151      7639690B 
 152 00e3 4EE3BE68 		.ascii	"N\343\276hg\367\242mYo\232Q\364>\372\364q\031\017\366"
 152      67F7A26D 
 152      596F9A51 
 152      F43EFAF4 
 152      71190FF6 
 153 00f7 21D04BB2 		.ascii	"!\320K\262\240\214\317p\000\004-\204$#mv\247\310\330"
 153      A08CCF70 
ARM GAS  /tmp/ccAE1QPe.s 			page 12


 153      00042D84 
 153      24236D76 
 153      A7C8D8
 154 010a 0E2FD304 		.ascii	"\016/\323\004\330\"@\206\027YF\345\030\3402 \317\276"
 154      D8224086 
 154      175946E5 
 154      18E03220 
 154      CFBE
 155 011c 02995491 		.ascii	"\002\231T\221\215\007z\307`C\203^l\277\336;=\023\332"
 155      8D077AC7 
 155      6043835E 
 155      6CBFDE3B 
 155      3D13DA
 156 012f 4EF2F517 		.ascii	"N\362\365\027\333p\367\325\303\365\303-D\2349n\000h"
 156      DB70F7D5 
 156      C3F5C32D 
 156      449C396E 
 156      0068
 157 0141 7CC10700 		.ascii	"|\301\007\000 @\344\356\251'\000\"|\021e|I\221\000\255"
 157      2040E4EE 
 157      A9270022 
 157      7C11657C 
 157      499100AD 
 158 0155 80BF0FE4 		.ascii	"\200\277\017\344:\223x\004\003\205R\367\225\324\340"
 158      3A937804 
 158      038552F7 
 158      95D4E0
 159 0164 B7579388 		.ascii	"\267W\223\210\034\204'\252A\321\314#X\245!\333\002\347"
 159      1C8427AA 
 159      41D1CC23 
 159      58A521DB 
 159      02E7
 160 0176 B4121573 		.ascii	"\264\022\025s\026\333\263\331\272\254\333]6\025p_\333"
 160      16DBB3D9 
 160      BAACDB5D 
 160      3615705F 
 160      DB
 161 0187 B0B8695C 		.ascii	"\260\270i\\\016\025\010\370H\220\367\265\361\246)\300"
 161      0E1508F8 
 161      4890F7B5 
 161      F1A629C0 
 162 0197 296411BA 		.ascii	")d\021\272\"\031\012\232\310;h|F\023\321\356\366\267"
 162      22190A9A 
 162      C83B687C 
 162      4613D1EE 
 162      F6B7
 163 01a9 34C9D74D 		.ascii	"4\311\327M\264\367\225\355\332\345n$\367\353\216\335"
 163      B4F795ED 
 163      DAE56E24 
 163      F7EB8EDD 
 164 01b9 80F7491D 		.ascii	"\200\367I\035<5\256\274n\317\325\"]\214\235?+\224mW"
 164      3C35AEBC 
 164      6ECFD522 
 164      5D8C9D3F 
 164      2B946D57 
 165 01cd 28968898 		.ascii	"(\226\210\230:\271\021\2660\010GCt\217\303\261\020\363"
 165      3AB911B6 
ARM GAS  /tmp/ccAE1QPe.s 			page 13


 165      30084743 
 165      748FC3B1 
 165      10F3
 166 01df C45C50CA 		.ascii	"\304\\P\312\013\261p\007\276R\1774+\3264\2213\025[\031"
 166      0BB17007 
 166      BE527F34 
 166      2BD63491 
 166      33155B19 
 167 01f3 92BF868A 		.ascii	"\222\277\206\212\231uHP`\254\333)\201\214%0U\213\177"
 167      99754850 
 167      60ACDB29 
 167      818C2530 
 167      558B7F
 168 0206 A26A7B42 		.ascii	"\242j{BO't\366\227P\264f;`\307\3718\\d\343\221\314!"
 168      4F2774F6 
 168      9750B466 
 168      3B60C7F9 
 168      385C64E3 
 169 021d 7AC93628 		.ascii	"z\3116(\"v`qm)\223\234nS\240\257\332R8\304\003\000\037"
 169      22766071 
 169      6D29939C 
 169      6E53A0AF 
 169      DA5238C4 
 170 0234 60A1B97C 		.ascii	"`\241\271|\304\\\001\210/\016\001\270\350\311R\311\277"
 170      C45C0188 
 170      2F0E01B8 
 170      E8C952C9 
 170      BF
 171 0245 301D56C2 		.ascii	"0\035V\302K\343\376l\335\237.\317\3707fo\316\325\375"
 171      4BE3FE6C 
 171      DD9F2ECF 
 171      F837666F 
 171      CED5FD
 172 0258 F189B1E1 		.ascii	"\361\211\261\341!\177tt\304\037\031;\177\353\204_\237"
 172      217F7474 
 172      C41F193B 
 172      7FEB845F 
 172      9F
 173 0269 AB0D0F5D 		.ascii	"\253\015\017]\233\252\225KU\260\257\317\224\203\272"
 173      9BAA954B 
 173      55B0AFCF 
 173      9483BA
 174 0278 08A76EFF 		.ascii	"\010\247n\377\000\\mv\224"
 174      005C6D76 
 174      94
 175              		.text
 176              		.section	.gnu.lto_Vector7C.416affff27a3016b,"",%progbits
 177 0000 789CD555 		.ascii	"x\234\325UKk\024A\020\256\352\236\331\331\367LD\020"
 177      4B6B1441 
 177      10AEEA9E 
 177      D9D9F74C 
 177      4410
 178 0012 3C85DC34 		.ascii	"<\205\3344\272\203\211\242\027A1\027!\301C\022P/\262"
 178      BA8389A2 
 178      17413117 
 178      21C14312 
 178      502FB2
ARM GAS  /tmp/ccAE1QPe.s 			page 14


 179 0025 BBC1C940 		.ascii	"\273\301\311@\226\210\033D\360\220\216YA<\005\275H\274"
 179      96881B44 
 179      F0908E59 
 179      413C05BD 
 179      48BC
 180 0037 C45BD860 		.ascii	"\304[\330`\202\217\203\340E<y0\004\377\301\342M\020"
 180      828F83E0 
 180      453C7930 
 180      04FFC1E2 
 180      4D10
 181 0049 7F808863 		.ascii	"\177\200\210cU\317n\357\303@\226\370\000\007\266\272"
 181      55CF6EEF 
 181      C34096F8 
 181      0007B6BA 
 182 0059 BBEAFBAA 		.ascii	"\273\352\373\252\252\277\351\236\025 \240\3679E?\307"
 182      AABFE99E 
 182      1520A0F7 
 182      39453FC7 
 183 0069 0138C78B 		.ascii	"\0018\307\213\004 !P\010\011\240\204M\306\222\3022s"
 183      04202150 
 183      0809A084 
 183      4DC692C2 
 183      3273
 184 007b 0B69401B 		.ascii	"\013i@\033\221\240\010\213BZ6.^\341\025xC\360T\251\207"
 184      91A0088B 
 184      425A362E 
 184      5EE11578 
 184      43F054A9 
 185 0090 8D7BF5D5 		.ascii	"\215{\365\325C\017\032jE\375\210\"\0149TF\270L3L\352"
 185      430F1A6A 
 185      45FD8822 
 185      0C395446 
 185      B84C334C 
 186 00a5 416077F9 		.ascii	"A`w\371\230\246^\254\253\324\232\372\036E2D\331\346"
 186      98A65EAC 
 186      ABD49AFA 
 186      1E453244 
 186      D9E6
 187 00b7 0CC61C6B 		.ascii	"\014\306\034kO\216\325'gs]\311\026\247\277\336V\272"
 187      4F8ED527 
 187      67735DC9 
 187      16A7BFDE 
 187      56BA
 188 00c9 EAD87FB1 		.ascii	"\352\330\177\261\267\337\345\364\253\333\377\242A\342"
 188      B7DFE5F4 
 188      ABDBFFA2 
 188      41E2
 189 00d7 1F719C7E 		.ascii	"\037q\234~9\252\315I\0128\215\373\242\235\335\213\266"
 189      39AACD49 
 189      0A388DFB 
 189      A29DDD8B 
 189      B6
 190 00e8 25DE36A2 		.ascii	"%\3366\242\350\303\243\317\2376\360\340\000\002\275"
 190      E8C3A3CF 
 190      9F36F0E0 
 190      0002BD
 191 00f7 2401457C 		.ascii	"$\001E|\216C i!-2\226\315\356\004\031\333\341e\222\000"
ARM GAS  /tmp/ccAE1QPe.s 			page 15


 191      8E432069 
 191      212D3296 
 191      CDEE0419 
 191      DBE16592 
 192 010c 5B0448F1 		.ascii	"[\004H\361\"\315\250\014\003\262\014\310\261/O&\341"
 192      22CDA80C 
 192      03B20CC8 
 192      B12F4F26 
 192      E1
 193 011d B2F140EF 		.ascii	"\262\361@\357\030l\250\321\213\035\324{\247gJ\333i\276"
 193      186CA8D1 
 193      8B1DD47B 
 193      A7674ADB 
 193      69BE
 194 012f FE721BEE 		.ascii	"\376r\033\356\276~\\?\334D\304\231\343\006\200\306\227"
 194      BE7E5C3F 
 194      DC44C499 
 194      E30680C6 
 194      97
 195 0140 7C000002 		.ascii	"|\000\000\002D\356\036\270{\"|\225E|E\221\000E\300\337"
 195      44EE1EB8 
 195      7B227C95 
 195      457C4591 
 195      0045C0DF 
 196 0154 07729D69 		.ascii	"\007r\235iy$\003\245R\367U\014~w\265\025\261\206\241"
 196      792403A5 
 196      52F7550C 
 196      7E77B515 
 196      B186A1
 197 0167 AE6A144D 		.ascii	"\256j\024M=\201U\032\322MpF+Q2g\2613\233\255\313z\275"
 197      3D81551A 
 197      D24D7046 
 197      2B513267 
 197      B1339BAD 
 198 017e 651301F7 		.ascii	"e\023\001\367\265\015\313\233\306\345P\201\200\217\004"
 198      B50DCB9B 
 198      C6E55081 
 198      808F04
 199 018d 79DF186F 		.ascii	"y\337\030o\222\002\234\302r\241'\222\242\240\211\274"
 199      92029CC2 
 199      72A12792 
 199      A2A089BC 
 200 019d 87DA1734 		.ascii	"\207\332\0274\021\355\356|K\323|\335dg_\351\236]\266"
 200      11EDEE7C 
 200      4BD37CDD 
 200      64675FE9 
 200      9E5DB6
 201 01b0 2399DD3B 		.ascii	"#\231\335;\316\006\274O\352\340\231q\345t{Y-\322\305"
 201      CE06BC4F 
 201      EAE09971 
 201      E5747B59 
 201      2DD2C5
 202 01c3 D8F9AB42 		.ascii	"\330\371\253B\351N\205b\211\210\251\223\033a\363\303"
 202      E94E8562 
 202      8988A993 
 202      1B61F3C3 
 203 01d3 7034C4EC 		.ascii	"p4\304\354q8\026b\216\230KJy!\346\357\3007\352\217f"
ARM GAS  /tmp/ccAE1QPe.s 			page 16


 203      71381662 
 203      8E984B4A 
 203      7921E6EF 
 203      C037EA8F 
 204 01e8 6E451339 		.ascii	"nE\0239\223\333\314\320\372k(\231Y\227\004y\306f\273"
 204      93DBCCD0 
 204      FA6B2899 
 204      59970479 
 204      C666BB
 205 01fb 25B06209 		.ascii	"%\260b\011LU\367OT\355L\350\351\204\316\376\022\312"
 205      4C55F74F 
 205      54ED4CE8 
 205      E984CEFE 
 205      12CA
 206 020d E66C07EC 		.ascii	"\346l\007\3548\037\207]6\036\311\034\242\327\332\006"
 206      381F875D 
 206      361EC91C 
 206      A2D7DA06 
 207 021d 45E40E2C 		.ascii	"E\344\016,\257\325S\255\323m\012\014\224\233\012\207"
 207      AFD553AD 
 207      D36D0A0C 
 207      949B0A87 
 208 022d 7800E023 		.ascii	"x\000\340#,56\216\230+\000\361\305!\000\027=Y(\370\027"
 208      2C35368E 
 208      982B00F1 
 208      C5210017 
 208      3D5928F8 
 209 0242 66C35278 		.ascii	"f\303Rxi\322\237\257\372\263\3059\377\306\374\315\205"
 209      69D29FAF 
 209      FAB3C539 
 209      FFC6FCCD 
 209      85
 210 0253 AA3F3935 		.ascii	"\252?951:\342\217\217\217\371c\023\347o\235\360\253"
 210      313AE28F 
 210      8F8FF963 
 210      13E76F9D 
 210      F0AB
 211 0265 0B95D191 		.ascii	"\013\225\321\221k3\225b\241\014\366\365\271bP\225\341"
 211      6B339562 
 211      A10CF6F5 
 211      B9625095 
 211      E1
 212 0276 CCED9FBB 		.ascii	"\314\355\237\273\225v\242"
 212      9576A2
 213              		.text
 214              		.section	.gnu.lto_Vector80.416affff27a3016b,"",%progbits
 215 0000 789CD555 		.ascii	"x\234\325U\317k\023A\024~og6\233\337\233JA\360Tz\323"
 215      CF6B1341 
 215      147E6F67 
 215      369BDF9B 
 215      4A41F054 
 216 0016 6A165B45 		.ascii	"j\026[E/\202b/B\213\207\266\240^$Iq\273\320P1E\004\017"
 216      2F82622F 
 216      428B87B6 
 216      A05E2449 
 216      71BBD050 
 217 002e 9DDA08E2 		.ascii	"\235\332\010\342\251xQ\352\245\336\212`\213\321\203"
ARM GAS  /tmp/ccAE1QPe.s 			page 17


 217      A97851EA 
 217      A5DE8A60 
 217      8BD183
 218 003d E0453C89 		.ascii	"\340E<\211\265\024\377\203\340M\020\377\000\021\327"
 218      B514FF83 
 218      E04D10FF 
 218      0011D7
 219 004c F766B3D3 		.ascii	"\367f\263\323$\025\032\352\017p!of\336\373\276\367\336"
 219      24151AEA 
 219      0F70216F 
 219      66DEFBBE 
 219      F7DE
 220 005e 7C3BB3B1 		.ascii	"|;\263\261\300\202\356\347$\375\034\007\340,/\022\200"
 220      C082EEE7 
 220      24FD1C07 
 220      E02C2F12 
 220      80
 221 006f 8440CB12 		.ascii	"\204@\313\022\000\312\262\311HaI3\227H\003\332\210\004"
 221      00CAB2C9 
 221      48614933 
 221      974803DA 
 221      8804
 222 0081 4558B084 		.ascii	"EX\260\204\264q\3412\257\2400\010O\224z\320\274\333"
 222      B471E132 
 222      AFA03008 
 222      4F947AD0 
 222      BCDB
 223 0093 583978BF 		.ascii	"X9x\277\251\226\325\2170\304\200C\025\204K4\303\244"
 223      A996D58F 
 223      30C48043 
 223      15844B34 
 223      C3A4
 224 00a5 1E2CEC2C 		.ascii	"\036,\354,\037\321TcM\245V\325\3670\024\001\212\035"
 224      1FD15463 
 224      4DA556D5 
 224      F7301401 
 224      8A1D
 225 00b7 CE40C491 		.ascii	"\316@\304\221{rd\217\234\3655%bNo\275-w\324\261\377"
 225      7B72648F 
 225      9CF53525 
 225      624E6FBD 
 225      2D77D4B1 
 226 00cc 626FBFCB 		.ascii	"bo\277\313\351U\267\377E\203\304?\3428\275r\324\016"
 226      E955B7FF 
 226      4583C43F 
 226      E238BD72 
 226      D40E
 227 00de 2769C129 		.ascii	"'i\301)\334\027\355\314^\264\015\353M3\014?<\374\374"
 227      DC17EDCC 
 227      5EB40DEB 
 227      4D330C3F 
 227      3CFCFC
 228 00f1 6913FBFB 		.ascii	"i\023\373\373\020\350%YP\302\3478\010\202\026B\222\221"
 228      10E82559 
 228      50C2E738 
 228      08821642 
 228      9291
ARM GAS  /tmp/ccAE1QPe.s 			page 18


 229 0103 36BB1364 		.ascii	"6\273\023dl\207\227I\002l\020 \305\2134\2432\014\310"
 229      6C879749 
 229      026C1020 
 229      C58B34A3 
 229      320CC8
 230 0116 3220C7BE 		.ascii	"2 \307\276<\231\204\313\246\000z\307`C\235^\354\200"
 230      3C9984CB 
 230      A6007AC7 
 230      60439D5E 
 230      EC80
 231 0128 DE3B3D93 		.ascii	"\336;=\223\332N\361\365\027[p\347\325\243\306\241\026"
 231      DA4EF1F5 
 231      175B70E7 
 231      D5A3C6A1 
 231      16
 232 0139 22CA1C35 		.ascii	"\"\312\0345\0004\276\340\003\000\340#r\367\300\013\""
 232      0034BEE0 
 232      0300E023 
 232      72F7C00B 
 232      22
 233 014a 7C15257C 		.ascii	"|\025%|I\021\037-\237\277\017\344:\035{\004\003\205"
 233      49111F2D 
 233      9FBF0FE4 
 233      3A1D7B04 
 233      0385
 234 015c 52F794D4 		.ascii	"R\367\224\324\340\267W\342\210\034\202\247\252N\321"
 234      E0B757E2 
 234      881C82A7 
 234      AA4ED1
 235 016b D46358A1 		.ascii	"\324cX\241!\335\002g\264\022es\026\333\263\331\272l"
 235      21DD0267 
 235      B4126573 
 235      16DBB3D9 
 235      BA6C
 236 017d 7F77D984 		.ascii	"\177w\331\204\317}m\301\322\272q9T\300\347#A\336\327"
 236      CF7D6DC1 
 236      D2BA7139 
 236      54C0E723 
 236      41DED7
 237 0190 C69BA400 		.ascii	"\306\233\244\000\247\220.tER\0244\221wP\377\202&\242"
 237      A7902E74 
 237      45521434 
 237      917750FF 
 237      8226A2
 238 01a3 DDED6F69 		.ascii	"\335\355oi\212\257\233h\357+\335\265\313\235H\346\327"
 238      8AAF9B68 
 238      EF2BDDB5 
 238      CB9D48E6 
 238      D7
 239 01b4 1D677DDE 		.ascii	"\035g}\336'u\360\314\270r\272\275\254\026\351B\344\334"
 239      2775F0CC 
 239      B872BABD 
 239      AC16E942 
 239      E4DC
 240 01c6 AD50BA5D 		.ascii	"\255P\272]\241H\"b\352\344F\330\374\020\034\0110{\014"
 240      A1482262 
 240      EAE446D8 
ARM GAS  /tmp/ccAE1QPe.s 			page 19


 240      FC101C09 
 240      307B0C
 241 01d9 8E069823 		.ascii	"\216\006\230#\346\242R\205\000\363\267\341\033\365G"
 241      E6A25285 
 241      00F3B7E1 
 241      1BF547
 242 01e8 33B7AA89 		.ascii	"3\267\252\211\234\311me\210\377\032\312f\326!A\236\261"
 242      9CC96D65 
 242      88FF1ACA 
 242      66D62141 
 242      9EB1
 243 01fa D94E0964 		.ascii	"\331N\011d$\201\251\352\376\211\252\355\011\013:\241"
 243      2481A9EA 
 243      FE89AAED 
 243      090B3AA1 
 244 020a B3BF84A2 		.ascii	"\263\277\204\2425\333\006;\312\307a\227M\201d\016\260"
 244      35DB063B 
 244      CAC76197 
 244      4D81640E 
 244      B0
 245 021b 106F8322 		.ascii	"\020o\203\"b\033\226V\337\247\342\323m\012\364UZ\012"
 245      621B9656 
 245      DFA7E2D3 
 245      6D0AF455 
 245      5A0A
 246 022d 077800E0 		.ascii	"\007x\000\340#,67\017\233+\000\321\305!\000\027=Q,z"
 246      232C3637 
 246      0F9B2B00 
 246      D1C52100 
 246      173D512C 
 247 0242 E7678272 		.ascii	"\347g\202rpq\302\233\253y3\245Y\357\372\334\215\371"
 247      7071C29B 
 247      AB7933A5 
 247      59EFFADC 
 247      8DF9
 248 0254 9A373139 		.ascii	"\232719>2\354\215\215\215z\243\343\347n\036\367j\363"
 248      3E32EC8D 
 248      8D8D7AA3 
 248      E3E76E1E 
 248      F76AF3
 249 0267 D591E1AB 		.ascii	"\325\221\341\253\323\325R\261\002\366\265\331\222_\023"
 249      D3D552B1 
 249      02F6B5D9 
 249      925F13
 250 0276 C1F4AD9F 		.ascii	"\301\364\255\237\317\354w\037"
 250      CFEC771F 
 251              		.text
 252              		.section	.gnu.lto_Vector84.416affff27a3016b,"",%progbits
 253 0000 789CD555 		.ascii	"x\234\325UKk\024A\020\256\352\236\331\331\367LDP<\205"
 253      4B6B1441 
 253      10AEEA9E 
 253      D9D9F74C 
 253      44503C85 
 254 0014 DC34BA83 		.ascii	"\3344\272\203\211\242\027A1\027!\301C\022P/\262\273"
 254      89A21741 
 254      311721C1 
 254      4312502F 
ARM GAS  /tmp/ccAE1QPe.s 			page 20


 254      B2BB
 255 0026 C1C94096 		.ascii	"\301\311@\226\210\033D\360\220\216YA<\005O\222\\\342"
 255      881B44F0 
 255      908E5941 
 255      3C054F92 
 255      5CE2
 256 0038 2D0826F8 		.ascii	"-\010&\3708H\274\210'\017\206\340?X\274i\304\037 \342"
 256      3848BC88 
 256      270F86E0 
 256      3F58BC69 
 256      C41F20E2 
 257 004c 58D5B3DB 		.ascii	"X\325\263\333\373P\310\022\037\340\300VwW}_U\3657\335"
 257      FB50C812 
 257      1FE0C056 
 257      77577D5F 
 257      55F537DD 
 258 0060 B3020474 		.ascii	"\263\002\004t?'\351\3478\000gy\221\000$\004\012!\001"
 258      3F27E9E7 
 258      38006779 
 258      91002404 
 258      0A2101
 259 0073 94B0C958 		.ascii	"\224\260\311XRXfn!\015h#\022\024a^H\313\306\371\313"
 259      5258666E 
 259      210D6823 
 259      1214615E 
 259      48CBC6F9 
 260 0088 BC026F00 		.ascii	"\274\002o\000\036)\365\240~ws\371\300\375\272ZR\337"
 260      1E29F5A0 
 260      7E7773F9 
 260      C0FDBA5A 
 260      52DF
 261 009a A308430E 		.ascii	"\243\010C\016\225\021.\321\014\223z\020\330Y>\246\251"
 261      95112ED1 
 261      0C937A10 
 261      D8593EA6 
 261      A9
 262 00ab 676B2AB5 		.ascii	"gk*\265\252\276E\221\014Q\2668\3751\307\332\225c\365"
 262      AABE4591 
 262      0C51B638 
 262      FD31C7DA 
 262      9563F5
 263 00be C8595F53 		.ascii	"\310Y_S\262\311\351\255\267\245\216:\366_\354\355w9"
 263      B2C9E9AD 
 263      B7A58E3A 
 263      F65FECED 
 263      7739
 264 00d0 BDEAF6BF 		.ascii	"\275\352\366\277h\220\370G\034\247W\216jq\222\002N\341"
 264      6890F847 
 264      1CA7578E 
 264      6A719202 
 264      4EE1
 265 00e2 9E686776 		.ascii	"\236hgv\243m\210\327\365(z\267\362\361\303\016\356\357"
 265      A36D88D7 
 265      F5287AB7 
 265      F2F1C30E 
 265      EEEF
 266 00f4 43A09724 		.ascii	"C\240\227$\240\210Oq\000$-\244E\306\262\331\235 c;\274"
ARM GAS  /tmp/ccAE1QPe.s 			page 21


 266      A0884F71 
 266      00242DA4 
 266      45C6B2D9 
 266      9D20633B 
 267 0109 4C126083 		.ascii	"L\022`\203\000)^\244\031\225a@\226\0019\366\345\311"
 267      00295EA4 
 267      19956140 
 267      960139F6 
 267      E5C9
 268 011b 245C361E 		.ascii	"$\\6\036\350\035\203\0155z\261\375z\357\364Lh;\311\327"
 268      E81D830D 
 268      357AB1FD 
 268      7AEFF44C 
 268      683BC9D7 
 269 012f 5F6EC19D 		.ascii	"_n\301\235\227\0177\0175\020q\346\270\001\240\3619\037"
 269      970F370F 
 269      351071E6 
 269      B801A0F1 
 269      391F
 270 0141 00800091 		.ascii	"\000\200\000\221\273\247&\000\210\360E\026\361\005E"
 270      BBA72600 
 270      88F04516 
 270      F10545
 271 0150 0214017F 		.ascii	"\002\024\001\177\037\310u\272\351\221\014\224J\335S"
 271      1FC875BA 
 271      E9910C94 
 271      4ADD53
 272 015f 9606BFB9 		.ascii	"\226\006\277\271\322\214X\203\360X\325(\232Z\201e\032"
 272      D28C5883 
 272      F058D528 
 272      9A5A8165 
 272      1A
 273 0170 D20D7046 		.ascii	"\322\015pF+Q2g\261=\233\255\313\036\354.\233\010\270"
 273      2B513267 
 273      B13D9BAD 
 273      CB1EEC2E 
 273      9B08B8
 274 0183 AF2D585C 		.ascii	"\257-X\\7.\207\012\004|$\310\373\312x\223\024\340\024"
 274      372E870A 
 274      047C24C8 
 274      FBCA7893 
 274      14E014
 275 0196 960B5D91 		.ascii	"\226\013]\221\024\005M\344-\324>\243\211hw\373[\232"
 275      14054DE4 
 275      2DD43EA3 
 275      896877FB 
 275      5B9A
 276 01a8 E4EB26DB 		.ascii	"\344\353&\333\373Jw\355\262\025\311\374\272\343l\300"
 276      FB4A77ED 
 276      B215C9FC 
 276      BAE36CC0 
 277 01b8 FBA40E9E 		.ascii	"\373\244\016\236\030WN\267\227\325\"]\210\235?+\224"
 277      18574EB7 
 277      97D5225D 
 277      889D3F2B 
 277      94
 278 01c9 6E572896 		.ascii	"nW(\226\210\230:\271\0216?\010GB\314\036\203\243!\346"
ARM GAS  /tmp/ccAE1QPe.s 			page 22


 278      88983AB9 
 278      11363F08 
 278      4742CC1E 
 278      83A321E6 
 279 01dd 88B9A094 		.ascii	"\210\271\240\224\027b\3766|\245\376h\346V4\2213\271"
 279      1762FE36 
 279      7CA5FE68 
 279      E6563491 
 279      33B9
 280 01ef 8D0CCDBF 		.ascii	"\215\014\315\277\206\222\231uH\220gl\266S\002+\226\300"
 280      86929975 
 280      4890676C 
 280      B653022B 
 280      96C0
 281 0201 5475FF44 		.ascii	"Tu\377D\325\366\204\236N\350\354-\241l\314\266\301\216"
 281      D5F6849E 
 281      4EE8EC2D 
 281      A16CCCB6 
 281      C18E
 282 0213 F371D865 		.ascii	"\363q\330e\343\221\314!z\315mPDn\303\342\352\247T\363"
 282      E391CC21 
 282      7ACD6D50 
 282      446EC3E2 
 282      EAA754F3 
 283 0227 749B027D 		.ascii	"t\233\002}\345\206\302!\356\003x\017\013\365\235\303"
 283      E586C221 
 283      EE03780F 
 283      0BF59DC3 
 284 0237 E60A407C 		.ascii	"\346\012@|q\010\300EO\024\012\376\371\351\260\024^\034"
 284      7108C045 
 284      4F140AFE 
 284      F9E9B014 
 284      5E1C
 285 0249 F767ABFE 		.ascii	"\367g\253\376tq\306\277>{c\256\352\217O\214\015\017"
 285      7471C6BF 
 285      3E7B63AE 
 285      EA8F4F8C 
 285      0D0F
 286 025b F9A3A323 		.ascii	"\371\243\243#\376\310\330\271\233\307\375\352\\ex\350"
 286      FEC8D8B9 
 286      9BC7FDEA 
 286      5C6578E8 
 287 026b EA54A558 		.ascii	"\352T\245X(\203}m\246\030Te8u\353\007\344Cw\234"
 287      28837D6D 
 287      A6185465 
 287      3875EB07 
 287      E443779C 
 288              		.text
 289              		.section	.gnu.lto_Vector120.416affff27a3016b,"",%progbits
 290 0000 789CD555 		.ascii	"x\234\325UKk\024A\020\256\232\356\331\331\367L\004\021"
 290      4B6B1441 
 290      10AE9AEE 
 290      D9D9F74C 
 290      0411
 291 0012 3C851C5D 		.ascii	"<\205\034]\335\301D\321\213\240\230\213\220\340!\011"
 291      DDC144D1 
 291      8BA0988B 
ARM GAS  /tmp/ccAE1QPe.s 			page 23


 291      90E02109 
 292 0022 442FB2BB 		.ascii	"D/\262\273\301\311@B\304\015\"xH\307\254\260$\227\340"
 292      C1C94042 
 292      C40D2278 
 292      48C7ACB0 
 292      2497E0
 293 0035 49E2C178 		.ascii	"I\342\301x\013\202\011>\016\202\027\361\344\301\020"
 293      0B82093E 
 293      0E8217F1 
 293      E4C110
 294 0044 FC07CBDE 		.ascii	"\374\007\313\336\004\361\007\2108V\365\354\314>\"d\211"
 294      04F10788 
 294      3856F5EC 
 294      CC3E2264 
 294      89
 295 0055 0F7060AB 		.ascii	"\017p`\253\273\253\276\257\252\372\233\356Y\003\014"
 295      BBABBEAF 
 295      AAFA9BEE 
 295      59030C
 296 0064 E87DCED2 		.ascii	"\350}\316\322\317\262\000.\362\"\001H\0104\014\001\240"
 296      CFB2002E 
 296      F2220148 
 296      08340C01 
 296      A0
 297 0075 0C938C14 		.ascii	"\014\223\214\024\206\214\347\022i@\023\221\240\010K"
 297      868CE712 
 297      69401391 
 297      A0084B
 298 0084 8690262E 		.ascii	"\206\220&.]\343\0258C\360T\251\207\215\007\315\215c"
 298      5DE31538 
 298      43F054A9 
 298      878D07CD 
 298      8D63
 299 0096 AB0DB5AE 		.ascii	"\253\015\265\256~\004\001\372\034\252 L\323\014\223"
 299      7E0401FA 
 299      1CAA204C 
 299      D30C93
 300 00a5 7A30B0BB 		.ascii	"z0\260\273|HS/\267TjS}\017\002\341\243hs\006C\216<\220"
 300      7C48532F 
 300      B7546A53 
 300      7D0F02E1 
 300      A3687306 
 301 00bd 23FBE46C 		.ascii	"#\373\344lo)\021q\372\353m\275\253\216\371\027{\373"
 301      6F291171 
 301      FAEB6DBD 
 301      AB8EF917 
 301      7BFB
 302 00cf 5D4EBFBA 		.ascii	"]N\277\272\375/\032$\376\021\307\352\227\243\332\234"
 302      FD2F1A24 
 302      FE11C7EA 
 302      97A3DA9C 
 303 00df A401E7F0 		.ascii	"\244\001\347\360P\264\013\007\321v\214w\215 \370\370"
 303      50B40B07 
 303      D1768C77 
 303      8D20F8F8 
 304 00ef E473730D 		.ascii	"\344ss\015\217\016 \320K2\240\204/p\010\004-\204$#M"
 304      8F0E20D0 
ARM GAS  /tmp/ccAE1QPe.s 			page 24


 304      4B32A084 
 304      2F700804 
 304      2D842423 
 305 0104 7627C898 		.ascii	"v'\310\230\026/\223\004\330!@\212\027iFe\030\220e@\216"
 305      162F9304 
 305      D821408A 
 305      17694665 
 305      18906540 
 306 0119 7D793209 		.ascii	"}y2\011\233\215\003z\307`B\215^\354\240\336;=\223\332"
 306      9B8D037A 
 306      C760428D 
 306      5EECA0DE 
 306      3B3D93DA 
 307 012d 4EF1F517 		.ascii	"N\361\365\027\273p\377\315\243\346\361\026\"\314\034"
 307      BB70FFCD 
 307      A3E6F116 
 307      22CC1C
 308 013c 360034BE 		.ascii	"6\0004\276\342\003\000\340!r\367\300\271\210\360U\224"
 308      E20300E0 
 308      2172F7C0 
 308      B988F055 
 308      94
 309 014d F035453C 		.ascii	"\3605E<4<\376>\220\353|\344\021\014\024\252^WR\203\337"
 309      343CFE3E 
 309      90EB7CE4 
 309      110C14AA 
 309      5E575283 
 310 0162 5F8F22B2 		.ascii	"_\217\"\262\000\317T\215\242\251\307\260AC\272\005\316"
 310      00CF548D 
 310      A2A9C7B0 
 310      4143BA05 
 310      CE
 311 0173 6825CAF1 		.ascii	"h%\312\361Y\354\314fN\207\337\225\236\262\011\217\373"
 311      59ECCC66 
 311      4E87DF95 
 311      9EB2098F 
 311      FB
 312 0184 DA8595ED 		.ascii	"\332\205\225\355\330eQ\001\217\217\004y\337\306\336"
 312      D8655101 
 312      8F8F0479 
 312      DFC6DE
 313 0193 24053885 		.ascii	"$\0058\205\264\241'\222\242`\034\371\000\265/\030G\264"
 313      B4A12792 
 313      A2601CF9 
 313      00B52F18 
 313      47B4
 314 01a5 BBF32D4D 		.ascii	"\273\363-M\361u\023\235}\245{v\331\216d~\335q\326\343"
 314      F175139D 
 314      7DA57B76 
 314      D98E647E 
 314      DD71D6E3 
 315 01b9 7D5207CF 		.ascii	"}R\007\317cWN\267\227\325\"]\011\235\373\025Jw*\024"
 315      63574EB7 
 315      97D5225D 
 315      099DFB15 
 315      4A772A14 
 316 01cd E625A64E 		.ascii	"\346%\246N\036\013\233/\300\011\037\263\247\340\244"
ARM GAS  /tmp/ccAE1QPe.s 			page 25


 316      1E0B9B2F 
 316      C0091FB3 
 316      A7E0A4
 317 01dc 8F39622E 		.ascii	"\2179b.+\345\370\230\277\007\337T\235g\366\274&r&\273"
 317      2BE5F898 
 317      BF07DF54 
 317      9D67F6BC 
 317      267226BB 
 318 01f0 9521FA6B 		.ascii	"\225!\372k(\307\263.\011\362\214\315vK C\011\342\252"
 318      28C7B32E 
 318      09F28CCD 
 318      764B2043 
 318      09E2AA
 319 0203 F69FA8DA 		.ascii	"\366\237\250\332\231\320\321\011\255\303%\024\255\331"
 319      99D0D109 
 319      ADC32514 
 319      ADD9
 320 0211 1E98613E 		.ascii	"\036\230a>\016\333l\034\222\331G'\332\006E\304\036\254"
 320      0EDB6C1C 
 320      92D94727 
 320      DA0645C4 
 320      1EAC
 321 0223 6CAE66A2 		.ascii	"l\256f\242\323\035\027\030\250\264\024\366\361\010\300"
 321      D31D1718 
 321      A8B414F6 
 321      F108C0
 322 0232 27586EAC 		.ascii	"'Xn\254\025\342+\000\341\305!\000\027=S,\272\227g\375"
 322      15E22B00 
 322      E1C52100 
 322      173D532C 
 322      BA9767FD 
 323 0246 B27F75C2 		.ascii	"\262\177u\302]\250\272\263\2459\367\326\302\355\305"
 323      5DA8BAB3 
 323      A539F7D6 
 323      C2EDC5
 324 0255 AA3B3139 		.ascii	"\252;19>2\354\216\215\215\272\243\343\227\356\234v\253"
 324      3E32EC8E 
 324      8D8DBAA3 
 324      E397EE9C 
 324      76AB
 325 0267 8BF323C3 		.ascii	"\213\363#\3037f\346K\305\012\2307\347J^U\3703w\177\002"
 325      3766E64B 
 325      C50A9837 
 325      E74A5E55 
 325      F833777F 
 326 027c 928C76B6 		.ascii	"\222\214v\266"
 327              		.text
 328              		.section	.gnu.lto_Vector124.416affff27a3016b,"",%progbits
 329 0000 789CD555 		.ascii	"x\234\325UKk\024A\020\256\232\356\331\331\367L\004\021"
 329      4B6B1441 
 329      10AE9AEE 
 329      D9D9F74C 
 329      0411
 330 0012 3C851C5D 		.ascii	"<\205\034]\335\301D\321\213\240\230\213\220\340!\011"
 330      DDC144D1 
 330      8BA0988B 
 330      90E02109 
ARM GAS  /tmp/ccAE1QPe.s 			page 26


 331 0022 A817D9DD 		.ascii	"\250\027\331\335\340d K\304\015\"xH\307\254\260x\012"
 331      E064204B 
 331      C40D2278 
 331      48C7ACB0 
 331      780A
 332 0034 9E245EE2 		.ascii	"\236$^\342-$\230\240\361 x\021O\036\014\301\177\260"
 332      2D2498A0 
 332      F1207811 
 332      4F1E0CC1 
 332      7FB0
 333 0046 7833883F 		.ascii	"x3\210?@\304\261\252gg\366\021!K|\200\003[\335]\365"
 333      40C4B1AA 
 333      6767F611 
 333      214B7C80 
 333      035BDD5D 
 334 005b 7D55D5DF 		.ascii	"}U\325\337t\317\032`@\357s\226~\226\005p\221\027\011"
 334      74CF1A60 
 334      40EF7396 
 334      7E960570 
 334      911709
 335 006e 4042A061 		.ascii	"@B\240a\010\000e\230d\2440d<\227H\003\232\210\004EX"
 335      08006598 
 335      64A43064 
 335      3C974803 
 335      9A880445 
 336 0083 30843471 		.ascii	"0\2044q\341:\257\300\031\202gJ=n>\334[9\366\250\251"
 336      E13AAFC0 
 336      1982674A 
 336      3D6E3EDC 
 336      5B39F6A8 
 337 0098 96D58F20 		.ascii	"\226\325\217 @\237C\025\204k4\303\244\036\014\354.\037"
 337      409F4315 
 337      846B34C3 
 337      A41E0CEC 
 337      2E1F
 338 00aa D2D4CB35 		.ascii	"\322\324\3135\225ZU\337\203@\370(\332\234\301\220#\017"
 338      955A55DF 
 338      8340F828 
 338      DA9CC190 
 338      230F
 339 00bc E4C83E39 		.ascii	"\344\310>9\233kJD\234\376z[\356\252c\376\305\336~\227"
 339      9B6B4A44 
 339      9CFE7A5B 
 339      EEAA63FE 
 339      C5DE7E97 
 340 00d0 D3AF6EFF 		.ascii	"\323\257n\377\213\006\211\177\304\261\372\345\2506'"
 340      8B06897F 
 340      C4B1FAE5 
 340      A83627
 341 00df 69C0393C 		.ascii	"i\3009<\024\355\302A\264-\343m3\010>l\177\376\264\201"
 341      14EDC241 
 341      B42DE36D 
 341      33083E6C 
 341      7FFEB481 
 342 00f3 470710E8 		.ascii	"G\007\020\350%\031P\302\0278\004\202\026B\222\221&\273"
 342      251950C2 
 342      17380482 
ARM GAS  /tmp/ccAE1QPe.s 			page 27


 342      16429291 
 342      26BB
 343 0105 13644C8B 		.ascii	"\023dL\213\227I\002l\021 \305\2134\2432\014\3102 \307"
 343      9749026C 
 343      1120C58B 
 343      34A3320C 
 343      C83220C7 
 344 0119 BE3C9984 		.ascii	"\276<\231\204\315\306\001\275c0\241N/vP\357\235\236"
 344      CDC601BD 
 344      6330A14E 
 344      2F7650EF 
 344      9D9E
 345 012b 496DA7F8 		.ascii	"Im\247\370\372\213\035x\360\372\311\336\361\026\"\314"
 345      FA8B1D78 
 345      F0FAC9DE 
 345      F11622CC 
 346 013b 1C360034 		.ascii	"\0346\0004n\363\001\000\360\020\271{H\322\234\010_E"
 346      6EF30100 
 346      F010B97B 
 346      48D29C08 
 346      5F45
 347 014d 095F51C4 		.ascii	"\011_Q\304C\303\343\357\003\271\316G\036\301@\241\032"
 347      43C3E3EF 
 347      03B9CE47 
 347      1EC140A1 
 347      1A
 348 015e 0D2535F8 		.ascii	"\015%5\370\335\215(\"\013\260\256\352\024M=\205\025"
 348      DD8D2822 
 348      0BB0AEEA 
 348      144D3D85 
 348      15
 349 016f 1AD22D70 		.ascii	"\032\322-pF+Q\216\317bg6S\227\225\275e\023\036\367\265"
 349      462B518E 
 349      CF626736 
 349      539795BD 
 349      65131EF7 
 350 0184 034B9BB1 		.ascii	"\003K\233\261\313\242\002\036\037\011\362\276\211\275"
 350      CBA2021E 
 350      1F09F2BE 
 350      89BD
 351 0192 490A700A 		.ascii	"I\012p\012iCO$E\3018\362\036\352_0\216hw\347[\232\342"
 351      69434F24 
 351      45C138F2 
 351      1EEA5F30 
 351      8E6877E7 
 352 01a9 EB263AFB 		.ascii	"\353&:\373J\367\354\262\035\311\374\272\343\254\307"
 352      4AF7ECB2 
 352      1DC9FCBA 
 352      E3ACC7
 353 01b8 FBA40E9E 		.ascii	"\373\244\016\236\307\256\234n/\253E\272\022:\367+\224"
 353      C7AE9C6E 
 353      2FAB45BA 
 353      123AF72B 
 353      94
 354 01c9 EE542894 		.ascii	"\356T(\224\210\230:y,l\276\000'|\314\236\202\223>\346"
 354      88983A79 
 354      2C6CBE00 
ARM GAS  /tmp/ccAE1QPe.s 			page 28


 354      277CCC9E 
 354      82933EE6 
 355 01dd 88B9A894 		.ascii	"\210\271\250\224\343c\376>|S\015\236\331UM\344Lv+C\364"
 355      E363FE3E 
 355      7C530D9E 
 355      D9554DE4 
 355      4C762B43 
 356 01f2 D7508E67 		.ascii	"\327P\216g]\022\344\031\233\355\226@\206\022\304U\355"
 356      5D12E419 
 356      9BED9640 
 356      8612C455 
 356      ED
 357 0203 3F51B533 		.ascii	"?Q\2653\241\243\023Z\207K(Z\263]0\303|\034\266\3318"
 357      A1A3135A 
 357      874B285A 
 357      B35D30C3 
 357      7C1CB6D9 
 358 0218 24B38F4E 		.ascii	"$\263\217N\264\015\212\210]XZ]\317D\247;.0Pi)\354\343"
 358      B40D8A88 
 358      5D585A5D 
 358      CF44A73B 
 358      2E305069 
 359 022f 11808FB0 		.ascii	"\021\200\217\260\330\334(\304W\000\302\213C\000.z\246"
 359      D8DC28C4 
 359      5700C28B 
 359      43002E7A 
 359      A6
 360 0240 58742FCF 		.ascii	"Xt/\317\370e\377\352\204;WsgJ\263\356\355\271;\3635"
 360      F865FFEA 
 360      843B5773 
 360      674AB3EE 
 360      EDB93BF3 
 361 0255 7762727C 		.ascii	"wbr|d\330\035\033\033uG\307/\335=\355\326\346\253#\303"
 361      64D81D1B 
 361      1B7547C7 
 361      2FDD3DED 
 361      D6E6AB23 
 362 026a 37A7ABA5 		.ascii	"7\247\253\245b\005\314[\263%\257&\374\351{?\001\345"
 362      6205CC5B 
 362      B325AF26 
 362      FCE97B3F 
 362      01E5
 363 027c E37743   		.ascii	"\343wC"
 364              		.text
 365              		.section	.gnu.lto_Vector128.416affff27a3016b,"",%progbits
 366 0000 789CD555 		.ascii	"x\234\325UKk\024A\020\256\232\236\331\331\367L\004\021"
 366      4B6B1441 
 366      10AE9A9E 
 366      D9D9F74C 
 366      0411
 367 0012 3C851C5D 		.ascii	"<\205\034]\335\301D\321\213\240\230\213\220\340!\011"
 367      DDC144D1 
 367      8BA0988B 
 367      90E02109 
 368 0022 A817D9DD 		.ascii	"\250\027\331\335\340d K\304\015\"xH\307\254\260x\012"
 368      E064204B 
 368      C40D2278 
ARM GAS  /tmp/ccAE1QPe.s 			page 29


 368      48C7ACB0 
 368      780A
 369 0034 9E245EE2 		.ascii	"\236$^\342-\010&\370\000\005/\342I\214!\370\017\026"
 369      2D0826F8 
 369      00052FE2 
 369      498C21F8 
 369      0F16
 370 0046 6F8278C8 		.ascii	"o\202x\310Q\304\261\252g\247\367\021!K|\200\003[\335"
 370      51C4B1AA 
 370      67A7F711 
 370      214B7C80 
 370      035BDD
 371 0059 5DF57D55 		.ascii	"]\365}U\325\337t\317\032`@\357s\222~\266\015p\226\027"
 371      D5DF74CF 
 371      1A6040EF 
 371      73927EB6 
 371      0D709617 
 372 006d 094042A0 		.ascii	"\011@B\240a\010\000iXdLa\230zn\"\015h!\022\024a\301"
 372      61080069 
 372      58644C61 
 372      987A6E22 
 372      0D682112 
 373 0084 10A6850B 		.ascii	"\020\246\205\013\227y\005\356\020<\222\362~\363\356"
 373      977905EE 
 373      103C92F2 
 373      7EF3EE
 374 0093 CECAA17B 		.ascii	"\316\312\241{M\271,\177\204!\006\034\252 \\\242\031"
 374      4DB92C7F 
 374      8421061C 
 374      AA205CA2 
 374      19
 375 00a4 26D56060 		.ascii	"&\325``w\371\210&\237\255\311\324\252\374\036\206\""
 375      77F98826 
 375      9FADC9D4 
 375      AAFC1E86 
 375      22
 376 00b5 40D1E60C 		.ascii	"@\321\346\014F\034sO\216\331'g}M\212\230\323_o\313]"
 376      461C734F 
 376      8ED92767 
 376      7D4D8A98 
 376      D35F6FCB 
 377 00ca 75ACBFD8 		.ascii	"u\254\277\330\333\357r\372\325\355\177\321 \361\217"
 377      DBEF72FA 
 377      D5ED7FD1 
 377      20F18F
 378 00d9 3876BF1C 		.ascii	"8v\277\034\331\346$\0158\205\373\242\235\331\213\266"
 378      D9E6240D 
 378      3885FBA2 
 378      9DD98BB6 
 379 00e9 61BC6986 		.ascii	"a\274i\206\341\207\227\237?m\342\301\001\004zI\006\224"
 379      E187979F 
 379      3F6DE2C1 
 379      01047A49 
 379      0694
 380 00fb F0290E81 		.ascii	"\360)\016\201\240\2050\311\230\026\273\023d,\233\227"
 380      A08530C9 
 380      9816BB13 
ARM GAS  /tmp/ccAE1QPe.s 			page 30


 380      642C9B97 
 381 010b 49026C10 		.ascii	"I\002l\020 \305\2134\2432\014\3102 \307\276<\231\204"
 381      20C58B34 
 381      A3320CC8 
 381      3220C7BE 
 381      3C9984
 382 011e C3C605B5 		.ascii	"\303\306\005\265c\260\240N/vP\355\235\236Ie\247\370"
 382      63B0A04E 
 382      2F7650ED 
 382      9D9E4965 
 382      A7F8
 383 0130 FA8B2DB8 		.ascii	"\372\213-\270\363\352\301\316\341\026\"\312\0345\000"
 383      F3EAC1CE 
 383      E11622CA 
 383      1C3500
 384 013f 343EE703 		.ascii	"4>\347\003\000\340#r\367T\022\200\010_E\011_P\304G\303"
 384      00E02372 
 384      F7541280 
 384      085F4509 
 384      5F50C447 
 385 0154 E7EF03B9 		.ascii	"\347\357\003\271N\307\036\301@!\033\015i*\360\333+q"
 385      4EC71EC1 
 385      40211B0D 
 385      692AF0DB 
 385      2B71
 386 0166 C42CC063 		.ascii	"\304,\300cY\247h\352!\254\320\220n\2013J\211\262>\213"
 386      59A768EA 
 386      21ACD090 
 386      6E81334A 
 386      89B23E8B 
 387 017a 9DD92C55 		.ascii	"\235\331,U6\331[6\341s_[\260\264\256]6\025\360\371H"
 387      36D95B36 
 387      E1735F5B 
 387      B0B4AE5D 
 387      3615F0F9 
 388 018f 90F7B5F6 		.ascii	"\220\367\265\366&)\300)L\007z\")\012\352\310;\250\177"
 388      2629C029 
 388      4C077A22 
 388      290AEAC8 
 388      3BA87F
 389 01a2 411D51EE 		.ascii	"A\035Q\356\316\2674\305\327Mt\366\225\356\331e;\222"
 389      CEB734C5 
 389      D74D74F6 
 389      95EED965 
 389      3B92
 390 01b4 F975C759 		.ascii	"\371u\307Y\237\367I\035<\321\256\234j/\253D\272\020"
 390      9FF7491D 
 390      3CD1AE9C 
 390      6A2FAB44 
 390      BA10
 391 01c6 39772B94 		.ascii	"9w+\224\356T(\222\210\230*\271\0266_\200#\001f\217\301"
 391      EE542892 
 391      88982AB9 
 391      16365F80 
 391      2301668F 
 392 01db D10073C4 		.ascii	"\321\000s\304\\\224\322\0150\177\033\276\311\006\317"
 392      5C94D20D 
ARM GAS  /tmp/ccAE1QPe.s 			page 31


 392      307F1BBE 
 392      C906CF
 393 01ea 9CAA2272 		.ascii	"\234\252\"r&\247\225!\376k(\353Y\227\004y\306f\273%"
 393      26A79521 
 393      FE6B28EB 
 393      59970479 
 393      C666BB25 
 394 01fe 30230974 		.ascii	"0#\011tU\347OT\355L\350\252\204\366\376\022\212\326"
 394      55E74F54 
 394      ED4CE8AA 
 394      84F6FE12 
 394      8AD6
 395 0210 6C1BAC28 		.ascii	"l\033\254(\037\207\0356.\311\034\240\033o\203\"b\033"
 395      1F871D36 
 395      2EC91CA0 
 395      1B6F8322 
 395      621B
 396 0222 9656DF67 		.ascii	"\226V\337g\342\323\255\013\014TZ\012\007x\000\340#,"
 396      E2D3AD0B 
 396      0C545A0A 
 396      077800E0 
 396      232C
 397 0234 36370BFA 		.ascii	"67\013\372\012@tq\010\300EO\024\213\336\371\231\240"
 397      0A407471 
 397      08C0454F 
 397      148BDEF9 
 397      99A0
 398 0246 1C5C9CF0 		.ascii	"\034\\\234\360\346j\336Li\326\273>wc\276\346ML\216\217"
 398      E66ADE4C 
 398      69D6BB3E 
 398      7763BEE6 
 398      4D4C8E8F 
 399 025a 0C7B6363 		.ascii	"\014{cc\243\336\350\370\271\233\307\275\332|ud\370\352"
 399      A3DEE8F8 
 399      B99BC7BD 
 399      DA7C7564 
 399      F8EA
 400 026c 74B554AC 		.ascii	"t\265T\254\200um\266\344\327D0}\353'\372:w\300"
 400      80756DB6 
 400      E4D74430 
 400      7DEB27FA 
 400      3A77C0
 401              		.text
 402              		.section	.gnu.lto_Vector12C.416affff27a3016b,"",%progbits
 403 0000 789CD555 		.ascii	"x\234\325UKk\024A\020\256\232\356\331\347\354\316D\020"
 403      4B6B1441 
 403      10AE9AEE 
 403      D9E7ECCE 
 403      4410
 404 0012 C153C8D1 		.ascii	"\301S\310\321\325\035L\024\275\010\212\271\010\011\036"
 404      D51D4C14 
 404      BD088AB9 
 404      08091E
 405 0021 92807A91 		.ascii	"\222\200z\221\335\015N\006\262D\334 \202\207t\314\012"
 405      DD0D4E06 
 405      B244DC20 
 405      828774CC 
ARM GAS  /tmp/ccAE1QPe.s 			page 32


 405      0A
 406 0032 8BA7E049 		.ascii	"\213\247\340I\342%\336\202`\202\217\203\220\213x\362"
 406      E225DE82 
 406      60828F83 
 406      908B78F2 
 407 0042 6008FE83 		.ascii	"`\010\376\203\305\233F\374\001\2138V\365\354\314>\024"
 407      C59B46FC 
 407      018B3856 
 407      F5ECCC3E 
 407      14
 408 0053 B2C40738 		.ascii	"\262\304\0078\260\325\335U\337WU\375M\367\254\001\006"
 408      B0D5DD55 
 408      DF5755FD 
 408      4DF7AC01 
 408      06
 409 0064 F43FA7E9 		.ascii	"\364?\247\351\227L\002\234\347E\002\220\020h\030\002"
 409      974C029C 
 409      E7450290 
 409      10681802 
 410 0074 40192619 		.ascii	"@\031&\031)\014\031\317%\322\200&\"A\021\226\014!M\\"
 410      290C19CF 
 410      25D28026 
 410      22411196 
 410      0C214D5C 
 411 0088 BACA2B70 		.ascii	"\272\312+pF\340\211R\017\233\367[kG\0364\325\252\372"
 411      46E08952 
 411      0F9BF75B 
 411      6B471E34 
 411      D5AAFA
 412 009b 1E04E873 		.ascii	"\036\004\350s\250\202p\205f\230\322\203\201\275\345"
 412      A8827085 
 412      6698D283 
 412      81BDE5
 413 00aa 439A7AB1 		.ascii	"C\232z\261\241\322\353\352[\020\010\037E\2073\034r\344"
 413      A1D2EBEA 
 413      5B10081F 
 413      4587331C 
 413      72E4
 414 00bc BE1C3920 		.ascii	"\276\0349 gsC\211\2103Xo\253=u\314\277\330\333\357r"
 414      67734389 
 414      8833586F 
 414      AB3D75CC 
 414      BFD8DBEF 
 415 00d1 06D5ED7F 		.ascii	"\006\325\355\177\321 \361\2178\311A9\252\303I\031p\006"
 415      D120F18F 
 415      38C94139 
 415      AAC34919 
 415      7006
 416 00e3 0F443BB7 		.ascii	"\017D;\267\037m\313x\323\014\202\367\333\237>\356\341"
 416      1F6DCB78 
 416      D30C82F7 
 416      DB9F3EEE 
 416      E1
 417 00f4 E121047A 		.ascii	"\341!\004zI\006\224\3609\216\200\240\205\220d\244\311"
 417      490694F0 
 417      398E80A0 
 417      859064A4 
ARM GAS  /tmp/ccAE1QPe.s 			page 33


 417      C9
 418 0105 EE041933 		.ascii	"\356\004\0313\311\313\024\001\266\010\220\346E\206Q"
 418      C9CB1401 
 418      B60890E6 
 418      458651
 419 0114 5906580C 		.ascii	"Y\006X\014\310\261/O&a\263q@\357\030L\250\323\213\035"
 419      C8B12F4F 
 419      2661B371 
 419      40EF184C 
 419      A8D38B1D 
 420 0128 D67BA767 		.ascii	"\326{\247gZ\333\031\276\376b\007\356\275~\324:\332F"
 420      5ADB19BE 
 420      FE6207EE 
 420      BD7ED43A 
 420      DA46
 421 013a 8499C306 		.ascii	"\204\231\303\006\200\306\227|\000\000<D\356\03624'\302"
 421      80C6977C 
 421      00003C44 
 421      EE1E3234 
 421      27C2
 422 014c 5751C257 		.ascii	"WQ\302W\024\361\320\360\370\373@\256\263\221G0P\250"
 422      14F1D0F0 
 422      F8FB40AE 
 422      B3914730 
 422      50A8
 423 015e 4643490D 		.ascii	"FCI\015~{-\212\310\002<Uu\212\246\037\303\032\015\231"
 423      7E7B2D8A 
 423      C8023C55 
 423      758AA61F 
 423      C31A0D99 
 424 0172 3638AB95 		.ascii	"68\253\225(\307g\261;\233\251\313Z\375e\023\036\367"
 424      28C767B1 
 424      3B9BA9CB 
 424      5AFD6513 
 424      1EF7
 425 0184 B5032B9B 		.ascii	"\265\003+\233\261+I\005<>\022\344\335\216\275)\012p"
 425      B12B4905 
 425      3C3E12E4 
 425      DD8EBD29 
 425      0A70
 426 0196 0A69435F 		.ascii	"\012iC_$M\3018\362\016\352_0\216hw\367[\232\341\353"
 426      244DC138 
 426      F20EEA5F 
 426      308E6877 
 426      F75B9AE1 
 427 01ab 26BAFBCA 		.ascii	"&\272\373\312\364\355\262\023\311\376\272c\313\343}"
 427      F4EDB213 
 427      C9FEBA63 
 427      CBE37D
 428 01ba 5207CF62 		.ascii	"R\007\317bWN\267gi\221.\205\316\237\025\312t+\024JD"
 428      574EB767 
 428      69912E85 
 428      CE9F15CA 
 428      742B144A 
 429 01cf 4C9D3C16 		.ascii	"L\235<\0266_\200c>Z'\340\270\2179b.+\345\370\230\277"
 429      365F8063 
 429      3E5A27E0 
ARM GAS  /tmp/ccAE1QPe.s 			page 34


 429      B88F3962 
 429      2E2BE5F8 
 430 01e5 0B2DD5E0 		.ascii	"\013-\325\340\231]\325D\316d\2673D\177\015\345x\326"
 430      995DD544 
 430      CE64B733 
 430      447F0DE5 
 430      78D6
 431 01f7 23419EB1 		.ascii	"#A\236\261V\257\0042\224 \256j\377\211\252\335\011\035"
 431      56AF0432 
 431      9420AE6A 
 431      FF89AADD 
 431      091D
 432 0209 9D3079B0 		.ascii	"\2350y\260\204\242=\333\0053\314\307a\233\215C2\373"
 432      84A23DDB 
 432      0533CCC7 
 432      619B8D43 
 432      32FB
 433 021b E844DBA0 		.ascii	"\350D\333\240\210\330\205\225\365\317\331\350t\307\005"
 433      88D88595 
 433      F5CFD9E8 
 433      74C705
 434 022a 862A6D85 		.ascii	"\206*m\205}<\004\360\001\226\233{\205\370\012@xq\010"
 434      7D3C04F0 
 434      01969B7B 
 434      85F80A40 
 434      787108
 435 023d C0454F15 		.ascii	"\300EO\025\213\356\3059\277\354_\236r\027j\356\\i\336"
 435      8BEEC539 
 435      BFEC5F9E 
 435      72176AEE 
 435      5C69DE
 436 0250 BDB9706B 		.ascii	"\275\271pk\261\346NMO\216\215\272\023\023\343\356\370"
 436      B1E64E4D 
 436      4F8E8DBA 
 436      1313E3EE 
 436      F8
 437 0261 E485DB27 		.ascii	"\344\205\333'\335\332bul\364\372l\265T\254\200yc\276"
 437      DDDA6275 
 437      6CF4FA6C 
 437      B554AC80 
 437      7963BE
 438 0274 E4D5843F 		.ascii	"\344\325\204?{\347\007\016\240x="
 438      7BE7070E 
 438      A0783D
 439              		.text
 440              		.section	.gnu.lto_Vector130.416affff27a3016b,"",%progbits
 441 0000 789CD555 		.ascii	"x\234\325UKk\024A\020\256\352\356\331\331\367N<\350"
 441      4B6B1441 
 441      10AEEAEE 
 441      D9D9F74E 
 441      3CE8
 442 0012 C14BC8D1 		.ascii	"\301K\310\321\230\035L\024\275\010\212\271\010\011\036"
 442      981D4C14 
 442      BD088AB9 
 442      08091E
 443 0021 92807A91 		.ascii	"\222\200z\221\335\015N\006\022\"n\020\301C:f\205%\271"
 443      DD0D4E06 
ARM GAS  /tmp/ccAE1QPe.s 			page 35


 443      12226E10 
 443      C1433A66 
 443      8525B9
 444 0034 044F622E 		.ascii	"\004Ob.1\247 \230\340\343 xP<y0\004\377\301\342M\020"
 444      31A72098 
 444      E0E32078 
 444      503C7930 
 444      04FFC1E2 
 445 004a 7F808863 		.ascii	"\177\200\210cU\317\316\354C!K|\200\003[\335]\365}U\325"
 445      55CFCEEC 
 445      43214B7C 
 445      80035BDD 
 445      5DF57D55 
 446 005f DF74CF0A 		.ascii	"\337t\317\012\020\320\375\234\242\237m\003\234\343E"
 446      10D0FD9C 
 446      A29F6D03 
 446      9CE345
 447 006e 02901028 		.ascii	"\002\220\020(\204\004\320\302\"\243\244P\361\\!\015"
 447      8404D0C2 
 447      22A3A450 
 447      F15C210D 
 448 007e 68211214 		.ascii	"h!\022\024aQHe\341\342\025^\2013\000\217\264\276\337"
 448      61514865 
 448      E1E2155E 
 448      8133008F 
 448      B4BEDF
 449 0091 B8B7B97E 		.ascii	"\270\267\271~d\245\241\327\364\367 @\237C\025\204\313"
 449      64A5A1D7 
 449      F4F72040 
 449      9F431584 
 449      CB
 450 00a2 34C3A419 		.ascii	"4\303\244\031\004v\226\017i\372\331\226Nm\350oA }\224"
 450      0476960F 
 450      69FAD996 
 450      4E6DE86F 
 450      41207D94 
 451 00b6 2D4E7FC8 		.ascii	"-N\177\310Q\373rT\217\234\355--#No\275\255u\324\261"
 451      51FB7254 
 451      8F9CED2D 
 451      2D234E6F 
 451      BDAD75D4 
 452 00cb FE626FBF 		.ascii	"\376bo\277\313\351U\267\377E\203\304?\342\330\275rt"
 452      CBE955B7 
 452      FF4583C4 
 452      3FE2D8BD 
 452      7274
 453 00dd 8B931470 		.ascii	"\213\223\024p\032\017D;\273\037mG\274i\004\301\373\327"
 453      1A0F443B 
 453      BB1F6D47 
 453      BC6904C1 
 453      FBD7
 454 00ef 9F3EAEE2 		.ascii	"\237>\256\342\341>\004zI\002J\370\024\007@\322B*2\312"
 454      E13E047A 
 454      49024AF8 
 454      140740D2 
 454      422A32CA 
 455 0103 6277828C 		.ascii	"bw\202\214e\3632I\200\035\002\244x\221fT\206\001Y\006"
ARM GAS  /tmp/ccAE1QPe.s 			page 36


 455      65F33249 
 455      801D02A4 
 455      78916654 
 455      86015906 
 456 0117 E4D89727 		.ascii	"\344\330\227'\223(\260q\300\354\030,\250\321\213\355"
 456      9328B071 
 456      C0EC182C 
 456      A8D18BED 
 457 0127 377BA767 		.ascii	"7{\247g\322\330)\276\376r\027\356\276|\260y\264\211"
 457      D2D829BE 
 457      FE7217EE 
 457      BE7CB079 
 457      B489
 458 0139 0833870D 		.ascii	"\0103\207\015\000\215\317\371\000\000x\210\334=dhN\204"
 458      008DCFF9 
 458      00007888 
 458      DC3D6468 
 458      4E84
 459 014b 2FB2842F 		.ascii	"/\262\204/(\342\241\360\370\373@\2563\221G2P\352z]+"
 459      28E2A1F0 
 459      F8FB40AE 
 459      33914732 
 459      50EA7A5D 
 460 0160 037E7B35 		.ascii	"\003~{5\212\250Ax\254k\024M\255\303C\032\322Mp\306("
 460      8AA84178 
 460      AC6B144D 
 460      ADC3431A 
 460      D24D70C6 
 461 0175 518ECF62 		.ascii	"Q\216\317b{6\313\224u\272\313&<\356k\027\226\267c\227"
 461      7B36CB94 
 461      75BACB26 
 461      3CEE6B17 
 461      96B76397 
 462 0189 4D053C3E 		.ascii	"M\005<>\022\344}\025{\223\024\340\024\252\000]\221\024"
 462      12E47D15 
 462      7B9314E0 
 462      14AA005D 
 462      9114
 463 019b 05E3C83B 		.ascii	"\005\343\310;\250}\3068b\334\355oi\212\257\233l\357"
 463      A87DC638 
 463      62DCED6F 
 463      698AAF9B 
 463      6CEF
 464 01ad 2BDDB5CB 		.ascii	"+\335\265\313V$\363\353\216\263\036\357\223:x\022\273"
 464      5624F3EB 
 464      8EB31EEF 
 464      933A7812 
 464      BB
 465 01be 72A6BDAC 		.ascii	"r\246\275\254\021\351b\350\374Y\241t\273B\241D\3044"
 465      11E962E8 
 465      FC59A174 
 465      BB42A144 
 465      C434
 466 01d0 C96361F3 		.ascii	"\311ca\363\203p\314\307\354\020\034\3671G\314%\255\035"
 466      8370CCC7 
 466      EC101CF7 
 466      3147CC25 
ARM GAS  /tmp/ccAE1QPe.s 			page 37


 466      AD1D
 467 01e2 1FF377E0 		.ascii	"\037\363w\340\253\256\363\2540g\210\234\251\320\314"
 467      ABAEF3AC 
 467      3067889C 
 467      A9D0CC
 468 01f1 10FD3594 		.ascii	"\020\3755\224\343Y\207\004y\306f;%P\241\004q\325\302"
 468      E3598704 
 468      79C6663B 
 468      2550A104 
 468      71D5C2
 469 0204 9FA8DA9E 		.ascii	"\237\250\332\236\3201\011\355\203%\224\315\331\036X"
 469      D03109ED 
 469      832594CD 
 469      D91E58
 470 0213 613E0E17 		.ascii	"a>\016\027\3308$\263\217N\264\015\212\310=X\336X\311"
 470      D83824B3 
 470      8F4EB40D 
 470      8AC83D58 
 470      DE58C9
 471 0226 45A73B2E 		.ascii	"E\247;.\320Wi*\354\343!\200\017\260\324X\035\212\257"
 471      D057692A 
 471      ECE32180 
 471      0FB0D458 
 471      1D8AAF
 472 0239 00841787 		.ascii	"\000\204\027\207\000\\\364d\261\350^\230\361\313\376"
 472      005CF464 
 472      B1E85E98 
 472      F1CBFE
 473 0248 A50977BE 		.ascii	"\245\011w\276\352\316\224f\335\033\3637\027\252\356"
 473      EACE9466 
 473      DD1BF337 
 473      17AAEE
 474 0257 C4E4F8C8 		.ascii	"\304\344\370\310\260;66\352\216\216\237\277u\302\255"
 474      B03B3636 
 474      EA8E8E9F 
 474      BF75C2AD 
 475 0267 2ECC8D0C 		.ascii	".\314\215\014_\233\236+\025+`]\237-yU\351O\337\376\001"
 475      5F9B9E2B 
 475      152B605D 
 475      9F2D7955 
 475      E94FDFFE 
 476 027c D2C57681 		.ascii	"\322\305v\201"
 477              		.text
 478              		.section	.gnu.lto_dmaInit.416affff27a3016b,"",%progbits
 479 0000 789C8D51 		.ascii	"x\234\215QMh\023Q\020\236yo\177l\322\232x\351\271\364"
 479      4D681351 
 479      109E796F 
 479      7F6CD29A 
 479      78E9B9F4 
 480 0014 2ACD622B 		.ascii	"*\315b+(x\022{l\351\241\011\350\251\244\025\332\005"
 480      2878127B 
 480      6CE9A109 
 480      E8A9A415 
 480      DA05
 481 0026 978A2982 		.ascii	"\227\212)\202x\310[\033!\207\036B\251P\365bA\244\210"
 481      78C85B1B 
 481      21871E42 
ARM GAS  /tmp/ccAE1QPe.s 			page 38


 481      A950F562 
 481      41A488
 482 0039 503C191A 		.ascii	"P<\031\032\220\340I\021\241\322\213\232\203\021\301"
 482      90E04911 
 482      A1D28B9A 
 482      8311C1
 483 0048 B3E825D8 		.ascii	"\263\350%\330\302:\363v\337\226\352\241\031\310{3y\363"
 483      C23AF376 
 483      DF96EAA1 
 483      19C87B33 
 483      79F3
 484 005a 7DF3ED37 		.ascii	"}\363\3557\002\004\374\033\036\375\336I\200\213\\8\200"
 484      0204FC1B 
 484      1EFDDE49 
 484      808B5C38 
 484      80
 485 006b D481022D 		.ascii	"\324\201\002-:\245>-A\217J\330tX6\"5!T\205\244\274z"
 485      3AA53E2D 
 485      418F4AD8 
 485      74583622 
 485      35215485 
 486 0082 8D2BB046 		.ascii	"\215+\260FaK\251\365\356\375\326\276|\270\321\256=Q"
 486      614BA9F5 
 486      EEFDD6BE 
 486      7CB8D1AE 
 486      3D51
 487 0094 875184E8 		.ascii	"\207Q\204\350\363\343\002\302U\312pD_\302:>:\006\266"
 487      F3E302C2 
 487      55CA7044 
 487      5FC23A3E 
 487      3A06B6
 488 00a7 BF76DE6F 		.ascii	"\277v\336o\241ZW\341\317(\312\371(\373\204\375\352\254"
 488      A15A57E1 
 488      CF28CAF9 
 488      28FB84FD 
 488      EAAC
 489 00b9 651A615D 		.ascii	"e\032a]EQ\265_P\243\275\327\031L1\226\200\013x\002l"
 489      4551B55F 
 489      50A3BDD7 
 489      194C3196 
 489      800B7802 
 490 00ce 47B4BB51 		.ascii	"G\264\273Qt\330y\371\355\000\207]\2042>\305Qr1\276%"
 490      74D879F9 
 490      ED00875D 
 490      84323EC5 
 490      517231BE 
 491 00e3 D0575A49 		.ascii	"\320WZIaS!\035\320Z\250\250\321\270\221\370Ek\243(\352"
 491      6153211D 
 491      D05AA8A8 
 491      D1B891F8 
 491      456BA328 
 492 00f8 B3C416CB 		.ascii	"\263\304\026\313\017p\257\371i\367\273(\3433\264\341"
 492      0F70AFF9 
 492      69F7BB28 
 492      E333B4E1 
 493 0108 313C0A95 		.ascii	"1<\012\225\312\373h\337\205?\252\316\231\023\350n\026"
 493      CAFB68DF 
ARM GAS  /tmp/ccAE1QPe.s 			page 39


 493      853FAACE 
 493      9913E86E 
 493      16
 494 0119 E580C96C 		.ascii	"\345\200\311lN\030\332\333\335\307\030\272\210\202_"
 494      4E18DADB 
 494      DDC718BA 
 494      88825F
 495 0128 52DD259E 		.ascii	"R\335%\236\317\364_6i!\246G\236\205\347\314\352\216"
 495      CFF45F36 
 495      6921A647 
 495      9E85E7CC 
 495      EA8E
 496 013a C10BD550 		.ascii	"\301\013\325Pj\316\307S<\264\301\177\016\360\320M\316"
 496      6ACEC753 
 496      3CB4C17F 
 496      0EF0D04D 
 496      CE
 497 014b 3281DE30 		.ascii	"2\201\3360\023f4\333\242\2569\346MB\363\3374\033\303"
 497      136634DB 
 497      A2AE39E6 
 497      4D42F3DF 
 497      341BC3
 498 015e 3133D3D6 		.ascii	"13\323\326B\365\200\000Y\342\243k\220\2061\336MP\230"
 498      42F58000 
 498      59E2A36B 
 498      908631DE 
 498      4D5098
 499 0171 8ACF1AF1 		.ascii	"\212\317\032\361\315\326o\353\010Nq\307\307!\026FQ\361"
 499      CDD66FEB 
 499      084E71C7 
 499      C7211646 
 499      51F1
 500 0183 F174EA46 		.ascii	"\361t\352F.u#\037\260k\232&\377\2370\221\216\030\212"
 500      2E75231F 
 500      B06B9A26 
 500      FF9F3091 
 500      8E188A
 501 0196 47ACD657 		.ascii	"G\254\326Ww^\315\230o\267\250W[d\020%vK\276\205\332"
 501      775ECD98 
 501      6FB7A857 
 501      5B641025 
 501      764BBE85 
 502 01ab 8FD0354D 		.ascii	"\217\3205MqG6]\374g@rVlK\302\313\336\000\203\354dm\275"
 502      7147365D 
 502      FC674072 
 502      566C4BC2 
 502      CBDE0083 
 503 01c3 D62583B2 		.ascii	"\326%\203\262\031%\025i\264\022c\366\334c\306\344R_"
 503      19251569 
 503      B41263F6 
 503      DC63C6E4 
 503      525F
 504 01d5 CE98EE44 		.ascii	"\316\230\356D\264<\362%\242\310%\336l\277Nw\346\304"
 504      B43CF225 
 504      A2C825DE 
 504      6CBF4E77 
 504      E6C4
ARM GAS  /tmp/ccAE1QPe.s 			page 40


 505 01e7 E4F5FEC8 		.ascii	"\344\365\376\310\235\023\310?B\330=\030\213\361&\212"
 505      9D13C83F 
 505      42D83D18 
 505      8BF1268A 
 506 01f7 6C22BB77 		.ascii	"l\"\273w\276P\360\256,\371\363\376\314\254\267\\\361"
 506      BE50F0AE 
 506      2CF9F3FE 
 506      CCACB75C 
 506      F1
 507 0208 96CA37BC 		.ascii	"\226\3127\274\233\313\267V*\336lqzb\334\233\232\232"
 507      9BCBB756 
 507      2ADE6C71 
 507      7A62DC9B 
 507      9A9A
 508 021a F426A72F 		.ascii	"\364&\247/\337>\347UV\202\211\361\271\353A\271\260\000"
 508      DF3EE755 
 508      568289F1 
 508      B9EB41B9 
 508      B000
 509 022c E8FF054B 		.ascii	"\350\377\005Ks\353\303"
 509      73EBC3
 510              		.text
 511              		.section	.gnu.lto_dmaStreamAllocate.416affff27a3016b,"",%progbits
 512 0000 789CDD57 		.ascii	"x\234\335WYH\\W\030>\347.\263/\356\243\216\211FML\242"
 512      59485C57 
 512      183EE72E 
 512      B32FEEA3 
 512      8E89464D 
 513 0016 CEB8A4B4 		.ascii	"\316\270\244\264o\2454/-\011)$\202-\024\031M\231\014"
 513      6FA5342F 
 513      2D092924 
 513      822D1419 
 513      4D990C
 514 0029 ED909091 		.ascii	"\355\220\220\221\276\364\301;*%\204<\310t\211$m5\320"
 514      BEF4C13B 
 514      2A25843C 
 514      C8748924 
 514      6D35D0
 515 003c 1429691B 		.ascii	"\024)i\033\022,\323\346!C\027\320ZI\245\024\324\322"
 515      122CD3E6 
 515      214317D0 
 515      5A49A514 
 515      D4D2
 516 004e 2A4D1728 		.ascii	"*M\027(\301\224JbI\032o\377\377.g\306\231\321\\/\330"
 516      C1944A62 
 516      491A6FFF 
 516      FF2E67C6 
 516      99D15C2F 
 517 0063 42073CCB 		.ascii	"B\007<\313\177\376\357_\276\377\236E\216p$\373\327\007"
 517      7FFEEF5F 
 517      BEFF9E45 
 517      8E7024FB 
 517      D707
 518 0075 7F678B09 		.ascii	"\177g\213\011\031\303\211\207P\320\240\034\345\241\345"
 518      19C38987 
 518      50D0A01C 
 518      E5A1E5
ARM GAS  /tmp/ccAE1QPe.s 			page 41


 519 0084 39811089 		.ascii	"9\201\020\211\023\241\021\004\352\006\211\310YPbE\211"
 519      13A11104 
 519      EA0689C8 
 519      59506245 
 519      89
 520 0095 854247AD 		.ascii	"\205BG\255\234\015%v\224\330(t\324\3169P\342B\211\203"
 520      9C0D2576 
 520      94D82874 
 520      D4CE3950 
 520      E2428983 
 521 00a9 73B2B193 		.ascii	"s\262\261\223BG]\212\0357\245\340\214\222>\216\027D"
 521      42475D8A 
 521      1D37A5E0 
 521      8C923E8E 
 521      1744
 522 00bb 8BD56677 		.ascii	"\213\325fw8]n\332\367,JIc-\271 I\211\305\213\267?\027"
 522      385D6EDA 
 522      F72C4A49 
 522      632DB920 
 522      4989C58B 
 523 00d2 CFBE9E8A 		.ascii	"\317\276\236\212\217J\177\3132\245\021\\\354\241\244"
 523      8F4A7FCB 
 523      32A5115C 
 523      ECA1A4
 524 00e1 1346D4A6 		.ascii	"\023F\324\246t\034]\233\212\002\034\222\226\177~fB\032"
 524      741C5D9B 
 524      8A021C92 
 524      967F7E66 
 524      421A
 525 00f3 4CC9F2E3 		.ascii	"L\311\362\343\021\314C\307\324\250\030!\017&!]\031\223"
 525      11CC43C7 
 525      D4A81821 
 525      0F26215D 
 525      1993
 526 0105 EC8A233E 		.ascii	"\354\212#>B\005\023\030\221#\217R\0230C\256\316\245"
 526      42051318 
 526      91238F52 
 526      133043AE 
 526      CEA5
 527 0117 1EFCF8E9 		.ascii	"\036\374\370\351\005*\275*\305\377\220eo\204Z\0141\221"
 527      052ABD2A 
 527      C5FF9065 
 527      6F845A0C 
 527      3191
 528 0129 48BD3632 		.ascii	"H\27562\342;\275\010\224\254\002\203\306\011\034\377"
 528      E23BBD08 
 528      94AC0283 
 528      C6091CFF 
 529 0139 65D304A6 		.ascii	"e\323\004\246\336\370\367\\\235_x\253\342\364h\277\356"
 529      DEF8F75C 
 529      9D5F78AB 
 529      E2F468BF 
 529      EE
 530 014a 0AA87F7A 		.ascii	"\012\250\177z\313\250O\244\336^\370\012\250O\350\324"
 530      CBA84FA4 
 530      DE5EF80A 
 530      A84FE8D4 
ARM GAS  /tmp/ccAE1QPe.s 			page 42


 531 015a 5B4D7C1C 		.ascii	"[M|\034f0\006\3033\225\322\325\034\002\237\337B\002"
 531      663006C3 
 531      3395D2D5 
 531      1C029FDF 
 531      4202
 532 016c C7FF7F04 		.ascii	"\307\377\177\004^_\230\314L\311f\302\225\031\314\026"
 532      5E5F98CC 
 532      4CC966C2 
 532      9519CC16 
 533 017c A6B40663 		.ascii	"\246\264\006c7\210\371pL\342u\0141\270\3413\375\030"
 533      3788F970 
 533      4CE2750C 
 533      31B8E133 
 533      FD18
 534 018e DBF06630 		.ascii	"\333\360f0\346\312:\263p&s_\030,Qjn\344\342\232\355"
 534      E6CA3AB3 
 534      7026735F 
 534      182C516A 
 534      6EE4E29A 
 535 01a3 6430C23B 		.ascii	"d0\302;\031\327\024l\301\023[\270\005\177\030yg\363"
 535      19D7146C 
 535      C1135BB8 
 535      057F1879 
 535      67F3
 536 01b5 877342FA 		.ascii	"\207sB\372>3B\203\256\356\214\274g\346\036\230\373o"
 536      3E334283 
 536      AEEE8CBC 
 536      67E61E98 
 536      FB6F
 537 01c7 EEEC016A 		.ascii	"\356\354\001j\230\365\376L\334\233\371q\321\214\344"
 537      98F5FE4C 
 537      DC9BF971 
 537      D18CE4
 538 01d6 A2947EC4 		.ascii	"\242\224~\304\245\026e\371\314\312\370O\017\250\257"
 538      A51665F9 
 538      CCCAF84F 
 538      0FA8AF
 539 01e5 9512B8B8 		.ascii	"\225\022\270\2709\032\245\034\017#\"@\303\213\320\010"
 539      391AA51C 
 539      0F232240 
 539      C38BD008 
 540 01f5 1612A2EF 		.ascii	"\026\022\242\357\322Zb\205\211hC-;*8P\301\011\372\274"
 540      D25A6285 
 540      8968432D 
 540      3B2A3850 
 540      C109FABC 
 541 0209 0BA76E9C 		.ascii	"\013\247n\234z`*xA\377\022\350\027\240~!4\326\"l\212"
 541      7A602A78 
 541      41FF12E8 
 541      17A07E21 
 541      34D6226C 
 542 021e 715A824D 		.ascii	"qZ\202M)(\\\005\2052\234\370p\255\034\233\012\234Vb"
 542      29285C05 
 542      85329CF8 
 542      70AD1C9B 
 542      0A9C5662 
 543 0232 E387C656 		.ascii	"\343\207\306V\205\3156\234n\307\246\032\032{\015z\332"
ARM GAS  /tmp/ccAE1QPe.s 			page 43


 543      85CD369C 
 543      6EC7A61A 
 543      1A7B0D7A 
 543      DA
 544 0243 819E6AB1 		.ascii	"\201\236j\261\251\303\205z\324\333\211\243]`\367K\260"
 544      A9C3857A 
 544      D4DB89A3 
 544      5D60F74B 
 544      B0
 545 0254 DB8093DD 		.ascii	"\333\200\223\335\250\272\007G{!(\261\021\247M\010j\306"
 545      A8BA0747 
 545      7B2128B1 
 545      11A74D08 
 545      6AC6
 546 0266 9C02A03A 		.ascii	"\234\002\240:\015\252A\350o@\337B\224W\013\021\311 "
 546      0DAA41E8 
 546      6F40DF42 
 546      94570B11 
 546      C920
 547 0278 94BB268A 		.ascii	"\224\273&\212\017\300\036\205\255#Z\013\357N\276\003"
 547      0FC01E85 
 547      AD235A0B 
 547      EF4EBE03 
 548 0288 6BCF4F93 		.ascii	"k\317O\223\376\371$<\376Bt\006>\2730\345\033\311\373"
 548      FEF9243C 
 548      FE427406 
 548      3EBB30E5 
 548      1BC9FB
 549 029b 5241843A 		.ascii	"RA\204:\316\223s\300\2643L9d\334\245\320\334\315(\007"
 549      CE9373C0 
 549      B4334C39 
 549      64DCA5D0 
 549      DCCD2807 
 550 02af D8D2C0AF 		.ascii	"\330\322\300\257TG\011a46M\006>\030XeB\021\201\002\305"
 550      54470961 
 550      34364D06 
 550      3E185865 
 550      42118102 
 551 02c4 65053079 		.ascii	"e\0050y\331\243/Y\300z\\B?\356W\310=\351\024\216<jA"
 551      D9A32F59 
 551      C07A5C42 
 551      3FEE57C8 
 551      3DE9148E 
 552 02db 11E4615E 		.ascii	"\021\344a^\006\256\361:\306\012\026\303\230\327\004"
 552      06AEF13A 
 552      C60A16C3 
 552      98D704
 553 02ea 19BC1577 		.ascii	"\031\274\025w3q\247z\014\244\177\035\350\017\023K\316"
 553      3371A77A 
 553      0CA47F1D 
 553      E80F134B 
 553      CE
 554 02fb DE6ED4D5 		.ascii	"\336n\324\325l\250f\241LE\324s\377s\231y\260o\"\367"
 554      6CA866A1 
 554      4C45D473 
 554      FF739979 
 554      B06F22F7 
ARM GAS  /tmp/ccAE1QPe.s 			page 44


 555 030f DF391DE5 		.ascii	"\3379\035\345\010\343\031\016\302\251\313~U\206f\340"
 555      08E3190E 
 555      C2A9CB7E 
 555      558666E0 
 556 031f 370E586F 		.ascii	"7\016Xo3\271\204\343\256\010-`9\027\262\234\213\242"
 556      33B984E3 
 556      AE082D60 
 556      3917B29C 
 556      8BA2
 557 0331 4AA1D04B 		.ascii	"J\241\320K\221b\033\314i^\272)\325$N\305\372\374lF\244"
 557      91621BCC 
 557      695EBA29 
 557      D5244EC5 
 557      FAFC6C46 
 558 0346 2E5391BA 		.ascii	".S\221\272\303\250\261N\244\305\233\216\324\315\"\345"
 558      C3A8B14E 
 558      A4C59B8E 
 558      D4CD22E5 
 559 0356 348947AD 		.ascii	"4\211G\255sry\212E\3525Q\351\002\200)U\305\177\227&"
 559      7372798A 
 559      45EA3551 
 559      E9028029 
 559      55C57F97 
 560 036b C817BFA5 		.ascii	"\310\027\277\245\253]\220\247\332\026\275\332\313\254"
 560      AB5D90A7 
 560      DA16BDDA 
 560      CBAC
 561 0379 DA85A866 		.ascii	"\332\205\250f\225FOI\202J\303c\372JQ\326\312g\317\351"
 561      95464F49 
 561      824AC363 
 561      FA4A51D6 
 561      CA67CFE9 
 562 038d 2BC548C6 		.ascii	"+\305H\306`\034\342+QY-\325\265\265,\371t\254\237\260"
 562      601CE22B 
 562      51592DD5 
 562      B5B52CF9 
 562      74AC9FB0 
 563 03a1 584B00A8 		.ascii	"XK\000\250\304DUsO\245\211\315\262U\230k\013\340z\022"
 563      C4445573 
 563      4FA589CD 
 563      B255986B 
 563      0BE07A12 
 564 03b5 563589C9 		.ascii	"V5\211\311\344\3354w\245&\270+\003\230\022\217T\235"
 564      E4DD3477 
 564      A526B82B 
 564      0398128F 
 564      549D
 565 03c7 435E591E 		.ascii	"C^Y\036\362l:yw\031y\276u\311+_\227\274\212<\011\227"
 565      F26C3A79 
 565      771979BE 
 565      75C92B5F 
 565      97BC8A3C 
 566 03dd 3F94BC4A 		.ascii	"?\224\274J\000v\252\217\342\207\220\347\313G^\245\236"
 566      0076AA8F 
 566      E28790E7 
 566      CB475EA5 
 566      9E
ARM GAS  /tmp/ccAE1QPe.s 			page 45


 567 03ee 845DDBCC 		.ascii	"\204]\333\314\177\255\370u\323~m\207\224\345\337!\002"
 567      7FADF875 
 567      D37E6D87 
 567      94E5DF21 
 567      02
 568 03ff 0BA79FE5 		.ascii	"\013\247\237\345Pe\024\222N{[v\250>0\203\2402\015$2"
 568      50651492 
 568      4E7B5B76 
 568      A83E3083 
 568      A0320D24 
 569 0414 50468DB6 		.ascii	"PF\215\266\003PI\033^\264\262w\303\324\301\236?\327"
 569      0350491B 
 569      5EB4B277 
 569      C3D4C19E 
 569      3FD7
 570 0426 1E98581B 		.ascii	"\036\230X\033z\265\026zy\376\320-y\262\255\331\370\010"
 570      7AB5167A 
 570      79FED02D 
 570      79B2ADD9 
 570      F808
 571 0438 B1A6214B 		.ascii	"\261\246!K,\360\035\000S\217y&\252E\020\357\305\305"
 571      2CF01D00 
 571      538F7926 
 571      AA4510EF 
 571      C5C5
 572 044a 2CE53A58 		.ascii	",\345:X\314I\215\262\314* j\304\226k\016mZfu\352i7|"
 572      CC498DB2 
 572      CC2A206A 
 572      C4966B0E 
 572      6D5A6675 
 573 0462 6F8A5D24 		.ascii	"o\212]$\365\206\013\223\034\362d\362(ud\022Y\237K$J"
 573      F5860B93 
 573      1CF264F2 
 573      28756412 
 573      599F4B24 
 574 0477 4AB434E7 		.ascii	"J\2644\347\207\357\177+\350.wj.+\363\273\264\247\331"
 574      87EF7F2B 
 574      E82E776A 
 574      2E2BF3BB 
 574      B4A7D9
 575 048a 99FC86DD 		.ascii	"\231\374\206\335j\273L\354\327\006\360\005\310\354\255"
 575      6ABB4CEC 
 575      D706F005 
 575      C8ECAD
 576 0499 DA9067AB 		.ascii	"\332\220g\253\302\315\300+w\337w\214\031'\252y\327\252"
 576      C2CDC02B 
 576      77DF778C 
 576      1927AA79 
 576      D7AA
 577 04ab 39B5CD30 		.ascii	"9\265\3150{\377&\363\262{\343b;Xdp_|\314\254\357\001"
 577      7BFF26F3 
 577      B27BE362 
 577      3B586470 
 577      5F7CCCAC 
 578 04c1 20213788 		.ascii	" !7\210\3668 \204e\345\357a\267\023(\355\215\320*\335"
 578      F6382084 
 578      65E5EF61 
ARM GAS  /tmp/ccAE1QPe.s 			page 46


 578      B71328ED 
 578      8DD02ADD 
 579 04d5 BB4BF7BE 		.ascii	"\273K\367\276z\223\221\331\270\211\333\352\012\363\336"
 579      7A9391D9 
 579      B889DBEA 
 579      0AF3DE
 580 04e4 0440ED4D 		.ascii	"\004@\355M\261\304\204\315\354M\321\244\262?\344\324"
 580      B1C484CD 
 580      EC4DD1A4 
 580      B23FE4D4 
 581 04f4 970286D9 		.ascii	"\227\002\206\331O\037@A\260\010H\305\224\366\231\032"
 581      4F1F4041 
 581      B00848C5 
 581      94F6991A 
 582 0504 B1024005 		.ascii	"\261\002@\005\222\034\226\331\201\323\242<0\322e\200"
 582      921C96D9 
 582      81D3A23C 
 582      30D26580 
 583 0514 DB919F22 		.ascii	"\333\221\237\"q\370\254\217\342f\232Q\206a\225\2669"
 583      71F8AC8F 
 583      E2669A51 
 583      866195B6 
 583      39
 584 0525 42E14522 		.ascii	"B\341E\"\334Z\201\223\255\305\365\265\354\3067\031\254"
 584      DC5A8193 
 584      ADC5F5B5 
 584      ECC63719 
 584      AC
 585 0536 E031B82F 		.ascii	"\3401\270/\020\010>y,\322\0359t8x<\026<\026z)x\342\370"
 585      10083E79 
 585      2CD21D39 
 585      7438783C 
 585      163C167A 
 586 054e C9DE58F0 		.ascii	"\311\336X\360\360\221\203\355m\301\003\007\366\007\367"
 586      F09183ED 
 586      6DC10307 
 586      F607F7
 587 055d 1F7CE2E5 		.ascii	"\037|\342\345\326`\2547\332\336\326u4\032\012\364\220"
 587      D660AC37 
 587      DADED675 
 587      341A0AF4 
 587      90
 588 056e 22E8BA62 		.ascii	"\"\350\272b\275'_\010Ec]\321P\354\305@K\256\2505W\324"
 588      BD275F08 
 588      45635DD1 
 588      50ECC540 
 588      4BAEA835 
 589 0584 962B6ACF 		.ascii	"\226+j\317\025\355\313\025=\362\017\276\023q\327"
 589      15EDCB15 
 589      3DF20FBE 
 589      1371D7
 590              		.text
 591              		.section	.gnu.lto_dmaStreamRelease.416affff27a3016b,"",%progbits
 592 0000 789CDD56 		.ascii	"x\234\335V_hSg\024?\347\273\177\2224M\223&\255\366\337"
 592      5F685367 
 592      143FE7BB 
 592      7F92344D 
ARM GAS  /tmp/ccAE1QPe.s 			page 47


 592      9326ADF6 
 593 0015 98D4C7B1 		.ascii	"\230\324\307\261f\3251\365Ae\314\227\212E\301\312\334"
 593      66D531F5 
 593      4165CC97 
 593      8A45C1CA 
 593      DC
 594 0026 6094D88D 		.ascii	"`\224\330\215\030\266\213b\312^\366\320\233\246\017"
 594      18B68B62 
 594      CA5EF6D0 
 594      9BA60F
 595 0035 32322855 		.ascii	"22(Uq\352\204\372 H\347\252V\204\340ddC$\005E|S\307"
 595      71EA84FA 
 595      2048E7AA 
 595      5684E064 
 595      64432405 
 596 004d A0D48D89 		.ascii	"\240\324\215\211\017\262\315\247\375q\3319\367\346\273"
 596      0FB2CDA7 
 596      FD71D939 
 596      F7E6BB
 597 005c 4993DB2D 		.ascii	"I\223\333-\275\254{\330\205|\177\316w~\347\374\316\357"
 597      BDAC7BD8 
 597      857C7FCE 
 597      777EE7FC 
 597      CEEF
 598 006e FBBE7B23 		.ascii	"\373\276{#@@\355\363&\375\236\204\000fx\322\004H\036"
 598      4040EDF3 
 598      26FD9E84 
 598      006678D2 
 598      04481E
 599 0081 2850A156 		.ascii	"(P\241V\021*\200)4jT\025\251CM\350l\361\261EG\352\320"
 599      112A8029 
 599      346A5415 
 599      A9434DE8 
 599      6CF1B145 
 600 0098 27FC6C09 		.ascii	"'\374l\011\260\305\217\324a\000\221\002!\214\011E\325"
 600      B0C58FD4 
 600      61009102 
 600      218C0945 
 600      D5
 601 00a9 749F3F80 		.ascii	"t\237?\200co\261\005z{\341\234iN-\234\237\311)'\217"
 601      636FB105 
 601      7A7BE19C 
 601      694E2D9C 
 601      9FC92927 
 602 00be 1732D3E6 		.ascii	"\0272\323\346\037\245\022b\212\027G\020\366\323\010"
 602      1FA51262 
 602      8A174710 
 602      F6D308
 603 00cd FD562770 		.ascii	"\375V'p)E\0138i\316]0\003\026HI1?\211Ygc\324\177\011"
 603      29450B38 
 603      69CE5D30 
 603      03164849 
 603      313F8959 
 604 00e6 33B504A3 		.ascii	"3\265\004\243z\301\010\330\204\253\226\252\360\355\342"
 604      7AC108D8 
 604      84AB96AA 
 604      F0EDE2
ARM GAS  /tmp/ccAE1QPe.s 			page 48


 605 00f5 63D5937E 		.ascii	"c\325\223~\277~\277\247hN\024J\245\355\336\264\320\032"
 605      BF7EBFA7 
 605      684E144A 
 605      A5EDDEB4 
 605      D01A
 606 0107 C43CA8CA 		.ascii	"\304<\250\312\323(\246F\277\235\015\3537^\015{\307\025"
 606      D328A646 
 606      BF9D0DEB 
 606      375E0D7B 
 606      C715
 607 0119 66602DAE 		.ascii	"f`-\256\360\363bQ=u\2740\341h\330\350>?\253\252\215"
 607      F0F36251 
 607      3D75BC30 
 607      E168D8E8 
 607      3E3FABAA 
 608 012e 121E5EC5 		.ascii	"\022\036^\305}~\266\370\330\313=\2312\277\253\346\330"
 608      7D7EB6F8 
 608      D8CB3D99 
 608      32BFABE6 
 608      D8
 609 013f 60B2DF17 		.ascii	"`\262\337\027\177\362v)\257\375\260\342CUx\376_&;\366"
 609      7FF27629 
 609      AFFDB0E2 
 609      435578FE 
 609      5F263BF6 
 610 0153 A8A82CDD 		.ascii	"\250\250,\335j\001Y\\\305};\361\350B\347\307\323\343"
 610      6A01595C 
 610      C57D3BF1 
 610      E842E7C7 
 610      D3E3
 611 0165 93E69F94 		.ascii	"\223\346\237\224/\205\272\207\033\340\005\343\351M\325"
 611      2F85BA87 
 611      1BE005E3 
 611      E94DD5
 612 0174 6049675C 		.ascii	"`Ig\\4<\271\232\032\236\375\037ih ^\022\205\205R\351"
 612      343CB99A 
 612      1A9EFD1F 
 612      6968205E 
 612      12858552 
 613 0189 F6B15B37 		.ascii	"\366\261[7>\303O\326\277\200h\240\020@\347^\241FQ\251"
 613      3EC34FD6 
 613      BF8068A0 
 613      1040E75E 
 613      A14651A9 
 614 019d D1346E74 		.ascii	"\3214ntH\340E\354\005\037\365\263\324\373\311\250\006"
 614      48E045EC 
 614      051FF5B3 
 614      D4FBC9A8 
 614      06
 615 01ae 68728526 		.ascii	"hr\205&M<\0112\252\231G!\036\2650>\314\243\010\217Z"
 615      4D3C0932 
 615      AA994721 
 615      1EB5303E 
 615      CCA3088F 
 616 01c3 C9F53AB9 		.ascii	"\311\365:\271F\331!F\215\336\306M;O\327p\263\226\034"
 616      46D92146 
 616      8DDEC64D 
ARM GAS  /tmp/ccAE1QPe.s 			page 49


 616      3B4FD770 
 616      B3961C
 617 01d6 BE26870E 		.ascii	"\276&\207\016\236t\362Z\0277\335<\355\001\253\030\320"
 617      9E74F25A 
 617      1737DD3C 
 617      ED01AB18 
 617      D0
 618 01e7 6082EEDA 		.ascii	"`\202\356\332:\203\277\343#\326=\034*\267\364\327@\331"
 618      3A83BFE3 
 618      23D63D1C 
 618      2AB7F4D7 
 618      40D9
 619 01f9 C7174FB9 		.ascii	"\307\027O\271\003\343\017\363\237\347\006\023X\244W"
 619      03E30FF3 
 619      9FE70613 
 619      58A457
 620 0208 7C12C54B 		.ascii	"|\022\305K0cFR\350;\003\247I\002\177\022\221\245\010"
 620      30634652 
 620      E83B03A7 
 620      49027F12 
 620      91A508
 621 021b 58021C70 		.ascii	"X\002\034p.3\301\236f\177A\211R\222\034\362\016d\277"
 621      2E33C19E 
 621      667F4189 
 621      52921CF2 
 621      0E64BF
 622 022e 50A44965 		.ascii	"P\244Ie\230\206\274h\271\337\310~\345\270kI\346G\306"
 622      9886BC68 
 622      B9DFC87E 
 622      E5B86B49 
 622      E647C6
 623 0241 F9C9A0B4 		.ascii	"\371\311\240\264\351\2240cr\352\246\217\3407\363(\217"
 623      E9943063 
 623      72EAA68F 
 623      E037F328 
 623      8F
 624 0252 82F60B9F 		.ascii	"\202\366\013\237#\005\235\304\331/\235\034>+\224n\205"
 624      23059DC4 
 624      D92F9D1C 
 624      3E2B946E 
 624      85
 625 0263 1AB08D8D 		.ascii	"\032\260\215\215DI\362\037\036.\374\323\331\334\200"
 625      4449F21F 
 625      1E2EFCD3 
 625      D9DC80
 626 0272 8CE52F17 		.ascii	"\214\345/\027\336\354^8V\012\237\277\334\"A\001\017"
 626      DEEC5E38 
 626      560A9FBF 
 626      DC224101 
 626      0F
 627 0283 A49B921C 		.ascii	"\244\233\222\034\234\342\026\341\346\217\231\220c\336"
 627      9CE216E1 
 627      E68F9990 
 627      63DE
 628 0291 6F7FBC2A 		.ascii	"o\177\274*\317>\236\332\0334\233\333*\375\202\177\277"
 628      CF3E9EDA 
 628      1B349BDB 
ARM GAS  /tmp/ccAE1QPe.s 			page 50


 628      2AFD827F 
 628      BF
 629 02a2 41A2C2F3 		.ascii	"A\242\302\363i\366\272\243xs\222\311\334\005\3256\000"
 629      69F6BAA3 
 629      787392C9 
 629      DC05D536 
 629      00
 630 02b3 38744323 		.ascii	"8tC#\345\332\310)\205-2\265&S_\312m\223AB+8\033O\204"
 630      E5DAC829 
 630      852D32B5 
 630      26535FCA 
 630      6D934142 
 631 02cc 44B510D0 		.ascii	"D\265\020\3202\346/w\3336\016C\3175\302\206_\206\213"
 631      32E62F77 
 631      DB360E43 
 631      CF35C286 
 631      5F868B
 632 02df 3C1E4E61 		.ascii	"<\036Na\304\321\262\325!\0275\370\364XZF\313$\313\014"
 632      C4D1B2D5 
 632      211735F8 
 632      F4585A46 
 632      CB24CB0C 
 633 02f3 299F0252 		.ascii	")\237\002R\347p9\355\303\373Ul\303\236\330F\222\034"
 633      E77039ED 
 633      C3FB556C 
 633      C39ED846 
 633      921C
 634 0305 6D19B6B1 		.ascii	"m\031\266\261\025\263\2158lU\207mL\236\243\374\\n\213"
 634      15B38D38 
 634      6C55876D 
 634      4C9EA3FC 
 634      5C6E8B
 635 0318 CCDBEAE1 		.ascii	"\314\333\352\341$E\011f\235\2321\250=MQ\227\323\244"
 635      24450966 
 635      9D9A31A8 
 635      3D4D5197 
 635      D3A4
 636 032a DB5B9ABF 		.ascii	"\333[\232\277?\227\323\244_\214\375ts\372\250\251\332"
 636      3F97D3A4 
 636      5F8CFD74 
 636      73FAA8A9 
 636      DA
 637 033b A436CB95 		.ascii	"\2446\313\225\266\232\225o\336\226+\355\254\310D\206"
 637      B69A956F 
 637      DE962BED 
 637      ACC84486 
 638 034b 08B6D9D2 		.ascii	"\010\266\331\322\266K\357r\251\232\033\3315\004\264"
 638      B64BEF72 
 638      A99A1BD9 
 638      3504B4
 639 035a 48D187A0 		.ascii	"H\321\207\240\024\266C\016T\024\256\211\027\253\217"
 639      14B6430E 
 639      5414AE89 
 639      17AB8F
 640 0369 47216425 		.ascii	"G!d%>\273\222\371\374\325\212\200k=\010\330A0\213\223"
 640      3EBB92F9 
 640      FCD58A80 
ARM GAS  /tmp/ccAE1QPe.s 			page 51


 640      6B3D08D8 
 640      41308B93 
 641 037d F9629D82 		.ascii	"\371b\235\202\035.\012\372\245\202W+\012v.\253`\327"
 641      1D2E0AFA 
 641      A582572B 
 641      0A762EAB 
 641      60D7
 642 038f B20A76BB 		.ascii	"\262\012v\273T\334\365\217\012\366\020\320\"\365\274"
 642      54DCF58F 
 642      0AF610D0 
 642      22F5BC
 643 039e 11053BDD 		.ascii	"\021\005;\335\024\354\221\225\320-P\356Af\341\301\025"
 643      14EC9195 
 643      D02D50EE 
 643      4166E1C1 
 643      15
 644 03af E78D603F 		.ascii	"\347\215`?C\3746\340\227\310\253}}\3617\016\246\016"
 644      43FC36E0 
 644      97C8AB7D 
 644      7DF1370E 
 644      A60E
 645 03c1 A476EF8D 		.ascii	"\244v\357\215\037J\307\017&>\210\037>td4\035\337;4\270"
 645      1F4AC70F 
 645      263E881F 
 645      3E746434 
 645      1DDF3B34 
 646 03d6 71437CD7 		.ascii	"qC|\327\256\035\361\035\203\257\177\330\037O\217\032"
 646      AE1DF11D 
 646      83AF7FD8 
 646      1F4F8F1A 
 647 03e6 1B370CBF 		.ascii	"\0337\014\277k$\372F J\335pz\364\310{\011#=l$\322\357"
 647      6B24FA46 
 647      204ADD70 
 647      7AF4C87B 
 647      09233D6C 
 648 03fd F7BD566F 		.ascii	"\367\275Vo\332To\332\\o\332\022\2533\365\277\342b\353"
 648      DA546FDA 
 648      5C6FDA12 
 648      AB33F5BF 
 648      E262EB
 649 0410 FF0B01CF 		.ascii	"\377\013\001\317J\322"
 649      4AD2
 650              		.text
 651              		.section	.gnu.lto_.symbol_nodes.416affff27a3016b,"",%progbits
 652 0000 789C4DCF 		.ascii	"x\234M\317;N\003Q\014\005P\277\373\346\315\037\222\000"
 652      3B4E0351 
 652      0C0550BF 
 652      FBE6CD1F 
 652      9200
 653 0012 FD2CF546 		.ascii	"\375,\365F\242\000A\023\022\276\341\227d\224\355Pf\011"
 653      A2004113 
 653      12BEE197 
 653      6494ED50 
 653      6609
 654 0024 A9A66303 		.ascii	"\251\246c\003\200l1vsu,\027\327\020\3101\210\016V\240"
 654      806C3176 
 654      73752C17 
ARM GAS  /tmp/ccAE1QPe.s 			page 52


 654      D710C831 
 654      880E56A0 
 655 0038 C8E24B84 		.ascii	"\310\342K\204<\\\207t\007)(\270\007\303\270\305\003"
 655      3C5C8774 
 655      072928B8 
 655      07C3B8C5 
 655      03
 656 0049 08C74730 		.ascii	"\010\307G0:>\201\231\3433\230\034_\300\334q\015\026"
 656      3A3E8199 
 656      E333981C 
 656      5FC0DC71 
 656      0D16
 657 005b 8EAF60E9 		.ascii	"\216\257`\351\370\006V\216\357`\355\370\0016\216\237"
 657      F806568E 
 657      EF60EDF8 
 657      01368E9F 
 658 006b 60EBAA2F 		.ascii	"`\353\252/\021r\306\264\000\376>\330\200'\356v\013\236"
 658      1172C6B4 
 658      00FE3ED8 
 658      8027EE76 
 658      0B9E
 659 007d 8E0C3B70 		.ascii	"\216\014;p\242\234\317C\350\301\351\250=8\373W\2243"
 659      A29CCF43 
 659      E8C1E9A8 
 659      3D38FB57 
 659      9433
 660 008f B9BC1DBA 		.ascii	"\271\274\035\272L\344\373f\350\"\214PFcTf\306L\231\214"
 660      4CE4FB66 
 660      E8228C50 
 660      46635466 
 660      C64C998C 
 661 00a3 49991B73 		.ascii	"I\231\033sea,\224\245\261TV\306JY\033kecl\224\255\261"
 661      65612C94 
 661      A5B15456 
 661      C64A591B 
 661      6B65636C 
 662 00ba 554ECFA5 		.ascii	"UN\317\245_\377\346\354B\372\253\241\223\037\033-\227"
 662      5FFFE6EC 
 662      42FAABA1 
 662      931F1B2D 
 662      97
 663 00cb B3       		.ascii	"\263"
 664              		.text
 665              		.section	.gnu.lto_.refs.416affff27a3016b,"",%progbits
 666 0000 789C4DC8 		.ascii	"x\234M\310[\016\2000\014\003A'\001Z^)\234\233KC\325"
 666      5B0E8030 
 666      0C034127 
 666      015A5E29 
 666      9C9B4B43 
 667 0015 FDC0963C 		.ascii	"\375\300\226<\222]\256G#!Yo8\006N8\343\202\005+\256"
 667      925DAE47 
 667      2321596F 
 667      38064E38 
 667      E382052B 
 668 002a B8E18E07 		.ascii	"\270\341\216\007\236\226jf\365R\332\027\345\250e\271"
 668      9E966A66 
 668      F552DA17 
ARM GAS  /tmp/ccAE1QPe.s 			page 53


 668      E5A865B9 
 669 003a FBFEDE17 		.ascii	"\373\376\336\027\233h\002)"
 669      9B680229 
 670              		.text
 671              		.section	.gnu.lto_.decls.416affff27a3016b,"",%progbits
 672 0000 789CBD9A 		.ascii	"x\234\275\232}p\224\305\035\307w\237\273$\027\022C@"
 672      7D7094C5 
 672      1DC7779F 
 672      BB241712 
 672      4340
 673 0012 4AB1D30E 		.ascii	"J\261\323\016\321\326\326\321\206\313\233%\366E\010"
 673      D1D6D6D1 
 673      86CB9B25 
 673      F64508
 674 0021 870A3362 		.ascii	"\207\0123bi\202\266\375\243s>\\\236\230\033\223\273"
 674      6982B6FD 
 674      A3733E5C 
 674      9E981B93 
 674      BB
 675 0032 787760FC 		.ascii	"xw`\374\243\343C\0224Z-\021\244\005\301\020T\242X(\020"
 675      A3E34312 
 675      345A2D11 
 675      A405C110 
 675      54A25828 
 676 0047 1B45D1E4 		.ascii	"\033E\321\344\300XQl\023\211\274T\224\3340\212\025\230"
 676      C058516C 
 676      1389BC54 
 676      94DC308A 
 676      1598
 677 0059 905AAB52 		.ascii	"\220Z\253R\220\353o\367y\335\347\236\347\311\3630\235"
 677      90EB6FF7 
 677      79DDE79E 
 677      E7C9F330 
 677      9D
 678 006a DCCC6F6F 		.ascii	"\334\314oo\357\271\335\357~\366\267\357{\307!\016\215"
 678      EFB9DDEF 
 678      7EF6B7EF 
 678      7BC7210E 
 678      8D
 679 007b F9104AC3 		.ascii	"\371\020J\303k\3275\010\265y\021*D\010\335\210\264\327"
 679      6BD73508 
 679      B579112A 
 679      4408DD88 
 679      B4D7
 680 008d 54B0CD60 		.ascii	"T\260\315`\335`[\301\266\201\355\000\353\001\353\005"
 680      DD605BC1 
 680      B681ED00 
 680      EB01EB05 
 681 009d DB0DB607 		.ascii	"\333\015\266\007\254\017l/\330\000\330\233`o\203\315"
 681      AC0F6C2F 
 681      D800D89B 
 681      606F83CD 
 682 00ad C4085D0D 		.ascii	"\304\010]\015\366\003\260\037\202y\340Y\011\274\377"
 682      F603B01F 
 682      8279E059 
 682      09BCFF
 683 00bc 0C6C0E46 		.ascii	"\014l\016F\314\213\224q9\030y\\\000\226\017v\004,\007"
ARM GAS  /tmp/ccAE1QPe.s 			page 54


 683      CC8B9471 
 683      3918795C 
 683      00960F76 
 683      042C07
 684 00cf CC4BBE23 		.ascii	"\314K\276#y\340=\005v\034\354(\330bxv\031X\031X)\330"
 684      79E03D05 
 684      761CEC28 
 684      D8627876 
 684      19581958 
 685 00e5 2FC00AC0 		.ascii	"/\300\012\300\252\301\236\222\363}\010v\022l6<\273\001"
 685      AAC19E92 
 685      F37D0876 
 685      126C363C 
 685      BB01
 686 00f7 8C93CB22 		.ascii	"\214\223\313\"\\X\346\321\277\272'\220\243\333\206c"
 686      5C58E6D1 
 686      BFBA2790 
 686      A3DB8663 
 687 0107 EB04726C 		.ascii	"\353\004rl\265\341\3306\201\034\333l8vL \307\016\033"
 687      B5E1D836 
 687      811CDB6C 
 687      38764C20 
 687      C70E1B
 688 011a 8E9E09E4 		.ascii	"\216\236\011\344\350\261\341\350\235@\216^\033\216\335"
 688      E8B1E1E8 
 688      9D408E5E 
 688      1B8EDD
 689 0129 13C8B1DB 		.ascii	"\023\310\261\333\206c\317\004r\354\261\341\350\233@"
 689      8663CF04 
 689      72ECB1E1 
 689      E89B40
 690 0138 8E3E1B8E 		.ascii	"\216>\033\216\275\023\310\261\327\206c`\0029\006l8\310"
 690      BD13C8B1 
 690      D7866360 
 690      0239066C 
 690      38C8
 691 014a 9A44D6B2 		.ascii	"\232D\326\262S\006\016\257\\v\015\244_\002\366.\304"
 691      53060EAF 
 691      5C760DA4 
 691      5F02F62E 
 691      C4
 692 015b E7C2FBED 		.ascii	"\347\302\373\355X\3429\2152Y\216\312\371>\005\033\223"
 692      58E2398D 
 692      32598ECA 
 692      F93E051B 
 692      93
 693 016c 194ECA75 		.ascii	"\031N\312u$\345\220uNY\343\214\034d]\374\216\301\037"
 693      24E59075 
 693      4E59E38C 
 693      1C645DFC 
 693      8EC11F
 694 017f 442B4BF6 		.ascii	"D+K\366\311;`w`\211\223\360-\227\231\206t\234F\2369"
 694      C93B6077 
 694      608993F0 
 694      2D979986 
 694      749C469E 
 695 0194 B2EF7E29 		.ascii	"\262\357~)\327\341\264\354C\302y/\2747\203]\003\226"
ARM GAS  /tmp/ccAE1QPe.s 			page 55


 695      D7E1B4EC 
 695      43C2792F 
 695      BC37835D 
 695      0396
 696 01a6 079FB3B1 		.ascii	"\007\237\263\261\346\263:\254\325\3410\330E\331\247"
 696      E6B33AAC 
 696      D5E130D8 
 696      45D9A7
 697 01b5 E7C07CB2 		.ascii	"\347\300|\262O\011/Y\277}r\235\356\003\233\016\366-"
 697      4F092F59 
 697      BF7D729D 
 697      EE039B0E 
 697      F62D
 698 01c7 B06F83CD 		.ascii	"\260o\203\315\220\353\330j\250'Y\373\247\233\3243G\256"
 698      90EBD86A 
 698      A82759FB 
 698      A79BD433 
 698      47AE
 699 01d9 2BA9A359 		.ascii	"+\251\243Y\335\010o\033X\3618\365\314\226\353\242\260"
 699      DD086F1B 
 699      58F138F5 
 699      CC96EBA2 
 699      B0
 700 01ea EAEBC4C9 		.ascii	"\352\353\304\311\345\223=\207W\346^\011\366]\223\366"
 700      E5933D87 
 700      57E65E09 
 700      F65D93F6 
 701 01fa 98893AC5 		.ascii	"\230\211:\305\256dj\345'\017]!v\265$\323\351\376\271"
 701      AE646AE5 
 701      270F5D21 
 701      76B524D3 
 701      E9FEB9
 702 020d C0BD5684 		.ascii	"\300\275V\204W\327\003\242\210\023<\276\361\033\350"
 702      57D703A2 
 702      88133CBE 
 702      F11BE8
 703 021c 5798C705 		.ascii	"W\230\307\005\271\250\210F\362s\251*B<~\012O\227c\267"
 703      B9A88846 
 703      F273A92A 
 703      423C7E0A 
 703      4F9763B7 
 704 0230 7B243D8E 		.ascii	"{$=\216\220\\\213\266B\376\016Ql\271\312P\234\374\372"
 704      905C8BB6 
 704      42FE0E51 
 704      6CB9CA50 
 704      9CFCFA
 705 0243 3EDA424A 		.ascii	">\332BJ\020\237\023=T\237(l\3063\365Ix\3744\3462I\223"
 705      109F133D 
 705      549F286C 
 705      C633F549 
 705      78FC34E6 
 706 025a 5FFD3DBF 		.ascii	"_\375=\277cE*\235\336T$\025\317\241[0$~\006_k\253\336"
 706      63452A9D 
 706      DE542415 
 706      CFA15B30 
 706      247E065F 
 707 0271 6D547FD6 		.ascii	"mT\177\326T}\367\240Q}\261\023\365\255F\365\347\315"
ARM GAS  /tmp/ccAE1QPe.s 			page 56


 707      547DF7A0 
 707      517DB113 
 707      F5AD46F5 
 707      E7CD
 708 0283 D933D47F 		.ascii	"\3313\324\177\355D}\233Q}\2739\373A\243\372R'\352;\214"
 708      ED447D9B 
 708      517DBB39 
 708      FB41A3FA 
 708      5227EA3B 
 709 0298 EA3BCDD9 		.ascii	"\352;\315\3313\324\357v\242\336cT\177\301\234}\330\250"
 709      33D4EF76 
 709      A2DE6354 
 709      7FC19C7D 
 709      D8A8
 710 02aa 9E70A2DE 		.ascii	"\236p\242\336kT\177\321\234=C\375\267N\324w\033\325"
 710      6B547FD1 
 710      9C3D43FD 
 710      B74ED477 
 710      1BD5
 711 02bc 5F36673F 		.ascii	"_6g?lT\177\020;\221\337c\224\177\325\034>C\3761G\362"
 711      6C547F10 
 711      3B91DF63 
 711      947FD51C 
 711      3E43FE31 
 712 02d2 7D46F97E 		.ascii	"}F\371~s\372#F\371\015\216\344\367\032\345\367\231\323"
 712      73FA2346 
 712      F90D8EE4 
 712      F71AE5F7 
 712      99D3
 713 02e4 67C86F71 		.ascii	"g\310oq$?`\224\177\303T\276\177\303\001,\256\026/\244"
 713      243F6094 
 713      7FC354BE 
 713      7FC3012C 
 713      AE162FA4 
 714 02f8 D3AD5EA4 		.ascii	"\323\255^\244\224\260\303Q\011o\032K\330oZ\302\373\307"
 714      94B0C351 
 714      096F1A4B 
 714      D86F5AC2 
 714      FBC7
 715 030a 950A30D3 		.ascii	"\225\0120\323\242\017=\010\323\233\230Z)\256\300\367"
 715      A20F3D08 
 715      D39B985A 
 715      29AEC0F7 
 716 031a 206582F4 		.ascii	" e\202\364)\023$\231\366\256F\317H\263 \307\343w\260"
 716      29132499 
 716      F6AE46CF 
 716      48B320C7 
 716      E377B0
 717 032d 0FC05EC2 		.ascii	"\017\300^\302\346\323!\222\022\220\027\311/\305\225"
 717      E6D32192 
 717      129017C9 
 717      2FC595
 718 033c 184696D3 		.ascii	"\030F\226\323\357\001y\372\365\320)\037\326\267\207"
 718      EF0179FA 
 718      F5D0291F 
 718      D6B787
 719 034b 0913002E 		.ascii	"\011\023\000.\330_0\025=Fi\001v\177\201*\321\205\025"
ARM GAS  /tmp/ccAE1QPe.s 			page 57


 719      D85F3015 
 719      3D466901 
 719      767F812A 
 719      D18515
 720 035e 8D690A61 		.ascii	"\215i\012aG\352\374\357\316\226\213\242O\316Qd\231\234"
 720      47EAFCEF 
 720      CE968BA2 
 720      4FCE5164 
 720      999C
 721 0370 C707F1D5 		.ascii	"\307\007\361\325h\334d$\341{x\252\334\004\222\027\222"
 721      68DC6424 
 721      E17B78AA 
 721      DC049217 
 721      92
 722 0381 EB07F345 		.ascii	"\353\007\363E\257\364\034\031\032G\367\272\022\001o"
 722      AFF41C19 
 722      1A47F7BA 
 722      12016F
 723 0390 4B72C3AA 		.ascii	"Kr\303\252'a5\332\207M+4WW\360\\\245\\\237V\233C\253"
 723      276135DA 
 723      874D2B34 
 723      5757F05C 
 723      A55C9F56 
 724 03a7 CE5E0FB5 		.ascii	"\316^\017\265\341\361Q(\213C\335\034\333\031\306\225"
 724      E1F15128 
 724      8B43DD1C 
 724      DB19C695 
 725 03b7 2178C78C 		.ascii	"!x\307\214\370\275G(\376\261\361\361\333Z\223/\037y"
 725      F8BD4728 
 725      FEB1F1F1 
 725      DB5A932F 
 725      1F79
 726 03c9 9CE2E7A2 		.ascii	"\234\342\347\242vQl\225\361\315[Qa^\363\306^\334\002"
 726      76516C95 
 726      F1CD5B51 
 726      615EF3C6 
 726      5EDC02
 727 03dc 4D45B3B4 		.ascii	"ME\263\264\330f\341\361\010\264\002\217srU\020\362-"
 727      D866E1F1 
 727      08B4028F 
 727      73725510 
 727      F22D
 728 03ee 7C5423E4 		.ascii	"|T#\344Bc2Y\213\273=l\345\035\310\313D\375\033^\275"
 728      42633259 
 728      8BBB3D6C 
 728      E51DC8CB 
 728      44FD1B5E 
 729 0403 817AF104 		.ascii	"\201z\361\0040q\350/^VH.O\327\201\307\307q\231\234C"
 729      3071E82F 
 729      5E56482E 
 729      4FD781C7 
 729      C771999C 
 730 0418 FDB450E2 		.ascii	"\375\264P\342s3P9\212\324aS\240\022I\355\220:48\272"
 730      73335039 
 730      8AD46153 
 730      A01249ED 
 730      903A3438 
ARM GAS  /tmp/ccAE1QPe.s 			page 58


 731 042d 16AF6E15 		.ascii	"\026\257n\025\367\227\360\3708\255\306\353\256\025\213"
 731      F797F0F8 
 731      38ADC6EB 
 731      AE158B
 732 043c CCDA59A9 		.ascii	"\314\332Y\251\204\326Mx\374\001m\224\017\361\225\020"
 732      84D64D78 
 732      FC016D94 
 732      0FF19510 
 733 044c 9E84507D 		.ascii	"\236\204P}Y\015\336#8OI\302\241\375\024\354\275K\253"
 733      590DDE23 
 733      384F49C2 
 733      A1FD14EC 
 733      BD4BAB
 734 045f AAD80243 		.ascii	"\252\330\002C\370\223\247\361\032RU\2631\243\037\253"
 734      F893A7F1 
 734      1A5255B3 
 734      31A31FAB 
 735 046f A23A560B 		.ascii	"\242:V\013u\375o\325\031i\314\234\246c\346\035\257\351"
 735      75FD6FD5 
 735      1969CC9C 
 735      A663E61D 
 735      AFE9
 736 0481 98B19621 		.ascii	"\230\261\226!\365\0315\216\231\265\322\230\031u4f\326"
 736      F519358E 
 736      99B5D298 
 736      19753466 
 736      D6
 737 0492 CB634669 		.ascii	"\313cFi\251\024E\030\275\324\266O>\001\353\016\257\210"
 737      A9144518 
 737      BDD4B64F 
 737      3E01EB0E 
 737      AF88
 738 04a4 7DE45AAC 		.ascii	"}\344Z\254\210\021\333\250\027;\345D\314gM\326\251\027"
 738      8811DBA8 
 738      173BE544 
 738      CC674DD6 
 738      A917
 739 04b6 3BEB5ACC 		.ascii	";\353Z\314\266C\216\352:\344Y\332!\307h\207\374\214"
 739      B6438EEA 
 739      3AE459DA 
 739      21C76887 
 739      FC8C
 740 04c8 869FD3F0 		.ascii	"\206\237\323\360\013'\235\363\224\276s~\356\272s\352"
 740      0B279DF3 
 740      94BE737E 
 740      EEBA73EA 
 741 04d8 DC473AE7 		.ascii	"\334G:\347\201O\326H\235\223\307)Z\355\013N\024\255"
 741      814FD648 
 741      9D93C729 
 741      5AED0B4E 
 741      14AD
 742 04ea 7C080BC4 		.ascii	"|\010\013\304\013f\013\204\344S\253\032]\320\327\250"
 742      0B660B84 
 742      E453AB1A 
 742      5DD0D7A8 
 743 04fa 25CB6DF9 		.ascii	"%\313m\371L\215\222\275\203\033\277)\246\222\312t\235"
 743      4C8D92BD 
ARM GAS  /tmp/ccAE1QPe.s 			page 59


 743      831BBF29 
 743      A692CA74 
 743      9D
 744 050b DA22CE58 		.ascii	"\332\"\316X\247\215\215\314]\000\231\341\267_GGX\232"
 744      A78D8DCC 
 744      5D0099E1 
 744      B75F4747 
 744      589A
 745 051d 3AA03DCB 		.ascii	":\240=\313tbv \324\277\241\263\222\012\265pD\250#\313"
 745      74627620 
 745      D4BFA1B3 
 745      920AB570 
 745      44A823CB 
 746 0531 383163C3 		.ascii	"81c\303\304\214\331\231\026\347j\2214\273\035\0317-"
 746      C48CD999 
 746      16E76A91 
 746      34BB1D19 
 746      372D
 747 0543 879E303A 		.ascii	"\207\2360:\216Adf\004\213yjt\015\376w\213\270\256D\361"
 747      8E416466 
 747      048B796A 
 747      740DFE77 
 747      8BB8AE44 
 748 0558 44976B45 		.ascii	"D\227kE\037\323\024\257\014\346\355\274S\021{\336\265"
 748      1FD314AF 
 748      0CE6EDBC 
 748      53117BDE 
 748      B5
 749 0569 5861C618 		.ascii	"Xa\306\030\222F\317!:z\016\323\021\363)\015\317\321"
 749      9246CF21 
 749      3A7A0ED3 
 749      11F3290D 
 749      CFD1
 750 057b F03C0D2F 		.ascii	"\360<\015/\322\360\001\216\204\355\234n<qhWF\203H{\036"
 750      D2F0018E 
 750      84ED9C6E 
 750      3C716857 
 750      4683487B 
 751 0590 5D09DAE6 		.ascii	"]\011\332\346\010]J\031V=|H\353\341\362\206P\032n\310"
 751      085D4A19 
 751      563D7C48 
 751      EBE1F286 
 751      501A6EC8 
 752 05a4 7C83E8FC 		.ascii	"|\203\350\374\224\377{n:\253:'/\243\004\355\006\300"
 752      94FF7B6E 
 752      3AAB3A27 
 752      2FA304ED 
 752      06C0
 753 05b6 8250EABE 		.ascii	"\202P\352\276\311\221U\323\310\242\360(\227\007\002"
 753      C99155D3 
 753      C8A2F028 
 753      970702
 754 05c5 03065F19 		.ascii	"\003\006_\031\2063)\327\212i\015\010\230\257)f\337\351"
 754      863329D7 
 754      8A690D08 
 754      98AF2966 
 754      DFE9
ARM GAS  /tmp/ccAE1QPe.s 			page 60


 755 05d7 C98DB01C 		.ascii	"\311\215\260\034\0326`|\017=-\212\253S[N\017g\257\027"
 755      1A36607C 
 755      0F3D2D8A 
 755      AB535B4E 
 755      0F67AF17 
 756 05eb 935EC9B3 		.ascii	"\223^\311\263\034\372\230&{\033\216\015\346\3332\352"
 756      1CFA9826 
 756      7B1B8E0D 
 756      E6DB32EA 
 757 05fb 7F296FF2 		.ascii	"\177)o\362\303\343\317\300\004\305)\363\335\231q\262"
 757      C3E3CFC0 
 757      04C529F3 
 757      DD9971B2 
 758 060b 5227CA59 		.ascii	"R'\312YG\216?+e\225|\364\237q\262\222TJ\326\177un\222"
 758      478E3F2B 
 758      65957CF4 
 758      9F71B292 
 758      544AD67F 
 759 0622 B2CE2139 		.ascii	"\262\316!9\377;NN\311\027\364h\324\222<\326\271g3\026"
 759      FF3B4E4E 
 759      C917F468 
 759      D4923CD6 
 759      B9673316 
 760 0636 B395C307 		.ascii	"\263\225\303\007\223\217\031D\262\217\327r\246\207\311"
 760      938F1944 
 760      B28FD772 
 760      A687C9
 761 0645 13FBB5E3 		.ascii	"\023\373\265\343\230\363\016\326e\354`\304\225\206F"
 761      98F30ED6 
 761      65EC60C4 
 761      958646
 762 0654 12B3CD1A 		.ascii	"\022\263\315\032I\034\026\026(\311\377\010H<\336\304"
 762      491C1616 
 762      28C9FF08 
 762      483CDEC4 
 763 0664 D9B68F7A 		.ascii	"\331\266\217z\026|T\\Y\210\325\303 \311\305\364\241"
 763      167C545C 
 763      5988D5C3 
 763      20C9C5F4 
 763      A1
 764 0675 A732EB97 		.ascii	"\2472\353\227\352H\015\177\366\325o\326\365\210m\017"
 764      EA480D7F 
 764      F6D56FD6 
 764      F5886D0F 
 765 0685 8917D3F7 		.ascii	"\211\027\323\367c\345\274\371\232\001M\321\3506\325"
 765      63E5BCF9 
 765      9A014DD1 
 765      E836D5
 766 0694 18FA62EC 		.ascii	"\030\372b\354\212\365\342\27661\235\276\337\205\217"
 766      8AF5E2BE 
 766      36319DBE 
 766      DF858F
 767 06a3 9E33FA88 		.ascii	"\2363\372\210\364\031\333Q\310\241\213\026`\1772\003"
 767      F419DB51 
 767      C8A18B16 
 767      607F3203 
 768 06b3 4BF6FDF5 		.ascii	"K\366\375\365\021\021\323\263\356L\347X\333\315\260"
ARM GAS  /tmp/ccAE1QPe.s 			page 61


 768      1111D3B3 
 768      EE4CE758 
 768      DBCDB0
 769 06c2 0C18AB72 		.ascii	"\014\030\253r\3141v\260\030W\241\315bj(\365\361+oq+"
 769      CC3176B0 
 769      1857A1CD 
 769      626A28F5 
 769      F12B6F71 
 770 06d7 C4649B48 		.ascii	"\304d\233H\272\021\306SP\207\274\367tz\000<\177 ]NW"
 770      BA11C653 
 770      5087BCF7 
 770      747A003C 
 770      7F205D4E 
 771 06ec C81E8E6C 		.ascii	"\310\036\216lf7\033Jwt\000\354\345\014\233\331s\322"
 771      66371B4A 
 771      777400EC 
 771      E50C9BD9 
 771      73D2
 772 06fe F9953C1F 		.ascii	"\371\225<\037\377\374z~p\243\274\231\225\306\360.\212"
 772      FFFC7A7E 
 772      70A3BC99 
 772      95C6F02E 
 772      8A
 773 070f 40F25ED2 		.ascii	"@\362^\322\356>\371\265\274\335\221\007\366+\256\345"
 773      EE3EF9B5 
 773      BCDD9107 
 773      F62BAEE5 
 774 071f 8ACC6095 		.ascii	"\212\314`\225f\320\352\312\343\0279\262\354\275D\027"
 774      66D0EACA 
 774      E31739B2 
 774      ECBD4417 
 775 072f 9D974D16 		.ascii	"\235\227M\026\0351[\321\277S\316\275\213\233Bct\007"
 775      1D315BD1 
 775      BF53CEBD 
 775      8B9B4263 
 775      7407
 776 0741 23AA7377 		.ascii	"#\252sw\276\365Nl\017\227\253J\346\347j\021e\365\202"
 776      BEF54E6C 
 776      0F97AB4A 
 776      E6E76A11 
 776      65F582
 777 0754 75416D32 		.ascii	"uAm2\313b_\325\372\016\3517\342\301\324\312\376\267"
 777      CB625FD5 
 777      FA0EE937 
 777      E2C1D4CA 
 777      FEB7
 778 0766 B8F55ABF 		.ascii	"\270\365Z\277Q\246\336\177\030\2652x\372X\251\261\241"
 778      51A6DE7F 
 778      18B53278 
 778      FA58A9B1 
 778      A1
 779 0777 E4B1879F 		.ascii	"\344\261\207\237\304b\027\234\307/\202\222\326\001y"
 779      C462179C 
 779      C72F8292 
 779      D60179
 780 0786 FCAEB6B3 		.ascii	"\374\256\266\263\020'+:c\322\264\250O7l\223\216\307"
 780      10272B3A 
ARM GAS  /tmp/ccAE1QPe.s 			page 62


 780      63D2B4A8 
 780      4F376C93 
 780      8EC7
 781 0798 7B659769 		.ascii	"{e\227i\2560~\204SF\206\0132u\366\311\340\025\350\005"
 781      AE307E84 
 781      5346860B 
 781      3275F6C9 
 781      E015E805 
 782 07ac B13D99F4 		.ascii	"\261=\231\364\3608\011\312j\017\222\0367I\324\322>\203"
 782      F03809CA 
 782      6A0F921E 
 782      3749D4D2 
 782      3E83
 783 07be 7C47CE9D 		.ascii	"|G\316\235\242\330.z\345]\007yF\266\373\355\362\263"
 783      A2D82E7A 
 783      E55D0779 
 783      46B6FBED 
 783      F2B3
 784 07d0 73F2B31C 		.ascii	"s\362\263\0342\337K\233\021\362Q\332?K\333\022uo(\355"
 784      32DF4B9B 
 784      11F251DA 
 784      3F4BDB12 
 784      756F28ED 
 785 07e4 4F741FDB 		.ascii	"Ot\037\333\265\217yj\247\301nQ6f\242p\366(^\026\005"
 785      B58F796A 
 785      A7C16E51 
 785      3666A270 
 785      F6285E16 
 786 07f9 B328F92A 		.ascii	"\263(\371*\012\347\026eg&\212\327\036\305\307\242p,"
 786      0AE71665 
 786      67268AD7 
 786      1EC5C7A2 
 786      702C
 787 080b CA652A8A 		.ascii	"\312e*\212\307-\312@&\212\317\036%\237E\361\260(\332"
 787      C72DCA40 
 787      268ACF1E 
 787      259F45F1 
 787      B028DA
 788 081e F4E7758B 		.ascii	"\364\347u\213r4\023\245\320\036\245\220E\361\262(\223"
 788      723413A5 
 788      D01EA590 
 788      45F1B228 
 788      93
 789 082f 55942CB7 		.ascii	"U\224,\267(g2Q\212\354Q\246\261(Y,J\241\212\222\355"
 789      28673251 
 789      8AEC51A6 
 789      B128592C 
 789      4AA18A92 
 790 0844 16455C91 		.ascii	"\026E\\\221\2012\327\036e\006\213\222\315\242LQQrlQ"
 790      8132D71E 
 790      65068B92 
 790      CDA24C51 
 790      51726C51 
 791 0858 DA4D0673 		.ascii	"\332M\006s{\006\212\350n4\347\260,\225\272\343\227K"
 791      7B068AE8 
 791      6E34E7B0 
 791      2C95BAE3 
ARM GAS  /tmp/ccAE1QPe.s 			page 63


 791      974B
 792 086a 968D262C 		.ascii	"\226\215&,\356\206\263\217e\271Ae\311u\313\262\323\204"
 792      EE86B38F 
 792      65B94165 
 792      C975CBB2 
 792      D384
 793 087c C5DD78CE 		.ascii	"\305\335x\316eY~\254\262Lr\3132`\302\342n@ObY~\242\262"
 793      65597EAC 
 793      B24C72CB 
 793      3260C2E2 
 793      6E404F62 
 794 0894 E4B96539 		.ascii	"\344\271e9j\302\342nD\347\261,?%\013\223z\236K\322="
 794      6AC2E26E 
 794      44E7B12C 
 794      3F250B93 
 794      7A9E4BD2 
 795 08a9 C1518BFB 		.ascii	"\301Q\213\373\026\303m\250\341\024\270K[\3232r\275\313"
 795      16C36DA8 
 795      E114B84B 
 795      5BD33272 
 795      BDCB
 796 08bb 59E5223B 		.ascii	"Y\345\";s\253\\\007-s\245l.\220\206MrI\365:mS\257S\226"
 796      73AB5C07 
 796      2D73A56C 
 796      2E90864D 
 796      7249F53A 
 797 08d4 F54ADAD4 		.ascii	"\365J\332\324\353\220\005\241\331o/\036%s\005\322\335"
 797      EB9005A1 
 797      D96F2F1E 
 797      257305D2 
 797      DD
 798 08e5 E7FE6D46 		.ascii	"\347\376mF+\354\335\301\257t\017\374\265\371\036\330"
 798      2BECDDC1 
 798      AF740FFC 
 798      B5F91ED8 
 799 08f5 5A8740BC 		.ascii	"Z\207@\274o\334\003\1779B\367\300\357\217\277\007nk"
 799      6FDC037F 
 799      3942F7C0 
 799      EF8FBF07 
 799      6E6B
 800 0907 4D9E1F61 		.ascii	"M\236\037a/t\037\362aY\323\254\322\352^\020!\213k\323"
 800      2F741FF2 
 800      6159D3AC 
 800      D2EA5E10 
 800      218B6BD3 
 801 091b 0B23BA6B 		.ascii	"\013#\272k\323G\\\213\0251b\027\365b\2179\021\263\271"
 801      D3475C8B 
 801      15316217 
 801      F5628F39 
 801      11B3B9
 802 092e D0EDA087 		.ascii	"\320\355\240\207\336|En\255k9\226m5+\327\351D\316\352"
 802      DE7C456E 
 802      AD6B3996 
 802      6D352BD7 
 802      E944CEEA 
 803 0942 C60DE41E 		.ascii	"\306\015\344\036g\345\236u-\307\322\375\201\225\373"
 803      67E59E75 
ARM GAS  /tmp/ccAE1QPe.s 			page 64


 803      2DC7D2FD 
 803      8195FB
 804 0951 B313B919 		.ascii	"\263\023\271\031\326t\353X\271\027]\313\261tO\260r}"
 804      D674EB58 
 804      B9175DCB 
 804      B1744FB0 
 804      727D
 805 0963 4EE48AAC 		.ascii	"N\344\212\254\3516\262r\257\273\226c\351:Y\2717\235"
 805      E936B272 
 805      AFBB9663 
 805      E93A59B9 
 805      379D
 806 0975 C85D634D 		.ascii	"\310]cM\267\223\225\033t-\307\322\365\260r\207\234\310"
 806      B793951B 
 806      742DC7D2 
 806      F5B07287 
 806      9CC8
 807 0987 9598D099 		.ascii	"\225\230\320\231\275\364\223\011\217\217\321C\346\007"
 807      BDF49309 
 807      8F8FD143 
 807      E607
 808 0995 F490799C 		.ascii	"\364\220y\234\206)\032\236\240\341G4<I\303\177\322\360"
 808      86291A9E 
 808      A0E14734 
 808      3C49C37F 
 808      D2F0
 809 09a7 140DCFD0 		.ascii	"\024\015\317\320p\224\206c4\374\214\206\237;\271\033"
 809      70948663 
 809      34FC8C86 
 809      9F3BB91B 
 810 09b7 3DAC4DA8 		.ascii	"=\254M\250\352U{\322\362\252\235\307\"E\034\347:\\\375"
 810      EA557BD2 
 810      F2AA9DC7 
 810      22451CE7 
 810      3A5CFD
 811 09ca 3535F97F 		.ascii	"55\371\177\370\261\326\260:<gs\367\371\225V\031r`\035"
 811      F8B1D6B0 
 811      3A3C6773 
 811      F7F99556 
 811      1972601D 
 812 09de 1A4ABD31 		.ascii	"\032J\2751\272\001\267\247\304\016\346\300\272\256\300"
 812      BA01B7A7 
 812      C40EE6C0 
 812      BAAEC0
 813 09ed 4155B53F 		.ascii	"AU\265?)\350~\202\230a\345\226\013\324-_\353\016\360"
 813      29E87E82 
 813      9861E596 
 813      0BD42D5F 
 813      EB0EF0
 814 0a00 525C8949 		.ascii	"R\\\211I?\022\034\363Y\376\315\301>\253\\h\207\372\333"
 814      3F121CF3 
 814      59FECDC1 
 814      3EAB5C68 
 814      87FADB
 815 0a13 A27471AE 		.ascii	"\242tq\256UHJj\221\214\307i\327w\021\242\307\374.b\012"
 815      55484A6A 
 815      918CC769 
ARM GAS  /tmp/ccAE1QPe.s 			page 65


 815      D77711A2 
 815      C7FC2E62 
 816 0a28 43ADA422 		.ascii	"C\255\244\"\277K\372\014\227\252F\012\016}\352S\016"
 816      BF4BFA0C 
 816      97AA460A 
 816      0E7DEA53 
 816      0E
 817 0a39 E8932052 		.ascii	"\350\223 R\2046\221\265\363\374\210XT\244^7\276\255"
 817      843691B5 
 817      F3FC8858 
 817      54A45E37 
 817      BEAD
 818 0a4b FFEF89A1 		.ascii	"\377\357\211\241\345\267\333\264|\233\307\320\362\311"
 818      E5B7DBB4 
 818      7C9BC7D0 
 818      F2C9
 819 0a59 D74EAC33 		.ascii	"\327N\2543ky\330\271i\216j\307l\265,\374iL\306\343\007"
 819      6B79D8B9 
 819      698E6AC7 
 819      6CB52CFC 
 819      694CC6E3 
 820 0a6e 3D6EFDD9 		.ascii	"=n\375\331n\341O\375\317,Z*\210\256\360\030.m\215\024"
 820      6EE14FFD 
 820      CF2C5A2A 
 820      88AEF018 
 820      2E6D8D14 
 821 0a82 1CFA92F1 		.ascii	"\034\372\222\361'\252\2305\313\037\250\017/\015\377"
 821      27AA9835 
 821      CB1FA80F 
 821      2F0DFF
 822 0a91 BCC61F8D 		.ascii	"\274\306\037\215\373\353\371\006\177S4\226\210\373k"
 822      FBEBF906 
 822      7F533496 
 822      88FB6B
 823 0aa0 962C2A2F 		.ascii	"\226,*/\363\337z\353|\377\374EU\313K\375\361DcyY\260"
 823      F3DF7AEB 
 823      7CFFFC45 
 823      55CB4BFD 
 823      F1446379 
 824 0ab6 B6919F15 		.ascii	"\266\221\237\025B\276;\204P\"\032\373Q \373\226\333"
 824      42BE3B84 
 824      50221AFB 
 824      5120FB96 
 824      DB
 825 0ac7 6E2F0A28 		.ascii	"n/\012(\237g\227(\221\012%R\251D\002r\244RISY\221+E"
 825      9F679728 
 825      910A2552 
 825      A9440272 
 825      A4524953 
 826 0adf 4ACB4AD4 		.ascii	"J\313J\324\230\366\254R\215\005\224XyI\016\024\2770"
 826      98F6AC52 
 826      8D059458 
 826      79490E14 
 826      BF30
 827 0af1 124E6405 		.ascii	"\022Nd\005\347E\243\015\227\200^\217\312\331LBs\302"
 827      E745A30D 
 827      97805E8F 
ARM GAS  /tmp/ccAE1QPe.s 			page 66


 827      CAD94C42 
 827      73C2
 828 0b03 1F5854B3 		.ascii	"\037XT\263\260\0062I\371n.on\226r\324\225\227\2247\207"
 828      B0063249 
 828      F96E2E6F 
 828      6E9672D4 
 828      95979437 
 829 0b18 204F1EC8 		.ascii	" O\036\310\004\227\334\327$\314\027\352\342\376\210"
 829      0497DCD7 
 829      24CC17EA 
 829      E2FE88
 830 0b27 64D7FBEB 		.ascii	"d\327\373\353\243\215\202?&\304\005>\026\252\207\342"
 830      A38D823F 
 830      26C4053E 
 830      16AA87E2 
 831 0b37 63B5F7F2 		.ascii	"c\265\367\3621\301\317\307\032\313\374w\205B\305\020"
 831      31C1CFC7 
 831      1ACBFC77 
 831      8542C510 
 832 0b47 29161A97 		.ascii	")\026\032\227\012\265\265B\255\372 \022\215\010\305"
 832      0AB5B542 
 832      ADFA2012 
 832      8D08C5
 833 0b56 02BF345C 		.ascii	"\002\2774\\\\\021\254,.+)\255\270\247\314\317|\341\017"
 833      5C11AC2C 
 833      2E2B29AD 
 833      B8A7CCCF 
 833      7CE10F
 834 0b69 47420DCB 		.ascii	"GB\015\313j\005\200\250\015G\022P\276o\031\274C\015"
 834      6A0580A8 
 834      0D471250 
 834      BE6F19BC 
 834      430D
 835 0b7b 12AD78E2 		.ascii	"\022\255x\342Jo\344C\365\341\210\340\017\326\012u\374"
 835      4A6FE443 
 835      F5E188E0 
 835      0FD60A75 
 835      FC
 836 0b8c B2864430 		.ascii	"\262\206D0\001\016\210\003\315\244`P\341\361,\254\251"
 836      010E8803 
 836      CDA46050 
 836      E1F12CAC 
 836      A9
 837 0b9d F62EBC39 		.ascii	"\366.\2749P\355\001\347^N\274\024\250\347#\021\241A"
 837      50ED01E7 
 837      5E4EBC14 
 837      A8E72311 
 837      A141
 838 0baf F1962710 		.ascii	"\361\226'\020\250\316\012\3346\177I\2657\260\270\012"
 838      A8CE0ADC 
 838      367F49B5 
 838      37B0B80A 
 839 0bbf 824555D5 		.ascii	"\202EU\3259!)MV\250\221\217\337\235\025\212\013\015"
 839      3921294D 
 839      56A8918F 
 839      DF9D158A 
 839      0B0D
ARM GAS  /tmp/ccAE1QPe.s 			page 67


 840 0bd1 B11CA258 		.ascii	"\261\034\242X\031L\344J\332\020\313\212\327\207\353"
 840      194CE44A 
 840      DA10CB8A 
 840      D787EB
 841 0be0 12B9F065 		.ascii	"\022\271\360e]8R+4g/\247\235`\252\332\226\301x\"&\360"
 841      5D38522B 
 841      34672FA7 
 841      9D60AADA 
 841      96C17822 
 842 0bf6 8DC14481 		.ascii	"\215\301D\201\372(\034\217\005\023S RC\277\252jh\210"
 842      FA281C8F 
 842      05135320 
 842      5243BFAA 
 842      6A6888
 843 0c09 86F88490 		.ascii	"\206\370\204\220\015O\342\211&_S,\034\215\205\023\367"
 843      0D4FE289 
 843      265F532C 
 843      1C8D8513 
 843      F7
 844 0c1a 79EB9645 		.ascii	"y\353\226EBYM|\214o,T\023W\013\015\002\037\027\256c"
 844      42594D7C 
 844      8C6F2C54 
 844      13570B0D 
 844      021F17AE 
 845 0c2f BB472C21 		.ascii	"\273G,!w\251\252\352E\201E\315\376P}(\032\023\202\313"
 845      77A9AAEA 
 845      458145CD 
 845      FE507D28 
 845      1A1382CB 
 846 0c43 67378223 		.ascii	"g7\202#\246\006\311w\301p\354\236\240\320\024n\210\336"
 846      A606C977 
 846      C170EC9E 
 846      A0D0146E 
 846      88DE
 847 0c55 B54C28B6 		.ascii	"\265L(\266\352\222\241hcc4\242\310D\226\207I\277*$\357"
 847      EA92A168 
 847      636334A2 
 847      C8449687 
 847      49BF2A24 
 848 0c6a 3745F8A5 		.ascii	"7E\370\245\015\202\324\305\247\220\007\363\303q\355"
 848      0D82D4C5 
 848      A79007F3 
 848      C371ED
 849 0c79 C9645253 		.ascii	"\311dRSR\257\230P\033\206\332\371\310g\302\237K\"\264"
 849      52AF9850 
 849      1B86DAF9 
 849      C867C29F 
 849      4B22B4
 850 0c8c 0ED3829A 		.ascii	"\016\323\202\232O\324\224\205\232\207\342A\342\347\251"
 850      4FD49485 
 850      9A87E241 
 850      E2E7A9
 851 0c9b 41A3E7E2 		.ascii	"A\243\347\342y\325\201\200\322P\\\000\032\347\346[\252"
 851      79D58180 
 851      D2505C00 
 851      1AE7E65B 
 851      AA
ARM GAS  /tmp/ccAE1QPe.s 			page 68


 852 0cac 3D8185D5 		.ascii	"=\201\205\325\276\252\305\363\312\252k\226\320H)\211"
 852      BEAAC5F3 
 852      CAAA6B96 
 852      D0482989 
 853 0cbc 64572D98 		.ascii	"dW-\230w\323m\3259\344\013\371\275\024\336\275\363\346"
 853      77D36DD5 
 853      39E40BF9 
 853      BD14DEBD 
 853      F3E6
 854 0cce 43D3076A 		.ascii	"C\323\007j\340\301\202y$]\026\221(\243a\271\027\232"
 854      E0C18279 
 854      245D1691 
 854      28A361B9 
 854      179A
 855 0ce0 39E60B52 		.ascii	"9\346\013R\330`\3602%2kv\351\365%\314\247\212\377\001"
 855      D860F032 
 855      25326B76 
 855      E9F525CC 
 855      A78AFF01 
 856 0cf4 5AB7D774 		.ascii	"Z\267\327t"
 857              		.text
 858              		.section	.gnu.lto_.symtab.416affff27a3016b,"",%progbits
 859 0000 56656374 		.ascii	"Vector6C\000\000\000\000\000\000\000\000\000\000\000"
 859      6F723643 
 859      00000000 
 859      00000000 
 859      000000
 860 0013 00A10000 		.ascii	"\000\241\000\000\000_stm32_dma_isr_redir\000\000\000"
 860      005F7374 
 860      6D33325F 
 860      646D615F 
 860      6973725F 
 861 002f 00000000 		.ascii	"\000\000\000\000\000\000\000\000\0000\001\000\000Ve"
 861      00000000 
 861      00300100 
 861      005665
 862 003e 63746F72 		.ascii	"ctor70\000\000\000\000\000\000\000\000\000\000\000\000"
 862      37300000 
 862      00000000 
 862      00000000 
 862      0000
 863 0050 A6000000 		.ascii	"\246\000\000\000Vector74\000\000\000\000\000\000\000"
 863      56656374 
 863      6F723734 
 863      00000000 
 863      000000
 864 0063 00000000 		.ascii	"\000\000\000\000\000\251\000\000\000Vector78\000\000"
 864      00A90000 
 864      00566563 
 864      746F7237 
 864      380000
 865 0076 00000000 		.ascii	"\000\000\000\000\000\000\000\000\000\000\254\000\000"
 865      00000000 
 865      0000AC00 
 865      00
 866 0083 00566563 		.ascii	"\000Vector7C\000\000\000\000\000\000\000\000\000\000"
 866      746F7237 
ARM GAS  /tmp/ccAE1QPe.s 			page 69


 866      43000000 
 866      00000000 
 866      000000
 867 0096 0000AF00 		.ascii	"\000\000\257\000\000\000Vector80\000\000\000\000\000"
 867      00005665 
 867      63746F72 
 867      38300000 
 867      000000
 868 00a9 00000000 		.ascii	"\000\000\000\000\000\000\000\262\000\000\000Vector8"
 868      000000B2 
 868      00000056 
 868      6563746F 
 868      7238
 869 00bb 34000000 		.ascii	"4\000\000\000\000\000\000\000\000\000\000\000\000\265"
 869      00000000 
 869      00000000 
 869      00B5
 870 00c9 00000056 		.ascii	"\000\000\000Vector120\000\000\000\000\000\000\000\000"
 870      6563746F 
 870      72313230 
 870      00000000 
 870      00000000 
 871 00dd 00000000 		.ascii	"\000\000\000\000\270\000\000\000Vector124\000\000\000"
 871      B8000000 
 871      56656374 
 871      6F723132 
 871      34000000 
 872 00f1 00000000 		.ascii	"\000\000\000\000\000\000\000\000\000\273\000\000\000"
 872      00000000 
 872      00BB0000 
 872      00
 873 00fe 56656374 		.ascii	"Vector128\000\000\000\000\000\000\000\000\000\000\000"
 873      6F723132 
 873      38000000 
 873      00000000 
 873      00000000 
 874 0112 00BE0000 		.ascii	"\000\276\000\000\000Vector12C\000\000\000\000\000\000"
 874      00566563 
 874      746F7231 
 874      32430000 
 874      00000000 
 875 0126 00000000 		.ascii	"\000\000\000\000\000\000\301\000\000\000Vector130\000"
 875      0000C100 
 875      00005665 
 875      63746F72 
 875      31333000 
 876 013a 00000000 		.ascii	"\000\000\000\000\000\000\000\000\000\000\000\304\000"
 876      00000000 
 876      000000C4 
 876      00
 877 0147 0000646D 		.ascii	"\000\000dmaInit\000\000\000\000\000\000\000\000\000"
 877      61496E69 
 877      74000000 
 877      00000000 
 877      0000
 878 0159 000000C7 		.ascii	"\000\000\000\307\000\000\000_stm32_dma_streams\000\000"
 878      0000005F 
ARM GAS  /tmp/ccAE1QPe.s 			page 70


 878      73746D33 
 878      325F646D 
 878      615F7374 
 879 0174 00000000 		.ascii	"\000\000\000\000\000\000\000\000\000\000?\001\000\000"
 879      00000000 
 879      00003F01 
 879      0000
 880 0182 646D6153 		.ascii	"dmaStreamAllocate\000\000\000\000\000\000\000\000\000"
 880      74726561 
 880      6D416C6C 
 880      6F636174 
 880      65000000 
 881 019c 000000CA 		.ascii	"\000\000\000\312\000\000\000dmaStreamRelease\000\000"
 881      00000064 
 881      6D615374 
 881      7265616D 
 881      52656C65 
 882 01b5 00000000 		.ascii	"\000\000\000\000\000\000\000\000\000\000\037\001\000"
 882      00000000 
 882      00001F01 
 882      00
 883 01c2 005F706F 		.ascii	"\000_port_irq_epilogue\000\000\002\000\000\000\000\000"
 883      72745F69 
 883      72715F65 
 883      70696C6F 
 883      67756500 
 884 01dd 00000000 		.ascii	"\000\000\000\000%\001\000\000nvicEnableVector\000\000"
 884      25010000 
 884      6E766963 
 884      456E6162 
 884      6C655665 
 885 01f7 02000000 		.ascii	"\002\000\000\000\000\000\000\000\000\000'\001\000\000"
 885      00000000 
 885      00002701 
 885      0000
 886 0205 6E766963 		.ascii	"nvicDisableVector\000\000\002\000\000\000\000\000\000"
 886      44697361 
 886      626C6556 
 886      6563746F 
 886      72000002 
 887 021f 0000002C 		.ascii	"\000\000\000,\001\000\000"
 887      010000
 888              		.text
 889              		.section	.gnu.lto_.opts,"",%progbits
 890 0000 272D6D63 		.ascii	"'-mcpu=cortex-m4' '-mno-thumb-interwork' '-mthumb' "
 890      70753D63 
 890      6F727465 
 890      782D6D34 
 890      2720272D 
 891 0033 272D6767 		.ascii	"'-ggdb' '-O0' '-fomit-frame-pointer' '-falign-funct"
 891      64622720 
 891      272D4F30 
 891      2720272D 
 891      666F6D69 
 892 0066 696F6E73 		.ascii	"ions=16' '-ffunction-sections' '-fdata-sections' '-"
 892      3D313627 
 892      20272D66 
ARM GAS  /tmp/ccAE1QPe.s 			page 71


 892      66756E63 
 892      74696F6E 
 893 0099 666E6F2D 		.ascii	"fno-common' '-flto'\000"
 893      636F6D6D 
 893      6F6E2720 
 893      272D666C 
 893      746F2700 
 894              		.text
 895              		.cfi_sections	.debug_frame
 896              		.global	_stm32_dma_streams
 897              		.section	.rodata._stm32_dma_streams,"a",%progbits
 898              		.align	2
 899              		.type	_stm32_dma_streams, %object
 900              		.size	_stm32_dma_streams, 240
 901              	_stm32_dma_streams:
 902 0000 00000240 		.word	1073872896
 903 0004 08000240 		.word	1073872904
 904 0008 01000000 		.word	1
 905 000c 00000000 		.word	0
 906 0010 00       		.byte	0
 907 0011 00       		.byte	0
 908 0012 0B       		.byte	11
 909 0013 00       		.space	1
 910 0014 00000240 		.word	1073872896
 911 0018 1C000240 		.word	1073872924
 912 001c 02000000 		.word	2
 913 0020 00000000 		.word	0
 914 0024 04       		.byte	4
 915 0025 01       		.byte	1
 916 0026 0C       		.byte	12
 917 0027 00       		.space	1
 918 0028 00000240 		.word	1073872896
 919 002c 30000240 		.word	1073872944
 920 0030 04000000 		.word	4
 921 0034 00000000 		.word	0
 922 0038 08       		.byte	8
 923 0039 02       		.byte	2
 924 003a 0D       		.byte	13
 925 003b 00       		.space	1
 926 003c 00000240 		.word	1073872896
 927 0040 44000240 		.word	1073872964
 928 0044 08000000 		.word	8
 929 0048 00000000 		.word	0
 930 004c 0C       		.byte	12
 931 004d 03       		.byte	3
 932 004e 0E       		.byte	14
 933 004f 00       		.space	1
 934 0050 00000240 		.word	1073872896
 935 0054 58000240 		.word	1073872984
 936 0058 10000000 		.word	16
 937 005c 00000000 		.word	0
 938 0060 10       		.byte	16
 939 0061 04       		.byte	4
 940 0062 0F       		.byte	15
 941 0063 00       		.space	1
 942 0064 00000240 		.word	1073872896
 943 0068 6C000240 		.word	1073873004
ARM GAS  /tmp/ccAE1QPe.s 			page 72


 944 006c 20000000 		.word	32
 945 0070 00000000 		.word	0
 946 0074 14       		.byte	20
 947 0075 05       		.byte	5
 948 0076 10       		.byte	16
 949 0077 00       		.space	1
 950 0078 00000240 		.word	1073872896
 951 007c 80000240 		.word	1073873024
 952 0080 40000000 		.word	64
 953 0084 00000000 		.word	0
 954 0088 18       		.byte	24
 955 0089 06       		.byte	6
 956 008a 11       		.byte	17
 957 008b 00       		.space	1
 958 008c 00040240 		.word	1073873920
 959 0090 08040240 		.word	1073873928
 960 0094 80000000 		.word	128
 961 0098 00000000 		.word	0
 962 009c 00       		.byte	0
 963 009d 07       		.byte	7
 964 009e 38       		.byte	56
 965 009f 00       		.space	1
 966 00a0 00040240 		.word	1073873920
 967 00a4 1C040240 		.word	1073873948
 968 00a8 00010000 		.word	256
 969 00ac 00000000 		.word	0
 970 00b0 04       		.byte	4
 971 00b1 08       		.byte	8
 972 00b2 39       		.byte	57
 973 00b3 00       		.space	1
 974 00b4 00040240 		.word	1073873920
 975 00b8 30040240 		.word	1073873968
 976 00bc 00020000 		.word	512
 977 00c0 00000000 		.word	0
 978 00c4 08       		.byte	8
 979 00c5 09       		.byte	9
 980 00c6 3A       		.byte	58
 981 00c7 00       		.space	1
 982 00c8 00040240 		.word	1073873920
 983 00cc 44040240 		.word	1073873988
 984 00d0 00040000 		.word	1024
 985 00d4 00000000 		.word	0
 986 00d8 0C       		.byte	12
 987 00d9 0A       		.byte	10
 988 00da 3B       		.byte	59
 989 00db 00       		.space	1
 990 00dc 00040240 		.word	1073873920
 991 00e0 58040240 		.word	1073874008
 992 00e4 00080000 		.word	2048
 993 00e8 00000000 		.word	0
 994 00ec 10       		.byte	16
 995 00ed 0B       		.byte	11
 996 00ee 3C       		.byte	60
 997 00ef 00       		.space	1
 998              		.global	_stm32_dma_isr_redir
 999              		.section	.bss._stm32_dma_isr_redir,"aw",%nobits
 1000              		.align	2
ARM GAS  /tmp/ccAE1QPe.s 			page 73


 1001              		.type	_stm32_dma_isr_redir, %object
 1002              		.size	_stm32_dma_isr_redir, 96
 1003              	_stm32_dma_isr_redir:
 1004 0000 00000000 		.space	96
 1004      00000000 
 1004      00000000 
 1004      00000000 
 1004      00000000 
 1005              		.section	.bss.dma_streams_mask,"aw",%nobits
 1006              		.align	2
 1007              		.type	dma_streams_mask, %object
 1008              		.size	dma_streams_mask, 4
 1009              	dma_streams_mask:
 1010 0000 00000000 		.space	4
 1011              		.section	.text.Vector6C,"ax",%progbits
 1012              		.align	2
 1013              		.p2align 4,,15
 1014              		.global	Vector6C
 1015              		.thumb
 1016              		.thumb_func
 1017              		.type	Vector6C, %function
 1018              	Vector6C:
 1019              	.LFB272:
 1020              		.file 1 "../ChibiOS/os/hal/ports/STM32/LLD/DMAv1/stm32_dma.c"
 1021              		.loc 1 204 0
 1022              		.cfi_startproc
 1023              		@ args = 0, pretend = 0, frame = 8
 1024              		@ frame_needed = 0, uses_anonymous_args = 0
 1025 0000 00B5     		push	{lr}
 1026              		.cfi_def_cfa_offset 4
 1027              		.cfi_offset 14, -4
 1028 0002 83B0     		sub	sp, sp, #12
 1029              		.cfi_def_cfa_offset 16
 1030              	.LBB2:
 1031              		.loc 1 208 0
 1032 0004 0023     		movs	r3, #0
 1033 0006 0193     		str	r3, [sp, #4]
 1034 0008 144B     		ldr	r3, .L3
 1035 000a 1A68     		ldr	r2, [r3]
 1036 000c 0023     		movs	r3, #0
 1037 000e 22FA03F3 		lsr	r3, r2, r3
 1038 0012 03F00F03 		and	r3, r3, #15
 1039 0016 0093     		str	r3, [sp]
 1040 0018 009B     		ldr	r3, [sp]
 1041 001a 03F00F03 		and	r3, r3, #15
 1042 001e 002B     		cmp	r3, #0
 1043 0020 17D0     		beq	.L2
 1044              		.loc 1 208 0 is_stmt 0 discriminator 1
 1045 0022 0E4B     		ldr	r3, .L3
 1046 0024 0022     		movs	r2, #0
 1047 0026 0099     		ldr	r1, [sp]
 1048 0028 01FA02F2 		lsl	r2, r1, r2
 1049 002c 5A60     		str	r2, [r3, #4]
 1050 002e 0C4B     		ldr	r3, .L3+4
 1051 0030 019A     		ldr	r2, [sp, #4]
 1052 0032 53F83230 		ldr	r3, [r3, r2, lsl #3]
 1053 0036 002B     		cmp	r3, #0
ARM GAS  /tmp/ccAE1QPe.s 			page 74


 1054 0038 0BD0     		beq	.L2
 1055 003a 094B     		ldr	r3, .L3+4
 1056 003c 019A     		ldr	r2, [sp, #4]
 1057 003e 53F83220 		ldr	r2, [r3, r2, lsl #3]
 1058 0042 0749     		ldr	r1, .L3+4
 1059 0044 019B     		ldr	r3, [sp, #4]
 1060 0046 DB00     		lsls	r3, r3, #3
 1061 0048 0B44     		add	r3, r3, r1
 1062 004a 5B68     		ldr	r3, [r3, #4]
 1063 004c 1846     		mov	r0, r3
 1064 004e 0099     		ldr	r1, [sp]
 1065 0050 9047     		blx	r2
 1066              	.L2:
 1067              	.LBE2:
 1068              		.loc 1 210 0 is_stmt 1
 1069 0052 FFF7FEFF 		bl	_port_irq_epilogue
 1070              		.loc 1 211 0
 1071 0056 03B0     		add	sp, sp, #12
 1072              		@ sp needed
 1073 0058 5DF804FB 		ldr	pc, [sp], #4
 1074              	.L4:
 1075              		.align	2
 1076              	.L3:
 1077 005c 00000240 		.word	1073872896
 1078 0060 00000000 		.word	_stm32_dma_isr_redir
 1079              		.cfi_endproc
 1080              	.LFE272:
 1081              		.size	Vector6C, .-Vector6C
 1082 0064 AFF30080 		.section	.text.Vector70,"ax",%progbits
 1082      AFF30080 
 1082      AFF30080 
 1083              		.align	2
 1084              		.p2align 4,,15
 1085              		.global	Vector70
 1086              		.thumb
 1087              		.thumb_func
 1088              		.type	Vector70, %function
 1089              	Vector70:
 1090              	.LFB273:
 1091              		.loc 1 220 0
 1092              		.cfi_startproc
 1093              		@ args = 0, pretend = 0, frame = 8
 1094              		@ frame_needed = 0, uses_anonymous_args = 0
 1095 0000 00B5     		push	{lr}
 1096              		.cfi_def_cfa_offset 4
 1097              		.cfi_offset 14, -4
 1098 0002 83B0     		sub	sp, sp, #12
 1099              		.cfi_def_cfa_offset 16
 1100              	.LBB3:
 1101              		.loc 1 224 0
 1102 0004 0123     		movs	r3, #1
 1103 0006 0193     		str	r3, [sp, #4]
 1104 0008 144B     		ldr	r3, .L7
 1105 000a 1A68     		ldr	r2, [r3]
 1106 000c 0423     		movs	r3, #4
 1107 000e 22FA03F3 		lsr	r3, r2, r3
 1108 0012 03F00F03 		and	r3, r3, #15
ARM GAS  /tmp/ccAE1QPe.s 			page 75


 1109 0016 0093     		str	r3, [sp]
 1110 0018 009B     		ldr	r3, [sp]
 1111 001a 03F00F03 		and	r3, r3, #15
 1112 001e 002B     		cmp	r3, #0
 1113 0020 17D0     		beq	.L6
 1114              		.loc 1 224 0 is_stmt 0 discriminator 1
 1115 0022 0E4B     		ldr	r3, .L7
 1116 0024 0422     		movs	r2, #4
 1117 0026 0099     		ldr	r1, [sp]
 1118 0028 01FA02F2 		lsl	r2, r1, r2
 1119 002c 5A60     		str	r2, [r3, #4]
 1120 002e 0C4B     		ldr	r3, .L7+4
 1121 0030 019A     		ldr	r2, [sp, #4]
 1122 0032 53F83230 		ldr	r3, [r3, r2, lsl #3]
 1123 0036 002B     		cmp	r3, #0
 1124 0038 0BD0     		beq	.L6
 1125 003a 094B     		ldr	r3, .L7+4
 1126 003c 019A     		ldr	r2, [sp, #4]
 1127 003e 53F83220 		ldr	r2, [r3, r2, lsl #3]
 1128 0042 0749     		ldr	r1, .L7+4
 1129 0044 019B     		ldr	r3, [sp, #4]
 1130 0046 DB00     		lsls	r3, r3, #3
 1131 0048 0B44     		add	r3, r3, r1
 1132 004a 5B68     		ldr	r3, [r3, #4]
 1133 004c 1846     		mov	r0, r3
 1134 004e 0099     		ldr	r1, [sp]
 1135 0050 9047     		blx	r2
 1136              	.L6:
 1137              	.LBE3:
 1138              		.loc 1 226 0 is_stmt 1
 1139 0052 FFF7FEFF 		bl	_port_irq_epilogue
 1140              		.loc 1 227 0
 1141 0056 03B0     		add	sp, sp, #12
 1142              		@ sp needed
 1143 0058 5DF804FB 		ldr	pc, [sp], #4
 1144              	.L8:
 1145              		.align	2
 1146              	.L7:
 1147 005c 00000240 		.word	1073872896
 1148 0060 00000000 		.word	_stm32_dma_isr_redir
 1149              		.cfi_endproc
 1150              	.LFE273:
 1151              		.size	Vector70, .-Vector70
 1152 0064 AFF30080 		.section	.text.Vector74,"ax",%progbits
 1152      AFF30080 
 1152      AFF30080 
 1153              		.align	2
 1154              		.p2align 4,,15
 1155              		.global	Vector74
 1156              		.thumb
 1157              		.thumb_func
 1158              		.type	Vector74, %function
 1159              	Vector74:
 1160              	.LFB274:
 1161              		.loc 1 236 0
 1162              		.cfi_startproc
 1163              		@ args = 0, pretend = 0, frame = 8
ARM GAS  /tmp/ccAE1QPe.s 			page 76


 1164              		@ frame_needed = 0, uses_anonymous_args = 0
 1165 0000 00B5     		push	{lr}
 1166              		.cfi_def_cfa_offset 4
 1167              		.cfi_offset 14, -4
 1168 0002 83B0     		sub	sp, sp, #12
 1169              		.cfi_def_cfa_offset 16
 1170              	.LBB4:
 1171              		.loc 1 240 0
 1172 0004 0223     		movs	r3, #2
 1173 0006 0193     		str	r3, [sp, #4]
 1174 0008 144B     		ldr	r3, .L11
 1175 000a 1A68     		ldr	r2, [r3]
 1176 000c 0823     		movs	r3, #8
 1177 000e 22FA03F3 		lsr	r3, r2, r3
 1178 0012 03F00F03 		and	r3, r3, #15
 1179 0016 0093     		str	r3, [sp]
 1180 0018 009B     		ldr	r3, [sp]
 1181 001a 03F00F03 		and	r3, r3, #15
 1182 001e 002B     		cmp	r3, #0
 1183 0020 17D0     		beq	.L10
 1184              		.loc 1 240 0 is_stmt 0 discriminator 1
 1185 0022 0E4B     		ldr	r3, .L11
 1186 0024 0822     		movs	r2, #8
 1187 0026 0099     		ldr	r1, [sp]
 1188 0028 01FA02F2 		lsl	r2, r1, r2
 1189 002c 5A60     		str	r2, [r3, #4]
 1190 002e 0C4B     		ldr	r3, .L11+4
 1191 0030 019A     		ldr	r2, [sp, #4]
 1192 0032 53F83230 		ldr	r3, [r3, r2, lsl #3]
 1193 0036 002B     		cmp	r3, #0
 1194 0038 0BD0     		beq	.L10
 1195 003a 094B     		ldr	r3, .L11+4
 1196 003c 019A     		ldr	r2, [sp, #4]
 1197 003e 53F83220 		ldr	r2, [r3, r2, lsl #3]
 1198 0042 0749     		ldr	r1, .L11+4
 1199 0044 019B     		ldr	r3, [sp, #4]
 1200 0046 DB00     		lsls	r3, r3, #3
 1201 0048 0B44     		add	r3, r3, r1
 1202 004a 5B68     		ldr	r3, [r3, #4]
 1203 004c 1846     		mov	r0, r3
 1204 004e 0099     		ldr	r1, [sp]
 1205 0050 9047     		blx	r2
 1206              	.L10:
 1207              	.LBE4:
 1208              		.loc 1 242 0 is_stmt 1
 1209 0052 FFF7FEFF 		bl	_port_irq_epilogue
 1210              		.loc 1 243 0
 1211 0056 03B0     		add	sp, sp, #12
 1212              		@ sp needed
 1213 0058 5DF804FB 		ldr	pc, [sp], #4
 1214              	.L12:
 1215              		.align	2
 1216              	.L11:
 1217 005c 00000240 		.word	1073872896
 1218 0060 00000000 		.word	_stm32_dma_isr_redir
 1219              		.cfi_endproc
 1220              	.LFE274:
ARM GAS  /tmp/ccAE1QPe.s 			page 77


 1221              		.size	Vector74, .-Vector74
 1222 0064 AFF30080 		.section	.text.Vector78,"ax",%progbits
 1222      AFF30080 
 1222      AFF30080 
 1223              		.align	2
 1224              		.p2align 4,,15
 1225              		.global	Vector78
 1226              		.thumb
 1227              		.thumb_func
 1228              		.type	Vector78, %function
 1229              	Vector78:
 1230              	.LFB275:
 1231              		.loc 1 252 0
 1232              		.cfi_startproc
 1233              		@ args = 0, pretend = 0, frame = 8
 1234              		@ frame_needed = 0, uses_anonymous_args = 0
 1235 0000 00B5     		push	{lr}
 1236              		.cfi_def_cfa_offset 4
 1237              		.cfi_offset 14, -4
 1238 0002 83B0     		sub	sp, sp, #12
 1239              		.cfi_def_cfa_offset 16
 1240              	.LBB5:
 1241              		.loc 1 256 0
 1242 0004 0323     		movs	r3, #3
 1243 0006 0193     		str	r3, [sp, #4]
 1244 0008 144B     		ldr	r3, .L15
 1245 000a 1A68     		ldr	r2, [r3]
 1246 000c 0C23     		movs	r3, #12
 1247 000e 22FA03F3 		lsr	r3, r2, r3
 1248 0012 03F00F03 		and	r3, r3, #15
 1249 0016 0093     		str	r3, [sp]
 1250 0018 009B     		ldr	r3, [sp]
 1251 001a 03F00F03 		and	r3, r3, #15
 1252 001e 002B     		cmp	r3, #0
 1253 0020 17D0     		beq	.L14
 1254              		.loc 1 256 0 is_stmt 0 discriminator 1
 1255 0022 0E4B     		ldr	r3, .L15
 1256 0024 0C22     		movs	r2, #12
 1257 0026 0099     		ldr	r1, [sp]
 1258 0028 01FA02F2 		lsl	r2, r1, r2
 1259 002c 5A60     		str	r2, [r3, #4]
 1260 002e 0C4B     		ldr	r3, .L15+4
 1261 0030 019A     		ldr	r2, [sp, #4]
 1262 0032 53F83230 		ldr	r3, [r3, r2, lsl #3]
 1263 0036 002B     		cmp	r3, #0
 1264 0038 0BD0     		beq	.L14
 1265 003a 094B     		ldr	r3, .L15+4
 1266 003c 019A     		ldr	r2, [sp, #4]
 1267 003e 53F83220 		ldr	r2, [r3, r2, lsl #3]
 1268 0042 0749     		ldr	r1, .L15+4
 1269 0044 019B     		ldr	r3, [sp, #4]
 1270 0046 DB00     		lsls	r3, r3, #3
 1271 0048 0B44     		add	r3, r3, r1
 1272 004a 5B68     		ldr	r3, [r3, #4]
 1273 004c 1846     		mov	r0, r3
 1274 004e 0099     		ldr	r1, [sp]
 1275 0050 9047     		blx	r2
ARM GAS  /tmp/ccAE1QPe.s 			page 78


 1276              	.L14:
 1277              	.LBE5:
 1278              		.loc 1 258 0 is_stmt 1
 1279 0052 FFF7FEFF 		bl	_port_irq_epilogue
 1280              		.loc 1 259 0
 1281 0056 03B0     		add	sp, sp, #12
 1282              		@ sp needed
 1283 0058 5DF804FB 		ldr	pc, [sp], #4
 1284              	.L16:
 1285              		.align	2
 1286              	.L15:
 1287 005c 00000240 		.word	1073872896
 1288 0060 00000000 		.word	_stm32_dma_isr_redir
 1289              		.cfi_endproc
 1290              	.LFE275:
 1291              		.size	Vector78, .-Vector78
 1292 0064 AFF30080 		.section	.text.Vector7C,"ax",%progbits
 1292      AFF30080 
 1292      AFF30080 
 1293              		.align	2
 1294              		.p2align 4,,15
 1295              		.global	Vector7C
 1296              		.thumb
 1297              		.thumb_func
 1298              		.type	Vector7C, %function
 1299              	Vector7C:
 1300              	.LFB276:
 1301              		.loc 1 268 0
 1302              		.cfi_startproc
 1303              		@ args = 0, pretend = 0, frame = 8
 1304              		@ frame_needed = 0, uses_anonymous_args = 0
 1305 0000 00B5     		push	{lr}
 1306              		.cfi_def_cfa_offset 4
 1307              		.cfi_offset 14, -4
 1308 0002 83B0     		sub	sp, sp, #12
 1309              		.cfi_def_cfa_offset 16
 1310              	.LBB6:
 1311              		.loc 1 272 0
 1312 0004 0423     		movs	r3, #4
 1313 0006 0193     		str	r3, [sp, #4]
 1314 0008 144B     		ldr	r3, .L19
 1315 000a 1A68     		ldr	r2, [r3]
 1316 000c 1023     		movs	r3, #16
 1317 000e 22FA03F3 		lsr	r3, r2, r3
 1318 0012 03F00F03 		and	r3, r3, #15
 1319 0016 0093     		str	r3, [sp]
 1320 0018 009B     		ldr	r3, [sp]
 1321 001a 03F00F03 		and	r3, r3, #15
 1322 001e 002B     		cmp	r3, #0
 1323 0020 17D0     		beq	.L18
 1324              		.loc 1 272 0 is_stmt 0 discriminator 1
 1325 0022 0E4B     		ldr	r3, .L19
 1326 0024 1022     		movs	r2, #16
 1327 0026 0099     		ldr	r1, [sp]
 1328 0028 01FA02F2 		lsl	r2, r1, r2
 1329 002c 5A60     		str	r2, [r3, #4]
 1330 002e 0C4B     		ldr	r3, .L19+4
ARM GAS  /tmp/ccAE1QPe.s 			page 79


 1331 0030 019A     		ldr	r2, [sp, #4]
 1332 0032 53F83230 		ldr	r3, [r3, r2, lsl #3]
 1333 0036 002B     		cmp	r3, #0
 1334 0038 0BD0     		beq	.L18
 1335 003a 094B     		ldr	r3, .L19+4
 1336 003c 019A     		ldr	r2, [sp, #4]
 1337 003e 53F83220 		ldr	r2, [r3, r2, lsl #3]
 1338 0042 0749     		ldr	r1, .L19+4
 1339 0044 019B     		ldr	r3, [sp, #4]
 1340 0046 DB00     		lsls	r3, r3, #3
 1341 0048 0B44     		add	r3, r3, r1
 1342 004a 5B68     		ldr	r3, [r3, #4]
 1343 004c 1846     		mov	r0, r3
 1344 004e 0099     		ldr	r1, [sp]
 1345 0050 9047     		blx	r2
 1346              	.L18:
 1347              	.LBE6:
 1348              		.loc 1 274 0 is_stmt 1
 1349 0052 FFF7FEFF 		bl	_port_irq_epilogue
 1350              		.loc 1 275 0
 1351 0056 03B0     		add	sp, sp, #12
 1352              		@ sp needed
 1353 0058 5DF804FB 		ldr	pc, [sp], #4
 1354              	.L20:
 1355              		.align	2
 1356              	.L19:
 1357 005c 00000240 		.word	1073872896
 1358 0060 00000000 		.word	_stm32_dma_isr_redir
 1359              		.cfi_endproc
 1360              	.LFE276:
 1361              		.size	Vector7C, .-Vector7C
 1362 0064 AFF30080 		.section	.text.Vector80,"ax",%progbits
 1362      AFF30080 
 1362      AFF30080 
 1363              		.align	2
 1364              		.p2align 4,,15
 1365              		.global	Vector80
 1366              		.thumb
 1367              		.thumb_func
 1368              		.type	Vector80, %function
 1369              	Vector80:
 1370              	.LFB277:
 1371              		.loc 1 284 0
 1372              		.cfi_startproc
 1373              		@ args = 0, pretend = 0, frame = 8
 1374              		@ frame_needed = 0, uses_anonymous_args = 0
 1375 0000 00B5     		push	{lr}
 1376              		.cfi_def_cfa_offset 4
 1377              		.cfi_offset 14, -4
 1378 0002 83B0     		sub	sp, sp, #12
 1379              		.cfi_def_cfa_offset 16
 1380              	.LBB7:
 1381              		.loc 1 288 0
 1382 0004 0523     		movs	r3, #5
 1383 0006 0193     		str	r3, [sp, #4]
 1384 0008 144B     		ldr	r3, .L23
 1385 000a 1A68     		ldr	r2, [r3]
ARM GAS  /tmp/ccAE1QPe.s 			page 80


 1386 000c 1423     		movs	r3, #20
 1387 000e 22FA03F3 		lsr	r3, r2, r3
 1388 0012 03F00F03 		and	r3, r3, #15
 1389 0016 0093     		str	r3, [sp]
 1390 0018 009B     		ldr	r3, [sp]
 1391 001a 03F00F03 		and	r3, r3, #15
 1392 001e 002B     		cmp	r3, #0
 1393 0020 17D0     		beq	.L22
 1394              		.loc 1 288 0 is_stmt 0 discriminator 1
 1395 0022 0E4B     		ldr	r3, .L23
 1396 0024 1422     		movs	r2, #20
 1397 0026 0099     		ldr	r1, [sp]
 1398 0028 01FA02F2 		lsl	r2, r1, r2
 1399 002c 5A60     		str	r2, [r3, #4]
 1400 002e 0C4B     		ldr	r3, .L23+4
 1401 0030 019A     		ldr	r2, [sp, #4]
 1402 0032 53F83230 		ldr	r3, [r3, r2, lsl #3]
 1403 0036 002B     		cmp	r3, #0
 1404 0038 0BD0     		beq	.L22
 1405 003a 094B     		ldr	r3, .L23+4
 1406 003c 019A     		ldr	r2, [sp, #4]
 1407 003e 53F83220 		ldr	r2, [r3, r2, lsl #3]
 1408 0042 0749     		ldr	r1, .L23+4
 1409 0044 019B     		ldr	r3, [sp, #4]
 1410 0046 DB00     		lsls	r3, r3, #3
 1411 0048 0B44     		add	r3, r3, r1
 1412 004a 5B68     		ldr	r3, [r3, #4]
 1413 004c 1846     		mov	r0, r3
 1414 004e 0099     		ldr	r1, [sp]
 1415 0050 9047     		blx	r2
 1416              	.L22:
 1417              	.LBE7:
 1418              		.loc 1 290 0 is_stmt 1
 1419 0052 FFF7FEFF 		bl	_port_irq_epilogue
 1420              		.loc 1 291 0
 1421 0056 03B0     		add	sp, sp, #12
 1422              		@ sp needed
 1423 0058 5DF804FB 		ldr	pc, [sp], #4
 1424              	.L24:
 1425              		.align	2
 1426              	.L23:
 1427 005c 00000240 		.word	1073872896
 1428 0060 00000000 		.word	_stm32_dma_isr_redir
 1429              		.cfi_endproc
 1430              	.LFE277:
 1431              		.size	Vector80, .-Vector80
 1432 0064 AFF30080 		.section	.text.Vector84,"ax",%progbits
 1432      AFF30080 
 1432      AFF30080 
 1433              		.align	2
 1434              		.p2align 4,,15
 1435              		.global	Vector84
 1436              		.thumb
 1437              		.thumb_func
 1438              		.type	Vector84, %function
 1439              	Vector84:
 1440              	.LFB278:
ARM GAS  /tmp/ccAE1QPe.s 			page 81


 1441              		.loc 1 300 0
 1442              		.cfi_startproc
 1443              		@ args = 0, pretend = 0, frame = 8
 1444              		@ frame_needed = 0, uses_anonymous_args = 0
 1445 0000 00B5     		push	{lr}
 1446              		.cfi_def_cfa_offset 4
 1447              		.cfi_offset 14, -4
 1448 0002 83B0     		sub	sp, sp, #12
 1449              		.cfi_def_cfa_offset 16
 1450              	.LBB8:
 1451              		.loc 1 304 0
 1452 0004 0623     		movs	r3, #6
 1453 0006 0193     		str	r3, [sp, #4]
 1454 0008 144B     		ldr	r3, .L27
 1455 000a 1A68     		ldr	r2, [r3]
 1456 000c 1823     		movs	r3, #24
 1457 000e 22FA03F3 		lsr	r3, r2, r3
 1458 0012 03F00F03 		and	r3, r3, #15
 1459 0016 0093     		str	r3, [sp]
 1460 0018 009B     		ldr	r3, [sp]
 1461 001a 03F00F03 		and	r3, r3, #15
 1462 001e 002B     		cmp	r3, #0
 1463 0020 17D0     		beq	.L26
 1464              		.loc 1 304 0 is_stmt 0 discriminator 1
 1465 0022 0E4B     		ldr	r3, .L27
 1466 0024 1822     		movs	r2, #24
 1467 0026 0099     		ldr	r1, [sp]
 1468 0028 01FA02F2 		lsl	r2, r1, r2
 1469 002c 5A60     		str	r2, [r3, #4]
 1470 002e 0C4B     		ldr	r3, .L27+4
 1471 0030 019A     		ldr	r2, [sp, #4]
 1472 0032 53F83230 		ldr	r3, [r3, r2, lsl #3]
 1473 0036 002B     		cmp	r3, #0
 1474 0038 0BD0     		beq	.L26
 1475 003a 094B     		ldr	r3, .L27+4
 1476 003c 019A     		ldr	r2, [sp, #4]
 1477 003e 53F83220 		ldr	r2, [r3, r2, lsl #3]
 1478 0042 0749     		ldr	r1, .L27+4
 1479 0044 019B     		ldr	r3, [sp, #4]
 1480 0046 DB00     		lsls	r3, r3, #3
 1481 0048 0B44     		add	r3, r3, r1
 1482 004a 5B68     		ldr	r3, [r3, #4]
 1483 004c 1846     		mov	r0, r3
 1484 004e 0099     		ldr	r1, [sp]
 1485 0050 9047     		blx	r2
 1486              	.L26:
 1487              	.LBE8:
 1488              		.loc 1 306 0 is_stmt 1
 1489 0052 FFF7FEFF 		bl	_port_irq_epilogue
 1490              		.loc 1 307 0
 1491 0056 03B0     		add	sp, sp, #12
 1492              		@ sp needed
 1493 0058 5DF804FB 		ldr	pc, [sp], #4
 1494              	.L28:
 1495              		.align	2
 1496              	.L27:
 1497 005c 00000240 		.word	1073872896
ARM GAS  /tmp/ccAE1QPe.s 			page 82


 1498 0060 00000000 		.word	_stm32_dma_isr_redir
 1499              		.cfi_endproc
 1500              	.LFE278:
 1501              		.size	Vector84, .-Vector84
 1502 0064 AFF30080 		.section	.text.Vector120,"ax",%progbits
 1502      AFF30080 
 1502      AFF30080 
 1503              		.align	2
 1504              		.p2align 4,,15
 1505              		.global	Vector120
 1506              		.thumb
 1507              		.thumb_func
 1508              		.type	Vector120, %function
 1509              	Vector120:
 1510              	.LFB279:
 1511              		.loc 1 316 0
 1512              		.cfi_startproc
 1513              		@ args = 0, pretend = 0, frame = 8
 1514              		@ frame_needed = 0, uses_anonymous_args = 0
 1515 0000 00B5     		push	{lr}
 1516              		.cfi_def_cfa_offset 4
 1517              		.cfi_offset 14, -4
 1518 0002 83B0     		sub	sp, sp, #12
 1519              		.cfi_def_cfa_offset 16
 1520              	.LBB9:
 1521              		.loc 1 320 0
 1522 0004 0723     		movs	r3, #7
 1523 0006 0193     		str	r3, [sp, #4]
 1524 0008 144B     		ldr	r3, .L31
 1525 000a 1A68     		ldr	r2, [r3]
 1526 000c 0023     		movs	r3, #0
 1527 000e 22FA03F3 		lsr	r3, r2, r3
 1528 0012 03F00F03 		and	r3, r3, #15
 1529 0016 0093     		str	r3, [sp]
 1530 0018 009B     		ldr	r3, [sp]
 1531 001a 03F00F03 		and	r3, r3, #15
 1532 001e 002B     		cmp	r3, #0
 1533 0020 17D0     		beq	.L30
 1534              		.loc 1 320 0 is_stmt 0 discriminator 1
 1535 0022 0E4B     		ldr	r3, .L31
 1536 0024 0022     		movs	r2, #0
 1537 0026 0099     		ldr	r1, [sp]
 1538 0028 01FA02F2 		lsl	r2, r1, r2
 1539 002c 5A60     		str	r2, [r3, #4]
 1540 002e 0C4B     		ldr	r3, .L31+4
 1541 0030 019A     		ldr	r2, [sp, #4]
 1542 0032 53F83230 		ldr	r3, [r3, r2, lsl #3]
 1543 0036 002B     		cmp	r3, #0
 1544 0038 0BD0     		beq	.L30
 1545 003a 094B     		ldr	r3, .L31+4
 1546 003c 019A     		ldr	r2, [sp, #4]
 1547 003e 53F83220 		ldr	r2, [r3, r2, lsl #3]
 1548 0042 0749     		ldr	r1, .L31+4
 1549 0044 019B     		ldr	r3, [sp, #4]
 1550 0046 DB00     		lsls	r3, r3, #3
 1551 0048 0B44     		add	r3, r3, r1
 1552 004a 5B68     		ldr	r3, [r3, #4]
ARM GAS  /tmp/ccAE1QPe.s 			page 83


 1553 004c 1846     		mov	r0, r3
 1554 004e 0099     		ldr	r1, [sp]
 1555 0050 9047     		blx	r2
 1556              	.L30:
 1557              	.LBE9:
 1558              		.loc 1 322 0 is_stmt 1
 1559 0052 FFF7FEFF 		bl	_port_irq_epilogue
 1560              		.loc 1 323 0
 1561 0056 03B0     		add	sp, sp, #12
 1562              		@ sp needed
 1563 0058 5DF804FB 		ldr	pc, [sp], #4
 1564              	.L32:
 1565              		.align	2
 1566              	.L31:
 1567 005c 00040240 		.word	1073873920
 1568 0060 00000000 		.word	_stm32_dma_isr_redir
 1569              		.cfi_endproc
 1570              	.LFE279:
 1571              		.size	Vector120, .-Vector120
 1572 0064 AFF30080 		.section	.text.Vector124,"ax",%progbits
 1572      AFF30080 
 1572      AFF30080 
 1573              		.align	2
 1574              		.p2align 4,,15
 1575              		.global	Vector124
 1576              		.thumb
 1577              		.thumb_func
 1578              		.type	Vector124, %function
 1579              	Vector124:
 1580              	.LFB280:
 1581              		.loc 1 332 0
 1582              		.cfi_startproc
 1583              		@ args = 0, pretend = 0, frame = 8
 1584              		@ frame_needed = 0, uses_anonymous_args = 0
 1585 0000 00B5     		push	{lr}
 1586              		.cfi_def_cfa_offset 4
 1587              		.cfi_offset 14, -4
 1588 0002 83B0     		sub	sp, sp, #12
 1589              		.cfi_def_cfa_offset 16
 1590              	.LBB10:
 1591              		.loc 1 336 0
 1592 0004 0823     		movs	r3, #8
 1593 0006 0193     		str	r3, [sp, #4]
 1594 0008 144B     		ldr	r3, .L35
 1595 000a 1A68     		ldr	r2, [r3]
 1596 000c 0423     		movs	r3, #4
 1597 000e 22FA03F3 		lsr	r3, r2, r3
 1598 0012 03F00F03 		and	r3, r3, #15
 1599 0016 0093     		str	r3, [sp]
 1600 0018 009B     		ldr	r3, [sp]
 1601 001a 03F00F03 		and	r3, r3, #15
 1602 001e 002B     		cmp	r3, #0
 1603 0020 17D0     		beq	.L34
 1604              		.loc 1 336 0 is_stmt 0 discriminator 1
 1605 0022 0E4B     		ldr	r3, .L35
 1606 0024 0422     		movs	r2, #4
 1607 0026 0099     		ldr	r1, [sp]
ARM GAS  /tmp/ccAE1QPe.s 			page 84


 1608 0028 01FA02F2 		lsl	r2, r1, r2
 1609 002c 5A60     		str	r2, [r3, #4]
 1610 002e 0C4B     		ldr	r3, .L35+4
 1611 0030 019A     		ldr	r2, [sp, #4]
 1612 0032 53F83230 		ldr	r3, [r3, r2, lsl #3]
 1613 0036 002B     		cmp	r3, #0
 1614 0038 0BD0     		beq	.L34
 1615 003a 094B     		ldr	r3, .L35+4
 1616 003c 019A     		ldr	r2, [sp, #4]
 1617 003e 53F83220 		ldr	r2, [r3, r2, lsl #3]
 1618 0042 0749     		ldr	r1, .L35+4
 1619 0044 019B     		ldr	r3, [sp, #4]
 1620 0046 DB00     		lsls	r3, r3, #3
 1621 0048 0B44     		add	r3, r3, r1
 1622 004a 5B68     		ldr	r3, [r3, #4]
 1623 004c 1846     		mov	r0, r3
 1624 004e 0099     		ldr	r1, [sp]
 1625 0050 9047     		blx	r2
 1626              	.L34:
 1627              	.LBE10:
 1628              		.loc 1 338 0 is_stmt 1
 1629 0052 FFF7FEFF 		bl	_port_irq_epilogue
 1630              		.loc 1 339 0
 1631 0056 03B0     		add	sp, sp, #12
 1632              		@ sp needed
 1633 0058 5DF804FB 		ldr	pc, [sp], #4
 1634              	.L36:
 1635              		.align	2
 1636              	.L35:
 1637 005c 00040240 		.word	1073873920
 1638 0060 00000000 		.word	_stm32_dma_isr_redir
 1639              		.cfi_endproc
 1640              	.LFE280:
 1641              		.size	Vector124, .-Vector124
 1642 0064 AFF30080 		.section	.text.Vector128,"ax",%progbits
 1642      AFF30080 
 1642      AFF30080 
 1643              		.align	2
 1644              		.p2align 4,,15
 1645              		.global	Vector128
 1646              		.thumb
 1647              		.thumb_func
 1648              		.type	Vector128, %function
 1649              	Vector128:
 1650              	.LFB281:
 1651              		.loc 1 348 0
 1652              		.cfi_startproc
 1653              		@ args = 0, pretend = 0, frame = 8
 1654              		@ frame_needed = 0, uses_anonymous_args = 0
 1655 0000 00B5     		push	{lr}
 1656              		.cfi_def_cfa_offset 4
 1657              		.cfi_offset 14, -4
 1658 0002 83B0     		sub	sp, sp, #12
 1659              		.cfi_def_cfa_offset 16
 1660              	.LBB11:
 1661              		.loc 1 352 0
 1662 0004 0923     		movs	r3, #9
ARM GAS  /tmp/ccAE1QPe.s 			page 85


 1663 0006 0193     		str	r3, [sp, #4]
 1664 0008 144B     		ldr	r3, .L39
 1665 000a 1A68     		ldr	r2, [r3]
 1666 000c 0823     		movs	r3, #8
 1667 000e 22FA03F3 		lsr	r3, r2, r3
 1668 0012 03F00F03 		and	r3, r3, #15
 1669 0016 0093     		str	r3, [sp]
 1670 0018 009B     		ldr	r3, [sp]
 1671 001a 03F00F03 		and	r3, r3, #15
 1672 001e 002B     		cmp	r3, #0
 1673 0020 17D0     		beq	.L38
 1674              		.loc 1 352 0 is_stmt 0 discriminator 1
 1675 0022 0E4B     		ldr	r3, .L39
 1676 0024 0822     		movs	r2, #8
 1677 0026 0099     		ldr	r1, [sp]
 1678 0028 01FA02F2 		lsl	r2, r1, r2
 1679 002c 5A60     		str	r2, [r3, #4]
 1680 002e 0C4B     		ldr	r3, .L39+4
 1681 0030 019A     		ldr	r2, [sp, #4]
 1682 0032 53F83230 		ldr	r3, [r3, r2, lsl #3]
 1683 0036 002B     		cmp	r3, #0
 1684 0038 0BD0     		beq	.L38
 1685 003a 094B     		ldr	r3, .L39+4
 1686 003c 019A     		ldr	r2, [sp, #4]
 1687 003e 53F83220 		ldr	r2, [r3, r2, lsl #3]
 1688 0042 0749     		ldr	r1, .L39+4
 1689 0044 019B     		ldr	r3, [sp, #4]
 1690 0046 DB00     		lsls	r3, r3, #3
 1691 0048 0B44     		add	r3, r3, r1
 1692 004a 5B68     		ldr	r3, [r3, #4]
 1693 004c 1846     		mov	r0, r3
 1694 004e 0099     		ldr	r1, [sp]
 1695 0050 9047     		blx	r2
 1696              	.L38:
 1697              	.LBE11:
 1698              		.loc 1 354 0 is_stmt 1
 1699 0052 FFF7FEFF 		bl	_port_irq_epilogue
 1700              		.loc 1 355 0
 1701 0056 03B0     		add	sp, sp, #12
 1702              		@ sp needed
 1703 0058 5DF804FB 		ldr	pc, [sp], #4
 1704              	.L40:
 1705              		.align	2
 1706              	.L39:
 1707 005c 00040240 		.word	1073873920
 1708 0060 00000000 		.word	_stm32_dma_isr_redir
 1709              		.cfi_endproc
 1710              	.LFE281:
 1711              		.size	Vector128, .-Vector128
 1712 0064 AFF30080 		.section	.text.Vector12C,"ax",%progbits
 1712      AFF30080 
 1712      AFF30080 
 1713              		.align	2
 1714              		.p2align 4,,15
 1715              		.global	Vector12C
 1716              		.thumb
 1717              		.thumb_func
ARM GAS  /tmp/ccAE1QPe.s 			page 86


 1718              		.type	Vector12C, %function
 1719              	Vector12C:
 1720              	.LFB282:
 1721              		.loc 1 364 0
 1722              		.cfi_startproc
 1723              		@ args = 0, pretend = 0, frame = 8
 1724              		@ frame_needed = 0, uses_anonymous_args = 0
 1725 0000 00B5     		push	{lr}
 1726              		.cfi_def_cfa_offset 4
 1727              		.cfi_offset 14, -4
 1728 0002 83B0     		sub	sp, sp, #12
 1729              		.cfi_def_cfa_offset 16
 1730              	.LBB12:
 1731              		.loc 1 368 0
 1732 0004 0A23     		movs	r3, #10
 1733 0006 0193     		str	r3, [sp, #4]
 1734 0008 144B     		ldr	r3, .L43
 1735 000a 1A68     		ldr	r2, [r3]
 1736 000c 0C23     		movs	r3, #12
 1737 000e 22FA03F3 		lsr	r3, r2, r3
 1738 0012 03F00F03 		and	r3, r3, #15
 1739 0016 0093     		str	r3, [sp]
 1740 0018 009B     		ldr	r3, [sp]
 1741 001a 03F00F03 		and	r3, r3, #15
 1742 001e 002B     		cmp	r3, #0
 1743 0020 17D0     		beq	.L42
 1744              		.loc 1 368 0 is_stmt 0 discriminator 1
 1745 0022 0E4B     		ldr	r3, .L43
 1746 0024 0C22     		movs	r2, #12
 1747 0026 0099     		ldr	r1, [sp]
 1748 0028 01FA02F2 		lsl	r2, r1, r2
 1749 002c 5A60     		str	r2, [r3, #4]
 1750 002e 0C4B     		ldr	r3, .L43+4
 1751 0030 019A     		ldr	r2, [sp, #4]
 1752 0032 53F83230 		ldr	r3, [r3, r2, lsl #3]
 1753 0036 002B     		cmp	r3, #0
 1754 0038 0BD0     		beq	.L42
 1755 003a 094B     		ldr	r3, .L43+4
 1756 003c 019A     		ldr	r2, [sp, #4]
 1757 003e 53F83220 		ldr	r2, [r3, r2, lsl #3]
 1758 0042 0749     		ldr	r1, .L43+4
 1759 0044 019B     		ldr	r3, [sp, #4]
 1760 0046 DB00     		lsls	r3, r3, #3
 1761 0048 0B44     		add	r3, r3, r1
 1762 004a 5B68     		ldr	r3, [r3, #4]
 1763 004c 1846     		mov	r0, r3
 1764 004e 0099     		ldr	r1, [sp]
 1765 0050 9047     		blx	r2
 1766              	.L42:
 1767              	.LBE12:
 1768              		.loc 1 370 0 is_stmt 1
 1769 0052 FFF7FEFF 		bl	_port_irq_epilogue
 1770              		.loc 1 371 0
 1771 0056 03B0     		add	sp, sp, #12
 1772              		@ sp needed
 1773 0058 5DF804FB 		ldr	pc, [sp], #4
 1774              	.L44:
ARM GAS  /tmp/ccAE1QPe.s 			page 87


 1775              		.align	2
 1776              	.L43:
 1777 005c 00040240 		.word	1073873920
 1778 0060 00000000 		.word	_stm32_dma_isr_redir
 1779              		.cfi_endproc
 1780              	.LFE282:
 1781              		.size	Vector12C, .-Vector12C
 1782 0064 AFF30080 		.section	.text.Vector130,"ax",%progbits
 1782      AFF30080 
 1782      AFF30080 
 1783              		.align	2
 1784              		.p2align 4,,15
 1785              		.global	Vector130
 1786              		.thumb
 1787              		.thumb_func
 1788              		.type	Vector130, %function
 1789              	Vector130:
 1790              	.LFB283:
 1791              		.loc 1 380 0
 1792              		.cfi_startproc
 1793              		@ args = 0, pretend = 0, frame = 8
 1794              		@ frame_needed = 0, uses_anonymous_args = 0
 1795 0000 00B5     		push	{lr}
 1796              		.cfi_def_cfa_offset 4
 1797              		.cfi_offset 14, -4
 1798 0002 83B0     		sub	sp, sp, #12
 1799              		.cfi_def_cfa_offset 16
 1800              	.LBB13:
 1801              		.loc 1 384 0
 1802 0004 0B23     		movs	r3, #11
 1803 0006 0193     		str	r3, [sp, #4]
 1804 0008 144B     		ldr	r3, .L47
 1805 000a 1A68     		ldr	r2, [r3]
 1806 000c 1023     		movs	r3, #16
 1807 000e 22FA03F3 		lsr	r3, r2, r3
 1808 0012 03F00F03 		and	r3, r3, #15
 1809 0016 0093     		str	r3, [sp]
 1810 0018 009B     		ldr	r3, [sp]
 1811 001a 03F00F03 		and	r3, r3, #15
 1812 001e 002B     		cmp	r3, #0
 1813 0020 17D0     		beq	.L46
 1814              		.loc 1 384 0 is_stmt 0 discriminator 1
 1815 0022 0E4B     		ldr	r3, .L47
 1816 0024 1022     		movs	r2, #16
 1817 0026 0099     		ldr	r1, [sp]
 1818 0028 01FA02F2 		lsl	r2, r1, r2
 1819 002c 5A60     		str	r2, [r3, #4]
 1820 002e 0C4B     		ldr	r3, .L47+4
 1821 0030 019A     		ldr	r2, [sp, #4]
 1822 0032 53F83230 		ldr	r3, [r3, r2, lsl #3]
 1823 0036 002B     		cmp	r3, #0
 1824 0038 0BD0     		beq	.L46
 1825 003a 094B     		ldr	r3, .L47+4
 1826 003c 019A     		ldr	r2, [sp, #4]
 1827 003e 53F83220 		ldr	r2, [r3, r2, lsl #3]
 1828 0042 0749     		ldr	r1, .L47+4
 1829 0044 019B     		ldr	r3, [sp, #4]
ARM GAS  /tmp/ccAE1QPe.s 			page 88


 1830 0046 DB00     		lsls	r3, r3, #3
 1831 0048 0B44     		add	r3, r3, r1
 1832 004a 5B68     		ldr	r3, [r3, #4]
 1833 004c 1846     		mov	r0, r3
 1834 004e 0099     		ldr	r1, [sp]
 1835 0050 9047     		blx	r2
 1836              	.L46:
 1837              	.LBE13:
 1838              		.loc 1 386 0 is_stmt 1
 1839 0052 FFF7FEFF 		bl	_port_irq_epilogue
 1840              		.loc 1 387 0
 1841 0056 03B0     		add	sp, sp, #12
 1842              		@ sp needed
 1843 0058 5DF804FB 		ldr	pc, [sp], #4
 1844              	.L48:
 1845              		.align	2
 1846              	.L47:
 1847 005c 00040240 		.word	1073873920
 1848 0060 00000000 		.word	_stm32_dma_isr_redir
 1849              		.cfi_endproc
 1850              	.LFE283:
 1851              		.size	Vector130, .-Vector130
 1852 0064 AFF30080 		.section	.text.dmaInit,"ax",%progbits
 1852      AFF30080 
 1852      AFF30080 
 1853              		.align	2
 1854              		.p2align 4,,15
 1855              		.global	dmaInit
 1856              		.thumb
 1857              		.thumb_func
 1858              		.type	dmaInit, %function
 1859              	dmaInit:
 1860              	.LFB284:
 1861              		.loc 1 431 0
 1862              		.cfi_startproc
 1863              		@ args = 0, pretend = 0, frame = 8
 1864              		@ frame_needed = 0, uses_anonymous_args = 0
 1865              		@ link register save eliminated.
 1866 0000 82B0     		sub	sp, sp, #8
 1867              		.cfi_def_cfa_offset 8
 1868              		.loc 1 434 0
 1869 0002 124B     		ldr	r3, .L52
 1870 0004 0022     		movs	r2, #0
 1871 0006 1A60     		str	r2, [r3]
 1872              		.loc 1 435 0
 1873 0008 0023     		movs	r3, #0
 1874 000a 0193     		str	r3, [sp, #4]
 1875 000c 11E0     		b	.L50
 1876              	.L51:
 1877              		.loc 1 436 0 discriminator 2
 1878 000e 1049     		ldr	r1, .L52+4
 1879 0010 019A     		ldr	r2, [sp, #4]
 1880 0012 1346     		mov	r3, r2
 1881 0014 9B00     		lsls	r3, r3, #2
 1882 0016 1344     		add	r3, r3, r2
 1883 0018 9B00     		lsls	r3, r3, #2
 1884 001a 0B44     		add	r3, r3, r1
ARM GAS  /tmp/ccAE1QPe.s 			page 89


 1885 001c 5B68     		ldr	r3, [r3, #4]
 1886 001e 0022     		movs	r2, #0
 1887 0020 1A60     		str	r2, [r3]
 1888              		.loc 1 437 0 discriminator 2
 1889 0022 0C4B     		ldr	r3, .L52+8
 1890 0024 019A     		ldr	r2, [sp, #4]
 1891 0026 0021     		movs	r1, #0
 1892 0028 43F83210 		str	r1, [r3, r2, lsl #3]
 1893              		.loc 1 435 0 discriminator 2
 1894 002c 019B     		ldr	r3, [sp, #4]
 1895 002e 0133     		adds	r3, r3, #1
 1896 0030 0193     		str	r3, [sp, #4]
 1897              	.L50:
 1898              		.loc 1 435 0 is_stmt 0 discriminator 1
 1899 0032 019B     		ldr	r3, [sp, #4]
 1900 0034 0B2B     		cmp	r3, #11
 1901 0036 EADD     		ble	.L51
 1902              		.loc 1 439 0 is_stmt 1
 1903 0038 074B     		ldr	r3, .L52+12
 1904 003a 4FF0FF32 		mov	r2, #-1
 1905 003e 5A60     		str	r2, [r3, #4]
 1906              		.loc 1 441 0
 1907 0040 064B     		ldr	r3, .L52+16
 1908 0042 4FF0FF32 		mov	r2, #-1
 1909 0046 5A60     		str	r2, [r3, #4]
 1910              		.loc 1 443 0
 1911 0048 02B0     		add	sp, sp, #8
 1912              		@ sp needed
 1913 004a 7047     		bx	lr
 1914              	.L53:
 1915              		.align	2
 1916              	.L52:
 1917 004c 00000000 		.word	dma_streams_mask
 1918 0050 00000000 		.word	_stm32_dma_streams
 1919 0054 00000000 		.word	_stm32_dma_isr_redir
 1920 0058 00000240 		.word	1073872896
 1921 005c 00040240 		.word	1073873920
 1922              		.cfi_endproc
 1923              	.LFE284:
 1924              		.size	dmaInit, .-dmaInit
 1925              		.section	.text.dmaStreamAllocate,"ax",%progbits
 1926              		.align	2
 1927              		.p2align 4,,15
 1928              		.global	dmaStreamAllocate
 1929              		.thumb
 1930              		.thumb_func
 1931              		.type	dmaStreamAllocate, %function
 1932              	dmaStreamAllocate:
 1933              	.LFB285:
 1934              		.loc 1 472 0
 1935              		.cfi_startproc
 1936              		@ args = 0, pretend = 0, frame = 16
 1937              		@ frame_needed = 0, uses_anonymous_args = 0
 1938 0000 00B5     		push	{lr}
 1939              		.cfi_def_cfa_offset 4
 1940              		.cfi_offset 14, -4
 1941 0002 85B0     		sub	sp, sp, #20
ARM GAS  /tmp/ccAE1QPe.s 			page 90


 1942              		.cfi_def_cfa_offset 24
 1943 0004 0390     		str	r0, [sp, #12]
 1944 0006 0291     		str	r1, [sp, #8]
 1945 0008 0192     		str	r2, [sp, #4]
 1946 000a 0093     		str	r3, [sp]
 1947              		.loc 1 477 0
 1948 000c 039B     		ldr	r3, [sp, #12]
 1949 000e 5B7C     		ldrb	r3, [r3, #17]	@ zero_extendqisi2
 1950 0010 0122     		movs	r2, #1
 1951 0012 9A40     		lsls	r2, r2, r3
 1952 0014 2F4B     		ldr	r3, .L60
 1953 0016 1B68     		ldr	r3, [r3]
 1954 0018 1340     		ands	r3, r3, r2
 1955 001a 002B     		cmp	r3, #0
 1956 001c 01D0     		beq	.L55
 1957              		.loc 1 478 0
 1958 001e 0123     		movs	r3, #1
 1959 0020 53E0     		b	.L56
 1960              	.L55:
 1961              		.loc 1 481 0
 1962 0022 039B     		ldr	r3, [sp, #12]
 1963 0024 5B7C     		ldrb	r3, [r3, #17]	@ zero_extendqisi2
 1964 0026 1A46     		mov	r2, r3
 1965 0028 2B4B     		ldr	r3, .L60+4
 1966 002a 0199     		ldr	r1, [sp, #4]
 1967 002c 43F83210 		str	r1, [r3, r2, lsl #3]
 1968              		.loc 1 482 0
 1969 0030 039B     		ldr	r3, [sp, #12]
 1970 0032 5B7C     		ldrb	r3, [r3, #17]	@ zero_extendqisi2
 1971 0034 284A     		ldr	r2, .L60+4
 1972 0036 DB00     		lsls	r3, r3, #3
 1973 0038 1344     		add	r3, r3, r2
 1974 003a 009A     		ldr	r2, [sp]
 1975 003c 5A60     		str	r2, [r3, #4]
 1976              		.loc 1 485 0
 1977 003e 254B     		ldr	r3, .L60
 1978 0040 1B68     		ldr	r3, [r3]
 1979 0042 03F07F03 		and	r3, r3, #127
 1980 0046 002B     		cmp	r3, #0
 1981 0048 05D1     		bne	.L57
 1982              		.loc 1 486 0
 1983 004a 244B     		ldr	r3, .L60+8
 1984 004c 234A     		ldr	r2, .L60+8
 1985 004e 5269     		ldr	r2, [r2, #20]
 1986 0050 42F00102 		orr	r2, r2, #1
 1987 0054 5A61     		str	r2, [r3, #20]
 1988              	.L57:
 1989              		.loc 1 489 0
 1990 0056 1F4B     		ldr	r3, .L60
 1991 0058 1B68     		ldr	r3, [r3]
 1992 005a 03F47863 		and	r3, r3, #3968
 1993 005e 002B     		cmp	r3, #0
 1994 0060 05D1     		bne	.L58
 1995              		.loc 1 490 0
 1996 0062 1E4B     		ldr	r3, .L60+8
 1997 0064 1D4A     		ldr	r2, .L60+8
 1998 0066 5269     		ldr	r2, [r2, #20]
ARM GAS  /tmp/ccAE1QPe.s 			page 91


 1999 0068 42F00202 		orr	r2, r2, #2
 2000 006c 5A61     		str	r2, [r3, #20]
 2001              	.L58:
 2002              		.loc 1 495 0
 2003 006e 039B     		ldr	r3, [sp, #12]
 2004 0070 5B68     		ldr	r3, [r3, #4]
 2005 0072 039A     		ldr	r2, [sp, #12]
 2006 0074 5268     		ldr	r2, [r2, #4]
 2007 0076 1268     		ldr	r2, [r2]
 2008 0078 22F00F02 		bic	r2, r2, #15
 2009 007c 1A60     		str	r2, [r3]
 2010 007e 039B     		ldr	r3, [sp, #12]
 2011 0080 1B68     		ldr	r3, [r3]
 2012 0082 039A     		ldr	r2, [sp, #12]
 2013 0084 127C     		ldrb	r2, [r2, #16]	@ zero_extendqisi2
 2014 0086 0F21     		movs	r1, #15
 2015 0088 01FA02F2 		lsl	r2, r1, r2
 2016 008c 5A60     		str	r2, [r3, #4]
 2017              		.loc 1 496 0
 2018 008e 039B     		ldr	r3, [sp, #12]
 2019 0090 5B68     		ldr	r3, [r3, #4]
 2020 0092 0022     		movs	r2, #0
 2021 0094 1A60     		str	r2, [r3]
 2022              		.loc 1 500 0
 2023 0096 039B     		ldr	r3, [sp, #12]
 2024 0098 9A68     		ldr	r2, [r3, #8]
 2025 009a 0E4B     		ldr	r3, .L60
 2026 009c 1B68     		ldr	r3, [r3]
 2027 009e 1340     		ands	r3, r3, r2
 2028 00a0 002B     		cmp	r3, #0
 2029 00a2 08D1     		bne	.L59
 2030              		.loc 1 500 0 is_stmt 0 discriminator 1
 2031 00a4 019B     		ldr	r3, [sp, #4]
 2032 00a6 002B     		cmp	r3, #0
 2033 00a8 05D0     		beq	.L59
 2034              		.loc 1 502 0 is_stmt 1
 2035 00aa 039B     		ldr	r3, [sp, #12]
 2036 00ac 9B7C     		ldrb	r3, [r3, #18]	@ zero_extendqisi2
 2037 00ae 1846     		mov	r0, r3
 2038 00b0 0299     		ldr	r1, [sp, #8]
 2039 00b2 FFF7FEFF 		bl	nvicEnableVector
 2040              	.L59:
 2041              		.loc 1 506 0
 2042 00b6 039B     		ldr	r3, [sp, #12]
 2043 00b8 5B7C     		ldrb	r3, [r3, #17]	@ zero_extendqisi2
 2044 00ba 0122     		movs	r2, #1
 2045 00bc 9A40     		lsls	r2, r2, r3
 2046 00be 054B     		ldr	r3, .L60
 2047 00c0 1B68     		ldr	r3, [r3]
 2048 00c2 1A43     		orrs	r2, r2, r3
 2049 00c4 034B     		ldr	r3, .L60
 2050 00c6 1A60     		str	r2, [r3]
 2051              		.loc 1 508 0
 2052 00c8 0023     		movs	r3, #0
 2053              	.L56:
 2054              		.loc 1 509 0
 2055 00ca 1846     		mov	r0, r3
ARM GAS  /tmp/ccAE1QPe.s 			page 92


 2056 00cc 05B0     		add	sp, sp, #20
 2057              		@ sp needed
 2058 00ce 5DF804FB 		ldr	pc, [sp], #4
 2059              	.L61:
 2060 00d2 00BF     		.align	2
 2061              	.L60:
 2062 00d4 00000000 		.word	dma_streams_mask
 2063 00d8 00000000 		.word	_stm32_dma_isr_redir
 2064 00dc 00100240 		.word	1073876992
 2065              		.cfi_endproc
 2066              	.LFE285:
 2067              		.size	dmaStreamAllocate, .-dmaStreamAllocate
 2068              		.section	.text.dmaStreamRelease,"ax",%progbits
 2069              		.align	2
 2070              		.p2align 4,,15
 2071              		.global	dmaStreamRelease
 2072              		.thumb
 2073              		.thumb_func
 2074              		.type	dmaStreamRelease, %function
 2075              	dmaStreamRelease:
 2076              	.LFB286:
 2077              		.loc 1 524 0
 2078              		.cfi_startproc
 2079              		@ args = 0, pretend = 0, frame = 8
 2080              		@ frame_needed = 0, uses_anonymous_args = 0
 2081 0000 00B5     		push	{lr}
 2082              		.cfi_def_cfa_offset 4
 2083              		.cfi_offset 14, -4
 2084 0002 83B0     		sub	sp, sp, #12
 2085              		.cfi_def_cfa_offset 16
 2086 0004 0190     		str	r0, [sp, #4]
 2087              		.loc 1 533 0
 2088 0006 019B     		ldr	r3, [sp, #4]
 2089 0008 5B7C     		ldrb	r3, [r3, #17]	@ zero_extendqisi2
 2090 000a 0122     		movs	r2, #1
 2091 000c 02FA03F3 		lsl	r3, r2, r3
 2092 0010 DA43     		mvns	r2, r3
 2093 0012 1D4B     		ldr	r3, .L66
 2094 0014 1B68     		ldr	r3, [r3]
 2095 0016 1A40     		ands	r2, r2, r3
 2096 0018 1B4B     		ldr	r3, .L66
 2097 001a 1A60     		str	r2, [r3]
 2098              		.loc 1 536 0
 2099 001c 019B     		ldr	r3, [sp, #4]
 2100 001e 9A68     		ldr	r2, [r3, #8]
 2101 0020 194B     		ldr	r3, .L66
 2102 0022 1B68     		ldr	r3, [r3]
 2103 0024 1340     		ands	r3, r3, r2
 2104 0026 002B     		cmp	r3, #0
 2105 0028 04D1     		bne	.L63
 2106              		.loc 1 537 0
 2107 002a 019B     		ldr	r3, [sp, #4]
 2108 002c 9B7C     		ldrb	r3, [r3, #18]	@ zero_extendqisi2
 2109 002e 1846     		mov	r0, r3
 2110 0030 FFF7FEFF 		bl	nvicDisableVector
 2111              	.L63:
 2112              		.loc 1 541 0
ARM GAS  /tmp/ccAE1QPe.s 			page 93


 2113 0034 019B     		ldr	r3, [sp, #4]
 2114 0036 5B7C     		ldrb	r3, [r3, #17]	@ zero_extendqisi2
 2115 0038 1A46     		mov	r2, r3
 2116 003a 144B     		ldr	r3, .L66+4
 2117 003c 0021     		movs	r1, #0
 2118 003e 43F83210 		str	r1, [r3, r2, lsl #3]
 2119              		.loc 1 542 0
 2120 0042 019B     		ldr	r3, [sp, #4]
 2121 0044 5B7C     		ldrb	r3, [r3, #17]	@ zero_extendqisi2
 2122 0046 114A     		ldr	r2, .L66+4
 2123 0048 DB00     		lsls	r3, r3, #3
 2124 004a 1344     		add	r3, r3, r2
 2125 004c 0022     		movs	r2, #0
 2126 004e 5A60     		str	r2, [r3, #4]
 2127              		.loc 1 545 0
 2128 0050 0D4B     		ldr	r3, .L66
 2129 0052 1B68     		ldr	r3, [r3]
 2130 0054 03F07F03 		and	r3, r3, #127
 2131 0058 002B     		cmp	r3, #0
 2132 005a 05D1     		bne	.L64
 2133              		.loc 1 546 0
 2134 005c 0C4B     		ldr	r3, .L66+8
 2135 005e 0C4A     		ldr	r2, .L66+8
 2136 0060 5269     		ldr	r2, [r2, #20]
 2137 0062 22F00102 		bic	r2, r2, #1
 2138 0066 5A61     		str	r2, [r3, #20]
 2139              	.L64:
 2140              		.loc 1 549 0
 2141 0068 074B     		ldr	r3, .L66
 2142 006a 1B68     		ldr	r3, [r3]
 2143 006c 03F47863 		and	r3, r3, #3968
 2144 0070 002B     		cmp	r3, #0
 2145 0072 05D1     		bne	.L62
 2146              		.loc 1 550 0
 2147 0074 064B     		ldr	r3, .L66+8
 2148 0076 064A     		ldr	r2, .L66+8
 2149 0078 5269     		ldr	r2, [r2, #20]
 2150 007a 22F00202 		bic	r2, r2, #2
 2151 007e 5A61     		str	r2, [r3, #20]
 2152              	.L62:
 2153              		.loc 1 553 0
 2154 0080 03B0     		add	sp, sp, #12
 2155              		@ sp needed
 2156 0082 5DF804FB 		ldr	pc, [sp], #4
 2157              	.L67:
 2158 0086 00BF     		.align	2
 2159              	.L66:
 2160 0088 00000000 		.word	dma_streams_mask
 2161 008c 00000000 		.word	_stm32_dma_isr_redir
 2162 0090 00100240 		.word	1073876992
 2163              		.cfi_endproc
 2164              	.LFE286:
 2165              		.size	dmaStreamRelease, .-dmaStreamRelease
 2166 0094 AFF30080 		.text
 2166      AFF30080 
 2166      AFF30080 
 2167              	.Letext0:
ARM GAS  /tmp/ccAE1QPe.s 			page 94


 2168              		.file 2 "/nfs/nfs5/home/research/hardware/arm2/gcc-arm-embedded/gcc-arm-none-eabi-4_8-2014q2/lib/g
 2169              		.file 3 "/nfs/nfs5/home/research/hardware/arm2/gcc-arm-embedded/gcc-arm-none-eabi-4_8-2014q2/arm-n
 2170              		.file 4 "/nfs/nfs5/home/research/hardware/arm2/gcc-arm-embedded/gcc-arm-none-eabi-4_8-2014q2/arm-n
 2171              		.file 5 "../ChibiOS/os/rt/ports/ARMCMx/compilers/GCC/chtypes.h"
 2172              		.file 6 "../ChibiOS/os/rt/include/chsystypes.h"
 2173              		.file 7 "../ChibiOS/os/rt/include/chschd.h"
 2174              		.file 8 "../ChibiOS/os/ext/CMSIS/ST/STM32F3xx/stm32f303xc.h"
 2175              		.file 9 "../ChibiOS/os/rt/ports/ARMCMx/chcore.h"
 2176              		.file 10 "../ChibiOS/os/rt/ports/ARMCMx/chcore_v7m.h"
 2177              		.file 11 "../ChibiOS/os/rt/include/chtm.h"
 2178              		.file 12 "../ChibiOS/os/rt/include/chsem.h"
 2179              		.file 13 "../ChibiOS/os/rt/include/chmtx.h"
 2180              		.file 14 "../ChibiOS/os/hal/ports/STM32/LLD/DMAv1/stm32_dma.h"
 2181              		.file 15 "../ChibiOS/os/ext/CMSIS/include/core_cm4.h"
 2182              		.section	.debug_info,"",%progbits
 2183              	.Ldebug_info0:
 2184 0000 800C0000 		.4byte	0xc80
 2185 0004 0400     		.2byte	0x4
 2186 0006 00000000 		.4byte	.Ldebug_abbrev0
 2187 000a 04       		.byte	0x4
 2188 000b 01       		.uleb128 0x1
 2189 000c CB010000 		.4byte	.LASF157
 2190 0010 01       		.byte	0x1
 2191 0011 74030000 		.4byte	.LASF158
 2192 0015 C5050000 		.4byte	.LASF159
 2193 0019 00000000 		.4byte	.Ldebug_ranges0+0
 2194 001d 00000000 		.4byte	0
 2195 0021 00000000 		.4byte	.Ldebug_line0
 2196 0025 02       		.uleb128 0x2
 2197 0026 04       		.byte	0x4
 2198 0027 05       		.byte	0x5
 2199 0028 696E7400 		.ascii	"int\000"
 2200 002c 03       		.uleb128 0x3
 2201 002d 1D000000 		.4byte	.LASF2
 2202 0031 02       		.byte	0x2
 2203 0032 D4       		.byte	0xd4
 2204 0033 37000000 		.4byte	0x37
 2205 0037 04       		.uleb128 0x4
 2206 0038 04       		.byte	0x4
 2207 0039 07       		.byte	0x7
 2208 003a AB020000 		.4byte	.LASF0
 2209 003e 04       		.uleb128 0x4
 2210 003f 01       		.byte	0x1
 2211 0040 06       		.byte	0x6
 2212 0041 EE000000 		.4byte	.LASF1
 2213 0045 03       		.uleb128 0x3
 2214 0046 34000000 		.4byte	.LASF3
 2215 004a 03       		.byte	0x3
 2216 004b 1C       		.byte	0x1c
 2217 004c 50000000 		.4byte	0x50
 2218 0050 04       		.uleb128 0x4
 2219 0051 01       		.byte	0x1
 2220 0052 08       		.byte	0x8
 2221 0053 FD040000 		.4byte	.LASF4
 2222 0057 04       		.uleb128 0x4
 2223 0058 02       		.byte	0x2
 2224 0059 05       		.byte	0x5
ARM GAS  /tmp/ccAE1QPe.s 			page 95


 2225 005a 2A050000 		.4byte	.LASF5
 2226 005e 04       		.uleb128 0x4
 2227 005f 02       		.byte	0x2
 2228 0060 07       		.byte	0x7
 2229 0061 31030000 		.4byte	.LASF6
 2230 0065 03       		.uleb128 0x3
 2231 0066 CA030000 		.4byte	.LASF7
 2232 006a 03       		.byte	0x3
 2233 006b 37       		.byte	0x37
 2234 006c 70000000 		.4byte	0x70
 2235 0070 04       		.uleb128 0x4
 2236 0071 04       		.byte	0x4
 2237 0072 05       		.byte	0x5
 2238 0073 49010000 		.4byte	.LASF8
 2239 0077 03       		.uleb128 0x3
 2240 0078 6A060000 		.4byte	.LASF9
 2241 007c 03       		.byte	0x3
 2242 007d 38       		.byte	0x38
 2243 007e 82000000 		.4byte	0x82
 2244 0082 04       		.uleb128 0x4
 2245 0083 04       		.byte	0x4
 2246 0084 07       		.byte	0x7
 2247 0085 FA000000 		.4byte	.LASF10
 2248 0089 04       		.uleb128 0x4
 2249 008a 08       		.byte	0x8
 2250 008b 05       		.byte	0x5
 2251 008c E0000000 		.4byte	.LASF11
 2252 0090 03       		.uleb128 0x3
 2253 0091 91040000 		.4byte	.LASF12
 2254 0095 03       		.byte	0x3
 2255 0096 4E       		.byte	0x4e
 2256 0097 9B000000 		.4byte	0x9b
 2257 009b 04       		.uleb128 0x4
 2258 009c 08       		.byte	0x8
 2259 009d 07       		.byte	0x7
 2260 009e 63000000 		.4byte	.LASF13
 2261 00a2 03       		.uleb128 0x3
 2262 00a3 23070000 		.4byte	.LASF14
 2263 00a7 04       		.byte	0x4
 2264 00a8 2A       		.byte	0x2a
 2265 00a9 45000000 		.4byte	0x45
 2266 00ad 03       		.uleb128 0x3
 2267 00ae F5040000 		.4byte	.LASF15
 2268 00b2 04       		.byte	0x4
 2269 00b3 41       		.byte	0x41
 2270 00b4 65000000 		.4byte	0x65
 2271 00b8 03       		.uleb128 0x3
 2272 00b9 D4060000 		.4byte	.LASF16
 2273 00bd 04       		.byte	0x4
 2274 00be 42       		.byte	0x42
 2275 00bf 77000000 		.4byte	0x77
 2276 00c3 03       		.uleb128 0x3
 2277 00c4 2B000000 		.4byte	.LASF17
 2278 00c8 04       		.byte	0x4
 2279 00c9 4E       		.byte	0x4e
 2280 00ca 90000000 		.4byte	0x90
 2281 00ce 03       		.uleb128 0x3
ARM GAS  /tmp/ccAE1QPe.s 			page 96


 2282 00cf B2060000 		.4byte	.LASF18
 2283 00d3 05       		.byte	0x5
 2284 00d4 39       		.byte	0x39
 2285 00d5 B8000000 		.4byte	0xb8
 2286 00d9 03       		.uleb128 0x3
 2287 00da A8030000 		.4byte	.LASF19
 2288 00de 05       		.byte	0x5
 2289 00df 3C       		.byte	0x3c
 2290 00e0 A2000000 		.4byte	0xa2
 2291 00e4 03       		.uleb128 0x3
 2292 00e5 5B010000 		.4byte	.LASF20
 2293 00e9 05       		.byte	0x5
 2294 00ea 3D       		.byte	0x3d
 2295 00eb A2000000 		.4byte	0xa2
 2296 00ef 03       		.uleb128 0x3
 2297 00f0 9C040000 		.4byte	.LASF21
 2298 00f4 05       		.byte	0x5
 2299 00f5 3E       		.byte	0x3e
 2300 00f6 A2000000 		.4byte	0xa2
 2301 00fa 03       		.uleb128 0x3
 2302 00fb CE040000 		.4byte	.LASF22
 2303 00ff 05       		.byte	0x5
 2304 0100 40       		.byte	0x40
 2305 0101 B8000000 		.4byte	0xb8
 2306 0105 03       		.uleb128 0x3
 2307 0106 59030000 		.4byte	.LASF23
 2308 010a 05       		.byte	0x5
 2309 010b 41       		.byte	0x41
 2310 010c AD000000 		.4byte	0xad
 2311 0110 03       		.uleb128 0x3
 2312 0111 BE030000 		.4byte	.LASF24
 2313 0115 05       		.byte	0x5
 2314 0116 43       		.byte	0x43
 2315 0117 B8000000 		.4byte	0xb8
 2316 011b 03       		.uleb128 0x3
 2317 011c C5010000 		.4byte	.LASF25
 2318 0120 05       		.byte	0x5
 2319 0121 45       		.byte	0x45
 2320 0122 AD000000 		.4byte	0xad
 2321 0126 03       		.uleb128 0x3
 2322 0127 4C060000 		.4byte	.LASF26
 2323 012b 06       		.byte	0x6
 2324 012c 33       		.byte	0x33
 2325 012d B8000000 		.4byte	0xb8
 2326 0131 03       		.uleb128 0x3
 2327 0132 3C060000 		.4byte	.LASF27
 2328 0136 06       		.byte	0x6
 2329 0137 3F       		.byte	0x3f
 2330 0138 3C010000 		.4byte	0x13c
 2331 013c 05       		.uleb128 0x5
 2332 013d 44030000 		.4byte	.LASF47
 2333 0141 44       		.byte	0x44
 2334 0142 07       		.byte	0x7
 2335 0143 C2       		.byte	0xc2
 2336 0144 28020000 		.4byte	0x228
 2337 0148 06       		.uleb128 0x6
 2338 0149 36040000 		.4byte	.LASF28
ARM GAS  /tmp/ccAE1QPe.s 			page 97


 2339 014d 07       		.byte	0x7
 2340 014e C3       		.byte	0xc3
 2341 014f 33020000 		.4byte	0x233
 2342 0153 00       		.byte	0
 2343 0154 06       		.uleb128 0x6
 2344 0155 B4040000 		.4byte	.LASF29
 2345 0159 07       		.byte	0x7
 2346 015a C5       		.byte	0xc5
 2347 015b 33020000 		.4byte	0x233
 2348 015f 04       		.byte	0x4
 2349 0160 06       		.uleb128 0x6
 2350 0161 D9000000 		.4byte	.LASF30
 2351 0165 07       		.byte	0x7
 2352 0166 C7       		.byte	0xc7
 2353 0167 FA000000 		.4byte	0xfa
 2354 016b 08       		.byte	0x8
 2355 016c 06       		.uleb128 0x6
 2356 016d 86070000 		.4byte	.LASF31
 2357 0171 07       		.byte	0x7
 2358 0172 C8       		.byte	0xc8
 2359 0173 A0050000 		.4byte	0x5a0
 2360 0177 0C       		.byte	0xc
 2361 0178 06       		.uleb128 0x6
 2362 0179 69010000 		.4byte	.LASF32
 2363 017d 07       		.byte	0x7
 2364 017e CA       		.byte	0xca
 2365 017f 33020000 		.4byte	0x233
 2366 0183 10       		.byte	0x10
 2367 0184 06       		.uleb128 0x6
 2368 0185 4F040000 		.4byte	.LASF33
 2369 0189 07       		.byte	0x7
 2370 018a CB       		.byte	0xcb
 2371 018b 33020000 		.4byte	0x233
 2372 018f 14       		.byte	0x14
 2373 0190 06       		.uleb128 0x6
 2374 0191 38070000 		.4byte	.LASF34
 2375 0195 07       		.byte	0x7
 2376 0196 D2       		.byte	0xd2
 2377 0197 2B070000 		.4byte	0x72b
 2378 019b 18       		.byte	0x18
 2379 019c 06       		.uleb128 0x6
 2380 019d 75060000 		.4byte	.LASF35
 2381 01a1 07       		.byte	0x7
 2382 01a2 D8       		.byte	0xd8
 2383 01a3 3D070000 		.4byte	0x73d
 2384 01a7 1C       		.byte	0x1c
 2385 01a8 06       		.uleb128 0x6
 2386 01a9 34050000 		.4byte	.LASF36
 2387 01ad 07       		.byte	0x7
 2388 01ae DD       		.byte	0xdd
 2389 01af E4000000 		.4byte	0xe4
 2390 01b3 20       		.byte	0x20
 2391 01b4 06       		.uleb128 0x6
 2392 01b5 4A050000 		.4byte	.LASF37
 2393 01b9 07       		.byte	0x7
 2394 01ba E1       		.byte	0xe1
 2395 01bb D9000000 		.4byte	0xd9
ARM GAS  /tmp/ccAE1QPe.s 			page 98


 2396 01bf 21       		.byte	0x21
 2397 01c0 06       		.uleb128 0x6
 2398 01c1 FF060000 		.4byte	.LASF38
 2399 01c5 07       		.byte	0x7
 2400 01c6 E6       		.byte	0xe6
 2401 01c7 EF000000 		.4byte	0xef
 2402 01cb 22       		.byte	0x22
 2403 01cc 07       		.uleb128 0x7
 2404 01cd 705F7500 		.ascii	"p_u\000"
 2405 01d1 07       		.byte	0x7
 2406 01d2 3701     		.2byte	0x137
 2407 01d4 5A060000 		.4byte	0x65a
 2408 01d8 24       		.byte	0x24
 2409 01d9 08       		.uleb128 0x8
 2410 01da F9030000 		.4byte	.LASF39
 2411 01de 07       		.byte	0x7
 2412 01df 3C01     		.2byte	0x13c
 2413 01e1 39020000 		.4byte	0x239
 2414 01e5 28       		.byte	0x28
 2415 01e6 08       		.uleb128 0x8
 2416 01e7 E9020000 		.4byte	.LASF40
 2417 01eb 07       		.byte	0x7
 2418 01ec 4201     		.2byte	0x142
 2419 01ee 5D020000 		.4byte	0x25d
 2420 01f2 2C       		.byte	0x2c
 2421 01f3 08       		.uleb128 0x8
 2422 01f4 80050000 		.4byte	.LASF41
 2423 01f8 07       		.byte	0x7
 2424 01f9 4801     		.2byte	0x148
 2425 01fb 10010000 		.4byte	0x110
 2426 01ff 34       		.byte	0x34
 2427 0200 08       		.uleb128 0x8
 2428 0201 20050000 		.4byte	.LASF42
 2429 0205 07       		.byte	0x7
 2430 0206 4F01     		.2byte	0x14f
 2431 0208 25070000 		.4byte	0x725
 2432 020c 38       		.byte	0x38
 2433 020d 08       		.uleb128 0x8
 2434 020e 56060000 		.4byte	.LASF43
 2435 0212 07       		.byte	0x7
 2436 0213 5301     		.2byte	0x153
 2437 0215 FA000000 		.4byte	0xfa
 2438 0219 3C       		.byte	0x3c
 2439 021a 08       		.uleb128 0x8
 2440 021b 0C010000 		.4byte	.LASF44
 2441 021f 07       		.byte	0x7
 2442 0220 5A01     		.2byte	0x15a
 2443 0222 10030000 		.4byte	0x310
 2444 0226 40       		.byte	0x40
 2445 0227 00       		.byte	0
 2446 0228 03       		.uleb128 0x3
 2447 0229 0C040000 		.4byte	.LASF45
 2448 022d 06       		.byte	0x6
 2449 022e 44       		.byte	0x44
 2450 022f 33020000 		.4byte	0x233
 2451 0233 09       		.uleb128 0x9
 2452 0234 04       		.byte	0x4
ARM GAS  /tmp/ccAE1QPe.s 			page 99


 2453 0235 31010000 		.4byte	0x131
 2454 0239 03       		.uleb128 0x3
 2455 023a E4030000 		.4byte	.LASF46
 2456 023e 06       		.byte	0x6
 2457 023f 49       		.byte	0x49
 2458 0240 44020000 		.4byte	0x244
 2459 0244 05       		.uleb128 0x5
 2460 0245 B5050000 		.4byte	.LASF48
 2461 0249 04       		.byte	0x4
 2462 024a 07       		.byte	0x7
 2463 024b B0       		.byte	0xb0
 2464 024c 5D020000 		.4byte	0x25d
 2465 0250 06       		.uleb128 0x6
 2466 0251 36040000 		.4byte	.LASF28
 2467 0255 07       		.byte	0x7
 2468 0256 B1       		.byte	0xb1
 2469 0257 33020000 		.4byte	0x233
 2470 025b 00       		.byte	0
 2471 025c 00       		.byte	0
 2472 025d 03       		.uleb128 0x3
 2473 025e E6060000 		.4byte	.LASF49
 2474 0262 06       		.byte	0x6
 2475 0263 50       		.byte	0x50
 2476 0264 68020000 		.4byte	0x268
 2477 0268 05       		.uleb128 0x5
 2478 0269 C8000000 		.4byte	.LASF50
 2479 026d 08       		.byte	0x8
 2480 026e 07       		.byte	0x7
 2481 026f B7       		.byte	0xb7
 2482 0270 8D020000 		.4byte	0x28d
 2483 0274 06       		.uleb128 0x6
 2484 0275 36040000 		.4byte	.LASF28
 2485 0279 07       		.byte	0x7
 2486 027a B8       		.byte	0xb8
 2487 027b 33020000 		.4byte	0x233
 2488 027f 00       		.byte	0
 2489 0280 06       		.uleb128 0x6
 2490 0281 B4040000 		.4byte	.LASF29
 2491 0285 07       		.byte	0x7
 2492 0286 B9       		.byte	0xb9
 2493 0287 33020000 		.4byte	0x233
 2494 028b 04       		.byte	0x4
 2495 028c 00       		.byte	0
 2496 028d 03       		.uleb128 0x3
 2497 028e 10000000 		.4byte	.LASF51
 2498 0292 06       		.byte	0x6
 2499 0293 57       		.byte	0x57
 2500 0294 98020000 		.4byte	0x298
 2501 0298 0A       		.uleb128 0xa
 2502 0299 B0030000 		.4byte	.LASF52
 2503 029d 1C       		.byte	0x1c
 2504 029e 07       		.byte	0x7
 2505 029f 9201     		.2byte	0x192
 2506 02a1 F4020000 		.4byte	0x2f4
 2507 02a5 08       		.uleb128 0x8
 2508 02a6 A4050000 		.4byte	.LASF53
 2509 02aa 07       		.byte	0x7
ARM GAS  /tmp/ccAE1QPe.s 			page 100


 2510 02ab 9301     		.2byte	0x193
 2511 02ad 5D020000 		.4byte	0x25d
 2512 02b1 00       		.byte	0
 2513 02b2 08       		.uleb128 0x8
 2514 02b3 3C050000 		.4byte	.LASF54
 2515 02b7 07       		.byte	0x7
 2516 02b8 9401     		.2byte	0x194
 2517 02ba FA000000 		.4byte	0xfa
 2518 02be 08       		.byte	0x8
 2519 02bf 08       		.uleb128 0x8
 2520 02c0 57040000 		.4byte	.LASF55
 2521 02c4 07       		.byte	0x7
 2522 02c5 9601     		.2byte	0x196
 2523 02c7 A0050000 		.4byte	0x5a0
 2524 02cb 0C       		.byte	0xc
 2525 02cc 08       		.uleb128 0x8
 2526 02cd 89010000 		.4byte	.LASF56
 2527 02d1 07       		.byte	0x7
 2528 02d2 9901     		.2byte	0x199
 2529 02d4 33020000 		.4byte	0x233
 2530 02d8 10       		.byte	0x10
 2531 02d9 08       		.uleb128 0x8
 2532 02da 89040000 		.4byte	.LASF57
 2533 02de 07       		.byte	0x7
 2534 02df 9A01     		.2byte	0x19a
 2535 02e1 33020000 		.4byte	0x233
 2536 02e5 14       		.byte	0x14
 2537 02e6 08       		.uleb128 0x8
 2538 02e7 7F040000 		.4byte	.LASF58
 2539 02eb 07       		.byte	0x7
 2540 02ec 9D01     		.2byte	0x19d
 2541 02ee 33020000 		.4byte	0x233
 2542 02f2 18       		.byte	0x18
 2543 02f3 00       		.byte	0
 2544 02f4 03       		.uleb128 0x3
 2545 02f5 61060000 		.4byte	.LASF59
 2546 02f9 06       		.byte	0x6
 2547 02fa 5C       		.byte	0x5c
 2548 02fb FF020000 		.4byte	0x2ff
 2549 02ff 09       		.uleb128 0x9
 2550 0300 04       		.byte	0x4
 2551 0301 05030000 		.4byte	0x305
 2552 0305 0B       		.uleb128 0xb
 2553 0306 10030000 		.4byte	0x310
 2554 030a 0C       		.uleb128 0xc
 2555 030b 10030000 		.4byte	0x310
 2556 030f 00       		.byte	0
 2557 0310 0D       		.uleb128 0xd
 2558 0311 04       		.byte	0x4
 2559 0312 03       		.uleb128 0x3
 2560 0313 A4040000 		.4byte	.LASF60
 2561 0317 06       		.byte	0x6
 2562 0318 61       		.byte	0x61
 2563 0319 1D030000 		.4byte	0x31d
 2564 031d 0A       		.uleb128 0xa
 2565 031e 62050000 		.4byte	.LASF61
 2566 0322 14       		.byte	0x14
ARM GAS  /tmp/ccAE1QPe.s 			page 101


 2567 0323 07       		.byte	0x7
 2568 0324 6D01     		.2byte	0x16d
 2569 0326 6C030000 		.4byte	0x36c
 2570 032a 08       		.uleb128 0x8
 2571 032b B8020000 		.4byte	.LASF62
 2572 032f 07       		.byte	0x7
 2573 0330 6E01     		.2byte	0x16e
 2574 0332 43070000 		.4byte	0x743
 2575 0336 00       		.byte	0
 2576 0337 08       		.uleb128 0x8
 2577 0338 9A010000 		.4byte	.LASF63
 2578 033c 07       		.byte	0x7
 2579 033d 6F01     		.2byte	0x16f
 2580 033f 43070000 		.4byte	0x743
 2581 0343 04       		.byte	0x4
 2582 0344 08       		.uleb128 0x8
 2583 0345 AC050000 		.4byte	.LASF64
 2584 0349 07       		.byte	0x7
 2585 034a 7001     		.2byte	0x170
 2586 034c 26010000 		.4byte	0x126
 2587 0350 08       		.byte	0x8
 2588 0351 08       		.uleb128 0x8
 2589 0352 8C070000 		.4byte	.LASF65
 2590 0356 07       		.byte	0x7
 2591 0357 7101     		.2byte	0x171
 2592 0359 F4020000 		.4byte	0x2f4
 2593 035d 0C       		.byte	0xc
 2594 035e 08       		.uleb128 0x8
 2595 035f C4060000 		.4byte	.LASF66
 2596 0363 07       		.byte	0x7
 2597 0364 7301     		.2byte	0x173
 2598 0366 10030000 		.4byte	0x310
 2599 036a 10       		.byte	0x10
 2600 036b 00       		.byte	0
 2601 036c 03       		.uleb128 0x3
 2602 036d A5000000 		.4byte	.LASF67
 2603 0371 06       		.byte	0x6
 2604 0372 66       		.byte	0x66
 2605 0373 77030000 		.4byte	0x377
 2606 0377 0A       		.uleb128 0xa
 2607 0378 1F040000 		.4byte	.LASF68
 2608 037c 10       		.byte	0x10
 2609 037d 07       		.byte	0x7
 2610 037e 7D01     		.2byte	0x17d
 2611 0380 B9030000 		.4byte	0x3b9
 2612 0384 08       		.uleb128 0x8
 2613 0385 B8020000 		.4byte	.LASF62
 2614 0389 07       		.byte	0x7
 2615 038a 7E01     		.2byte	0x17e
 2616 038c 43070000 		.4byte	0x743
 2617 0390 00       		.byte	0
 2618 0391 08       		.uleb128 0x8
 2619 0392 9A010000 		.4byte	.LASF63
 2620 0396 07       		.byte	0x7
 2621 0397 8001     		.2byte	0x180
 2622 0399 43070000 		.4byte	0x743
 2623 039d 04       		.byte	0x4
ARM GAS  /tmp/ccAE1QPe.s 			page 102


 2624 039e 08       		.uleb128 0x8
 2625 039f AC050000 		.4byte	.LASF64
 2626 03a3 07       		.byte	0x7
 2627 03a4 8201     		.2byte	0x182
 2628 03a6 26010000 		.4byte	0x126
 2629 03aa 08       		.byte	0x8
 2630 03ab 08       		.uleb128 0x8
 2631 03ac 43040000 		.4byte	.LASF69
 2632 03b0 07       		.byte	0x7
 2633 03b1 8A01     		.2byte	0x18a
 2634 03b3 26010000 		.4byte	0x126
 2635 03b7 0C       		.byte	0xc
 2636 03b8 00       		.byte	0
 2637 03b9 03       		.uleb128 0x3
 2638 03ba 4A000000 		.4byte	.LASF70
 2639 03be 06       		.byte	0x6
 2640 03bf 6B       		.byte	0x6b
 2641 03c0 C4030000 		.4byte	0x3c4
 2642 03c4 0A       		.uleb128 0xa
 2643 03c5 DF040000 		.4byte	.LASF71
 2644 03c9 04       		.byte	0x4
 2645 03ca 07       		.byte	0x7
 2646 03cb A401     		.2byte	0x1a4
 2647 03cd DF030000 		.4byte	0x3df
 2648 03d1 08       		.uleb128 0x8
 2649 03d2 80060000 		.4byte	.LASF72
 2650 03d6 07       		.byte	0x7
 2651 03d7 AC01     		.2byte	0x1ac
 2652 03d9 49070000 		.4byte	0x749
 2653 03dd 00       		.byte	0
 2654 03de 00       		.byte	0
 2655 03df 03       		.uleb128 0x3
 2656 03e0 5F030000 		.4byte	.LASF73
 2657 03e4 06       		.byte	0x6
 2658 03e5 70       		.byte	0x70
 2659 03e6 EA030000 		.4byte	0x3ea
 2660 03ea 0E       		.uleb128 0xe
 2661 03eb 3F010000 		.4byte	.LASF74
 2662 03ef 5001     		.2byte	0x150
 2663 03f1 07       		.byte	0x7
 2664 03f2 C401     		.2byte	0x1c4
 2665 03f4 46040000 		.4byte	0x446
 2666 03f8 08       		.uleb128 0x8
 2667 03f9 11070000 		.4byte	.LASF75
 2668 03fd 07       		.byte	0x7
 2669 03fe C801     		.2byte	0x1c8
 2670 0400 8D020000 		.4byte	0x28d
 2671 0404 00       		.byte	0
 2672 0405 08       		.uleb128 0x8
 2673 0406 25010000 		.4byte	.LASF76
 2674 040a 07       		.byte	0x7
 2675 040b CC01     		.2byte	0x1cc
 2676 040d 6C030000 		.4byte	0x36c
 2677 0411 1C       		.byte	0x1c
 2678 0412 07       		.uleb128 0x7
 2679 0413 64626700 		.ascii	"dbg\000"
 2680 0417 07       		.byte	0x7
ARM GAS  /tmp/ccAE1QPe.s 			page 103


 2681 0418 D001     		.2byte	0x1d0
 2682 041a B9030000 		.4byte	0x3b9
 2683 041e 2C       		.byte	0x2c
 2684 041f 08       		.uleb128 0x8
 2685 0420 4E030000 		.4byte	.LASF77
 2686 0424 07       		.byte	0x7
 2687 0425 D401     		.2byte	0x1d4
 2688 0427 31010000 		.4byte	0x131
 2689 042b 30       		.byte	0x30
 2690 042c 07       		.uleb128 0x7
 2691 042d 746D00   		.ascii	"tm\000"
 2692 0430 07       		.byte	0x7
 2693 0431 D901     		.2byte	0x1d9
 2694 0433 4F060000 		.4byte	0x64f
 2695 0437 74       		.byte	0x74
 2696 0438 08       		.uleb128 0x8
 2697 0439 AA010000 		.4byte	.LASF78
 2698 043d 07       		.byte	0x7
 2699 043e E501     		.2byte	0x1e5
 2700 0440 4E070000 		.4byte	0x74e
 2701 0444 78       		.byte	0x78
 2702 0445 00       		.byte	0
 2703 0446 04       		.uleb128 0x4
 2704 0447 04       		.byte	0x4
 2705 0448 07       		.byte	0x7
 2706 0449 03040000 		.4byte	.LASF79
 2707 044d 0F       		.uleb128 0xf
 2708 044e B8000000 		.4byte	0xb8
 2709 0452 10       		.uleb128 0x10
 2710 0453 10       		.byte	0x10
 2711 0454 08       		.byte	0x8
 2712 0455 6201     		.2byte	0x162
 2713 0457 90040000 		.4byte	0x490
 2714 045b 07       		.uleb128 0x7
 2715 045c 43435200 		.ascii	"CCR\000"
 2716 0460 08       		.byte	0x8
 2717 0461 6401     		.2byte	0x164
 2718 0463 4D040000 		.4byte	0x44d
 2719 0467 00       		.byte	0
 2720 0468 08       		.uleb128 0x8
 2721 0469 06070000 		.4byte	.LASF80
 2722 046d 08       		.byte	0x8
 2723 046e 6501     		.2byte	0x165
 2724 0470 4D040000 		.4byte	0x44d
 2725 0474 04       		.byte	0x4
 2726 0475 08       		.uleb128 0x8
 2727 0476 C7020000 		.4byte	.LASF81
 2728 047a 08       		.byte	0x8
 2729 047b 6601     		.2byte	0x166
 2730 047d 4D040000 		.4byte	0x44d
 2731 0481 08       		.byte	0x8
 2732 0482 08       		.uleb128 0x8
 2733 0483 D4030000 		.4byte	.LASF82
 2734 0487 08       		.byte	0x8
 2735 0488 6701     		.2byte	0x167
 2736 048a 4D040000 		.4byte	0x44d
 2737 048e 0C       		.byte	0xc
ARM GAS  /tmp/ccAE1QPe.s 			page 104


 2738 048f 00       		.byte	0
 2739 0490 11       		.uleb128 0x11
 2740 0491 0E030000 		.4byte	.LASF83
 2741 0495 08       		.byte	0x8
 2742 0496 6801     		.2byte	0x168
 2743 0498 52040000 		.4byte	0x452
 2744 049c 10       		.uleb128 0x10
 2745 049d 08       		.byte	0x8
 2746 049e 08       		.byte	0x8
 2747 049f 6A01     		.2byte	0x16a
 2748 04a1 C0040000 		.4byte	0x4c0
 2749 04a5 07       		.uleb128 0x7
 2750 04a6 49535200 		.ascii	"ISR\000"
 2751 04aa 08       		.byte	0x8
 2752 04ab 6C01     		.2byte	0x16c
 2753 04ad 4D040000 		.4byte	0x44d
 2754 04b1 00       		.byte	0
 2755 04b2 08       		.uleb128 0x8
 2756 04b3 18060000 		.4byte	.LASF84
 2757 04b7 08       		.byte	0x8
 2758 04b8 6D01     		.2byte	0x16d
 2759 04ba 4D040000 		.4byte	0x44d
 2760 04be 04       		.byte	0x4
 2761 04bf 00       		.byte	0
 2762 04c0 11       		.uleb128 0x11
 2763 04c1 B9010000 		.4byte	.LASF85
 2764 04c5 08       		.byte	0x8
 2765 04c6 6E01     		.2byte	0x16e
 2766 04c8 9C040000 		.4byte	0x49c
 2767 04cc 10       		.uleb128 0x10
 2768 04cd 34       		.byte	0x34
 2769 04ce 08       		.byte	0x8
 2770 04cf FB01     		.2byte	0x1fb
 2771 04d1 7E050000 		.4byte	0x57e
 2772 04d5 07       		.uleb128 0x7
 2773 04d6 435200   		.ascii	"CR\000"
 2774 04d9 08       		.byte	0x8
 2775 04da FD01     		.2byte	0x1fd
 2776 04dc 4D040000 		.4byte	0x44d
 2777 04e0 00       		.byte	0
 2778 04e1 08       		.uleb128 0x8
 2779 04e2 49070000 		.4byte	.LASF86
 2780 04e6 08       		.byte	0x8
 2781 04e7 FE01     		.2byte	0x1fe
 2782 04e9 4D040000 		.4byte	0x44d
 2783 04ed 04       		.byte	0x4
 2784 04ee 07       		.uleb128 0x7
 2785 04ef 43495200 		.ascii	"CIR\000"
 2786 04f3 08       		.byte	0x8
 2787 04f4 FF01     		.2byte	0x1ff
 2788 04f6 4D040000 		.4byte	0x44d
 2789 04fa 08       		.byte	0x8
 2790 04fb 08       		.uleb128 0x8
 2791 04fc 52010000 		.4byte	.LASF87
 2792 0500 08       		.byte	0x8
 2793 0501 0002     		.2byte	0x200
 2794 0503 4D040000 		.4byte	0x44d
ARM GAS  /tmp/ccAE1QPe.s 			page 105


 2795 0507 0C       		.byte	0xc
 2796 0508 08       		.uleb128 0x8
 2797 0509 1C010000 		.4byte	.LASF88
 2798 050d 08       		.byte	0x8
 2799 050e 0102     		.2byte	0x201
 2800 0510 4D040000 		.4byte	0x44d
 2801 0514 10       		.byte	0x10
 2802 0515 08       		.uleb128 0x8
 2803 0516 94070000 		.4byte	.LASF89
 2804 051a 08       		.byte	0x8
 2805 051b 0202     		.2byte	0x202
 2806 051d 4D040000 		.4byte	0x44d
 2807 0521 14       		.byte	0x14
 2808 0522 08       		.uleb128 0x8
 2809 0523 52050000 		.4byte	.LASF90
 2810 0527 08       		.byte	0x8
 2811 0528 0302     		.2byte	0x203
 2812 052a 4D040000 		.4byte	0x44d
 2813 052e 18       		.byte	0x18
 2814 052f 08       		.uleb128 0x8
 2815 0530 91060000 		.4byte	.LASF91
 2816 0534 08       		.byte	0x8
 2817 0535 0402     		.2byte	0x204
 2818 0537 4D040000 		.4byte	0x44d
 2819 053b 1C       		.byte	0x1c
 2820 053c 08       		.uleb128 0x8
 2821 053d 0C070000 		.4byte	.LASF92
 2822 0541 08       		.byte	0x8
 2823 0542 0502     		.2byte	0x205
 2824 0544 4D040000 		.4byte	0x44d
 2825 0548 20       		.byte	0x20
 2826 0549 07       		.uleb128 0x7
 2827 054a 43535200 		.ascii	"CSR\000"
 2828 054e 08       		.byte	0x8
 2829 054f 0602     		.2byte	0x206
 2830 0551 4D040000 		.4byte	0x44d
 2831 0555 24       		.byte	0x24
 2832 0556 08       		.uleb128 0x8
 2833 0557 77040000 		.4byte	.LASF93
 2834 055b 08       		.byte	0x8
 2835 055c 0702     		.2byte	0x207
 2836 055e 4D040000 		.4byte	0x44d
 2837 0562 28       		.byte	0x28
 2838 0563 08       		.uleb128 0x8
 2839 0564 17070000 		.4byte	.LASF94
 2840 0568 08       		.byte	0x8
 2841 0569 0802     		.2byte	0x208
 2842 056b 4D040000 		.4byte	0x44d
 2843 056f 2C       		.byte	0x2c
 2844 0570 08       		.uleb128 0x8
 2845 0571 1D070000 		.4byte	.LASF95
 2846 0575 08       		.byte	0x8
 2847 0576 0902     		.2byte	0x209
 2848 0578 4D040000 		.4byte	0x44d
 2849 057c 30       		.byte	0x30
 2850 057d 00       		.byte	0
 2851 057e 11       		.uleb128 0x11
ARM GAS  /tmp/ccAE1QPe.s 			page 106


 2852 057f 02030000 		.4byte	.LASF96
 2853 0583 08       		.byte	0x8
 2854 0584 0A02     		.2byte	0x20a
 2855 0586 CC040000 		.4byte	0x4cc
 2856 058a 03       		.uleb128 0x3
 2857 058b 91010000 		.4byte	.LASF97
 2858 058f 09       		.byte	0x9
 2859 0590 65       		.byte	0x65
 2860 0591 10030000 		.4byte	0x310
 2861 0595 03       		.uleb128 0x3
 2862 0596 D9030000 		.4byte	.LASF98
 2863 059a 09       		.byte	0x9
 2864 059b 6D       		.byte	0x6d
 2865 059c C3000000 		.4byte	0xc3
 2866 05a0 05       		.uleb128 0x5
 2867 05a1 99060000 		.4byte	.LASF99
 2868 05a5 04       		.byte	0x4
 2869 05a6 09       		.byte	0x9
 2870 05a7 89       		.byte	0x89
 2871 05a8 B9050000 		.4byte	0x5b9
 2872 05ac 12       		.uleb128 0x12
 2873 05ad 72313300 		.ascii	"r13\000"
 2874 05b1 09       		.byte	0x9
 2875 05b2 8A       		.byte	0x8a
 2876 05b3 34060000 		.4byte	0x634
 2877 05b7 00       		.byte	0
 2878 05b8 00       		.byte	0
 2879 05b9 05       		.uleb128 0x5
 2880 05ba 3E000000 		.4byte	.LASF100
 2881 05be 24       		.byte	0x24
 2882 05bf 0A       		.byte	0xa
 2883 05c0 FD       		.byte	0xfd
 2884 05c1 34060000 		.4byte	0x634
 2885 05c5 07       		.uleb128 0x7
 2886 05c6 723400   		.ascii	"r4\000"
 2887 05c9 0A       		.byte	0xa
 2888 05ca 1001     		.2byte	0x110
 2889 05cc 8A050000 		.4byte	0x58a
 2890 05d0 00       		.byte	0
 2891 05d1 07       		.uleb128 0x7
 2892 05d2 723500   		.ascii	"r5\000"
 2893 05d5 0A       		.byte	0xa
 2894 05d6 1101     		.2byte	0x111
 2895 05d8 8A050000 		.4byte	0x58a
 2896 05dc 04       		.byte	0x4
 2897 05dd 07       		.uleb128 0x7
 2898 05de 723600   		.ascii	"r6\000"
 2899 05e1 0A       		.byte	0xa
 2900 05e2 1201     		.2byte	0x112
 2901 05e4 8A050000 		.4byte	0x58a
 2902 05e8 08       		.byte	0x8
 2903 05e9 07       		.uleb128 0x7
 2904 05ea 723700   		.ascii	"r7\000"
 2905 05ed 0A       		.byte	0xa
 2906 05ee 1301     		.2byte	0x113
 2907 05f0 8A050000 		.4byte	0x58a
 2908 05f4 0C       		.byte	0xc
ARM GAS  /tmp/ccAE1QPe.s 			page 107


 2909 05f5 07       		.uleb128 0x7
 2910 05f6 723800   		.ascii	"r8\000"
 2911 05f9 0A       		.byte	0xa
 2912 05fa 1401     		.2byte	0x114
 2913 05fc 8A050000 		.4byte	0x58a
 2914 0600 10       		.byte	0x10
 2915 0601 07       		.uleb128 0x7
 2916 0602 723900   		.ascii	"r9\000"
 2917 0605 0A       		.byte	0xa
 2918 0606 1501     		.2byte	0x115
 2919 0608 8A050000 		.4byte	0x58a
 2920 060c 14       		.byte	0x14
 2921 060d 07       		.uleb128 0x7
 2922 060e 72313000 		.ascii	"r10\000"
 2923 0612 0A       		.byte	0xa
 2924 0613 1601     		.2byte	0x116
 2925 0615 8A050000 		.4byte	0x58a
 2926 0619 18       		.byte	0x18
 2927 061a 07       		.uleb128 0x7
 2928 061b 72313100 		.ascii	"r11\000"
 2929 061f 0A       		.byte	0xa
 2930 0620 1701     		.2byte	0x117
 2931 0622 8A050000 		.4byte	0x58a
 2932 0626 1C       		.byte	0x1c
 2933 0627 07       		.uleb128 0x7
 2934 0628 6C7200   		.ascii	"lr\000"
 2935 062b 0A       		.byte	0xa
 2936 062c 1801     		.2byte	0x118
 2937 062e 8A050000 		.4byte	0x58a
 2938 0632 20       		.byte	0x20
 2939 0633 00       		.byte	0
 2940 0634 09       		.uleb128 0x9
 2941 0635 04       		.byte	0x4
 2942 0636 B9050000 		.4byte	0x5b9
 2943 063a 13       		.uleb128 0x13
 2944 063b 04       		.byte	0x4
 2945 063c 0B       		.byte	0xb
 2946 063d 38       		.byte	0x38
 2947 063e 4F060000 		.4byte	0x64f
 2948 0642 06       		.uleb128 0x6
 2949 0643 8A060000 		.4byte	.LASF101
 2950 0647 0B       		.byte	0xb
 2951 0648 3C       		.byte	0x3c
 2952 0649 CE000000 		.4byte	0xce
 2953 064d 00       		.byte	0
 2954 064e 00       		.byte	0
 2955 064f 03       		.uleb128 0x3
 2956 0650 66040000 		.4byte	.LASF102
 2957 0654 0B       		.byte	0xb
 2958 0655 3D       		.byte	0x3d
 2959 0656 3A060000 		.4byte	0x63a
 2960 065a 14       		.uleb128 0x14
 2961 065b 04       		.byte	0x4
 2962 065c 07       		.byte	0x7
 2963 065d FA       		.byte	0xfa
 2964 065e C3060000 		.4byte	0x6c3
 2965 0662 15       		.uleb128 0x15
ARM GAS  /tmp/ccAE1QPe.s 			page 108


 2966 0663 24000000 		.4byte	.LASF103
 2967 0667 07       		.byte	0x7
 2968 0668 0101     		.2byte	0x101
 2969 066a 05010000 		.4byte	0x105
 2970 066e 15       		.uleb128 0x15
 2971 066f 7A000000 		.4byte	.LASF104
 2972 0673 07       		.byte	0x7
 2973 0674 0801     		.2byte	0x108
 2974 0676 05010000 		.4byte	0x105
 2975 067a 15       		.uleb128 0x15
 2976 067b 31070000 		.4byte	.LASF105
 2977 067f 07       		.byte	0x7
 2978 0680 0F01     		.2byte	0x10f
 2979 0682 10030000 		.4byte	0x310
 2980 0686 15       		.uleb128 0x15
 2981 0687 39010000 		.4byte	.LASF106
 2982 068b 07       		.byte	0x7
 2983 068c 1601     		.2byte	0x116
 2984 068e C3060000 		.4byte	0x6c3
 2985 0692 15       		.uleb128 0x15
 2986 0693 9D000000 		.4byte	.LASF107
 2987 0697 07       		.byte	0x7
 2988 0698 1B01     		.2byte	0x11b
 2989 069a 05010000 		.4byte	0x105
 2990 069e 15       		.uleb128 0x15
 2991 069f C0020000 		.4byte	.LASF108
 2992 06a3 07       		.byte	0x7
 2993 06a4 2401     		.2byte	0x124
 2994 06a6 EE060000 		.4byte	0x6ee
 2995 06aa 15       		.uleb128 0x15
 2996 06ab 9D050000 		.4byte	.LASF109
 2997 06af 07       		.byte	0x7
 2998 06b0 2D01     		.2byte	0x12d
 2999 06b2 25070000 		.4byte	0x725
 3000 06b6 15       		.uleb128 0x15
 3001 06b7 43050000 		.4byte	.LASF110
 3002 06bb 07       		.byte	0x7
 3003 06bc 3501     		.2byte	0x135
 3004 06be 10010000 		.4byte	0x110
 3005 06c2 00       		.byte	0
 3006 06c3 09       		.uleb128 0x9
 3007 06c4 04       		.byte	0x4
 3008 06c5 28020000 		.4byte	0x228
 3009 06c9 05       		.uleb128 0x5
 3010 06ca 73050000 		.4byte	.LASF111
 3011 06ce 0C       		.byte	0xc
 3012 06cf 0C       		.byte	0xc
 3013 06d0 34       		.byte	0x34
 3014 06d1 EE060000 		.4byte	0x6ee
 3015 06d5 06       		.uleb128 0x6
 3016 06d6 77010000 		.4byte	.LASF112
 3017 06da 0C       		.byte	0xc
 3018 06db 35       		.byte	0x35
 3019 06dc 5D020000 		.4byte	0x25d
 3020 06e0 00       		.byte	0
 3021 06e1 06       		.uleb128 0x6
 3022 06e2 2B030000 		.4byte	.LASF113
ARM GAS  /tmp/ccAE1QPe.s 			page 109


 3023 06e6 0C       		.byte	0xc
 3024 06e7 37       		.byte	0x37
 3025 06e8 1B010000 		.4byte	0x11b
 3026 06ec 08       		.byte	0x8
 3027 06ed 00       		.byte	0
 3028 06ee 09       		.uleb128 0x9
 3029 06ef 04       		.byte	0x4
 3030 06f0 C9060000 		.4byte	0x6c9
 3031 06f4 05       		.uleb128 0x5
 3032 06f5 F6060000 		.4byte	.LASF114
 3033 06f9 10       		.byte	0x10
 3034 06fa 0D       		.byte	0xd
 3035 06fb 39       		.byte	0x39
 3036 06fc 25070000 		.4byte	0x725
 3037 0700 06       		.uleb128 0x6
 3038 0701 14010000 		.4byte	.LASF115
 3039 0705 0D       		.byte	0xd
 3040 0706 3A       		.byte	0x3a
 3041 0707 5D020000 		.4byte	0x25d
 3042 070b 00       		.byte	0
 3043 070c 06       		.uleb128 0x6
 3044 070d 6C070000 		.4byte	.LASF116
 3045 0711 0D       		.byte	0xd
 3046 0712 3C       		.byte	0x3c
 3047 0713 33020000 		.4byte	0x233
 3048 0717 08       		.byte	0x8
 3049 0718 06       		.uleb128 0x6
 3050 0719 45060000 		.4byte	.LASF117
 3051 071d 0D       		.byte	0xd
 3052 071e 3E       		.byte	0x3e
 3053 071f 69070000 		.4byte	0x769
 3054 0723 0C       		.byte	0xc
 3055 0724 00       		.byte	0
 3056 0725 09       		.uleb128 0x9
 3057 0726 04       		.byte	0x4
 3058 0727 F4060000 		.4byte	0x6f4
 3059 072b 09       		.uleb128 0x9
 3060 072c 04       		.byte	0x4
 3061 072d 31070000 		.4byte	0x731
 3062 0731 16       		.uleb128 0x16
 3063 0732 36070000 		.4byte	0x736
 3064 0736 04       		.uleb128 0x4
 3065 0737 01       		.byte	0x1
 3066 0738 08       		.byte	0x8
 3067 0739 1D060000 		.4byte	.LASF118
 3068 073d 09       		.uleb128 0x9
 3069 073e 04       		.byte	0x4
 3070 073f 95050000 		.4byte	0x595
 3071 0743 09       		.uleb128 0x9
 3072 0744 04       		.byte	0x4
 3073 0745 12030000 		.4byte	0x312
 3074 0749 0F       		.uleb128 0xf
 3075 074a 2B070000 		.4byte	0x72b
 3076 074e 17       		.uleb128 0x17
 3077 074f 95050000 		.4byte	0x595
 3078 0753 5E070000 		.4byte	0x75e
 3079 0757 18       		.uleb128 0x18
ARM GAS  /tmp/ccAE1QPe.s 			page 110


 3080 0758 46040000 		.4byte	0x446
 3081 075c 1A       		.byte	0x1a
 3082 075d 00       		.byte	0
 3083 075e 03       		.uleb128 0x3
 3084 075f A2010000 		.4byte	.LASF119
 3085 0763 0D       		.byte	0xd
 3086 0764 34       		.byte	0x34
 3087 0765 F4060000 		.4byte	0x6f4
 3088 0769 09       		.uleb128 0x9
 3089 076a 04       		.byte	0x4
 3090 076b 5E070000 		.4byte	0x75e
 3091 076f 13       		.uleb128 0x13
 3092 0770 14       		.byte	0x14
 3093 0771 0E       		.byte	0xe
 3094 0772 E4       		.byte	0xe4
 3095 0773 CC070000 		.4byte	0x7cc
 3096 0777 12       		.uleb128 0x12
 3097 0778 646D6100 		.ascii	"dma\000"
 3098 077c 0E       		.byte	0xe
 3099 077d E5       		.byte	0xe5
 3100 077e CC070000 		.4byte	0x7cc
 3101 0782 00       		.byte	0
 3102 0783 06       		.uleb128 0x6
 3103 0784 5A050000 		.4byte	.LASF120
 3104 0788 0E       		.byte	0xe
 3105 0789 E6       		.byte	0xe6
 3106 078a D2070000 		.4byte	0x7d2
 3107 078e 04       		.byte	0x4
 3108 078f 06       		.uleb128 0x6
 3109 0790 F3030000 		.4byte	.LASF121
 3110 0794 0E       		.byte	0xe
 3111 0795 E7       		.byte	0xe7
 3112 0796 B8000000 		.4byte	0xb8
 3113 079a 08       		.byte	0x8
 3114 079b 06       		.uleb128 0x6
 3115 079c 33010000 		.4byte	.LASF122
 3116 07a0 0E       		.byte	0xe
 3117 07a1 E9       		.byte	0xe9
 3118 07a2 D8070000 		.4byte	0x7d8
 3119 07a6 0C       		.byte	0xc
 3120 07a7 06       		.uleb128 0x6
 3121 07a8 71010000 		.4byte	.LASF123
 3122 07ac 0E       		.byte	0xe
 3123 07ad EA       		.byte	0xea
 3124 07ae A2000000 		.4byte	0xa2
 3125 07b2 10       		.byte	0x10
 3126 07b3 06       		.uleb128 0x6
 3127 07b4 BA060000 		.4byte	.LASF124
 3128 07b8 0E       		.byte	0xe
 3129 07b9 EC       		.byte	0xec
 3130 07ba A2000000 		.4byte	0xa2
 3131 07be 11       		.byte	0x11
 3132 07bf 06       		.uleb128 0x6
 3133 07c0 83000000 		.4byte	.LASF125
 3134 07c4 0E       		.byte	0xe
 3135 07c5 ED       		.byte	0xed
 3136 07c6 A2000000 		.4byte	0xa2
ARM GAS  /tmp/ccAE1QPe.s 			page 111


 3137 07ca 12       		.byte	0x12
 3138 07cb 00       		.byte	0
 3139 07cc 09       		.uleb128 0x9
 3140 07cd 04       		.byte	0x4
 3141 07ce C0040000 		.4byte	0x4c0
 3142 07d2 09       		.uleb128 0x9
 3143 07d3 04       		.byte	0x4
 3144 07d4 90040000 		.4byte	0x490
 3145 07d8 09       		.uleb128 0x9
 3146 07d9 04       		.byte	0x4
 3147 07da 4D040000 		.4byte	0x44d
 3148 07de 03       		.uleb128 0x3
 3149 07df BB040000 		.4byte	.LASF126
 3150 07e3 0E       		.byte	0xe
 3151 07e4 EE       		.byte	0xee
 3152 07e5 6F070000 		.4byte	0x76f
 3153 07e9 03       		.uleb128 0x3
 3154 07ea DA020000 		.4byte	.LASF127
 3155 07ee 0E       		.byte	0xe
 3156 07ef F7       		.byte	0xf7
 3157 07f0 F4070000 		.4byte	0x7f4
 3158 07f4 09       		.uleb128 0x9
 3159 07f5 04       		.byte	0x4
 3160 07f6 FA070000 		.4byte	0x7fa
 3161 07fa 0B       		.uleb128 0xb
 3162 07fb 0A080000 		.4byte	0x80a
 3163 07ff 0C       		.uleb128 0xc
 3164 0800 10030000 		.4byte	0x310
 3165 0804 0C       		.uleb128 0xc
 3166 0805 B8000000 		.4byte	0xb8
 3167 0809 00       		.byte	0
 3168 080a 13       		.uleb128 0x13
 3169 080b 08       		.byte	0x8
 3170 080c 0E       		.byte	0xe
 3171 080d FC       		.byte	0xfc
 3172 080e 2B080000 		.4byte	0x82b
 3173 0812 06       		.uleb128 0x6
 3174 0813 5D040000 		.4byte	.LASF128
 3175 0817 0E       		.byte	0xe
 3176 0818 FD       		.byte	0xfd
 3177 0819 E9070000 		.4byte	0x7e9
 3178 081d 00       		.byte	0
 3179 081e 06       		.uleb128 0x6
 3180 081f 7F010000 		.4byte	.LASF129
 3181 0823 0E       		.byte	0xe
 3182 0824 FE       		.byte	0xfe
 3183 0825 10030000 		.4byte	0x310
 3184 0829 04       		.byte	0x4
 3185 082a 00       		.byte	0
 3186 082b 03       		.uleb128 0x3
 3187 082c 00000000 		.4byte	.LASF130
 3188 0830 0E       		.byte	0xe
 3189 0831 FF       		.byte	0xff
 3190 0832 0A080000 		.4byte	0x80a
 3191 0836 04       		.uleb128 0x4
 3192 0837 01       		.byte	0x1
 3193 0838 02       		.byte	0x2
ARM GAS  /tmp/ccAE1QPe.s 			page 112


 3194 0839 EF040000 		.4byte	.LASF131
 3195 083d 09       		.uleb128 0x9
 3196 083e 04       		.byte	0x4
 3197 083f 43080000 		.4byte	0x843
 3198 0843 16       		.uleb128 0x16
 3199 0844 DE070000 		.4byte	0x7de
 3200 0848 19       		.uleb128 0x19
 3201 0849 D6040000 		.4byte	.LASF133
 3202 084d 01       		.byte	0x1
 3203 084e CC       		.byte	0xcc
 3204 084f 00000000 		.4byte	.LFB272
 3205 0853 64000000 		.4byte	.LFE272-.LFB272
 3206 0857 01       		.uleb128 0x1
 3207 0858 9C       		.byte	0x9c
 3208 0859 84080000 		.4byte	0x884
 3209 085d 1A       		.uleb128 0x1a
 3210 085e 04000000 		.4byte	.LBB2
 3211 0862 4E000000 		.4byte	.LBE2-.LBB2
 3212 0866 1B       		.uleb128 0x1b
 3213 0867 2B070000 		.4byte	.LASF132
 3214 086b 01       		.byte	0x1
 3215 086c D0       		.byte	0xd0
 3216 086d B8000000 		.4byte	0xb8
 3217 0871 02       		.uleb128 0x2
 3218 0872 91       		.byte	0x91
 3219 0873 70       		.sleb128 -16
 3220 0874 1C       		.uleb128 0x1c
 3221 0875 69647800 		.ascii	"idx\000"
 3222 0879 01       		.byte	0x1
 3223 087a D0       		.byte	0xd0
 3224 087b B8000000 		.4byte	0xb8
 3225 087f 02       		.uleb128 0x2
 3226 0880 91       		.byte	0x91
 3227 0881 74       		.sleb128 -12
 3228 0882 00       		.byte	0
 3229 0883 00       		.byte	0
 3230 0884 19       		.uleb128 0x19
 3231 0885 8B050000 		.4byte	.LASF134
 3232 0889 01       		.byte	0x1
 3233 088a DC       		.byte	0xdc
 3234 088b 00000000 		.4byte	.LFB273
 3235 088f 64000000 		.4byte	.LFE273-.LFB273
 3236 0893 01       		.uleb128 0x1
 3237 0894 9C       		.byte	0x9c
 3238 0895 C0080000 		.4byte	0x8c0
 3239 0899 1A       		.uleb128 0x1a
 3240 089a 04000000 		.4byte	.LBB3
 3241 089e 4E000000 		.4byte	.LBE3-.LBB3
 3242 08a2 1B       		.uleb128 0x1b
 3243 08a3 2B070000 		.4byte	.LASF132
 3244 08a7 01       		.byte	0x1
 3245 08a8 E0       		.byte	0xe0
 3246 08a9 B8000000 		.4byte	0xb8
 3247 08ad 02       		.uleb128 0x2
 3248 08ae 91       		.byte	0x91
 3249 08af 70       		.sleb128 -16
 3250 08b0 1C       		.uleb128 0x1c
ARM GAS  /tmp/ccAE1QPe.s 			page 113


 3251 08b1 69647800 		.ascii	"idx\000"
 3252 08b5 01       		.byte	0x1
 3253 08b6 E0       		.byte	0xe0
 3254 08b7 B8000000 		.4byte	0xb8
 3255 08bb 02       		.uleb128 0x2
 3256 08bc 91       		.byte	0x91
 3257 08bd 74       		.sleb128 -12
 3258 08be 00       		.byte	0
 3259 08bf 00       		.byte	0
 3260 08c0 19       		.uleb128 0x19
 3261 08c1 94050000 		.4byte	.LASF135
 3262 08c5 01       		.byte	0x1
 3263 08c6 EC       		.byte	0xec
 3264 08c7 00000000 		.4byte	.LFB274
 3265 08cb 64000000 		.4byte	.LFE274-.LFB274
 3266 08cf 01       		.uleb128 0x1
 3267 08d0 9C       		.byte	0x9c
 3268 08d1 FC080000 		.4byte	0x8fc
 3269 08d5 1A       		.uleb128 0x1a
 3270 08d6 04000000 		.4byte	.LBB4
 3271 08da 4E000000 		.4byte	.LBE4-.LBB4
 3272 08de 1B       		.uleb128 0x1b
 3273 08df 2B070000 		.4byte	.LASF132
 3274 08e3 01       		.byte	0x1
 3275 08e4 F0       		.byte	0xf0
 3276 08e5 B8000000 		.4byte	0xb8
 3277 08e9 02       		.uleb128 0x2
 3278 08ea 91       		.byte	0x91
 3279 08eb 70       		.sleb128 -16
 3280 08ec 1C       		.uleb128 0x1c
 3281 08ed 69647800 		.ascii	"idx\000"
 3282 08f1 01       		.byte	0x1
 3283 08f2 F0       		.byte	0xf0
 3284 08f3 B8000000 		.4byte	0xb8
 3285 08f7 02       		.uleb128 0x2
 3286 08f8 91       		.byte	0x91
 3287 08f9 74       		.sleb128 -12
 3288 08fa 00       		.byte	0
 3289 08fb 00       		.byte	0
 3290 08fc 19       		.uleb128 0x19
 3291 08fd 22030000 		.4byte	.LASF136
 3292 0901 01       		.byte	0x1
 3293 0902 FC       		.byte	0xfc
 3294 0903 00000000 		.4byte	.LFB275
 3295 0907 64000000 		.4byte	.LFE275-.LFB275
 3296 090b 01       		.uleb128 0x1
 3297 090c 9C       		.byte	0x9c
 3298 090d 3A090000 		.4byte	0x93a
 3299 0911 1A       		.uleb128 0x1a
 3300 0912 04000000 		.4byte	.LBB5
 3301 0916 4E000000 		.4byte	.LBE5-.LBB5
 3302 091a 1D       		.uleb128 0x1d
 3303 091b 2B070000 		.4byte	.LASF132
 3304 091f 01       		.byte	0x1
 3305 0920 0001     		.2byte	0x100
 3306 0922 B8000000 		.4byte	0xb8
 3307 0926 02       		.uleb128 0x2
ARM GAS  /tmp/ccAE1QPe.s 			page 114


 3308 0927 91       		.byte	0x91
 3309 0928 70       		.sleb128 -16
 3310 0929 1E       		.uleb128 0x1e
 3311 092a 69647800 		.ascii	"idx\000"
 3312 092e 01       		.byte	0x1
 3313 092f 0001     		.2byte	0x100
 3314 0931 B8000000 		.4byte	0xb8
 3315 0935 02       		.uleb128 0x2
 3316 0936 91       		.byte	0x91
 3317 0937 74       		.sleb128 -12
 3318 0938 00       		.byte	0
 3319 0939 00       		.byte	0
 3320 093a 1F       		.uleb128 0x1f
 3321 093b 33060000 		.4byte	.LASF137
 3322 093f 01       		.byte	0x1
 3323 0940 0C01     		.2byte	0x10c
 3324 0942 00000000 		.4byte	.LFB276
 3325 0946 64000000 		.4byte	.LFE276-.LFB276
 3326 094a 01       		.uleb128 0x1
 3327 094b 9C       		.byte	0x9c
 3328 094c 79090000 		.4byte	0x979
 3329 0950 1A       		.uleb128 0x1a
 3330 0951 04000000 		.4byte	.LBB6
 3331 0955 4E000000 		.4byte	.LBE6-.LBB6
 3332 0959 1D       		.uleb128 0x1d
 3333 095a 2B070000 		.4byte	.LASF132
 3334 095e 01       		.byte	0x1
 3335 095f 1001     		.2byte	0x110
 3336 0961 B8000000 		.4byte	0xb8
 3337 0965 02       		.uleb128 0x2
 3338 0966 91       		.byte	0x91
 3339 0967 70       		.sleb128 -16
 3340 0968 1E       		.uleb128 0x1e
 3341 0969 69647800 		.ascii	"idx\000"
 3342 096d 01       		.byte	0x1
 3343 096e 1001     		.2byte	0x110
 3344 0970 B8000000 		.4byte	0xb8
 3345 0974 02       		.uleb128 0x2
 3346 0975 91       		.byte	0x91
 3347 0976 74       		.sleb128 -12
 3348 0977 00       		.byte	0
 3349 0978 00       		.byte	0
 3350 0979 1F       		.uleb128 0x1f
 3351 097a CB060000 		.4byte	.LASF138
 3352 097e 01       		.byte	0x1
 3353 097f 1C01     		.2byte	0x11c
 3354 0981 00000000 		.4byte	.LFB277
 3355 0985 64000000 		.4byte	.LFE277-.LFB277
 3356 0989 01       		.uleb128 0x1
 3357 098a 9C       		.byte	0x9c
 3358 098b B8090000 		.4byte	0x9b8
 3359 098f 1A       		.uleb128 0x1a
 3360 0990 04000000 		.4byte	.LBB7
 3361 0994 4E000000 		.4byte	.LBE7-.LBB7
 3362 0998 1D       		.uleb128 0x1d
 3363 0999 2B070000 		.4byte	.LASF132
 3364 099d 01       		.byte	0x1
ARM GAS  /tmp/ccAE1QPe.s 			page 115


 3365 099e 2001     		.2byte	0x120
 3366 09a0 B8000000 		.4byte	0xb8
 3367 09a4 02       		.uleb128 0x2
 3368 09a5 91       		.byte	0x91
 3369 09a6 70       		.sleb128 -16
 3370 09a7 1E       		.uleb128 0x1e
 3371 09a8 69647800 		.ascii	"idx\000"
 3372 09ac 01       		.byte	0x1
 3373 09ad 2001     		.2byte	0x120
 3374 09af B8000000 		.4byte	0xb8
 3375 09b3 02       		.uleb128 0x2
 3376 09b4 91       		.byte	0x91
 3377 09b5 74       		.sleb128 -12
 3378 09b6 00       		.byte	0
 3379 09b7 00       		.byte	0
 3380 09b8 1F       		.uleb128 0x1f
 3381 09b9 DD060000 		.4byte	.LASF139
 3382 09bd 01       		.byte	0x1
 3383 09be 2C01     		.2byte	0x12c
 3384 09c0 00000000 		.4byte	.LFB278
 3385 09c4 64000000 		.4byte	.LFE278-.LFB278
 3386 09c8 01       		.uleb128 0x1
 3387 09c9 9C       		.byte	0x9c
 3388 09ca F7090000 		.4byte	0x9f7
 3389 09ce 1A       		.uleb128 0x1a
 3390 09cf 04000000 		.4byte	.LBB8
 3391 09d3 4E000000 		.4byte	.LBE8-.LBB8
 3392 09d7 1D       		.uleb128 0x1d
 3393 09d8 2B070000 		.4byte	.LASF132
 3394 09dc 01       		.byte	0x1
 3395 09dd 3001     		.2byte	0x130
 3396 09df B8000000 		.4byte	0xb8
 3397 09e3 02       		.uleb128 0x2
 3398 09e4 91       		.byte	0x91
 3399 09e5 70       		.sleb128 -16
 3400 09e6 1E       		.uleb128 0x1e
 3401 09e7 69647800 		.ascii	"idx\000"
 3402 09eb 01       		.byte	0x1
 3403 09ec 3001     		.2byte	0x130
 3404 09ee B8000000 		.4byte	0xb8
 3405 09f2 02       		.uleb128 0x2
 3406 09f3 91       		.byte	0x91
 3407 09f4 74       		.sleb128 -12
 3408 09f5 00       		.byte	0
 3409 09f6 00       		.byte	0
 3410 09f7 1F       		.uleb128 0x1f
 3411 09f8 3F070000 		.4byte	.LASF140
 3412 09fc 01       		.byte	0x1
 3413 09fd 3C01     		.2byte	0x13c
 3414 09ff 00000000 		.4byte	.LFB279
 3415 0a03 64000000 		.4byte	.LFE279-.LFB279
 3416 0a07 01       		.uleb128 0x1
 3417 0a08 9C       		.byte	0x9c
 3418 0a09 360A0000 		.4byte	0xa36
 3419 0a0d 1A       		.uleb128 0x1a
 3420 0a0e 04000000 		.4byte	.LBB9
 3421 0a12 4E000000 		.4byte	.LBE9-.LBB9
ARM GAS  /tmp/ccAE1QPe.s 			page 116


 3422 0a16 1D       		.uleb128 0x1d
 3423 0a17 2B070000 		.4byte	.LASF132
 3424 0a1b 01       		.byte	0x1
 3425 0a1c 4001     		.2byte	0x140
 3426 0a1e B8000000 		.4byte	0xb8
 3427 0a22 02       		.uleb128 0x2
 3428 0a23 91       		.byte	0x91
 3429 0a24 70       		.sleb128 -16
 3430 0a25 1E       		.uleb128 0x1e
 3431 0a26 69647800 		.ascii	"idx\000"
 3432 0a2a 01       		.byte	0x1
 3433 0a2b 4001     		.2byte	0x140
 3434 0a2d B8000000 		.4byte	0xb8
 3435 0a31 02       		.uleb128 0x2
 3436 0a32 91       		.byte	0x91
 3437 0a33 74       		.sleb128 -12
 3438 0a34 00       		.byte	0
 3439 0a35 00       		.byte	0
 3440 0a36 1F       		.uleb128 0x1f
 3441 0a37 4E070000 		.4byte	.LASF141
 3442 0a3b 01       		.byte	0x1
 3443 0a3c 4C01     		.2byte	0x14c
 3444 0a3e 00000000 		.4byte	.LFB280
 3445 0a42 64000000 		.4byte	.LFE280-.LFB280
 3446 0a46 01       		.uleb128 0x1
 3447 0a47 9C       		.byte	0x9c
 3448 0a48 750A0000 		.4byte	0xa75
 3449 0a4c 1A       		.uleb128 0x1a
 3450 0a4d 04000000 		.4byte	.LBB10
 3451 0a51 4E000000 		.4byte	.LBE10-.LBB10
 3452 0a55 1D       		.uleb128 0x1d
 3453 0a56 2B070000 		.4byte	.LASF132
 3454 0a5a 01       		.byte	0x1
 3455 0a5b 5001     		.2byte	0x150
 3456 0a5d B8000000 		.4byte	0xb8
 3457 0a61 02       		.uleb128 0x2
 3458 0a62 91       		.byte	0x91
 3459 0a63 70       		.sleb128 -16
 3460 0a64 1E       		.uleb128 0x1e
 3461 0a65 69647800 		.ascii	"idx\000"
 3462 0a69 01       		.byte	0x1
 3463 0a6a 5001     		.2byte	0x150
 3464 0a6c B8000000 		.4byte	0xb8
 3465 0a70 02       		.uleb128 0x2
 3466 0a71 91       		.byte	0x91
 3467 0a72 74       		.sleb128 -12
 3468 0a73 00       		.byte	0
 3469 0a74 00       		.byte	0
 3470 0a75 1F       		.uleb128 0x1f
 3471 0a76 58070000 		.4byte	.LASF142
 3472 0a7a 01       		.byte	0x1
 3473 0a7b 5C01     		.2byte	0x15c
 3474 0a7d 00000000 		.4byte	.LFB281
 3475 0a81 64000000 		.4byte	.LFE281-.LFB281
 3476 0a85 01       		.uleb128 0x1
 3477 0a86 9C       		.byte	0x9c
 3478 0a87 B40A0000 		.4byte	0xab4
ARM GAS  /tmp/ccAE1QPe.s 			page 117


 3479 0a8b 1A       		.uleb128 0x1a
 3480 0a8c 04000000 		.4byte	.LBB11
 3481 0a90 4E000000 		.4byte	.LBE11-.LBB11
 3482 0a94 1D       		.uleb128 0x1d
 3483 0a95 2B070000 		.4byte	.LASF132
 3484 0a99 01       		.byte	0x1
 3485 0a9a 6001     		.2byte	0x160
 3486 0a9c B8000000 		.4byte	0xb8
 3487 0aa0 02       		.uleb128 0x2
 3488 0aa1 91       		.byte	0x91
 3489 0aa2 70       		.sleb128 -16
 3490 0aa3 1E       		.uleb128 0x1e
 3491 0aa4 69647800 		.ascii	"idx\000"
 3492 0aa8 01       		.byte	0x1
 3493 0aa9 6001     		.2byte	0x160
 3494 0aab B8000000 		.4byte	0xb8
 3495 0aaf 02       		.uleb128 0x2
 3496 0ab0 91       		.byte	0x91
 3497 0ab1 74       		.sleb128 -12
 3498 0ab2 00       		.byte	0
 3499 0ab3 00       		.byte	0
 3500 0ab4 1F       		.uleb128 0x1f
 3501 0ab5 62070000 		.4byte	.LASF143
 3502 0ab9 01       		.byte	0x1
 3503 0aba 6C01     		.2byte	0x16c
 3504 0abc 00000000 		.4byte	.LFB282
 3505 0ac0 64000000 		.4byte	.LFE282-.LFB282
 3506 0ac4 01       		.uleb128 0x1
 3507 0ac5 9C       		.byte	0x9c
 3508 0ac6 F30A0000 		.4byte	0xaf3
 3509 0aca 1A       		.uleb128 0x1a
 3510 0acb 04000000 		.4byte	.LBB12
 3511 0acf 4E000000 		.4byte	.LBE12-.LBB12
 3512 0ad3 1D       		.uleb128 0x1d
 3513 0ad4 2B070000 		.4byte	.LASF132
 3514 0ad8 01       		.byte	0x1
 3515 0ad9 7001     		.2byte	0x170
 3516 0adb B8000000 		.4byte	0xb8
 3517 0adf 02       		.uleb128 0x2
 3518 0ae0 91       		.byte	0x91
 3519 0ae1 70       		.sleb128 -16
 3520 0ae2 1E       		.uleb128 0x1e
 3521 0ae3 69647800 		.ascii	"idx\000"
 3522 0ae7 01       		.byte	0x1
 3523 0ae8 7001     		.2byte	0x170
 3524 0aea B8000000 		.4byte	0xb8
 3525 0aee 02       		.uleb128 0x2
 3526 0aef 91       		.byte	0x91
 3527 0af0 74       		.sleb128 -12
 3528 0af1 00       		.byte	0
 3529 0af2 00       		.byte	0
 3530 0af3 1F       		.uleb128 0x1f
 3531 0af4 59000000 		.4byte	.LASF144
 3532 0af8 01       		.byte	0x1
 3533 0af9 7C01     		.2byte	0x17c
 3534 0afb 00000000 		.4byte	.LFB283
 3535 0aff 64000000 		.4byte	.LFE283-.LFB283
ARM GAS  /tmp/ccAE1QPe.s 			page 118


 3536 0b03 01       		.uleb128 0x1
 3537 0b04 9C       		.byte	0x9c
 3538 0b05 320B0000 		.4byte	0xb32
 3539 0b09 1A       		.uleb128 0x1a
 3540 0b0a 04000000 		.4byte	.LBB13
 3541 0b0e 4E000000 		.4byte	.LBE13-.LBB13
 3542 0b12 1D       		.uleb128 0x1d
 3543 0b13 2B070000 		.4byte	.LASF132
 3544 0b17 01       		.byte	0x1
 3545 0b18 8001     		.2byte	0x180
 3546 0b1a B8000000 		.4byte	0xb8
 3547 0b1e 02       		.uleb128 0x2
 3548 0b1f 91       		.byte	0x91
 3549 0b20 70       		.sleb128 -16
 3550 0b21 1E       		.uleb128 0x1e
 3551 0b22 69647800 		.ascii	"idx\000"
 3552 0b26 01       		.byte	0x1
 3553 0b27 8001     		.2byte	0x180
 3554 0b29 B8000000 		.4byte	0xb8
 3555 0b2d 02       		.uleb128 0x2
 3556 0b2e 91       		.byte	0x91
 3557 0b2f 74       		.sleb128 -12
 3558 0b30 00       		.byte	0
 3559 0b31 00       		.byte	0
 3560 0b32 20       		.uleb128 0x20
 3561 0b33 10060000 		.4byte	.LASF145
 3562 0b37 01       		.byte	0x1
 3563 0b38 AF01     		.2byte	0x1af
 3564 0b3a 00000000 		.4byte	.LFB284
 3565 0b3e 60000000 		.4byte	.LFE284-.LFB284
 3566 0b42 01       		.uleb128 0x1
 3567 0b43 9C       		.byte	0x9c
 3568 0b44 560B0000 		.4byte	0xb56
 3569 0b48 1E       		.uleb128 0x1e
 3570 0b49 6900     		.ascii	"i\000"
 3571 0b4b 01       		.byte	0x1
 3572 0b4c B001     		.2byte	0x1b0
 3573 0b4e 25000000 		.4byte	0x25
 3574 0b52 02       		.uleb128 0x2
 3575 0b53 91       		.byte	0x91
 3576 0b54 7C       		.sleb128 -4
 3577 0b55 00       		.byte	0
 3578 0b56 21       		.uleb128 0x21
 3579 0b57 74070000 		.4byte	.LASF160
 3580 0b5b 01       		.byte	0x1
 3581 0b5c D501     		.2byte	0x1d5
 3582 0b5e 36080000 		.4byte	0x836
 3583 0b62 00000000 		.4byte	.LFB285
 3584 0b66 E0000000 		.4byte	.LFE285-.LFB285
 3585 0b6a 01       		.uleb128 0x1
 3586 0b6b 9C       		.byte	0x9c
 3587 0b6c B60B0000 		.4byte	0xbb6
 3588 0b70 22       		.uleb128 0x22
 3589 0b71 2C010000 		.4byte	.LASF146
 3590 0b75 01       		.byte	0x1
 3591 0b76 D501     		.2byte	0x1d5
 3592 0b78 3D080000 		.4byte	0x83d
ARM GAS  /tmp/ccAE1QPe.s 			page 119


 3593 0b7c 02       		.uleb128 0x2
 3594 0b7d 91       		.byte	0x91
 3595 0b7e 74       		.sleb128 -12
 3596 0b7f 22       		.uleb128 0x22
 3597 0b80 6B030000 		.4byte	.LASF147
 3598 0b84 01       		.byte	0x1
 3599 0b85 D601     		.2byte	0x1d6
 3600 0b87 B8000000 		.4byte	0xb8
 3601 0b8b 02       		.uleb128 0x2
 3602 0b8c 91       		.byte	0x91
 3603 0b8d 70       		.sleb128 -16
 3604 0b8e 22       		.uleb128 0x22
 3605 0b8f 64010000 		.4byte	.LASF148
 3606 0b93 01       		.byte	0x1
 3607 0b94 D701     		.2byte	0x1d7
 3608 0b96 E9070000 		.4byte	0x7e9
 3609 0b9a 02       		.uleb128 0x2
 3610 0b9b 91       		.byte	0x91
 3611 0b9c 6C       		.sleb128 -20
 3612 0b9d 22       		.uleb128 0x22
 3613 0b9e 3D040000 		.4byte	.LASF149
 3614 0ba2 01       		.byte	0x1
 3615 0ba3 D801     		.2byte	0x1d8
 3616 0ba5 10030000 		.4byte	0x310
 3617 0ba9 02       		.uleb128 0x2
 3618 0baa 91       		.byte	0x91
 3619 0bab 68       		.sleb128 -24
 3620 0bac 23       		.uleb128 0x23
 3621 0bad CC020000 		.4byte	.LASF151
 3622 0bb1 C60B0000 		.4byte	0xbc6
 3623 0bb5 00       		.byte	0
 3624 0bb6 17       		.uleb128 0x17
 3625 0bb7 36070000 		.4byte	0x736
 3626 0bbb C60B0000 		.4byte	0xbc6
 3627 0bbf 18       		.uleb128 0x18
 3628 0bc0 46040000 		.4byte	0x446
 3629 0bc4 11       		.byte	0x11
 3630 0bc5 00       		.byte	0
 3631 0bc6 16       		.uleb128 0x16
 3632 0bc7 B60B0000 		.4byte	0xbb6
 3633 0bcb 1F       		.uleb128 0x1f
 3634 0bcc 22060000 		.4byte	.LASF150
 3635 0bd0 01       		.byte	0x1
 3636 0bd1 0C02     		.2byte	0x20c
 3637 0bd3 00000000 		.4byte	.LFB286
 3638 0bd7 94000000 		.4byte	.LFE286-.LFB286
 3639 0bdb 01       		.uleb128 0x1
 3640 0bdc 9C       		.byte	0x9c
 3641 0bdd FA0B0000 		.4byte	0xbfa
 3642 0be1 22       		.uleb128 0x22
 3643 0be2 2C010000 		.4byte	.LASF146
 3644 0be6 01       		.byte	0x1
 3645 0be7 0C02     		.2byte	0x20c
 3646 0be9 3D080000 		.4byte	0x83d
 3647 0bed 02       		.uleb128 0x2
 3648 0bee 91       		.byte	0x91
 3649 0bef 74       		.sleb128 -12
ARM GAS  /tmp/ccAE1QPe.s 			page 120


 3650 0bf0 23       		.uleb128 0x23
 3651 0bf1 F4020000 		.4byte	.LASF152
 3652 0bf5 0A0C0000 		.4byte	0xc0a
 3653 0bf9 00       		.byte	0
 3654 0bfa 17       		.uleb128 0x17
 3655 0bfb 36070000 		.4byte	0x736
 3656 0bff 0A0C0000 		.4byte	0xc0a
 3657 0c03 18       		.uleb128 0x18
 3658 0c04 46040000 		.4byte	0x446
 3659 0c08 10       		.byte	0x10
 3660 0c09 00       		.byte	0
 3661 0c0a 16       		.uleb128 0x16
 3662 0c0b FA0B0000 		.4byte	0xbfa
 3663 0c0f 1B       		.uleb128 0x1b
 3664 0c10 A1060000 		.4byte	.LASF153
 3665 0c14 01       		.byte	0x1
 3666 0c15 BC       		.byte	0xbc
 3667 0c16 B8000000 		.4byte	0xb8
 3668 0c1a 05       		.uleb128 0x5
 3669 0c1b 03       		.byte	0x3
 3670 0c1c 00000000 		.4byte	dma_streams_mask
 3671 0c20 24       		.uleb128 0x24
 3672 0c21 BB000000 		.4byte	.LASF154
 3673 0c25 0F       		.byte	0xf
 3674 0c26 FA06     		.2byte	0x6fa
 3675 0c28 2C0C0000 		.4byte	0xc2c
 3676 0c2c 0F       		.uleb128 0xf
 3677 0c2d AD000000 		.4byte	0xad
 3678 0c31 25       		.uleb128 0x25
 3679 0c32 636800   		.ascii	"ch\000"
 3680 0c35 07       		.byte	0x7
 3681 0c36 0B02     		.2byte	0x20b
 3682 0c38 DF030000 		.4byte	0x3df
 3683 0c3c 17       		.uleb128 0x17
 3684 0c3d DE070000 		.4byte	0x7de
 3685 0c41 4C0C0000 		.4byte	0xc4c
 3686 0c45 18       		.uleb128 0x18
 3687 0c46 46040000 		.4byte	0x446
 3688 0c4a 0B       		.byte	0xb
 3689 0c4b 00       		.byte	0
 3690 0c4c 26       		.uleb128 0x26
 3691 0c4d 8A000000 		.4byte	.LASF155
 3692 0c51 01       		.byte	0x1
 3693 0c52 95       		.byte	0x95
 3694 0c53 5D0C0000 		.4byte	0xc5d
 3695 0c57 05       		.uleb128 0x5
 3696 0c58 03       		.byte	0x3
 3697 0c59 00000000 		.4byte	_stm32_dma_streams
 3698 0c5d 16       		.uleb128 0x16
 3699 0c5e 3C0C0000 		.4byte	0xc3c
 3700 0c62 17       		.uleb128 0x17
 3701 0c63 2B080000 		.4byte	0x82b
 3702 0c67 720C0000 		.4byte	0xc72
 3703 0c6b 18       		.uleb128 0x18
 3704 0c6c 46040000 		.4byte	0x446
 3705 0c70 0B       		.byte	0xb
 3706 0c71 00       		.byte	0
ARM GAS  /tmp/ccAE1QPe.s 			page 121


 3707 0c72 26       		.uleb128 0x26
 3708 0c73 0B050000 		.4byte	.LASF156
 3709 0c77 01       		.byte	0x1
 3710 0c78 B3       		.byte	0xb3
 3711 0c79 620C0000 		.4byte	0xc62
 3712 0c7d 05       		.uleb128 0x5
 3713 0c7e 03       		.byte	0x3
 3714 0c7f 00000000 		.4byte	_stm32_dma_isr_redir
 3715 0c83 00       		.byte	0
 3716              		.section	.debug_abbrev,"",%progbits
 3717              	.Ldebug_abbrev0:
 3718 0000 01       		.uleb128 0x1
 3719 0001 11       		.uleb128 0x11
 3720 0002 01       		.byte	0x1
 3721 0003 25       		.uleb128 0x25
 3722 0004 0E       		.uleb128 0xe
 3723 0005 13       		.uleb128 0x13
 3724 0006 0B       		.uleb128 0xb
 3725 0007 03       		.uleb128 0x3
 3726 0008 0E       		.uleb128 0xe
 3727 0009 1B       		.uleb128 0x1b
 3728 000a 0E       		.uleb128 0xe
 3729 000b 55       		.uleb128 0x55
 3730 000c 17       		.uleb128 0x17
 3731 000d 11       		.uleb128 0x11
 3732 000e 01       		.uleb128 0x1
 3733 000f 10       		.uleb128 0x10
 3734 0010 17       		.uleb128 0x17
 3735 0011 00       		.byte	0
 3736 0012 00       		.byte	0
 3737 0013 02       		.uleb128 0x2
 3738 0014 24       		.uleb128 0x24
 3739 0015 00       		.byte	0
 3740 0016 0B       		.uleb128 0xb
 3741 0017 0B       		.uleb128 0xb
 3742 0018 3E       		.uleb128 0x3e
 3743 0019 0B       		.uleb128 0xb
 3744 001a 03       		.uleb128 0x3
 3745 001b 08       		.uleb128 0x8
 3746 001c 00       		.byte	0
 3747 001d 00       		.byte	0
 3748 001e 03       		.uleb128 0x3
 3749 001f 16       		.uleb128 0x16
 3750 0020 00       		.byte	0
 3751 0021 03       		.uleb128 0x3
 3752 0022 0E       		.uleb128 0xe
 3753 0023 3A       		.uleb128 0x3a
 3754 0024 0B       		.uleb128 0xb
 3755 0025 3B       		.uleb128 0x3b
 3756 0026 0B       		.uleb128 0xb
 3757 0027 49       		.uleb128 0x49
 3758 0028 13       		.uleb128 0x13
 3759 0029 00       		.byte	0
 3760 002a 00       		.byte	0
 3761 002b 04       		.uleb128 0x4
 3762 002c 24       		.uleb128 0x24
 3763 002d 00       		.byte	0
ARM GAS  /tmp/ccAE1QPe.s 			page 122


 3764 002e 0B       		.uleb128 0xb
 3765 002f 0B       		.uleb128 0xb
 3766 0030 3E       		.uleb128 0x3e
 3767 0031 0B       		.uleb128 0xb
 3768 0032 03       		.uleb128 0x3
 3769 0033 0E       		.uleb128 0xe
 3770 0034 00       		.byte	0
 3771 0035 00       		.byte	0
 3772 0036 05       		.uleb128 0x5
 3773 0037 13       		.uleb128 0x13
 3774 0038 01       		.byte	0x1
 3775 0039 03       		.uleb128 0x3
 3776 003a 0E       		.uleb128 0xe
 3777 003b 0B       		.uleb128 0xb
 3778 003c 0B       		.uleb128 0xb
 3779 003d 3A       		.uleb128 0x3a
 3780 003e 0B       		.uleb128 0xb
 3781 003f 3B       		.uleb128 0x3b
 3782 0040 0B       		.uleb128 0xb
 3783 0041 01       		.uleb128 0x1
 3784 0042 13       		.uleb128 0x13
 3785 0043 00       		.byte	0
 3786 0044 00       		.byte	0
 3787 0045 06       		.uleb128 0x6
 3788 0046 0D       		.uleb128 0xd
 3789 0047 00       		.byte	0
 3790 0048 03       		.uleb128 0x3
 3791 0049 0E       		.uleb128 0xe
 3792 004a 3A       		.uleb128 0x3a
 3793 004b 0B       		.uleb128 0xb
 3794 004c 3B       		.uleb128 0x3b
 3795 004d 0B       		.uleb128 0xb
 3796 004e 49       		.uleb128 0x49
 3797 004f 13       		.uleb128 0x13
 3798 0050 38       		.uleb128 0x38
 3799 0051 0B       		.uleb128 0xb
 3800 0052 00       		.byte	0
 3801 0053 00       		.byte	0
 3802 0054 07       		.uleb128 0x7
 3803 0055 0D       		.uleb128 0xd
 3804 0056 00       		.byte	0
 3805 0057 03       		.uleb128 0x3
 3806 0058 08       		.uleb128 0x8
 3807 0059 3A       		.uleb128 0x3a
 3808 005a 0B       		.uleb128 0xb
 3809 005b 3B       		.uleb128 0x3b
 3810 005c 05       		.uleb128 0x5
 3811 005d 49       		.uleb128 0x49
 3812 005e 13       		.uleb128 0x13
 3813 005f 38       		.uleb128 0x38
 3814 0060 0B       		.uleb128 0xb
 3815 0061 00       		.byte	0
 3816 0062 00       		.byte	0
 3817 0063 08       		.uleb128 0x8
 3818 0064 0D       		.uleb128 0xd
 3819 0065 00       		.byte	0
 3820 0066 03       		.uleb128 0x3
ARM GAS  /tmp/ccAE1QPe.s 			page 123


 3821 0067 0E       		.uleb128 0xe
 3822 0068 3A       		.uleb128 0x3a
 3823 0069 0B       		.uleb128 0xb
 3824 006a 3B       		.uleb128 0x3b
 3825 006b 05       		.uleb128 0x5
 3826 006c 49       		.uleb128 0x49
 3827 006d 13       		.uleb128 0x13
 3828 006e 38       		.uleb128 0x38
 3829 006f 0B       		.uleb128 0xb
 3830 0070 00       		.byte	0
 3831 0071 00       		.byte	0
 3832 0072 09       		.uleb128 0x9
 3833 0073 0F       		.uleb128 0xf
 3834 0074 00       		.byte	0
 3835 0075 0B       		.uleb128 0xb
 3836 0076 0B       		.uleb128 0xb
 3837 0077 49       		.uleb128 0x49
 3838 0078 13       		.uleb128 0x13
 3839 0079 00       		.byte	0
 3840 007a 00       		.byte	0
 3841 007b 0A       		.uleb128 0xa
 3842 007c 13       		.uleb128 0x13
 3843 007d 01       		.byte	0x1
 3844 007e 03       		.uleb128 0x3
 3845 007f 0E       		.uleb128 0xe
 3846 0080 0B       		.uleb128 0xb
 3847 0081 0B       		.uleb128 0xb
 3848 0082 3A       		.uleb128 0x3a
 3849 0083 0B       		.uleb128 0xb
 3850 0084 3B       		.uleb128 0x3b
 3851 0085 05       		.uleb128 0x5
 3852 0086 01       		.uleb128 0x1
 3853 0087 13       		.uleb128 0x13
 3854 0088 00       		.byte	0
 3855 0089 00       		.byte	0
 3856 008a 0B       		.uleb128 0xb
 3857 008b 15       		.uleb128 0x15
 3858 008c 01       		.byte	0x1
 3859 008d 27       		.uleb128 0x27
 3860 008e 19       		.uleb128 0x19
 3861 008f 01       		.uleb128 0x1
 3862 0090 13       		.uleb128 0x13
 3863 0091 00       		.byte	0
 3864 0092 00       		.byte	0
 3865 0093 0C       		.uleb128 0xc
 3866 0094 05       		.uleb128 0x5
 3867 0095 00       		.byte	0
 3868 0096 49       		.uleb128 0x49
 3869 0097 13       		.uleb128 0x13
 3870 0098 00       		.byte	0
 3871 0099 00       		.byte	0
 3872 009a 0D       		.uleb128 0xd
 3873 009b 0F       		.uleb128 0xf
 3874 009c 00       		.byte	0
 3875 009d 0B       		.uleb128 0xb
 3876 009e 0B       		.uleb128 0xb
 3877 009f 00       		.byte	0
ARM GAS  /tmp/ccAE1QPe.s 			page 124


 3878 00a0 00       		.byte	0
 3879 00a1 0E       		.uleb128 0xe
 3880 00a2 13       		.uleb128 0x13
 3881 00a3 01       		.byte	0x1
 3882 00a4 03       		.uleb128 0x3
 3883 00a5 0E       		.uleb128 0xe
 3884 00a6 0B       		.uleb128 0xb
 3885 00a7 05       		.uleb128 0x5
 3886 00a8 3A       		.uleb128 0x3a
 3887 00a9 0B       		.uleb128 0xb
 3888 00aa 3B       		.uleb128 0x3b
 3889 00ab 05       		.uleb128 0x5
 3890 00ac 01       		.uleb128 0x1
 3891 00ad 13       		.uleb128 0x13
 3892 00ae 00       		.byte	0
 3893 00af 00       		.byte	0
 3894 00b0 0F       		.uleb128 0xf
 3895 00b1 35       		.uleb128 0x35
 3896 00b2 00       		.byte	0
 3897 00b3 49       		.uleb128 0x49
 3898 00b4 13       		.uleb128 0x13
 3899 00b5 00       		.byte	0
 3900 00b6 00       		.byte	0
 3901 00b7 10       		.uleb128 0x10
 3902 00b8 13       		.uleb128 0x13
 3903 00b9 01       		.byte	0x1
 3904 00ba 0B       		.uleb128 0xb
 3905 00bb 0B       		.uleb128 0xb
 3906 00bc 3A       		.uleb128 0x3a
 3907 00bd 0B       		.uleb128 0xb
 3908 00be 3B       		.uleb128 0x3b
 3909 00bf 05       		.uleb128 0x5
 3910 00c0 01       		.uleb128 0x1
 3911 00c1 13       		.uleb128 0x13
 3912 00c2 00       		.byte	0
 3913 00c3 00       		.byte	0
 3914 00c4 11       		.uleb128 0x11
 3915 00c5 16       		.uleb128 0x16
 3916 00c6 00       		.byte	0
 3917 00c7 03       		.uleb128 0x3
 3918 00c8 0E       		.uleb128 0xe
 3919 00c9 3A       		.uleb128 0x3a
 3920 00ca 0B       		.uleb128 0xb
 3921 00cb 3B       		.uleb128 0x3b
 3922 00cc 05       		.uleb128 0x5
 3923 00cd 49       		.uleb128 0x49
 3924 00ce 13       		.uleb128 0x13
 3925 00cf 00       		.byte	0
 3926 00d0 00       		.byte	0
 3927 00d1 12       		.uleb128 0x12
 3928 00d2 0D       		.uleb128 0xd
 3929 00d3 00       		.byte	0
 3930 00d4 03       		.uleb128 0x3
 3931 00d5 08       		.uleb128 0x8
 3932 00d6 3A       		.uleb128 0x3a
 3933 00d7 0B       		.uleb128 0xb
 3934 00d8 3B       		.uleb128 0x3b
ARM GAS  /tmp/ccAE1QPe.s 			page 125


 3935 00d9 0B       		.uleb128 0xb
 3936 00da 49       		.uleb128 0x49
 3937 00db 13       		.uleb128 0x13
 3938 00dc 38       		.uleb128 0x38
 3939 00dd 0B       		.uleb128 0xb
 3940 00de 00       		.byte	0
 3941 00df 00       		.byte	0
 3942 00e0 13       		.uleb128 0x13
 3943 00e1 13       		.uleb128 0x13
 3944 00e2 01       		.byte	0x1
 3945 00e3 0B       		.uleb128 0xb
 3946 00e4 0B       		.uleb128 0xb
 3947 00e5 3A       		.uleb128 0x3a
 3948 00e6 0B       		.uleb128 0xb
 3949 00e7 3B       		.uleb128 0x3b
 3950 00e8 0B       		.uleb128 0xb
 3951 00e9 01       		.uleb128 0x1
 3952 00ea 13       		.uleb128 0x13
 3953 00eb 00       		.byte	0
 3954 00ec 00       		.byte	0
 3955 00ed 14       		.uleb128 0x14
 3956 00ee 17       		.uleb128 0x17
 3957 00ef 01       		.byte	0x1
 3958 00f0 0B       		.uleb128 0xb
 3959 00f1 0B       		.uleb128 0xb
 3960 00f2 3A       		.uleb128 0x3a
 3961 00f3 0B       		.uleb128 0xb
 3962 00f4 3B       		.uleb128 0x3b
 3963 00f5 0B       		.uleb128 0xb
 3964 00f6 01       		.uleb128 0x1
 3965 00f7 13       		.uleb128 0x13
 3966 00f8 00       		.byte	0
 3967 00f9 00       		.byte	0
 3968 00fa 15       		.uleb128 0x15
 3969 00fb 0D       		.uleb128 0xd
 3970 00fc 00       		.byte	0
 3971 00fd 03       		.uleb128 0x3
 3972 00fe 0E       		.uleb128 0xe
 3973 00ff 3A       		.uleb128 0x3a
 3974 0100 0B       		.uleb128 0xb
 3975 0101 3B       		.uleb128 0x3b
 3976 0102 05       		.uleb128 0x5
 3977 0103 49       		.uleb128 0x49
 3978 0104 13       		.uleb128 0x13
 3979 0105 00       		.byte	0
 3980 0106 00       		.byte	0
 3981 0107 16       		.uleb128 0x16
 3982 0108 26       		.uleb128 0x26
 3983 0109 00       		.byte	0
 3984 010a 49       		.uleb128 0x49
 3985 010b 13       		.uleb128 0x13
 3986 010c 00       		.byte	0
 3987 010d 00       		.byte	0
 3988 010e 17       		.uleb128 0x17
 3989 010f 01       		.uleb128 0x1
 3990 0110 01       		.byte	0x1
 3991 0111 49       		.uleb128 0x49
ARM GAS  /tmp/ccAE1QPe.s 			page 126


 3992 0112 13       		.uleb128 0x13
 3993 0113 01       		.uleb128 0x1
 3994 0114 13       		.uleb128 0x13
 3995 0115 00       		.byte	0
 3996 0116 00       		.byte	0
 3997 0117 18       		.uleb128 0x18
 3998 0118 21       		.uleb128 0x21
 3999 0119 00       		.byte	0
 4000 011a 49       		.uleb128 0x49
 4001 011b 13       		.uleb128 0x13
 4002 011c 2F       		.uleb128 0x2f
 4003 011d 0B       		.uleb128 0xb
 4004 011e 00       		.byte	0
 4005 011f 00       		.byte	0
 4006 0120 19       		.uleb128 0x19
 4007 0121 2E       		.uleb128 0x2e
 4008 0122 01       		.byte	0x1
 4009 0123 3F       		.uleb128 0x3f
 4010 0124 19       		.uleb128 0x19
 4011 0125 03       		.uleb128 0x3
 4012 0126 0E       		.uleb128 0xe
 4013 0127 3A       		.uleb128 0x3a
 4014 0128 0B       		.uleb128 0xb
 4015 0129 3B       		.uleb128 0x3b
 4016 012a 0B       		.uleb128 0xb
 4017 012b 27       		.uleb128 0x27
 4018 012c 19       		.uleb128 0x19
 4019 012d 11       		.uleb128 0x11
 4020 012e 01       		.uleb128 0x1
 4021 012f 12       		.uleb128 0x12
 4022 0130 06       		.uleb128 0x6
 4023 0131 40       		.uleb128 0x40
 4024 0132 18       		.uleb128 0x18
 4025 0133 9642     		.uleb128 0x2116
 4026 0135 19       		.uleb128 0x19
 4027 0136 01       		.uleb128 0x1
 4028 0137 13       		.uleb128 0x13
 4029 0138 00       		.byte	0
 4030 0139 00       		.byte	0
 4031 013a 1A       		.uleb128 0x1a
 4032 013b 0B       		.uleb128 0xb
 4033 013c 01       		.byte	0x1
 4034 013d 11       		.uleb128 0x11
 4035 013e 01       		.uleb128 0x1
 4036 013f 12       		.uleb128 0x12
 4037 0140 06       		.uleb128 0x6
 4038 0141 00       		.byte	0
 4039 0142 00       		.byte	0
 4040 0143 1B       		.uleb128 0x1b
 4041 0144 34       		.uleb128 0x34
 4042 0145 00       		.byte	0
 4043 0146 03       		.uleb128 0x3
 4044 0147 0E       		.uleb128 0xe
 4045 0148 3A       		.uleb128 0x3a
 4046 0149 0B       		.uleb128 0xb
 4047 014a 3B       		.uleb128 0x3b
 4048 014b 0B       		.uleb128 0xb
ARM GAS  /tmp/ccAE1QPe.s 			page 127


 4049 014c 49       		.uleb128 0x49
 4050 014d 13       		.uleb128 0x13
 4051 014e 02       		.uleb128 0x2
 4052 014f 18       		.uleb128 0x18
 4053 0150 00       		.byte	0
 4054 0151 00       		.byte	0
 4055 0152 1C       		.uleb128 0x1c
 4056 0153 34       		.uleb128 0x34
 4057 0154 00       		.byte	0
 4058 0155 03       		.uleb128 0x3
 4059 0156 08       		.uleb128 0x8
 4060 0157 3A       		.uleb128 0x3a
 4061 0158 0B       		.uleb128 0xb
 4062 0159 3B       		.uleb128 0x3b
 4063 015a 0B       		.uleb128 0xb
 4064 015b 49       		.uleb128 0x49
 4065 015c 13       		.uleb128 0x13
 4066 015d 02       		.uleb128 0x2
 4067 015e 18       		.uleb128 0x18
 4068 015f 00       		.byte	0
 4069 0160 00       		.byte	0
 4070 0161 1D       		.uleb128 0x1d
 4071 0162 34       		.uleb128 0x34
 4072 0163 00       		.byte	0
 4073 0164 03       		.uleb128 0x3
 4074 0165 0E       		.uleb128 0xe
 4075 0166 3A       		.uleb128 0x3a
 4076 0167 0B       		.uleb128 0xb
 4077 0168 3B       		.uleb128 0x3b
 4078 0169 05       		.uleb128 0x5
 4079 016a 49       		.uleb128 0x49
 4080 016b 13       		.uleb128 0x13
 4081 016c 02       		.uleb128 0x2
 4082 016d 18       		.uleb128 0x18
 4083 016e 00       		.byte	0
 4084 016f 00       		.byte	0
 4085 0170 1E       		.uleb128 0x1e
 4086 0171 34       		.uleb128 0x34
 4087 0172 00       		.byte	0
 4088 0173 03       		.uleb128 0x3
 4089 0174 08       		.uleb128 0x8
 4090 0175 3A       		.uleb128 0x3a
 4091 0176 0B       		.uleb128 0xb
 4092 0177 3B       		.uleb128 0x3b
 4093 0178 05       		.uleb128 0x5
 4094 0179 49       		.uleb128 0x49
 4095 017a 13       		.uleb128 0x13
 4096 017b 02       		.uleb128 0x2
 4097 017c 18       		.uleb128 0x18
 4098 017d 00       		.byte	0
 4099 017e 00       		.byte	0
 4100 017f 1F       		.uleb128 0x1f
 4101 0180 2E       		.uleb128 0x2e
 4102 0181 01       		.byte	0x1
 4103 0182 3F       		.uleb128 0x3f
 4104 0183 19       		.uleb128 0x19
 4105 0184 03       		.uleb128 0x3
ARM GAS  /tmp/ccAE1QPe.s 			page 128


 4106 0185 0E       		.uleb128 0xe
 4107 0186 3A       		.uleb128 0x3a
 4108 0187 0B       		.uleb128 0xb
 4109 0188 3B       		.uleb128 0x3b
 4110 0189 05       		.uleb128 0x5
 4111 018a 27       		.uleb128 0x27
 4112 018b 19       		.uleb128 0x19
 4113 018c 11       		.uleb128 0x11
 4114 018d 01       		.uleb128 0x1
 4115 018e 12       		.uleb128 0x12
 4116 018f 06       		.uleb128 0x6
 4117 0190 40       		.uleb128 0x40
 4118 0191 18       		.uleb128 0x18
 4119 0192 9642     		.uleb128 0x2116
 4120 0194 19       		.uleb128 0x19
 4121 0195 01       		.uleb128 0x1
 4122 0196 13       		.uleb128 0x13
 4123 0197 00       		.byte	0
 4124 0198 00       		.byte	0
 4125 0199 20       		.uleb128 0x20
 4126 019a 2E       		.uleb128 0x2e
 4127 019b 01       		.byte	0x1
 4128 019c 3F       		.uleb128 0x3f
 4129 019d 19       		.uleb128 0x19
 4130 019e 03       		.uleb128 0x3
 4131 019f 0E       		.uleb128 0xe
 4132 01a0 3A       		.uleb128 0x3a
 4133 01a1 0B       		.uleb128 0xb
 4134 01a2 3B       		.uleb128 0x3b
 4135 01a3 05       		.uleb128 0x5
 4136 01a4 27       		.uleb128 0x27
 4137 01a5 19       		.uleb128 0x19
 4138 01a6 11       		.uleb128 0x11
 4139 01a7 01       		.uleb128 0x1
 4140 01a8 12       		.uleb128 0x12
 4141 01a9 06       		.uleb128 0x6
 4142 01aa 40       		.uleb128 0x40
 4143 01ab 18       		.uleb128 0x18
 4144 01ac 9742     		.uleb128 0x2117
 4145 01ae 19       		.uleb128 0x19
 4146 01af 01       		.uleb128 0x1
 4147 01b0 13       		.uleb128 0x13
 4148 01b1 00       		.byte	0
 4149 01b2 00       		.byte	0
 4150 01b3 21       		.uleb128 0x21
 4151 01b4 2E       		.uleb128 0x2e
 4152 01b5 01       		.byte	0x1
 4153 01b6 3F       		.uleb128 0x3f
 4154 01b7 19       		.uleb128 0x19
 4155 01b8 03       		.uleb128 0x3
 4156 01b9 0E       		.uleb128 0xe
 4157 01ba 3A       		.uleb128 0x3a
 4158 01bb 0B       		.uleb128 0xb
 4159 01bc 3B       		.uleb128 0x3b
 4160 01bd 05       		.uleb128 0x5
 4161 01be 27       		.uleb128 0x27
 4162 01bf 19       		.uleb128 0x19
ARM GAS  /tmp/ccAE1QPe.s 			page 129


 4163 01c0 49       		.uleb128 0x49
 4164 01c1 13       		.uleb128 0x13
 4165 01c2 11       		.uleb128 0x11
 4166 01c3 01       		.uleb128 0x1
 4167 01c4 12       		.uleb128 0x12
 4168 01c5 06       		.uleb128 0x6
 4169 01c6 40       		.uleb128 0x40
 4170 01c7 18       		.uleb128 0x18
 4171 01c8 9642     		.uleb128 0x2116
 4172 01ca 19       		.uleb128 0x19
 4173 01cb 01       		.uleb128 0x1
 4174 01cc 13       		.uleb128 0x13
 4175 01cd 00       		.byte	0
 4176 01ce 00       		.byte	0
 4177 01cf 22       		.uleb128 0x22
 4178 01d0 05       		.uleb128 0x5
 4179 01d1 00       		.byte	0
 4180 01d2 03       		.uleb128 0x3
 4181 01d3 0E       		.uleb128 0xe
 4182 01d4 3A       		.uleb128 0x3a
 4183 01d5 0B       		.uleb128 0xb
 4184 01d6 3B       		.uleb128 0x3b
 4185 01d7 05       		.uleb128 0x5
 4186 01d8 49       		.uleb128 0x49
 4187 01d9 13       		.uleb128 0x13
 4188 01da 02       		.uleb128 0x2
 4189 01db 18       		.uleb128 0x18
 4190 01dc 00       		.byte	0
 4191 01dd 00       		.byte	0
 4192 01de 23       		.uleb128 0x23
 4193 01df 34       		.uleb128 0x34
 4194 01e0 00       		.byte	0
 4195 01e1 03       		.uleb128 0x3
 4196 01e2 0E       		.uleb128 0xe
 4197 01e3 49       		.uleb128 0x49
 4198 01e4 13       		.uleb128 0x13
 4199 01e5 34       		.uleb128 0x34
 4200 01e6 19       		.uleb128 0x19
 4201 01e7 00       		.byte	0
 4202 01e8 00       		.byte	0
 4203 01e9 24       		.uleb128 0x24
 4204 01ea 34       		.uleb128 0x34
 4205 01eb 00       		.byte	0
 4206 01ec 03       		.uleb128 0x3
 4207 01ed 0E       		.uleb128 0xe
 4208 01ee 3A       		.uleb128 0x3a
 4209 01ef 0B       		.uleb128 0xb
 4210 01f0 3B       		.uleb128 0x3b
 4211 01f1 05       		.uleb128 0x5
 4212 01f2 49       		.uleb128 0x49
 4213 01f3 13       		.uleb128 0x13
 4214 01f4 3F       		.uleb128 0x3f
 4215 01f5 19       		.uleb128 0x19
 4216 01f6 3C       		.uleb128 0x3c
 4217 01f7 19       		.uleb128 0x19
 4218 01f8 00       		.byte	0
 4219 01f9 00       		.byte	0
ARM GAS  /tmp/ccAE1QPe.s 			page 130


 4220 01fa 25       		.uleb128 0x25
 4221 01fb 34       		.uleb128 0x34
 4222 01fc 00       		.byte	0
 4223 01fd 03       		.uleb128 0x3
 4224 01fe 08       		.uleb128 0x8
 4225 01ff 3A       		.uleb128 0x3a
 4226 0200 0B       		.uleb128 0xb
 4227 0201 3B       		.uleb128 0x3b
 4228 0202 05       		.uleb128 0x5
 4229 0203 49       		.uleb128 0x49
 4230 0204 13       		.uleb128 0x13
 4231 0205 3F       		.uleb128 0x3f
 4232 0206 19       		.uleb128 0x19
 4233 0207 3C       		.uleb128 0x3c
 4234 0208 19       		.uleb128 0x19
 4235 0209 00       		.byte	0
 4236 020a 00       		.byte	0
 4237 020b 26       		.uleb128 0x26
 4238 020c 34       		.uleb128 0x34
 4239 020d 00       		.byte	0
 4240 020e 03       		.uleb128 0x3
 4241 020f 0E       		.uleb128 0xe
 4242 0210 3A       		.uleb128 0x3a
 4243 0211 0B       		.uleb128 0xb
 4244 0212 3B       		.uleb128 0x3b
 4245 0213 0B       		.uleb128 0xb
 4246 0214 49       		.uleb128 0x49
 4247 0215 13       		.uleb128 0x13
 4248 0216 3F       		.uleb128 0x3f
 4249 0217 19       		.uleb128 0x19
 4250 0218 02       		.uleb128 0x2
 4251 0219 18       		.uleb128 0x18
 4252 021a 00       		.byte	0
 4253 021b 00       		.byte	0
 4254 021c 00       		.byte	0
 4255              		.section	.debug_aranges,"",%progbits
 4256 0000 8C000000 		.4byte	0x8c
 4257 0004 0200     		.2byte	0x2
 4258 0006 00000000 		.4byte	.Ldebug_info0
 4259 000a 04       		.byte	0x4
 4260 000b 00       		.byte	0
 4261 000c 0000     		.2byte	0
 4262 000e 0000     		.2byte	0
 4263 0010 00000000 		.4byte	.LFB272
 4264 0014 64000000 		.4byte	.LFE272-.LFB272
 4265 0018 00000000 		.4byte	.LFB273
 4266 001c 64000000 		.4byte	.LFE273-.LFB273
 4267 0020 00000000 		.4byte	.LFB274
 4268 0024 64000000 		.4byte	.LFE274-.LFB274
 4269 0028 00000000 		.4byte	.LFB275
 4270 002c 64000000 		.4byte	.LFE275-.LFB275
 4271 0030 00000000 		.4byte	.LFB276
 4272 0034 64000000 		.4byte	.LFE276-.LFB276
 4273 0038 00000000 		.4byte	.LFB277
 4274 003c 64000000 		.4byte	.LFE277-.LFB277
 4275 0040 00000000 		.4byte	.LFB278
 4276 0044 64000000 		.4byte	.LFE278-.LFB278
ARM GAS  /tmp/ccAE1QPe.s 			page 131


 4277 0048 00000000 		.4byte	.LFB279
 4278 004c 64000000 		.4byte	.LFE279-.LFB279
 4279 0050 00000000 		.4byte	.LFB280
 4280 0054 64000000 		.4byte	.LFE280-.LFB280
 4281 0058 00000000 		.4byte	.LFB281
 4282 005c 64000000 		.4byte	.LFE281-.LFB281
 4283 0060 00000000 		.4byte	.LFB282
 4284 0064 64000000 		.4byte	.LFE282-.LFB282
 4285 0068 00000000 		.4byte	.LFB283
 4286 006c 64000000 		.4byte	.LFE283-.LFB283
 4287 0070 00000000 		.4byte	.LFB284
 4288 0074 60000000 		.4byte	.LFE284-.LFB284
 4289 0078 00000000 		.4byte	.LFB285
 4290 007c E0000000 		.4byte	.LFE285-.LFB285
 4291 0080 00000000 		.4byte	.LFB286
 4292 0084 94000000 		.4byte	.LFE286-.LFB286
 4293 0088 00000000 		.4byte	0
 4294 008c 00000000 		.4byte	0
 4295              		.section	.debug_ranges,"",%progbits
 4296              	.Ldebug_ranges0:
 4297 0000 00000000 		.4byte	.LFB272
 4298 0004 64000000 		.4byte	.LFE272
 4299 0008 00000000 		.4byte	.LFB273
 4300 000c 64000000 		.4byte	.LFE273
 4301 0010 00000000 		.4byte	.LFB274
 4302 0014 64000000 		.4byte	.LFE274
 4303 0018 00000000 		.4byte	.LFB275
 4304 001c 64000000 		.4byte	.LFE275
 4305 0020 00000000 		.4byte	.LFB276
 4306 0024 64000000 		.4byte	.LFE276
 4307 0028 00000000 		.4byte	.LFB277
 4308 002c 64000000 		.4byte	.LFE277
 4309 0030 00000000 		.4byte	.LFB278
 4310 0034 64000000 		.4byte	.LFE278
 4311 0038 00000000 		.4byte	.LFB279
 4312 003c 64000000 		.4byte	.LFE279
 4313 0040 00000000 		.4byte	.LFB280
 4314 0044 64000000 		.4byte	.LFE280
 4315 0048 00000000 		.4byte	.LFB281
 4316 004c 64000000 		.4byte	.LFE281
 4317 0050 00000000 		.4byte	.LFB282
 4318 0054 64000000 		.4byte	.LFE282
 4319 0058 00000000 		.4byte	.LFB283
 4320 005c 64000000 		.4byte	.LFE283
 4321 0060 00000000 		.4byte	.LFB284
 4322 0064 60000000 		.4byte	.LFE284
 4323 0068 00000000 		.4byte	.LFB285
 4324 006c E0000000 		.4byte	.LFE285
 4325 0070 00000000 		.4byte	.LFB286
 4326 0074 94000000 		.4byte	.LFE286
 4327 0078 00000000 		.4byte	0
 4328 007c 00000000 		.4byte	0
 4329              		.section	.debug_line,"",%progbits
 4330              	.Ldebug_line0:
 4331 0000 BC040000 		.section	.debug_str,"MS",%progbits,1
 4331      02000503 
 4331      00000201 
ARM GAS  /tmp/ccAE1QPe.s 			page 132


 4331      FB0E0D00 
 4331      01010101 
 4332              	.LASF130:
 4333 0000 646D615F 		.ascii	"dma_isr_redir_t\000"
 4333      6973725F 
 4333      72656469 
 4333      725F7400 
 4334              	.LASF51:
 4335 0010 72656164 		.ascii	"ready_list_t\000"
 4335      795F6C69 
 4335      73745F74 
 4335      00
 4336              	.LASF2:
 4337 001d 73697A65 		.ascii	"size_t\000"
 4337      5F7400
 4338              	.LASF103:
 4339 0024 7264796D 		.ascii	"rdymsg\000"
 4339      736700
 4340              	.LASF17:
 4341 002b 75696E74 		.ascii	"uint64_t\000"
 4341      36345F74 
 4341      00
 4342              	.LASF3:
 4343 0034 5F5F7569 		.ascii	"__uint8_t\000"
 4343      6E74385F 
 4343      7400
 4344              	.LASF100:
 4345 003e 706F7274 		.ascii	"port_intctx\000"
 4345      5F696E74 
 4345      63747800 
 4346              	.LASF70:
 4347 004a 73797374 		.ascii	"system_debug_t\000"
 4347      656D5F64 
 4347      65627567 
 4347      5F7400
 4348              	.LASF144:
 4349 0059 56656374 		.ascii	"Vector130\000"
 4349      6F723133 
 4349      3000
 4350              	.LASF13:
 4351 0063 6C6F6E67 		.ascii	"long long unsigned int\000"
 4351      206C6F6E 
 4351      6720756E 
 4351      7369676E 
 4351      65642069 
 4352              	.LASF104:
 4353 007a 65786974 		.ascii	"exitcode\000"
 4353      636F6465 
 4353      00
 4354              	.LASF125:
 4355 0083 76656374 		.ascii	"vector\000"
 4355      6F7200
 4356              	.LASF155:
 4357 008a 5F73746D 		.ascii	"_stm32_dma_streams\000"
 4357      33325F64 
 4357      6D615F73 
 4357      74726561 
ARM GAS  /tmp/ccAE1QPe.s 			page 133


 4357      6D7300
 4358              	.LASF107:
 4359 009d 73656E74 		.ascii	"sentmsg\000"
 4359      6D736700 
 4360              	.LASF67:
 4361 00a5 76697274 		.ascii	"virtual_timers_list_t\000"
 4361      75616C5F 
 4361      74696D65 
 4361      72735F6C 
 4361      6973745F 
 4362              	.LASF154:
 4363 00bb 49544D5F 		.ascii	"ITM_RxBuffer\000"
 4363      52784275 
 4363      66666572 
 4363      00
 4364              	.LASF50:
 4365 00c8 63685F74 		.ascii	"ch_threads_queue\000"
 4365      68726561 
 4365      64735F71 
 4365      75657565 
 4365      00
 4366              	.LASF30:
 4367 00d9 705F7072 		.ascii	"p_prio\000"
 4367      696F00
 4368              	.LASF11:
 4369 00e0 6C6F6E67 		.ascii	"long long int\000"
 4369      206C6F6E 
 4369      6720696E 
 4369      7400
 4370              	.LASF1:
 4371 00ee 7369676E 		.ascii	"signed char\000"
 4371      65642063 
 4371      68617200 
 4372              	.LASF10:
 4373 00fa 6C6F6E67 		.ascii	"long unsigned int\000"
 4373      20756E73 
 4373      69676E65 
 4373      6420696E 
 4373      7400
 4374              	.LASF44:
 4375 010c 705F6D70 		.ascii	"p_mpool\000"
 4375      6F6F6C00 
 4376              	.LASF115:
 4377 0114 6D5F7175 		.ascii	"m_queue\000"
 4377      65756500 
 4378              	.LASF88:
 4379 011c 41504231 		.ascii	"APB1RSTR\000"
 4379      52535452 
 4379      00
 4380              	.LASF76:
 4381 0125 76746C69 		.ascii	"vtlist\000"
 4381      737400
 4382              	.LASF146:
 4383 012c 646D6173 		.ascii	"dmastp\000"
 4383      747000
 4384              	.LASF122:
 4385 0133 6373656C 		.ascii	"cselr\000"
ARM GAS  /tmp/ccAE1QPe.s 			page 134


 4385      7200
 4386              	.LASF106:
 4387 0139 77747472 		.ascii	"wttrp\000"
 4387      7000
 4388              	.LASF74:
 4389 013f 63685F73 		.ascii	"ch_system\000"
 4389      79737465 
 4389      6D00
 4390              	.LASF8:
 4391 0149 6C6F6E67 		.ascii	"long int\000"
 4391      20696E74 
 4391      00
 4392              	.LASF87:
 4393 0152 41504232 		.ascii	"APB2RSTR\000"
 4393      52535452 
 4393      00
 4394              	.LASF20:
 4395 015b 74737461 		.ascii	"tstate_t\000"
 4395      74655F74 
 4395      00
 4396              	.LASF148:
 4397 0164 66756E63 		.ascii	"func\000"
 4397      00
 4398              	.LASF32:
 4399 0169 705F6E65 		.ascii	"p_newer\000"
 4399      77657200 
 4400              	.LASF123:
 4401 0171 73686966 		.ascii	"shift\000"
 4401      7400
 4402              	.LASF112:
 4403 0177 735F7175 		.ascii	"s_queue\000"
 4403      65756500 
 4404              	.LASF129:
 4405 017f 646D615F 		.ascii	"dma_param\000"
 4405      70617261 
 4405      6D00
 4406              	.LASF56:
 4407 0189 725F6E65 		.ascii	"r_newer\000"
 4407      77657200 
 4408              	.LASF97:
 4409 0191 72656761 		.ascii	"regarm_t\000"
 4409      726D5F74 
 4409      00
 4410              	.LASF63:
 4411 019a 76745F70 		.ascii	"vt_prev\000"
 4411      72657600 
 4412              	.LASF119:
 4413 01a2 6D757465 		.ascii	"mutex_t\000"
 4413      785F7400 
 4414              	.LASF78:
 4415 01aa 69646C65 		.ascii	"idle_thread_wa\000"
 4415      5F746872 
 4415      6561645F 
 4415      776100
 4416              	.LASF85:
 4417 01b9 444D415F 		.ascii	"DMA_TypeDef\000"
 4417      54797065 
ARM GAS  /tmp/ccAE1QPe.s 			page 135


 4417      44656600 
 4418              	.LASF25:
 4419 01c5 636E745F 		.ascii	"cnt_t\000"
 4419      7400
 4420              	.LASF157:
 4421 01cb 474E5520 		.ascii	"GNU C 4.8.4 20140526 (release) [ARM/embedded-4_8-br"
 4421      4320342E 
 4421      382E3420 
 4421      32303134 
 4421      30353236 
 4422 01fe 616E6368 		.ascii	"anch revision 211358] -mcpu=cortex-m4 -mno-thumb-in"
 4422      20726576 
 4422      6973696F 
 4422      6E203231 
 4422      31333538 
 4423 0231 74657277 		.ascii	"terwork -mthumb -ggdb -O0 -fomit-frame-pointer -fal"
 4423      6F726B20 
 4423      2D6D7468 
 4423      756D6220 
 4423      2D676764 
 4424 0264 69676E2D 		.ascii	"ign-functions=16 -ffunction-sections -fdata-section"
 4424      66756E63 
 4424      74696F6E 
 4424      733D3136 
 4424      202D6666 
 4425 0297 73202D66 		.ascii	"s -fno-common -flto\000"
 4425      6E6F2D63 
 4425      6F6D6D6F 
 4425      6E202D66 
 4425      6C746F00 
 4426              	.LASF0:
 4427 02ab 756E7369 		.ascii	"unsigned int\000"
 4427      676E6564 
 4427      20696E74 
 4427      00
 4428              	.LASF62:
 4429 02b8 76745F6E 		.ascii	"vt_next\000"
 4429      65787400 
 4430              	.LASF108:
 4431 02c0 77747365 		.ascii	"wtsemp\000"
 4431      6D7000
 4432              	.LASF81:
 4433 02c7 43504152 		.ascii	"CPAR\000"
 4433      00
 4434              	.LASF151:
 4435 02cc 5F5F6675 		.ascii	"__func__.7150\000"
 4435      6E635F5F 
 4435      2E373135 
 4435      3000
 4436              	.LASF127:
 4437 02da 73746D33 		.ascii	"stm32_dmaisr_t\000"
 4437      325F646D 
 4437      61697372 
 4437      5F7400
 4438              	.LASF40:
 4439 02e9 705F6D73 		.ascii	"p_msgqueue\000"
 4439      67717565 
ARM GAS  /tmp/ccAE1QPe.s 			page 136


 4439      756500
 4440              	.LASF152:
 4441 02f4 5F5F6675 		.ascii	"__func__.7154\000"
 4441      6E635F5F 
 4441      2E373135 
 4441      3400
 4442              	.LASF96:
 4443 0302 5243435F 		.ascii	"RCC_TypeDef\000"
 4443      54797065 
 4443      44656600 
 4444              	.LASF83:
 4445 030e 444D415F 		.ascii	"DMA_Channel_TypeDef\000"
 4445      4368616E 
 4445      6E656C5F 
 4445      54797065 
 4445      44656600 
 4446              	.LASF136:
 4447 0322 56656374 		.ascii	"Vector78\000"
 4447      6F723738 
 4447      00
 4448              	.LASF113:
 4449 032b 735F636E 		.ascii	"s_cnt\000"
 4449      7400
 4450              	.LASF6:
 4451 0331 73686F72 		.ascii	"short unsigned int\000"
 4451      7420756E 
 4451      7369676E 
 4451      65642069 
 4451      6E7400
 4452              	.LASF47:
 4453 0344 63685F74 		.ascii	"ch_thread\000"
 4453      68726561 
 4453      6400
 4454              	.LASF77:
 4455 034e 6D61696E 		.ascii	"mainthread\000"
 4455      74687265 
 4455      616400
 4456              	.LASF23:
 4457 0359 6D73675F 		.ascii	"msg_t\000"
 4457      7400
 4458              	.LASF73:
 4459 035f 63685F73 		.ascii	"ch_system_t\000"
 4459      79737465 
 4459      6D5F7400 
 4460              	.LASF147:
 4461 036b 7072696F 		.ascii	"priority\000"
 4461      72697479 
 4461      00
 4462              	.LASF158:
 4463 0374 2E2E2F43 		.ascii	"../ChibiOS/os/hal/ports/STM32/LLD/DMAv1/stm32_dma.c"
 4463      68696269 
 4463      4F532F6F 
 4463      732F6861 
 4463      6C2F706F 
 4464 03a7 00       		.ascii	"\000"
 4465              	.LASF19:
 4466 03a8 746D6F64 		.ascii	"tmode_t\000"
ARM GAS  /tmp/ccAE1QPe.s 			page 137


 4466      655F7400 
 4467              	.LASF52:
 4468 03b0 63685F72 		.ascii	"ch_ready_list\000"
 4468      65616479 
 4468      5F6C6973 
 4468      7400
 4469              	.LASF24:
 4470 03be 6576656E 		.ascii	"eventmask_t\000"
 4470      746D6173 
 4470      6B5F7400 
 4471              	.LASF7:
 4472 03ca 5F5F696E 		.ascii	"__int32_t\000"
 4472      7433325F 
 4472      7400
 4473              	.LASF82:
 4474 03d4 434D4152 		.ascii	"CMAR\000"
 4474      00
 4475              	.LASF98:
 4476 03d9 73746B61 		.ascii	"stkalign_t\000"
 4476      6C69676E 
 4476      5F7400
 4477              	.LASF46:
 4478 03e4 74687265 		.ascii	"threads_list_t\000"
 4478      6164735F 
 4478      6C697374 
 4478      5F7400
 4479              	.LASF121:
 4480 03f3 636D6173 		.ascii	"cmask\000"
 4480      6B00
 4481              	.LASF39:
 4482 03f9 705F7761 		.ascii	"p_waiting\000"
 4482      6974696E 
 4482      6700
 4483              	.LASF79:
 4484 0403 73697A65 		.ascii	"sizetype\000"
 4484      74797065 
 4484      00
 4485              	.LASF45:
 4486 040c 74687265 		.ascii	"thread_reference_t\000"
 4486      61645F72 
 4486      65666572 
 4486      656E6365 
 4486      5F7400
 4487              	.LASF68:
 4488 041f 63685F76 		.ascii	"ch_virtual_timers_list\000"
 4488      69727475 
 4488      616C5F74 
 4488      696D6572 
 4488      735F6C69 
 4489              	.LASF28:
 4490 0436 705F6E65 		.ascii	"p_next\000"
 4490      787400
 4491              	.LASF149:
 4492 043d 70617261 		.ascii	"param\000"
 4492      6D00
 4493              	.LASF69:
 4494 0443 76745F6C 		.ascii	"vt_lasttime\000"
ARM GAS  /tmp/ccAE1QPe.s 			page 138


 4494      61737474 
 4494      696D6500 
 4495              	.LASF33:
 4496 044f 705F6F6C 		.ascii	"p_older\000"
 4496      64657200 
 4497              	.LASF55:
 4498 0457 725F6374 		.ascii	"r_ctx\000"
 4498      7800
 4499              	.LASF128:
 4500 045d 646D615F 		.ascii	"dma_func\000"
 4500      66756E63 
 4500      00
 4501              	.LASF102:
 4502 0466 746D5F63 		.ascii	"tm_calibration_t\000"
 4502      616C6962 
 4502      72617469 
 4502      6F6E5F74 
 4502      00
 4503              	.LASF93:
 4504 0477 41484252 		.ascii	"AHBRSTR\000"
 4504      53545200 
 4505              	.LASF58:
 4506 047f 725F6375 		.ascii	"r_current\000"
 4506      7272656E 
 4506      7400
 4507              	.LASF57:
 4508 0489 725F6F6C 		.ascii	"r_older\000"
 4508      64657200 
 4509              	.LASF12:
 4510 0491 5F5F7569 		.ascii	"__uint64_t\000"
 4510      6E743634 
 4510      5F7400
 4511              	.LASF21:
 4512 049c 74726566 		.ascii	"trefs_t\000"
 4512      735F7400 
 4513              	.LASF60:
 4514 04a4 76697274 		.ascii	"virtual_timer_t\000"
 4514      75616C5F 
 4514      74696D65 
 4514      725F7400 
 4515              	.LASF29:
 4516 04b4 705F7072 		.ascii	"p_prev\000"
 4516      657600
 4517              	.LASF126:
 4518 04bb 73746D33 		.ascii	"stm32_dma_stream_t\000"
 4518      325F646D 
 4518      615F7374 
 4518      7265616D 
 4518      5F7400
 4519              	.LASF22:
 4520 04ce 74707269 		.ascii	"tprio_t\000"
 4520      6F5F7400 
 4521              	.LASF133:
 4522 04d6 56656374 		.ascii	"Vector6C\000"
 4522      6F723643 
 4522      00
 4523              	.LASF71:
ARM GAS  /tmp/ccAE1QPe.s 			page 139


 4524 04df 63685F73 		.ascii	"ch_system_debug\000"
 4524      79737465 
 4524      6D5F6465 
 4524      62756700 
 4525              	.LASF131:
 4526 04ef 5F426F6F 		.ascii	"_Bool\000"
 4526      6C00
 4527              	.LASF15:
 4528 04f5 696E7433 		.ascii	"int32_t\000"
 4528      325F7400 
 4529              	.LASF4:
 4530 04fd 756E7369 		.ascii	"unsigned char\000"
 4530      676E6564 
 4530      20636861 
 4530      7200
 4531              	.LASF156:
 4532 050b 5F73746D 		.ascii	"_stm32_dma_isr_redir\000"
 4532      33325F64 
 4532      6D615F69 
 4532      73725F72 
 4532      65646972 
 4533              	.LASF42:
 4534 0520 705F6D74 		.ascii	"p_mtxlist\000"
 4534      786C6973 
 4534      7400
 4535              	.LASF5:
 4536 052a 73686F72 		.ascii	"short int\000"
 4536      7420696E 
 4536      7400
 4537              	.LASF36:
 4538 0534 705F7374 		.ascii	"p_state\000"
 4538      61746500 
 4539              	.LASF54:
 4540 053c 725F7072 		.ascii	"r_prio\000"
 4540      696F00
 4541              	.LASF110:
 4542 0543 65776D61 		.ascii	"ewmask\000"
 4542      736B00
 4543              	.LASF37:
 4544 054a 705F666C 		.ascii	"p_flags\000"
 4544      61677300 
 4545              	.LASF90:
 4546 0552 41504232 		.ascii	"APB2ENR\000"
 4546      454E5200 
 4547              	.LASF120:
 4548 055a 6368616E 		.ascii	"channel\000"
 4548      6E656C00 
 4549              	.LASF61:
 4550 0562 63685F76 		.ascii	"ch_virtual_timer\000"
 4550      69727475 
 4550      616C5F74 
 4550      696D6572 
 4550      00
 4551              	.LASF111:
 4552 0573 63685F73 		.ascii	"ch_semaphore\000"
 4552      656D6170 
 4552      686F7265 
ARM GAS  /tmp/ccAE1QPe.s 			page 140


 4552      00
 4553              	.LASF41:
 4554 0580 705F6570 		.ascii	"p_epending\000"
 4554      656E6469 
 4554      6E6700
 4555              	.LASF134:
 4556 058b 56656374 		.ascii	"Vector70\000"
 4556      6F723730 
 4556      00
 4557              	.LASF135:
 4558 0594 56656374 		.ascii	"Vector74\000"
 4558      6F723734 
 4558      00
 4559              	.LASF109:
 4560 059d 77746D74 		.ascii	"wtmtxp\000"
 4560      787000
 4561              	.LASF53:
 4562 05a4 725F7175 		.ascii	"r_queue\000"
 4562      65756500 
 4563              	.LASF64:
 4564 05ac 76745F64 		.ascii	"vt_delta\000"
 4564      656C7461 
 4564      00
 4565              	.LASF48:
 4566 05b5 63685F74 		.ascii	"ch_threads_list\000"
 4566      68726561 
 4566      64735F6C 
 4566      69737400 
 4567              	.LASF159:
 4568 05c5 2F6E6673 		.ascii	"/nfs/nfs4/home/irbrown/Courses/P442/P442WifiTrailCo"
 4568      2F6E6673 
 4568      342F686F 
 4568      6D652F69 
 4568      7262726F 
 4569 05f8 756E7465 		.ascii	"unterProject/milestone3\000"
 4569      7250726F 
 4569      6A656374 
 4569      2F6D696C 
 4569      6573746F 
 4570              	.LASF145:
 4571 0610 646D6149 		.ascii	"dmaInit\000"
 4571      6E697400 
 4572              	.LASF84:
 4573 0618 49464352 		.ascii	"IFCR\000"
 4573      00
 4574              	.LASF118:
 4575 061d 63686172 		.ascii	"char\000"
 4575      00
 4576              	.LASF150:
 4577 0622 646D6153 		.ascii	"dmaStreamRelease\000"
 4577      74726561 
 4577      6D52656C 
 4577      65617365 
 4577      00
 4578              	.LASF137:
 4579 0633 56656374 		.ascii	"Vector7C\000"
 4579      6F723743 
ARM GAS  /tmp/ccAE1QPe.s 			page 141


 4579      00
 4580              	.LASF27:
 4581 063c 74687265 		.ascii	"thread_t\000"
 4581      61645F74 
 4581      00
 4582              	.LASF117:
 4583 0645 6D5F6E65 		.ascii	"m_next\000"
 4583      787400
 4584              	.LASF26:
 4585 064c 73797374 		.ascii	"systime_t\000"
 4585      696D655F 
 4585      7400
 4586              	.LASF43:
 4587 0656 705F7265 		.ascii	"p_realprio\000"
 4587      616C7072 
 4587      696F00
 4588              	.LASF59:
 4589 0661 76746675 		.ascii	"vtfunc_t\000"
 4589      6E635F74 
 4589      00
 4590              	.LASF9:
 4591 066a 5F5F7569 		.ascii	"__uint32_t\000"
 4591      6E743332 
 4591      5F7400
 4592              	.LASF35:
 4593 0675 705F7374 		.ascii	"p_stklimit\000"
 4593      6B6C696D 
 4593      697400
 4594              	.LASF72:
 4595 0680 70616E69 		.ascii	"panic_msg\000"
 4595      635F6D73 
 4595      6700
 4596              	.LASF101:
 4597 068a 6F666673 		.ascii	"offset\000"
 4597      657400
 4598              	.LASF91:
 4599 0691 41504231 		.ascii	"APB1ENR\000"
 4599      454E5200 
 4600              	.LASF99:
 4601 0699 636F6E74 		.ascii	"context\000"
 4601      65787400 
 4602              	.LASF153:
 4603 06a1 646D615F 		.ascii	"dma_streams_mask\000"
 4603      73747265 
 4603      616D735F 
 4603      6D61736B 
 4603      00
 4604              	.LASF18:
 4605 06b2 7274636E 		.ascii	"rtcnt_t\000"
 4605      745F7400 
 4606              	.LASF124:
 4607 06ba 73656C66 		.ascii	"selfindex\000"
 4607      696E6465 
 4607      7800
 4608              	.LASF66:
 4609 06c4 76745F70 		.ascii	"vt_par\000"
 4609      617200
ARM GAS  /tmp/ccAE1QPe.s 			page 142


 4610              	.LASF138:
 4611 06cb 56656374 		.ascii	"Vector80\000"
 4611      6F723830 
 4611      00
 4612              	.LASF16:
 4613 06d4 75696E74 		.ascii	"uint32_t\000"
 4613      33325F74 
 4613      00
 4614              	.LASF139:
 4615 06dd 56656374 		.ascii	"Vector84\000"
 4615      6F723834 
 4615      00
 4616              	.LASF49:
 4617 06e6 74687265 		.ascii	"threads_queue_t\000"
 4617      6164735F 
 4617      71756575 
 4617      655F7400 
 4618              	.LASF114:
 4619 06f6 63685F6D 		.ascii	"ch_mutex\000"
 4619      75746578 
 4619      00
 4620              	.LASF38:
 4621 06ff 705F7265 		.ascii	"p_refs\000"
 4621      667300
 4622              	.LASF80:
 4623 0706 434E4454 		.ascii	"CNDTR\000"
 4623      5200
 4624              	.LASF92:
 4625 070c 42444352 		.ascii	"BDCR\000"
 4625      00
 4626              	.LASF75:
 4627 0711 726C6973 		.ascii	"rlist\000"
 4627      7400
 4628              	.LASF94:
 4629 0717 43464752 		.ascii	"CFGR2\000"
 4629      3200
 4630              	.LASF95:
 4631 071d 43464752 		.ascii	"CFGR3\000"
 4631      3300
 4632              	.LASF14:
 4633 0723 75696E74 		.ascii	"uint8_t\000"
 4633      385F7400 
 4634              	.LASF132:
 4635 072b 666C6167 		.ascii	"flags\000"
 4635      7300
 4636              	.LASF105:
 4637 0731 77746F62 		.ascii	"wtobjp\000"
 4637      6A7000
 4638              	.LASF34:
 4639 0738 705F6E61 		.ascii	"p_name\000"
 4639      6D6500
 4640              	.LASF140:
 4641 073f 56656374 		.ascii	"Vector120\000"
 4641      6F723132 
 4641      3000
 4642              	.LASF86:
 4643 0749 43464752 		.ascii	"CFGR\000"
ARM GAS  /tmp/ccAE1QPe.s 			page 143


 4643      00
 4644              	.LASF141:
 4645 074e 56656374 		.ascii	"Vector124\000"
 4645      6F723132 
 4645      3400
 4646              	.LASF142:
 4647 0758 56656374 		.ascii	"Vector128\000"
 4647      6F723132 
 4647      3800
 4648              	.LASF143:
 4649 0762 56656374 		.ascii	"Vector12C\000"
 4649      6F723132 
 4649      4300
 4650              	.LASF116:
 4651 076c 6D5F6F77 		.ascii	"m_owner\000"
 4651      6E657200 
 4652              	.LASF160:
 4653 0774 646D6153 		.ascii	"dmaStreamAllocate\000"
 4653      74726561 
 4653      6D416C6C 
 4653      6F636174 
 4653      6500
 4654              	.LASF31:
 4655 0786 705F6374 		.ascii	"p_ctx\000"
 4655      7800
 4656              	.LASF65:
 4657 078c 76745F66 		.ascii	"vt_func\000"
 4657      756E6300 
 4658              	.LASF89:
 4659 0794 41484245 		.ascii	"AHBENR\000"
 4659      4E5200
 4660              		.comm	__gnu_lto_v1,1,1
 4661              		.ident	"GCC: (GNU Tools for ARM Embedded Processors) 4.8.4 20140526 (release) [ARM/embedded-4_8-br
ARM GAS  /tmp/ccAE1QPe.s 			page 144


DEFINED SYMBOLS
                            *ABS*:00000000 stm32_dma.c
     /tmp/ccAE1QPe.s:901    .rodata._stm32_dma_streams:00000000 _stm32_dma_streams
     /tmp/ccAE1QPe.s:898    .rodata._stm32_dma_streams:00000000 $d
     /tmp/ccAE1QPe.s:1003   .bss._stm32_dma_isr_redir:00000000 _stm32_dma_isr_redir
     /tmp/ccAE1QPe.s:1000   .bss._stm32_dma_isr_redir:00000000 $d
     /tmp/ccAE1QPe.s:1006   .bss.dma_streams_mask:00000000 $d
     /tmp/ccAE1QPe.s:1009   .bss.dma_streams_mask:00000000 dma_streams_mask
     /tmp/ccAE1QPe.s:1012   .text.Vector6C:00000000 $t
     /tmp/ccAE1QPe.s:1018   .text.Vector6C:00000000 Vector6C
     /tmp/ccAE1QPe.s:1077   .text.Vector6C:0000005c $d
     /tmp/ccAE1QPe.s:1083   .text.Vector70:00000000 $t
     /tmp/ccAE1QPe.s:1089   .text.Vector70:00000000 Vector70
     /tmp/ccAE1QPe.s:1147   .text.Vector70:0000005c $d
     /tmp/ccAE1QPe.s:1153   .text.Vector74:00000000 $t
     /tmp/ccAE1QPe.s:1159   .text.Vector74:00000000 Vector74
     /tmp/ccAE1QPe.s:1217   .text.Vector74:0000005c $d
     /tmp/ccAE1QPe.s:1223   .text.Vector78:00000000 $t
     /tmp/ccAE1QPe.s:1229   .text.Vector78:00000000 Vector78
     /tmp/ccAE1QPe.s:1287   .text.Vector78:0000005c $d
     /tmp/ccAE1QPe.s:1293   .text.Vector7C:00000000 $t
     /tmp/ccAE1QPe.s:1299   .text.Vector7C:00000000 Vector7C
     /tmp/ccAE1QPe.s:1357   .text.Vector7C:0000005c $d
     /tmp/ccAE1QPe.s:1363   .text.Vector80:00000000 $t
     /tmp/ccAE1QPe.s:1369   .text.Vector80:00000000 Vector80
     /tmp/ccAE1QPe.s:1427   .text.Vector80:0000005c $d
     /tmp/ccAE1QPe.s:1433   .text.Vector84:00000000 $t
     /tmp/ccAE1QPe.s:1439   .text.Vector84:00000000 Vector84
     /tmp/ccAE1QPe.s:1497   .text.Vector84:0000005c $d
     /tmp/ccAE1QPe.s:1503   .text.Vector120:00000000 $t
     /tmp/ccAE1QPe.s:1509   .text.Vector120:00000000 Vector120
     /tmp/ccAE1QPe.s:1567   .text.Vector120:0000005c $d
     /tmp/ccAE1QPe.s:1573   .text.Vector124:00000000 $t
     /tmp/ccAE1QPe.s:1579   .text.Vector124:00000000 Vector124
     /tmp/ccAE1QPe.s:1637   .text.Vector124:0000005c $d
     /tmp/ccAE1QPe.s:1643   .text.Vector128:00000000 $t
     /tmp/ccAE1QPe.s:1649   .text.Vector128:00000000 Vector128
     /tmp/ccAE1QPe.s:1707   .text.Vector128:0000005c $d
     /tmp/ccAE1QPe.s:1713   .text.Vector12C:00000000 $t
     /tmp/ccAE1QPe.s:1719   .text.Vector12C:00000000 Vector12C
     /tmp/ccAE1QPe.s:1777   .text.Vector12C:0000005c $d
     /tmp/ccAE1QPe.s:1783   .text.Vector130:00000000 $t
     /tmp/ccAE1QPe.s:1789   .text.Vector130:00000000 Vector130
     /tmp/ccAE1QPe.s:1847   .text.Vector130:0000005c $d
     /tmp/ccAE1QPe.s:1853   .text.dmaInit:00000000 $t
     /tmp/ccAE1QPe.s:1859   .text.dmaInit:00000000 dmaInit
     /tmp/ccAE1QPe.s:1917   .text.dmaInit:0000004c $d
     /tmp/ccAE1QPe.s:1926   .text.dmaStreamAllocate:00000000 $t
     /tmp/ccAE1QPe.s:1932   .text.dmaStreamAllocate:00000000 dmaStreamAllocate
     /tmp/ccAE1QPe.s:2062   .text.dmaStreamAllocate:000000d4 $d
     /tmp/ccAE1QPe.s:2069   .text.dmaStreamRelease:00000000 $t
     /tmp/ccAE1QPe.s:2075   .text.dmaStreamRelease:00000000 dmaStreamRelease
     /tmp/ccAE1QPe.s:2160   .text.dmaStreamRelease:00000088 $d
                            *COM*:00000001 __gnu_lto_v1
                     .debug_frame:00000010 $d
     /tmp/ccAE1QPe.s:1082   .text.Vector6C:00000064 $t
     /tmp/ccAE1QPe.s:1152   .text.Vector70:00000064 $t
ARM GAS  /tmp/ccAE1QPe.s 			page 145


     /tmp/ccAE1QPe.s:1222   .text.Vector74:00000064 $t
     /tmp/ccAE1QPe.s:1292   .text.Vector78:00000064 $t
     /tmp/ccAE1QPe.s:1362   .text.Vector7C:00000064 $t
     /tmp/ccAE1QPe.s:1432   .text.Vector80:00000064 $t
     /tmp/ccAE1QPe.s:1502   .text.Vector84:00000064 $t
     /tmp/ccAE1QPe.s:1572   .text.Vector120:00000064 $t
     /tmp/ccAE1QPe.s:1642   .text.Vector124:00000064 $t
     /tmp/ccAE1QPe.s:1712   .text.Vector128:00000064 $t
     /tmp/ccAE1QPe.s:1782   .text.Vector12C:00000064 $t
     /tmp/ccAE1QPe.s:1852   .text.Vector130:00000064 $t
     /tmp/ccAE1QPe.s:2166   .text.dmaStreamRelease:00000094 $t

UNDEFINED SYMBOLS
_port_irq_epilogue
nvicEnableVector
nvicDisableVector
