ARM GAS  /tmp/ccXz8m7H.s 			page 1


   1              		.syntax unified
   2              		.cpu cortex-m4
   3              		.fpu softvfp
   4              		.eabi_attribute 20, 1
   5              		.eabi_attribute 21, 1
   6              		.eabi_attribute 23, 3
   7              		.eabi_attribute 24, 1
   8              		.eabi_attribute 25, 1
   9              		.eabi_attribute 26, 1
  10              		.eabi_attribute 30, 6
  11              		.eabi_attribute 34, 1
  12              		.eabi_attribute 18, 4
  13              		.thumb
  14              		.file	"syscalls.c"
  15              		.text
  16              	.Ltext0:
  17              		.section	.gnu.lto_.inline.e00190942f8ad83f,"",%progbits
  18 0000 789C6362 		.ascii	"x\234cb`b\300\006\272\2404;\003\003\0133\003\003\023"
  18      6062C006 
  18      BAA0343B 
  18      03030B33 
  18      030313
  19 0013 CB073D06 		.ascii	"\313\007=\006\026\210ZF\006f \315\304\264@\036&\302"
  19      16885A46 
  19      066620CD 
  19      C4B4401E 
  19      26C2
  20 0025 8421C28C 		.ascii	"\204!\302\214!\302\302\300)\010\024\341\230\340\007"
  20      21C2C2C0 
  20      290814E1 
  20      98E007
  21 0034 57C30324 		.ascii	"W\303\003$X\0318\004P\215g\341\005\022l\030\372\031"
  21      58193804 
  21      508D67E1 
  21      05126C18 
  21      FA19
  22 0046 00475707 		.ascii	"\000GW\007~"
  22      7E
  23              		.text
  24              		.section	.gnu.lto__read_r.e00190942f8ad83f,"",%progbits
  25 0000 789C6362 		.ascii	"x\234cb`b@\007\322 \202\221\201A\031D\26300\002U021"
  25      60624007 
  25      D2208291 
  25      81411944 
  25      B3303002 
  26 0018 32034966 		.ascii	"2\003IfFF\260T=\0233c}$#X\235\022\303\302\206\206\031"
  26      4646B054 
  26      3D133363 
  26      7D242358 
  26      9D12C3C2 
  27 002f 0F96BE9E 		.ascii	"\017\226\276\236!\331\265\240iB\303\277\377\377\031"
  27      21D9B5A0 
  27      6942C3BF 
  27      FFFF19
  28 003e 334152C9 		.ascii	"3AR\311\214\014\021@\026\243\002\230bbA\265d=\323\201"
  28      8C0C1140 
  28      16A30298 
ARM GAS  /tmp/ccXz8m7H.s 			page 2


  28      626241B5 
  28      643DD381 
  29 0052 07FFFFFF 		.ascii	"\007\377\377\377\331\330\362K\012hj.#\320\035`]\014"
  29      D9D8F24B 
  29      0A686A2E 
  29      23D01D60 
  29      5D0C
  30 0064 AC0C2D0D 		.ascii	"\254\014-\015\015\023\024\300\372\201 \004L\206\202"
  30      0D1314C0 
  30      FA812004 
  30      4C8682
  31 0073 1CC17C96 		.ascii	"\034\301|\226\241i\307\214\327\007\230\022\031\0271"
  31      A169C78C 
  31      D7079812 
  31      191731
  32 0082 B2326833 		.ascii	"\2622h3\254j\000\002v\240\266\331\014\263\200V0\247"
  32      AC6A0002 
  32      76A0B6D9 
  32      0CB38056 
  32      30A7
  33 0094 333282AC 		.ascii	"32\202\254\202\330\224\304\010\261\010$\302 \006d\200"
  33      82D894C4 
  33      08B10824 
  33      C2200664 
  33      80
  34 00a5 74AFC886 		.ascii	"t\257\310\206\350Mgd\002\213\377\207\001\306z\210\352"
  34      E84D6764 
  34      028BFF87 
  34      01C67A88 
  34      EA
  35 00b6 50903F99 		.ascii	"P\220?\231O34r00\244\200|{\221\201\021\256\005\242$"
  35      4F333472 
  35      3030A480 
  35      7C7B9181 
  35      11AE05A2 
  36 00cb 04240C62 		.ascii	"\004$\014b+\352\351\351;gd&e\372\007\353\347\027\353"
  36      2BEAE9E9 
  36      3B676426 
  36      65FA07EB 
  36      E717EB
  37 00de 97251665 		.ascii	"\227%\026e\346\227\026\353\027W\026''\346\344\024\353"
  37      E69716EB 
  37      17571627 
  37      27E6E414 
  37      EB
  38 00ef 25330000 		.ascii	"%3\000\000\270?F\363"
  38      B83F46F3 
  39              		.text
  40              		.section	.gnu.lto__lseek_r.e00190942f8ad83f,"",%progbits
  41 0000 789C6362 		.ascii	"x\234cb`b@\007\322@\274\025\210\225A\034\026\006F\240"
  41      60624007 
  41      D240BC15 
  41      8895411C 
  41      160646A0 
  42 0014 0A462646 		.ascii	"\012F&Ff \311\314\310\010\024bd\250gbf\254\217\004\261"
  42      6620C9CC 
  42      C8081462 
ARM GAS  /tmp/ccXz8m7H.s 			page 3


  42      64A86762 
  42      66AC8F04 
  43 0029 19189518 		.ascii	"\031\030\225\030\02664\314xp\364\323\014\311\256\005"
  43      163634CC 
  43      7870F4D3 
  43      0CC9AE05 
  44 0039 4D131AFE 		.ascii	"M\023\032\376\375\377\317\230\011\222Jfd\210\000\262"
  44      FDFFCF98 
  44      09924A66 
  44      648800B2 
  45 0049 1815C014 		.ascii	"\030\025\300\024\023\013\252%\353\231\016<\370\377\377"
  45      130BAA25 
  45      EB990E3C 
  45      F8FFFF
  46 0058 CCF6965B 		.ascii	"\314\366\226[2L\214\014`\015\014\254\014-\015\015\023"
  46      324C8C0C 
  46      600D0CAC 
  46      0C2D0D0D 
  46      13
  47 0069 14C05A81 		.ascii	"\024\300Z\201 \004L\206\202\354g>\313\320\264\343\306"
  47      20044C86 
  47      82EC673E 
  47      CBD0B4E3 
  47      C6
  48 007a 278944C6 		.ascii	"'\211D\306E\214\254\014\351\214\214\021\020;  \024\344"
  48      458CAC0C 
  48      E98C8C11 
  48      103B2020 
  48      14E4
  49 008c 38E6D30C 		.ascii	"8\346\323\014\215\034\014\014) \341\213\014\214p\225"
  49      8D1C0C0C 
  49      2920E18B 
  49      0C8C7095 
  50 009c 10252120 		.ascii	"\020%! \006\310\253\212zz\372\316\031\231I\231\376\301"
  50      06C8AB8A 
  50      7A7AFACE 
  50      19994999 
  50      FEC1
  51 00ae FAF9C5FA 		.ascii	"\372\371\305\372e\211E\231\371\245\305\372\305\225\305"
  51      65894599 
  51      F9A5C5FA 
  51      C595C5
  52 00bd C9893939 		.ascii	"\311\21199\305z\311\014\000-\3341\276"
  52      C57AC90C 
  52      002DDC31 
  52      BE
  53              		.text
  54              		.section	.gnu.lto__write_r.e00190942f8ad83f,"",%progbits
  55 0000 789C6362 		.ascii	"x\234cb`b@\007\322@\274\015\210\225A\034\026\006F\240"
  55      60624007 
  55      D240BC0D 
  55      8895411C 
  55      160646A0 
  56 0014 0A462646 		.ascii	"\012F&Ff \311\314\310\010\024bd\250gbf\254\217\004\261"
  56      6620C9CC 
  56      C8081462 
  56      64A86762 
ARM GAS  /tmp/ccXz8m7H.s 			page 4


  56      66AC8F04 
  57 0029 19189518 		.ascii	"\031\030\225\030\02664\314x\360\364\327\014\311\256"
  57      163634CC 
  57      78F0F4D7 
  57      0CC9AE
  58 0038 054D131A 		.ascii	"\005M\023\032\376\375\377\317\230\011\222Jfd\210\000"
  58      FEFDFFCF 
  58      9809924A 
  58      66648800 
  59 0048 B21815C0 		.ascii	"\262\030\025\300\024\023\013\252%\353\231\016<\370\377"
  59      14130BAA 
  59      25EB990E 
  59      3CF8FF
  60 0057 BF6777CB 		.ascii	"\277gw\313#9\240\251\271\214@w\200u1\2602\26444LP\000"
  60      2339A0A9 
  60      B98C4077 
  60      807531B0 
  60      32B43434 
  61 006e EB078210 		.ascii	"\353\007\202\0200\031\012r\004\363Y\206\246\323?~I$"
  61      30190A72 
  61      04F35986 
  61      A6D33F7E 
  61      4924
  62 0080 322E6264 		.ascii	"2.bdeHgdJ\007;\007,\015t\035\363i\206F\016\006\206\024"
  62      65486764 
  62      4A073B07 
  62      2C0D741D 
  62      F3698646 
  63 0098 90E04506 		.ascii	"\220\340E\006F\270*\210\222\020\2200\210\255\250\247"
  63      46B82A88 
  63      92109030 
  63      88ADA8A7 
  64 00a8 A7EF9C91 		.ascii	"\247\357\234\221\231\224\351\037\254\237_\254_\226X"
  64      9994E91F 
  64      AC9F5FAC 
  64      5F9658
  65 00b7 94995F5A 		.ascii	"\224\231_Z\254_\\Y\234\234\230\223S\254\227\314\000"
  65      AC5F5C59 
  65      9C9C9893 
  65      53AC97CC 
  65      00
  66 00c8 005A2E32 		.ascii	"\000Z.2\013"
  66      0B
  67              		.text
  68              		.section	.gnu.lto__close_r.e00190942f8ad83f,"",%progbits
  69 0000 789C6362 		.ascii	"x\234cb`b@\007\322@\274\025\210\225A\034\026\006F\240"
  69      60624007 
  69      D240BC15 
  69      8895411C 
  69      160646A0 
  70 0014 0A462646 		.ascii	"\012F&Ff \311\314\310\010\024bd\250gbf\254\217\004\261"
  70      6620C9CC 
  70      C8081462 
  70      64A86762 
  70      66AC8F04 
  71 0029 19189518 		.ascii	"\031\030\225\030\02664\314x\260\364\377\014\311\256"
  71      163634CC 
ARM GAS  /tmp/ccXz8m7H.s 			page 5


  71      78B0F4FF 
  71      0CC9AE
  72 0038 054D131A 		.ascii	"\005M\023\032\376\375\377\317\230\011\222Jfd\210\000"
  72      FEFDFFCF 
  72      9809924A 
  72      66648800 
  73 0048 B21815C0 		.ascii	"\262\030\025\300\024\023\013\252%\353\231\016<\370\377"
  73      14130BAA 
  73      25EB990E 
  73      3CF8FF
  74 0057 7FCEFE96 		.ascii	"\177\316\376\226O\362L\214\014`\015\014\254\014-\015"
  74      4FF24C8C 
  74      0C600D0C 
  74      AC0C2D0D 
  75 0067 0D1314C0 		.ascii	"\015\023\024\300Z\201 \004L\206\202\354g>\313\320\264"
  75      5A812004 
  75      4C8682EC 
  75      673ECBD0 
  75      B4
  76 0078 63C77F89 		.ascii	"c\307\177\211D\306E\214\254\014\351\214\214\021\020"
  76      44C6458C 
  76      AC0CE98C 
  76      8C1110
  77 0087 3B202014 		.ascii	";  \024\3448\346\323\014\215\034\014\014) \341\213\014"
  77      E438E6D3 
  77      0C8D1C0C 
  77      0C2920E1 
  77      8B0C
  78 0099 8C709510 		.ascii	"\214p\225\020%! \006\310\253\212zz\372\316\031\231I"
  78      25212006 
  78      C8AB8A7A 
  78      7AFACE19 
  78      9949
  79 00ab 99FEC1FA 		.ascii	"\231\376\301\372\371\305\372e\211E\231\371\245\305\372"
  79      F9C5FA65 
  79      894599F9 
  79      A5C5FA
  80 00ba C595C5C9 		.ascii	"\305\225\305\311\21199\305z\311\014\000\017?1\213"
  80      893939C5 
  80      7AC90C00 
  80      0F3F318B 
  81              		.text
  82              		.section	.gnu.lto__sbrk_r.e00190942f8ad83f,"",%progbits
  83 0000 789C8D52 		.ascii	"x\234\215R\277K[Q\024>\347\376x/R!\035\\\262\2518%%"
  83      BF4B5B51 
  83      143EE7FE 
  83      782F5221 
  83      1D5CB2A9 
  84 0017 71EA3FE0 		.ascii	"q\352?\340\037\320A\003:\306'</$\265\370hA\034\274\261"
  84      1FD04103 
  84      3AC6273C 
  84      2F24B5F8 
  84      68411CBC 
  85 002c 19A47490 		.ascii	"\031\244t\220\340\242Y\014X\205.N\202\202\303\023\034"
  85      E0A2590C 
  85      58852E4E 
  85      8282C313 
ARM GAS  /tmp/ccXz8m7H.s 			page 6


  85      1C
  86 003d 345A4AC8 		.ascii	"4ZJ\310\322n\322\305\245\224\216\245\210\317s\356k\244"
  86      D26ED2C5 
  86      A5948EA5 
  86      88CF73EE 
  86      6BA4
  87 004f EDA207DE 		.ascii	"\355\242\007\336\271\367\374\370\356w\316\307\023 \340"
  87      B9F7FCF8 
  87      EE77CEC7 
  87      1320E0
  88 005e 7F7BCE1F 		.ascii	"\177{\316\037\245\237q\340\003\322\025\005J\362R(\000"
  88      A59F71E0 
  88      03D21505 
  88      4AF25228 
  88      00
  89 006f 2B3439A5 		.ascii	"+49\245\320\243\214v\336C\244V\204\025!\225\366pe\206"
  89      D0A38C76 
  89      DE43A456 
  89      84152195 
  89      F6706586 
  90 0083 4350A3D0 		.ascii	"CP\243\320\266\266y\365a\267+67\342\306\266\275I\022"
  90      B6B679F5 
  90      61B72B36 
  90      37E2C6B6 
  90      BD4912
  91 0096 4483C439 		.ascii	"D\203\3049\206\020 LS\200\303\356\340\227\3776\207\335"
  91      8610204C 
  91      5380C3EE 
  91      E097FF36 
  91      87DD
  92 00a8 8A8F3A9D 		.ascii	"\212\217:\2356\332\246\255\377L\222\254\341!\036\001"
  92      36DAA6AD 
  92      FF4C92AC 
  92      E1211E01 
  93 00b8 6BC6ADCE 		.ascii	"k\306\255\316\373\234\335^]\267\267\304hP\011(<DXC\330"
  93      FB9CDD5E 
  93      5DB7B7C4 
  93      68500928 
  93      3C445843 
  94 00cd 17F15592 		.ascii	"\027\361U\222\034w\033\337\362\031\004b\023XC\342\254"
  94      1C771BDF 
  94      F2190462 
  94      135843E2 
  94      AC
  95 00de 601B4741 		.ascii	"`\033GA\321\271C\247\246\244\360\270\354\203\233\010"
  95      D1B943A7 
  95      A6A4F0B8 
  95      EC839B08 
  96 00ee 3434AC5D 		.ascii	"44\254]\037N\3135\336=p\002L\375\361$\240,s\247\374"
  96      1F4ECB35 
  96      DE3D7002 
  96      4CFDF124 
  96      A02C73A7 
  97 0103 04AB3FDE 		.ascii	"\004\253?\336^o\344+\270\213\032B\224!\027?C#\326\375"
  97      5E6FE42B 
  97      B88B1A42 
  97      9421173F 
ARM GAS  /tmp/ccXz8m7H.s 			page 7


  97      4323D6FD 
  98 0117 945A86DF 		.ascii	"\224Z\206\337v\315>5\250\003'+p\237a\235\317\340\364"
  98      76CD3E35 
  98      A803272B 
  98      709F619D 
  98      CFE0F4
  99 012a FAE4E09D 		.ascii	"\372\344\340\235\274o\345=\376Y\243\314!\263\034\376"
  99      BC6FE53D 
  99      FE59A3CC 
  99      21B31CFE 
 100 013a 22D1D3BE 		.ascii	"\"\321\323\276\002|\264dO\014\372-\330\"D&D\315\310"
 100      027CB464 
 100      4F0CFA2D 
 100      D8224426 
 100      44CDC8
 101 014d 0107994D 		.ascii	"\001\007\231M9\234&\376 ]\030\275\266\207}\022\217\013"
 101      399C26FE 
 101      205D18BD 
 101      B6877D12 
 101      8F0B
 102 015f 3221CBDE 		.ascii	"2!\313\336\223\350\224\344\374\313^\256\337\346\207"
 102      93E894E4 
 102      FCCB5EAE 
 102      DFE687
 103 016e FD49CA3C 		.ascii	"\375I\312<\252\274\200z\006`\216\267\356\272k\230.\363"
 103      AABC807A 
 103      06608EB7 
 103      EEBA6B98 
 103      2EF3
 104 0180 1590DE54 		.ascii	"\025\220\336T\227\275!\302\350\357\275A\026\210*\374"
 104      97BD21C2 
 104      E8EFBD41 
 104      16882AFC 
 105 0190 1B8E148B 		.ascii	"\033\216\024\213\245\211y3k^L\226\026\242\322\233\312"
 105      A5897933 
 105      6B5E4C96 
 105      16A2D29B 
 105      CA
 106 01a1 A259781D 		.ascii	"\242Yx\035\225\242\245(\250T\253Q1\000\317\274\014\026"
 106      95A2A528 
 106      A854AB51 
 106      3100CFBC 
 106      0C16
 107 01b3 8BE3F8EA 		.ascii	"\213\343\370\352\016\2439\210R"
 107      0EA33988 
 107      52
 108              		.text
 109              		.section	.gnu.lto__fstat_r.e00190942f8ad83f,"",%progbits
 110 0000 789C6362 		.ascii	"x\234cb`b@\007\322@l\300\310\300\240\014\342\26000\002"
 110      60624007 
 110      D2406CC0 
 110      C8C0A00C 
 110      E2B03030 
 111 0015 55303231 		.ascii	"U0212\003IfF\2400\003#C=\0233c}$\210\315\300\250\304"
 111      32034966 
 111      46A03003 
 111      23433D13 
ARM GAS  /tmp/ccXz8m7H.s 			page 8


 111      33637D24 
 112 002e B0B0A161 		.ascii	"\260\260\241a\306\203\247\353gJv-h\232\320\360\357\377"
 112      C683A7EB 
 112      674A762D 
 112      689AD0F0 
 112      EFFF
 113 0040 7FC64C90 		.ascii	"\177\306L\220T2#C\004\220\305\250\000\246\230XP-Y\317"
 113      54322343 
 113      0490C5A8 
 113      00A69858 
 113      502D59CF 
 114 0054 74E0C1FF 		.ascii	"t\340\301\377\377s\256\267\034\322\001\232\232\313\010"
 114      FF73AEB7 
 114      1CD2019A 
 114      9ACB08
 115 0063 74075817 		.ascii	"t\007X\027\003+CKC\303\004\005\260~ \010\001\223\241"
 115      032B434B 
 115      43C30405 
 115      B07E2008 
 115      0193A1
 116 0076 2047309F 		.ascii	" G0\237gh{\260w)[\"\343\"FV\240`5\303\257\206\216\006"
 116      67687BB0 
 116      77295B22 
 116      E3224656 
 116      A06035C3 
 117 008e 814C46E6 		.ascii	"\201LF\346d\260\273\030\030\322\031\031# \226\203(\026"
 117      64B0BB18 
 117      18D21919 
 117      23209683 
 117      2816
 118 00a0 1BA09140 		.ascii	"\033\240\221@\205g\031\232v\334X\377\223\021\242O\233"
 118      8567199A 
 118      76DC58FF 
 118      9311A24F 
 118      9B
 119 00b1 61550310 		.ascii	"aU\003\020pg2\262\315f\230\005T\306\016\325\305\001"
 119      706732B2 
 119      CD669805 
 119      54C60ED5 
 119      C501
 120 00c3 36220962 		.ascii	"6\"\011b\022\330\000\266\006\007\006\210\366\037\353"
 120      12D800B6 
 120      06070688 
 120      F61FEB
 121 00d2 2521BAD3 		.ascii	"%!\272\323\031\231\2406@@((\\\230O34\002u\247\200\\"
 121      1999A036 
 121      40402828 
 121      5C984F33 
 121      340275A7 
 122 00e8 71918111 		.ascii	"q\221\201\021\256\022\242$\004$\014b+\352\351\351;g"
 122      AE12A224 
 122      04240C62 
 122      2BEAE9E9 
 122      3B67
 123 00fa 642665FA 		.ascii	"d&e\372\007\353\347\027\353\227%\026e\346\227\026\353"
 123      07EBE717 
 123      EB972516 
ARM GAS  /tmp/ccXz8m7H.s 			page 9


 123      65E69716 
 123      EB
 124 010b 17571627 		.ascii	"\027W\026''\346\344\024\353%3\000\000\233\376J "
 124      27E6E414 
 124      EB253300 
 124      009BFE4A 
 124      20
 125              		.text
 126              		.section	.gnu.lto__isatty_r.e00190942f8ad83f,"",%progbits
 127 0000 789C6362 		.ascii	"x\234cb`b@\007\322@\274\025\210\225A\034\026\006F\240"
 127      60624007 
 127      D240BC15 
 127      8895411C 
 127      160646A0 
 128 0014 0A462646 		.ascii	"\012F&Ff \311\314\310\010\024bd\250gbf\254\217\004\261"
 128      6620C9CC 
 128      C8081462 
 128      64A86762 
 128      66AC8F04 
 129 0029 19189518 		.ascii	"\031\030\225\030\02664\314x\260t\333L\311\256\005M\023"
 129      163634CC 
 129      78B074DB 
 129      4CC9AE05 
 129      4D13
 130 003b 1AFEFDFF 		.ascii	"\032\376\375\377\317\230\011\222Jfd\210\000\262\030"
 130      CF980992 
 130      4A666488 
 130      00B218
 131 004a 15C01413 		.ascii	"\025\300\024\023\013\252%\353\231\016<\370\377\377\316"
 131      0BAA25EB 
 131      990E3CF8 
 131      FFFFCE
 132 0059 CD964BBA 		.ascii	"\315\226K\272L\214\014`\015\014\254\014-\015\015\023"
 132      4C8C0C60 
 132      0D0CAC0C 
 132      2D0D0D13 
 133 0069 14C05A81 		.ascii	"\024\300Z\201 \004L\206\202\354g>\313\320\264c\3076"
 133      20044C86 
 133      82EC673E 
 133      CBD0B463 
 133      C736
 134 007b C944C645 		.ascii	"\311D\306E\214\254\014\351\214\214 #\031\030\241f\205"
 134      8CAC0CE9 
 134      8C8C2023 
 134      1918A166 
 134      85
 135 008c 821CC77C 		.ascii	"\202\034\307|\232\241\221\203\201!\005$x\221\201\021"
 135      9AA19183 
 135      81210524 
 135      78918111 
 136 009c AE12A224 		.ascii	"\256\022\242$\004\304\000yUQOO\3379#3)\323?X?\277X\277"
 136      04C40079 
 136      55514F4F 
 136      DF392333 
 136      29D33F58 
 137 00b4 2CB12833 		.ascii	",\261(3\277\264X\277\270\262891'\247X/\231\001\000\343"
 137      BFB458BF 
ARM GAS  /tmp/ccXz8m7H.s 			page 10


 137      B8B23839 
 137      3127A758 
 137      2F990100 
 138 00c9 FA3144   		.ascii	"\3721D"
 139              		.text
 140              		.section	.gnu.lto_.symbol_nodes.e00190942f8ad83f,"",%progbits
 141 0000 789C4DC7 		.ascii	"x\234M\307;\016@`\024D\341\231\373{\355z$\032\245\316"
 141      3B0E4060 
 141      1444E199 
 141      FB7BED7A 
 141      241AA5CE 
 142 0014 02EC47A9 		.ascii	"\002\354G\251\266\005oQ\010\011\341\236\346\3443\030"
 142      B6056F51 
 142      0809E19E 
 142      E6E43318 
 143 0024 6ABCD940 		.ascii	"j\274\331@\001U\013H]I\033):N\2249\316Tp\\\250\310q"
 143      01550B48 
 143      5D491B29 
 143      3A4E9439 
 143      CE54705C 
 144 003b A562C78D 		.ascii	"\245b\307\215J~r\247\322\207yN\036T\366)D)\232\376d"
 144      4A7E72A7 
 144      D287794E 
 144      1E54F629 
 144      44299AFE 
 145 0050 883314F7 		.ascii	"\2103\024\367q\001z\2372\311"
 145      71017A9F 
 145      32C9
 146              		.text
 147              		.section	.gnu.lto_.refs.e00190942f8ad83f,"",%progbits
 148 0000 789C6362 		.ascii	"x\234cb`b`d\200\002\000\000F\000\006"
 148      60626064 
 148      80020000 
 148      460006
 149              		.text
 150              		.section	.gnu.lto_.decls.e00190942f8ad83f,"",%progbits
 151 0000 789CBD5C 		.ascii	"x\234\275\\\177p\024U\236\357\356\371\225\011!\020\255"
 151      7F701455 
 151      9EEFEEF9 
 151      95092110 
 151      AD
 152 0011 F3C2DDAE 		.ascii	"\363\302\335\256\216[z\265\345\226$\272\354\035un\255"
 152      8E5B7AB5 
 152      E59624BA 
 152      EC1D756E 
 152      AD
 153 0022 DC5A7BC7 		.ascii	"\334Z{\307\326Y\356\326z^\355\037W\325vf:\311\024\223"
 153      D659EED6 
 153      7A5EED1F 
 153      57D57666 
 153      3AC91493 
 154 0036 99DCCC84 		.ascii	"\231\334\314\204\300\375c3@@AM\370\035\020\022\005\024"
 154      C0FD6333 
 154      4040414D 
 154      F81D1012 
 154      0514
 155 0048 5C511014 		.ascii	"\\Q\020\024\\E\032\266\204\000{1!r\300)\020\215&\376"
ARM GAS  /tmp/ccXz8m7H.s 			page 11


 155      5C451AB6 
 155      84007B31 
 155      2172C029 
 155      108D26FE 
 156 005c 2EE22F88 		.ascii	".\342/\210\010\271\357{\375c\372\275\364\233y=\3561"
 156      08B9EF7B 
 156      FD63FABD 
 156      F49B793D 
 156      EE31
 157 006e 55DDFDFA 		.ascii	"U\335\375\372\307\373\274\357\367\363\375\276\357\373"
 157      C7FBBCEF 
 157      F7F3FDBE 
 157      EFFB
 158 007c D1AF4712 		.ascii	"\321\257G\022$\341\007\222 \214\303\357\255\373\004"
 158      24E10792 
 158      208CC3EF 
 158      ADFB04
 159 008b A12A2C08 		.ascii	"\241*,\010e\202 \374B\310\377\340\222\360$lWDA(\207"
 159      658220FC 
 159      42C8FFE0 
 159      92F0246C 
 159      57444128 
 160 00a0 67AB609B 		.ascii	"g\253`\233\006\333\255\260\315\207\355!\330\332$a\302"
 160      06DBADB0 
 160      CD87ED21 
 160      D8DA2461 
 160      C2
 161 00b1 0FE509C0 		.ascii	"\017\345\011\300\346\207\255\022\266\012\330\266\302"
 161      E687AD12 
 161      B60AD8B6 
 161      C2
 162 00be B6053680 		.ascii	"\266\0056\200\022\266\233G\364\034\312\376\025\234\254"
 162      12B69B47 
 162      F41CCAFE 
 162      159CAC
 163 00cd A1705099 		.ascii	"\241pP\231>\012C0\363\241{\350\270\226\312\203dd\345"
 163      3E0A4330 
 163      F3A17BE8 
 163      B896CA83 
 163      6464E5
 164 00e0 41F7D0E3 		.ascii	"A\367\320\343S`\267\216\312WU \037\272\207\216\235T"
 164      5360B78E 
 164      CA575520 
 164      1FBA878E 
 164      9D54
 165 00f2 1EC443B9 		.ascii	"\036\304C\271\251\247\225\347o\341\332\335p\\\017GM"
 165      A9A795E7 
 165      6FE1DADD 
 165      705C0F47 
 165      4D
 166 0103 32F068BD 		.ascii	"2\360h\275%3\357C\346\375\015p\374\021l7\303\326E\225"
 166      2533EF43 
 166      E6FD0D70 
 166      FC116C37 
 166      C3D64595 
 167 0117 81780E53 		.ascii	"\201x\016SruKF\231K\340\370s\330~\002\333m\246\214w"
 167      72754B46 
ARM GAS  /tmp/ccXz8m7H.s 			page 12


 167      994BE0F8 
 167      73D87E02 
 167      DB6DA68C 
 168 012c 993ADE6A 		.ascii	"\231:\336j\332\005\245\347\302\356I\012w~\001}\347\233"
 168      DA05A5E7 
 168      C2EE490A 
 168      777E017D 
 168      E79B
 169 013e 584F5179 		.ascii	"XOQyn\0226i\335\372\340\033C\333\246i\3359}|\374\300"
 169      6E123669 
 169      DDFAE01B 
 169      43DBA669 
 169      DD397D7C 
 170 0154 2CE10661 		.ascii	",\341\006a\265\006\277\3566M\023\263\212\350\017\013"
 170      B506BFEE 
 170      364D13B3 
 170      8AE80F0B 
 171 0164 BF1715B1 		.ascii	"\277\027\025\2612,Dp\242\"\214K\020\004E|J\274\001\247"
 171      322C4470 
 171      A2228C4B 
 171      1004457C 
 171      4ABC01A7 
 172 0178 7C582661 		.ascii	"|X&a\222\360\210\246\345P\306\331=\225\327\011\035\010"
 172      92F088A6 
 172      E550C6D9 
 172      3D95D709 
 172      1D08
 173 018a 25B27408 		.ascii	"%\262t\010\3125\001\364_Z\010\333\3120i\267\210\200"
 173      CA3501F4 
 173      5F5A08DB 
 173      CA3069B7 
 173      8880
 174 019c B255BC4E 		.ascii	"\262U\274N\270M\330\016\017\267k\332{7\220\\\011[\340"
 174      B84DD80E 
 174      0FB76BDA 
 174      7B37905C 
 174      095BE0
 175 01af FAE0C90F 		.ascii	"\372\340\311\017\216,\020\027\200<\306\323\250\354g"
 175      8E2C1017 
 175      803CC6D3 
 175      A8EC67
 176 01be C4DB0497 		.ascii	"\304\333\004\227\337\315B7d\320/\016\355\003\205\016"
 176      DFCD4237 
 176      64D02F0E 
 176      ED03850E 
 177 01ce 89587C49 		.ascii	"\211X|I\330.Z\005\271\251b&\215\237\371\200\023.\247"
 177      D82E5A05 
 177      B9A96226 
 177      8D9FF980 
 177      132EA7
 178 01e1 770C9F16 		.ascii	"w\014\237\026;5}\221\317U\305\236\312\274\206A\013\255"
 178      3B357D91 
 178      CF55C59E 
 178      CABC8641 
 178      0BAD
 179 01f3 D192BE5D 		.ascii	"\321\222\276]\277\274\342\207\232_\021w@\361\222\260"
 179      BFBCE287 
ARM GAS  /tmp/ccXz8m7H.s 			page 13


 179      9A5F1177 
 179      40F192B0 
 180 0203 138B9297 		.ascii	"\023\213\222\227\276(\210$\354\305YvBv#\243A\212~jY"
 180      BE288824 
 180      ECC55976 
 180      427623A3 
 180      418A7E6A 
 181 0218 0582DDC9 		.ascii	"\005\202\335\311AHN?\263l5&\204P@\021E\266q\367\300"
 181      41484E3F 
 181      B36C3526 
 181      84504011 
 181      45B671F7 
 182 022d B3E64F12 		.ascii	"\263\346O\022\016\330\"\224B\240\246\277}\374\270\250"
 182      0ED82294 
 182      42A0A6BF 
 182      7DFCB8A8 
 183 023d ADA830CD 		.ascii	"\255\2500\315q\3103Z\204@{\347xE\273bb\275\301\203U"
 183      71C8335A 
 183      84407BE7 
 183      7845BB62 
 183      62BDC183 
 184 0252 C696ECFC 		.ascii	"\306\226\354\374\361\345\325Z\367A\270%!\270\036\032"
 184      F1E5D55A 
 184      F741B825 
 184      21B81E1A 
 185 0262 6EAA8521 		.ascii	"n\252\205!1\340H\321.,\253\350{\320\304z\3233V-\201"
 185      31E048D1 
 185      2E2CABE8 
 185      7BD0C47A 
 185      D333562D 
 186 0277 F5E5F155 		.ascii	"\365\345\361U\"\262\231\351\"\335\263\034>2\313\231"
 186      22B299E9 
 186      22DDB31C 
 186      3E32CB99 
 187 0287 5F124EE2 		.ascii	"_\022N\342\242\016Lp\221%\330E\016\360\271\310\221U"
 187      A20E4C70 
 187      9125D845 
 187      0EF0B9C8 
 187      9155
 188 0299 669D41A6 		.ascii	"f\235A\246\227\204wl\314\022m\276\304i\363\367<\243"
 188      9784776C 
 188      CC126DBE 
 188      C469F3F7 
 188      3CA3
 189 02ab 45283125 		.ascii	"E(1%\341C\232P\202\00539\225-\321\327\204\027~\312\343"
 189      E1439A50 
 189      82053339 
 189      952DD1D7 
 189      84177ECA 
 190 02c0 39D52CB4 		.ascii	"9\325,\264\234\276\362\261\345&_w#\272\276\366\014\027"
 190      9CBEF2B1 
 190      E5265F77 
 190      23BABEF6 
 190      0C17
 191 02d2 21E0D6F6 		.ascii	"!\340\326\366n\234XC\371c\361\177\223\261X\021\267\000"
 191      6E9C5843 
 191      F963F17F 
ARM GAS  /tmp/ccXz8m7H.s 			page 14


 191      93B15811 
 191      B700
 192 02e4 927D72F7 		.ascii	"\222}r\367$\307=\242\204\260\260\024\235\014n\325\252"
 192      24C73DA2 
 192      84B0B014 
 192      9D0C6ED5 
 192      AA
 193 02f5 AB6DC9CA 		.ascii	"\253m\311\312,t\324f\030\276\004\261YR\304\023\"b\356"
 193      2C74D466 
 193      18BE04B1 
 193      5952C413 
 193      2262EE
 194 0308 8A28BAF9 		.ascii	"\212(\272\371\021*\010=`\251h\244\255\324\270(0\205"
 194      112A083D 
 194      60A968A4 
 194      ADD4B828 
 194      3085
 195 031a EF075949 		.ascii	"\357\007YI\367\264%\367\207\215\343\003>\373\036\013"
 195      F7B425F7 
 195      878DE303 
 195      3EFB1E0B 
 196 032a E5CFCE88 		.ascii	"\345\317\316\210\225\2238\314\021a[w}/\304\230\022m"
 196      959338CC 
 196      11615B77 
 196      7D2FC498 
 196      126D
 197 033c 71E6FBDA 		.ascii	"q\346\373\332B\257^W\351n\014E\034\020o-\231\347\263"
 197      42AF5E57 
 197      E96E0C45 
 197      1C106F2D 
 197      99E7B3
 198 034f 79864AE4 		.ascii	"y\206J\344\370\264\223\343\245\2369\216\020\034\357"
 198      F8B493E3 
 198      A59E398E 
 198      101CEF
 199 035e EA7DB488 		.ascii	"\352}\264\210\313cF4\363\216\273TF#;x\340\30437jZ\231"
 199      CB634634 
 199      F38EBB54 
 199      46233B78 
 199      E0C43337 
 200 0375 22BE8F5D 		.ascii	"\"\276\217]t\211\217lf\0251h[\330>\267\036@hp\212J\272"
 200      74898F6C 
 200      66153168 
 200      5BD83EB7 
 200      1E406870 
 201 038c 847ACEE2 		.ascii	"\204z\316\342C\346\025t\022b\2231\304ogC\256\022I\177"
 201      43E61574 
 201      12629331 
 201      C46F6743 
 201      AE12497F 
 202 03a0 CF49FAE3 		.ascii	"\317I\372\343>\016\322\177\314tl\350K=\021\232\330\227"
 202      3E0ED27F 
 202      CC746CE8 
 202      4B3D119A 
 202      D897
 203 03b2 E177EECF 		.ascii	"\341w\356\3179\224\346\322\3523\247V\253=k\345t%M\177"
 203      3994E6D2 
ARM GAS  /tmp/ccXz8m7H.s 			page 15


 203      EA33A756 
 203      AB3D6BE5 
 203      74254D7F 
 204 03c6 A5D7682B 		.ascii	"\245\327h+\215&F\022\236\240\361\334\232\212Z&K\372"
 204      8D264612 
 204      9EA0F1DC 
 204      9A8A5A26 
 204      4BFA
 205 03d8 AB8FAD26 		.ascii	"\253\217\255&\032\303n\036\371f\262\3604}\177\257\263"
 205      1AC36E1E 
 205      F966B2F0 
 205      347D7FAF 
 205      B3
 206 03e9 E9D9E219 		.ascii	"\351\331\342\031\215\324v\000i;\250\213UB;\356<\256"
 206      8DD47600 
 206      693BA88B 
 206      55423BEE 
 206      3CAE
 207 03fb 23BA72D5 		.ascii	"#\272r\325\026\202\317dz\014\036D?\2426\341'X\266\371"
 207      1682CF64 
 207      7A0C1E44 
 207      3FA236E1 
 207      2758B6F9 
 208 040f D6115E2A 		.ascii	"\326\021^*\302\371\2045|\220\204m\264\012D\251fr\026"
 208      C2F98435 
 208      7C90846D 
 208      B40A44A9 
 208      667216
 209 0422 9B90B77A 		.ascii	"\233\220\267z'\355|\320\224\1770@*@D<$\316\025\317\012"
 209      27ED7CD0 
 209      947F3040 
 209      2A40443C 
 209      24CE15CF 
 210 0437 5C652890 		.ascii	"\\e(\220\367\270\347i\005\210R\335\024\250&\024\370"
 210      F7B8E769 
 210      058852DD 
 210      14A82614 
 210      F8
 211 0448 DFFB501F 		.ascii	"\337\373P\037\324\360\266=<\336F`\221\366\034%\274c"
 211      D4F0B63D 
 211      3CDE4660 
 211      91F61C25 
 211      BC63
 212 045a 1F8F77CC 		.ascii	"\037\217w\314f\243}\371\230\021V=\004\317\025\253\214"
 212      66A37DF9 
 212      9811563D 
 212      04CF15AB 
 212      8C
 213 046b E0B91877 		.ascii	"\340\271\030w\\\017\376%\203'\364\251y\364\371-\263"
 213      5C0FFE25 
 213      8327F4A9 
 213      79F4F92D 
 213      B3
 214 047c 2E0E9E1C 		.ascii	".\016\236\034\335x\033\216XF\254\221\204>\317\200$A"
 214      DD781B8E 
 214      5846AC91 
 214      843ECF80 
ARM GAS  /tmp/ccXz8m7H.s 			page 16


 214      2441
 215 048e 1D8F3FE6 		.ascii	"\035\217?\346\225\240\023'w\211\013\361\000t9\246\350"
 215      95A01327 
 215      77890BF1 
 215      007439A6 
 215      E8
 216 049f 7F288AF8 		.ascii	"\177(\212\370\241\306\317}\"b\256\037\307@'\3754\327"
 216      A1C6CF7D 
 216      2262AE1F 
 216      C74027FD 
 216      34D7
 217 04b1 7E8A6B3F 		.ascii	"~\212k?\311\265\177\002\327~\233\353R\363I\302\210\237"
 217      C9B57F02 
 217      D77E9BEB 
 217      52F349C2 
 217      889F
 218 04c3 83D2DFB3 		.ascii	"\203\322\337\263l\004#\364\355\233n\\\200lTt\260b3\372"
 218      6C0423F4 
 218      ED9B6E5C 
 218      806C5474 
 218      B06233FA 
 219 04d7 E61D9886 		.ascii	"\346\035\230\206U\022\252A\237\371]\207\305l\030\244"
 219      5512AA41 
 219      9FF95D87 
 219      C56C18A4 
 220 04e7 E15A891A 		.ascii	"\341Z\211\032\357t\035\306\343\035t\275\370\034\301"
 220      EF741DC6 
 220      E31D74BD 
 220      F81CC1
 221 04f6 EEC3CE4A 		.ascii	"\356\303\316Jw\011\013\200r\026 @`\022\240\357?|\014"
 221      77090B80 
 221      72162040 
 221      6012A0EF 
 221      3F7C0C
 222 0509 A15D2FAC 		.ascii	"\241]/\254\300r\007Y^\200\344zB\272\236\224\373\245"
 222      C0720759 
 222      5E80E47A 
 222      42BA9E94 
 222      FBA5
 223 051b C362C4B8 		.ascii	"\303b\304\270\\|\230\366J\233\303ys<\036\327\361q\317"
 223      5C7C98F6 
 223      4A9BC379 
 223      733C1ED7 
 223      F171CF
 224 052e 7FBCA069 		.ascii	"\177\274\240iS\025\261\013\273\334\302 \355r\001\312"
 224      5315B10B 
 224      BBDCC220 
 224      ED7201CA 
 225 053e E502A4EB 		.ascii	"\345\002\244\353\004\302\371\004\362\230)\310c\036\301"
 225      04C2F904 
 225      F29829C8 
 225      631EC1
 226 054d 2848E692 		.ascii	"(H\346\222\010\003\007\350\335%\002Y\353j\315V\240{"
 226      080307E8 
 226      DD250259 
 226      EB6ACD56 
 226      A07B
ARM GAS  /tmp/ccXz8m7H.s 			page 17


 227 055f D6BAC233 		.ascii	"\326\272\3023\022[$\257\255\300V\311\275\025\260:'\222"
 227      125B24AF 
 227      ADC056C9 
 227      BD15B03A 
 227      2792
 228 0571 D05EAA16 		.ascii	"\320^\252\026\366O\022\326\006\275\272N\304\315\276"
 228      F64F12D6 
 228      06BDBA4E 
 228      C4CDBE
 229 0580 16F979AF 		.ascii	"\026\371y\257V\304u\022\352\354wJ7\303~\003\354\035"
 229      56C47512 
 229      EAEC774A 
 229      37C37E03 
 229      EC1D
 230 0592 A5760539 		.ascii	"\245v\0059\332\034\242\306F\010\376O\356\3304\315\214"
 230      DA1CA2C6 
 230      4608FE4F 
 230      EED834CD 
 230      8C
 231 05a3 AAB8026C 		.ascii	"\252\270\002l\243\361\334\264x\220[\213\374t\225\"\276"
 231      A3F1DCB4 
 231      78905B8B 
 231      FC749522 
 231      BE
 232 05b4 88872CBB 		.ascii	"\210\207,\273E\244\305\313x\277\017\357\377\210\367"
 232      45A4C5CB 
 232      78BF0FEF 
 232      FF88F7
 233 05c3 AFE1FDEB 		.ascii	"\257\341\375\353x\177\004\357\217\342\375q\274?\205"
 233      787F04EF 
 233      8FE2FD71 
 233      BC3F85
 234 05d2 F7EFE2FD 		.ascii	"\367\357\342\375\247x\377\005\336\177\205\367\337\340"
 234      A778FF05 
 234      DE7F85F7 
 234      DFE0
 235 05e0 FD25BCFF 		.ascii	"\375%\274\377\016\3575\314U\016\357\027\341\375\303"
 235      0EEF35CC 
 235      550EEF17 
 235      E1FDC3
 236 05ef 78BF0CEF 		.ascii	"x\277\014\357W\342\375v'\223,\337y\316\331=\335\031"
 236      57E2FD76 
 236      27932CDF 
 236      79CED93D 
 236      DD19
 237 0601 F43A81E8 		.ascii	"\364:\201\350$\033M \016J&\331\317\341&l/\017 s\332"
 237      241B4D20 
 237      0E4A26D9 
 237      CFE1266C 
 237      2F0F2073 
 238 0616 2AA75D89 		.ascii	"*\247]\211\365\324ZX\007<c\021\236\240\257\036\326E"
 238      F5D45A58 
 238      073C6311 
 238      9EA0AF1E 
 238      D645
 239 0628 A7271CE1 		.ascii	"\247'\034\341\301+0\315\262f\270Lk\253p\366MO\344ku"
 239      C12B30CD 
ARM GAS  /tmp/ccXz8m7H.s 			page 18


 239      B266B84C 
 239      6BAB70F6 
 239      4D4FE46B 
 240 063d 8F68214C 		.ascii	"\217h!L3\211\336\355\271Z\357aT\353j\333^\177\246U "
 240      3389DEED 
 240      B95AEF61 
 240      54EB6ADB 
 240      5E7FA655 
 241 0652 8B75D381 		.ascii	"\213u\323\201\344d\30301\201|\212\207\222\002\303\211"
 241      E464C330 
 241      31817C8A 
 241      879202C3 
 241      89
 242 0663 8DC3BA65 		.ascii	"\215\303\272e\377\263\330f\037y\006$\345\333E\3127\306"
 242      FFB3D866 
 242      1F790624 
 242      E5DB45CA 
 242      37C6
 243 0675 03C71C9E 		.ascii	"\003\307\034\236\344\364\227,\027(4(\374\305_1-\362"
 243      E4F4972C 
 243      17283428 
 243      FCC55F31 
 243      2DF2
 244 0687 BAE43228 		.ascii	"\272\3442(\344\032\005\356\227\034\325lQ\310\253\032"
 244      E41A05EE 
 244      971CD56C 
 244      51C8AB1A 
 245 0697 64357B75 		.ascii	"d5{u\370\264\3047O/:}F\022\036\303\005\377\211\356O"
 245      F8B4C437 
 245      4F2F3A7D 
 245      46121EC3 
 245      05FF89EE 
 246 06ac BCAA448C 		.ascii	"\274\252D\214\253\305\233\345\003;\216\032\275\211C"
 246      ABC59BE5 
 246      033B8E1A 
 246      BD8943
 247 06bb 12B2EF1A 		.ascii	"\022\262\357\032\033\260\264\356D\377\331\374\024\367"
 247      1BB0B4EE 
 247      44FFD9FC 
 247      14F7
 248 06c9 139EB108 		.ascii	"\023\236\261\010_\321\366\342X\201\241\272x\240\330"
 248      5FD1F6E2 
 248      5881A1BA 
 248      78A0D8
 249 06d8 B3E5DA99 		.ascii	"\263\345\332\231<\3243\236\241H\251.\346\241v\360@\025"
 249      3CD4339E 
 249      A148A92E 
 249      E6A176F0 
 249      4015
 250 06ea 0838039F 		.ascii	"\0108\003\237\365 \356\255~D\320\236I+\3369\322\317"
 250      F520EEAD 
 250      7E44D09E 
 250      492BDE39 
 250      D2CF
 251 06fc BE8FBA5E 		.ascii	"\276\217\272^'p\307\350\305\020\3351\012Q\035\243\020"
 251      2770C7E8 
 251      C510DD31 
ARM GAS  /tmp/ccXz8m7H.s 			page 19


 251      0A511DA3 
 251      10
 252 070d D9310A85 		.ascii	"\3311\012\205\363\011\263c\304\362\363~3\312\345\207"
 252      F309B363 
 252      C4F2F37E 
 252      33CAE587 
 253 071d A650E01F 		.ascii	"\246P\340\037=+\036\241\274\217U\334!g\265\332\317S"
 253      3D2B1EA1 
 253      BC8F55DC 
 253      2167B5DA 
 253      CF53
 254 072f AD66B1F9 		.ascii	"\255f\261\371\335O\006\2337<\3039-\017U\305\252\245"
 254      DD4F069B 
 254      373CC339 
 254      2D0F55C5 
 254      AAA5
 255 0741 56657993 		.ascii	"Vey\223\007p6K\276\234\336o\265\256\324\333-\204\316"
 255      0770364B 
 255      BE9CDE6F 
 255      B5AED4DB 
 255      2D84CE
 256 0754 22E81D27 		.ascii	"\"\350\035'Aoy\026\200\360e\375\024I\3209\0368\366\200"
 256      416F7916 
 256      80F065FD 
 256      1449D039 
 256      1E38F680 
 257 0768 573F33DC 		.ascii	"W?3\334c5\310\375\270\265\030\366\014H\312w~d\237\250"
 257      6335C8FD 
 257      B8B518F6 
 257      0C48CA77 
 257      7E649FA8 
 258 077c 752FAF36 		.ascii	"u/\2576G'\304KYm\212\005p\301\232n\031\242\307'g\207"
 258      4727C44B 
 258      596D8A05 
 258      70C19A6E 
 258      19A2C727 
 259 0792 ABD1B86A 		.ascii	"\253\321\270j\210c\200\002As\344\264\010C\301u\265n"
 259      88638002 
 259      4173E4B4 
 259      0843C175 
 259      B56E
 260 07a4 AF80B5C9 		.ascii	"\257\200\265\311Vi}Vi\303t\324\035\035\236\211J\033"
 260      56697D56 
 260      69C374D4 
 260      1D1D9E89 
 260      4A1B
 261 07b6 E68ABB5F 		.ascii	"\346\212\273_\017\353>\223\253\000\342\376sL\325p\211"
 261      0FEB3E93 
 261      AB00E2FE 
 261      734CD570 
 261      89
 262 07c7 8137A75F 		.ascii	"\2017\247_\034\356\223\010\356"
 262      1CEE9308 
 262      EE
 263 07d0 2F7B0624 		.ascii	"/{\006$\271\037\203\246\037\350X\340ct\210\372\354\246"
 263      B91F83A6 
 263      1FE858E0 
ARM GAS  /tmp/ccXz8m7H.s 			page 20


 263      637488FA 
 263      ECA6
 264 07e2 E86F4C42 		.ascii	"\350oLB>\363\334!\372\234\321!\232f{\370\3222J\013\262"
 264      3EF3DC21 
 264      FA9CD121 
 264      9A667BF8 
 264      D2324A0B 
 265 07f7 D8A2915F 		.ascii	"\330\242\221_\277<|Ir\016\360\235\255i\267d\001\334"
 265      BF3C7C49 
 265      720EF09D 
 265      AD69B764 
 265      01DC
 266 0809 820B5B8D 		.ascii	"\202\013[\215\013\033\245\355\3726jMG\271\306\346\347"
 266      0B1BA5ED 
 266      FA366A4D 
 266      47B9C6E6 
 266      E7
 267 081a 3FE8718C 		.ascii	"?\350q\214\315\327\333x\2455\246\027T\273\251\331\354"
 267      CDD7DB78 
 267      A535A617 
 267      54BBA9D9 
 267      EC
 268 082b 198AB4E6 		.ascii	"\031\212\264\346\027y\250\347x\240\0120\372U\036\352"
 268      1779A8E7 
 268      78A00A30 
 268      FA551EEA 
 269 083b 65CF50A4 		.ascii	"e\317P\244T\337\344\241t\036\250\002m\351\245<\324Q"
 269      54DFE4A1 
 269      741EA802 
 269      6DE9A53C 
 269      D451
 270 084d CF50A454 		.ascii	"\317P\244T\337\346\241\006x\240\230\357Z5\375\273<\324"
 270      DFE6A106 
 270      78A098EF 
 270      5A35FDBB 
 270      3CD4
 271 085f 59CF50A4 		.ascii	"Y\317P\244TW\363P#<P\021\027\251\354\237$|AW,\2622\270"
 271      5457F350 
 271      233C5011 
 271      17A9EC9F 
 271      247C4157 
 272 0877 8190F25C 		.ascii	"\201\220\362\\\031\276D\214\276\026\2049\342M\201\306"
 272      19BE448C 
 272      BE168439 
 272      E24D81C6 
 273 0887 707C7830 		.ascii	"p|x0\260\036\205_E\014#\274v\032o\226\323\241\2125F"
 273      B01E855F 
 273      450C23BC 
 273      761A6F96 
 273      D3A18A35 
 274 089c 9ADE31D2 		.ascii	"\232\3361\322\347\203\212\237\263+\376\266|\305o\266"
 274      E7838A9F 
 274      B32BFEB6 
 274      7CC56FB6 
 275 08ac F257622E 		.ascii	"\362Wb.6\340\242\226\373\250z\177y%\236\225C\327\213"
 275      36E0A296 
 275      FBA87A7F 
ARM GAS  /tmp/ccXz8m7H.s 			page 21


 275      79259E95 
 275      43D78B
 276 08bf D7FC2B2B 		.ascii	"\327\374++W\213h=\206\025-\267A\344\363\331\221\257"
 276      578B683D 
 276      86152DB7 
 276      41E4F3D9 
 276      91AF
 277 08d1 D62A3088 		.ascii	"\326*0\210\363(b\273\317\352V}\233\357Vm\266\345p\313"
 277      F32862BB 
 277      CFEA567D 
 277      9BEF566D 
 277      B6E570CB 
 278 08e5 563C5E5C 		.ascii	"V<^\\\275\037\255\341@\320\222\260\3353\226s\021GNo"
 278      BD1FADE1 
 278      40D092B0 
 278      DD339673 
 278      11474E6F 
 279 08f9 5F831784 		.ascii	"_\203\027\204\370\220)^\240\261x\027\2278\374m\017m"
 279      F890295E 
 279      A0B17817 
 279      9738FC6D 
 279      0F6D
 280 090b 4EC20666 		.ascii	"N\302\006f\222=Q\253\257\034\271`\304qk\346\365\025"
 280      923D51AB 
 280      AF1CB960 
 280      C4716BE6 
 280      F515
 281 091d 1EFF6864 		.ascii	"\036\377hd\003\256\032)\303\221\332@;\314\203\326\314"
 281      03AE1A29 
 281      C391DA40 
 281      3BCC83D6 
 281      CC
 282 092e 465B43A0 		.ascii	"F[C\240\275\305\2036\217\215\3269B\266\275\306\024\243"
 282      BDC58336 
 282      8F8DD639 
 282      42B6BDC6 
 282      14A3
 283 0940 A3F19D45 		.ascii	"\243\361\235E\262\256\210\233|^\333\336.\237{\333kM"
 283      B2AE889B 
 283      7C5EDBDE 
 283      2E9F7BDB 
 283      6B4D
 284 0952 C74BC27B 		.ascii	"\307K\302{<Zh\"[\215\365#\005&T\310\241,^\226\347Y\207"
 284      3C5A6822 
 284      5B8DF523 
 284      052654C8 
 284      A12C5E96 
 285 0969 CD0C1DFE 		.ascii	"\315\014\035\376\332\326\341SZ\007\262X3\271\264\200"
 285      DAD6E153 
 285      5A07B258 
 285      33B9B480 
 286 0979 121B47C8 		.ascii	"\022\033G\3108w\211'\316u\027\000\354\242=yq9\007\317"
 286      38778927 
 286      CE751700 
 286      ECA23D79 
 286      713907CF 
 287 098d 24628440 		.ascii	"$b\204@\334I8\337J\036\270m\005\340^$\340\236\342\201"
ARM GAS  /tmp/ccXz8m7H.s 			page 22


 287      DC4938DF 
 287      4A1EB86D 
 287      05E05E24 
 287      E09EE281 
 288 09a1 DB59006E 		.ascii	"\333Y\000n\017\001\267\233\007n_\001\270\227\011\270"
 288      0F01B79B 
 288      076E5F01 
 288      B89709B8 
 289 09b1 433C707A 		.ascii	"C<pz\001\270WF\310I\304\001\032\320\315\274=n\200\366"
 289      01B85746 
 289      C849C401 
 289      1AD0CDBC 
 289      3D6E80F6 
 290 09c5 4F119F16 		.ascii	"O\021\237\026%s8b>B\015\037\212\207\362\263\306`\304"
 290      25733862 
 290      3E420D1F 
 290      8A87F2B3 
 290      C660C4
 291 09d8 B5DBEA32 		.ascii	"\265\333\3522\362\331C\267]\003#x,\262\207\253\355:"
 291      F2D943B7 
 291      5D032378 
 291      2CB287AB 
 291      ED3A
 292 09ea 3372DA87 		.ascii	"3r\332\207\013\263\252*\252vh\375\200UgBd\314R\304\275"
 292      0BB3AA2A 
 292      AA7668FD 
 292      80556742 
 292      64CC52C4 
 293 09ff 9EABEA3E 		.ascii	"\236\253\352>FU\375\241)\212$\274\203\231\337\223oe"
 293      4655FDA1 
 293      298A24BC 
 293      8399DF93 
 293      6F65
 294 0a11 C8628B73 		.ascii	"\310b\213s\366\366\210>Q\215@\230\255\305\253v#lI\007"
 294      F6F6883E 
 294      518D4098 
 294      ADC5AB76 
 294      236C4907 
 295 0a25 620C7189 		.ascii	"b\014q\211\341\026\274\355\037\204\035\014\342t\000"
 295      E116BCED 
 295      1F841D0C 
 295      E27400
 296 0a34 D2660594 		.ascii	"\322f\005\224q\240|UN\015\237\335Q\230\255&\214\012"
 296      71A07C55 
 296      4E0D9FDD 
 296      5198AD26 
 296      8C0A
 297 0a46 47382716 		.ascii	"G8'\026\265i\026Z\273\017\227=\206\313>H\373\325\305"
 297      B569165A 
 297      BB0F973D 
 297      86CB3E48 
 297      FBD5C5
 298 0a59 36DC273A 		.ascii	"6\334':\310\341W9}\254\315Z\214\242\373\320\264\352"
 298      C8E15739 
 298      7DACCD5A 
 298      8CA2FBD0 
 298      B4EA
ARM GAS  /tmp/ccXz8m7H.s 			page 23


 299 0a6b 11493231 		.ascii	"\021I21\013\324\255\002\006\276\334\346|\363\271`\222"
 299      0BD4AD02 
 299      06BEDCE6 
 299      7CF3B960 
 299      92
 300 0a7c E8112D42 		.ascii	"\350\021-B\240\215\037^\216\227\336\344\275\245\304"
 300      A08D1F5E 
 300      8E97DEE4 
 300      BDA5C4
 301 0a8b 49E463BE 		.ascii	"I\344c\276\033\314\2245o\314z\362\250\317\236\274\261"
 301      1BCC9435 
 301      6FCC7AF2 
 301      A8CF9EBC 
 301      B1
 302 0a9c 78B7576F 		.ascii	"x\267WohV]\356\361\\\267\2163\352\326M\266'\265\321"
 302      68565DEE 
 302      F15CB78E 
 302      33EAD64D 
 302      B627B5D1 
 303 0ab0 5C51E5BA 		.ascii	"\\Q\345\272\365\341H\356;\226t9\027\365\022\223\322"
 303      F5E148EE 
 303      3B967439 
 303      17F51293 
 303      D2
 304 0ac1 767770A9 		.ascii	"vwp\251\204K[\206K\353\245}g\227\341;\275\\1iw\333\243"
 304      844B5B86 
 304      4BEBA57D 
 304      6797E13B 
 304      BD5C3169 
 305 0ad8 9475F022 		.ascii	"\224u\360\"-6m'\354\312|<_\231;mI\012\352]\300\347^"
 305      2D366D27 
 305      ECCA7C3C 
 305      5F993B6D 
 305      490AEA5D 
 306 0aef 32BDC428 		.ascii	"2\275\304(@\022\236\344Cdw\213\320\233\360G\315jaL\337"
 306      40129EE4 
 306      4364778B 
 306      D09BF047 
 306      CD6A614C 
 307 0b04 EEA021DD 		.ascii	"\356\240!\335\034Y\223\330\200\257\037\306\223\356\006"
 307      1C5993D8 
 307      80AF1FC6 
 307      93EE06
 308 0b13 DACBDED1 		.ascii	"\332\313\336\321\"\224\011\024\361M\037US)\033\027\352"
 308      22940914 
 308      F14D1F55 
 308      53291B17 
 308      EA
 309 0b24 37D93F96 		.ascii	"7\331?\226\273\352\371Z\240\210\207pIE\246\010{\230"
 309      BBEAF95A 
 309      A0888770 
 309      4945A608 
 309      7B98
 310 0b36 CA6BFAD8 		.ascii	"\312k\372\330H\237\325\235B\362J\302\353\223\350\250"
 310      489FD59D 
 310      42F24AC2 
 310      EB93E8A8 
ARM GAS  /tmp/ccXz8m7H.s 			page 24


 311 0b46 49C63657 		.ascii	"I\3066W\314\010Ah\307\307\203.\257\225J\014\017\347"
 311      CC084168 
 311      C7C7832E 
 311      AF954A0C 
 311      0FE7
 312 0b58 7DD43B26 		.ascii	"}\324;&\274\300\205\343\025\323\271\011\321b\302#g}"
 312      BCC085E3 
 312      15D3B909 
 312      D162C223 
 312      677D
 313 0b6a 8ED9E023 		.ascii	"\216\331\340#\264\342nT\236\016\260\324\326\364\015"
 313      B4E26E54 
 313      9E0EB0D4 
 313      D6F40D
 314 0b79 1FEBCCB9 		.ascii	"\037\353\314\271\262\007-\200\012\\V?.k\210\256\342"
 314      B2072D80 
 314      0A5C563F 
 314      2E6B88AE 
 314      E2
 315 0b8a 2B8D21F3 		.ascii	"+\215!\363\020W\363\260v`\225\333\267\035C\014\327E"
 315      1057F3B0 
 315      766095DB 
 315      B71D430C 
 315      D745
 316 0b9c 80234ED7 		.ascii	"\200#N\3271\232\023\326\343\305\253v\347\200\26399e"
 316      319A13D6 
 316      E3C5AB76 
 316      E780B339 
 316      3965
 317 0bae 6B544A73 		.ascii	"kTJs\222\3237\014X\265\332x\273}\216\007\317-\340\332"
 317      92D3370C 
 317      58B5DA78 
 317      BB7D8E07 
 317      CF2DE0DA 
 318 0bc2 3F49789F 		.ascii	"?Ix\237\266(a\00539\030p\001\261\006/\037\367\211\023"
 318      B6286105 
 318      33391870 
 318      01B1062F 
 318      1FF78913 
 319 0bd6 BA443BF2 		.ascii	"\272D;\362x\372\365\026\312>\311d\365s\267\231\211O"
 319      78FAF516 
 319      CA3EC964 
 319      F573B799 
 319      894F
 320 0be8 6941A88C 		.ascii	"iA\250\214f\372C7\347\262\177,\243n\311\257X\240V\031"
 320      66FA4337 
 320      E7B27F2C 
 320      A36EC9AF 
 320      58A05619 
 321 0bfc DBA7FDE2 		.ascii	"\333\247\375\342$\227\333D-\222\204\321I\344k\260[\204"
 321      2497DB44 
 321      2D9284D1 
 321      49E46BB0 
 321      5B84
 322 0c0e CD9AB662 		.ascii	"\315\232\266b\360\215\241A4\323\356\267V\341\215\341"
 322      F08DA141 
 322      34D3EEB7 
ARM GAS  /tmp/ccXz8m7H.s 			page 25


 322      56E18DE1 
 323 0c1e C79E146F 		.ascii	"\307\236\024or\025\310\024\007\347m\327\326\252\263"
 323      7215C814 
 323      07E76DD7 
 323      D6AAB3
 324 0c2d 4DF7B85C 		.ascii	"M\367\270\\$\027\222\310(P\353G\231\214Ix\255\242p\256"
 324      241792C8 
 324      2850EB47 
 324      998C4978 
 324      ADA270AE 
 325 0c41 7E47595F 		.ascii	"~GY_\332e-*\222\313\320\376\357\204\255\310\244\177"
 325      DA652D2A 
 325      92CBD0FE 
 325      EF84ADC8 
 325      A47F
 326 0c53 685B3CD5 		.ascii	"h[<\325o^cg2\251\376\322G|Hg|F\247\177\003\355\307\202"
 326      6F5E6367 
 326      32A9FED2 
 326      477C4867 
 326      7C46A77F 
 327 0c6b C1F1F1AE 		.ascii	"\301\361\361\256\010\377r\352\253tT#\226SS\346s=\245"
 327      08FF72EA 
 327      AB745423 
 327      965353E6 
 327      733DA5
 328 0c7e ACB7B4C2 		.ascii	"\254\267\264\302\315z\332\345\330l\353\255\374\327\270"
 328      CD7ADAE5 
 328      D86CEBAD 
 328      FCD7B8
 329 0c8d A9B8E2E3 		.ascii	"\251\270\342\3431\\\247I\246\"^,\222\3136\\\273\266"
 329      315CA749 
 329      A6225E2C 
 329      92CB365C 
 329      BBB6
 330 0c9f DFCE34C6 		.ascii	"\337\3164\306\237\351\274m\266\016\254A\341L\014\263"
 330      9FE9BC6D 
 330      B60EAC41 
 330      E14C0CB3 
 331 0caf B1329964 		.ascii	"\2612\231d/\364\273\231m\323\021\313l\306'\215\222\260"
 331      2FF4BB99 
 331      6DD311CB 
 331      6CC6278D 
 331      92B0
 332 0cc1 9A93C347 		.ascii	"\232\223\303G\374\245p\310\316\345p\376\001\313\371"
 332      FCA570C8 
 332      CEE570FE 
 332      01CBF9
 333 0cd0 2D12D9B9 		.ascii	"-\022\331\271\234\316\377\265]\326e\216\262\030,\262"
 333      9CCEFFB5 
 333      5DD6658E 
 333      B2182CB2 
 334 0ce0 32992C2E 		.ascii	"2\231,.se\361\302\021\357\316\277\302_\334\371)\367"
 334      7365F1C2 
 334      11EFCEBF 
 334      C25FDCF9 
 334      29F7
 335 0cf2 DEC4699A 		.ascii	"\336\304i\232\216\222L\303\316U\200.V&S\311\325\256"
ARM GAS  /tmp/ccXz8m7H.s 			page 26


 335      8E924CC3 
 335      CE55802E 
 335      562653C9 
 335      D5AE
 336 0d04 74AD3EB6 		.ascii	"t\255>\266\234\361\311-\325\214\237`\254\2104\027wv"
 336      9CF1C92D 
 336      D58C9F60 
 336      AC883417 
 336      7776
 337 0d16 0DF5DFB6 		.ascii	"\015\365\337\266\015/\356\334\340G\221r\323dz\015C?"
 337      0D2FEEDC 
 337      E0479172 
 337      D3647A0D 
 337      433F
 338 0d28 F1D18F30 		.ascii	"\361\321\2170\341k+\226q\326{7\316\323\223\335[\216"
 338      E16B2B96 
 338      71D67B37 
 338      CED393DD 
 338      5B8E
 339 0d3a A70EFAF3 		.ascii	"\247\016\372\363-\207e\241N.\013u\331a\341y\014\316"
 339      2D8765A1 
 339      4E2E0B75 
 339      D961E179 
 339      0CCE
 340 0d4c CEE5B050 		.ascii	"\316\345\260PN\333\375\376og\033\224\010\0052\231\232"
 340      4EDBFDFE 
 340      6F671B94 
 340      08053299 
 340      9A
 341 0d5d 76BB5A68 		.ascii	"v\273Zh\364\030Z\321\253}7>\276\320\357\341\243\350"
 341      F4185AD1 
 341      AB7D373E 
 341      BED0EFE1 
 341      A3E8
 342 0d6f A739682B 		.ascii	"\2479h+\364\301\264\243\2578\350\263\300\177\216\351"
 342      F4C1B4A3 
 342      AF38E8B3 
 342      C07F8EE9 
 343 0d7f DD8D19F8 		.ascii	"\335\215\031\370\203\237\354,\016\216~rt\241\371u4\272"
 343      839FEC2C 
 343      0E8E7E72 
 343      74A1F975 
 343      34BA
 344 0d91 577C4C78 		.ascii	"W|Lx\361C]\324\036\2510\007\306Z\233\366c\307;\035\342"
 344      F1435DD4 
 344      1EA93007 
 344      C65A9BF6 
 344      63C73B1D 
 345 0da6 9D84ED64 		.ascii	"\235\204\355dGk\266c'{\3010E\245\353\352w\016\244\003"
 345      476BB663 
 345      277BC130 
 345      45A5EBEA 
 345      770EA403 
 346 0dba 2BD6DC84 		.ascii	"+\326\334\204\227}\277\210\201\366T\322\336*Q+n$r\305"
 346      977DBF88 
 346      81F654D2 
 346      DE2A512B 
ARM GAS  /tmp/ccXz8m7H.s 			page 27


 346      6E2472C5 
 347 0dce 8D8456B1 		.ascii	"\215\204V\261_\035\037\317\257b\227\320\322\033Q(1\227"
 347      5F1D1FCF 
 347      AF6297D0 
 347      D21B5128 
 347      3197
 348 0de0 24BC5669 		.ascii	"$\274Vi\221\352&v\261\336o\016\330\177w\263\270`\241"
 348      91EA2676 
 348      B1DE6F0E 
 348      D87F77B3 
 348      B860A1
 349 0df3 B6ADD65C 		.ascii	"\266\255\326\\t\304\305\347\231\237\354\303|\356\305"
 349      74C4C5E7 
 349      999FECC3 
 349      7CEEC5
 350 0e02 34FC6902 		.ascii	"4\374i\002\015>\212\006\037\251\220/\234O\214\217\373"
 350      0D3E8A06 
 350      1FA9902F 
 350      9C4F8C8F 
 350      FB
 351 0e13 901E473D 		.ascii	"\220\036G=\3531\225\322\343\243\315b\307B\255\247\226"
 351      EB3195D2 
 351      E3A3CD62 
 351      C742ADA7 
 351      96
 352 0e24 7F6539F8 		.ascii	"\177e9\370\305]\317c=^\303z\364M\320\243\224\225\345"
 352      C55DCF63 
 352      3D5EC37A 
 352      F44DD0A3 
 352      9495E5
 353 0e37 A7684DBC 		.ascii	"\247hM\274\215 @\223\321\335\336-2z\227a\221\203X\223"
 353      8D204093 
 353      D1DDDE2D 
 353      327A9761 
 353      91835893 
 354 0e4b F37F018B 		.ascii	"\363\177\001\213\214\360X\204\275\306\027\364\030+\301"
 354      8CF05884 
 354      BDC617F4 
 354      182BC1
 355 0e5a B3FACD9A 		.ascii	"\263\372\315\232z\030\353q\301\255\246r!\035X\361\304"
 355      7A18EB71 
 355      C1ADA672 
 355      211D58F1 
 355      C4
 356 0e6b 4C5C538F 		.ascii	"L\\S\217b\240o\2767!\036\331\273\352\231=\332\237\017"
 356      62A06FBE 
 356      37211ED9 
 356      BBEA993D 
 356      DA9F0F
 357 0e7e 6E29A15E 		.ascii	"n)\241^\232\354\365b\245\027O)\231\275\023\033\015\366"
 357      9AECF562 
 357      A5174F29 
 357      99BD131B 
 357      0DF6
 358 0e90 FA31D0B2 		.ascii	"\3721\320\262)\327\230\275\225S\274\262\347\254C\270"
 358      29D798BD 
 358      9553BCB2 
ARM GAS  /tmp/ccXz8m7H.s 			page 28


 358      E7AC43B8 
 359 0ea0 4D31D9B3 		.ascii	"M1\331\263b\376z\317\210\344\277\031\254R\315\310\302"
 359      62FE7ACF 
 359      88E4BF19 
 359      AC52CDC8 
 359      C2
 360 0eb1 F59554D7 		.ascii	"\365\225T\327\320\301\032\243[s\032\227\376\324\004"
 360      D0C11AA3 
 360      5B731A97 
 360      FED404
 361 0ec0 0217D32D 		.ascii	"\002\027\323-\205\247o\322\266\321\332\270\305\030\366"
 361      85A76FD2 
 361      B6D1DAB8 
 361      C518F6
 362 0ecf 3219E45D 		.ascii	"2\031\344]O;\242%\247N\3757=\213u:\213u\3329A\247\357"
 362      4F3BA225 
 362      A74EFD37 
 362      3D8B753A 
 362      8B75DA39 
 363 0ee6 F599DD5E 		.ascii	"\365\231\335^\317*M0\371\032C%\214+\011:\017`\201E;"
 363      CF2A4D30 
 363      F91A4325 
 363      8C2B093A 
 363      0F608145 
 364 0efb 273F3217 		.ascii	"'?2\027q\031\352\036\363\014G\310\247\237\262\326\204"
 364      7119EA1E 
 364      F30C47C8 
 364      A79FB2D6 
 364      84
 365 0f0c 61E10678 		.ascii	"a\341\006x\320\"l\341\316\220\302\235\365\014G\012\367"
 365      D0226CE1 
 365      CE90C29D 
 365      F50C470A 
 365      F7
 366 0f1d 3621DC30 		.ascii	"6!\3340\017\032\363\033mM\177G\265\215p\3013\024)\330"
 366      0F1AF31B 
 366      6D4D7F47 
 366      B58D70C1 
 366      331429D8 
 367 0f31 B93CD465 		.ascii	"\271<\324e\036(\346G\014\232>\372n\231c\225\365,48\011"
 367      1E28E647 
 367      0C9A3EFA 
 367      6E996395 
 367      F52C3438 
 368 0f46 B257525C 		.ascii	"\262WR\\\360{}\3752\352w\177\375bu\356 \036O\2454 J"
 368      F07B7DFD 
 368      32EA777F 
 368      FD6275EE 
 368      201E4FA5 
 369 0f5d 75D32022 		.ascii	"u\323 \"\220?V\331\317\372\235\203$jX\363\370T\327a"
 369      903F56D9 
 369      CFFA9D83 
 369      246A58F3 
 369      F854D761 
 370 0f71 CDE2E73F 		.ascii	"\315\342\347?\362M\034\326l-i\340\311\316\345\230\023"
 370      F24D1CD6 
 370      6C2D69E0 
ARM GAS  /tmp/ccXz8m7H.s 			page 29


 370      C9CEE598 
 370      13
 371 0f82 1845999E 		.ascii	"\030E\231\236\305\303\274uX$v.S\037\327\361*+\227\251"
 371      C5C3BC75 
 371      5824762E 
 371      531FD7F1 
 371      2A2B97A9 
 372 0f96 FA97AEA3 		.ascii	"\372\227\256\243\241u\307\363\223$"
 372      A175C7F3 
 372      9324
 373 0fa0 68D82E09 		.ascii	"h\330.\011\033\\Y\321\256\320#\3611.B6\330\343\274\255"
 373      1B5C59D1 
 373      AED023F1 
 373      312E4236 
 373      D8E3BCAD 
 374 0fb4 18979DAB 		.ascii	"\030\227\235\253\300H\234\225\311\324\354\333\211\232"
 374      C0489C95 
 374      C9D4ECDB 
 374      899A
 375 0fc2 0DB60FEE 		.ascii	"\015\266\017\356\332|\342\007\235/j\213\036\206\021"
 375      DA7CE207 
 375      9D2F6A8B 
 375      1E8611
 376 0fd1 C2432235 		.ascii	"\302C\"5\320\273\233\275\202\\\013\020\003=/\337c\016"
 376      D0BB9BBD 
 376      825C0B10 
 376      033D2FDF 
 376      630E
 377 0fe3 FEA3F13D 		.ascii	"\376\243\361=f\016/Y\356\235\372\375{\315\224\307\236"
 377      660E2F59 
 377      EE9DFAFD 
 377      7BCD94C7 
 377      9E
 378 0ff4 A4202DA0 		.ascii	"\244 -\240\305\201\211\014\354\034\\\371"
 378      C581890C 
 378      EC1C5CF9 
 379 1000 CCB14CA7 		.ascii	"\314\261L\247vh\221\006X\325\232\376<\027\011Xm(\251"
 379      76689106 
 379      58D59AFE 
 379      3C170958 
 379      6D28A9
 380 1013 4AB43880 		.ascii	"J\2648\200(\012'&\0357\012\037Tm\324\312\004J\200%\001"
 380      280A2726 
 380      1D370A1F 
 380      546DD4CA 
 380      044A8025 
 381 1028 6A747C37 		.ascii	"jt|7{\2663\027p\233c\030\251r\252f\026\374\271S\212"
 381      7BB63317 
 381      709B6318 
 381      A972AA66 
 381      16FCB953 
 382 103d 6FAAC8E1 		.ascii	"o\252\310\341 \365\213\010]\250\271\373\340\223\262"
 382      20F58B08 
 382      5DA8B9FB 
 382      E093B2
 383 104c 9C1FBF70 		.ascii	"\234\037\277p\262\346{\251'\3645K4I\262\237@S\213\364"
 383      B2E67BA9 
ARM GAS  /tmp/ccXz8m7H.s 			page 30


 383      27F4354B 
 383      3449B29F 
 383      40538BF4 
 384 1060 13A78927 		.ascii	"\023\247\211'\320\264\031\375\304w\304\023\035\316'"
 384      D0B419FD 
 384      C477C413 
 384      1DCE27
 385 106f A8791EE4 		.ascii	"\250y\036\344N,W[\037 fl~$<\251\365\365\351]\307\036"
 385      4E2C575B 
 385      1F20666C 
 385      7E243CA9 
 385      F5F5E95D 
 386 1085 D644E88B 		.ascii	"\326D\350\213.\270\000.@\254p;\307\261\302-\277r\015"
 386      2EB8002E 
 386      40AC703B 
 386      C7B1C22D 
 386      BF720D
 387 1098 350D55D4 		.ascii	"5\015U\324\334\012\225M\022\026]g\275 .\027m\355\316"
 387      DC0A954D 
 387      12165D67 
 387      BD202E17 
 387      6DEDCE
 388 10ab 1CD32211 		.ascii	"\034\323\"\021[\273\316\002\332-)\240]w\300\216\275"
 388      5BBBCE02 
 388      DA2D29A0 
 388      5D77C08E 
 388      BD
 389 10bc 266EFB32 		.ascii	"&n\3732'k[]x\335C<1\346|B\270y\372\364\232{\032\343"
 389      276B5B5D 
 389      78DD433C 
 389      31E67C42 
 389      B879FAF4 
 390 10d4 75F1DFDC 		.ascii	"u\361\337\334_\223\312\324\314U\322\361TK\246&3?\023"
 390      5F93CAD4 
 390      CC55D2F1 
 390      544BA626 
 390      333F13
 391 10e7 551289CC 		.ascii	"U\022\211\314\364\250\020\224\323\252\232\314\006\377"
 391      F4A81094 
 391      D3AA9ACC 
 391      06FF
 392 10f5 E5BE0722 		.ascii	"\345\276\007\"\367\010sk\222\365\031\264\375\254\246"
 392      F708736B 
 392      92F519B4 
 392      FDACA6
 393 1104 31D5A4D6 		.ascii	"1\325\244\326\244\325\214\252\244\243\2155\215J:\326"
 393      A4D58CAA 
 393      A4A38D35 
 393      8D4A3AD6 
 394 1114 AAA4D51A 		.ascii	"\252\244\325\032%\335tgMC4z;$nW\233\352\324XL\215\331"
 394      25DD7467 
 394      4D43347A 
 394      3B246E57 
 394      9BEAD458 
 395 112b 1792A9A4 		.ascii	"\027\222\251\244z\273\252\324\305o\237!\317\274\375"
 395      7ABBAAD4 
 395      C56F9F21 
ARM GAS  /tmp/ccXz8m7H.s 			page 31


 395      CFBCFD
 396 113a CEDA3B66 		.ascii	"\316\332;f\374\347\2355\304\215\232x2\232h\211\251H"
 396      FCE79D35 
 396      C48D9A78 
 396      329A6889 
 396      A948
 397 114c 861A5CF4 		.ascii	"\206\032\\\364\364F\020BM\247\223\251\240,\377\363\257"
 397      F4461042 
 397      4DA793A9 
 397      A02CFFF3 
 397      AF
 398 115d EFFD5548 		.ascii	"\357\375UH\2263\350(\311\315\222\234\226\344\326\240"
 398      9633E828 
 398      C9CD929C 
 398      96E4D6A0 
 399 116d 5C9F501A 		.ascii	"\\\237P\0322\001\271>\236P\341\241L]K}@\256S2j@\316"
 399      3201B93E 
 399      9E50E1A1 
 399      4C5D4B7D 
 399      40AE5332 
 400 1184 C4FF4BF5 		.ascii	"\304\377K\365\311u\365er\242\256\036\235\204\344h*5"
 400      C975F565 
 400      72A2AE1E 
 400      9D84E468 
 400      2A35
 401 1196 27AEFAA3 		.ascii	"'\256\372\243 s\000\264SbA\2715\035\317\252\255\327"
 401      207300B4 
 401      536241B9 
 401      351DCFAA 
 401      ADD7
 402 11a8 5639393B 		.ascii	"V99;\277Y\315\200v!\271\2769\225\221\263 \254\252\316"
 402      BF59CD80 
 402      7621B9BE 
 402      399591B3 
 402      20ACAACE 
 403 11bc 09CAD144 		.ascii	"\011\312\321D*\0032\267\324\301\326\014\033H\331\202"
 403      2A0332B7 
 403      D4C1D60C 
 403      1B48D982 
 404 11cc 354AC2DE 		.ascii	"5J\302\336\007z\224\311u\2119H\227\240\234\252\257\227"
 404      077A94C9 
 404      75893948 
 404      97A09CAA 
 404      AF97
 405 11de B32174C8 		.ascii	"\263!t\310\250\000\020S\262J\031\260\221\212\316\221"
 405      A8001053 
 405      B24A19B0 
 405      918ACE91 
 406 11ee B32DD756 		.ascii	"\263-\327V\037T(hS%\337\373\233{\376U\376\335\257\356"
 406      1F542868 
 406      5325DFFB 
 406      9B7BFE55 
 406      FEDDAFEE 
 407 1202 79E077F7 		.ascii	"y\340w\367\377\372\337\177%\377[@F\267\312\345\246\272"
 407      FFFADF7F 
 407      25FF5B40 
 407      46B7CAE5 
ARM GAS  /tmp/ccXz8m7H.s 			page 32


 407      A6BA
 408 1214 4C56C9AA 		.ascii	"LV\311\252H^\260AK2\273@\374\377\2200\021\257C\017P"
 408      485EB041 
 408      4B32BB40 
 408      FCFF9030 
 408      11AF430F 
 409 1229 92CE983E 		.ascii	"\222\316\230>s\372\214\274\274Y\300\251G\236\325\032"
 409      73FA8CBC 
 409      BC59C0A9 
 409      479ED51A 
 410 1239 4F6611F5 		.ascii	"Of\021\365rk\2641\210\367u \336\\%\321\242\226Y\022"
 410      726BB431 
 410      88F77520 
 410      DE5C25D1 
 410      A2965912 
 411 124d 870CFFBA 		.ascii	"\207\014\377\2723(C\276x2\204\016\251\226,>\202c\372"
 411      332843BE 
 411      7832840E 
 411      A9962C3E 
 411      8263FA
 412 1260 65802D97 		.ascii	"e\200-\227\325&5\335\240&\243\363\253\344hK:\015\236"
 412      D52635DD 
 412      A026A3F3 
 412      ABE4684B 
 412      3A0D9E
 413 1273 2B472173 		.ascii	"+G!sC*=\177\212}\005\230P\022j9\370h,\016P\361l\030"
 413      432A3D7F 
 413      8A7D0598 
 413      50126A39 
 413      F8682C0E 
 414 128b B848A84A 		.ascii	"\270H\250J\262\2459$\3772\336\000\322\200\235\325yY"
 414      B2A53924 
 414      FF32DE00 
 414      D2809DD5 
 414      7959
 415 129d 499E1392 		.ascii	"I\236\023\222\233\224y\255\261\014r\342\206\244_\206"
 415      9B9479AD 
 415      B10C72E2 
 415      86A45F86 
 416 12ad 2488F6C0 		.ascii	"$\210\366\300\275\251d\203$\317\013\201\353fZ\022\000"
 416      BDA96483 
 416      24CF0B81 
 416      EB665A12 
 416      00
 417 12be 601CE539 		.ascii	"`\034\3459~\271\371g\231\260\\\017\265&\021\317\200"
 417      7EB9F967 
 417      99B05C0F 
 417      B52611CF 
 417      80
 418 12cf 78D1B9D9 		.ascii	"x\321\271\331\204\232\304G\360\234\012\271%\331\222"
 418      849AC447 
 418      F09C0AB9 
 418      25D992
 419 12de 5163725A 		.ascii	"QcrZI\306*@\366t65GN(\231l\205\254d\242\331x\223*\303"
 419      49C62A40 
 419      F6743635 
 419      474E2899 
ARM GAS  /tmp/ccXz8m7H.s 			page 33


 419      6C85AC64 
 420 12f8 637E59CE 		.ascii	"c~Y\3166\225\241\035\270c\324H4\305\223a\234hL\265\244"
 420      3695A11D 
 420      B863D448 
 420      34C59361 
 420      9C684CB5 
 421 130d 8D54534C 		.ascii	"\215TSL\231o\336L\2317\347\203\355\214T+\3344\257A\252"
 421      996FDE4C 
 421      9937E783 
 421      ED8C542B 
 421      DC34AF41 
 422 1322 1CA7E299 		.ascii	"\034\247\342\231X&[i\020`\225U)7(MM\012\326\017R\345"
 422      58265B69 
 422      10609555 
 422      2937284D 
 422      4D0AD60F 
 423 1338 5834AC7E 		.ascii	"X4\254~\010'g\314\304u\"\026\220\233@C\277\254\304b"
 423      082767CC 
 423      C4752216 
 423      909B4043 
 423      BFACC462 
 424 134c 7E393D63 		.ascii	"~9=cf\005X\0064\223\261u&\303I6\325\032\265\316Z\243"
 424      66055806 
 424      3493B175 
 424      26C34936 
 424      D51AB5CE 
 425 1362 D954539D 		.ascii	"\331TS\235q\026\226\023\177?CAEM\302\205(\011\0313\321"
 425      71169613 
 425      7F3F4341 
 425      454DC285 
 425      28091933 
 426 1377 A06663C8 		.ascii	"\240fc\310\025\301z({\332\006\253Dgy\264\251\310\005"
 426      15C17A28 
 426      7BDA06AB 
 426      446779B4 
 426      A9C805
 427 138a F079C6BA 		.ascii	"\360y\306\272\337\032M\347\361\247\302i\006\237\233"
 427      DF1A4DE7 
 427      F1A7C269 
 427      069F9B
 428 1399 F7CBE446 		.ascii	"\367\313\344F+V!5 \354$\233 \222\246\242!\223}?\\o\015"
 428      2B562135 
 428      20EC249B 
 428      2092A6A2 
 428      21937D3F 
 429 13b0 C9F0E8BC 		.ascii	"\311\360\350\274x\026y\016\\\251Of&\313\251\244\214"
 429      7816790E 
 429      5CA94F66 
 429      26CBA9A4 
 429      8C
 430 13c1 2EC94ABA 		.ascii	".\311J\272\001\314\\\237D\307Ir,\223\222\033\201\211"
 430      01CC5C9F 
 430      44C74972 
 430      2C93921B 
 430      8189
 431 13d3 0420D727 		.ascii	"\004 \327'q\304\010\001\225rt\036\324s\003\2446\214"
 431      71C40801 
ARM GAS  /tmp/ccXz8m7H.s 			page 34


 431      9572741E 
 431      D47303A4 
 431      368C
 432 13e5 5493EB5B 		.ascii	"T\223\353[\222\321\200\334\000~\013E\307Su\3406h\217"
 432      92D180DC 
 432      007E0B45 
 432      C75375E0 
 432      36688F
 433 13f8 8225BA08 		.ascii	"\202%\272\010f\315\324\207p\270\223\323b\332\217B\245"
 433      66CDD487 
 433      70B893D3 
 433      62DA8F42 
 433      A5
 434 1409 AF399BF6 		.ascii	"\2579\233\366\201\352\020\033Q\344\221\323\276X<]f\004"
 434      81EA101B 
 434      51E491D3 
 434      BE583C5D 
 434      6604
 435 141b 43191238 		.ascii	"C\031\0228\020\311\351k\034\364\355\260\030\005s\247"
 435      10C9E96B 
 435      1CF4EDB0 
 435      180573A7 
 436 142b 51B4C8D4 		.ascii	"Q\264\310\324\245A8?<\224\366#\226\257q`CE\202<\201"
 436      A541383F 
 436      3C94F623 
 436      96AF7160 
 436      4345823C 
 437 1440 983A17C7 		.ascii	"\230:\027\307.|\014f\262(\021\210'S\306\011$\202M\251"
 437      2E7C0C66 
 437      B2281188 
 437      2753C609 
 437      24824DA9 
 438 1454 180A6F70 		.ascii	"\030\012op\206R\241d\"\236\2048\\\006\3478\031h\211"
 438      8652A164 
 438      229E8438 
 438      5C06E738 
 438      196889
 439 1467 C730023E 		.ascii	"\3070\002>\242L\220\0104\230\027\033\254\213\220@\020"
 439      A24C9008 
 439      3498171B 
 439      AC8B9040 
 439      10
 440 1478 69046FC4 		.ascii	"i\004o\304w8\303\341\036\327\033\214\247\240d\030]o"
 440      7738C3E1 
 440      1ED71B8C 
 440      A7A06418 
 440      5D6F
 441 148a 067DEF40 		.ascii	"\006}\357@\227\232\210Kw\242KQ\342\322O\313!e\266\034"
 441      979A884B 
 441      77A24B51 
 441      E2D24FCB 
 441      2165B61C 
 442 149e 619C84B0 		.ascii	"a\234\204\260\234\261o\317\000\017C\252B\223\232\201"
 442      9CB16FCF 
 442      000F43AA 
 442      42939A81 
 443 14ae A812CF28 		.ascii	"\250\022\317(\331\354|8\251\217\335J\366\022\322Y\233"
ARM GAS  /tmp/ccXz8m7H.s 			page 35


 443      D9EC7C38 
 443      A98FDD4A 
 443      F612D259 
 443      9B
 444 14bf 9E686393 		.ascii	"\236hc\223\332\024M\245U\024J\021\256\234\235\024m\274"
 444      DA144DA5 
 444      55144A11 
 444      AE9C9D14 
 444      6DBC
 445 14d1 072EFC13 		.ascii	"\007.\374\023r\372\31454T6\035O6 \267\201{\311\226D"
 445      72FACC35 
 445      3454361D 
 445      4F3620B7 
 445      817BC996 
 446 14e6 22549F8C 		.ascii	"\"T\237\214d\232\325\250xG\020d\204\326\021nd\033\323"
 446      649AD5A8 
 446      78471064 
 446      84D6116E 
 446      641BD3
 447 14f9 A9563F84 		.ascii	"\251V?\204[\250\227\270\302\310\362d+1\375\037~Z;\363"
 447      5BA897B8 
 447      C2C8F264 
 447      2B31FD1F 
 447      7E5A3BF3 
 448 150d FF00A59B 		.ascii	"\377\000\245\233\012t"
 448      0A74
 449              		.text
 450              		.section	.gnu.lto_.symtab.e00190942f8ad83f,"",%progbits
 451 0000 5F726561 		.ascii	"_read_r\000\000\000\000\000\000\000\000\000\000\000"
 451      645F7200 
 451      00000000 
 451      00000000 
 451      0000
 452 0012 00A10000 		.ascii	"\000\241\000\000\000_lseek_r\000\000\000\000\000\000"
 452      005F6C73 
 452      65656B5F 
 452      72000000 
 452      000000
 453 0025 00000000 		.ascii	"\000\000\000\000\000\000\375\001\000\000_write_r\000"
 453      0000FD01 
 453      00005F77 
 453      72697465 
 453      5F7200
 454 0038 00000000 		.ascii	"\000\000\000\000\000\000\000\000\000\000\000\012\002"
 454      00000000 
 454      0000000A 
 454      02
 455 0045 00005F63 		.ascii	"\000\000_close_r\000\000\000\000\000\000\000\000\000"
 455      6C6F7365 
 455      5F720000 
 455      00000000 
 455      000000
 456 0058 00000011 		.ascii	"\000\000\000\021\002\000\000_sbrk_r\000\000\000\000"
 456      0200005F 
 456      7362726B 
 456      5F720000 
 456      0000
ARM GAS  /tmp/ccXz8m7H.s 			page 36


 457 006a 00000000 		.ascii	"\000\000\000\000\000\000\000\000\031\002\000\000_fs"
 457      00000000 
 457      19020000 
 457      5F6673
 458 0079 7461745F 		.ascii	"tat_r\000\000\000\000\000\000\000\000\000\000\000\000"
 458      72000000 
 458      00000000 
 458      00000000 
 458      00
 459 008a 25020000 		.ascii	"%\002\000\000_isatty_r\000\000\000\000\000\000\000\000"
 459      5F697361 
 459      7474795F 
 459      72000000 
 459      00000000 
 460 009f 00000000 		.ascii	"\000\000\000\000y\002\000\000chCoreAlloc\000\000\002"
 460      79020000 
 460      6368436F 
 460      7265416C 
 460      6C6F6300 
 461 00b5 00000000 		.ascii	"\000\000\000\000\000\000\000\000\000\177\002\000\000"
 461      00000000 
 461      007F0200 
 461      00
 462              		.text
 463              		.section	.gnu.lto_.opts,"",%progbits
 464 0000 272D6D63 		.ascii	"'-mcpu=cortex-m4' '-mno-thumb-interwork' '-mthumb' "
 464      70753D63 
 464      6F727465 
 464      782D6D34 
 464      2720272D 
 465 0033 272D6767 		.ascii	"'-ggdb' '-O0' '-fomit-frame-pointer' '-falign-funct"
 465      64622720 
 465      272D4F30 
 465      2720272D 
 465      666F6D69 
 466 0066 696F6E73 		.ascii	"ions=16' '-ffunction-sections' '-fdata-sections' '-"
 466      3D313627 
 466      20272D66 
 466      66756E63 
 466      74696F6E 
 467 0099 666E6F2D 		.ascii	"fno-common' '-flto'\000"
 467      636F6D6D 
 467      6F6E2720 
 467      272D666C 
 467      746F2700 
 468              		.text
 469              		.cfi_sections	.debug_frame
 470              		.section	.text._read_r,"ax",%progbits
 471              		.align	2
 472              		.p2align 4,,15
 473              		.global	_read_r
 474              		.thumb
 475              		.thumb_func
 476              		.type	_read_r, %function
 477              	_read_r:
 478              	.LFB241:
 479              		.file 1 "../ChibiOS/os/various/syscalls.c"
ARM GAS  /tmp/ccXz8m7H.s 			page 37


 480              		.loc 1 71 0
 481              		.cfi_startproc
 482              		@ args = 0, pretend = 0, frame = 16
 483              		@ frame_needed = 0, uses_anonymous_args = 0
 484              		@ link register save eliminated.
 485 0000 84B0     		sub	sp, sp, #16
 486              		.cfi_def_cfa_offset 16
 487 0002 0390     		str	r0, [sp, #12]
 488 0004 0291     		str	r1, [sp, #8]
 489 0006 0192     		str	r2, [sp, #4]
 490 0008 0093     		str	r3, [sp]
 491              		.loc 1 84 0
 492 000a 039B     		ldr	r3, [sp, #12]
 493 000c 1622     		movs	r2, #22
 494 000e 1A60     		str	r2, [r3]
 495              		.loc 1 85 0
 496 0010 4FF0FF33 		mov	r3, #-1
 497              		.loc 1 87 0
 498 0014 1846     		mov	r0, r3
 499 0016 04B0     		add	sp, sp, #16
 500              		@ sp needed
 501 0018 7047     		bx	lr
 502              		.cfi_endproc
 503              	.LFE241:
 504              		.size	_read_r, .-_read_r
 505 001a 00BFAFF3 		.section	.text._lseek_r,"ax",%progbits
 505      0080
 506              		.align	2
 507              		.p2align 4,,15
 508              		.global	_lseek_r
 509              		.thumb
 510              		.thumb_func
 511              		.type	_lseek_r, %function
 512              	_lseek_r:
 513              	.LFB242:
 514              		.loc 1 92 0
 515              		.cfi_startproc
 516              		@ args = 0, pretend = 0, frame = 16
 517              		@ frame_needed = 0, uses_anonymous_args = 0
 518              		@ link register save eliminated.
 519 0000 84B0     		sub	sp, sp, #16
 520              		.cfi_def_cfa_offset 16
 521 0002 0390     		str	r0, [sp, #12]
 522 0004 0291     		str	r1, [sp, #8]
 523 0006 0192     		str	r2, [sp, #4]
 524 0008 0093     		str	r3, [sp]
 525              		.loc 1 98 0
 526 000a 0023     		movs	r3, #0
 527              		.loc 1 99 0
 528 000c 1846     		mov	r0, r3
 529 000e 04B0     		add	sp, sp, #16
 530              		@ sp needed
 531 0010 7047     		bx	lr
 532              		.cfi_endproc
 533              	.LFE242:
 534              		.size	_lseek_r, .-_lseek_r
 535 0012 00BFAFF3 		.section	.text._write_r,"ax",%progbits
ARM GAS  /tmp/ccXz8m7H.s 			page 38


 535      0080AFF3 
 535      0080AFF3 
 535      0080
 536              		.align	2
 537              		.p2align 4,,15
 538              		.global	_write_r
 539              		.thumb
 540              		.thumb_func
 541              		.type	_write_r, %function
 542              	_write_r:
 543              	.LFB243:
 544              		.loc 1 104 0
 545              		.cfi_startproc
 546              		@ args = 0, pretend = 0, frame = 16
 547              		@ frame_needed = 0, uses_anonymous_args = 0
 548              		@ link register save eliminated.
 549 0000 84B0     		sub	sp, sp, #16
 550              		.cfi_def_cfa_offset 16
 551 0002 0390     		str	r0, [sp, #12]
 552 0004 0291     		str	r1, [sp, #8]
 553 0006 0192     		str	r2, [sp, #4]
 554 0008 0093     		str	r3, [sp]
 555              		.loc 1 115 0
 556 000a 009B     		ldr	r3, [sp]
 557              		.loc 1 116 0
 558 000c 1846     		mov	r0, r3
 559 000e 04B0     		add	sp, sp, #16
 560              		@ sp needed
 561 0010 7047     		bx	lr
 562              		.cfi_endproc
 563              	.LFE243:
 564              		.size	_write_r, .-_write_r
 565 0012 00BFAFF3 		.section	.text._close_r,"ax",%progbits
 565      0080AFF3 
 565      0080AFF3 
 565      0080
 566              		.align	2
 567              		.p2align 4,,15
 568              		.global	_close_r
 569              		.thumb
 570              		.thumb_func
 571              		.type	_close_r, %function
 572              	_close_r:
 573              	.LFB244:
 574              		.loc 1 121 0
 575              		.cfi_startproc
 576              		@ args = 0, pretend = 0, frame = 8
 577              		@ frame_needed = 0, uses_anonymous_args = 0
 578              		@ link register save eliminated.
 579 0000 82B0     		sub	sp, sp, #8
 580              		.cfi_def_cfa_offset 8
 581 0002 0190     		str	r0, [sp, #4]
 582 0004 0091     		str	r1, [sp]
 583              		.loc 1 125 0
 584 0006 0023     		movs	r3, #0
 585              		.loc 1 126 0
 586 0008 1846     		mov	r0, r3
ARM GAS  /tmp/ccXz8m7H.s 			page 39


 587 000a 02B0     		add	sp, sp, #8
 588              		@ sp needed
 589 000c 7047     		bx	lr
 590              		.cfi_endproc
 591              	.LFE244:
 592              		.size	_close_r, .-_close_r
 593 000e 00BF     		.section	.text._sbrk_r,"ax",%progbits
 594              		.align	2
 595              		.p2align 4,,15
 596              		.global	_sbrk_r
 597              		.thumb
 598              		.thumb_func
 599              		.type	_sbrk_r, %function
 600              	_sbrk_r:
 601              	.LFB245:
 602              		.loc 1 131 0
 603              		.cfi_startproc
 604              		@ args = 0, pretend = 0, frame = 16
 605              		@ frame_needed = 0, uses_anonymous_args = 0
 606 0000 00B5     		push	{lr}
 607              		.cfi_def_cfa_offset 4
 608              		.cfi_offset 14, -4
 609 0002 85B0     		sub	sp, sp, #20
 610              		.cfi_def_cfa_offset 24
 611 0004 0190     		str	r0, [sp, #4]
 612 0006 0091     		str	r1, [sp]
 613              		.loc 1 137 0
 614 0008 009B     		ldr	r3, [sp]
 615 000a 1846     		mov	r0, r3
 616 000c FFF7FEFF 		bl	chCoreAlloc
 617 0010 0390     		str	r0, [sp, #12]
 618              		.loc 1 138 0
 619 0012 039B     		ldr	r3, [sp, #12]
 620 0014 002B     		cmp	r3, #0
 621 0016 05D1     		bne	.L10
 622              		.loc 1 139 0
 623 0018 019B     		ldr	r3, [sp, #4]
 624 001a 0C22     		movs	r2, #12
 625 001c 1A60     		str	r2, [r3]
 626              		.loc 1 140 0
 627 001e 4FF0FF33 		mov	r3, #-1
 628 0022 00E0     		b	.L11
 629              	.L10:
 630              		.loc 1 142 0
 631 0024 039B     		ldr	r3, [sp, #12]
 632              	.L11:
 633              		.loc 1 148 0
 634 0026 1846     		mov	r0, r3
 635 0028 05B0     		add	sp, sp, #20
 636              		@ sp needed
 637 002a 5DF804FB 		ldr	pc, [sp], #4
 638              		.cfi_endproc
 639              	.LFE245:
 640              		.size	_sbrk_r, .-_sbrk_r
 641 002e 00BF     		.section	.text._fstat_r,"ax",%progbits
 642              		.align	2
 643              		.p2align 4,,15
ARM GAS  /tmp/ccXz8m7H.s 			page 40


 644              		.global	_fstat_r
 645              		.thumb
 646              		.thumb_func
 647              		.type	_fstat_r, %function
 648              	_fstat_r:
 649              	.LFB246:
 650              		.loc 1 153 0
 651              		.cfi_startproc
 652              		@ args = 0, pretend = 0, frame = 16
 653              		@ frame_needed = 0, uses_anonymous_args = 0
 654 0000 00B5     		push	{lr}
 655              		.cfi_def_cfa_offset 4
 656              		.cfi_offset 14, -4
 657 0002 85B0     		sub	sp, sp, #20
 658              		.cfi_def_cfa_offset 24
 659 0004 0390     		str	r0, [sp, #12]
 660 0006 0291     		str	r1, [sp, #8]
 661 0008 0192     		str	r2, [sp, #4]
 662              		.loc 1 157 0
 663 000a 0198     		ldr	r0, [sp, #4]
 664 000c 0021     		movs	r1, #0
 665 000e 3C22     		movs	r2, #60
 666 0010 FFF7FEFF 		bl	memset
 667              		.loc 1 158 0
 668 0014 019B     		ldr	r3, [sp, #4]
 669 0016 4FF40052 		mov	r2, #8192
 670 001a 5A60     		str	r2, [r3, #4]
 671              		.loc 1 159 0
 672 001c 0023     		movs	r3, #0
 673              		.loc 1 160 0
 674 001e 1846     		mov	r0, r3
 675 0020 05B0     		add	sp, sp, #20
 676              		@ sp needed
 677 0022 5DF804FB 		ldr	pc, [sp], #4
 678              		.cfi_endproc
 679              	.LFE246:
 680              		.size	_fstat_r, .-_fstat_r
 681 0026 00BFAFF3 		.section	.text._isatty_r,"ax",%progbits
 681      0080AFF3 
 681      0080
 682              		.align	2
 683              		.p2align 4,,15
 684              		.global	_isatty_r
 685              		.thumb
 686              		.thumb_func
 687              		.type	_isatty_r, %function
 688              	_isatty_r:
 689              	.LFB247:
 690              		.loc 1 165 0
 691              		.cfi_startproc
 692              		@ args = 0, pretend = 0, frame = 8
 693              		@ frame_needed = 0, uses_anonymous_args = 0
 694              		@ link register save eliminated.
 695 0000 82B0     		sub	sp, sp, #8
 696              		.cfi_def_cfa_offset 8
 697 0002 0190     		str	r0, [sp, #4]
 698 0004 0091     		str	r1, [sp]
ARM GAS  /tmp/ccXz8m7H.s 			page 41


 699              		.loc 1 169 0
 700 0006 0123     		movs	r3, #1
 701              		.loc 1 170 0
 702 0008 1846     		mov	r0, r3
 703 000a 02B0     		add	sp, sp, #8
 704              		@ sp needed
 705 000c 7047     		bx	lr
 706              		.cfi_endproc
 707              	.LFE247:
 708              		.size	_isatty_r, .-_isatty_r
 709 000e 00BF     		.text
 710              	.Letext0:
 711              		.file 2 "/nfs/nfs5/home/research/hardware/arm2/gcc-arm-embedded/gcc-arm-none-eabi-4_8-2014q2/lib/g
 712              		.file 3 "/nfs/nfs5/home/research/hardware/arm2/gcc-arm-embedded/gcc-arm-none-eabi-4_8-2014q2/arm-n
 713              		.file 4 "/nfs/nfs5/home/research/hardware/arm2/gcc-arm-embedded/gcc-arm-none-eabi-4_8-2014q2/arm-n
 714              		.file 5 "/nfs/nfs5/home/research/hardware/arm2/gcc-arm-embedded/gcc-arm-none-eabi-4_8-2014q2/arm-n
 715              		.file 6 "/nfs/nfs5/home/research/hardware/arm2/gcc-arm-embedded/gcc-arm-none-eabi-4_8-2014q2/arm-n
 716              		.file 7 "/nfs/nfs5/home/research/hardware/arm2/gcc-arm-embedded/gcc-arm-none-eabi-4_8-2014q2/arm-n
 717              		.file 8 "/nfs/nfs5/home/research/hardware/arm2/gcc-arm-embedded/gcc-arm-none-eabi-4_8-2014q2/arm-n
 718              		.file 9 "/nfs/nfs5/home/research/hardware/arm2/gcc-arm-embedded/gcc-arm-none-eabi-4_8-2014q2/arm-n
 719              		.file 10 "../ChibiOS/os/rt/ports/ARMCMx/compilers/GCC/chtypes.h"
 720              		.file 11 "../ChibiOS/os/rt/include/chsystypes.h"
 721              		.file 12 "../ChibiOS/os/rt/include/chschd.h"
 722              		.file 13 "../ChibiOS/os/rt/ports/ARMCMx/chcore.h"
 723              		.file 14 "../ChibiOS/os/rt/ports/ARMCMx/chcore_v7m.h"
 724              		.file 15 "../ChibiOS/os/rt/include/chtm.h"
 725              		.file 16 "../ChibiOS/os/rt/include/chsem.h"
 726              		.file 17 "../ChibiOS/os/rt/include/chmtx.h"
 727              		.file 18 "../ChibiOS/os/ext/CMSIS/include/core_cm4.h"