ARM GAS  /tmp/cchU44nR.s 			page 1


   1              		.syntax unified
   2              		.cpu cortex-m4
   3              		.fpu softvfp
   4              		.eabi_attribute 20, 1
   5              		.eabi_attribute 21, 1
   6              		.eabi_attribute 23, 3
   7              		.eabi_attribute 24, 1
   8              		.eabi_attribute 25, 1
   9              		.eabi_attribute 26, 1
  10              		.eabi_attribute 30, 6
  11              		.eabi_attribute 34, 1
  12              		.eabi_attribute 18, 4
  13              		.thumb
  14              		.file	"testheap.c"
  15              		.text
  16              	.Ltext0:
  17              		.section	.gnu.lto_.inline.8c106e511bff74f7,"",%progbits
  18 0000 789C6362 		.ascii	"x\234cb`b\300\006\034\031!4P\226\235\037H1-\220g`\201"
  18      6062C006 
  18      1C192134 
  18      50969D1F 
  18      48312D90 
  19 0017 A865E105 		.ascii	"\250e\341\005\022\314\014\317\031\257\262\002%\302\016"
  19      12CC0CCF 
  19      19AFB202 
  19      25C20E
  20 0026 AC674591 		.ascii	"\254gE\221A\020L\334\230b\314<\230J\260\251\303&\206"
  20      41104CDC 
  20      9862CC3C 
  20      984AB0A9 
  20      C32686
  21 0039 5F07E906 		.ascii	"_\007\351\006\3407\005\277:l\376@\223e\344\002\205\011"
  21      E03705BF 
  21      3A6CFE40 
  21      9365E402 
  21      8509
  22 004b 00749A08 		.ascii	"\000t\232\0103"
  22      33
  23              		.text
  24              		.section	.gnu.lto_heap1_setup.8c106e511bff74f7,"",%progbits
  25 0000 789C6362 		.ascii	"x\234cb`b@\007\"@\274\013\210\025@\034f\006F\240\012"
  25      60624007 
  25      2240BC0B 
  25      8815401C 
  25      660646A0 
  26 0015 46264646 		.ascii	"F&FF \207\221\241\236\211\261>\222\021\254l=\323\201"
  26      208791A1 
  26      9E89B13E 
  26      9211AC6C 
  26      3DD381
  27 0028 07FFFFAF 		.ascii	"\007\377\377\257\233pl\376\036\306\031L 1V\206\226\206"
  27      9B706CFE 
  27      1EC6194C 
  27      20315686 
  27      9686
  28 003a 8609406D 		.ascii	"\206\011@m\311`\025!`2\024\244\237\371<C\333\203\256"
  28      C9601521 
ARM GAS  /tmp/cchU44nR.s 			page 2


  28      603214A4 
  28      9FF93C43 
  28      DB83AE
  29 004d C75C898C 		.ascii	"\307\\\211\214\013\031Y\201\202\325\014\277\032:\032"
  29      0B195981 
  29      82D50CBF 
  29      1A3A1A
  30 005c 04321981 		.ascii	"\0042\031\201J!\246\201D82\031\031s\031\031\240\212"
  30      4A21A681 
  30      44383219 
  30      19731919 
  30      A08A
  31 006e 206A1A26 		.ascii	" j\032&2f22i3\254j\000\202\231@6s.#c\022D\017Le\004"
  31      32663232 
  31      6933AC6A 
  31      00829940 
  31      36732E23 
  32 0089 5098E505 		.ascii	"P\230\345\005\017C&\210s\221\241\361A\2672\314\"\010"
  32      0F432688 
  32      7391A1F1 
  32      41B732CC 
  32      2208
  33 009b 08015902 		.ascii	"\010\001Y\002\362\250\234\236\236\276sFfR\246\177\260"
  33      F2A89C9E 
  33      9EBE7346 
  33      6652A67F 
  33      B0
  34 00ac 7E496A71 		.ascii	"~Ijq\211~Q\011\230\316HM,\320Kf\000\000l%5J"
  34      897E5109 
  34      98CE484D 
  34      2CD04B66 
  34      00006C25 
  35              		.text
  36              		.section	.gnu.lto_heap1_execute.8c106e511bff74f7,"",%progbits
  37 0000 789CCD59 		.ascii	"x\234\315Y[l\024U\030>\347\314\336\357\327\356\255\335"
  37      5B6C1455 
  37      183EE7CC 
  37      DEEFD7EE 
  37      ADDD
  38 0012 6ECB9DD2 		.ascii	"n\313\235\322\355\215\233\306\204\030\236|\362A\032"
  38      ED8D9BC6 
  38      84189E7C 
  38      F2411A
  39 0021 31262675 		.ascii	"1&&uAX\015\244\221>\301\003\003-\006\021\"!\232\020"
  39      41580DA4 
  39      913EC103 
  39      032D0611 
  39      22219A10 
  40 0035 A2B10435 		.ascii	"\242\261\0045\030\014x!j\202\350F\005Z\260VB\214\205"
  40      180C7821 
  40      6A82E846 
  40      055AB056 
  40      428C85
  41 0048 78D9F822 		.ascii	"x\331\370\"*A\036\215\"\353\377\237\231=\323\355\314"
  41      2A411E8D 
  41      22EBFF9F 
  41      993DD3ED 
ARM GAS  /tmp/cchU44nR.s 			page 3


  41      CC
  42 0059 8ECBBA92 		.ascii	"\216\313\272\222\235\204s\246\337\1779\377\377}\377"
  42      9D8473A6 
  42      DF7F39FF 
  42      FF7DFF
  43 0068 CECE0646 		.ascii	"\316\316\006F\030\231{\335O\011y\"E\310Z\374\243\203"
  43      18997BDD 
  43      4F097922 
  43      45C85AFC 
  43      A383
  44 007a 50F0A08C 		.ascii	"P\360\240\214I\204\310\314\002\213E\242\355\200X\230"
  44      4984C8CC 
  44      028B45A2 
  44      ED805898 
  45 008a 15111B22 		.ascii	"\025\021\033\"V\216\330\230\035\021\007\"v\2168\230"
  45      568ED898 
  45      1D110722 
  45      768E3898 
  46 009a 13111722 		.ascii	"\023\021\027\"N\216\270\230\033\021\017\"n\216x\230"
  46      4E8EB898 
  46      1B110F22 
  46      6E8E7898 
  47 00aa 0F112F22 		.ascii	"\017\021/\"^\345\336\217\367>\032\000\253\237\257\001"
  47      5EE5DE8F 
  47      F73E1A00 
  47      AB9FAF01 
  48 00ba 16443C84 		.ascii	"\026D<\204x\220G\205X\030\221\010\"a\216DX\024\221\026"
  48      78904785 
  48      58189108 
  48      22618E44 
  48      58149116 
  49 00ce 44A21C69 		.ascii	"D\242\034ia1D\342\210\3048\022g\011D\222\210$8\222d"
  49      613144E2 
  49      88C43812 
  49      67094492 
  49      88243892 
  50 00e3 29445A11 		.ascii	")DZ\021Iq\244\225\265!\222F\244\215#i\232\201\265\235"
  50      4971A495 
  50      B5219246 
  50      A48D2369 
  50      9A81B59D 
  51 00f7 AF190AE4 		.ascii	"\257\031\012\344\020Jv2\311b\265\331\035N\227\333\343"
  51      104A7632 
  51      C962B5D9 
  51      1D4E97DB 
  51      E3
  52 0108 F5F903C1 		.ascii	"\365\371\003\301P8\022m\211\305\023\311Tk[\272=Cw>\206"
  52      5038126D 
  52      89C513C9 
  52      546B5BBA 
  52      3D43773E 
  53 011d 8EA4AB93 		.ascii	"\216\244\253\223\034\225\345C\305s\277\036\216\355+"
  53      1C95E543 
  53      C573BF1E 
  53      8EED2B
  54 012c CA07E53B 		.ascii	"\312\007\345;\245\022\315\243)G\311z\270\243\016\276"
  54      A512CDA3 
ARM GAS  /tmp/cchU44nR.s 			page 4


  54      2947C97A 
  54      B8A30EBE 
  55 013c 315AA981 		.ascii	"1Z\251\201\022&\237<.K\343\362\355RI\2529\246p\355\374"
  55      12269F3C 
  55      2E4BE3F2 
  55      ED5249AA 
  55      39A670ED 
  56 0151 0BAE77E4 		.ascii	"\013\256w\344\275r\251\264\363\377=\350\320\205\375"
  56      BD72A9B4 
  56      F3FF3DE8 
  56      D085FD
  57 0160 AE83BBD4 		.ascii	"\256\203\273\324\203$-(\243\004Y\032uP]\305\235n\346"
  57      83242D28 
  57      A304591A 
  57      75505DC5 
  57      9D6EE6
  58 0173 E2BE6EDE 		.ascii	"\342\276n\336\342\016\026ff\027ga\244\203\326V\337{"
  58      E20E1666 
  58      66176761 
  58      A483D656 
  58      DF7B
  59 0185 C76567F9 		.ascii	"\307eg\371\254Z{\252'\346^\211t\253yE:T\270\335\314"
  59      AC5A7BAA 
  59      27E65E89 
  59      74AB7945 
  59      3A54B8DD 
  60 019a C5BD74B1 		.ascii	"\305\275t\261\211\213{\365\342\313\211}\343\273\313"
  60      898B7BF5 
  60      E2CB897D 
  60      E3BBCB
  61 01a9 4F628991 		.ascii	"Ob\211\221%\265\015x\341\265\213\223G)\234\272\353V"
  61      25B50D78 
  61      E1B58B93 
  61      47299CBA 
  61      EB56
  62 01bb A9E46FBE 		.ascii	"\251\344o\276\306N73\353\037T\024\307Hw=\017\025F\372"
  62      C64E3733 
  62      EB1F5414 
  62      C748773D 
  62      0F1546FA 
  63 01cf 6A0CBB67 		.ascii	"j\014\273g\303t~\177B\326\206\311\312\310\312\032+<"
  63      C3747E7F 
  63      42D686C9 
  63      CAC8CA1A 
  63      2B3C
  64 01e1 BB61421E 		.ascii	"\273aB\036+\224Jkx\324}5F}[\021\365@-Q\005\030\334\347"
  64      2B944A6B 
  64      78D47D35 
  64      467D5B11 
  64      F5402D51 
  65 01f9 0ECCAED2 		.ascii	"\016\314\256\322\306\310\232\332\"\3453\332y\020\365"
  65      C6C89ADA 
  65      22E533DA 
  65      7910F5
  66 0208 E0BF459D 		.ascii	"\340\277E\235b\205b\251\364\335\273\257\377\364\012"
  66      628562A9 
  66      F4DDBBAF 
ARM GAS  /tmp/cchU44nR.s 			page 5


  66      FFF40A
  67 0217 0DADA664 		.ascii	"\015\255\246d\210\236\244\235\360\2069D/\301.\021 \326"
  67      889EA49D 
  67      F0863944 
  67      2FC12E11 
  67      20D6
  68 0229 828B5545 		.ascii	"\202\213UEl\370\207\035\027\207\2128a\237\202\335\005"
  68      6CF8871D 
  68      17878A38 
  68      619F82DD 
  68      05
  69 023a FB34EC6E 		.ascii	"\3734\354n0J\036\364\360\342\342S\335\374\252[@u\013"
  69      304A1EF4 
  69      F0E2E253 
  69      DDFCAA5B 
  69      40750B
  70 024d A25B083D 		.ascii	"\242[\010=\302\270DT\267\250\352\326\202\346\030Z\342"
  70      C2B84454 
  70      B7A8EAD6 
  70      82E6185A 
  70      E2
  71 025e B8245473 		.ascii	"\270$Ts\022\341\024.\255j\251m\352\236F\267v\\2h\356"
  71      12E1142E 
  71      AD6AA96D 
  71      EA9E46B7 
  71      765C3268 
  72 0273 C0BB4E5C 		.ascii	"\300\273N\\\346\251\241\363\325\314\013\320\274\020"
  72      E6A9A1F3 
  72      D5CC0BD0 
  72      BC10
  73 0281 2D8B7059 		.ascii	"-\213pY\254\232\227 \274\024\221.\\\226\001|\026\340"
  73      AC9A9720 
  73      BC14912E 
  73      5C96017C 
  73      16E0
  74 0293 6ED59C45 		.ascii	"n\325\234Es\017Zzq\351\303?\373\361n\000\227\345\340"
  74      730F5A7A 
  74      71E9C33F 
  74      FBF16E00 
  74      97E5E0
  75 02a6 750EBC56 		.ascii	"u\016\274V\300~\001\366\225\010\256\"|*\201\2721\370"
  75      C07E01F6 
  75      9508AE22 
  75      7C2A81BA 
  75      31F8
  76 02b8 92CE2879 		.ascii	"\222\316(y\224\032\024\012\206\350e\276^\201\225O/\\"
  76      941A140A 
  76      86E865BE 
  76      5E81954F 
  76      2F5C
  77 02ca EBF83A88 		.ascii	"\353\370:\210o\360\3224\031-\036\311\015\321o(\274\267"
  77      6FF0D234 
  77      192D1EC9 
  77      0DD16F28 
  77      BCB7
  78 02dc 931DE44F 		.ascii	"\223\035\344OxE\014\344\251=G\225\321\316\303\244\223"
  78      78450CE4 
ARM GAS  /tmp/cchU44nR.s 			page 6


  78      A93D4795 
  78      D1CEC3A4 
  78      93
  79 02ed 69B267FC 		.ascii	"i\262g\374\270\244sr\346\250\3623\001Ew)\006\270\036"
  79      B8A47372 
  79      E6A8F233 
  79      01457729 
  79      06B81E
  80 0300 CF53B772 		.ascii	"\317S\267r\240\032\221\247\036\236\243\370\326\347T"
  80      A01A91A7 
  80      1E9EA3F8 
  80      D6E754
  81 030f 81365126 		.ascii	"\2016Q&\262xs\370X\322\262\340f\013@\020\274\364O\221"
  81      B27873F8 
  81      58D2B2E0 
  81      660B4010 
  81      BCF44F91 
  82 0323 D199D113 		.ascii	"\321\231\321\023\007\244r\224\004\201h\3072 \243\265"
  82      07A47294 
  82      048168C7 
  82      3220A3B5 
  83 0333 8C5B4436 		.ascii	"\214[D6\177\216ZD6\211bL\036\177,L\220\261\033\342p"
  83      7F8E5A44 
  83      3689624C 
  83      1E7F2C4C 
  83      90B11BE2 
  84 0348 CB7AE565 		.ascii	"\313z\345e[\273\326a\015\322 \306\002%c\305\023\307"
  84      5BBBD661 
  84      0DD220C6 
  84      022563C5 
  84      13C7
  85 035a ECBA7683 		.ascii	"\354\272v\2039\345\\\254>OCJKok-YM[\222\360c\346\027"
  85      39E55CAC 
  85      3E4F434A 
  85      4B6F6B2D 
  85      594D5B92 
  86 0372 6D4D8F7E 		.ascii	"mM\217~\250\265e\203`\243\266\354U\332b\030\243o\313"
  86      A8B56583 
  86      60A3B6EC 
  86      55DA6218 
  86      A36FCB
  87 0385 6ED09695 		.ascii	"n\320\226\225\267e\343m\355\031\377\310DD\005A\365\\"
  87      B765E36D 
  87      ED19FFC8 
  87      44440541 
  87      F55C
  88 0397 5B6859BA 		.ascii	"[hY\272\035d{U5\317h\255;\364\255\253\351\036\255H7"
  88      1D647B55 
  88      35CF68AD 
  88      3BF4ADAB 
  88      E91EAD48 
  89 03ac 5B5B4CF1 		.ascii	"[[L\361\261\226\302Yg\212\263Z\012W])\306\212\237\230"
  89      B196C259 
  89      678AB35A 
  89      0A575D29 
  89      C68A9F98 
  90 03c0 8BED50C5 		.ascii	"\213\355P\305\036\033\377TO\337,?\247\360\2330\365s"
ARM GAS  /tmp/cchU44nR.s 			page 7


  90      1E1BFF54 
  90      4FDF2C3F 
  90      A7F09B30 
  90      F573
  91 03d2 89E199CC 		.ascii	"\211\341\231\314\225Kw\033\353\3410\024\343\362\034"
  91      954B771B 
  91      EBE13014 
  91      E3F21C
  92 03e1 31709CC4 		.ascii	"1p\234\304,y \031o\220V\316\222\267\312,I\030\243\237"
  92      2C792019 
  92      6F9056CE 
  92      92B7CA2C 
  92      4918A39F 
  93 03f5 25AFC12C 		.ascii	"%\257\301,\331\371,9\224Y*~\251\021\357\253S\273)-\205"
  93      D9F92C39 
  93      94592A7E 
  93      A911EFAB 
  93      53BB292D 
  94 040a BFCE145F 		.ascii	"\277\316\024_i)\002u\312?m.\177@\310:c*\253_\370]5\365"
  94      69290275 
  94      CA3F6D2E 
  94      7F40C83A 
  94      632AAB5F 
  95 0422 F309F9AF 		.ascii	"\363\011\371\257\011\371\203\015\223?\004\311\214\344"
  95      09F9830D 
  95      933F04C9 
  95      8CE4
  96 0430 0F5791DF 		.ascii	"\017W\221\337\2021z\371\303\006\362;\271\374.U\376\357"
  96      82317AF9 
  96      C306F23B 
  96      B9FC2E55 
  96      FEEF
  97 0442 35E22377 		.ascii	"5\342#wC|P\323\356\007-E\264N\355~4\327.\"\270\276."
  97      437C50D3 
  97      EE072D45 
  97      B44EED7E 
  97      34D72E22 
  98 0459 B86E6918 		.ascii	"\270ni\030\3271H\266^ys\252\340:^\205k\036\243\347:"
  98      D73148B6 
  98      5E7973AA 
  98      E03A5E85 
  98      6B1EA3E7 
  99 046e 6EC0B59B 		.ascii	"n\300\265\233s\355Q\271\376E#*Q\347\347\344\206\350"
  99      73ED51B9 
  99      FE45232A 
  99      51E7E7E4 
  99      86E8
 100 0480 3FF95FFA 		.ascii	"?\371_\372\237 _\374,jI\212A+_\203\324\313K\026T\244"
 100      9F205FFC 
 100      2C6A498A 
 100      412B5F83 
 100      D4CB4B16 
 101 0496 1A76584A 		.ascii	"\032vXJ0\255\035\006\275ISd\367\352\262O\033\372X\250"
 101      30AD1D06 
 101      BD495364 
 101      F7EAB24F 
 101      1BFA58A8 
ARM GAS  /tmp/cchU44nR.s 			page 8


 102 04aa B0FBE7D8 		.ascii	"\260\373\347\330[\271]\213\017(\366\233B\321\364&|\355"
 102      5BB95D8B 
 102      0F28F69B 
 102      42D1F426 
 102      7CED
 103 04bc 99557F7B 		.ascii	"\231U\177{\025)m\350\254\227\262}\216\224W\011\205\252"
 103      15296DE8 
 103      AC97B27D 
 103      8E945709 
 103      85AA
 104 04ce 7C78B49F 		.ascii	"|x\264\237\353\032\344\272\206\324\267\214\233\346\323"
 104      EB1AE4BA 
 104      86D4B78C 
 104      9BE6D3
 105 04dd 1B154F94 		.ascii	"\033\025O\224\337M\237(\0111\345\177\010\2253\015\233"
 105      DF4D9F28 
 105      0931E57F 
 105      0895330D 
 105      9B
 106 04ee F20E4866 		.ascii	"\362\016Hf\364D\351\254B\215\035c\364\324t\032Ly\230"
 106      F444E9AC 
 106      428D1D63 
 106      F4D4741A 
 106      4C7998
 107 0501 B31151A7 		.ascii	"\263\021Q\247\374/m\312\347\3259\345\267\265\024\363"
 107      FC2F6DCA 
 107      E7D539E5 
 107      B7B514F3 
 108 0511 EB7CA2FC 		.ascii	"\353|\242\374m\256\311<\301\365\035\301\365\202\206"
 108      6DAEC93C 
 108      C1F51DC1 
 108      F58286
 109 0520 71BD1092 		.ascii	"q\275\020\222\031=Q\026U\341\332\2011z\256\027\031p"
 109      193D5116 
 109      55E1DA81 
 109      317AAE17 
 109      1970
 110 0532 1DE55CB7 		.ascii	"\035\345\\\267\250\\\2274\242\026\337\015Q\031\215\250"
 110      A85C9734 
 110      A216DF0D 
 110      51198DA8 
 111 0542 BD6F9812 		.ascii	"\275o\230\022\265X\014\357\363V3\277\371\202\320}\033"
 111      B5580CEF 
 111      F35633BF 
 111      F982D07D 
 111      1B
 112 0553 CB252D69 		.ascii	"\313%-i\030\241K!\231\321\360vU!\324\2111zB\273\014"
 112      18A14B21 
 112      99D1F076 
 112      5521D489 
 112      317A42BB 
 113 0568 088D7142 		.ascii	"\010\215qB\343\352\233\365\001}\223\265\275Y\353\313"
 113      E3EA9BF5 
 113      017D93B5 
 113      BD59EBCB 
 114 0578 DF3D3973 		.ascii	"\337=9s\354*+\037\275Lq\341\024\025le\264\273F\321 "
 114      EC2A2B1F 
ARM GAS  /tmp/cchU44nR.s 			page 9


 114      BD4C71E1 
 114      14156C65 
 114      B4BB46D1 
 115 058d 5E7C385E 		.ascii	"^|8^\024\374f\033\306o\017$\343\374\222J~{\253\360\353"
 115      14FC661B 
 115      C66F0F24 
 115      E3FC924A 
 115      7E7BABF0 
 116 05a2 C2183DBF 		.ascii	"\302\030=\277\275\006\374&8\277I\365Qy\330|\332\272"
 116      BD06FC26 
 116      38BF49F5 
 116      5179D87C 
 116      DABA
 117 05b4 C5141D11 		.ascii	"\305\024\035\021]\3665\254\313~Hf4E\003U\272tc\214\276"
 117      5DF635AC 
 117      CB7E4866 
 117      34450355 
 117      BA74638C 
 118 05c9 CB01832E 		.ascii	"\313\001\203.S\274\313V\345\213h\362\372\233\302yyY"
 118      53BCCB56 
 118      E58B68F2 
 118      FA9BC279 
 118      7959
 119 05db 77C01F2A 		.ascii	"w\300\037*\203+\312?\344+\312[\011\336`\253(mU\225\322"
 119      832BCA3F 
 119      E42BCA5B 
 119      09DE60AB 
 119      286D5595 
 120 05f0 3CE8AF2F 		.ascii	"<\350\257/m\225Aim\274\2644/\355\263\337\324\201T\252"
 120      6D954169 
 120      6DBCB434 
 120      2FEDB3DF 
 120      D48154AA 
 121 0604 5A4EDE97 		.ascii	"ZN\336\227\367\252\262W\030\257\3141\3425\210\377]\306"
 121      F7AAB257 
 121      18AFCC31 
 121      E23588FF 
 121      5DC6
 122 0616 734C3C6D 		.ascii	"sL<m\222\344\031\363\034\031\310q\211\354\202_\037\033"
 122      92E419F3 
 122      1C19C871 
 122      89EC825F 
 122      1F1B
 123 0628 F03BFA32 		.ascii	"\360;\3722\277\325\212\005\010%Ng\263=k7\347\237\314"
 123      BFD58A05 
 123      08254E67 
 123      B33D6B37 
 123      E79FCC
 124 063b 3FFC48CF 		.ascii	"?\374H\317\310\306m#=\317\216\360}\363\306\241\341l"
 124      C8C66D23 
 124      3DCF8EF0 
 124      7DF3C6A1 
 124      E16C
 125 064d 8ED8F34F 		.ascii	"\216\330\363O\215l\031\316\366J[\263}\360\257\337\262"
 125      8D6C19CE 
 125      F64A5BB3 
 125      7DF0AFDF 
ARM GAS  /tmp/cchU44nR.s 			page 10


 125      B2
 126 065e 6D7B7680 		.ascii	"m{v\200\015\367\261\341~6<@\267\262m\333\377\001g@\373"
 126      0DF7B1E1 
 126      7E363C40 
 126      B7B26DDB 
 126      FF016740 
 127 0673 37       		.ascii	"7"
 128              		.text
 129              		.section	.gnu.lto_.symbol_nodes.8c106e511bff74f7,"",%progbits
 130 0000 789C4D90 		.ascii	"x\234M\220KN\303@\014\206\355\031\222\320r\010\016\306"
 130      4B4EC340 
 130      0C86ED19 
 130      92D07208 
 130      0EC6
 131 0012 8A93B8D2 		.ascii	"\212\223\270\322H \212\324\242T*R*\245\213\\\004i\366"
 131      48208AD4 
 131      A2542A52 
 131      2AA58B5C 
 131      0469F6
 132 0025 5DF50084 		.ascii	"]\365\000\204\221\350\0026\274\337\210\351\370OC6\237"
 132      91E80236 
 132      BCDF88E9 
 132      F84F4336 
 132      9F
 133 0036 1FFF6F7B 		.ascii	"\037\377o{b\310\320\221!\375\314#\013\321\305\212Hd"
 133      62C8D091 
 133      21FDCC23 
 133      0BD1C58A 
 133      4864
 134 0048 7D769C3D 		.ascii	"}v\234=0\345b\2637f\0222O,\374\257\371\302\246\020\312"
 134      30E562B3 
 134      37661232 
 134      4F2CFCAF 
 134      F9C2A610 
 135 005d 9ED946F0 		.ascii	"\236\331F\360+\213\321\346h\304\374\305b\373\354\203"
 135      2B8BD1E6 
 135      68C4FCC5 
 135      62FBEC83 
 136 006d 65AFCFBE 		.ascii	"e\257\317\276Y\262>\373d\311\373\354\235\245\330e\226"
 136      59B23EFB 
 136      64C9FBEC 
 136      9DA5D865 
 136      96
 137 007e 7272D7BF 		.ascii	"rr\327\277l\355\001\270OM\342\220|bA\256\335r@\276\325"
 137      6CED01B8 
 137      4F4DE290 
 137      7C6241AE 
 137      DD7240BE 
 138 0093 7A68B5DE 		.ascii	"zh\265\336\234\334\037n\365!qH\356T\331\200>q@\001t"
 138      9CDC1F6E 
 138      F5217148 
 138      EE54D980 
 138      3E714001 
 139 00a8 63653356 		.ascii	"ce3V\237O\214\363\317\241\007\003\350&\320\203\036\014"
 139      9F4F8CF3 
 139      CFA10703 
 139      E826D083 
ARM GAS  /tmp/cchU44nR.s 			page 11


 139      1E0C
 140 00ba 13F5BBA9 		.ascii	"\023\365\273\251\372\375\024\372\022\373K\350K\334W"
 140      FAFD14FA 
 140      12FB4BE8 
 140      4BDC57
 141 00c9 AAAE9961 		.ascii	"\252\256\231a\376\014\3769\356\230k?\\b_\005\177\005"
 141      FE0CFE39 
 141      EE986B3F 
 141      5C625F05 
 141      7F05
 142 00db 7F05FF02 		.ascii	"\177\005\377\002~\320\325\320\327\230S\343=K\274g\211"
 142      7ED0D5D0 
 142      D79853E3 
 142      3D4BBC67 
 142      89
 143 00ec 7B417773 		.ascii	"{Aws\365c\323\017\326 n\334UB\012\342\354\200\212\273"
 143      F563D30F 
 143      D6206EDC 
 143      55420AE2 
 143      EC808ABB 
 144 0100 85C66B10 		.ascii	"\205\306k\020\355\233N\274\351\354]\340\356b@\177>\221"
 144      ED9B4EBC 
 144      E9EC5DE0 
 144      EE62407F 
 144      3E91
 145 0112 BD24     		.ascii	"\275$"
 146              		.text
 147              		.section	.gnu.lto_.refs.8c106e511bff74f7,"",%progbits
 148 0000 789C6362 		.ascii	"x\234cb`bpe\200\000&\006&F&&If I\"ddab\005B\006&f\006"
 148      60627065 
 148      80002606 
 148      26462626 
 148      49662049 
 149 001f 002AF400 		.ascii	"\000*\364\000\324"
 149      D4
 150              		.text
 151              		.section	.gnu.lto_.decls.8c106e511bff74f7,"",%progbits
 152 0000 789CBD5B 		.ascii	"x\234\275[{t\024\325\031\2773\233}%\313C\255\012\266"
 152      7B7414D5 
 152      19BF339B 
 152      7D25CB43 
 152      AD0AB6
 153 0013 47174F55 		.ascii	"G\027OU\252B\000\243\3429=\202\245\307G{\324\323\212"
 153      AA4200A3 
 153      E2393D82 
 153      A5C7477B 
 153      D4D38A
 154 0026 E7F8DF76 		.ascii	"\347\370\337v\330L\262\253\331\207\263\023\002\355\037"
 154      D84CB2AB 
 154      D987B313 
 154      02ED1F
 155 0035 0E0986A8 		.ascii	"\016\011\206\250\330\206G\014\217\204$\310\243\274$"
 155      D886470C 
 155      8F8424C8 
 155      A3BC24
 156 0044 801A5128 		.ascii	"\200\032Q(C\205\030\020\201`\014\017+\015\017%@\242"
 156      43851810 
ARM GAS  /tmp/cchU44nR.s 			page 12


 156      81600C0F 
 156      2B0D0F25 
 156      40A2
 157 0056 51A48250 		.ascii	"Q\244\202P\266\337\2753\263;3;\263;\273H\347\234;sw"
 157      B6DFBD33 
 157      B33B333B 
 157      B33BBB48 
 157      E79C3B73 
 158 006b F6DEDFF7 		.ascii	"\366\336\337\367\376\356c\357\322\210F\367R\010\305"
 158      FEEE63EF 
 158      D28846F7 
 158      5208C5
 159 007a E16A2A42 		.ascii	"\341j*B\350\270\003!\033B\350a\224\274\\PZ\240\254\200"
 159      E8B80321 
 159      1B42E861 
 159      94BC5C50 
 159      5AA0AC80 
 160 008e B20ACA3C 		.ascii	"\262\012\312<h\277\030J\013\224\345PVC\311\203\367\353"
 160      68BF184A 
 160      0B94E550 
 160      5643C983 
 160      F7EB
 161 00a0 E0B91E4A 		.ascii	"\340\271\036J\007\224\243\024\322\\\270?@\243^x\277"
 161      0794A314 
 161      D25CB83F 
 161      40A35E78 
 161      BF
 162 00b1 169EA7E1 		.ascii	"\026\236\247\341\271\003\212\035\352\253\241\340\346"
 162      B9038A1D 
 162      EAABA1E0 
 162      E6
 163 00be 1FC28D96 		.ascii	"\037\302\215\226\333b:\264\012S}a>n\200R\007\357\007"
 163      DB623AB4 
 163      0A537D61 
 163      3E6E8052 
 163      07EF07
 164 00d1 C3D38324 		.ascii	"\303\323\203$\034\314\303\004(mP\316\300wk\240\234\225"
 164      1CCCC304 
 164      286D50CE 
 164      C0776BA0 
 164      9C95
 165 00e3 E935C1B3 		.ascii	"\3515\301\263\001J\037\224\025P\372\241\314\207\362"
 165      014A1F94 
 165      1550FAA1 
 165      CC87F2
 166 00f2 3594A532 		.ascii	"5\224\2452\276C\306^-\313\207e\233'\313\251\360\362"
 166      BE43C65E 
 166      2DCB8765 
 166      9B27CBA9 
 166      F0F2
 167 0104 8D8E97DB 		.ascii	"\215\216\227\333\320\022A\334\337\363\362\361^j\241"
 167      D01241DC 
 167      DFF3F2F1 
 167      5E6AA1
 168 0113 20CE1440 		.ascii	" \316\024@\215\002\205nBu\002\\\315\325\202@\361\014"
 168      8D02856E 
 168      4275025C 
ARM GAS  /tmp/cchU44nR.s 			page 13


 168      CDD58240 
 168      F10C
 169 0125 F5F08DE8 		.ascii	"\365\360\215\3509\212\241\006\273\221\227T<n\302+B\014"
 169      398AA106 
 169      BB919754 
 169      3C6EC22B 
 169      420C
 170 0137 B594BA49 		.ascii	"\265\224\272I\256=k\223\020i4\202Bw\243U\320\277V\020"
 170      AE3D6B93 
 170      10693482 
 170      4277A355 
 170      D0BF5610 
 171 014b 96DE8C8C 		.ascii	"\226\336\214\214\256;\321rL@\370\273`#\360\030\240\205"
 171      AE3BD172 
 171      4C40F8BB 
 171      6023F018 
 171      A085
 172 015d BA4DDD84 		.ascii	"\272M\335\204\241\336\244\350TV\305E\355\236\332\031"
 172      A1DEA4E8 
 172      5456C545 
 172      ED9EDA19 
 173 016d 3D606DAF 		.ascii	"=`m\257D\235FE\0244^F\335\235\026}\205\036}e*zOmO]\365"
 173      449D4645 
 173      14345E46 
 173      DD9D167D 
 173      851E7D65 
 174 0188 A919D49C 		.ascii	"\251\031\324\234\252\346\016a \036\037\222\205\"V\313"
 174      AAE60E61 
 174      201E1F92 
 174      852256CB 
 175 0198 8AB01155 		.ascii	"\212\260\021U\243\002\364\252 T\342\216\217w\014\276"
 175      A302F4AA 
 175      2054E28E 
 175      8F770CBE 
 176 01a8 1ECDC128 		.ascii	"\036\315\301(\336\232\023\240}\031@\240\025\004/4\277"
 176      DE9A13A0 
 176      7D1940A0 
 176      15042F34 
 176      BF
 177 01b9 032D0375 		.ascii	"\003-\003u\211\027\277\245@\252u\324\365\000\302j\245"
 177      8917BFA5 
 177      40AA75D4 
 177      F500C26A 
 177      A5
 178 01ca CA8C41A3 		.ascii	"\312\214A\243\030\356\322\012\275\245\216\004T\020\267"
 178      18EED20A 
 178      BDA58E04 
 178      5410B7
 179 01d9 557B843C 		.ascii	"U{\204<\351=\322)Ju\215@\315\300\260\330\331\3360\\"
 179      E93DD229 
 179      4A758D40 
 179      CDC0B0D8 
 179      D9DE305C 
 180 01ed 68FE27A5 		.ascii	"h\376'\245\341_\247\205\011\005\246ZxG\253\0057\252"
 180      E15FA785 
 180      0905A65A 
 180      7847AB05 
ARM GAS  /tmp/cchU44nR.s 			page 14


 180      37AA
 181 01ff 49A220C3 		.ascii	"I\242 \303^\222\344=\361Y\335\347\250J\300g\2506\312"
 181      5E92E43D 
 181      F159DDE7 
 181      A84AC067 
 181      A836CA
 182 0212 0DBD2B69 		.ascii	"\015\275+i\255\374\014ewk\015\010\237\225\006\030\217"
 182      ADFC0C65 
 182      776B0D08 
 182      9F950618 
 182      8F
 183 0223 7C2D5770 		.ascii	"|-Wp6\030\242vJ\224\226\370\246\271m\277\022\004\027"
 183      3618A276 
 183      4A9496F8 
 183      A6B96DBF 
 183      120417
 184 0236 43BD0D72 		.ascii	"C\275\015r\323h\275\216\264F\027\222\214f\362o\001\000"
 184      D368BD8E 
 184      B4461792 
 184      8C66F26F 
 184      0100
 185 0248 6315A77C 		.ascii	"c\025\247|G\243-\264b/#8\271\252a^m+\001|\365\2639\324"
 185      47A32DB4 
 185      622F2338 
 185      B9AA615E 
 185      6D2B017C 
 186 0260 9B55424D 		.ascii	"\233UBM\225\343\0064\027[Ht\250\335c\242\202\341\"\344"
 186      95E30634 
 186      175B4874 
 186      A8DD63A2 
 186      82E122E4 
 187 0274 3E22E4B6 		.ascii	">\"\344\266Q7h\335c^\273\315+\275\316\354\035u\325\177"
 187      513768DD 
 187      635EBBCD 
 187      2BBDCEEC 
 187      1D75D57F 
 188 0288 BB45689E 		.ascii	"\273Eh\236=L\266\253X-\324P36\374\302\230\242\254\334"
 188      3D4CB6AB 
 188      582DD450 
 188      3336FCC2 
 188      98A2ACDC 
 189 029c 83DD5FB7 		.ascii	"\203\335_\267\310\226\375\220X\366\222N\275\331\200"
 189      C896FD90 
 189      58F6924E 
 189      BDD980
 190 02ab 352EDAB7 		.ascii	"5.\332\267]\006k'`?\332r\006k\256?\336a#f\337E\240j"
 190      5D066B27 
 190      603FDA72 
 190      066BAE3F 
 190      DE612366 
 191 02c3 EC7A8F73 		.ascii	"\354z\217s\353<\316\255\3658\267;Y\211+\2276\277^\323"
 191      EB3CCEAD 
 191      F538B73B 
 191      59892B97 
 191      36BF5ED3 
 192 02d7 3E349A67 		.ascii	">4\232gWLj$\246\005\017j\337\363\207\031\220\366mrv"
 192      574C6A24 
ARM GAS  /tmp/cchU44nR.s 			page 15


 192      A6050F6A 
 192      DFF38719 
 192      90F66D72 
 193 02ec 699EA80A 		.ascii	"i\236\250\012S\015\026fk\257>\263\324\267\343t\265\327"
 193      530D1666 
 193      6BAF3EB3 
 193      D4B7E374 
 193      B5D7
 194 02fe 426211C4 		.ascii	"Bb\021\304\246\366\217)a\256Gv\324f\207Y>\300H\235z"
 194      A6F68F29 
 194      61AE4776 
 194      D4668759 
 194      3EC0489D 
 195 0313 1F5DD84E 		.ascii	"\037]\330N{\245\327\231}tqucj\006\323()\205^\0274\226"
 195      7BA5D799 
 195      7D747175 
 195      636A06D3 
 195      2829855E 
 196 032a 2F1A2D24 		.ascii	"/\032-$:\3554i\236I\247\225b\003\214O\014C\255%\251"
 196      3AED3469 
 196      9E49A795 
 196      62038C4F 
 196      0C43AD25 
 197 033f 6449AE60 		.ascii	"dI\256`\211\213Fo\022\214\2759\246\211Jq\203\234\322"
 197      898B466F 
 197      128CBD39 
 197      A6894A71 
 197      839CD2
 198 0352 95CCBA3C 		.ascii	"\225\314\272<k<o\012O\253su<\025\306Z\273.\375\031a"
 198      6B3C6F0A 
 198      4FAB7375 
 198      3C15C65A 
 198      BB2EFD19 
 199 0367 B8CCE412 		.ascii	"\270\314\344\022\304C\217\3262\312\250\250\362&\230"
 199      C4438FD6 
 199      32CAA8A8 
 199      F22698
 200 0376 BEC87D87 		.ascii	"\276\310}\207\242D\336\350>\333\343 \241~\224\214\255"
 200      A244DEE8 
 200      3EDBE320 
 200      A17E948C 
 200      AD
 201 0387 9FD98D07 		.ascii	"\237\331\215\007WS\030\032}A\272\034\323\207\3009\306"
 201      5753181A 
 201      7D41BA1C 
 201      D387C039 
 201      C6
 202 0398 2BBDCD1C 		.ascii	"+\275\315\034\001\347\277tC\000\030\2202Lt\337\210\267"
 202      01E7BF74 
 202      43001890 
 202      324C74DF 
 202      88B7
 203 03aa EC1284A1 		.ascii	"\354\022\204\241\014\365%\341\370u\207!\307\346\001"
 203      0CF525E1 
 203      F8758721 
 203      C7E601
 204 03b9 4BA346D2 		.ascii	"K\243F\322\245W\307q\317\326s\027F/ \310\275\226f\004"
ARM GAS  /tmp/cchU44nR.s 			page 16


 204      A557C771 
 204      CFD67317 
 204      462F20C8 
 204      BD966604 
 205 03cd DFBE6610 		.ascii	"\337\276f\020O\006R4\347)\344\177\233\024\243\341\233"
 205      4F065234 
 205      E729E47F 
 205      9B14A3E1 
 205      9B
 206 03de 0B4EA2F7 		.ascii	"\013N\242\367~\"E\247\261\024\34604:B\272\014\244J\261"
 206      7E2245A7 
 206      B114E630 
 206      343A42BA 
 206      0CA44AB1 
 207 03f2 7FBC24C5 		.ascii	"\177\274$\305\200%)\352\377\332(\007A\037\011\314\223"
 207      802529EA 
 207      FFDA2807 
 207      411F09CC 
 207      93
 208 0403 09D8DC82 		.ascii	"\011\330\334\202j\321^\022\345\022\330\331\254\301\274"
 208      6AD15E12 
 208      E512D8D9 
 208      ACC1BC
 209 0412 1AB0A6BD 		.ascii	"\032\260\246\275R\204Z\237.}\366\2038l+\021\377\002"
 209      52845A9F 
 209      2E7DF683 
 209      386C2B11 
 209      FF02
 210 0424 89E9554E 		.ascii	"\211\351UN\303a\320\002R\343\242\235\312\210z\211@m"
 210      C361D002 
 210      52E3A29D 
 210      CA887A89 
 210      406D
 211 0436 C819AAFE 		.ascii	"\310\031\252\376\270XOU\021\250+\004\352}\247~Du\352"
 211      B8584F55 
 211      11A82B04 
 211      EA7DA77E 
 211      4475EA
 212 0449 4654A776 		.ascii	"FT\247v\244s\272\223\025y\016wm\233\323h\247\323\202"
 212      A473BA93 
 212      15790E77 
 212      6D9BD368 
 212      A7D382
 213 045c EDCCB350 		.ascii	"\355\314\263P\317\226s\342C\013\325C\250\351\310F\243"
 213      CF9673E2 
 213      430BD543 
 213      A8E9C846 
 213      A3
 214 046d 3D845615 		.ascii	"=\204V\025\255\363\345\203\335{*\251\031Do\370\273\314"
 214      ADF3E583 
 214      DD7B2AA9 
 214      19446FF8 
 214      BBCC
 215 047f CEFCCEEE 		.ascii	"\316\374\316\356zk!\231X\037\374\222\320\357\"\364k"
 215      7A6B2199 
 215      581FFC92 
 215      D0EF22F4 
ARM GAS  /tmp/cchU44nR.s 			page 17


 215      6B
 216 0490 F4F4E7C4 		.ascii	"\364\364\347\304{'H\261Tc\211|\347\201\371F#\254\311"
 216      7B2748B1 
 216      5463897C 
 216      E781F946 
 216      23ACC9
 217 04a3 E228310D 		.ascii	"\342(1\015\374\352[Y\310\3314\016\232\331.\275sL(P\023"
 217      FCEA5B59 
 217      C8D9340E 
 217      9AD92EBD 
 217      734C2850 
 218 04b8 239F35F3 		.ascii	"#\2375\363\345:\227\302~N1\013rv\374n\325FAx\305\241"
 218      E53A97C2 
 218      7E4E310B 
 218      7276FC6E 
 218      D5464178 
 219 04ce F0B0206B 		.ascii	"\360\260 kD\257F\023]\007H\026\220\300\026[\0013\365"
 219      44AF4613 
 219      5D074816 
 219      90C0165B 
 219      0133F5
 220 04e1 A44AB15B 		.ascii	"\244J\261[\015\266$k0-g\207\324`-V\300\206\232svD\015"
 220      0DB6246B 
 220      302D6787 
 220      D4602D56 
 220      C0869A73 
 221 04f8 B62C6B30 		.ascii	"\266,k0-g\377R\203\255\264\0026\314\234\263\243j\260"
 221      2D67FF52 
 221      83ADB402 
 221      36CC9CB3 
 221      A36AB0
 222 050b 35598369 		.ascii	"5Y\203i9\033P\203\255\267\002\3465\340,q\231\3156g\321"
 222      391B5083 
 222      ADB702E6 
 222      35E02C71 
 222      99CD3667 
 223 0520 AAD9E646 		.ascii	"\252\331\346F\227\222\022r\237 \276\353\3126\205i\344"
 223      97921272 
 223      9F20BEEB 
 223      CA368569 
 223      E4
 224 0531 C663E943 		.ascii	"\306c\351C\357\313q!\015h[\254 \246q\230w\325\243\343"
 224      EFCB7121 
 224      0D685BAC 
 224      20A67198 
 224      77D5A3E3 
 225 0545 8EACC1B4 		.ascii	"\216\254\301\264f\351\302`\232\\#\017I=\313\305a\013"
 225      66E9C260 
 225      9A5C230F 
 225      493DCBC5 
 225      610B
 226 0557 92D9CEA5 		.ascii	"\222\331\316\245`\341\345\224\224\332j\005\201N4\026"
 226      60E1E594 
 226      94DA6A05 
 226      814E3416 
 227 0567 860D336E 		.ascii	"\206\0153n\313P\253\350;\360\026\016\355Np!\325\225"
 227      CB50ABE8 
ARM GAS  /tmp/cchU44nR.s 			page 18


 227      3BF0160E 
 227      ED4E7021 
 227      D595
 228 0579 9AB4DADA 		.ascii	"\232\264\332\332\343\322m\236)W\246\256f\236\260R\355"
 228      E3D26D9E 
 228      2957A6AE 
 228      669EB052 
 228      ED
 229 058a 099D56D4 		.ascii	"\011\235V\324\224&\024\006R\324$-\270\315\210\277\245"
 229      94261406 
 229      52D4242D 
 229      B8CD88BF 
 229      A5
 230 059b 267E286B 		.ascii	"&~(k\342Z\033]\332\333p\263\320#R*e\247\265\014\236"
 230      E25A1B5D 
 230      DADB70B3 
 230      D023522A 
 230      65A7B50C 
 231 05b0 C1F41E94 		.ascii	"\301\364\036\224'\013\033h<Y8\3412\234wX\200j\\\264"
 231      270B1B68 
 231      3C5938E1 
 231      329C7758 
 231      806A5CB4 
 232 05c4 EE1E69FB 		.ascii	"\356\036i\373\206\000\365\345\014T\177\274\247J\346"
 232      8600F5E5 
 232      0C547FBC 
 232      A74AE6
 233 05d3 A98D407D 		.ascii	"\251\215@}\2372FQ\272\011\014\245\235bP\356d%eY\377"
 233      9F324651 
 233      BA090CA5 
 233      9D6250EE 
 233      64256559 
 234 05e8 13B6A5D1 		.ascii	"\023\266\245\321\025\275\3054\002\245\311O\211\240\357"
 234      15BDC534 
 234      02A5C94F 
 234      89A0EF
 235 05f7 F8F5E6B7 		.ascii	"\370\365\346\267\004\241\312\221\215\315z\024\233m!"
 235      04A1CA91 
 235      8DCD7A14 
 235      9B6D21
 236 0606 FAA976EB 		.ascii	"\372\251v\353\365\3636\235\235\202h\364Ww\266\202\270"
 236      F5F3369D 
 236      9D8268F4 
 236      5777B682 
 236      B8
 237 0617 74820CE4 		.ascii	"t\202\014\344 \310\200\"\310v\"\310\033?\201 K\262\026"
 237      20C88022 
 237      C87622C8 
 237      1B3F8120 
 237      4BB216
 238 062a 64A84A10 		.ascii	"d\250J\020\2620{j3I\303\2266I\332i\335&\311\371}x7\006"
 238      B2307B6A 
 238      3349C396 
 238      3649DA69 
 238      DD26C9F9 
 239 0642 BFCEBC16 		.ascii	"\277\316\274\026\235w@\265\342\020\254\2558:\344\025"
 239      9D7740B5 
ARM GAS  /tmp/cchU44nR.s 			page 19


 239      E210ACAD 
 239      383AE415 
 240 0652 C72EA2B1 		.ascii	"\307.\242\261\345n\203(\263\202\324\334x\344F\274\037"
 240      E56E8328 
 240      B382D4DC 
 240      78E446BC 
 240      1F
 241 0663 BD87C0AC 		.ascii	"\275\207\300\254\311\025\006\202\365B\265l\303}\004"
 241      C9150682 
 241      F542B56C 
 241      C37D04
 242 0672 6A538A0D 		.ascii	"jS\212\015\035:\023:\264&\204\217\230\326\005\262\235"
 242      1D3A133A 
 242      B426848F 
 242      98D605B2 
 242      9D
 243 0683 F692FC06 		.ascii	"\366\222\374\006\177p\242\377{?\032m%\354c\363\3452"
 243      7F70A2FF 
 243      7B3F1A6D 
 243      25EC63F3 
 243      E532
 244 0695 BBC5EE23 		.ascii	"\273\305\356#>\261Y\036\305%\023\355\270*\304Jq\333"
 244      3EB1591E 
 244      C52513ED 
 244      B82AC44A 
 244      71DB
 245 06a7 5C65CD3C 		.ascii	"\\e\315<\001\217\343\237\\%\034\231\370i\006(\335h\325"
 245      018FE39F 
 245      5C251C99 
 245      F8690628 
 245      DD68D5
 246 06ba 6F32FC24 		.ascii	"o2\374$\266Dz\206\255%\036x\230\314\320\272R\354\335"
 246      B6447A86 
 246      AD251E78 
 246      98CCD0BA 
 246      52ECDD
 247 06cd 47E95610 		.ascii	"G\351V\020}\332-w\263P:\244\036\012O]\265\035\016\375"
 247      7DDA2D77 
 247      B3503AA4 
 247      1E0A4F5D 
 247      B51D0EFD 
 248 06e1 5E6B87FE 		.ascii	"^k\207\376\253T\334\302y\326v`\376\244`y\210 \347\011"
 248      AB54DCC2 
 248      79D67660 
 248      FEA46079 
 248      8820E709 
 249 06f5 D963FAD5 		.ascii	"\331c\372\325^\335\306c\325\362\202\377\230\205\345"
 249      5EDDC663 
 249      D5F282FF 
 249      9885E5
 250 0704 9E207E4E 		.ascii	"\236 ~N\366\255\224\215\250e\371\012\252Lu\242z\206"
 250      F6AD948D 
 250      A865F90A 
 250      AA4C75A2 
 250      7A86
 251 0716 99513DE2 		.ascii	"\231Q=\342Q\266cL6Y\247W\316:\247\210*\327\346\353m"
 251      51B6634C 
ARM GAS  /tmp/cchU44nR.s 			page 20


 251      3659A757 
 251      CE3AA788 
 251      2AD7E6EB 
 252 072b BE479FA7 		.ascii	"\276G\237\247\263\012\272\215zi\254\256\331\022\227"
 252      B30ABA8D 
 252      7A69ACAE 
 252      D91297
 253 073a 994FF5A8 		.ascii	"\231O\365\250}\352\275\374\253\362\000\360\251\336'"
 253      7DEABDFC 
 253      ABF200F0 
 253      A9DE27
 254 0749 A519BA2E 		.ascii	"\245\031\272.d\216\231\204\014\346\240_\315\301\266"
 254      648E9984 
 254      0CE6A05F 
 254      CDC1B6
 255 0758 ABE340FC 		.ascii	"\253\343@\374\374\323\354\267\250\016\311\246\033 \246"
 255      FCD3ECB7 
 255      A80EC9A6 
 255      1B20A6
 256 0767 6B4F31DD 		.ascii	"kO1\335%\375d\312\312~\315\201\\\005I\\4:\234oa\266"
 256      25FD64CA 
 256      CA7ECD81 
 256      5C05495C 
 256      343A9C6F 
 257 077d EBD59A57 		.ascii	"\353\325\232W\345\303`\216\236\247\245\020\317\270\351"
 257      E5C3608E 
 257      9EA7A510 
 257      CFB8E9
 258 078c 93C85D1D 		.ascii	"\223\310]\035\303;\2102\376C\343(\372B\247\014\013\233"
 258      C33B8832 
 258      FE43E328 
 258      FA42A70C 
 258      0B9B
 259 079e 477DA4CB 		.ascii	"G}\244\313E}8C\332\227\267s/Z\332\274\371\3645\365F"
 259      457D3843 
 259      DA97B773 
 259      2F5ADABC 
 259      F9F435F5 
 260 07b3 28437D4F 		.ascii	"(C}O\3212l\256\372\324\2300\311\037\330\227\254\252"
 260      D1326CAE 
 260      FAD49830 
 260      C91FD897 
 260      ACAA
 261 07c5 2ED323D4 		.ascii	".\323#\324\272\277lE\367#\315"
 261      BABF6C45 
 261      F723CD
 262 07d0 1C5110EB 		.ascii	"\034Q\020\353\272\033(\211\177)\037U\027\350\360\214"
 262      BA1B2889 
 262      7F291F55 
 262      17E8F08C 
 263 07e0 F291064F 		.ascii	"\362\221\006Om\313J\261\265\233,U%\037\235\243\0073"
 263      6DCB4AB1 
 263      B59B2C55 
 263      251F9DA3 
 263      0733
 264 07f2 626E8C39 		.ascii	"bn\2149\330\2667\024\345\366\223!\252\301\012\336x3"
 264      D8B63714 
ARM GAS  /tmp/cchU44nR.s 			page 21


 264      E5F69321 
 264      AAC10ADE 
 264      7833
 265 0804 612BC583 		.ascii	"a+\305\203\335\312O7\3226\357\212\254\361\264\374\235"
 265      DDCA4F37 
 265      D236EF8A 
 265      ACF1B4FC 
 265      9D
 266 0815 7F4333A2 		.ascii	"\177C3\242o\260\0027\321\262\355\223\233\364\014\365"
 266      6FB00237 
 266      D1B2ED93 
 266      9BF40CF5 
 267 0825 1D856D7F 		.ascii	"\035\205m\177\216\032\001\367\363\344\376\003\271W\322"
 267      8E1A01F7 
 267      F3E4FE03 
 267      B957D2
 268 0834 F8BE94DC 		.ascii	"\370\276\224\334\227\221\373\012r_G\356\255\344\376"
 268      9791FB0A 
 268      725F47EE 
 268      ADE4FE
 269 0843 01B98BE4 		.ascii	"\001\271\213\344\276\223\334\317\223\373\025r\027l\004"
 269      BE93DCCF 
 269      93FB1572 
 269      176C04
 270 0852 87DC6792 		.ascii	"\207\334g\222{\265M\345af\331P7\025P\034\2777\347_\000"
 270      7BB54DE5 
 270      6166D950 
 270      3715501C 
 270      BF37E75F 
 271 0867 BEFB38B1 		.ascii	"\276\3738\261\307\001Q\2355\2307\235&{U\232<C4y\226"
 271      C701519D 
 271      3598379D 
 271      267B559A 
 271      3C433479 
 272 087c 68AFC6A6 		.ascii	"h\257\306\246\211\245\315\005\312oR\271\214\305\225"
 272      89A5CD05 
 272      CA6F52B9 
 272      8CC595
 273 088b F8573127 		.ascii	"\370W1'\331\273V\266j\266\353\001\255\016\207\262N."
 273      D9BB56B6 
 273      6AB6EB01 
 273      AD0E87B2 
 273      4E2E
 274 089d C3E0AE1B 		.ascii	"\303\340\256\033\241\216\246\031\241^\267\251F\250]"
 274      A18EA619 
 274      A15EB7A9 
 274      46A85D
 275 08ac 59D34EAB 		.ascii	"Y\323N\253\302c*\025\236 *<IT\370*q\231\331ZE\356/\320"
 275      C2632A15 
 275      9E202A3C 
 275      4954F82A 
 275      7199D95A 
 276 08c4 FD14A9FD 		.ascii	"\375\024\251\375\365OU\265\026\011\255*\342\033\011"
 276      F54F55B5 
 276      1609AD2A 
 276      E21B09
 277 08d3 F14D84F8 		.ascii	"\361M\204\370?\310\375\013\312\202\277\256M\316e\345"
ARM GAS  /tmp/cchU44nR.s 			page 22


 277      3FC8FD0B 
 277      CA82BFAE 
 277      4DCE65E5 
 278 08e3 C334CA06 		.ascii	"\3034\312\006y\342c\2334~jN\271\320\250\273@\177\034"
 278      79E2639B 
 278      347E6A4E 
 278      B9D0A8BB 
 278      407F1C
 279 08f6 4A6A34D7 		.ascii	"Jj4\327ft\336\251i[\347\317\027l\024f\276\"\\\211\277"
 279      6674DEA9 
 279      695BE7CF 
 279      176C1466 
 279      BE225C89 
 280 090b 44690EFA 		.ascii	"Di\016\372\270\320,\262\234~Y\230A\275\230f9Mv\331\030"
 280      B8D02CB2 
 280      9C7E5998 
 280      41BD9866 
 280      394D76D9 
 281 0920 AACEE6C2 		.ascii	"\252\316\346\302\307v<\246{d\270\201\"\261TWji\266\310"
 281      C7763CA6 
 281      7B64B881 
 281      22B15457 
 281      6A69B6C8 
 282 0934 E6DB3407 		.ascii	"\346\3334\007\212\310\351\236D]F\324)\240\306c\254\200"
 282      8AC8E99E 
 282      445D46D4 
 282      29A0C663 
 282      AC80
 283 0946 45860AA8 		.ascii	"E\206\012\250k\357k1?\360\325\226f\003\255A\317\032"
 283      6BEF6B31 
 283      3FF0D596 
 283      6603AD41 
 283      CF1A
 284 0958 3699D1F1 		.ascii	"6\231\321\361\257\3640M\266\002\015\233\032Y\352Ldi"
 284      AFF4304D 
 284      B6020D9B 
 284      1A59EA4C 
 284      6469
 285 096a 369245DC 		.ascii	"6\222E\3340k\366p\241\245R\214\307'ds\204O/\007\371"
 285      306BF670 
 285      A1A5528C 
 285      C7276473 
 285      844F2F07 
 286 097f DD45C3C6 		.ascii	"\335E\303\306R\0236\226\031\262\321\364\221)\033i\216"
 286      52133696 
 286      19B2D1F4 
 286      91291B69 
 286      8E
 287 0990 8EAD48A3 		.ascii	"\216\255H\243N3__g\302\327*CSo\232\373U\216\246^cK="
 287      4E335F5F 
 287      67C2D72A 
 287      43536F9A 
 287      FB558EA6 
 288 09a8 E5B8D984 		.ascii	"\345\270\331\204\366Z-\355\333Q\013>`\371\345\242z\230"
 288      F65A2DED 
 288      DB510B3E 
 288      60F9E5A2 
ARM GAS  /tmp/cchU44nR.s 			page 23


 288      7A98
 289 09ba B6CC8609 		.ascii	"\266\314\206\011[<~\233r\304ow\002BI;\232\003}d\227"
 289      5B3C7E9B 
 289      72C46F77 
 289      0242493B 
 289      9A037D64 
 290 09cf 36898691 		.ascii	"6\211\206\221H\304n\037\365A\2450s\003\360\036\247\342"
 290      48C46E1F 
 290      F541A530 
 290      7303F01E 
 290      A7E2
 291 09e1 13E4CD22 		.ascii	"\023\344\315\"\315\301@\261D\301\351\225\326\202]\204"
 291      CDC140B1 
 291      44C1E995 
 291      D6825D84 
 292 09f1 52AB4DB7 		.ascii	"R\253M\267eTO\316~\341\327\231\227\201\357\264\347\013"
 292      65544FCE 
 292      7EE1D799 
 292      9781EFB4 
 292      E70B
 293 0a03 C745CAE8 		.ascii	"\307E\312\350\034\242\216\034\331>\263\351\016J,$g\205"
 293      1CA28E1C 
 293      D93EB3E9 
 293      0E4A2C24 
 293      6785
 294 0a15 F0EBCCA4 		.ascii	"\360\353\314\244\026K\244\256C\265\012)\315V\266\370"
 294      164BA4AE 
 294      43B50A29 
 294      CD56B6F8 
 295 0a25 33855C07 		.ascii	"3\205\\\007-\223k\263]Gj\232\225%ibf\322\367l\311\035"
 295      2D936BB3 
 295      5D476A9A 
 295      95256962 
 295      66D2F76C 
 296 0a3b 7B8F3B59 		.ascii	"{\217;Y\031\231p\256cDg\230cc\272\231\327\272\015\217"
 296      199970AE 
 296      63446798 
 296      6363BA99 
 296      D7BA0D8F 
 297 0a4f D6567B24 		.ascii	"\326V{$\346ht\322\032\234,\222!\336\0225\336)kx\265"
 297      E66874D2 
 297      1A9C2C92 
 297      21DE1235 
 297      DE296B78 
 298 0a64 7673BC56 		.ascii	"vs\274V5\336\031kx\207\234\346x\033\325x\375\326\360"
 298      35DE196B 
 298      78879CE6 
 298      781BD578 
 298      FDD6F0
 299 0a77 9AF30DF0 		.ascii	"\232\363\015\360\022\027\215\006\022\236k\354l\231\255"
 299      12178D06 
 299      129E6BEC 
 299      6C99AD
 300 0a86 D0D6FE3A 		.ascii	"\320\326\376:\205\177\233P\334i\301`iw\327\334ywd\355"
 300      857F9B50 
 300      DC69C160 
 300      6977D7DC 
ARM GAS  /tmp/cchU44nR.s 			page 24


 300      797764ED 
 301 0a9a 4D3B4DBC 		.ascii	"M;M\274\351\224'!\310\271\334\005Q\251\343G}\3120`\377"
 301      E9942721 
 301      C8B9DC05 
 301      51A9E347 
 301      7DCA3060 
 302 0aaf 236DCE68 		.ascii	"#m\316h\025{v\276u:\017\237\363\023\204\313\3618\245"
 302      157B76BE 
 302      753A0F9F 
 302      F31384CB 
 302      F138A5
 303 0ac2 68021F1E 		.ascii	"h\002\037\036J\014TbrO\011\264F\2459\011\025\007\026"
 303      4A0C5462 
 303      724F09B4 
 303      46A53909 
 303      150716
 304 0ad5 321E9862 		.ascii	"2\036\230b\250=6<%\376D\227\007 }\035\236%\237\003\370"
 304      A83D363C 
 304      25FE4497 
 304      07207D1D 
 304      9E259F03 
 305 0aea C44232A8 		.ascii	"\304B2\250\024/\376\267\203\"\373O+\311\222\252f\020"
 305      142FFEB7 
 305      8322FB4F 
 305      2BC992AA 
 305      6610
 306 0afc 25C3E636 		.ascii	"%\303\3466m\277t\232\300\351\006\350\245i\316\364\036"
 306      6DBF749A 
 306      C0E906E8 
 306      A569CEF4 
 306      1E
 307 0b0d 50CF525F 		.ascii	"P\317R_\317\232\274WC\036\317\220%H\032\315\263\202"
 307      CF9ABC57 
 307      431ECF90 
 307      25481ACD 
 307      B382
 308 0b1f 9566B67D 		.ascii	"\225f\266}E\205\325\2205\226W\247n\305\016\014\265\217"
 308      4585D590 
 308      359657A7 
 308      6EC50E0C 
 308      B58F
 309 0b31 4C913BC9 		.ascii	"L\221;\311\275\213\334\2733\257\260t\012\375\330\204"
 309      BD8BDCBB 
 309      33AFB074 
 309      0AFDD884 
 310 0b41 13B2DDAA 		.ascii	"\023\262\335\252\231\361\250 'j\031U\271\251\324\311"
 310      99F1A820 
 310      276A1955 
 310      B9A9D4C9 
 311 0b51 B819431D 		.ascii	"\270\031C\035\316:^\217\230\304\253z\362\232l\205\267"
 311      CE3A5E8F 
 311      98C4AB7A 
 311      F29A6C85 
 311      B7
 312 0b62 3D07E9E2 		.ascii	"=\007\351\342.\205\211\317\345\250+B\233\204\032\021"
 312      2E8589CF 
 312      E5A82B42 
ARM GAS  /tmp/cchU44nR.s 			page 25


 312      9B841A11 
 313 0b72 C6BA5DC0 		.ascii	"\306\272]\300U\302n\177A?\012\013`.\275~\270$\012\016"
 313      55C26E7F 
 313      413F0A0B 
 313      602EBD7E 
 313      B8240A0E 
 314 0b86 CC81FDE2 		.ascii	"\314\201\375\342\326W\033aZP)\300\354;NIZ\243Q\253\236"
 314      D6571B61 
 314      5A5029C0 
 314      EC3B4E49 
 314      5AA351AB 
 315 0b9b 9636B430 		.ascii	"\2266\2640\261\177k\210M\224zJ\226\223(\211\333vk\367"
 315      B17F6B88 
 315      4D947A4A 
 315      96932889 
 315      DB766BF7 
 316 0baf 8BD5D96F 		.ascii	"\213\325\331o\265*\373%f\034#e\350\023Y+\363\244\211"
 316      B52AFB25 
 316      661C2365 
 316      E813592B 
 316      F3A489
 317 0bc2 32EF4AEB 		.ascii	"2\357J\3530\014u<\351\007\267\242\367\0075\012\013&"
 317      300C753C 
 317      E907B7A2 
 317      F707350A 
 317      0B26
 318 0bd4 26C94B0E 		.ascii	"&\311K\016\210\205\251\201\371S\276\344\347\211?\211"
 318      8885A981 
 318      F953BEE4 
 318      E7893F89 
 319 0be4 488E89F1 		.ascii	"H\216\211\361\244\350\224\\Tn\335\225h\255\376\323\207"
 319      A4E8945C 
 319      546EDD95 
 319      68ADFED3 
 319      87
 320 0bf5 CC85A44A 		.ascii	"\314\205\244J\305\005u^\273:M\032\350Mr\253\353\265"
 320      C505755E 
 320      BB3A4D1A 
 320      E84D72AB 
 320      EBB5
 321 0c07 2369E894 		.ascii	"#i\350\224^\247M{\3419\245Y\2573\246\275\032\322\364"
 321      5EA74D7B 
 321      E139A559 
 321      AF33A6BD 
 321      1AD2F4
 322 0c1a 3A6BDA6B 		.ascii	":k\332kE\232^}\246\275\346\247\351\325o\332ki\232^_"
 322      459A5E7D 
 322      A6BDE6A7 
 322      E9D56FDA 
 322      6B699A5E 
 323 0c2f DB349B30 		.ascii	"\3334\2330^\324\204\007\350\315\273\005\257\327\344"
 323      5ED48407 
 323      E8CDBB05 
 323      AFD7E4
 324 0c3e 8F3AB78E 		.ascii	"\217:\267\216\036]8)\020\234\022|\372\231B\236\215\361"
 324      1E5D3829 
 324      109C127C 
ARM GAS  /tmp/cchU44nR.s 			page 26


 324      FA99429E 
 324      8DF1
 325 0c50 851C4F9E 		.ascii	"\205\034O\236\001\226\211\216\366\243\002\374\034\353"
 325      0196898E 
 325      F6A302FC 
 325      1CEB
 326 0c5e 8BB17C79 		.ascii	"\213\261|y\324\361\330S\317z'\241A\322+v\032\353/\347"
 326      D4F1D853 
 326      CF7A27A1 
 326      41D22B76 
 326      1AEB2FE7 
 327 0c72 D9DB55FD 		.ascii	"\331\333U\375#1\334;\030\366\227\225\027\263\205\376"
 327      2331DC3B 
 327      18F69795 
 327      17B385FE 
 328 0c82 00C108A0 		.ascii	"\000\301\010\240A!6\024\341\246\373\360G\037_\240\372"
 328      41213614 
 328      E1A6FBF0 
 328      471F5FA0 
 328      FA
 329 0c93 34832A0C 		.ascii	"4\203*\014\227\304p\271\2770\020\011\261\205\034\033"
 329      97C470B9 
 329      BF301009 
 329      B1851C1B 
 330 0ca3 6319CE1F 		.ascii	"c\031\316\037(\0140\\q\005\303\261\205\014\027\032W"
 330      280C305C 
 330      7105C3B1 
 330      850C171A 
 330      57
 331 0cb4 58EAF78F 		.ascii	"X\352\367\217\202\312(64\205-.f\213\023/\302\2210;\212"
 331      82CA2836 
 331      34852D2E 
 331      668B132F 
 331      C291303B 
 332 0cc9 65A60447 		.ascii	"e\246\004G\025\371\306\217\0327fl\321\213\343\012\313"
 332      15F9C68F 
 332      1A37666C 
 332      D18BE30A 
 332      CB
 333 0cda 82537083 		.ascii	"\202Sp\203BM\203\302\242\321\343G\027%\230\213\361\200"
 333      424D83C2 
 333      A2D1E347 
 333      1725988B 
 333      F180
 334 0cec 5302CC39 		.ascii	"S\002\3149b\301?\263>\376\2164b\000\303\376\010\307"
 334      62C13FB3 
 334      3EFE8E34 
 334      6200C3FE 
 334      08C7
 335 0cfe 42630F54 		.ascii	"Bc\017TKY\276\244<\354\367\361\371\001_\224\213L\015"
 335      4B59BEA4 
 335      3CECF7F1 
 335      F9015F94 
 335      8B4C0D
 336 0d11 16B31CD1 		.ascii	"\026\263\034\321\022\226\010\352w\245 E#\034\037+|\344"
 336      129608EA 
 336      77A52045 
ARM GAS  /tmp/cchU44nR.s 			page 27


 336      231C1F2B 
 336      7CE4
 337 0d23 8F4F4E7A 		.ascii	"\217ONzr\032\300\311X\3711\376\005\246,X\032\366\361"
 337      721AC0C9 
 337      58F931FE 
 337      05A62C58 
 337      1AF6F1
 338 0d36 B16BA105 		.ascii	"\261k\241\005\255\364*\271\203a\036\310\273\312\341"
 338      ADF42AB9 
 338      83611EC8 
 338      BBCAE1
 339 0d45 F940918F 		.ascii	"\371@\221\217\257\272&60\246\036b\374\201`\230-\364"
 339      AFBA2636 
 339      30A61E62 
 339      FC816098 
 339      2DF4
 340 0d57 81EE99F2 		.ascii	"\201\356\231\3622\336\307O\217\2621\254\014\237O\341"
 340      32DEC74F 
 340      8FB231AC 
 340      0C9F4FE1 
 341 0d67 C74E9492 		.ascii	"\307N\224\222\027f\247\361yX\255Ty\0366\021\025p\004"
 341      1766A7F1 
 341      7958AD54 
 341      791E3611 
 341      157004
 342 0d7a 7C251CCB 		.ascii	"|%\034\313\216Hg)~\032\2009C\340\227\323|\274\313\037"
 342      8E486729 
 342      7E1A8039 
 342      43E097D3 
 342      7CBCCB1F 
 343 0d8e F091EA9D 		.ascii	"\360\221\352\235i\272\304\246\307\024&\206\360\001\016"
 343      69BAC4A6 
 343      C7142686 
 343      F0010E
 344 0d9d 4C18F3BD 		.ascii	"L\030\363\275X\316\226\203O\014\205\376\232W\351|=\346"
 344      58CE9683 
 344      4F0C85FE 
 344      9A57E97C 
 344      3DE6
 345 0daf 0F1463B5 		.ascii	"\017\024c\265J\035|\274;\321\331\021\365aa\340\021\345"
 345      4A1D7CBC 
 345      3BD1D911 
 345      F56161E0 
 345      11E5
 346 0dc1 D8A90F64 		.ascii	"\330\251\017dp\217H(\032,c\271X\341c\223&\001\254\302"
 346      708F4828 
 346      1A2C63B9 
 346      58E16393 
 346      2601ACC2 
 347 0dd5 9B938F72 		.ascii	"\233\223\217r\301\010\310\204\325t\3378\360>Ic\270J"
 347      C108C884 
 347      D574DF38 
 347      F03E4963 
 347      B84A
 348 0de7 908311A7 		.ascii	"\220\203\021\247?\022\006a\371\002\014\350\203\357\374"
 348      3F120661 
 348      F9020CE8 
ARM GAS  /tmp/cchU44nR.s 			page 28


 348      83EFFC
 349 0df6 FCB47BAC 		.ascii	"\374\264{\2548\243o\352\203!\314:\307\226\202\331|<"
 349      38A36FEA 
 349      8321CC3A 
 349      C79682D9 
 349      7C3C
 350 0e08 CD15D1DC 		.ascii	"\315\025\321\334\3754\367\000\315=Hs\343i\356!\0337"
 350      FD34F700 
 350      CD3D4873 
 350      E369EE21 
 350      1B37
 351 0e1a 760C94B1 		.ascii	"v\014\224\261t\031\007\217\373\354Q\037`;\261\\\025"
 351      7419078F 
 351      FBEC511F 
 351      603BB15C 
 351      15
 352 0e2b 2C07CF48 		.ascii	",\007\317H\0318~\236\037\034\006\013\313\204\330\374"
 352      19387E9E 
 352      1F1C060B 
 352      CB84D8FC 
 353 0e3b A80FDCBB 		.ascii	"\250\017\334\273,\030\012\362.>\3063<\250\323\211\371"
 353      2C180AF2 
 353      2E3EC633 
 353      3CA8D389 
 353      F9
 354 0e4c 1D0F9A91 		.ascii	"\035\017\232\2218\207\232\023\267\202\357\234|(R\314"
 354      38879A13 
 354      B782EF9C 
 354      7C2852CC 
 355 0e5c 92CF2565 		.ascii	"\222\317%eLi\314\311slI\214\010\206+\366P\254\024\276"
 355      4C69CCC9 
 355      736C498C 
 355      08862BF6 
 355      50AC14BE 
 356 0e70 94A585EE 		.ascii	"\224\245\205\356\212\334\\\361t\370\312\305N\013\362"
 356      8ADC5CF1 
 356      74F8CAC5 
 356      4E0BF2
 357 0e7f 7E007054 		.ascii	"~\000pT\360\221)\317G\257\227M\000]Y\216\015\373\001"
 357      F09129CF 
 357      47AF974D 
 357      005D598E 
 357      0DFB01
 358 0e92 D85EC1F3 		.ascii	"\330^\301\363\\\324\031c\303<t\360\200ibl\210\211\006"
 358      5CD41963 
 358      C33C74F0 
 358      8069626C 
 358      888906
 359 0ea5 40F874EE 		.ascii	"@\370t\356\004\215\260\352e\353\333\375apX{\314\007"
 359      048DB0EA 
 359      65EBDBFD 
 359      6170587B 
 359      CC07
 360 0eb7 4F20055F 		.ascii	"O \005_F\341\001.\027-`\247bd&\366\0020\305V\340\212"
 360      46E1012E 
 360      172D60A7 
 360      626426F6 
ARM GAS  /tmp/cchU44nR.s 			page 29


 360      0230C556 
 361 0ecd 2DEA2B1F 		.ascii	"-\352+\037\2548OY0\006=\207\250\334\011\277qG}\025L"
 361      AC384F59 
 361      30063D87 
 361      A8DC09BF 
 361      71477D15 
 362 0ee2 900F864B 		.ascii	"\220\017\206KA[\300\026!\002U6\312\206!HK\341{\000\307"
 362      415BC016 
 362      21025536 
 362      CA862148 
 362      4BE17B00 
 363 0ef7 2DF3B11E 		.ascii	"-\363\261\036\2302bdx\031\215D\312\234!\211)xF*\302"
 363      98326264 
 363      78198D44 
 363      CA9C2189 
 363      2978462A 
 364 0f0c 2CE70811 		.ascii	",\347\010\021'\263\007p\037p\334\307!r\236\236\362<"
 364      27B30770 
 364      1F70DCC7 
 364      21729E9E 
 364      F23C
 365 0f1e EBE79F08 		.ascii	"\353\347\237\010\007\371[L\222<Hg\367\375\006\340<>"
 365      07F95B4C 
 365      923C4867 
 365      F7FD06E0 
 365      3C3E
 366 0f30 FCD1C7C4 		.ascii	"\374\321\307\304b,\307{\244\356\317\200i\312c\371\322"
 366      622CC77B 
 366      A4EECF80 
 366      69CA63F9 
 366      D2
 367 0f41 874721F2 		.ascii	"\207G!\362\012\244\352#ee\021?\220\230\004\332{\214"
 367      0AA4EA23 
 367      6565113F 
 367      909804DA 
 367      7B8C
 368 0f53 E5A566CF 		.ascii	"\345\245f\317\271\011\000\016X\017\251M)/\001\365\307"
 368      B909000E 
 368      580FA94D 
 368      292F01F5 
 368      C7
 369 0f64 E8C963E8 		.ascii	"\350\311c\350\311c\351\311\343\350\311\367\321\223\213"
 369      C963E9C9 
 369      E3E8C9F7 
 369      D1938B
 370 0f73 E80AC621 		.ascii	"\350\012\306!}\223\207[\271\360\315\317\304\330<\354"
 370      7D93875B 
 370      B9F0CDCF 
 370      C4D83CEC 
 371 0f83 347632CA 		.ascii	"4v2\312\300;\310; \224S\036a\012\242\014\317\263\\\030"
 371      C03BC83B 
 371      2094531E 
 371      610AA20C 
 371      CFB35C18 
 372 0f97 63BB95A1 		.ascii	"c\273\225\241i\354H\314\312"
 372      69EC48CC 
 372      CA
ARM GAS  /tmp/cchU44nR.s 			page 30


 373 0fa0 BD5E0633 		.ascii	"\275^\0063\303\360\301H\330\313\204\213\275%\034S\032"
 373      C3F0C148 
 373      D8CB848B 
 373      BD251C53 
 373      1A
 374 0fb1 025B486F 		.ascii	"\002[Hopc\364?\355\2527\022"
 374      7063F43F 
 374      EDAA3712 
 375              		.text
 376              		.section	.gnu.lto_.symtab.8c106e511bff74f7,"",%progbits
 377 0000 70617474 		.ascii	"patternheap\000\000\000\000\000\000\000\000\000\000"
 377      65726E68 
 377      65617000 
 377      00000000 
 377      00000000 
 378 0015 0000C801 		.ascii	"\000\000\310\001\000\000testheap1\000\000\000\000\000"
 378      00007465 
 378      73746865 
 378      61703100 
 378      00000000 
 379 0029 00000000 		.ascii	"\000\000\000\000\000\000\000\336\001\000\000test\000"
 379      000000DE 
 379      01000074 
 379      65737400 
 380 0039 00020000 		.ascii	"\000\002\000\000\000\000\000\000\000\000\000\257\001"
 380      00000000 
 380      000000AF 
 380      01
 381 0046 00006368 		.ascii	"\000\000chHeapObjectInit\000\000\002\000\000\000\000"
 381      48656170 
 381      4F626A65 
 381      6374496E 
 381      69740000 
 382 005f 00000000 		.ascii	"\000\000\000\000\000\251\000\000\000_test_assert\000"
 382      00A90000 
 382      005F7465 
 382      73745F61 
 382      73736572 
 383 0075 00020000 		.ascii	"\000\002\000\000\000\000\000\000\000\000\000\223\001"
 383      00000000 
 383      00000093 
 383      01
 384 0082 00006368 		.ascii	"\000\000chHeapStatus\000\000\002\000\000\000\000\000"
 384      48656170 
 384      53746174 
 384      75730000 
 384      02000000 
 385 0098 00000000 		.ascii	"\000\000\000\000\233\001\000\000chHeapFree\000\000\002"
 385      9B010000 
 385      63684865 
 385      61704672 
 385      65650000 
 386 00ad 00000000 		.ascii	"\000\000\000\000\000\000\000\000\000\241\001\000\000"
 386      00000000 
 386      00A10100 
 386      00
 387 00ba 63684865 		.ascii	"chHeapAlloc\000\000\002\000\000\000\000\000\000\000"
ARM GAS  /tmp/cchU44nR.s 			page 31


 387      6170416C 
 387      6C6F6300 
 387      00020000 
 387      00000000 
 388 00cf 0000A501 		.ascii	"\000\000\245\001\000\000chCoreGetStatusX\000\000\002"
 388      00006368 
 388      436F7265 
 388      47657453 
 388      74617475 
 389 00e8 00000000 		.ascii	"\000\000\000\000\000\000\000\000\000\252\001\000\000"
 389      00000000 
 389      00AA0100 
 389      00
 390              		.text
 391              		.section	.gnu.lto_.opts,"",%progbits
 392 0000 272D6D63 		.ascii	"'-mcpu=cortex-m4' '-mno-thumb-interwork' '-mthumb' "
 392      70753D63 
 392      6F727465 
 392      782D6D34 
 392      2720272D 
 393 0033 272D6767 		.ascii	"'-ggdb' '-O0' '-fomit-frame-pointer' '-falign-funct"
 393      64622720 
 393      272D4F30 
 393      2720272D 
 393      666F6D69 
 394 0066 696F6E73 		.ascii	"ions=16' '-ffunction-sections' '-fdata-sections' '-"
 394      3D313627 
 394      20272D66 
 394      66756E63 
 394      74696F6E 
 395 0099 666E6F2D 		.ascii	"fno-common' '-flto'\000"
 395      636F6D6D 
 395      6F6E2720 
 395      272D666C 
 395      746F2700 
 396              		.text
 397              		.cfi_sections	.debug_frame
 398              		.section	.bss.test_heap,"aw",%nobits
 399              		.align	3
 400              		.type	test_heap, %object
 401              		.size	test_heap, 32
 402              	test_heap:
 403 0000 00000000 		.space	32
 403      00000000 
 403      00000000 
 403      00000000 
 403      00000000 
 404              		.section	.text.heap1_setup,"ax",%progbits
 405              		.align	2
 406              		.p2align 4,,15
 407              		.thumb
 408              		.thumb_func
 409              		.type	heap1_setup, %function
 410              	heap1_setup:
 411              	.LFB241:
 412              		.file 1 "../ChibiOS/test/rt/testheap.c"
 413              		.loc 1 64 0
ARM GAS  /tmp/cchU44nR.s 			page 32


 414              		.cfi_startproc
 415              		@ args = 0, pretend = 0, frame = 0
 416              		@ frame_needed = 0, uses_anonymous_args = 0
 417 0000 08B5     		push	{r3, lr}
 418              		.cfi_def_cfa_offset 8
 419              		.cfi_offset 3, -8
 420              		.cfi_offset 14, -4
 421              		.loc 1 66 0
 422 0002 0348     		ldr	r0, .L2
 423 0004 0349     		ldr	r1, .L2+4
 424 0006 4FF4CD62 		mov	r2, #1640
 425 000a FFF7FEFF 		bl	chHeapObjectInit
 426              		.loc 1 67 0
 427 000e 08BD     		pop	{r3, pc}
 428              	.L3:
 429              		.align	2
 430              	.L2:
 431 0010 00000000 		.word	test_heap
 432 0014 00000000 		.word	test
 433              		.cfi_endproc
 434              	.LFE241:
 435              		.size	heap1_setup, .-heap1_setup
 436 0018 AFF30080 		.section	.text.heap1_execute,"ax",%progbits
 436      AFF30080 
 437              		.align	2
 438              		.p2align 4,,15
 439              		.thumb
 440              		.thumb_func
 441              		.type	heap1_execute, %function
 442              	heap1_execute:
 443              	.LFB242:
 444              		.loc 1 69 0
 445              		.cfi_startproc
 446              		@ args = 0, pretend = 0, frame = 24
 447              		@ frame_needed = 0, uses_anonymous_args = 0
 448 0000 00B5     		push	{lr}
 449              		.cfi_def_cfa_offset 4
 450              		.cfi_offset 14, -4
 451 0002 87B0     		sub	sp, sp, #28
 452              		.cfi_def_cfa_offset 32
 453              		.loc 1 74 0
 454 0004 FFF7FEFF 		bl	chCoreGetStatusX
 455              		.loc 1 80 0
 456 0008 01AB     		add	r3, sp, #4
 457 000a 0020     		movs	r0, #0
 458 000c 1946     		mov	r1, r3
 459 000e FFF7FEFF 		bl	chHeapStatus
 460              		.loc 1 81 0
 461 0012 0020     		movs	r0, #0
 462 0014 1021     		movs	r1, #16
 463 0016 FFF7FEFF 		bl	chHeapAlloc
 464 001a 0590     		str	r0, [sp, #20]
 465              		.loc 1 82 0
 466 001c 059B     		ldr	r3, [sp, #20]
 467 001e 002B     		cmp	r3, #0
 468 0020 0CBF     		ite	eq
 469 0022 0023     		moveq	r3, #0
ARM GAS  /tmp/cchU44nR.s 			page 33


 470 0024 0123     		movne	r3, #1
 471 0026 DBB2     		uxtb	r3, r3
 472 0028 0120     		movs	r0, #1
 473 002a 1946     		mov	r1, r3
 474 002c FFF7FEFF 		bl	_test_assert
 475 0030 0346     		mov	r3, r0
 476 0032 002B     		cmp	r3, #0
 477 0034 00D0     		beq	.L5
 478              		.loc 1 82 0 is_stmt 0 discriminator 1
 479 0036 4EE1     		b	.L4
 480              	.L5:
 481              		.loc 1 83 0 is_stmt 1
 482 0038 0598     		ldr	r0, [sp, #20]
 483 003a FFF7FEFF 		bl	chHeapFree
 484              		.loc 1 84 0
 485 003e 0020     		movs	r0, #0
 486 0040 6FF0FF01 		mvn	r1, #255
 487 0044 FFF7FEFF 		bl	chHeapAlloc
 488 0048 0590     		str	r0, [sp, #20]
 489              		.loc 1 85 0
 490 004a 059B     		ldr	r3, [sp, #20]
 491 004c 002B     		cmp	r3, #0
 492 004e 14BF     		ite	ne
 493 0050 0023     		movne	r3, #0
 494 0052 0123     		moveq	r3, #1
 495 0054 DBB2     		uxtb	r3, r3
 496 0056 0220     		movs	r0, #2
 497 0058 1946     		mov	r1, r3
 498 005a FFF7FEFF 		bl	_test_assert
 499 005e 0346     		mov	r3, r0
 500 0060 002B     		cmp	r3, #0
 501 0062 00D0     		beq	.L7
 502              		.loc 1 85 0 is_stmt 0 discriminator 1
 503 0064 37E1     		b	.L4
 504              	.L7:
 505              		.loc 1 88 0 is_stmt 1
 506 0066 01AB     		add	r3, sp, #4
 507 0068 9C48     		ldr	r0, .L22
 508 006a 1946     		mov	r1, r3
 509 006c FFF7FEFF 		bl	chHeapStatus
 510              		.loc 1 91 0
 511 0070 9A48     		ldr	r0, .L22
 512 0072 1021     		movs	r1, #16
 513 0074 FFF7FEFF 		bl	chHeapAlloc
 514 0078 0590     		str	r0, [sp, #20]
 515              		.loc 1 92 0
 516 007a 9848     		ldr	r0, .L22
 517 007c 1021     		movs	r1, #16
 518 007e FFF7FEFF 		bl	chHeapAlloc
 519 0082 0490     		str	r0, [sp, #16]
 520              		.loc 1 93 0
 521 0084 9548     		ldr	r0, .L22
 522 0086 1021     		movs	r1, #16
 523 0088 FFF7FEFF 		bl	chHeapAlloc
 524 008c 0390     		str	r0, [sp, #12]
 525              		.loc 1 94 0
 526 008e 0598     		ldr	r0, [sp, #20]
ARM GAS  /tmp/cchU44nR.s 			page 34


 527 0090 FFF7FEFF 		bl	chHeapFree
 528              		.loc 1 95 0
 529 0094 0498     		ldr	r0, [sp, #16]
 530 0096 FFF7FEFF 		bl	chHeapFree
 531              		.loc 1 96 0
 532 009a 0398     		ldr	r0, [sp, #12]
 533 009c FFF7FEFF 		bl	chHeapFree
 534              		.loc 1 97 0
 535 00a0 02AB     		add	r3, sp, #8
 536 00a2 8E48     		ldr	r0, .L22
 537 00a4 1946     		mov	r1, r3
 538 00a6 FFF7FEFF 		bl	chHeapStatus
 539 00aa 0346     		mov	r3, r0
 540 00ac 012B     		cmp	r3, #1
 541 00ae 14BF     		ite	ne
 542 00b0 0023     		movne	r3, #0
 543 00b2 0123     		moveq	r3, #1
 544 00b4 DBB2     		uxtb	r3, r3
 545 00b6 0320     		movs	r0, #3
 546 00b8 1946     		mov	r1, r3
 547 00ba FFF7FEFF 		bl	_test_assert
 548 00be 0346     		mov	r3, r0
 549 00c0 002B     		cmp	r3, #0
 550 00c2 00D0     		beq	.L8
 551              		.loc 1 97 0 is_stmt 0 discriminator 1
 552 00c4 07E1     		b	.L4
 553              	.L8:
 554              		.loc 1 100 0 is_stmt 1
 555 00c6 8548     		ldr	r0, .L22
 556 00c8 1021     		movs	r1, #16
 557 00ca FFF7FEFF 		bl	chHeapAlloc
 558 00ce 0590     		str	r0, [sp, #20]
 559              		.loc 1 101 0
 560 00d0 8248     		ldr	r0, .L22
 561 00d2 1021     		movs	r1, #16
 562 00d4 FFF7FEFF 		bl	chHeapAlloc
 563 00d8 0490     		str	r0, [sp, #16]
 564              		.loc 1 102 0
 565 00da 8048     		ldr	r0, .L22
 566 00dc 1021     		movs	r1, #16
 567 00de FFF7FEFF 		bl	chHeapAlloc
 568 00e2 0390     		str	r0, [sp, #12]
 569              		.loc 1 103 0
 570 00e4 0398     		ldr	r0, [sp, #12]
 571 00e6 FFF7FEFF 		bl	chHeapFree
 572              		.loc 1 104 0
 573 00ea 0498     		ldr	r0, [sp, #16]
 574 00ec FFF7FEFF 		bl	chHeapFree
 575              		.loc 1 105 0
 576 00f0 0598     		ldr	r0, [sp, #20]
 577 00f2 FFF7FEFF 		bl	chHeapFree
 578              		.loc 1 106 0
 579 00f6 02AB     		add	r3, sp, #8
 580 00f8 7848     		ldr	r0, .L22
 581 00fa 1946     		mov	r1, r3
 582 00fc FFF7FEFF 		bl	chHeapStatus
 583 0100 0346     		mov	r3, r0
ARM GAS  /tmp/cchU44nR.s 			page 35


 584 0102 012B     		cmp	r3, #1
 585 0104 14BF     		ite	ne
 586 0106 0023     		movne	r3, #0
 587 0108 0123     		moveq	r3, #1
 588 010a DBB2     		uxtb	r3, r3
 589 010c 0420     		movs	r0, #4
 590 010e 1946     		mov	r1, r3
 591 0110 FFF7FEFF 		bl	_test_assert
 592 0114 0346     		mov	r3, r0
 593 0116 002B     		cmp	r3, #0
 594 0118 00D0     		beq	.L9
 595              		.loc 1 106 0 is_stmt 0 discriminator 1
 596 011a DCE0     		b	.L4
 597              	.L9:
 598              		.loc 1 109 0 is_stmt 1
 599 011c 6F48     		ldr	r0, .L22
 600 011e 1121     		movs	r1, #17
 601 0120 FFF7FEFF 		bl	chHeapAlloc
 602 0124 0590     		str	r0, [sp, #20]
 603              		.loc 1 110 0
 604 0126 6D48     		ldr	r0, .L22
 605 0128 1021     		movs	r1, #16
 606 012a FFF7FEFF 		bl	chHeapAlloc
 607 012e 0490     		str	r0, [sp, #16]
 608              		.loc 1 111 0
 609 0130 0598     		ldr	r0, [sp, #20]
 610 0132 FFF7FEFF 		bl	chHeapFree
 611              		.loc 1 112 0
 612 0136 02AB     		add	r3, sp, #8
 613 0138 6848     		ldr	r0, .L22
 614 013a 1946     		mov	r1, r3
 615 013c FFF7FEFF 		bl	chHeapStatus
 616 0140 0346     		mov	r3, r0
 617 0142 022B     		cmp	r3, #2
 618 0144 14BF     		ite	ne
 619 0146 0023     		movne	r3, #0
 620 0148 0123     		moveq	r3, #1
 621 014a DBB2     		uxtb	r3, r3
 622 014c 0520     		movs	r0, #5
 623 014e 1946     		mov	r1, r3
 624 0150 FFF7FEFF 		bl	_test_assert
 625 0154 0346     		mov	r3, r0
 626 0156 002B     		cmp	r3, #0
 627 0158 00D0     		beq	.L10
 628              		.loc 1 112 0 is_stmt 0 discriminator 1
 629 015a BCE0     		b	.L4
 630              	.L10:
 631              		.loc 1 113 0 is_stmt 1
 632 015c 5F48     		ldr	r0, .L22
 633 015e 1021     		movs	r1, #16
 634 0160 FFF7FEFF 		bl	chHeapAlloc
 635 0164 0590     		str	r0, [sp, #20]
 636              		.loc 1 116 0
 637 0166 02AB     		add	r3, sp, #8
 638 0168 5C48     		ldr	r0, .L22
 639 016a 1946     		mov	r1, r3
 640 016c FFF7FEFF 		bl	chHeapStatus
ARM GAS  /tmp/cchU44nR.s 			page 36


 641 0170 0346     		mov	r3, r0
 642 0172 012B     		cmp	r3, #1
 643 0174 07D0     		beq	.L11
 644              		.loc 1 116 0 is_stmt 0 discriminator 2
 645 0176 02AB     		add	r3, sp, #8
 646 0178 5848     		ldr	r0, .L22
 647 017a 1946     		mov	r1, r3
 648 017c FFF7FEFF 		bl	chHeapStatus
 649 0180 0346     		mov	r3, r0
 650 0182 022B     		cmp	r3, #2
 651 0184 01D1     		bne	.L12
 652              	.L11:
 653              		.loc 1 116 0 discriminator 1
 654 0186 0123     		movs	r3, #1
 655 0188 00E0     		b	.L13
 656              	.L12:
 657              		.loc 1 116 0 discriminator 3
 658 018a 0023     		movs	r3, #0
 659              	.L13:
 660              		.loc 1 116 0 discriminator 4
 661 018c 03F00103 		and	r3, r3, #1
 662 0190 DBB2     		uxtb	r3, r3
 663 0192 0620     		movs	r0, #6
 664 0194 1946     		mov	r1, r3
 665 0196 FFF7FEFF 		bl	_test_assert
 666 019a 0346     		mov	r3, r0
 667 019c 002B     		cmp	r3, #0
 668 019e 00D0     		beq	.L14
 669              		.loc 1 116 0 discriminator 1
 670 01a0 99E0     		b	.L4
 671              	.L14:
 672              		.loc 1 118 0 is_stmt 1
 673 01a2 0498     		ldr	r0, [sp, #16]
 674 01a4 FFF7FEFF 		bl	chHeapFree
 675              		.loc 1 119 0
 676 01a8 0598     		ldr	r0, [sp, #20]
 677 01aa FFF7FEFF 		bl	chHeapFree
 678              		.loc 1 120 0
 679 01ae 02AB     		add	r3, sp, #8
 680 01b0 4A48     		ldr	r0, .L22
 681 01b2 1946     		mov	r1, r3
 682 01b4 FFF7FEFF 		bl	chHeapStatus
 683 01b8 0346     		mov	r3, r0
 684 01ba 012B     		cmp	r3, #1
 685 01bc 14BF     		ite	ne
 686 01be 0023     		movne	r3, #0
 687 01c0 0123     		moveq	r3, #1
 688 01c2 DBB2     		uxtb	r3, r3
 689 01c4 0720     		movs	r0, #7
 690 01c6 1946     		mov	r1, r3
 691 01c8 FFF7FEFF 		bl	_test_assert
 692 01cc 0346     		mov	r3, r0
 693 01ce 002B     		cmp	r3, #0
 694 01d0 00D0     		beq	.L15
 695              		.loc 1 120 0 is_stmt 0 discriminator 1
 696 01d2 80E0     		b	.L4
 697              	.L15:
ARM GAS  /tmp/cchU44nR.s 			page 37


 698              		.loc 1 123 0 is_stmt 1
 699 01d4 4148     		ldr	r0, .L22
 700 01d6 1021     		movs	r1, #16
 701 01d8 FFF7FEFF 		bl	chHeapAlloc
 702 01dc 0590     		str	r0, [sp, #20]
 703              		.loc 1 124 0
 704 01de 3F48     		ldr	r0, .L22
 705 01e0 1021     		movs	r1, #16
 706 01e2 FFF7FEFF 		bl	chHeapAlloc
 707 01e6 0490     		str	r0, [sp, #16]
 708              		.loc 1 125 0
 709 01e8 0598     		ldr	r0, [sp, #20]
 710 01ea FFF7FEFF 		bl	chHeapFree
 711              		.loc 1 126 0
 712 01ee 02AB     		add	r3, sp, #8
 713 01f0 3A48     		ldr	r0, .L22
 714 01f2 1946     		mov	r1, r3
 715 01f4 FFF7FEFF 		bl	chHeapStatus
 716 01f8 0346     		mov	r3, r0
 717 01fa 022B     		cmp	r3, #2
 718 01fc 14BF     		ite	ne
 719 01fe 0023     		movne	r3, #0
 720 0200 0123     		moveq	r3, #1
 721 0202 DBB2     		uxtb	r3, r3
 722 0204 0820     		movs	r0, #8
 723 0206 1946     		mov	r1, r3
 724 0208 FFF7FEFF 		bl	_test_assert
 725 020c 0346     		mov	r3, r0
 726 020e 002B     		cmp	r3, #0
 727 0210 00D0     		beq	.L16
 728              		.loc 1 126 0 is_stmt 0 discriminator 1
 729 0212 60E0     		b	.L4
 730              	.L16:
 731              		.loc 1 127 0 is_stmt 1
 732 0214 3148     		ldr	r0, .L22
 733 0216 2021     		movs	r1, #32
 734 0218 FFF7FEFF 		bl	chHeapAlloc
 735 021c 0590     		str	r0, [sp, #20]
 736              		.loc 1 128 0
 737 021e 0598     		ldr	r0, [sp, #20]
 738 0220 FFF7FEFF 		bl	chHeapFree
 739              		.loc 1 129 0
 740 0224 0498     		ldr	r0, [sp, #16]
 741 0226 FFF7FEFF 		bl	chHeapFree
 742              		.loc 1 130 0
 743 022a 02AB     		add	r3, sp, #8
 744 022c 2B48     		ldr	r0, .L22
 745 022e 1946     		mov	r1, r3
 746 0230 FFF7FEFF 		bl	chHeapStatus
 747 0234 0346     		mov	r3, r0
 748 0236 012B     		cmp	r3, #1
 749 0238 14BF     		ite	ne
 750 023a 0023     		movne	r3, #0
 751 023c 0123     		moveq	r3, #1
 752 023e DBB2     		uxtb	r3, r3
 753 0240 0920     		movs	r0, #9
 754 0242 1946     		mov	r1, r3
ARM GAS  /tmp/cchU44nR.s 			page 38


 755 0244 FFF7FEFF 		bl	_test_assert
 756 0248 0346     		mov	r3, r0
 757 024a 002B     		cmp	r3, #0
 758 024c 00D0     		beq	.L17
 759              		.loc 1 130 0 is_stmt 0 discriminator 1
 760 024e 42E0     		b	.L4
 761              	.L17:
 762              		.loc 1 133 0 is_stmt 1
 763 0250 02AB     		add	r3, sp, #8
 764 0252 2248     		ldr	r0, .L22
 765 0254 1946     		mov	r1, r3
 766 0256 FFF7FEFF 		bl	chHeapStatus
 767              		.loc 1 134 0
 768 025a 029B     		ldr	r3, [sp, #8]
 769 025c 1F48     		ldr	r0, .L22
 770 025e 1946     		mov	r1, r3
 771 0260 FFF7FEFF 		bl	chHeapAlloc
 772 0264 0590     		str	r0, [sp, #20]
 773              		.loc 1 135 0
 774 0266 02AB     		add	r3, sp, #8
 775 0268 1C48     		ldr	r0, .L22
 776 026a 1946     		mov	r1, r3
 777 026c FFF7FEFF 		bl	chHeapStatus
 778 0270 0346     		mov	r3, r0
 779 0272 002B     		cmp	r3, #0
 780 0274 14BF     		ite	ne
 781 0276 0023     		movne	r3, #0
 782 0278 0123     		moveq	r3, #1
 783 027a DBB2     		uxtb	r3, r3
 784 027c 0A20     		movs	r0, #10
 785 027e 1946     		mov	r1, r3
 786 0280 FFF7FEFF 		bl	_test_assert
 787 0284 0346     		mov	r3, r0
 788 0286 002B     		cmp	r3, #0
 789 0288 00D0     		beq	.L18
 790              		.loc 1 135 0 is_stmt 0 discriminator 1
 791 028a 24E0     		b	.L4
 792              	.L18:
 793              		.loc 1 136 0 is_stmt 1
 794 028c 0598     		ldr	r0, [sp, #20]
 795 028e FFF7FEFF 		bl	chHeapFree
 796              		.loc 1 138 0
 797 0292 02AB     		add	r3, sp, #8
 798 0294 1148     		ldr	r0, .L22
 799 0296 1946     		mov	r1, r3
 800 0298 FFF7FEFF 		bl	chHeapStatus
 801 029c 0346     		mov	r3, r0
 802 029e 012B     		cmp	r3, #1
 803 02a0 14BF     		ite	ne
 804 02a2 0023     		movne	r3, #0
 805 02a4 0123     		moveq	r3, #1
 806 02a6 DBB2     		uxtb	r3, r3
 807 02a8 0B20     		movs	r0, #11
 808 02aa 1946     		mov	r1, r3
 809 02ac FFF7FEFF 		bl	_test_assert
 810 02b0 0346     		mov	r3, r0
 811 02b2 002B     		cmp	r3, #0
ARM GAS  /tmp/cchU44nR.s 			page 39


 812 02b4 00D0     		beq	.L19
 813              		.loc 1 138 0 is_stmt 0 discriminator 1
 814 02b6 0EE0     		b	.L4
 815              	.L19:
 816              		.loc 1 139 0 is_stmt 1
 817 02b8 029A     		ldr	r2, [sp, #8]
 818 02ba 019B     		ldr	r3, [sp, #4]
 819 02bc 9A42     		cmp	r2, r3
 820 02be 14BF     		ite	ne
 821 02c0 0023     		movne	r3, #0
 822 02c2 0123     		moveq	r3, #1
 823 02c4 DBB2     		uxtb	r3, r3
 824 02c6 0C20     		movs	r0, #12
 825 02c8 1946     		mov	r1, r3
 826 02ca FFF7FEFF 		bl	_test_assert
 827 02ce 0346     		mov	r3, r0
 828 02d0 002B     		cmp	r3, #0
 829 02d2 00D0     		beq	.L4
 830 02d4 00BF     		nop
 831              	.L4:
 832              		.loc 1 140 0
 833 02d6 07B0     		add	sp, sp, #28
 834              		@ sp needed
 835 02d8 5DF804FB 		ldr	pc, [sp], #4
 836              	.L23:
 837              		.align	2
 838              	.L22:
 839 02dc 00000000 		.word	test_heap
 840              		.cfi_endproc
 841              	.LFE242:
 842              		.size	heap1_execute, .-heap1_execute
 843              		.global	testheap1
 844              		.section	.rodata
 845              		.align	2
 846              	.LC0:
 847 0000 48656170 		.ascii	"Heap, allocation and fragmentation test\000"
 847      2C20616C 
 847      6C6F6361 
 847      74696F6E 
 847      20616E64 
 848              		.section	.rodata.testheap1,"a",%progbits
 849              		.align	2
 850              		.type	testheap1, %object
 851              		.size	testheap1, 16
 852              	testheap1:
 853 0000 00000000 		.word	.LC0
 854 0004 00000000 		.word	heap1_setup
 855 0008 00000000 		.word	0
 856 000c 00000000 		.word	heap1_execute
 857              		.global	patternheap
 858              		.section	.rodata.patternheap,"a",%progbits
 859              		.align	2
 860              		.type	patternheap, %object
 861              		.size	patternheap, 8
 862              	patternheap:
 863 0000 00000000 		.word	testheap1
 864 0004 00000000 		.word	0
ARM GAS  /tmp/cchU44nR.s 			page 40


 865              		.text
 866              	.Letext0:
 867              		.file 2 "/nfs/nfs5/home/research/hardware/arm2/gcc-arm-embedded/gcc-arm-none-eabi-4_8-2014q2/lib/g
 868              		.file 3 "/nfs/nfs5/home/research/hardware/arm2/gcc-arm-embedded/gcc-arm-none-eabi-4_8-2014q2/arm-n
 869              		.file 4 "/nfs/nfs5/home/research/hardware/arm2/gcc-arm-embedded/gcc-arm-none-eabi-4_8-2014q2/arm-n
 870              		.file 5 "../ChibiOS/os/rt/ports/ARMCMx/compilers/GCC/chtypes.h"
 871              		.file 6 "../ChibiOS/os/rt/include/chsystypes.h"
 872              		.file 7 "../ChibiOS/os/rt/include/chschd.h"
 873              		.file 8 "../ChibiOS/os/rt/ports/ARMCMx/chcore.h"
 874              		.file 9 "../ChibiOS/os/rt/ports/ARMCMx/chcore_v7m.h"
 875              		.file 10 "../ChibiOS/os/rt/include/chtm.h"
 876              		.file 11 "../ChibiOS/os/rt/include/chsem.h"
 877              		.file 12 "../ChibiOS/os/rt/include/chmtx.h"
 878              		.file 13 "../ChibiOS/os/rt/include/chmemcore.h"
 879              		.file 14 "../ChibiOS/os/rt/include/chheap.h"
 880              		.file 15 "../ChibiOS/test/rt/test.h"
 881              		.file 16 "../ChibiOS/os/ext/CMSIS/include/core_cm4.h"
 882              		.section	.debug_info,"",%progbits
 883              	.Ldebug_info0:
 884 0000 A4080000 		.4byte	0x8a4
 885 0004 0400     		.2byte	0x4
 886 0006 00000000 		.4byte	.Ldebug_abbrev0
 887 000a 04       		.byte	0x4
 888 000b 01       		.uleb128 0x1
 889 000c 96010000 		.4byte	.LASF126
 890 0010 01       		.byte	0x1
 891 0011 85050000 		.4byte	.LASF127
 892 0015 83030000 		.4byte	.LASF128
 893 0019 00000000 		.4byte	.Ldebug_ranges0+0
 894 001d 00000000 		.4byte	0
 895 0021 00000000 		.4byte	.Ldebug_line0
 896 0025 02       		.uleb128 0x2
 897 0026 04       		.byte	0x4
 898 0027 05       		.byte	0x5
 899 0028 696E7400 		.ascii	"int\000"
 900 002c 03       		.uleb128 0x3
 901 002d 0D000000 		.4byte	.LASF2
 902 0031 02       		.byte	0x2
 903 0032 D4       		.byte	0xd4
 904 0033 37000000 		.4byte	0x37
 905 0037 04       		.uleb128 0x4
 906 0038 04       		.byte	0x4
 907 0039 07       		.byte	0x7
 908 003a 76020000 		.4byte	.LASF0
 909 003e 04       		.uleb128 0x4
 910 003f 01       		.byte	0x1
 911 0040 06       		.byte	0x6
 912 0041 E4000000 		.4byte	.LASF1
 913 0045 03       		.uleb128 0x3
 914 0046 24000000 		.4byte	.LASF3
 915 004a 03       		.byte	0x3
 916 004b 1C       		.byte	0x1c
 917 004c 50000000 		.4byte	0x50
 918 0050 04       		.uleb128 0x4
 919 0051 01       		.byte	0x1
 920 0052 08       		.byte	0x8
 921 0053 60040000 		.4byte	.LASF4
ARM GAS  /tmp/cchU44nR.s 			page 41


 922 0057 04       		.uleb128 0x4
 923 0058 02       		.byte	0x2
 924 0059 05       		.byte	0x5
 925 005a 84040000 		.4byte	.LASF5
 926 005e 04       		.uleb128 0x4
 927 005f 02       		.byte	0x2
 928 0060 07       		.byte	0x7
 929 0061 B1020000 		.4byte	.LASF6
 930 0065 03       		.uleb128 0x3
 931 0066 0D030000 		.4byte	.LASF7
 932 006a 03       		.byte	0x3
 933 006b 37       		.byte	0x37
 934 006c 70000000 		.4byte	0x70
 935 0070 04       		.uleb128 0x4
 936 0071 04       		.byte	0x4
 937 0072 05       		.byte	0x5
 938 0073 1D010000 		.4byte	.LASF8
 939 0077 03       		.uleb128 0x3
 940 0078 70050000 		.4byte	.LASF9
 941 007c 03       		.byte	0x3
 942 007d 38       		.byte	0x38
 943 007e 82000000 		.4byte	0x82
 944 0082 04       		.uleb128 0x4
 945 0083 04       		.byte	0x4
 946 0084 07       		.byte	0x7
 947 0085 2B050000 		.4byte	.LASF10
 948 0089 04       		.uleb128 0x4
 949 008a 08       		.byte	0x8
 950 008b 05       		.byte	0x5
 951 008c D6000000 		.4byte	.LASF11
 952 0090 03       		.uleb128 0x3
 953 0091 02040000 		.4byte	.LASF12
 954 0095 03       		.byte	0x3
 955 0096 4E       		.byte	0x4e
 956 0097 9B000000 		.4byte	0x9b
 957 009b 04       		.uleb128 0x4
 958 009c 08       		.byte	0x8
 959 009d 07       		.byte	0x7
 960 009e 56000000 		.4byte	.LASF13
 961 00a2 03       		.uleb128 0x3
 962 00a3 E4050000 		.4byte	.LASF14
 963 00a7 04       		.byte	0x4
 964 00a8 2A       		.byte	0x2a
 965 00a9 45000000 		.4byte	0x45
 966 00ad 03       		.uleb128 0x3
 967 00ae 58040000 		.4byte	.LASF15
 968 00b2 04       		.byte	0x4
 969 00b3 41       		.byte	0x41
 970 00b4 65000000 		.4byte	0x65
 971 00b8 03       		.uleb128 0x3
 972 00b9 F5040000 		.4byte	.LASF16
 973 00bd 04       		.byte	0x4
 974 00be 42       		.byte	0x42
 975 00bf 77000000 		.4byte	0x77
 976 00c3 03       		.uleb128 0x3
 977 00c4 1B000000 		.4byte	.LASF17
 978 00c8 04       		.byte	0x4
ARM GAS  /tmp/cchU44nR.s 			page 42


 979 00c9 4E       		.byte	0x4e
 980 00ca 90000000 		.4byte	0x90
 981 00ce 03       		.uleb128 0x3
 982 00cf B2050000 		.4byte	.LASF18
 983 00d3 05       		.byte	0x5
 984 00d4 39       		.byte	0x39
 985 00d5 B8000000 		.4byte	0xb8
 986 00d9 03       		.uleb128 0x3
 987 00da EB020000 		.4byte	.LASF19
 988 00de 05       		.byte	0x5
 989 00df 3C       		.byte	0x3c
 990 00e0 A2000000 		.4byte	0xa2
 991 00e4 03       		.uleb128 0x3
 992 00e5 26010000 		.4byte	.LASF20
 993 00e9 05       		.byte	0x5
 994 00ea 3D       		.byte	0x3d
 995 00eb A2000000 		.4byte	0xa2
 996 00ef 03       		.uleb128 0x3
 997 00f0 0D040000 		.4byte	.LASF21
 998 00f4 05       		.byte	0x5
 999 00f5 3E       		.byte	0x3e
 1000 00f6 A2000000 		.4byte	0xa2
 1001 00fa 03       		.uleb128 0x3
 1002 00fb 34040000 		.4byte	.LASF22
 1003 00ff 05       		.byte	0x5
 1004 0100 40       		.byte	0x40
 1005 0101 B8000000 		.4byte	0xb8
 1006 0105 03       		.uleb128 0x3
 1007 0106 D9020000 		.4byte	.LASF23
 1008 010a 05       		.byte	0x5
 1009 010b 41       		.byte	0x41
 1010 010c AD000000 		.4byte	0xad
 1011 0110 03       		.uleb128 0x3
 1012 0111 01030000 		.4byte	.LASF24
 1013 0115 05       		.byte	0x5
 1014 0116 43       		.byte	0x43
 1015 0117 B8000000 		.4byte	0xb8
 1016 011b 03       		.uleb128 0x3
 1017 011c 90010000 		.4byte	.LASF25
 1018 0120 05       		.byte	0x5
 1019 0121 45       		.byte	0x45
 1020 0122 AD000000 		.4byte	0xad
 1021 0126 03       		.uleb128 0x3
 1022 0127 52050000 		.4byte	.LASF26
 1023 012b 06       		.byte	0x6
 1024 012c 33       		.byte	0x33
 1025 012d B8000000 		.4byte	0xb8
 1026 0131 03       		.uleb128 0x3
 1027 0132 42050000 		.4byte	.LASF27
 1028 0136 06       		.byte	0x6
 1029 0137 3F       		.byte	0x3f
 1030 0138 3C010000 		.4byte	0x13c
 1031 013c 05       		.uleb128 0x5
 1032 013d C4020000 		.4byte	.LASF47
 1033 0141 44       		.byte	0x44
 1034 0142 07       		.byte	0x7
 1035 0143 C2       		.byte	0xc2
ARM GAS  /tmp/cchU44nR.s 			page 43


 1036 0144 28020000 		.4byte	0x228
 1037 0148 06       		.uleb128 0x6
 1038 0149 A4040000 		.4byte	.LASF28
 1039 014d 07       		.byte	0x7
 1040 014e C3       		.byte	0xc3
 1041 014f 33020000 		.4byte	0x233
 1042 0153 00       		.byte	0
 1043 0154 06       		.uleb128 0x6
 1044 0155 25040000 		.4byte	.LASF29
 1045 0159 07       		.byte	0x7
 1046 015a C5       		.byte	0xc5
 1047 015b 33020000 		.4byte	0x233
 1048 015f 04       		.byte	0x4
 1049 0160 06       		.uleb128 0x6
 1050 0161 BB000000 		.4byte	.LASF30
 1051 0165 07       		.byte	0x7
 1052 0166 C7       		.byte	0xc7
 1053 0167 FA000000 		.4byte	0xfa
 1054 016b 08       		.byte	0x8
 1055 016c 06       		.uleb128 0x6
 1056 016d 33060000 		.4byte	.LASF31
 1057 0171 07       		.byte	0x7
 1058 0172 C8       		.byte	0xc8
 1059 0173 63040000 		.4byte	0x463
 1060 0177 0C       		.byte	0xc
 1061 0178 06       		.uleb128 0x6
 1062 0179 44010000 		.4byte	.LASF32
 1063 017d 07       		.byte	0x7
 1064 017e CA       		.byte	0xca
 1065 017f 33020000 		.4byte	0x233
 1066 0183 10       		.byte	0x10
 1067 0184 06       		.uleb128 0x6
 1068 0185 75030000 		.4byte	.LASF33
 1069 0189 07       		.byte	0x7
 1070 018a CB       		.byte	0xcb
 1071 018b 33020000 		.4byte	0x233
 1072 018f 14       		.byte	0x14
 1073 0190 06       		.uleb128 0x6
 1074 0191 08060000 		.4byte	.LASF34
 1075 0195 07       		.byte	0x7
 1076 0196 D2       		.byte	0xd2
 1077 0197 EE050000 		.4byte	0x5ee
 1078 019b 18       		.byte	0x18
 1079 019c 06       		.uleb128 0x6
 1080 019d E5030000 		.4byte	.LASF35
 1081 01a1 07       		.byte	0x7
 1082 01a2 D8       		.byte	0xd8
 1083 01a3 00060000 		.4byte	0x600
 1084 01a7 1C       		.byte	0x1c
 1085 01a8 06       		.uleb128 0x6
 1086 01a9 8E040000 		.4byte	.LASF36
 1087 01ad 07       		.byte	0x7
 1088 01ae DD       		.byte	0xdd
 1089 01af E4000000 		.4byte	0xe4
 1090 01b3 20       		.byte	0x20
 1091 01b4 06       		.uleb128 0x6
 1092 01b5 AB040000 		.4byte	.LASF37
ARM GAS  /tmp/cchU44nR.s 			page 44


 1093 01b9 07       		.byte	0x7
 1094 01ba E1       		.byte	0xe1
 1095 01bb D9000000 		.4byte	0xd9
 1096 01bf 21       		.byte	0x21
 1097 01c0 06       		.uleb128 0x6
 1098 01c1 D7050000 		.4byte	.LASF38
 1099 01c5 07       		.byte	0x7
 1100 01c6 E6       		.byte	0xe6
 1101 01c7 EF000000 		.4byte	0xef
 1102 01cb 22       		.byte	0x22
 1103 01cc 07       		.uleb128 0x7
 1104 01cd 705F7500 		.ascii	"p_u\000"
 1105 01d1 07       		.byte	0x7
 1106 01d2 3701     		.2byte	0x137
 1107 01d4 1D050000 		.4byte	0x51d
 1108 01d8 24       		.byte	0x24
 1109 01d9 08       		.uleb128 0x8
 1110 01da 2C030000 		.4byte	.LASF39
 1111 01de 07       		.byte	0x7
 1112 01df 3C01     		.2byte	0x13c
 1113 01e1 39020000 		.4byte	0x239
 1114 01e5 28       		.byte	0x28
 1115 01e6 08       		.uleb128 0x8
 1116 01e7 92020000 		.4byte	.LASF40
 1117 01eb 07       		.byte	0x7
 1118 01ec 4201     		.2byte	0x142
 1119 01ee 5D020000 		.4byte	0x25d
 1120 01f2 2C       		.byte	0x2c
 1121 01f3 08       		.uleb128 0x8
 1122 01f4 EA040000 		.4byte	.LASF41
 1123 01f8 07       		.byte	0x7
 1124 01f9 4801     		.2byte	0x148
 1125 01fb 10010000 		.4byte	0x110
 1126 01ff 34       		.byte	0x34
 1127 0200 08       		.uleb128 0x8
 1128 0201 7A040000 		.4byte	.LASF42
 1129 0205 07       		.byte	0x7
 1130 0206 4F01     		.2byte	0x14f
 1131 0208 E8050000 		.4byte	0x5e8
 1132 020c 38       		.byte	0x38
 1133 020d 08       		.uleb128 0x8
 1134 020e 5C050000 		.4byte	.LASF43
 1135 0212 07       		.byte	0x7
 1136 0213 5301     		.2byte	0x153
 1137 0215 FA000000 		.4byte	0xfa
 1138 0219 3C       		.byte	0x3c
 1139 021a 08       		.uleb128 0x8
 1140 021b F6000000 		.4byte	.LASF44
 1141 021f 07       		.byte	0x7
 1142 0220 5A01     		.2byte	0x15a
 1143 0222 10030000 		.4byte	0x310
 1144 0226 40       		.byte	0x40
 1145 0227 00       		.byte	0
 1146 0228 03       		.uleb128 0x3
 1147 0229 3F030000 		.4byte	.LASF45
 1148 022d 06       		.byte	0x6
 1149 022e 44       		.byte	0x44
ARM GAS  /tmp/cchU44nR.s 			page 45


 1150 022f 33020000 		.4byte	0x233
 1151 0233 09       		.uleb128 0x9
 1152 0234 04       		.byte	0x4
 1153 0235 31010000 		.4byte	0x131
 1154 0239 03       		.uleb128 0x3
 1155 023a 14060000 		.4byte	.LASF46
 1156 023e 06       		.byte	0x6
 1157 023f 49       		.byte	0x49
 1158 0240 44020000 		.4byte	0x244
 1159 0244 05       		.uleb128 0x5
 1160 0245 16050000 		.4byte	.LASF48
 1161 0249 04       		.byte	0x4
 1162 024a 07       		.byte	0x7
 1163 024b B0       		.byte	0xb0
 1164 024c 5D020000 		.4byte	0x25d
 1165 0250 06       		.uleb128 0x6
 1166 0251 A4040000 		.4byte	.LASF28
 1167 0255 07       		.byte	0x7
 1168 0256 B1       		.byte	0xb1
 1169 0257 33020000 		.4byte	0x233
 1170 025b 00       		.byte	0
 1171 025c 00       		.byte	0
 1172 025d 03       		.uleb128 0x3
 1173 025e B3040000 		.4byte	.LASF49
 1174 0262 06       		.byte	0x6
 1175 0263 50       		.byte	0x50
 1176 0264 68020000 		.4byte	0x268
 1177 0268 05       		.uleb128 0x5
 1178 0269 AA000000 		.4byte	.LASF50
 1179 026d 08       		.byte	0x8
 1180 026e 07       		.byte	0x7
 1181 026f B7       		.byte	0xb7
 1182 0270 8D020000 		.4byte	0x28d
 1183 0274 06       		.uleb128 0x6
 1184 0275 A4040000 		.4byte	.LASF28
 1185 0279 07       		.byte	0x7
 1186 027a B8       		.byte	0xb8
 1187 027b 33020000 		.4byte	0x233
 1188 027f 00       		.byte	0
 1189 0280 06       		.uleb128 0x6
 1190 0281 25040000 		.4byte	.LASF29
 1191 0285 07       		.byte	0x7
 1192 0286 B9       		.byte	0xb9
 1193 0287 33020000 		.4byte	0x233
 1194 028b 04       		.byte	0x4
 1195 028c 00       		.byte	0
 1196 028d 03       		.uleb128 0x3
 1197 028e 00000000 		.4byte	.LASF51
 1198 0292 06       		.byte	0x6
 1199 0293 57       		.byte	0x57
 1200 0294 98020000 		.4byte	0x298
 1201 0298 0A       		.uleb128 0xa
 1202 0299 F3020000 		.4byte	.LASF52
 1203 029d 1C       		.byte	0x1c
 1204 029e 07       		.byte	0x7
 1205 029f 9201     		.2byte	0x192
 1206 02a1 F4020000 		.4byte	0x2f4
ARM GAS  /tmp/cchU44nR.s 			page 46


 1207 02a5 08       		.uleb128 0x8
 1208 02a6 05050000 		.4byte	.LASF53
 1209 02aa 07       		.byte	0x7
 1210 02ab 9301     		.2byte	0x193
 1211 02ad 5D020000 		.4byte	0x25d
 1212 02b1 00       		.byte	0
 1213 02b2 08       		.uleb128 0x8
 1214 02b3 96040000 		.4byte	.LASF54
 1215 02b7 07       		.byte	0x7
 1216 02b8 9401     		.2byte	0x194
 1217 02ba FA000000 		.4byte	0xfa
 1218 02be 08       		.byte	0x8
 1219 02bf 08       		.uleb128 0x8
 1220 02c0 7D030000 		.4byte	.LASF55
 1221 02c4 07       		.byte	0x7
 1222 02c5 9601     		.2byte	0x196
 1223 02c7 63040000 		.4byte	0x463
 1224 02cb 0C       		.byte	0xc
 1225 02cc 08       		.uleb128 0x8
 1226 02cd 54010000 		.4byte	.LASF56
 1227 02d1 07       		.byte	0x7
 1228 02d2 9901     		.2byte	0x199
 1229 02d4 33020000 		.4byte	0x233
 1230 02d8 10       		.byte	0x10
 1231 02d9 08       		.uleb128 0x8
 1232 02da FA030000 		.4byte	.LASF57
 1233 02de 07       		.byte	0x7
 1234 02df 9A01     		.2byte	0x19a
 1235 02e1 33020000 		.4byte	0x233
 1236 02e5 14       		.byte	0x14
 1237 02e6 08       		.uleb128 0x8
 1238 02e7 F0030000 		.4byte	.LASF58
 1239 02eb 07       		.byte	0x7
 1240 02ec 9D01     		.2byte	0x19d
 1241 02ee 33020000 		.4byte	0x233
 1242 02f2 18       		.byte	0x18
 1243 02f3 00       		.byte	0
 1244 02f4 03       		.uleb128 0x3
 1245 02f5 67050000 		.4byte	.LASF59
 1246 02f9 06       		.byte	0x6
 1247 02fa 5C       		.byte	0x5c
 1248 02fb FF020000 		.4byte	0x2ff
 1249 02ff 09       		.uleb128 0x9
 1250 0300 04       		.byte	0x4
 1251 0301 05030000 		.4byte	0x305
 1252 0305 0B       		.uleb128 0xb
 1253 0306 10030000 		.4byte	0x310
 1254 030a 0C       		.uleb128 0xc
 1255 030b 10030000 		.4byte	0x310
 1256 030f 00       		.byte	0
 1257 0310 0D       		.uleb128 0xd
 1258 0311 04       		.byte	0x4
 1259 0312 03       		.uleb128 0x3
 1260 0313 15040000 		.4byte	.LASF60
 1261 0317 06       		.byte	0x6
 1262 0318 61       		.byte	0x61
 1263 0319 1D030000 		.4byte	0x31d
ARM GAS  /tmp/cchU44nR.s 			page 47


 1264 031d 0A       		.uleb128 0xa
 1265 031e C3040000 		.4byte	.LASF61
 1266 0322 14       		.byte	0x14
 1267 0323 07       		.byte	0x7
 1268 0324 6D01     		.2byte	0x16d
 1269 0326 6C030000 		.4byte	0x36c
 1270 032a 08       		.uleb128 0x8
 1271 032b 83020000 		.4byte	.LASF62
 1272 032f 07       		.byte	0x7
 1273 0330 6E01     		.2byte	0x16e
 1274 0332 06060000 		.4byte	0x606
 1275 0336 00       		.byte	0
 1276 0337 08       		.uleb128 0x8
 1277 0338 65010000 		.4byte	.LASF63
 1278 033c 07       		.byte	0x7
 1279 033d 6F01     		.2byte	0x16f
 1280 033f 06060000 		.4byte	0x606
 1281 0343 04       		.byte	0x4
 1282 0344 08       		.uleb128 0x8
 1283 0345 0D050000 		.4byte	.LASF64
 1284 0349 07       		.byte	0x7
 1285 034a 7001     		.2byte	0x170
 1286 034c 26010000 		.4byte	0x126
 1287 0350 08       		.byte	0x8
 1288 0351 08       		.uleb128 0x8
 1289 0352 39060000 		.4byte	.LASF65
 1290 0356 07       		.byte	0x7
 1291 0357 7101     		.2byte	0x171
 1292 0359 F4020000 		.4byte	0x2f4
 1293 035d 0C       		.byte	0xc
 1294 035e 08       		.uleb128 0x8
 1295 035f BA050000 		.4byte	.LASF66
 1296 0363 07       		.byte	0x7
 1297 0364 7301     		.2byte	0x173
 1298 0366 10030000 		.4byte	0x310
 1299 036a 10       		.byte	0x10
 1300 036b 00       		.byte	0
 1301 036c 03       		.uleb128 0x3
 1302 036d 82000000 		.4byte	.LASF67
 1303 0371 06       		.byte	0x6
 1304 0372 66       		.byte	0x66
 1305 0373 77030000 		.4byte	0x377
 1306 0377 0A       		.uleb128 0xa
 1307 0378 52030000 		.4byte	.LASF68
 1308 037c 10       		.byte	0x10
 1309 037d 07       		.byte	0x7
 1310 037e 7D01     		.2byte	0x17d
 1311 0380 B9030000 		.4byte	0x3b9
 1312 0384 08       		.uleb128 0x8
 1313 0385 83020000 		.4byte	.LASF62
 1314 0389 07       		.byte	0x7
 1315 038a 7E01     		.2byte	0x17e
 1316 038c 06060000 		.4byte	0x606
 1317 0390 00       		.byte	0
 1318 0391 08       		.uleb128 0x8
 1319 0392 65010000 		.4byte	.LASF63
 1320 0396 07       		.byte	0x7
ARM GAS  /tmp/cchU44nR.s 			page 48


 1321 0397 8001     		.2byte	0x180
 1322 0399 06060000 		.4byte	0x606
 1323 039d 04       		.byte	0x4
 1324 039e 08       		.uleb128 0x8
 1325 039f 0D050000 		.4byte	.LASF64
 1326 03a3 07       		.byte	0x7
 1327 03a4 8201     		.2byte	0x182
 1328 03a6 26010000 		.4byte	0x126
 1329 03aa 08       		.byte	0x8
 1330 03ab 08       		.uleb128 0x8
 1331 03ac 69030000 		.4byte	.LASF69
 1332 03b0 07       		.byte	0x7
 1333 03b1 8A01     		.2byte	0x18a
 1334 03b3 26010000 		.4byte	0x126
 1335 03b7 0C       		.byte	0xc
 1336 03b8 00       		.byte	0
 1337 03b9 03       		.uleb128 0x3
 1338 03ba 3A000000 		.4byte	.LASF70
 1339 03be 06       		.byte	0x6
 1340 03bf 6B       		.byte	0x6b
 1341 03c0 C4030000 		.4byte	0x3c4
 1342 03c4 0A       		.uleb128 0xa
 1343 03c5 48040000 		.4byte	.LASF71
 1344 03c9 04       		.byte	0x4
 1345 03ca 07       		.byte	0x7
 1346 03cb A401     		.2byte	0x1a4
 1347 03cd DF030000 		.4byte	0x3df
 1348 03d1 08       		.uleb128 0x8
 1349 03d2 7B050000 		.4byte	.LASF72
 1350 03d6 07       		.byte	0x7
 1351 03d7 AC01     		.2byte	0x1ac
 1352 03d9 0C060000 		.4byte	0x60c
 1353 03dd 00       		.byte	0
 1354 03de 00       		.byte	0
 1355 03df 03       		.uleb128 0x3
 1356 03e0 DF020000 		.4byte	.LASF73
 1357 03e4 06       		.byte	0x6
 1358 03e5 70       		.byte	0x70
 1359 03e6 EA030000 		.4byte	0x3ea
 1360 03ea 0E       		.uleb128 0xe
 1361 03eb 13010000 		.4byte	.LASF74
 1362 03ef 5001     		.2byte	0x150
 1363 03f1 07       		.byte	0x7
 1364 03f2 C401     		.2byte	0x1c4
 1365 03f4 46040000 		.4byte	0x446
 1366 03f8 08       		.uleb128 0x8
 1367 03f9 DE050000 		.4byte	.LASF75
 1368 03fd 07       		.byte	0x7
 1369 03fe C801     		.2byte	0x1c8
 1370 0400 8D020000 		.4byte	0x28d
 1371 0404 00       		.byte	0
 1372 0405 08       		.uleb128 0x8
 1373 0406 06010000 		.4byte	.LASF76
 1374 040a 07       		.byte	0x7
 1375 040b CC01     		.2byte	0x1cc
 1376 040d 6C030000 		.4byte	0x36c
 1377 0411 1C       		.byte	0x1c
ARM GAS  /tmp/cchU44nR.s 			page 49


 1378 0412 07       		.uleb128 0x7
 1379 0413 64626700 		.ascii	"dbg\000"
 1380 0417 07       		.byte	0x7
 1381 0418 D001     		.2byte	0x1d0
 1382 041a B9030000 		.4byte	0x3b9
 1383 041e 2C       		.byte	0x2c
 1384 041f 08       		.uleb128 0x8
 1385 0420 CE020000 		.4byte	.LASF77
 1386 0424 07       		.byte	0x7
 1387 0425 D401     		.2byte	0x1d4
 1388 0427 31010000 		.4byte	0x131
 1389 042b 30       		.byte	0x30
 1390 042c 07       		.uleb128 0x7
 1391 042d 746D00   		.ascii	"tm\000"
 1392 0430 07       		.byte	0x7
 1393 0431 D901     		.2byte	0x1d9
 1394 0433 12050000 		.4byte	0x512
 1395 0437 74       		.byte	0x74
 1396 0438 08       		.uleb128 0x8
 1397 0439 81010000 		.4byte	.LASF78
 1398 043d 07       		.byte	0x7
 1399 043e E501     		.2byte	0x1e5
 1400 0440 11060000 		.4byte	0x611
 1401 0444 78       		.byte	0x78
 1402 0445 00       		.byte	0
 1403 0446 04       		.uleb128 0x4
 1404 0447 04       		.byte	0x4
 1405 0448 07       		.byte	0x7
 1406 0449 36030000 		.4byte	.LASF79
 1407 044d 03       		.uleb128 0x3
 1408 044e 5C010000 		.4byte	.LASF80
 1409 0452 08       		.byte	0x8
 1410 0453 65       		.byte	0x65
 1411 0454 10030000 		.4byte	0x310
 1412 0458 03       		.uleb128 0x3
 1413 0459 17030000 		.4byte	.LASF81
 1414 045d 08       		.byte	0x8
 1415 045e 6D       		.byte	0x6d
 1416 045f C3000000 		.4byte	0xc3
 1417 0463 05       		.uleb128 0x5
 1418 0464 AA050000 		.4byte	.LASF82
 1419 0468 04       		.byte	0x4
 1420 0469 08       		.byte	0x8
 1421 046a 89       		.byte	0x89
 1422 046b 7C040000 		.4byte	0x47c
 1423 046f 0F       		.uleb128 0xf
 1424 0470 72313300 		.ascii	"r13\000"
 1425 0474 08       		.byte	0x8
 1426 0475 8A       		.byte	0x8a
 1427 0476 F7040000 		.4byte	0x4f7
 1428 047a 00       		.byte	0
 1429 047b 00       		.byte	0
 1430 047c 05       		.uleb128 0x5
 1431 047d 2E000000 		.4byte	.LASF83
 1432 0481 24       		.byte	0x24
 1433 0482 09       		.byte	0x9
 1434 0483 FD       		.byte	0xfd
ARM GAS  /tmp/cchU44nR.s 			page 50


 1435 0484 F7040000 		.4byte	0x4f7
 1436 0488 07       		.uleb128 0x7
 1437 0489 723400   		.ascii	"r4\000"
 1438 048c 09       		.byte	0x9
 1439 048d 1001     		.2byte	0x110
 1440 048f 4D040000 		.4byte	0x44d
 1441 0493 00       		.byte	0
 1442 0494 07       		.uleb128 0x7
 1443 0495 723500   		.ascii	"r5\000"
 1444 0498 09       		.byte	0x9
 1445 0499 1101     		.2byte	0x111
 1446 049b 4D040000 		.4byte	0x44d
 1447 049f 04       		.byte	0x4
 1448 04a0 07       		.uleb128 0x7
 1449 04a1 723600   		.ascii	"r6\000"
 1450 04a4 09       		.byte	0x9
 1451 04a5 1201     		.2byte	0x112
 1452 04a7 4D040000 		.4byte	0x44d
 1453 04ab 08       		.byte	0x8
 1454 04ac 07       		.uleb128 0x7
 1455 04ad 723700   		.ascii	"r7\000"
 1456 04b0 09       		.byte	0x9
 1457 04b1 1301     		.2byte	0x113
 1458 04b3 4D040000 		.4byte	0x44d
 1459 04b7 0C       		.byte	0xc
 1460 04b8 07       		.uleb128 0x7
 1461 04b9 723800   		.ascii	"r8\000"
 1462 04bc 09       		.byte	0x9
 1463 04bd 1401     		.2byte	0x114
 1464 04bf 4D040000 		.4byte	0x44d
 1465 04c3 10       		.byte	0x10
 1466 04c4 07       		.uleb128 0x7
 1467 04c5 723900   		.ascii	"r9\000"
 1468 04c8 09       		.byte	0x9
 1469 04c9 1501     		.2byte	0x115
 1470 04cb 4D040000 		.4byte	0x44d
 1471 04cf 14       		.byte	0x14
 1472 04d0 07       		.uleb128 0x7
 1473 04d1 72313000 		.ascii	"r10\000"
 1474 04d5 09       		.byte	0x9
 1475 04d6 1601     		.2byte	0x116
 1476 04d8 4D040000 		.4byte	0x44d
 1477 04dc 18       		.byte	0x18
 1478 04dd 07       		.uleb128 0x7
 1479 04de 72313100 		.ascii	"r11\000"
 1480 04e2 09       		.byte	0x9
 1481 04e3 1701     		.2byte	0x117
 1482 04e5 4D040000 		.4byte	0x44d
 1483 04e9 1C       		.byte	0x1c
 1484 04ea 07       		.uleb128 0x7
 1485 04eb 6C7200   		.ascii	"lr\000"
 1486 04ee 09       		.byte	0x9
 1487 04ef 1801     		.2byte	0x118
 1488 04f1 4D040000 		.4byte	0x44d
 1489 04f5 20       		.byte	0x20
 1490 04f6 00       		.byte	0
 1491 04f7 09       		.uleb128 0x9
ARM GAS  /tmp/cchU44nR.s 			page 51


 1492 04f8 04       		.byte	0x4
 1493 04f9 7C040000 		.4byte	0x47c
 1494 04fd 10       		.uleb128 0x10
 1495 04fe 04       		.byte	0x4
 1496 04ff 0A       		.byte	0xa
 1497 0500 38       		.byte	0x38
 1498 0501 12050000 		.4byte	0x512
 1499 0505 06       		.uleb128 0x6
 1500 0506 A3050000 		.4byte	.LASF84
 1501 050a 0A       		.byte	0xa
 1502 050b 3C       		.byte	0x3c
 1503 050c CE000000 		.4byte	0xce
 1504 0510 00       		.byte	0
 1505 0511 00       		.byte	0
 1506 0512 03       		.uleb128 0x3
 1507 0513 CE030000 		.4byte	.LASF85
 1508 0517 0A       		.byte	0xa
 1509 0518 3D       		.byte	0x3d
 1510 0519 FD040000 		.4byte	0x4fd
 1511 051d 11       		.uleb128 0x11
 1512 051e 04       		.byte	0x4
 1513 051f 07       		.byte	0x7
 1514 0520 FA       		.byte	0xfa
 1515 0521 86050000 		.4byte	0x586
 1516 0525 12       		.uleb128 0x12
 1517 0526 14000000 		.4byte	.LASF86
 1518 052a 07       		.byte	0x7
 1519 052b 0101     		.2byte	0x101
 1520 052d 05010000 		.4byte	0x105
 1521 0531 12       		.uleb128 0x12
 1522 0532 6D000000 		.4byte	.LASF87
 1523 0536 07       		.byte	0x7
 1524 0537 0801     		.2byte	0x108
 1525 0539 05010000 		.4byte	0x105
 1526 053d 12       		.uleb128 0x12
 1527 053e 01060000 		.4byte	.LASF88
 1528 0542 07       		.byte	0x7
 1529 0543 0F01     		.2byte	0x10f
 1530 0545 10030000 		.4byte	0x310
 1531 0549 12       		.uleb128 0x12
 1532 054a 0D010000 		.4byte	.LASF89
 1533 054e 07       		.byte	0x7
 1534 054f 1601     		.2byte	0x116
 1535 0551 86050000 		.4byte	0x586
 1536 0555 12       		.uleb128 0x12
 1537 0556 23060000 		.4byte	.LASF90
 1538 055a 07       		.byte	0x7
 1539 055b 1B01     		.2byte	0x11b
 1540 055d 05010000 		.4byte	0x105
 1541 0561 12       		.uleb128 0x12
 1542 0562 8B020000 		.4byte	.LASF91
 1543 0566 07       		.byte	0x7
 1544 0567 2401     		.2byte	0x124
 1545 0569 B1050000 		.4byte	0x5b1
 1546 056d 12       		.uleb128 0x12
 1547 056e FE040000 		.4byte	.LASF92
 1548 0572 07       		.byte	0x7
ARM GAS  /tmp/cchU44nR.s 			page 52


 1549 0573 2D01     		.2byte	0x12d
 1550 0575 E8050000 		.4byte	0x5e8
 1551 0579 12       		.uleb128 0x12
 1552 057a 9D040000 		.4byte	.LASF93
 1553 057e 07       		.byte	0x7
 1554 057f 3501     		.2byte	0x135
 1555 0581 10010000 		.4byte	0x110
 1556 0585 00       		.byte	0
 1557 0586 09       		.uleb128 0x9
 1558 0587 04       		.byte	0x4
 1559 0588 28020000 		.4byte	0x228
 1560 058c 05       		.uleb128 0x5
 1561 058d DD040000 		.4byte	.LASF94
 1562 0591 0C       		.byte	0xc
 1563 0592 0B       		.byte	0xb
 1564 0593 34       		.byte	0x34
 1565 0594 B1050000 		.4byte	0x5b1
 1566 0598 06       		.uleb128 0x6
 1567 0599 4C010000 		.4byte	.LASF95
 1568 059d 0B       		.byte	0xb
 1569 059e 35       		.byte	0x35
 1570 059f 5D020000 		.4byte	0x25d
 1571 05a3 00       		.byte	0
 1572 05a4 06       		.uleb128 0x6
 1573 05a5 AB020000 		.4byte	.LASF96
 1574 05a9 0B       		.byte	0xb
 1575 05aa 37       		.byte	0x37
 1576 05ab 1B010000 		.4byte	0x11b
 1577 05af 08       		.byte	0x8
 1578 05b0 00       		.byte	0
 1579 05b1 09       		.uleb128 0x9
 1580 05b2 04       		.byte	0x4
 1581 05b3 8C050000 		.4byte	0x58c
 1582 05b7 05       		.uleb128 0x5
 1583 05b8 CE050000 		.4byte	.LASF97
 1584 05bc 10       		.byte	0x10
 1585 05bd 0C       		.byte	0xc
 1586 05be 39       		.byte	0x39
 1587 05bf E8050000 		.4byte	0x5e8
 1588 05c3 06       		.uleb128 0x6
 1589 05c4 FE000000 		.4byte	.LASF98
 1590 05c8 0C       		.byte	0xc
 1591 05c9 3A       		.byte	0x3a
 1592 05ca 5D020000 		.4byte	0x25d
 1593 05ce 00       		.byte	0
 1594 05cf 06       		.uleb128 0x6
 1595 05d0 2B060000 		.4byte	.LASF99
 1596 05d4 0C       		.byte	0xc
 1597 05d5 3C       		.byte	0x3c
 1598 05d6 33020000 		.4byte	0x233
 1599 05da 08       		.byte	0x8
 1600 05db 06       		.uleb128 0x6
 1601 05dc 4B050000 		.4byte	.LASF100
 1602 05e0 0C       		.byte	0xc
 1603 05e1 3E       		.byte	0x3e
 1604 05e2 2C060000 		.4byte	0x62c
 1605 05e6 0C       		.byte	0xc
ARM GAS  /tmp/cchU44nR.s 			page 53


 1606 05e7 00       		.byte	0
 1607 05e8 09       		.uleb128 0x9
 1608 05e9 04       		.byte	0x4
 1609 05ea B7050000 		.4byte	0x5b7
 1610 05ee 09       		.uleb128 0x9
 1611 05ef 04       		.byte	0x4
 1612 05f0 F4050000 		.4byte	0x5f4
 1613 05f4 13       		.uleb128 0x13
 1614 05f5 F9050000 		.4byte	0x5f9
 1615 05f9 04       		.uleb128 0x4
 1616 05fa 01       		.byte	0x1
 1617 05fb 08       		.byte	0x8
 1618 05fc 3D050000 		.4byte	.LASF101
 1619 0600 09       		.uleb128 0x9
 1620 0601 04       		.byte	0x4
 1621 0602 58040000 		.4byte	0x458
 1622 0606 09       		.uleb128 0x9
 1623 0607 04       		.byte	0x4
 1624 0608 12030000 		.4byte	0x312
 1625 060c 14       		.uleb128 0x14
 1626 060d EE050000 		.4byte	0x5ee
 1627 0611 15       		.uleb128 0x15
 1628 0612 58040000 		.4byte	0x458
 1629 0616 21060000 		.4byte	0x621
 1630 061a 16       		.uleb128 0x16
 1631 061b 46040000 		.4byte	0x446
 1632 061f 1A       		.byte	0x1a
 1633 0620 00       		.byte	0
 1634 0621 03       		.uleb128 0x3
 1635 0622 CE000000 		.4byte	.LASF102
 1636 0626 0C       		.byte	0xc
 1637 0627 34       		.byte	0x34
 1638 0628 B7050000 		.4byte	0x5b7
 1639 062c 09       		.uleb128 0x9
 1640 062d 04       		.byte	0x4
 1641 062e 21060000 		.4byte	0x621
 1642 0632 03       		.uleb128 0x3
 1643 0633 49000000 		.4byte	.LASF103
 1644 0637 0D       		.byte	0xd
 1645 0638 36       		.byte	0x36
 1646 0639 3D060000 		.4byte	0x63d
 1647 063d 09       		.uleb128 0x9
 1648 063e 04       		.byte	0x4
 1649 063f 43060000 		.4byte	0x643
 1650 0643 17       		.uleb128 0x17
 1651 0644 10030000 		.4byte	0x310
 1652 0648 52060000 		.4byte	0x652
 1653 064c 0C       		.uleb128 0xc
 1654 064d 2C000000 		.4byte	0x2c
 1655 0651 00       		.byte	0
 1656 0652 03       		.uleb128 0x3
 1657 0653 2F010000 		.4byte	.LASF104
 1658 0657 0E       		.byte	0xe
 1659 0658 3C       		.byte	0x3c
 1660 0659 5D060000 		.4byte	0x65d
 1661 065d 05       		.uleb128 0x5
 1662 065e 41060000 		.4byte	.LASF105
ARM GAS  /tmp/cchU44nR.s 			page 54


 1663 0662 20       		.byte	0x20
 1664 0663 0E       		.byte	0xe
 1665 0664 4F       		.byte	0x4f
 1666 0665 8E060000 		.4byte	0x68e
 1667 0669 06       		.uleb128 0x6
 1668 066a F6050000 		.4byte	.LASF106
 1669 066e 0E       		.byte	0xe
 1670 066f 50       		.byte	0x50
 1671 0670 32060000 		.4byte	0x632
 1672 0674 00       		.byte	0
 1673 0675 06       		.uleb128 0x6
 1674 0676 76000000 		.4byte	.LASF107
 1675 067a 0E       		.byte	0xe
 1676 067b 52       		.byte	0x52
 1677 067c AD060000 		.4byte	0x6ad
 1678 0680 08       		.byte	0x8
 1679 0681 06       		.uleb128 0x6
 1680 0682 F0000000 		.4byte	.LASF108
 1681 0686 0E       		.byte	0xe
 1682 0687 54       		.byte	0x54
 1683 0688 21060000 		.4byte	0x621
 1684 068c 10       		.byte	0x10
 1685 068d 00       		.byte	0
 1686 068e 11       		.uleb128 0x11
 1687 068f 04       		.byte	0x4
 1688 0690 0E       		.byte	0xe
 1689 0691 44       		.byte	0x44
 1690 0692 AD060000 		.4byte	0x6ad
 1691 0696 18       		.uleb128 0x18
 1692 0697 A5000000 		.4byte	.LASF109
 1693 069b 0E       		.byte	0xe
 1694 069c 45       		.byte	0x45
 1695 069d CE060000 		.4byte	0x6ce
 1696 06a1 18       		.uleb128 0x18
 1697 06a2 26050000 		.4byte	.LASF110
 1698 06a6 0E       		.byte	0xe
 1699 06a7 46       		.byte	0x46
 1700 06a8 D4060000 		.4byte	0x6d4
 1701 06ac 00       		.byte	0
 1702 06ad 19       		.uleb128 0x19
 1703 06ae 6E040000 		.4byte	.LASF118
 1704 06b2 08       		.byte	0x8
 1705 06b3 0E       		.byte	0xe
 1706 06b4 41       		.byte	0x41
 1707 06b5 CE060000 		.4byte	0x6ce
 1708 06b9 18       		.uleb128 0x18
 1709 06ba 7B010000 		.4byte	.LASF111
 1710 06be 0E       		.byte	0xe
 1711 06bf 42       		.byte	0x42
 1712 06c0 58040000 		.4byte	0x458
 1713 06c4 1A       		.uleb128 0x1a
 1714 06c5 6800     		.ascii	"h\000"
 1715 06c7 0E       		.byte	0xe
 1716 06c8 49       		.byte	0x49
 1717 06c9 DA060000 		.4byte	0x6da
 1718 06cd 00       		.byte	0
 1719 06ce 09       		.uleb128 0x9
ARM GAS  /tmp/cchU44nR.s 			page 55


 1720 06cf 04       		.byte	0x4
 1721 06d0 AD060000 		.4byte	0x6ad
 1722 06d4 09       		.uleb128 0x9
 1723 06d5 04       		.byte	0x4
 1724 06d6 52060000 		.4byte	0x652
 1725 06da 10       		.uleb128 0x10
 1726 06db 08       		.byte	0x8
 1727 06dc 0E       		.byte	0xe
 1728 06dd 43       		.byte	0x43
 1729 06de F9060000 		.4byte	0x6f9
 1730 06e2 0F       		.uleb128 0xf
 1731 06e3 7500     		.ascii	"u\000"
 1732 06e5 0E       		.byte	0xe
 1733 06e6 47       		.byte	0x47
 1734 06e7 8E060000 		.4byte	0x68e
 1735 06eb 00       		.byte	0
 1736 06ec 06       		.uleb128 0x6
 1737 06ed 0F060000 		.4byte	.LASF112
 1738 06f1 0E       		.byte	0xe
 1739 06f2 48       		.byte	0x48
 1740 06f3 2C000000 		.4byte	0x2c
 1741 06f7 04       		.byte	0x4
 1742 06f8 00       		.byte	0
 1743 06f9 05       		.uleb128 0x5
 1744 06fa D4040000 		.4byte	.LASF113
 1745 06fe 10       		.byte	0x10
 1746 06ff 0F       		.byte	0xf
 1747 0700 3B       		.byte	0x3b
 1748 0701 36070000 		.4byte	0x736
 1749 0705 06       		.uleb128 0x6
 1750 0706 A6020000 		.4byte	.LASF114
 1751 070a 0F       		.byte	0xf
 1752 070b 3C       		.byte	0x3c
 1753 070c EE050000 		.4byte	0x5ee
 1754 0710 00       		.byte	0
 1755 0711 06       		.uleb128 0x6
 1756 0712 DF030000 		.4byte	.LASF115
 1757 0716 0F       		.byte	0xf
 1758 0717 3D       		.byte	0x3d
 1759 0718 37070000 		.4byte	0x737
 1760 071c 04       		.byte	0x4
 1761 071d 06       		.uleb128 0x6
 1762 071e 9D020000 		.4byte	.LASF116
 1763 0722 0F       		.byte	0xf
 1764 0723 3E       		.byte	0x3e
 1765 0724 37070000 		.4byte	0x737
 1766 0728 08       		.byte	0x8
 1767 0729 06       		.uleb128 0x6
 1768 072a 2C040000 		.4byte	.LASF117
 1769 072e 0F       		.byte	0xf
 1770 072f 3F       		.byte	0x3f
 1771 0730 37070000 		.4byte	0x737
 1772 0734 0C       		.byte	0xc
 1773 0735 00       		.byte	0
 1774 0736 1B       		.uleb128 0x1b
 1775 0737 09       		.uleb128 0x9
 1776 0738 04       		.byte	0x4
ARM GAS  /tmp/cchU44nR.s 			page 56


 1777 0739 36070000 		.4byte	0x736
 1778 073d 1C       		.uleb128 0x1c
 1779 073e 6806     		.2byte	0x668
 1780 0740 0F       		.byte	0xf
 1781 0741 44       		.byte	0x44
 1782 0742 82070000 		.4byte	0x782
 1783 0746 0F       		.uleb128 0xf
 1784 0747 543000   		.ascii	"T0\000"
 1785 074a 0F       		.byte	0xf
 1786 074b 45       		.byte	0x45
 1787 074c 82070000 		.4byte	0x782
 1788 0750 00       		.byte	0
 1789 0751 1D       		.uleb128 0x1d
 1790 0752 543100   		.ascii	"T1\000"
 1791 0755 0F       		.byte	0xf
 1792 0756 46       		.byte	0x46
 1793 0757 82070000 		.4byte	0x782
 1794 075b 4801     		.2byte	0x148
 1795 075d 1D       		.uleb128 0x1d
 1796 075e 543200   		.ascii	"T2\000"
 1797 0761 0F       		.byte	0xf
 1798 0762 47       		.byte	0x47
 1799 0763 82070000 		.4byte	0x782
 1800 0767 9002     		.2byte	0x290
 1801 0769 1D       		.uleb128 0x1d
 1802 076a 543300   		.ascii	"T3\000"
 1803 076d 0F       		.byte	0xf
 1804 076e 48       		.byte	0x48
 1805 076f 82070000 		.4byte	0x782
 1806 0773 D803     		.2byte	0x3d8
 1807 0775 1D       		.uleb128 0x1d
 1808 0776 543400   		.ascii	"T4\000"
 1809 0779 0F       		.byte	0xf
 1810 077a 49       		.byte	0x49
 1811 077b 82070000 		.4byte	0x782
 1812 077f 2005     		.2byte	0x520
 1813 0781 00       		.byte	0
 1814 0782 15       		.uleb128 0x15
 1815 0783 58040000 		.4byte	0x458
 1816 0787 92070000 		.4byte	0x792
 1817 078b 16       		.uleb128 0x16
 1818 078c 46040000 		.4byte	0x446
 1819 0790 28       		.byte	0x28
 1820 0791 00       		.byte	0
 1821 0792 1E       		.uleb128 0x1e
 1822 0793 C1050000 		.4byte	.LASF119
 1823 0797 6806     		.2byte	0x668
 1824 0799 0F       		.byte	0xf
 1825 079a 43       		.byte	0x43
 1826 079b B5070000 		.4byte	0x7b5
 1827 079f 1A       		.uleb128 0x1a
 1828 07a0 776100   		.ascii	"wa\000"
 1829 07a3 0F       		.byte	0xf
 1830 07a4 4A       		.byte	0x4a
 1831 07a5 3D070000 		.4byte	0x73d
 1832 07a9 18       		.uleb128 0x18
 1833 07aa 3D010000 		.4byte	.LASF120
ARM GAS  /tmp/cchU44nR.s 			page 57


 1834 07ae 0F       		.byte	0xf
 1835 07af 4B       		.byte	0x4b
 1836 07b0 B5070000 		.4byte	0x7b5
 1837 07b4 00       		.byte	0
 1838 07b5 15       		.uleb128 0x15
 1839 07b6 A2000000 		.4byte	0xa2
 1840 07ba C6070000 		.4byte	0x7c6
 1841 07be 1F       		.uleb128 0x1f
 1842 07bf 46040000 		.4byte	0x446
 1843 07c3 6706     		.2byte	0x667
 1844 07c5 00       		.byte	0
 1845 07c6 20       		.uleb128 0x20
 1846 07c7 3C040000 		.4byte	.LASF129
 1847 07cb 01       		.byte	0x1
 1848 07cc 40       		.byte	0x40
 1849 07cd 00000000 		.4byte	.LFB241
 1850 07d1 18000000 		.4byte	.LFE241-.LFB241
 1851 07d5 01       		.uleb128 0x1
 1852 07d6 9C       		.byte	0x9c
 1853 07d7 21       		.uleb128 0x21
 1854 07d8 6D010000 		.4byte	.LASF130
 1855 07dc 01       		.byte	0x1
 1856 07dd 45       		.byte	0x45
 1857 07de 00000000 		.4byte	.LFB242
 1858 07e2 E0020000 		.4byte	.LFE242-.LFB242
 1859 07e6 01       		.uleb128 0x1
 1860 07e7 9C       		.byte	0x9c
 1861 07e8 2D080000 		.4byte	0x82d
 1862 07ec 22       		.uleb128 0x22
 1863 07ed 703100   		.ascii	"p1\000"
 1864 07f0 01       		.byte	0x1
 1865 07f1 46       		.byte	0x46
 1866 07f2 10030000 		.4byte	0x310
 1867 07f6 02       		.uleb128 0x2
 1868 07f7 91       		.byte	0x91
 1869 07f8 74       		.sleb128 -12
 1870 07f9 22       		.uleb128 0x22
 1871 07fa 703200   		.ascii	"p2\000"
 1872 07fd 01       		.byte	0x1
 1873 07fe 46       		.byte	0x46
 1874 07ff 10030000 		.4byte	0x310
 1875 0803 02       		.uleb128 0x2
 1876 0804 91       		.byte	0x91
 1877 0805 70       		.sleb128 -16
 1878 0806 22       		.uleb128 0x22
 1879 0807 703300   		.ascii	"p3\000"
 1880 080a 01       		.byte	0x1
 1881 080b 46       		.byte	0x46
 1882 080c 10030000 		.4byte	0x310
 1883 0810 02       		.uleb128 0x2
 1884 0811 91       		.byte	0x91
 1885 0812 6C       		.sleb128 -20
 1886 0813 22       		.uleb128 0x22
 1887 0814 6E00     		.ascii	"n\000"
 1888 0816 01       		.byte	0x1
 1889 0817 47       		.byte	0x47
 1890 0818 2C000000 		.4byte	0x2c
ARM GAS  /tmp/cchU44nR.s 			page 58


 1891 081c 02       		.uleb128 0x2
 1892 081d 91       		.byte	0x91
 1893 081e 68       		.sleb128 -24
 1894 081f 22       		.uleb128 0x22
 1895 0820 737A00   		.ascii	"sz\000"
 1896 0823 01       		.byte	0x1
 1897 0824 47       		.byte	0x47
 1898 0825 2C000000 		.4byte	0x2c
 1899 0829 02       		.uleb128 0x2
 1900 082a 91       		.byte	0x91
 1901 082b 64       		.sleb128 -28
 1902 082c 00       		.byte	0
 1903 082d 23       		.uleb128 0x23
 1904 082e EC050000 		.4byte	.LASF121
 1905 0832 01       		.byte	0x1
 1906 0833 33       		.byte	0x33
 1907 0834 52060000 		.4byte	0x652
 1908 0838 05       		.uleb128 0x5
 1909 0839 03       		.byte	0x3
 1910 083a 00000000 		.4byte	test_heap
 1911 083e 24       		.uleb128 0x24
 1912 083f 98000000 		.4byte	.LASF122
 1913 0843 10       		.byte	0x10
 1914 0844 FA06     		.2byte	0x6fa
 1915 0846 4A080000 		.4byte	0x84a
 1916 084a 14       		.uleb128 0x14
 1917 084b AD000000 		.4byte	0xad
 1918 084f 25       		.uleb128 0x25
 1919 0850 636800   		.ascii	"ch\000"
 1920 0853 07       		.byte	0x7
 1921 0854 0B02     		.2byte	0x20b
 1922 0856 DF030000 		.4byte	0x3df
 1923 085a 26       		.uleb128 0x26
 1924 085b 7D000000 		.4byte	.LASF123
 1925 085f 0F       		.byte	0xf
 1926 0860 A8       		.byte	0xa8
 1927 0861 92070000 		.4byte	0x792
 1928 0865 27       		.uleb128 0x27
 1929 0866 22030000 		.4byte	.LASF124
 1930 086a 01       		.byte	0x1
 1931 086b 8E       		.byte	0x8e
 1932 086c 76080000 		.4byte	0x876
 1933 0870 05       		.uleb128 0x5
 1934 0871 03       		.byte	0x3
 1935 0872 00000000 		.4byte	testheap1
 1936 0876 13       		.uleb128 0x13
 1937 0877 F9060000 		.4byte	0x6f9
 1938 087b 15       		.uleb128 0x15
 1939 087c 8B080000 		.4byte	0x88b
 1940 0880 8B080000 		.4byte	0x88b
 1941 0884 16       		.uleb128 0x16
 1942 0885 46040000 		.4byte	0x446
 1943 0889 01       		.byte	0x1
 1944 088a 00       		.byte	0
 1945 088b 09       		.uleb128 0x9
 1946 088c 04       		.byte	0x4
 1947 088d 76080000 		.4byte	0x876
ARM GAS  /tmp/cchU44nR.s 			page 59


 1948 0891 27       		.uleb128 0x27
 1949 0892 C2000000 		.4byte	.LASF125
 1950 0896 01       		.byte	0x1
 1951 0897 9A       		.byte	0x9a
 1952 0898 A2080000 		.4byte	0x8a2
 1953 089c 05       		.uleb128 0x5
 1954 089d 03       		.byte	0x3
 1955 089e 00000000 		.4byte	patternheap
 1956 08a2 13       		.uleb128 0x13
 1957 08a3 7B080000 		.4byte	0x87b
 1958 08a7 00       		.byte	0
 1959              		.section	.debug_abbrev,"",%progbits
 1960              	.Ldebug_abbrev0:
 1961 0000 01       		.uleb128 0x1
 1962 0001 11       		.uleb128 0x11
 1963 0002 01       		.byte	0x1
 1964 0003 25       		.uleb128 0x25
 1965 0004 0E       		.uleb128 0xe
 1966 0005 13       		.uleb128 0x13
 1967 0006 0B       		.uleb128 0xb
 1968 0007 03       		.uleb128 0x3
 1969 0008 0E       		.uleb128 0xe
 1970 0009 1B       		.uleb128 0x1b
 1971 000a 0E       		.uleb128 0xe
 1972 000b 55       		.uleb128 0x55
 1973 000c 17       		.uleb128 0x17
 1974 000d 11       		.uleb128 0x11
 1975 000e 01       		.uleb128 0x1
 1976 000f 10       		.uleb128 0x10
 1977 0010 17       		.uleb128 0x17
 1978 0011 00       		.byte	0
 1979 0012 00       		.byte	0
 1980 0013 02       		.uleb128 0x2
 1981 0014 24       		.uleb128 0x24
 1982 0015 00       		.byte	0
 1983 0016 0B       		.uleb128 0xb
 1984 0017 0B       		.uleb128 0xb
 1985 0018 3E       		.uleb128 0x3e
 1986 0019 0B       		.uleb128 0xb
 1987 001a 03       		.uleb128 0x3
 1988 001b 08       		.uleb128 0x8
 1989 001c 00       		.byte	0
 1990 001d 00       		.byte	0
 1991 001e 03       		.uleb128 0x3
 1992 001f 16       		.uleb128 0x16
 1993 0020 00       		.byte	0
 1994 0021 03       		.uleb128 0x3
 1995 0022 0E       		.uleb128 0xe
 1996 0023 3A       		.uleb128 0x3a
 1997 0024 0B       		.uleb128 0xb
 1998 0025 3B       		.uleb128 0x3b
 1999 0026 0B       		.uleb128 0xb
 2000 0027 49       		.uleb128 0x49
 2001 0028 13       		.uleb128 0x13
 2002 0029 00       		.byte	0
 2003 002a 00       		.byte	0
 2004 002b 04       		.uleb128 0x4
ARM GAS  /tmp/cchU44nR.s 			page 60


 2005 002c 24       		.uleb128 0x24
 2006 002d 00       		.byte	0
 2007 002e 0B       		.uleb128 0xb
 2008 002f 0B       		.uleb128 0xb
 2009 0030 3E       		.uleb128 0x3e
 2010 0031 0B       		.uleb128 0xb
 2011 0032 03       		.uleb128 0x3
 2012 0033 0E       		.uleb128 0xe
 2013 0034 00       		.byte	0
 2014 0035 00       		.byte	0
 2015 0036 05       		.uleb128 0x5
 2016 0037 13       		.uleb128 0x13
 2017 0038 01       		.byte	0x1
 2018 0039 03       		.uleb128 0x3
 2019 003a 0E       		.uleb128 0xe
 2020 003b 0B       		.uleb128 0xb
 2021 003c 0B       		.uleb128 0xb
 2022 003d 3A       		.uleb128 0x3a
 2023 003e 0B       		.uleb128 0xb
 2024 003f 3B       		.uleb128 0x3b
 2025 0040 0B       		.uleb128 0xb
 2026 0041 01       		.uleb128 0x1
 2027 0042 13       		.uleb128 0x13
 2028 0043 00       		.byte	0
 2029 0044 00       		.byte	0
 2030 0045 06       		.uleb128 0x6
 2031 0046 0D       		.uleb128 0xd
 2032 0047 00       		.byte	0
 2033 0048 03       		.uleb128 0x3
 2034 0049 0E       		.uleb128 0xe
 2035 004a 3A       		.uleb128 0x3a
 2036 004b 0B       		.uleb128 0xb
 2037 004c 3B       		.uleb128 0x3b
 2038 004d 0B       		.uleb128 0xb
 2039 004e 49       		.uleb128 0x49
 2040 004f 13       		.uleb128 0x13
 2041 0050 38       		.uleb128 0x38
 2042 0051 0B       		.uleb128 0xb
 2043 0052 00       		.byte	0
 2044 0053 00       		.byte	0
 2045 0054 07       		.uleb128 0x7
 2046 0055 0D       		.uleb128 0xd
 2047 0056 00       		.byte	0
 2048 0057 03       		.uleb128 0x3
 2049 0058 08       		.uleb128 0x8
 2050 0059 3A       		.uleb128 0x3a
 2051 005a 0B       		.uleb128 0xb
 2052 005b 3B       		.uleb128 0x3b
 2053 005c 05       		.uleb128 0x5
 2054 005d 49       		.uleb128 0x49
 2055 005e 13       		.uleb128 0x13
 2056 005f 38       		.uleb128 0x38
 2057 0060 0B       		.uleb128 0xb
 2058 0061 00       		.byte	0
 2059 0062 00       		.byte	0
 2060 0063 08       		.uleb128 0x8
 2061 0064 0D       		.uleb128 0xd
ARM GAS  /tmp/cchU44nR.s 			page 61


 2062 0065 00       		.byte	0
 2063 0066 03       		.uleb128 0x3
 2064 0067 0E       		.uleb128 0xe
 2065 0068 3A       		.uleb128 0x3a
 2066 0069 0B       		.uleb128 0xb
 2067 006a 3B       		.uleb128 0x3b
 2068 006b 05       		.uleb128 0x5
 2069 006c 49       		.uleb128 0x49
 2070 006d 13       		.uleb128 0x13
 2071 006e 38       		.uleb128 0x38
 2072 006f 0B       		.uleb128 0xb
 2073 0070 00       		.byte	0
 2074 0071 00       		.byte	0
 2075 0072 09       		.uleb128 0x9
 2076 0073 0F       		.uleb128 0xf
 2077 0074 00       		.byte	0
 2078 0075 0B       		.uleb128 0xb
 2079 0076 0B       		.uleb128 0xb
 2080 0077 49       		.uleb128 0x49
 2081 0078 13       		.uleb128 0x13
 2082 0079 00       		.byte	0
 2083 007a 00       		.byte	0
 2084 007b 0A       		.uleb128 0xa
 2085 007c 13       		.uleb128 0x13
 2086 007d 01       		.byte	0x1
 2087 007e 03       		.uleb128 0x3
 2088 007f 0E       		.uleb128 0xe
 2089 0080 0B       		.uleb128 0xb
 2090 0081 0B       		.uleb128 0xb
 2091 0082 3A       		.uleb128 0x3a
 2092 0083 0B       		.uleb128 0xb
 2093 0084 3B       		.uleb128 0x3b
 2094 0085 05       		.uleb128 0x5
 2095 0086 01       		.uleb128 0x1
 2096 0087 13       		.uleb128 0x13
 2097 0088 00       		.byte	0
 2098 0089 00       		.byte	0
 2099 008a 0B       		.uleb128 0xb
 2100 008b 15       		.uleb128 0x15
 2101 008c 01       		.byte	0x1
 2102 008d 27       		.uleb128 0x27
 2103 008e 19       		.uleb128 0x19
 2104 008f 01       		.uleb128 0x1
 2105 0090 13       		.uleb128 0x13
 2106 0091 00       		.byte	0
 2107 0092 00       		.byte	0
 2108 0093 0C       		.uleb128 0xc
 2109 0094 05       		.uleb128 0x5
 2110 0095 00       		.byte	0
 2111 0096 49       		.uleb128 0x49
 2112 0097 13       		.uleb128 0x13
 2113 0098 00       		.byte	0
 2114 0099 00       		.byte	0
 2115 009a 0D       		.uleb128 0xd
 2116 009b 0F       		.uleb128 0xf
 2117 009c 00       		.byte	0
 2118 009d 0B       		.uleb128 0xb
ARM GAS  /tmp/cchU44nR.s 			page 62


 2119 009e 0B       		.uleb128 0xb
 2120 009f 00       		.byte	0
 2121 00a0 00       		.byte	0
 2122 00a1 0E       		.uleb128 0xe
 2123 00a2 13       		.uleb128 0x13
 2124 00a3 01       		.byte	0x1
 2125 00a4 03       		.uleb128 0x3
 2126 00a5 0E       		.uleb128 0xe
 2127 00a6 0B       		.uleb128 0xb
 2128 00a7 05       		.uleb128 0x5
 2129 00a8 3A       		.uleb128 0x3a
 2130 00a9 0B       		.uleb128 0xb
 2131 00aa 3B       		.uleb128 0x3b
 2132 00ab 05       		.uleb128 0x5
 2133 00ac 01       		.uleb128 0x1
 2134 00ad 13       		.uleb128 0x13
 2135 00ae 00       		.byte	0
 2136 00af 00       		.byte	0
 2137 00b0 0F       		.uleb128 0xf
 2138 00b1 0D       		.uleb128 0xd
 2139 00b2 00       		.byte	0
 2140 00b3 03       		.uleb128 0x3
 2141 00b4 08       		.uleb128 0x8
 2142 00b5 3A       		.uleb128 0x3a
 2143 00b6 0B       		.uleb128 0xb
 2144 00b7 3B       		.uleb128 0x3b
 2145 00b8 0B       		.uleb128 0xb
 2146 00b9 49       		.uleb128 0x49
 2147 00ba 13       		.uleb128 0x13
 2148 00bb 38       		.uleb128 0x38
 2149 00bc 0B       		.uleb128 0xb
 2150 00bd 00       		.byte	0
 2151 00be 00       		.byte	0
 2152 00bf 10       		.uleb128 0x10
 2153 00c0 13       		.uleb128 0x13
 2154 00c1 01       		.byte	0x1
 2155 00c2 0B       		.uleb128 0xb
 2156 00c3 0B       		.uleb128 0xb
 2157 00c4 3A       		.uleb128 0x3a
 2158 00c5 0B       		.uleb128 0xb
 2159 00c6 3B       		.uleb128 0x3b
 2160 00c7 0B       		.uleb128 0xb
 2161 00c8 01       		.uleb128 0x1
 2162 00c9 13       		.uleb128 0x13
 2163 00ca 00       		.byte	0
 2164 00cb 00       		.byte	0
 2165 00cc 11       		.uleb128 0x11
 2166 00cd 17       		.uleb128 0x17
 2167 00ce 01       		.byte	0x1
 2168 00cf 0B       		.uleb128 0xb
 2169 00d0 0B       		.uleb128 0xb
 2170 00d1 3A       		.uleb128 0x3a
 2171 00d2 0B       		.uleb128 0xb
 2172 00d3 3B       		.uleb128 0x3b
 2173 00d4 0B       		.uleb128 0xb
 2174 00d5 01       		.uleb128 0x1
 2175 00d6 13       		.uleb128 0x13
ARM GAS  /tmp/cchU44nR.s 			page 63


 2176 00d7 00       		.byte	0
 2177 00d8 00       		.byte	0
 2178 00d9 12       		.uleb128 0x12
 2179 00da 0D       		.uleb128 0xd
 2180 00db 00       		.byte	0
 2181 00dc 03       		.uleb128 0x3
 2182 00dd 0E       		.uleb128 0xe
 2183 00de 3A       		.uleb128 0x3a
 2184 00df 0B       		.uleb128 0xb
 2185 00e0 3B       		.uleb128 0x3b
 2186 00e1 05       		.uleb128 0x5
 2187 00e2 49       		.uleb128 0x49
 2188 00e3 13       		.uleb128 0x13
 2189 00e4 00       		.byte	0
 2190 00e5 00       		.byte	0
 2191 00e6 13       		.uleb128 0x13
 2192 00e7 26       		.uleb128 0x26
 2193 00e8 00       		.byte	0
 2194 00e9 49       		.uleb128 0x49
 2195 00ea 13       		.uleb128 0x13
 2196 00eb 00       		.byte	0
 2197 00ec 00       		.byte	0
 2198 00ed 14       		.uleb128 0x14
 2199 00ee 35       		.uleb128 0x35
 2200 00ef 00       		.byte	0
 2201 00f0 49       		.uleb128 0x49
 2202 00f1 13       		.uleb128 0x13
 2203 00f2 00       		.byte	0
 2204 00f3 00       		.byte	0
 2205 00f4 15       		.uleb128 0x15
 2206 00f5 01       		.uleb128 0x1
 2207 00f6 01       		.byte	0x1
 2208 00f7 49       		.uleb128 0x49
 2209 00f8 13       		.uleb128 0x13
 2210 00f9 01       		.uleb128 0x1
 2211 00fa 13       		.uleb128 0x13
 2212 00fb 00       		.byte	0
 2213 00fc 00       		.byte	0
 2214 00fd 16       		.uleb128 0x16
 2215 00fe 21       		.uleb128 0x21
 2216 00ff 00       		.byte	0
 2217 0100 49       		.uleb128 0x49
 2218 0101 13       		.uleb128 0x13
 2219 0102 2F       		.uleb128 0x2f
 2220 0103 0B       		.uleb128 0xb
 2221 0104 00       		.byte	0
 2222 0105 00       		.byte	0
 2223 0106 17       		.uleb128 0x17
 2224 0107 15       		.uleb128 0x15
 2225 0108 01       		.byte	0x1
 2226 0109 27       		.uleb128 0x27
 2227 010a 19       		.uleb128 0x19
 2228 010b 49       		.uleb128 0x49
 2229 010c 13       		.uleb128 0x13
 2230 010d 01       		.uleb128 0x1
 2231 010e 13       		.uleb128 0x13
 2232 010f 00       		.byte	0
ARM GAS  /tmp/cchU44nR.s 			page 64


 2233 0110 00       		.byte	0
 2234 0111 18       		.uleb128 0x18
 2235 0112 0D       		.uleb128 0xd
 2236 0113 00       		.byte	0
 2237 0114 03       		.uleb128 0x3
 2238 0115 0E       		.uleb128 0xe
 2239 0116 3A       		.uleb128 0x3a
 2240 0117 0B       		.uleb128 0xb
 2241 0118 3B       		.uleb128 0x3b
 2242 0119 0B       		.uleb128 0xb
 2243 011a 49       		.uleb128 0x49
 2244 011b 13       		.uleb128 0x13
 2245 011c 00       		.byte	0
 2246 011d 00       		.byte	0
 2247 011e 19       		.uleb128 0x19
 2248 011f 17       		.uleb128 0x17
 2249 0120 01       		.byte	0x1
 2250 0121 03       		.uleb128 0x3
 2251 0122 0E       		.uleb128 0xe
 2252 0123 0B       		.uleb128 0xb
 2253 0124 0B       		.uleb128 0xb
 2254 0125 3A       		.uleb128 0x3a
 2255 0126 0B       		.uleb128 0xb
 2256 0127 3B       		.uleb128 0x3b
 2257 0128 0B       		.uleb128 0xb
 2258 0129 01       		.uleb128 0x1
 2259 012a 13       		.uleb128 0x13
 2260 012b 00       		.byte	0
 2261 012c 00       		.byte	0
 2262 012d 1A       		.uleb128 0x1a
 2263 012e 0D       		.uleb128 0xd
 2264 012f 00       		.byte	0
 2265 0130 03       		.uleb128 0x3
 2266 0131 08       		.uleb128 0x8
 2267 0132 3A       		.uleb128 0x3a
 2268 0133 0B       		.uleb128 0xb
 2269 0134 3B       		.uleb128 0x3b
 2270 0135 0B       		.uleb128 0xb
 2271 0136 49       		.uleb128 0x49
 2272 0137 13       		.uleb128 0x13
 2273 0138 00       		.byte	0
 2274 0139 00       		.byte	0
 2275 013a 1B       		.uleb128 0x1b
 2276 013b 15       		.uleb128 0x15
 2277 013c 00       		.byte	0
 2278 013d 27       		.uleb128 0x27
 2279 013e 19       		.uleb128 0x19
 2280 013f 00       		.byte	0
 2281 0140 00       		.byte	0
 2282 0141 1C       		.uleb128 0x1c
 2283 0142 13       		.uleb128 0x13
 2284 0143 01       		.byte	0x1
 2285 0144 0B       		.uleb128 0xb
 2286 0145 05       		.uleb128 0x5
 2287 0146 3A       		.uleb128 0x3a
 2288 0147 0B       		.uleb128 0xb
 2289 0148 3B       		.uleb128 0x3b
ARM GAS  /tmp/cchU44nR.s 			page 65


 2290 0149 0B       		.uleb128 0xb
 2291 014a 01       		.uleb128 0x1
 2292 014b 13       		.uleb128 0x13
 2293 014c 00       		.byte	0
 2294 014d 00       		.byte	0
 2295 014e 1D       		.uleb128 0x1d
 2296 014f 0D       		.uleb128 0xd
 2297 0150 00       		.byte	0
 2298 0151 03       		.uleb128 0x3
 2299 0152 08       		.uleb128 0x8
 2300 0153 3A       		.uleb128 0x3a
 2301 0154 0B       		.uleb128 0xb
 2302 0155 3B       		.uleb128 0x3b
 2303 0156 0B       		.uleb128 0xb
 2304 0157 49       		.uleb128 0x49
 2305 0158 13       		.uleb128 0x13
 2306 0159 38       		.uleb128 0x38
 2307 015a 05       		.uleb128 0x5
 2308 015b 00       		.byte	0
 2309 015c 00       		.byte	0
 2310 015d 1E       		.uleb128 0x1e
 2311 015e 17       		.uleb128 0x17
 2312 015f 01       		.byte	0x1
 2313 0160 03       		.uleb128 0x3
 2314 0161 0E       		.uleb128 0xe
 2315 0162 0B       		.uleb128 0xb
 2316 0163 05       		.uleb128 0x5
 2317 0164 3A       		.uleb128 0x3a
 2318 0165 0B       		.uleb128 0xb
 2319 0166 3B       		.uleb128 0x3b
 2320 0167 0B       		.uleb128 0xb
 2321 0168 01       		.uleb128 0x1
 2322 0169 13       		.uleb128 0x13
 2323 016a 00       		.byte	0
 2324 016b 00       		.byte	0
 2325 016c 1F       		.uleb128 0x1f
 2326 016d 21       		.uleb128 0x21
 2327 016e 00       		.byte	0
 2328 016f 49       		.uleb128 0x49
 2329 0170 13       		.uleb128 0x13
 2330 0171 2F       		.uleb128 0x2f
 2331 0172 05       		.uleb128 0x5
 2332 0173 00       		.byte	0
 2333 0174 00       		.byte	0
 2334 0175 20       		.uleb128 0x20
 2335 0176 2E       		.uleb128 0x2e
 2336 0177 00       		.byte	0
 2337 0178 03       		.uleb128 0x3
 2338 0179 0E       		.uleb128 0xe
 2339 017a 3A       		.uleb128 0x3a
 2340 017b 0B       		.uleb128 0xb
 2341 017c 3B       		.uleb128 0x3b
 2342 017d 0B       		.uleb128 0xb
 2343 017e 27       		.uleb128 0x27
 2344 017f 19       		.uleb128 0x19
 2345 0180 11       		.uleb128 0x11
 2346 0181 01       		.uleb128 0x1
ARM GAS  /tmp/cchU44nR.s 			page 66


 2347 0182 12       		.uleb128 0x12
 2348 0183 06       		.uleb128 0x6
 2349 0184 40       		.uleb128 0x40
 2350 0185 18       		.uleb128 0x18
 2351 0186 9642     		.uleb128 0x2116
 2352 0188 19       		.uleb128 0x19
 2353 0189 00       		.byte	0
 2354 018a 00       		.byte	0
 2355 018b 21       		.uleb128 0x21
 2356 018c 2E       		.uleb128 0x2e
 2357 018d 01       		.byte	0x1
 2358 018e 03       		.uleb128 0x3
 2359 018f 0E       		.uleb128 0xe
 2360 0190 3A       		.uleb128 0x3a
 2361 0191 0B       		.uleb128 0xb
 2362 0192 3B       		.uleb128 0x3b
 2363 0193 0B       		.uleb128 0xb
 2364 0194 27       		.uleb128 0x27
 2365 0195 19       		.uleb128 0x19
 2366 0196 11       		.uleb128 0x11
 2367 0197 01       		.uleb128 0x1
 2368 0198 12       		.uleb128 0x12
 2369 0199 06       		.uleb128 0x6
 2370 019a 40       		.uleb128 0x40
 2371 019b 18       		.uleb128 0x18
 2372 019c 9642     		.uleb128 0x2116
 2373 019e 19       		.uleb128 0x19
 2374 019f 01       		.uleb128 0x1
 2375 01a0 13       		.uleb128 0x13
 2376 01a1 00       		.byte	0
 2377 01a2 00       		.byte	0
 2378 01a3 22       		.uleb128 0x22
 2379 01a4 34       		.uleb128 0x34
 2380 01a5 00       		.byte	0
 2381 01a6 03       		.uleb128 0x3
 2382 01a7 08       		.uleb128 0x8
 2383 01a8 3A       		.uleb128 0x3a
 2384 01a9 0B       		.uleb128 0xb
 2385 01aa 3B       		.uleb128 0x3b
 2386 01ab 0B       		.uleb128 0xb
 2387 01ac 49       		.uleb128 0x49
 2388 01ad 13       		.uleb128 0x13
 2389 01ae 02       		.uleb128 0x2
 2390 01af 18       		.uleb128 0x18
 2391 01b0 00       		.byte	0
 2392 01b1 00       		.byte	0
 2393 01b2 23       		.uleb128 0x23
 2394 01b3 34       		.uleb128 0x34
 2395 01b4 00       		.byte	0
 2396 01b5 03       		.uleb128 0x3
 2397 01b6 0E       		.uleb128 0xe
 2398 01b7 3A       		.uleb128 0x3a
 2399 01b8 0B       		.uleb128 0xb
 2400 01b9 3B       		.uleb128 0x3b
 2401 01ba 0B       		.uleb128 0xb
 2402 01bb 49       		.uleb128 0x49
 2403 01bc 13       		.uleb128 0x13
ARM GAS  /tmp/cchU44nR.s 			page 67


 2404 01bd 02       		.uleb128 0x2
 2405 01be 18       		.uleb128 0x18
 2406 01bf 00       		.byte	0
 2407 01c0 00       		.byte	0
 2408 01c1 24       		.uleb128 0x24
 2409 01c2 34       		.uleb128 0x34
 2410 01c3 00       		.byte	0
 2411 01c4 03       		.uleb128 0x3
 2412 01c5 0E       		.uleb128 0xe
 2413 01c6 3A       		.uleb128 0x3a
 2414 01c7 0B       		.uleb128 0xb
 2415 01c8 3B       		.uleb128 0x3b
 2416 01c9 05       		.uleb128 0x5
 2417 01ca 49       		.uleb128 0x49
 2418 01cb 13       		.uleb128 0x13
 2419 01cc 3F       		.uleb128 0x3f
 2420 01cd 19       		.uleb128 0x19
 2421 01ce 3C       		.uleb128 0x3c
 2422 01cf 19       		.uleb128 0x19
 2423 01d0 00       		.byte	0
 2424 01d1 00       		.byte	0
 2425 01d2 25       		.uleb128 0x25
 2426 01d3 34       		.uleb128 0x34
 2427 01d4 00       		.byte	0
 2428 01d5 03       		.uleb128 0x3
 2429 01d6 08       		.uleb128 0x8
 2430 01d7 3A       		.uleb128 0x3a
 2431 01d8 0B       		.uleb128 0xb
 2432 01d9 3B       		.uleb128 0x3b
 2433 01da 05       		.uleb128 0x5
 2434 01db 49       		.uleb128 0x49
 2435 01dc 13       		.uleb128 0x13
 2436 01dd 3F       		.uleb128 0x3f
 2437 01de 19       		.uleb128 0x19
 2438 01df 3C       		.uleb128 0x3c
 2439 01e0 19       		.uleb128 0x19
 2440 01e1 00       		.byte	0
 2441 01e2 00       		.byte	0
 2442 01e3 26       		.uleb128 0x26
 2443 01e4 34       		.uleb128 0x34
 2444 01e5 00       		.byte	0
 2445 01e6 03       		.uleb128 0x3
 2446 01e7 0E       		.uleb128 0xe
 2447 01e8 3A       		.uleb128 0x3a
 2448 01e9 0B       		.uleb128 0xb
 2449 01ea 3B       		.uleb128 0x3b
 2450 01eb 0B       		.uleb128 0xb
 2451 01ec 49       		.uleb128 0x49
 2452 01ed 13       		.uleb128 0x13
 2453 01ee 3F       		.uleb128 0x3f
 2454 01ef 19       		.uleb128 0x19
 2455 01f0 3C       		.uleb128 0x3c
 2456 01f1 19       		.uleb128 0x19
 2457 01f2 00       		.byte	0
 2458 01f3 00       		.byte	0
 2459 01f4 27       		.uleb128 0x27
 2460 01f5 34       		.uleb128 0x34
ARM GAS  /tmp/cchU44nR.s 			page 68


 2461 01f6 00       		.byte	0
 2462 01f7 03       		.uleb128 0x3
 2463 01f8 0E       		.uleb128 0xe
 2464 01f9 3A       		.uleb128 0x3a
 2465 01fa 0B       		.uleb128 0xb
 2466 01fb 3B       		.uleb128 0x3b
 2467 01fc 0B       		.uleb128 0xb
 2468 01fd 49       		.uleb128 0x49
 2469 01fe 13       		.uleb128 0x13
 2470 01ff 3F       		.uleb128 0x3f
 2471 0200 19       		.uleb128 0x19
 2472 0201 02       		.uleb128 0x2
 2473 0202 18       		.uleb128 0x18
 2474 0203 00       		.byte	0
 2475 0204 00       		.byte	0
 2476 0205 00       		.byte	0
 2477              		.section	.debug_aranges,"",%progbits
 2478 0000 24000000 		.4byte	0x24
 2479 0004 0200     		.2byte	0x2
 2480 0006 00000000 		.4byte	.Ldebug_info0
 2481 000a 04       		.byte	0x4
 2482 000b 00       		.byte	0
 2483 000c 0000     		.2byte	0
 2484 000e 0000     		.2byte	0
 2485 0010 00000000 		.4byte	.LFB241
 2486 0014 18000000 		.4byte	.LFE241-.LFB241
 2487 0018 00000000 		.4byte	.LFB242
 2488 001c E0020000 		.4byte	.LFE242-.LFB242
 2489 0020 00000000 		.4byte	0
 2490 0024 00000000 		.4byte	0
 2491              		.section	.debug_ranges,"",%progbits
 2492              	.Ldebug_ranges0:
 2493 0000 00000000 		.4byte	.LFB241
 2494 0004 18000000 		.4byte	.LFE241
 2495 0008 00000000 		.4byte	.LFB242
 2496 000c E0020000 		.4byte	.LFE242
 2497 0010 00000000 		.4byte	0
 2498 0014 00000000 		.4byte	0
 2499              		.section	.debug_line,"",%progbits
 2500              	.Ldebug_line0:
 2501 0000 8D030000 		.section	.debug_str,"MS",%progbits,1
 2501      0200CF02 
 2501      00000201 
 2501      FB0E0D00 
 2501      01010101 
 2502              	.LASF51:
 2503 0000 72656164 		.ascii	"ready_list_t\000"
 2503      795F6C69 
 2503      73745F74 
 2503      00
 2504              	.LASF2:
 2505 000d 73697A65 		.ascii	"size_t\000"
 2505      5F7400
 2506              	.LASF86:
 2507 0014 7264796D 		.ascii	"rdymsg\000"
 2507      736700
 2508              	.LASF17:
ARM GAS  /tmp/cchU44nR.s 			page 69


 2509 001b 75696E74 		.ascii	"uint64_t\000"
 2509      36345F74 
 2509      00
 2510              	.LASF3:
 2511 0024 5F5F7569 		.ascii	"__uint8_t\000"
 2511      6E74385F 
 2511      7400
 2512              	.LASF83:
 2513 002e 706F7274 		.ascii	"port_intctx\000"
 2513      5F696E74 
 2513      63747800 
 2514              	.LASF70:
 2515 003a 73797374 		.ascii	"system_debug_t\000"
 2515      656D5F64 
 2515      65627567 
 2515      5F7400
 2516              	.LASF103:
 2517 0049 6D656D67 		.ascii	"memgetfunc_t\000"
 2517      65746675 
 2517      6E635F74 
 2517      00
 2518              	.LASF13:
 2519 0056 6C6F6E67 		.ascii	"long long unsigned int\000"
 2519      206C6F6E 
 2519      6720756E 
 2519      7369676E 
 2519      65642069 
 2520              	.LASF87:
 2521 006d 65786974 		.ascii	"exitcode\000"
 2521      636F6465 
 2521      00
 2522              	.LASF107:
 2523 0076 685F6672 		.ascii	"h_free\000"
 2523      656500
 2524              	.LASF123:
 2525 007d 74657374 		.ascii	"test\000"
 2525      00
 2526              	.LASF67:
 2527 0082 76697274 		.ascii	"virtual_timers_list_t\000"
 2527      75616C5F 
 2527      74696D65 
 2527      72735F6C 
 2527      6973745F 
 2528              	.LASF122:
 2529 0098 49544D5F 		.ascii	"ITM_RxBuffer\000"
 2529      52784275 
 2529      66666572 
 2529      00
 2530              	.LASF109:
 2531 00a5 6E657874 		.ascii	"next\000"
 2531      00
 2532              	.LASF50:
 2533 00aa 63685F74 		.ascii	"ch_threads_queue\000"
 2533      68726561 
 2533      64735F71 
 2533      75657565 
 2533      00
ARM GAS  /tmp/cchU44nR.s 			page 70


 2534              	.LASF30:
 2535 00bb 705F7072 		.ascii	"p_prio\000"
 2535      696F00
 2536              	.LASF125:
 2537 00c2 70617474 		.ascii	"patternheap\000"
 2537      65726E68 
 2537      65617000 
 2538              	.LASF102:
 2539 00ce 6D757465 		.ascii	"mutex_t\000"
 2539      785F7400 
 2540              	.LASF11:
 2541 00d6 6C6F6E67 		.ascii	"long long int\000"
 2541      206C6F6E 
 2541      6720696E 
 2541      7400
 2542              	.LASF1:
 2543 00e4 7369676E 		.ascii	"signed char\000"
 2543      65642063 
 2543      68617200 
 2544              	.LASF108:
 2545 00f0 685F6D74 		.ascii	"h_mtx\000"
 2545      7800
 2546              	.LASF44:
 2547 00f6 705F6D70 		.ascii	"p_mpool\000"
 2547      6F6F6C00 
 2548              	.LASF98:
 2549 00fe 6D5F7175 		.ascii	"m_queue\000"
 2549      65756500 
 2550              	.LASF76:
 2551 0106 76746C69 		.ascii	"vtlist\000"
 2551      737400
 2552              	.LASF89:
 2553 010d 77747472 		.ascii	"wttrp\000"
 2553      7000
 2554              	.LASF74:
 2555 0113 63685F73 		.ascii	"ch_system\000"
 2555      79737465 
 2555      6D00
 2556              	.LASF8:
 2557 011d 6C6F6E67 		.ascii	"long int\000"
 2557      20696E74 
 2557      00
 2558              	.LASF20:
 2559 0126 74737461 		.ascii	"tstate_t\000"
 2559      74655F74 
 2559      00
 2560              	.LASF104:
 2561 012f 6D656D6F 		.ascii	"memory_heap_t\000"
 2561      72795F68 
 2561      6561705F 
 2561      7400
 2562              	.LASF120:
 2563 013d 62756666 		.ascii	"buffer\000"
 2563      657200
 2564              	.LASF32:
 2565 0144 705F6E65 		.ascii	"p_newer\000"
 2565      77657200 
ARM GAS  /tmp/cchU44nR.s 			page 71


 2566              	.LASF95:
 2567 014c 735F7175 		.ascii	"s_queue\000"
 2567      65756500 
 2568              	.LASF56:
 2569 0154 725F6E65 		.ascii	"r_newer\000"
 2569      77657200 
 2570              	.LASF80:
 2571 015c 72656761 		.ascii	"regarm_t\000"
 2571      726D5F74 
 2571      00
 2572              	.LASF63:
 2573 0165 76745F70 		.ascii	"vt_prev\000"
 2573      72657600 
 2574              	.LASF130:
 2575 016d 68656170 		.ascii	"heap1_execute\000"
 2575      315F6578 
 2575      65637574 
 2575      6500
 2576              	.LASF111:
 2577 017b 616C6967 		.ascii	"align\000"
 2577      6E00
 2578              	.LASF78:
 2579 0181 69646C65 		.ascii	"idle_thread_wa\000"
 2579      5F746872 
 2579      6561645F 
 2579      776100
 2580              	.LASF25:
 2581 0190 636E745F 		.ascii	"cnt_t\000"
 2581      7400
 2582              	.LASF126:
 2583 0196 474E5520 		.ascii	"GNU C 4.8.4 20140526 (release) [ARM/embedded-4_8-br"
 2583      4320342E 
 2583      382E3420 
 2583      32303134 
 2583      30353236 
 2584 01c9 616E6368 		.ascii	"anch revision 211358] -mcpu=cortex-m4 -mno-thumb-in"
 2584      20726576 
 2584      6973696F 
 2584      6E203231 
 2584      31333538 
 2585 01fc 74657277 		.ascii	"terwork -mthumb -ggdb -O0 -fomit-frame-pointer -fal"
 2585      6F726B20 
 2585      2D6D7468 
 2585      756D6220 
 2585      2D676764 
 2586 022f 69676E2D 		.ascii	"ign-functions=16 -ffunction-sections -fdata-section"
 2586      66756E63 
 2586      74696F6E 
 2586      733D3136 
 2586      202D6666 
 2587 0262 73202D66 		.ascii	"s -fno-common -flto\000"
 2587      6E6F2D63 
 2587      6F6D6D6F 
 2587      6E202D66 
 2587      6C746F00 
 2588              	.LASF0:
 2589 0276 756E7369 		.ascii	"unsigned int\000"
ARM GAS  /tmp/cchU44nR.s 			page 72


 2589      676E6564 
 2589      20696E74 
 2589      00
 2590              	.LASF62:
 2591 0283 76745F6E 		.ascii	"vt_next\000"
 2591      65787400 
 2592              	.LASF91:
 2593 028b 77747365 		.ascii	"wtsemp\000"
 2593      6D7000
 2594              	.LASF40:
 2595 0292 705F6D73 		.ascii	"p_msgqueue\000"
 2595      67717565 
 2595      756500
 2596              	.LASF116:
 2597 029d 74656172 		.ascii	"teardown\000"
 2597      646F776E 
 2597      00
 2598              	.LASF114:
 2599 02a6 6E616D65 		.ascii	"name\000"
 2599      00
 2600              	.LASF96:
 2601 02ab 735F636E 		.ascii	"s_cnt\000"
 2601      7400
 2602              	.LASF6:
 2603 02b1 73686F72 		.ascii	"short unsigned int\000"
 2603      7420756E 
 2603      7369676E 
 2603      65642069 
 2603      6E7400
 2604              	.LASF47:
 2605 02c4 63685F74 		.ascii	"ch_thread\000"
 2605      68726561 
 2605      6400
 2606              	.LASF77:
 2607 02ce 6D61696E 		.ascii	"mainthread\000"
 2607      74687265 
 2607      616400
 2608              	.LASF23:
 2609 02d9 6D73675F 		.ascii	"msg_t\000"
 2609      7400
 2610              	.LASF73:
 2611 02df 63685F73 		.ascii	"ch_system_t\000"
 2611      79737465 
 2611      6D5F7400 
 2612              	.LASF19:
 2613 02eb 746D6F64 		.ascii	"tmode_t\000"
 2613      655F7400 
 2614              	.LASF52:
 2615 02f3 63685F72 		.ascii	"ch_ready_list\000"
 2615      65616479 
 2615      5F6C6973 
 2615      7400
 2616              	.LASF24:
 2617 0301 6576656E 		.ascii	"eventmask_t\000"
 2617      746D6173 
 2617      6B5F7400 
 2618              	.LASF7:
ARM GAS  /tmp/cchU44nR.s 			page 73


 2619 030d 5F5F696E 		.ascii	"__int32_t\000"
 2619      7433325F 
 2619      7400
 2620              	.LASF81:
 2621 0317 73746B61 		.ascii	"stkalign_t\000"
 2621      6C69676E 
 2621      5F7400
 2622              	.LASF124:
 2623 0322 74657374 		.ascii	"testheap1\000"
 2623      68656170 
 2623      3100
 2624              	.LASF39:
 2625 032c 705F7761 		.ascii	"p_waiting\000"
 2625      6974696E 
 2625      6700
 2626              	.LASF79:
 2627 0336 73697A65 		.ascii	"sizetype\000"
 2627      74797065 
 2627      00
 2628              	.LASF45:
 2629 033f 74687265 		.ascii	"thread_reference_t\000"
 2629      61645F72 
 2629      65666572 
 2629      656E6365 
 2629      5F7400
 2630              	.LASF68:
 2631 0352 63685F76 		.ascii	"ch_virtual_timers_list\000"
 2631      69727475 
 2631      616C5F74 
 2631      696D6572 
 2631      735F6C69 
 2632              	.LASF69:
 2633 0369 76745F6C 		.ascii	"vt_lasttime\000"
 2633      61737474 
 2633      696D6500 
 2634              	.LASF33:
 2635 0375 705F6F6C 		.ascii	"p_older\000"
 2635      64657200 
 2636              	.LASF55:
 2637 037d 725F6374 		.ascii	"r_ctx\000"
 2637      7800
 2638              	.LASF128:
 2639 0383 2F6E6673 		.ascii	"/nfs/nfs4/home/irbrown/Courses/P442/P442WifiTrailCo"
 2639      2F6E6673 
 2639      342F686F 
 2639      6D652F69 
 2639      7262726F 
 2640 03b6 756E7465 		.ascii	"unterProject/milestone3\000"
 2640      7250726F 
 2640      6A656374 
 2640      2F6D696C 
 2640      6573746F 
 2641              	.LASF85:
 2642 03ce 746D5F63 		.ascii	"tm_calibration_t\000"
 2642      616C6962 
 2642      72617469 
 2642      6F6E5F74 
ARM GAS  /tmp/cchU44nR.s 			page 74


 2642      00
 2643              	.LASF115:
 2644 03df 73657475 		.ascii	"setup\000"
 2644      7000
 2645              	.LASF35:
 2646 03e5 705F7374 		.ascii	"p_stklimit\000"
 2646      6B6C696D 
 2646      697400
 2647              	.LASF58:
 2648 03f0 725F6375 		.ascii	"r_current\000"
 2648      7272656E 
 2648      7400
 2649              	.LASF57:
 2650 03fa 725F6F6C 		.ascii	"r_older\000"
 2650      64657200 
 2651              	.LASF12:
 2652 0402 5F5F7569 		.ascii	"__uint64_t\000"
 2652      6E743634 
 2652      5F7400
 2653              	.LASF21:
 2654 040d 74726566 		.ascii	"trefs_t\000"
 2654      735F7400 
 2655              	.LASF60:
 2656 0415 76697274 		.ascii	"virtual_timer_t\000"
 2656      75616C5F 
 2656      74696D65 
 2656      725F7400 
 2657              	.LASF29:
 2658 0425 705F7072 		.ascii	"p_prev\000"
 2658      657600
 2659              	.LASF117:
 2660 042c 65786563 		.ascii	"execute\000"
 2660      75746500 
 2661              	.LASF22:
 2662 0434 74707269 		.ascii	"tprio_t\000"
 2662      6F5F7400 
 2663              	.LASF129:
 2664 043c 68656170 		.ascii	"heap1_setup\000"
 2664      315F7365 
 2664      74757000 
 2665              	.LASF71:
 2666 0448 63685F73 		.ascii	"ch_system_debug\000"
 2666      79737465 
 2666      6D5F6465 
 2666      62756700 
 2667              	.LASF15:
 2668 0458 696E7433 		.ascii	"int32_t\000"
 2668      325F7400 
 2669              	.LASF4:
 2670 0460 756E7369 		.ascii	"unsigned char\000"
 2670      676E6564 
 2670      20636861 
 2670      7200
 2671              	.LASF118:
 2672 046e 68656170 		.ascii	"heap_header\000"
 2672      5F686561 
 2672      64657200 
ARM GAS  /tmp/cchU44nR.s 			page 75


 2673              	.LASF42:
 2674 047a 705F6D74 		.ascii	"p_mtxlist\000"
 2674      786C6973 
 2674      7400
 2675              	.LASF5:
 2676 0484 73686F72 		.ascii	"short int\000"
 2676      7420696E 
 2676      7400
 2677              	.LASF36:
 2678 048e 705F7374 		.ascii	"p_state\000"
 2678      61746500 
 2679              	.LASF54:
 2680 0496 725F7072 		.ascii	"r_prio\000"
 2680      696F00
 2681              	.LASF93:
 2682 049d 65776D61 		.ascii	"ewmask\000"
 2682      736B00
 2683              	.LASF28:
 2684 04a4 705F6E65 		.ascii	"p_next\000"
 2684      787400
 2685              	.LASF37:
 2686 04ab 705F666C 		.ascii	"p_flags\000"
 2686      61677300 
 2687              	.LASF49:
 2688 04b3 74687265 		.ascii	"threads_queue_t\000"
 2688      6164735F 
 2688      71756575 
 2688      655F7400 
 2689              	.LASF61:
 2690 04c3 63685F76 		.ascii	"ch_virtual_timer\000"
 2690      69727475 
 2690      616C5F74 
 2690      696D6572 
 2690      00
 2691              	.LASF113:
 2692 04d4 74657374 		.ascii	"testcase\000"
 2692      63617365 
 2692      00
 2693              	.LASF94:
 2694 04dd 63685F73 		.ascii	"ch_semaphore\000"
 2694      656D6170 
 2694      686F7265 
 2694      00
 2695              	.LASF41:
 2696 04ea 705F6570 		.ascii	"p_epending\000"
 2696      656E6469 
 2696      6E6700
 2697              	.LASF16:
 2698 04f5 75696E74 		.ascii	"uint32_t\000"
 2698      33325F74 
 2698      00
 2699              	.LASF92:
 2700 04fe 77746D74 		.ascii	"wtmtxp\000"
 2700      787000
 2701              	.LASF53:
 2702 0505 725F7175 		.ascii	"r_queue\000"
 2702      65756500 
ARM GAS  /tmp/cchU44nR.s 			page 76


 2703              	.LASF64:
 2704 050d 76745F64 		.ascii	"vt_delta\000"
 2704      656C7461 
 2704      00
 2705              	.LASF48:
 2706 0516 63685F74 		.ascii	"ch_threads_list\000"
 2706      68726561 
 2706      64735F6C 
 2706      69737400 
 2707              	.LASF110:
 2708 0526 68656170 		.ascii	"heap\000"
 2708      00
 2709              	.LASF10:
 2710 052b 6C6F6E67 		.ascii	"long unsigned int\000"
 2710      20756E73 
 2710      69676E65 
 2710      6420696E 
 2710      7400
 2711              	.LASF101:
 2712 053d 63686172 		.ascii	"char\000"
 2712      00
 2713              	.LASF27:
 2714 0542 74687265 		.ascii	"thread_t\000"
 2714      61645F74 
 2714      00
 2715              	.LASF100:
 2716 054b 6D5F6E65 		.ascii	"m_next\000"
 2716      787400
 2717              	.LASF26:
 2718 0552 73797374 		.ascii	"systime_t\000"
 2718      696D655F 
 2718      7400
 2719              	.LASF43:
 2720 055c 705F7265 		.ascii	"p_realprio\000"
 2720      616C7072 
 2720      696F00
 2721              	.LASF59:
 2722 0567 76746675 		.ascii	"vtfunc_t\000"
 2722      6E635F74 
 2722      00
 2723              	.LASF9:
 2724 0570 5F5F7569 		.ascii	"__uint32_t\000"
 2724      6E743332 
 2724      5F7400
 2725              	.LASF72:
 2726 057b 70616E69 		.ascii	"panic_msg\000"
 2726      635F6D73 
 2726      6700
 2727              	.LASF127:
 2728 0585 2E2E2F43 		.ascii	"../ChibiOS/test/rt/testheap.c\000"
 2728      68696269 
 2728      4F532F74 
 2728      6573742F 
 2728      72742F74 
 2729              	.LASF84:
 2730 05a3 6F666673 		.ascii	"offset\000"
 2730      657400
ARM GAS  /tmp/cchU44nR.s 			page 77


 2731              	.LASF82:
 2732 05aa 636F6E74 		.ascii	"context\000"
 2732      65787400 
 2733              	.LASF18:
 2734 05b2 7274636E 		.ascii	"rtcnt_t\000"
 2734      745F7400 
 2735              	.LASF66:
 2736 05ba 76745F70 		.ascii	"vt_par\000"
 2736      617200
 2737              	.LASF119:
 2738 05c1 74657374 		.ascii	"test_buffers\000"
 2738      5F627566 
 2738      66657273 
 2738      00
 2739              	.LASF97:
 2740 05ce 63685F6D 		.ascii	"ch_mutex\000"
 2740      75746578 
 2740      00
 2741              	.LASF38:
 2742 05d7 705F7265 		.ascii	"p_refs\000"
 2742      667300
 2743              	.LASF75:
 2744 05de 726C6973 		.ascii	"rlist\000"
 2744      7400
 2745              	.LASF14:
 2746 05e4 75696E74 		.ascii	"uint8_t\000"
 2746      385F7400 
 2747              	.LASF121:
 2748 05ec 74657374 		.ascii	"test_heap\000"
 2748      5F686561 
 2748      7000
 2749              	.LASF106:
 2750 05f6 685F7072 		.ascii	"h_provider\000"
 2750      6F766964 
 2750      657200
 2751              	.LASF88:
 2752 0601 77746F62 		.ascii	"wtobjp\000"
 2752      6A7000
 2753              	.LASF34:
 2754 0608 705F6E61 		.ascii	"p_name\000"
 2754      6D6500
 2755              	.LASF112:
 2756 060f 73697A65 		.ascii	"size\000"
 2756      00
 2757              	.LASF46:
 2758 0614 74687265 		.ascii	"threads_list_t\000"
 2758      6164735F 
 2758      6C697374 
 2758      5F7400
 2759              	.LASF90:
 2760 0623 73656E74 		.ascii	"sentmsg\000"
 2760      6D736700 
 2761              	.LASF99:
 2762 062b 6D5F6F77 		.ascii	"m_owner\000"
 2762      6E657200 
 2763              	.LASF31:
 2764 0633 705F6374 		.ascii	"p_ctx\000"
ARM GAS  /tmp/cchU44nR.s 			page 78


 2764      7800
 2765              	.LASF65:
 2766 0639 76745F66 		.ascii	"vt_func\000"
 2766      756E6300 
 2767              	.LASF105:
 2768 0641 6D656D6F 		.ascii	"memory_heap\000"
 2768      72795F68 
 2768      65617000 
 2769              		.comm	__gnu_lto_v1,1,1
 2770              		.ident	"GCC: (GNU Tools for ARM Embedded Processors) 4.8.4 20140526 (release) [ARM/embedded-4_8-br
ARM GAS  /tmp/cchU44nR.s 			page 79


DEFINED SYMBOLS
                            *ABS*:00000000 testheap.c
     /tmp/cchU44nR.s:399    .bss.test_heap:00000000 $d
     /tmp/cchU44nR.s:402    .bss.test_heap:00000000 test_heap
     /tmp/cchU44nR.s:405    .text.heap1_setup:00000000 $t
     /tmp/cchU44nR.s:410    .text.heap1_setup:00000000 heap1_setup
     /tmp/cchU44nR.s:431    .text.heap1_setup:00000010 $d
     /tmp/cchU44nR.s:437    .text.heap1_execute:00000000 $t
     /tmp/cchU44nR.s:442    .text.heap1_execute:00000000 heap1_execute
     /tmp/cchU44nR.s:839    .text.heap1_execute:000002dc $d
     /tmp/cchU44nR.s:852    .rodata.testheap1:00000000 testheap1
     /tmp/cchU44nR.s:845    .rodata:00000000 $d
     /tmp/cchU44nR.s:849    .rodata.testheap1:00000000 $d
     /tmp/cchU44nR.s:862    .rodata.patternheap:00000000 patternheap
     /tmp/cchU44nR.s:859    .rodata.patternheap:00000000 $d
                            *COM*:00000001 __gnu_lto_v1
                     .debug_frame:00000010 $d
     /tmp/cchU44nR.s:436    .text.heap1_setup:00000018 $t

UNDEFINED SYMBOLS
chHeapObjectInit
test
chCoreGetStatusX
chHeapStatus
chHeapAlloc
_test_assert
chHeapFree
