ARM GAS  /tmp/ccd90TRS.s 			page 1


   1              		.syntax unified
   2              		.cpu cortex-m4
   3              		.fpu softvfp
   4              		.eabi_attribute 20, 1
   5              		.eabi_attribute 21, 1
   6              		.eabi_attribute 23, 3
   7              		.eabi_attribute 24, 1
   8              		.eabi_attribute 25, 1
   9              		.eabi_attribute 26, 1
  10              		.eabi_attribute 30, 2
  11              		.eabi_attribute 34, 1
  12              		.eabi_attribute 18, 4
  13              		.thumb
  14              		.file	"testpools.c"
  15              		.text
  16              	.Ltext0:
  17              		.section	.gnu.lto_.jmpfuncs.345e916c522ac267,"",%progbits
  18 0000 789C6362 		.ascii	"x\234cb`b\300\006t\031!4\013\003\003#\0033S5\303\257"
  18      6062C006 
  18      74192134 
  18      0B030323 
  18      03335335 
  19 0016 868E0681 		.ascii	"\206\216\006\201LF\206\\\210\004S\004c&#\343\011&(\013"
  19      4C46865C 
  19      88045304 
  19      632623E3 
  19      0926280B 
  20 002a 64083303 		.ascii	"d\0103\003\023\246:\240v,\232!\272\231\361K\263\200"
  20      13A63AA0 
  20      762C9A21 
  20      BA99F14B 
  20      B380
  21 003c D8B8AC66 		.ascii	"\330\270\254f\026\0002\340R,\311\214\004\354b\005\261"
  21      160032E0 
  21      522CC98C 
  21      04EC6205 
  21      B1
  22 004d 59E15C26 		.ascii	"Y\341\\&\374\252\031qHcq\015\314= \013\000\310\225/"
  22      FCAA1971 
  22      4863710D 
  22      CC3D200B 
  22      00C8952F 
  23 0061 43       		.ascii	"C"
  24              		.text
  25              		.section	.gnu.lto_.inline.345e916c522ac267,"",%progbits
  26 0000 789C6362 		.ascii	"x\234cb`b\300\006\366@i\026\006\006f&F\260\"\266\005"
  26      6062C006 
  26      F6406916 
  26      06066626 
  26      46B022B6 
  27 0015 F260B58C 		.ascii	"\362`\265\214\014\354\374\250\",\274@U\014 \254\363"
  27      0CECFCA8 
  27      222CBC40 
  27      550C20AC 
  27      F3
  28 0026 9D112825 		.ascii	"\235\021(%\3230\203\015.\311\314\003R<\301\017D3\002"
  28      D330830D 
ARM GAS  /tmp/ccd90TRS.s 			page 2


  28      2EC9CC03 
  28      523CC10F 
  28      443302
  29 0039 95C2780C 		.ascii	"\225\302x\014`\036\003\230\0077\000,\012\"A\242\254"
  29      601E0398 
  29      0737002C 
  29      0A2241A2 
  29      AC
  30 004a 0C0A6B40 		.ascii	"\014\012k@\306\211\264\235fF\330\316\005\265\020\331"
  30      C689B49D 
  30      6646D8CE 
  30      05B510D9 
  31 005a 14541B40 		.ascii	"\024T\033@fM\360c`\000\000\2755\017\300"
  31      664DF063 
  31      600000BD 
  31      350FC0
  32              		.text
  33              		.section	.gnu.lto_.pureconst.345e916c522ac267,"",%progbits
  34 0000 789C6362 		.ascii	"x\234cb`b\340d\200\000\026\006\006F\011f\011V\011\000"
  34      6062E064 
  34      80001606 
  34      06460966 
  34      09560900 
  35 0014 02160063 		.ascii	"\002\026\000c"
  36              		.text
  37              		.section	.gnu.lto_null_provider.345e916c522ac267,"",%progbits
  38 0000 789C6362 		.ascii	"x\234cb`b@\007\222@\034\005\304\212@\314\310\314\300"
  38      60624007 
  38      92401C05 
  38      C48A40CC 
  38      C8CCC0
  39 0013 C834E11C 		.ascii	"\3104\341\034\003C#\007\023##\210\301\300\310P\317\304"
  39      03432307 
  39      13232388 
  39      C1C0C850 
  39      CFC4
  40 0025 581FC908 		.ascii	"X\037\311\010V\273\236\351\300\203\377\377\327\375x"
  40      56BB9EE9 
  40      C083FFFF 
  40      D7FD78
  41 0034 FAA88351 		.ascii	"\372\250\203Q\020d\024+CKC\303\004\005\006\206d\260"
  41      1064142B 
  41      434B43C3 
  41      04050686 
  41      64B0
  42 0046 82102009 		.ascii	"\202\020 \011\322\025\312\310\004\242\231/24>\370\317"
  42      D215CAC8 
  42      04A2992F 
  42      32343EF8 
  42      CF
  43 0057 96C8B890 		.ascii	"\226\310\270\220\221\225!\2021\223\021ni\010##H\001"
  43      91952182 
  43      3193116E 
  43      69082323 
  43      4801
  44 0069 C808793D 		.ascii	"\310\010y==}\347\214\314\244L\377`\375\222\324\342\022"
  44      3D7DE78C 
ARM GAS  /tmp/ccd90TRS.s 			page 3


  44      CCA44CFF 
  44      60FD92D4 
  44      E212
  45 007b FDA21230 		.ascii	"\375\242\0220]\220\237\237S\254\227\314\000\000\220"
  45      5D909F9F 
  45      53AC97CC 
  45      000090
  46 008a E7253B   		.ascii	"\347%;"
  47              		.text
  48              		.section	.gnu.lto_pools1_setup.345e916c522ac267,"",%progbits
  49 0000 789C6362 		.ascii	"x\234cb`b@\007\222@<\027\210\025\201\230\221\231\201"
  49      60624007 
  49      92403C17 
  49      88158198 
  49      919981
  50 0013 9169C239 		.ascii	"\221i\3029\006\206F\016&FF\020\203\201\221\241\236\211"
  50      0686460E 
  50      26464610 
  50      838191A1 
  50      9E89
  51 0025 B13E9211 		.ascii	"\261>\222\021\254v=\323\201\007\377\377\257\233\322"
  51      AC763DD3 
  51      8107FFFF 
  51      AF9BD2
  52 0034 B6E40EE3 		.ascii	"\266\344\016\343\014&f\240\010+CKC\303\004\005\006\206"
  52      0C2666A0 
  52      082B434B 
  52      43C30405 
  52      0686
  53 0046 64B08A10 		.ascii	"d\260\212\020 \011\322\026\312\310\004\242\231\3173"
  53      2009D216 
  53      CAC804A2 
  53      99CF33
  54 0055 B43DE879 		.ascii	"\264=\350y\314\225\310\270\220\221\025(]\315\360\253"
  54      CC95C8B8 
  54      90911528 
  54      5DCDF0AB 
  55 0065 A1A34120 		.ascii	"\241\243A \223\021\250\034b\"H\204#\223\2211\227\221"
  55      9311A81C 
  55      62224884 
  55      23939131 
  55      9791
  56 0077 01AA2882 		.ascii	"\001\252(\2021\223\221\351\004\023\230\006\332\220\311"
  56      319391E9 
  56      04139806 
  56      DA90C9
  57 0086 C8C2C070 		.ascii	"\310\302\300p\221\241\361A\2572\314\024\010\010\001"
  57      91A1F141 
  57      AF32CC14 
  57      080801
  58 0095 9A00B402 		.ascii	"\232\000\264\002\344!y==}\347\214\314\244L\377`\375"
  58      E421793D 
  58      3D7DE78C 
  58      CCA44CFF 
  58      60FD
  59 00a7 92D4E212 		.ascii	"\222\324\342\022\375\242\0220]\220\237\237S\254\227"
  59      FDA21230 
ARM GAS  /tmp/ccd90TRS.s 			page 4


  59      5D909F9F 
  59      53AC97
  60 00b6 CC0000E1 		.ascii	"\314\000\000\341:3x"
  60      3A3378
  61              		.text
  62              		.section	.gnu.lto_pools1_execute.part.0.345e916c522ac267,"",%progbits
  63 0000 789C9D54 		.ascii	"x\234\235T=h\024Q\020\236yo\337\356\333\237\273\213"
  63      3D681451 
  63      109E796F 
  63      DFEEDB9F 
  63      BB8B
  64 0012 5A09A221 		.ascii	"Z\011\242!\326\336\201`maeea\016\264\214\213\\\026\014"
  64      D6DE8160 
  64      6D616565 
  64      610EB48C 
  64      8B5C160C 
  65 0026 1193CE22 		.ascii	"\021\223\316\"\233\273S\322\004\016m\202Z\030\322\012"
  65      9BBB53D2 
  65      040E6D82 
  65      5A18D20A 
  66 0036 56120958 		.ascii	"V\022\011X\234UNH\2164\222@\212\023%\026ZY\211\205\347"
  66      9C554E48 
  66      8E349240 
  66      8A132516 
  66      5A598985 
  67 004b CCDB9F78 		.ascii	"\314\333\237xw\271B\027\356\315\2337\363\315\314\367"
  67      77B94217 
  67      EECD9B37 
  67      F3CDCCF7 
  68 005b BDDD1320 		.ascii	"\275\335\023 `\370i\321\257c\001\\$\213\005\300\240"
  68      60F869D1 
  68      AF63015C 
  68      248B05C0 
  68      A0
  69 006c B54B9B00 		.ascii	"\265K\233\000\205\261\002-ceb\333\332\022r\265\015\020"
  69      85B1022D 
  69      636562DB 
  69      DA1272B5 
  69      0D10
  70 007e 7BAA5180 		.ascii	"{\252Q\2008P\250M\334\026\376{I\247\316\356\007\012"
  70      3850A84D 
  70      DC16FE7B 
  70      49A7CEEE 
  70      070A
  71 0090 064E72DC 		.ascii	"\006Nr\334\326Z\330I\272k\322]\341\177\254\220\347m"
  71      D65AD849 
  71      BA6BD25D 
  71      E17FAC90 
  71      E76D
  72 00a2 9D27CF43 		.ascii	"\235'\317C\237\263\226\265\217\310\033@X\012\204\264"
  72      9FB396B5 
  72      8FC81B40 
  72      580A84B4 
  73 00b2 94ED68D7 		.ascii	"\224\355h\327\363q\3516\362\2048\005\353q\334\352=:"
  73      F371E936 
  73      F2843805 
  73      EB71DCEA 
ARM GAS  /tmp/ccd90TRS.s 			page 5


  73      3D3A
  74 00c4 7A7B367E 		.ascii	"z{6~Yo\305\277\373}\214\220\270L!\204\010\267\310\301"
  74      596FC5BF 
  74      FB7D8C90 
  74      B84C2184 
  74      08B7C8C1 
  75 00d8 49638435 		.ascii	"Ic\2045H\356\265\210{\375\376\301\017}\016a\006\327"
  75      48EEB588 
  75      7BFDFEC1 
  75      0F7D0E61 
  75      06D7
  76 00ea A9928008 		.ascii	"\251\222\200\010\245L\035\213\035E\213e\363\342\244"
  76      A54C1D8B 
  76      1D458B65 
  76      F3E2A4
  77 00f9 C73AB52E 		.ascii	"\307:\265.\207=\216\370\274\004\354\026xWL\023J\251"
  77      873D8EF8 
  77      BC04EC16 
  77      78574C13 
  77      4AA9
  78 010b A5474193 		.ascii	"\245GA\223f\234\314\374\320L>M+\361\236\306\200\214"
  78      669CCCFC 
  78      D04C3E4D 
  78      2BF19EC6 
  78      808C
  79 011d ACA26003 		.ascii	"\254\242`\003p\000E\036\226\022\202\3037\263\000U\224"
  79      7000451E 
  79      961282C3 
  79      37B30055 
  79      94
  80 012e 402AC91D 		.ascii	"@*\311\035\250\037\356\177\373\2113\270\201\012j(.\301"
  80      A81FEE7F 
  80      FB8933B8 
  80      810A6A28 
  80      2EC1
  81 0140 AB782242 		.ascii	"\253x\"B\365\034\236-\267xg?\204_\361\032\357\2349\323"
  81      F51C9E2D 
  81      B778673F 
  81      845FF11A 
  81      EF9C39D3 
  82 0154 81EB3886 		.ascii	"\201\3538\206j\0151\247\335\005\225\324\000`\300\012"
  82      6A0D31A7 
  82      DD0595D4 
  82      0060C00A 
  83 0164 03749826 		.ascii	"\003t\230&\360\211\216\320\235\303\264\021w\212\320"
  83      F0898ED0 
  83      9DC3B411 
  83      778AD0
  84 0173 03D881C6 		.ascii	"\003\330\201\306Jcs\365z\326_RM3(\003; \222\363\204"
  84      4A6373F5 
  84      7AD65F52 
  84      4D332803 
  84      3B2092F3 
  85 0188 2245935E 		.ascii	"\"E\223^U\264\200.Ov\240\256!\017\022b\033\232G\313"
  85      55B4802E 
  85      4F76A0AE 
  85      210F1262 
ARM GAS  /tmp/ccd90TRS.s 			page 6


  85      1B9A47CB 
  86 019c 4E562B29 		.ascii	"NV+)t|=\007\2005,\012Z\244\\s\271\214\312\304)\245\342"
  86      747C3D07 
  86      80352C0A 
  86      5AA45C73 
  86      B98CCAC4 
  87 01b3 582F368D 		.ascii	"X/6\21586<\275\"\273\320\354mm\344\322X9/?D1\206WD\272"
  87      38363CBD 
  87      22BBD0EC 
  87      6D6DE4D2 
  87      58392F3F 
  88 01cd 33A97D99 		.ascii	"3\251}\231\301\024!\271\272\034P\251\226\350j\312\025"
  88      C11421B9 
  88      BA1C50A9 
  88      96E86ACA 
  88      15
  89 01de C29418A7 		.ascii	"\302\224\030\247\025%c\",\0316\337\363\3566\007\007"
  89      15256322 
  89      2C1936DF 
  89      F3EE3607 
  89      07
  90 01ef 5EB52ADD 		.ascii	"^\265*\335\302\247\313\322(\370\365XA]Cg\274\202:\303"
  90      C2A7CBD2 
  90      28F8F558 
  90      415D4367 
  90      BC823AC3 
  91 0203 6AF87275 		.ascii	"j\370ruH@gX@gD@\247\206%E\002j'\021\320\205=\317\350"
  91      48406758 
  91      40674440 
  91      A7862545 
  91      026A2711 
  92 021c F42ECC40 		.ascii	"\364.\314@\356\277\310\324\315e\362\010y\222L\376\030"
  92      EEBFC8D4 
  92      CD65F208 
  92      79924CFE 
  92      18
  93 022d 992CC68C 		.ascii	"\231,\306\214\312\344\237 \223\007O,\032\362qo\373\263"
  93      CAE49F20 
  93      93074F2C 
  93      1AF2716F 
  93      FBB3
  94 023f 37F28E4E 		.ascii	"7\362\216N\204i\372\350\220\\\352\324D\0268\035\242"
  94      8469FAE8 
  94      905CEAD4 
  94      4416381D 
  94      A2
  95 0250 CAA73FC3 		.ascii	"\312\247?\30336{\235\234u\360\177\254\013\204\034e\375"
  95      33367B9D 
  95      9C75F07F 
  95      AC0B841C 
  95      65FD
  96 0262 D77883A4 		.ascii	"\327x\203\244\015\304\220N\230\371\374\376\356\321\277"
  96      0DC4904E 
  96      98F9FCFE 
  96      EED1BF
  97 0271 D931DD69 		.ascii	"\3311\335i\372\016\032\005\236\340B\271\\\2716\033\335"
  97      FA0E1A05 
ARM GAS  /tmp/ccd90TRS.s 			page 7


  97      9EE042B9 
  97      5CB9361B 
  97      DD
  98 0282 896EDCAC 		.ascii	"\211n\334\254,\336]X\254<X4\366\376\374\374\275\205"
  98      2CDE5D58 
  98      AC3C5834 
  98      F6FEFCFC 
  98      BD85
  99 0294 720818FD 		.ascii	"r\010\030\375\001/G\017\266"
  99      012F470F 
  99      B6
 100              		.text
 101              		.section	.gnu.lto_pools1_execute.345e916c522ac267,"",%progbits
 102 0000 789C9553 		.ascii	"x\234\225S\277k\024Q\020\376\346\275\375\361\356\347"
 102      BF6B1451 
 102      10FEE6BD 
 102      FDF1EEE7 
 103 0010 E6C4C646 		.ascii	"\346\304\306FC\254\275\373\017l\254\254,\314\201\226"
 103      43ACBDFB 
 103      0F6CACAC 
 103      2CCC8196 
 104 0020 7109C982 		.ascii	"q\011\311\202!b\256\263\310\336\355\011\021\014\\%A"
 104      2162AEB3 
 104      C8DEED09 
 104      110C5C25 
 104      41
 105 0031 410D6982 		.ascii	"A\015i\202\010b!XX\030mL 9\005\013\205\024\207\305U"
 105      08622158 
 105      58186D4C 
 105      2039050B 
 105      851487C5 
 106 0046 FE017A8A 		.ascii	"\376\001z\212\347\314\376\270\344LR\270\260o\336\314"
 106      E7CCFEB8 
 106      E44C52B8 
 106      B06FDECC 
 107 0056 9BF9E69B 		.ascii	"\233\371\346\233o\337*(\374\373\314\362{O\003\347\331"
 107      6FDF2A28 
 107      FCFBCCF2 
 107      7B4F03E7 
 107      D9
 108 0067 520EA43A 		.ascii	"R\016\244:{@\323(\262\223\215V\346\235F\230\267\366"
 108      7B40D328 
 108      B2938D56 
 108      E69D4698 
 108      B7F6
 109 0079 7680B068 		.ascii	"v\200\260h%\361-c+\275\272\305\221\274\023\2258\356"
 109      25F12D63 
 109      2BBDBAC5 
 109      91BC1395 
 109      38EE
 110 008b 28F3E62C 		.ascii	"(\363\346,{\356\347\032{.\031\311\"C$\026\204e\245-"
 110      7BEEE71A 
 110      7B2E19C9 
 110      22432416 
 110      8465A52D 
 111 009f DB710D2D 		.ascii	"\333q\015-_'iKSX\017\303N\357n\377\365\231\360i\253"
 111      5F27694B 
ARM GAS  /tmp/ccd90TRS.s 			page 8


 111      53580FC3 
 111      4EEF6EFF 
 111      F599F069 
 112 00b4 13FE190E 		.ascii	"\023\376\031\016) &8E\360\011\327\330\241\311\330(k"
 112      29202638 
 112      45F009D7 
 112      D8A1C9D8 
 112      286B
 113 00c6 9CF10BF5 		.ascii	"\234\361\013\365\2667\034\376~\271\371m\207*\247\011"
 113      B6371CFE 
 113      7EB9F96D 
 113      872AA709 
 114 00d6 33B4CE68 		.ascii	"3\264\316h\026\002\322N\352\030qr\274X\005Y\212i\270"
 114      1602D24E 
 114      EA187172 
 114      BC580559 
 114      8A69B8
 115 00e9 2C614F22 		.ascii	",aO\"\025Y\030\313F\233YL&\307\220\306\374L\363:\360"
 115      155918CB 
 115      469B594C 
 115      26C790C6 
 115      FC4CF33A 
 116 00fe 5027C546 		.ascii	"P'\305F\357\242\265\377\243\377Q\315\320\006\331\230"
 116      EFA2B5FF 
 116      A3FF51CD 
 116      D006D998 
 117 010e 23EB029E 		.ascii	"#\353\002\236\207\023\001\331\217\360\260\331\221\235"
 117      871301D9 
 117      8FF0B0D9 
 117      919D
 118 011c 73078370 		.ascii	"s\007\203pMv\356B\014 \254]d\273\303\334\273p\022\034"
 118      4D76EE42 
 118      0C20AC5D 
 118      64BBC3DC 
 118      BB70121C 
 119 0130 408A56A4 		.ascii	"@\212V\244\310\370\224\344H\304\004\224[ J\223\270\233"
 119      C8F894E4 
 119      48C40494 
 119      5B204A93 
 119      B89B
 120 0142 20E46DA6 		.ascii	" \344m\246[\000\266\321\352=~\237\"$\234\307\032\324"
 120      5B00B6D1 
 120      EA3D7E9F 
 120      22249CC7 
 120      1AD4
 121 0154 49833F8A 		.ascii	"I\203?\212\356\242\335{\262A\031c3jU\364I\235\320*\240"
 121      EEA2DD7B 
 121      B2411963 
 121      336A55F4 
 121      499DD02A 
 122 0169 12B08BE8 		.ascii	"\022\260\213\350\213\316\312r\\)\360:!ng\361\302\010"
 122      8BCECA72 
 122      5C29F03A 
 122      216E67F1 
 122      C208
 123 017b AEEC2787 		.ascii	"\256\354'\2071\013\217\244&\240\011\340\003\332\337"
 123      310B8FA4 
ARM GAS  /tmp/ccd90TRS.s 			page 9


 123      26A009E0 
 123      03DADF
 124 018a 47DD0B72 		.ascii	"G\335\013r8\366\011\353\354>\270\310\302F+\321\257\373"
 124      38F609EB 
 124      EC3EB8C8 
 124      C2462BD1 
 124      AFFB
 125 019c 97B3C4E2 		.ascii	"\227\263\304\342\034Q<\216\014\264\015uxL>\315jm\360"
 125      1C513C8E 
 125      0CB40D75 
 125      784C3ECD 
 125      6A6DF0
 126 01af 95D22C85 		.ascii	"\225\322,\205\301\350\220\342\236\375\246\233a%@\007"
 126      C1E890E2 
 126      9EFDA69B 
 126      61254007 
 127 01bf 5DBF8252 		.ascii	"]\277\202R\245\324\246f0k-'X\016\242R\254\3263?\253"
 127      A5D4A666 
 127      306B2D27 
 127      580EA252 
 127      ACD6333F 
 128 01d4 2CFF8F58 		.ascii	",\377\217X\335\221X\036W\036'V\345\004\261\224\324\034"
 128      DD91581E 
 128      571E2756 
 128      E504B194 
 128      D41C
 129 01e6 15AB728C 		.ascii	"\025\253r\214X.~\272L22GnN\305Os\003:\225L\351\244S"
 129      582E7EBA 
 129      4C323247 
 129      6E4EC54F 
 129      73033A95 
 130 01fe 3AFBAFE6 		.ascii	":\373\257\346\245\326\310\015\376\304\277\361\001\340"
 130      A5D6C80D 
 130      FEC4BFF1 
 130      01E0
 131 020c 34AB35F0 		.ascii	"4\2535\360d\262s\325j\355\322|p#\270r\265\326\230]j"
 131      64B273D5 
 131      6AEDD27C 
 131      7023B872 
 131      B5D6985D 
 132 0221 D46E3762 		.ascii	"\324n7b{kq\361\346R\325\007\005\177\001\226\313\316"
 132      7B6B71F1 
 132      E652D507 
 132      057F0196 
 132      CBCE
 133 0233 CD       		.ascii	"\315"
 134              		.text
 135              		.section	.gnu.lto_.symbol_nodes.345e916c522ac267,"",%progbits
 136 0000 789C4D8C 		.ascii	"x\234M\214QN\302`\020\204g\376\355\332\002\036\000\023"
 136      514EC260 
 136      108467FE 
 136      EDDA021E 
 136      0013
 137 0012 2EE749B6 		.ascii	".\347I\266I\223\242<q\000M \275\004\357\274a\302\031"
 137      4993A23C 
 137      71004D20 
 137      BD04EFBC 
ARM GAS  /tmp/ccd90TRS.s 			page 10


 137      61C219
 138 0025 889E0068 		.ascii	"\210\236\000hUT\300\177\201P\366e\362\315\354L@@\237"
 138      5554C07F 
 138      8150F665 
 138      F2CDEC4C 
 138      40409F
 139 0038 385FD8D0 		.ascii	"8_\330\320\200\361\0220{y~\014[\032[\3245\221\230\204"
 139      80F11230 
 139      7B797E0C 
 139      5B1A5BD4 
 139      35919884 
 140 004c 3D2D5CDC 		.ascii	"=-\\\334\327'\352\027\011C\250ir\363\373\311\240\006"
 140      D727EA17 
 140      0943A869 
 140      72F3FBC9 
 140      A006
 141 005e 6D2851F8 		.ascii	"m(Q\370GK\316a\236\223\2774miG\273k\351\207\226\266"
 141      474BCE61 
 141      9E93BF34 
 141      6D6947BB 
 141      6BE98796 
 142 0073 F44DCBAE 		.ascii	"\364M\313\256$\314P\254\016\024\351\241z;$\"]|,\\3\314"
 142      24CC50AC 
 142      0E14E9A1 
 142      7A3B2422 
 142      5D7C2C5C 
 143 0089 4FDA4331 		.ascii	"O\332C1\252\007\356\317\207\256\221\313\332N<=\246\""
 143      AA07EECF 
 143      87AE91CB 
 143      DA4E3C3D 
 143      A622
 144 009b 1D54B3FA 		.ascii	"\035T\263\372A\364\036\225\357h\354O\242\257q\317s\347"
 144      41F41E95 
 144      EF68EC4F 
 144      A2AF71CF 
 144      73E7
 145 00ad 32F69CBD 		.ascii	"2\366\234\275\257\202\367a\223\342\037eSV:"
 145      AF82F761 
 145      93E21F65 
 145      53563A
 146              		.text
 147              		.section	.gnu.lto_.refs.345e916c522ac267,"",%progbits
 148 0000 789C35C7 		.ascii	"x\2345\307\301\015\0000\010\303\300\304\2052K\367_\020"
 148      C10D0030 
 148      08C3C0C4 
 148      85324BF7 
 148      5F10
 149 0012 A48AF3CB 		.ascii	"\244\212\363\313\010=}6\324Q\260\004\221\373\276\324"
 149      083D7D36 
 149      D451B004 
 149      91FBBED4 
 150 0022 64520D10 		.ascii	"dR\015\020\271\000\224"
 150      B90094
 151              		.text
 152              		.section	.gnu.lto_.decls.345e916c522ac267,"",%progbits
 153 0000 789C9D58 		.ascii	"x\234\235X[l\024U\030>gv[Z\272\224\213B\312\305v1B\002"
 153      5B6C1455 
ARM GAS  /tmp/ccd90TRS.s 			page 11


 153      183E6776 
 153      5B5ABA94 
 153      8B42CAC5 
 154 0018 B1BB94D4 		.ascii	"\261\273\224\324\204'\012\222(\032\025\242!\361m\235"
 154      84270A92 
 154      281A15A2 
 154      21F16D9D 
 155 0028 EE1ED89A 		.ascii	"\356\036\330\232v\267\314N\005\364\301S\256\225 \226"
 155      76B7CC4E 
 155      05F4C153 
 155      AE952096 
 156 0038 82A1154A 		.ascii	"\202\241\025JZ\271\010>\030\020\205\007\002n\252\266"
 156      5AB9083E 
 156      18108507 
 156      026EAAB6 
 157 0048 2B068280 		.ascii	"+\006\202\200\"b\311F\340\001\004, 6 \260\376\347\262"
 157      2262C946 
 157      E001042C 
 157      203620B0 
 157      FEE7B2
 158 005b BB33D399 		.ascii	"\2733\323\231\245\365$\377\316\2313\377\345\373/\347"
 158      A5F524FF 
 158      CE9933FF 
 158      E5FB2FE7 
 159 006b 9CBF5590 		.ascii	"\234\277U\220\202\256c\204R0v\216A\250AA(\017!4\033"
 159      82AE6384 
 159      5230768E 
 159      41A84141 
 159      280F2134 
 160 0080 8967A77C 		.ascii	"\211g\247|\036\002:\000t\004\211Q\010t\024\250\013\250"
 160      1E023A00 
 160      74048951 
 160      087414A8 
 160      0BA8
 161 0092 1BE838D0 		.ascii	"\033\3508\320\011\2403@\277\002\375\016t\031\310\015"
 161      09A03340 
 161      BF02FD0E 
 161      7419C80D 
 162 00a2 740DE806 		.ascii	"t\015\350\006\320m\240\021\030\231\006\323\301\226\252"
 162      D06DA011 
 162      189906D3 
 162      C196AA
 163 00b1 E43B966B 		.ascii	"\344;\226k\326\321%q\224`3\246\223\362\273\"yNH\035"
 163      D6D12571 
 163      946033A6 
 163      93F2BB22 
 163      794E481D 
 164 00c5 D72CF20C 		.ascii	"\327,\362\014\343\223\022O1\220G\332\274\010\364\027"
 164      E393124F 
 164      319047DA 
 164      BC08F417 
 165 00d5 D04DA0F1 		.ascii	"\320M\240\361 8A\352?\0134\021\346\347\3419\011\013"
 165      203841EA 
 165      3F0B3411 
 165      E6E7E139 
 165      090B
 166 00e7 7BBDD27E 		.ascii	"{\275\322~:\016i\333\371R\277\321\367\023\322\017E\372"
ARM GAS  /tmp/ccd90TRS.s 			page 12


 166      3A0E69DB 
 166      F952BFD1 
 166      F713D20F 
 166      45FA
 167 00f9 6EC5C3E2 		.ascii	"n\305\303\342\365\304 \360<%\3610\233W\0340\225\302"
 167      F5C420F0 
 167      3C25F130 
 167      9B571C30 
 167      95C2
 168 010b BC47EACD 		.ascii	"\274G\352\315\223\272/\033\260t\347\300Q\204\326S\272"
 168      93BA2F1B 
 168      B074E7C0 
 168      5184D653 
 168      BA
 169 011c 9276ACA5 		.ascii	"\222v\254\245\363\023\305c\320&\012\303\233\000Dob\025"
 169      F313C563 
 169      D0260AC3 
 169      9B00446F 
 169      6215
 170 012e 1717A2B7 		.ascii	"\027\027\242\267\370\304S\310\001NA\273(mN~\177\251"
 170      F8C453C8 
 170      014E41BB 
 170      286D4E7E 
 170      7FA9
 171 0140 84BA55FC 		.ascii	"\204\272U\374)\036\003j\247a4\035\355\003\251fJ\377"
 171      291E036A 
 171      A761341D 
 171      ED03A966 
 171      4AFF
 172 0152 98383071 		.ascii	"\23080q\350qJ\021R\361\036P\245\342\335x\2720A\343\233"
 172      E8714A11 
 172      52F11E50 
 172      A5E2DD78 
 172      BA3041E3 
 173 0167 BA3DCC04 		.ascii	"\272=\314\004[G\362\213\315\230\214:\000||\363\332\366"
 173      5B47F28B 
 173      CD988C3A 
 173      007C7CF3 
 173      DAF6
 174 0179 F1B4A30B 		.ascii	"\361\264\243\013\333\371\322\221o\260\353M\333u\363"
 174      DBF9D291 
 174      6FB0EB4D 
 174      DB75F3
 175 0188 88CCC6A0 		.ascii	"\210\314\306\240\372s\253\351[\252W\254>\336\360\235"
 175      FA73ABE9 
 175      5BAA57AC 
 175      3EDEF09D 
 176 0198 AB3F60DA 		.ascii	"\253?`\332\342Q\361>\260\255\240\227\323\372\354\314"
 176      E251F13E 
 176      B0ADA097 
 176      D3FAECCC 
 177 01a8 C9A91892 		.ascii	"\311\251\030\222\301:\354\344\030\012\246^\016\005\275"
 177      C13AECE4 
 177      180AA65E 
 177      0E05BD
 178 01b7 8E65C086 		.ascii	"\216e\300\206hEb\376\270{;\017V!j\312\006\313\336\264"
 178      684562FE 
ARM GAS  /tmp/ccd90TRS.s 			page 13


 178      B87B3B0F 
 178      56216ACA 
 178      06CBDEB4 
 179 01cb 4CF7DDB5 		.ascii	"L\367\335\265\277\334\301+)\205\017\007@LA\275\030\233"
 179      BFDCC12B 
 179      29850F07 
 179      404C41BD 
 179      189B
 180 01dd 42A3E23C 		.ascii	"B\243\342<\223/\374=\315\300\364\361\317r\302\016\232"
 180      932FFC3D 
 180      CDC0F4F1 
 180      CF72C20E 
 180      9A
 181 01ee 91CC8FCB 		.ascii	"\221\314\217\313x\250\216x\215\216$\327\\J\270\332h"
 181      78A88E78 
 181      8D8E24D7 
 181      5C4AB8DA 
 181      68
 182 01ff 7CB5CB94 		.ascii	"|\265\313\224\366q\350c\236\366\265\200WWqU\221cP\017"
 182      F671E863 
 182      9EF6B580 
 182      57577155 
 182      9163500F 
 183 0213 E3717CE6 		.ascii	"\343q|\346\342{\003\011\347T\274\310\2253\0352&\347"
 183      E27B0309 
 183      E754BCC8 
 183      95331D32 
 183      26E7
 184 0225 3E3A3C8D 		.ascii	">:<\215\322\002\025\037\342\231oS\314\0211A\022\246"
 184      D202151F 
 184      E2996F53 
 184      CC113141 
 184      12A6
 185 0237 9C601C01 		.ascii	"\234`\034\001\005\366u6\340\233\202\366(\203\210YA\256"
 185      05F67536 
 185      E09B82F6 
 185      28838859 
 185      41AE
 186 0249 1233E9CF 		.ascii	"\0223\351\317n;\025\177\206\247\300\357^<\031~\367\363"
 186      6E3B157F 
 186      86A7C0EF 
 186      5E3C197E 
 186      F7F3
 187 025b DFAFE137 		.ascii	"\337\257\3417g,\230\212\316li\226\241\035\364T_\362"
 187      672C988A 
 187      CE6C6996 
 187      A11DF454 
 187      5FF2
 188 026d E7CDC74A 		.ascii	"\347\315\307JY^h*\365\276\014\263\202N[\002\364\014"
 188      595E682A 
 188      F5BE0CB3 
 188      824E5B02 
 188      F40C
 189 027f DA49690B 		.ascii	"\332Ii\013\335J\346\247\213*\3119\216\3422[S\202\013"
 189      DD4AE6A7 
 189      8B2AC939 
 189      8EE2325B 
ARM GAS  /tmp/ccd90TRS.s 			page 14


 189      53820B
 190 0292 C654B49B 		.ascii	"\306T\264\233E\366\350\345\205\363yvQ\016!\011\361\030"
 190      45F6E8E5 
 190      85F37976 
 190      510E2109 
 190      F118
 191 02a4 568C6E33 		.ascii	"V\214n3\230\361>\330\007\033a\037\254\214\247RU\310"
 191      98F13ED8 
 191      071B611F 
 191      AC8CA752 
 191      55C8
 192 02b6 5234B3C7 		.ascii	"R4\263\307:\272\373\255,\232l\235(\350\212\3057\011"
 192      3ABAFBAD 
 192      2C9A6C9D 
 192      28E88AC5 
 192      3709
 193 02c8 12C65EEA 		.ascii	"\022\306^\352\342\332\030\177\027\2004\005\377;[X;\272"
 193      E2DA187F 
 193      17803405 
 193      FF3B5B58 
 193      3BBA
 194 02da 37143437 		.ascii	"7\02447&S\251\262\301\203\352\261\001u\333\036T\263"
 194      2653A9B2 
 194      C183EAB1 
 194      0175DB1E 
 194      54B3
 195 02ec 1954B715 		.ascii	"\031T\267\025T\302\016\024\375\222\322BHg\212*\"\002"
 195      54C20E14 
 195      FD92D242 
 195      48678A2A 
 195      2202
 196 02fe 0A6A720D 		.ascii	"\012jr\015\306\347\343V\365?\016T\237lN\256\351\217"
 196      C6E7E356 
 196      F53F0E54 
 196      9F6C4EAE 
 196      E98F
 197 0310 E336DA25 		.ascii	"\3436\332%*f\360n\237\264n`V\213\246\335l\374xH\024"
 197      2A66F06E 
 197      9FB46E60 
 197      568BA6DD 
 197      6CFC7848 
 198 0325 AA69832B 		.ascii	"\252i\203+h\353\000?\004\323i;\240\361\323=\033(\036"
 198      68EB003F 
 198      04D3693B 
 198      A0F1D33D 
 198      1B281E
 199 0338 6A76CEE6 		.ascii	"jv\316\346\204Ye\207j\257\003\252s\266\250\276\351\331"
 199      84596587 
 199      6AAF03AA 
 199      73B6A8BE 
 199      E9D9
 200 034a 309E76DA 		.ascii	"0\236v\332Vr\216\343\357\274\035,\013\216\203\0168."
 200      56728EE3 
 200      EFBC1D2C 
 200      0B8E830E 
 200      382E
 201 035c D8A631B5 		.ascii	"\330\2461\265\255\267\021oZ\325\221\240}\354\2107A)"
ARM GAS  /tmp/ccd90TRS.s 			page 15


 201      ADB7116F 
 201      5AD591A0 
 201      7DEC8837 
 201      4129
 202 036e 40EBD8B6 		.ascii	"@\353\330\266M\256\241\215xi\3464)H\203b\035\233\270"
 202      4DAEA18D 
 202      7869E634 
 202      29488362 
 202      1D9BB8
 203 0381 7EA140A1 		.ascii	"~\241@\241\310.\342\0020\377\233\313\322,f\0210\006"
 203      C82EE202 
 203      30FF9BCB 
 203      D22C6611 
 203      3006
 204 0393 3698BC98 		.ascii	"6\230\274\230\247g\330\371\254\352\265\272\014\327Q"
 204      A767D8F9 
 204      ACEAB5BA 
 204      0CD751
 205 03a2 662E355A 		.ascii	"f.5Z\"\220t\210\300%\333\010\354\352O\340\246\026\372"
 205      22907488 
 205      C025DB08 
 205      ECEA4FE0 
 205      A616FA
 206 03b5 2095720D 		.ascii	" \225r\015\241\216\257\014\242@\254em\201y\303\001\346"
 206      A18EAF0C 
 206      A240AC65 
 206      6D8179C3 
 206      01E6
 207 03c7 5533CCA7 		.ascii	"U3\314\247Q'\215\237J\236=\363\025\206\243\217\322G"
 207      51278D9F 
 207      4A9E3DF3 
 207      1586A38F 
 207      D247
 208 03d9 A9144EF7 		.ascii	"\251\024N\367q\0173*\234\232\264?\245\262Jt\2206\305"
 208      710F332A 
 208      9C9AB43F 
 208      A5B24A74 
 208      9036C5
 209 03ec 67084171 		.ascii	"g\010Aqe0N\321\244\210\313C\336\365\011E^#\354\375\210"
 209      65304ED1 
 209      A488CB43 
 209      DEF50945 
 209      5E23ECFD 
 210 0401 BC291888 		.ascii	"\274)\030\210>\250\226\013\327W\342\315\024\252\205"
 210      3EA8960B 
 210      D757E2CD 
 210      14AA85
 211 0410 42E5E2B2 		.ascii	"B\345\342\262\321\250Y\266\211\231\3133\316/\317\034"
 211      D1A859B6 
 211      8999CB33 
 211      CE2FCF1C 
 212 0420 91ABB2BD 		.ascii	"\221\253\262\275:\263\232\322\321\223\354}x4\262\037"
 212      3AB39AD2 
 212      D193EC7D 
 212      7834B21F 
 213 0430 0A6A745B 		.ascii	"\012jt[#\250\342[\331\3501\320\373\343p\267\375\375"
 213      23A8E25B 
ARM GAS  /tmp/ccd90TRS.s 			page 16


 213      D9E831D0 
 213      FBE370B7 
 213      FDFD
 214 0442 13DE42A9 		.ascii	"\023\336B\251\005t\307\034\013\352t\363\011\27174W\024"
 214      0574C71C 
 214      0BEA74F3 
 214      09B93734 
 214      5714
 215 0454 A71D18C5 		.ascii	"\247\035\030\305m\256\006\2336\335\261\231M\305\377"
 215      6DAE069B 
 215      36DDB199 
 215      4DC5FF
 216 0463 6016C67E 		.ascii	"`\026\306~K\237\012\001<Z\302[\220\376A\365\252\367"
 216      4B9F0A01 
 216      3C5AC25B 
 216      90FE41F5 
 216      AAF7
 217 0475 1E2658AF 		.ascii	"\036&X\257j\352Ld\017\230\334\035/i-~\334\256\3140\323"
 217      6AEA4C64 
 217      0F98DC1D 
 217      2F692D7E 
 217      DCAECC30 
 218 048a 92127B5E 		.ascii	"\222\022{^\025?\340M\304CQ\243\374\223\230\247g)\314"
 218      153FE04D 
 218      C44351A3 
 218      FC9398A7 
 218      6729CC
 219 049d FCFED0ED 		.ascii	"\374\376\320\355\270\257s\213:\325\301}c\177\334\302"
 219      B8AF738B 
 219      3AD5C17D 
 219      637FDCC2 
 220 04ad 33D9FFBF 		.ascii	"3\331\377\277\033\344\177\257\016\014\224\270\366\234"
 220      1BE47FAF 
 220      0E0C94B8 
 220      F69C
 221 04bb CC372A06 		.ascii	"\3147*\006\363[\207l\336k2\377\200$f\010\225\012j\037"
 221      F35B876C 
 221      DE6B32FF 
 221      80246608 
 221      950A6A1F 
 222 04cf 8C2EBB76 		.ascii	"\214.\273vO\352zd\320\265g\310\272\274\003\262#*L\305"
 222      4FEA7A64 
 222      D0B567C8 
 222      BABC03B2 
 222      232A4CC5 
 223 04e3 F7787F48 		.ascii	"\367x\177H\025\366\273\212\377\256Q\036\333+Z\002z\327"
 223      15F6BB8A 
 223      FFAE511E 
 223      DB2B5A02 
 223      7AD7
 224 04f5 0109D3BF 		.ascii	"\001\011\323\277.\033P\263\3129f\240\206\355'\204\354"
 224      2E1B50B3 
 224      CA3966A0 
 224      86ED2784 
 224      EC
 225 0506 D954DCA4 		.ascii	"\331T\334\244\210\235\317k\230f0\000\207\023\204\017"
 225      889DCF6B 
ARM GAS  /tmp/ccd90TRS.s 			page 17


 225      98663000 
 225      8713840F 
 226 0516 946C217A 		.ascii	"\224l!z\012\263\023c\345f\271 \276_\270-\347\347\000"
 226      0AB31363 
 226      E566B920 
 226      BE5FB82D 
 226      E7E700
 227 0529 10EB15E3 		.ascii	"\020\353\025\343\371\011\177d\336\201\363(\223\267\367"
 227      F9097F64 
 227      DE81F328 
 227      93B7F7
 228 0538 D07DDA4A 		.ascii	"\320}\332J\341\204\271[!|\341\347\344\251x\333\272v"
 228      E184B95B 
 228      217CE1E7 
 228      E4A978DB 
 228      BA76
 229 054a E3617D97 		.ascii	"\343a}\227\037\326G\254\306\314g\006\263\266\021\254"
 229      1FD647AC 
 229      C6CC6706 
 229      B3B611AC 
 230 055a 95A26E77 		.ascii	"\225\242nw;-0X\235#4\210\024\012\223\361m=\346\277\234"
 230      3B2D3058 
 230      9D233488 
 230      140A93F1 
 230      6D3DE6BF 
 231 056f D3E7676B 		.ascii	"\323\347gk\261\330y\322D2cb\2224\261y\310Q\335\342\020"
 231      B1D879D2 
 231      44326362 
 231      9234B179 
 231      C851DDE2 
 232 0584 D5F4FF0D 		.ascii	"\325\364\377\015\234\344Z\262\005Q\212\316\203O\255"
 232      9CE45AB2 
 232      05518ACE 
 232      834FAD
 233 0593 73B2E645 		.ascii	"s\262\346E%2g\232h|\3730Q\360\231\206[T(\323'\266\251"
 233      2532679A 
 233      687CFB30 
 233      51F09986 
 233      5B5428D3 
 234 05aa A855C9BD 		.ascii	"\250U\311\275?\303mlU%\012\341o\272\026-\345{2\307y"
 234      3FC36D6C 
 234      55250AE1 
 234      6FBA162D 
 234      E57B32C7 
 235 05bf D09A456B 		.ascii	"\320\232Ek\221\272\231\315\370\000\2516G\251\2639l}"
 235      91BA99CD 
 235      F800A936 
 235      47A9B339 
 235      6C7D
 236 05d1 E228753E 		.ascii	"\342(u>\207\3246G\251\336\034R\333\035\245\256\344\220"
 236      87D43647 
 236      A9DE1C52 
 236      DB1DA5AE 
 236      E490
 237 05e3 6A7794EA 		.ascii	"jw\224\352\311!\265\303p\004L\365\371\374\363\3025\325"
 237      C921B5C3 
 237      70044CF5 
ARM GAS  /tmp/ccd90TRS.s 			page 18


 237      F9FCF3C2 
 237      35D5
 238 05f5 350BDEF0 		.ascii	"5\013\336\360Gc~M\367\327D\202\265\015!\342\017\206"
 238      47637E4D 
 238      F7D74482 
 238      B50D21E2 
 238      0F86
 239 0607 EB485D7D 		.ascii	"\353H]}4Z\033\363\205\321\010\230G\265\025\001\366\036"
 239      345A1BF3 
 239      85D10898 
 239      47B51501 
 239      F61E
 240 0619 D0F35F7C 		.ascii	"\320\363_|m\221w\036*\342oa\242\206\2106\254>\034\210"
 240      6D91771E 
 240      2AE26F61 
 240      A2868836 
 240      AC3E1C88 
 241 062d 90E5FAB0 		.ascii	"\220\345\372\260\272z\376l\304\376\310\342\030\243\347"
 241      BA7AFE6C 
 241      C4FEC8E2 
 241      18A3E7
 242 063c FCE1681D 		.ascii	"\374\341h\035\361k$FT-\030\366\207U-\264L\325\210_\325"
 242      F16B2446 
 242      542D18F6 
 242      87552DB4 
 242      4CD5885F 
 243 0651 EA66FA97 		.ascii	"\352f\372\227\004\203\3450)'u\325$\024\"\241\314B$\032"
 243      0483E530 
 243      292775D5 
 243      241422A1 
 243      CC42241A 
 244 0665 21E544AD 		.ascii	"!\345D\255\256)\257\014\314*\2379\243\242r\351L\177"
 244      AE29AF0C 
 244      CC2A9F39 
 244      A3A272E9 
 244      4C7F
 245 0677 6D4D3563 		.ascii	"mM5c\360\233\030\374\225\276Y\276\312\014\356\230\016"
 245      F09B18FC 
 245      95BE59BE 
 245      CA0CEE98 
 245      0E
 246 0688 7A1603E6 		.ascii	"z\026\003\346\374X\315\273$\240\027\003\242h\365\333"
 246      FC58CDBB 
 246      24A01703 
 246      A268F5DB 
 247 0698 24A807D8 		.ascii	"$\250\007\330\302\224\334\016\007\243\032\001Y\017L"
 247      C294DC0E 
 247      07A31A01 
 247      590F4C
 248 06a7 97107D71 		.ascii	"\227\020}qC$\030\320\213@C\275\026}\247\006\374,3\210"
 248      432418D0 
 248      8B4043BD 
 248      167DA706 
 248      FC2C3388 
 249 06bb EB24A633 		.ascii	"\353$\2463\005\354)\002\025D#\"\015\265\265\031n7\263"
 249      05EC2902 
 249      15442322 
ARM GAS  /tmp/ccd90TRS.s 			page 19


 249      0DB5B519 
 249      6E37B3
 250 06ce E8E1DF2A 		.ascii	"\350\341\337*\0021\2427\324\217\225/d9\0116\350\304"
 250      0231A237 
 250      D48F952F 
 250      64390936 
 250      E8C4
 251 06e0 57AF6ABA 		.ascii	"W\257j\272oF\261yuT0\274\020\026\026p\324/Ej\364\341"
 251      6F46B179 
 251      755430BC 
 251      10161670 
 251      D42F456A 
 252 06f6 62E1058D 		.ascii	"b\341\005\215\220\"1\235[[\033\015Np\000\003\016\344"
 252      9022319D 
 252      5B5B1B0D 
 252      4E700003 
 252      0EE4
 253 0708 059E072E 		.ascii	"\005\236\007.O\200\275\006\324X\214h\372H!\371JT\015"
 253      4F80BD06 
 253      D4588C68 
 253      FA4821F9 
 253      4A540D
 254 071b CDD53475 		.ascii	"\315\3254u\205\253\256\276BY\246\0260\226\240\032#\356"
 254      85ABAEBE 
 254      4259A616 
 254      3096A01A 
 254      23EE
 255 072d 20A4C61D 		.ascii	" \244\306\035Q\353H\036\207\012\037 U\321e\221a\022"
 255      51EB481E 
 255      870A1F20 
 255      55D16591 
 255      6112
 256 073f 96A75ED5 		.ascii	"\226\247^\325u\242E8\330\341\031\257+\306\370\264hH"
 256      75A24538 
 256      D8E119AF 
 256      2BC6F8B4 
 256      6848
 257 0751 D5555F76 		.ascii	"\325U_vi\322\253\274^\274\314`\354Y\357\322\006\322"
 257      69D2ABBC 
 257      5EBCCC60 
 257      EC59EFD2 
 257      06D2
 258 0763 40FC21C2 		.ascii	"@\374!\302\237\350?o\256{\222"
 258      9FE83F6F 
 258      AE7B92
 259              		.text
 260              		.section	.gnu.lto_.symtab.345e916c522ac267,"",%progbits
 261 0000 70617474 		.ascii	"patternpools\000\000\000\000\000\000\000\000\000\000"
 261      65726E70 
 261      6F6F6C73 
 261      00000000 
 261      00000000 
 262 0016 0000F200 		.ascii	"\000\000\362\000\000\000testpools1\000\000\000\000\000"
 262      00007465 
 262      7374706F 
 262      6F6C7331 
 262      00000000 
ARM GAS  /tmp/ccd90TRS.s 			page 20


 263 002b 00000000 		.ascii	"\000\000\000\000\000\000\000\015\001\000\000wa\000\000"
 263      0000000D 
 263      01000077 
 263      610000
 264 003a 02000000 		.ascii	"\002\000\000\000\000\000\000\000\000\000\355\000\000"
 264      00000000 
 264      0000ED00 
 264      00
 265 0047 00636850 		.ascii	"\000chPoolObjectInit\000\000\002\000\000\000\000\000"
 265      6F6F6C4F 
 265      626A6563 
 265      74496E69 
 265      74000002 
 266 0060 00000000 		.ascii	"\000\000\000\000\315\000\000\000chPoolFree\000\000\002"
 266      CD000000 
 266      6368506F 
 266      6F6C4672 
 266      65650000 
 267 0075 00000000 		.ascii	"\000\000\000\000\000\000\000\000\000\323\000\000\000"
 267      00000000 
 267      00D30000 
 267      00
 268 0082 6368506F 		.ascii	"chPoolAlloc\000\000\002\000\000\000\000\000\000\000"
 268      6F6C416C 
 268      6C6F6300 
 268      00020000 
 268      00000000 
 269 0097 0000D800 		.ascii	"\000\000\330\000\000\000_test_assert\000\000\002\000"
 269      00005F74 
 269      6573745F 
 269      61737365 
 269      72740000 
 270 00ad 00000000 		.ascii	"\000\000\000\000\000\000\000\000\334\000\000\000chP"
 270      00000000 
 270      DC000000 
 270      636850
 271 00bc 6F6F6C4C 		.ascii	"oolLoadArray\000\000\002\000\000\000\000\000\000\000"
 271      6F616441 
 271      72726179 
 271      00000200 
 271      00000000 
 272 00d2 0000E400 		.ascii	"\000\000\344\000\000\000"
 272      0000
 273              		.text
 274              		.section	.gnu.lto_.opts,"",%progbits
 275 0000 272D6D63 		.ascii	"'-mcpu=cortex-m4' '-mno-thumb-interwork' '-mthumb' "
 275      70753D63 
 275      6F727465 
 275      782D6D34 
 275      2720272D 
 276 0033 272D6767 		.ascii	"'-ggdb' '-O2' '-fomit-frame-pointer' '-falign-funct"
 276      64622720 
 276      272D4F32 
 276      2720272D 
 276      666F6D69 
 277 0066 696F6E73 		.ascii	"ions=16' '-ffunction-sections' '-fdata-sections' '-"
 277      3D313627 
ARM GAS  /tmp/ccd90TRS.s 			page 21


 277      20272D66 
 277      66756E63 
 277      74696F6E 
 278 0099 666E6F2D 		.ascii	"fno-common' '-flto'\000"
 278      636F6D6D 
 278      6F6E2720 
 278      272D666C 
 278      746F2700 
 279              		.text
 280              		.cfi_sections	.debug_frame
 281              		.section	.text.null_provider,"ax",%progbits
 282              		.align	2
 283              		.p2align 4,,15
 284              		.thumb
 285              		.thumb_func
 286              		.type	null_provider, %function
 287              	null_provider:
 288              	.LFB241:
 289              		.file 1 "../ChibiOS/test/rt/testpools.c"
 290              		.loc 1 60 0
 291              		.cfi_startproc
 292              		@ args = 0, pretend = 0, frame = 0
 293              		@ frame_needed = 0, uses_anonymous_args = 0
 294              		@ link register save eliminated.
 295              	.LVL0:
 296              		.loc 1 64 0
 297 0000 0020     		movs	r0, #0
 298              	.LVL1:
 299 0002 7047     		bx	lr
 300              		.cfi_endproc
 301              	.LFE241:
 302              		.size	null_provider, .-null_provider
 303 0004 AFF30080 		.section	.text.pools1_setup,"ax",%progbits
 303      AFF30080 
 303      AFF30080 
 304              		.align	2
 305              		.p2align 4,,15
 306              		.thumb
 307              		.thumb_func
 308              		.type	pools1_setup, %function
 309              	pools1_setup:
 310              	.LFB242:
 311              		.loc 1 66 0
 312              		.cfi_startproc
 313              		@ args = 0, pretend = 0, frame = 0
 314              		@ frame_needed = 0, uses_anonymous_args = 0
 315              		@ link register save eliminated.
 316              		.loc 1 68 0
 317 0000 0248     		ldr	r0, .L3
 318 0002 4FF4A471 		mov	r1, #328
 319 0006 0022     		movs	r2, #0
 320 0008 FFF7FEBF 		b	chPoolObjectInit
 321              	.LVL2:
 322              	.L4:
 323              		.align	2
 324              	.L3:
 325 000c 00000000 		.word	.LANCHOR0
ARM GAS  /tmp/ccd90TRS.s 			page 22


 326              		.cfi_endproc
 327              	.LFE242:
 328              		.size	pools1_setup, .-pools1_setup
 329              		.section	.text.pools1_execute,"ax",%progbits
 330              		.align	2
 331              		.p2align 4,,15
 332              		.thumb
 333              		.thumb_func
 334              		.type	pools1_execute, %function
 335              	pools1_execute:
 336              	.LFB243:
 337              		.loc 1 71 0
 338              		.cfi_startproc
 339              		@ args = 0, pretend = 0, frame = 0
 340              		@ frame_needed = 0, uses_anonymous_args = 0
 341 0000 38B5     		push	{r3, r4, r5, lr}
 342              		.cfi_def_cfa_offset 16
 343              		.cfi_offset 3, -16
 344              		.cfi_offset 4, -12
 345              		.cfi_offset 5, -8
 346              		.cfi_offset 14, -4
 347              		.loc 1 75 0
 348 0002 2C4B     		ldr	r3, .L18
 349 0004 2C48     		ldr	r0, .L18+4
 350 0006 1D68     		ldr	r5, [r3]
 351 0008 0522     		movs	r2, #5
 352 000a 2946     		mov	r1, r5
 353 000c FFF7FEFF 		bl	chPoolLoadArray
 354              	.LVL3:
 355 0010 0524     		movs	r4, #5
 356              	.LVL4:
 357              	.L9:
 358              		.loc 1 79 0
 359 0012 2948     		ldr	r0, .L18+4
 360 0014 FFF7FEFF 		bl	chPoolAlloc
 361              	.LVL5:
 362 0018 011C     		adds	r1, r0, #0
 363 001a 18BF     		it	ne
 364 001c 0121     		movne	r1, #1
 365 001e 0120     		movs	r0, #1
 366 0020 FFF7FEFF 		bl	_test_assert
 367              	.LVL6:
 368 0024 A0BB     		cbnz	r0, .L5
 369              		.loc 1 78 0
 370 0026 013C     		subs	r4, r4, #1
 371              	.LVL7:
 372 0028 F3D1     		bne	.L9
 373              		.loc 1 82 0
 374 002a 2348     		ldr	r0, .L18+4
 375 002c FFF7FEFF 		bl	chPoolAlloc
 376              	.LVL8:
 377 0030 D0F10101 		rsbs	r1, r0, #1
 378 0034 38BF     		it	cc
 379 0036 0021     		movcc	r1, #0
 380 0038 0220     		movs	r0, #2
 381 003a FFF7FEFF 		bl	_test_assert
 382              	.LVL9:
ARM GAS  /tmp/ccd90TRS.s 			page 23


 383 003e 38BB     		cbnz	r0, .L5
 384 0040 1C4C     		ldr	r4, .L18
 385              	.LVL10:
 386              	.LBB4:
 387              	.LBB5:
 388              		.loc 1 86 0
 389 0042 1D48     		ldr	r0, .L18+4
 390              	.LBE5:
 391              	.LBE4:
 392              		.loc 1 82 0
 393 0044 2946     		mov	r1, r5
 394 0046 04F11005 		add	r5, r4, #16
 395              	.LBB8:
 396              	.LBB6:
 397              		.loc 1 86 0
 398 004a FFF7FEFF 		bl	chPoolFree
 399              	.LVL11:
 400              		.loc 1 85 0
 401 004e AC42     		cmp	r4, r5
 402 0050 06D0     		beq	.L11
 403              	.L16:
 404 0052 54F8041F 		ldr	r1, [r4, #4]!
 405              		.loc 1 86 0
 406 0056 1848     		ldr	r0, .L18+4
 407 0058 FFF7FEFF 		bl	chPoolFree
 408              	.LVL12:
 409              		.loc 1 85 0
 410 005c AC42     		cmp	r4, r5
 411 005e F8D1     		bne	.L16
 412              	.L11:
 413 0060 0524     		movs	r4, #5
 414              	.L14:
 415              	.LVL13:
 416              		.loc 1 90 0
 417 0062 1548     		ldr	r0, .L18+4
 418 0064 FFF7FEFF 		bl	chPoolAlloc
 419              	.LVL14:
 420 0068 011C     		adds	r1, r0, #0
 421 006a 18BF     		it	ne
 422 006c 0121     		movne	r1, #1
 423 006e 0320     		movs	r0, #3
 424 0070 FFF7FEFF 		bl	_test_assert
 425              	.LVL15:
 426 0074 60B9     		cbnz	r0, .L5
 427              		.loc 1 89 0
 428 0076 013C     		subs	r4, r4, #1
 429              	.LVL16:
 430 0078 F3D1     		bne	.L14
 431              		.loc 1 93 0
 432 007a 0F48     		ldr	r0, .L18+4
 433 007c FFF7FEFF 		bl	chPoolAlloc
 434              	.LVL17:
 435 0080 D0F10101 		rsbs	r1, r0, #1
 436 0084 38BF     		it	cc
 437 0086 0021     		movcc	r1, #0
 438 0088 0420     		movs	r0, #4
 439 008a FFF7FEFF 		bl	_test_assert
ARM GAS  /tmp/ccd90TRS.s 			page 24


 440              	.LVL18:
 441 008e 00B1     		cbz	r0, .L17
 442              	.LVL19:
 443              	.L5:
 444 0090 38BD     		pop	{r3, r4, r5, pc}
 445              	.LVL20:
 446              	.L17:
 447              		.loc 1 96 0
 448 0092 1021     		movs	r1, #16
 449 0094 0848     		ldr	r0, .L18+4
 450 0096 094A     		ldr	r2, .L18+8
 451 0098 FFF7FEFF 		bl	chPoolObjectInit
 452              	.LVL21:
 453              		.loc 1 97 0
 454 009c 0648     		ldr	r0, .L18+4
 455 009e FFF7FEFF 		bl	chPoolAlloc
 456              	.LVL22:
 457 00a2 D0F10101 		rsbs	r1, r0, #1
 458 00a6 38BF     		it	cc
 459 00a8 0021     		movcc	r1, #0
 460 00aa 0520     		movs	r0, #5
 461              	.LBE6:
 462              	.LBE8:
 463              		.loc 1 98 0
 464 00ac BDE83840 		pop	{r3, r4, r5, lr}
 465              	.LVL23:
 466              	.LBB9:
 467              	.LBB7:
 468              		.loc 1 97 0
 469 00b0 FFF7FEBF 		b	_test_assert
 470              	.LVL24:
 471              	.L19:
 472              		.align	2
 473              	.L18:
 474 00b4 00000000 		.word	wa
 475 00b8 00000000 		.word	.LANCHOR0
 476 00bc 00000000 		.word	null_provider
 477              	.LBE7:
 478              	.LBE9:
 479              		.cfi_endproc
 480              	.LFE243:
 481              		.size	pools1_execute, .-pools1_execute
 482              		.global	patternpools
 483              		.global	testpools1
 484              		.section	.rodata.str1.4,"aMS",%progbits,1
 485              		.align	2
 486              	.LC0:
 487 0000 4D656D6F 		.ascii	"Memory Pools, queue/dequeue\000"
 487      72792050 
 487      6F6F6C73 
 487      2C207175 
 487      6575652F 
 488              		.section	.rodata.patternpools,"a",%progbits
 489              		.align	2
 490              		.type	patternpools, %object
 491              		.size	patternpools, 8
 492              	patternpools:
ARM GAS  /tmp/ccd90TRS.s 			page 25


 493 0000 00000000 		.word	testpools1
 494 0004 00000000 		.word	0
 495              		.section	.data.mp1,"aw",%progbits
 496              		.align	2
 497              		.set	.LANCHOR0,. + 0
 498              		.type	mp1, %object
 499              		.size	mp1, 12
 500              	mp1:
 501 0000 00000000 		.word	0
 502 0004 48010000 		.word	328
 503 0008 00000000 		.word	0
 504              		.section	.rodata.testpools1,"a",%progbits
 505              		.align	2
 506              		.type	testpools1, %object
 507              		.size	testpools1, 16
 508              	testpools1:
 509 0000 00000000 		.word	.LC0
 510 0004 00000000 		.word	pools1_setup
 511 0008 00000000 		.word	0
 512 000c 00000000 		.word	pools1_execute
 513              		.text
 514              	.Letext0:
 515              		.file 2 "/nfs/nfs5/home/research/hardware/arm2/gcc-arm-embedded/gcc-arm-none-eabi-4_8-2014q2/lib/g
 516              		.file 3 "/nfs/nfs5/home/research/hardware/arm2/gcc-arm-embedded/gcc-arm-none-eabi-4_8-2014q2/arm-n
 517              		.file 4 "/nfs/nfs5/home/research/hardware/arm2/gcc-arm-embedded/gcc-arm-none-eabi-4_8-2014q2/arm-n
 518              		.file 5 "../ChibiOS/os/rt/ports/ARMCMx/compilers/GCC/chtypes.h"
 519              		.file 6 "../ChibiOS/os/rt/include/chsystypes.h"
 520              		.file 7 "../ChibiOS/os/rt/include/chschd.h"
 521              		.file 8 "../ChibiOS/os/rt/ports/ARMCMx/chcore.h"
 522              		.file 9 "../ChibiOS/os/rt/ports/ARMCMx/chcore_v7m.h"
 523              		.file 10 "../ChibiOS/os/rt/include/chtm.h"
 524              		.file 11 "../ChibiOS/os/rt/include/chsem.h"
 525              		.file 12 "../ChibiOS/os/rt/include/chmtx.h"
 526              		.file 13 "../ChibiOS/os/rt/include/chmemcore.h"
 527              		.file 14 "../ChibiOS/os/rt/include/chmempools.h"
 528              		.file 15 "../ChibiOS/test/rt/test.h"
 529              		.file 16 "../ChibiOS/os/ext/CMSIS/include/core_cm4.h"