ARM GAS  /tmp/cc4zuTcv.s 			page 1


   1              		.syntax unified
   2              		.cpu cortex-m4
   3              		.fpu softvfp
   4              		.eabi_attribute 20, 1
   5              		.eabi_attribute 21, 1
   6              		.eabi_attribute 23, 3
   7              		.eabi_attribute 24, 1
   8              		.eabi_attribute 25, 1
   9              		.eabi_attribute 26, 1
  10              		.eabi_attribute 30, 6
  11              		.eabi_attribute 34, 1
  12              		.eabi_attribute 18, 4
  13              		.thumb
  14              		.file	"testmsg.c"
  15              		.text
  16              	.Ltext0:
  17              		.section	.gnu.lto_.inline.f55de9ca8885b0e9,"",%progbits
  18 0000 789C6362 		.ascii	"x\234cb`b\300\006\016BiV\006\006\026f\006\006&\226\017"
  18      6062C006 
  18      0E426956 
  18      06061666 
  18      06062696 
  19 0015 7A0C2C10 		.ascii	"z\014,\020\265L\014l|h\"\334@\202\031C!\013\003\217"
  19      B54C0C6C 
  19      7C6822DC 
  19      40821943 
  19      210B038F 
  20 0029 1A508469 		.ascii	"\032P\204i\201<L\204\231\007\205`e0=\302\010T\301\263"
  20      813C4C84 
  20      99078560 
  20      65303DC2 
  20      0854C1B3 
  21 003d 2117AE87 		.ascii	"!\027\256\207\027n\036\\\031\230K\254\030\273\000\212"
  21      176E1E5C 
  21      19984BAC 
  21      18BB008A 
  22 004d 2C030083 		.ascii	",\003\000\203\007\010\303"
  22      0708C3
  23              		.text
  24              		.section	.gnu.lto_chThdGetSelfX.f55de9ca8885b0e9,"",%progbits
  25 0000 789C6362 		.ascii	"x\234cb`b@\007\322@\374\007\210\325A\034\026\006F\240"
  25      60624007 
  25      D240FC07 
  25      88D5411C 
  25      160646A0 
  26 0014 0A462646 		.ascii	"\012F&Ff \311\314\310\010\024bd\250gbf\254\217\004\261"
  26      6620C9CC 
  26      C8081462 
  26      64A86762 
  26      66AC8F04 
  27 0029 19189518 		.ascii	"\031\030\225\030\02664\314z\320\272k\246d\327\202\246"
  27      163634CC 
  27      7AD0BA6B 
  27      A664D782 
  27      A6
  28 003a 090DFFFE 		.ascii	"\011\015\377\376\377g\314\004I%32D\000Y\214\012`\212"
  28      FF67CC04 
ARM GAS  /tmp/cc4zuTcv.s 			page 2


  28      49253332 
  28      4400598C 
  28      0A608A
  29 004d 8905D592 		.ascii	"\211\005\325\222\365L\007\036\374\377\377\346\366\227"
  29      F54C071E 
  29      FCFFFFE6 
  29      F697
  30 005b 472F1985 		.ascii	"G/\031\205\230\030\031\300Z\030X\031Z\032\032&(\200"
  30      981819C0 
  30      5A185819 
  30      5A1A1A26 
  30      2880
  31 006d 35034108 		.ascii	"5\003A\010\230\014\005\271\200\371,C\323\255\031\273"
  31      980C05B9 
  31      80F92C43 
  31      D3AD19BB 
  32 007d 24131917 		.ascii	"$\023\031\0271\2622\24432j3\254j\000\202P\240F(\323"
  32      31B232A4 
  32      33326A33 
  32      AC6A0082 
  32      50A04628 
  33 0092 32939179 		.ascii	"2\223\221y6\303\254\306\206\006\201LF\226j\206_\015"
  33      36C3ACC6 
  33      8606814C 
  33      46966A86 
  33      5F0D
  34 00a4 1D20166B 		.ascii	"\035 \026k.\330\024\220#X\301V'12@iF$\007\205\202|\310"
  34      2ED81490 
  34      2358C156 
  34      27313240 
  34      69462407 
  35 00bc 7C9AA191 		.ascii	"|\232\241\221\203\201!\005$s\221\241\361\0003\334:\210"
  35      83812105 
  35      247391A1 
  35      F10033DC 
  35      3A88
  36 00ce A2101003 		.ascii	"\242\020\020\003\024b\252zz\372\316\031\231I\231\376"
  36      1462AA7A 
  36      7AFACE19 
  36      994999FE 
  37 00de C1FAF9C5 		.ascii	"\301\372\371\305\372E%\372\231y\3119\245)\251\372\311"
  37      FA4525FA 
  37      9979C939 
  37      A529A9FA 
  37      C9
  38 00ef 19251945 		.ascii	"\031%\031E\251\211)\305z\031\014\000\244\376DY"
  38      A98929C5 
  38      7A190C00 
  38      A4FE4459 
  39              		.text
  40              		.section	.gnu.lto_chThdGetPriorityX.f55de9ca8885b0e9,"",%progbits
  41 0000 789C6362 		.ascii	"x\234cb`b@\007\322@l\316\310\300\240\016\342\26000\002"
  41      60624007 
  41      D2406CCE 
  41      C8C0A00E 
  41      E2B03030 
  42 0015 55303231 		.ascii	"U0212\003IfF\2400\003#C=\0233c}$\210\315\300\244\304"
ARM GAS  /tmp/cc4zuTcv.s 			page 3


  42      32034966 
  42      46A03003 
  42      23433D13 
  42      33637D24 
  43 002e B0B0A161 		.ascii	"\260\260\241a\326\203\245\373gJv-h\232\320\360\357\377"
  43      D683A5FB 
  43      674A762D 
  43      689AD0F0 
  43      EFFF
  44 0040 7FC64C90 		.ascii	"\177\306L\220T2#C\004\220\305\250\000\246\230XP-\001"
  44      54322343 
  44      0490C5A8 
  44      00A69858 
  44      502D01
  45 0053 6B9BD470 		.ascii	"k\233\324p\377I\300\211\206\226\003\377\377\333g\202"
  45      FF49C089 
  45      869603FF 
  45      FFDB6782 
  46 0063 6CC0AF67 		.ascii	"l\300\257g=\323\201\007\377\377\357\271\377\347\321"
  46      3DD38107 
  46      FFFFEFB9 
  46      FFE7D1
  47 0072 3F462166 		.ascii	"?F!fF\006\240\026&\006\260]\014\254\014-\015\015\023"
  47      4606A016 
  47      2606B05D 
  47      0CAC0C2D 
  47      0D0D13
  48 0085 14C02600 		.ascii	"\024\300&\000A\010\230\014\0059\235\371<C\363\203\277"
  48      4108980C 
  48      05399DF9 
  48      3C43F383 
  48      BF
  49 0096 4FB91319 		.ascii	"O\271\023\031\0273\2622\24432V3\374j\350h\020\310dd"
  49      1733B232 
  49      A4333256 
  49      33FC6AE8 
  49      6810C864 
  50 00ab 49067B87 		.ascii	"I\006{\207\001h\004+\003\303Y\206\246[\0050EL\332\014"
  50      0168042B 
  50      03C35986 
  50      A65B0530 
  50      454CDA0C 
  51 00bf AB1A80A0 		.ascii	"\253\032\200\240\030h\372l\206Y@\267\260\001u\202\334"
  51      1868FA6C 
  51      865940B7 
  51      B0017582 
  51      DC
  52 00d0 C40CD691 		.ascii	"\304\014\326\221\304\210\354\256P\220(\363i\206F\016"
  52      C488ECAE 
  52      509028F3 
  52      6986460E 
  53 00e0 06861490 		.ascii	"\006\206\024\220\314E\206\306\003\314p\263 \212B@\226"
  53      CC4586C6 
  53      03CC70B3 
  53      208A4240 
  53      96
  54 00f1 81D8AA7A 		.ascii	"\201\330\252zz\372\316\031\231I\231\376\301\372\371"
ARM GAS  /tmp/cc4zuTcv.s 			page 4


  54      7AFACE19 
  54      994999FE 
  54      C1FAF9
  55 0100 C5FA4525 		.ascii	"\305\372E%\372\231y\3119\245)\251\372\311\031%\031E"
  55      FA9979C9 
  55      39A529A9 
  55      FAC91925 
  55      1945
  56 0112 A98929C5 		.ascii	"\251\211)\305z\031\014\000\003\310Pc"
  56      7A190C00 
  56      03C85063 
  57              		.text
  58              		.section	.gnu.lto_chMsgGet.f55de9ca8885b0e9,"",%progbits
  59 0000 789C5D50 		.ascii	"x\234]P=K\304@\020\235\267\233\310ag\245\345y\226\007"
  59      3D4BC440 
  59      109DB79B 
  59      C86167A5 
  59      E5799607 
  60 0014 09D859FB 		.ascii	"\011\330Y\373\003,\356\016\26449I\026\214\202\247u6"
  60      032CEE0E 
  60      B4343949 
  60      168C82A7 
  60      7536
  61 0026 62217245 		.ascii	"b!rE\260\012Z\211\235\215\265]\232\303B\256\260\265"
  61      B00A5A89 
  61      9D8DB55D 
  61      9AC342AE 
  61      B0B5
  62 0038 0AF70B44 		.ascii	"\012\367\013D{\327\331\\\024\275\201\235\017\346\275"
  62      7BD7D95C 
  62      14BD819D 
  62      0FE6BD
  63 0047 79332B48 		.ascii	"y3+H\320\242u\370m\202h\303\026.\201\021\020\220\354"
  63      D0A275F8 
  63      6D8268C3 
  63      162E8111 
  63      1090EC
  64 005a 251CF60E 		.ascii	"%\034\366\016\270I\240TH\007\351\236-Hv\350N\353\353"
  64      B849A054 
  64      4807E99E 
  64      2D4876E8 
  64      4EEBEB
  65 006d 6AF251AC 		.ascii	"j\362Q\254^U:\327_\306@\331V\010\332\345\014\255:\010"
  65      5E553AD7 
  65      5FC640D9 
  65      5608DAE5 
  65      0CAD3A08 
  66 0081 2C6A31AD 		.ascii	",j1\255(\213\347\361r\236]jcRe\225~H\3559\311\371OJ"
  66      288BE7F1 
  66      729E5D6A 
  66      63526595 
  66      7E48ED39 
  67 0099 408FA2AC 		.ascii	"@\217\242\254\214\031?\275\317\246X\221@\002^\263\246"
  67      8C193FBD 
  67      CFA65891 
  67      40025EB3 
  67      A6
ARM GAS  /tmp/cc4zuTcv.s 			page 5


  68 00aa F2C6175A 		.ascii	"\362\306\027Z\347\355\244\021g\3537\236\017\221\003"
  68      E7EDA411 
  68      67EB379E 
  68      0F9103
  69 00b9 8B91533A 		.ascii	"\213\221S:\177+>\327\366q\017\227\"\210.=h\266\036O"
  69      7F2B3ED7 
  69      F6710F97 
  69      22882E3D 
  69      68B61E4F 
  70 00cd 68D22D05 		.ascii	"h\322-\005\347\226nX\335\215\000\273\305R\255\0354\007"
  70      E7966E58 
  70      DD8D00BB 
  70      C552AD1D 
  70      3407
  71 00df 04F87BC9 		.ascii	"\004\370{\311\300~\214|\241\254E4\264:\257\224\225\362"
  71      C07E8C7C 
  71      A1AC4534 
  71      B43AAF94 
  71      95F2
  72 00f1 77FC1CD4 		.ascii	"w\374\034\324\267\024\233\257{\236\277\035\253@\355"
  72      B7149BAF 
  72      7B9EBF1D 
  72      AB40ED
  73 0100 F4FCE391 		.ascii	"\364\374\343\221\177r\352\253\243\360\360lx\340\207"
  73      7F72EAAB 
  73      A3F0F06C 
  73      78E087
  74 010f 71328ABC 		.ascii	"q2\212\274\230\276\001\235ZJ\353"
  74      98BE019D 
  74      5A4AEB
  75              		.text
  76              		.section	.gnu.lto_thread.f55de9ca8885b0e9,"",%progbits
  77 0000 789C6362 		.ascii	"x\234cb`b@\007\"@|\037\210\345A\034f\006F\240\012F&"
  77      60624007 
  77      22407C1F 
  77      88E5411C 
  77      660646A0 
  78 0017 46462087 		.ascii	"FF \207\221\241\236\211\261>\222\021\254l=\323\201\007"
  78      91A19E89 
  78      B13E9211 
  78      AC6C3DD3 
  78      8107
  79 0029 FFFFAFFB 		.ascii	"\377\377\257\373\266\360Q\007\243 P>\027,\314\312\320"
  79      B6F05107 
  79      A320503E 
  79      172CCCCA 
  79      D0
  80 003a D2D03041 		.ascii	"\322\3200A\201\201!\031\314\015\001\223\241 3\230\317"
  80      81812119 
  80      CC0D0193 
  80      A1203398 
  80      CF
  81 004b 33B43EF8 		.ascii	"3\264>\370k\221\310\270\220\221\025(V\315\360\253\241"
  81      6B91C8B8 
  81      90911528 
  81      56CDF0AB 
  81      A1
ARM GAS  /tmp/cc4zuTcv.s 			page 6


  82 005c A3412093 		.ascii	"\243A \223\021\250\022b`:#c\004c&#\243#C&H=P\371\202"
  82      11A81262 
  82      603A2363 
  82      04632623 
  82      A3234326 
  83 0075 3AC2AA9D 		.ascii	":\302\252\235\020\252\353\011\253v\206\250\276\310\320"
  83      10AAEB09 
  83      AB7686A8 
  83      BEC8D0
  84 0084 F8A04319 		.ascii	"\370\240C\031\246\034\002B@JA\241!\253\247\247\357\234"
  84      A61C0242 
  84      404A41A1 
  84      21ABA7A7 
  84      EF9C
  85 0096 919994E9 		.ascii	"\221\231\224\351\037\254_\222Z\\\242_T\002\246s\213"
  85      1FAC5F92 
  85      5A5CA25F 
  85      5402A673 
  85      8B
  86 00a7 D3F59219 		.ascii	"\323\365\222\031\000:g9\015"
  86      003A6739 
  86      0D
  87              		.text
  88              		.section	.gnu.lto_msg1_execute.f55de9ca8885b0e9,"",%progbits
  89 0000 789CB594 		.ascii	"x\234\265\224\313kSA\024\306\317\271\367\346\235&\255"
  89      CB6B5341 
  89      14C6CFB9 
  89      F7E69D26 
  89      AD
  90 0011 5ADB5A5B 		.ascii	"Z\333Z[K](\212\355\312\265\217\376\001\012\266\240\313"
  90      4B5D288A 
  90      EDCAB58F 
  90      FE010AB6 
  90      A0CB
  91 0023 7A95388B 		.ascii	"z\2258\213\202\330\354\\t\322\244\245\330*\301\007}"
  91      82D8EC5C 
  91      74D2A4A5 
  91      D82AC107 
  91      7D
  92 0034 630B2AD5 		.ascii	"c\013*\325F\353cS\021! \204\210\224*\270,\030,\272\321"
  92      46EB6353 
  92      11212084 
  92      88942AB8 
  92      2C182CBA 
  93 0049 856B15AF 		.ascii	"\205k\025\257\347\334g\320\220\006\301\201\314\314="
  93      E7DC67D0 
  93      9006C181 
  93      CCCC3D
  94 0058 73BE2FBF 		.ascii	"s\276/\2773w\346*\240\300\237m?\375\014?\300A~\360\001"
  94      3377E62A 
  94      A0C09F6D 
  94      3FFD0C3F 
  94      C0417EF0 
  95 006d 52062A8A 		.ascii	"R\006*\212\012 \025\215:ME\032PC\244e\204!E\325p\350"
  95      0A20158D 
  95      3A4D451A 
  95      5043A465 
ARM GAS  /tmp/cc4zuTcv.s 			page 7


  95      842145D5 
  96 0083 0C3F40A4 		.ascii	"\014?@\244\023\026\245\274^\272\373\271\250M\337\314"
  96      1316A5BC 
  96      5EBAFBB9 
  96      A84DDFCC 
  97 0093 6716E44F 		.ascii	"g\026\344O\303@\024\274\250#\234\246\031v\230\003;\225"
  97      C34014BC 
  97      A8239CA6 
  97      19769803 
  97      3B95
  98 00a5 374B2827 		.ascii	"7K('\013\023\341ljL\032\306\220@\265F\321\215O'\213"
  98      0B13E16C 
  98      6A4C1AC6 
  98      9040B546 
  98      D18D4F27 
  99 00ba 3293378C 		.ascii	"2\2237\214#\265k\236.\311\220I\247\012\256\346\177i"
  99      23B56B9E 
  99      2EC99049 
  99      A70AAEE6 
  99      7F69
 100 00cc F22F476F 		.ascii	"\362/Go5])\311\254\374E\033!\320\347\311\202\226\014"
 100      355D29C9 
 100      ACFC451B 
 100      21D0E7C9 
 100      82960C
 101 00df 2BCADE17 		.ascii	"+\312\336\027\306\303\217\245\275\017\265\2126\376E"
 101      C6C38FA5 
 101      BD0FB58A 
 101      36FE45
 102 00ee F4A1F07C 		.ascii	"\364\241\360|\021\345\250L}3\214\270@\177\215\262\311"
 102      11E5A84C 
 102      7D338CB8 
 102      407F8DB2 
 102      C9
 103 00ff C2B516B9 		.ascii	"\302\265\026\2710\354\324\245)\320\201\265\354H6?]\230"
 103      30ECD4A5 
 103      29D081B5 
 103      EC48363F 
 103      5D98
 104 0111 28570614 		.ascii	"(W\006\024\330\273\225rE\311\227\014#\367d\341\343*"
 104      D8BB9572 
 104      45C9970C 
 104      23F764E1 
 104      E32A
 105 0123 36D423D0 		.ascii	"6\324#\320yR\250SU\3564\3524\037w~\350\307\007\330\011"
 105      7952A853 
 105      55EE34EA 
 105      341F777E 
 105      E8C707D8 
 106 0138 011A7334 		.ascii	"\001\032s4\006)\350\013\331\301\260\035\214p0j\007\353"
 106      0629E80B 
 106      D9C1B01D 
 106      8C70306A 
 106      07EB
 107 014a EC608C83 		.ascii	"\354`\214\203q0\313\247\023\237!\316\016+\303Z77\205"
 107      7130CBA7 
 107      139F21CE 
ARM GAS  /tmp/cc4zuTcv.s 			page 8


 107      0E2BC35A 
 107      373785
 108 015d 5AAFD9F7 		.ascii	"Z\257\331\367\361\215P\327`xc\225\316y?>\242\315N \036"
 108      F18D50D7 
 108      60786395 
 108      CE793F3E 
 108      A2CD4E20 
 109 0172 829CAC17 		.ascii	"\202\234\254\027\030\234\205\231T\226g\241\313\360]"
 109      189C8599 
 109      549667A1 
 109      CBF05D
 110 0181 4EF12C3C 		.ascii	"N\361,<`\012\271\26608\263HY\205\353\220\316\217\253"
 110      600AB9B6 
 110      3038B348 
 110      5985EB90 
 110      CE8FAB
 111 0194 8E95C2C2 		.ascii	"\216\225\302\3021\026Fu\264\366_`\035\300\032\244\307"
 111      31164675 
 111      B4F65F60 
 111      1DC01AA4 
 111      C7
 112 01a5 D2F71427 		.ascii	"\322\367\024'M\245L6R\321r(\315l\266:k\232k\021\323"
 112      4DA54C36 
 112      52D17228 
 112      CD6CB63A 
 112      6B9A6B11 
 113 01ba 51B12DE2 		.ascii	"Q\261-\342\2346%\347\236\335q=|n^\275\316\227\207\032"
 113      9C3625E7 
 113      9EDD713D 
 113      7C6E5EBD 
 113      CE97871A 
 114 01ce 95C2AE0D 		.ascii	"\225\302\256\015E\205\377\203\327\203\002\267\351hW"
 114      4585FF83 
 114      D78302B7 
 114      E96857
 115 01dd CAE602B7 		.ascii	"\312\346\002\2673\315\360\353\267\001+\310\265S;Lo\201"
 115      33CDF0EB 
 115      B7012BC8 
 115      B5533B4C 
 115      6F81
 116 01ef CB976CB8 		.ascii	"\313\227l\270\303\265n\0340\253`\327\306\012\345'\330"
 116      C3B56E1C 
 116      30AB60D7 
 116      C60AE527 
 116      D8
 117 0200 95F9675F 		.ascii	"\225\371g_\241\303\345/\347\367\225\363gJs\233nZ\300"
 117      A1C3E52F 
 117      E7F795F3 
 117      674A739B 
 117      6E5AC0
 118 0213 4DDBA99B 		.ascii	"M\333\251\233/\217\335\374\002\2338s\2444\277i\363\001"
 118      2F8FDDFC 
 118      029B3873 
 118      A434BF69 
 118      F301
 119 0225 B889CD3A 		.ascii	"\270\211\315:\006\234D2\020\330b\226\362%\375c\342\200"
 119      069C4432 
ARM GAS  /tmp/cc4zuTcv.s 			page 9


 119      10D86296 
 119      F225FD63 
 119      E280
 120 0237 631B4C70 		.ascii	"c\033Lp\316:h\177\251w\351t/,5\355J\253\305}\333\343"
 120      CE3A687F 
 120      A977E974 
 120      2F2C35ED 
 120      4AABC57D 
 121 024d 0E55E15E 		.ascii	"\016U\341^\362\270\303\225\270C.\367\375\352\334!2\360"
 121      F2B8C395 
 121      B8432EF7 
 121      FDEADC21 
 121      32F0
 122 025f B897AFBA 		.ascii	"\270\227\257\272\334\221\004\237\257-\270#.\367\262"
 122      DC91049F 
 122      AF2DB823 
 122      2EF7B2
 123 026e C71DADC2 		.ascii	"\307\035\255\302\235\363\270\353*qG]\356\207\325\271"
 123      9DF3B8EB 
 123      2A71475D 
 123      EE87D5B9 
 124 027e A364E071 		.ascii	"\243d\340q\277\360\270c\011>\336[p\307l\356\221\322"
 124      BFF0B863 
 124      093EDE5B 
 124      70C76CEE 
 124      91D2
 125 0290 8AEE08E3 		.ascii	"\212\356\010\343n\342n\035C\356\331j@\323\241Y`[;\354"
 125      6EE26E1D 
 125      43EED96A 
 125      40D3A159 
 125      605B3BEC 
 126 02a4 9B975347 		.ascii	"\233\227SG\005\266\203m.p\017@\0212_\335\252\342\254"
 126      05B6836D 
 126      2E700F40 
 126      11325FDD 
 126      AAE2AC
 127 02b7 F1977F71 		.ascii	"\361\227\177qz\371.\250}\374\231W\337@\212\020\316\361"
 127      7AF92EA8 
 127      7DFC9957 
 127      DF408A10 
 127      CEF1
 128 02c9 2D7A07E8 		.ascii	"-z\007\350\020:yt\260\371z\265uuu\367\\\020g\305\211"
 128      103A7974 
 128      B0F97AB5 
 128      757575F7 
 128      5C1067C5 
 129 02de 53DDC9F3 		.ascii	"S\335\311\363\203\311\356KIs\034\030Lt\351\240$/\252"
 129      83C9EE4B 
 129      49731C18 
 129      4C74E9A0 
 129      242FAA
 130 02f1 34D38E1D 		.ascii	"4\323\216\035\357\201\337\251\001\232\250"
 130      EF81DFA9 
 130      019AA8
 131              		.text
 132              		.section	.gnu.lto_.symbol_nodes.f55de9ca8885b0e9,"",%progbits
 133 0000 789C4DCC 		.ascii	"x\234M\314KR\0021\024\205\341sn:\240(\260\004\327F\225"
ARM GAS  /tmp/cc4zuTcv.s 			page 10


 133      4B520231 
 133      1485E173 
 133      6E3AA028 
 133      B004D746 
 134 0015 FBB814A9 		.ascii	"\373\270\024\251\262\265\2310a\003\364:t\322sG\316\345"
 134      B2B59930 
 134      6103F43A 
 134      74D27347 
 134      CEE5
 135 0027 317502BE 		.ascii	"1u\002\276A-\363\350\"d\362\325\237\223\212@pM\244#"
 135      412DF3E8 
 135      2264F2D5 
 135      9F938A40 
 135      704DA423 
 136 003b F75460F6 		.ascii	"\367T`\366\010\250\316oG\366\327\017\012y\2402\337\312"
 136      08A8CE6F 
 136      47F6D70F 
 136      0A79A032 
 136      DFCA
 137 004d 33554E72 		.ascii	"3UNrK5m>\335\215dG-r\332\017\322\177a\277(\2017\232"
 137      4B356D3E 
 137      DD8D6447 
 137      2D72DA0F 
 137      D27F61BF 
 138 0065 AEE79585 		.ascii	"\256\347\225\205\207\357T\233\236\216\307\344\017\265"
 138      87EF549B 
 138      9E8EC7E4 
 138      0FB5
 139 0073 93EB40ED 		.ascii	"\223\353@\355\346\332S\317r}S\317s}R{\3072\002L\226"
 139      E6DA53CF 
 139      727D53CF 
 139      737D527B 
 139      C732024C 
 140 0088 7F34450F 		.ascii	"\1774E\017\256\265nm\202V\260\210\002\353\350\020n\025"
 140      AEB56E6D 
 140      8256B088 
 140      02EBE810 
 140      6E15
 141 009a 1CA0891A 		.ascii	"\034\240\211\032\254\243}\270\233\227+c/\321D\007\330"
 141      ACA37DB8 
 141      9B972B63 
 141      2FD14407 
 141      D8
 142 00ab 440D2665 		.ascii	"D\015&e\260\217\272L\373\246L\273\253\322\276\250\322"
 142      B08FBA4C 
 142      FBA64CBB 
 142      ABD2BEA8 
 142      D2
 143 00bc DE546977 		.ascii	"\336Tiw\323\340\005j/\376\001r\212m\223"
 143      D3E0056A 
 143      2FFE0172 
 143      8A6D93
 144              		.text
 145              		.section	.gnu.lto_.refs.f55de9ca8885b0e9,"",%progbits
 146 0000 789C6362 		.ascii	"x\234cb`b\020e\200\000F bfe`cbadg\344`\342d\344dbe\000"
 146      60621065 
 146      80004620 
ARM GAS  /tmp/cc4zuTcv.s 			page 11


 146      62666560 
 146      63626164 
 147 001e 00056100 		.ascii	"\000\005a\000]"
 147      5D
 148              		.text
 149              		.section	.gnu.lto_.decls.f55de9ca8885b0e9,"",%progbits
 150 0000 789CBD5B 		.ascii	"x\234\275[yp\024\327\231\357\356\031if\220\220\260c"
 150      797014D7 
 150      99EFEE19 
 150      69669090 
 150      B063
 151 0012 5CC421F1 		.ascii	"\\\304!\3618k;\251$ \300\030\210\253b\330e\253\314n"
 151      386B3BA9 
 151      2420C018 
 151      88AB62D8 
 151      65ABCC6E 
 152 0026 9537A978 		.ascii	"\2257\251xS\353?\266j\322\214\032i\026\315\341\236\026"
 152      53EB3FB6 
 152      6AD28C1A 
 152      6916CDE1 
 152      9E16
 153 0038 8278B7DC 		.ascii	"\202x\267\334\032\016\011\003\262\302).#\016\021c\016"
 153      1A0E0903 
 153      B2C2292E 
 153      230E1163 
 153      0E
 154 0049 2361C018 		.ascii	"#a\300\030c\032o\270o\2609\004\010\201\001\037\211\011"
 154      631A6FB8 
 154      6FB03904 
 154      0881011F 
 154      8909
 155 005b 32C86073 		.ascii	"2\310`s(\337\373\372\230\356\236\356\231na\247\253\336"
 155      28DFFBFA 
 155      98EE9EEE 
 155      996E61A7 
 155      ABDE
 156 006d EB37DDEF 		.ascii	"\3537\335\357\375\336w\277\253\207\241\030\352\277\031"
 156      FDDE77BF 
 156      AB87A118 
 156      EABF19
 157 007c 8AEA826B 		.ascii	"\212\352\202k\323\010\212z\310OQ\371\024E=K\245\257"
 157      D3088A7A 
 157      C84F51F9 
 157      14453D4B 
 157      A5AF
 158 008e 02484B21 		.ascii	"\002HK!\375\236\246\250RHc!\361\220\306Az\031\322$H"
 158      FD9EA6A8 
 158      52486321 
 158      F190C641 
 158      7A19D224 
 159 00a3 B5906640 		.ascii	"\265\220f@z\015R\036\324}\035\356\267!\001<\345\205"
 159      7A0D521E 
 159      D47D1DEE 
 159      B721013C 
 159      E585
 160 00b5 F4084319 		.ascii	"\364\010C\031.\202G\372Y\016\251\010R!\244\225P\177"
 160      2E8247FA 
ARM GAS  /tmp/cc4zuTcv.s 			page 12


 160      590EA908 
 160      5221A495 
 160      507F
 161 00c7 09A47F62 		.ascii	"\011\244\177b\260\031\325\004\345M\220h\245>\243\340"
 161      B019D504 
 161      E54D9068 
 161      A53EA3E0 
 162 00d7 3E6EC222 		.ascii	">n\302\"t\371\340\276^\207Ep\237\200z\313\340\276\202"
 162      74F9E0BE 
 162      5E874570 
 162      9F807ACB 
 162      E0BE82
 163 00ea 9231DE52 		.ascii	"\2221\336R0H\375\245\312\263'MX\245\012\026\255\303"
 163      3048FDA5 
 163      CAB3274D 
 163      58A50A16 
 163      ADC3
 164 00fc EA419ED1 		.ascii	"\352A\236\3212\316r\005#\037~\377H\241\215\264\361\300"
 164      32CE7205 
 164      231F7EFF 
 164      48A18DB4 
 164      F1C0
 165 010e FD27F0A2 		.ascii	"\375'\360\242\034\312\375L\230c\225\367\375\031\031"
 165      1CCAFD4C 
 165      986395F7 
 165      FD1919
 166 011d AB8A969F 		.ascii	"\253\212\226\2373\312\273q\012N\2346\266#2\016\302}"
 166      33CABB71 
 166      0A4E9C36 
 166      B623320E 
 166      C27D
 167 012f B88E169F 		.ascii	"\270\216\026\237B\303EH\377G\313xw!\335\201TBd\015\317"
 167      42C34548 
 167      FF47CB78 
 167      7721DD81 
 167      5442640D 
 168 0144 07C09DA5 		.ascii	"\007\300\235\245\323\374\017dd\235,\204g\365\244/\370"
 168      D3FC0F64 
 168      649D2C84 
 168      67F5A42F 
 168      F8
 169 0155 3D08D253 		.ascii	"=\010\322S\2208\370=\030\356S\341\3764\334'\303}\010"
 169      9038F83D 
 169      18EE53E1 
 169      FE34DC27 
 169      C37D08
 170 0168 DC87421A 		.ascii	"\334\207B\032\006\351\177\025\232z(\364\250\262{M\261"
 170      06E97F15 
 170      9A7A28F4 
 170      A8B27B4D 
 170      B1
 171 0179 83198A4D 		.ascii	"\203\031\212M\324*v\360\262\302\253\252\373gL\262x\224"
 171      D42A76F0 
 171      B2C2ABAA 
 171      FB674CB2 
 171      7894
 172 018b 7A5D948E 		.ascii	"z]\224\216\264\357\334\274\3273_\224&\211`v\"\035|\230"
ARM GAS  /tmp/cc4zuTcv.s 			page 13


 172      B4EFDCBC 
 172      D7335F94 
 172      26896076 
 172      221D7C98 
 173 019f 9A23C2D5 		.ascii	"\232#\302\3258E\024i\241\200zU\024S\344\307\250=E\017"
 173      38451469 
 173      A1807A55 
 173      1453E4C7 
 173      A83D450F 
 174 01b3 527F246F 		.ascii	"R\177$o\202{@\000/\322,]\024\240\032\275X*\014P\377"
 174      827B4000 
 174      2FD22C5D 
 174      14A01ABD 
 174      582A0C50 
 175 01c8 4A944CAD 		.ascii	"J\224L\255\020\305\372\366\346\273\307=\242\350g\351"
 175      10C5FAF6 
 175      E6BBC73D 
 175      A2E867E9 
 176 01d8 15F483D0 		.ascii	"\025\364\203\320\357\257i\352g\324*hX\017P\375Mr\305"
 176      EFAF69EA 
 176      67D42A68 
 176      580F50FD 
 176      4D72C5
 177 01eb 2B273043 		.ascii	"+'0C\205h\020\343\033\200\307\322\177\242\177&\367$"
 177      856810E3 
 177      1B80C7D2 
 177      7FA27F26 
 177      F724
 178 01fd B66FA8D9 		.ascii	"\266o\250\3319\221\256\006B\345w\224\362\326\342z\214"
 178      3991AE06 
 178      42E57794 
 178      F2D6E27A 
 178      8C
 179 020e 6A84DEA5 		.ascii	"j\204\336\245yu\213\277/6~\000\365\227\323\005\000;"
 179      79758BBF 
 179      2F367E00 
 179      F597D305 
 179      003B
 180 0220 9D567195 		.ascii	"\235Vq\225~\203j\267DyJQ\276\224\012F\274\005\207\012"
 180      7E836AB7 
 180      44794A51 
 180      BE940A46 
 180      BC05870A 
 181 0234 EB59156C 		.ascii	"\353Y\025l\226k\260\240\001l\311\241EH\\\200\252M\013"
 181      966BB0A0 
 181      016CC9A1 
 181      45485C80 
 181      AA4D0B
 182 0247 9DB20453 		.ascii	"\235\262\004S$\335\371\352\237\217\322\023\221\377\365"
 182      24DDF9EA 
 182      9F8FD213 
 182      91FFF5
 183 0256 D08CA18E 		.ascii	"\320\214\241\216\"\011i\0318\207\272^\267s\007\235B"
 183      22096919 
 183      3887BA5E 
 183      B773079D 
 183      42
ARM GAS  /tmp/cc4zuTcv.s 			page 14


 184 0267 A80D0875 		.ascii	"\250\015\010u\220\351.\324\271\271\357\375\022\365\277"
 184      90E92ED4 
 184      B9B9EFFD 
 184      12F5BF
 185 0276 0981CE78 		.ascii	"\011\201\316x\214@,\355\323\304\250\375V+\0204|\255"
 185      8C402CED 
 185      D3C4A8FD 
 185      562B1034 
 185      7CAD
 186 0288 14482C2C 		.ascii	"\024H,,\246\276\343\352\014u\305\343@u~;;\020\333[j"
 186      A6BEE3EA 
 186      0C75C5E3 
 186      40757E3B 
 186      3B10DB5B 
 187 029d 0EA00F79 		.ascii	"\016\240\017y\024Sn\314\267\223\021C}\201}m5\333\362"
 187      14536ECC 
 187      B7931143 
 187      7D817D6D 
 187      35DBF2
 188 02b0 99F30752 		.ascii	"\231\363\007R\212-oud\313\033\367\315Cs\311\351\243"
 188      8A2D6F75 
 188      64CB1BF7 
 188      CD4373C9 
 188      E9A3
 189 02c2 8CDAFFE3 		.ascii	"\214\332\377\343\330\377b/\351_\312\360\245\217?\035"
 189      D8FF622F 
 189      E95FCAF0 
 189      A58F3F1D 
 190 02d2 DE208ABD 		.ascii	"\336 \212\275\344W\271\273?zlvf\367,\375l\357l\246q"
 190      E457B9BB 
 190      3F7A6C76 
 190      66F72CFD 
 190      6CEF6CA6 
 191 02e7 E6FC950E 		.ascii	"\346\374\225\016\205\311?\243\317|\3445\033\307\360"
 191      85C93FA3 
 191      CF7CE435 
 191      1BC7F0
 192 02f6 02A3FAE0 		.ascii	"\002\243\372\340\267\256\002C\265i\344w\313e\201\317"
 192      B7AE0243 
 192      B569E477 
 192      CB6581CF 
 193 0306 3DFFBEAA 		.ascii	"=\377\276\252E\024\247\346\2534\\p\215\0304H\342\303"
 193      4514A7E6 
 193      AB345C70 
 193      8D183448 
 193      E2C3
 194 0318 63180464 		.ascii	"c\030\004d\260KN\300l-)%\235\320\203}\342\032\314H\331"
 194      B04B4EC0 
 194      6C2D2925 
 194      9DD0837D 
 194      E21ACC48 
 195 032d 293DD8E7 		.ascii	")=\330\347N\300z\331S\326\252\007\373\3025\230\221\262"
 195      4EC07AD9 
 195      53D6AA07 
 195      FBC23598 
 195      91B2
 196 033f B37AB06B 		.ascii	"\263z\260kN\300\372\330S\326\246\007\273\341\032\314"
ARM GAS  /tmp/cc4zuTcv.s 			page 15


 196      4EC0FAD8 
 196      53D6A607 
 196      BBE11ACC 
 197 034f 48D9353D 		.ascii	"H\3315=\330-'`A\013\312\264\313\252\0351\353\355\264"
 197      D82D2760 
 197      410BCAB4 
 197      CBAA1D31 
 197      EBEDB4
 198 0362 66E70C75 		.ascii	"f\347\014u\333\253\206\004\2276M\2451\272\274nC\230"
 198      DBAB8604 
 198      97364DA5 
 198      31BABC6E 
 198      4398
 199 0374 816F184B 		.ascii	"\201o\030K\017.\247gM\024\367\014P\307\263\311y\016"
 199      0F2EA767 
 199      4D14F70C 
 199      50C7B3C9 
 199      790E
 200 0386 10B318CC 		.ascii	"\020\263\030\314&\375\3408\3035\230Q-\037\0220C\254"
 200      26FDE038 
 200      C3359851 
 200      2D1F1230 
 200      43AC
 201 0398 5106A4F6 		.ascii	"Q\006\244\366&\251OC:\332\371U,2\321\220C\033\314;\030"
 201      26A94F43 
 201      3ADAF955 
 201      2C32D190 
 201      431BCC3B 
 202 03ad ADB2D8A7 		.ascii	"\255\262\330\247\217u]\226\276@?\001\371E:\240Q!\227"
 202      8F755D96 
 202      BE403F01 
 202      F9453AA0 
 202      512197
 203 03c0 D552174D 		.ascii	"\325R\027M\344<'\317j\012\203\000\331\233\332Y\302y"
 203      E43C27CF 
 203      6A0A8300 
 203      D99BDA59 
 203      C279
 204 03d2 BD252C70 		.ascii	"\275%,p\"\246,\256p\315NL\322\024\261\226\256n\356\253"
 204      22A62CAE 
 204      70CD4E4C 
 204      D214B196 
 204      AE6EEEAB 
 205 03e6 B51BA1B7 		.ascii	"\265\033\241\267\011-<_]\252L\002>\301\261{i\236\345"
 205      092D3C5F 
 205      5DAA4C02 
 205      3EC1B17B 
 205      699EE5
 206 03f9 24C011D8 		.ascii	"$\300\021\330\365\272\303\352\214\342s\004[\323}\260"
 206      F5BAC3EA 
 206      8CE27304 
 206      5BD37DB0 
 207 0409 C67327FA 		.ascii	"\306s'\372\212^\226\376\002\2016\346\231\007\215\200"
 207      8A5E96FE 
 207      028136E6 
 207      99078D80 
 208 0419 69461130 		.ascii	"iF\0210\216\371\201@\272\320\245^F5~\247m\354T\177E"
ARM GAS  /tmp/cc4zuTcv.s 			page 16


 208      8EF98140 
 208      BAD0A55E 
 208      46357EA7 
 208      6DEC547F 
 209 042e AF7AC9B5 		.ascii	"\257z\311\265\352\015\036\322\336\262\273\3153O\224"
 209      EA0D1ED2 
 209      DEB2BBCD 
 209      334F94
 210 043d AA3D3A5B 		.ascii	"\252=:[\317\352\0300\177\334\367\376\257p\246\366%\312"
 210      CFEA1830 
 210      7FDCF7FE 
 210      AF70A6F6 
 210      25CA
 211 044f 75BFB582 		.ascii	"u\277\265\202\034\000]\257[\373s\004\352D\240\017\273"
 211      1C005DAF 
 211      5BFB7304 
 211      EA44A00F 
 211      BB
 212 0460 0D746EEE 		.ascii	"\015tn\356\353\303\020\350\026\002\235\315\3204m\322"
 212      EBC310E8 
 212      16029DCD 
 212      D0346DD2 
 213 0470 346DD480 		.ascii	"4m\324\200\346u\212\323}Wua\312hV\227\201\235,C\203"
 213      E6758AD3 
 213      7D577561 
 213      CA685697 
 213      819D2C43 
 214 0485 1A6F775F 		.ascii	"\032ow_\232E_O\211\015\003\\\350\353UE_wQ:W3\244\323"
 214      9A455F4F 
 214      890D035C 
 214      E8EB5545 
 214      5F77513A 
 215 049d E9523C0C 		.ascii	"\351R<\014\365\225k6\374F6j>\351\006\033\333e6R\014"
 215      F5956B36 
 215      FC46366A 
 215      3EE9061B 
 215      DB653652 
 216 04b2 61E3DEB7 		.ascii	"a\343\336\267\300\306\224|\267l\364\322\261\001\263"
 216      C0C6947C 
 216      B76CF4D2 
 216      B101B3
 217 04c1 DFDD3767 		.ascii	"\337\3357g\313\243\337\367\250\231\331g\360\204\236"
 217      CBA3DFF7 
 217      A899D967 
 217      F0849E
 218 04d0 1AE67B86 		.ascii	"\032\346{\206\331\263\324y\230\016\312\217s\315\234"
 218      D9B3D479 
 218      980ECA8F 
 218      73CD9C
 219 04df 4569D631 		.ascii	"Ei\3261\335:Ot\264\316\333\247\255\363^E\221\315\310"
 219      DD3A4F74 
 219      B4CEDBA7 
 219      ADF35E45 
 219      91CDC8
 220 04f2 B7703027 		.ascii	"\267p0'P\215\327\017\365&\201t\006\302\314\352.L\373"
 220      508DD70F 
 220      F5268174 
ARM GAS  /tmp/cc4zuTcv.s 			page 17


 220      06C2CCEA 
 220      2E4CFB
 221 0505 B9139B65 		.ascii	"\271\023\233e?\255G\240\205\371f\025\346\2334\230o\324"
 221      3FAD47A0 
 221      85F96615 
 221      E69B3498 
 221      6FD4
 222 0517 20FC243D 		.ascii	" \374$=\335\302\000\371\212\362\204\374\360Q\377\360"
 222      DDC200F9 
 222      8AF284FC 
 222      F051FFF0 
 223 0527 760CD584 		.ascii	"v\014\325\204\344\023\355\271\234\177\251\326Ss`\266"
 223      E413EDB9 
 223      9C7FA9D6 
 223      537360B6 
 224 0537 3A779215 		.ascii	":w\222\025\264\346\276\020S\322\366\231\352F\305p2{"
 224      B4E6BE10 
 224      53D2F699 
 224      EA46C570 
 224      327B
 225 0549 DA789F70 		.ascii	"\332x\237p8\3356L\013L\313\266\0256\303\216\272\245"
 225      38DD364C 
 225      0B4CCBB6 
 225      1536C38E 
 225      BAA5
 226 055b D33CFD17 		.ascii	"\323<\375\027\250\356\005\014!\347\275\014u/\247M\313"
 226      A8EE050C 
 226      21E7BD0C 
 226      752FA74D 
 226      CB
 227 056c 36F24057 		.ascii	"6\362@W\305\316\221\3463\272\021\360\360\375\252a\367"
 227      C5CE91E6 
 227      33BA11F0 
 227      F0FDAA61 
 227      F7
 228 057d 39931A3E 		.ascii	"9\223\032>\272O\271\315\237\265\330\321\032\373\367"
 228      BA4FB9CD 
 228      9FB5D8D1 
 228      1AFBF7
 229 058c 2A562132 		.ascii	"*V!2r\016\273]\306\230\226\330\033o\266OQfD\344]\356"
 229      720EBB5D 
 229      C69896D8 
 229      1B6FB64F 
 229      516644E4 
 230 05a2 4871E672 		.ascii	"Hq\346r@\234Yh\321\237\325|\253y\351\214\177C\035\255"
 230      409C5968 
 230      D19FD57C 
 230      AB79E98C 
 230      7F431DAD 
 231 05b6 64C8B6DB 		.ascii	"d\310\266\333t\237QG\352\316\304\010;\030\206Z\204M"
 231      749F5147 
 231      EACEC408 
 231      3B18865A 
 231      844D
 232 05c8 5699C986 		.ascii	"V\231\311\206\330\250\356L\254r@vJ\352\230\246\337e"
 232      D8A8EE4C 
 232      AC724076 
ARM GAS  /tmp/cc4zuTcv.s 			page 18


 232      4AEA98A6 
 232      DF65
 233 05da 63E93534 		.ascii	"c\35154\243\340vO\013_\356\327\026\022,\275\3165X\320"
 233      A3E0764F 
 233      0B5FEED7 
 233      16122CBD 
 233      CE3558D0 
 234 05ee 8A54D54E 		.ascii	"\212T\325N\323\334\262\364j\206,\000\3260\217A\276\026"
 234      D3DCB2F4 
 234      6A862C00 
 234      D6308F41 
 234      BE16
 235 0600 72ED62A8 		.ascii	"r\355b\250\265>U\243V\242\313m\232\033o\336\232+\233"
 235      B53E55A3 
 235      56A2CB6D 
 235      9A1B6FDE 
 235      9A2B9B
 236 0613 A69BA8BF 		.ascii	"\246\233\250\277K\333\335Ck\336\3503\273\035\011\343"
 236      4BDBDD43 
 236      6BDEE833 
 236      BB1D09E3 
 237 0623 06765C85 		.ascii	"\006v\\\205\275\255f\246r.\031\315\227\235[/\325\273"
 237      BDAD66A6 
 237      722E19CD 
 237      979D5B2F 
 237      D5BB
 238 0635 F50EDF7D 		.ascii	"\365\016\337}9!\330\337\325\025\262\354r\271\241H\253"
 238      3921D8DF 
 238      D515B2EC 
 238      72B9A148 
 238      AB
 239 0646 70BDB0E7 		.ascii	"p\275\260\347=\330\363f\263A\037\277\267\247F1\350\315"
 239      3DD8F366 
 239      B3411FBF 
 239      B7A74631 
 239      E8CD
 240 0658 8EFCB013 		.ascii	"\216\374\260\023\375P\365\254\353\032jwl!%}\375\331"
 240      FD50F5AC 
 240      EB1A6A77 
 240      6C21257D 
 240      FDD9
 241 066a 5E1AE1E4 		.ascii	"^\032\341\344\225\361m3\234S-(pw8\267\202\221\355K:"
 241      95F16D33 
 241      9C532D28 
 241      707738B7 
 241      8291ED4B 
 242 067f 7D99CC59 		.ascii	"}\231\314Y$\344i\242\337lZ\262dt\246\265Y\347)[\320"
 242      24E469A2 
 242      DF6C5AB2 
 242      6474A6B5 
 242      59E7295B 
 243 0694 53DE454F 		.ascii	"S\336EOy\017\363\367\365\376bg\026\333\365f1\315\357"
 243      790FF3F7 
 243      F5FE6267 
 243      16DBF566 
 243      31CDEF
 244 06a7 96EFA043 		.ascii	"\226\357\240C\353\333\244\357f\246\377\376\254\257e"
ARM GAS  /tmp/cc4zuTcv.s 			page 19


 244      EBDBA4EF 
 244      66A6FFFE 
 244      ACAF65
 245 06b6 F7575EDC 		.ascii	"\367W^\334\332u\261-\277o\247\352\270\273\320q\347g"
 245      DA75B12D 
 245      BF6FA7EA 
 245      B8BBD071 
 245      E767
 246 06c8 48778379 		.ascii	"Hw\203y\206\353d\227\272\251\273\254h\027LL\374\016"
 246      86EB6497 
 246      BAA9BBAC 
 246      68174C4C 
 246      FC0E
 247 06da 5699410B 		.ascii	"V\231A\013\251kS\235{\312\030\233s\253[\035\227.O\037"
 247      A96B539D 
 247      7BCA189B 
 247      73AB5B1D 
 247      972E4F1F 
 248 06ee 85E3D201 		.ascii	"\205\343\322\001\264\264\365~\353q)\313\216\371vlr8"
 248      B4B4F57E 
 248      EB7129CB 
 248      8EF9766C 
 248      7238
 249 0700 635CAAB9 		.ascii	"c\\\252\271\241\216K\207\035\215K\307-\307\245\303\356"
 249      A18E4B87 
 249      1D8D4BC7 
 249      2DC7A5C3 
 249      EE
 250 0711 C725AB4B 		.ascii	"\307%\253KO K\037E\0079f\034D\016;\221\375O\355LQ\224"
 250      4F204B1F 
 250      45073966 
 250      1C440E3B 
 250      91FD4FED 
 251 0728 E69C5844 		.ascii	"\346\234XD\313\364\313\201\350\264\031\317*\020\031"
 251      CBF4CB81 
 251      E8B419CF 
 251      2A1019
 252 0737 F0F4BA4C 		.ascii	"\360\364\272LI\353O\340\270*\333\350%'\304\015\260\007"
 252      49EB4FE0 
 252      B82ADBE8 
 252      2527C40D 
 252      B007
 253 0749 DB3E5715 		.ascii	"\333>W\025\356&\234#\376\315\011\3360;fS\322\311\023"
 253      EE269C23 
 253      FECD09DE 
 253      303B6653 
 253      D2C913
 254 075c 8B143CF9 		.ascii	"\213\024<\371h\353k\327xF\372:\347\032f\324\223\002"
 254      68EB6BD7 
 254      7846FA3A 
 254      E71A66D4 
 254      9302
 255 076e 0EE04638 		.ascii	"\016\340F8\326}\372h\222\245\337\304}\304\3254N#0\177"
 255      D67DFA68 
 255      92A5DFC4 
 255      7DC4D534 
 255      4E23307F 
ARM GAS  /tmp/cc4zuTcv.s 			page 20


 256 0782 0BF37731 		.ascii	"\013\363w1o\305\374,\346m\230_\306\274\003\363;\230"
 256      6FC5FC2C 
 256      E66D985F 
 256      C6BC03F3 
 256      3B98
 257 0794 5763489D 		.ascii	"WcH\235\202\371~\314?\304\374\004\346\2470o\305\374"
 257      82F97ECC 
 257      3FC4FC04 
 257      E6A7306F 
 257      C5FC
 258 07a6 AC93B0EB 		.ascii	"\254\223\260\353p.\276\214~X)\375\316\243\232\354\364"
 258      702EBE8C 
 258      7E5829FD 
 258      CEA39AEC 
 258      F4
 259 07b7 80D15B29 		.ascii	"\200\321[)\352I\252\211\204E<5\236-y\325\251?\214\371"
 259      EA49AA89 
 259      84453C35 
 259      9E2D79D5 
 259      A93F8CF9 
 260 07cb F4A336D0 		.ascii	"\364\2436\320\370"
 260      F8
 261 07d0 BA8D311C 		.ascii	"\272\2151\034?\313\207\317\322\315\375\344\020+%uum"
 261      3FCB87CF 
 261      D2CDFDE4 
 261      102B2575 
 261      756D
 262 07e2 978294E1 		.ascii	"\227\202\224\341\354YV\274\035\261\027\230Lb\027\330"
 262      EC5956BC 
 262      1DB11798 
 262      4C6217D8 
 263 07f2 102BB6BC 		.ascii	"\020+\266\274!\006d8\322\240\235\311J\350E+B\333\267"
 263      21066438 
 263      D2A09DC9 
 263      4AE8452B 
 263      42DBB7
 264 0805 ACDED177 		.ascii	"\254\336\321w-96\022\357u\275R\235\242M\244\222\345"
 264      2D393612 
 264      EF75BD52 
 264      9DA24DA4 
 264      92E5
 265 0817 861DA997 		.ascii	"\206\035\251\227\025R=\370\225\201\246\017\225n$\375"
 265      15523DF8 
 265      9581A60F 
 265      956E24FD 
 266 0827 9089F4C7 		.ascii	"\220\211\364\307\251\345\2428Sl\346F\251\323\204\223"
 266      A9E5A238 
 266      536CE646 
 266      A9D38493 
 267 0837 58E3920D 		.ascii	"X\343\222\015\355\332\012\0149\026\3053\227~3J\246\212"
 267      EDDA0A0C 
 267      3916C533 
 267      977E334A 
 267      A68A
 268 0849 CAD24A21 		.ascii	"\312\322J!\360\023K\216;\327\235\256\241\377\010\221"
 268      F0134B8E 
 268      3BD79DAE 
ARM GAS  /tmp/cc4zuTcv.s 			page 21


 268      A1FF0891 
 269 0859 5EBC06E3 		.ascii	"^\274\006\343O/\023\3036\347|\004\356\257f~\207g\260"
 269      4F2F13C3 
 269      36E77C04 
 269      EEAF667E 
 269      8767B0
 270 086c 7BCB9A5D 		.ascii	"{\313\232]\220o@\361\317.\254\361\027[v\207\353\271"
 270      906F40F1 
 270      CF2EACF1 
 270      175B7687 
 270      EBB9
 271 087e 15DF103D 		.ascii	"\025\337\020=H\022\245\264\321],}\325\322\362\346\354"
 271      4812A5B4 
 271      D15D2C7D 
 271      D5D2F2E6 
 271      EC
 272 088f AA532D6F 		.ascii	"\252S-o\204\331\360\2620w\335\302\356\252{X\332\235"
 272      84D9F0B2 
 272      3077DDC2 
 272      EEAA7B58 
 272      DA9D
 273 08a1 89AE2FCD 		.ascii	"\211\256/\315t\335\310\244\253\275\036\014\355\302<"
 273      74DDC8A4 
 273      ABBD1E0C 
 273      EDC23C
 274 08b0 107BA32C 		.ascii	"\020{\243,v3e\331\354\354\246\225\235i?d[0+\242.\203"
 274      763365D9 
 274      ECECA695 
 274      9D693F64 
 274      5B302BA2 
 275 08c6 74B9D237 		.ascii	"t\271\3227\226\264u\264\234\376AC\2138\011\235\300\350"
 275      96B475B4 
 275      9CFE4143 
 275      8B38099D 
 275      C0E8
 276 08d8 027EAA06 		.ascii	"\002~\252\006w\377&\213\325\364KYv\377\3604\206\245"
 276      77FF268B 
 276      D5F44B59 
 276      76FFF034 
 276      86A5
 277 08ea EF327EE8 		.ascii	"\3572~\350}C\017\333\263\024R\201\\\244\275\\VKY\366"
 277      7D430FDB 
 277      B3145281 
 277      5CA4BD5C 
 277      564B59F6 
 278 08fe D3EF9825 		.ascii	"\323\357\230%\220\027P\313\246\375\216\213YBK\312S`"
 278      901750CB 
 278      A6FD8E8B 
 278      59424BCA 
 278      5360
 279 0910 20C520B0 		.ascii	" \305 \260-6\002\233\350\261\020\230tm\327t\221\256"
 279      2D36029B 
 279      E8B11098 
 279      746DD774 
 279      91AE
 280 0922 AF6EEFEA 		.ascii	"\257n\357\352z\324\271\211M\366\230\270\270\210\333"
 280      7AD4B989 
ARM GAS  /tmp/cc4zuTcv.s 			page 22


 280      4DF698B8 
 280      B888DB
 281 0931 9F06320E 		.ascii	"\237\0062\016\333\220QcEF\373;\253;|\363\305\017\310"
 281      DB905163 
 281      4546FB3B 
 281      AB3B7CF3 
 281      C50FC8
 282 0944 273EAFB8 		.ascii	"'>\257\270\260\365\251fB\034\030\324y\033\302\246[\312"
 282      B0F5A966 
 282      421C18D4 
 282      791BC2A6 
 282      5BCA
 283 0956 E7F6D77B 		.ascii	"\347\366\327{\350\332\231\342\235\256.\2172\0001\324"
 283      E8DA99E2 
 283      9DAE2E8F 
 283      320031D4 
 284 0966 5F6D10EA 		.ascii	"_m\020\352,YkZ\371\031m\307\032!\327\216\267z3o\303"
 284      2C596B5A 
 284      F9196DC7 
 284      1A21D78E 
 284      B77A336F 
 285 097b 35D65C7C 		.ascii	"5\326\\|\351\262\371\3023o\3417\023\263<8G)0\317\363"
 285      E9B2F9C2 
 285      336FE137 
 285      13B33C38 
 285      472930CF 
 286 0990 F34CD3FC 		.ascii	"\363L\323\374<\3434?/\220.\244\277]\321h\222G,\033\023"
 286      3CE3343F 
 286      2F902EA4 
 286      BF5DD168 
 286      92472C1B 
 287 09a5 2661360B 		.ascii	"&a6\013m\223\027>D6z\033<$\232\212\205F\302\034B\021"
 287      6D93173E 
 287      44367A1B 
 287      3C249A8A 
 287      8546C21C 
 288 09bb 1A167A0A 		.ascii	"\032\026z\012,\324a\367N/\316L\343\250-\264V\355b\243"
 288      2CD461F7 
 288      4E2FCE4C 
 288      E3A82DB4 
 288      56ED62A3 
 289 09cf 6A7F4C2D 		.ascii	"j\177L-%\252\335\260\373`\2375)qR3\250\264\213\356\032"
 289      25AADDB0 
 289      FB609F35 
 289      29715233 
 289      A8B48BEE 
 290 09e4 AEAE6B6B 		.ascii	"\256\256kk?N\207\000\261\267J\357\021\206\322m\205\275"
 290      3F4E8700 
 290      B1B74AEF 
 290      1186D26D 
 290      85BD
 291 09f6 F60C2E39 		.ascii	"\366\014.9\226x\310<y\201\251[\007@\014\265\022\033"
 291      9678C83C 
 291      7981A95B 
 291      07400CB5 
 291      121B
 292 0a08 2DF3642C 		.ascii	"-\363d,:v\251{\007\344]\356\275\203\3466y\322n\261*"
ARM GAS  /tmp/cc4zuTcv.s 			page 23


 292      3A76A97B 
 292      07E45DEE 
 292      BD83E636 
 292      79D26EB1 
 293 0a1d 6FD756E5 		.ascii	"o\327V\345}u\264o\233\361\254\274\215\207\264\257\267"
 293      7D75B46F 
 293      9BF1ACBC 
 293      8D87B4AF 
 293      B7
 294 0a2e A1DD1686 		.ascii	"\241\335\026\206\241\266a\223U\231\224\1774E\335\306"
 294      A1B66193 
 294      5599947F 
 294      3445DDC6 
 295 0a3e 7344F9C9 		.ascii	"sD\371\311V\343rc\277\206\333\275}\217S\255\270\334"
 295      56E37263 
 295      BF86DBBD 
 295      7D8F53AD 
 295      B8DC
 296 0a50 90A7F3C7 		.ascii	"\220\247\363\307\315`\256v=D\351\254\014\266\025?1l"
 296      CD60AE76 
 296      3D44E9AC 
 296      0CB6153F 
 296      316C
 297 0a62 750D1634 		.ascii	"u\015\0264Pv}\201\361\263\300v'xY\276|\270\321\252\373"
 297      50767D81 
 297      F1B3C076 
 297      277859BE 
 297      7CB8D1AA 
 298 0a77 F2E153D7 		.ascii	"\362\341S\327`F\342\276\321\203]s\002f\365}\200\325"
 298      6046E2BE 
 298      D1835D73 
 298      0266F57D 
 298      80D5
 299 0a89 A5371258 		.ascii	"\2457\022X\260xp\367\323C\226\025\3530_\217y\013\346"
 299      B07870F7 
 299      D3439615 
 299      EB305F8F 
 299      790BE6
 300 0a9c 6F63BEC9 		.ascii	"oc\276\311cX\320~\243\371\210\245)\3462\011Q\332b\357"
 300      6358D07E 
 300      A3F988A5 
 300      29E63209 
 300      51DA62EF 
 301 0ab0 1C565B56 		.ascii	"\034V[V\355\315[\352^D\347x\027\235C\354\231\3239\314"
 301      EDCD5BEA 
 301      5E44E778 
 301      179D43EC 
 301      99D339CC 
 302 0ac4 5B8273B1 		.ascii	"[\202s\261\311\266\014\347\330}o\262\342\034\333\034"
 302      C9B60CE7 
 302      D87D6FB2 
 302      E21CDB1C 
 303 0ad4 38474ABA 		.ascii	"8GJ\272;\317\331\311@\243\326\377C:6\232\352\344\255"
 303      3BCFD9C9 
 303      40A3D6FF 
 303      433A369A 
 303      EAE4AD
ARM GAS  /tmp/cc4zuTcv.s 			page 24


 304 0ae7 FA0F908D 		.ascii	"\372\017\220\215\265\271\3310\302\200\217c\223\235\231"
 304      B5B9D930 
 304      C2808F63 
 304      939D99
 305 0af6 6C5C55D9 		.ascii	"l\\U\331\330\351\210\215m\363T\313\337\201\003\305!"
 305      D8E9888D 
 305      6DF354CB 
 305      DF8103C5 
 305      21
 306 0b07 0DD7E596 		.ascii	"\015\327\345\226\210\202\367\376I4V\031\354\204k0\243"
 306      8882F7FE 
 306      49345619 
 306      EC846B30 
 306      A3
 307 0b18 E51F3DE9 		.ascii	"\345\037=\351\366\203\330\346\265\307\031\024\354A\034"
 307      F683D8E6 
 307      B5C71914 
 307      EC411C
 308 0b27 8FDB7A9A 		.ascii	"\217\333z\232\307\343n\355\273}\352\204\017\373\035"
 308      C7E36EED 
 308      BB7DEA84 
 308      0FFB1D
 309 0b36 5AD0CA8D 		.ascii	"Z\320\312\2159\026\033\3309\207\360\346\216\031?En\216"
 309      39161BD8 
 309      3987F0E6 
 309      8E193F45 
 309      6E8E
 310 0b48 A1383B32 		.ascii	"\2418;2\270Y\3501\235\272\231\006d\360P\327\244\007"
 310      B859E831 
 310      9DBA9906 
 310      64F050D7 
 310      A407
 311 0b5a 4DA47736 		.ascii	"M\244w6\251Gj\270.K\0259\000\264\012\215V\227\336\202"
 311      A9476AB8 
 311      2E4B1539 
 311      00B40A8D 
 311      5697DE82 
 312 0b6e 597A3706 		.ascii	"Yz7\006\240=\030h\366a~\000\363\243\230\237\320\207"
 312      A03D1868 
 312      F6617E00 
 312      F3A3989F 
 312      D087
 313 0b80 1EBBC9CA 		.ascii	"\036\273\311\312\216\264@Xz\257\207Q\\\275{\266\\\337"
 313      8EB44058 
 313      7AAF8751 
 313      5CBD7BB6 
 313      5CDF
 314 0b92 AAD9324B 		.ascii	"\252\3312K\357w\015f\264\3459\255\352v\0261M\226>\342"
 314      EF770D66 
 314      B4E539AD 
 314      EA761631 
 314      4D963EE2 
 315 0ba6 042FCBAE 		.ascii	"\004/\313\256\377\3332q\262\235O-\242]\202\005\263)"
 315      FFDB3271 
 315      B29D4F2D 
 315      A25D8205 
 315      B329
ARM GAS  /tmp/cc4zuTcv.s 			page 25


 316 0bb8 659B4E29 		.ascii	"e\233N)\333Q)\022\252\340\024\346\2471o5\216\004s\212"
 316      DB512912 
 316      AAE014E6 
 316      A7316F35 
 316      8E04738A 
 317 0bcc 4C238131 		.ascii	"L#\2011\356Z\015Lz\371\300\202\274\015\370q\274\245"
 317      EE5A0D4C 
 317      7AF9C082 
 317      BC0DF871 
 317      BCA5
 318 0bde FC459DBC 		.ascii	"\374E\235\274\245\334\206\361sQ\221\353-\345\325\330"
 318      A5DC86F1 
 318      735191EB 
 318      2DE5D5D8 
 319 0bee E442E61C 		.ascii	"\344B\346\034\351\212:G\272\220;~N\232(mY\2702=\014"
 319      E98A3A47 
 319      BA903B7E 
 319      4E9A286D 
 319      59B8323D 
 320 0c03 4CD41CBB 		.ascii	"L\324\034\273=\313\362\322\360\275\337V\215\016\227"
 320      3DCBF2D2 
 320      F0BDDF56 
 320      8D0E97
 321 0c12 366AADB9 		.ascii	"6j\255\271\013:\315}\214\232\273d\324\323N\263\236r"
 321      0B3ACD7D 
 321      8C9ABB64 
 321      D4D34EB3 
 321      9E72
 322 0c24 6E411BD5 		.ascii	"nA\033\325t\272M\235\023\312\177\356\330k\306k4\374"
 322      74BA4D9D 
 322      13CA7FEE 
 322      D86BC66B 
 322      34FC
 323 0c36 7143291A 		.ascii	"qC)\032\266\215)\003\340\227n\364~\372\253\317\206\242"
 323      B68D2903 
 323      E0976EF4 
 323      7EFAABCF 
 323      86A2
 324 0c48 DEFF827A 		.ascii	"\336\377\202z\357t\253w\334\0152\351\\\352\340\202\362"
 324      EF74AB77 
 324      DC0D32E9 
 324      5CEAE082 
 324      F2
 325 0c59 D3DCA3E5 		.ascii	"\323\334\243\345\327\227\361\344\316\315I\320{\362\227"
 325      D797F1E4 
 325      CECD49D0 
 325      7BF297
 326 0c68 4E1DE8A7 		.ascii	"N\035\350\247S\212\277\225\361\250\016a\256~[FsUg4\177"
 326      538ABF95 
 326      F1A80E61 
 326      AE7E5B46 
 326      73556734 
 327 0c7d 43A3B966 		.ascii	"C\243\271fr\356b\007F\223\2605\032\030D\256\014\255"
 327      72EE6207 
 327      4693B035 
 327      1A1844AE 
 327      0CAD
ARM GAS  /tmp/cc4zuTcv.s 			page 26


 328 0c8f 16A58601 		.ascii	"\026\245\206\001\017P\365\352\302K\376\302T\251.\365"
 328      0F50F5EA 
 328      C24BFEC2 
 328      54A92EF5 
 329 0c9f 54514ED1 		.ascii	"TQN\321\012Q7=\017`\311p\\\216U\354\024{\313\223\376"
 329      0A51373D 
 329      0F60C970 
 329      5C8E55EC 
 329      147BCB93 
 330 0cb4 FAB63090 		.ascii	"\372\2660\220.<\242\361\321`\346\303\324\257R\036\357"
 330      2E3CA2F1 
 330      D160E6C3 
 330      D4AF521E 
 330      EF
 331 0cc5 5872CB74 		.ascii	"Xr\313t\222[\201\222k\302\340\270\005\363s\230\177\212"
 331      925B8192 
 331      6BC2E0B8 
 331      05F37398 
 331      7F8A
 332 0cd7 F9E7987F 		.ascii	"\371\347\230\177e\224\353\2374sP\203\246q\021\212\033"
 332      6594EB9F 
 332      34735083 
 332      A671118A 
 332      1B
 333 0ce8 71E9A531 		.ascii	"q\351\2451Y\026\257'\233p{\373\275\223\"\233p\342-X"
 333      5916AF27 
 333      9B707BFB 
 333      BD93229B 
 333      70E22D58 
 334 0cfc 167B54A1 		.ascii	"\026{T\241\352\276\351\221\262\375\025#\363O\025\352"
 334      EABEE991 
 334      B2FD1523 
 334      F34F15EA 
 335 0d0c 954632FC 		.ascii	"\225F2\374\015\203\245\357)\312\310\274\030\352M\223"
 335      0D83A5EF 
 335      29CAC8BC 
 335      18EA4D93 
 336 0d1c 4D93FA5D 		.ascii	"M\223\372]F\242\033\353\245%\323\346\320\342\322\224"
 336      46A21BEB 
 336      A525D3E6 
 336      D0E2D294 
 337 0d2c 28DEEBEA 		.ascii	"(\336\353\352\242\365\375\350\366h\214s\\\202S\355u"
 337      A2F5FDE8 
 337      F6688C73 
 337      5C8253ED 
 337      75
 338 0d3d 6B0429AF 		.ascii	"k\004)\257\265\021x5z\327\232\205\236\331\355D\257Q"
 338      B5117835 
 338      7AD79A85 
 338      9ED9ED44 
 338      AF51
 339 0d4f E6527BE7 		.ascii	"\346R{\347\272\216\276\007Sd\367\337 s\3621\215A\350"
 339      BA8EBE07 
 339      5364F7DF 
 339      2073F231 
 339      8D41E8
 340 0d62 6A048211 		.ascii	"j\004\202\021$\313\032d#\220\220s\251\302\322\265^2"
ARM GAS  /tmp/cc4zuTcv.s 			page 27


 340      24CB1A64 
 340      23909073 
 340      A9C2D2B5 
 340      5E32
 341 0d74 4598EA35 		.ascii	"E\230\3525\215Q\035-\247\325\035\010\362\316A\324\272"
 341      8D511D2D 
 341      A7D51D08 
 341      F2CE41D4 
 341      BA
 342 0d85 BB47FEDE 		.ascii	"\273G\376\336\340<.!\337G\001\220\246\335\233\026\335"
 342      E03C2E21 
 342      DF470190 
 342      A6DD9B16 
 342      DD
 343 0d96 FE0CE14C 		.ascii	"\376\014\341LS\331\353Y\266\220\352\274\272\021\357"
 343      53D9EB59 
 343      B690EABC 
 343      BA11EF
 344 0da5 FF5D771F 		.ascii	"\377]w\0374tO>w\220!a\364q\202\225e\022uO\207u\3145"
 344      34744F3E 
 344      77902161 
 344      F4718295 
 344      6512754F 
 345 0dbd 56D0246E 		.ascii	"V\320$nU\017,=\315K\274}\006\346\365\230\317\364\346"
 345      550F2C3D 
 345      CD4BBC7D 
 345      06E6F598 
 345      CFF4E6
 346 0dd0 9CBD9A04 		.ascii	"\234\275\232\004ZcC\011\301\237\355-0\365\255\324\034"
 346      5A634309 
 346      C19FED2D 
 346      30F5ADD4 
 346      1C
 347 0de1 61245467 		.ascii	"a$Tg\246r#\353j,=\307\265\243\315\265q4\375\206~\272"
 347      A67223EB 
 347      6A2C3DC7 
 347      B5A3CDB5 
 347      7134FD86 
 348 0df7 16D9A331 		.ascii	"\026\331\2431\373]\006\021\363\024\267\033Lm\020k%\030"
 348      FB5D0611 
 348      F314B71B 
 348      4C6D106B 
 348      2518
 349 0e09 94270355 		.ascii	"\224'\003U\232\336^\246\276\021\033D\360\304\035?\364"
 349      9ADE5EA6 
 349      BE111B44 
 349      F0C41D3F 
 349      F4
 350 0e1a C8CC10DF 		.ascii	"\310\314\020\337\274vD\352\234\262\030\246$Jh\221\345"
 350      BC7644EA 
 350      9CB218A6 
 350      244A6891 
 350      E5
 351 0e2b C6509733 		.ascii	"\306P\2273B\253\301\271p\255d\350n\204\334R\326\235"
 351      42ABC1B9 
 351      70AD64E8 
 351      6E84DC52 
ARM GAS  /tmp/cc4zuTcv.s 			page 28


 351      D69D
 352 0e3d DC977473 		.ascii	"\334\227ts\227qy\257\306\255\006\343\001\302x\025\271"
 352      977179AF 
 352      C6AD06E3 
 352      01C27815 
 352      B9
 353 0e4e 58415EE2 		.ascii	"XA^\342Z\232\2156\322,\312j1,\375z\332\020~D]-^,6\214"
 353      5A9A8D36 
 353      D22CCA6A 
 353      312CFD7A 
 353      DA107E44 
 354 0e68 48772F5B 		.ascii	"Hw/[ i!;\240l\213\372\3373\025^kE\351N\276\374\330x"
 354      2069213B 
 354      A06C8BFA 
 354      DF33155E 
 354      6B45E94E 
 355 0e80 4EA5F42B 		.ascii	"N\245\364+\313N\265:\223\241.\261\231\027\340\201A\232"
 355      CB4EB53A 
 355      93A12EB1 
 355      9917E081 
 355      419A
 356 0e92 BE20B584 		.ascii	"\276 \265\204D\257\246w\003)\257v&F\316\214\265\313"
 356      44AFA677 
 356      0329AF76 
 356      2646CE8C 
 356      B5CB
 357 0ea4 844B4E03 		.ascii	"\204KN\003\354p\233\314\270\322\235i\"\303h\270\355"
 357      EC709BCC 
 357      B8D29D69 
 357      22C368B8 
 357      ED
 358 0eb5 FAB33662 		.ascii	"\372\2636b'G\310\011\356\321\276\263\304T\2038I\002"
 358      2747C809 
 358      EED1BEB3 
 358      C4548338 
 358      4902
 359 0ec7 437954AF 		.ascii	"CyT\257L\335t}\224\332U@\357Af\225\233j\261\364*\327"
 359      4CDD747D 
 359      94DA5540 
 359      EF416695 
 359      9B6AB1F4 
 360 0edd 2A7FD346 		.ascii	"*\177\323F\345~\203\003\275\231v\240{\305\246\003`\023"
 360      E57E8303 
 360      BD9976A0 
 360      7BC5A603 
 360      6013
 361 0eef 110C55D3 		.ascii	"\021\014U\323K\235=\221s5E0\013w\213\301\240&\230K\214"
 361      4B9D3D91 
 361      73354530 
 361      0B778BC1 
 361      A026984B 
 362 0f04 BDC06F66 		.ascii	"\275\300of\011\341\353\322\0027\265\272\343y\300\266"
 362      09E1EBD2 
 362      0237B5BA 
 362      E379C0B6 
 363 0f14 D55BB6AD 		.ascii	"\325[\266\255.d\351k\275m+rhc\327\252\331\266U\265\327"
 363      2E64E96B 
ARM GAS  /tmp/cc4zuTcv.s 			page 29


 363      BD6D2B72 
 363      6863D7AA 
 363      D9B655B5 
 364 0f29 9EC216DB 		.ascii	"\236\302\026\333V\227\263P\270\301\266\325\324,\024"
 364      5697B350 
 364      B8C1B6D5 
 364      D42C14
 365 0f38 BE6DDB6A 		.ascii	"\276m\333jr\226V\033\355%\237\205\302M6\255\264\021"
 365      7296561B 
 365      ED259F85 
 365      C24D36AD 
 365      B411
 366 0f4a A121C721 		.ascii	"\241!\307!\350;\256\015z\213\215A\253\007@v\3556g\304"
 366      E83BAE0D 
 366      7A8B8D41 
 366      AB074076 
 366      ED3667C4 
 367 0f5e 881BEB76 		.ascii	"\210\033\353v\374@\234\344\26799\177\242\177\377\222"
 367      FC409CE4 
 367      B739397F 
 367      A27FFF92 
 368 0f6e 91E591D1 		.ascii	"\221\345\221\321\221_\277P\022O\226\360BI$\026\256\250"
 368      915FBF50 
 368      124F96F0 
 368      42492416 
 368      AEA8
 369 0f80 2CE54AC2 		.ascii	",\345J\302\345B9\317\261\245\311\376\345\324\223Yj%"
 369      E54239CF 
 369      B1A5C9FE 
 369      E5D49359 
 369      6A25
 370 0f92 27248509 		.ascii	"'$\205\011\011\216T\363\313-BB\376s"
 370      098E54F3 
 370      CB2D4242 
 370      FE73
 371 0fa0 FFF1BBE0 		.ascii	"\377\361\273\340H*\020.\017\311\217~\234\015 \\^\012"
 371      482A102E 
 371      0FC98F7E 
 371      9C0D205C 
 371      5E0A
 372 0fb2 8DF313A1 		.ascii	"\215\363\023\241\0307^\200[\202\347\306\015\311h\220"
 372      18375E80 
 372      5B82E7C6 
 372      0DC96890 
 373 0fc2 88F342B2 		.ascii	"\210\363B\262\344\237\177\373\374\310\347\307\227\204"
 373      E49F7FFB 
 373      FCC8E7C7 
 373      9784
 374 0fd0 E3D144A4 		.ascii	"\343\321D\244\202\343\223%\317\215\034IHU(\360\011\011"
 374      82E39325 
 374      CF8D1C49 
 374      485528F0 
 374      0909
 375 0fe2 3E120F41 		.ascii	">\022\017A\305\330\030LO\227\224\307\243\\\011\317%"
 375      C5D8184C 
 375      4F9794C7 
 375      A35C09CF 
ARM GAS  /tmp/cc4zuTcv.s 			page 30


 375      25
 376 0ff3 39960F97 		.ascii	"9\226\017\227\227\224\263|i\025\313s%"
 376      9794B37C 
 376      6915CB73 
 376      25
 377 1000 2C1F1D54 		.ascii	",\037\035TR\026\016\367\203B?.:\232+-\345J\265\007\261"
 377      52160EF7 
 377      83423F2E 
 377      3A9A2B2D 
 377      E54AB507 
 378 1015 788CEBC7 		.ascii	"x\214\353\307\261\243#\375\006\207\206\365\0334`\340"
 378      B1A323FD 
 378      068786F5 
 378      1B3460E0 
 379 1025 E0970695 		.ascii	"\340\227\006\225\030^h\014$\205\322HL \334W\302\375"
 379      185E680C 
 379      2485D248 
 379      4C20DC57 
 379      C2FD
 380 1037 A9412161 		.ascii	"\251A!a\"\375\217\353=\312\206\313#1\256$T\312\215a"
 380      22FD8FEB 
 380      3DCA86CB 
 380      2331AE24 
 380      54CA8D61 
 381 104b 2B2B8490 		.ascii	"++\204\220*\211\036\241\220J\017\2124\022\367\205\343"
 381      2A891EA1 
 381      904A0F8A 
 381      3412F785 
 381      E3
 382 105c 310124FC 		.ascii	"1\001$\374\223\034\242-\017\307y\016\020\012\310\343"
 382      931CA22D 
 382      0FC7790E 
 382      100AC8E3 
 383 106c 10608485 		.ascii	"\020`\204\205\361?w\322&4nh\224\310\201\347\312\200"
 383      F13F77D2 
 383      26346E68 
 383      94C881E7 
 383      CA80
 384 107e D890C0F0 		.ascii	"\330\220\300\360\203\031\376i\206\037\302\360C\031~"
 384      8319FE69 
 384      861FC2F0 
 384      43197E
 385 108d 18C3FFD2 		.ascii	"\030\303\377\322\303\017\034\000i S\301\303\355\251"
 385      C30F1C00 
 385      692053C1 
 385      C3EDA9
 386 109c BC4408B0 		.ascii	"\274D\010\260}D\361U\034\017\367xE)\307{\303 &b\015"
 386      7D44F155 
 386      1C0FF778 
 386      4529C77B 
 386      C3202662 
 387 10b1 6C94EB91 		.ascii	"l\224\353\221\024\306\262\025\221\262XH@\361\016\031"
 387      14C6B215 
 387      91B25848 
 387      40F10E19 
 388 10c1 1C1214CE 		.ascii	"\034\022\024\316\260\230\010A\205\212H4\"\370\205\244"
 388      B0980841 
ARM GAS  /tmp/cc4zuTcv.s 			page 31


 388      858A4834 
 388      22F885A4 
 389 10d1 C00A5C48 		.ascii	"\300\012\\H\360\221\227\303BB@\256\006%\037\251\005"
 389      F09197C3 
 389      424240AE 
 389      06251FA9 
 389      05
 390 10e2 EF7C4234 		.ascii	"\357|B4^\312\341\3571\025lY\322'\360\334\230$\312\207"
 390      5ECAE1EF 
 390      31156C59 
 390      D227F0DC 
 390      9824CA87 
 391 10f6 14F2A2C9 		.ascii	"\024\362\242\3112x\251\010\015\232\253\342\343K'\300"
 391      3278A908 
 391      0D9AABE2 
 391      E34B27C0 
 392 1106 2B3F373E 		.ascii	"+?7>\"\204\001 \277J\210\217\376\237\304\203\212\261"
 392      22840120 
 392      BF4A888F 
 392      FE9FC483 
 392      8AB1
 393 1118 43538EE7 		.ascii	"CS\216\347ba\000\316\253\022\004>\341Kr1\001\032\024"
 393      626100CE 
 393      AB12043E 
 393      E14B7231 
 393      011A14
 394 112b 82F527B9 		.ascii	"\202\365'\271(\233(\007\331<\226\315\0018\"\266b\305"
 394      289B2807 
 394      D93C96CD 
 394      013822B6 
 394      62C5
 395 113d DD422F55 		.ascii	"\335B/Ur\225\000\326Ks\036\345\221O\271\347\205c\240"
 395      729500D6 
 395      4B731EE5 
 395      914FB9E7 
 395      8563A0
 396 1150 E6BC6408 		.ascii	"\346\274d\010\356@\013\264N\370\241n\264\022\224\233"
 396      EE400BB4 
 396      4EF8A16E 
 396      B412949B 
 397 1160 AD9BA830 		.ascii	"\255\233\2500\236xHTA\213\206\342U1\220:\266\003.\243"
 397      9E784854 
 397      418B86E2 
 397      5531903A 
 397      B6032EA3 
 398 1174 B2FB5509 		.ascii	"\262\373U\011P/Q\300\215#L\260\311\261\360\206\253\""
 398      502F51C0 
 398      8D234CB0 
 398      C9B1F086 
 398      AB22
 399 1186 054F2254 		.ascii	"\005O\"TY\244\022T\021I\002\015\305:\022\311\223@\""
 399      59A41254 
 399      1149020D 
 399      C53A12C9 
 399      934022
 400 1199 54C54684 		.ascii	"T\305F\204H\254\014\024\003\022\300\216\240\310%\270"
 400      48AC0C14 
ARM GAS  /tmp/cc4zuTcv.s 			page 32


 400      0312C08E 
 400      A0C825B8 
 401 11a9 18384919 		.ascii	"\0308I\031\274\007pR\263\007\0219[\201f\011\017\023"
 401      BC077052 
 401      B3071139 
 401      5B816609 
 401      0F13
 402 11bb F17845CF 		.ascii	"\361xE\317p\371\177\226\227>\307\011/p\025c^|@\375\365"
 402      70F97F96 
 402      973EC709 
 402      2F701563 
 402      5E7C40FD 
 403 11d0 1BA8C247 		.ascii	"\033\250\302G\204\011/fe-YF\014/\\\376|\262\014\332"
 403      84092F66 
 403      652D5946 
 403      0C2F5CFE 
 403      7CB20CDA 
 404 11e4 3042E287 		.ascii	"0B\342\207\272\332\002\227\024H}r'5\303T\276L5\235("
 404      BADA0297 
 404      14487D72 
 404      2735C354 
 404      BE4C359D 
 405 11f9 84DF0343 		.ascii	"\204\337\003C\334x.\014R\010`\373\027\200\326GlZC'y"
 405      DC782E0C 
 405      520860FB 
 405      1780D647 
 405      6C5A4327 
 406 120e A17F0162 		.ascii	"\241\177\001b{\207\310\317\020\233Lr\340#I\0168\005"
 406      7B87C8CF 
 406      109B4C72 
 406      E023490E 
 406      3805
 407 1220 0B28C687 		.ascii	"\013(\306\207\034XcH\210\217\345b\205\010\370[\256\202"
 407      1C586348 
 407      888FE562 
 407      8508F85B 
 407      AE82
 408 1232 63930AFA 		.ascii	"c\223\012\372\177\201|\252\277\223\370P\021\031M*\230"
 408      7F817CAA 
 408      BF93F850 
 408      11194D2A 
 408      98
 409 1243 E2C4E0FE 		.ascii	"\342\304\340\376\303\372\017\326\307*\210\023$\330&"
 409      C3FA0FD6 
 409      C72A8813 
 409      24D826
 410 1252 237F209E 		.ascii	"#\177 \236 \214\251\214\205C\202,\355\221 \023\201{"
 410      208CA98C 
 410      8543822C 
 410      ED912013 
 410      817B
 411 1264 015C2512 		.ascii	"\001\\%\022. \306\013\221\235\003?\016h\345B\"\265\011"
 411      2E20C60B 
 411      919D033F 
 411      0E68E542 
 411      22B509
 412 1277 8AF64161 		.ascii	"\212\366Aa\241\364o\037/\333U>\217\301&\217G\327\346"
ARM GAS  /tmp/cc4zuTcv.s 			page 33


 412      A1F46F1F 
 412      2FDB553E 
 412      8FC1268F 
 412      47D7E6
 413 128a 15D7E665 		.ascii	"\025\327\346e\327\016\300\323J\036\274E\310\343I\243"
 413      D70EC0D3 
 413      4A1EBC45 
 413      C8E349A3 
 414 129a DEE322BC 		.ascii	"\336\343\"\274P\311V\204\204H\024\202\271\002\3740\000"
 414      50C95684 
 414      84481482 
 414      B902FC30 
 414      00
 415 12ab 5BBC2836 		.ascii	"[\274(6<\223\035\304\360\3107N@\033&w2\206\004\010\321"
 415      3C931DC4 
 415      F0C8374E 
 415      401B2677 
 415      32860408 
 416 12c0 F0026207 		.ascii	"\360\002b\007<)\345*\004\026\0122\307\244\016)\345\223"
 416      3C29E52A 
 416      04160A32 
 416      C7A40E29 
 416      E593
 417 12d2 BA2C5F00 		.ascii	"\272,_\000\267\0126)\220\352\360\210tW\244\260_\312"
 417      B70A3629 
 417      90EAF088 
 417      7457A4B0 
 417      5FCA
 418 12e4 8DAE2C93 		.ascii	"\215\256,\223m]\377$\220`c\2210\261rO\351\350\262\036"
 418      6D5DFF24 
 418      90606391 
 418      30B1724F 
 418      E9E8B21E 
 419 12f8 5116A205 		.ascii	"Q\026\242\005\032U0\333\210J\034\275\227\020\015\205"
 419      1A5530DB 
 419      884A1CBD 
 419      97100D85 
 420 1308 21A88DE6 		.ascii	"!\250\215\346A\320q\210l>^@\227\316\217\217\031\223"
 420      41D07188 
 420      6C3E5E40 
 420      97CE8F8F 
 420      1993
 421 131a 24D61B2D 		.ascii	"$\326\033-\212\224Vp\212k\201K1\341r\246\212\365)\256"
 421      8A945670 
 421      8A6B814B 
 421      31E172A6 
 421      8AF529AE 
 422 132e E6275616 		.ascii	"\346'V\026\006\213\362\222\010\231\007-*\023\360\014"
 422      068BF292 
 422      0899072D 
 422      2A13F00C 
 423 133e 4C071CDA 		.ascii	"L\007\034\332\247\330r\217\004+\010\034\037#\201K\261"
 423      A7D8728F 
 423      042B081C 
 423      1F23814B 
 423      B1
 424 134f FB81C5CF 		.ascii	"\373\201\305\317s\311$[\306%\177\021\254\210\307\023"
ARM GAS  /tmp/cc4zuTcv.s 			page 34


 424      73C9245B 
 424      C6257F11 
 424      AC88C713 
 425 135f 943F8422 		.ascii	"\224?\204\"\010\205z\252\205\376C\006\016\036\370w%"
 425      08857AAA 
 425      85FE4306 
 425      0E1EF877 
 425      25
 426 1370 C9E124   		.ascii	"\311\341$"
 427              		.text
 428              		.section	.gnu.lto_.symtab.f55de9ca8885b0e9,"",%progbits
 429 0000 70617474 		.ascii	"patternmsg\000\000\000\000\000\000\000\000\000\000\000"
 429      65726E6D 
 429      73670000 
 429      00000000 
 429      00000000 
 430 0015 00040200 		.ascii	"\000\004\002\000\000testmsg1\000\000\000\000\000\000"
 430      00746573 
 430      746D7367 
 430      31000000 
 430      000000
 431 0028 00000000 		.ascii	"\000\000\000\000\000\000\032\002\000\000ch\000\000\002"
 431      00001A02 
 431      00006368 
 431      000002
 432 0037 00000000 		.ascii	"\000\000\000\000\000\000\000\000\000\236\001\000\000"
 432      00000000 
 432      009E0100 
 432      00
 433 0044 77610000 		.ascii	"wa\000\000\002\000\000\000\000\000\000\000\000\000\373"
 433      02000000 
 433      00000000 
 433      0000FB
 434 0053 01000074 		.ascii	"\001\000\000threads\000\000\002\000\000\000\000\000"
 434      68726561 
 434      64730000 
 434      02000000 
 434      0000
 435 0065 00000000 		.ascii	"\000\000\000\000\000\002\000\000chMsgSend\000\000\002"
 435      00020000 
 435      63684D73 
 435      6753656E 
 435      64000002 
 436 0079 00000000 		.ascii	"\000\000\000\000\000\000\000\000\000v\001\000\000_t"
 436      00000000 
 436      00760100 
 436      005F74
 437 0088 6573745F 		.ascii	"est_assert_sequence\000\000\002\000\000\000\000\000"
 437      61737365 
 437      72745F73 
 437      65717565 
 437      6E636500 
 438 00a3 00000000 		.ascii	"\000\000\000\000{\001\000\000test_emit_token\000\000"
 438      7B010000 
 438      74657374 
 438      5F656D69 
 438      745F746F 
ARM GAS  /tmp/cc4zuTcv.s 			page 35


 439 00bc 02000000 		.ascii	"\002\000\000\000\000\000\000\000\000\000\204\001\000"
 439      00000000 
 439      00008401 
 439      00
 440 00c9 0063684D 		.ascii	"\000chMsgRelease\000\000\002\000\000\000\000\000\000"
 440      73675265 
 440      6C656173 
 440      65000002 
 440      00000000 
 441 00df 00000088 		.ascii	"\000\000\000\210\001\000\000chMsgWait\000\000\002\000"
 441      01000063 
 441      684D7367 
 441      57616974 
 441      00000200 
 442 00f3 00000000 		.ascii	"\000\000\000\000\000\000\000\000\215\001\000\000chT"
 442      00000000 
 442      8D010000 
 442      636854
 443 0102 68644372 		.ascii	"hdCreateStatic\000\000\002\000\000\000\000\000\000\000"
 443      65617465 
 443      53746174 
 443      69630000 
 443      02000000 
 444 011a 00008F01 		.ascii	"\000\000\217\001\000\000"
 444      0000
 445              		.text
 446              		.section	.gnu.lto_.opts,"",%progbits
 447 0000 272D6D63 		.ascii	"'-mcpu=cortex-m4' '-mno-thumb-interwork' '-mthumb' "
 447      70753D63 
 447      6F727465 
 447      782D6D34 
 447      2720272D 
 448 0033 272D6767 		.ascii	"'-ggdb' '-O0' '-fomit-frame-pointer' '-falign-funct"
 448      64622720 
 448      272D4F30 
 448      2720272D 
 448      666F6D69 
 449 0066 696F6E73 		.ascii	"ions=16' '-ffunction-sections' '-fdata-sections' '-"
 449      3D313627 
 449      20272D66 
 449      66756E63 
 449      74696F6E 
 450 0099 666E6F2D 		.ascii	"fno-common' '-flto'\000"
 450      636F6D6D 
 450      6F6E2720 
 450      272D666C 
 450      746F2700 
 451              		.text
 452              		.cfi_sections	.debug_frame
 453              		.section	.text.chThdGetSelfX,"ax",%progbits
 454              		.align	2
 455              		.p2align 4,,15
 456              		.thumb
 457              		.thumb_func
 458              		.type	chThdGetSelfX, %function
 459              	chThdGetSelfX:
 460              	.LFB189:
ARM GAS  /tmp/cc4zuTcv.s 			page 36


 461              		.file 1 "../ChibiOS/os/rt/include/chthreads.h"
 462              		.loc 1 174 0
 463              		.cfi_startproc
 464              		@ args = 0, pretend = 0, frame = 0
 465              		@ frame_needed = 0, uses_anonymous_args = 0
 466              		@ link register save eliminated.
 467              		.loc 1 176 0
 468 0000 014B     		ldr	r3, .L3
 469 0002 9B69     		ldr	r3, [r3, #24]
 470              		.loc 1 177 0
 471 0004 1846     		mov	r0, r3
 472 0006 7047     		bx	lr
 473              	.L4:
 474              		.align	2
 475              	.L3:
 476 0008 00000000 		.word	ch
 477              		.cfi_endproc
 478              	.LFE189:
 479              		.size	chThdGetSelfX, .-chThdGetSelfX
 480 000c AFF30080 		.section	.text.chThdGetPriorityX,"ax",%progbits
 481              		.align	2
 482              		.p2align 4,,15
 483              		.thumb
 484              		.thumb_func
 485              		.type	chThdGetPriorityX, %function
 486              	chThdGetPriorityX:
 487              	.LFB190:
 488              		.loc 1 187 0
 489              		.cfi_startproc
 490              		@ args = 0, pretend = 0, frame = 0
 491              		@ frame_needed = 0, uses_anonymous_args = 0
 492 0000 08B5     		push	{r3, lr}
 493              		.cfi_def_cfa_offset 8
 494              		.cfi_offset 3, -8
 495              		.cfi_offset 14, -4
 496              		.loc 1 189 0
 497 0002 FFF7FEFF 		bl	chThdGetSelfX
 498 0006 0346     		mov	r3, r0
 499 0008 9B68     		ldr	r3, [r3, #8]
 500              		.loc 1 190 0
 501 000a 1846     		mov	r0, r3
 502 000c 08BD     		pop	{r3, pc}
 503              		.cfi_endproc
 504              	.LFE190:
 505              		.size	chThdGetPriorityX, .-chThdGetPriorityX
 506 000e 00BF     		.section	.text.chMsgGet,"ax",%progbits
 507              		.align	2
 508              		.p2align 4,,15
 509              		.thumb
 510              		.thumb_func
 511              		.type	chMsgGet, %function
 512              	chMsgGet:
 513              	.LFB223:
 514              		.file 2 "../ChibiOS/os/rt/include/chmsg.h"
 515              		.loc 2 96 0
 516              		.cfi_startproc
 517              		@ args = 0, pretend = 0, frame = 8
ARM GAS  /tmp/cc4zuTcv.s 			page 37


 518              		@ frame_needed = 0, uses_anonymous_args = 0
 519              		@ link register save eliminated.
 520 0000 82B0     		sub	sp, sp, #8
 521              		.cfi_def_cfa_offset 8
 522 0002 0190     		str	r0, [sp, #4]
 523              		.loc 2 100 0
 524 0004 019B     		ldr	r3, [sp, #4]
 525 0006 5B6A     		ldr	r3, [r3, #36]
 526              		.loc 2 101 0
 527 0008 1846     		mov	r0, r3
 528 000a 02B0     		add	sp, sp, #8
 529              		@ sp needed
 530 000c 7047     		bx	lr
 531              		.cfi_endproc
 532              	.LFE223:
 533              		.size	chMsgGet, .-chMsgGet
 534 000e 00BF     		.section	.text.thread,"ax",%progbits
 535              		.align	2
 536              		.p2align 4,,15
 537              		.thumb
 538              		.thumb_func
 539              		.type	thread, %function
 540              	thread:
 541              	.LFB241:
 542              		.file 3 "../ChibiOS/test/rt/testmsg.c"
 543              		.loc 3 59 0
 544              		.cfi_startproc
 545              		@ args = 0, pretend = 0, frame = 8
 546              		@ frame_needed = 0, uses_anonymous_args = 0
 547 0000 00B5     		push	{lr}
 548              		.cfi_def_cfa_offset 4
 549              		.cfi_offset 14, -4
 550 0002 83B0     		sub	sp, sp, #12
 551              		.cfi_def_cfa_offset 16
 552 0004 0190     		str	r0, [sp, #4]
 553              		.loc 3 61 0
 554 0006 0198     		ldr	r0, [sp, #4]
 555 0008 4121     		movs	r1, #65
 556 000a FFF7FEFF 		bl	chMsgSend
 557              		.loc 3 62 0
 558 000e 0198     		ldr	r0, [sp, #4]
 559 0010 4221     		movs	r1, #66
 560 0012 FFF7FEFF 		bl	chMsgSend
 561              		.loc 3 63 0
 562 0016 0198     		ldr	r0, [sp, #4]
 563 0018 4321     		movs	r1, #67
 564 001a FFF7FEFF 		bl	chMsgSend
 565              		.loc 3 64 0
 566 001e 03B0     		add	sp, sp, #12
 567              		@ sp needed
 568 0020 5DF804FB 		ldr	pc, [sp], #4
 569              		.cfi_endproc
 570              	.LFE241:
 571              		.size	thread, .-thread
 572 0024 AFF30080 		.section	.rodata
 572      AFF30080 
 572      AFF30080 
ARM GAS  /tmp/cc4zuTcv.s 			page 38


 573              		.align	2
 574              	.LC0:
 575 0000 41424300 		.ascii	"ABC\000"
 576              		.section	.text.msg1_execute,"ax",%progbits
 577              		.align	2
 578              		.p2align 4,,15
 579              		.thumb
 580              		.thumb_func
 581              		.type	msg1_execute, %function
 582              	msg1_execute:
 583              	.LFB242:
 584              		.loc 3 66 0
 585              		.cfi_startproc
 586              		@ args = 0, pretend = 0, frame = 8
 587              		@ frame_needed = 0, uses_anonymous_args = 0
 588 0000 30B5     		push	{r4, r5, lr}
 589              		.cfi_def_cfa_offset 12
 590              		.cfi_offset 4, -12
 591              		.cfi_offset 5, -8
 592              		.cfi_offset 14, -4
 593 0002 85B0     		sub	sp, sp, #20
 594              		.cfi_def_cfa_offset 32
 595              		.loc 3 73 0
 596 0004 264B     		ldr	r3, .L12
 597 0006 1D68     		ldr	r5, [r3]
 598 0008 FFF7FEFF 		bl	chThdGetPriorityX
 599 000c 0346     		mov	r3, r0
 600 000e 5C1C     		adds	r4, r3, #1
 601              		.loc 3 74 0
 602 0010 FFF7FEFF 		bl	chThdGetSelfX
 603 0014 0346     		mov	r3, r0
 604              		.loc 3 73 0
 605 0016 0093     		str	r3, [sp]
 606 0018 2846     		mov	r0, r5
 607 001a 4FF4A471 		mov	r1, #328
 608 001e 2246     		mov	r2, r4
 609 0020 204B     		ldr	r3, .L12+4
 610 0022 FFF7FEFF 		bl	chThdCreateStatic
 611 0026 0246     		mov	r2, r0
 612 0028 1F4B     		ldr	r3, .L12+8
 613 002a 1A60     		str	r2, [r3]
 614              		.loc 3 75 0
 615 002c FFF7FEFF 		bl	chMsgWait
 616 0030 0390     		str	r0, [sp, #12]
 617              		.loc 3 76 0
 618 0032 0398     		ldr	r0, [sp, #12]
 619 0034 FFF7FEFF 		bl	chMsgGet
 620 0038 0290     		str	r0, [sp, #8]
 621              		.loc 3 77 0
 622 003a 0398     		ldr	r0, [sp, #12]
 623 003c 0299     		ldr	r1, [sp, #8]
 624 003e FFF7FEFF 		bl	chMsgRelease
 625              		.loc 3 78 0
 626 0042 029B     		ldr	r3, [sp, #8]
 627 0044 DBB2     		uxtb	r3, r3
 628 0046 1846     		mov	r0, r3
 629 0048 FFF7FEFF 		bl	test_emit_token
ARM GAS  /tmp/cc4zuTcv.s 			page 39


 630              		.loc 3 79 0
 631 004c FFF7FEFF 		bl	chMsgWait
 632 0050 0390     		str	r0, [sp, #12]
 633              		.loc 3 80 0
 634 0052 0398     		ldr	r0, [sp, #12]
 635 0054 FFF7FEFF 		bl	chMsgGet
 636 0058 0290     		str	r0, [sp, #8]
 637              		.loc 3 81 0
 638 005a 0398     		ldr	r0, [sp, #12]
 639 005c 0299     		ldr	r1, [sp, #8]
 640 005e FFF7FEFF 		bl	chMsgRelease
 641              		.loc 3 82 0
 642 0062 029B     		ldr	r3, [sp, #8]
 643 0064 DBB2     		uxtb	r3, r3
 644 0066 1846     		mov	r0, r3
 645 0068 FFF7FEFF 		bl	test_emit_token
 646              		.loc 3 83 0
 647 006c FFF7FEFF 		bl	chMsgWait
 648 0070 0390     		str	r0, [sp, #12]
 649              		.loc 3 84 0
 650 0072 0398     		ldr	r0, [sp, #12]
 651 0074 FFF7FEFF 		bl	chMsgGet
 652 0078 0290     		str	r0, [sp, #8]
 653              		.loc 3 85 0
 654 007a 0398     		ldr	r0, [sp, #12]
 655 007c 0299     		ldr	r1, [sp, #8]
 656 007e FFF7FEFF 		bl	chMsgRelease
 657              		.loc 3 86 0
 658 0082 029B     		ldr	r3, [sp, #8]
 659 0084 DBB2     		uxtb	r3, r3
 660 0086 1846     		mov	r0, r3
 661 0088 FFF7FEFF 		bl	test_emit_token
 662              		.loc 3 87 0
 663 008c 0120     		movs	r0, #1
 664 008e 0749     		ldr	r1, .L12+12
 665 0090 FFF7FEFF 		bl	_test_assert_sequence
 666 0094 0346     		mov	r3, r0
 667 0096 002B     		cmp	r3, #0
 668 0098 00D0     		beq	.L10
 669              		.loc 3 87 0 is_stmt 0 discriminator 1
 670 009a 00BF     		nop
 671              	.L10:
 672              		.loc 3 88 0 is_stmt 1
 673 009c 05B0     		add	sp, sp, #20
 674              		@ sp needed
 675 009e 30BD     		pop	{r4, r5, pc}
 676              	.L13:
 677              		.align	2
 678              	.L12:
 679 00a0 00000000 		.word	wa
 680 00a4 00000000 		.word	thread
 681 00a8 00000000 		.word	threads
 682 00ac 00000000 		.word	.LC0
 683              		.cfi_endproc
 684              	.LFE242:
 685              		.size	msg1_execute, .-msg1_execute
 686              		.global	testmsg1
ARM GAS  /tmp/cc4zuTcv.s 			page 40


 687              		.section	.rodata
 688              		.align	2
 689              	.LC1:
 690 0004 4D657373 		.ascii	"Messages, loop\000"
 690      61676573 
 690      2C206C6F 
 690      6F7000
 691 0013 00       		.section	.rodata.testmsg1,"a",%progbits
 692              		.align	2
 693              		.type	testmsg1, %object
 694              		.size	testmsg1, 16
 695              	testmsg1:
 696 0000 04000000 		.word	.LC1
 697 0004 00000000 		.word	0
 698 0008 00000000 		.word	0
 699 000c 00000000 		.word	msg1_execute
 700              		.global	patternmsg
 701              		.section	.rodata.patternmsg,"a",%progbits
 702              		.align	2
 703              		.type	patternmsg, %object
 704              		.size	patternmsg, 8
 705              	patternmsg:
 706 0000 00000000 		.word	testmsg1
 707 0004 00000000 		.word	0
 708              		.text
 709              	.Letext0:
 710              		.file 4 "/nfs/nfs5/home/research/hardware/arm2/gcc-arm-embedded/gcc-arm-none-eabi-4_8-2014q2/lib/g
 711              		.file 5 "/nfs/nfs5/home/research/hardware/arm2/gcc-arm-embedded/gcc-arm-none-eabi-4_8-2014q2/arm-n
 712              		.file 6 "/nfs/nfs5/home/research/hardware/arm2/gcc-arm-embedded/gcc-arm-none-eabi-4_8-2014q2/arm-n
 713              		.file 7 "../ChibiOS/os/rt/ports/ARMCMx/compilers/GCC/chtypes.h"
 714              		.file 8 "../ChibiOS/os/rt/include/chsystypes.h"
 715              		.file 9 "../ChibiOS/os/rt/include/chschd.h"
 716              		.file 10 "../ChibiOS/os/rt/ports/ARMCMx/chcore.h"
 717              		.file 11 "../ChibiOS/os/rt/ports/ARMCMx/chcore_v7m.h"
 718              		.file 12 "../ChibiOS/os/rt/include/chtm.h"
 719              		.file 13 "../ChibiOS/os/rt/include/chsem.h"
 720              		.file 14 "../ChibiOS/os/rt/include/chmtx.h"
 721              		.file 15 "../ChibiOS/test/rt/test.h"
 722              		.file 16 "../ChibiOS/os/ext/CMSIS/include/core_cm4.h"
 723              		.section	.debug_info,"",%progbits
 724              	.Ldebug_info0:
 725 0000 C8070000 		.4byte	0x7c8
 726 0004 0400     		.2byte	0x4
 727 0006 00000000 		.4byte	.Ldebug_abbrev0
 728 000a 04       		.byte	0x4
 729 000b 01       		.uleb128 0x1
 730 000c 50010000 		.4byte	.LASF116
 731 0010 01       		.byte	0x1
 732 0011 E5020000 		.4byte	.LASF117
 733 0015 B4040000 		.4byte	.LASF118
 734 0019 00000000 		.4byte	.Ldebug_ranges0+0
 735 001d 00000000 		.4byte	0
 736 0021 00000000 		.4byte	.Ldebug_line0
 737 0025 02       		.uleb128 0x2
 738 0026 04       		.byte	0x4
 739 0027 05       		.byte	0x5
 740 0028 696E7400 		.ascii	"int\000"
ARM GAS  /tmp/cc4zuTcv.s 			page 41


 741 002c 03       		.uleb128 0x3
 742 002d 0D000000 		.4byte	.LASF2
 743 0031 04       		.byte	0x4
 744 0032 D4       		.byte	0xd4
 745 0033 37000000 		.4byte	0x37
 746 0037 04       		.uleb128 0x4
 747 0038 04       		.byte	0x4
 748 0039 07       		.byte	0x7
 749 003a 16050000 		.4byte	.LASF0
 750 003e 04       		.uleb128 0x4
 751 003f 01       		.byte	0x1
 752 0040 06       		.byte	0x6
 753 0041 C5000000 		.4byte	.LASF1
 754 0045 03       		.uleb128 0x3
 755 0046 24000000 		.4byte	.LASF3
 756 004a 05       		.byte	0x5
 757 004b 1C       		.byte	0x1c
 758 004c 50000000 		.4byte	0x50
 759 0050 04       		.uleb128 0x4
 760 0051 01       		.byte	0x1
 761 0052 08       		.byte	0x8
 762 0053 F9030000 		.4byte	.LASF4
 763 0057 04       		.uleb128 0x4
 764 0058 02       		.byte	0x2
 765 0059 05       		.byte	0x5
 766 005a 11040000 		.4byte	.LASF5
 767 005e 04       		.uleb128 0x4
 768 005f 02       		.byte	0x2
 769 0060 07       		.byte	0x7
 770 0061 75020000 		.4byte	.LASF6
 771 0065 03       		.uleb128 0x3
 772 0066 C6020000 		.4byte	.LASF7
 773 006a 05       		.byte	0x5
 774 006b 37       		.byte	0x37
 775 006c 70000000 		.4byte	0x70
 776 0070 04       		.uleb128 0x4
 777 0071 04       		.byte	0x4
 778 0072 05       		.byte	0x5
 779 0073 F8000000 		.4byte	.LASF8
 780 0077 03       		.uleb128 0x3
 781 0078 51050000 		.4byte	.LASF9
 782 007c 05       		.byte	0x5
 783 007d 38       		.byte	0x38
 784 007e 82000000 		.4byte	0x82
 785 0082 04       		.uleb128 0x4
 786 0083 04       		.byte	0x4
 787 0084 07       		.byte	0x7
 788 0085 FF040000 		.4byte	.LASF10
 789 0089 04       		.uleb128 0x4
 790 008a 08       		.byte	0x8
 791 008b 05       		.byte	0x5
 792 008c B7000000 		.4byte	.LASF11
 793 0090 03       		.uleb128 0x3
 794 0091 A0030000 		.4byte	.LASF12
 795 0095 05       		.byte	0x5
 796 0096 4E       		.byte	0x4e
 797 0097 9B000000 		.4byte	0x9b
ARM GAS  /tmp/cc4zuTcv.s 			page 42


 798 009b 04       		.uleb128 0x4
 799 009c 08       		.byte	0x8
 800 009d 07       		.byte	0x7
 801 009e 49000000 		.4byte	.LASF13
 802 00a2 03       		.uleb128 0x3
 803 00a3 B8050000 		.4byte	.LASF14
 804 00a7 06       		.byte	0x6
 805 00a8 2A       		.byte	0x2a
 806 00a9 45000000 		.4byte	0x45
 807 00ad 03       		.uleb128 0x3
 808 00ae F1030000 		.4byte	.LASF15
 809 00b2 06       		.byte	0x6
 810 00b3 41       		.byte	0x41
 811 00b4 65000000 		.4byte	0x65
 812 00b8 03       		.uleb128 0x3
 813 00b9 83040000 		.4byte	.LASF16
 814 00bd 06       		.byte	0x6
 815 00be 42       		.byte	0x42
 816 00bf 77000000 		.4byte	0x77
 817 00c3 03       		.uleb128 0x3
 818 00c4 1B000000 		.4byte	.LASF17
 819 00c8 06       		.byte	0x6
 820 00c9 4E       		.byte	0x4e
 821 00ca 90000000 		.4byte	0x90
 822 00ce 03       		.uleb128 0x3
 823 00cf 75050000 		.4byte	.LASF18
 824 00d3 07       		.byte	0x7
 825 00d4 39       		.byte	0x39
 826 00d5 B8000000 		.4byte	0xb8
 827 00d9 03       		.uleb128 0x3
 828 00da A4020000 		.4byte	.LASF19
 829 00de 07       		.byte	0x7
 830 00df 3C       		.byte	0x3c
 831 00e0 A2000000 		.4byte	0xa2
 832 00e4 03       		.uleb128 0x3
 833 00e5 01010000 		.4byte	.LASF20
 834 00e9 07       		.byte	0x7
 835 00ea 3D       		.byte	0x3d
 836 00eb A2000000 		.4byte	0xa2
 837 00ef 03       		.uleb128 0x3
 838 00f0 AB030000 		.4byte	.LASF21
 839 00f4 07       		.byte	0x7
 840 00f5 3E       		.byte	0x3e
 841 00f6 A2000000 		.4byte	0xa2
 842 00fa 03       		.uleb128 0x3
 843 00fb D2030000 		.4byte	.LASF22
 844 00ff 07       		.byte	0x7
 845 0100 40       		.byte	0x40
 846 0101 B8000000 		.4byte	0xb8
 847 0105 03       		.uleb128 0x3
 848 0106 92020000 		.4byte	.LASF23
 849 010a 07       		.byte	0x7
 850 010b 41       		.byte	0x41
 851 010c AD000000 		.4byte	0xad
 852 0110 03       		.uleb128 0x3
 853 0111 BA020000 		.4byte	.LASF24
 854 0115 07       		.byte	0x7
ARM GAS  /tmp/cc4zuTcv.s 			page 43


 855 0116 43       		.byte	0x43
 856 0117 B8000000 		.4byte	0xb8
 857 011b 03       		.uleb128 0x3
 858 011c 4A010000 		.4byte	.LASF25
 859 0120 07       		.byte	0x7
 860 0121 45       		.byte	0x45
 861 0122 AD000000 		.4byte	0xad
 862 0126 03       		.uleb128 0x3
 863 0127 33050000 		.4byte	.LASF26
 864 012b 08       		.byte	0x8
 865 012c 33       		.byte	0x33
 866 012d B8000000 		.4byte	0xb8
 867 0131 03       		.uleb128 0x3
 868 0132 23050000 		.4byte	.LASF27
 869 0136 08       		.byte	0x8
 870 0137 3F       		.byte	0x3f
 871 0138 3C010000 		.4byte	0x13c
 872 013c 05       		.uleb128 0x5
 873 013d 88020000 		.4byte	.LASF47
 874 0141 44       		.byte	0x44
 875 0142 09       		.byte	0x9
 876 0143 C2       		.byte	0xc2
 877 0144 28020000 		.4byte	0x228
 878 0148 06       		.uleb128 0x6
 879 0149 42040000 		.4byte	.LASF28
 880 014d 09       		.byte	0x9
 881 014e C3       		.byte	0xc3
 882 014f 33020000 		.4byte	0x233
 883 0153 00       		.byte	0
 884 0154 06       		.uleb128 0x6
 885 0155 C3030000 		.4byte	.LASF29
 886 0159 09       		.byte	0x9
 887 015a C5       		.byte	0xc5
 888 015b 33020000 		.4byte	0x233
 889 015f 04       		.byte	0x4
 890 0160 06       		.uleb128 0x6
 891 0161 B0000000 		.4byte	.LASF30
 892 0165 09       		.byte	0x9
 893 0166 C7       		.byte	0xc7
 894 0167 FA000000 		.4byte	0xfa
 895 016b 08       		.byte	0x8
 896 016c 06       		.uleb128 0x6
 897 016d F2050000 		.4byte	.LASF31
 898 0171 09       		.byte	0x9
 899 0172 C8       		.byte	0xc8
 900 0173 63040000 		.4byte	0x463
 901 0177 0C       		.byte	0xc
 902 0178 06       		.uleb128 0x6
 903 0179 0A010000 		.4byte	.LASF32
 904 017d 09       		.byte	0x9
 905 017e CA       		.byte	0xca
 906 017f 33020000 		.4byte	0x233
 907 0183 10       		.byte	0x10
 908 0184 06       		.uleb128 0x6
 909 0185 5D030000 		.4byte	.LASF33
 910 0189 09       		.byte	0x9
 911 018a CB       		.byte	0xcb
ARM GAS  /tmp/cc4zuTcv.s 			page 44


 912 018b 33020000 		.4byte	0x233
 913 018f 14       		.byte	0x14
 914 0190 06       		.uleb128 0x6
 915 0191 D4050000 		.4byte	.LASF34
 916 0195 09       		.byte	0x9
 917 0196 D2       		.byte	0xd2
 918 0197 EE050000 		.4byte	0x5ee
 919 019b 18       		.byte	0x18
 920 019c 06       		.uleb128 0x6
 921 019d 83030000 		.4byte	.LASF35
 922 01a1 09       		.byte	0x9
 923 01a2 D8       		.byte	0xd8
 924 01a3 00060000 		.4byte	0x600
 925 01a7 1C       		.byte	0x1c
 926 01a8 06       		.uleb128 0x6
 927 01a9 1B040000 		.4byte	.LASF36
 928 01ad 09       		.byte	0x9
 929 01ae DD       		.byte	0xdd
 930 01af E4000000 		.4byte	0xe4
 931 01b3 20       		.byte	0x20
 932 01b4 06       		.uleb128 0x6
 933 01b5 49040000 		.4byte	.LASF37
 934 01b9 09       		.byte	0x9
 935 01ba E1       		.byte	0xe1
 936 01bb D9000000 		.4byte	0xd9
 937 01bf 21       		.byte	0x21
 938 01c0 06       		.uleb128 0x6
 939 01c1 9D050000 		.4byte	.LASF38
 940 01c5 09       		.byte	0x9
 941 01c6 E6       		.byte	0xe6
 942 01c7 EF000000 		.4byte	0xef
 943 01cb 22       		.byte	0x22
 944 01cc 07       		.uleb128 0x7
 945 01cd 705F7500 		.ascii	"p_u\000"
 946 01d1 09       		.byte	0x9
 947 01d2 3701     		.2byte	0x137
 948 01d4 1D050000 		.4byte	0x51d
 949 01d8 24       		.byte	0x24
 950 01d9 08       		.uleb128 0x8
 951 01da DB020000 		.4byte	.LASF39
 952 01de 09       		.byte	0x9
 953 01df 3C01     		.2byte	0x13c
 954 01e1 39020000 		.4byte	0x239
 955 01e5 28       		.byte	0x28
 956 01e6 08       		.uleb128 0x8
 957 01e7 4D020000 		.4byte	.LASF40
 958 01eb 09       		.byte	0x9
 959 01ec 4201     		.2byte	0x142
 960 01ee 5D020000 		.4byte	0x25d
 961 01f2 2C       		.byte	0x2c
 962 01f3 08       		.uleb128 0x8
 963 01f4 78040000 		.4byte	.LASF41
 964 01f8 09       		.byte	0x9
 965 01f9 4801     		.2byte	0x148
 966 01fb 10010000 		.4byte	0x110
 967 01ff 34       		.byte	0x34
 968 0200 08       		.uleb128 0x8
ARM GAS  /tmp/cc4zuTcv.s 			page 45


 969 0201 07040000 		.4byte	.LASF42
 970 0205 09       		.byte	0x9
 971 0206 4F01     		.2byte	0x14f
 972 0208 E8050000 		.4byte	0x5e8
 973 020c 38       		.byte	0x38
 974 020d 08       		.uleb128 0x8
 975 020e 3D050000 		.4byte	.LASF43
 976 0212 09       		.byte	0x9
 977 0213 5301     		.2byte	0x153
 978 0215 FA000000 		.4byte	0xfa
 979 0219 3C       		.byte	0x3c
 980 021a 08       		.uleb128 0x8
 981 021b D1000000 		.4byte	.LASF44
 982 021f 09       		.byte	0x9
 983 0220 5A01     		.2byte	0x15a
 984 0222 10030000 		.4byte	0x310
 985 0226 40       		.byte	0x40
 986 0227 00       		.byte	0
 987 0228 03       		.uleb128 0x3
 988 0229 16030000 		.4byte	.LASF45
 989 022d 08       		.byte	0x8
 990 022e 44       		.byte	0x44
 991 022f 33020000 		.4byte	0x233
 992 0233 09       		.uleb128 0x9
 993 0234 04       		.byte	0x4
 994 0235 31010000 		.4byte	0x131
 995 0239 03       		.uleb128 0x3
 996 023a DB050000 		.4byte	.LASF46
 997 023e 08       		.byte	0x8
 998 023f 49       		.byte	0x49
 999 0240 44020000 		.4byte	0x244
 1000 0244 05       		.uleb128 0x5
 1001 0245 A4040000 		.4byte	.LASF48
 1002 0249 04       		.byte	0x4
 1003 024a 09       		.byte	0x9
 1004 024b B0       		.byte	0xb0
 1005 024c 5D020000 		.4byte	0x25d
 1006 0250 06       		.uleb128 0x6
 1007 0251 42040000 		.4byte	.LASF28
 1008 0255 09       		.byte	0x9
 1009 0256 B1       		.byte	0xb1
 1010 0257 33020000 		.4byte	0x233
 1011 025b 00       		.byte	0
 1012 025c 00       		.byte	0
 1013 025d 03       		.uleb128 0x3
 1014 025e 84050000 		.4byte	.LASF49
 1015 0262 08       		.byte	0x8
 1016 0263 50       		.byte	0x50
 1017 0264 68020000 		.4byte	0x268
 1018 0268 05       		.uleb128 0x5
 1019 0269 9F000000 		.4byte	.LASF50
 1020 026d 08       		.byte	0x8
 1021 026e 09       		.byte	0x9
 1022 026f B7       		.byte	0xb7
 1023 0270 8D020000 		.4byte	0x28d
 1024 0274 06       		.uleb128 0x6
 1025 0275 42040000 		.4byte	.LASF28
ARM GAS  /tmp/cc4zuTcv.s 			page 46


 1026 0279 09       		.byte	0x9
 1027 027a B8       		.byte	0xb8
 1028 027b 33020000 		.4byte	0x233
 1029 027f 00       		.byte	0
 1030 0280 06       		.uleb128 0x6
 1031 0281 C3030000 		.4byte	.LASF29
 1032 0285 09       		.byte	0x9
 1033 0286 B9       		.byte	0xb9
 1034 0287 33020000 		.4byte	0x233
 1035 028b 04       		.byte	0x4
 1036 028c 00       		.byte	0
 1037 028d 03       		.uleb128 0x3
 1038 028e 00000000 		.4byte	.LASF51
 1039 0292 08       		.byte	0x8
 1040 0293 57       		.byte	0x57
 1041 0294 98020000 		.4byte	0x298
 1042 0298 0A       		.uleb128 0xa
 1043 0299 AC020000 		.4byte	.LASF52
 1044 029d 1C       		.byte	0x1c
 1045 029e 09       		.byte	0x9
 1046 029f 9201     		.2byte	0x192
 1047 02a1 F4020000 		.4byte	0x2f4
 1048 02a5 08       		.uleb128 0x8
 1049 02a6 93040000 		.4byte	.LASF53
 1050 02aa 09       		.byte	0x9
 1051 02ab 9301     		.2byte	0x193
 1052 02ad 5D020000 		.4byte	0x25d
 1053 02b1 00       		.byte	0
 1054 02b2 08       		.uleb128 0x8
 1055 02b3 2B040000 		.4byte	.LASF54
 1056 02b7 09       		.byte	0x9
 1057 02b8 9401     		.2byte	0x194
 1058 02ba FA000000 		.4byte	0xfa
 1059 02be 08       		.byte	0x8
 1060 02bf 08       		.uleb128 0x8
 1061 02c0 65030000 		.4byte	.LASF55
 1062 02c4 09       		.byte	0x9
 1063 02c5 9601     		.2byte	0x196
 1064 02c7 63040000 		.4byte	0x463
 1065 02cb 0C       		.byte	0xc
 1066 02cc 08       		.uleb128 0x8
 1067 02cd 1A010000 		.4byte	.LASF56
 1068 02d1 09       		.byte	0x9
 1069 02d2 9901     		.2byte	0x199
 1070 02d4 33020000 		.4byte	0x233
 1071 02d8 10       		.byte	0x10
 1072 02d9 08       		.uleb128 0x8
 1073 02da 98030000 		.4byte	.LASF57
 1074 02de 09       		.byte	0x9
 1075 02df 9A01     		.2byte	0x19a
 1076 02e1 33020000 		.4byte	0x233
 1077 02e5 14       		.byte	0x14
 1078 02e6 08       		.uleb128 0x8
 1079 02e7 8E030000 		.4byte	.LASF58
 1080 02eb 09       		.byte	0x9
 1081 02ec 9D01     		.2byte	0x19d
 1082 02ee 33020000 		.4byte	0x233
ARM GAS  /tmp/cc4zuTcv.s 			page 47


 1083 02f2 18       		.byte	0x18
 1084 02f3 00       		.byte	0
 1085 02f4 03       		.uleb128 0x3
 1086 02f5 48050000 		.4byte	.LASF59
 1087 02f9 08       		.byte	0x8
 1088 02fa 5C       		.byte	0x5c
 1089 02fb FF020000 		.4byte	0x2ff
 1090 02ff 09       		.uleb128 0x9
 1091 0300 04       		.byte	0x4
 1092 0301 05030000 		.4byte	0x305
 1093 0305 0B       		.uleb128 0xb
 1094 0306 10030000 		.4byte	0x310
 1095 030a 0C       		.uleb128 0xc
 1096 030b 10030000 		.4byte	0x310
 1097 030f 00       		.byte	0
 1098 0310 0D       		.uleb128 0xd
 1099 0311 04       		.byte	0x4
 1100 0312 03       		.uleb128 0x3
 1101 0313 B3030000 		.4byte	.LASF60
 1102 0317 08       		.byte	0x8
 1103 0318 61       		.byte	0x61
 1104 0319 1D030000 		.4byte	0x31d
 1105 031d 0A       		.uleb128 0xa
 1106 031e 51040000 		.4byte	.LASF61
 1107 0322 14       		.byte	0x14
 1108 0323 09       		.byte	0x9
 1109 0324 6D01     		.2byte	0x16d
 1110 0326 6C030000 		.4byte	0x36c
 1111 032a 08       		.uleb128 0x8
 1112 032b 3E020000 		.4byte	.LASF62
 1113 032f 09       		.byte	0x9
 1114 0330 6E01     		.2byte	0x16e
 1115 0332 06060000 		.4byte	0x606
 1116 0336 00       		.byte	0
 1117 0337 08       		.uleb128 0x8
 1118 0338 2B010000 		.4byte	.LASF63
 1119 033c 09       		.byte	0x9
 1120 033d 6F01     		.2byte	0x16f
 1121 033f 06060000 		.4byte	0x606
 1122 0343 04       		.byte	0x4
 1123 0344 08       		.uleb128 0x8
 1124 0345 9B040000 		.4byte	.LASF64
 1125 0349 09       		.byte	0x9
 1126 034a 7001     		.2byte	0x170
 1127 034c 26010000 		.4byte	0x126
 1128 0350 08       		.byte	0x8
 1129 0351 08       		.uleb128 0x8
 1130 0352 F8050000 		.4byte	.LASF65
 1131 0356 09       		.byte	0x9
 1132 0357 7101     		.2byte	0x171
 1133 0359 F4020000 		.4byte	0x2f4
 1134 035d 0C       		.byte	0xc
 1135 035e 08       		.uleb128 0x8
 1136 035f 7D050000 		.4byte	.LASF66
 1137 0363 09       		.byte	0x9
 1138 0364 7301     		.2byte	0x173
 1139 0366 10030000 		.4byte	0x310
ARM GAS  /tmp/cc4zuTcv.s 			page 48


 1140 036a 10       		.byte	0x10
 1141 036b 00       		.byte	0
 1142 036c 03       		.uleb128 0x3
 1143 036d 7C000000 		.4byte	.LASF67
 1144 0371 08       		.byte	0x8
 1145 0372 66       		.byte	0x66
 1146 0373 77030000 		.4byte	0x377
 1147 0377 0A       		.uleb128 0xa
 1148 0378 29030000 		.4byte	.LASF68
 1149 037c 10       		.byte	0x10
 1150 037d 09       		.byte	0x9
 1151 037e 7D01     		.2byte	0x17d
 1152 0380 B9030000 		.4byte	0x3b9
 1153 0384 08       		.uleb128 0x8
 1154 0385 3E020000 		.4byte	.LASF62
 1155 0389 09       		.byte	0x9
 1156 038a 7E01     		.2byte	0x17e
 1157 038c 06060000 		.4byte	0x606
 1158 0390 00       		.byte	0
 1159 0391 08       		.uleb128 0x8
 1160 0392 2B010000 		.4byte	.LASF63
 1161 0396 09       		.byte	0x9
 1162 0397 8001     		.2byte	0x180
 1163 0399 06060000 		.4byte	0x606
 1164 039d 04       		.byte	0x4
 1165 039e 08       		.uleb128 0x8
 1166 039f 9B040000 		.4byte	.LASF64
 1167 03a3 09       		.byte	0x9
 1168 03a4 8201     		.2byte	0x182
 1169 03a6 26010000 		.4byte	0x126
 1170 03aa 08       		.byte	0x8
 1171 03ab 08       		.uleb128 0x8
 1172 03ac 51030000 		.4byte	.LASF69
 1173 03b0 09       		.byte	0x9
 1174 03b1 8A01     		.2byte	0x18a
 1175 03b3 26010000 		.4byte	0x126
 1176 03b7 0C       		.byte	0xc
 1177 03b8 00       		.byte	0
 1178 03b9 03       		.uleb128 0x3
 1179 03ba 3A000000 		.4byte	.LASF70
 1180 03be 08       		.byte	0x8
 1181 03bf 6B       		.byte	0x6b
 1182 03c0 C4030000 		.4byte	0x3c4
 1183 03c4 0A       		.uleb128 0xa
 1184 03c5 E1030000 		.4byte	.LASF71
 1185 03c9 04       		.byte	0x4
 1186 03ca 09       		.byte	0x9
 1187 03cb A401     		.2byte	0x1a4
 1188 03cd DF030000 		.4byte	0x3df
 1189 03d1 08       		.uleb128 0x8
 1190 03d2 5C050000 		.4byte	.LASF72
 1191 03d6 09       		.byte	0x9
 1192 03d7 AC01     		.2byte	0x1ac
 1193 03d9 0C060000 		.4byte	0x60c
 1194 03dd 00       		.byte	0
 1195 03de 00       		.byte	0
 1196 03df 03       		.uleb128 0x3
ARM GAS  /tmp/cc4zuTcv.s 			page 49


 1197 03e0 98020000 		.4byte	.LASF73
 1198 03e4 08       		.byte	0x8
 1199 03e5 70       		.byte	0x70
 1200 03e6 EA030000 		.4byte	0x3ea
 1201 03ea 0E       		.uleb128 0xe
 1202 03eb EE000000 		.4byte	.LASF74
 1203 03ef 5001     		.2byte	0x150
 1204 03f1 09       		.byte	0x9
 1205 03f2 C401     		.2byte	0x1c4
 1206 03f4 46040000 		.4byte	0x446
 1207 03f8 08       		.uleb128 0x8
 1208 03f9 A4050000 		.4byte	.LASF75
 1209 03fd 09       		.byte	0x9
 1210 03fe C801     		.2byte	0x1c8
 1211 0400 8D020000 		.4byte	0x28d
 1212 0404 00       		.byte	0
 1213 0405 08       		.uleb128 0x8
 1214 0406 E1000000 		.4byte	.LASF76
 1215 040a 09       		.byte	0x9
 1216 040b CC01     		.2byte	0x1cc
 1217 040d 6C030000 		.4byte	0x36c
 1218 0411 1C       		.byte	0x1c
 1219 0412 07       		.uleb128 0x7
 1220 0413 64626700 		.ascii	"dbg\000"
 1221 0417 09       		.byte	0x9
 1222 0418 D001     		.2byte	0x1d0
 1223 041a B9030000 		.4byte	0x3b9
 1224 041e 2C       		.byte	0x2c
 1225 041f 08       		.uleb128 0x8
 1226 0420 69000000 		.4byte	.LASF77
 1227 0424 09       		.byte	0x9
 1228 0425 D401     		.2byte	0x1d4
 1229 0427 31010000 		.4byte	0x131
 1230 042b 30       		.byte	0x30
 1231 042c 07       		.uleb128 0x7
 1232 042d 746D00   		.ascii	"tm\000"
 1233 0430 09       		.byte	0x9
 1234 0431 D901     		.2byte	0x1d9
 1235 0433 12050000 		.4byte	0x512
 1236 0437 74       		.byte	0x74
 1237 0438 08       		.uleb128 0x8
 1238 0439 3B010000 		.4byte	.LASF78
 1239 043d 09       		.byte	0x9
 1240 043e E501     		.2byte	0x1e5
 1241 0440 11060000 		.4byte	0x611
 1242 0444 78       		.byte	0x78
 1243 0445 00       		.byte	0
 1244 0446 04       		.uleb128 0x4
 1245 0447 04       		.byte	0x4
 1246 0448 07       		.byte	0x7
 1247 0449 0D030000 		.4byte	.LASF79
 1248 044d 03       		.uleb128 0x3
 1249 044e 22010000 		.4byte	.LASF80
 1250 0452 0A       		.byte	0xa
 1251 0453 65       		.byte	0x65
 1252 0454 10030000 		.4byte	0x310
 1253 0458 03       		.uleb128 0x3
ARM GAS  /tmp/cc4zuTcv.s 			page 50


 1254 0459 D0020000 		.4byte	.LASF81
 1255 045d 0A       		.byte	0xa
 1256 045e 6D       		.byte	0x6d
 1257 045f C3000000 		.4byte	0xc3
 1258 0463 05       		.uleb128 0x5
 1259 0464 6D050000 		.4byte	.LASF82
 1260 0468 04       		.byte	0x4
 1261 0469 0A       		.byte	0xa
 1262 046a 89       		.byte	0x89
 1263 046b 7C040000 		.4byte	0x47c
 1264 046f 0F       		.uleb128 0xf
 1265 0470 72313300 		.ascii	"r13\000"
 1266 0474 0A       		.byte	0xa
 1267 0475 8A       		.byte	0x8a
 1268 0476 F7040000 		.4byte	0x4f7
 1269 047a 00       		.byte	0
 1270 047b 00       		.byte	0
 1271 047c 05       		.uleb128 0x5
 1272 047d 2E000000 		.4byte	.LASF83
 1273 0481 24       		.byte	0x24
 1274 0482 0B       		.byte	0xb
 1275 0483 FD       		.byte	0xfd
 1276 0484 F7040000 		.4byte	0x4f7
 1277 0488 07       		.uleb128 0x7
 1278 0489 723400   		.ascii	"r4\000"
 1279 048c 0B       		.byte	0xb
 1280 048d 1001     		.2byte	0x110
 1281 048f 4D040000 		.4byte	0x44d
 1282 0493 00       		.byte	0
 1283 0494 07       		.uleb128 0x7
 1284 0495 723500   		.ascii	"r5\000"
 1285 0498 0B       		.byte	0xb
 1286 0499 1101     		.2byte	0x111
 1287 049b 4D040000 		.4byte	0x44d
 1288 049f 04       		.byte	0x4
 1289 04a0 07       		.uleb128 0x7
 1290 04a1 723600   		.ascii	"r6\000"
 1291 04a4 0B       		.byte	0xb
 1292 04a5 1201     		.2byte	0x112
 1293 04a7 4D040000 		.4byte	0x44d
 1294 04ab 08       		.byte	0x8
 1295 04ac 07       		.uleb128 0x7
 1296 04ad 723700   		.ascii	"r7\000"
 1297 04b0 0B       		.byte	0xb
 1298 04b1 1301     		.2byte	0x113
 1299 04b3 4D040000 		.4byte	0x44d
 1300 04b7 0C       		.byte	0xc
 1301 04b8 07       		.uleb128 0x7
 1302 04b9 723800   		.ascii	"r8\000"
 1303 04bc 0B       		.byte	0xb
 1304 04bd 1401     		.2byte	0x114
 1305 04bf 4D040000 		.4byte	0x44d
 1306 04c3 10       		.byte	0x10
 1307 04c4 07       		.uleb128 0x7
 1308 04c5 723900   		.ascii	"r9\000"
 1309 04c8 0B       		.byte	0xb
 1310 04c9 1501     		.2byte	0x115
ARM GAS  /tmp/cc4zuTcv.s 			page 51


 1311 04cb 4D040000 		.4byte	0x44d
 1312 04cf 14       		.byte	0x14
 1313 04d0 07       		.uleb128 0x7
 1314 04d1 72313000 		.ascii	"r10\000"
 1315 04d5 0B       		.byte	0xb
 1316 04d6 1601     		.2byte	0x116
 1317 04d8 4D040000 		.4byte	0x44d
 1318 04dc 18       		.byte	0x18
 1319 04dd 07       		.uleb128 0x7
 1320 04de 72313100 		.ascii	"r11\000"
 1321 04e2 0B       		.byte	0xb
 1322 04e3 1701     		.2byte	0x117
 1323 04e5 4D040000 		.4byte	0x44d
 1324 04e9 1C       		.byte	0x1c
 1325 04ea 07       		.uleb128 0x7
 1326 04eb 6C7200   		.ascii	"lr\000"
 1327 04ee 0B       		.byte	0xb
 1328 04ef 1801     		.2byte	0x118
 1329 04f1 4D040000 		.4byte	0x44d
 1330 04f5 20       		.byte	0x20
 1331 04f6 00       		.byte	0
 1332 04f7 09       		.uleb128 0x9
 1333 04f8 04       		.byte	0x4
 1334 04f9 7C040000 		.4byte	0x47c
 1335 04fd 10       		.uleb128 0x10
 1336 04fe 04       		.byte	0x4
 1337 04ff 0C       		.byte	0xc
 1338 0500 38       		.byte	0x38
 1339 0501 12050000 		.4byte	0x512
 1340 0505 06       		.uleb128 0x6
 1341 0506 66050000 		.4byte	.LASF84
 1342 050a 0C       		.byte	0xc
 1343 050b 3C       		.byte	0x3c
 1344 050c CE000000 		.4byte	0xce
 1345 0510 00       		.byte	0
 1346 0511 00       		.byte	0
 1347 0512 03       		.uleb128 0x3
 1348 0513 40030000 		.4byte	.LASF85
 1349 0517 0C       		.byte	0xc
 1350 0518 3D       		.byte	0x3d
 1351 0519 FD040000 		.4byte	0x4fd
 1352 051d 11       		.uleb128 0x11
 1353 051e 04       		.byte	0x4
 1354 051f 09       		.byte	0x9
 1355 0520 FA       		.byte	0xfa
 1356 0521 86050000 		.4byte	0x586
 1357 0525 12       		.uleb128 0x12
 1358 0526 14000000 		.4byte	.LASF86
 1359 052a 09       		.byte	0x9
 1360 052b 0101     		.2byte	0x101
 1361 052d 05010000 		.4byte	0x105
 1362 0531 12       		.uleb128 0x12
 1363 0532 60000000 		.4byte	.LASF87
 1364 0536 09       		.byte	0x9
 1365 0537 0801     		.2byte	0x108
 1366 0539 05010000 		.4byte	0x105
 1367 053d 12       		.uleb128 0x12
ARM GAS  /tmp/cc4zuTcv.s 			page 52


 1368 053e CD050000 		.4byte	.LASF88
 1369 0542 09       		.byte	0x9
 1370 0543 0F01     		.2byte	0x10f
 1371 0545 10030000 		.4byte	0x310
 1372 0549 12       		.uleb128 0x12
 1373 054a E8000000 		.4byte	.LASF89
 1374 054e 09       		.byte	0x9
 1375 054f 1601     		.2byte	0x116
 1376 0551 86050000 		.4byte	0x586
 1377 0555 12       		.uleb128 0x12
 1378 0556 74000000 		.4byte	.LASF90
 1379 055a 09       		.byte	0x9
 1380 055b 1B01     		.2byte	0x11b
 1381 055d 05010000 		.4byte	0x105
 1382 0561 12       		.uleb128 0x12
 1383 0562 46020000 		.4byte	.LASF91
 1384 0566 09       		.byte	0x9
 1385 0567 2401     		.2byte	0x124
 1386 0569 B1050000 		.4byte	0x5b1
 1387 056d 12       		.uleb128 0x12
 1388 056e 8C040000 		.4byte	.LASF92
 1389 0572 09       		.byte	0x9
 1390 0573 2D01     		.2byte	0x12d
 1391 0575 E8050000 		.4byte	0x5e8
 1392 0579 12       		.uleb128 0x12
 1393 057a 3B040000 		.4byte	.LASF93
 1394 057e 09       		.byte	0x9
 1395 057f 3501     		.2byte	0x135
 1396 0581 10010000 		.4byte	0x110
 1397 0585 00       		.byte	0
 1398 0586 09       		.uleb128 0x9
 1399 0587 04       		.byte	0x4
 1400 0588 28020000 		.4byte	0x228
 1401 058c 05       		.uleb128 0x5
 1402 058d 6B040000 		.4byte	.LASF94
 1403 0591 0C       		.byte	0xc
 1404 0592 0D       		.byte	0xd
 1405 0593 34       		.byte	0x34
 1406 0594 B1050000 		.4byte	0x5b1
 1407 0598 06       		.uleb128 0x6
 1408 0599 12010000 		.4byte	.LASF95
 1409 059d 0D       		.byte	0xd
 1410 059e 35       		.byte	0x35
 1411 059f 5D020000 		.4byte	0x25d
 1412 05a3 00       		.byte	0
 1413 05a4 06       		.uleb128 0x6
 1414 05a5 6F020000 		.4byte	.LASF96
 1415 05a9 0D       		.byte	0xd
 1416 05aa 37       		.byte	0x37
 1417 05ab 1B010000 		.4byte	0x11b
 1418 05af 08       		.byte	0x8
 1419 05b0 00       		.byte	0
 1420 05b1 09       		.uleb128 0x9
 1421 05b2 04       		.byte	0x4
 1422 05b3 8C050000 		.4byte	0x58c
 1423 05b7 05       		.uleb128 0x5
 1424 05b8 94050000 		.4byte	.LASF97
ARM GAS  /tmp/cc4zuTcv.s 			page 53


 1425 05bc 10       		.byte	0x10
 1426 05bd 0E       		.byte	0xe
 1427 05be 39       		.byte	0x39
 1428 05bf E8050000 		.4byte	0x5e8
 1429 05c3 06       		.uleb128 0x6
 1430 05c4 D9000000 		.4byte	.LASF98
 1431 05c8 0E       		.byte	0xe
 1432 05c9 3A       		.byte	0x3a
 1433 05ca 5D020000 		.4byte	0x25d
 1434 05ce 00       		.byte	0
 1435 05cf 06       		.uleb128 0x6
 1436 05d0 EA050000 		.4byte	.LASF99
 1437 05d4 0E       		.byte	0xe
 1438 05d5 3C       		.byte	0x3c
 1439 05d6 33020000 		.4byte	0x233
 1440 05da 08       		.byte	0x8
 1441 05db 06       		.uleb128 0x6
 1442 05dc 2C050000 		.4byte	.LASF100
 1443 05e0 0E       		.byte	0xe
 1444 05e1 3E       		.byte	0x3e
 1445 05e2 2C060000 		.4byte	0x62c
 1446 05e6 0C       		.byte	0xc
 1447 05e7 00       		.byte	0
 1448 05e8 09       		.uleb128 0x9
 1449 05e9 04       		.byte	0x4
 1450 05ea B7050000 		.4byte	0x5b7
 1451 05ee 09       		.uleb128 0x9
 1452 05ef 04       		.byte	0x4
 1453 05f0 F4050000 		.4byte	0x5f4
 1454 05f4 13       		.uleb128 0x13
 1455 05f5 F9050000 		.4byte	0x5f9
 1456 05f9 04       		.uleb128 0x4
 1457 05fa 01       		.byte	0x1
 1458 05fb 08       		.byte	0x8
 1459 05fc 11050000 		.4byte	.LASF101
 1460 0600 09       		.uleb128 0x9
 1461 0601 04       		.byte	0x4
 1462 0602 58040000 		.4byte	0x458
 1463 0606 09       		.uleb128 0x9
 1464 0607 04       		.byte	0x4
 1465 0608 12030000 		.4byte	0x312
 1466 060c 14       		.uleb128 0x14
 1467 060d EE050000 		.4byte	0x5ee
 1468 0611 15       		.uleb128 0x15
 1469 0612 58040000 		.4byte	0x458
 1470 0616 21060000 		.4byte	0x621
 1471 061a 16       		.uleb128 0x16
 1472 061b 46040000 		.4byte	0x446
 1473 061f 1A       		.byte	0x1a
 1474 0620 00       		.byte	0
 1475 0621 03       		.uleb128 0x3
 1476 0622 33010000 		.4byte	.LASF102
 1477 0626 0E       		.byte	0xe
 1478 0627 34       		.byte	0x34
 1479 0628 B7050000 		.4byte	0x5b7
 1480 062c 09       		.uleb128 0x9
 1481 062d 04       		.byte	0x4
ARM GAS  /tmp/cc4zuTcv.s 			page 54


 1482 062e 21060000 		.4byte	0x621
 1483 0632 05       		.uleb128 0x5
 1484 0633 62040000 		.4byte	.LASF103
 1485 0637 10       		.byte	0x10
 1486 0638 0F       		.byte	0xf
 1487 0639 3B       		.byte	0x3b
 1488 063a 6F060000 		.4byte	0x66f
 1489 063e 06       		.uleb128 0x6
 1490 063f 6A020000 		.4byte	.LASF104
 1491 0643 0F       		.byte	0xf
 1492 0644 3C       		.byte	0x3c
 1493 0645 EE050000 		.4byte	0x5ee
 1494 0649 00       		.byte	0
 1495 064a 06       		.uleb128 0x6
 1496 064b 7D030000 		.4byte	.LASF105
 1497 064f 0F       		.byte	0xf
 1498 0650 3D       		.byte	0x3d
 1499 0651 70060000 		.4byte	0x670
 1500 0655 04       		.byte	0x4
 1501 0656 06       		.uleb128 0x6
 1502 0657 58020000 		.4byte	.LASF106
 1503 065b 0F       		.byte	0xf
 1504 065c 3E       		.byte	0x3e
 1505 065d 70060000 		.4byte	0x670
 1506 0661 08       		.byte	0x8
 1507 0662 06       		.uleb128 0x6
 1508 0663 CA030000 		.4byte	.LASF107
 1509 0667 0F       		.byte	0xf
 1510 0668 3F       		.byte	0x3f
 1511 0669 70060000 		.4byte	0x670
 1512 066d 0C       		.byte	0xc
 1513 066e 00       		.byte	0
 1514 066f 17       		.uleb128 0x17
 1515 0670 09       		.uleb128 0x9
 1516 0671 04       		.byte	0x4
 1517 0672 6F060000 		.4byte	0x66f
 1518 0676 18       		.uleb128 0x18
 1519 0677 AA050000 		.4byte	.LASF108
 1520 067b 01       		.byte	0x1
 1521 067c AE       		.byte	0xae
 1522 067d 33020000 		.4byte	0x233
 1523 0681 00000000 		.4byte	.LFB189
 1524 0685 0C000000 		.4byte	.LFE189-.LFB189
 1525 0689 01       		.uleb128 0x1
 1526 068a 9C       		.byte	0x9c
 1527 068b 19       		.uleb128 0x19
 1528 068c 6B030000 		.4byte	.LASF109
 1529 0690 01       		.byte	0x1
 1530 0691 BB       		.byte	0xbb
 1531 0692 FA000000 		.4byte	0xfa
 1532 0696 00000000 		.4byte	.LFB190
 1533 069a 0E000000 		.4byte	.LFE190-.LFB190
 1534 069e 01       		.uleb128 0x1
 1535 069f 9C       		.byte	0x9c
 1536 06a0 1A       		.uleb128 0x1a
 1537 06a1 61020000 		.4byte	.LASF119
 1538 06a5 02       		.byte	0x2
ARM GAS  /tmp/cc4zuTcv.s 			page 55


 1539 06a6 60       		.byte	0x60
 1540 06a7 05010000 		.4byte	0x105
 1541 06ab 00000000 		.4byte	.LFB223
 1542 06af 0E000000 		.4byte	.LFE223-.LFB223
 1543 06b3 01       		.uleb128 0x1
 1544 06b4 9C       		.byte	0x9c
 1545 06b5 D0060000 		.4byte	0x6d0
 1546 06b9 1B       		.uleb128 0x1b
 1547 06ba 747000   		.ascii	"tp\000"
 1548 06bd 02       		.byte	0x2
 1549 06be 60       		.byte	0x60
 1550 06bf 33020000 		.4byte	0x233
 1551 06c3 02       		.uleb128 0x2
 1552 06c4 91       		.byte	0x91
 1553 06c5 7C       		.sleb128 -4
 1554 06c6 1C       		.uleb128 0x1c
 1555 06c7 30020000 		.4byte	.LASF120
 1556 06cb E0060000 		.4byte	0x6e0
 1557 06cf 00       		.byte	0
 1558 06d0 15       		.uleb128 0x15
 1559 06d1 F9050000 		.4byte	0x5f9
 1560 06d5 E0060000 		.4byte	0x6e0
 1561 06d9 16       		.uleb128 0x16
 1562 06da 46040000 		.4byte	0x446
 1563 06de 08       		.byte	0x8
 1564 06df 00       		.byte	0
 1565 06e0 13       		.uleb128 0x13
 1566 06e1 D0060000 		.4byte	0x6d0
 1567 06e5 1D       		.uleb128 0x1d
 1568 06e6 DA030000 		.4byte	.LASF110
 1569 06ea 03       		.byte	0x3
 1570 06eb 3B       		.byte	0x3b
 1571 06ec 00000000 		.4byte	.LFB241
 1572 06f0 24000000 		.4byte	.LFE241-.LFB241
 1573 06f4 01       		.uleb128 0x1
 1574 06f5 9C       		.byte	0x9c
 1575 06f6 07070000 		.4byte	0x707
 1576 06fa 1B       		.uleb128 0x1b
 1577 06fb 7000     		.ascii	"p\000"
 1578 06fd 03       		.byte	0x3
 1579 06fe 3B       		.byte	0x3b
 1580 06ff 10030000 		.4byte	0x310
 1581 0703 02       		.uleb128 0x2
 1582 0704 91       		.byte	0x91
 1583 0705 74       		.sleb128 -12
 1584 0706 00       		.byte	0
 1585 0707 1D       		.uleb128 0x1d
 1586 0708 C0050000 		.4byte	.LASF111
 1587 070c 03       		.byte	0x3
 1588 070d 42       		.byte	0x42
 1589 070e 00000000 		.4byte	.LFB242
 1590 0712 B0000000 		.4byte	.LFE242-.LFB242
 1591 0716 01       		.uleb128 0x1
 1592 0717 9C       		.byte	0x9c
 1593 0718 38070000 		.4byte	0x738
 1594 071c 1E       		.uleb128 0x1e
 1595 071d 747000   		.ascii	"tp\000"
ARM GAS  /tmp/cc4zuTcv.s 			page 56


 1596 0720 03       		.byte	0x3
 1597 0721 43       		.byte	0x43
 1598 0722 33020000 		.4byte	0x233
 1599 0726 02       		.uleb128 0x2
 1600 0727 91       		.byte	0x91
 1601 0728 6C       		.sleb128 -20
 1602 0729 1E       		.uleb128 0x1e
 1603 072a 6D736700 		.ascii	"msg\000"
 1604 072e 03       		.byte	0x3
 1605 072f 44       		.byte	0x44
 1606 0730 05010000 		.4byte	0x105
 1607 0734 02       		.uleb128 0x2
 1608 0735 91       		.byte	0x91
 1609 0736 68       		.sleb128 -24
 1610 0737 00       		.byte	0
 1611 0738 1F       		.uleb128 0x1f
 1612 0739 92000000 		.4byte	.LASF112
 1613 073d 10       		.byte	0x10
 1614 073e FA06     		.2byte	0x6fa
 1615 0740 44070000 		.4byte	0x744
 1616 0744 14       		.uleb128 0x14
 1617 0745 AD000000 		.4byte	0xad
 1618 0749 20       		.uleb128 0x20
 1619 074a 636800   		.ascii	"ch\000"
 1620 074d 09       		.byte	0x9
 1621 074e 0B02     		.2byte	0x20b
 1622 0750 DF030000 		.4byte	0x3df
 1623 0754 15       		.uleb128 0x15
 1624 0755 33020000 		.4byte	0x233
 1625 0759 64070000 		.4byte	0x764
 1626 075d 16       		.uleb128 0x16
 1627 075e 46040000 		.4byte	0x446
 1628 0762 04       		.byte	0x4
 1629 0763 00       		.byte	0
 1630 0764 21       		.uleb128 0x21
 1631 0765 23040000 		.4byte	.LASF113
 1632 0769 0F       		.byte	0xf
 1633 076a A7       		.byte	0xa7
 1634 076b 54070000 		.4byte	0x754
 1635 076f 15       		.uleb128 0x15
 1636 0770 10030000 		.4byte	0x310
 1637 0774 7A070000 		.4byte	0x77a
 1638 0778 22       		.uleb128 0x22
 1639 0779 00       		.byte	0
 1640 077a 23       		.uleb128 0x23
 1641 077b 776100   		.ascii	"wa\000"
 1642 077e 0F       		.byte	0xf
 1643 077f A9       		.byte	0xa9
 1644 0780 84070000 		.4byte	0x784
 1645 0784 13       		.uleb128 0x13
 1646 0785 6F070000 		.4byte	0x76f
 1647 0789 24       		.uleb128 0x24
 1648 078a 32040000 		.4byte	.LASF114
 1649 078e 03       		.byte	0x3
 1650 078f 5A       		.byte	0x5a
 1651 0790 9A070000 		.4byte	0x79a
 1652 0794 05       		.uleb128 0x5
ARM GAS  /tmp/cc4zuTcv.s 			page 57


 1653 0795 03       		.byte	0x3
 1654 0796 00000000 		.4byte	testmsg1
 1655 079a 13       		.uleb128 0x13
 1656 079b 32060000 		.4byte	0x632
 1657 079f 15       		.uleb128 0x15
 1658 07a0 AF070000 		.4byte	0x7af
 1659 07a4 AF070000 		.4byte	0x7af
 1660 07a8 16       		.uleb128 0x16
 1661 07a9 46040000 		.4byte	0x446
 1662 07ad 01       		.byte	0x1
 1663 07ae 00       		.byte	0
 1664 07af 09       		.uleb128 0x9
 1665 07b0 04       		.byte	0x4
 1666 07b1 9A070000 		.4byte	0x79a
 1667 07b5 24       		.uleb128 0x24
 1668 07b6 02030000 		.4byte	.LASF115
 1669 07ba 03       		.byte	0x3
 1670 07bb 66       		.byte	0x66
 1671 07bc C6070000 		.4byte	0x7c6
 1672 07c0 05       		.uleb128 0x5
 1673 07c1 03       		.byte	0x3
 1674 07c2 00000000 		.4byte	patternmsg
 1675 07c6 13       		.uleb128 0x13
 1676 07c7 9F070000 		.4byte	0x79f
 1677 07cb 00       		.byte	0
 1678              		.section	.debug_abbrev,"",%progbits
 1679              	.Ldebug_abbrev0:
 1680 0000 01       		.uleb128 0x1
 1681 0001 11       		.uleb128 0x11
 1682 0002 01       		.byte	0x1
 1683 0003 25       		.uleb128 0x25
 1684 0004 0E       		.uleb128 0xe
 1685 0005 13       		.uleb128 0x13
 1686 0006 0B       		.uleb128 0xb
 1687 0007 03       		.uleb128 0x3
 1688 0008 0E       		.uleb128 0xe
 1689 0009 1B       		.uleb128 0x1b
 1690 000a 0E       		.uleb128 0xe
 1691 000b 55       		.uleb128 0x55
 1692 000c 17       		.uleb128 0x17
 1693 000d 11       		.uleb128 0x11
 1694 000e 01       		.uleb128 0x1
 1695 000f 10       		.uleb128 0x10
 1696 0010 17       		.uleb128 0x17
 1697 0011 00       		.byte	0
 1698 0012 00       		.byte	0
 1699 0013 02       		.uleb128 0x2
 1700 0014 24       		.uleb128 0x24
 1701 0015 00       		.byte	0
 1702 0016 0B       		.uleb128 0xb
 1703 0017 0B       		.uleb128 0xb
 1704 0018 3E       		.uleb128 0x3e
 1705 0019 0B       		.uleb128 0xb
 1706 001a 03       		.uleb128 0x3
 1707 001b 08       		.uleb128 0x8
 1708 001c 00       		.byte	0
 1709 001d 00       		.byte	0
ARM GAS  /tmp/cc4zuTcv.s 			page 58


 1710 001e 03       		.uleb128 0x3
 1711 001f 16       		.uleb128 0x16
 1712 0020 00       		.byte	0
 1713 0021 03       		.uleb128 0x3
 1714 0022 0E       		.uleb128 0xe
 1715 0023 3A       		.uleb128 0x3a
 1716 0024 0B       		.uleb128 0xb
 1717 0025 3B       		.uleb128 0x3b
 1718 0026 0B       		.uleb128 0xb
 1719 0027 49       		.uleb128 0x49
 1720 0028 13       		.uleb128 0x13
 1721 0029 00       		.byte	0
 1722 002a 00       		.byte	0
 1723 002b 04       		.uleb128 0x4
 1724 002c 24       		.uleb128 0x24
 1725 002d 00       		.byte	0
 1726 002e 0B       		.uleb128 0xb
 1727 002f 0B       		.uleb128 0xb
 1728 0030 3E       		.uleb128 0x3e
 1729 0031 0B       		.uleb128 0xb
 1730 0032 03       		.uleb128 0x3
 1731 0033 0E       		.uleb128 0xe
 1732 0034 00       		.byte	0
 1733 0035 00       		.byte	0
 1734 0036 05       		.uleb128 0x5
 1735 0037 13       		.uleb128 0x13
 1736 0038 01       		.byte	0x1
 1737 0039 03       		.uleb128 0x3
 1738 003a 0E       		.uleb128 0xe
 1739 003b 0B       		.uleb128 0xb
 1740 003c 0B       		.uleb128 0xb
 1741 003d 3A       		.uleb128 0x3a
 1742 003e 0B       		.uleb128 0xb
 1743 003f 3B       		.uleb128 0x3b
 1744 0040 0B       		.uleb128 0xb
 1745 0041 01       		.uleb128 0x1
 1746 0042 13       		.uleb128 0x13
 1747 0043 00       		.byte	0
 1748 0044 00       		.byte	0
 1749 0045 06       		.uleb128 0x6
 1750 0046 0D       		.uleb128 0xd
 1751 0047 00       		.byte	0
 1752 0048 03       		.uleb128 0x3
 1753 0049 0E       		.uleb128 0xe
 1754 004a 3A       		.uleb128 0x3a
 1755 004b 0B       		.uleb128 0xb
 1756 004c 3B       		.uleb128 0x3b
 1757 004d 0B       		.uleb128 0xb
 1758 004e 49       		.uleb128 0x49
 1759 004f 13       		.uleb128 0x13
 1760 0050 38       		.uleb128 0x38
 1761 0051 0B       		.uleb128 0xb
 1762 0052 00       		.byte	0
 1763 0053 00       		.byte	0
 1764 0054 07       		.uleb128 0x7
 1765 0055 0D       		.uleb128 0xd
 1766 0056 00       		.byte	0
ARM GAS  /tmp/cc4zuTcv.s 			page 59


 1767 0057 03       		.uleb128 0x3
 1768 0058 08       		.uleb128 0x8
 1769 0059 3A       		.uleb128 0x3a
 1770 005a 0B       		.uleb128 0xb
 1771 005b 3B       		.uleb128 0x3b
 1772 005c 05       		.uleb128 0x5
 1773 005d 49       		.uleb128 0x49
 1774 005e 13       		.uleb128 0x13
 1775 005f 38       		.uleb128 0x38
 1776 0060 0B       		.uleb128 0xb
 1777 0061 00       		.byte	0
 1778 0062 00       		.byte	0
 1779 0063 08       		.uleb128 0x8
 1780 0064 0D       		.uleb128 0xd
 1781 0065 00       		.byte	0
 1782 0066 03       		.uleb128 0x3
 1783 0067 0E       		.uleb128 0xe
 1784 0068 3A       		.uleb128 0x3a
 1785 0069 0B       		.uleb128 0xb
 1786 006a 3B       		.uleb128 0x3b
 1787 006b 05       		.uleb128 0x5
 1788 006c 49       		.uleb128 0x49
 1789 006d 13       		.uleb128 0x13
 1790 006e 38       		.uleb128 0x38
 1791 006f 0B       		.uleb128 0xb
 1792 0070 00       		.byte	0
 1793 0071 00       		.byte	0
 1794 0072 09       		.uleb128 0x9
 1795 0073 0F       		.uleb128 0xf
 1796 0074 00       		.byte	0
 1797 0075 0B       		.uleb128 0xb
 1798 0076 0B       		.uleb128 0xb
 1799 0077 49       		.uleb128 0x49
 1800 0078 13       		.uleb128 0x13
 1801 0079 00       		.byte	0
 1802 007a 00       		.byte	0
 1803 007b 0A       		.uleb128 0xa
 1804 007c 13       		.uleb128 0x13
 1805 007d 01       		.byte	0x1
 1806 007e 03       		.uleb128 0x3
 1807 007f 0E       		.uleb128 0xe
 1808 0080 0B       		.uleb128 0xb
 1809 0081 0B       		.uleb128 0xb
 1810 0082 3A       		.uleb128 0x3a
 1811 0083 0B       		.uleb128 0xb
 1812 0084 3B       		.uleb128 0x3b
 1813 0085 05       		.uleb128 0x5
 1814 0086 01       		.uleb128 0x1
 1815 0087 13       		.uleb128 0x13
 1816 0088 00       		.byte	0
 1817 0089 00       		.byte	0
 1818 008a 0B       		.uleb128 0xb
 1819 008b 15       		.uleb128 0x15
 1820 008c 01       		.byte	0x1
 1821 008d 27       		.uleb128 0x27
 1822 008e 19       		.uleb128 0x19
 1823 008f 01       		.uleb128 0x1
ARM GAS  /tmp/cc4zuTcv.s 			page 60


 1824 0090 13       		.uleb128 0x13
 1825 0091 00       		.byte	0
 1826 0092 00       		.byte	0
 1827 0093 0C       		.uleb128 0xc
 1828 0094 05       		.uleb128 0x5
 1829 0095 00       		.byte	0
 1830 0096 49       		.uleb128 0x49
 1831 0097 13       		.uleb128 0x13
 1832 0098 00       		.byte	0
 1833 0099 00       		.byte	0
 1834 009a 0D       		.uleb128 0xd
 1835 009b 0F       		.uleb128 0xf
 1836 009c 00       		.byte	0
 1837 009d 0B       		.uleb128 0xb
 1838 009e 0B       		.uleb128 0xb
 1839 009f 00       		.byte	0
 1840 00a0 00       		.byte	0
 1841 00a1 0E       		.uleb128 0xe
 1842 00a2 13       		.uleb128 0x13
 1843 00a3 01       		.byte	0x1
 1844 00a4 03       		.uleb128 0x3
 1845 00a5 0E       		.uleb128 0xe
 1846 00a6 0B       		.uleb128 0xb
 1847 00a7 05       		.uleb128 0x5
 1848 00a8 3A       		.uleb128 0x3a
 1849 00a9 0B       		.uleb128 0xb
 1850 00aa 3B       		.uleb128 0x3b
 1851 00ab 05       		.uleb128 0x5
 1852 00ac 01       		.uleb128 0x1
 1853 00ad 13       		.uleb128 0x13
 1854 00ae 00       		.byte	0
 1855 00af 00       		.byte	0
 1856 00b0 0F       		.uleb128 0xf
 1857 00b1 0D       		.uleb128 0xd
 1858 00b2 00       		.byte	0
 1859 00b3 03       		.uleb128 0x3
 1860 00b4 08       		.uleb128 0x8
 1861 00b5 3A       		.uleb128 0x3a
 1862 00b6 0B       		.uleb128 0xb
 1863 00b7 3B       		.uleb128 0x3b
 1864 00b8 0B       		.uleb128 0xb
 1865 00b9 49       		.uleb128 0x49
 1866 00ba 13       		.uleb128 0x13
 1867 00bb 38       		.uleb128 0x38
 1868 00bc 0B       		.uleb128 0xb
 1869 00bd 00       		.byte	0
 1870 00be 00       		.byte	0
 1871 00bf 10       		.uleb128 0x10
 1872 00c0 13       		.uleb128 0x13
 1873 00c1 01       		.byte	0x1
 1874 00c2 0B       		.uleb128 0xb
 1875 00c3 0B       		.uleb128 0xb
 1876 00c4 3A       		.uleb128 0x3a
 1877 00c5 0B       		.uleb128 0xb
 1878 00c6 3B       		.uleb128 0x3b
 1879 00c7 0B       		.uleb128 0xb
 1880 00c8 01       		.uleb128 0x1
ARM GAS  /tmp/cc4zuTcv.s 			page 61


 1881 00c9 13       		.uleb128 0x13
 1882 00ca 00       		.byte	0
 1883 00cb 00       		.byte	0
 1884 00cc 11       		.uleb128 0x11
 1885 00cd 17       		.uleb128 0x17
 1886 00ce 01       		.byte	0x1
 1887 00cf 0B       		.uleb128 0xb
 1888 00d0 0B       		.uleb128 0xb
 1889 00d1 3A       		.uleb128 0x3a
 1890 00d2 0B       		.uleb128 0xb
 1891 00d3 3B       		.uleb128 0x3b
 1892 00d4 0B       		.uleb128 0xb
 1893 00d5 01       		.uleb128 0x1
 1894 00d6 13       		.uleb128 0x13
 1895 00d7 00       		.byte	0
 1896 00d8 00       		.byte	0
 1897 00d9 12       		.uleb128 0x12
 1898 00da 0D       		.uleb128 0xd
 1899 00db 00       		.byte	0
 1900 00dc 03       		.uleb128 0x3
 1901 00dd 0E       		.uleb128 0xe
 1902 00de 3A       		.uleb128 0x3a
 1903 00df 0B       		.uleb128 0xb
 1904 00e0 3B       		.uleb128 0x3b
 1905 00e1 05       		.uleb128 0x5
 1906 00e2 49       		.uleb128 0x49
 1907 00e3 13       		.uleb128 0x13
 1908 00e4 00       		.byte	0
 1909 00e5 00       		.byte	0
 1910 00e6 13       		.uleb128 0x13
 1911 00e7 26       		.uleb128 0x26
 1912 00e8 00       		.byte	0
 1913 00e9 49       		.uleb128 0x49
 1914 00ea 13       		.uleb128 0x13
 1915 00eb 00       		.byte	0
 1916 00ec 00       		.byte	0
 1917 00ed 14       		.uleb128 0x14
 1918 00ee 35       		.uleb128 0x35
 1919 00ef 00       		.byte	0
 1920 00f0 49       		.uleb128 0x49
 1921 00f1 13       		.uleb128 0x13
 1922 00f2 00       		.byte	0
 1923 00f3 00       		.byte	0
 1924 00f4 15       		.uleb128 0x15
 1925 00f5 01       		.uleb128 0x1
 1926 00f6 01       		.byte	0x1
 1927 00f7 49       		.uleb128 0x49
 1928 00f8 13       		.uleb128 0x13
 1929 00f9 01       		.uleb128 0x1
 1930 00fa 13       		.uleb128 0x13
 1931 00fb 00       		.byte	0
 1932 00fc 00       		.byte	0
 1933 00fd 16       		.uleb128 0x16
 1934 00fe 21       		.uleb128 0x21
 1935 00ff 00       		.byte	0
 1936 0100 49       		.uleb128 0x49
 1937 0101 13       		.uleb128 0x13
ARM GAS  /tmp/cc4zuTcv.s 			page 62


 1938 0102 2F       		.uleb128 0x2f
 1939 0103 0B       		.uleb128 0xb
 1940 0104 00       		.byte	0
 1941 0105 00       		.byte	0
 1942 0106 17       		.uleb128 0x17
 1943 0107 15       		.uleb128 0x15
 1944 0108 00       		.byte	0
 1945 0109 27       		.uleb128 0x27
 1946 010a 19       		.uleb128 0x19
 1947 010b 00       		.byte	0
 1948 010c 00       		.byte	0
 1949 010d 18       		.uleb128 0x18
 1950 010e 2E       		.uleb128 0x2e
 1951 010f 00       		.byte	0
 1952 0110 03       		.uleb128 0x3
 1953 0111 0E       		.uleb128 0xe
 1954 0112 3A       		.uleb128 0x3a
 1955 0113 0B       		.uleb128 0xb
 1956 0114 3B       		.uleb128 0x3b
 1957 0115 0B       		.uleb128 0xb
 1958 0116 27       		.uleb128 0x27
 1959 0117 19       		.uleb128 0x19
 1960 0118 49       		.uleb128 0x49
 1961 0119 13       		.uleb128 0x13
 1962 011a 11       		.uleb128 0x11
 1963 011b 01       		.uleb128 0x1
 1964 011c 12       		.uleb128 0x12
 1965 011d 06       		.uleb128 0x6
 1966 011e 40       		.uleb128 0x40
 1967 011f 18       		.uleb128 0x18
 1968 0120 9742     		.uleb128 0x2117
 1969 0122 19       		.uleb128 0x19
 1970 0123 00       		.byte	0
 1971 0124 00       		.byte	0
 1972 0125 19       		.uleb128 0x19
 1973 0126 2E       		.uleb128 0x2e
 1974 0127 00       		.byte	0
 1975 0128 03       		.uleb128 0x3
 1976 0129 0E       		.uleb128 0xe
 1977 012a 3A       		.uleb128 0x3a
 1978 012b 0B       		.uleb128 0xb
 1979 012c 3B       		.uleb128 0x3b
 1980 012d 0B       		.uleb128 0xb
 1981 012e 27       		.uleb128 0x27
 1982 012f 19       		.uleb128 0x19
 1983 0130 49       		.uleb128 0x49
 1984 0131 13       		.uleb128 0x13
 1985 0132 11       		.uleb128 0x11
 1986 0133 01       		.uleb128 0x1
 1987 0134 12       		.uleb128 0x12
 1988 0135 06       		.uleb128 0x6
 1989 0136 40       		.uleb128 0x40
 1990 0137 18       		.uleb128 0x18
 1991 0138 9642     		.uleb128 0x2116
 1992 013a 19       		.uleb128 0x19
 1993 013b 00       		.byte	0
 1994 013c 00       		.byte	0
ARM GAS  /tmp/cc4zuTcv.s 			page 63


 1995 013d 1A       		.uleb128 0x1a
 1996 013e 2E       		.uleb128 0x2e
 1997 013f 01       		.byte	0x1
 1998 0140 03       		.uleb128 0x3
 1999 0141 0E       		.uleb128 0xe
 2000 0142 3A       		.uleb128 0x3a
 2001 0143 0B       		.uleb128 0xb
 2002 0144 3B       		.uleb128 0x3b
 2003 0145 0B       		.uleb128 0xb
 2004 0146 27       		.uleb128 0x27
 2005 0147 19       		.uleb128 0x19
 2006 0148 49       		.uleb128 0x49
 2007 0149 13       		.uleb128 0x13
 2008 014a 11       		.uleb128 0x11
 2009 014b 01       		.uleb128 0x1
 2010 014c 12       		.uleb128 0x12
 2011 014d 06       		.uleb128 0x6
 2012 014e 40       		.uleb128 0x40
 2013 014f 18       		.uleb128 0x18
 2014 0150 9742     		.uleb128 0x2117
 2015 0152 19       		.uleb128 0x19
 2016 0153 01       		.uleb128 0x1
 2017 0154 13       		.uleb128 0x13
 2018 0155 00       		.byte	0
 2019 0156 00       		.byte	0
 2020 0157 1B       		.uleb128 0x1b
 2021 0158 05       		.uleb128 0x5
 2022 0159 00       		.byte	0
 2023 015a 03       		.uleb128 0x3
 2024 015b 08       		.uleb128 0x8
 2025 015c 3A       		.uleb128 0x3a
 2026 015d 0B       		.uleb128 0xb
 2027 015e 3B       		.uleb128 0x3b
 2028 015f 0B       		.uleb128 0xb
 2029 0160 49       		.uleb128 0x49
 2030 0161 13       		.uleb128 0x13
 2031 0162 02       		.uleb128 0x2
 2032 0163 18       		.uleb128 0x18
 2033 0164 00       		.byte	0
 2034 0165 00       		.byte	0
 2035 0166 1C       		.uleb128 0x1c
 2036 0167 34       		.uleb128 0x34
 2037 0168 00       		.byte	0
 2038 0169 03       		.uleb128 0x3
 2039 016a 0E       		.uleb128 0xe
 2040 016b 49       		.uleb128 0x49
 2041 016c 13       		.uleb128 0x13
 2042 016d 34       		.uleb128 0x34
 2043 016e 19       		.uleb128 0x19
 2044 016f 00       		.byte	0
 2045 0170 00       		.byte	0
 2046 0171 1D       		.uleb128 0x1d
 2047 0172 2E       		.uleb128 0x2e
 2048 0173 01       		.byte	0x1
 2049 0174 03       		.uleb128 0x3
 2050 0175 0E       		.uleb128 0xe
 2051 0176 3A       		.uleb128 0x3a
ARM GAS  /tmp/cc4zuTcv.s 			page 64


 2052 0177 0B       		.uleb128 0xb
 2053 0178 3B       		.uleb128 0x3b
 2054 0179 0B       		.uleb128 0xb
 2055 017a 27       		.uleb128 0x27
 2056 017b 19       		.uleb128 0x19
 2057 017c 11       		.uleb128 0x11
 2058 017d 01       		.uleb128 0x1
 2059 017e 12       		.uleb128 0x12
 2060 017f 06       		.uleb128 0x6
 2061 0180 40       		.uleb128 0x40
 2062 0181 18       		.uleb128 0x18
 2063 0182 9642     		.uleb128 0x2116
 2064 0184 19       		.uleb128 0x19
 2065 0185 01       		.uleb128 0x1
 2066 0186 13       		.uleb128 0x13
 2067 0187 00       		.byte	0
 2068 0188 00       		.byte	0
 2069 0189 1E       		.uleb128 0x1e
 2070 018a 34       		.uleb128 0x34
 2071 018b 00       		.byte	0
 2072 018c 03       		.uleb128 0x3
 2073 018d 08       		.uleb128 0x8
 2074 018e 3A       		.uleb128 0x3a
 2075 018f 0B       		.uleb128 0xb
 2076 0190 3B       		.uleb128 0x3b
 2077 0191 0B       		.uleb128 0xb
 2078 0192 49       		.uleb128 0x49
 2079 0193 13       		.uleb128 0x13
 2080 0194 02       		.uleb128 0x2
 2081 0195 18       		.uleb128 0x18
 2082 0196 00       		.byte	0
 2083 0197 00       		.byte	0
 2084 0198 1F       		.uleb128 0x1f
 2085 0199 34       		.uleb128 0x34
 2086 019a 00       		.byte	0
 2087 019b 03       		.uleb128 0x3
 2088 019c 0E       		.uleb128 0xe
 2089 019d 3A       		.uleb128 0x3a
 2090 019e 0B       		.uleb128 0xb
 2091 019f 3B       		.uleb128 0x3b
 2092 01a0 05       		.uleb128 0x5
 2093 01a1 49       		.uleb128 0x49
 2094 01a2 13       		.uleb128 0x13
 2095 01a3 3F       		.uleb128 0x3f
 2096 01a4 19       		.uleb128 0x19
 2097 01a5 3C       		.uleb128 0x3c
 2098 01a6 19       		.uleb128 0x19
 2099 01a7 00       		.byte	0
 2100 01a8 00       		.byte	0
 2101 01a9 20       		.uleb128 0x20
 2102 01aa 34       		.uleb128 0x34
 2103 01ab 00       		.byte	0
 2104 01ac 03       		.uleb128 0x3
 2105 01ad 08       		.uleb128 0x8
 2106 01ae 3A       		.uleb128 0x3a
 2107 01af 0B       		.uleb128 0xb
 2108 01b0 3B       		.uleb128 0x3b
ARM GAS  /tmp/cc4zuTcv.s 			page 65


 2109 01b1 05       		.uleb128 0x5
 2110 01b2 49       		.uleb128 0x49
 2111 01b3 13       		.uleb128 0x13
 2112 01b4 3F       		.uleb128 0x3f
 2113 01b5 19       		.uleb128 0x19
 2114 01b6 3C       		.uleb128 0x3c
 2115 01b7 19       		.uleb128 0x19
 2116 01b8 00       		.byte	0
 2117 01b9 00       		.byte	0
 2118 01ba 21       		.uleb128 0x21
 2119 01bb 34       		.uleb128 0x34
 2120 01bc 00       		.byte	0
 2121 01bd 03       		.uleb128 0x3
 2122 01be 0E       		.uleb128 0xe
 2123 01bf 3A       		.uleb128 0x3a
 2124 01c0 0B       		.uleb128 0xb
 2125 01c1 3B       		.uleb128 0x3b
 2126 01c2 0B       		.uleb128 0xb
 2127 01c3 49       		.uleb128 0x49
 2128 01c4 13       		.uleb128 0x13
 2129 01c5 3F       		.uleb128 0x3f
 2130 01c6 19       		.uleb128 0x19
 2131 01c7 3C       		.uleb128 0x3c
 2132 01c8 19       		.uleb128 0x19
 2133 01c9 00       		.byte	0
 2134 01ca 00       		.byte	0
 2135 01cb 22       		.uleb128 0x22
 2136 01cc 21       		.uleb128 0x21
 2137 01cd 00       		.byte	0
 2138 01ce 00       		.byte	0
 2139 01cf 00       		.byte	0
 2140 01d0 23       		.uleb128 0x23
 2141 01d1 34       		.uleb128 0x34
 2142 01d2 00       		.byte	0
 2143 01d3 03       		.uleb128 0x3
 2144 01d4 08       		.uleb128 0x8
 2145 01d5 3A       		.uleb128 0x3a
 2146 01d6 0B       		.uleb128 0xb
 2147 01d7 3B       		.uleb128 0x3b
 2148 01d8 0B       		.uleb128 0xb
 2149 01d9 49       		.uleb128 0x49
 2150 01da 13       		.uleb128 0x13
 2151 01db 3F       		.uleb128 0x3f
 2152 01dc 19       		.uleb128 0x19
 2153 01dd 3C       		.uleb128 0x3c
 2154 01de 19       		.uleb128 0x19
 2155 01df 00       		.byte	0
 2156 01e0 00       		.byte	0
 2157 01e1 24       		.uleb128 0x24
 2158 01e2 34       		.uleb128 0x34
 2159 01e3 00       		.byte	0
 2160 01e4 03       		.uleb128 0x3
 2161 01e5 0E       		.uleb128 0xe
 2162 01e6 3A       		.uleb128 0x3a
 2163 01e7 0B       		.uleb128 0xb
 2164 01e8 3B       		.uleb128 0x3b
 2165 01e9 0B       		.uleb128 0xb
ARM GAS  /tmp/cc4zuTcv.s 			page 66


 2166 01ea 49       		.uleb128 0x49
 2167 01eb 13       		.uleb128 0x13
 2168 01ec 3F       		.uleb128 0x3f
 2169 01ed 19       		.uleb128 0x19
 2170 01ee 02       		.uleb128 0x2
 2171 01ef 18       		.uleb128 0x18
 2172 01f0 00       		.byte	0
 2173 01f1 00       		.byte	0
 2174 01f2 00       		.byte	0
 2175              		.section	.debug_aranges,"",%progbits
 2176 0000 3C000000 		.4byte	0x3c
 2177 0004 0200     		.2byte	0x2
 2178 0006 00000000 		.4byte	.Ldebug_info0
 2179 000a 04       		.byte	0x4
 2180 000b 00       		.byte	0
 2181 000c 0000     		.2byte	0
 2182 000e 0000     		.2byte	0
 2183 0010 00000000 		.4byte	.LFB189
 2184 0014 0C000000 		.4byte	.LFE189-.LFB189
 2185 0018 00000000 		.4byte	.LFB190
 2186 001c 0E000000 		.4byte	.LFE190-.LFB190
 2187 0020 00000000 		.4byte	.LFB223
 2188 0024 0E000000 		.4byte	.LFE223-.LFB223
 2189 0028 00000000 		.4byte	.LFB241
 2190 002c 24000000 		.4byte	.LFE241-.LFB241
 2191 0030 00000000 		.4byte	.LFB242
 2192 0034 B0000000 		.4byte	.LFE242-.LFB242
 2193 0038 00000000 		.4byte	0
 2194 003c 00000000 		.4byte	0
 2195              		.section	.debug_ranges,"",%progbits
 2196              	.Ldebug_ranges0:
 2197 0000 00000000 		.4byte	.LFB189
 2198 0004 0C000000 		.4byte	.LFE189
 2199 0008 00000000 		.4byte	.LFB190
 2200 000c 0E000000 		.4byte	.LFE190
 2201 0010 00000000 		.4byte	.LFB223
 2202 0014 0E000000 		.4byte	.LFE223
 2203 0018 00000000 		.4byte	.LFB241
 2204 001c 24000000 		.4byte	.LFE241
 2205 0020 00000000 		.4byte	.LFB242
 2206 0024 B0000000 		.4byte	.LFE242
 2207 0028 00000000 		.4byte	0
 2208 002c 00000000 		.4byte	0
 2209              		.section	.debug_line,"",%progbits
 2210              	.Ldebug_line0:
 2211 0000 4A030000 		.section	.debug_str,"MS",%progbits,1
 2211      0200CD02 
 2211      00000201 
 2211      FB0E0D00 
 2211      01010101 
 2212              	.LASF51:
 2213 0000 72656164 		.ascii	"ready_list_t\000"
 2213      795F6C69 
 2213      73745F74 
 2213      00
 2214              	.LASF2:
 2215 000d 73697A65 		.ascii	"size_t\000"
ARM GAS  /tmp/cc4zuTcv.s 			page 67


 2215      5F7400
 2216              	.LASF86:
 2217 0014 7264796D 		.ascii	"rdymsg\000"
 2217      736700
 2218              	.LASF17:
 2219 001b 75696E74 		.ascii	"uint64_t\000"
 2219      36345F74 
 2219      00
 2220              	.LASF3:
 2221 0024 5F5F7569 		.ascii	"__uint8_t\000"
 2221      6E74385F 
 2221      7400
 2222              	.LASF83:
 2223 002e 706F7274 		.ascii	"port_intctx\000"
 2223      5F696E74 
 2223      63747800 
 2224              	.LASF70:
 2225 003a 73797374 		.ascii	"system_debug_t\000"
 2225      656D5F64 
 2225      65627567 
 2225      5F7400
 2226              	.LASF13:
 2227 0049 6C6F6E67 		.ascii	"long long unsigned int\000"
 2227      206C6F6E 
 2227      6720756E 
 2227      7369676E 
 2227      65642069 
 2228              	.LASF87:
 2229 0060 65786974 		.ascii	"exitcode\000"
 2229      636F6465 
 2229      00
 2230              	.LASF77:
 2231 0069 6D61696E 		.ascii	"mainthread\000"
 2231      74687265 
 2231      616400
 2232              	.LASF90:
 2233 0074 73656E74 		.ascii	"sentmsg\000"
 2233      6D736700 
 2234              	.LASF67:
 2235 007c 76697274 		.ascii	"virtual_timers_list_t\000"
 2235      75616C5F 
 2235      74696D65 
 2235      72735F6C 
 2235      6973745F 
 2236              	.LASF112:
 2237 0092 49544D5F 		.ascii	"ITM_RxBuffer\000"
 2237      52784275 
 2237      66666572 
 2237      00
 2238              	.LASF50:
 2239 009f 63685F74 		.ascii	"ch_threads_queue\000"
 2239      68726561 
 2239      64735F71 
 2239      75657565 
 2239      00
 2240              	.LASF30:
 2241 00b0 705F7072 		.ascii	"p_prio\000"
ARM GAS  /tmp/cc4zuTcv.s 			page 68


 2241      696F00
 2242              	.LASF11:
 2243 00b7 6C6F6E67 		.ascii	"long long int\000"
 2243      206C6F6E 
 2243      6720696E 
 2243      7400
 2244              	.LASF1:
 2245 00c5 7369676E 		.ascii	"signed char\000"
 2245      65642063 
 2245      68617200 
 2246              	.LASF44:
 2247 00d1 705F6D70 		.ascii	"p_mpool\000"
 2247      6F6F6C00 
 2248              	.LASF98:
 2249 00d9 6D5F7175 		.ascii	"m_queue\000"
 2249      65756500 
 2250              	.LASF76:
 2251 00e1 76746C69 		.ascii	"vtlist\000"
 2251      737400
 2252              	.LASF89:
 2253 00e8 77747472 		.ascii	"wttrp\000"
 2253      7000
 2254              	.LASF74:
 2255 00ee 63685F73 		.ascii	"ch_system\000"
 2255      79737465 
 2255      6D00
 2256              	.LASF8:
 2257 00f8 6C6F6E67 		.ascii	"long int\000"
 2257      20696E74 
 2257      00
 2258              	.LASF20:
 2259 0101 74737461 		.ascii	"tstate_t\000"
 2259      74655F74 
 2259      00
 2260              	.LASF32:
 2261 010a 705F6E65 		.ascii	"p_newer\000"
 2261      77657200 
 2262              	.LASF95:
 2263 0112 735F7175 		.ascii	"s_queue\000"
 2263      65756500 
 2264              	.LASF56:
 2265 011a 725F6E65 		.ascii	"r_newer\000"
 2265      77657200 
 2266              	.LASF80:
 2267 0122 72656761 		.ascii	"regarm_t\000"
 2267      726D5F74 
 2267      00
 2268              	.LASF63:
 2269 012b 76745F70 		.ascii	"vt_prev\000"
 2269      72657600 
 2270              	.LASF102:
 2271 0133 6D757465 		.ascii	"mutex_t\000"
 2271      785F7400 
 2272              	.LASF78:
 2273 013b 69646C65 		.ascii	"idle_thread_wa\000"
 2273      5F746872 
 2273      6561645F 
ARM GAS  /tmp/cc4zuTcv.s 			page 69


 2273      776100
 2274              	.LASF25:
 2275 014a 636E745F 		.ascii	"cnt_t\000"
 2275      7400
 2276              	.LASF116:
 2277 0150 474E5520 		.ascii	"GNU C 4.8.4 20140526 (release) [ARM/embedded-4_8-br"
 2277      4320342E 
 2277      382E3420 
 2277      32303134 
 2277      30353236 
 2278 0183 616E6368 		.ascii	"anch revision 211358] -mcpu=cortex-m4 -mno-thumb-in"
 2278      20726576 
 2278      6973696F 
 2278      6E203231 
 2278      31333538 
 2279 01b6 74657277 		.ascii	"terwork -mthumb -ggdb -O0 -fomit-frame-pointer -fal"
 2279      6F726B20 
 2279      2D6D7468 
 2279      756D6220 
 2279      2D676764 
 2280 01e9 69676E2D 		.ascii	"ign-functions=16 -ffunction-sections -fdata-section"
 2280      66756E63 
 2280      74696F6E 
 2280      733D3136 
 2280      202D6666 
 2281 021c 73202D66 		.ascii	"s -fno-common -flto\000"
 2281      6E6F2D63 
 2281      6F6D6D6F 
 2281      6E202D66 
 2281      6C746F00 
 2282              	.LASF120:
 2283 0230 5F5F6675 		.ascii	"__func__.6141\000"
 2283      6E635F5F 
 2283      2E363134 
 2283      3100
 2284              	.LASF62:
 2285 023e 76745F6E 		.ascii	"vt_next\000"
 2285      65787400 
 2286              	.LASF91:
 2287 0246 77747365 		.ascii	"wtsemp\000"
 2287      6D7000
 2288              	.LASF40:
 2289 024d 705F6D73 		.ascii	"p_msgqueue\000"
 2289      67717565 
 2289      756500
 2290              	.LASF106:
 2291 0258 74656172 		.ascii	"teardown\000"
 2291      646F776E 
 2291      00
 2292              	.LASF119:
 2293 0261 63684D73 		.ascii	"chMsgGet\000"
 2293      67476574 
 2293      00
 2294              	.LASF104:
 2295 026a 6E616D65 		.ascii	"name\000"
 2295      00
 2296              	.LASF96:
ARM GAS  /tmp/cc4zuTcv.s 			page 70


 2297 026f 735F636E 		.ascii	"s_cnt\000"
 2297      7400
 2298              	.LASF6:
 2299 0275 73686F72 		.ascii	"short unsigned int\000"
 2299      7420756E 
 2299      7369676E 
 2299      65642069 
 2299      6E7400
 2300              	.LASF47:
 2301 0288 63685F74 		.ascii	"ch_thread\000"
 2301      68726561 
 2301      6400
 2302              	.LASF23:
 2303 0292 6D73675F 		.ascii	"msg_t\000"
 2303      7400
 2304              	.LASF73:
 2305 0298 63685F73 		.ascii	"ch_system_t\000"
 2305      79737465 
 2305      6D5F7400 
 2306              	.LASF19:
 2307 02a4 746D6F64 		.ascii	"tmode_t\000"
 2307      655F7400 
 2308              	.LASF52:
 2309 02ac 63685F72 		.ascii	"ch_ready_list\000"
 2309      65616479 
 2309      5F6C6973 
 2309      7400
 2310              	.LASF24:
 2311 02ba 6576656E 		.ascii	"eventmask_t\000"
 2311      746D6173 
 2311      6B5F7400 
 2312              	.LASF7:
 2313 02c6 5F5F696E 		.ascii	"__int32_t\000"
 2313      7433325F 
 2313      7400
 2314              	.LASF81:
 2315 02d0 73746B61 		.ascii	"stkalign_t\000"
 2315      6C69676E 
 2315      5F7400
 2316              	.LASF39:
 2317 02db 705F7761 		.ascii	"p_waiting\000"
 2317      6974696E 
 2317      6700
 2318              	.LASF117:
 2319 02e5 2E2E2F43 		.ascii	"../ChibiOS/test/rt/testmsg.c\000"
 2319      68696269 
 2319      4F532F74 
 2319      6573742F 
 2319      72742F74 
 2320              	.LASF115:
 2321 0302 70617474 		.ascii	"patternmsg\000"
 2321      65726E6D 
 2321      736700
 2322              	.LASF79:
 2323 030d 73697A65 		.ascii	"sizetype\000"
 2323      74797065 
 2323      00
ARM GAS  /tmp/cc4zuTcv.s 			page 71


 2324              	.LASF45:
 2325 0316 74687265 		.ascii	"thread_reference_t\000"
 2325      61645F72 
 2325      65666572 
 2325      656E6365 
 2325      5F7400
 2326              	.LASF68:
 2327 0329 63685F76 		.ascii	"ch_virtual_timers_list\000"
 2327      69727475 
 2327      616C5F74 
 2327      696D6572 
 2327      735F6C69 
 2328              	.LASF85:
 2329 0340 746D5F63 		.ascii	"tm_calibration_t\000"
 2329      616C6962 
 2329      72617469 
 2329      6F6E5F74 
 2329      00
 2330              	.LASF69:
 2331 0351 76745F6C 		.ascii	"vt_lasttime\000"
 2331      61737474 
 2331      696D6500 
 2332              	.LASF33:
 2333 035d 705F6F6C 		.ascii	"p_older\000"
 2333      64657200 
 2334              	.LASF55:
 2335 0365 725F6374 		.ascii	"r_ctx\000"
 2335      7800
 2336              	.LASF109:
 2337 036b 63685468 		.ascii	"chThdGetPriorityX\000"
 2337      64476574 
 2337      5072696F 
 2337      72697479 
 2337      5800
 2338              	.LASF105:
 2339 037d 73657475 		.ascii	"setup\000"
 2339      7000
 2340              	.LASF35:
 2341 0383 705F7374 		.ascii	"p_stklimit\000"
 2341      6B6C696D 
 2341      697400
 2342              	.LASF58:
 2343 038e 725F6375 		.ascii	"r_current\000"
 2343      7272656E 
 2343      7400
 2344              	.LASF57:
 2345 0398 725F6F6C 		.ascii	"r_older\000"
 2345      64657200 
 2346              	.LASF12:
 2347 03a0 5F5F7569 		.ascii	"__uint64_t\000"
 2347      6E743634 
 2347      5F7400
 2348              	.LASF21:
 2349 03ab 74726566 		.ascii	"trefs_t\000"
 2349      735F7400 
 2350              	.LASF60:
 2351 03b3 76697274 		.ascii	"virtual_timer_t\000"
ARM GAS  /tmp/cc4zuTcv.s 			page 72


 2351      75616C5F 
 2351      74696D65 
 2351      725F7400 
 2352              	.LASF29:
 2353 03c3 705F7072 		.ascii	"p_prev\000"
 2353      657600
 2354              	.LASF107:
 2355 03ca 65786563 		.ascii	"execute\000"
 2355      75746500 
 2356              	.LASF22:
 2357 03d2 74707269 		.ascii	"tprio_t\000"
 2357      6F5F7400 
 2358              	.LASF110:
 2359 03da 74687265 		.ascii	"thread\000"
 2359      616400
 2360              	.LASF71:
 2361 03e1 63685F73 		.ascii	"ch_system_debug\000"
 2361      79737465 
 2361      6D5F6465 
 2361      62756700 
 2362              	.LASF15:
 2363 03f1 696E7433 		.ascii	"int32_t\000"
 2363      325F7400 
 2364              	.LASF4:
 2365 03f9 756E7369 		.ascii	"unsigned char\000"
 2365      676E6564 
 2365      20636861 
 2365      7200
 2366              	.LASF42:
 2367 0407 705F6D74 		.ascii	"p_mtxlist\000"
 2367      786C6973 
 2367      7400
 2368              	.LASF5:
 2369 0411 73686F72 		.ascii	"short int\000"
 2369      7420696E 
 2369      7400
 2370              	.LASF36:
 2371 041b 705F7374 		.ascii	"p_state\000"
 2371      61746500 
 2372              	.LASF113:
 2373 0423 74687265 		.ascii	"threads\000"
 2373      61647300 
 2374              	.LASF54:
 2375 042b 725F7072 		.ascii	"r_prio\000"
 2375      696F00
 2376              	.LASF114:
 2377 0432 74657374 		.ascii	"testmsg1\000"
 2377      6D736731 
 2377      00
 2378              	.LASF93:
 2379 043b 65776D61 		.ascii	"ewmask\000"
 2379      736B00
 2380              	.LASF28:
 2381 0442 705F6E65 		.ascii	"p_next\000"
 2381      787400
 2382              	.LASF37:
 2383 0449 705F666C 		.ascii	"p_flags\000"
ARM GAS  /tmp/cc4zuTcv.s 			page 73


 2383      61677300 
 2384              	.LASF61:
 2385 0451 63685F76 		.ascii	"ch_virtual_timer\000"
 2385      69727475 
 2385      616C5F74 
 2385      696D6572 
 2385      00
 2386              	.LASF103:
 2387 0462 74657374 		.ascii	"testcase\000"
 2387      63617365 
 2387      00
 2388              	.LASF94:
 2389 046b 63685F73 		.ascii	"ch_semaphore\000"
 2389      656D6170 
 2389      686F7265 
 2389      00
 2390              	.LASF41:
 2391 0478 705F6570 		.ascii	"p_epending\000"
 2391      656E6469 
 2391      6E6700
 2392              	.LASF16:
 2393 0483 75696E74 		.ascii	"uint32_t\000"
 2393      33325F74 
 2393      00
 2394              	.LASF92:
 2395 048c 77746D74 		.ascii	"wtmtxp\000"
 2395      787000
 2396              	.LASF53:
 2397 0493 725F7175 		.ascii	"r_queue\000"
 2397      65756500 
 2398              	.LASF64:
 2399 049b 76745F64 		.ascii	"vt_delta\000"
 2399      656C7461 
 2399      00
 2400              	.LASF48:
 2401 04a4 63685F74 		.ascii	"ch_threads_list\000"
 2401      68726561 
 2401      64735F6C 
 2401      69737400 
 2402              	.LASF118:
 2403 04b4 2F6E6673 		.ascii	"/nfs/nfs4/home/irbrown/Courses/P442/P442WifiTrailCo"
 2403      2F6E6673 
 2403      342F686F 
 2403      6D652F69 
 2403      7262726F 
 2404 04e7 756E7465 		.ascii	"unterProject/milestone3\000"
 2404      7250726F 
 2404      6A656374 
 2404      2F6D696C 
 2404      6573746F 
 2405              	.LASF10:
 2406 04ff 6C6F6E67 		.ascii	"long unsigned int\000"
 2406      20756E73 
 2406      69676E65 
 2406      6420696E 
 2406      7400
 2407              	.LASF101:
ARM GAS  /tmp/cc4zuTcv.s 			page 74


 2408 0511 63686172 		.ascii	"char\000"
 2408      00
 2409              	.LASF0:
 2410 0516 756E7369 		.ascii	"unsigned int\000"
 2410      676E6564 
 2410      20696E74 
 2410      00
 2411              	.LASF27:
 2412 0523 74687265 		.ascii	"thread_t\000"
 2412      61645F74 
 2412      00
 2413              	.LASF100:
 2414 052c 6D5F6E65 		.ascii	"m_next\000"
 2414      787400
 2415              	.LASF26:
 2416 0533 73797374 		.ascii	"systime_t\000"
 2416      696D655F 
 2416      7400
 2417              	.LASF43:
 2418 053d 705F7265 		.ascii	"p_realprio\000"
 2418      616C7072 
 2418      696F00
 2419              	.LASF59:
 2420 0548 76746675 		.ascii	"vtfunc_t\000"
 2420      6E635F74 
 2420      00
 2421              	.LASF9:
 2422 0551 5F5F7569 		.ascii	"__uint32_t\000"
 2422      6E743332 
 2422      5F7400
 2423              	.LASF72:
 2424 055c 70616E69 		.ascii	"panic_msg\000"
 2424      635F6D73 
 2424      6700
 2425              	.LASF84:
 2426 0566 6F666673 		.ascii	"offset\000"
 2426      657400
 2427              	.LASF82:
 2428 056d 636F6E74 		.ascii	"context\000"
 2428      65787400 
 2429              	.LASF18:
 2430 0575 7274636E 		.ascii	"rtcnt_t\000"
 2430      745F7400 
 2431              	.LASF66:
 2432 057d 76745F70 		.ascii	"vt_par\000"
 2432      617200
 2433              	.LASF49:
 2434 0584 74687265 		.ascii	"threads_queue_t\000"
 2434      6164735F 
 2434      71756575 
 2434      655F7400 
 2435              	.LASF97:
 2436 0594 63685F6D 		.ascii	"ch_mutex\000"
 2436      75746578 
 2436      00
 2437              	.LASF38:
 2438 059d 705F7265 		.ascii	"p_refs\000"
ARM GAS  /tmp/cc4zuTcv.s 			page 75


 2438      667300
 2439              	.LASF75:
 2440 05a4 726C6973 		.ascii	"rlist\000"
 2440      7400
 2441              	.LASF108:
 2442 05aa 63685468 		.ascii	"chThdGetSelfX\000"
 2442      64476574 
 2442      53656C66 
 2442      5800
 2443              	.LASF14:
 2444 05b8 75696E74 		.ascii	"uint8_t\000"
 2444      385F7400 
 2445              	.LASF111:
 2446 05c0 6D736731 		.ascii	"msg1_execute\000"
 2446      5F657865 
 2446      63757465 
 2446      00
 2447              	.LASF88:
 2448 05cd 77746F62 		.ascii	"wtobjp\000"
 2448      6A7000
 2449              	.LASF34:
 2450 05d4 705F6E61 		.ascii	"p_name\000"
 2450      6D6500
 2451              	.LASF46:
 2452 05db 74687265 		.ascii	"threads_list_t\000"
 2452      6164735F 
 2452      6C697374 
 2452      5F7400
 2453              	.LASF99:
 2454 05ea 6D5F6F77 		.ascii	"m_owner\000"
 2454      6E657200 
 2455              	.LASF31:
 2456 05f2 705F6374 		.ascii	"p_ctx\000"
 2456      7800
 2457              	.LASF65:
 2458 05f8 76745F66 		.ascii	"vt_func\000"
 2458      756E6300 
 2459              		.comm	__gnu_lto_v1,1,1
 2460              		.ident	"GCC: (GNU Tools for ARM Embedded Processors) 4.8.4 20140526 (release) [ARM/embedded-4_8-br
ARM GAS  /tmp/cc4zuTcv.s 			page 76


DEFINED SYMBOLS
                            *ABS*:00000000 testmsg.c
     /tmp/cc4zuTcv.s:454    .text.chThdGetSelfX:00000000 $t
     /tmp/cc4zuTcv.s:459    .text.chThdGetSelfX:00000000 chThdGetSelfX
     /tmp/cc4zuTcv.s:476    .text.chThdGetSelfX:00000008 $d
     /tmp/cc4zuTcv.s:481    .text.chThdGetPriorityX:00000000 $t
     /tmp/cc4zuTcv.s:486    .text.chThdGetPriorityX:00000000 chThdGetPriorityX
     /tmp/cc4zuTcv.s:507    .text.chMsgGet:00000000 $t
     /tmp/cc4zuTcv.s:512    .text.chMsgGet:00000000 chMsgGet
     /tmp/cc4zuTcv.s:535    .text.thread:00000000 $t
     /tmp/cc4zuTcv.s:540    .text.thread:00000000 thread
     /tmp/cc4zuTcv.s:573    .rodata:00000000 $d
     /tmp/cc4zuTcv.s:577    .text.msg1_execute:00000000 $t
     /tmp/cc4zuTcv.s:582    .text.msg1_execute:00000000 msg1_execute
     /tmp/cc4zuTcv.s:679    .text.msg1_execute:000000a0 $d
     /tmp/cc4zuTcv.s:695    .rodata.testmsg1:00000000 testmsg1
     /tmp/cc4zuTcv.s:692    .rodata.testmsg1:00000000 $d
     /tmp/cc4zuTcv.s:705    .rodata.patternmsg:00000000 patternmsg
     /tmp/cc4zuTcv.s:702    .rodata.patternmsg:00000000 $d
                            *COM*:00000001 __gnu_lto_v1
                     .debug_frame:00000010 $d
     /tmp/cc4zuTcv.s:480    .text.chThdGetSelfX:0000000c $t

UNDEFINED SYMBOLS
ch
chMsgSend
chThdCreateStatic
chMsgWait
chMsgRelease
test_emit_token
_test_assert_sequence
wa
threads
