ARM GAS  /tmp/cchU44nR.s 			page 1


   1              		.syntax unified
   2              		.cpu cortex-m4
   3              		.fpu softvfp
   4              		.eabi_attribute 20, 1
   5              		.eabi_attribute 21, 1
   6              		.eabi_attribute 23, 3
   7              		.eabi_attribute 24, 1
   8              		.eabi_attribute 25, 1
   9              		.eabi_attribute 26, 1
  10              		.eabi_attribute 30, 6
  11              		.eabi_attribute 34, 1
  12              		.eabi_attribute 18, 4
  13              		.thumb
  14              		.file	"testheap.c"
  15              		.text
  16              	.Ltext0:
  17              		.section	.gnu.lto_.inline.8c106e511bff74f7,"",%progbits
  18 0000 789C6362 		.ascii	"x\234cb`b\300\006\034\031!4P\226\235\037H1-\220g`\201"
  18      6062C006 
  18      1C192134 
  18      50969D1F 
  18      48312D90 
  19 0017 A865E105 		.ascii	"\250e\341\005\022\314\014\317\031\257\262\002%\302\016"
  19      12CC0CCF 
  19      19AFB202 
  19      25C20E
  20 0026 AC674591 		.ascii	"\254gE\221A\020L\334\230b\314<\230J\260\251\303&\206"
  20      41104CDC 
  20      9862CC3C 
  20      984AB0A9 
  20      C32686
  21 0039 5F07E906 		.ascii	"_\007\351\006\3407\005\277:l\376@\223e\344\002\205\011"
  21      E03705BF 
  21      3A6CFE40 
  21      9365E402 
  21      8509
  22 004b 00749A08 		.ascii	"\000t\232\0103"
  22      33
  23              		.text
  24              		.section	.gnu.lto_heap1_setup.8c106e511bff74f7,"",%progbits
  25 0000 789C6362 		.ascii	"x\234cb`b@\007\"@\274\013\210\025@\034f\006F\240\012"
  25      60624007 
  25      2240BC0B 
  25      8815401C 
  25      660646A0 
  26 0015 46264646 		.ascii	"F&FF \207\221\241\236\211\261>\222\021\254l=\323\201"
  26      208791A1 
  26      9E89B13E 
  26      9211AC6C 
  26      3DD381
  27 0028 07FFFFAF 		.ascii	"\007\377\377\257\233pl\376\036\306\031L 1V\206\226\206"
  27      9B706CFE 
  27      1EC6194C 
  27      20315686 
  27      9686
  28 003a 8609406D 		.ascii	"\206\011@m\311`\025!`2\024\244\237\371<C\333\203\256"
  28      C9601521 
ARM GAS  /tmp/cchU44nR.s 			page 2


  28      603214A4 
  28      9FF93C43 
  28      DB83AE
  29 004d C75C898C 		.ascii	"\307\\\211\214\013\031Y\201\202\325\014\277\032:\032"
  29      0B195981 
  29      82D50CBF 
  29      1A3A1A
  30 005c 04321981 		.ascii	"\0042\031\201J!\246\201D82\031\031s\031\031\240\212"
  30      4A21A681 
  30      44383219 
  30      19731919 
  30      A08A
  31 006e 206A1A26 		.ascii	" j\032&2f22i3\254j\000\202\231@6s.#c\022D\017Le\004"
  31      32663232 
  31      6933AC6A 
  31      00829940 
  31      36732E23 
  32 0089 5098E505 		.ascii	"P\230\345\005\017C&\210s\221\241\361A\2672\314\"\010"
  32      0F432688 
  32      7391A1F1 
  32      41B732CC 
  32      2208
  33 009b 08015902 		.ascii	"\010\001Y\002\362\250\234\236\236\276sFfR\246\177\260"
  33      F2A89C9E 
  33      9EBE7346 
  33      6652A67F 
  33      B0
  34 00ac 7E496A71 		.ascii	"~Ijq\211~Q\011\230\316HM,\320Kf\000\000l%5J"
  34      897E5109 
  34      98CE484D 
  34      2CD04B66 
  34      00006C25 
  35              		.text
  36              		.section	.gnu.lto_heap1_execute.8c106e511bff74f7,"",%progbits
  37 0000 789CCD59 		.ascii	"x\234\315Y[l\024U\030>\347\314\336\357\327\356\255\335"
  37      5B6C1455 
  37      183EE7CC 
  37      DEEFD7EE 
  37      ADDD
  38 0012 6ECB9DD2 		.ascii	"n\313\235\322\355\215\233\306\204\030\236|\362A\032"
  38      ED8D9BC6 
  38      84189E7C 
  38      F2411A
  39 0021 31262675 		.ascii	"1&&uAX\015\244\221>\301\003\003-\006\021\"!\232\020"
  39      41580DA4 
  39      913EC103 
  39      032D0611 
  39      22219A10 
  40 0035 A2B10435 		.ascii	"\242\261\0045\030\014x!j\202\350F\005Z\260VB\214\205"
  40      180C7821 
  40      6A82E846 
  40      055AB056 
  40      428C85
  41 0048 78D9F822 		.ascii	"x\331\370\"*A\036\215\"\353\377\237\231=\323\355\314"
  41      2A411E8D 
  41      22EBFF9F 
  41      993DD3ED 
ARM GAS  /tmp/cchU44nR.s 			page 3


  41      CC
  42 0059 8ECBBA92 		.ascii	"\216\313\272\222\235\204s\246\337\1779\377\377}\377"
  42      9D8473A6 
  42      DF7F39FF 
  42      FF7DFF
  43 0068 CECE0646 		.ascii	"\316\316\006F\030\231{\335O\011y\"E\310Z\374\243\203"
  43      18997BDD 
  43      4F097922 
  43      45C85AFC 
  43      A383
  44 007a 50F0A08C 		.ascii	"P\360\240\214I\204\310\314\002\213E\242\355\200X\230"
  44      4984C8CC 
  44      028B45A2 
  44      ED805898 
  45 008a 15111B22 		.ascii	"\025\021\033\"V\216\330\230\035\021\007\"v\2168\230"
  45      568ED898 
  45      1D110722 
  45      768E3898 
  46 009a 13111722 		.ascii	"\023\021\027\"N\216\270\230\033\021\017\"n\216x\230"
  46      4E8EB898 
  46      1B110F22 
  46      6E8E7898 
  47 00aa 0F112F22 		.ascii	"\017\021/\"^\345\336\217\367>\032\000\253\237\257\001"
  47      5EE5DE8F 
  47      F73E1A00 
  47      AB9FAF01 
  48 00ba 16443C84 		.ascii	"\026D<\204x\220G\205X\030\221\010\"a\216DX\024\221\026"
  48      78904785 
  48      58189108 
  48      22618E44 
  48      58149116 
  49 00ce 44A21C69 		.ascii	"D\242\034ia1D\342\210\3048\022g\011D\222\210$8\222d"
  49      613144E2 
  49      88C43812 
  49      67094492 
  49      88243892 
  50 00e3 29445A11 		.ascii	")DZ\021Iq\244\225\265!\222F\244\215#i\232\201\265\235"
  50      4971A495 
  50      B5219246 
  50      A48D2369 
  50      9A81B59D 
  51 00f7 AF190AE4 		.ascii	"\257\031\012\344\020Jv2\311b\265\331\035N\227\333\343"
  51      104A7632 
  51      C962B5D9 
  51      1D4E97DB 
  51      E3
  52 0108 F5F903C1 		.ascii	"\365\371\003\301P8\022m\211\305\023\311Tk[\272=Cw>\206"
  52      5038126D 
  52      89C513C9 
  52      546B5BBA 
  52      3D43773E 
  53 011d 8EA4AB93 		.ascii	"\216\244\253\223\034\225\345C\305s\277\036\216\355+"
  53      1C95E543 
  53      C573BF1E 
  53      8EED2B
  54 012c CA07E53B 		.ascii	"\312\007\345;\245\022\315\243)G\311z\270\243\016\276"
  54      A512CDA3 
ARM GAS  /tmp/cchU44nR.s 			page 4


  54      2947C97A 
  54      B8A30EBE 
  55 013c 315AA981 		.ascii	"1Z\251\201\022&\237<.K\343\362\355RI\2529\246p\355\374"
  55      12269F3C 
  55      2E4BE3F2 
  55      ED5249AA 
  55      39A670ED 
  56 0151 0BAE77E4 		.ascii	"\013\256w\344\275r\251\264\363\377=\350\320\205\375"
  56      BD72A9B4 
  56      F3FF3DE8 
  56      D085FD
  57 0160 AE83BBD4 		.ascii	"\256\203\273\324\203$-(\243\004Y\032uP]\305\235n\346"
  57      83242D28 
  57      A304591A 
  57      75505DC5 
  57      9D6EE6
  58 0173 E2BE6EDE 		.ascii	"\342\276n\336\342\016\026ff\027ga\244\203\326V\337{"
  58      E20E1666 
  58      66176761 
  58      A483D656 
  58      DF7B
  59 0185 C76567F9 		.ascii	"\307eg\371\254Z{\252'\346^\211t\253yE:T\270\335\314"
  59      AC5A7BAA 
  59      27E65E89 
  59      74AB7945 
  59      3A54B8DD 
  60 019a C5BD74B1 		.ascii	"\305\275t\261\211\213{\365\342\313\211}\343\273\313"
  60      898B7BF5 
  60      E2CB897D 
  60      E3BBCB
  61 01a9 4F628991 		.ascii	"Ob\211\221%\265\015x\341\265\213\223G)\234\272\353V"
  61      25B50D78 
  61      E1B58B93 
  61      47299CBA 
  61      EB56
  62 01bb A9E46FBE 		.ascii	"\251\344o\276\306N73\353\037T\024\307Hw=\017\025F\372"
  62      C64E3733 
  62      EB1F5414 
  62      C748773D 
  62      0F1546FA 
  63 01cf 6A0CBB67 		.ascii	"j\014\273g\303t~\177B\326\206\311\312\310\312\032+<"
  63      C3747E7F 
  63      42D686C9 
  63      CAC8CA1A 
  63      2B3C
  64 01e1 BB61421E 		.ascii	"\273aB\036+\224Jkx\324}5F}[\021\365@-Q\005\030\334\347"
  64      2B944A6B 
  64      78D47D35 
  64      467D5B11 
  64      F5402D51 
  65 01f9 0ECCAED2 		.ascii	"\016\314\256\322\306\310\232\332\"\3453\332y\020\365"
  65      C6C89ADA 
  65      22E533DA 
  65      7910F5
  66 0208 E0BF459D 		.ascii	"\340\277E\235b\205b\251\364\335\273\257\377\364\012"
  66      628562A9 
  66      F4DDBBAF 
ARM GAS  /tmp/cchU44nR.s 			page 5


  66      FFF40A
  67 0217 0DADA664 		.ascii	"\015\255\246d\210\236\244\235\360\2069D/\301.\021 \326"
  67      889EA49D 
  67      F0863944 
  67      2FC12E11 
  67      20D6
  68 0229 828B5545 		.ascii	"\202\213UEl\370\207\035\027\207\2128a\237\202\335\005"
  68      6CF8871D 
  68      17878A38 
  68      619F82DD 
  68      05
  69 023a FB34EC6E 		.ascii	"\3734\354n0J\036\364\360\342\342S\335\374\252[@u\013"
  69      304A1EF4 
  69      F0E2E253 
  69      DDFCAA5B 
  69      40750B
  70 024d A25B083D 		.ascii	"\242[\010=\302\270DT\267\250\352\326\202\346\030Z\342"
  70      C2B84454 
  70      B7A8EAD6 
  70      82E6185A 
  70      E2
  71 025e B8245473 		.ascii	"\270$Ts\022\341\024.\255j\251m\352\236F\267v\\2h\356"
  71      12E1142E 
  71      AD6AA96D 
  71      EA9E46B7 
  71      765C3268 
  72 0273 C0BB4E5C 		.ascii	"\300\273N\\\346\251\241\363\325\314\013\320\274\020"
  72      E6A9A1F3 
  72      D5CC0BD0 
  72      BC10
  73 0281 2D8B7059 		.ascii	"-\213pY\254\232\227 \274\024\221.\\\226\001|\026\340"
  73      AC9A9720 
  73      BC14912E 
  73      5C96017C 
  73      16E0
  74 0293 6ED59C45 		.ascii	"n\325\234Es\017Zzq\351\303?\373\361n\000\227\345\340"
  74      730F5A7A 
  74      71E9C33F 
  74      FBF16E00 
  74      97E5E0
  75 02a6 750EBC56 		.ascii	"u\016\274V\300~\001\366\225\010\256\"|*\201\2721\370"
  75      C07E01F6 
  75      9508AE22 
  75      7C2A81BA 
  75      31F8
  76 02b8 92CE2879 		.ascii	"\222\316(y\224\032\024\012\206\350e\276^\201\225O/\\"
  76      941A140A 
  76      86E865BE 
  76      5E81954F 
  76      2F5C
  77 02ca EBF83A88 		.ascii	"\353\370:\210o\360\3224\031-\036\311\015\321o(\274\267"
  77      6FF0D234 
  77      192D1EC9 
  77      0DD16F28 
  77      BCB7
  78 02dc 931DE44F 		.ascii	"\223\035\344OxE\014\344\251=G\225\321\316\303\244\223"
  78      78450CE4 
ARM GAS  /tmp/cchU44nR.s 			page 6


  78      A93D4795 
  78      D1CEC3A4 
  78      93
  79 02ed 69B267FC 		.ascii	"i\262g\374\270\244sr\346\250\3623\001Ew)\006\270\036"
  79      B8A47372 
  79      E6A8F233 
  79      01457729 
  79      06B81E
  80 0300 CF53B772 		.ascii	"\317S\267r\240\032\221\247\036\236\243\370\326\347T"
  80      A01A91A7 
  80      1E9EA3F8 
  80      D6E754
  81 030f 81365126 		.ascii	"\2016Q&\262xs\370X\322\262\340f\013@\020\274\364O\221"
  81      B27873F8 
  81      58D2B2E0 
  81      660B4010 
  81      BCF44F91 
  82 0323 D199D113 		.ascii	"\321\231\321\023\007\244r\224\004\201h\3072 \243\265"
  82      07A47294 
  82      048168C7 
  82      3220A3B5 
  83 0333 8C5B4436 		.ascii	"\214[D6\177\216ZD6\211bL\036\177,L\220\261\033\342p"
  83      7F8E5A44 
  83      3689624C 
  83      1E7F2C4C 
  83      90B11BE2 
  84 0348 CB7AE565 		.ascii	"\313z\345e[\273\326a\015\322 \306\002%c\305\023\307"
  84      5BBBD661 
  84      0DD220C6 
  84      022563C5 
  84      13C7
  85 035a ECBA7683 		.ascii	"\354\272v\2039\345\\\254>OCJKok-YM[\222\360c\346\027"
  85      39E55CAC 
  85      3E4F434A 
  85      4B6F6B2D 
  85      594D5B92 
  86 0372 6D4D8F7E 		.ascii	"mM\217~\250\265e\203`\243\266\354U\332b\030\243o\313"
  86      A8B56583 
  86      60A3B6EC 
  86      55DA6218 
  86      A36FCB
  87 0385 6ED09695 		.ascii	"n\320\226\225\267e\343m\355\031\377\310DD\005A\365\\"
  87      B765E36D 
  87      ED19FFC8 
  87      44440541 
  87      F55C
  88 0397 5B6859BA 		.ascii	"[hY\272\035d{U5\317h\255;\364\255\253\351\036\255H7"
  88      1D647B55 
  88      35CF68AD 
  88      3BF4ADAB 
  88      E91EAD48 
  89 03ac 5B5B4CF1 		.ascii	"[[L\361\261\226\302Yg\212\263Z\012W])\306\212\237\230"
  89      B196C259 
  89      678AB35A 
  89      0A575D29 
  89      C68A9F98 
  90 03c0 8BED50C5 		.ascii	"\213\355P\305\036\033\377TO\337,?\247\360\2330\365s"
ARM GAS  /tmp/cchU44nR.s 			page 7


  90      1E1BFF54 
  90      4FDF2C3F 
  90      A7F09B30 
  90      F573
  91 03d2 89E199CC 		.ascii	"\211\341\231\314\225Kw\033\353\3410\024\343\362\034"
  91      954B771B 
  91      EBE13014 
  91      E3F21C
  92 03e1 31709CC4 		.ascii	"1p\234\304,y \031o\220V\316\222\267\312,I\030\243\237"
  92      2C792019 
  92      6F9056CE 
  92      92B7CA2C 
  92      4918A39F 
  93 03f5 25AFC12C 		.ascii	"%\257\301,\331\371,9\224Y*~\251\021\357\253S\273)-\205"
  93      D9F92C39 
  93      94592A7E 
  93      A911EFAB 
  93      53BB292D 
  94 040a BFCE145F 		.ascii	"\277\316\024_i)\002u\312?m.\177@\310:c*\253_\370]5\365"
  94      69290275 
  94      CA3F6D2E 
  94      7F40C83A 
  94      632AAB5F 
  95 0422 F309F9AF 		.ascii	"\363\011\371\257\011\371\203\015\223?\004\311\214\344"
  95      09F9830D 
  95      933F04C9 
  95      8CE4
  96 0430 0F5791DF 		.ascii	"\017W\221\337\2021z\371\303\006\362;\271\374.U\376\357"
  96      82317AF9 
  96      C306F23B 
  96      B9FC2E55 
  96      FEEF
  97 0442 35E22377 		.ascii	"5\342#wC|P\323\356\007-E\264N\355~4\327.\"\270\276."
  97      437C50D3 
  97      EE072D45 
  97      B44EED7E 
  97      34D72E22 
  98 0459 B86E6918 		.ascii	"\270ni\030\3271H\266^ys\252\340:^\205k\036\243\347:"
  98      D73148B6 
  98      5E7973AA 
  98      E03A5E85 
  98      6B1EA3E7 
  99 046e 6EC0B59B 		.ascii	"n\300\265\233s\355Q\271\376E#*Q\347\347\344\206\350"
  99      73ED51B9 
  99      FE45232A 
  99      51E7E7E4 
  99      86E8
 100 0480 3FF95FFA 		.ascii	"?\371_\372\237 _\374,jI\212A+_\203\324\313K\026T\244"
 100      9F205FFC 
 100      2C6A498A 
 100      412B5F83 
 100      D4CB4B16 
 101 0496 1A76584A 		.ascii	"\032vXJ0\255\035\006\275ISd\367\352\262O\033\372X\250"
 101      30AD1D06 
 101      BD495364 
 101      F7EAB24F 
 101      1BFA58A8 
ARM GAS  /tmp/cchU44nR.s 			page 8


 102 04aa B0FBE7D8 		.ascii	"\260\373\347\330[\271]\213\017(\366\233B\321\364&|\355"
 102      5BB95D8B 
 102      0F28F69B 
 102      42D1F426 
 102      7CED
 103 04bc 99557F7B 		.ascii	"\231U\177{\025)m\350\254\227\262}\216\224W\011\205\252"
 103      15296DE8 
 103      AC97B27D 
 103      8E945709 
 103      85AA
 104 04ce 7C78B49F 		.ascii	"|x\264\237\353\032\344\272\206\324\267\214\233\346\323"
 104      EB1AE4BA 
 104      86D4B78C 
 104      9BE6D3
 105 04dd 1B154F94 		.ascii	"\033\025O\224\337M\237(\0111\345\177\010\2253\015\233"
 105      DF4D9F28 
 105      0931E57F 
 105      0895330D 
 105      9B
 106 04ee F20E4866 		.ascii	"\362\016Hf\364D\351\254B\215\035c\364\324t\032Ly\230"
 106      F444E9AC 
 106      428D1D63 
 106      F4D4741A 
 106      4C7998
 107 0501 B31151A7 		.ascii	"\263\021Q\247\374/m\312\347\3259\345\267\265\024\363"
 107      FC2F6DCA 
 107      E7D539E5 
 107      B7B514F3 
 108 0511 EB7CA2FC 		.ascii	"\353|\242\374m\256\311<\301\365\035\301\365\202\206"
 108      6DAEC93C 
 108      C1F51DC1 
 108      F58286
 109 0520 71BD1092 		.ascii	"q\275\020\222\031=Q\026U\341\332\2011z\256\027\031p"
 109      193D5116 
 109      55E1DA81 
 109      317AAE17 
 109      1970
 110 0532 1DE55CB7 		.ascii	"\035\345\\\267\250\\\2274\242\026\337\015Q\031\215\250"
 110      A85C9734 
 110      A216DF0D 
 110      51198DA8 
 111 0542 BD6F9812 		.ascii	"\275o\230\022\265X\014\357\363V3\277\371\202\320}\033"
 111      B5580CEF 
 111      F35633BF 
 111      F982D07D 
 111      1B
 112 0553 CB252D69 		.ascii	"\313%-i\030\241K!\231\321\360vU!\324\2111zB\273\014"
 112      18A14B21 
 112      99D1F076 
 112      5521D489 
 112      317A42BB 
 113 0568 088D7142 		.ascii	"\010\215qB\343\352\233\365\001}\223\265\275Y\353\313"
 113      E3EA9BF5 
 113      017D93B5 
 113      BD59EBCB 
 114 0578 DF3D3973 		.ascii	"\337=9s\354*+\037\275Lq\341\024\025le\264\273F\321 "
 114      EC2A2B1F 
ARM GAS  /tmp/cchU44nR.s 			page 9


 114      BD4C71E1 
 114      14156C65 
 114      B4BB46D1 
 115 058d 5E7C385E 		.ascii	"^|8^\024\374f\033\306o\017$\343\374\222J~{\253\360\353"
 115      14FC661B 
 115      C66F0F24 
 115      E3FC924A 
 115      7E7BABF0 
 116 05a2 C2183DBF 		.ascii	"\302\030=\277\275\006\374&8\277I\365Qy\330|\332\272"
 116      BD06FC26 
 116      38BF49F5 
 116      5179D87C 
 116      DABA
 117 05b4 C5141D11 		.ascii	"\305\024\035\021]\3665\254\313~Hf4E\003U\272tc\214\276"
 117      5DF635AC 
 117      CB7E4866 
 117      34450355 
 117      BA74638C 
 118 05c9 CB01832E 		.ascii	"\313\001\203.S\274\313V\345\213h\362\372\233\302yyY"
 118      53BCCB56 
 118      E58B68F2 
 118      FA9BC279 
 118      7959
 119 05db 77C01F2A 		.ascii	"w\300\037*\203+\312?\344+\312[\011\336`\253(mU\225\322"
 119      832BCA3F 
 119      E42BCA5B 
 119      09DE60AB 
 119      286D5595 
 120 05f0 3CE8AF2F 		.ascii	"<\350\257/m\225Aim\274\2644/\355\263\337\324\201T\252"
 120      6D954169 
 120      6DBCB434 
 120      2FEDB3DF 
 120      D48154AA 
 121 0604 5A4EDE97 		.ascii	"ZN\336\227\367\252\262W\030\257\3141\3425\210\377]\306"
 121      F7AAB257 
 121      18AFCC31 
 121      E23588FF 
 121      5DC6
 122 0616 734C3C6D 		.ascii	"sL<m\222\344\031\363\034\031\310q\211\354\202_\037\033"
 122      92E419F3 
 122      1C19C871 
 122      89EC825F 
 122      1F1B
 123 0628 F03BFA32 		.ascii	"\360;\3722\277\325\212\005\010%Ng\263=k7\347\237\314"
 123      BFD58A05 
 123      08254E67 
 123      B33D6B37 
 123      E79FCC
 124 063b 3FFC48CF 		.ascii	"?\374H\317\310\306m#=\317\216\360}\363\306\241\341l"
 124      C8C66D23 
 124      3DCF8EF0 
 124      7DF3C6A1 
 124      E16C
 125 064d 8ED8F34F 		.ascii	"\216\330\363O\215l\031\316\366J[\263}\360\257\337\262"
 125      8D6C19CE 
 125      F64A5BB3 
 125      7DF0AFDF 
ARM GAS  /tmp/cchU44nR.s 			page 10


 125      B2
 126 065e 6D7B7680 		.ascii	"m{v\200\015\367\261\341~6<@\267\262m\333\377\001g@\373"
 126      0DF7B1E1 
 126      7E363C40 
 126      B7B26DDB 
 126      FF016740 
 127 0673 37       		.ascii	"7"
 128              		.text
 129              		.section	.gnu.lto_.symbol_nodes.8c106e511bff74f7,"",%progbits
 130 0000 789C4D90 		.ascii	"x\234M\220KN\303@\014\206\355\031\222\320r\010\016\306"
 130      4B4EC340 
 130      0C86ED19 
 130      92D07208 
 130      0EC6
 131 0012 8A93B8D2 		.ascii	"\212\223\270\322H \212\324\242T*R*\245\213\\\004i\366"
 131      48208AD4 
 131      A2542A52 
 131      2AA58B5C 
 131      0469F6
 132 0025 5DF50084 		.ascii	"]\365\000\204\221\350\0026\274\337\210\351\370OC6\237"
 132      91E80236 
 132      BCDF88E9 
 132      F84F4336 
 132      9F
 133 0036 1FFF6F7B 		.ascii	"\037\377o{b\310\320\221!\375\314#\013\321\305\212Hd"
 133      62C8D091 
 133      21FDCC23 
 133      0BD1C58A 
 133      4864
 134 0048 7D769C3D 		.ascii	"}v\234=0\345b\2637f\0222O,\374\257\371\302\246\020\312"
 134      30E562B3 
 134      37661232 
 134      4F2CFCAF 
 134      F9C2A610 
 135 005d 9ED946F0 		.ascii	"\236\331F\360+\213\321\346h\304\374\305b\373\354\203"
 135      2B8BD1E6 
 135      68C4FCC5 
 135      62FBEC83 
 136 006d 65AFCFBE 		.ascii	"e\257\317\276Y\262>\373d\311\373\354\235\245\330e\226"
 136      59B23EFB 
 136      64C9FBEC 
 136      9DA5D865 
 136      96
 137 007e 7272D7BF 		.ascii	"rr\327\277l\355\001\270OM\342\220|bA\256\335r@\276\325"
 137      6CED01B8 
 137      4F4DE290 
 137      7C6241AE 
 137      DD7240BE 
 138 0093 7A68B5DE 		.ascii	"zh\265\336\234\334\037n\365!qH\356T\331\200>q@\001t"
 138      9CDC1F6E 
 138      F5217148 
 138      EE54D980 
 138      3E714001 
 139 00a8 63653356 		.ascii	"ce3V\237O\214\363\317\241\007\003\350&\320\203\036\014"
 139      9F4F8CF3 
 139      CFA10703 
 139      E826D083 
ARM GAS  /tmp/cchU44nR.s 			page 11


 139      1E0C
 140 00ba 13F5BBA9 		.ascii	"\023\365\273\251\372\375\024\372\022\373K\350K\334W"
 140      FAFD14FA 
 140      12FB4BE8 
 140      4BDC57
 141 00c9 AAAE9961 		.ascii	"\252\256\231a\376\014\3769\356\230k?\\b_\005\177\005"
 141      FE0CFE39 
 141      EE986B3F 
 141      5C625F05 
 141      7F05
 142 00db 7F05FF02 		.ascii	"\177\005\377\002~\320\325\320\327\230S\343=K\274g\211"
 142      7ED0D5D0 
 142      D79853E3 
 142      3D4BBC67 
 142      89
 143 00ec 7B417773 		.ascii	"{Aws\365c\323\017\326 n\334UB\012\342\354\200\212\273"
 143      F563D30F 
 143      D6206EDC 
 143      55420AE2 
 143      EC808ABB 
 144 0100 85C66B10 		.ascii	"\205\306k\020\355\233N\274\351\354]\340\356b@\177>\221"
 144      ED9B4EBC 
 144      E9EC5DE0 
 144      EE62407F 
 144      3E91
 145 0112 BD24     		.ascii	"\275$"
 146              		.text
 147              		.section	.gnu.lto_.refs.8c106e511bff74f7,"",%progbits
 148 0000 789C6362 		.ascii	"x\234cb`bpe\200\000&\006&F&&If I\"ddab\005B\006&f\006"
 148      60627065 
 148      80002606 
 148      26462626 
 148      49662049 
 149 001f 002AF400 		.ascii	"\000*\364\000\324"
 149      D4
 150              		.text
 151              		.section	.gnu.lto_.decls.8c106e511bff74f7,"",%progbits
 152 0000 789CBD5B 		.ascii	"x\234\275[{t\024\325\031\2773\233}%\313C\255\012\266"
 152      7B7414D5 
 152      19BF339B 
 152      7D25CB43 
 152      AD0AB6
 153 0013 47174F55 		.ascii	"G\027OU\252B\000\243\3429=\202\245\307G{\324\323\212"
 153      AA4200A3 
 153      E2393D82 
 153      A5C7477B 
 153      D4D38A
 154 0026 E7F8DF76 		.ascii	"\347\370\337v\330L\262\253\331\207\263\023\002\355\037"
 154      D84CB2AB 
 154      D987B313 
 154      02ED1F
 155 0035 0E0986A8 		.ascii	"\016\011\206\250\330\206G\014\217\204$\310\243\274$"
 155      D886470C 
 155      8F8424C8 
 155      A3BC24
 156 0044 801A5128 		.ascii	"\200\032Q(C\205\030\020\201`\014\017+\015\017%@\242"
 156      43851810 
ARM GAS  /tmp/cchU44nR.s 			page 12


 156      81600C0F 
 156      2B0D0F25 
 156      40A2
 157 0056 51A48250 		.ascii	"Q\244\202P\266\337\2753\263;3;\263;\273H\347\234;sw"
 157      B6DFBD33 
 157      B33B333B 
 157      B33BBB48 
 157      E79C3B73 
 158 006b F6DEDFF7 		.ascii	"\366\336\337\367\376\356c\357\322\210F\367R\010\305"
 158      FEEE63EF 
 158      D28846F7 
 158      5208C5
 159 007a E16A2A42 		.ascii	"\341j*B\350\270\003!\033B\350a\224\274\\PZ\240\254\200"
 159      E8B80321 
 159      1B42E861 
 159      94BC5C50 
 159      5AA0AC80 
 160 008e B20ACA3C 		.ascii	"\262\012\312<h\277\030J\013\224\345PVC\311\203\367\353"
 160      68BF184A 
 160      0B94E550 
 160      5643C983 
 160      F7EB
 161 00a0 E0B91E4A 		.ascii	"\340\271\036J\007\224\243\024\322\\\270?@\243^x\277"
 161      0794A314 
 161      D25CB83F 
 161      40A35E78 
 161      BF
 162 00b1 169EA7E1 		.ascii	"\026\236\247\341\271\003\212\035\352\253\241\340\346"
 162      B9038A1D 
 162      EAABA1E0 
 162      E6
 163 00be 1FC28D96 		.ascii	"\037\302\215\226\333b:\264\012S}a>n\200R\007\357\007"
 163      DB623AB4 
 163      0A537D61 
 163      3E6E8052 
 163      07EF07
 164 00d1 C3D38324 		.ascii	"\303\323\203$\034\314\303\004(mP\316\300wk\240\234\225"
 164      1CCCC304 
 164      286D50CE 
 164      C0776BA0 
 164      9C95
 165 00e3 E935C1B3 		.ascii	"\3515\301\263\001J\037\224\025P\372\241\314\207\362"
 165      014A1F94 
 165      1550FAA1 
 165      CC87F2
 166 00f2 3594A532 		.ascii	"5\224\2452\276C\306^-\313\207e\233'\313\251\360\362"
 166      BE43C65E 
 166      2DCB8765 
 166      9B27CBA9 
 166      F0F2
 167 0104 8D8E97DB 		.ascii	"\215\216\227\333\320\022A\334\337\363\362\361^j\241"
 167      D01241DC 
 167      DFF3F2F1 
 167      5E6AA1
 168 0113 20CE1440 		.ascii	" \316\024@\215\002\205nBu\002\\\315\325\202@\361\014"
 168      8D02856E 
 168      4275025C 
ARM GAS  /tmp/cchU44nR.s 			page 13


 168      CDD58240 
 168      F10C
 169 0125 F5F08DE8 		.ascii	"\365\360\215\3509\212\241\006\273\221\227T<n\302+B\014"
 169      398AA106 
 169      BB919754 
 169      3C6EC22B 
 169      420C
 170 0137 B594BA49 		.ascii	"\265\224\272I\256=k\223\020i4\202Bw\243U\320\277V\020"
 170      AE3D6B93 
 170      10693482 
 170      4277A355 
 170      D0BF5610 
 171 014b 96DE8C8C 		.ascii	"\226\336\214\214\256;\321rL@\370\273`#\360\030\240\205"
 171      AE3BD172 
 171      4C40F8BB 
 171      6023F018 
 171      A085
 172 015d BA4DDD84 		.ascii	"\272M\335\204\241\336\244\350TV\305E\355\236\332\031"
 172      A1DEA4E8 
 172      5456C545 
 172      ED9EDA19 
 173 016d 3D606DAF 		.ascii	"=`m\257D\235FE\0244^F\335\235\026}\205\036}e*zOmO]\365"
 173      449D4645 
 173      14345E46 
 173      DD9D167D 
 173      851E7D65 
 174 0188 A919D49C 		.ascii	"\251\031\324\234\252\346\016a \036\037\222\205\"V\313"
 174      AAE60E61 
 174      201E1F92 
 174      852256CB 
 175 0198 8AB01155 		.ascii	"\212\260\021U\243\002\364\252 T\342\216\217w\014\276"
 175      A302F4AA 
 175      2054E28E 
 175      8F770CBE 
 176 01a8 1ECDC128 		.ascii	"\036\315\301(\336\232\023\240}\031@\240\025\004/4\277"
 176      DE9A13A0 
 176      7D1940A0 
 176      15042F34 
 176      BF
 177 01b9 032D0375 		.ascii	"\003-\003u\211\027\277\245@\252u\324\365\000\302j\245"
 177      8917BFA5 
 177      40AA75D4 
 177      F500C26A 
 177      A5
 178 01ca CA8C41A3 		.ascii	"\312\214A\243\030\356\322\012\275\245\216\004T\020\267"
 178      18EED20A 
 178      BDA58E04 
 178      5410B7
 179 01d9 557B843C 		.ascii	"U{\204<\351=\322)Ju\215@\315\300\260\330\331\3360\\"
 179      E93DD229 
 179      4A758D40 
 179      CDC0B0D8 
 179      D9DE305C 
 180 01ed 68FE27A5 		.ascii	"h\376'\245\341_\247\205\011\005\246ZxG\253\0057\252"
 180      E15FA785 
 180      0905A65A 
 180      7847AB05 
ARM GAS  /tmp/cchU44nR.s 			page 14


 180      37AA
 181 01ff 49A220C3 		.ascii	"I\242 \303^\222\344=\361Y\335\347\250J\300g\2506\312"
 181      5E92E43D 
 181      F159DDE7 
 181      A84AC067 
 181      A836CA
 182 0212 0DBD2B69 		.ascii	"\015\275+i\255\374\014ewk\015\010\237\225\006\030\217"
 182      ADFC0C65 
 182      776B0D08 
 182      9F950618 
 182      8F
 183 0223 7C2D5770 		.ascii	"|-Wp6\030\242vJ\224\226\370\246\271m\277\022\004\027"
 183      3618A276 
 183      4A9496F8 
 183      A6B96DBF 
 183      120417
 184 0236 43BD0D72 		.ascii	"C\275\015r\323h\275\216\264F\027\222\214f\362o\001\000"
 184      D368BD8E 
 184      B4461792 
 184      8C66F26F 
 184      0100
 185 0248 6315A77C 		.ascii	"c\025\247|G\243-\264b/#8\271\252a^m+\001|\365\2639\324"
 185      47A32DB4 
 185      622F2338 
 185      B9AA615E 
 185      6D2B017C 
 186 0260 9B55424D 		.ascii	"\233UBM\225\343\0064\027[Ht\250\335c\242\202\341\"\344"
 186      95E30634 
 186      175B4874 
 186      A8DD63A2 
 186      82E122E4 
 187 0274 3E22E4B6 		.ascii	">\"\344\266Q7h\335c^\273\315+\275\316\354\035u\325\177"
 187      513768DD 
 187      635EBBCD 
 187      2BBDCEEC 
 187      1D75D57F 
 188 0288 BB45689E 		.ascii	"\273Eh\236=L\266\253X-\324P36\374\302\230\242\254\334"
 188      3D4CB6AB 
 188      582DD450 
 188      3336FCC2 
 188      98A2ACDC 
 189 029c 83DD5FB7 		.ascii	"\203\335_\267\310\226\375\220X\366\222N\275\331\200"
 189      C896FD90 
 189      58F6924E 
 189      BDD980
 190 02ab 352EDAB7 		.ascii	"5.\332\267]\006k'`?\332r\006k\256?\336a#f\337E\240j"
 190      5D066B27 
 190      603FDA72 
 190      066BAE3F 
 190      DE612366 
 191 02c3 EC7A8F73 		.ascii	"\354z\217s\353<\316\255\3658\267;Y\211+\2276\277^\323"
 191      EB3CCEAD 
 191      F538B73B 
 191      59892B97 
 191      36BF5ED3 
 192 02d7 3E349A67 		.ascii	">4\232gWLj$\246\005\017j\337\363\207\031\220\366mrv"
 192      574C6A24 
ARM GAS  /tmp/cchU44nR.s 			page 15


 192      A6050F6A 
 192      DFF38719 
 192      90F66D72 
 193 02ec 699EA80A 		.ascii	"i\236\250\012S\015\026fk\257>\263\324\267\343t\265\327"
 193      530D1666 
 193      6BAF3EB3 
 193      D4B7E374 
 193      B5D7
 194 02fe 426211C4 		.ascii	"Bb\021\304\246\366\217)a\256Gv\324f\207Y>\300H\235z"
 194      A6F68F29 
 194      61AE4776 
 194      D4668759 
 194      3EC0489D 
 195 0313 1F5DD84E 		.ascii	"\037]\330N{\245\327\231}tqucj\006\323()\205^\0274\226"
 195      7BA5D799 
 195      7D747175 
 195      636A06D3 
 195      2829855E 
 196 032a 2F1A2D24 		.ascii	"/\032-$:\3554i\236I\247\225b\003\214O\014C\255%\251"
 196      3AED3469 
 196      9E49A795 
 196      62038C4F 
 196      0C43AD25 
 197 033f 6449AE60 		.ascii	"dI\256`\211\213Fo\022\214\2759\246\211Jq\203\234\322"
 197      898B466F 
 197      128CBD39 
 197      A6894A71 
 197      839CD2
 198 0352 95CCBA3C 		.ascii	"\225\314\272<k<o\012O\253su<\025\306Z\273.\375\031a"
 198      6B3C6F0A 
 198      4FAB7375 
 198      3C15C65A 
 198      BB2EFD19 
 199 0367 B8CCE412 		.ascii	"\270\314\344\022\304C\217\3262\312\250\250\362&\230"
 199      C4438FD6 
 199      32CAA8A8 
 199      F22698
 200 0376 BEC87D87 		.ascii	"\276\310}\207\242D\336\350>\333\343 \241~\224\214\255"
 200      A244DEE8 
 200      3EDBE320 
 200      A17E948C 
 200      AD
 201 0387 9FD98D07 		.ascii	"\237\331\215\007WS\030\032}A\272\034\323\207\3009\306"
 201      5753181A 
 201      7D41BA1C 
 201      D387C039 
 201      C6
 202 0398 2BBDCD1C 		.ascii	"+\275\315\034\001\347\277tC\000\030\2202Lt\337\210\267"
 202      01E7BF74 
 202      43001890 
 202      324C74DF 
 202      88B7
 203 03aa EC1284A1 		.ascii	"\354\022\204\241\014\365%\341\370u\207!\307\346\001"
 203      0CF525E1 
 203      F8758721 
 203      C7E601
 204 03b9 4BA346D2 		.ascii	"K\243F\322\245W\307q\317\326s\027F/ \310\275\226f\004"
ARM GAS  /tmp/cchU44nR.s 			page 16


 204      A557C771 
 204      CFD67317 
 204      462F20C8 
 204      BD966604 
 205 03cd DFBE6610 		.ascii	"\337\276f\020O\006R4\347)\344\177\233\024\243\341\233"
 205      4F065234 
 205      E729E47F 
 205      9B14A3E1 
 205      9B
 206 03de 0B4EA2F7 		.ascii	"\013N\242\367~\"E\247\261\024\34604:B\272\014\244J\261"
 206      7E2245A7 
 206      B114E630 
 206      343A42BA 
 206      0CA44AB1 
 207 03f2 7FBC24C5 		.ascii	"\177\274$\305\200%)\352\377\332(\007A\037\011\314\223"
 207      802529EA 
 207      FFDA2807 
 207      411F09CC 
 207      93
 208 0403 09D8DC82 		.ascii	"\011\330\334\202j\321^\022\345\022\330\331\254\301\274"
 208      6AD15E12 
 208      E512D8D9 
 208      ACC1BC
 209 0412 1AB0A6BD 		.ascii	"\032\260\246\275R\204Z\237.}\366\2038l+\021\377\002"
 209      52845A9F 
 209      2E7DF683 
 209      386C2B11 
 209      FF02
 210 0424 89E9554E 		.ascii	"\211\351UN\303a\320\002R\343\242\235\312\210z\211@m"
 210      C361D002 
 210      52E3A29D 
 210      CA887A89 
 210      406D
 211 0436 C819AAFE 		.ascii	"\310\031\252\376\270XOU\021\250+\004\352}\247~Du\352"
 211      B8584F55 
 211      11A82B04 
 211      EA7DA77E 
 211      4475EA
 212 0449 4654A776 		.ascii	"FT\247v\244s\272\223\025y\016wm\233\323h\247\323\202"
 212      A473BA93 
 212      15790E77 
 212      6D9BD368 
 212      A7D382
 213 045c EDCCB350 		.ascii	"\355\314\263P\317\226s\342C\013\325C\250\351\310F\243"
 213      CF9673E2 
 213      430BD543 
 213      A8E9C846 
 213      A3
 214 046d 3D845615 		.ascii	"=\204V\025\255\363\345\203\335{*\251\031Do\370\273\314"
 214      ADF3E583 
 214      DD7B2AA9 
 214      19446FF8 
 214      BBCC
 215 047f CEFCCEEE 		.ascii	"\316\374\316\356zk!\231X\037\374\222\320\357\"\364k"
 215      7A6B2199 
 215      581FFC92 
 215      D0EF22F4 
ARM GAS  /tmp/cchU44nR.s 			page 17


 215      6B
 216 0490 F4F4E7C4 		.ascii	"\364\364\347\304{'H\261Tc\211|\347\201\371F#\254\311"
 216      7B2748B1 
 216      5463897C 
 216      E781F946 
 216      23ACC9
 217 04a3 E228310D 		.ascii	"\342(1\015\374\352[Y\310\3314\016\232\331.\275sL(P\023"
 217      FCEA5B59 
 217      C8D9340E 
 217      9AD92EBD 
 217      734C2850 
 218 04b8 239F35F3 		.ascii	"#\2375\363\345:\227\302~N1\013rv\374n\325FAx\305\241"
 218      E53A97C2 
 218      7E4E310B 
 218      7276FC6E 
 218      D5464178 
 219 04ce F0B0206B 		.ascii	"\360\260 kD\257F\023]\007H\026\220\300\026[\0013\365"
 219      44AF4613 
 219      5D074816 
 219      90C0165B 
 219      0133F5
 220 04e1 A44AB15B 		.ascii	"\244J\261[\015\266$k0-g\207\324`-V\300\206\232svD\015"
 220      0DB6246B 
 220      302D6787 
 220      D4602D56 
 220      C0869A73 
 221 04f8 B62C6B30 		.ascii	"\266,k0-g\377R\203\255\264\0026\314\234\263\243j\260"
 221      2D67FF52 
 221      83ADB402 
 221      36CC9CB3 
 221      A36AB0
 222 050b 35598369 		.ascii	"5Y\203i9\033P\203\255\267\002\3465\340,q\231\3156g\321"
 222      391B5083 
 222      ADB702E6 
 222      35E02C71 
 222      99CD3667 
 223 0520 AAD9E646 		.ascii	"\252\331\346F\227\222\022r\237 \276\353\3126\205i\344"
 223      97921272 
 223      9F20BEEB 
 223      CA368569 
 223      E4
 224 0531 C663E943 		.ascii	"\306c\351C\357\313q!\015h[\254 \246q\230w\325\243\343"
 224      EFCB7121 
 224      0D685BAC 
 224      20A67198 
 224      77D5A3E3 
 225 0545 8EACC1B4 		.ascii	"\216\254\301\264f\351\302`\232\\#\017I=\313\305a\013"
 225      66E9C260 
 225      9A5C230F 
 225      493DCBC5 
 225      610B
 226 0557 92D9CEA5 		.ascii	"\222\331\316\245`\341\345\224\224\332j\005\201N4\026"
 226      60E1E594 
 226      94DA6A05 
 226      814E3416 
 227 0567 860D336E 		.ascii	"\206\0153n\313P\253\350;\360\026\016\355Np!\325\225"
 227      CB50ABE8 
ARM GAS  /tmp/cchU44nR.s 			page 18


 227      3BF0160E 
 227      ED4E7021 
 227      D595
 228 0579 9AB4DADA 		.ascii	"\232\264\332\332\343\322m\236)W\246\256f\236\260R\355"
 228      E3D26D9E 
 228      2957A6AE 
 228      669EB052 
 228      ED
 229 058a 099D56D4 		.ascii	"\011\235V\324\224&\024\006R\324$-\270\315\210\277\245"
 229      94261406 
 229      52D4242D 
 229      B8CD88BF 
 229      A5
 230 059b 267E286B 		.ascii	"&~(k\342Z\033]\332\333p\263\320#R*e\247\265\014\236"
 230      E25A1B5D 
 230      DADB70B3 
 230      D023522A 
 230      65A7B50C 
 231 05b0 C1F41E94 		.ascii	"\301\364\036\224'\013\033h<Y8\3412\234wX\200j\\\264"
 231      270B1B68 
 231      3C5938E1 
 231      329C7758 
 231      806A5CB4 
 232 05c4 EE1E69FB 		.ascii	"\356\036i\373\206\000\365\345\014T\177\274\247J\346"
 232      8600F5E5 
 232      0C547FBC 
 232      A74AE6
 233 05d3 A98D407D 		.ascii	"\251\215@}\2372FQ\272\011\014\245\235bP\356d%eY\377"
 233      9F324651 
 233      BA090CA5 
 233      9D6250EE 
 233      64256559 
 234 05e8 13B6A5D1 		.ascii	"\023\266\245\321\025\275\3054\002\245\311O\211\240\357"
 234      15BDC534 
 234      02A5C94F 
 234      89A0EF
 235 05f7 F8F5E6B7 		.ascii	"\370\365\346\267\004\241\312\221\215\315z\024\233m!"
 235      04A1CA91 
 235      8DCD7A14 
 235      9B6D21
 236 0606 FAA976EB 		.ascii	"\372\251v\353\365\3636\235\235\202h\364Ww\266\202\270"
 236      F5F3369D 
 236      9D8268F4 
 236      5777B682 
 236      B8
 237 0617 74820CE4 		.ascii	"t\202\014\344 \310\200\"\310v\"\310\033?\201 K\262\026"
 237      20C88022 
 237      C87622C8 
 237      1B3F8120 
 237      4BB216
 238 062a 64A84A10 		.ascii	"d\250J\020\2620{j3I\303\2266I\332i\335&\311\371}x7\006"
 238      B2307B6A 
 238      3349C396 
 238      3649DA69 
 238      DD26C9F9 
 239 0642 BFCEBC16 		.ascii	"\277\316\274\026\235w@\265\342\020\254\2558:\344\025"
 239      9D7740B5 
ARM GAS  /tmp/cchU44nR.s 			page 19


 239      E210ACAD 
 239      383AE415 
 240 0652 C72EA2B1 		.ascii	"\307.\242\261\345n\203(\263\202\324\334x\344F\274\037"
 240      E56E8328 
 240      B382D4DC 
 240      78E446BC 
 240      1F
 241 0663 BD87C0AC 		.ascii	"\275\207\300\254\311\025\006\202\365B\265l\303}\004"
 241      C9150682 
 241      F542B56C 
 241      C37D04
 242 0672 6A538A0D 		.ascii	"jS\212\015\035:\023:\264&\204\217\230\326\005\262\235"
 242      1D3A133A 
 242      B426848F 
 242      98D605B2 
 242      9D
 243 0683 F692FC06 		.ascii	"\366\222\374\006\177p\242\377{?\032m%\354c\363\3452"
 243      7F70A2FF 
 243      7B3F1A6D 
 243      25EC63F3 
 243      E532
 244 0695 BBC5EE23 		.ascii	"\273\305\356#>\261Y\036\305%\023\355\270*\304Jq\333"
 244      3EB1591E 
 244      C52513ED 
 244      B82AC44A 
 244      71DB
 245 06a7 5C65CD3C 		.ascii	"\\e\315<\001\217\343\237\\%\034\231\370i\006(\335h\325"
 245      018FE39F 
 245      5C251C99 
 245      F8690628 
 245      DD68D5
 246 06ba 6F32FC24 		.ascii	"o2\374$\266Dz\206\255%\036x\230\314\320\272R\354\335"
 246      B6447A86 
 246      AD251E78 
 246      98CCD0BA 
 246      52ECDD
 247 06cd 47E95610 		.ascii	"G\351V\020}\332-w\263P:\244\036\012O]\265\035\016\375"
 247      7DDA2D77 
 247      B3503AA4 
 247      1E0A4F5D 
 247      B51D0EFD 
 248 06e1 5E6B87FE 		.ascii	"^k\207\376\253T\334\302y\326v`\376\244`y\210 \347\011"
 248      AB54DCC2 
 248      79D67660 
 248      FEA46079 
 248      8820E709 
 249 06f5 D963FAD5 		.ascii	"\331c\372\325^\335\306c\325\362\202\377\230\205\345"
 249      5EDDC663 
 249      D5F282FF 
 249      9885E5
 250 0704 9E207E4E 		.ascii	"\236 ~N\366\255\224\215\250e\371\012\252Lu\242z\206"
 250      F6AD948D 
 250      A865F90A 
 250      AA4C75A2 
 250      7A86
 251 0716 99513DE2 		.ascii	"\231Q=\342Q\266cL6Y\247W\316:\247\210*\327\346\353m"
 251      51B6634C 
ARM GAS  /tmp/cchU44nR.s 			page 20


 251      3659A757 
 251      CE3AA788 
 251      2AD7E6EB 
 252 072b BE479FA7 		.ascii	"\276G\237\247\263\012\272\215zi\254\256\331\022\227"
 252      B30ABA8D 
 252      7A69ACAE 
 252      D91297
 253 073a 994FF5A8 		.ascii	"\231O\365\250}\352\275\374\253\362\000\360\251\336'"
 253      7DEABDFC 
 253      ABF200F0 
 253      A9DE27
 254 0749 A519BA2E 		.ascii	"\245\031\272.d\216\231\204\014\346\240_\315\301\266"
 254      648E9984 
 254      0CE6A05F 
 254      CDC1B6
 255 0758 ABE340FC 		.ascii	"\253\343@\374\374\323\354\267\250\016\311\246\033 \246"
 255      FCD3ECB7 
 255      A80EC9A6 
 255      1B20A6
 256 0767 6B4F31DD 		.ascii	"kO1\335%\375d\312\312~\315\201\\\005I\\4:\234oa\266"
 256      25FD64CA 
 256      CA7ECD81 
 256      5C05495C 
 256      343A9C6F 
 257 077d EBD59A57 		.ascii	"\353\325\232W\345\303`\216\236\247\245\020\317\270\351"
 257      E5C3608E 
 257      9EA7A510 
 257      CFB8E9
 258 078c 93C85D1D 		.ascii	"\223\310]\035\303;\2102\376C\343(\372B\247\014\013\233"
 258      C33B8832 
 258      FE43E328 
 258      FA42A70C 
 258      0B9B
 259 079e 477DA4CB 		.ascii	"G}\244\313E}8C\332\227\267s/Z\332\274\371\3645\365F"
 259      457D3843 
 259      DA97B773 
 259      2F5ADABC 
 259      F9F435F5 
 260 07b3 28437D4F 		.ascii	"(C}O\3212l\256\372\324\2300\311\037\330\227\254\252"
 260      D1326CAE 
 260      FAD49830 
 260      C91FD897 
 260      ACAA
 261 07c5 2ED323D4 		.ascii	".\323#\324\272\277lE\367#\315"
 261      BABF6C45 
 261      F723CD
 262 07d0 1C5110EB 		.ascii	"\034Q\020\353\272\033(\211\177)\037U\027\350\360\214"
 262      BA1B2889 
 262      7F291F55 
 262      17E8F08C 
 263 07e0 F291064F 		.ascii	"\362\221\006Om\313J\261\265\233,U%\037\235\243\0073"
 263      6DCB4AB1 
 263      B59B2C55 
 263      251F9DA3 
 263      0733
 264 07f2 626E8C39 		.ascii	"bn\2149\330\2667\024\345\366\223!\252\301\012\336x3"
 264      D8B63714 
ARM GAS  /tmp/cchU44nR.s 			page 21


 264      E5F69321 
 264      AAC10ADE 
 264      7833
 265 0804 612BC583 		.ascii	"a+\305\203\335\312O7\3226\357\212\254\361\264\374\235"
 265      DDCA4F37 
 265      D236EF8A 
 265      ACF1B4FC 
 265      9D
 266 0815 7F4333A2 		.ascii	"\177C3\242o\260\0027\321\262\355\223\233\364\014\365"
 266      6FB00237 
 266      D1B2ED93 
 266      9BF40CF5 
 267 0825 1D856D7F 		.ascii	"\035\205m\177\216\032\001\367\363\344\376\003\271W\322"
 267      8E1A01F7 
 267      F3E4FE03 
 267      B957D2
 268 0834 F8BE94DC 		.ascii	"\370\276\224\334\227\221\373\012r_G\356\255\344\376"
 268      9791FB0A 
 268      725F47EE 
 268      ADE4FE
 269 0843 01B98BE4 		.ascii	"\001\271\213\344\276\223\334\317\223\373\025r\027l\004"
 269      BE93DCCF 
 269      93FB1572 
 269      176C04
 270 0852 87DC6792 		.ascii	"\207\334g\222{\265M\345af\331P7\025P\034\2777\347_\000"
 270      7BB54DE5 
 270      6166D950 
 270      3715501C 
 270      BF37E75F 
 271 0867 BEFB38B1 		.ascii	"\276\3738\261\307\001Q\2355\2307\235&{U\232<C4y\226"
 271      C701519D 
 271      3598379D 
 271      267B559A 
 271      3C433479 
 272 087c 68AFC6A6 		.ascii	"h\257\306\246\211\245\315\005\312oR\271\214\305\225"
 272      89A5CD05 
 272      CA6F52B9 
 272      8CC595
 273 088b F8573127 		.ascii	"\370W1'\331\273V\266j\266\353\001\255\016\207\262N."
 273      D9BB56B6 
 273      6AB6EB01 
 273      AD0E87B2 
 273      4E2E
 274 089d C3E0AE1B 		.ascii	"\303\340\256\033\241\216\246\031\241^\267\251F\250]"
 274      A18EA619 
 274      A15EB7A9 
 274      46A85D
 275 08ac 59D34EAB 		.ascii	"Y\323N\253\302c*\025\236 *<IT\370*q\231\331ZE\356/\320"
 275      C2632A15 
 275      9E202A3C 
 275      4954F82A 
 275      7199D95A 
 276 08c4 FD14A9FD 		.ascii	"\375\024\251\375\365OU\265\026\011\255*\342\033\011"
 276      F54F55B5 
 276      1609AD2A 
 276      E21B09
 277 08d3 F14D84F8 		.ascii	"\361M\204\370?\310\375\013\312\202\277\256M\316e\345"
ARM GAS  /tmp/cchU44nR.s 			page 22


 277      3FC8FD0B 
 277      CA82BFAE 
 277      4DCE65E5 
 278 08e3 C334CA06 		.ascii	"\3034\312\006y\342c\2334~jN\271\320\250\273@\177\034"
 278      79E2639B 
 278      347E6A4E 
 278      B9D0A8BB 
 278      407F1C
 279 08f6 4A6A34D7 		.ascii	"Jj4\327ft\336\251i[\347\317\027l\024f\276\"\\\211\277"
 279      6674DEA9 
 279      695BE7CF 
 279      176C1466 
 279      BE225C89 
 280 090b 44690EFA 		.ascii	"Di\016\372\270\320,\262\234~Y\230A\275\230f9Mv\331\030"
 280      B8D02CB2 
 280      9C7E5998 
 280      41BD9866 
 280      394D76D9 
 281 0920 AACEE6C2 		.ascii	"\252\316\346\302\307v<\246{d\270\201\"\261TWji\266\310"
 281      C7763CA6 
 281      7B64B881 
 281      22B15457 
 281      6A69B6C8 
 282 0934 E6DB3407 		.ascii	"\346\3334\007\212\310\351\236D]F\324)\240\306c\254\200"
 282      8AC8E99E 
 282      445D46D4 
 282      29A0C663 
 282      AC80
 283 0946 45860AA8 		.ascii	"E\206\012\250k\357k1?\360\325\226f\003\255A\317\032"
 283      6BEF6B31 
 283      3FF0D596 
 283      6603AD41 
 283      CF1A
 284 0958 3699D1F1 		.ascii	"6\231\321\361\257\3640M\266\002\015\233\032Y\352Ldi"
 284      AFF4304D 
 284      B6020D9B 
 284      1A59EA4C 
 284      6469
 285 096a 369245DC 		.ascii	"6\222E\3340k\366p\241\245R\214\307'ds\204O/\007\371"
 285      306BF670 
 285      A1A5528C 
 285      C7276473 
 285      844F2F07 
 286 097f DD45C3C6 		.ascii	"\335E\303\306R\0236\226\031\262\321\364\221)\033i\216"
 286      52133696 
 286      19B2D1F4 
 286      91291B69 
 286      8E
 287 0990 8EAD48A3 		.ascii	"\216\255H\243N3__g\302\327*CSo\232\373U\216\246^cK="
 287      4E335F5F 
 287      67C2D72A 
 287      43536F9A 
 287      FB558EA6 
 288 09a8 E5B8D984 		.ascii	"\345\270\331\204\366Z-\355\333Q\013>`\371\345\242z\230"
 288      F65A2DED 
 288      DB510B3E 
 288      60F9E5A2 
ARM GAS  /tmp/cchU44nR.s 			page 23


 288      7A98
 289 09ba B6CC8609 		.ascii	"\266\314\206\011[<~\233r\304ow\002BI;\232\003}d\227"
 289      5B3C7E9B 
 289      72C46F77 
 289      0242493B 
 289      9A037D64 
 290 09cf 36898691 		.ascii	"6\211\206\221H\304n\037\365A\2450s\003\360\036\247\342"
 290      48C46E1F 
 290      F541A530 
 290      7303F01E 
 290      A7E2
 291 09e1 13E4CD22 		.ascii	"\023\344\315\"\315\301@\261D\301\351\225\326\202]\204"
 291      CDC140B1 
 291      44C1E995 
 291      D6825D84 
 292 09f1 52AB4DB7 		.ascii	"R\253M\267eTO\316~\341\327\231\227\201\357\264\347\013"
 292      65544FCE 
 292      7EE1D799 
 292      9781EFB4 
 292      E70B
 293 0a03 C745CAE8 		.ascii	"\307E\312\350\034\242\216\034\331>\263\351\016J,$g\205"
 293      1CA28E1C 
 293      D93EB3E9 
 293      0E4A2C24 
 293      6785
 294 0a15 F0EBCCA4 		.ascii	"\360\353\314\244\026K\244\256C\265\012)\315V\266\370"
 294      164BA4AE 
 294      43B50A29 
 294      CD56B6F8 
 295 0a25 33855C07 		.ascii	"3\205\\\007-\223k\263]Gj\232\225%ibf\322\367l\311\035"
 295      2D936BB3 
 295      5D476A9A 
 295      95256962 
 295      66D2F76C 
 296 0a3b 7B8F3B59 		.ascii	"{\217;Y\031\231p\256cDg\230cc\272\231\327\272\015\217"
 296      199970AE 
 296      63446798 
 296      6363BA99 
 296      D7BA0D8F 
 297 0a4f D6567B24 		.ascii	"\326V{$\346ht\322\032\234,\222!\336\0225\336)kx\265"
 297      E66874D2 
 297      1A9C2C92 
 297      21DE1235 
 297      DE296B78 
 298 0a64 7673BC56 		.ascii	"vs\274V5\336\031kx\207\234\346x\033\325x\375\326\360"
 298      35DE196B 
 298      78879CE6 
 298      781BD578 
 298      FDD6F0
 299 0a77 9AF30DF0 		.ascii	"\232\363\015\360\022\027\215\006\022\236k\354l\231\255"
 299      12178D06 
 299      129E6BEC 
 299      6C99AD
 300 0a86 D0D6FE3A 		.ascii	"\320\326\376:\205\177\233P\334i\301`iw\327\334ywd\355"
 300      857F9B50 
 300      DC69C160 
 300      6977D7DC 
ARM GAS  /tmp/cchU44nR.s 			page 24


 300      797764ED 
 301 0a9a 4D3B4DBC 		.ascii	"M;M\274\351\224'!\310\271\334\005Q\251\343G}\3120`\377"
 301      E9942721 
 301      C8B9DC05 
 301      51A9E347 
 301      7DCA3060 
 302 0aaf 236DCE68 		.ascii	"#m\316h\025{v\276u:\017\237\363\023\204\313\3618\245"
 302      157B76BE 
 302      753A0F9F 
 302      F31384CB 
 302      F138A5
 303 0ac2 68021F1E 		.ascii	"h\002\037\036J\014TbrO\011\264F\2459\011\025\007\026"
 303      4A0C5462 
 303      724F09B4 
 303      46A53909 
 303      150716
 304 0ad5 321E9862 		.ascii	"2\036\230b\250=6<%\376D\227\007 }\035\236%\237\003\370"
 304      A83D363C 
 304      25FE4497 
 304      07207D1D 
 304      9E259F03 
 305 0aea C44232A8 		.ascii	"\304B2\250\024/\376\267\203\"\373O+\311\222\252f\020"
 305      142FFEB7 
 305      8322FB4F 
 305      2BC992AA 
 305      6610
 306 0afc 25C3E636 		.ascii	"%\303\3466m\277t\232\300\351\006\350\245i\316\364\036"
 306      6DBF749A 
 306      C0E906E8 
 306      A569CEF4 
 306      1E
 307 0b0d 50CF525F 		.ascii	"P\317R_\317\232\274WC\036\317\220%H\032\315\263\202"
 307      CF9ABC57 
 307      431ECF90 
 307      25481ACD 
 307      B382
 308 0b1f 9566B67D 		.ascii	"\225f\266}E\205\325\2205\226W\247n\305\016\014\265\217"
 308      4585D590 
 308      359657A7 
 308      6EC50E0C 
 308      B58F
 309 0b31 4C913BC9 		.ascii	"L\221;\311\275\213\334\2733\257\260t\012\375\330\204"
 309      BD8BDCBB 
 309      33AFB074 
 309      0AFDD884 
 310 0b41 13B2DDAA 		.ascii	"\023\262\335\252\231\361\250 'j\031U\271\251\324\311"
 310      99F1A820 
 310      276A1955 
 310      B9A9D4C9 
 311 0b51 B819431D 		.ascii	"\270\031C\035\316:^\217\230\304\253z\362\232l\205\267"
 311      CE3A5E8F 
 311      98C4AB7A 
 311      F29A6C85 
 311      B7
 312 0b62 3D07E9E2 		.ascii	"=\007\351\342.\205\211\317\345\250+B\233\204\032\021"
 312      2E8589CF 
 312      E5A82B42 
ARM GAS  /tmp/cchU44nR.s 			page 25


 312      9B841A11 
 313 0b72 C6BA5DC0 		.ascii	"\306\272]\300U\302n\177A?\012\013`.\275~\270$\012\016"
 313      55C26E7F 
 313      413F0A0B 
 313      602EBD7E 
 313      B8240A0E 
 314 0b86 CC81FDE2 		.ascii	"\314\201\375\342\326W\033aZP)\300\354;NIZ\243Q\253\236"
 314      D6571B61 
 314      5A5029C0 
 314      EC3B4E49 
 314      5AA351AB 
 315 0b9b 9636B430 		.ascii	"\2266\2640\261\177k\210M\224zJ\226\223(\211\333vk\367"
 315      B17F6B88 
 315      4D947A4A 
 315      96932889 
 315      DB766BF7 
 316 0baf 8BD5D96F 		.ascii	"\213\325\331o\265*\373%f\034#e\350\023Y+\363\244\211"
 316      B52AFB25 
 316      661C2365 
 316      E813592B 
 316      F3A489
 317 0bc2 32EF4AEB 		.ascii	"2\357J\3530\014u<\351\007\267\242\367\0075\012\013&"
 317      300C753C 
 317      E907B7A2 
 317      F707350A 
 317      0B26
 318 0bd4 26C94B0E 		.ascii	"&\311K\016\210\205\251\201\371S\276\344\347\211?\211"
 318      8885A981 
 318      F953BEE4 
 318      E7893F89 
 319 0be4 488E89F1 		.ascii	"H\216\211\361\244\350\224\\Tn\335\225h\255\376\323\207"
 319      A4E8945C 
 319      546EDD95 
 319      68ADFED3 
 319      87
 320 0bf5 CC85A44A 		.ascii	"\314\205\244J\305\005u^\273:M\032\350Mr\253\353\265"
 320      C505755E 
 320      BB3A4D1A 
 320      E84D72AB 
 320      EBB5
 321 0c07 2369E894 		.ascii	"#i\350\224^\247M{\3419\245Y\2573\246\275\032\322\364"
 321      5EA74D7B 
 321      E139A559 
 321      AF33A6BD 
 321      1AD2F4
 322 0c1a 3A6BDA6B 		.ascii	":k\332kE\232^}\246\275\346\247\351\325o\332ki\232^_"
 322      459A5E7D 
 322      A6BDE6A7 
 322      E9D56FDA 
 322      6B699A5E 
 323 0c2f DB349B30 		.ascii	"\3334\2330^\324\204\007\350\315\273\005\257\327\344"
 323      5ED48407 
 323      E8CDBB05 
 323      AFD7E4
 324 0c3e 8F3AB78E 		.ascii	"\217:\267\216\036]8)\020\234\022|\372\231B\236\215\361"
 324      1E5D3829 
 324      109C127C 
ARM GAS  /tmp/cchU44nR.s 			page 26


 324      FA99429E 
 324      8DF1
 325 0c50 851C4F9E 		.ascii	"\205\034O\236\001\226\211\216\366\243\002\374\034\353"
 325      0196898E 
 325      F6A302FC 
 325      1CEB
 326 0c5e 8BB17C79 		.ascii	"\213\261|y\324\361\330S\317z'\241A\322+v\032\353/\347"
 326      D4F1D853 
 326      CF7A27A1 
 326      41D22B76 
 326      1AEB2FE7 
 327 0c72 D9DB55FD 		.ascii	"\331\333U\375#1\334;\030\366\227\225\027\263\205\376"
 327      2331DC3B 
 327      18F69795 
 327      17B385FE 
 328 0c82 00C108A0 		.ascii	"\000\301\010\240A!6\024\341\246\373\360G\037_\240\372"
 328      41213614 
 328      E1A6FBF0 
 328      471F5FA0 
 328      FA
 329 0c93 34832A0C 		.ascii	"4\203*\014\227\304p\271\2770\020\011\261\205\034\033"
 329      97C470B9 
 329      BF301009 
 329      B1851C1B 
 330 0ca3 6319CE1F 		.ascii	"c\031\316\037(\0140\\q\005\303\261\205\014\027\032W"
 330      280C305C 
 330      7105C3B1 
 330      850C171A 
 330      57
 331 0cb4 58EAF78F 		.ascii	"X\352\367\217\202\312(64\205-.f\213\023/\302\2210;\212"
 331      82CA2836 
 331      34852D2E 
 331      668B132F 
 331      C291303B 
 332 0cc9 65A60447 		.ascii	"e\246\004G\025\371\306\217\0327fl\321\213\343\012\313"
 332      15F9C68F 
 332      1A37666C 
 332      D18BE30A 
 332      CB
 333 0cda 82537083 		.ascii	"\202Sp\203BM\203\302\242\321\343G\027%\230\213\361\200"
 333      424D83C2 
 333      A2D1E347 
 333      1725988B 
 333      F180
 334 0cec 5302CC39 		.ascii	"S\002\3149b\301?\263>\376\2164b\000\303\376\010\307"
 334      62C13FB3 
 334      3EFE8E34 
 334      6200C3FE 
 334      08C7
 335 0cfe 42630F54 		.ascii	"Bc\017TKY\276\244<\354\367\361\371\001_\224\213L\015"
 335      4B59BEA4 
 335      3CECF7F1 
 335      F9015F94 
 335      8B4C0D
 336 0d11 16B31CD1 		.ascii	"\026\263\034\321\022\226\010\352w\245 E#\034\037+|\344"
 336      129608EA 
 336      77A52045 
ARM GAS  /tmp/cchU44nR.s 			page 27


 336      231C1F2B 
 336      7CE4
 337 0d23 8F4F4E7A 		.ascii	"\217ONzr\032\300\311X\3711\376\005\246,X\032\366\361"
 337      721AC0C9 
 337      58F931FE 
 337      05A62C58 
 337      1AF6F1
 338 0d36 B16BA105 		.ascii	"\261k\241\005\255\364*\271\203a\036\310\273\312\341"
 338      ADF42AB9 
 338      83611EC8 
 338      BBCAE1
 339 0d45 F940918F 		.ascii	"\371@\221\217\257\272&60\246\036b\374\201`\230-\364"
 339      AFBA2636 
 339      30A61E62 
 339      FC816098 
 339      2DF4
 340 0d57 81EE99F2 		.ascii	"\201\356\231\3622\336\307O\217\2621\254\014\237O\341"
 340      32DEC74F 
 340      8FB231AC 
 340      0C9F4FE1 
 341 0d67 C74E9492 		.ascii	"\307N\224\222\027f\247\361yX\255Ty\0366\021\025p\004"
 341      1766A7F1 
 341      7958AD54 
 341      791E3611 
 341      157004
 342 0d7a 7C251CCB 		.ascii	"|%\034\313\216Hg)~\032\2009C\340\227\323|\274\313\037"
 342      8E486729 
 342      7E1A8039 
 342      43E097D3 
 342      7CBCCB1F 
 343 0d8e F091EA9D 		.ascii	"\360\221\352\235i\272\304\246\307\024&\206\360\001\016"
 343      69BAC4A6 
 343      C7142686 
 343      F0010E
 344 0d9d 4C18F3BD 		.ascii	"L\030\363\275X\316\226\203O\014\205\376\232W\351|=\346"
 344      58CE9683 
 344      4F0C85FE 
 344      9A57E97C 
 344      3DE6
 345 0daf 0F1463B5 		.ascii	"\017\024c\265J\035|\274;\321\331\021\365aa\340\021\345"
 345      4A1D7CBC 
 345      3BD1D911 
 345      F56161E0 
 345      11E5
 346 0dc1 D8A90F64 		.ascii	"\330\251\017dp\217H(\032,c\271X\341c\223&\001\254\302"
 346      708F4828 
 346      1A2C63B9 
 346      58E16393 
 346      2601ACC2 
 347 0dd5 9B938F72 		.ascii	"\233\223\217r\301\010\310\204\325t\3378\360>Ic\270J"
 347      C108C884 
 347      D574DF38 
 347      F03E4963 
 347      B84A
 348 0de7 908311A7 		.ascii	"\220\203\021\247?\022\006a\371\002\014\350\203\357\374"
 348      3F120661 
 348      F9020CE8 
ARM GAS  /tmp/cchU44nR.s 			page 28


 348      83EFFC
 349 0df6 FCB47BAC 		.ascii	"\374\264{\2548\243o\352\203!\314:\307\226\202\331|<"
 349      38A36FEA 
 349      8321CC3A 
 349      C79682D9 
 349      7C3C
 350 0e08 CD15D1DC 		.ascii	"\315\025\321\334\3754\367\000\315=Hs\343i\356!\0337"
 350      FD34F700 
 350      CD3D4873 
 350      E369EE21 
 350      1B37
 351 0e1a 760C94B1 		.ascii	"v\014\224\261t\031\007\217\373\354Q\037`;\261\\\025"
 351      7419078F 
 351      FBEC511F 
 351      603BB15C 
 351      15
 352 0e2b 2C07CF48 		.ascii	",\007\317H\0318~\236\037\034\006\013\313\204\330\374"
 352      19387E9E 
 352      1F1C060B 
 352      CB84D8FC 
 353 0e3b A80FDCBB 		.ascii	"\250\017\334\273,\030\012\362.>\3063<\250\323\211\371"
 353      2C180AF2 
 353      2E3EC633 
 353      3CA8D389 
 353      F9
 354 0e4c 1D0F9A91 		.ascii	"\035\017\232\2218\207\232\023\267\202\357\234|(R\314"
 354      38879A13 
 354      B782EF9C 
 354      7C2852CC 
 355 0e5c 92CF2565 		.ascii	"\222\317%eLi\314\311slI\214\010\206+\366P\254\024\276"
 355      4C69CCC9 
 355      736C498C 
 355      08862BF6 
 355      50AC14BE 
 356 0e70 94A585EE 		.ascii	"\224\245\205\356\212\334\\\361t\370\312\305N\013\362"
 356      8ADC5CF1 
 356      74F8CAC5 
 356      4E0BF2
 357 0e7f 7E007054 		.ascii	"~\000pT\360\221)\317G\257\227M\000]Y\216\015\373\001"
 357      F09129CF 
 357      47AF974D 
 357      005D598E 
 357      0DFB01
 358 0e92 D85EC1F3 		.ascii	"\330^\301\363\\\324\031c\303<t\360\200ibl\210\211\006"
 358      5CD41963 
 358      C33C74F0 
 358      8069626C 
 358      888906
 359 0ea5 40F874EE 		.ascii	"@\370t\356\004\215\260\352e\353\333\375apX{\314\007"
 359      048DB0EA 
 359      65EBDBFD 
 359      6170587B 
 359      CC07
 360 0eb7 4F20055F 		.ascii	"O \005_F\341\001.\027-`\247bd&\366\0020\305V\340\212"
 360      46E1012E 
 360      172D60A7 
 360      626426F6 
ARM GAS  /tmp/cchU44nR.s 			page 29


 360      0230C556 
 361 0ecd 2DEA2B1F 		.ascii	"-\352+\037\2548OY0\006=\207\250\334\011\277qG}\025L"
 361      AC384F59 
 361      30063D87 
 361      A8DC09BF 
 361      71477D15 
 362 0ee2 900F864B 		.ascii	"\220\017\206KA[\300\026!\002U6\312\206!HK\341{\000\307"
 362      415BC016 
 362      21025536 
 362      CA862148 
 362      4BE17B00 
 363 0ef7 2DF3B11E 		.ascii	"-\363\261\036\2302bdx\031\215D\312\234!\211)xF*\302"
 363      98326264 
 363      78198D44 
 363      CA9C2189 
 363      2978462A 
 364 0f0c 2CE70811 		.ascii	",\347\010\021'\263\007p\037p\334\307!r\236\236\362<"
 364      27B30770 
 364      1F70DCC7 
 364      21729E9E 
 364      F23C
 365 0f1e EBE79F08 		.ascii	"\353\347\237\010\007\371[L\222<Hg\367\375\006\340<>"
 365      07F95B4C 
 365      923C4867 
 365      F7FD06E0 
 365      3C3E
 366 0f30 FCD1C7C4 		.ascii	"\374\321\307\304b,\307{\244\356\317\200i\312c\371\322"
 366      622CC77B 
 366      A4EECF80 
 366      69CA63F9 
 366      D2
 367 0f41 874721F2 		.ascii	"\207G!\362\012\244\352#ee\021?\220\230\004\332{\214"
 367      0AA4EA23 
 367      6565113F 
 367      909804DA 
 367      7B8C
 368 0f53 E5A566CF 		.ascii	"\345\245f\317\271\011\000\016X\017\251M)/\001\365\307"
 368      B909000E 
 368      580FA94D 
 368      292F01F5 
 368      C7
 369 0f64 E8C963E8 		.ascii	"\350\311c\350\311c\351\311\343\350\311\367\321\223\213"
 369      C963E9C9 
 369      E3E8C9F7 
 369      D1938B
 370 0f73 E80AC621 		.ascii	"\350\012\306!}\223\207[\271\360\315\317\304\330<\354"
 370      7D93875B 
 370      B9F0CDCF 
 370      C4D83CEC 
 371 0f83 347632CA 		.ascii	"4v2\312\300;\310; \224S\036a\012\242\014\317\263\\\030"
 371      C03BC83B 
 371      2094531E 
 371      610AA20C 
 371      CFB35C18 
 372 0f97 63BB95A1 		.ascii	"c\273\225\241i\354H\314\312"
 372      69EC48CC 
 372      CA
ARM GAS  /tmp/cchU44nR.s 			page 30


 373 0fa0 BD5E0633 		.ascii	"\275^\0063\303\360\301H\330\313\204\213\275%\034S\032"
 373      C3F0C148 
 373      D8CB848B 
 373      BD251C53 
 373      1A
 374 0fb1 025B486F 		.ascii	"\002[Hopc\364?\355\2527\022"
 374      7063F43F 
 374      EDAA3712 
 375              		.text
 376              		.section	.gnu.lto_.symtab.8c106e511bff74f7,"",%progbits
 377 0000 70617474 		.ascii	"patternheap\000\000\000\000\000\000\000\000\000\000"
 377      65726E68 
 377      65617000 
 377      00000000 
 377      00000000 
 378 0015 0000C801 		.ascii	"\000\000\310\001\000\000testheap1\000\000\000\000\000"
 378      00007465 
 378      73746865 
 378      61703100 
 378      00000000 
 379 0029 00000000 		.ascii	"\000\000\000\000\000\000\000\336\001\000\000test\000"
 379      000000DE 
 379      01000074 
 379      65737400 
 380 0039 00020000 		.ascii	"\000\002\000\000\000\000\000\000\000\000\000\257\001"
 380      00000000 
 380      000000AF 
 380      01
 381 0046 00006368 		.ascii	"\000\000chHeapObjectInit\000\000\002\000\000\000\000"
 381      48656170 
 381      4F626A65 
 381      6374496E 
 381      69740000 
 382 005f 00000000 		.ascii	"\000\000\000\000\000\251\000\000\000_test_assert\000"
 382      00A90000 
 382      005F7465 
 382      73745F61 
 382      73736572 
 383 0075 00020000 		.ascii	"\000\002\000\000\000\000\000\000\000\000\000\223\001"
 383      00000000 
 383      00000093 
 383      01
 384 0082 00006368 		.ascii	"\000\000chHeapStatus\000\000\002\000\000\000\000\000"
 384      48656170 
 384      53746174 
 384      75730000 
 384      02000000 
 385 0098 00000000 		.ascii	"\000\000\000\000\233\001\000\000chHeapFree\000\000\002"
 385      9B010000 
 385      63684865 
 385      61704672 
 385      65650000 
 386 00ad 00000000 		.ascii	"\000\000\000\000\000\000\000\000\000\241\001\000\000"
 386      00000000 
 386      00A10100 
 386      00
 387 00ba 63684865 		.ascii	"chHeapAlloc\000\000\002\000\000\000\000\000\000\000"
ARM GAS  /tmp/cchU44nR.s 			page 31


 387      6170416C 
 387      6C6F6300 
 387      00020000 
 387      00000000 
 388 00cf 0000A501 		.ascii	"\000\000\245\001\000\000chCoreGetStatusX\000\000\002"
 388      00006368 
 388      436F7265 
 388      47657453 
 388      74617475 
 389 00e8 00000000 		.ascii	"\000\000\000\000\000\000\000\000\000\252\001\000\000"
 389      00000000 
 389      00AA0100 
 389      00
 390              		.text
 391              		.section	.gnu.lto_.opts,"",%progbits
 392 0000 272D6D63 		.ascii	"'-mcpu=cortex-m4' '-mno-thumb-interwork' '-mthumb' "
 392      70753D63 
 392      6F727465 
 392      782D6D34 
 392      2720272D 
 393 0033 272D6767 		.ascii	"'-ggdb' '-O0' '-fomit-frame-pointer' '-falign-funct"
 393      64622720 
 393      272D4F30 
 393      2720272D 
 393      666F6D69 
 394 0066 696F6E73 		.ascii	"ions=16' '-ffunction-sections' '-fdata-sections' '-"
 394      3D313627 
 394      20272D66 
 394      66756E63 
 394      74696F6E 
 395 0099 666E6F2D 		.ascii	"fno-common' '-flto'\000"
 395      636F6D6D 
 395      6F6E2720 
 395      272D666C 
 395      746F2700 
 396              		.text
 397              		.cfi_sections	.debug_frame
 398              		.section	.bss.test_heap,"aw",%nobits
 399              		.align	3
 400              		.type	test_heap, %object
 401              		.size	test_heap, 32
 402              	test_heap:
 403 0000 00000000 		.space	32
 403      00000000 
 403      00000000 
 403      00000000 
 403      00000000 
 404              		.section	.text.heap1_setup,"ax",%progbits
 405              		.align	2
 406              		.p2align 4,,15
 407              		.thumb
 408              		.thumb_func
 409              		.type	heap1_setup, %function
 410              	heap1_setup:
 411              	.LFB241:
 412              		.file 1 "../ChibiOS/test/rt/testheap.c"
 413              		.loc 1 64 0
ARM GAS  /tmp/cchU44nR.s 			page 32


 414              		.cfi_startproc
 415              		@ args = 0, pretend = 0, frame = 0
 416              		@ frame_needed = 0, uses_anonymous_args = 0
 417 0000 08B5     		push	{r3, lr}
 418              		.cfi_def_cfa_offset 8
 419              		.cfi_offset 3, -8
 420              		.cfi_offset 14, -4
 421              		.loc 1 66 0
 422 0002 0348     		ldr	r0, .L2
 423 0004 0349     		ldr	r1, .L2+4
 424 0006 4FF4CD62 		mov	r2, #1640
 425 000a FFF7FEFF 		bl	chHeapObjectInit
 426              		.loc 1 67 0
 427 000e 08BD     		pop	{r3, pc}
 428              	.L3:
 429              		.align	2
 430              	.L2:
 431 0010 00000000 		.word	test_heap
 432 0014 00000000 		.word	test
 433              		.cfi_endproc
 434              	.LFE241:
 435              		.size	heap1_setup, .-heap1_setup
 436 0018 AFF30080 		.section	.text.heap1_execute,"ax",%progbits
 436      AFF30080 
 437              		.align	2
 438              		.p2align 4,,15
 439              		.thumb
 440              		.thumb_func
 441              		.type	heap1_execute, %function
 442              	heap1_execute:
 443              	.LFB242:
 444              		.loc 1 69 0
 445              		.cfi_startproc
 446              		@ args = 0, pretend = 0, frame = 24
 447              		@ frame_needed = 0, uses_anonymous_args = 0
 448 0000 00B5     		push	{lr}
 449              		.cfi_def_cfa_offset 4
 450              		.cfi_offset 14, -4
 451 0002 87B0     		sub	sp, sp, #28
 452              		.cfi_def_cfa_offset 32
 453              		.loc 1 74 0
 454 0004 FFF7FEFF 		bl	chCoreGetStatusX
 455              		.loc 1 80 0
 456 0008 01AB     		add	r3, sp, #4
 457 000a 0020     		movs	r0, #0
 458 000c 1946     		mov	r1, r3
 459 000e FFF7FEFF 		bl	chHeapStatus
 460              		.loc 1 81 0
 461 0012 0020     		movs	r0, #0
 462 0014 1021     		movs	r1, #16
 463 0016 FFF7FEFF 		bl	chHeapAlloc
 464 001a 0590     		str	r0, [sp, #20]
 465              		.loc 1 82 0
 466 001c 059B     		ldr	r3, [sp, #20]
 467 001e 002B     		cmp	r3, #0
 468 0020 0CBF     		ite	eq
 469 0022 0023     		moveq	r3, #0
ARM GAS  /tmp/cchU44nR.s 			page 33


 470 0024 0123     		movne	r3, #1
 471 0026 DBB2     		uxtb	r3, r3
 472 0028 0120     		movs	r0, #1
 473 002a 1946     		mov	r1, r3
 474 002c FFF7FEFF 		bl	_test_assert
 475 0030 0346     		mov	r3, r0
 476 0032 002B     		cmp	r3, #0
 477 0034 00D0     		beq	.L5
 478              		.loc 1 82 0 is_stmt 0 discriminator 1
 479 0036 4EE1     		b	.L4
 480              	.L5:
 481              		.loc 1 83 0 is_stmt 1
 482 0038 0598     		ldr	r0, [sp, #20]
 483 003a FFF7FEFF 		bl	chHeapFree
 484              		.loc 1 84 0
 485 003e 0020     		movs	r0, #0
 486 0040 6FF0FF01 		mvn	r1, #255
 487 0044 FFF7FEFF 		bl	chHeapAlloc
 488 0048 0590     		str	r0, [sp, #20]
 489              		.loc 1 85 0
 490 004a 059B     		ldr	r3, [sp, #20]
 491 004c 002B     		cmp	r3, #0
 492 004e 14BF     		ite	ne
 493 0050 0023     		movne	r3, #0
 494 0052 0123     		moveq	r3, #1
 495 0054 DBB2     		uxtb	r3, r3
 496 0056 0220     		movs	r0, #2
 497 0058 1946     		mov	r1, r3
 498 005a FFF7FEFF 		bl	_test_assert
 499 005e 0346     		mov	r3, r0
 500 0060 002B     		cmp	r3, #0
 501 0062 00D0     		beq	.L7
 502              		.loc 1 85 0 is_stmt 0 discriminator 1
 503 0064 37E1     		b	.L4
 504              	.L7:
 505              		.loc 1 88 0 is_stmt 1
 506 0066 01AB     		add	r3, sp, #4
 507 0068 9C48     		ldr	r0, .L22
 508 006a 1946     		mov	r1, r3
 509 006c FFF7FEFF 		bl	chHeapStatus
 510              		.loc 1 91 0
 511 0070 9A48     		ldr	r0, .L22
 512 0072 1021     		movs	r1, #16
 513 0074 FFF7FEFF 		bl	chHeapAlloc
 514 0078 0590     		str	r0, [sp, #20]
 515              		.loc 1 92 0
 516 007a 9848     		ldr	r0, .L22
 517 007c 1021     		movs	r1, #16
 518 007e FFF7FEFF 		bl	chHeapAlloc
 519 0082 0490     		str	r0, [sp, #16]
 520              		.loc 1 93 0
 521 0084 9548     		ldr	r0, .L22
 522 0086 1021     		movs	r1, #16
 523 0088 FFF7FEFF 		bl	chHeapAlloc
 524 008c 0390     		str	r0, [sp, #12]
 525              		.loc 1 94 0
 526 008e 0598     		ldr	r0, [sp, #20]
ARM GAS  /tmp/cchU44nR.s 			page 34


 527 0090 FFF7FEFF 		bl	chHeapFree
 528              		.loc 1 95 0
 529 0094 0498     		ldr	r0, [sp, #16]
 530 0096 FFF7FEFF 		bl	chHeapFree
 531              		.loc 1 96 0
 532 009a 0398     		ldr	r0, [sp, #12]
 533 009c FFF7FEFF 		bl	chHeapFree
 534              		.loc 1 97 0
 535 00a0 02AB     		add	r3, sp, #8
 536 00a2 8E48     		ldr	r0, .L22
 537 00a4 1946     		mov	r1, r3
 538 00a6 FFF7FEFF 		bl	chHeapStatus
 539 00aa 0346     		mov	r3, r0
 540 00ac 012B     		cmp	r3, #1
 541 00ae 14BF     		ite	ne
 542 00b0 0023     		movne	r3, #0
 543 00b2 0123     		moveq	r3, #1
 544 00b4 DBB2     		uxtb	r3, r3
 545 00b6 0320     		movs	r0, #3
 546 00b8 1946     		mov	r1, r3
 547 00ba FFF7FEFF 		bl	_test_assert
 548 00be 0346     		mov	r3, r0
 549 00c0 002B     		cmp	r3, #0
 550 00c2 00D0     		beq	.L8
 551              		.loc 1 97 0 is_stmt 0 discriminator 1
 552 00c4 07E1     		b	.L4
 553              	.L8:
 554              		.loc 1 100 0 is_stmt 1
 555 00c6 8548     		ldr	r0, .L22
 556 00c8 1021     		movs	r1, #16
 557 00ca FFF7FEFF 		bl	chHeapAlloc
 558 00ce 0590     		str	r0, [sp, #20]
 559              		.loc 1 101 0
 560 00d0 8248     		ldr	r0, .L22
 561 00d2 1021     		movs	r1, #16
 562 00d4 FFF7FEFF 		bl	chHeapAlloc
 563 00d8 0490     		str	r0, [sp, #16]
 564              		.loc 1 102 0
 565 00da 8048     		ldr	r0, .L22
 566 00dc 1021     		movs	r1, #16
 567 00de FFF7FEFF 		bl	chHeapAlloc
 568 00e2 0390     		str	r0, [sp, #12]
 569              		.loc 1 103 0
 570 00e4 0398     		ldr	r0, [sp, #12]
 571 00e6 FFF7FEFF 		bl	chHeapFree
 572              		.loc 1 104 0
 573 00ea 0498     		ldr	r0, [sp, #16]
 574 00ec FFF7FEFF 		bl	chHeapFree
 575              		.loc 1 105 0
 576 00f0 0598     		ldr	r0, [sp, #20]
 577 00f2 FFF7FEFF 		bl	chHeapFree
 578              		.loc 1 106 0
 579 00f6 02AB     		add	r3, sp, #8
 580 00f8 7848     		ldr	r0, .L22
 581 00fa 1946     		mov	r1, r3
 582 00fc FFF7FEFF 		bl	chHeapStatus
 583 0100 0346     		mov	r3, r0
ARM GAS  /tmp/cchU44nR.s 			page 35


 584 0102 012B     		cmp	r3, #1
 585 0104 14BF     		ite	ne
 586 0106 0023     		movne	r3, #0
 587 0108 0123     		moveq	r3, #1
 588 010a DBB2     		uxtb	r3, r3
 589 010c 0420     		movs	r0, #4
 590 010e 1946     		mov	r1, r3
 591 0110 FFF7FEFF 		bl	_test_assert
 592 0114 0346     		mov	r3, r0
 593 0116 002B     		cmp	r3, #0
 594 0118 00D0     		beq	.L9
 595              		.loc 1 106 0 is_stmt 0 discriminator 1
 596 011a DCE0     		b	.L4
 597              	.L9:
 598              		.loc 1 109 0 is_stmt 1
 599 011c 6F48     		ldr	r0, .L22
 600 011e 1121     		movs	r1, #17
 601 0120 FFF7FEFF 		bl	chHeapAlloc
 602 0124 0590     		str	r0, [sp, #20]
 603              		.loc 1 110 0
 604 0126 6D48     		ldr	r0, .L22
 605 0128 1021     		movs	r1, #16
 606 012a FFF7FEFF 		bl	chHeapAlloc
 607 012e 0490     		str	r0, [sp, #16]
 608              		.loc 1 111 0
 609 0130 0598     		ldr	r0, [sp, #20]
 610 0132 FFF7FEFF 		bl	chHeapFree
 611              		.loc 1 112 0
 612 0136 02AB     		add	r3, sp, #8
 613 0138 6848     		ldr	r0, .L22
 614 013a 1946     		mov	r1, r3
 615 013c FFF7FEFF 		bl	chHeapStatus
 616 0140 0346     		mov	r3, r0
 617 0142 022B     		cmp	r3, #2
 618 0144 14BF     		ite	ne
 619 0146 0023     		movne	r3, #0
 620 0148 0123     		moveq	r3, #1
 621 014a DBB2     		uxtb	r3, r3
 622 014c 0520     		movs	r0, #5
 623 014e 1946     		mov	r1, r3
 624 0150 FFF7FEFF 		bl	_test_assert
 625 0154 0346     		mov	r3, r0
 626 0156 002B     		cmp	r3, #0
 627 0158 00D0     		beq	.L10
 628              		.loc 1 112 0 is_stmt 0 discriminator 1
 629 015a BCE0     		b	.L4
 630              	.L10:
 631              		.loc 1 113 0 is_stmt 1
 632 015c 5F48     		ldr	r0, .L22
 633 015e 1021     		movs	r1, #16
 634 0160 FFF7FEFF 		bl	chHeapAlloc
 635 0164 0590     		str	r0, [sp, #20]
 636              		.loc 1 116 0
 637 0166 02AB     		add	r3, sp, #8
 638 0168 5C48     		ldr	r0, .L22
 639 016a 1946     		mov	r1, r3
 640 016c FFF7FEFF 		bl	chHeapStatus
ARM GAS  /tmp/cchU44nR.s 			page 36


 641 0170 0346     		mov	r3, r0
 642 0172 012B     		cmp	r3, #1
 643 0174 07D0     		beq	.L11
 644              		.loc 1 116 0 is_stmt 0 discriminator 2
 645 0176 02AB     		add	r3, sp, #8
 646 0178 5848     		ldr	r0, .L22
 647 017a 1946     		mov	r1, r3
 648 017c FFF7FEFF 		bl	chHeapStatus
 649 0180 0346     		mov	r3, r0
 650 0182 022B     		cmp	r3, #2
 651 0184 01D1     		bne	.L12
 652              	.L11:
 653              		.loc 1 116 0 discriminator 1
 654 0186 0123     		movs	r3, #1
 655 0188 00E0     		b	.L13
 656              	.L12:
 657              		.loc 1 116 0 discriminator 3
 658 018a 0023     		movs	r3, #0
 659              	.L13:
 660              		.loc 1 116 0 discriminator 4
 661 018c 03F00103 		and	r3, r3, #1
 662 0190 DBB2     		uxtb	r3, r3
 663 0192 0620     		movs	r0, #6
 664 0194 1946     		mov	r1, r3
 665 0196 FFF7FEFF 		bl	_test_assert
 666 019a 0346     		mov	r3, r0
 667 019c 002B     		cmp	r3, #0
 668 019e 00D0     		beq	.L14
 669              		.loc 1 116 0 discriminator 1
 670 01a0 99E0     		b	.L4
 671              	.L14:
 672              		.loc 1 118 0 is_stmt 1
 673 01a2 0498     		ldr	r0, [sp, #16]
 674 01a4 FFF7FEFF 		bl	chHeapFree
 675              		.loc 1 119 0
 676 01a8 0598     		ldr	r0, [sp, #20]
 677 01aa FFF7FEFF 		bl	chHeapFree
 678              		.loc 1 120 0
 679 01ae 02AB     		add	r3, sp, #8
 680 01b0 4A48     		ldr	r0, .L22
 681 01b2 1946     		mov	r1, r3
 682 01b4 FFF7FEFF 		bl	chHeapStatus
 683 01b8 0346     		mov	r3, r0
 684 01ba 012B     		cmp	r3, #1
 685 01bc 14BF     		ite	ne
 686 01be 0023     		movne	r3, #0
 687 01c0 0123     		moveq	r3, #1
 688 01c2 DBB2     		uxtb	r3, r3
 689 01c4 0720     		movs	r0, #7
 690 01c6 1946     		mov	r1, r3
 691 01c8 FFF7FEFF 		bl	_test_assert
 692 01cc 0346     		mov	r3, r0
 693 01ce 002B     		cmp	r3, #0
 694 01d0 00D0     		beq	.L15
 695              		.loc 1 120 0 is_stmt 0 discriminator 1
 696 01d2 80E0     		b	.L4
 697              	.L15:
ARM GAS  /tmp/cchU44nR.s 			page 37


 698              		.loc 1 123 0 is_stmt 1
 699 01d4 4148     		ldr	r0, .L22
 700 01d6 1021     		movs	r1, #16
 701 01d8 FFF7FEFF 		bl	chHeapAlloc
 702 01dc 0590     		str	r0, [sp, #20]
 703              		.loc 1 124 0
 704 01de 3F48     		ldr	r0, .L22
 705 01e0 1021     		movs	r1, #16
 706 01e2 FFF7FEFF 		bl	chHeapAlloc
 707 01e6 0490     		str	r0, [sp, #16]
 708              		.loc 1 125 0
 709 01e8 0598     		ldr	r0, [sp, #20]
 710 01ea FFF7FEFF 		bl	chHeapFree
 711              		.loc 1 126 0
 712 01ee 02AB     		add	r3, sp, #8
 713 01f0 3A48     		ldr	r0, .L22
 714 01f2 1946     		mov	r1, r3
 715 01f4 FFF7FEFF 		bl	chHeapStatus
 716 01f8 0346     		mov	r3, r0
 717 01fa 022B     		cmp	r3, #2
 718 01fc 14BF     		ite	ne
 719 01fe 0023     		movne	r3, #0
 720 0200 0123     		moveq	r3, #1
 721 0202 DBB2     		uxtb	r3, r3
 722 0204 0820     		movs	r0, #8
 723 0206 1946     		mov	r1, r3
 724 0208 FFF7FEFF 		bl	_test_assert
 725 020c 0346     		mov	r3, r0
 726 020e 002B     		cmp	r3, #0
 727 0210 00D0     		beq	.L16
 728              		.loc 1 126 0 is_stmt 0 discriminator 1
 729 0212 60E0     		b	.L4
 730              	.L16:
 731              		.loc 1 127 0 is_stmt 1
 732 0214 3148     		ldr	r0, .L22
 733 0216 2021     		movs	r1, #32
 734 0218 FFF7FEFF 		bl	chHeapAlloc
 735 021c 0590     		str	r0, [sp, #20]
 736              		.loc 1 128 0
 737 021e 0598     		ldr	r0, [sp, #20]
 738 0220 FFF7FEFF 		bl	chHeapFree
 739              		.loc 1 129 0
 740 0224 0498     		ldr	r0, [sp, #16]
 741 0226 FFF7FEFF 		bl	chHeapFree
 742              		.loc 1 130 0
 743 022a 02AB     		add	r3, sp, #8
 744 022c 2B48     		ldr	r0, .L22
 745 022e 1946     		mov	r1, r3
 746 0230 FFF7FEFF 		bl	chHeapStatus
 747 0234 0346     		mov	r3, r0
 748 0236 012B     		cmp	r3, #1
 749 0238 14BF     		ite	ne
 750 023a 0023     		movne	r3, #0
 751 023c 0123     		moveq	r3, #1
 752 023e DBB2     		uxtb	r3, r3
 753 0240 0920     		movs	r0, #9
 754 0242 1946     		mov	r1, r3
ARM GAS  /tmp/cchU44nR.s 			page 38


 755 0244 FFF7FEFF 		bl	_test_assert
 756 0248 0346     		mov	r3, r0
 757 024a 002B     		cmp	r3, #0
 758 024c 00D0     		beq	.L17
 759              		.loc 1 130 0 is_stmt 0 discriminator 1
 760 024e 42E0     		b	.L4
 761              	.L17:
 762              		.loc 1 133 0 is_stmt 1
 763 0250 02AB     		add	r3, sp, #8
 764 0252 2248     		ldr	r0, .L22
 765 0254 1946     		mov	r1, r3
 766 0256 FFF7FEFF 		bl	chHeapStatus
 767              		.loc 1 134 0
 768 025a 029B     		ldr	r3, [sp, #8]
 769 025c 1F48     		ldr	r0, .L22
 770 025e 1946     		mov	r1, r3
 771 0260 FFF7FEFF 		bl	chHeapAlloc
 772 0264 0590     		str	r0, [sp, #20]
 773              		.loc 1 135 0
 774 0266 02AB     		add	r3, sp, #8
 775 0268 1C48     		ldr	r0, .L22
 776 026a 1946     		mov	r1, r3
 777 026c FFF7FEFF 		bl	chHeapStatus
 778 0270 0346     		mov	r3, r0
 779 0272 002B     		cmp	r3, #0
 780 0274 14BF     		ite	ne
 781 0276 0023     		movne	r3, #0
 782 0278 0123     		moveq	r3, #1
 783 027a DBB2     		uxtb	r3, r3
 784 027c 0A20     		movs	r0, #10
 785 027e 1946     		mov	r1, r3
 786 0280 FFF7FEFF 		bl	_test_assert
 787 0284 0346     		mov	r3, r0
 788 0286 002B     		cmp	r3, #0
 789 0288 00D0     		beq	.L18
 790              		.loc 1 135 0 is_stmt 0 discriminator 1
 791 028a 24E0     		b	.L4
 792              	.L18:
 793              		.loc 1 136 0 is_stmt 1
 794 028c 0598     		ldr	r0, [sp, #20]
 795 028e FFF7FEFF 		bl	chHeapFree
 796              		.loc 1 138 0
 797 0292 02AB     		add	r3, sp, #8
 798 0294 1148     		ldr	r0, .L22
 799 0296 1946     		mov	r1, r3
 800 0298 FFF7FEFF 		bl	chHeapStatus
 801 029c 0346     		mov	r3, r0
 802 029e 012B     		cmp	r3, #1
 803 02a0 14BF     		ite	ne
 804 02a2 0023     		movne	r3, #0
 805 02a4 0123     		moveq	r3, #1
 806 02a6 DBB2     		uxtb	r3, r3
 807 02a8 0B20     		movs	r0, #11
 808 02aa 1946     		mov	r1, r3
 809 02ac FFF7FEFF 		bl	_test_assert
 810 02b0 0346     		mov	r3, r0
 811 02b2 002B     		cmp	r3, #0
ARM GAS  /tmp/cchU44nR.s 			page 39


 812 02b4 00D0     		beq	.L19
 813              		.loc 1 138 0 is_stmt 0 discriminator 1
 814 02b6 0EE0     		b	.L4
 815              	.L19:
 816              		.loc 1 139 0 is_stmt 1
 817 02b8 029A     		ldr	r2, [sp, #8]
 818 02ba 019B     		ldr	r3, [sp, #4]
 819 02bc 9A42     		cmp	r2, r3
 820 02be 14BF     		ite	ne
 821 02c0 0023     		movne	r3, #0
 822 02c2 0123     		moveq	r3, #1
 823 02c4 DBB2     		uxtb	r3, r3
 824 02c6 0C20     		movs	r0, #12
 825 02c8 1946     		mov	r1, r3
 826 02ca FFF7FEFF 		bl	_test_assert
 827 02ce 0346     		mov	r3, r0
 828 02d0 002B     		cmp	r3, #0
 829 02d2 00D0     		beq	.L4
 830 02d4 00BF     		nop
 831              	.L4:
 832              		.loc 1 140 0
 833 02d6 07B0     		add	sp, sp, #28
 834              		@ sp needed
 835 02d8 5DF804FB 		ldr	pc, [sp], #4
 836              	.L23:
 837              		.align	2
 838              	.L22:
 839 02dc 00000000 		.word	test_heap
 840              		.cfi_endproc
 841              	.LFE242:
 842              		.size	heap1_execute, .-heap1_execute
 843              		.global	testheap1
 844              		.section	.rodata
 845              		.align	2
 846              	.LC0:
 847 0000 48656170 		.ascii	"Heap, allocation and fragmentation test\000"
 847      2C20616C 
 847      6C6F6361 
 847      74696F6E 
 847      20616E64 
 848              		.section	.rodata.testheap1,"a",%progbits
 849              		.align	2
 850              		.type	testheap1, %object
 851              		.size	testheap1, 16
 852              	testheap1:
 853 0000 00000000 		.word	.LC0
 854 0004 00000000 		.word	heap1_setup
 855 0008 00000000 		.word	0
 856 000c 00000000 		.word	heap1_execute
 857              		.global	patternheap
 858              		.section	.rodata.patternheap,"a",%progbits
 859              		.align	2
 860              		.type	patternheap, %object
 861              		.size	patternheap, 8
 862              	patternheap:
 863 0000 00000000 		.word	testheap1
 864 0004 00000000 		.word	0
ARM GAS  /tmp/cchU44nR.s 			page 40


 865              		.text
 866              	.Letext0:
 867              		.file 2 "/nfs/nfs5/home/research/hardware/arm2/gcc-arm-embedded/gcc-arm-none-eabi-4_8-2014q2/lib/g
 868              		.file 3 "/nfs/nfs5/home/research/hardware/arm2/gcc-arm-embedded/gcc-arm-none-eabi-4_8-2014q2/arm-n
 869              		.file 4 "/nfs/nfs5/home/research/hardware/arm2/gcc-arm-embedded/gcc-arm-none-eabi-4_8-2014q2/arm-n
 870              		.file 5 "../ChibiOS/os/rt/ports/ARMCMx/compilers/GCC/chtypes.h"
 871              		.file 6 "../ChibiOS/os/rt/include/chsystypes.h"
 872              		.file 7 "../ChibiOS/os/rt/include/chschd.h"
 873              		.file 8 "../ChibiOS/os/rt/ports/ARMCMx/chcore.h"
 874              		.file 9 "../ChibiOS/os/rt/ports/ARMCMx/chcore_v7m.h"
 875              		.file 10 "../ChibiOS/os/rt/include/chtm.h"
 876              		.file 11 "../ChibiOS/os/rt/include/chsem.h"
 877              		.file 12 "../ChibiOS/os/rt/include/chmtx.h"
 878              		.file 13 "../ChibiOS/os/rt/include/chmemcore.h"
 879              		.file 14 "../ChibiOS/os/rt/include/chheap.h"
 880              		.file 15 "../ChibiOS/test/rt/test.h"
 881              		.file 16 "../ChibiOS/os/ext/CMSIS/include/core_cm4.h"