ARM GAS  /tmp/ccXgCN1n.s 			page 1


   1              		.syntax unified
   2              		.cpu cortex-m4
   3              		.fpu softvfp
   4              		.eabi_attribute 20, 1
   5              		.eabi_attribute 21, 1
   6              		.eabi_attribute 23, 3
   7              		.eabi_attribute 24, 1
   8              		.eabi_attribute 25, 1
   9              		.eabi_attribute 26, 1
  10              		.eabi_attribute 30, 2
  11              		.eabi_attribute 34, 1
  12              		.eabi_attribute 18, 4
  13              		.thumb
  14              		.file	"testheap.c"
  15              		.text
  16              	.Ltext0:
  17              		.section	.gnu.lto_.jmpfuncs.6e31753dc97a20ce,"",%progbits
  18 0000 789C6362 		.ascii	"x\234cb`b\300\006f2Ch\240,\023S\004c&#\003\017\230\013"
  18      6062C006 
  18      66324368 
  18      A02C1353 
  18      04632623 
  19 0018 617343D8 		.ascii	"asC\330\325\014\277\032:\032\0042\031\031s\031\241\372"
  19      D50CBF1A 
  19      3A1A0432 
  19      19197319 
  19      A1FA
  20 002a 18E16AB8 		.ascii	"\030\341j\270p\252!E\020l\024'>\353\030\261J\20152)"
  20      70AA2145 
  20      106C1427 
  20      3EEB18B1 
  20      4A813532 
  21 003f C08DE0C0 		.ascii	"\300\215\340\300\357b\034\372\005\010\311\201\315f'"
  21      EF621CFA 
  21      0508C981 
  21      CD6627
  22 004e E83CB032 		.ascii	"\350<\26026\212\003\004\335bV\252{J\020n6\013\001OQ"
  22      368A0304 
  22      DD6256AA 
  22      7B4A106E 
  22      360B014F 
  23 0063 146C047D 		.ascii	"\024l\004}\306<P\266\343N\204L\0106#L\017C\303\277\377"
  23      C63C50B6 
  23      E34E844C 
  23      0836234C 
  23      0F43C3BF 
  24 0078 FFF99123 		.ascii	"\377\371\221#\231\021\213*\204\277\240F210cq\004\\\204"
  24      99118B2A 
  24      84BFA046 
  24      32313063 
  24      71045C84 
  25 008c 599B6155 		.ascii	"Y\233aUC\003\210\305\222\313\310\230\004s\007\334\322"
  25      430388C5 
  25      92CBC898 
  25      047307DC 
  25      D2
  26 009d 17A0AC08 		.ascii	"\027\240\254\010\000\207\223\212\230"
ARM GAS  /tmp/ccXgCN1n.s 			page 2


  26      0087938A 
  26      98
  27              		.text
  28              		.section	.gnu.lto_.inline.6e31753dc97a20ce,"",%progbits
  29 0000 789C6362 		.ascii	"x\234cb`b\300\006\3662Bh&\006\216\347\214g\031\030\031"
  29      6062C006 
  29      F6324268 
  29      26068EE7 
  29      8C671918 
  30 0015 98429A9C 		.ascii	"\230B\232\234\030\330\026\310\203\225\263\360\202d&"
  30      18D816C8 
  30      8395B3F0 
  30      826426
  31 0024 F8A1D20C 		.ascii	"\370\241\322\014L\334\014\014\214\030\2420.3\017\012"
  31      4CDC0C0C 
  31      8C18A230 
  31      2E330F0A 
  32 0034 17550F8A 		.ascii	"\027U\017\212V\034jP$\2111\007\273\026\312M\307\243"
  32      561C6A50 
  32      24893107 
  32      BB16CA4D 
  32      C7A3
  33 0046 837C8D78 		.ascii	"\203|\215x\203\007M\024\252\226\221\013\034C\354\374"
  33      83074D14 
  33      AA96910B 
  33      1C43ECFC 
  34 0056 8CE05844 		.ascii	"\214\340XD\216\035f\020\003\000\363\332 \205"
  34      8E1D6610 
  34      0300F3DA 
  34      2085
  35              		.text
  36              		.section	.gnu.lto_.pureconst.6e31753dc97a20ce,"",%progbits
  37 0000 789C6362 		.ascii	"x\234cb`b`e\200\000&\006\011&\011\000\001\000\000>"
  37      60626065 
  37      80002606 
  37      09260900 
  37      0100003E 
  38              		.text
  39              		.section	.gnu.lto_heap1_execute.6e31753dc97a20ce,"",%progbits
  40 0000 789CAD58 		.ascii	"x\234\255X]lTE\024>s\357\376uw\333\335n\2734})\224\246"
  40      5D6C5445 
  40      143E73EF 
  40      FE7577DB 
  40      DD6EBB34 
  41 0018 5613E85A 		.ascii	"V\023\350Z\252\374\244iJ0\2014M#\244l\004$\244e\255"
  41      AAFCA469 
  41      4A308134 
  41      4D23A46C 
  41      0424A465 
  42 002d 742D6D36 		.ascii	"t-m6R_\340\201K\273\030$6\022\022\023B4\226 *\251\204"
  42      525FE081 
  42      4BBB1824 
  42      36121213 
  42      42349620 
  43 0044 101F3001 		.ascii	"\020\0370\001\264Q\243-\021\032\023\022\301\370\263"
  43      B451A32D 
  43      111A1312 
ARM GAS  /tmp/ccXgCN1n.s 			page 3


  43      C1F8B3
  44 0053 F1458C04 		.ascii	"\361E\214\004y0\321\210\262\23633;\333\355\375q\011"
  44      7930D188 
  44      B29E3333 
  44      3BDBEDFD 
  44      7109
  45 0065 771F66EE 		.ascii	"w\037f\3569s\316\2319\337\367\335\273wW\003\015\026"
  45      3973CE99 
  45      39DFF7DD 
  45      BB775703 
  45      0D16
  46 0077 7F020CE0 		.ascii	"\177\002\014\340\317Z\200.\274fq`\332\261\353\000\207"
  46      CF5A802E 
  46      BC667160 
  46      DAB1EB00 
  46      87
  47 0088 029A16BB 		.ascii	"\002\232\026\273\274\006\214\240~c\011\030a]Z\036ny"
  47      BC068CA0 
  47      7E630918 
  47      615D5A1E 
  47      6E79
  48 009a A4E5E596 		.ascii	"\244\345\345\226WZ>n\371\244\345\347\226_\013N>\206"
  48      575A3E6E 
  48      F9A4E5E7 
  48      965F0B4E 
  48      3E86
  49 00ac 5660E271 		.ascii	"V`\342q\264\002Z\355\2758Z\301\251\265h\325\262 m\305"
  49      B4025AED 
  49      BD385AC1 
  49      A9B568D5 
  49      B2206DC5 
  50 00c0 823223C4 		.ascii	"\2022#\3043B\322\012s+,\255JnUJ\253\212[U\322\212p+"
  50      3342D20A 
  50      732B2CAD 
  50      4A6E554A 
  50      AB8A5B55 
  51 00d8 22AD28B7 		.ascii	"\"\255(\267\242Z\354F\002\255\352\313\015hU\263\032"
  51      A25AEC46 
  51      02ADEACB 
  51      0D6855B3 
  51      1A
  52 00e9 D154AC70 		.ascii	"\321T\254pQ\303\030]\000\203\203\232\356\361\372\374"
  52      51C3185D 
  52      0083839A 
  52      EEF1FAFC 
  53 00f9 81DA6028 		.ascii	"\201\332`(\\Y\025\211V\307j\330\301\355\214#\263\034"
  53      5C591589 
  53      56C76AD8 
  53      C1ED8C23 
  53      B31C
  54 010b 4E19C6B1 		.ascii	"N\031\306\261\334\341\373'\352\217N\215\0373\036\344"
  54      DCE1FB27 
  54      EA8F4E8D 
  54      1F331EE4 
  55 011b F32CCD10 		.ascii	"\363,\315\020\303F\006)\006\333\320`\313\370\244yJA"
  55      C3460629 
  55      06DBD060 
ARM GAS  /tmp/ccXgCN1n.s 			page 4


  55      CBF8A479 
  55      4A41
  56 012d E599C767 		.ascii	"\345\231\307g\336\276\372\346\302L]\203'\312\314\274"
  56      DEBEFAE6 
  56      C24C5D83 
  56      27CACCBC 
  57 013d 7875EE14 		.ascii	"xu\356\0243\216\033\207\356\345\363\021\236\271\262"
  57      338E1B87 
  57      EEE5F311 
  57      9EB9B2
  58 014c DC3DBF7C 		.ascii	"\334=\277|\275\336(\356\351\321`Uy\231\306\225\027f"
  58      BDDE28EE 
  58      E9D16055 
  58      7999C695 
  58      1766
  59 015e 8DEC4C3E 		.ascii	"\215\354L>\337\305\263\236.3\353\333\222\254\265\345"
  59      DFC5B39E 
  59      2E33EBDB 
  59      92ACB5E5 
  60 016e 64CD1C9F 		.ascii	"d\315\034\237y\347\325\311\205\247\364j\320Q^\246q\251"
  60      79E7D5C9 
  60      85A7F46A 
  60      D0515EA6 
  60      71A9
  61 0180 B81F6675 		.ascii	"\270\037fu\376_\326ym&\227\317\177\177\341\335\237\337"
  61      FE5FD679 
  61      6D2697CF 
  61      7F7FE1DD 
  61      9FDF
  62 0192 62B15718 		.ascii	"b\261W\030\014\260Sl9T\340\374>\316AH3_\230\206\210"
  62      0CB0536C 
  62      3954E0FC 
  62      3ECE4148 
  62      335F9886 
  63 01a7 F444C988 		.ascii	"\364D\311\210\321\020\227\236:\234\317\342\\\217\363"
  63      D110979E 
  63      3A9CCFE2 
  63      5C8FF3
  64 01b6 34CE0DB8 		.ascii	"4\316\015\270\250/\245\210F\032\232dX\263\014k\221a"
  64      A82FA588 
  64      461A9A64 
  64      58B30C6B 
  64      9161
  65 01c8 2B286C25 		.ascii	"+(l%E$hh\223a\3552l5-\257\241\225u4t\310\345Nrw\321"
  65      45246868 
  65      9361ED32 
  65      6C352DAF 
  65      A1957534 
  66 01e3 B09EDC1B 		.ascii	"\260\236\334\033h\330H\346&\272\352\246\241G\206\366"
  66      68D848E6 
  66      26BAEAA6 
  66      A14786F6 
  67 01f3 CA4A9B69 		.ascii	"\312J\233iy\013\255\364\321\220\224\313\333\311\275"
  67      790BADF4 
  67      D19094CB 
  67      DBC9BD
  68 0202 833C3B69 		.ascii	"\203<;i\330\205\356\323\350\356\227\313\273i9E+\203"
ARM GAS  /tmp/ccXgCN1n.s 			page 5


  68      D885EED3 
  68      E8EE97CB 
  68      BB693945 
  68      2B83
  69 0214 340C9199 		.ascii	"4\014\221\231\246\253a\032\366\312\350\021\234\317\340"
  69      A6AB611A 
  69      F6CAE811 
  69      9CCFE0
  70 0223 3C4ACE0C 		.ascii	"<J\316\014\015\010\251\027\262x[,\023u\304\031D\313"
  70      0D08A917 
  70      B2785B2C 
  70      1375C419 
  70      44CB
  71 0235 03EC1C1F 		.ascii	"\003\354\034\037\317\343\010\304\013~\266\342H\267Z"
  71      CFE308C4 
  71      0B7EB6E2 
  71      48B75A
  72 0244 926934EB 		.ascii	"\222i4\353\3630\221;\231\032`\027\230\027W\017\300\337"
  72      F330913B 
  72      991A6017 
  72      9817570F 
  72      C0DF
  73 0256 C611239A 		.ascii	"\306\021#\232f\376\024\343\341\270E\000`\036\016O}\240"
  73      66FE14E3 
  73      E1B84500 
  73      601E0E4F 
  73      7DA0
  74 0268 9B822A52 		.ascii	"\233\202*RL<\277\210\350\240X\300\317\363i\026\022\233"
  74      4C3CBF88 
  74      E8A058C0 
  74      CFF36916 
  74      129B
  75 027a CA8C340B 		.ascii	"\312\2144\013\363\032\271\263\2373\341\332\303*T\225"
  75      F31AB9B3 
  75      9F33E1DA 
  75      C32A5495 
  76 028a CA14D317 		.ascii	"\312\024\323\027V\241\311K\264W\001\314\201&\022Ds\230"
  76      56A1C94B 
  76      B45701CC 
  76      81261244 
  76      7398
  77 029c 06700D26 		.ascii	"\006p\015&nNLO\352\205JA\364R\016\027\332<x\013\376"
  77      6E4E4C4F 
  77      EA854A41 
  77      F4520E17 
  77      DA3C780B 
  78 02b1 B0DA2192 		.ascii	"\260\332!\222\022\213\274\264\316('\315\242\000\263"
  78      128BBCB4 
  78      CE2827CD 
  78      A200B3
  79 02c0 90BDA30E 		.ascii	"\220\275\243\016\024\246E\337B\251&\361\\7\226 B\331"
  79      14A645DF 
  79      42A926F1 
  79      5C379620 
  79      42D9
  80 02d2 DCF469BF 		.ascii	"\334\364i\277\251\373\352\024\267\201N\225f1\321\341"
  80      A9FBEA14 
ARM GAS  /tmp/ccXgCN1n.s 			page 6


  80      B7814E95 
  80      6631D1E1 
  81 02e2 87C50E23 		.ascii	"\207\305\016#\216\035\352t\247El\272\214\360.\347'."
  81      8E1DEA74 
  81      A7456CBA 
  81      8CF02EE7 
  81      272E
  82 02f4 16BB8CA2 		.ascii	"\026\273\214\242\327\252\313\230M\227\032\345\230\273"
  82      D7AACB98 
  82      4D971AE5 
  82      98BB
  83 0302 8C5974E9 		.ascii	"\214Yt\351\2019\237N\024\177\354@\261\360\020\267\301"
  83      81399F4E 
  83      147FEC40 
  83      B1F010B7 
  83      C1
  84 0313 115620F6 		.ascii	"\021V \366\000\354\267\345\372R\021\211\270\031\011"
  84      00ECB7E5 
  84      FA521189 
  84      B81909
  85 0322 59EEB992 		.ascii	"Y\356\271\222r\245\314\217\317\370JQ\211\013!^V\230"
  85      72A5CC8F 
  85      CFF84A51 
  85      890B215E 
  85      5698
  86 0334 D43D6ADD 		.ascii	"\324=j\335\263\274n\235\250{E\325\255\177\324\272\323"
  86      B3BC6E9D 
  86      A87B45D5 
  86      AD7FD4BA 
  86      D3
  87 0345 BC6E3DD5 		.ascii	"\274n=\325\315\346>q\326N\\j';\365\251\031\376\005q"
  87      CDE63E71 
  87      D64E5C6A 
  87      273BF5A9 
  87      19FE0571 
  88 0359 752A6ED6 		.ascii	"u*n\3261\256^iq.Uh\250\301\232\317\200%\231\347\026"
  88      31AE5E69 
  88      712E5568 
  88      A8C19ACF 
  88      802599E7 
  89 036e 91494A54 		.ascii	"\221IJT\320,\305b\274mV*\303F\033\031\352\224c\226a"
  89      D02CC562 
  89      BC6D562A 
  89      C3461B19 
  89      EA946396 
  90 0383 A3850CBD 		.ascii	"\243\205\014\275\360\007#\031\346\276.*\247\311\035"
  90      F0072319 
  90      E6BE2E2A 
  90      A7C91D
  91 0392 E5340986 		.ascii	"\3454\011\206\257\2516\232\335QN\263\250{]\325mqG9-"
  91      AFA9369A 
  91      DD514EB3 
  91      A87B5DD5 
  91      6D714739 
  92 03a7 4239F3CE 		.ascii	"B9\363\316\312iQ\212\270\351\250\210f\025w\3131\256"
  92      CA69518A 
  92      B8E9A888 
ARM GAS  /tmp/ccXgCN1n.s 			page 7


  92      661577CB 
  92      31AE
  93 03b9 4929E73B 		.ascii	"I)\347;\245\234\025\256)g%\026\263RN\302F9\036\3121"
  93      A59C15AE 
  93      29672516 
  93      B3524EC2 
  93      46391ECA 
  94 03ce 2B2761A1 		.ascii	"+'a\241\034\037|\005\\9?\024\225\323\3660LT\333*\247"
  94      1C1F7C05 
  94      5C393F14 
  94      95D3F630 
  94      4C54DB2A 
  95 03e3 4D30FCA3 		.ascii	"M0\374\243j\243\335\035\345\264\013\206\177rf\270M1"
  95      6AA3DD1D 
  95      E5B40B86 
  95      7F7266B8 
  95      4D31
  96 03f5 725B31B2 		.ascii	"r[1\262\3325F\326`\261m\342e\257\204\221u6\214\360\034"
  96      DA3546D6 
  96      60B16DE2 
  96      65AF8491 
  96      75368CF0 
  97 040a 3323EB2C 		.ascii	"3#\353,\030\361C\234\023\362k\221\220\016wn\345\016"
  97      18F1439C 
  97      13F26B91 
  97      900E776E 
  97      E50E
  98 041c 81C71D85 		.ascii	"\201\307\035\205G\347\243\3401\013_\374\242N\330\251"
  98      47E7A3E0 
  98      310B5FFC 
  98      A24ED8A9 
  99 042c E4596C24 		.ascii	"\344Yl$\000!}\0014]\256m\326\245\220/|\266\262Z\320"
  99      00217D01 
  99      345DAE6D 
  99      D6A5902F 
  99      7CB6B25A 
 100 0441 59125F10 		.ascii	"Y\022_\020\342\3725\030\277\253xZ\277\207\336\305\026"
 100      E2FA3518 
 100      BFAB785A 
 100      BF87DEC5 
 100      16
 101 0452 9C62830D 		.ascii	"\234b\203\015A>\0126\023\264a\021A\267\200\221\007\177"
 101      413E0A36 
 101      13B46111 
 101      41B78091 
 101      077F
 102 0464 6CD5F23C 		.ascii	"l\325\362<t\005@z\374\274\353\020\370\370k\317]gy\266"
 102      7405407A 
 102      FCBCEB10 
 102      F8F86BCF 
 102      5D6779B6 
 103 0478 AB07CBEF 		.ascii	"\253\007\313\357\216\017\226\016%\343\277\024m\033]"
 103      8E0F960E 
 103      25E3BF14 
 103      6D1B5D
 104 0487 93F1262C 		.ascii	"\223\361&,f\365`\351\266A\311O9f\224\272-d\034\006\215"
 104      66F560E9 
ARM GAS  /tmp/ccXgCN1n.s 			page 8


 104      B641C94F 
 104      396694BA 
 104      2D641C06 
 105 049c CBF87E51 		.ascii	"\313\370~Q\306=\356\310\270G<W\376Q]\364\272\363\\\351"
 105      C63DEEC8 
 105      B8473C57 
 105      FE515DF4 
 105      BAF35CE9 
 106 04b0 15CF957F 		.ascii	"\025\317\225\177\235\211\353Q\204<P\204lv\215\220-X"
 106      9D89EB51 
 106      843C5084 
 106      6C768D90 
 106      2D58
 107 04c2 CCEAB9D2 		.ascii	"\314\352\271\322gCH\200r\314\204\364Y\020R\011\342\025"
 107      67434880 
 107      72CC84F4 
 107      59105209 
 107      E215
 108 04d4 215F2424 		.ascii	"!_$$\3710\300-\263%$)\200;r\306\021\270\244R\374k^\247"
 108      F930C02D 
 108      B3252429 
 108      803B72C6 
 108      11B8A452 
 109 04ec B85E05F0 		.ascii	"\270^\005\360\321\301\302A\267\273\006\360\016,f\245"
 109      D1C1C241 
 109      B7BB06F0 
 109      0E2C66A5 
 110 04fc F89D3600 		.ascii	"\370\2356\000WP\216\031\340\235\026\000#8\374\247\300"
 110      57508E19 
 110      E09D1600 
 110      2338FCA7 
 110      C0
 111 050d A4B9BDF2 		.ascii	"\244\271\275\362~\012\230\017>>w\363\364-\255\260\351"
 111      7E0A980F 
 111      3E3E77F3 
 111      F42DADB0 
 111      E9
 112 051e 2E11C2C1 		.ascii	".\021\302\301)p\260\207\365\227I\"\346\333\021\330/"
 112      2970B087 
 112      F5974922 
 112      E6DB11D8 
 112      2F
 113 052f F07E43E1 		.ascii	"\360~C\341\275\3335\274SX\214\343\015\245x\017\332\340"
 113      BDDB35BC 
 113      53588CE3 
 113      0DA5780F 
 113      DAE0
 114 0541 1DA41C33 		.ascii	"\035\244\0343\336\203\026xG8\336\331\334\011g\335\365"
 114      DE831678 
 114      4738DED9 
 114      DC0967DD 
 114      F5
 115 0552 2B3D9D54 		.ascii	"+=\235T\375\015\271\326_\032\213Y\351i\330\246\277\020"
 115      FD0DB9D6 
 115      5F1A8B59 
 115      E969D8A6 
 115      BF10
ARM GAS  /tmp/ccXgCN1n.s 			page 9


 116 0564 E598FB1B 		.ascii	"\345\230\373\033\266\350\017c\350\313l\356\366{*loA"
 116      B6E80F63 
 116      E8CB6CEE 
 116      F67B2A6C 
 116      6F41
 117 0576 01E8EF2E 		.ascii	"\001\350\357.8G\012\377R\224\034l\024\243q\255\344P"
 117      38470AFF 
 117      52941C6C 
 117      14A371AD 
 117      E450
 118 0588 199B4385 		.ascii	"\031\233C\205)\336|\250\214\305\241\252\371\241>\373"
 118      29DE7CA8 
 118      8CC5A1AA 
 118      F9A13EFB 
 119 0598 4DFDEAA6 		.ascii	"M\375\352\246\363<\005\037\031G$\311%\213\347\027-\212"
 119      F33C051F 
 119      194724C9 
 119      258BE717 
 119      2D8A
 120 05aa 1A31FEEF 		.ascii	"\0321\376\357\011\005\316\276\344Pf\330\271J\015\257"
 120      0905CEBE 
 120      E45066D8 
 120      B94A0DAF 
 121 05ba F20D1C0A 		.ascii	"\362\015\034\012\024\317\267\025\277\355\321K\2146\264"
 121      14CFB715 
 121      BFEDD14B 
 121      8C36B4
 122 05c9 B6269E19 		.ascii	"\266&\236\031J\357N?\333\227\030\033\3347\226xy\214"
 122      4AEF4E3F 
 122      DB97181B 
 122      DC379678 
 122      798C
 123 05db CF438303 		.ascii	"\317C\203\003\231\326\024\370\323/\216\215dZ\237\324"
 123      99D614F8 
 123      D32F8E8D 
 123      645A9FD4 
 124 05eb 475BDB3C 		.ascii	"G[\333<\373\366\267\256\3222mZ\006\307v6\252\355\333"
 124      FBF6B7AE 
 124      D2326D5A 
 124      06C77636 
 124      AAEDDB
 125 05fe FF1F59C0 		.ascii	"\377\037Y\300\276\345"
 125      BEE5
 126              		.text
 127              		.section	.gnu.lto_heap1_setup.6e31753dc97a20ce,"",%progbits
 128 0000 789C6362 		.ascii	"x\234cb`b@\007\222@|\000\210\025\200\230\221\231\201"
 128      60624007 
 128      92407C00 
 128      88158098 
 128      919981
 129 0013 9169C239 		.ascii	"\221i\3029\006\206F\016&FF\020\203\201\221\241\236\211"
 129      0686460E 
 129      26464610 
 129      838191A1 
 129      9E89
 130 0025 B13E9211 		.ascii	"\261>\222\021\254v=\323\201\007\377\377\257\233pl\376"
 130      AC763DD3 
ARM GAS  /tmp/ccXgCN1n.s 			page 10


 130      8107FFFF 
 130      AF9B706C 
 130      FE
 131 0036 1EC6194C 		.ascii	"\036\306\031L\314@\021V\206\226\206\206\011@\275\311"
 131      CC401156 
 131      86968686 
 131      0940BDC9 
 132 0046 60152140 		.ascii	"`\025!@\022\244-\224\221\011D3\237gh{\320\365\230+\221"
 132      12A42D94 
 132      91094433 
 132      9F67687B 
 132      D0F5982B 
 133 005b 7121232B 		.ascii	"q!#+P\272\232\341WCG\203@&#P9\304D\220\010G&#c.#\003"
 133      50BA9AE1 
 133      57434783 
 133      40262350 
 133      39C44490 
 134 0077 5411444D 		.ascii	"T\021DM\303D\306LF&m\206U\015@0\023\310f\316edL\202"
 134      C344C64C 
 134      46266D86 
 134      550D4030 
 134      13C866CE 
 135 008f E881A98C 		.ascii	"\350\201\251\214\000\012\263\274\340a\310\004q.24>\350"
 135      000AB3BC 
 135      E061C804 
 135      712E3234 
 135      3EE8
 136 00a1 56865904 		.ascii	"V\206Y\004\001!@K\200\256\000\371YNOO\3379#3)\323?X"
 136      0121404B 
 136      80AE00F9 
 136      594E4F4F 
 136      DF392333 
 137 00b9 BF24B5B8 		.ascii	"\277$\265\270D\277\250\004Lg\244&\026\350%3\000\000"
 137      44BFA804 
 137      4C67A426 
 137      16E82533 
 137      0000
 138 00cb 2B9D3CB6 		.ascii	"+\235<\266"
 139              		.text
 140              		.section	.gnu.lto_.symbol_nodes.6e31753dc97a20ce,"",%progbits
 141 0000 789C4D90 		.ascii	"x\234M\220\313J\003A\020E\253\272g2QW\356C\262\363\247"
 141      CB4A0341 
 141      1045ABBA 
 141      67325157 
 141      EE43B2F3 
 142 0015 5C990103 		.ascii	"\\\231\001\003\011D\360\007*\320\240\250\020\305\354"
 142      0944F007 
 142      2AD0A0A8 
 142      10C5EC
 143 0024 44DCF4CA 		.ascii	"D\334\364\312\357\350\275\313d\2534~\200\357'b\327\355"
 143      EFE8BDCB 
 143      64AB347E 
 143      80EF2762 
 143      D7ED
 144 0036 C171167D 		.ascii	"\301q\026}\372\326\343V\365\0302\264i(\177\346\211\205"
 144      FAD6E356 
 144      F51832B4 
ARM GAS  /tmp/ccXgCN1n.s 			page 11


 144      69287FE6 
 144      8985
 145 0048 E8EC8648 		.ascii	"\350\354\206H\344\362h\247|`*\304\232G\026\376\027\375"
 145      E4F268A7 
 145      7C602AC4 
 145      9A4716FE 
 145      17FD
 146 005a 6626A1F2 		.ascii	"f&\241\362\205M\231\360\3146\201?XL\256\231\315\230"
 146      854D99F0 
 146      CC36813F 
 146      584CAE99 
 146      CD98
 147 006c DF586CAB 		.ascii	"\337Xl\253>Y\212V\275\263\224\255ze\351\264\352\213"
 147      3E598A56 
 147      BDB394AD 
 147      7A65E9B4 
 147      EA8B
 148 007e A5FA5396 		.ascii	"\245\372S\226\326\311\335\376$V\344\3015\012`\207\374"
 148      D6C9DDFE 
 148      2456E4C1 
 148      350A6087 
 148      FC
 149 008f 9DB24BF1 		.ascii	"\235\262K\361zK\303\356\340\276\320p\004S\371\3412\227"
 149      7A4BC3EE 
 149      E0BED070 
 149      0453F9E1 
 149      3297
 150 00a1 3774C78D 		.ascii	"7t\307\215\006\273\344N2}\303\000V\024\301d?\317\365"
 150      06BBE44E 
 150      327DC300 
 150      5614C164 
 150      3FCFF5
 151 00b4 71DE53F8 		.ascii	"q\336S\370S *R\3239\0202\242\242\"\267\350icX\240\322"
 151      53202A52 
 151      D3391032 
 151      A2A222B7 
 151      E8696358 
 152 00ca 2D2DC629 		.ascii	"--\306)\322\264\225\305R\212\264\343\0129\177\221'f"
 152      D2B495C5 
 152      528AB4E3 
 152      0A397F91 
 152      2766
 153 00dc F86D4DB9 		.ascii	"\370mM\271\253\274M\037\306}\370\016`;\200\353\020\246"
 153      ABBC4D1F 
 153      C67DF80E 
 153      603B80EB 
 153      10A6
 154 00ee 4378D668 		.ascii	"Cx\326h\253\341X\303p\027]8\335\010\331\021\262\371"
 154      ABE158C3 
 154      70175D38 
 154      DD08D911 
 154      B2F9
 155 0100 3EC60BC6 		.ascii	">\306\013\306\270O\020\237\3401S\215\204)\306\357\341"
 155      B84F109F 
 155      E031538D 
 155      8429C6EF 
 155      E1
ARM GAS  /tmp/ccXgCN1n.s 			page 12


 156 0111 EDFBD66C 		.ascii	"\355\373\326l\340\307\323/\023a\201+"
 156      E0C7D32F 
 156      1361812B 
 157              		.text
 158              		.section	.gnu.lto_.refs.6e31753dc97a20ce,"",%progbits
 159 0000 789C6362 		.ascii	"x\234cb`bpe\200\000I\006&F\222!\023\02033\2620\261\002"
 159      60627065 
 159      80004906 
 159      26469221 
 159      13103333 
 160 0018 21131303 		.ascii	"!\023\023\003\003\000*\354\000\323"
 160      03002AEC 
 160      00D3
 161              		.text
 162              		.section	.gnu.lto_.decls.6e31753dc97a20ce,"",%progbits
 163 0000 789CBD5A 		.ascii	"x\234\275Z{t\024\325\031\277w6\331G\262 j\265@=\270"
 163      7B7414D5 
 163      19BF7736 
 163      D947B220 
 163      6AB5403D 
 164 0015 788A5229 		.ascii	"x\212R),`T\350\351\021Z\316\361\321\036\365\234\212"
 164      2C6054E8 
 164      E9115ACE 
 164      F1D11EF5 
 164      9C8A
 165 0027 E7F8DF76 		.ascii	"\347\370\337v\330L\222\325dw\235\235\360h\377p\330@"
 165      D84C92D5 
 165      64779D9D 
 165      F068FF70 
 165      D840
 166 0039 44E56084 		.ascii	"D\345`\204\002A\010\011\002\012\"H\220Ty\225\001!D\020"
 166      02410809 
 166      020A2248 
 166      90547995 
 166      01214410 
 167 004d 79A53C2D 		.ascii	"y\245<-]B\201\360\220\207\200\205RH\277{gfwfvfwv\221"
 167      5D4281F0 
 167      90878085 
 167      5248BF7B 
 167      67667766 
 168 0066 CEC9BD73 		.ascii	"\316\311\275sw\346\336\337\367\376\356#\303 \006\215"
 168      77E6DEDF 
 168      F7FEEE23 
 168      C320068D 
 169 0076 C40875C1 		.ascii	"\304\010u\301\345)A\350\264\023!\007B\350)(\205JY\000"
 169      E52941E8 
 169      B4132107 
 169      42E82928 
 169      854A5900 
 170 008a 6539941A 		.ascii	"e9\224\032\3507\011\012\374\241Z\250\334p\237\013\367"
 170      E837090A 
 170      FCA15AA8 
 170      DC709F0B 
 170      F7
 171 009b 46281F40 		.ascii	"F(\037@\371\030\312J(\253\241\254\201\262\036J\001\364"
 171      F918CA4A 
 171      28ABA1AC 
ARM GAS  /tmp/ccXgCN1n.s 			page 13


 171      81B21E4A 
 171      01F4
 172 00ad D90CF72D 		.ascii	"\331\014\367-PZ\241|K\006k.2\376^$\367\353\016\305\253"
 172      505AA17C 
 172      4B066B2E 
 172      32FE5E24 
 172      F7EB0EC5 
 173 00c2 D01CA1D0 		.ascii	"\320\034\241\320\\\004\357OAY\013\245\023\313\274\254"
 173      5C04EF4F 
 173      41590BA5 
 173      13CBBCAC 
 174 00d2 80FB3228 		.ascii	"\200\3732(\247\241\264@9\003e!\224\263P\232\025|\247"
 174      A7A1B440 
 174      39036521 
 174      94B3509A 
 174      157CA7
 175 00e5 82BD46E1 		.ascii	"\202\275F\341k\265\302\343J\205\377\315\006>\210\014"
 175      6BB5C2E3 
 175      4A85FFCD 
 175      063E880C 
 176 00f5 64CC3985 		.ascii	"d\3149\205\206*+\341e\203FfF\351\273^i\253\262i\257"
 176      862A2BE1 
 176      65834666 
 176      46E9BB5E 
 176      69ABB269 
 177 010a 62F4B628 		.ascii	"b\364\266(\306\305\246Z\361\331\266\356\367\240\367"
 177      C6C5A65A 
 177      F1D9B6EE 
 177      F7A0F7
 178 0119 44B87C53 		.ascii	"D\270|S\216C\257W0\213\273{\220\310\320\226\327\203"
 178      8E43AF57 
 178      308BBB7B 
 178      90C8D096 
 178      D783
 179 012b 7CD0BD1F 		.ascii	"|\320\275\037Z$\212u\211\311\215}\304\002\026\177\200"
 179      5A248A75 
 179      89C98D7D 
 179      C402167F 
 179      80
 180 013c EF01E07E 		.ascii	"\357\001\340~\030=\212\226\302\270:Q\354\350\215\322"
 180      183D8A96 
 180      C2B83A51 
 180      ECE88DD2 
 181 014c AFECB00C 		.ascii	"\257\354\260\014\372\025F,\376\020\360X\274\030?*\323"
 181      FA15462C 
 181      FE10F058 
 181      BC183F2A 
 181      D3
 182 015d 11A58DB5 		.ascii	"\021\245\215\265^B\207<G\312\033\223\253/j\002\031\244"
 182      5E42873C 
 182      47CA1B93 
 182      AB2F6A02 
 182      19A4
 183 016f 3DADF37A 		.ascii	"=\255\363z\211M\233\261N\244\373\321LB\033~\210X`\361"
 183      894D9BB1 
 183      4EA4FBD1 
 183      4C421B7E 
ARM GAS  /tmp/ccXgCN1n.s 			page 14


 183      885860F1 
 184 0183 88629501 		.ascii	"\210b\225\001\237J\277\200b\260x\031\276\237\266\034"
 184      9F4ABF80 
 184      62B07819 
 184      BE9FB61C 
 185 0193 5457C883 		.ascii	"TW\310\203\246\244P\220\351(E\031\015\265\373/\3438"
 185      A6A45090 
 185      E9284519 
 185      0DB5FB2F 
 185      E338
 186 01a5 E0B37839 		.ascii	"\340\263x9\366\300\350\2570\3261\313\342B\217\226_\372"
 186      F6C0E8AF 
 186      30D631CB 
 186      E2428F96 
 186      5FFA
 187 01b7 5BED40F0 		.ascii	"[\355@\360\350k\245A\234\373.\322\347eGr@\006\342{\246"
 187      E86BA541 
 187      9CFB2ED2 
 187      E7654772 
 187      4006E27B 
 188 01cc 7DFE0B51 		.ascii	"}\376\013Qt\263\370c\220\233A?\030H\353t!\313h%\377"
 188      74B3F863 
 188      909B413F 
 188      1848EB74 
 188      21CB6825 
 189 01e1 2A003057 		.ascii	"*\0000Wq\332;\006\3250\252\275\314\340\224\246\216y"
 189      71DA3B06 
 189      D530AABD 
 189      CCE094A6 
 189      8E79
 190 01f3 ADADC4C4 		.ascii	"\255\255\304\304\3263m\216\367E\251~\360\275h:\261\217"
 190      D6336D8E 
 190      F745A97E 
 190      F0BD683A 
 190      B18F
 191 0205 E4D43AC7 		.ascii	"\344\324:\307H\025\301M\211M\243\304Z\360\275z\347\230"
 191      4815C14D 
 191      894DA3C4 
 191      5AF0BD7A 
 191      E798
 192 0217 D1EAF0C9 		.ascii	"\321\352\360\311\217\263\373\306\314\332w{\213MS{*V"
 192      8FB3FBC6 
 192      CCDA777B 
 192      8B4D537B 
 192      2A56
 193 0229 956AC529 		.ascii	"\225j\305)xb\363\003\346\024\025\325^\335{~\201b\327"
 193      7862F303 
 193      E61415D5 
 193      5EDD7B7E 
 193      8162D7
 194 023c 35D4AE9B 		.ascii	"5\324\256\233\031\275rs\001[7k\327&\005l=\005\333\344"
 194      19BD7273 
 194      015B376B 
 194      D726056C 
 194      3D05DBE4 
 195 0250 C81BACA9 		.ascii	"\310\033\254\251\345\350\003$,6R\240]\005Fo\363\030"
 195      E5E80324 
ARM GAS  /tmp/ccXgCN1n.s 			page 15


 195      2C3652A0 
 195      5D05466F 
 195      F318
 196 0262 BCCDA3F7 		.ascii	"\274\315\243\3676\217'\325\350R/}Z\270\243c\030t\270"
 196      368F27D5 
 196      E8522F7D 
 196      5AB8A363 
 196      1874B8
 197 0275 4035A899 		.ascii	"@5\250\231\220\331\275g\361\311%\230D\272\222X\232F"
 197      90D9BD67 
 197      F1C92598 
 197      44BA9258 
 197      9A46
 198 0287 6A225407 		.ascii	"j\"T\007E\270\332bL*\263[\261O~\234\315oD\251\261u\007"
 198      45B8DA62 
 198      4C2AB35B 
 198      B14F7E9C 
 198      CD6F44A9 
 199 029e 16A77B15 		.ascii	"\026\247{\025/mrZ\245\002\202\264\315\350\240sZ\031"
 199      2F6D725A 
 199      A50282B4 
 199      CDE8A073 
 199      5A19
 200 02b0 9FFC38BB 		.ascii	"\237\3748\273\203\316\255mHO^:\035\245\321\333\016\235"
 200      83CEAD6D 
 200      484F5E3A 
 200      1DA5D1DB 
 200      0E9D
 201 02c2 958B4109 		.ascii	"\225\213A\011\252\322m\026\335\263\2514.\315k\365\326"
 201      AAD26D16 
 201      DDB3A934 
 201      2ECD6BF5 
 201      D6
 202 02d3 B12C5E40 		.ascii	"\261,^@\263\310\211|\301\222\027\203\316P\214-yf\210"
 202      B3C8897C 
 202      C1921783 
 202      CE508C2D 
 202      796688
 203 02e6 B8D4AC64 		.ascii	"\270\324\254ds5\251\236\313\031\317\227\306\323\245"
 203      7335A99E 
 203      CB19CF97 
 203      C6D3A5
 204 02f5 7CFD4E83 		.ascii	"|\375N\203q\271\300\220\371\3140\334Vr\211\322\301\247"
 204      71B9C090 
 204      F9CC30DC 
 204      567289D2 
 204      C1A7
 205 0307 EB587542 		.ascii	"\353XuB\324x\223\210\325\261=P2i\\9\225p\322\344\336"
 205      D4789388 
 205      D5B13D50 
 205      32695C39 
 205      9570D2E4 
 206 031c 4E27DA79 		.ascii	"N'\332y\205\372H\317\012\303\240Et\310\001c\010\\f}"
 206      85FA48CF 
 206      0AC3A045 
 206      74C80163 
 206      085C667D 
ARM GAS  /tmp/ccXgCN1n.s 			page 16


 207 0330 F2D3EC11 		.ascii	"\362\323\354\021p\365\204\007\002\300\204\224i\226;"
 207      70F58407 
 207      02C08494 
 207      69963B
 208 033f 2BF5FE4A 		.ascii	"+\365\376J\024{\260\370\010\345\270\335\234c\353\200"
 208      147BB0F8 
 208      08E5B8DD 
 208      9C63EB80 
 209 034f 65D0BFE8 		.ascii	"e\320\277\350\220\243\006\216\023G.\\\033TO\221\217"
 209      90A3068E 
 209      13472E5C 
 209      1B544F91 
 209      8F
 210 0360 DA5A0C5C 		.ascii	"\332Z\014\\z\307$\236\314\024V\240\222\037\231\022c"
 210      7AC7249E 
 210      CC1456A0 
 210      921F9912 
 210      63
 211 0371 EDD96B2E 		.ascii	"\355\331k.\252\367\343T\212zgv\275\353`\030\264\200"
 211      AAF7E354 
 211      8A7A6776 
 211      BDEB6018 
 211      B480
 212 0383 0E39992E 		.ascii	"\0169\231.\305\356a\262\024'mI1{Z\203\022\004\03540"
 212      C5EE61B2 
 212      14276D49 
 212      317B5A83 
 212      12041D34 
 213 0398 972561F3 		.ascii	"\227%a\363\013\252\367\277\241Q.\203\255\312\031\314"
 213      0BAAF7BF 
 213      A1512E83 
 213      ADCA19CC 
 214 03a8 A7036BFC 		.ascii	"\247\003k\374F\216P\373+\245\313\227\245\236\033\250"
 214      468E50FB 
 214      2BA5CB97 
 214      A59E1BA8 
 215 03b8 F8E7694C 		.ascii	"\370\347iL_t\232\316\2016\220\326\315\332\252N\247\227"
 215      5F749ACE 
 215      813690D6 
 215      CDDAAA4E 
 215      A797
 216 03ca 28D4B5BC 		.ascii	"(\324\265\274\241Z\346\257\037N\215}\205\002Mt\031\247"
 216      A15AE6AF 
 216      1F4E8D7D 
 216      85024D74 
 216      19A7
 217 03dc 5397613A 		.ascii	"S\227a:u\351\2479\227'\325P\026ow\266;\203\246\272l"
 217      75E9A739 
 217      9727D550 
 217      166F77B6 
 217      3B83A6BA 
 218 03f1 58CE3A07 		.ascii	"X\316:\007%\016_\220\206\317\021\245I\0165\036-\347"
 218      250E5F90 
 218      86CF11A5 
 218      490E351E 
 218      2DE7
 219 0403 3506CDA0 		.ascii	"5\006\315\240\264\256\033=\371\352\336\257\343x\"5\300"
ARM GAS  /tmp/ccXgCN1n.s 			page 17


 219      B4AE1B3D 
 219      F9EADEAF 
 219      E3782235 
 219      C0
 220 0414 755BAEDC 		.ascii	"u[\256\334\262}\266\255\200lJn\014~N\351\317\245\364"
 220      B27DB6AD 
 220      806C4A6E 
 220      0C7E4EE9 
 220      CFA5F4
 221 0427 6F19E937 		.ascii	"o\031\3517\336\350\034!G\322-{\233\203\275\1771\233"
 221      DEE81C21 
 221      47D22D7B 
 221      9B83BD7F 
 221      319B
 222 0439 5F9FBA2F 		.ascii	"_\237\272/\223k\\\335{\362\222\"d\234!!\263/\3159F\024"
 222      936B5CDD 
 222      7BF29222 
 222      649C2121 
 222      B32FCD39 
 223 044f 6B89D1DF 		.ascii	"k\211\321\337\272\205\362\267I\366\363\212X\220\263"
 223      BA85F2B7 
 223      49F6F38A 
 223      5890B3
 224 045e ED774B57 		.ascii	"\355wKW\211\342[N\225\207\177\346\214\350\323i\242}"
 224      89E25B4E 
 224      95877FE6 
 224      8CE8D369 
 224      A27D
 225 0470 2FCD0132 		.ascii	"/\315\0012X\207\0350KO\212K\373\265`'r\006\323svP\013"
 225      58871D30 
 225      4B4F8A4B 
 225      FBB56027 
 225      7206D373 
 226 0487 D66907AC 		.ascii	"\326i\007\254\2075g\207\265`gs\006\323s\366\255\026"
 226      87356787 
 226      B5606773 
 226      06D373F6 
 226      AD16
 227 0499 ECBC1DB0 		.ascii	"\354\274\035\260\236\326\234\035\325\202}\2373\230\236"
 227      9ED69C1D 
 227      D5827D9F 
 227      33989E
 228 04a8 B38B5AB0 		.ascii	"\263\213Z\260\037\354\200\371L8K^Vk\315\233\332\265"
 228      1FEC80F9 
 228      4C384B5E 
 228      566BCD9B 
 228      DAB5
 229 04ba E6F5644A 		.ascii	"\346\365dJ\310\177yx3\347\024\246\223\233\314\244\303"
 229      C87F7978 
 229      33E714A6 
 229      939BCCA4 
 229      C3
 230 04cb D72A7121 		.ascii	"\327*q!Og5n\033\210\031\034\346\257\332\271\361\235"
 230      4F67356E 
 230      1B88191C 
 230      E6AFDAB9 
 230      F19D
ARM GAS  /tmp/ccXgCN1n.s 			page 18


 231 04dd 9CC1F466 		.ascii	"\234\301\364fi'`\272\\\243LH\211\305R\317\372T\266s"
 231      692760BA 
 231      5CA34C48 
 231      89C552CF 
 231      FA54B673 
 232 04f1 AB58642F 		.ascii	"\253Xd/%\247\266:Qd\222\235\305\236=\315\373\262\270"
 232      25A7B63A 
 232      5164929D 
 232      C59E3DCD 
 232      FBB2B8
 233 0504 91E90775 		.ascii	"\221\351\007u\023\343Ir!\267\325\226\274\325\232\341"
 233      13E34972 
 233      21B7D596 
 233      BCD59AE1 
 234 0514 361CF8A8 		.ascii	"6\034\370\250W\266\241V\236\320\300h<\241\336\216\232"
 234      57B6A156 
 234      9ED0C068 
 234      3CA1DE8E 
 234      9A
 235 0525 3284C28D 		.ascii	"2\204\302\215o\346\375TLHX#oF\345\220%D\347\001\\CS"
 235      6FE6FD54 
 235      4C485823 
 235      6F46E590 
 235      2544E701 
 236 053c F22286CC 		.ascii	"\362\"\206\314\327\215n\323\211\337\006\324\272Y\313"
 236      D78D6ED3 
 236      89DF06D4 
 236      BA59CB
 237 054b 07D089FF 		.ascii	"\007\320\211\377#\012\264$o\240\226\371\363\207\311"
 237      230AB424 
 237      6FA096F9 
 237      F387C9
 238 055a 67301468 		.ascii	"g0\024h\245\3338I`\303\012\002\353\347x\354I5\3226\325"
 238      A5DB3849 
 238      60C30A02 
 238      EBE778EC 
 238      4935D236 
 239 056f 3F625F06 		.ascii	"?b_\006\2555\332K'N\326l\003Q\327\366\3535+D\261\306"
 239      AD35DA4B 
 239      274ED66C 
 239      0351D7F6 
 239      EB352B44 
 240 0585 998BC512 		.ascii	"\231\213\305\022\252\305>\245\372\331\234\246\237\217"
 240      AAC53EA5 
 240      FAD99CA6 
 240      9F8F
 241 0593 98DC14C4 		.ascii	"\230\334\024\304\240\3559\013\322\337 \310\305<\004"
 241      A0ED390B 
 241      D2DF20C8 
 241      C53C04
 242 05a2 B9A80AB2 		.ascii	"\271\250\012\262\232\012\262\367G\020\344p\316\202\014"
 242      9A0AB2F7 
 242      4710E470 
 242      CE820C
 243 05b1 D60842F7 		.ascii	"\326\010B\367E/\254\241y\320\326\031\305\032\306pFq"
 243      452FACA1 
 243      79D0D619 
ARM GAS  /tmp/ccXgCN1n.s 			page 19


 243      C51AC670 
 243      4671
 244 05c3 7517390C 		.ascii	"u\0279\014!\217\263o\005g\354\325,\370E{\013\3766e\301"
 244      218FB36F 
 244      0567ECD5 
 244      2CF8457B 
 244      0BFE3665 
 245 05d8 BF9E6AEC 		.ascii	"\277\236j\354\230Y\214\331AjZ\267\377>z\344EaN\345\013"
 245      98598CD9 
 245      416A5AB7 
 245      FF3E7AE4 
 245      45614EE5 
 246 05ed 936839FA 		.ascii	"\223h9\372\271\034\252\233)\320\2054\013:\015\006t\352"
 246      B91CAA9B 
 246      29D08534 
 246      0B3A0D06 
 246      74EA
 247 05ff 0D083F09 		.ascii	"\015\010?\011\245k\364(\353\015\345\011\371\341B\377"
 247      A56BF428 
 247      EB0DE509 
 247      F9E142FF 
 248 060f F7713011 		.ascii	"\367q0\021S\366\211\361\362Y\\\022\347\221\236[\243"
 248      53F689F1 
 248      F2595C12 
 248      E7919E5B 
 248      A3
 249 0620 4CA2B281 		.ascii	"L\242\262\201D\317\355 \306\245\215\323\325\015\353"
 249      44CFED20 
 249      C6A58DD3 
 249      D50DEB
 250 062f 08328DBE 		.ascii	"\0102\215\276u\233pt\335\245\233F\015\353\367\343\026"
 250      759B7074 
 250      DDA59B46 
 250      0DEBF7E3 
 250      16
 251 0640 534FF23C 		.ascii	"SO\362<\"\321\363\023\352\177_\323\005R\235\307h\357"
 251      22D1F313 
 251      EA7F5FD3 
 251      05529DC7 
 251      68EF
 252 0652 0E6C58C0 		.ascii	"\016lX\300w\350\217\272\255\002i\207v\032\\x[b\022;"
 252      77E88FBA 
 252      AD026987 
 252      761A5C78 
 252      5B62123B 
 253 0666 1CFCBDDE 		.ascii	"\034\374\275\336\016KoSqsf\330;\376\370\243\212\345"
 253      0E4B6F53 
 253      717366D8 
 253      3BFEF8A3 
 253      8AE5
 254 0678 A5823453 		.ascii	"\245\2024S\262\355\214a\263us\331\261Ze\267M\336e\317"
 254      B2ED8C61 
 254      B37573D9 
 254      B15A65B7 
 254      4DDE65CF 
 255 068c 1447E8A1 		.ascii	"\024G\350\241\221z\012\224H\242*TGj\027xY\325#\035\345"
 255      917A0A94 
ARM GAS  /tmp/ccXgCN1n.s 			page 20


 255      48A22A54 
 255      476A1778 
 255      59D5231D 
 256 06a1 DA06E792 		.ascii	"\332\006\347\222s:\225\234s\230\252\2623\315\346\033"
 256      733A959C 
 256      7398AAB2 
 256      33CDE61B 
 257 06b1 8D593AA7 		.ascii	"\215Y:\247\240;o\224\306\356\226)yY\371\324>\255O]\271"
 257      A03B6F94 
 257      C6EE9629 
 257      7959F9D4 
 257      3EAD4F5D 
 258 06c6 3D0F009F 		.ascii	"=\017\000\237\352|^^ \033B\346\200E\310\020\016\022"
 258      EA7C5E5E 
 258      201B42E6 
 258      8045C810 
 258      0E12
 259 06d8 5A0E6EDC 		.ascii	"Z\016n\334\246\017\036\331\227\373\371\320A\305t\307"
 259      A60F1ED9 
 259      97FBF9D0 
 259      41C574C7 
 260 06e8 A9E9E245 		.ascii	"\251\351\342EF\323]2.\245\354\034\227L+\312S\220\344"
 260      46D35D32 
 260      2EA5EC1C 
 260      974C2BCA 
 260      5390E4
 261 06fb C5A09945 		.ascii	"\305\240\231E6V\272>K\037\006s$^\224C<\353\231K2w\265"
 261      3656BA3E 
 261      4B1F0673 
 261      245E9443 
 261      3CEB994B 
 262 0712 F56AA3CA 		.ascii	"\365j\243\3128\315\220(\232cP\206\215\263\233%t\310"
 262      38CD9028 
 262      9A635086 
 262      8DB39B25 
 262      74C8
 263 0724 39633843 		.ascii	"9c8C\332W\316R\317\331\210\346\270\264\357\035\355)"
 263      DA57CE52 
 263      CFD988E6 
 263      B8B4EF1D 
 263      ED29
 264 0736 248BCF60 		.ascii	"$\213\317`F\201\315W\237:\023\246\370c\361y\272\251"
 264      4681CD57 
 264      9F3A13A6 
 264      F863F179 
 264      BAA9
 265 0748 B9C0F4D5 		.ascii	"\271\300\364\325\352\376\213\234u\357\323\352^\232\271"
 265      EAFE8B9C 
 265      75EFD3EA 
 265      5E9AB9
 266 0757 7F1E96F9 		.ascii	"\177\036\226\371\227\363\321f#\236Y>\352oe\313\270\264"
 266      97F3D166 
 266      239E593E 
 266      EA6F65CB 
 266      B8B4
 267 0769 723FDD29 		.ascii	"r?\335)\312>\272\323\016s\203\255\3016\316R\225\233"
 267      CA3EBAD3 
ARM GAS  /tmp/ccXgCN1n.s 			page 21


 267      0E7383AD 
 267      C136CE52 
 267      959B
 268 077b A053D4C1 		.ascii	"\240S\324\301\234\361|:\274\003\373\325\377\233\310"
 268      9CF17C3A 
 268      BC03FBD5 
 268      FF9BC8
 269 078a 67AC1D76 		.ascii	"g\254\035v\360\206Y\363wu\226nF\377.g8_&\333\247N\310"
 269      F08659F3 
 269      7775966E 
 269      46FF2E67 
 269      385F26DB 
 270 07a1 59DC8989 		.ascii	"Y\334\211\211\355O\343\276P\237\245\365w\264\276F\353"
 270      ED4FE3BE 
 270      509FA5F5 
 270      77B4BE46 
 270      EB
 271 07b2 7A86D4EF 		.ascii	"z\206\324\357\323z\036\255\027\322z\005\255?\243\365"
 271      D37A1EAD 
 271      17D27A05 
 271      AD3FA3F5 
 272 07c2 17B4EEA4 		.ascii	"\027\264\356\244\365%Z_\246\365UZ\377\233"
 272      F5255A5F 
 272      A6F5555A 
 272      FF9B
 273 07d0 D6D7B5BE 		.ascii	"\326\327\265\276e\225\007\015\213\000\325\345\217\346"
 273      6595070D 
 273      8B00D5E5 
 273      8FE6
 274 07de 7DF0FEFD 		.ascii	"}\360\376\375\216\344\341\0028|\316`\031uxT\243\303"
 274      8EE4E102 
 274      387CCE60 
 274      19757854 
 274      A3C3
 275 07f0 04D5E131 		.ascii	"\004\325\3411\252\261\033\372(\272Z\244\376+(\237Y8"
 275      AAB11BFA 
 275      28BA5AA4 
 275      FE2B289F 
 275      5938
 276 0802 4EFE19E5 		.ascii	"N\376\031\345\242\207\306\352\031\311M#\240\335\211"
 276      A287C6EA 
 276      19C94D23 
 276      A0DD89
 277 0811 50D1C97F 		.ascii	"P\321\311\177aZ7\314M\355\031\346&\321\241\231\233&"
 277      615A37CC 
 277      4DED19E6 
 277      26D1A199 
 277      9B26
 278 0823 17E74A3B 		.ascii	"\027\347J;\243\012\017hTx\210\252\3600U\341M\3522]z"
 278      A30A0F68 
 278      547888AA 
 278      F03055E1 
 278      4DEA325D 
 279 0838 454E2D36 		.ascii	"EN-6\374\007P\377O7M\323^\376\373PC|\011%\276\224\022"
 279      FC0750FF 
 279      4F374DD3 
 279      5EFEFB50 
ARM GAS  /tmp/ccXgCN1n.s 			page 22


 279      437C0925 
 280 084f 5F4DEB7D 		.ascii	"_M\353}\330\206\277.H\255bu\032\275\033\325\321\025"
 280      D886BF2E 
 280      48AD6275 
 280      1ABD1BD5 
 280      D115
 281 0861 5F7D7779 		.ascii	"_}wyo\252\214\227\312T\200N\257\2020\311q7m\351\326"
 281      6FAA8C97 
 281      CA54804E 
 281      AF8230C9 
 281      71376DE9 
 282 0876 59B48B15 		.ascii	"Y\264\213\025\315\311\216\324\361\221\327\223j\234\362"
 282      CDC98ED4 
 282      F191D793 
 282      6A9CF2
 283 0885 6661B626 		.ascii	"fa\266&eHer\374\373\332C\275\346\306\311n\\f\204A\313"
 283      65486572 
 283      FCFBDA43 
 283      BDE6C6C9 
 283      6E5C6684 
 284 089b 41C7CA86 		.ascii	"A\307\312\206V\367\331\220\201s\006\255\246\306\230"
 284      56F7D990 
 284      817306AD 
 284      A6C698
 285 08aa E2306C6B 		.ascii	"\3420lkg\323oC\310\343\354\213\325\226\326\"\261C\302"
 285      67D36F43 
 285      C8E3EC8B 
 285      D596D622 
 285      B143C2
 286 08bd 665F2999 		.ascii	"f_)\231(j\252\303\360\277\3249\364s\002\3628;\251\271"
 286      286AAAC3 
 286      F0BFD439 
 286      F47302F2 
 286      383BA9B9 
 287 08d1 3229D52C 		.ascii	"2)\325,@J\376\266D%\367\023\225\\\033\243\220{7g\273"
 287      404AFEB6 
 287      4425F713 
 287      955C1BA3 
 287      907B3767 
 288 08e6 D459D845 		.ascii	"\324Y\330E9\000!\237\236P\235\021\216\315\351f_\221"
 288      3900219F 
 288      9E509D11 
 288      8ECDE966 
 288      5F91
 289 08f8 CF7BBAAE 		.ascii	"\317{\272\256\326+3\307\240-\366\340\024\221L\361\346"
 289      D62B33C7 
 289      A02DF6E0 
 289      14914CF1 
 289      E6
 290 0909 6BF1B6D9 		.ascii	"k\361\266\331\303\253+\264\306[\251\305\333n\017\357"
 290      C3AB2BB4 
 290      C65BA9C5 
 290      DB6E0FEF 
 291 0919 A0CB1A6F 		.ascii	"\240\313\032o\225\026o\247=\274\246\"\023\274\344\305"
 291      95166FA7 
 291      3DBCA622 
 291      13BCE4C5 
ARM GAS  /tmp/ccXgCN1n.s 			page 23


 292 0929 A0DD49CF 		.ascii	"\240\335I\3175w\266\014V`q\255#=+\330\037\377 \232/"
 292      3577B60C 
 292      566071AD 
 292      233D2BD8 
 292      1FFF209A 
 293 093e 4A171307 		.ascii	"J\027\023\007\376v\272g\003Y\223\212\267\272\336\300"
 293      FE76BA67 
 293      0359938A 
 293      B7BADEC0 
 294 094e 862FE52C 		.ascii	"\206/\345,\3763F\210\317s\334\257\264\324o\324\030\364"
 294      FE334688 
 294      CF73DCAF 
 294      B4D46FD4 
 294      18F4
 295 0960 7D313678 		.ascii	"}16x\377\303h1\301\023\227\210\016\212F\372\317u<\250"
 295      FFC36831 
 295      C1139788 
 295      0E8A46FA 
 295      CF753CA8 
 296 0974 55028B1B 		.ascii	"U\002\213\033\034\214\366\201\314\230T\327\352\255\233"
 296      1C8CF681 
 296      CC9854D7 
 296      EAAD9B
 297 0983 98E8EA7A 		.ascii	"\230\350\352zP\246\305 \321k\007\275\321\210\336\224"
 297      50A6C520 
 297      D16B07BD 
 297      D188DE94 
 298 0993 8E9EA883 		.ascii	"\216\236\250\203l\263\347g\365\253\304I&b\273\321\233"
 298      6CB3E767 
 298      F5ABC449 
 298      2662BBD1 
 298      9B
 299 09a4 F43070B2 		.ascii	"\3640p\2628\021\277\236\324\232\305!=\213\0279\334d"
 299      3811BF9E 
 299      D49AC521 
 299      3D8B1739 
 299      DC64
 300 09b6 3EF05A1E 		.ascii	">\360Z\036\261\223\016\252\372\345\266\332\312p\302"
 300      B1930EAA 
 300      FAE5B6DA 
 300      CA70C2
 301 09c5 BED0A1FB 		.ascii	"\276\320\241\373\020\221~\025\230l+\210\272\317\003"
 301      10917E15 
 301      986C2B88 
 301      BACF03
 302 09d4 19343D4D 		.ascii	"\0314=M?r\247\245\246\012X\374\303n<G\334<I\354\352"
 302      3F72A7A5 
 302      A60A58FC 
 302      C36E3C47 
 302      DC3C49EC 
 303 09e9 7A0319CC 		.ascii	"z\003\031\314\276\034[g\226eF\306\310\264\243\3740L"
 303      BE1C5B67 
 303      966546C6 
 303      C8B4A3FC 
 303      304C
 304 09fb E4996056 		.ascii	"\344\231`V8\212uL\352$i\264\220\344S3I\244\3467\247"
 304      388A754C 
ARM GAS  /tmp/ccXgCN1n.s 			page 24


 304      EA2469B4 
 304      90E45333 
 304      49A4E637 
 305 0a10 F61217C4 		.ascii	"\366\022\027\304\245\256\256\021FA2\370o\263Q\016\372"
 305      A5AEAE11 
 305      464132F8 
 305      6FB3510E 
 305      FA
 306 0a21 4F5B1D1B 		.ascii	"O[\035\033\237X\260\361\231)\033\215\333,\331\310\360"
 306      9F58B0F1 
 306      99291B8D 
 306      DB2CD9C8 
 306      F0
 307 0a32 C1694B06 		.ascii	"\301iK\006u\312\032LW\317\347\026|}aj\350=\323N.\300"
 307      75CA1A4C 
 307      57CFE716 
 307      7C7D616A 
 307      E83DD34E 
 308 0a48 EFD534B5 		.ascii	"\357\3254\265\211\027\311V8\007S\2575\011\361/-h\257"
 308      8917C956 
 308      380753AF 
 308      3509F12F 
 308      2D68AF
 309 0a5b 33A5BDF5 		.ascii	"3\245\275\365\262d\351d\031l\263!\243R\344\377\266g"
 309      B264E964 
 309      196CB321 
 309      A352E4FF 
 309      B667
 310 0a6d D151BB05 		.ascii	"\321Q\273\005\237\233\364|>\204\026\210\322nH\202\207"
 310      9F9BF47C 
 310      3E841688 
 310      D26E4882 
 310      87
 311 0a7e 4E625868 		.ascii	"NbXhL\251!'>\270\313\241~\326|\"\011\243.\363t\237,"
 311      4CA92127 
 311      3EB8CBA1 
 311      7ED67C22 
 311      09A32EF3 
 312 0a95 13C42F53 		.ascii	"\023\304/S\210\004\215\346\226M\003\327\305\305I\315"
 312      88048DE6 
 312      964D03D7 
 312      C5C549CD 
 313 0aa5 202D808D 		.ascii	" -\200\215\220\023<\203.\030\301LV\026[\365h+%\340m"
 313      90133C83 
 313      2E18C14C 
 313      56165BF5 
 313      682B25E0 
 314 0aba CF809D71 		.ascii	"\317\200\235q\222\240e\326\224u\003\371|*\031oR\352"
 314      92A065D6 
 314      947503F9 
 314      7C2A196F 
 314      52EA
 315 0acc 600FA62A 		.ascii	"`\017\246*\234\341[\260+\300C\326O\306X\274\335Av';"
 315      9CE15BB0 
 315      2BC043D6 
 315      4FC658BC 
 315      DD417627 
ARM GAS  /tmp/ccXgCN1n.s 			page 25


 316 0ae1 0CCB1CB2 		.ascii	"\014\313\034\262F{S\371\026b\207\215\265N\\\272~\263"
 316      467B53F9 
 316      1662878D 
 316      B54E5CBA 
 316      7EB3
 317 0af3 0DD343C0 		.ascii	"\015\323C\300\006\272\257\275I5\260\303\221\357\016"
 317      06BAAFBD 
 317      4935B0C3 
 317      91EF0E
 318 0b02 EAC6690A 		.ascii	"\352\306i\012g\3103dz\260r\245\335\332\015C\274[\256"
 318      67C83364 
 318      7AB072A5 
 318      DDDA0D43 
 318      BC5BAE
 319 0b15 E47D3AF2 		.ascii	"\344}:\362d\263\"C2h\212\035\254\014\033\237[\032\254"
 319      64B32243 
 319      32688A1D 
 319      AC0C1B9F 
 319      5B1AAC
 320 0b28 F772C6F2 		.ascii	"\367r\306\362\031\324\255\332\201\305;\035d\303\260"
 320      19D4ADDA 
 320      81C53B1D 
 320      64C3B0
 321 0b37 8BD67B69 		.ascii	"\213\326{i\335n\262L0\350\311\240\320\257,8!\370\373"
 321      DD6EB24C 
 321      30E8C9A0 
 321      D0AF2C38 
 321      21F8FB
 322 0b4a 75895B03 		.ascii	"u\211[\0039R\317\250\306M\345A\346\335`\333\225\363"
 322      3952CFA8 
 322      C64DE541 
 322      E6DD60DB 
 322      95F3
 323 0b5c E2F6A0C5 		.ascii	"\342\366\240\305\342V;\003\247z\221S\263n\206\300Kc"
 323      E2563B03 
 323      A77A9153 
 323      B36E86C0 
 323      4B63
 324 0b6e E2901276 		.ascii	"\342\220\022v%\3503q\212\004K\371m\300U\322n\177F\377"
 324      25E83371 
 324      8A044BF9 
 324      6DC055D2 
 324      6E7F46FF 
 325 0b82 11EB4588 		.ascii	"\021\353E\210\304c\003\034\2620$6/\356\2266\274\335"
 325      C463031C 
 325      B2302436 
 325      2FEE9636 
 325      BCDD
 326 0b94 80C52608 		.ascii	"\200\305&\010\316[]]X\326\033\203\026\033\251\351\203"
 326      CE5B5D5D 
 326      58D61B83 
 326      161BA9E9 
 326      83
 327 0ba5 8B90FB07 		.ascii	"\213\220\373\007\220\353\203>\355\326 \2725dG\312\010"
 327      90EB833E 
 327      EDD620BA 
 327      356447CA 
ARM GAS  /tmp/ccXgCN1n.s 			page 26


 327      08
 328 0bb6 B20D659A 		.ascii	"\262\015e\232\322\306\355\330r3\327\244\331\314%\323"
 328      D2C6EDD8 
 328      7233D7A4 
 328      D9CC25D3 
 329 0bc6 527F8544 		.ascii	"R\177\205DG\316j=n\241\326G2\272\016\213\217\245<\242"
 329      47CE6A3D 
 329      6EA1D647 
 329      32BA0E8B 
 329      8FA53CA2 
 330 0bda 0FDA0432 		.ascii	"\017\332\0042\325\217L\221\227]\221\0103\005\022m\221"
 330      D58F4C91 
 330      975D9108 
 330      3305126D 
 330      91
 331 0beb ECF1C955 		.ascii	"\354\361\311U\232\354\242\004O\216S\331Y\225\336\355"
 331      9AECA204 
 331      4F8E53D9 
 331      5995DEED 
 332 0bfb C9DEDA15 		.ascii	"\311\336\332\025\243\302\205\254R\325\031\015\376\273"
 332      A3C285AC 
 332      52D5190D 
 332      FEBB
 333 0c09 36434238 		.ascii	"6CB8\3450\337%\313+\033\253Q\235\226\243Z2\214:m9ja"
 333      E530DF25 
 333      CB2B1BAB 
 333      519D96A3 
 333      5A328C3A 
 334 0c21 8651672C 		.ascii	"\206Qg,G5g\030u\326\241;\2552\214\334\220a\3449MD?4"
 334      47356718 
 334      75D6A13B 
 334      AD328CDC 
 334      9061E439 
 335 0c39 68907F54 		.ascii	"h\220\177TEhL\350\305\227\374\221\230\237\027\374\241"
 335      45684CE8 
 335      C597FC91 
 335      989F17FC 
 335      A1
 336 0c4a 70B0B2BA 		.ascii	"p\260\262\272\224\363\007+*86:\250\002u\253\342\252"
 336      94F3072B 
 336      2A38363A 
 336      A80275AB 
 336      E2AA
 337 0c5c 22FC8400 		.ascii	"\"\374\204\000\371\031\020\234\317\274\360\262o\024"
 337      F919109C 
 337      CFBCF0B2 
 337      6F14
 338 0c6a 2AD63C9C 		.ascii	"*\326<\234\210\375\341\262\030)\217\373+\"U\234\237"
 338      88FDE1B2 
 338      18298FFB 
 338      2B22559C 
 338      9F
 339 0c7b E7621CCB 		.ascii	"\347b\034\313\007+\374\025,_:\216\3459?\313W\015\365"
 339      072BFC15 
 339      2C5F3A8E 
 339      E5393FCB 
 339      570DF5
ARM GAS  /tmp/ccXgCN1n.s 			page 27


 340 0c8e 97078303 		.ascii	"\227\007\203\003\2411\220\253\032\303\225\226r\245\311"
 340      A13190AB 
 340      1AC39596 
 340      72A5C9
 341 0c9d 07E14898 		.ascii	"\007\341H\230\033\310\261cB\003K\002\303\006\016\035"
 341      1BC8B163 
 341      42034B02 
 341      C3060E1D 
 342 0cad 3CA4E4F5 		.ascii	"<\244\344\365\241\376\312\320\030\322\301\257\353\340"
 342      A1FECAD0 
 342      18D2C1AF 
 342      EBE0
 343 0cbb 2F19346C 		.ascii	"/\0314lPI\222\307\230\0008e\300\2433\026\372\023\027"
 343      504992C7 
 343      98003865 
 343      C0A33316 
 343      FA1317
 344 0cce 10FA6590 		.ascii	"\020\372e\220\006\030\016Fx\016:{\241Y\316\011e\325"
 344      06180E46 
 344      780E3A7B 
 344      A159CE09 
 344      65D5
 345 0ce0 E1604028 		.ascii	"\341`@(\252\010D\371\310\330P)\307\027S\011\241\202"
 345      AA0844F9 
 345      C8D85029 
 345      C7175309 
 345      A182
 346 0cf2 F6236948 		.ascii	"\366#iH\321\010/\304\374\277\371\303\363\243\236\037"
 346      D1082FC4 
 346      FCBFF9C3 
 346      F3A39E1F 
 347 0d02 0F700A56 		.ascii	"\017p\012VQLx\215\255\014\225\207\003B\354NhA/\275F"
 347      514C788D 
 347      AD0C9587 
 347      0342EC4E 
 347      68412FBD 
 348 0d17 EE505800 		.ascii	"\356PX\000\362\356j\270?Q\022\020j\356\210\015\314\251"
 348      F2EE6AB8 
 348      3F511210 
 348      6AEE880D 
 348      CCA9
 349 0d29 57B1C18A 		.ascii	"W\261\301\212P\230\363\007@\367lu\245\020\020&D\271"
 349      5098F307 
 349      40F76C75 
 349      A5101026 
 349      44B9
 350 0d3b 18514620 		.ascii	"\030QF \240\362SH\225R\020\346\306\013\005D\255\270"
 350      A0F25348 
 350      955210E6 
 350      C60B0544 
 350      ADB8
 351 0d4d BA809808 		.ascii	"\272\200\230\010W8+\002e<\307\365\315d)a<\200\271\252"
 351      57382B02 
 351      653CC7F5 
 351      CD642961 
 351      3C80B9AA 
 352 0d61 AA056E7C 		.ascii	"\252\005n|@p\007+\002\264\371p\206!\261\0111\225\211"
ARM GAS  /tmp/ccXgCN1n.s 			page 28


 352      4070072B 
 352      02B4F970 
 352      8621B109 
 352      319589
 353 0d74 BB840A1E 		.ascii	"\273\204\012\036L\030\013\274^\315U\203O\364\200\361"
 353      4C180BBC 
 353      5ECD5583 
 353      4FF480F1 
 354 0d84 BA47995C 		.ascii	"\272G\231\\>\026\254(%j\225\007\004\004Or\2603\032 "
 354      3E16AC28 
 354      256A9507 
 354      04044F72 
 354      B0331A20 
 355 0d98 C2C02DCA 		.ascii	"\302\300-\312sc\237\310\342\036\221\252h\250\222\343"
 355      73639FC8 
 355      E21E91AA 
 355      68A892E3 
 356 0da8 63FE6746 		.ascii	"c\376gF\215\002X\2257\227\020\345C\021\220\211\250\351"
 356      8D025895 
 356      379710E5 
 356      43119089 
 356      A8E9
 357 0dba B1A1E07D 		.ascii	"\261\241\340}\262\306H\223\"\207\"\256`$\014\302\012"
 357      B2C64893 
 357      228722AE 
 357      60240CC2 
 357      0A
 358 0dcb C5043000 		.ascii	"\305\0040\000\357\202\302\370\001v\23410\366\311*\302"
 358      EF82C2F8 
 358      01769C31 
 358      30F6C92A 
 358      C2
 359 0ddc 3ACF9583 		.ascii	":\317\225\203\331\002\002\303\2270\374\343\014\377\004"
 359      D90202C3 
 359      9730FCE3 
 359      0CFF04
 360 0deb C33FC9F0 		.ascii	"\303?\311\360\303\030~\270\203\0372\030\312\020\246"
 360      C3187EB8 
 360      831F3218 
 360      CA10A6
 361 0dfa 9287DB63 		.ascii	"\222\207\333c\205\321\000`\273\210\\\3438\036\356\221"
 361      85D10060 
 361      BB885CE3 
 361      381EEE91 
 362 0e0a 4A70FC82 		.ascii	"Jp\374\202 8\014\021\226\255\342\334BL`\005\320\241"
 362      20380C11 
 362      96ADE2DC 
 362      424C6005 
 362      D0A1
 363 0e1c 8B30390C 		.ascii	"\21309\014\324!\263\013-\350N\337\271\204\252H)G\177"
 363      D421B30B 
 363      2DE84EDF 
 363      B984AA48 
 363      29477F
 364 0e2f 9755B2E5 		.ascii	"\227U\262\3451\227\300se1*\015i\024V\305\312\341\245"
 364      3197C073 
 364      65312A0D 
ARM GAS  /tmp/ccXgCN1n.s 			page 29


 364      691456C5 
 364      CAE1A5
 365 0e42 22220C57 		.ascii	"\"\"\014W\205\345K'\300+77>$\004\001\3009N\210\214y"
 365      85E54B27 
 365      C02B3737 
 365      3E240401 
 365      C0394E88 
 366 0e58 357A8FA2 		.ascii	"5z\217\242w\030\312\361\\8\010\300\205\343\004\201\217"
 366      7718CAF1 
 366      5C3808C0 
 366      85E30481 
 366      8F
 367 0e69 BA625C58 		.ascii	"\272b\\X\200\001^\260G\214\253b\243\025 q&\037\202N"
 367      80015EB0 
 367      478CAB62 
 367      A3152071 
 367      261F824E 
 368 0e7d 44DF8AC9 		.ascii	"D\337\212\311\013\203a\360\322\302X\000\356@\012^F\341"
 368      0B8361F0 
 368      D2C25800 
 368      EE400A5E 
 368      46E1
 369 0e8f 067E162D 		.ascii	"\006~\026-\346\306\022d6\366\0320\305\215#\015G4P\335"
 369      E6C61264 
 369      36F61A30 
 369      C58D230D 
 369      473450DD 
 370 0ea3 5DF598CA 		.ascii	"]\365\230\312P\014F\336\245\361!\362\304\023\015\214"
 370      500C46DE 
 370      A5F121F2 
 370      C4130D8C 
 371 0eb3 63434228 		.ascii	"cCB(\\^\024\015\000[\224\0104\271(\027\206\310,\207"
 371      5C5E140D 
 371      005B9408 
 371      34B92817 
 371      86C82C87 
 372 0ec7 F7004E7A 		.ascii	"\367\000Nz\026\021=\260\225\324\262\3600\032\211T\272"
 372      16113DB0 
 372      95D4B2F0 
 372      301A8954 
 372      BA
 373 0ed8 AA64A6E0 		.ascii	"\252d\246\340\036\031\027\346xg\025\365\254\302\012"
 373      1E1917E6 
 373      786715F5 
 373      ACC20A
 374 0ee7 32A6B746 		.ascii	"2\246\267F&\201\213\011D*r'9nLu\031\250\305K~\006\344"
 374      26818B09 
 374      442A7227 
 374      396E4C75 
 374      19A8C54B 
 375 0efe 768C193D 		.ascii	"v\214\031=\230\031=\204\031=\224\031\375\0303\272\204"
 375      98193D84 
 375      193D9419 
 375      FD1833BA 
 375      84
 376 0f0f 19C7F6B1 		.ascii	"\031\307\366\261\000\240\311<\210\272\221\373\220\000"
 376      00A0C93C 
ARM GAS  /tmp/ccXgCN1n.s 			page 30


 376      88BA91FB 
 376      9000
 377 0f1d 379E0B42 		.ascii	"7\236\013BL\025\313\277b\234P\035-\014\374\026\230\363"
 377      4C15CBBF 
 377      629C501D 
 377      2D0CFC16 
 377      98F3
 378 0f2f 06283C1B 		.ascii	"\006(<\033\213q\274\000\332~\026:\274\004\206\256\216"
 378      8B71BC00 
 378      DA7E163A 
 378      BC0486AE 
 378      8E
 379 0f40 15C93F9E 		.ascii	"\025\311?\236\206\340-\226\233\277\251\254\214\004!"
 379      86E02D96 
 379      9BBFA9AC 
 379      8C0421
 380 0f4f BC46812D 		.ascii	"\274F\201-\236\341\004\271\333+=\344\227/\216y\225\013"
 380      9EE104B9 
 380      DB2B3DE4 
 380      972F8E79 
 380      950B
 381 0f61 0ACF8543 		.ascii	"\012\317\205C\202\207\"\022J\005\244\345&U\220\215q"
 381      82872212 
 381      4A05A4E5 
 381      2655908D 
 381      71
 382 0f72 05C4C50A 		.ascii	"\005\304\305\012)mx\006Y\012\264\341R\031\213\262\202"
 382      296D7806 
 382      590AB4E1 
 382      52198BB2 
 382      82
 383 0f83 C0F16132 		.ascii	"\300\361a2\312\243\262?\344\356A|\244\224\025\330A\311"
 383      CAA3B23F 
 383      E4EE417C 
 383      A49415D8 
 383      41C9
 384 0f95 27FD09A9 		.ascii	"'\375\011\251_\372X\302\011+\204"
 384      5FFA58C2 
 384      092B84
 385 0fa0 22611F1B 		.ascii	"\"a\037\033.\365\225\361ly\025\230U~B:\243\377\001\222"
 385      2EF595F1 
 385      6C791598 
 385      557E423A 
 385      A3FF0192 
 386 0fb4 822739   		.ascii	"\202'9"
 387              		.text
 388              		.section	.gnu.lto_.symtab.6e31753dc97a20ce,"",%progbits
 389 0000 70617474 		.ascii	"patternheap\000\000\000\000\000\000\000\000\000\000"
 389      65726E68 
 389      65617000 
 389      00000000 
 389      00000000 
 390 0015 0000C601 		.ascii	"\000\000\306\001\000\000testheap1\000\000\000\000\000"
 390      00007465 
 390      73746865 
 390      61703100 
 390      00000000 
ARM GAS  /tmp/ccXgCN1n.s 			page 31


 391 0029 00000000 		.ascii	"\000\000\000\000\000\000\000\334\001\000\000test\000"
 391      000000DC 
 391      01000074 
 391      65737400 
 392 0039 00020000 		.ascii	"\000\002\000\000\000\000\000\000\000\000\000\304\001"
 392      00000000 
 392      000000C4 
 392      01
 393 0046 00005F74 		.ascii	"\000\000_test_assert\000\000\002\000\000\000\000\000"
 393      6573745F 
 393      61737365 
 393      72740000 
 393      02000000 
 394 005c 00000000 		.ascii	"\000\000\000\000\242\001\000\000chHeapStatus\000\000"
 394      A2010000 
 394      63684865 
 394      61705374 
 394      61747573 
 395 0072 02000000 		.ascii	"\002\000\000\000\000\000\000\000\000\000\252\001\000"
 395      00000000 
 395      0000AA01 
 395      00
 396 007f 00636848 		.ascii	"\000chHeapFree\000\000\002\000\000\000\000\000\000\000"
 396      65617046 
 396      72656500 
 396      00020000 
 396      00000000 
 397 0094 0000B001 		.ascii	"\000\000\260\001\000\000chHeapAlloc\000\000\002\000"
 397      00006368 
 397      48656170 
 397      416C6C6F 
 397      63000002 
 398 00a9 00000000 		.ascii	"\000\000\000\000\000\000\000\000\264\001\000\000chC"
 398      00000000 
 398      B4010000 
 398      636843
 399 00b8 6F726547 		.ascii	"oreGetStatusX\000\000\002\000\000\000\000\000\000\000"
 399      65745374 
 399      61747573 
 399      58000002 
 399      00000000 
 400 00cf 0000B901 		.ascii	"\000\000\271\001\000\000chHeapObjectInit\000\000\002"
 400      00006368 
 400      48656170 
 400      4F626A65 
 400      6374496E 
 401 00e8 00000000 		.ascii	"\000\000\000\000\000\000\000\000\000\274\001\000\000"
 401      00000000 
 401      00BC0100 
 401      00
 402              		.text
 403              		.section	.gnu.lto_.opts,"",%progbits
 404 0000 272D6D63 		.ascii	"'-mcpu=cortex-m4' '-mno-thumb-interwork' '-mthumb' "
 404      70753D63 
 404      6F727465 
 404      782D6D34 
 404      2720272D 
ARM GAS  /tmp/ccXgCN1n.s 			page 32


 405 0033 272D6767 		.ascii	"'-ggdb' '-O2' '-fomit-frame-pointer' '-falign-funct"
 405      64622720 
 405      272D4F32 
 405      2720272D 
 405      666F6D69 
 406 0066 696F6E73 		.ascii	"ions=16' '-ffunction-sections' '-fdata-sections' '-"
 406      3D313627 
 406      20272D66 
 406      66756E63 
 406      74696F6E 
 407 0099 666E6F2D 		.ascii	"fno-common' '-flto'\000"
 407      636F6D6D 
 407      6F6E2720 
 407      272D666C 
 407      746F2700 
 408              		.text
 409              		.cfi_sections	.debug_frame
 410              		.section	.text.heap1_execute,"ax",%progbits
 411              		.align	2
 412              		.p2align 4,,15
 413              		.thumb
 414              		.thumb_func
 415              		.type	heap1_execute, %function
 416              	heap1_execute:
 417              	.LFB242:
 418              		.file 1 "../ChibiOS/test/rt/testheap.c"
 419              		.loc 1 69 0
 420              		.cfi_startproc
 421              		@ args = 0, pretend = 0, frame = 8
 422              		@ frame_needed = 0, uses_anonymous_args = 0
 423 0000 70B5     		push	{r4, r5, r6, lr}
 424              		.cfi_def_cfa_offset 16
 425              		.cfi_offset 4, -16
 426              		.cfi_offset 5, -12
 427              		.cfi_offset 6, -8
 428              		.cfi_offset 14, -4
 429 0002 82B0     		sub	sp, sp, #8
 430              		.cfi_def_cfa_offset 24
 431              		.loc 1 74 0
 432 0004 FFF7FEFF 		bl	chCoreGetStatusX
 433              	.LVL0:
 434              		.loc 1 80 0
 435 0008 01A9     		add	r1, sp, #4
 436 000a 0020     		movs	r0, #0
 437 000c FFF7FEFF 		bl	chHeapStatus
 438              	.LVL1:
 439              		.loc 1 81 0
 440 0010 1021     		movs	r1, #16
 441 0012 0020     		movs	r0, #0
 442 0014 FFF7FEFF 		bl	chHeapAlloc
 443              	.LVL2:
 444              		.loc 1 82 0
 445 0018 011C     		adds	r1, r0, #0
 446 001a 0446     		mov	r4, r0
 447 001c 18BF     		it	ne
 448 001e 0121     		movne	r1, #1
 449 0020 0120     		movs	r0, #1
ARM GAS  /tmp/ccXgCN1n.s 			page 33


 450              	.LVL3:
 451 0022 FFF7FEFF 		bl	_test_assert
 452              	.LVL4:
 453 0026 0546     		mov	r5, r0
 454 0028 08B1     		cbz	r0, .L7
 455              	.LVL5:
 456              	.L1:
 457              		.loc 1 140 0
 458 002a 02B0     		add	sp, sp, #8
 459              		@ sp needed
 460 002c 70BD     		pop	{r4, r5, r6, pc}
 461              	.LVL6:
 462              	.L7:
 463              		.loc 1 83 0
 464 002e 2046     		mov	r0, r4
 465 0030 FFF7FEFF 		bl	chHeapFree
 466              	.LVL7:
 467              		.loc 1 84 0
 468 0034 6FF0FF01 		mvn	r1, #255
 469 0038 2846     		mov	r0, r5
 470 003a FFF7FEFF 		bl	chHeapAlloc
 471              	.LVL8:
 472              		.loc 1 85 0
 473 003e D0F10101 		rsbs	r1, r0, #1
 474 0042 38BF     		it	cc
 475 0044 0021     		movcc	r1, #0
 476 0046 0220     		movs	r0, #2
 477              	.LVL9:
 478 0048 FFF7FEFF 		bl	_test_assert
 479              	.LVL10:
 480 004c 0028     		cmp	r0, #0
 481 004e ECD1     		bne	.L1
 482              		.loc 1 88 0
 483 0050 01A9     		add	r1, sp, #4
 484 0052 7B48     		ldr	r0, .L8
 485 0054 FFF7FEFF 		bl	chHeapStatus
 486              	.LVL11:
 487              		.loc 1 91 0
 488 0058 1021     		movs	r1, #16
 489 005a 7948     		ldr	r0, .L8
 490 005c FFF7FEFF 		bl	chHeapAlloc
 491              	.LVL12:
 492              		.loc 1 92 0
 493 0060 1021     		movs	r1, #16
 494              		.loc 1 91 0
 495 0062 0546     		mov	r5, r0
 496              	.LVL13:
 497              		.loc 1 92 0
 498 0064 7648     		ldr	r0, .L8
 499              	.LVL14:
 500 0066 FFF7FEFF 		bl	chHeapAlloc
 501              	.LVL15:
 502              		.loc 1 93 0
 503 006a 1021     		movs	r1, #16
 504              		.loc 1 92 0
 505 006c 0446     		mov	r4, r0
 506              	.LVL16:
ARM GAS  /tmp/ccXgCN1n.s 			page 34


 507              		.loc 1 93 0
 508 006e 7448     		ldr	r0, .L8
 509              	.LVL17:
 510 0070 FFF7FEFF 		bl	chHeapAlloc
 511              	.LVL18:
 512 0074 0646     		mov	r6, r0
 513              	.LVL19:
 514              		.loc 1 94 0
 515 0076 2846     		mov	r0, r5
 516              	.LVL20:
 517 0078 FFF7FEFF 		bl	chHeapFree
 518              	.LVL21:
 519              		.loc 1 95 0
 520 007c 2046     		mov	r0, r4
 521 007e FFF7FEFF 		bl	chHeapFree
 522              	.LVL22:
 523              		.loc 1 96 0
 524 0082 3046     		mov	r0, r6
 525 0084 FFF7FEFF 		bl	chHeapFree
 526              	.LVL23:
 527              		.loc 1 97 0
 528 0088 6946     		mov	r1, sp
 529 008a 6D48     		ldr	r0, .L8
 530 008c FFF7FEFF 		bl	chHeapStatus
 531              	.LVL24:
 532 0090 421E     		subs	r2, r0, #1
 533 0092 5142     		rsbs	r1, r2, #0
 534 0094 5141     		adcs	r1, r1, r2
 535 0096 0320     		movs	r0, #3
 536 0098 FFF7FEFF 		bl	_test_assert
 537              	.LVL25:
 538 009c 0028     		cmp	r0, #0
 539 009e C4D1     		bne	.L1
 540              		.loc 1 100 0
 541 00a0 1021     		movs	r1, #16
 542 00a2 6748     		ldr	r0, .L8
 543 00a4 FFF7FEFF 		bl	chHeapAlloc
 544              	.LVL26:
 545              		.loc 1 101 0
 546 00a8 1021     		movs	r1, #16
 547              		.loc 1 100 0
 548 00aa 0446     		mov	r4, r0
 549              	.LVL27:
 550              		.loc 1 101 0
 551 00ac 6448     		ldr	r0, .L8
 552              	.LVL28:
 553 00ae FFF7FEFF 		bl	chHeapAlloc
 554              	.LVL29:
 555              		.loc 1 102 0
 556 00b2 1021     		movs	r1, #16
 557              		.loc 1 101 0
 558 00b4 0546     		mov	r5, r0
 559              	.LVL30:
 560              		.loc 1 102 0
 561 00b6 6248     		ldr	r0, .L8
 562              	.LVL31:
 563 00b8 FFF7FEFF 		bl	chHeapAlloc
ARM GAS  /tmp/ccXgCN1n.s 			page 35


 564              	.LVL32:
 565              		.loc 1 103 0
 566 00bc FFF7FEFF 		bl	chHeapFree
 567              	.LVL33:
 568              		.loc 1 104 0
 569 00c0 2846     		mov	r0, r5
 570 00c2 FFF7FEFF 		bl	chHeapFree
 571              	.LVL34:
 572              		.loc 1 105 0
 573 00c6 2046     		mov	r0, r4
 574 00c8 FFF7FEFF 		bl	chHeapFree
 575              	.LVL35:
 576              		.loc 1 106 0
 577 00cc 6946     		mov	r1, sp
 578 00ce 5C48     		ldr	r0, .L8
 579 00d0 FFF7FEFF 		bl	chHeapStatus
 580              	.LVL36:
 581 00d4 431E     		subs	r3, r0, #1
 582 00d6 5942     		rsbs	r1, r3, #0
 583 00d8 5941     		adcs	r1, r1, r3
 584 00da 0420     		movs	r0, #4
 585 00dc FFF7FEFF 		bl	_test_assert
 586              	.LVL37:
 587 00e0 0028     		cmp	r0, #0
 588 00e2 A2D1     		bne	.L1
 589              		.loc 1 109 0
 590 00e4 1121     		movs	r1, #17
 591 00e6 5648     		ldr	r0, .L8
 592 00e8 FFF7FEFF 		bl	chHeapAlloc
 593              	.LVL38:
 594              		.loc 1 110 0
 595 00ec 1021     		movs	r1, #16
 596              		.loc 1 109 0
 597 00ee 0446     		mov	r4, r0
 598              	.LVL39:
 599              		.loc 1 110 0
 600 00f0 5348     		ldr	r0, .L8
 601              	.LVL40:
 602 00f2 FFF7FEFF 		bl	chHeapAlloc
 603              	.LVL41:
 604 00f6 0546     		mov	r5, r0
 605              	.LVL42:
 606              		.loc 1 111 0
 607 00f8 2046     		mov	r0, r4
 608              	.LVL43:
 609 00fa FFF7FEFF 		bl	chHeapFree
 610              	.LVL44:
 611              		.loc 1 112 0
 612 00fe 6946     		mov	r1, sp
 613 0100 4F48     		ldr	r0, .L8
 614 0102 FFF7FEFF 		bl	chHeapStatus
 615              	.LVL45:
 616 0106 B0F1020C 		subs	ip, r0, #2
 617 010a DCF10001 		rsbs	r1, ip, #0
 618 010e 51EB0C01 		adcs	r1, r1, ip
 619 0112 0520     		movs	r0, #5
 620 0114 FFF7FEFF 		bl	_test_assert
ARM GAS  /tmp/ccXgCN1n.s 			page 36


 621              	.LVL46:
 622 0118 0028     		cmp	r0, #0
 623 011a 86D1     		bne	.L1
 624              		.loc 1 113 0
 625 011c 1021     		movs	r1, #16
 626 011e 4848     		ldr	r0, .L8
 627 0120 FFF7FEFF 		bl	chHeapAlloc
 628              	.LVL47:
 629              		.loc 1 116 0
 630 0124 6946     		mov	r1, sp
 631              		.loc 1 113 0
 632 0126 0446     		mov	r4, r0
 633              	.LVL48:
 634              		.loc 1 116 0
 635 0128 4548     		ldr	r0, .L8
 636              	.LVL49:
 637 012a FFF7FEFF 		bl	chHeapStatus
 638              	.LVL50:
 639 012e 0128     		cmp	r0, #1
 640 0130 00F08380 		beq	.L5
 641              		.loc 1 116 0 is_stmt 0 discriminator 2
 642 0134 6946     		mov	r1, sp
 643 0136 4248     		ldr	r0, .L8
 644 0138 FFF7FEFF 		bl	chHeapStatus
 645              	.LVL51:
 646 013c B0F1020E 		subs	lr, r0, #2
 647 0140 DEF10001 		rsbs	r1, lr, #0
 648 0144 51EB0E01 		adcs	r1, r1, lr
 649              	.L3:
 650              		.loc 1 116 0 discriminator 4
 651 0148 0620     		movs	r0, #6
 652 014a FFF7FEFF 		bl	_test_assert
 653              	.LVL52:
 654 014e 0028     		cmp	r0, #0
 655 0150 7FF46BAF 		bne	.L1
 656              		.loc 1 118 0 is_stmt 1
 657 0154 2846     		mov	r0, r5
 658 0156 FFF7FEFF 		bl	chHeapFree
 659              	.LVL53:
 660              		.loc 1 119 0
 661 015a 2046     		mov	r0, r4
 662 015c FFF7FEFF 		bl	chHeapFree
 663              	.LVL54:
 664              		.loc 1 120 0
 665 0160 6946     		mov	r1, sp
 666 0162 3748     		ldr	r0, .L8
 667 0164 FFF7FEFF 		bl	chHeapStatus
 668              	.LVL55:
 669 0168 461E     		subs	r6, r0, #1
 670 016a 7142     		rsbs	r1, r6, #0
 671 016c 7141     		adcs	r1, r1, r6
 672 016e 0720     		movs	r0, #7
 673 0170 FFF7FEFF 		bl	_test_assert
 674              	.LVL56:
 675 0174 0028     		cmp	r0, #0
 676 0176 7FF458AF 		bne	.L1
 677              		.loc 1 123 0
ARM GAS  /tmp/ccXgCN1n.s 			page 37


 678 017a 1021     		movs	r1, #16
 679 017c 3048     		ldr	r0, .L8
 680 017e FFF7FEFF 		bl	chHeapAlloc
 681              	.LVL57:
 682              		.loc 1 124 0
 683 0182 1021     		movs	r1, #16
 684              		.loc 1 123 0
 685 0184 0546     		mov	r5, r0
 686              	.LVL58:
 687              		.loc 1 124 0
 688 0186 2E48     		ldr	r0, .L8
 689              	.LVL59:
 690 0188 FFF7FEFF 		bl	chHeapAlloc
 691              	.LVL60:
 692 018c 0446     		mov	r4, r0
 693              	.LVL61:
 694              		.loc 1 125 0
 695 018e 2846     		mov	r0, r5
 696              	.LVL62:
 697 0190 FFF7FEFF 		bl	chHeapFree
 698              	.LVL63:
 699              		.loc 1 126 0
 700 0194 6946     		mov	r1, sp
 701 0196 2A48     		ldr	r0, .L8
 702 0198 FFF7FEFF 		bl	chHeapStatus
 703              	.LVL64:
 704 019c 851E     		subs	r5, r0, #2
 705              	.LVL65:
 706 019e 6942     		rsbs	r1, r5, #0
 707 01a0 6941     		adcs	r1, r1, r5
 708 01a2 0820     		movs	r0, #8
 709 01a4 FFF7FEFF 		bl	_test_assert
 710              	.LVL66:
 711 01a8 0028     		cmp	r0, #0
 712 01aa 7FF43EAF 		bne	.L1
 713              		.loc 1 127 0
 714 01ae 2021     		movs	r1, #32
 715 01b0 2348     		ldr	r0, .L8
 716 01b2 FFF7FEFF 		bl	chHeapAlloc
 717              	.LVL67:
 718              		.loc 1 128 0
 719 01b6 FFF7FEFF 		bl	chHeapFree
 720              	.LVL68:
 721              		.loc 1 129 0
 722 01ba 2046     		mov	r0, r4
 723 01bc FFF7FEFF 		bl	chHeapFree
 724              	.LVL69:
 725              		.loc 1 130 0
 726 01c0 6946     		mov	r1, sp
 727 01c2 1F48     		ldr	r0, .L8
 728 01c4 FFF7FEFF 		bl	chHeapStatus
 729              	.LVL70:
 730 01c8 0138     		subs	r0, r0, #1
 731 01ca 4142     		rsbs	r1, r0, #0
 732 01cc 4141     		adcs	r1, r1, r0
 733 01ce 0920     		movs	r0, #9
 734 01d0 FFF7FEFF 		bl	_test_assert
ARM GAS  /tmp/ccXgCN1n.s 			page 38


 735              	.LVL71:
 736 01d4 0028     		cmp	r0, #0
 737 01d6 7FF428AF 		bne	.L1
 738              		.loc 1 133 0
 739 01da 6946     		mov	r1, sp
 740 01dc 1848     		ldr	r0, .L8
 741 01de FFF7FEFF 		bl	chHeapStatus
 742              	.LVL72:
 743              		.loc 1 134 0
 744 01e2 0099     		ldr	r1, [sp]
 745 01e4 1648     		ldr	r0, .L8
 746 01e6 FFF7FEFF 		bl	chHeapAlloc
 747              	.LVL73:
 748              		.loc 1 135 0
 749 01ea 6946     		mov	r1, sp
 750              		.loc 1 134 0
 751 01ec 0446     		mov	r4, r0
 752              	.LVL74:
 753              		.loc 1 135 0
 754 01ee 1448     		ldr	r0, .L8
 755              	.LVL75:
 756 01f0 FFF7FEFF 		bl	chHeapStatus
 757              	.LVL76:
 758 01f4 D0F10101 		rsbs	r1, r0, #1
 759 01f8 38BF     		it	cc
 760 01fa 0021     		movcc	r1, #0
 761 01fc 0A20     		movs	r0, #10
 762 01fe FFF7FEFF 		bl	_test_assert
 763              	.LVL77:
 764 0202 0028     		cmp	r0, #0
 765 0204 7FF411AF 		bne	.L1
 766              		.loc 1 136 0
 767 0208 2046     		mov	r0, r4
 768 020a FFF7FEFF 		bl	chHeapFree
 769              	.LVL78:
 770              		.loc 1 138 0
 771 020e 6946     		mov	r1, sp
 772 0210 0B48     		ldr	r0, .L8
 773 0212 FFF7FEFF 		bl	chHeapStatus
 774              	.LVL79:
 775 0216 421E     		subs	r2, r0, #1
 776 0218 5142     		rsbs	r1, r2, #0
 777 021a 5141     		adcs	r1, r1, r2
 778 021c 0B20     		movs	r0, #11
 779 021e FFF7FEFF 		bl	_test_assert
 780              	.LVL80:
 781 0222 0028     		cmp	r0, #0
 782 0224 7FF401AF 		bne	.L1
 783              		.loc 1 139 0
 784 0228 9DE80A00 		ldmia	sp, {r1, r3}
 785 022c CB1A     		subs	r3, r1, r3
 786 022e 5942     		rsbs	r1, r3, #0
 787 0230 5941     		adcs	r1, r1, r3
 788 0232 0C20     		movs	r0, #12
 789 0234 FFF7FEFF 		bl	_test_assert
 790              	.LVL81:
 791 0238 F7E6     		b	.L1
ARM GAS  /tmp/ccXgCN1n.s 			page 39


 792              	.LVL82:
 793              	.L5:
 794 023a 0146     		mov	r1, r0
 795 023c 84E7     		b	.L3
 796              	.L9:
 797 023e 00BF     		.align	2
 798              	.L8:
 799 0240 00000000 		.word	.LANCHOR0
 800              		.cfi_endproc
 801              	.LFE242:
 802              		.size	heap1_execute, .-heap1_execute
 803 0244 AFF30080 		.section	.text.heap1_setup,"ax",%progbits
 803      AFF30080 
 803      AFF30080 
 804              		.align	2
 805              		.p2align 4,,15
 806              		.thumb
 807              		.thumb_func
 808              		.type	heap1_setup, %function
 809              	heap1_setup:
 810              	.LFB241:
 811              		.loc 1 64 0
 812              		.cfi_startproc
 813              		@ args = 0, pretend = 0, frame = 0
 814              		@ frame_needed = 0, uses_anonymous_args = 0
 815              		@ link register save eliminated.
 816              		.loc 1 66 0
 817 0000 0248     		ldr	r0, .L11
 818 0002 0349     		ldr	r1, .L11+4
 819 0004 4FF4CD62 		mov	r2, #1640
 820 0008 FFF7FEBF 		b	chHeapObjectInit
 821              	.LVL83:
 822              	.L12:
 823              		.align	2
 824              	.L11:
 825 000c 00000000 		.word	.LANCHOR0
 826 0010 00000000 		.word	test
 827              		.cfi_endproc
 828              	.LFE241:
 829              		.size	heap1_setup, .-heap1_setup
 830              		.global	patternheap
 831              		.global	testheap1
 832 0014 AFF30080 		.section	.rodata.patternheap,"a",%progbits
 832      AFF30080 
 832      AFF30080 
 833              		.align	2
 834              		.type	patternheap, %object
 835              		.size	patternheap, 8
 836              	patternheap:
 837 0000 00000000 		.word	testheap1
 838 0004 00000000 		.word	0
 839              		.section	.rodata.str1.4,"aMS",%progbits,1
 840              		.align	2
 841              	.LC0:
 842 0000 48656170 		.ascii	"Heap, allocation and fragmentation test\000"
 842      2C20616C 
 842      6C6F6361 
ARM GAS  /tmp/ccXgCN1n.s 			page 40


 842      74696F6E 
 842      20616E64 
 843              		.section	.rodata.testheap1,"a",%progbits
 844              		.align	2
 845              		.type	testheap1, %object
 846              		.size	testheap1, 16
 847              	testheap1:
 848 0000 00000000 		.word	.LC0
 849 0004 00000000 		.word	heap1_setup
 850 0008 00000000 		.word	0
 851 000c 00000000 		.word	heap1_execute
 852              		.section	.bss.test_heap,"aw",%nobits
 853              		.align	3
 854              		.set	.LANCHOR0,. + 0
 855              		.type	test_heap, %object
 856              		.size	test_heap, 32
 857              	test_heap:
 858 0000 00000000 		.space	32
 858      00000000 
 858      00000000 
 858      00000000 
 858      00000000 
 859              		.text
 860              	.Letext0:
 861              		.file 2 "/nfs/nfs5/home/research/hardware/arm2/gcc-arm-embedded/gcc-arm-none-eabi-4_8-2014q2/lib/g
 862              		.file 3 "/nfs/nfs5/home/research/hardware/arm2/gcc-arm-embedded/gcc-arm-none-eabi-4_8-2014q2/arm-n
 863              		.file 4 "/nfs/nfs5/home/research/hardware/arm2/gcc-arm-embedded/gcc-arm-none-eabi-4_8-2014q2/arm-n
 864              		.file 5 "../ChibiOS/os/rt/ports/ARMCMx/compilers/GCC/chtypes.h"
 865              		.file 6 "../ChibiOS/os/rt/include/chsystypes.h"
 866              		.file 7 "../ChibiOS/os/rt/include/chschd.h"
 867              		.file 8 "../ChibiOS/os/rt/ports/ARMCMx/chcore.h"
 868              		.file 9 "../ChibiOS/os/rt/ports/ARMCMx/chcore_v7m.h"
 869              		.file 10 "../ChibiOS/os/rt/include/chtm.h"
 870              		.file 11 "../ChibiOS/os/rt/include/chsem.h"
 871              		.file 12 "../ChibiOS/os/rt/include/chmtx.h"
 872              		.file 13 "../ChibiOS/os/rt/include/chmemcore.h"
 873              		.file 14 "../ChibiOS/os/rt/include/chheap.h"
 874              		.file 15 "../ChibiOS/test/rt/test.h"
 875              		.file 16 "../ChibiOS/os/ext/CMSIS/include/core_cm4.h"
 876              		.section	.debug_info,"",%progbits
 877              	.Ldebug_info0:
 878 0000 5D0E0000 		.4byte	0xe5d
 879 0004 0400     		.2byte	0x4
 880 0006 00000000 		.4byte	.Ldebug_abbrev0
 881 000a 04       		.byte	0x4
 882 000b 01       		.uleb128 0x1
 883 000c 5E050000 		.4byte	.LASF131
 884 0010 01       		.byte	0x1
 885 0011 D1040000 		.4byte	.LASF132
 886 0015 CA020000 		.4byte	.LASF133
 887 0019 00000000 		.4byte	.Ldebug_ranges0+0
 888 001d 00000000 		.4byte	0
 889 0021 00000000 		.4byte	.Ldebug_line0
 890 0025 02       		.uleb128 0x2
 891 0026 04       		.byte	0x4
 892 0027 05       		.byte	0x5
 893 0028 696E7400 		.ascii	"int\000"
ARM GAS  /tmp/ccXgCN1n.s 			page 41


 894 002c 03       		.uleb128 0x3
 895 002d 0D000000 		.4byte	.LASF2
 896 0031 02       		.byte	0x2
 897 0032 D4       		.byte	0xd4
 898 0033 37000000 		.4byte	0x37
 899 0037 04       		.uleb128 0x4
 900 0038 04       		.byte	0x4
 901 0039 07       		.byte	0x7
 902 003a B2010000 		.4byte	.LASF0
 903 003e 04       		.uleb128 0x4
 904 003f 01       		.byte	0x1
 905 0040 06       		.byte	0x6
 906 0041 E4000000 		.4byte	.LASF1
 907 0045 03       		.uleb128 0x3
 908 0046 24000000 		.4byte	.LASF3
 909 004a 03       		.byte	0x3
 910 004b 1C       		.byte	0x1c
 911 004c 50000000 		.4byte	0x50
 912 0050 04       		.uleb128 0x4
 913 0051 01       		.byte	0x1
 914 0052 08       		.byte	0x8
 915 0053 A4030000 		.4byte	.LASF4
 916 0057 04       		.uleb128 0x4
 917 0058 02       		.byte	0x2
 918 0059 05       		.byte	0x5
 919 005a C8030000 		.4byte	.LASF5
 920 005e 04       		.uleb128 0x4
 921 005f 02       		.byte	0x2
 922 0060 07       		.byte	0x7
 923 0061 ED010000 		.4byte	.LASF6
 924 0065 03       		.uleb128 0x3
 925 0066 49020000 		.4byte	.LASF7
 926 006a 03       		.byte	0x3
 927 006b 37       		.byte	0x37
 928 006c 70000000 		.4byte	0x70
 929 0070 04       		.uleb128 0x4
 930 0071 04       		.byte	0x4
 931 0072 05       		.byte	0x5
 932 0073 39010000 		.4byte	.LASF8
 933 0077 03       		.uleb128 0x3
 934 0078 BC040000 		.4byte	.LASF9
 935 007c 03       		.byte	0x3
 936 007d 38       		.byte	0x38
 937 007e 82000000 		.4byte	0x82
 938 0082 04       		.uleb128 0x4
 939 0083 04       		.byte	0x4
 940 0084 07       		.byte	0x7
 941 0085 6A040000 		.4byte	.LASF10
 942 0089 04       		.uleb128 0x4
 943 008a 08       		.byte	0x8
 944 008b 05       		.byte	0x5
 945 008c D6000000 		.4byte	.LASF11
 946 0090 03       		.uleb128 0x3
 947 0091 40030000 		.4byte	.LASF12
 948 0095 03       		.byte	0x3
 949 0096 4E       		.byte	0x4e
 950 0097 9B000000 		.4byte	0x9b
ARM GAS  /tmp/ccXgCN1n.s 			page 42


 951 009b 04       		.uleb128 0x4
 952 009c 08       		.byte	0x8
 953 009d 07       		.byte	0x7
 954 009e 56000000 		.4byte	.LASF13
 955 00a2 03       		.uleb128 0x3
 956 00a3 41050000 		.4byte	.LASF14
 957 00a7 04       		.byte	0x4
 958 00a8 2A       		.byte	0x2a
 959 00a9 45000000 		.4byte	0x45
 960 00ad 03       		.uleb128 0x3
 961 00ae 9C030000 		.4byte	.LASF15
 962 00b2 04       		.byte	0x4
 963 00b3 41       		.byte	0x41
 964 00b4 65000000 		.4byte	0x65
 965 00b8 03       		.uleb128 0x3
 966 00b9 34040000 		.4byte	.LASF16
 967 00bd 04       		.byte	0x4
 968 00be 42       		.byte	0x42
 969 00bf 77000000 		.4byte	0x77
 970 00c3 03       		.uleb128 0x3
 971 00c4 1B000000 		.4byte	.LASF17
 972 00c8 04       		.byte	0x4
 973 00c9 4E       		.byte	0x4e
 974 00ca 90000000 		.4byte	0x90
 975 00ce 03       		.uleb128 0x3
 976 00cf 0F050000 		.4byte	.LASF18
 977 00d3 05       		.byte	0x5
 978 00d4 39       		.byte	0x39
 979 00d5 B8000000 		.4byte	0xb8
 980 00d9 03       		.uleb128 0x3
 981 00da 27020000 		.4byte	.LASF19
 982 00de 05       		.byte	0x5
 983 00df 3C       		.byte	0x3c
 984 00e0 A2000000 		.4byte	0xa2
 985 00e4 03       		.uleb128 0x3
 986 00e5 42010000 		.4byte	.LASF20
 987 00e9 05       		.byte	0x5
 988 00ea 3D       		.byte	0x3d
 989 00eb A2000000 		.4byte	0xa2
 990 00ef 03       		.uleb128 0x3
 991 00f0 4B030000 		.4byte	.LASF21
 992 00f4 05       		.byte	0x5
 993 00f5 3E       		.byte	0x3e
 994 00f6 A2000000 		.4byte	0xa2
 995 00fa 03       		.uleb128 0x3
 996 00fb 72030000 		.4byte	.LASF22
 997 00ff 05       		.byte	0x5
 998 0100 40       		.byte	0x40
 999 0101 B8000000 		.4byte	0xb8
 1000 0105 03       		.uleb128 0x3
 1001 0106 15020000 		.4byte	.LASF23
 1002 010a 05       		.byte	0x5
 1003 010b 41       		.byte	0x41
 1004 010c AD000000 		.4byte	0xad
 1005 0110 03       		.uleb128 0x3
 1006 0111 3D020000 		.4byte	.LASF24
 1007 0115 05       		.byte	0x5
ARM GAS  /tmp/ccXgCN1n.s 			page 43


 1008 0116 43       		.byte	0x43
 1009 0117 B8000000 		.4byte	0xb8
 1010 011b 03       		.uleb128 0x3
 1011 011c AC010000 		.4byte	.LASF25
 1012 0120 05       		.byte	0x5
 1013 0121 45       		.byte	0x45
 1014 0122 AD000000 		.4byte	0xad
 1015 0126 03       		.uleb128 0x3
 1016 0127 9E040000 		.4byte	.LASF26
 1017 012b 06       		.byte	0x6
 1018 012c 33       		.byte	0x33
 1019 012d B8000000 		.4byte	0xb8
 1020 0131 03       		.uleb128 0x3
 1021 0132 81040000 		.4byte	.LASF27
 1022 0136 06       		.byte	0x6
 1023 0137 3F       		.byte	0x3f
 1024 0138 3C010000 		.4byte	0x13c
 1025 013c 05       		.uleb128 0x5
 1026 013d 00020000 		.4byte	.LASF46
 1027 0141 40       		.byte	0x40
 1028 0142 07       		.byte	0x7
 1029 0143 C2       		.byte	0xc2
 1030 0144 1C020000 		.4byte	0x21c
 1031 0148 06       		.uleb128 0x6
 1032 0149 E8030000 		.4byte	.LASF28
 1033 014d 07       		.byte	0x7
 1034 014e C3       		.byte	0xc3
 1035 014f 27020000 		.4byte	0x227
 1036 0153 00       		.byte	0
 1037 0154 06       		.uleb128 0x6
 1038 0155 63030000 		.4byte	.LASF29
 1039 0159 07       		.byte	0x7
 1040 015a C5       		.byte	0xc5
 1041 015b 27020000 		.4byte	0x227
 1042 015f 04       		.byte	0x4
 1043 0160 06       		.uleb128 0x6
 1044 0161 BB000000 		.4byte	.LASF30
 1045 0165 07       		.byte	0x7
 1046 0166 C7       		.byte	0xc7
 1047 0167 FA000000 		.4byte	0xfa
 1048 016b 08       		.byte	0x8
 1049 016c 06       		.uleb128 0x6
 1050 016d 7D060000 		.4byte	.LASF31
 1051 0171 07       		.byte	0x7
 1052 0172 C8       		.byte	0xc8
 1053 0173 57040000 		.4byte	0x457
 1054 0177 0C       		.byte	0xc
 1055 0178 06       		.uleb128 0x6
 1056 0179 60010000 		.4byte	.LASF32
 1057 017d 07       		.byte	0x7
 1058 017e CA       		.byte	0xca
 1059 017f 27020000 		.4byte	0x227
 1060 0183 10       		.byte	0x10
 1061 0184 06       		.uleb128 0x6
 1062 0185 C2020000 		.4byte	.LASF33
 1063 0189 07       		.byte	0x7
 1064 018a CB       		.byte	0xcb
ARM GAS  /tmp/ccXgCN1n.s 			page 44


 1065 018b 27020000 		.4byte	0x227
 1066 018f 14       		.byte	0x14
 1067 0190 06       		.uleb128 0x6
 1068 0191 45060000 		.4byte	.LASF34
 1069 0195 07       		.byte	0x7
 1070 0196 D2       		.byte	0xd2
 1071 0197 E2050000 		.4byte	0x5e2
 1072 019b 18       		.byte	0x18
 1073 019c 06       		.uleb128 0x6
 1074 019d D2030000 		.4byte	.LASF35
 1075 01a1 07       		.byte	0x7
 1076 01a2 DD       		.byte	0xdd
 1077 01a3 E4000000 		.4byte	0xe4
 1078 01a7 1C       		.byte	0x1c
 1079 01a8 06       		.uleb128 0x6
 1080 01a9 EF030000 		.4byte	.LASF36
 1081 01ad 07       		.byte	0x7
 1082 01ae E1       		.byte	0xe1
 1083 01af D9000000 		.4byte	0xd9
 1084 01b3 1D       		.byte	0x1d
 1085 01b4 06       		.uleb128 0x6
 1086 01b5 34050000 		.4byte	.LASF37
 1087 01b9 07       		.byte	0x7
 1088 01ba E6       		.byte	0xe6
 1089 01bb EF000000 		.4byte	0xef
 1090 01bf 1E       		.byte	0x1e
 1091 01c0 07       		.uleb128 0x7
 1092 01c1 705F7500 		.ascii	"p_u\000"
 1093 01c5 07       		.byte	0x7
 1094 01c6 3701     		.2byte	0x137
 1095 01c8 11050000 		.4byte	0x511
 1096 01cc 20       		.byte	0x20
 1097 01cd 08       		.uleb128 0x8
 1098 01ce 79020000 		.4byte	.LASF38
 1099 01d2 07       		.byte	0x7
 1100 01d3 3C01     		.2byte	0x13c
 1101 01d5 2D020000 		.4byte	0x22d
 1102 01d9 24       		.byte	0x24
 1103 01da 08       		.uleb128 0x8
 1104 01db CE010000 		.4byte	.LASF39
 1105 01df 07       		.byte	0x7
 1106 01e0 4201     		.2byte	0x142
 1107 01e2 51020000 		.4byte	0x251
 1108 01e6 28       		.byte	0x28
 1109 01e7 08       		.uleb128 0x8
 1110 01e8 29040000 		.4byte	.LASF40
 1111 01ec 07       		.byte	0x7
 1112 01ed 4801     		.2byte	0x148
 1113 01ef 10010000 		.4byte	0x110
 1114 01f3 30       		.byte	0x30
 1115 01f4 08       		.uleb128 0x8
 1116 01f5 BE030000 		.4byte	.LASF41
 1117 01f9 07       		.byte	0x7
 1118 01fa 4F01     		.2byte	0x14f
 1119 01fc DC050000 		.4byte	0x5dc
 1120 0200 34       		.byte	0x34
 1121 0201 08       		.uleb128 0x8
ARM GAS  /tmp/ccXgCN1n.s 			page 45


 1122 0202 A8040000 		.4byte	.LASF42
 1123 0206 07       		.byte	0x7
 1124 0207 5301     		.2byte	0x153
 1125 0209 FA000000 		.4byte	0xfa
 1126 020d 38       		.byte	0x38
 1127 020e 08       		.uleb128 0x8
 1128 020f F6000000 		.4byte	.LASF43
 1129 0213 07       		.byte	0x7
 1130 0214 5A01     		.2byte	0x15a
 1131 0216 04030000 		.4byte	0x304
 1132 021a 3C       		.byte	0x3c
 1133 021b 00       		.byte	0
 1134 021c 03       		.uleb128 0x3
 1135 021d 8C020000 		.4byte	.LASF44
 1136 0221 06       		.byte	0x6
 1137 0222 44       		.byte	0x44
 1138 0223 27020000 		.4byte	0x227
 1139 0227 09       		.uleb128 0x9
 1140 0228 04       		.byte	0x4
 1141 0229 31010000 		.4byte	0x131
 1142 022d 03       		.uleb128 0x3
 1143 022e 5E060000 		.4byte	.LASF45
 1144 0232 06       		.byte	0x6
 1145 0233 49       		.byte	0x49
 1146 0234 38020000 		.4byte	0x238
 1147 0238 05       		.uleb128 0x5
 1148 0239 55040000 		.4byte	.LASF47
 1149 023d 04       		.byte	0x4
 1150 023e 07       		.byte	0x7
 1151 023f B0       		.byte	0xb0
 1152 0240 51020000 		.4byte	0x251
 1153 0244 06       		.uleb128 0x6
 1154 0245 E8030000 		.4byte	.LASF28
 1155 0249 07       		.byte	0x7
 1156 024a B1       		.byte	0xb1
 1157 024b 27020000 		.4byte	0x227
 1158 024f 00       		.byte	0
 1159 0250 00       		.byte	0
 1160 0251 03       		.uleb128 0x3
 1161 0252 F7030000 		.4byte	.LASF48
 1162 0256 06       		.byte	0x6
 1163 0257 50       		.byte	0x50
 1164 0258 5C020000 		.4byte	0x25c
 1165 025c 05       		.uleb128 0x5
 1166 025d AA000000 		.4byte	.LASF49
 1167 0261 08       		.byte	0x8
 1168 0262 07       		.byte	0x7
 1169 0263 B7       		.byte	0xb7
 1170 0264 81020000 		.4byte	0x281
 1171 0268 06       		.uleb128 0x6
 1172 0269 E8030000 		.4byte	.LASF28
 1173 026d 07       		.byte	0x7
 1174 026e B8       		.byte	0xb8
 1175 026f 27020000 		.4byte	0x227
 1176 0273 00       		.byte	0
 1177 0274 06       		.uleb128 0x6
 1178 0275 63030000 		.4byte	.LASF29
ARM GAS  /tmp/ccXgCN1n.s 			page 46


 1179 0279 07       		.byte	0x7
 1180 027a B9       		.byte	0xb9
 1181 027b 27020000 		.4byte	0x227
 1182 027f 04       		.byte	0x4
 1183 0280 00       		.byte	0
 1184 0281 03       		.uleb128 0x3
 1185 0282 00000000 		.4byte	.LASF50
 1186 0286 06       		.byte	0x6
 1187 0287 57       		.byte	0x57
 1188 0288 8C020000 		.4byte	0x28c
 1189 028c 0A       		.uleb128 0xa
 1190 028d 2F020000 		.4byte	.LASF51
 1191 0291 1C       		.byte	0x1c
 1192 0292 07       		.byte	0x7
 1193 0293 9201     		.2byte	0x192
 1194 0295 E8020000 		.4byte	0x2e8
 1195 0299 08       		.uleb128 0x8
 1196 029a 44040000 		.4byte	.LASF52
 1197 029e 07       		.byte	0x7
 1198 029f 9301     		.2byte	0x193
 1199 02a1 51020000 		.4byte	0x251
 1200 02a5 00       		.byte	0
 1201 02a6 08       		.uleb128 0x8
 1202 02a7 DA030000 		.4byte	.LASF53
 1203 02ab 07       		.byte	0x7
 1204 02ac 9401     		.2byte	0x194
 1205 02ae FA000000 		.4byte	0xfa
 1206 02b2 08       		.byte	0x8
 1207 02b3 08       		.uleb128 0x8
 1208 02b4 11030000 		.4byte	.LASF54
 1209 02b8 07       		.byte	0x7
 1210 02b9 9601     		.2byte	0x196
 1211 02bb 57040000 		.4byte	0x457
 1212 02bf 0C       		.byte	0xc
 1213 02c0 08       		.uleb128 0x8
 1214 02c1 70010000 		.4byte	.LASF55
 1215 02c5 07       		.byte	0x7
 1216 02c6 9901     		.2byte	0x199
 1217 02c8 27020000 		.4byte	0x227
 1218 02cc 10       		.byte	0x10
 1219 02cd 08       		.uleb128 0x8
 1220 02ce 38030000 		.4byte	.LASF56
 1221 02d2 07       		.byte	0x7
 1222 02d3 9A01     		.2byte	0x19a
 1223 02d5 27020000 		.4byte	0x227
 1224 02d9 14       		.byte	0x14
 1225 02da 08       		.uleb128 0x8
 1226 02db 2E030000 		.4byte	.LASF57
 1227 02df 07       		.byte	0x7
 1228 02e0 9D01     		.2byte	0x19d
 1229 02e2 27020000 		.4byte	0x227
 1230 02e6 18       		.byte	0x18
 1231 02e7 00       		.byte	0
 1232 02e8 03       		.uleb128 0x3
 1233 02e9 B3040000 		.4byte	.LASF58
 1234 02ed 06       		.byte	0x6
 1235 02ee 5C       		.byte	0x5c
ARM GAS  /tmp/ccXgCN1n.s 			page 47


 1236 02ef F3020000 		.4byte	0x2f3
 1237 02f3 09       		.uleb128 0x9
 1238 02f4 04       		.byte	0x4
 1239 02f5 F9020000 		.4byte	0x2f9
 1240 02f9 0B       		.uleb128 0xb
 1241 02fa 04030000 		.4byte	0x304
 1242 02fe 0C       		.uleb128 0xc
 1243 02ff 04030000 		.4byte	0x304
 1244 0303 00       		.byte	0
 1245 0304 0D       		.uleb128 0xd
 1246 0305 04       		.byte	0x4
 1247 0306 03       		.uleb128 0x3
 1248 0307 53030000 		.4byte	.LASF59
 1249 030b 06       		.byte	0x6
 1250 030c 61       		.byte	0x61
 1251 030d 11030000 		.4byte	0x311
 1252 0311 0A       		.uleb128 0xa
 1253 0312 FE040000 		.4byte	.LASF60
 1254 0316 14       		.byte	0x14
 1255 0317 07       		.byte	0x7
 1256 0318 6D01     		.2byte	0x16d
 1257 031a 60030000 		.4byte	0x360
 1258 031e 08       		.uleb128 0x8
 1259 031f BF010000 		.4byte	.LASF61
 1260 0323 07       		.byte	0x7
 1261 0324 6E01     		.2byte	0x16e
 1262 0326 F4050000 		.4byte	0x5f4
 1263 032a 00       		.byte	0
 1264 032b 08       		.uleb128 0x8
 1265 032c 81010000 		.4byte	.LASF62
 1266 0330 07       		.byte	0x7
 1267 0331 6F01     		.2byte	0x16f
 1268 0333 F4050000 		.4byte	0x5f4
 1269 0337 04       		.byte	0x4
 1270 0338 08       		.uleb128 0x8
 1271 0339 4C040000 		.4byte	.LASF63
 1272 033d 07       		.byte	0x7
 1273 033e 7001     		.2byte	0x170
 1274 0340 26010000 		.4byte	0x126
 1275 0344 08       		.byte	0x8
 1276 0345 08       		.uleb128 0x8
 1277 0346 83060000 		.4byte	.LASF64
 1278 034a 07       		.byte	0x7
 1279 034b 7101     		.2byte	0x171
 1280 034d E8020000 		.4byte	0x2e8
 1281 0351 0C       		.byte	0xc
 1282 0352 08       		.uleb128 0x8
 1283 0353 17050000 		.4byte	.LASF65
 1284 0357 07       		.byte	0x7
 1285 0358 7301     		.2byte	0x173
 1286 035a 04030000 		.4byte	0x304
 1287 035e 10       		.byte	0x10
 1288 035f 00       		.byte	0
 1289 0360 03       		.uleb128 0x3
 1290 0361 82000000 		.4byte	.LASF66
 1291 0365 06       		.byte	0x6
 1292 0366 66       		.byte	0x66
ARM GAS  /tmp/ccXgCN1n.s 			page 48


 1293 0367 6B030000 		.4byte	0x36b
 1294 036b 0A       		.uleb128 0xa
 1295 036c 9F020000 		.4byte	.LASF67
 1296 0370 10       		.byte	0x10
 1297 0371 07       		.byte	0x7
 1298 0372 7D01     		.2byte	0x17d
 1299 0374 AD030000 		.4byte	0x3ad
 1300 0378 08       		.uleb128 0x8
 1301 0379 BF010000 		.4byte	.LASF61
 1302 037d 07       		.byte	0x7
 1303 037e 7E01     		.2byte	0x17e
 1304 0380 F4050000 		.4byte	0x5f4
 1305 0384 00       		.byte	0
 1306 0385 08       		.uleb128 0x8
 1307 0386 81010000 		.4byte	.LASF62
 1308 038a 07       		.byte	0x7
 1309 038b 8001     		.2byte	0x180
 1310 038d F4050000 		.4byte	0x5f4
 1311 0391 04       		.byte	0x4
 1312 0392 08       		.uleb128 0x8
 1313 0393 4C040000 		.4byte	.LASF63
 1314 0397 07       		.byte	0x7
 1315 0398 8201     		.2byte	0x182
 1316 039a 26010000 		.4byte	0x126
 1317 039e 08       		.byte	0x8
 1318 039f 08       		.uleb128 0x8
 1319 03a0 B6020000 		.4byte	.LASF68
 1320 03a4 07       		.byte	0x7
 1321 03a5 8A01     		.2byte	0x18a
 1322 03a7 26010000 		.4byte	0x126
 1323 03ab 0C       		.byte	0xc
 1324 03ac 00       		.byte	0
 1325 03ad 03       		.uleb128 0x3
 1326 03ae 3A000000 		.4byte	.LASF69
 1327 03b2 06       		.byte	0x6
 1328 03b3 6B       		.byte	0x6b
 1329 03b4 B8030000 		.4byte	0x3b8
 1330 03b8 0A       		.uleb128 0xa
 1331 03b9 86030000 		.4byte	.LASF70
 1332 03bd 04       		.byte	0x4
 1333 03be 07       		.byte	0x7
 1334 03bf A401     		.2byte	0x1a4
 1335 03c1 D3030000 		.4byte	0x3d3
 1336 03c5 08       		.uleb128 0x8
 1337 03c6 C7040000 		.4byte	.LASF71
 1338 03ca 07       		.byte	0x7
 1339 03cb AC01     		.2byte	0x1ac
 1340 03cd FA050000 		.4byte	0x5fa
 1341 03d1 00       		.byte	0
 1342 03d2 00       		.byte	0
 1343 03d3 03       		.uleb128 0x3
 1344 03d4 1B020000 		.4byte	.LASF72
 1345 03d8 06       		.byte	0x6
 1346 03d9 70       		.byte	0x70
 1347 03da DE030000 		.4byte	0x3de
 1348 03de 0E       		.uleb128 0xe
 1349 03df 2F010000 		.4byte	.LASF73
ARM GAS  /tmp/ccXgCN1n.s 			page 49


 1350 03e3 5001     		.2byte	0x150
 1351 03e5 07       		.byte	0x7
 1352 03e6 C401     		.2byte	0x1c4
 1353 03e8 3A040000 		.4byte	0x43a
 1354 03ec 08       		.uleb128 0x8
 1355 03ed 3B050000 		.4byte	.LASF74
 1356 03f1 07       		.byte	0x7
 1357 03f2 C801     		.2byte	0x1c8
 1358 03f4 81020000 		.4byte	0x281
 1359 03f8 00       		.byte	0
 1360 03f9 08       		.uleb128 0x8
 1361 03fa 11010000 		.4byte	.LASF75
 1362 03fe 07       		.byte	0x7
 1363 03ff CC01     		.2byte	0x1cc
 1364 0401 60030000 		.4byte	0x360
 1365 0405 1C       		.byte	0x1c
 1366 0406 07       		.uleb128 0x7
 1367 0407 64626700 		.ascii	"dbg\000"
 1368 040b 07       		.byte	0x7
 1369 040c D001     		.2byte	0x1d0
 1370 040e AD030000 		.4byte	0x3ad
 1371 0412 2C       		.byte	0x2c
 1372 0413 08       		.uleb128 0x8
 1373 0414 0A020000 		.4byte	.LASF76
 1374 0418 07       		.byte	0x7
 1375 0419 D401     		.2byte	0x1d4
 1376 041b 31010000 		.4byte	0x131
 1377 041f 30       		.byte	0x30
 1378 0420 07       		.uleb128 0x7
 1379 0421 746D00   		.ascii	"tm\000"
 1380 0424 07       		.byte	0x7
 1381 0425 D901     		.2byte	0x1d9
 1382 0427 06050000 		.4byte	0x506
 1383 042b 70       		.byte	0x70
 1384 042c 08       		.uleb128 0x8
 1385 042d 9D010000 		.4byte	.LASF77
 1386 0431 07       		.byte	0x7
 1387 0432 E501     		.2byte	0x1e5
 1388 0434 FF050000 		.4byte	0x5ff
 1389 0438 78       		.byte	0x78
 1390 0439 00       		.byte	0
 1391 043a 04       		.uleb128 0x4
 1392 043b 04       		.byte	0x4
 1393 043c 07       		.byte	0x7
 1394 043d 83020000 		.4byte	.LASF78
 1395 0441 03       		.uleb128 0x3
 1396 0442 78010000 		.4byte	.LASF79
 1397 0446 08       		.byte	0x8
 1398 0447 65       		.byte	0x65
 1399 0448 04030000 		.4byte	0x304
 1400 044c 03       		.uleb128 0x3
 1401 044d 53020000 		.4byte	.LASF80
 1402 0451 08       		.byte	0x8
 1403 0452 6D       		.byte	0x6d
 1404 0453 C3000000 		.4byte	0xc3
 1405 0457 05       		.uleb128 0x5
 1406 0458 F6040000 		.4byte	.LASF81
ARM GAS  /tmp/ccXgCN1n.s 			page 50


 1407 045c 04       		.byte	0x4
 1408 045d 08       		.byte	0x8
 1409 045e 89       		.byte	0x89
 1410 045f 70040000 		.4byte	0x470
 1411 0463 0F       		.uleb128 0xf
 1412 0464 72313300 		.ascii	"r13\000"
 1413 0468 08       		.byte	0x8
 1414 0469 8A       		.byte	0x8a
 1415 046a EB040000 		.4byte	0x4eb
 1416 046e 00       		.byte	0
 1417 046f 00       		.byte	0
 1418 0470 05       		.uleb128 0x5
 1419 0471 2E000000 		.4byte	.LASF82
 1420 0475 24       		.byte	0x24
 1421 0476 09       		.byte	0x9
 1422 0477 FD       		.byte	0xfd
 1423 0478 EB040000 		.4byte	0x4eb
 1424 047c 07       		.uleb128 0x7
 1425 047d 723400   		.ascii	"r4\000"
 1426 0480 09       		.byte	0x9
 1427 0481 1001     		.2byte	0x110
 1428 0483 41040000 		.4byte	0x441
 1429 0487 00       		.byte	0
 1430 0488 07       		.uleb128 0x7
 1431 0489 723500   		.ascii	"r5\000"
 1432 048c 09       		.byte	0x9
 1433 048d 1101     		.2byte	0x111
 1434 048f 41040000 		.4byte	0x441
 1435 0493 04       		.byte	0x4
 1436 0494 07       		.uleb128 0x7
 1437 0495 723600   		.ascii	"r6\000"
 1438 0498 09       		.byte	0x9
 1439 0499 1201     		.2byte	0x112
 1440 049b 41040000 		.4byte	0x441
 1441 049f 08       		.byte	0x8
 1442 04a0 07       		.uleb128 0x7
 1443 04a1 723700   		.ascii	"r7\000"
 1444 04a4 09       		.byte	0x9
 1445 04a5 1301     		.2byte	0x113
 1446 04a7 41040000 		.4byte	0x441
 1447 04ab 0C       		.byte	0xc
 1448 04ac 07       		.uleb128 0x7
 1449 04ad 723800   		.ascii	"r8\000"
 1450 04b0 09       		.byte	0x9
 1451 04b1 1401     		.2byte	0x114
 1452 04b3 41040000 		.4byte	0x441
 1453 04b7 10       		.byte	0x10
 1454 04b8 07       		.uleb128 0x7
 1455 04b9 723900   		.ascii	"r9\000"
 1456 04bc 09       		.byte	0x9
 1457 04bd 1501     		.2byte	0x115
 1458 04bf 41040000 		.4byte	0x441
 1459 04c3 14       		.byte	0x14
 1460 04c4 07       		.uleb128 0x7
 1461 04c5 72313000 		.ascii	"r10\000"
 1462 04c9 09       		.byte	0x9
 1463 04ca 1601     		.2byte	0x116
ARM GAS  /tmp/ccXgCN1n.s 			page 51


 1464 04cc 41040000 		.4byte	0x441
 1465 04d0 18       		.byte	0x18
 1466 04d1 07       		.uleb128 0x7
 1467 04d2 72313100 		.ascii	"r11\000"
 1468 04d6 09       		.byte	0x9
 1469 04d7 1701     		.2byte	0x117
 1470 04d9 41040000 		.4byte	0x441
 1471 04dd 1C       		.byte	0x1c
 1472 04de 07       		.uleb128 0x7
 1473 04df 6C7200   		.ascii	"lr\000"
 1474 04e2 09       		.byte	0x9
 1475 04e3 1801     		.2byte	0x118
 1476 04e5 41040000 		.4byte	0x441
 1477 04e9 20       		.byte	0x20
 1478 04ea 00       		.byte	0
 1479 04eb 09       		.uleb128 0x9
 1480 04ec 04       		.byte	0x4
 1481 04ed 70040000 		.4byte	0x470
 1482 04f1 10       		.uleb128 0x10
 1483 04f2 04       		.byte	0x4
 1484 04f3 0A       		.byte	0xa
 1485 04f4 38       		.byte	0x38
 1486 04f5 06050000 		.4byte	0x506
 1487 04f9 06       		.uleb128 0x6
 1488 04fa EF040000 		.4byte	.LASF83
 1489 04fe 0A       		.byte	0xa
 1490 04ff 3C       		.byte	0x3c
 1491 0500 CE000000 		.4byte	0xce
 1492 0504 00       		.byte	0
 1493 0505 00       		.byte	0
 1494 0506 03       		.uleb128 0x3
 1495 0507 17030000 		.4byte	.LASF84
 1496 050b 0A       		.byte	0xa
 1497 050c 3D       		.byte	0x3d
 1498 050d F1040000 		.4byte	0x4f1
 1499 0511 11       		.uleb128 0x11
 1500 0512 04       		.byte	0x4
 1501 0513 07       		.byte	0x7
 1502 0514 FA       		.byte	0xfa
 1503 0515 7A050000 		.4byte	0x57a
 1504 0519 12       		.uleb128 0x12
 1505 051a 14000000 		.4byte	.LASF85
 1506 051e 07       		.byte	0x7
 1507 051f 0101     		.2byte	0x101
 1508 0521 05010000 		.4byte	0x105
 1509 0525 12       		.uleb128 0x12
 1510 0526 6D000000 		.4byte	.LASF86
 1511 052a 07       		.byte	0x7
 1512 052b 0801     		.2byte	0x108
 1513 052d 05010000 		.4byte	0x105
 1514 0531 12       		.uleb128 0x12
 1515 0532 3E060000 		.4byte	.LASF87
 1516 0536 07       		.byte	0x7
 1517 0537 0F01     		.2byte	0x10f
 1518 0539 04030000 		.4byte	0x304
 1519 053d 12       		.uleb128 0x12
 1520 053e 29010000 		.4byte	.LASF88
ARM GAS  /tmp/ccXgCN1n.s 			page 52


 1521 0542 07       		.byte	0x7
 1522 0543 1601     		.2byte	0x116
 1523 0545 7A050000 		.4byte	0x57a
 1524 0549 12       		.uleb128 0x12
 1525 054a 6D060000 		.4byte	.LASF89
 1526 054e 07       		.byte	0x7
 1527 054f 1B01     		.2byte	0x11b
 1528 0551 05010000 		.4byte	0x105
 1529 0555 12       		.uleb128 0x12
 1530 0556 C7010000 		.4byte	.LASF90
 1531 055a 07       		.byte	0x7
 1532 055b 2401     		.2byte	0x124
 1533 055d A5050000 		.4byte	0x5a5
 1534 0561 12       		.uleb128 0x12
 1535 0562 3D040000 		.4byte	.LASF91
 1536 0566 07       		.byte	0x7
 1537 0567 2D01     		.2byte	0x12d
 1538 0569 DC050000 		.4byte	0x5dc
 1539 056d 12       		.uleb128 0x12
 1540 056e E1030000 		.4byte	.LASF92
 1541 0572 07       		.byte	0x7
 1542 0573 3501     		.2byte	0x135
 1543 0575 10010000 		.4byte	0x110
 1544 0579 00       		.byte	0
 1545 057a 09       		.uleb128 0x9
 1546 057b 04       		.byte	0x4
 1547 057c 1C020000 		.4byte	0x21c
 1548 0580 05       		.uleb128 0x5
 1549 0581 1C040000 		.4byte	.LASF93
 1550 0585 0C       		.byte	0xc
 1551 0586 0B       		.byte	0xb
 1552 0587 34       		.byte	0x34
 1553 0588 A5050000 		.4byte	0x5a5
 1554 058c 06       		.uleb128 0x6
 1555 058d 68010000 		.4byte	.LASF94
 1556 0591 0B       		.byte	0xb
 1557 0592 35       		.byte	0x35
 1558 0593 51020000 		.4byte	0x251
 1559 0597 00       		.byte	0
 1560 0598 06       		.uleb128 0x6
 1561 0599 E7010000 		.4byte	.LASF95
 1562 059d 0B       		.byte	0xb
 1563 059e 37       		.byte	0x37
 1564 059f 1B010000 		.4byte	0x11b
 1565 05a3 08       		.byte	0x8
 1566 05a4 00       		.byte	0
 1567 05a5 09       		.uleb128 0x9
 1568 05a6 04       		.byte	0x4
 1569 05a7 80050000 		.4byte	0x580
 1570 05ab 05       		.uleb128 0x5
 1571 05ac 2B050000 		.4byte	.LASF96
 1572 05b0 10       		.byte	0x10
 1573 05b1 0C       		.byte	0xc
 1574 05b2 39       		.byte	0x39
 1575 05b3 DC050000 		.4byte	0x5dc
 1576 05b7 06       		.uleb128 0x6
 1577 05b8 FE000000 		.4byte	.LASF97
ARM GAS  /tmp/ccXgCN1n.s 			page 53


 1578 05bc 0C       		.byte	0xc
 1579 05bd 3A       		.byte	0x3a
 1580 05be 51020000 		.4byte	0x251
 1581 05c2 00       		.byte	0
 1582 05c3 06       		.uleb128 0x6
 1583 05c4 75060000 		.4byte	.LASF98
 1584 05c8 0C       		.byte	0xc
 1585 05c9 3C       		.byte	0x3c
 1586 05ca 27020000 		.4byte	0x227
 1587 05ce 08       		.byte	0x8
 1588 05cf 06       		.uleb128 0x6
 1589 05d0 97040000 		.4byte	.LASF99
 1590 05d4 0C       		.byte	0xc
 1591 05d5 3E       		.byte	0x3e
 1592 05d6 1A060000 		.4byte	0x61a
 1593 05da 0C       		.byte	0xc
 1594 05db 00       		.byte	0
 1595 05dc 09       		.uleb128 0x9
 1596 05dd 04       		.byte	0x4
 1597 05de AB050000 		.4byte	0x5ab
 1598 05e2 09       		.uleb128 0x9
 1599 05e3 04       		.byte	0x4
 1600 05e4 E8050000 		.4byte	0x5e8
 1601 05e8 13       		.uleb128 0x13
 1602 05e9 ED050000 		.4byte	0x5ed
 1603 05ed 04       		.uleb128 0x4
 1604 05ee 01       		.byte	0x1
 1605 05ef 08       		.byte	0x8
 1606 05f0 7C040000 		.4byte	.LASF100
 1607 05f4 09       		.uleb128 0x9
 1608 05f5 04       		.byte	0x4
 1609 05f6 06030000 		.4byte	0x306
 1610 05fa 14       		.uleb128 0x14
 1611 05fb E2050000 		.4byte	0x5e2
 1612 05ff 15       		.uleb128 0x15
 1613 0600 4C040000 		.4byte	0x44c
 1614 0604 0F060000 		.4byte	0x60f
 1615 0608 16       		.uleb128 0x16
 1616 0609 3A040000 		.4byte	0x43a
 1617 060d 1A       		.byte	0x1a
 1618 060e 00       		.byte	0
 1619 060f 03       		.uleb128 0x3
 1620 0610 CE000000 		.4byte	.LASF101
 1621 0614 0C       		.byte	0xc
 1622 0615 34       		.byte	0x34
 1623 0616 AB050000 		.4byte	0x5ab
 1624 061a 09       		.uleb128 0x9
 1625 061b 04       		.byte	0x4
 1626 061c 0F060000 		.4byte	0x60f
 1627 0620 03       		.uleb128 0x3
 1628 0621 49000000 		.4byte	.LASF102
 1629 0625 0D       		.byte	0xd
 1630 0626 36       		.byte	0x36
 1631 0627 2B060000 		.4byte	0x62b
 1632 062b 09       		.uleb128 0x9
 1633 062c 04       		.byte	0x4
 1634 062d 31060000 		.4byte	0x631
ARM GAS  /tmp/ccXgCN1n.s 			page 54


 1635 0631 17       		.uleb128 0x17
 1636 0632 04030000 		.4byte	0x304
 1637 0636 40060000 		.4byte	0x640
 1638 063a 0C       		.uleb128 0xc
 1639 063b 2C000000 		.4byte	0x2c
 1640 063f 00       		.byte	0
 1641 0640 03       		.uleb128 0x3
 1642 0641 4B010000 		.4byte	.LASF103
 1643 0645 0E       		.byte	0xe
 1644 0646 3C       		.byte	0x3c
 1645 0647 4B060000 		.4byte	0x64b
 1646 064b 05       		.uleb128 0x5
 1647 064c 8B060000 		.4byte	.LASF104
 1648 0650 20       		.byte	0x20
 1649 0651 0E       		.byte	0xe
 1650 0652 4F       		.byte	0x4f
 1651 0653 7C060000 		.4byte	0x67c
 1652 0657 06       		.uleb128 0x6
 1653 0658 53050000 		.4byte	.LASF105
 1654 065c 0E       		.byte	0xe
 1655 065d 50       		.byte	0x50
 1656 065e 20060000 		.4byte	0x620
 1657 0662 00       		.byte	0
 1658 0663 06       		.uleb128 0x6
 1659 0664 76000000 		.4byte	.LASF106
 1660 0668 0E       		.byte	0xe
 1661 0669 52       		.byte	0x52
 1662 066a 9B060000 		.4byte	0x69b
 1663 066e 08       		.byte	0x8
 1664 066f 06       		.uleb128 0x6
 1665 0670 F0000000 		.4byte	.LASF107
 1666 0674 0E       		.byte	0xe
 1667 0675 54       		.byte	0x54
 1668 0676 0F060000 		.4byte	0x60f
 1669 067a 10       		.byte	0x10
 1670 067b 00       		.byte	0
 1671 067c 11       		.uleb128 0x11
 1672 067d 04       		.byte	0x4
 1673 067e 0E       		.byte	0xe
 1674 067f 44       		.byte	0x44
 1675 0680 9B060000 		.4byte	0x69b
 1676 0684 18       		.uleb128 0x18
 1677 0685 A5000000 		.4byte	.LASF108
 1678 0689 0E       		.byte	0xe
 1679 068a 45       		.byte	0x45
 1680 068b BC060000 		.4byte	0x6bc
 1681 068f 18       		.uleb128 0x18
 1682 0690 65040000 		.4byte	.LASF109
 1683 0694 0E       		.byte	0xe
 1684 0695 46       		.byte	0x46
 1685 0696 C2060000 		.4byte	0x6c2
 1686 069a 00       		.byte	0
 1687 069b 19       		.uleb128 0x19
 1688 069c B2030000 		.4byte	.LASF117
 1689 06a0 08       		.byte	0x8
 1690 06a1 0E       		.byte	0xe
 1691 06a2 41       		.byte	0x41
ARM GAS  /tmp/ccXgCN1n.s 			page 55


 1692 06a3 BC060000 		.4byte	0x6bc
 1693 06a7 18       		.uleb128 0x18
 1694 06a8 97010000 		.4byte	.LASF110
 1695 06ac 0E       		.byte	0xe
 1696 06ad 42       		.byte	0x42
 1697 06ae 4C040000 		.4byte	0x44c
 1698 06b2 1A       		.uleb128 0x1a
 1699 06b3 6800     		.ascii	"h\000"
 1700 06b5 0E       		.byte	0xe
 1701 06b6 49       		.byte	0x49
 1702 06b7 C8060000 		.4byte	0x6c8
 1703 06bb 00       		.byte	0
 1704 06bc 09       		.uleb128 0x9
 1705 06bd 04       		.byte	0x4
 1706 06be 9B060000 		.4byte	0x69b
 1707 06c2 09       		.uleb128 0x9
 1708 06c3 04       		.byte	0x4
 1709 06c4 40060000 		.4byte	0x640
 1710 06c8 10       		.uleb128 0x10
 1711 06c9 08       		.byte	0x8
 1712 06ca 0E       		.byte	0xe
 1713 06cb 43       		.byte	0x43
 1714 06cc E7060000 		.4byte	0x6e7
 1715 06d0 0F       		.uleb128 0xf
 1716 06d1 7500     		.ascii	"u\000"
 1717 06d3 0E       		.byte	0xe
 1718 06d4 47       		.byte	0x47
 1719 06d5 7C060000 		.4byte	0x67c
 1720 06d9 00       		.byte	0
 1721 06da 06       		.uleb128 0x6
 1722 06db 4C060000 		.4byte	.LASF111
 1723 06df 0E       		.byte	0xe
 1724 06e0 48       		.byte	0x48
 1725 06e1 2C000000 		.4byte	0x2c
 1726 06e5 04       		.byte	0x4
 1727 06e6 00       		.byte	0
 1728 06e7 05       		.uleb128 0x5
 1729 06e8 13040000 		.4byte	.LASF112
 1730 06ec 10       		.byte	0x10
 1731 06ed 0F       		.byte	0xf
 1732 06ee 3B       		.byte	0x3b
 1733 06ef 24070000 		.4byte	0x724
 1734 06f3 06       		.uleb128 0x6
 1735 06f4 E2010000 		.4byte	.LASF113
 1736 06f8 0F       		.byte	0xf
 1737 06f9 3C       		.byte	0x3c
 1738 06fa E2050000 		.4byte	0x5e2
 1739 06fe 00       		.byte	0
 1740 06ff 06       		.uleb128 0x6
 1741 0700 28030000 		.4byte	.LASF114
 1742 0704 0F       		.byte	0xf
 1743 0705 3D       		.byte	0x3d
 1744 0706 25070000 		.4byte	0x725
 1745 070a 04       		.byte	0x4
 1746 070b 06       		.uleb128 0x6
 1747 070c D9010000 		.4byte	.LASF115
 1748 0710 0F       		.byte	0xf
ARM GAS  /tmp/ccXgCN1n.s 			page 56


 1749 0711 3E       		.byte	0x3e
 1750 0712 25070000 		.4byte	0x725
 1751 0716 08       		.byte	0x8
 1752 0717 06       		.uleb128 0x6
 1753 0718 6A030000 		.4byte	.LASF116
 1754 071c 0F       		.byte	0xf
 1755 071d 3F       		.byte	0x3f
 1756 071e 25070000 		.4byte	0x725
 1757 0722 0C       		.byte	0xc
 1758 0723 00       		.byte	0
 1759 0724 1B       		.uleb128 0x1b
 1760 0725 09       		.uleb128 0x9
 1761 0726 04       		.byte	0x4
 1762 0727 24070000 		.4byte	0x724
 1763 072b 1C       		.uleb128 0x1c
 1764 072c 6806     		.2byte	0x668
 1765 072e 0F       		.byte	0xf
 1766 072f 44       		.byte	0x44
 1767 0730 70070000 		.4byte	0x770
 1768 0734 0F       		.uleb128 0xf
 1769 0735 543000   		.ascii	"T0\000"
 1770 0738 0F       		.byte	0xf
 1771 0739 45       		.byte	0x45
 1772 073a 70070000 		.4byte	0x770
 1773 073e 00       		.byte	0
 1774 073f 1D       		.uleb128 0x1d
 1775 0740 543100   		.ascii	"T1\000"
 1776 0743 0F       		.byte	0xf
 1777 0744 46       		.byte	0x46
 1778 0745 70070000 		.4byte	0x770
 1779 0749 4801     		.2byte	0x148
 1780 074b 1D       		.uleb128 0x1d
 1781 074c 543200   		.ascii	"T2\000"
 1782 074f 0F       		.byte	0xf
 1783 0750 47       		.byte	0x47
 1784 0751 70070000 		.4byte	0x770
 1785 0755 9002     		.2byte	0x290
 1786 0757 1D       		.uleb128 0x1d
 1787 0758 543300   		.ascii	"T3\000"
 1788 075b 0F       		.byte	0xf
 1789 075c 48       		.byte	0x48
 1790 075d 70070000 		.4byte	0x770
 1791 0761 D803     		.2byte	0x3d8
 1792 0763 1D       		.uleb128 0x1d
 1793 0764 543400   		.ascii	"T4\000"
 1794 0767 0F       		.byte	0xf
 1795 0768 49       		.byte	0x49
 1796 0769 70070000 		.4byte	0x770
 1797 076d 2005     		.2byte	0x520
 1798 076f 00       		.byte	0
 1799 0770 15       		.uleb128 0x15
 1800 0771 4C040000 		.4byte	0x44c
 1801 0775 80070000 		.4byte	0x780
 1802 0779 16       		.uleb128 0x16
 1803 077a 3A040000 		.4byte	0x43a
 1804 077e 28       		.byte	0x28
 1805 077f 00       		.byte	0
ARM GAS  /tmp/ccXgCN1n.s 			page 57


 1806 0780 1E       		.uleb128 0x1e
 1807 0781 1E050000 		.4byte	.LASF118
 1808 0785 6806     		.2byte	0x668
 1809 0787 0F       		.byte	0xf
 1810 0788 43       		.byte	0x43
 1811 0789 A3070000 		.4byte	0x7a3
 1812 078d 1A       		.uleb128 0x1a
 1813 078e 776100   		.ascii	"wa\000"
 1814 0791 0F       		.byte	0xf
 1815 0792 4A       		.byte	0x4a
 1816 0793 2B070000 		.4byte	0x72b
 1817 0797 18       		.uleb128 0x18
 1818 0798 59010000 		.4byte	.LASF119
 1819 079c 0F       		.byte	0xf
 1820 079d 4B       		.byte	0x4b
 1821 079e A3070000 		.4byte	0x7a3
 1822 07a2 00       		.byte	0
 1823 07a3 15       		.uleb128 0x15
 1824 07a4 A2000000 		.4byte	0xa2
 1825 07a8 B4070000 		.4byte	0x7b4
 1826 07ac 1F       		.uleb128 0x1f
 1827 07ad 3A040000 		.4byte	0x43a
 1828 07b1 6706     		.2byte	0x667
 1829 07b3 00       		.byte	0
 1830 07b4 20       		.uleb128 0x20
 1831 07b5 89010000 		.4byte	.LASF120
 1832 07b9 01       		.byte	0x1
 1833 07ba 45       		.byte	0x45
 1834 07bb 00000000 		.4byte	.LFB242
 1835 07bf 44020000 		.4byte	.LFE242-.LFB242
 1836 07c3 01       		.uleb128 0x1
 1837 07c4 9C       		.byte	0x9c
 1838 07c5 280D0000 		.4byte	0xd28
 1839 07c9 21       		.uleb128 0x21
 1840 07ca 703100   		.ascii	"p1\000"
 1841 07cd 01       		.byte	0x1
 1842 07ce 46       		.byte	0x46
 1843 07cf 04030000 		.4byte	0x304
 1844 07d3 00000000 		.4byte	.LLST0
 1845 07d7 21       		.uleb128 0x21
 1846 07d8 703200   		.ascii	"p2\000"
 1847 07db 01       		.byte	0x1
 1848 07dc 46       		.byte	0x46
 1849 07dd 04030000 		.4byte	0x304
 1850 07e1 C3000000 		.4byte	.LLST1
 1851 07e5 21       		.uleb128 0x21
 1852 07e6 703300   		.ascii	"p3\000"
 1853 07e9 01       		.byte	0x1
 1854 07ea 46       		.byte	0x46
 1855 07eb 04030000 		.4byte	0x304
 1856 07ef 2E010000 		.4byte	.LLST2
 1857 07f3 22       		.uleb128 0x22
 1858 07f4 6E00     		.ascii	"n\000"
 1859 07f6 01       		.byte	0x1
 1860 07f7 47       		.byte	0x47
 1861 07f8 2C000000 		.4byte	0x2c
 1862 07fc 02       		.uleb128 0x2
ARM GAS  /tmp/ccXgCN1n.s 			page 58


 1863 07fd 91       		.byte	0x91
 1864 07fe 68       		.sleb128 -24
 1865 07ff 22       		.uleb128 0x22
 1866 0800 737A00   		.ascii	"sz\000"
 1867 0803 01       		.byte	0x1
 1868 0804 47       		.byte	0x47
 1869 0805 2C000000 		.4byte	0x2c
 1870 0809 02       		.uleb128 0x2
 1871 080a 91       		.byte	0x91
 1872 080b 6C       		.sleb128 -20
 1873 080c 23       		.uleb128 0x23
 1874 080d 08000000 		.4byte	.LVL0
 1875 0811 D20D0000 		.4byte	0xdd2
 1876 0815 24       		.uleb128 0x24
 1877 0816 10000000 		.4byte	.LVL1
 1878 081a DD0D0000 		.4byte	0xddd
 1879 081e 2E080000 		.4byte	0x82e
 1880 0822 25       		.uleb128 0x25
 1881 0823 01       		.uleb128 0x1
 1882 0824 51       		.byte	0x51
 1883 0825 02       		.uleb128 0x2
 1884 0826 91       		.byte	0x91
 1885 0827 6C       		.sleb128 -20
 1886 0828 25       		.uleb128 0x25
 1887 0829 01       		.uleb128 0x1
 1888 082a 50       		.byte	0x50
 1889 082b 01       		.uleb128 0x1
 1890 082c 30       		.byte	0x30
 1891 082d 00       		.byte	0
 1892 082e 24       		.uleb128 0x24
 1893 082f 18000000 		.4byte	.LVL2
 1894 0833 FD0D0000 		.4byte	0xdfd
 1895 0837 46080000 		.4byte	0x846
 1896 083b 25       		.uleb128 0x25
 1897 083c 01       		.uleb128 0x1
 1898 083d 51       		.byte	0x51
 1899 083e 01       		.uleb128 0x1
 1900 083f 40       		.byte	0x40
 1901 0840 25       		.uleb128 0x25
 1902 0841 01       		.uleb128 0x1
 1903 0842 50       		.byte	0x50
 1904 0843 01       		.uleb128 0x1
 1905 0844 30       		.byte	0x30
 1906 0845 00       		.byte	0
 1907 0846 24       		.uleb128 0x24
 1908 0847 26000000 		.4byte	.LVL4
 1909 084b 170E0000 		.4byte	0xe17
 1910 084f 69080000 		.4byte	0x869
 1911 0853 25       		.uleb128 0x25
 1912 0854 01       		.uleb128 0x1
 1913 0855 51       		.byte	0x51
 1914 0856 0C       		.uleb128 0xc
 1915 0857 31       		.byte	0x31
 1916 0858 74       		.byte	0x74
 1917 0859 00       		.sleb128 0
 1918 085a 74       		.byte	0x74
 1919 085b 00       		.sleb128 0
ARM GAS  /tmp/ccXgCN1n.s 			page 59


 1920 085c 30       		.byte	0x30
 1921 085d 2E       		.byte	0x2e
 1922 085e 28       		.byte	0x28
 1923 085f 0100     		.2byte	0x1
 1924 0861 16       		.byte	0x16
 1925 0862 13       		.byte	0x13
 1926 0863 25       		.uleb128 0x25
 1927 0864 01       		.uleb128 0x1
 1928 0865 50       		.byte	0x50
 1929 0866 01       		.uleb128 0x1
 1930 0867 31       		.byte	0x31
 1931 0868 00       		.byte	0
 1932 0869 24       		.uleb128 0x24
 1933 086a 34000000 		.4byte	.LVL7
 1934 086e 380E0000 		.4byte	0xe38
 1935 0872 7D080000 		.4byte	0x87d
 1936 0876 25       		.uleb128 0x25
 1937 0877 01       		.uleb128 0x1
 1938 0878 50       		.byte	0x50
 1939 0879 02       		.uleb128 0x2
 1940 087a 74       		.byte	0x74
 1941 087b 00       		.sleb128 0
 1942 087c 00       		.byte	0
 1943 087d 24       		.uleb128 0x24
 1944 087e 3E000000 		.4byte	.LVL8
 1945 0882 FD0D0000 		.4byte	0xdfd
 1946 0886 98080000 		.4byte	0x898
 1947 088a 25       		.uleb128 0x25
 1948 088b 01       		.uleb128 0x1
 1949 088c 51       		.byte	0x51
 1950 088d 03       		.uleb128 0x3
 1951 088e 0B       		.byte	0xb
 1952 088f 00FF     		.2byte	0xff00
 1953 0891 25       		.uleb128 0x25
 1954 0892 01       		.uleb128 0x1
 1955 0893 50       		.byte	0x50
 1956 0894 02       		.uleb128 0x2
 1957 0895 75       		.byte	0x75
 1958 0896 00       		.sleb128 0
 1959 0897 00       		.byte	0
 1960 0898 24       		.uleb128 0x24
 1961 0899 4C000000 		.4byte	.LVL10
 1962 089d 170E0000 		.4byte	0xe17
 1963 08a1 AB080000 		.4byte	0x8ab
 1964 08a5 25       		.uleb128 0x25
 1965 08a6 01       		.uleb128 0x1
 1966 08a7 50       		.byte	0x50
 1967 08a8 01       		.uleb128 0x1
 1968 08a9 32       		.byte	0x32
 1969 08aa 00       		.byte	0
 1970 08ab 24       		.uleb128 0x24
 1971 08ac 58000000 		.4byte	.LVL11
 1972 08b0 DD0D0000 		.4byte	0xddd
 1973 08b4 C8080000 		.4byte	0x8c8
 1974 08b8 25       		.uleb128 0x25
 1975 08b9 01       		.uleb128 0x1
 1976 08ba 51       		.byte	0x51
ARM GAS  /tmp/ccXgCN1n.s 			page 60


 1977 08bb 02       		.uleb128 0x2
 1978 08bc 91       		.byte	0x91
 1979 08bd 6C       		.sleb128 -20
 1980 08be 25       		.uleb128 0x25
 1981 08bf 01       		.uleb128 0x1
 1982 08c0 50       		.byte	0x50
 1983 08c1 05       		.uleb128 0x5
 1984 08c2 03       		.byte	0x3
 1985 08c3 00000000 		.4byte	.LANCHOR0
 1986 08c7 00       		.byte	0
 1987 08c8 24       		.uleb128 0x24
 1988 08c9 60000000 		.4byte	.LVL12
 1989 08cd FD0D0000 		.4byte	0xdfd
 1990 08d1 E4080000 		.4byte	0x8e4
 1991 08d5 25       		.uleb128 0x25
 1992 08d6 01       		.uleb128 0x1
 1993 08d7 51       		.byte	0x51
 1994 08d8 01       		.uleb128 0x1
 1995 08d9 40       		.byte	0x40
 1996 08da 25       		.uleb128 0x25
 1997 08db 01       		.uleb128 0x1
 1998 08dc 50       		.byte	0x50
 1999 08dd 05       		.uleb128 0x5
 2000 08de 03       		.byte	0x3
 2001 08df 00000000 		.4byte	.LANCHOR0
 2002 08e3 00       		.byte	0
 2003 08e4 24       		.uleb128 0x24
 2004 08e5 6A000000 		.4byte	.LVL15
 2005 08e9 FD0D0000 		.4byte	0xdfd
 2006 08ed 00090000 		.4byte	0x900
 2007 08f1 25       		.uleb128 0x25
 2008 08f2 01       		.uleb128 0x1
 2009 08f3 51       		.byte	0x51
 2010 08f4 01       		.uleb128 0x1
 2011 08f5 40       		.byte	0x40
 2012 08f6 25       		.uleb128 0x25
 2013 08f7 01       		.uleb128 0x1
 2014 08f8 50       		.byte	0x50
 2015 08f9 05       		.uleb128 0x5
 2016 08fa 03       		.byte	0x3
 2017 08fb 00000000 		.4byte	.LANCHOR0
 2018 08ff 00       		.byte	0
 2019 0900 24       		.uleb128 0x24
 2020 0901 74000000 		.4byte	.LVL18
 2021 0905 FD0D0000 		.4byte	0xdfd
 2022 0909 1C090000 		.4byte	0x91c
 2023 090d 25       		.uleb128 0x25
 2024 090e 01       		.uleb128 0x1
 2025 090f 51       		.byte	0x51
 2026 0910 01       		.uleb128 0x1
 2027 0911 40       		.byte	0x40
 2028 0912 25       		.uleb128 0x25
 2029 0913 01       		.uleb128 0x1
 2030 0914 50       		.byte	0x50
 2031 0915 05       		.uleb128 0x5
 2032 0916 03       		.byte	0x3
 2033 0917 00000000 		.4byte	.LANCHOR0
ARM GAS  /tmp/ccXgCN1n.s 			page 61


 2034 091b 00       		.byte	0
 2035 091c 24       		.uleb128 0x24
 2036 091d 7C000000 		.4byte	.LVL21
 2037 0921 380E0000 		.4byte	0xe38
 2038 0925 30090000 		.4byte	0x930
 2039 0929 25       		.uleb128 0x25
 2040 092a 01       		.uleb128 0x1
 2041 092b 50       		.byte	0x50
 2042 092c 02       		.uleb128 0x2
 2043 092d 75       		.byte	0x75
 2044 092e 00       		.sleb128 0
 2045 092f 00       		.byte	0
 2046 0930 24       		.uleb128 0x24
 2047 0931 82000000 		.4byte	.LVL22
 2048 0935 380E0000 		.4byte	0xe38
 2049 0939 44090000 		.4byte	0x944
 2050 093d 25       		.uleb128 0x25
 2051 093e 01       		.uleb128 0x1
 2052 093f 50       		.byte	0x50
 2053 0940 02       		.uleb128 0x2
 2054 0941 74       		.byte	0x74
 2055 0942 00       		.sleb128 0
 2056 0943 00       		.byte	0
 2057 0944 24       		.uleb128 0x24
 2058 0945 88000000 		.4byte	.LVL23
 2059 0949 380E0000 		.4byte	0xe38
 2060 094d 58090000 		.4byte	0x958
 2061 0951 25       		.uleb128 0x25
 2062 0952 01       		.uleb128 0x1
 2063 0953 50       		.byte	0x50
 2064 0954 02       		.uleb128 0x2
 2065 0955 76       		.byte	0x76
 2066 0956 00       		.sleb128 0
 2067 0957 00       		.byte	0
 2068 0958 24       		.uleb128 0x24
 2069 0959 90000000 		.4byte	.LVL24
 2070 095d DD0D0000 		.4byte	0xddd
 2071 0961 75090000 		.4byte	0x975
 2072 0965 25       		.uleb128 0x25
 2073 0966 01       		.uleb128 0x1
 2074 0967 51       		.byte	0x51
 2075 0968 02       		.uleb128 0x2
 2076 0969 7D       		.byte	0x7d
 2077 096a 00       		.sleb128 0
 2078 096b 25       		.uleb128 0x25
 2079 096c 01       		.uleb128 0x1
 2080 096d 50       		.byte	0x50
 2081 096e 05       		.uleb128 0x5
 2082 096f 03       		.byte	0x3
 2083 0970 00000000 		.4byte	.LANCHOR0
 2084 0974 00       		.byte	0
 2085 0975 24       		.uleb128 0x24
 2086 0976 9C000000 		.4byte	.LVL25
 2087 097a 170E0000 		.4byte	0xe17
 2088 097e 88090000 		.4byte	0x988
 2089 0982 25       		.uleb128 0x25
 2090 0983 01       		.uleb128 0x1
ARM GAS  /tmp/ccXgCN1n.s 			page 62


 2091 0984 50       		.byte	0x50
 2092 0985 01       		.uleb128 0x1
 2093 0986 33       		.byte	0x33
 2094 0987 00       		.byte	0
 2095 0988 24       		.uleb128 0x24
 2096 0989 A8000000 		.4byte	.LVL26
 2097 098d FD0D0000 		.4byte	0xdfd
 2098 0991 A4090000 		.4byte	0x9a4
 2099 0995 25       		.uleb128 0x25
 2100 0996 01       		.uleb128 0x1
 2101 0997 51       		.byte	0x51
 2102 0998 01       		.uleb128 0x1
 2103 0999 40       		.byte	0x40
 2104 099a 25       		.uleb128 0x25
 2105 099b 01       		.uleb128 0x1
 2106 099c 50       		.byte	0x50
 2107 099d 05       		.uleb128 0x5
 2108 099e 03       		.byte	0x3
 2109 099f 00000000 		.4byte	.LANCHOR0
 2110 09a3 00       		.byte	0
 2111 09a4 24       		.uleb128 0x24
 2112 09a5 B2000000 		.4byte	.LVL29
 2113 09a9 FD0D0000 		.4byte	0xdfd
 2114 09ad C0090000 		.4byte	0x9c0
 2115 09b1 25       		.uleb128 0x25
 2116 09b2 01       		.uleb128 0x1
 2117 09b3 51       		.byte	0x51
 2118 09b4 01       		.uleb128 0x1
 2119 09b5 40       		.byte	0x40
 2120 09b6 25       		.uleb128 0x25
 2121 09b7 01       		.uleb128 0x1
 2122 09b8 50       		.byte	0x50
 2123 09b9 05       		.uleb128 0x5
 2124 09ba 03       		.byte	0x3
 2125 09bb 00000000 		.4byte	.LANCHOR0
 2126 09bf 00       		.byte	0
 2127 09c0 24       		.uleb128 0x24
 2128 09c1 BC000000 		.4byte	.LVL32
 2129 09c5 FD0D0000 		.4byte	0xdfd
 2130 09c9 DC090000 		.4byte	0x9dc
 2131 09cd 25       		.uleb128 0x25
 2132 09ce 01       		.uleb128 0x1
 2133 09cf 51       		.byte	0x51
 2134 09d0 01       		.uleb128 0x1
 2135 09d1 40       		.byte	0x40
 2136 09d2 25       		.uleb128 0x25
 2137 09d3 01       		.uleb128 0x1
 2138 09d4 50       		.byte	0x50
 2139 09d5 05       		.uleb128 0x5
 2140 09d6 03       		.byte	0x3
 2141 09d7 00000000 		.4byte	.LANCHOR0
 2142 09db 00       		.byte	0
 2143 09dc 23       		.uleb128 0x23
 2144 09dd C0000000 		.4byte	.LVL33
 2145 09e1 380E0000 		.4byte	0xe38
 2146 09e5 24       		.uleb128 0x24
 2147 09e6 C6000000 		.4byte	.LVL34
ARM GAS  /tmp/ccXgCN1n.s 			page 63


 2148 09ea 380E0000 		.4byte	0xe38
 2149 09ee F9090000 		.4byte	0x9f9
 2150 09f2 25       		.uleb128 0x25
 2151 09f3 01       		.uleb128 0x1
 2152 09f4 50       		.byte	0x50
 2153 09f5 02       		.uleb128 0x2
 2154 09f6 75       		.byte	0x75
 2155 09f7 00       		.sleb128 0
 2156 09f8 00       		.byte	0
 2157 09f9 24       		.uleb128 0x24
 2158 09fa CC000000 		.4byte	.LVL35
 2159 09fe 380E0000 		.4byte	0xe38
 2160 0a02 0D0A0000 		.4byte	0xa0d
 2161 0a06 25       		.uleb128 0x25
 2162 0a07 01       		.uleb128 0x1
 2163 0a08 50       		.byte	0x50
 2164 0a09 02       		.uleb128 0x2
 2165 0a0a 74       		.byte	0x74
 2166 0a0b 00       		.sleb128 0
 2167 0a0c 00       		.byte	0
 2168 0a0d 24       		.uleb128 0x24
 2169 0a0e D4000000 		.4byte	.LVL36
 2170 0a12 DD0D0000 		.4byte	0xddd
 2171 0a16 2A0A0000 		.4byte	0xa2a
 2172 0a1a 25       		.uleb128 0x25
 2173 0a1b 01       		.uleb128 0x1
 2174 0a1c 51       		.byte	0x51
 2175 0a1d 02       		.uleb128 0x2
 2176 0a1e 7D       		.byte	0x7d
 2177 0a1f 00       		.sleb128 0
 2178 0a20 25       		.uleb128 0x25
 2179 0a21 01       		.uleb128 0x1
 2180 0a22 50       		.byte	0x50
 2181 0a23 05       		.uleb128 0x5
 2182 0a24 03       		.byte	0x3
 2183 0a25 00000000 		.4byte	.LANCHOR0
 2184 0a29 00       		.byte	0
 2185 0a2a 24       		.uleb128 0x24
 2186 0a2b E0000000 		.4byte	.LVL37
 2187 0a2f 170E0000 		.4byte	0xe17
 2188 0a33 3D0A0000 		.4byte	0xa3d
 2189 0a37 25       		.uleb128 0x25
 2190 0a38 01       		.uleb128 0x1
 2191 0a39 50       		.byte	0x50
 2192 0a3a 01       		.uleb128 0x1
 2193 0a3b 34       		.byte	0x34
 2194 0a3c 00       		.byte	0
 2195 0a3d 24       		.uleb128 0x24
 2196 0a3e EC000000 		.4byte	.LVL38
 2197 0a42 FD0D0000 		.4byte	0xdfd
 2198 0a46 590A0000 		.4byte	0xa59
 2199 0a4a 25       		.uleb128 0x25
 2200 0a4b 01       		.uleb128 0x1
 2201 0a4c 51       		.byte	0x51
 2202 0a4d 01       		.uleb128 0x1
 2203 0a4e 41       		.byte	0x41
 2204 0a4f 25       		.uleb128 0x25
ARM GAS  /tmp/ccXgCN1n.s 			page 64


 2205 0a50 01       		.uleb128 0x1
 2206 0a51 50       		.byte	0x50
 2207 0a52 05       		.uleb128 0x5
 2208 0a53 03       		.byte	0x3
 2209 0a54 00000000 		.4byte	.LANCHOR0
 2210 0a58 00       		.byte	0
 2211 0a59 24       		.uleb128 0x24
 2212 0a5a F6000000 		.4byte	.LVL41
 2213 0a5e FD0D0000 		.4byte	0xdfd
 2214 0a62 750A0000 		.4byte	0xa75
 2215 0a66 25       		.uleb128 0x25
 2216 0a67 01       		.uleb128 0x1
 2217 0a68 51       		.byte	0x51
 2218 0a69 01       		.uleb128 0x1
 2219 0a6a 40       		.byte	0x40
 2220 0a6b 25       		.uleb128 0x25
 2221 0a6c 01       		.uleb128 0x1
 2222 0a6d 50       		.byte	0x50
 2223 0a6e 05       		.uleb128 0x5
 2224 0a6f 03       		.byte	0x3
 2225 0a70 00000000 		.4byte	.LANCHOR0
 2226 0a74 00       		.byte	0
 2227 0a75 24       		.uleb128 0x24
 2228 0a76 FE000000 		.4byte	.LVL44
 2229 0a7a 380E0000 		.4byte	0xe38
 2230 0a7e 890A0000 		.4byte	0xa89
 2231 0a82 25       		.uleb128 0x25
 2232 0a83 01       		.uleb128 0x1
 2233 0a84 50       		.byte	0x50
 2234 0a85 02       		.uleb128 0x2
 2235 0a86 74       		.byte	0x74
 2236 0a87 00       		.sleb128 0
 2237 0a88 00       		.byte	0
 2238 0a89 24       		.uleb128 0x24
 2239 0a8a 06010000 		.4byte	.LVL45
 2240 0a8e DD0D0000 		.4byte	0xddd
 2241 0a92 A60A0000 		.4byte	0xaa6
 2242 0a96 25       		.uleb128 0x25
 2243 0a97 01       		.uleb128 0x1
 2244 0a98 51       		.byte	0x51
 2245 0a99 02       		.uleb128 0x2
 2246 0a9a 7D       		.byte	0x7d
 2247 0a9b 00       		.sleb128 0
 2248 0a9c 25       		.uleb128 0x25
 2249 0a9d 01       		.uleb128 0x1
 2250 0a9e 50       		.byte	0x50
 2251 0a9f 05       		.uleb128 0x5
 2252 0aa0 03       		.byte	0x3
 2253 0aa1 00000000 		.4byte	.LANCHOR0
 2254 0aa5 00       		.byte	0
 2255 0aa6 24       		.uleb128 0x24
 2256 0aa7 18010000 		.4byte	.LVL46
 2257 0aab 170E0000 		.4byte	0xe17
 2258 0aaf B90A0000 		.4byte	0xab9
 2259 0ab3 25       		.uleb128 0x25
 2260 0ab4 01       		.uleb128 0x1
 2261 0ab5 50       		.byte	0x50
ARM GAS  /tmp/ccXgCN1n.s 			page 65


 2262 0ab6 01       		.uleb128 0x1
 2263 0ab7 35       		.byte	0x35
 2264 0ab8 00       		.byte	0
 2265 0ab9 24       		.uleb128 0x24
 2266 0aba 24010000 		.4byte	.LVL47
 2267 0abe FD0D0000 		.4byte	0xdfd
 2268 0ac2 D50A0000 		.4byte	0xad5
 2269 0ac6 25       		.uleb128 0x25
 2270 0ac7 01       		.uleb128 0x1
 2271 0ac8 51       		.byte	0x51
 2272 0ac9 01       		.uleb128 0x1
 2273 0aca 40       		.byte	0x40
 2274 0acb 25       		.uleb128 0x25
 2275 0acc 01       		.uleb128 0x1
 2276 0acd 50       		.byte	0x50
 2277 0ace 05       		.uleb128 0x5
 2278 0acf 03       		.byte	0x3
 2279 0ad0 00000000 		.4byte	.LANCHOR0
 2280 0ad4 00       		.byte	0
 2281 0ad5 24       		.uleb128 0x24
 2282 0ad6 2E010000 		.4byte	.LVL50
 2283 0ada DD0D0000 		.4byte	0xddd
 2284 0ade F20A0000 		.4byte	0xaf2
 2285 0ae2 25       		.uleb128 0x25
 2286 0ae3 01       		.uleb128 0x1
 2287 0ae4 51       		.byte	0x51
 2288 0ae5 02       		.uleb128 0x2
 2289 0ae6 7D       		.byte	0x7d
 2290 0ae7 00       		.sleb128 0
 2291 0ae8 25       		.uleb128 0x25
 2292 0ae9 01       		.uleb128 0x1
 2293 0aea 50       		.byte	0x50
 2294 0aeb 05       		.uleb128 0x5
 2295 0aec 03       		.byte	0x3
 2296 0aed 00000000 		.4byte	.LANCHOR0
 2297 0af1 00       		.byte	0
 2298 0af2 24       		.uleb128 0x24
 2299 0af3 3C010000 		.4byte	.LVL51
 2300 0af7 DD0D0000 		.4byte	0xddd
 2301 0afb 0F0B0000 		.4byte	0xb0f
 2302 0aff 25       		.uleb128 0x25
 2303 0b00 01       		.uleb128 0x1
 2304 0b01 51       		.byte	0x51
 2305 0b02 02       		.uleb128 0x2
 2306 0b03 7D       		.byte	0x7d
 2307 0b04 00       		.sleb128 0
 2308 0b05 25       		.uleb128 0x25
 2309 0b06 01       		.uleb128 0x1
 2310 0b07 50       		.byte	0x50
 2311 0b08 05       		.uleb128 0x5
 2312 0b09 03       		.byte	0x3
 2313 0b0a 00000000 		.4byte	.LANCHOR0
 2314 0b0e 00       		.byte	0
 2315 0b0f 24       		.uleb128 0x24
 2316 0b10 4E010000 		.4byte	.LVL52
 2317 0b14 170E0000 		.4byte	0xe17
 2318 0b18 220B0000 		.4byte	0xb22
ARM GAS  /tmp/ccXgCN1n.s 			page 66


 2319 0b1c 25       		.uleb128 0x25
 2320 0b1d 01       		.uleb128 0x1
 2321 0b1e 50       		.byte	0x50
 2322 0b1f 01       		.uleb128 0x1
 2323 0b20 36       		.byte	0x36
 2324 0b21 00       		.byte	0
 2325 0b22 24       		.uleb128 0x24
 2326 0b23 5A010000 		.4byte	.LVL53
 2327 0b27 380E0000 		.4byte	0xe38
 2328 0b2b 360B0000 		.4byte	0xb36
 2329 0b2f 25       		.uleb128 0x25
 2330 0b30 01       		.uleb128 0x1
 2331 0b31 50       		.byte	0x50
 2332 0b32 02       		.uleb128 0x2
 2333 0b33 75       		.byte	0x75
 2334 0b34 00       		.sleb128 0
 2335 0b35 00       		.byte	0
 2336 0b36 24       		.uleb128 0x24
 2337 0b37 60010000 		.4byte	.LVL54
 2338 0b3b 380E0000 		.4byte	0xe38
 2339 0b3f 4A0B0000 		.4byte	0xb4a
 2340 0b43 25       		.uleb128 0x25
 2341 0b44 01       		.uleb128 0x1
 2342 0b45 50       		.byte	0x50
 2343 0b46 02       		.uleb128 0x2
 2344 0b47 74       		.byte	0x74
 2345 0b48 00       		.sleb128 0
 2346 0b49 00       		.byte	0
 2347 0b4a 24       		.uleb128 0x24
 2348 0b4b 68010000 		.4byte	.LVL55
 2349 0b4f DD0D0000 		.4byte	0xddd
 2350 0b53 670B0000 		.4byte	0xb67
 2351 0b57 25       		.uleb128 0x25
 2352 0b58 01       		.uleb128 0x1
 2353 0b59 51       		.byte	0x51
 2354 0b5a 02       		.uleb128 0x2
 2355 0b5b 7D       		.byte	0x7d
 2356 0b5c 00       		.sleb128 0
 2357 0b5d 25       		.uleb128 0x25
 2358 0b5e 01       		.uleb128 0x1
 2359 0b5f 50       		.byte	0x50
 2360 0b60 05       		.uleb128 0x5
 2361 0b61 03       		.byte	0x3
 2362 0b62 00000000 		.4byte	.LANCHOR0
 2363 0b66 00       		.byte	0
 2364 0b67 24       		.uleb128 0x24
 2365 0b68 74010000 		.4byte	.LVL56
 2366 0b6c 170E0000 		.4byte	0xe17
 2367 0b70 820B0000 		.4byte	0xb82
 2368 0b74 25       		.uleb128 0x25
 2369 0b75 01       		.uleb128 0x1
 2370 0b76 51       		.byte	0x51
 2371 0b77 04       		.uleb128 0x4
 2372 0b78 76       		.byte	0x76
 2373 0b79 00       		.sleb128 0
 2374 0b7a 30       		.byte	0x30
 2375 0b7b 29       		.byte	0x29
ARM GAS  /tmp/ccXgCN1n.s 			page 67


 2376 0b7c 25       		.uleb128 0x25
 2377 0b7d 01       		.uleb128 0x1
 2378 0b7e 50       		.byte	0x50
 2379 0b7f 01       		.uleb128 0x1
 2380 0b80 37       		.byte	0x37
 2381 0b81 00       		.byte	0
 2382 0b82 24       		.uleb128 0x24
 2383 0b83 82010000 		.4byte	.LVL57
 2384 0b87 FD0D0000 		.4byte	0xdfd
 2385 0b8b 9E0B0000 		.4byte	0xb9e
 2386 0b8f 25       		.uleb128 0x25
 2387 0b90 01       		.uleb128 0x1
 2388 0b91 51       		.byte	0x51
 2389 0b92 01       		.uleb128 0x1
 2390 0b93 40       		.byte	0x40
 2391 0b94 25       		.uleb128 0x25
 2392 0b95 01       		.uleb128 0x1
 2393 0b96 50       		.byte	0x50
 2394 0b97 05       		.uleb128 0x5
 2395 0b98 03       		.byte	0x3
 2396 0b99 00000000 		.4byte	.LANCHOR0
 2397 0b9d 00       		.byte	0
 2398 0b9e 24       		.uleb128 0x24
 2399 0b9f 8C010000 		.4byte	.LVL60
 2400 0ba3 FD0D0000 		.4byte	0xdfd
 2401 0ba7 BA0B0000 		.4byte	0xbba
 2402 0bab 25       		.uleb128 0x25
 2403 0bac 01       		.uleb128 0x1
 2404 0bad 51       		.byte	0x51
 2405 0bae 01       		.uleb128 0x1
 2406 0baf 40       		.byte	0x40
 2407 0bb0 25       		.uleb128 0x25
 2408 0bb1 01       		.uleb128 0x1
 2409 0bb2 50       		.byte	0x50
 2410 0bb3 05       		.uleb128 0x5
 2411 0bb4 03       		.byte	0x3
 2412 0bb5 00000000 		.4byte	.LANCHOR0
 2413 0bb9 00       		.byte	0
 2414 0bba 24       		.uleb128 0x24
 2415 0bbb 94010000 		.4byte	.LVL63
 2416 0bbf 380E0000 		.4byte	0xe38
 2417 0bc3 CE0B0000 		.4byte	0xbce
 2418 0bc7 25       		.uleb128 0x25
 2419 0bc8 01       		.uleb128 0x1
 2420 0bc9 50       		.byte	0x50
 2421 0bca 02       		.uleb128 0x2
 2422 0bcb 75       		.byte	0x75
 2423 0bcc 00       		.sleb128 0
 2424 0bcd 00       		.byte	0
 2425 0bce 24       		.uleb128 0x24
 2426 0bcf 9C010000 		.4byte	.LVL64
 2427 0bd3 DD0D0000 		.4byte	0xddd
 2428 0bd7 EB0B0000 		.4byte	0xbeb
 2429 0bdb 25       		.uleb128 0x25
 2430 0bdc 01       		.uleb128 0x1
 2431 0bdd 51       		.byte	0x51
 2432 0bde 02       		.uleb128 0x2
ARM GAS  /tmp/ccXgCN1n.s 			page 68


 2433 0bdf 7D       		.byte	0x7d
 2434 0be0 00       		.sleb128 0
 2435 0be1 25       		.uleb128 0x25
 2436 0be2 01       		.uleb128 0x1
 2437 0be3 50       		.byte	0x50
 2438 0be4 05       		.uleb128 0x5
 2439 0be5 03       		.byte	0x3
 2440 0be6 00000000 		.4byte	.LANCHOR0
 2441 0bea 00       		.byte	0
 2442 0beb 24       		.uleb128 0x24
 2443 0bec A8010000 		.4byte	.LVL66
 2444 0bf0 170E0000 		.4byte	0xe17
 2445 0bf4 060C0000 		.4byte	0xc06
 2446 0bf8 25       		.uleb128 0x25
 2447 0bf9 01       		.uleb128 0x1
 2448 0bfa 51       		.byte	0x51
 2449 0bfb 04       		.uleb128 0x4
 2450 0bfc 75       		.byte	0x75
 2451 0bfd 00       		.sleb128 0
 2452 0bfe 30       		.byte	0x30
 2453 0bff 29       		.byte	0x29
 2454 0c00 25       		.uleb128 0x25
 2455 0c01 01       		.uleb128 0x1
 2456 0c02 50       		.byte	0x50
 2457 0c03 01       		.uleb128 0x1
 2458 0c04 38       		.byte	0x38
 2459 0c05 00       		.byte	0
 2460 0c06 24       		.uleb128 0x24
 2461 0c07 B6010000 		.4byte	.LVL67
 2462 0c0b FD0D0000 		.4byte	0xdfd
 2463 0c0f 230C0000 		.4byte	0xc23
 2464 0c13 25       		.uleb128 0x25
 2465 0c14 01       		.uleb128 0x1
 2466 0c15 51       		.byte	0x51
 2467 0c16 02       		.uleb128 0x2
 2468 0c17 08       		.byte	0x8
 2469 0c18 20       		.byte	0x20
 2470 0c19 25       		.uleb128 0x25
 2471 0c1a 01       		.uleb128 0x1
 2472 0c1b 50       		.byte	0x50
 2473 0c1c 05       		.uleb128 0x5
 2474 0c1d 03       		.byte	0x3
 2475 0c1e 00000000 		.4byte	.LANCHOR0
 2476 0c22 00       		.byte	0
 2477 0c23 23       		.uleb128 0x23
 2478 0c24 BA010000 		.4byte	.LVL68
 2479 0c28 380E0000 		.4byte	0xe38
 2480 0c2c 24       		.uleb128 0x24
 2481 0c2d C0010000 		.4byte	.LVL69
 2482 0c31 380E0000 		.4byte	0xe38
 2483 0c35 400C0000 		.4byte	0xc40
 2484 0c39 25       		.uleb128 0x25
 2485 0c3a 01       		.uleb128 0x1
 2486 0c3b 50       		.byte	0x50
 2487 0c3c 02       		.uleb128 0x2
 2488 0c3d 74       		.byte	0x74
 2489 0c3e 00       		.sleb128 0
ARM GAS  /tmp/ccXgCN1n.s 			page 69


 2490 0c3f 00       		.byte	0
 2491 0c40 24       		.uleb128 0x24
 2492 0c41 C8010000 		.4byte	.LVL70
 2493 0c45 DD0D0000 		.4byte	0xddd
 2494 0c49 5D0C0000 		.4byte	0xc5d
 2495 0c4d 25       		.uleb128 0x25
 2496 0c4e 01       		.uleb128 0x1
 2497 0c4f 51       		.byte	0x51
 2498 0c50 02       		.uleb128 0x2
 2499 0c51 7D       		.byte	0x7d
 2500 0c52 00       		.sleb128 0
 2501 0c53 25       		.uleb128 0x25
 2502 0c54 01       		.uleb128 0x1
 2503 0c55 50       		.byte	0x50
 2504 0c56 05       		.uleb128 0x5
 2505 0c57 03       		.byte	0x3
 2506 0c58 00000000 		.4byte	.LANCHOR0
 2507 0c5c 00       		.byte	0
 2508 0c5d 24       		.uleb128 0x24
 2509 0c5e D4010000 		.4byte	.LVL71
 2510 0c62 170E0000 		.4byte	0xe17
 2511 0c66 700C0000 		.4byte	0xc70
 2512 0c6a 25       		.uleb128 0x25
 2513 0c6b 01       		.uleb128 0x1
 2514 0c6c 50       		.byte	0x50
 2515 0c6d 01       		.uleb128 0x1
 2516 0c6e 39       		.byte	0x39
 2517 0c6f 00       		.byte	0
 2518 0c70 24       		.uleb128 0x24
 2519 0c71 E2010000 		.4byte	.LVL72
 2520 0c75 DD0D0000 		.4byte	0xddd
 2521 0c79 8D0C0000 		.4byte	0xc8d
 2522 0c7d 25       		.uleb128 0x25
 2523 0c7e 01       		.uleb128 0x1
 2524 0c7f 51       		.byte	0x51
 2525 0c80 02       		.uleb128 0x2
 2526 0c81 7D       		.byte	0x7d
 2527 0c82 00       		.sleb128 0
 2528 0c83 25       		.uleb128 0x25
 2529 0c84 01       		.uleb128 0x1
 2530 0c85 50       		.byte	0x50
 2531 0c86 05       		.uleb128 0x5
 2532 0c87 03       		.byte	0x3
 2533 0c88 00000000 		.4byte	.LANCHOR0
 2534 0c8c 00       		.byte	0
 2535 0c8d 24       		.uleb128 0x24
 2536 0c8e EA010000 		.4byte	.LVL73
 2537 0c92 FD0D0000 		.4byte	0xdfd
 2538 0c96 A40C0000 		.4byte	0xca4
 2539 0c9a 25       		.uleb128 0x25
 2540 0c9b 01       		.uleb128 0x1
 2541 0c9c 50       		.byte	0x50
 2542 0c9d 05       		.uleb128 0x5
 2543 0c9e 03       		.byte	0x3
 2544 0c9f 00000000 		.4byte	.LANCHOR0
 2545 0ca3 00       		.byte	0
 2546 0ca4 24       		.uleb128 0x24
ARM GAS  /tmp/ccXgCN1n.s 			page 70


 2547 0ca5 F4010000 		.4byte	.LVL76
 2548 0ca9 DD0D0000 		.4byte	0xddd
 2549 0cad C10C0000 		.4byte	0xcc1
 2550 0cb1 25       		.uleb128 0x25
 2551 0cb2 01       		.uleb128 0x1
 2552 0cb3 51       		.byte	0x51
 2553 0cb4 02       		.uleb128 0x2
 2554 0cb5 7D       		.byte	0x7d
 2555 0cb6 00       		.sleb128 0
 2556 0cb7 25       		.uleb128 0x25
 2557 0cb8 01       		.uleb128 0x1
 2558 0cb9 50       		.byte	0x50
 2559 0cba 05       		.uleb128 0x5
 2560 0cbb 03       		.byte	0x3
 2561 0cbc 00000000 		.4byte	.LANCHOR0
 2562 0cc0 00       		.byte	0
 2563 0cc1 24       		.uleb128 0x24
 2564 0cc2 02020000 		.4byte	.LVL77
 2565 0cc6 170E0000 		.4byte	0xe17
 2566 0cca D40C0000 		.4byte	0xcd4
 2567 0cce 25       		.uleb128 0x25
 2568 0ccf 01       		.uleb128 0x1
 2569 0cd0 50       		.byte	0x50
 2570 0cd1 01       		.uleb128 0x1
 2571 0cd2 3A       		.byte	0x3a
 2572 0cd3 00       		.byte	0
 2573 0cd4 24       		.uleb128 0x24
 2574 0cd5 0E020000 		.4byte	.LVL78
 2575 0cd9 380E0000 		.4byte	0xe38
 2576 0cdd E80C0000 		.4byte	0xce8
 2577 0ce1 25       		.uleb128 0x25
 2578 0ce2 01       		.uleb128 0x1
 2579 0ce3 50       		.byte	0x50
 2580 0ce4 02       		.uleb128 0x2
 2581 0ce5 74       		.byte	0x74
 2582 0ce6 00       		.sleb128 0
 2583 0ce7 00       		.byte	0
 2584 0ce8 24       		.uleb128 0x24
 2585 0ce9 16020000 		.4byte	.LVL79
 2586 0ced DD0D0000 		.4byte	0xddd
 2587 0cf1 050D0000 		.4byte	0xd05
 2588 0cf5 25       		.uleb128 0x25
 2589 0cf6 01       		.uleb128 0x1
 2590 0cf7 51       		.byte	0x51
 2591 0cf8 02       		.uleb128 0x2
 2592 0cf9 7D       		.byte	0x7d
 2593 0cfa 00       		.sleb128 0
 2594 0cfb 25       		.uleb128 0x25
 2595 0cfc 01       		.uleb128 0x1
 2596 0cfd 50       		.byte	0x50
 2597 0cfe 05       		.uleb128 0x5
 2598 0cff 03       		.byte	0x3
 2599 0d00 00000000 		.4byte	.LANCHOR0
 2600 0d04 00       		.byte	0
 2601 0d05 24       		.uleb128 0x24
 2602 0d06 22020000 		.4byte	.LVL80
 2603 0d0a 170E0000 		.4byte	0xe17
ARM GAS  /tmp/ccXgCN1n.s 			page 71


 2604 0d0e 180D0000 		.4byte	0xd18
 2605 0d12 25       		.uleb128 0x25
 2606 0d13 01       		.uleb128 0x1
 2607 0d14 50       		.byte	0x50
 2608 0d15 01       		.uleb128 0x1
 2609 0d16 3B       		.byte	0x3b
 2610 0d17 00       		.byte	0
 2611 0d18 26       		.uleb128 0x26
 2612 0d19 38020000 		.4byte	.LVL81
 2613 0d1d 170E0000 		.4byte	0xe17
 2614 0d21 25       		.uleb128 0x25
 2615 0d22 01       		.uleb128 0x1
 2616 0d23 50       		.byte	0x50
 2617 0d24 01       		.uleb128 0x1
 2618 0d25 3C       		.byte	0x3c
 2619 0d26 00       		.byte	0
 2620 0d27 00       		.byte	0
 2621 0d28 20       		.uleb128 0x20
 2622 0d29 7A030000 		.4byte	.LASF121
 2623 0d2d 01       		.byte	0x1
 2624 0d2e 40       		.byte	0x40
 2625 0d2f 00000000 		.4byte	.LFB241
 2626 0d33 14000000 		.4byte	.LFE241-.LFB241
 2627 0d37 01       		.uleb128 0x1
 2628 0d38 9C       		.byte	0x9c
 2629 0d39 580D0000 		.4byte	0xd58
 2630 0d3d 27       		.uleb128 0x27
 2631 0d3e 0C000000 		.4byte	.LVL83
 2632 0d42 490E0000 		.4byte	0xe49
 2633 0d46 25       		.uleb128 0x25
 2634 0d47 01       		.uleb128 0x1
 2635 0d48 52       		.byte	0x52
 2636 0d49 03       		.uleb128 0x3
 2637 0d4a 0A       		.byte	0xa
 2638 0d4b 6806     		.2byte	0x668
 2639 0d4d 25       		.uleb128 0x25
 2640 0d4e 01       		.uleb128 0x1
 2641 0d4f 50       		.byte	0x50
 2642 0d50 05       		.uleb128 0x5
 2643 0d51 03       		.byte	0x3
 2644 0d52 00000000 		.4byte	.LANCHOR0
 2645 0d56 00       		.byte	0
 2646 0d57 00       		.byte	0
 2647 0d58 28       		.uleb128 0x28
 2648 0d59 49050000 		.4byte	.LASF122
 2649 0d5d 01       		.byte	0x1
 2650 0d5e 33       		.byte	0x33
 2651 0d5f 40060000 		.4byte	0x640
 2652 0d63 05       		.uleb128 0x5
 2653 0d64 03       		.byte	0x3
 2654 0d65 00000000 		.4byte	test_heap
 2655 0d69 29       		.uleb128 0x29
 2656 0d6a 98000000 		.4byte	.LASF123
 2657 0d6e 10       		.byte	0x10
 2658 0d6f FA06     		.2byte	0x6fa
 2659 0d71 750D0000 		.4byte	0xd75
 2660 0d75 14       		.uleb128 0x14
ARM GAS  /tmp/ccXgCN1n.s 			page 72


 2661 0d76 AD000000 		.4byte	0xad
 2662 0d7a 2A       		.uleb128 0x2a
 2663 0d7b 636800   		.ascii	"ch\000"
 2664 0d7e 07       		.byte	0x7
 2665 0d7f 0B02     		.2byte	0x20b
 2666 0d81 D3030000 		.4byte	0x3d3
 2667 0d85 2B       		.uleb128 0x2b
 2668 0d86 7D000000 		.4byte	.LASF124
 2669 0d8a 0F       		.byte	0xf
 2670 0d8b A8       		.byte	0xa8
 2671 0d8c 80070000 		.4byte	0x780
 2672 0d90 2C       		.uleb128 0x2c
 2673 0d91 5E020000 		.4byte	.LASF125
 2674 0d95 01       		.byte	0x1
 2675 0d96 8E       		.byte	0x8e
 2676 0d97 A10D0000 		.4byte	0xda1
 2677 0d9b 05       		.uleb128 0x5
 2678 0d9c 03       		.byte	0x3
 2679 0d9d 00000000 		.4byte	testheap1
 2680 0da1 13       		.uleb128 0x13
 2681 0da2 E7060000 		.4byte	0x6e7
 2682 0da6 15       		.uleb128 0x15
 2683 0da7 B60D0000 		.4byte	0xdb6
 2684 0dab B60D0000 		.4byte	0xdb6
 2685 0daf 16       		.uleb128 0x16
 2686 0db0 3A040000 		.4byte	0x43a
 2687 0db4 01       		.byte	0x1
 2688 0db5 00       		.byte	0
 2689 0db6 09       		.uleb128 0x9
 2690 0db7 04       		.byte	0x4
 2691 0db8 A10D0000 		.4byte	0xda1
 2692 0dbc 2C       		.uleb128 0x2c
 2693 0dbd C2000000 		.4byte	.LASF126
 2694 0dc1 01       		.byte	0x1
 2695 0dc2 9A       		.byte	0x9a
 2696 0dc3 CD0D0000 		.4byte	0xdcd
 2697 0dc7 05       		.uleb128 0x5
 2698 0dc8 03       		.byte	0x3
 2699 0dc9 00000000 		.4byte	patternheap
 2700 0dcd 13       		.uleb128 0x13
 2701 0dce A60D0000 		.4byte	0xda6
 2702 0dd2 2D       		.uleb128 0x2d
 2703 0dd3 18010000 		.4byte	.LASF134
 2704 0dd7 0D       		.byte	0xd
 2705 0dd8 64       		.byte	0x64
 2706 0dd9 2C000000 		.4byte	0x2c
 2707 0ddd 2E       		.uleb128 0x2e
 2708 0dde 8A040000 		.4byte	.LASF127
 2709 0de2 0E       		.byte	0xe
 2710 0de3 69       		.byte	0x69
 2711 0de4 2C000000 		.4byte	0x2c
 2712 0de8 F70D0000 		.4byte	0xdf7
 2713 0dec 0C       		.uleb128 0xc
 2714 0ded C2060000 		.4byte	0x6c2
 2715 0df1 0C       		.uleb128 0xc
 2716 0df2 F70D0000 		.4byte	0xdf7
 2717 0df6 00       		.byte	0
ARM GAS  /tmp/ccXgCN1n.s 			page 73


 2718 0df7 09       		.uleb128 0x9
 2719 0df8 04       		.byte	0x4
 2720 0df9 2C000000 		.4byte	0x2c
 2721 0dfd 2E       		.uleb128 0x2e
 2722 0dfe 07040000 		.4byte	.LASF128
 2723 0e02 0E       		.byte	0xe
 2724 0e03 67       		.byte	0x67
 2725 0e04 04030000 		.4byte	0x304
 2726 0e08 170E0000 		.4byte	0xe17
 2727 0e0c 0C       		.uleb128 0xc
 2728 0e0d C2060000 		.4byte	0x6c2
 2729 0e11 0C       		.uleb128 0xc
 2730 0e12 2C000000 		.4byte	0x2c
 2731 0e16 00       		.byte	0
 2732 0e17 2E       		.uleb128 0x2e
 2733 0e18 51060000 		.4byte	.LASF129
 2734 0e1c 0F       		.byte	0xf
 2735 0e1d 5A       		.byte	0x5a
 2736 0e1e 310E0000 		.4byte	0xe31
 2737 0e22 310E0000 		.4byte	0xe31
 2738 0e26 0C       		.uleb128 0xc
 2739 0e27 37000000 		.4byte	0x37
 2740 0e2b 0C       		.uleb128 0xc
 2741 0e2c 310E0000 		.4byte	0xe31
 2742 0e30 00       		.byte	0
 2743 0e31 04       		.uleb128 0x4
 2744 0e32 01       		.byte	0x1
 2745 0e33 02       		.byte	0x2
 2746 0e34 96030000 		.4byte	.LASF130
 2747 0e38 2F       		.uleb128 0x2f
 2748 0e39 06010000 		.4byte	.LASF135
 2749 0e3d 0E       		.byte	0xe
 2750 0e3e 68       		.byte	0x68
 2751 0e3f 490E0000 		.4byte	0xe49
 2752 0e43 0C       		.uleb128 0xc
 2753 0e44 04030000 		.4byte	0x304
 2754 0e48 00       		.byte	0
 2755 0e49 30       		.uleb128 0x30
 2756 0e4a 68020000 		.4byte	.LASF136
 2757 0e4e 0E       		.byte	0xe
 2758 0e4f 66       		.byte	0x66
 2759 0e50 0C       		.uleb128 0xc
 2760 0e51 C2060000 		.4byte	0x6c2
 2761 0e55 0C       		.uleb128 0xc
 2762 0e56 04030000 		.4byte	0x304
 2763 0e5a 0C       		.uleb128 0xc
 2764 0e5b 2C000000 		.4byte	0x2c
 2765 0e5f 00       		.byte	0
 2766 0e60 00       		.byte	0
 2767              		.section	.debug_abbrev,"",%progbits
 2768              	.Ldebug_abbrev0:
 2769 0000 01       		.uleb128 0x1
 2770 0001 11       		.uleb128 0x11
 2771 0002 01       		.byte	0x1
 2772 0003 25       		.uleb128 0x25
 2773 0004 0E       		.uleb128 0xe
 2774 0005 13       		.uleb128 0x13
ARM GAS  /tmp/ccXgCN1n.s 			page 74


 2775 0006 0B       		.uleb128 0xb
 2776 0007 03       		.uleb128 0x3
 2777 0008 0E       		.uleb128 0xe
 2778 0009 1B       		.uleb128 0x1b
 2779 000a 0E       		.uleb128 0xe
 2780 000b 55       		.uleb128 0x55
 2781 000c 17       		.uleb128 0x17
 2782 000d 11       		.uleb128 0x11
 2783 000e 01       		.uleb128 0x1
 2784 000f 10       		.uleb128 0x10
 2785 0010 17       		.uleb128 0x17
 2786 0011 00       		.byte	0
 2787 0012 00       		.byte	0
 2788 0013 02       		.uleb128 0x2
 2789 0014 24       		.uleb128 0x24
 2790 0015 00       		.byte	0
 2791 0016 0B       		.uleb128 0xb
 2792 0017 0B       		.uleb128 0xb
 2793 0018 3E       		.uleb128 0x3e
 2794 0019 0B       		.uleb128 0xb
 2795 001a 03       		.uleb128 0x3
 2796 001b 08       		.uleb128 0x8
 2797 001c 00       		.byte	0
 2798 001d 00       		.byte	0
 2799 001e 03       		.uleb128 0x3
 2800 001f 16       		.uleb128 0x16
 2801 0020 00       		.byte	0
 2802 0021 03       		.uleb128 0x3
 2803 0022 0E       		.uleb128 0xe
 2804 0023 3A       		.uleb128 0x3a
 2805 0024 0B       		.uleb128 0xb
 2806 0025 3B       		.uleb128 0x3b
 2807 0026 0B       		.uleb128 0xb
 2808 0027 49       		.uleb128 0x49
 2809 0028 13       		.uleb128 0x13
 2810 0029 00       		.byte	0
 2811 002a 00       		.byte	0
 2812 002b 04       		.uleb128 0x4
 2813 002c 24       		.uleb128 0x24
 2814 002d 00       		.byte	0
 2815 002e 0B       		.uleb128 0xb
 2816 002f 0B       		.uleb128 0xb
 2817 0030 3E       		.uleb128 0x3e
 2818 0031 0B       		.uleb128 0xb
 2819 0032 03       		.uleb128 0x3
 2820 0033 0E       		.uleb128 0xe
 2821 0034 00       		.byte	0
 2822 0035 00       		.byte	0
 2823 0036 05       		.uleb128 0x5
 2824 0037 13       		.uleb128 0x13
 2825 0038 01       		.byte	0x1
 2826 0039 03       		.uleb128 0x3
 2827 003a 0E       		.uleb128 0xe
 2828 003b 0B       		.uleb128 0xb
 2829 003c 0B       		.uleb128 0xb
 2830 003d 3A       		.uleb128 0x3a
 2831 003e 0B       		.uleb128 0xb
ARM GAS  /tmp/ccXgCN1n.s 			page 75


 2832 003f 3B       		.uleb128 0x3b
 2833 0040 0B       		.uleb128 0xb
 2834 0041 01       		.uleb128 0x1
 2835 0042 13       		.uleb128 0x13
 2836 0043 00       		.byte	0
 2837 0044 00       		.byte	0
 2838 0045 06       		.uleb128 0x6
 2839 0046 0D       		.uleb128 0xd
 2840 0047 00       		.byte	0
 2841 0048 03       		.uleb128 0x3
 2842 0049 0E       		.uleb128 0xe
 2843 004a 3A       		.uleb128 0x3a
 2844 004b 0B       		.uleb128 0xb
 2845 004c 3B       		.uleb128 0x3b
 2846 004d 0B       		.uleb128 0xb
 2847 004e 49       		.uleb128 0x49
 2848 004f 13       		.uleb128 0x13
 2849 0050 38       		.uleb128 0x38
 2850 0051 0B       		.uleb128 0xb
 2851 0052 00       		.byte	0
 2852 0053 00       		.byte	0
 2853 0054 07       		.uleb128 0x7
 2854 0055 0D       		.uleb128 0xd
 2855 0056 00       		.byte	0
 2856 0057 03       		.uleb128 0x3
 2857 0058 08       		.uleb128 0x8
 2858 0059 3A       		.uleb128 0x3a
 2859 005a 0B       		.uleb128 0xb
 2860 005b 3B       		.uleb128 0x3b
 2861 005c 05       		.uleb128 0x5
 2862 005d 49       		.uleb128 0x49
 2863 005e 13       		.uleb128 0x13
 2864 005f 38       		.uleb128 0x38
 2865 0060 0B       		.uleb128 0xb
 2866 0061 00       		.byte	0
 2867 0062 00       		.byte	0
 2868 0063 08       		.uleb128 0x8
 2869 0064 0D       		.uleb128 0xd
 2870 0065 00       		.byte	0
 2871 0066 03       		.uleb128 0x3
 2872 0067 0E       		.uleb128 0xe
 2873 0068 3A       		.uleb128 0x3a
 2874 0069 0B       		.uleb128 0xb
 2875 006a 3B       		.uleb128 0x3b
 2876 006b 05       		.uleb128 0x5
 2877 006c 49       		.uleb128 0x49
 2878 006d 13       		.uleb128 0x13
 2879 006e 38       		.uleb128 0x38
 2880 006f 0B       		.uleb128 0xb
 2881 0070 00       		.byte	0
 2882 0071 00       		.byte	0
 2883 0072 09       		.uleb128 0x9
 2884 0073 0F       		.uleb128 0xf
 2885 0074 00       		.byte	0
 2886 0075 0B       		.uleb128 0xb
 2887 0076 0B       		.uleb128 0xb
 2888 0077 49       		.uleb128 0x49
ARM GAS  /tmp/ccXgCN1n.s 			page 76


 2889 0078 13       		.uleb128 0x13
 2890 0079 00       		.byte	0
 2891 007a 00       		.byte	0
 2892 007b 0A       		.uleb128 0xa
 2893 007c 13       		.uleb128 0x13
 2894 007d 01       		.byte	0x1
 2895 007e 03       		.uleb128 0x3
 2896 007f 0E       		.uleb128 0xe
 2897 0080 0B       		.uleb128 0xb
 2898 0081 0B       		.uleb128 0xb
 2899 0082 3A       		.uleb128 0x3a
 2900 0083 0B       		.uleb128 0xb
 2901 0084 3B       		.uleb128 0x3b
 2902 0085 05       		.uleb128 0x5
 2903 0086 01       		.uleb128 0x1
 2904 0087 13       		.uleb128 0x13
 2905 0088 00       		.byte	0
 2906 0089 00       		.byte	0
 2907 008a 0B       		.uleb128 0xb
 2908 008b 15       		.uleb128 0x15
 2909 008c 01       		.byte	0x1
 2910 008d 27       		.uleb128 0x27
 2911 008e 19       		.uleb128 0x19
 2912 008f 01       		.uleb128 0x1
 2913 0090 13       		.uleb128 0x13
 2914 0091 00       		.byte	0
 2915 0092 00       		.byte	0
 2916 0093 0C       		.uleb128 0xc
 2917 0094 05       		.uleb128 0x5
 2918 0095 00       		.byte	0
 2919 0096 49       		.uleb128 0x49
 2920 0097 13       		.uleb128 0x13
 2921 0098 00       		.byte	0
 2922 0099 00       		.byte	0
 2923 009a 0D       		.uleb128 0xd
 2924 009b 0F       		.uleb128 0xf
 2925 009c 00       		.byte	0
 2926 009d 0B       		.uleb128 0xb
 2927 009e 0B       		.uleb128 0xb
 2928 009f 00       		.byte	0
 2929 00a0 00       		.byte	0
 2930 00a1 0E       		.uleb128 0xe
 2931 00a2 13       		.uleb128 0x13
 2932 00a3 01       		.byte	0x1
 2933 00a4 03       		.uleb128 0x3
 2934 00a5 0E       		.uleb128 0xe
 2935 00a6 0B       		.uleb128 0xb
 2936 00a7 05       		.uleb128 0x5
 2937 00a8 3A       		.uleb128 0x3a
 2938 00a9 0B       		.uleb128 0xb
 2939 00aa 3B       		.uleb128 0x3b
 2940 00ab 05       		.uleb128 0x5
 2941 00ac 01       		.uleb128 0x1
 2942 00ad 13       		.uleb128 0x13
 2943 00ae 00       		.byte	0
 2944 00af 00       		.byte	0
 2945 00b0 0F       		.uleb128 0xf
ARM GAS  /tmp/ccXgCN1n.s 			page 77


 2946 00b1 0D       		.uleb128 0xd
 2947 00b2 00       		.byte	0
 2948 00b3 03       		.uleb128 0x3
 2949 00b4 08       		.uleb128 0x8
 2950 00b5 3A       		.uleb128 0x3a
 2951 00b6 0B       		.uleb128 0xb
 2952 00b7 3B       		.uleb128 0x3b
 2953 00b8 0B       		.uleb128 0xb
 2954 00b9 49       		.uleb128 0x49
 2955 00ba 13       		.uleb128 0x13
 2956 00bb 38       		.uleb128 0x38
 2957 00bc 0B       		.uleb128 0xb
 2958 00bd 00       		.byte	0
 2959 00be 00       		.byte	0
 2960 00bf 10       		.uleb128 0x10
 2961 00c0 13       		.uleb128 0x13
 2962 00c1 01       		.byte	0x1
 2963 00c2 0B       		.uleb128 0xb
 2964 00c3 0B       		.uleb128 0xb
 2965 00c4 3A       		.uleb128 0x3a
 2966 00c5 0B       		.uleb128 0xb
 2967 00c6 3B       		.uleb128 0x3b
 2968 00c7 0B       		.uleb128 0xb
 2969 00c8 01       		.uleb128 0x1
 2970 00c9 13       		.uleb128 0x13
 2971 00ca 00       		.byte	0
 2972 00cb 00       		.byte	0
 2973 00cc 11       		.uleb128 0x11
 2974 00cd 17       		.uleb128 0x17
 2975 00ce 01       		.byte	0x1
 2976 00cf 0B       		.uleb128 0xb
 2977 00d0 0B       		.uleb128 0xb
 2978 00d1 3A       		.uleb128 0x3a
 2979 00d2 0B       		.uleb128 0xb
 2980 00d3 3B       		.uleb128 0x3b
 2981 00d4 0B       		.uleb128 0xb
 2982 00d5 01       		.uleb128 0x1
 2983 00d6 13       		.uleb128 0x13
 2984 00d7 00       		.byte	0
 2985 00d8 00       		.byte	0
 2986 00d9 12       		.uleb128 0x12
 2987 00da 0D       		.uleb128 0xd
 2988 00db 00       		.byte	0
 2989 00dc 03       		.uleb128 0x3
 2990 00dd 0E       		.uleb128 0xe
 2991 00de 3A       		.uleb128 0x3a
 2992 00df 0B       		.uleb128 0xb
 2993 00e0 3B       		.uleb128 0x3b
 2994 00e1 05       		.uleb128 0x5
 2995 00e2 49       		.uleb128 0x49
 2996 00e3 13       		.uleb128 0x13
 2997 00e4 00       		.byte	0
 2998 00e5 00       		.byte	0
 2999 00e6 13       		.uleb128 0x13
 3000 00e7 26       		.uleb128 0x26
 3001 00e8 00       		.byte	0
 3002 00e9 49       		.uleb128 0x49
ARM GAS  /tmp/ccXgCN1n.s 			page 78


 3003 00ea 13       		.uleb128 0x13
 3004 00eb 00       		.byte	0
 3005 00ec 00       		.byte	0
 3006 00ed 14       		.uleb128 0x14
 3007 00ee 35       		.uleb128 0x35
 3008 00ef 00       		.byte	0
 3009 00f0 49       		.uleb128 0x49
 3010 00f1 13       		.uleb128 0x13
 3011 00f2 00       		.byte	0
 3012 00f3 00       		.byte	0
 3013 00f4 15       		.uleb128 0x15
 3014 00f5 01       		.uleb128 0x1
 3015 00f6 01       		.byte	0x1
 3016 00f7 49       		.uleb128 0x49
 3017 00f8 13       		.uleb128 0x13
 3018 00f9 01       		.uleb128 0x1
 3019 00fa 13       		.uleb128 0x13
 3020 00fb 00       		.byte	0
 3021 00fc 00       		.byte	0
 3022 00fd 16       		.uleb128 0x16
 3023 00fe 21       		.uleb128 0x21
 3024 00ff 00       		.byte	0
 3025 0100 49       		.uleb128 0x49
 3026 0101 13       		.uleb128 0x13
 3027 0102 2F       		.uleb128 0x2f
 3028 0103 0B       		.uleb128 0xb
 3029 0104 00       		.byte	0
 3030 0105 00       		.byte	0
 3031 0106 17       		.uleb128 0x17
 3032 0107 15       		.uleb128 0x15
 3033 0108 01       		.byte	0x1
 3034 0109 27       		.uleb128 0x27
 3035 010a 19       		.uleb128 0x19
 3036 010b 49       		.uleb128 0x49
 3037 010c 13       		.uleb128 0x13
 3038 010d 01       		.uleb128 0x1
 3039 010e 13       		.uleb128 0x13
 3040 010f 00       		.byte	0
 3041 0110 00       		.byte	0
 3042 0111 18       		.uleb128 0x18
 3043 0112 0D       		.uleb128 0xd
 3044 0113 00       		.byte	0
 3045 0114 03       		.uleb128 0x3
 3046 0115 0E       		.uleb128 0xe
 3047 0116 3A       		.uleb128 0x3a
 3048 0117 0B       		.uleb128 0xb
 3049 0118 3B       		.uleb128 0x3b
 3050 0119 0B       		.uleb128 0xb
 3051 011a 49       		.uleb128 0x49
 3052 011b 13       		.uleb128 0x13
 3053 011c 00       		.byte	0
 3054 011d 00       		.byte	0
 3055 011e 19       		.uleb128 0x19
 3056 011f 17       		.uleb128 0x17
 3057 0120 01       		.byte	0x1
 3058 0121 03       		.uleb128 0x3
 3059 0122 0E       		.uleb128 0xe
ARM GAS  /tmp/ccXgCN1n.s 			page 79


 3060 0123 0B       		.uleb128 0xb
 3061 0124 0B       		.uleb128 0xb
 3062 0125 3A       		.uleb128 0x3a
 3063 0126 0B       		.uleb128 0xb
 3064 0127 3B       		.uleb128 0x3b
 3065 0128 0B       		.uleb128 0xb
 3066 0129 01       		.uleb128 0x1
 3067 012a 13       		.uleb128 0x13
 3068 012b 00       		.byte	0
 3069 012c 00       		.byte	0
 3070 012d 1A       		.uleb128 0x1a
 3071 012e 0D       		.uleb128 0xd
 3072 012f 00       		.byte	0
 3073 0130 03       		.uleb128 0x3
 3074 0131 08       		.uleb128 0x8
 3075 0132 3A       		.uleb128 0x3a
 3076 0133 0B       		.uleb128 0xb
 3077 0134 3B       		.uleb128 0x3b
 3078 0135 0B       		.uleb128 0xb
 3079 0136 49       		.uleb128 0x49
 3080 0137 13       		.uleb128 0x13
 3081 0138 00       		.byte	0
 3082 0139 00       		.byte	0
 3083 013a 1B       		.uleb128 0x1b
 3084 013b 15       		.uleb128 0x15
 3085 013c 00       		.byte	0
 3086 013d 27       		.uleb128 0x27
 3087 013e 19       		.uleb128 0x19
 3088 013f 00       		.byte	0
 3089 0140 00       		.byte	0
 3090 0141 1C       		.uleb128 0x1c
 3091 0142 13       		.uleb128 0x13
 3092 0143 01       		.byte	0x1
 3093 0144 0B       		.uleb128 0xb
 3094 0145 05       		.uleb128 0x5
 3095 0146 3A       		.uleb128 0x3a
 3096 0147 0B       		.uleb128 0xb
 3097 0148 3B       		.uleb128 0x3b
 3098 0149 0B       		.uleb128 0xb
 3099 014a 01       		.uleb128 0x1
 3100 014b 13       		.uleb128 0x13
 3101 014c 00       		.byte	0
 3102 014d 00       		.byte	0
 3103 014e 1D       		.uleb128 0x1d
 3104 014f 0D       		.uleb128 0xd
 3105 0150 00       		.byte	0
 3106 0151 03       		.uleb128 0x3
 3107 0152 08       		.uleb128 0x8
 3108 0153 3A       		.uleb128 0x3a
 3109 0154 0B       		.uleb128 0xb
 3110 0155 3B       		.uleb128 0x3b
 3111 0156 0B       		.uleb128 0xb
 3112 0157 49       		.uleb128 0x49
 3113 0158 13       		.uleb128 0x13
 3114 0159 38       		.uleb128 0x38
 3115 015a 05       		.uleb128 0x5
 3116 015b 00       		.byte	0
ARM GAS  /tmp/ccXgCN1n.s 			page 80


 3117 015c 00       		.byte	0
 3118 015d 1E       		.uleb128 0x1e
 3119 015e 17       		.uleb128 0x17
 3120 015f 01       		.byte	0x1
 3121 0160 03       		.uleb128 0x3
 3122 0161 0E       		.uleb128 0xe
 3123 0162 0B       		.uleb128 0xb
 3124 0163 05       		.uleb128 0x5
 3125 0164 3A       		.uleb128 0x3a
 3126 0165 0B       		.uleb128 0xb
 3127 0166 3B       		.uleb128 0x3b
 3128 0167 0B       		.uleb128 0xb
 3129 0168 01       		.uleb128 0x1
 3130 0169 13       		.uleb128 0x13
 3131 016a 00       		.byte	0
 3132 016b 00       		.byte	0
 3133 016c 1F       		.uleb128 0x1f
 3134 016d 21       		.uleb128 0x21
 3135 016e 00       		.byte	0
 3136 016f 49       		.uleb128 0x49
 3137 0170 13       		.uleb128 0x13
 3138 0171 2F       		.uleb128 0x2f
 3139 0172 05       		.uleb128 0x5
 3140 0173 00       		.byte	0
 3141 0174 00       		.byte	0
 3142 0175 20       		.uleb128 0x20
 3143 0176 2E       		.uleb128 0x2e
 3144 0177 01       		.byte	0x1
 3145 0178 03       		.uleb128 0x3
 3146 0179 0E       		.uleb128 0xe
 3147 017a 3A       		.uleb128 0x3a
 3148 017b 0B       		.uleb128 0xb
 3149 017c 3B       		.uleb128 0x3b
 3150 017d 0B       		.uleb128 0xb
 3151 017e 27       		.uleb128 0x27
 3152 017f 19       		.uleb128 0x19
 3153 0180 11       		.uleb128 0x11
 3154 0181 01       		.uleb128 0x1
 3155 0182 12       		.uleb128 0x12
 3156 0183 06       		.uleb128 0x6
 3157 0184 40       		.uleb128 0x40
 3158 0185 18       		.uleb128 0x18
 3159 0186 9742     		.uleb128 0x2117
 3160 0188 19       		.uleb128 0x19
 3161 0189 01       		.uleb128 0x1
 3162 018a 13       		.uleb128 0x13
 3163 018b 00       		.byte	0
 3164 018c 00       		.byte	0
 3165 018d 21       		.uleb128 0x21
 3166 018e 34       		.uleb128 0x34
 3167 018f 00       		.byte	0
 3168 0190 03       		.uleb128 0x3
 3169 0191 08       		.uleb128 0x8
 3170 0192 3A       		.uleb128 0x3a
 3171 0193 0B       		.uleb128 0xb
 3172 0194 3B       		.uleb128 0x3b
 3173 0195 0B       		.uleb128 0xb
ARM GAS  /tmp/ccXgCN1n.s 			page 81


 3174 0196 49       		.uleb128 0x49
 3175 0197 13       		.uleb128 0x13
 3176 0198 02       		.uleb128 0x2
 3177 0199 17       		.uleb128 0x17
 3178 019a 00       		.byte	0
 3179 019b 00       		.byte	0
 3180 019c 22       		.uleb128 0x22
 3181 019d 34       		.uleb128 0x34
 3182 019e 00       		.byte	0
 3183 019f 03       		.uleb128 0x3
 3184 01a0 08       		.uleb128 0x8
 3185 01a1 3A       		.uleb128 0x3a
 3186 01a2 0B       		.uleb128 0xb
 3187 01a3 3B       		.uleb128 0x3b
 3188 01a4 0B       		.uleb128 0xb
 3189 01a5 49       		.uleb128 0x49
 3190 01a6 13       		.uleb128 0x13
 3191 01a7 02       		.uleb128 0x2
 3192 01a8 18       		.uleb128 0x18
 3193 01a9 00       		.byte	0
 3194 01aa 00       		.byte	0
 3195 01ab 23       		.uleb128 0x23
 3196 01ac 898201   		.uleb128 0x4109
 3197 01af 00       		.byte	0
 3198 01b0 11       		.uleb128 0x11
 3199 01b1 01       		.uleb128 0x1
 3200 01b2 31       		.uleb128 0x31
 3201 01b3 13       		.uleb128 0x13
 3202 01b4 00       		.byte	0
 3203 01b5 00       		.byte	0
 3204 01b6 24       		.uleb128 0x24
 3205 01b7 898201   		.uleb128 0x4109
 3206 01ba 01       		.byte	0x1
 3207 01bb 11       		.uleb128 0x11
 3208 01bc 01       		.uleb128 0x1
 3209 01bd 31       		.uleb128 0x31
 3210 01be 13       		.uleb128 0x13
 3211 01bf 01       		.uleb128 0x1
 3212 01c0 13       		.uleb128 0x13
 3213 01c1 00       		.byte	0
 3214 01c2 00       		.byte	0
 3215 01c3 25       		.uleb128 0x25
 3216 01c4 8A8201   		.uleb128 0x410a
 3217 01c7 00       		.byte	0
 3218 01c8 02       		.uleb128 0x2
 3219 01c9 18       		.uleb128 0x18
 3220 01ca 9142     		.uleb128 0x2111
 3221 01cc 18       		.uleb128 0x18
 3222 01cd 00       		.byte	0
 3223 01ce 00       		.byte	0
 3224 01cf 26       		.uleb128 0x26
 3225 01d0 898201   		.uleb128 0x4109
 3226 01d3 01       		.byte	0x1
 3227 01d4 11       		.uleb128 0x11
 3228 01d5 01       		.uleb128 0x1
 3229 01d6 31       		.uleb128 0x31
 3230 01d7 13       		.uleb128 0x13
ARM GAS  /tmp/ccXgCN1n.s 			page 82


 3231 01d8 00       		.byte	0
 3232 01d9 00       		.byte	0
 3233 01da 27       		.uleb128 0x27
 3234 01db 898201   		.uleb128 0x4109
 3235 01de 01       		.byte	0x1
 3236 01df 11       		.uleb128 0x11
 3237 01e0 01       		.uleb128 0x1
 3238 01e1 9542     		.uleb128 0x2115
 3239 01e3 19       		.uleb128 0x19
 3240 01e4 31       		.uleb128 0x31
 3241 01e5 13       		.uleb128 0x13
 3242 01e6 00       		.byte	0
 3243 01e7 00       		.byte	0
 3244 01e8 28       		.uleb128 0x28
 3245 01e9 34       		.uleb128 0x34
 3246 01ea 00       		.byte	0
 3247 01eb 03       		.uleb128 0x3
 3248 01ec 0E       		.uleb128 0xe
 3249 01ed 3A       		.uleb128 0x3a
 3250 01ee 0B       		.uleb128 0xb
 3251 01ef 3B       		.uleb128 0x3b
 3252 01f0 0B       		.uleb128 0xb
 3253 01f1 49       		.uleb128 0x49
 3254 01f2 13       		.uleb128 0x13
 3255 01f3 02       		.uleb128 0x2
 3256 01f4 18       		.uleb128 0x18
 3257 01f5 00       		.byte	0
 3258 01f6 00       		.byte	0
 3259 01f7 29       		.uleb128 0x29
 3260 01f8 34       		.uleb128 0x34
 3261 01f9 00       		.byte	0
 3262 01fa 03       		.uleb128 0x3
 3263 01fb 0E       		.uleb128 0xe
 3264 01fc 3A       		.uleb128 0x3a
 3265 01fd 0B       		.uleb128 0xb
 3266 01fe 3B       		.uleb128 0x3b
 3267 01ff 05       		.uleb128 0x5
 3268 0200 49       		.uleb128 0x49
 3269 0201 13       		.uleb128 0x13
 3270 0202 3F       		.uleb128 0x3f
 3271 0203 19       		.uleb128 0x19
 3272 0204 3C       		.uleb128 0x3c
 3273 0205 19       		.uleb128 0x19
 3274 0206 00       		.byte	0
 3275 0207 00       		.byte	0
 3276 0208 2A       		.uleb128 0x2a
 3277 0209 34       		.uleb128 0x34
 3278 020a 00       		.byte	0
 3279 020b 03       		.uleb128 0x3
 3280 020c 08       		.uleb128 0x8
 3281 020d 3A       		.uleb128 0x3a
 3282 020e 0B       		.uleb128 0xb
 3283 020f 3B       		.uleb128 0x3b
 3284 0210 05       		.uleb128 0x5
 3285 0211 49       		.uleb128 0x49
 3286 0212 13       		.uleb128 0x13
 3287 0213 3F       		.uleb128 0x3f
ARM GAS  /tmp/ccXgCN1n.s 			page 83


 3288 0214 19       		.uleb128 0x19
 3289 0215 3C       		.uleb128 0x3c
 3290 0216 19       		.uleb128 0x19
 3291 0217 00       		.byte	0
 3292 0218 00       		.byte	0
 3293 0219 2B       		.uleb128 0x2b
 3294 021a 34       		.uleb128 0x34
 3295 021b 00       		.byte	0
 3296 021c 03       		.uleb128 0x3
 3297 021d 0E       		.uleb128 0xe
 3298 021e 3A       		.uleb128 0x3a
 3299 021f 0B       		.uleb128 0xb
 3300 0220 3B       		.uleb128 0x3b
 3301 0221 0B       		.uleb128 0xb
 3302 0222 49       		.uleb128 0x49
 3303 0223 13       		.uleb128 0x13
 3304 0224 3F       		.uleb128 0x3f
 3305 0225 19       		.uleb128 0x19
 3306 0226 3C       		.uleb128 0x3c
 3307 0227 19       		.uleb128 0x19
 3308 0228 00       		.byte	0
 3309 0229 00       		.byte	0
 3310 022a 2C       		.uleb128 0x2c
 3311 022b 34       		.uleb128 0x34
 3312 022c 00       		.byte	0
 3313 022d 03       		.uleb128 0x3
 3314 022e 0E       		.uleb128 0xe
 3315 022f 3A       		.uleb128 0x3a
 3316 0230 0B       		.uleb128 0xb
 3317 0231 3B       		.uleb128 0x3b
 3318 0232 0B       		.uleb128 0xb
 3319 0233 49       		.uleb128 0x49
 3320 0234 13       		.uleb128 0x13
 3321 0235 3F       		.uleb128 0x3f
 3322 0236 19       		.uleb128 0x19
 3323 0237 02       		.uleb128 0x2
 3324 0238 18       		.uleb128 0x18
 3325 0239 00       		.byte	0
 3326 023a 00       		.byte	0
 3327 023b 2D       		.uleb128 0x2d
 3328 023c 2E       		.uleb128 0x2e
 3329 023d 00       		.byte	0
 3330 023e 3F       		.uleb128 0x3f
 3331 023f 19       		.uleb128 0x19
 3332 0240 03       		.uleb128 0x3
 3333 0241 0E       		.uleb128 0xe
 3334 0242 3A       		.uleb128 0x3a
 3335 0243 0B       		.uleb128 0xb
 3336 0244 3B       		.uleb128 0x3b
 3337 0245 0B       		.uleb128 0xb
 3338 0246 27       		.uleb128 0x27
 3339 0247 19       		.uleb128 0x19
 3340 0248 49       		.uleb128 0x49
 3341 0249 13       		.uleb128 0x13
 3342 024a 3C       		.uleb128 0x3c
 3343 024b 19       		.uleb128 0x19
 3344 024c 00       		.byte	0
ARM GAS  /tmp/ccXgCN1n.s 			page 84


 3345 024d 00       		.byte	0
 3346 024e 2E       		.uleb128 0x2e
 3347 024f 2E       		.uleb128 0x2e
 3348 0250 01       		.byte	0x1
 3349 0251 3F       		.uleb128 0x3f
 3350 0252 19       		.uleb128 0x19
 3351 0253 03       		.uleb128 0x3
 3352 0254 0E       		.uleb128 0xe
 3353 0255 3A       		.uleb128 0x3a
 3354 0256 0B       		.uleb128 0xb
 3355 0257 3B       		.uleb128 0x3b
 3356 0258 0B       		.uleb128 0xb
 3357 0259 27       		.uleb128 0x27
 3358 025a 19       		.uleb128 0x19
 3359 025b 49       		.uleb128 0x49
 3360 025c 13       		.uleb128 0x13
 3361 025d 3C       		.uleb128 0x3c
 3362 025e 19       		.uleb128 0x19
 3363 025f 01       		.uleb128 0x1
 3364 0260 13       		.uleb128 0x13
 3365 0261 00       		.byte	0
 3366 0262 00       		.byte	0
 3367 0263 2F       		.uleb128 0x2f
 3368 0264 2E       		.uleb128 0x2e
 3369 0265 01       		.byte	0x1
 3370 0266 3F       		.uleb128 0x3f
 3371 0267 19       		.uleb128 0x19
 3372 0268 03       		.uleb128 0x3
 3373 0269 0E       		.uleb128 0xe
 3374 026a 3A       		.uleb128 0x3a
 3375 026b 0B       		.uleb128 0xb
 3376 026c 3B       		.uleb128 0x3b
 3377 026d 0B       		.uleb128 0xb
 3378 026e 27       		.uleb128 0x27
 3379 026f 19       		.uleb128 0x19
 3380 0270 3C       		.uleb128 0x3c
 3381 0271 19       		.uleb128 0x19
 3382 0272 01       		.uleb128 0x1
 3383 0273 13       		.uleb128 0x13
 3384 0274 00       		.byte	0
 3385 0275 00       		.byte	0
 3386 0276 30       		.uleb128 0x30
 3387 0277 2E       		.uleb128 0x2e
 3388 0278 01       		.byte	0x1
 3389 0279 3F       		.uleb128 0x3f
 3390 027a 19       		.uleb128 0x19
 3391 027b 03       		.uleb128 0x3
 3392 027c 0E       		.uleb128 0xe
 3393 027d 3A       		.uleb128 0x3a
 3394 027e 0B       		.uleb128 0xb
 3395 027f 3B       		.uleb128 0x3b
 3396 0280 0B       		.uleb128 0xb
 3397 0281 27       		.uleb128 0x27
 3398 0282 19       		.uleb128 0x19
 3399 0283 3C       		.uleb128 0x3c
 3400 0284 19       		.uleb128 0x19
 3401 0285 00       		.byte	0
ARM GAS  /tmp/ccXgCN1n.s 			page 85


 3402 0286 00       		.byte	0
 3403 0287 00       		.byte	0
 3404              		.section	.debug_loc,"",%progbits
 3405              	.Ldebug_loc0:
 3406              	.LLST0:
 3407 0000 18000000 		.4byte	.LVL2
 3408 0004 22000000 		.4byte	.LVL3
 3409 0008 0100     		.2byte	0x1
 3410 000a 50       		.byte	0x50
 3411 000b 22000000 		.4byte	.LVL3
 3412 000f 2A000000 		.4byte	.LVL5
 3413 0013 0100     		.2byte	0x1
 3414 0015 54       		.byte	0x54
 3415 0016 2E000000 		.4byte	.LVL6
 3416 001a 3E000000 		.4byte	.LVL8
 3417 001e 0100     		.2byte	0x1
 3418 0020 54       		.byte	0x54
 3419 0021 3E000000 		.4byte	.LVL8
 3420 0025 48000000 		.4byte	.LVL9
 3421 0029 0100     		.2byte	0x1
 3422 002b 50       		.byte	0x50
 3423 002c 64000000 		.4byte	.LVL13
 3424 0030 66000000 		.4byte	.LVL14
 3425 0034 0100     		.2byte	0x1
 3426 0036 50       		.byte	0x50
 3427 0037 66000000 		.4byte	.LVL14
 3428 003b AC000000 		.4byte	.LVL27
 3429 003f 0100     		.2byte	0x1
 3430 0041 55       		.byte	0x55
 3431 0042 AC000000 		.4byte	.LVL27
 3432 0046 AE000000 		.4byte	.LVL28
 3433 004a 0100     		.2byte	0x1
 3434 004c 50       		.byte	0x50
 3435 004d AE000000 		.4byte	.LVL28
 3436 0051 F0000000 		.4byte	.LVL39
 3437 0055 0100     		.2byte	0x1
 3438 0057 54       		.byte	0x54
 3439 0058 F0000000 		.4byte	.LVL39
 3440 005c F2000000 		.4byte	.LVL40
 3441 0060 0100     		.2byte	0x1
 3442 0062 50       		.byte	0x50
 3443 0063 F2000000 		.4byte	.LVL40
 3444 0067 28010000 		.4byte	.LVL48
 3445 006b 0100     		.2byte	0x1
 3446 006d 54       		.byte	0x54
 3447 006e 28010000 		.4byte	.LVL48
 3448 0072 2A010000 		.4byte	.LVL49
 3449 0076 0100     		.2byte	0x1
 3450 0078 50       		.byte	0x50
 3451 0079 2A010000 		.4byte	.LVL49
 3452 007d 86010000 		.4byte	.LVL58
 3453 0081 0100     		.2byte	0x1
 3454 0083 54       		.byte	0x54
 3455 0084 86010000 		.4byte	.LVL58
 3456 0088 88010000 		.4byte	.LVL59
 3457 008c 0100     		.2byte	0x1
 3458 008e 50       		.byte	0x50
ARM GAS  /tmp/ccXgCN1n.s 			page 86


 3459 008f 88010000 		.4byte	.LVL59
 3460 0093 9E010000 		.4byte	.LVL65
 3461 0097 0100     		.2byte	0x1
 3462 0099 55       		.byte	0x55
 3463 009a B6010000 		.4byte	.LVL67
 3464 009e B9010000 		.4byte	.LVL68-1
 3465 00a2 0100     		.2byte	0x1
 3466 00a4 50       		.byte	0x50
 3467 00a5 EE010000 		.4byte	.LVL74
 3468 00a9 F0010000 		.4byte	.LVL75
 3469 00ad 0100     		.2byte	0x1
 3470 00af 50       		.byte	0x50
 3471 00b0 F0010000 		.4byte	.LVL75
 3472 00b4 44020000 		.4byte	.LFE242
 3473 00b8 0100     		.2byte	0x1
 3474 00ba 54       		.byte	0x54
 3475 00bb 00000000 		.4byte	0
 3476 00bf 00000000 		.4byte	0
 3477              	.LLST1:
 3478 00c3 6E000000 		.4byte	.LVL16
 3479 00c7 70000000 		.4byte	.LVL17
 3480 00cb 0100     		.2byte	0x1
 3481 00cd 50       		.byte	0x50
 3482 00ce 70000000 		.4byte	.LVL17
 3483 00d2 AC000000 		.4byte	.LVL27
 3484 00d6 0100     		.2byte	0x1
 3485 00d8 54       		.byte	0x54
 3486 00d9 B6000000 		.4byte	.LVL30
 3487 00dd B8000000 		.4byte	.LVL31
 3488 00e1 0100     		.2byte	0x1
 3489 00e3 50       		.byte	0x50
 3490 00e4 B8000000 		.4byte	.LVL31
 3491 00e8 F8000000 		.4byte	.LVL42
 3492 00ec 0100     		.2byte	0x1
 3493 00ee 55       		.byte	0x55
 3494 00ef F8000000 		.4byte	.LVL42
 3495 00f3 FA000000 		.4byte	.LVL43
 3496 00f7 0100     		.2byte	0x1
 3497 00f9 50       		.byte	0x50
 3498 00fa FA000000 		.4byte	.LVL43
 3499 00fe 86010000 		.4byte	.LVL58
 3500 0102 0100     		.2byte	0x1
 3501 0104 55       		.byte	0x55
 3502 0105 8E010000 		.4byte	.LVL61
 3503 0109 90010000 		.4byte	.LVL62
 3504 010d 0100     		.2byte	0x1
 3505 010f 50       		.byte	0x50
 3506 0110 90010000 		.4byte	.LVL62
 3507 0114 EE010000 		.4byte	.LVL74
 3508 0118 0100     		.2byte	0x1
 3509 011a 54       		.byte	0x54
 3510 011b 3A020000 		.4byte	.LVL82
 3511 011f 44020000 		.4byte	.LFE242
 3512 0123 0100     		.2byte	0x1
 3513 0125 55       		.byte	0x55
 3514 0126 00000000 		.4byte	0
 3515 012a 00000000 		.4byte	0
ARM GAS  /tmp/ccXgCN1n.s 			page 87


 3516              	.LLST2:
 3517 012e 76000000 		.4byte	.LVL19
 3518 0132 78000000 		.4byte	.LVL20
 3519 0136 0100     		.2byte	0x1
 3520 0138 50       		.byte	0x50
 3521 0139 78000000 		.4byte	.LVL20
 3522 013d BC000000 		.4byte	.LVL32
 3523 0141 0100     		.2byte	0x1
 3524 0143 56       		.byte	0x56
 3525 0144 BC000000 		.4byte	.LVL32
 3526 0148 BF000000 		.4byte	.LVL33-1
 3527 014c 0100     		.2byte	0x1
 3528 014e 50       		.byte	0x50
 3529 014f 00000000 		.4byte	0
 3530 0153 00000000 		.4byte	0
 3531              		.section	.debug_aranges,"",%progbits
 3532 0000 24000000 		.4byte	0x24
 3533 0004 0200     		.2byte	0x2
 3534 0006 00000000 		.4byte	.Ldebug_info0
 3535 000a 04       		.byte	0x4
 3536 000b 00       		.byte	0
 3537 000c 0000     		.2byte	0
 3538 000e 0000     		.2byte	0
 3539 0010 00000000 		.4byte	.LFB242
 3540 0014 44020000 		.4byte	.LFE242-.LFB242
 3541 0018 00000000 		.4byte	.LFB241
 3542 001c 14000000 		.4byte	.LFE241-.LFB241
 3543 0020 00000000 		.4byte	0
 3544 0024 00000000 		.4byte	0
 3545              		.section	.debug_ranges,"",%progbits
 3546              	.Ldebug_ranges0:
 3547 0000 00000000 		.4byte	.LFB242
 3548 0004 44020000 		.4byte	.LFE242
 3549 0008 00000000 		.4byte	.LFB241
 3550 000c 14000000 		.4byte	.LFE241
 3551 0010 00000000 		.4byte	0
 3552 0014 00000000 		.4byte	0
 3553              		.section	.debug_line,"",%progbits
 3554              	.Ldebug_line0:
 3555 0000 43030000 		.section	.debug_str,"MS",%progbits,1
 3555      0200CF02 
 3555      00000201 
 3555      FB0E0D00 
 3555      01010101 
 3556              	.LASF50:
 3557 0000 72656164 		.ascii	"ready_list_t\000"
 3557      795F6C69 
 3557      73745F74 
 3557      00
 3558              	.LASF2:
 3559 000d 73697A65 		.ascii	"size_t\000"
 3559      5F7400
 3560              	.LASF85:
 3561 0014 7264796D 		.ascii	"rdymsg\000"
 3561      736700
 3562              	.LASF17:
 3563 001b 75696E74 		.ascii	"uint64_t\000"
ARM GAS  /tmp/ccXgCN1n.s 			page 88


 3563      36345F74 
 3563      00
 3564              	.LASF3:
 3565 0024 5F5F7569 		.ascii	"__uint8_t\000"
 3565      6E74385F 
 3565      7400
 3566              	.LASF82:
 3567 002e 706F7274 		.ascii	"port_intctx\000"
 3567      5F696E74 
 3567      63747800 
 3568              	.LASF69:
 3569 003a 73797374 		.ascii	"system_debug_t\000"
 3569      656D5F64 
 3569      65627567 
 3569      5F7400
 3570              	.LASF102:
 3571 0049 6D656D67 		.ascii	"memgetfunc_t\000"
 3571      65746675 
 3571      6E635F74 
 3571      00
 3572              	.LASF13:
 3573 0056 6C6F6E67 		.ascii	"long long unsigned int\000"
 3573      206C6F6E 
 3573      6720756E 
 3573      7369676E 
 3573      65642069 
 3574              	.LASF86:
 3575 006d 65786974 		.ascii	"exitcode\000"
 3575      636F6465 
 3575      00
 3576              	.LASF106:
 3577 0076 685F6672 		.ascii	"h_free\000"
 3577      656500
 3578              	.LASF124:
 3579 007d 74657374 		.ascii	"test\000"
 3579      00
 3580              	.LASF66:
 3581 0082 76697274 		.ascii	"virtual_timers_list_t\000"
 3581      75616C5F 
 3581      74696D65 
 3581      72735F6C 
 3581      6973745F 
 3582              	.LASF123:
 3583 0098 49544D5F 		.ascii	"ITM_RxBuffer\000"
 3583      52784275 
 3583      66666572 
 3583      00
 3584              	.LASF108:
 3585 00a5 6E657874 		.ascii	"next\000"
 3585      00
 3586              	.LASF49:
 3587 00aa 63685F74 		.ascii	"ch_threads_queue\000"
 3587      68726561 
 3587      64735F71 
 3587      75657565 
 3587      00
 3588              	.LASF30:
ARM GAS  /tmp/ccXgCN1n.s 			page 89


 3589 00bb 705F7072 		.ascii	"p_prio\000"
 3589      696F00
 3590              	.LASF126:
 3591 00c2 70617474 		.ascii	"patternheap\000"
 3591      65726E68 
 3591      65617000 
 3592              	.LASF101:
 3593 00ce 6D757465 		.ascii	"mutex_t\000"
 3593      785F7400 
 3594              	.LASF11:
 3595 00d6 6C6F6E67 		.ascii	"long long int\000"
 3595      206C6F6E 
 3595      6720696E 
 3595      7400
 3596              	.LASF1:
 3597 00e4 7369676E 		.ascii	"signed char\000"
 3597      65642063 
 3597      68617200 
 3598              	.LASF107:
 3599 00f0 685F6D74 		.ascii	"h_mtx\000"
 3599      7800
 3600              	.LASF43:
 3601 00f6 705F6D70 		.ascii	"p_mpool\000"
 3601      6F6F6C00 
 3602              	.LASF97:
 3603 00fe 6D5F7175 		.ascii	"m_queue\000"
 3603      65756500 
 3604              	.LASF135:
 3605 0106 63684865 		.ascii	"chHeapFree\000"
 3605      61704672 
 3605      656500
 3606              	.LASF75:
 3607 0111 76746C69 		.ascii	"vtlist\000"
 3607      737400
 3608              	.LASF134:
 3609 0118 6368436F 		.ascii	"chCoreGetStatusX\000"
 3609      72654765 
 3609      74537461 
 3609      74757358 
 3609      00
 3610              	.LASF88:
 3611 0129 77747472 		.ascii	"wttrp\000"
 3611      7000
 3612              	.LASF73:
 3613 012f 63685F73 		.ascii	"ch_system\000"
 3613      79737465 
 3613      6D00
 3614              	.LASF8:
 3615 0139 6C6F6E67 		.ascii	"long int\000"
 3615      20696E74 
 3615      00
 3616              	.LASF20:
 3617 0142 74737461 		.ascii	"tstate_t\000"
 3617      74655F74 
 3617      00
 3618              	.LASF103:
 3619 014b 6D656D6F 		.ascii	"memory_heap_t\000"
ARM GAS  /tmp/ccXgCN1n.s 			page 90


 3619      72795F68 
 3619      6561705F 
 3619      7400
 3620              	.LASF119:
 3621 0159 62756666 		.ascii	"buffer\000"
 3621      657200
 3622              	.LASF32:
 3623 0160 705F6E65 		.ascii	"p_newer\000"
 3623      77657200 
 3624              	.LASF94:
 3625 0168 735F7175 		.ascii	"s_queue\000"
 3625      65756500 
 3626              	.LASF55:
 3627 0170 725F6E65 		.ascii	"r_newer\000"
 3627      77657200 
 3628              	.LASF79:
 3629 0178 72656761 		.ascii	"regarm_t\000"
 3629      726D5F74 
 3629      00
 3630              	.LASF62:
 3631 0181 76745F70 		.ascii	"vt_prev\000"
 3631      72657600 
 3632              	.LASF120:
 3633 0189 68656170 		.ascii	"heap1_execute\000"
 3633      315F6578 
 3633      65637574 
 3633      6500
 3634              	.LASF110:
 3635 0197 616C6967 		.ascii	"align\000"
 3635      6E00
 3636              	.LASF77:
 3637 019d 69646C65 		.ascii	"idle_thread_wa\000"
 3637      5F746872 
 3637      6561645F 
 3637      776100
 3638              	.LASF25:
 3639 01ac 636E745F 		.ascii	"cnt_t\000"
 3639      7400
 3640              	.LASF0:
 3641 01b2 756E7369 		.ascii	"unsigned int\000"
 3641      676E6564 
 3641      20696E74 
 3641      00
 3642              	.LASF61:
 3643 01bf 76745F6E 		.ascii	"vt_next\000"
 3643      65787400 
 3644              	.LASF90:
 3645 01c7 77747365 		.ascii	"wtsemp\000"
 3645      6D7000
 3646              	.LASF39:
 3647 01ce 705F6D73 		.ascii	"p_msgqueue\000"
 3647      67717565 
 3647      756500
 3648              	.LASF115:
 3649 01d9 74656172 		.ascii	"teardown\000"
 3649      646F776E 
 3649      00
ARM GAS  /tmp/ccXgCN1n.s 			page 91


 3650              	.LASF113:
 3651 01e2 6E616D65 		.ascii	"name\000"
 3651      00
 3652              	.LASF95:
 3653 01e7 735F636E 		.ascii	"s_cnt\000"
 3653      7400
 3654              	.LASF6:
 3655 01ed 73686F72 		.ascii	"short unsigned int\000"
 3655      7420756E 
 3655      7369676E 
 3655      65642069 
 3655      6E7400
 3656              	.LASF46:
 3657 0200 63685F74 		.ascii	"ch_thread\000"
 3657      68726561 
 3657      6400
 3658              	.LASF76:
 3659 020a 6D61696E 		.ascii	"mainthread\000"
 3659      74687265 
 3659      616400
 3660              	.LASF23:
 3661 0215 6D73675F 		.ascii	"msg_t\000"
 3661      7400
 3662              	.LASF72:
 3663 021b 63685F73 		.ascii	"ch_system_t\000"
 3663      79737465 
 3663      6D5F7400 
 3664              	.LASF19:
 3665 0227 746D6F64 		.ascii	"tmode_t\000"
 3665      655F7400 
 3666              	.LASF51:
 3667 022f 63685F72 		.ascii	"ch_ready_list\000"
 3667      65616479 
 3667      5F6C6973 
 3667      7400
 3668              	.LASF24:
 3669 023d 6576656E 		.ascii	"eventmask_t\000"
 3669      746D6173 
 3669      6B5F7400 
 3670              	.LASF7:
 3671 0249 5F5F696E 		.ascii	"__int32_t\000"
 3671      7433325F 
 3671      7400
 3672              	.LASF80:
 3673 0253 73746B61 		.ascii	"stkalign_t\000"
 3673      6C69676E 
 3673      5F7400
 3674              	.LASF125:
 3675 025e 74657374 		.ascii	"testheap1\000"
 3675      68656170 
 3675      3100
 3676              	.LASF136:
 3677 0268 63684865 		.ascii	"chHeapObjectInit\000"
 3677      61704F62 
 3677      6A656374 
 3677      496E6974 
 3677      00
ARM GAS  /tmp/ccXgCN1n.s 			page 92


 3678              	.LASF38:
 3679 0279 705F7761 		.ascii	"p_waiting\000"
 3679      6974696E 
 3679      6700
 3680              	.LASF78:
 3681 0283 73697A65 		.ascii	"sizetype\000"
 3681      74797065 
 3681      00
 3682              	.LASF44:
 3683 028c 74687265 		.ascii	"thread_reference_t\000"
 3683      61645F72 
 3683      65666572 
 3683      656E6365 
 3683      5F7400
 3684              	.LASF67:
 3685 029f 63685F76 		.ascii	"ch_virtual_timers_list\000"
 3685      69727475 
 3685      616C5F74 
 3685      696D6572 
 3685      735F6C69 
 3686              	.LASF68:
 3687 02b6 76745F6C 		.ascii	"vt_lasttime\000"
 3687      61737474 
 3687      696D6500 
 3688              	.LASF33:
 3689 02c2 705F6F6C 		.ascii	"p_older\000"
 3689      64657200 
 3690              	.LASF133:
 3691 02ca 2F6E6673 		.ascii	"/nfs/nfs4/home/galexeev/classes/P442WifiTrailCounte"
 3691      2F6E6673 
 3691      342F686F 
 3691      6D652F67 
 3691      616C6578 
 3692 02fd 7250726F 		.ascii	"rProject/milestone3\000"
 3692      6A656374 
 3692      2F6D696C 
 3692      6573746F 
 3692      6E653300 
 3693              	.LASF54:
 3694 0311 725F6374 		.ascii	"r_ctx\000"
 3694      7800
 3695              	.LASF84:
 3696 0317 746D5F63 		.ascii	"tm_calibration_t\000"
 3696      616C6962 
 3696      72617469 
 3696      6F6E5F74 
 3696      00
 3697              	.LASF114:
 3698 0328 73657475 		.ascii	"setup\000"
 3698      7000
 3699              	.LASF57:
 3700 032e 725F6375 		.ascii	"r_current\000"
 3700      7272656E 
 3700      7400
 3701              	.LASF56:
 3702 0338 725F6F6C 		.ascii	"r_older\000"
 3702      64657200 
ARM GAS  /tmp/ccXgCN1n.s 			page 93


 3703              	.LASF12:
 3704 0340 5F5F7569 		.ascii	"__uint64_t\000"
 3704      6E743634 
 3704      5F7400
 3705              	.LASF21:
 3706 034b 74726566 		.ascii	"trefs_t\000"
 3706      735F7400 
 3707              	.LASF59:
 3708 0353 76697274 		.ascii	"virtual_timer_t\000"
 3708      75616C5F 
 3708      74696D65 
 3708      725F7400 
 3709              	.LASF29:
 3710 0363 705F7072 		.ascii	"p_prev\000"
 3710      657600
 3711              	.LASF116:
 3712 036a 65786563 		.ascii	"execute\000"
 3712      75746500 
 3713              	.LASF22:
 3714 0372 74707269 		.ascii	"tprio_t\000"
 3714      6F5F7400 
 3715              	.LASF121:
 3716 037a 68656170 		.ascii	"heap1_setup\000"
 3716      315F7365 
 3716      74757000 
 3717              	.LASF70:
 3718 0386 63685F73 		.ascii	"ch_system_debug\000"
 3718      79737465 
 3718      6D5F6465 
 3718      62756700 
 3719              	.LASF130:
 3720 0396 5F426F6F 		.ascii	"_Bool\000"
 3720      6C00
 3721              	.LASF15:
 3722 039c 696E7433 		.ascii	"int32_t\000"
 3722      325F7400 
 3723              	.LASF4:
 3724 03a4 756E7369 		.ascii	"unsigned char\000"
 3724      676E6564 
 3724      20636861 
 3724      7200
 3725              	.LASF117:
 3726 03b2 68656170 		.ascii	"heap_header\000"
 3726      5F686561 
 3726      64657200 
 3727              	.LASF41:
 3728 03be 705F6D74 		.ascii	"p_mtxlist\000"
 3728      786C6973 
 3728      7400
 3729              	.LASF5:
 3730 03c8 73686F72 		.ascii	"short int\000"
 3730      7420696E 
 3730      7400
 3731              	.LASF35:
 3732 03d2 705F7374 		.ascii	"p_state\000"
 3732      61746500 
 3733              	.LASF53:
ARM GAS  /tmp/ccXgCN1n.s 			page 94


 3734 03da 725F7072 		.ascii	"r_prio\000"
 3734      696F00
 3735              	.LASF92:
 3736 03e1 65776D61 		.ascii	"ewmask\000"
 3736      736B00
 3737              	.LASF28:
 3738 03e8 705F6E65 		.ascii	"p_next\000"
 3738      787400
 3739              	.LASF36:
 3740 03ef 705F666C 		.ascii	"p_flags\000"
 3740      61677300 
 3741              	.LASF48:
 3742 03f7 74687265 		.ascii	"threads_queue_t\000"
 3742      6164735F 
 3742      71756575 
 3742      655F7400 
 3743              	.LASF128:
 3744 0407 63684865 		.ascii	"chHeapAlloc\000"
 3744      6170416C 
 3744      6C6F6300 
 3745              	.LASF112:
 3746 0413 74657374 		.ascii	"testcase\000"
 3746      63617365 
 3746      00
 3747              	.LASF93:
 3748 041c 63685F73 		.ascii	"ch_semaphore\000"
 3748      656D6170 
 3748      686F7265 
 3748      00
 3749              	.LASF40:
 3750 0429 705F6570 		.ascii	"p_epending\000"
 3750      656E6469 
 3750      6E6700
 3751              	.LASF16:
 3752 0434 75696E74 		.ascii	"uint32_t\000"
 3752      33325F74 
 3752      00
 3753              	.LASF91:
 3754 043d 77746D74 		.ascii	"wtmtxp\000"
 3754      787000
 3755              	.LASF52:
 3756 0444 725F7175 		.ascii	"r_queue\000"
 3756      65756500 
 3757              	.LASF63:
 3758 044c 76745F64 		.ascii	"vt_delta\000"
 3758      656C7461 
 3758      00
 3759              	.LASF47:
 3760 0455 63685F74 		.ascii	"ch_threads_list\000"
 3760      68726561 
 3760      64735F6C 
 3760      69737400 
 3761              	.LASF109:
 3762 0465 68656170 		.ascii	"heap\000"
 3762      00
 3763              	.LASF10:
 3764 046a 6C6F6E67 		.ascii	"long unsigned int\000"
ARM GAS  /tmp/ccXgCN1n.s 			page 95


 3764      20756E73 
 3764      69676E65 
 3764      6420696E 
 3764      7400
 3765              	.LASF100:
 3766 047c 63686172 		.ascii	"char\000"
 3766      00
 3767              	.LASF27:
 3768 0481 74687265 		.ascii	"thread_t\000"
 3768      61645F74 
 3768      00
 3769              	.LASF127:
 3770 048a 63684865 		.ascii	"chHeapStatus\000"
 3770      61705374 
 3770      61747573 
 3770      00
 3771              	.LASF99:
 3772 0497 6D5F6E65 		.ascii	"m_next\000"
 3772      787400
 3773              	.LASF26:
 3774 049e 73797374 		.ascii	"systime_t\000"
 3774      696D655F 
 3774      7400
 3775              	.LASF42:
 3776 04a8 705F7265 		.ascii	"p_realprio\000"
 3776      616C7072 
 3776      696F00
 3777              	.LASF58:
 3778 04b3 76746675 		.ascii	"vtfunc_t\000"
 3778      6E635F74 
 3778      00
 3779              	.LASF9:
 3780 04bc 5F5F7569 		.ascii	"__uint32_t\000"
 3780      6E743332 
 3780      5F7400
 3781              	.LASF71:
 3782 04c7 70616E69 		.ascii	"panic_msg\000"
 3782      635F6D73 
 3782      6700
 3783              	.LASF132:
 3784 04d1 2E2E2F43 		.ascii	"../ChibiOS/test/rt/testheap.c\000"
 3784      68696269 
 3784      4F532F74 
 3784      6573742F 
 3784      72742F74 
 3785              	.LASF83:
 3786 04ef 6F666673 		.ascii	"offset\000"
 3786      657400
 3787              	.LASF81:
 3788 04f6 636F6E74 		.ascii	"context\000"
 3788      65787400 
 3789              	.LASF60:
 3790 04fe 63685F76 		.ascii	"ch_virtual_timer\000"
 3790      69727475 
 3790      616C5F74 
 3790      696D6572 
 3790      00
ARM GAS  /tmp/ccXgCN1n.s 			page 96


 3791              	.LASF18:
 3792 050f 7274636E 		.ascii	"rtcnt_t\000"
 3792      745F7400 
 3793              	.LASF65:
 3794 0517 76745F70 		.ascii	"vt_par\000"
 3794      617200
 3795              	.LASF118:
 3796 051e 74657374 		.ascii	"test_buffers\000"
 3796      5F627566 
 3796      66657273 
 3796      00
 3797              	.LASF96:
 3798 052b 63685F6D 		.ascii	"ch_mutex\000"
 3798      75746578 
 3798      00
 3799              	.LASF37:
 3800 0534 705F7265 		.ascii	"p_refs\000"
 3800      667300
 3801              	.LASF74:
 3802 053b 726C6973 		.ascii	"rlist\000"
 3802      7400
 3803              	.LASF14:
 3804 0541 75696E74 		.ascii	"uint8_t\000"
 3804      385F7400 
 3805              	.LASF122:
 3806 0549 74657374 		.ascii	"test_heap\000"
 3806      5F686561 
 3806      7000
 3807              	.LASF105:
 3808 0553 685F7072 		.ascii	"h_provider\000"
 3808      6F766964 
 3808      657200
 3809              	.LASF131:
 3810 055e 474E5520 		.ascii	"GNU C 4.8.4 20140526 (release) [ARM/embedded-4_8-br"
 3810      4320342E 
 3810      382E3420 
 3810      32303134 
 3810      30353236 
 3811 0591 616E6368 		.ascii	"anch revision 211358] -mcpu=cortex-m4 -mno-thumb-in"
 3811      20726576 
 3811      6973696F 
 3811      6E203231 
 3811      31333538 
 3812 05c4 74657277 		.ascii	"terwork -mthumb -ggdb -O2 -fomit-frame-pointer -fal"
 3812      6F726B20 
 3812      2D6D7468 
 3812      756D6220 
 3812      2D676764 
 3813 05f7 69676E2D 		.ascii	"ign-functions=16 -ffunction-sections -fdata-section"
 3813      66756E63 
 3813      74696F6E 
 3813      733D3136 
 3813      202D6666 
 3814 062a 73202D66 		.ascii	"s -fno-common -flto\000"
 3814      6E6F2D63 
 3814      6F6D6D6F 
 3814      6E202D66 
ARM GAS  /tmp/ccXgCN1n.s 			page 97


 3814      6C746F00 
 3815              	.LASF87:
 3816 063e 77746F62 		.ascii	"wtobjp\000"
 3816      6A7000
 3817              	.LASF34:
 3818 0645 705F6E61 		.ascii	"p_name\000"
 3818      6D6500
 3819              	.LASF111:
 3820 064c 73697A65 		.ascii	"size\000"
 3820      00
 3821              	.LASF129:
 3822 0651 5F746573 		.ascii	"_test_assert\000"
 3822      745F6173 
 3822      73657274 
 3822      00
 3823              	.LASF45:
 3824 065e 74687265 		.ascii	"threads_list_t\000"
 3824      6164735F 
 3824      6C697374 
 3824      5F7400
 3825              	.LASF89:
 3826 066d 73656E74 		.ascii	"sentmsg\000"
 3826      6D736700 
 3827              	.LASF98:
 3828 0675 6D5F6F77 		.ascii	"m_owner\000"
 3828      6E657200 
 3829              	.LASF31:
 3830 067d 705F6374 		.ascii	"p_ctx\000"
 3830      7800
 3831              	.LASF64:
 3832 0683 76745F66 		.ascii	"vt_func\000"
 3832      756E6300 
 3833              	.LASF104:
 3834 068b 6D656D6F 		.ascii	"memory_heap\000"
 3834      72795F68 
 3834      65617000 
 3835              		.comm	__gnu_lto_v1,1,1
 3836              		.ident	"GCC: (GNU Tools for ARM Embedded Processors) 4.8.4 20140526 (release) [ARM/embedded-4_8-br
ARM GAS  /tmp/ccXgCN1n.s 			page 98


DEFINED SYMBOLS
                            *ABS*:00000000 testheap.c
     /tmp/ccXgCN1n.s:411    .text.heap1_execute:00000000 $t
     /tmp/ccXgCN1n.s:416    .text.heap1_execute:00000000 heap1_execute
     /tmp/ccXgCN1n.s:799    .text.heap1_execute:00000240 $d
     /tmp/ccXgCN1n.s:804    .text.heap1_setup:00000000 $t
     /tmp/ccXgCN1n.s:809    .text.heap1_setup:00000000 heap1_setup
     /tmp/ccXgCN1n.s:825    .text.heap1_setup:0000000c $d
     /tmp/ccXgCN1n.s:836    .rodata.patternheap:00000000 patternheap
     /tmp/ccXgCN1n.s:847    .rodata.testheap1:00000000 testheap1
     /tmp/ccXgCN1n.s:833    .rodata.patternheap:00000000 $d
     /tmp/ccXgCN1n.s:840    .rodata.str1.4:00000000 $d
     /tmp/ccXgCN1n.s:844    .rodata.testheap1:00000000 $d
     /tmp/ccXgCN1n.s:853    .bss.test_heap:00000000 $d
     /tmp/ccXgCN1n.s:857    .bss.test_heap:00000000 test_heap
                            *COM*:00000001 __gnu_lto_v1
                     .debug_frame:00000010 $d
     /tmp/ccXgCN1n.s:803    .text.heap1_execute:00000244 $t
     /tmp/ccXgCN1n.s:832    .text.heap1_setup:00000014 $t

UNDEFINED SYMBOLS
chCoreGetStatusX
chHeapStatus
chHeapAlloc
_test_assert
chHeapFree
chHeapObjectInit
test
