ARM GAS  /tmp/ccd90TRS.s 			page 1


   1              		.syntax unified
   2              		.cpu cortex-m4
   3              		.fpu softvfp
   4              		.eabi_attribute 20, 1
   5              		.eabi_attribute 21, 1
   6              		.eabi_attribute 23, 3
   7              		.eabi_attribute 24, 1
   8              		.eabi_attribute 25, 1
   9              		.eabi_attribute 26, 1
  10              		.eabi_attribute 30, 2
  11              		.eabi_attribute 34, 1
  12              		.eabi_attribute 18, 4
  13              		.thumb
  14              		.file	"testpools.c"
  15              		.text
  16              	.Ltext0:
  17              		.section	.gnu.lto_.jmpfuncs.345e916c522ac267,"",%progbits
  18 0000 789C6362 		.ascii	"x\234cb`b\300\006t\031!4\013\003\003#\0033S5\303\257"
  18      6062C006 
  18      74192134 
  18      0B030323 
  18      03335335 
  19 0016 868E0681 		.ascii	"\206\216\006\201LF\206\\\210\004S\004c&#\343\011&(\013"
  19      4C46865C 
  19      88045304 
  19      632623E3 
  19      0926280B 
  20 002a 64083303 		.ascii	"d\0103\003\023\246:\240v,\232!\272\231\361K\263\200"
  20      13A63AA0 
  20      762C9A21 
  20      BA99F14B 
  20      B380
  21 003c D8B8AC66 		.ascii	"\330\270\254f\026\0002\340R,\311\214\004\354b\005\261"
  21      160032E0 
  21      522CC98C 
  21      04EC6205 
  21      B1
  22 004d 59E15C26 		.ascii	"Y\341\\&\374\252\031qHcq\015\314= \013\000\310\225/"
  22      FCAA1971 
  22      4863710D 
  22      CC3D200B 
  22      00C8952F 
  23 0061 43       		.ascii	"C"
  24              		.text
  25              		.section	.gnu.lto_.inline.345e916c522ac267,"",%progbits
  26 0000 789C6362 		.ascii	"x\234cb`b\300\006\366@i\026\006\006f&F\260\"\266\005"
  26      6062C006 
  26      F6406916 
  26      06066626 
  26      46B022B6 
  27 0015 F260B58C 		.ascii	"\362`\265\214\014\354\374\250\",\274@U\014 \254\363"
  27      0CECFCA8 
  27      222CBC40 
  27      550C20AC 
  27      F3
  28 0026 9D112825 		.ascii	"\235\021(%\3230\203\015.\311\314\003R<\301\017D3\002"
  28      D330830D 
ARM GAS  /tmp/ccd90TRS.s 			page 2


  28      2EC9CC03 
  28      523CC10F 
  28      443302
  29 0039 95C2780C 		.ascii	"\225\302x\014`\036\003\230\0077\000,\012\"A\242\254"
  29      601E0398 
  29      0737002C 
  29      0A2241A2 
  29      AC
  30 004a 0C0A6B40 		.ascii	"\014\012k@\306\211\264\235fF\330\316\005\265\020\331"
  30      C689B49D 
  30      6646D8CE 
  30      05B510D9 
  31 005a 14541B40 		.ascii	"\024T\033@fM\360c`\000\000\2755\017\300"
  31      664DF063 
  31      600000BD 
  31      350FC0
  32              		.text
  33              		.section	.gnu.lto_.pureconst.345e916c522ac267,"",%progbits
  34 0000 789C6362 		.ascii	"x\234cb`b\340d\200\000\026\006\006F\011f\011V\011\000"
  34      6062E064 
  34      80001606 
  34      06460966 
  34      09560900 
  35 0014 02160063 		.ascii	"\002\026\000c"
  36              		.text
  37              		.section	.gnu.lto_null_provider.345e916c522ac267,"",%progbits
  38 0000 789C6362 		.ascii	"x\234cb`b@\007\222@\034\005\304\212@\314\310\314\300"
  38      60624007 
  38      92401C05 
  38      C48A40CC 
  38      C8CCC0
  39 0013 C834E11C 		.ascii	"\3104\341\034\003C#\007\023##\210\301\300\310P\317\304"
  39      03432307 
  39      13232388 
  39      C1C0C850 
  39      CFC4
  40 0025 581FC908 		.ascii	"X\037\311\010V\273\236\351\300\203\377\377\327\375x"
  40      56BB9EE9 
  40      C083FFFF 
  40      D7FD78
  41 0034 FAA88351 		.ascii	"\372\250\203Q\020d\024+CKC\303\004\005\006\206d\260"
  41      1064142B 
  41      434B43C3 
  41      04050686 
  41      64B0
  42 0046 82102009 		.ascii	"\202\020 \011\322\025\312\310\004\242\231/24>\370\317"
  42      D215CAC8 
  42      04A2992F 
  42      32343EF8 
  42      CF
  43 0057 96C8B890 		.ascii	"\226\310\270\220\221\225!\2021\223\021ni\010##H\001"
  43      91952182 
  43      3193116E 
  43      69082323 
  43      4801
  44 0069 C808793D 		.ascii	"\310\010y==}\347\214\314\244L\377`\375\222\324\342\022"
  44      3D7DE78C 
ARM GAS  /tmp/ccd90TRS.s 			page 3


  44      CCA44CFF 
  44      60FD92D4 
  44      E212
  45 007b FDA21230 		.ascii	"\375\242\0220]\220\237\237S\254\227\314\000\000\220"
  45      5D909F9F 
  45      53AC97CC 
  45      000090
  46 008a E7253B   		.ascii	"\347%;"
  47              		.text
  48              		.section	.gnu.lto_pools1_setup.345e916c522ac267,"",%progbits
  49 0000 789C6362 		.ascii	"x\234cb`b@\007\222@<\027\210\025\201\230\221\231\201"
  49      60624007 
  49      92403C17 
  49      88158198 
  49      919981
  50 0013 9169C239 		.ascii	"\221i\3029\006\206F\016&FF\020\203\201\221\241\236\211"
  50      0686460E 
  50      26464610 
  50      838191A1 
  50      9E89
  51 0025 B13E9211 		.ascii	"\261>\222\021\254v=\323\201\007\377\377\257\233\322"
  51      AC763DD3 
  51      8107FFFF 
  51      AF9BD2
  52 0034 B6E40EE3 		.ascii	"\266\344\016\343\014&f\240\010+CKC\303\004\005\006\206"
  52      0C2666A0 
  52      082B434B 
  52      43C30405 
  52      0686
  53 0046 64B08A10 		.ascii	"d\260\212\020 \011\322\026\312\310\004\242\231\3173"
  53      2009D216 
  53      CAC804A2 
  53      99CF33
  54 0055 B43DE879 		.ascii	"\264=\350y\314\225\310\270\220\221\025(]\315\360\253"
  54      CC95C8B8 
  54      90911528 
  54      5DCDF0AB 
  55 0065 A1A34120 		.ascii	"\241\243A \223\021\250\034b\"H\204#\223\2211\227\221"
  55      9311A81C 
  55      62224884 
  55      23939131 
  55      9791
  56 0077 01AA2882 		.ascii	"\001\252(\2021\223\221\351\004\023\230\006\332\220\311"
  56      319391E9 
  56      04139806 
  56      DA90C9
  57 0086 C8C2C070 		.ascii	"\310\302\300p\221\241\361A\2572\314\024\010\010\001"
  57      91A1F141 
  57      AF32CC14 
  57      080801
  58 0095 9A00B402 		.ascii	"\232\000\264\002\344!y==}\347\214\314\244L\377`\375"
  58      E421793D 
  58      3D7DE78C 
  58      CCA44CFF 
  58      60FD
  59 00a7 92D4E212 		.ascii	"\222\324\342\022\375\242\0220]\220\237\237S\254\227"
  59      FDA21230 
ARM GAS  /tmp/ccd90TRS.s 			page 4


  59      5D909F9F 
  59      53AC97
  60 00b6 CC0000E1 		.ascii	"\314\000\000\341:3x"
  60      3A3378
  61              		.text
  62              		.section	.gnu.lto_pools1_execute.part.0.345e916c522ac267,"",%progbits
  63 0000 789C9D54 		.ascii	"x\234\235T=h\024Q\020\236yo\337\356\333\237\273\213"
  63      3D681451 
  63      109E796F 
  63      DFEEDB9F 
  63      BB8B
  64 0012 5A09A221 		.ascii	"Z\011\242!\326\336\201`maeea\016\264\214\213\\\026\014"
  64      D6DE8160 
  64      6D616565 
  64      610EB48C 
  64      8B5C160C 
  65 0026 1193CE22 		.ascii	"\021\223\316\"\233\273S\322\004\016m\202Z\030\322\012"
  65      9BBB53D2 
  65      040E6D82 
  65      5A18D20A 
  66 0036 56120958 		.ascii	"V\022\011X\234UNH\2164\222@\212\023%\026ZY\211\205\347"
  66      9C554E48 
  66      8E349240 
  66      8A132516 
  66      5A598985 
  67 004b CCDB9F78 		.ascii	"\314\333\237xw\271B\027\356\315\2337\363\315\314\367"
  67      77B94217 
  67      EECD9B37 
  67      F3CDCCF7 
  68 005b BDDD1320 		.ascii	"\275\335\023 `\370i\321\257c\001\\$\213\005\300\240"
  68      60F869D1 
  68      AF63015C 
  68      248B05C0 
  68      A0
  69 006c B54B9B00 		.ascii	"\265K\233\000\205\261\002-ceb\333\332\022r\265\015\020"
  69      85B1022D 
  69      636562DB 
  69      DA1272B5 
  69      0D10
  70 007e 7BAA5180 		.ascii	"{\252Q\2008P\250M\334\026\376{I\247\316\356\007\012"
  70      3850A84D 
  70      DC16FE7B 
  70      49A7CEEE 
  70      070A
  71 0090 064E72DC 		.ascii	"\006Nr\334\326Z\330I\272k\322]\341\177\254\220\347m"
  71      D65AD849 
  71      BA6BD25D 
  71      E17FAC90 
  71      E76D
  72 00a2 9D27CF43 		.ascii	"\235'\317C\237\263\226\265\217\310\033@X\012\204\264"
  72      9FB396B5 
  72      8FC81B40 
  72      580A84B4 
  73 00b2 94ED68D7 		.ascii	"\224\355h\327\363q\3516\362\2048\005\353q\334\352=:"
  73      F371E936 
  73      F2843805 
  73      EB71DCEA 
ARM GAS  /tmp/ccd90TRS.s 			page 5


  73      3D3A
  74 00c4 7A7B367E 		.ascii	"z{6~Yo\305\277\373}\214\220\270L!\204\010\267\310\301"
  74      596FC5BF 
  74      FB7D8C90 
  74      B84C2184 
  74      08B7C8C1 
  75 00d8 49638435 		.ascii	"Ic\2045H\356\265\210{\375\376\301\017}\016a\006\327"
  75      48EEB588 
  75      7BFDFEC1 
  75      0F7D0E61 
  75      06D7
  76 00ea A9928008 		.ascii	"\251\222\200\010\245L\035\213\035E\213e\363\342\244"
  76      A54C1D8B 
  76      1D458B65 
  76      F3E2A4
  77 00f9 C73AB52E 		.ascii	"\307:\265.\207=\216\370\274\004\354\026xWL\023J\251"
  77      873D8EF8 
  77      BC04EC16 
  77      78574C13 
  77      4AA9
  78 010b A5474193 		.ascii	"\245GA\223f\234\314\374\320L>M+\361\236\306\200\214"
  78      669CCCFC 
  78      D04C3E4D 
  78      2BF19EC6 
  78      808C
  79 011d ACA26003 		.ascii	"\254\242`\003p\000E\036\226\022\202\3037\263\000U\224"
  79      7000451E 
  79      961282C3 
  79      37B30055 
  79      94
  80 012e 402AC91D 		.ascii	"@*\311\035\250\037\356\177\373\2113\270\201\012j(.\301"
  80      A81FEE7F 
  80      FB8933B8 
  80      810A6A28 
  80      2EC1
  81 0140 AB782242 		.ascii	"\253x\"B\365\034\236-\267xg?\204_\361\032\357\2349\323"
  81      F51C9E2D 
  81      B778673F 
  81      845FF11A 
  81      EF9C39D3 
  82 0154 81EB3886 		.ascii	"\201\3538\206j\0151\247\335\005\225\324\000`\300\012"
  82      6A0D31A7 
  82      DD0595D4 
  82      0060C00A 
  83 0164 03749826 		.ascii	"\003t\230&\360\211\216\320\235\303\264\021w\212\320"
  83      F0898ED0 
  83      9DC3B411 
  83      778AD0
  84 0173 03D881C6 		.ascii	"\003\330\201\306Jcs\365z\326_RM3(\003; \222\363\204"
  84      4A6373F5 
  84      7AD65F52 
  84      4D332803 
  84      3B2092F3 
  85 0188 2245935E 		.ascii	"\"E\223^U\264\200.Ov\240\256!\017\022b\033\232G\313"
  85      55B4802E 
  85      4F76A0AE 
  85      210F1262 
ARM GAS  /tmp/ccd90TRS.s 			page 6


  85      1B9A47CB 
  86 019c 4E562B29 		.ascii	"NV+)t|=\007\2005,\012Z\244\\s\271\214\312\304)\245\342"
  86      747C3D07 
  86      80352C0A 
  86      5AA45C73 
  86      B98CCAC4 
  87 01b3 582F368D 		.ascii	"X/6\21586<\275\"\273\320\354mm\344\322X9/?D1\206WD\272"
  87      38363CBD 
  87      22BBD0EC 
  87      6D6DE4D2 
  87      58392F3F 
  88 01cd 33A97D99 		.ascii	"3\251}\231\301\024!\271\272\034P\251\226\350j\312\025"
  88      C11421B9 
  88      BA1C50A9 
  88      96E86ACA 
  88      15
  89 01de C29418A7 		.ascii	"\302\224\030\247\025%c\",\0316\337\363\3566\007\007"
  89      15256322 
  89      2C1936DF 
  89      F3EE3607 
  89      07
  90 01ef 5EB52ADD 		.ascii	"^\265*\335\302\247\313\322(\370\365XA]Cg\274\202:\303"
  90      C2A7CBD2 
  90      28F8F558 
  90      415D4367 
  90      BC823AC3 
  91 0203 6AF87275 		.ascii	"j\370ruH@gX@gD@\247\206%E\002j'\021\320\205=\317\350"
  91      48406758 
  91      40674440 
  91      A7862545 
  91      026A2711 
  92 021c F42ECC40 		.ascii	"\364.\314@\356\277\310\324\315e\362\010y\222L\376\030"
  92      EEBFC8D4 
  92      CD65F208 
  92      79924CFE 
  92      18
  93 022d 992CC68C 		.ascii	"\231,\306\214\312\344\237 \223\007O,\032\362qo\373\263"
  93      CAE49F20 
  93      93074F2C 
  93      1AF2716F 
  93      FBB3
  94 023f 37F28E4E 		.ascii	"7\362\216N\204i\372\350\220\\\352\324D\0268\035\242"
  94      8469FAE8 
  94      905CEAD4 
  94      4416381D 
  94      A2
  95 0250 CAA73FC3 		.ascii	"\312\247?\30336{\235\234u\360\177\254\013\204\034e\375"
  95      33367B9D 
  95      9C75F07F 
  95      AC0B841C 
  95      65FD
  96 0262 D77883A4 		.ascii	"\327x\203\244\015\304\220N\230\371\374\376\356\321\277"
  96      0DC4904E 
  96      98F9FCFE 
  96      EED1BF
  97 0271 D931DD69 		.ascii	"\3311\335i\372\016\032\005\236\340B\271\\\2716\033\335"
  97      FA0E1A05 
ARM GAS  /tmp/ccd90TRS.s 			page 7


  97      9EE042B9 
  97      5CB9361B 
  97      DD
  98 0282 896EDCAC 		.ascii	"\211n\334\254,\336]X\254<X4\366\376\374\374\275\205"
  98      2CDE5D58 
  98      AC3C5834 
  98      F6FEFCFC 
  98      BD85
  99 0294 720818FD 		.ascii	"r\010\030\375\001/G\017\266"
  99      012F470F 
  99      B6
 100              		.text
 101              		.section	.gnu.lto_pools1_execute.345e916c522ac267,"",%progbits
 102 0000 789C9553 		.ascii	"x\234\225S\277k\024Q\020\376\346\275\375\361\356\347"
 102      BF6B1451 
 102      10FEE6BD 
 102      FDF1EEE7 
 103 0010 E6C4C646 		.ascii	"\346\304\306FC\254\275\373\017l\254\254,\314\201\226"
 103      43ACBDFB 
 103      0F6CACAC 
 103      2CCC8196 
 104 0020 7109C982 		.ascii	"q\011\311\202!b\256\263\310\336\355\011\021\014\\%A"
 104      2162AEB3 
 104      C8DEED09 
 104      110C5C25 
 104      41
 105 0031 410D6982 		.ascii	"A\015i\202\010b!XX\030mL 9\005\013\205\024\207\305U"
 105      08622158 
 105      58186D4C 
 105      2039050B 
 105      851487C5 
 106 0046 FE017A8A 		.ascii	"\376\001z\212\347\314\376\270\344LR\270\260o\336\314"
 106      E7CCFEB8 
 106      E44C52B8 
 106      B06FDECC 
 107 0056 9BF9E69B 		.ascii	"\233\371\346\233o\337*(\374\373\314\362{O\003\347\331"
 107      6FDF2A28 
 107      FCFBCCF2 
 107      7B4F03E7 
 107      D9
 108 0067 520EA43A 		.ascii	"R\016\244:{@\323(\262\223\215V\346\235F\230\267\366"
 108      7B40D328 
 108      B2938D56 
 108      E69D4698 
 108      B7F6
 109 0079 7680B068 		.ascii	"v\200\260h%\361-c+\275\272\305\221\274\023\2258\356"
 109      25F12D63 
 109      2BBDBAC5 
 109      91BC1395 
 109      38EE
 110 008b 28F3E62C 		.ascii	"(\363\346,{\356\347\032{.\031\311\"C$\026\204e\245-"
 110      7BEEE71A 
 110      7B2E19C9 
 110      22432416 
 110      8465A52D 
 111 009f DB710D2D 		.ascii	"\333q\015-_'iKSX\017\303N\357n\377\365\231\360i\253"
 111      5F27694B 
ARM GAS  /tmp/ccd90TRS.s 			page 8


 111      53580FC3 
 111      4EEF6EFF 
 111      F599F069 
 112 00b4 13FE190E 		.ascii	"\023\376\031\016) &8E\360\011\327\330\241\311\330(k"
 112      29202638 
 112      45F009D7 
 112      D8A1C9D8 
 112      286B
 113 00c6 9CF10BF5 		.ascii	"\234\361\013\365\2667\034\376~\271\371m\207*\247\011"
 113      B6371CFE 
 113      7EB9F96D 
 113      872AA709 
 114 00d6 33B4CE68 		.ascii	"3\264\316h\026\002\322N\352\030qr\274X\005Y\212i\270"
 114      1602D24E 
 114      EA187172 
 114      BC580559 
 114      8A69B8
 115 00e9 2C614F22 		.ascii	",aO\"\025Y\030\313F\233YL&\307\220\306\374L\363:\360"
 115      155918CB 
 115      469B594C 
 115      26C790C6 
 115      FC4CF33A 
 116 00fe 5027C546 		.ascii	"P'\305F\357\242\265\377\243\377Q\315\320\006\331\230"
 116      EFA2B5FF 
 116      A3FF51CD 
 116      D006D998 
 117 010e 23EB029E 		.ascii	"#\353\002\236\207\023\001\331\217\360\260\331\221\235"
 117      871301D9 
 117      8FF0B0D9 
 117      919D
 118 011c 73078370 		.ascii	"s\007\203pMv\356B\014 \254]d\273\303\334\273p\022\034"
 118      4D76EE42 
 118      0C20AC5D 
 118      64BBC3DC 
 118      BB70121C 
 119 0130 408A56A4 		.ascii	"@\212V\244\310\370\224\344H\304\004\224[ J\223\270\233"
 119      C8F894E4 
 119      48C40494 
 119      5B204A93 
 119      B89B
 120 0142 20E46DA6 		.ascii	" \344m\246[\000\266\321\352=~\237\"$\234\307\032\324"
 120      5B00B6D1 
 120      EA3D7E9F 
 120      22249CC7 
 120      1AD4
 121 0154 49833F8A 		.ascii	"I\203?\212\356\242\335{\262A\031c3jU\364I\235\320*\240"
 121      EEA2DD7B 
 121      B2411963 
 121      336A55F4 
 121      499DD02A 
 122 0169 12B08BE8 		.ascii	"\022\260\213\350\213\316\312r\\)\360:!ng\361\302\010"
 122      8BCECA72 
 122      5C29F03A 
 122      216E67F1 
 122      C208
 123 017b AEEC2787 		.ascii	"\256\354'\2071\013\217\244&\240\011\340\003\332\337"
 123      310B8FA4 
ARM GAS  /tmp/ccd90TRS.s 			page 9


 123      26A009E0 
 123      03DADF
 124 018a 47DD0B72 		.ascii	"G\335\013r8\366\011\353\354>\270\310\302F+\321\257\373"
 124      38F609EB 
 124      EC3EB8C8 
 124      C2462BD1 
 124      AFFB
 125 019c 97B3C4E2 		.ascii	"\227\263\304\342\034Q<\216\014\264\015uxL>\315jm\360"
 125      1C513C8E 
 125      0CB40D75 
 125      784C3ECD 
 125      6A6DF0
 126 01af 95D22C85 		.ascii	"\225\322,\205\301\350\220\342\236\375\246\233a%@\007"
 126      C1E890E2 
 126      9EFDA69B 
 126      61254007 
 127 01bf 5DBF8252 		.ascii	"]\277\202R\245\324\246f0k-'X\016\242R\254\3263?\253"
 127      A5D4A666 
 127      306B2D27 
 127      580EA252 
 127      ACD6333F 
 128 01d4 2CFF8F58 		.ascii	",\377\217X\335\221X\036W\036'V\345\004\261\224\324\034"
 128      DD91581E 
 128      571E2756 
 128      E504B194 
 128      D41C
 129 01e6 15AB728C 		.ascii	"\025\253r\214X.~\272L22GnN\305Os\003:\225L\351\244S"
 129      582E7EBA 
 129      4C323247 
 129      6E4EC54F 
 129      73033A95 
 130 01fe 3AFBAFE6 		.ascii	":\373\257\346\245\326\310\015\376\304\277\361\001\340"
 130      A5D6C80D 
 130      FEC4BFF1 
 130      01E0
 131 020c 34AB35F0 		.ascii	"4\2535\360d\262s\325j\355\322|p#\270r\265\326\230]j"
 131      64B273D5 
 131      6AEDD27C 
 131      7023B872 
 131      B5D6985D 
 132 0221 D46E3762 		.ascii	"\324n7b{kq\361\346R\325\007\005\177\001\226\313\316"
 132      7B6B71F1 
 132      E652D507 
 132      057F0196 
 132      CBCE
 133 0233 CD       		.ascii	"\315"
 134              		.text
 135              		.section	.gnu.lto_.symbol_nodes.345e916c522ac267,"",%progbits
 136 0000 789C4D8C 		.ascii	"x\234M\214QN\302`\020\204g\376\355\332\002\036\000\023"
 136      514EC260 
 136      108467FE 
 136      EDDA021E 
 136      0013
 137 0012 2EE749B6 		.ascii	".\347I\266I\223\242<q\000M \275\004\357\274a\302\031"
 137      4993A23C 
 137      71004D20 
 137      BD04EFBC 
ARM GAS  /tmp/ccd90TRS.s 			page 10


 137      61C219
 138 0025 889E0068 		.ascii	"\210\236\000hUT\300\177\201P\366e\362\315\354L@@\237"
 138      5554C07F 
 138      8150F665 
 138      F2CDEC4C 
 138      40409F
 139 0038 385FD8D0 		.ascii	"8_\330\320\200\361\0220{y~\014[\032[\3245\221\230\204"
 139      80F11230 
 139      7B797E0C 
 139      5B1A5BD4 
 139      35919884 
 140 004c 3D2D5CDC 		.ascii	"=-\\\334\327'\352\027\011C\250ir\363\373\311\240\006"
 140      D727EA17 
 140      0943A869 
 140      72F3FBC9 
 140      A006
 141 005e 6D2851F8 		.ascii	"m(Q\370GK\316a\236\223\2774miG\273k\351\207\226\266"
 141      474BCE61 
 141      9E93BF34 
 141      6D6947BB 
 141      6BE98796 
 142 0073 F44DCBAE 		.ascii	"\364M\313\256$\314P\254\016\024\351\241z;$\"]|,\\3\314"
 142      24CC50AC 
 142      0E14E9A1 
 142      7A3B2422 
 142      5D7C2C5C 
 143 0089 4FDA4331 		.ascii	"O\332C1\252\007\356\317\207\256\221\313\332N<=\246\""
 143      AA07EECF 
 143      87AE91CB 
 143      DA4E3C3D 
 143      A622
 144 009b 1D54B3FA 		.ascii	"\035T\263\372A\364\036\225\357h\354O\242\257q\317s\347"
 144      41F41E95 
 144      EF68EC4F 
 144      A2AF71CF 
 144      73E7
 145 00ad 32F69CBD 		.ascii	"2\366\234\275\257\202\367a\223\342\037eSV:"
 145      AF82F761 
 145      93E21F65 
 145      53563A
 146              		.text
 147              		.section	.gnu.lto_.refs.345e916c522ac267,"",%progbits
 148 0000 789C35C7 		.ascii	"x\2345\307\301\015\0000\010\303\300\304\2052K\367_\020"
 148      C10D0030 
 148      08C3C0C4 
 148      85324BF7 
 148      5F10
 149 0012 A48AF3CB 		.ascii	"\244\212\363\313\010=}6\324Q\260\004\221\373\276\324"
 149      083D7D36 
 149      D451B004 
 149      91FBBED4 
 150 0022 64520D10 		.ascii	"dR\015\020\271\000\224"
 150      B90094
 151              		.text
 152              		.section	.gnu.lto_.decls.345e916c522ac267,"",%progbits
 153 0000 789C9D58 		.ascii	"x\234\235X[l\024U\030>gv[Z\272\224\213B\312\305v1B\002"
 153      5B6C1455 
ARM GAS  /tmp/ccd90TRS.s 			page 11


 153      183E6776 
 153      5B5ABA94 
 153      8B42CAC5 
 154 0018 B1BB94D4 		.ascii	"\261\273\224\324\204'\012\222(\032\025\242!\361m\235"
 154      84270A92 
 154      281A15A2 
 154      21F16D9D 
 155 0028 EE1ED89A 		.ascii	"\356\036\330\232v\267\314N\005\364\301S\256\225 \226"
 155      76B7CC4E 
 155      05F4C153 
 155      AE952096 
 156 0038 82A1154A 		.ascii	"\202\241\025JZ\271\010>\030\020\205\007\002n\252\266"
 156      5AB9083E 
 156      18108507 
 156      026EAAB6 
 157 0048 2B068280 		.ascii	"+\006\202\200\"b\311F\340\001\004, 6 \260\376\347\262"
 157      2262C946 
 157      E001042C 
 157      203620B0 
 157      FEE7B2
 158 005b BB33D399 		.ascii	"\2733\323\231\245\365$\377\316\2313\377\345\373/\347"
 158      A5F524FF 
 158      CE9933FF 
 158      E5FB2FE7 
 159 006b 9CBF5590 		.ascii	"\234\277U\220\202\256c\204R0v\216A\250AA(\017!4\033"
 159      82AE6384 
 159      5230768E 
 159      41A84141 
 159      280F2134 
 160 0080 8967A77C 		.ascii	"\211g\247|\036\002:\000t\004\211Q\010t\024\250\013\250"
 160      1E023A00 
 160      74048951 
 160      087414A8 
 160      0BA8
 161 0092 1BE838D0 		.ascii	"\033\3508\320\011\2403@\277\002\375\016t\031\310\015"
 161      09A03340 
 161      BF02FD0E 
 161      7419C80D 
 162 00a2 740DE806 		.ascii	"t\015\350\006\320m\240\021\030\231\006\323\301\226\252"
 162      D06DA011 
 162      189906D3 
 162      C196AA
 163 00b1 E43B966B 		.ascii	"\344;\226k\326\321%q\224`3\246\223\362\273\"yNH\035"
 163      D6D12571 
 163      946033A6 
 163      93F2BB22 
 163      794E481D 
 164 00c5 D72CF20C 		.ascii	"\327,\362\014\343\223\022O1\220G\332\274\010\364\027"
 164      E393124F 
 164      319047DA 
 164      BC08F417 
 165 00d5 D04DA0F1 		.ascii	"\320M\240\361 8A\352?\0134\021\346\347\3419\011\013"
 165      203841EA 
 165      3F0B3411 
 165      E6E7E139 
 165      090B
 166 00e7 7BBDD27E 		.ascii	"{\275\322~:\016i\333\371R\277\321\367\023\322\017E\372"
ARM GAS  /tmp/ccd90TRS.s 			page 12


 166      3A0E69DB 
 166      F952BFD1 
 166      F713D20F 
 166      45FA
 167 00f9 6EC5C3E2 		.ascii	"n\305\303\342\365\304 \360<%\3610\233W\0340\225\302"
 167      F5C420F0 
 167      3C25F130 
 167      9B571C30 
 167      95C2
 168 010b BC47EACD 		.ascii	"\274G\352\315\223\272/\033\260t\347\300Q\204\326S\272"
 168      93BA2F1B 
 168      B074E7C0 
 168      5184D653 
 168      BA
 169 011c 9276ACA5 		.ascii	"\222v\254\245\363\023\305c\320&\012\303\233\000Dob\025"
 169      F313C563 
 169      D0260AC3 
 169      9B00446F 
 169      6215
 170 012e 1717A2B7 		.ascii	"\027\027\242\267\370\304S\310\001NA\273(mN~\177\251"
 170      F8C453C8 
 170      014E41BB 
 170      286D4E7E 
 170      7FA9
 171 0140 84BA55FC 		.ascii	"\204\272U\374)\036\003j\247a4\035\355\003\251fJ\377"
 171      291E036A 
 171      A761341D 
 171      ED03A966 
 171      4AFF
 172 0152 98383071 		.ascii	"\23080q\350qJ\021R\361\036P\245\342\335x\2720A\343\233"
 172      E8714A11 
 172      52F11E50 
 172      A5E2DD78 
 172      BA3041E3 
 173 0167 BA3DCC04 		.ascii	"\272=\314\004[G\362\213\315\230\214:\000||\363\332\366"
 173      5B47F28B 
 173      CD988C3A 
 173      007C7CF3 
 173      DAF6
 174 0179 F1B4A30B 		.ascii	"\361\264\243\013\333\371\322\221o\260\353M\333u\363"
 174      DBF9D291 
 174      6FB0EB4D 
 174      DB75F3
 175 0188 88CCC6A0 		.ascii	"\210\314\306\240\372s\253\351[\252W\254>\336\360\235"
 175      FA73ABE9 
 175      5BAA57AC 
 175      3EDEF09D 
 176 0198 AB3F60DA 		.ascii	"\253?`\332\342Q\361>\260\255\240\227\323\372\354\314"
 176      E251F13E 
 176      B0ADA097 
 176      D3FAECCC 
 177 01a8 C9A91892 		.ascii	"\311\251\030\222\301:\354\344\030\012\246^\016\005\275"
 177      C13AECE4 
 177      180AA65E 
 177      0E05BD
 178 01b7 8E65C086 		.ascii	"\216e\300\206hEb\376\270{;\017V!j\312\006\313\336\264"
 178      684562FE 
ARM GAS  /tmp/ccd90TRS.s 			page 13


 178      B87B3B0F 
 178      56216ACA 
 178      06CBDEB4 
 179 01cb 4CF7DDB5 		.ascii	"L\367\335\265\277\334\301+)\205\017\007@LA\275\030\233"
 179      BFDCC12B 
 179      29850F07 
 179      404C41BD 
 179      189B
 180 01dd 42A3E23C 		.ascii	"B\243\342<\223/\374=\315\300\364\361\317r\302\016\232"
 180      932FFC3D 
 180      CDC0F4F1 
 180      CF72C20E 
 180      9A
 181 01ee 91CC8FCB 		.ascii	"\221\314\217\313x\250\216x\215\216$\327\\J\270\332h"
 181      78A88E78 
 181      8D8E24D7 
 181      5C4AB8DA 
 181      68
 182 01ff 7CB5CB94 		.ascii	"|\265\313\224\366q\350c\236\366\265\200WWqU\221cP\017"
 182      F671E863 
 182      9EF6B580 
 182      57577155 
 182      9163500F 
 183 0213 E3717CE6 		.ascii	"\343q|\346\342{\003\011\347T\274\310\2253\0352&\347"
 183      E27B0309 
 183      E754BCC8 
 183      95331D32 
 183      26E7
 184 0225 3E3A3C8D 		.ascii	">:<\215\322\002\025\037\342\231oS\314\0211A\022\246"
 184      D202151F 
 184      E2996F53 
 184      CC113141 
 184      12A6
 185 0237 9C601C01 		.ascii	"\234`\034\001\005\366u6\340\233\202\366(\203\210YA\256"
 185      05F67536 
 185      E09B82F6 
 185      28838859 
 185      41AE
 186 0249 1233E9CF 		.ascii	"\0223\351\317n;\025\177\206\247\300\357^<\031~\367\363"
 186      6E3B157F 
 186      86A7C0EF 
 186      5E3C197E 
 186      F7F3
 187 025b DFAFE137 		.ascii	"\337\257\3417g,\230\212\316li\226\241\035\364T_\362"
 187      672C988A 
 187      CE6C6996 
 187      A11DF454 
 187      5FF2
 188 026d E7CDC74A 		.ascii	"\347\315\307JY^h*\365\276\014\263\202N[\002\364\014"
 188      595E682A 
 188      F5BE0CB3 
 188      824E5B02 
 188      F40C
 189 027f DA49690B 		.ascii	"\332Ii\013\335J\346\247\213*\3119\216\3422[S\202\013"
 189      DD4AE6A7 
 189      8B2AC939 
 189      8EE2325B 
ARM GAS  /tmp/ccd90TRS.s 			page 14


 189      53820B
 190 0292 C654B49B 		.ascii	"\306T\264\233E\366\350\345\205\363yvQ\016!\011\361\030"
 190      45F6E8E5 
 190      85F37976 
 190      510E2109 
 190      F118
 191 02a4 568C6E33 		.ascii	"V\214n3\230\361>\330\007\033a\037\254\214\247RU\310"
 191      98F13ED8 
 191      071B611F 
 191      AC8CA752 
 191      55C8
 192 02b6 5234B3C7 		.ascii	"R4\263\307:\272\373\255,\232l\235(\350\212\3057\011"
 192      3ABAFBAD 
 192      2C9A6C9D 
 192      28E88AC5 
 192      3709
 193 02c8 12C65EEA 		.ascii	"\022\306^\352\342\332\030\177\027\2004\005\377;[X;\272"
 193      E2DA187F 
 193      17803405 
 193      FF3B5B58 
 193      3BBA
 194 02da 37143437 		.ascii	"7\02447&S\251\262\301\203\352\261\001u\333\036T\263"
 194      2653A9B2 
 194      C183EAB1 
 194      0175DB1E 
 194      54B3
 195 02ec 1954B715 		.ascii	"\031T\267\025T\302\016\024\375\222\322BHg\212*\"\002"
 195      54C20E14 
 195      FD92D242 
 195      48678A2A 
 195      2202
 196 02fe 0A6A720D 		.ascii	"\012jr\015\306\347\343V\365?\016T\237lN\256\351\217"
 196      C6E7E356 
 196      F53F0E54 
 196      9F6C4EAE 
 196      E98F
 197 0310 E336DA25 		.ascii	"\3436\332%*f\360n\237\264n`V\213\246\335l\374xH\024"
 197      2A66F06E 
 197      9FB46E60 
 197      568BA6DD 
 197      6CFC7848 
 198 0325 AA69832B 		.ascii	"\252i\203+h\353\000?\004\323i;\240\361\323=\033(\036"
 198      68EB003F 
 198      04D3693B 
 198      A0F1D33D 
 198      1B281E
 199 0338 6A76CEE6 		.ascii	"jv\316\346\204Ye\207j\257\003\252s\266\250\276\351\331"
 199      84596587 
 199      6AAF03AA 
 199      73B6A8BE 
 199      E9D9
 200 034a 309E76DA 		.ascii	"0\236v\332Vr\216\343\357\274\035,\013\216\203\0168."
 200      56728EE3 
 200      EFBC1D2C 
 200      0B8E830E 
 200      382E
 201 035c D8A631B5 		.ascii	"\330\2461\265\255\267\021oZ\325\221\240}\354\2107A)"
ARM GAS  /tmp/ccd90TRS.s 			page 15


 201      ADB7116F 
 201      5AD591A0 
 201      7DEC8837 
 201      4129
 202 036e 40EBD8B6 		.ascii	"@\353\330\266M\256\241\215xi\3464)H\203b\035\233\270"
 202      4DAEA18D 
 202      7869E634 
 202      29488362 
 202      1D9BB8
 203 0381 7EA140A1 		.ascii	"~\241@\241\310.\342\0020\377\233\313\322,f\0210\006"
 203      C82EE202 
 203      30FF9BCB 
 203      D22C6611 
 203      3006
 204 0393 3698BC98 		.ascii	"6\230\274\230\247g\330\371\254\352\265\272\014\327Q"
 204      A767D8F9 
 204      ACEAB5BA 
 204      0CD751
 205 03a2 662E355A 		.ascii	"f.5Z\"\220t\210\300%\333\010\354\352O\340\246\026\372"
 205      22907488 
 205      C025DB08 
 205      ECEA4FE0 
 205      A616FA
 206 03b5 2095720D 		.ascii	" \225r\015\241\216\257\014\242@\254em\201y\303\001\346"
 206      A18EAF0C 
 206      A240AC65 
 206      6D8179C3 
 206      01E6
 207 03c7 5533CCA7 		.ascii	"U3\314\247Q'\215\237J\236=\363\025\206\243\217\322G"
 207      51278D9F 
 207      4A9E3DF3 
 207      1586A38F 
 207      D247
 208 03d9 A9144EF7 		.ascii	"\251\024N\367q\0173*\234\232\264?\245\262Jt\2206\305"
 208      710F332A 
 208      9C9AB43F 
 208      A5B24A74 
 208      9036C5
 209 03ec 67084171 		.ascii	"g\010Aqe0N\321\244\210\313C\336\365\011E^#\354\375\210"
 209      65304ED1 
 209      A488CB43 
 209      DEF50945 
 209      5E23ECFD 
 210 0401 BC291888 		.ascii	"\274)\030\210>\250\226\013\327W\342\315\024\252\205"
 210      3EA8960B 
 210      D757E2CD 
 210      14AA85
 211 0410 42E5E2B2 		.ascii	"B\345\342\262\321\250Y\266\211\231\3133\316/\317\034"
 211      D1A859B6 
 211      8999CB33 
 211      CE2FCF1C 
 212 0420 91ABB2BD 		.ascii	"\221\253\262\275:\263\232\322\321\223\354}x4\262\037"
 212      3AB39AD2 
 212      D193EC7D 
 212      7834B21F 
 213 0430 0A6A745B 		.ascii	"\012jt[#\250\342[\331\3501\320\373\343p\267\375\375"
 213      23A8E25B 
ARM GAS  /tmp/ccd90TRS.s 			page 16


 213      D9E831D0 
 213      FBE370B7 
 213      FDFD
 214 0442 13DE42A9 		.ascii	"\023\336B\251\005t\307\034\013\352t\363\011\27174W\024"
 214      0574C71C 
 214      0BEA74F3 
 214      09B93734 
 214      5714
 215 0454 A71D18C5 		.ascii	"\247\035\030\305m\256\006\2336\335\261\231M\305\377"
 215      6DAE069B 
 215      36DDB199 
 215      4DC5FF
 216 0463 6016C67E 		.ascii	"`\026\306~K\237\012\001<Z\302[\220\376A\365\252\367"
 216      4B9F0A01 
 216      3C5AC25B 
 216      90FE41F5 
 216      AAF7
 217 0475 1E2658AF 		.ascii	"\036&X\257j\352Ld\017\230\334\035/i-~\334\256\3140\323"
 217      6AEA4C64 
 217      0F98DC1D 
 217      2F692D7E 
 217      DCAECC30 
 218 048a 92127B5E 		.ascii	"\222\022{^\025?\340M\304CQ\243\374\223\230\247g)\314"
 218      153FE04D 
 218      C44351A3 
 218      FC9398A7 
 218      6729CC
 219 049d FCFED0ED 		.ascii	"\374\376\320\355\270\257s\213:\325\301}c\177\334\302"
 219      B8AF738B 
 219      3AD5C17D 
 219      637FDCC2 
 220 04ad 33D9FFBF 		.ascii	"3\331\377\277\033\344\177\257\016\014\224\270\366\234"
 220      1BE47FAF 
 220      0E0C94B8 
 220      F69C
 221 04bb CC372A06 		.ascii	"\3147*\006\363[\207l\336k2\377\200$f\010\225\012j\037"
 221      F35B876C 
 221      DE6B32FF 
 221      80246608 
 221      950A6A1F 
 222 04cf 8C2EBB76 		.ascii	"\214.\273vO\352zd\320\265g\310\272\274\003\262#*L\305"
 222      4FEA7A64 
 222      D0B567C8 
 222      BABC03B2 
 222      232A4CC5 
 223 04e3 F7787F48 		.ascii	"\367x\177H\025\366\273\212\377\256Q\036\333+Z\002z\327"
 223      15F6BB8A 
 223      FFAE511E 
 223      DB2B5A02 
 223      7AD7
 224 04f5 0109D3BF 		.ascii	"\001\011\323\277.\033P\263\3129f\240\206\355'\204\354"
 224      2E1B50B3 
 224      CA3966A0 
 224      86ED2784 
 224      EC
 225 0506 D954DCA4 		.ascii	"\331T\334\244\210\235\317k\230f0\000\207\023\204\017"
 225      889DCF6B 
ARM GAS  /tmp/ccd90TRS.s 			page 17


 225      98663000 
 225      8713840F 
 226 0516 946C217A 		.ascii	"\224l!z\012\263\023c\345f\271 \276_\270-\347\347\000"
 226      0AB31363 
 226      E566B920 
 226      BE5FB82D 
 226      E7E700
 227 0529 10EB15E3 		.ascii	"\020\353\025\343\371\011\177d\336\201\363(\223\267\367"
 227      F9097F64 
 227      DE81F328 
 227      93B7F7
 228 0538 D07DDA4A 		.ascii	"\320}\332J\341\204\271[!|\341\347\344\251x\333\272v"
 228      E184B95B 
 228      217CE1E7 
 228      E4A978DB 
 228      BA76
 229 054a E3617D97 		.ascii	"\343a}\227\037\326G\254\306\314g\006\263\266\021\254"
 229      1FD647AC 
 229      C6CC6706 
 229      B3B611AC 
 230 055a 95A26E77 		.ascii	"\225\242nw;-0X\235#4\210\024\012\223\361m=\346\277\234"
 230      3B2D3058 
 230      9D233488 
 230      140A93F1 
 230      6D3DE6BF 
 231 056f D3E7676B 		.ascii	"\323\347gk\261\330y\322D2cb\2224\261y\310Q\335\342\020"
 231      B1D879D2 
 231      44326362 
 231      9234B179 
 231      C851DDE2 
 232 0584 D5F4FF0D 		.ascii	"\325\364\377\015\234\344Z\262\005Q\212\316\203O\255"
 232      9CE45AB2 
 232      05518ACE 
 232      834FAD
 233 0593 73B2E645 		.ascii	"s\262\346E%2g\232h|\3730Q\360\231\206[T(\323'\266\251"
 233      2532679A 
 233      687CFB30 
 233      51F09986 
 233      5B5428D3 
 234 05aa A855C9BD 		.ascii	"\250U\311\275?\303mlU%\012\341o\272\026-\345{2\307y"
 234      3FC36D6C 
 234      55250AE1 
 234      6FBA162D 
 234      E57B32C7 
 235 05bf D09A456B 		.ascii	"\320\232Ek\221\272\231\315\370\000\2516G\251\2639l}"
 235      91BA99CD 
 235      F800A936 
 235      47A9B339 
 235      6C7D
 236 05d1 E228753E 		.ascii	"\342(u>\207\3246G\251\336\034R\333\035\245\256\344\220"
 236      87D43647 
 236      A9DE1C52 
 236      DB1DA5AE 
 236      E490
 237 05e3 6A7794EA 		.ascii	"jw\224\352\311!\265\303p\004L\365\371\374\363\3025\325"
 237      C921B5C3 
 237      70044CF5 
ARM GAS  /tmp/ccd90TRS.s 			page 18


 237      F9FCF3C2 
 237      35D5
 238 05f5 350BDEF0 		.ascii	"5\013\336\360Gc~M\367\327D\202\265\015!\342\017\206"
 238      47637E4D 
 238      F7D74482 
 238      B50D21E2 
 238      0F86
 239 0607 EB485D7D 		.ascii	"\353H]}4Z\033\363\205\321\010\230G\265\025\001\366\036"
 239      345A1BF3 
 239      85D10898 
 239      47B51501 
 239      F61E
 240 0619 D0F35F7C 		.ascii	"\320\363_|m\221w\036*\342oa\242\206\2106\254>\034\210"
 240      6D91771E 
 240      2AE26F61 
 240      A2868836 
 240      AC3E1C88 
 241 062d 90E5FAB0 		.ascii	"\220\345\372\260\272z\376l\304\376\310\342\030\243\347"
 241      BA7AFE6C 
 241      C4FEC8E2 
 241      18A3E7
 242 063c FCE1681D 		.ascii	"\374\341h\035\361k$FT-\030\366\207U-\264L\325\210_\325"
 242      F16B2446 
 242      542D18F6 
 242      87552DB4 
 242      4CD5885F 
 243 0651 EA66FA97 		.ascii	"\352f\372\227\004\203\3450)'u\325$\024\"\241\314B$\032"
 243      0483E530 
 243      292775D5 
 243      241422A1 
 243      CC42241A 
 244 0665 21E544AD 		.ascii	"!\345D\255\256)\257\014\314*\2379\243\242r\351L\177"
 244      AE29AF0C 
 244      CC2A9F39 
 244      A3A272E9 
 244      4C7F
 245 0677 6D4D3563 		.ascii	"mM5c\360\233\030\374\225\276Y\276\312\014\356\230\016"
 245      F09B18FC 
 245      95BE59BE 
 245      CA0CEE98 
 245      0E
 246 0688 7A1603E6 		.ascii	"z\026\003\346\374X\315\273$\240\027\003\242h\365\333"
 246      FC58CDBB 
 246      24A01703 
 246      A268F5DB 
 247 0698 24A807D8 		.ascii	"$\250\007\330\302\224\334\016\007\243\032\001Y\017L"
 247      C294DC0E 
 247      07A31A01 
 247      590F4C
 248 06a7 97107D71 		.ascii	"\227\020}qC$\030\320\213@C\275\026}\247\006\374,3\210"
 248      432418D0 
 248      8B4043BD 
 248      167DA706 
 248      FC2C3388 
 249 06bb EB24A633 		.ascii	"\353$\2463\005\354)\002\025D#\"\015\265\265\031n7\263"
 249      05EC2902 
 249      15442322 
ARM GAS  /tmp/ccd90TRS.s 			page 19


 249      0DB5B519 
 249      6E37B3
 250 06ce E8E1DF2A 		.ascii	"\350\341\337*\0021\2427\324\217\225/d9\0116\350\304"
 250      0231A237 
 250      D48F952F 
 250      64390936 
 250      E8C4
 251 06e0 57AF6ABA 		.ascii	"W\257j\272oF\261yuT0\274\020\026\026p\324/Ej\364\341"
 251      6F46B179 
 251      755430BC 
 251      10161670 
 251      D42F456A 
 252 06f6 62E1058D 		.ascii	"b\341\005\215\220\"1\235[[\033\015Np\000\003\016\344"
 252      9022319D 
 252      5B5B1B0D 
 252      4E700003 
 252      0EE4
 253 0708 059E072E 		.ascii	"\005\236\007.O\200\275\006\324X\214h\372H!\371JT\015"
 253      4F80BD06 
 253      D4588C68 
 253      FA4821F9 
 253      4A540D
 254 071b CDD53475 		.ascii	"\315\3254u\205\253\256\276BY\246\0260\226\240\032#\356"
 254      85ABAEBE 
 254      4259A616 
 254      3096A01A 
 254      23EE
 255 072d 20A4C61D 		.ascii	" \244\306\035Q\353H\036\207\012\037 U\321e\221a\022"
 255      51EB481E 
 255      870A1F20 
 255      55D16591 
 255      6112
 256 073f 96A75ED5 		.ascii	"\226\247^\325u\242E8\330\341\031\257+\306\370\264hH"
 256      75A24538 
 256      D8E119AF 
 256      2BC6F8B4 
 256      6848
 257 0751 D5555F76 		.ascii	"\325U_vi\322\253\274^\274\314`\354Y\357\322\006\322"
 257      69D2ABBC 
 257      5EBCCC60 
 257      EC59EFD2 
 257      06D2
 258 0763 40FC21C2 		.ascii	"@\374!\302\237\350?o\256{\222"
 258      9FE83F6F 
 258      AE7B92
 259              		.text
 260              		.section	.gnu.lto_.symtab.345e916c522ac267,"",%progbits
 261 0000 70617474 		.ascii	"patternpools\000\000\000\000\000\000\000\000\000\000"
 261      65726E70 
 261      6F6F6C73 
 261      00000000 
 261      00000000 
 262 0016 0000F200 		.ascii	"\000\000\362\000\000\000testpools1\000\000\000\000\000"
 262      00007465 
 262      7374706F 
 262      6F6C7331 
 262      00000000 
ARM GAS  /tmp/ccd90TRS.s 			page 20


 263 002b 00000000 		.ascii	"\000\000\000\000\000\000\000\015\001\000\000wa\000\000"
 263      0000000D 
 263      01000077 
 263      610000
 264 003a 02000000 		.ascii	"\002\000\000\000\000\000\000\000\000\000\355\000\000"
 264      00000000 
 264      0000ED00 
 264      00
 265 0047 00636850 		.ascii	"\000chPoolObjectInit\000\000\002\000\000\000\000\000"
 265      6F6F6C4F 
 265      626A6563 
 265      74496E69 
 265      74000002 
 266 0060 00000000 		.ascii	"\000\000\000\000\315\000\000\000chPoolFree\000\000\002"
 266      CD000000 
 266      6368506F 
 266      6F6C4672 
 266      65650000 
 267 0075 00000000 		.ascii	"\000\000\000\000\000\000\000\000\000\323\000\000\000"
 267      00000000 
 267      00D30000 
 267      00
 268 0082 6368506F 		.ascii	"chPoolAlloc\000\000\002\000\000\000\000\000\000\000"
 268      6F6C416C 
 268      6C6F6300 
 268      00020000 
 268      00000000 
 269 0097 0000D800 		.ascii	"\000\000\330\000\000\000_test_assert\000\000\002\000"
 269      00005F74 
 269      6573745F 
 269      61737365 
 269      72740000 
 270 00ad 00000000 		.ascii	"\000\000\000\000\000\000\000\000\334\000\000\000chP"
 270      00000000 
 270      DC000000 
 270      636850
 271 00bc 6F6F6C4C 		.ascii	"oolLoadArray\000\000\002\000\000\000\000\000\000\000"
 271      6F616441 
 271      72726179 
 271      00000200 
 271      00000000 
 272 00d2 0000E400 		.ascii	"\000\000\344\000\000\000"
 272      0000
 273              		.text
 274              		.section	.gnu.lto_.opts,"",%progbits
 275 0000 272D6D63 		.ascii	"'-mcpu=cortex-m4' '-mno-thumb-interwork' '-mthumb' "
 275      70753D63 
 275      6F727465 
 275      782D6D34 
 275      2720272D 
 276 0033 272D6767 		.ascii	"'-ggdb' '-O2' '-fomit-frame-pointer' '-falign-funct"
 276      64622720 
 276      272D4F32 
 276      2720272D 
 276      666F6D69 
 277 0066 696F6E73 		.ascii	"ions=16' '-ffunction-sections' '-fdata-sections' '-"
 277      3D313627 
ARM GAS  /tmp/ccd90TRS.s 			page 21


 277      20272D66 
 277      66756E63 
 277      74696F6E 
 278 0099 666E6F2D 		.ascii	"fno-common' '-flto'\000"
 278      636F6D6D 
 278      6F6E2720 
 278      272D666C 
 278      746F2700 
 279              		.text
 280              		.cfi_sections	.debug_frame
 281              		.section	.text.null_provider,"ax",%progbits
 282              		.align	2
 283              		.p2align 4,,15
 284              		.thumb
 285              		.thumb_func
 286              		.type	null_provider, %function
 287              	null_provider:
 288              	.LFB241:
 289              		.file 1 "../ChibiOS/test/rt/testpools.c"
 290              		.loc 1 60 0
 291              		.cfi_startproc
 292              		@ args = 0, pretend = 0, frame = 0
 293              		@ frame_needed = 0, uses_anonymous_args = 0
 294              		@ link register save eliminated.
 295              	.LVL0:
 296              		.loc 1 64 0
 297 0000 0020     		movs	r0, #0
 298              	.LVL1:
 299 0002 7047     		bx	lr
 300              		.cfi_endproc
 301              	.LFE241:
 302              		.size	null_provider, .-null_provider
 303 0004 AFF30080 		.section	.text.pools1_setup,"ax",%progbits
 303      AFF30080 
 303      AFF30080 
 304              		.align	2
 305              		.p2align 4,,15
 306              		.thumb
 307              		.thumb_func
 308              		.type	pools1_setup, %function
 309              	pools1_setup:
 310              	.LFB242:
 311              		.loc 1 66 0
 312              		.cfi_startproc
 313              		@ args = 0, pretend = 0, frame = 0
 314              		@ frame_needed = 0, uses_anonymous_args = 0
 315              		@ link register save eliminated.
 316              		.loc 1 68 0
 317 0000 0248     		ldr	r0, .L3
 318 0002 4FF4A471 		mov	r1, #328
 319 0006 0022     		movs	r2, #0
 320 0008 FFF7FEBF 		b	chPoolObjectInit
 321              	.LVL2:
 322              	.L4:
 323              		.align	2
 324              	.L3:
 325 000c 00000000 		.word	.LANCHOR0
ARM GAS  /tmp/ccd90TRS.s 			page 22


 326              		.cfi_endproc
 327              	.LFE242:
 328              		.size	pools1_setup, .-pools1_setup
 329              		.section	.text.pools1_execute,"ax",%progbits
 330              		.align	2
 331              		.p2align 4,,15
 332              		.thumb
 333              		.thumb_func
 334              		.type	pools1_execute, %function
 335              	pools1_execute:
 336              	.LFB243:
 337              		.loc 1 71 0
 338              		.cfi_startproc
 339              		@ args = 0, pretend = 0, frame = 0
 340              		@ frame_needed = 0, uses_anonymous_args = 0
 341 0000 38B5     		push	{r3, r4, r5, lr}
 342              		.cfi_def_cfa_offset 16
 343              		.cfi_offset 3, -16
 344              		.cfi_offset 4, -12
 345              		.cfi_offset 5, -8
 346              		.cfi_offset 14, -4
 347              		.loc 1 75 0
 348 0002 2C4B     		ldr	r3, .L18
 349 0004 2C48     		ldr	r0, .L18+4
 350 0006 1D68     		ldr	r5, [r3]
 351 0008 0522     		movs	r2, #5
 352 000a 2946     		mov	r1, r5
 353 000c FFF7FEFF 		bl	chPoolLoadArray
 354              	.LVL3:
 355 0010 0524     		movs	r4, #5
 356              	.LVL4:
 357              	.L9:
 358              		.loc 1 79 0
 359 0012 2948     		ldr	r0, .L18+4
 360 0014 FFF7FEFF 		bl	chPoolAlloc
 361              	.LVL5:
 362 0018 011C     		adds	r1, r0, #0
 363 001a 18BF     		it	ne
 364 001c 0121     		movne	r1, #1
 365 001e 0120     		movs	r0, #1
 366 0020 FFF7FEFF 		bl	_test_assert
 367              	.LVL6:
 368 0024 A0BB     		cbnz	r0, .L5
 369              		.loc 1 78 0
 370 0026 013C     		subs	r4, r4, #1
 371              	.LVL7:
 372 0028 F3D1     		bne	.L9
 373              		.loc 1 82 0
 374 002a 2348     		ldr	r0, .L18+4
 375 002c FFF7FEFF 		bl	chPoolAlloc
 376              	.LVL8:
 377 0030 D0F10101 		rsbs	r1, r0, #1
 378 0034 38BF     		it	cc
 379 0036 0021     		movcc	r1, #0
 380 0038 0220     		movs	r0, #2
 381 003a FFF7FEFF 		bl	_test_assert
 382              	.LVL9:
ARM GAS  /tmp/ccd90TRS.s 			page 23


 383 003e 38BB     		cbnz	r0, .L5
 384 0040 1C4C     		ldr	r4, .L18
 385              	.LVL10:
 386              	.LBB4:
 387              	.LBB5:
 388              		.loc 1 86 0
 389 0042 1D48     		ldr	r0, .L18+4
 390              	.LBE5:
 391              	.LBE4:
 392              		.loc 1 82 0
 393 0044 2946     		mov	r1, r5
 394 0046 04F11005 		add	r5, r4, #16
 395              	.LBB8:
 396              	.LBB6:
 397              		.loc 1 86 0
 398 004a FFF7FEFF 		bl	chPoolFree
 399              	.LVL11:
 400              		.loc 1 85 0
 401 004e AC42     		cmp	r4, r5
 402 0050 06D0     		beq	.L11
 403              	.L16:
 404 0052 54F8041F 		ldr	r1, [r4, #4]!
 405              		.loc 1 86 0
 406 0056 1848     		ldr	r0, .L18+4
 407 0058 FFF7FEFF 		bl	chPoolFree
 408              	.LVL12:
 409              		.loc 1 85 0
 410 005c AC42     		cmp	r4, r5
 411 005e F8D1     		bne	.L16
 412              	.L11:
 413 0060 0524     		movs	r4, #5
 414              	.L14:
 415              	.LVL13:
 416              		.loc 1 90 0
 417 0062 1548     		ldr	r0, .L18+4
 418 0064 FFF7FEFF 		bl	chPoolAlloc
 419              	.LVL14:
 420 0068 011C     		adds	r1, r0, #0
 421 006a 18BF     		it	ne
 422 006c 0121     		movne	r1, #1
 423 006e 0320     		movs	r0, #3
 424 0070 FFF7FEFF 		bl	_test_assert
 425              	.LVL15:
 426 0074 60B9     		cbnz	r0, .L5
 427              		.loc 1 89 0
 428 0076 013C     		subs	r4, r4, #1
 429              	.LVL16:
 430 0078 F3D1     		bne	.L14
 431              		.loc 1 93 0
 432 007a 0F48     		ldr	r0, .L18+4
 433 007c FFF7FEFF 		bl	chPoolAlloc
 434              	.LVL17:
 435 0080 D0F10101 		rsbs	r1, r0, #1
 436 0084 38BF     		it	cc
 437 0086 0021     		movcc	r1, #0
 438 0088 0420     		movs	r0, #4
 439 008a FFF7FEFF 		bl	_test_assert
ARM GAS  /tmp/ccd90TRS.s 			page 24


 440              	.LVL18:
 441 008e 00B1     		cbz	r0, .L17
 442              	.LVL19:
 443              	.L5:
 444 0090 38BD     		pop	{r3, r4, r5, pc}
 445              	.LVL20:
 446              	.L17:
 447              		.loc 1 96 0
 448 0092 1021     		movs	r1, #16
 449 0094 0848     		ldr	r0, .L18+4
 450 0096 094A     		ldr	r2, .L18+8
 451 0098 FFF7FEFF 		bl	chPoolObjectInit
 452              	.LVL21:
 453              		.loc 1 97 0
 454 009c 0648     		ldr	r0, .L18+4
 455 009e FFF7FEFF 		bl	chPoolAlloc
 456              	.LVL22:
 457 00a2 D0F10101 		rsbs	r1, r0, #1
 458 00a6 38BF     		it	cc
 459 00a8 0021     		movcc	r1, #0
 460 00aa 0520     		movs	r0, #5
 461              	.LBE6:
 462              	.LBE8:
 463              		.loc 1 98 0
 464 00ac BDE83840 		pop	{r3, r4, r5, lr}
 465              	.LVL23:
 466              	.LBB9:
 467              	.LBB7:
 468              		.loc 1 97 0
 469 00b0 FFF7FEBF 		b	_test_assert
 470              	.LVL24:
 471              	.L19:
 472              		.align	2
 473              	.L18:
 474 00b4 00000000 		.word	wa
 475 00b8 00000000 		.word	.LANCHOR0
 476 00bc 00000000 		.word	null_provider
 477              	.LBE7:
 478              	.LBE9:
 479              		.cfi_endproc
 480              	.LFE243:
 481              		.size	pools1_execute, .-pools1_execute
 482              		.global	patternpools
 483              		.global	testpools1
 484              		.section	.rodata.str1.4,"aMS",%progbits,1
 485              		.align	2
 486              	.LC0:
 487 0000 4D656D6F 		.ascii	"Memory Pools, queue/dequeue\000"
 487      72792050 
 487      6F6F6C73 
 487      2C207175 
 487      6575652F 
 488              		.section	.rodata.patternpools,"a",%progbits
 489              		.align	2
 490              		.type	patternpools, %object
 491              		.size	patternpools, 8
 492              	patternpools:
ARM GAS  /tmp/ccd90TRS.s 			page 25


 493 0000 00000000 		.word	testpools1
 494 0004 00000000 		.word	0
 495              		.section	.data.mp1,"aw",%progbits
 496              		.align	2
 497              		.set	.LANCHOR0,. + 0
 498              		.type	mp1, %object
 499              		.size	mp1, 12
 500              	mp1:
 501 0000 00000000 		.word	0
 502 0004 48010000 		.word	328
 503 0008 00000000 		.word	0
 504              		.section	.rodata.testpools1,"a",%progbits
 505              		.align	2
 506              		.type	testpools1, %object
 507              		.size	testpools1, 16
 508              	testpools1:
 509 0000 00000000 		.word	.LC0
 510 0004 00000000 		.word	pools1_setup
 511 0008 00000000 		.word	0
 512 000c 00000000 		.word	pools1_execute
 513              		.text
 514              	.Letext0:
 515              		.file 2 "/nfs/nfs5/home/research/hardware/arm2/gcc-arm-embedded/gcc-arm-none-eabi-4_8-2014q2/lib/g
 516              		.file 3 "/nfs/nfs5/home/research/hardware/arm2/gcc-arm-embedded/gcc-arm-none-eabi-4_8-2014q2/arm-n
 517              		.file 4 "/nfs/nfs5/home/research/hardware/arm2/gcc-arm-embedded/gcc-arm-none-eabi-4_8-2014q2/arm-n
 518              		.file 5 "../ChibiOS/os/rt/ports/ARMCMx/compilers/GCC/chtypes.h"
 519              		.file 6 "../ChibiOS/os/rt/include/chsystypes.h"
 520              		.file 7 "../ChibiOS/os/rt/include/chschd.h"
 521              		.file 8 "../ChibiOS/os/rt/ports/ARMCMx/chcore.h"
 522              		.file 9 "../ChibiOS/os/rt/ports/ARMCMx/chcore_v7m.h"
 523              		.file 10 "../ChibiOS/os/rt/include/chtm.h"
 524              		.file 11 "../ChibiOS/os/rt/include/chsem.h"
 525              		.file 12 "../ChibiOS/os/rt/include/chmtx.h"
 526              		.file 13 "../ChibiOS/os/rt/include/chmemcore.h"
 527              		.file 14 "../ChibiOS/os/rt/include/chmempools.h"
 528              		.file 15 "../ChibiOS/test/rt/test.h"
 529              		.file 16 "../ChibiOS/os/ext/CMSIS/include/core_cm4.h"
 530              		.section	.debug_info,"",%progbits
 531              	.Ldebug_info0:
 532 0000 CF090000 		.4byte	0x9cf
 533 0004 0400     		.2byte	0x4
 534 0006 00000000 		.4byte	.Ldebug_abbrev0
 535 000a 04       		.byte	0x4
 536 000b 01       		.uleb128 0x1
 537 000c 06050000 		.4byte	.LASF122
 538 0010 01       		.byte	0x1
 539 0011 2C060000 		.4byte	.LASF123
 540 0015 8A020000 		.4byte	.LASF124
 541 0019 20000000 		.4byte	.Ldebug_ranges0+0x20
 542 001d 00000000 		.4byte	0
 543 0021 00000000 		.4byte	.Ldebug_line0
 544 0025 02       		.uleb128 0x2
 545 0026 04       		.byte	0x4
 546 0027 05       		.byte	0x5
 547 0028 696E7400 		.ascii	"int\000"
 548 002c 03       		.uleb128 0x3
 549 002d 0D000000 		.4byte	.LASF2
ARM GAS  /tmp/ccd90TRS.s 			page 26


 550 0031 02       		.byte	0x2
 551 0032 D4       		.byte	0xd4
 552 0033 37000000 		.4byte	0x37
 553 0037 04       		.uleb128 0x4
 554 0038 04       		.byte	0x4
 555 0039 07       		.byte	0x7
 556 003a 71010000 		.4byte	.LASF0
 557 003e 04       		.uleb128 0x4
 558 003f 01       		.byte	0x1
 559 0040 06       		.byte	0x6
 560 0041 D2000000 		.4byte	.LASF1
 561 0045 03       		.uleb128 0x3
 562 0046 24000000 		.4byte	.LASF3
 563 004a 03       		.byte	0x3
 564 004b 1C       		.byte	0x1c
 565 004c 50000000 		.4byte	0x50
 566 0050 04       		.uleb128 0x4
 567 0051 01       		.byte	0x1
 568 0052 08       		.byte	0x8
 569 0053 7C030000 		.4byte	.LASF4
 570 0057 04       		.uleb128 0x4
 571 0058 02       		.byte	0x2
 572 0059 05       		.byte	0x5
 573 005a 94030000 		.4byte	.LASF5
 574 005e 04       		.uleb128 0x4
 575 005f 02       		.byte	0x2
 576 0060 07       		.byte	0x7
 577 0061 BA010000 		.4byte	.LASF6
 578 0065 03       		.uleb128 0x3
 579 0066 1C020000 		.4byte	.LASF7
 580 006a 03       		.byte	0x3
 581 006b 37       		.byte	0x37
 582 006c 70000000 		.4byte	0x70
 583 0070 04       		.uleb128 0x4
 584 0071 04       		.byte	0x4
 585 0072 05       		.byte	0x5
 586 0073 05010000 		.4byte	.LASF8
 587 0077 03       		.uleb128 0x3
 588 0078 82040000 		.4byte	.LASF9
 589 007c 03       		.byte	0x3
 590 007d 38       		.byte	0x38
 591 007e 82000000 		.4byte	0x82
 592 0082 04       		.uleb128 0x4
 593 0083 04       		.byte	0x4
 594 0084 07       		.byte	0x7
 595 0085 30040000 		.4byte	.LASF10
 596 0089 04       		.uleb128 0x4
 597 008a 08       		.byte	0x8
 598 008b 05       		.byte	0x5
 599 008c C4000000 		.4byte	.LASF11
 600 0090 03       		.uleb128 0x3
 601 0091 1C030000 		.4byte	.LASF12
 602 0095 03       		.byte	0x3
 603 0096 4E       		.byte	0x4e
 604 0097 9B000000 		.4byte	0x9b
 605 009b 04       		.uleb128 0x4
 606 009c 08       		.byte	0x8
ARM GAS  /tmp/ccd90TRS.s 			page 27


 607 009d 07       		.byte	0x7
 608 009e 56000000 		.4byte	.LASF13
 609 00a2 03       		.uleb128 0x3
 610 00a3 E7040000 		.4byte	.LASF14
 611 00a7 04       		.byte	0x4
 612 00a8 2A       		.byte	0x2a
 613 00a9 45000000 		.4byte	0x45
 614 00ad 03       		.uleb128 0x3
 615 00ae 74030000 		.4byte	.LASF15
 616 00b2 04       		.byte	0x4
 617 00b3 41       		.byte	0x41
 618 00b4 65000000 		.4byte	0x65
 619 00b8 03       		.uleb128 0x3
 620 00b9 FC030000 		.4byte	.LASF16
 621 00bd 04       		.byte	0x4
 622 00be 42       		.byte	0x42
 623 00bf 77000000 		.4byte	0x77
 624 00c3 03       		.uleb128 0x3
 625 00c4 1B000000 		.4byte	.LASF17
 626 00c8 04       		.byte	0x4
 627 00c9 4E       		.byte	0x4e
 628 00ca 90000000 		.4byte	0x90
 629 00ce 03       		.uleb128 0x3
 630 00cf AF040000 		.4byte	.LASF18
 631 00d3 05       		.byte	0x5
 632 00d4 39       		.byte	0x39
 633 00d5 B8000000 		.4byte	0xb8
 634 00d9 03       		.uleb128 0x3
 635 00da E9010000 		.4byte	.LASF19
 636 00de 05       		.byte	0x5
 637 00df 3C       		.byte	0x3c
 638 00e0 A2000000 		.4byte	0xa2
 639 00e4 03       		.uleb128 0x3
 640 00e5 0E010000 		.4byte	.LASF20
 641 00e9 05       		.byte	0x5
 642 00ea 3D       		.byte	0x3d
 643 00eb A2000000 		.4byte	0xa2
 644 00ef 03       		.uleb128 0x3
 645 00f0 2F030000 		.4byte	.LASF21
 646 00f4 05       		.byte	0x5
 647 00f5 3E       		.byte	0x3e
 648 00f6 A2000000 		.4byte	0xa2
 649 00fa 03       		.uleb128 0x3
 650 00fb 56030000 		.4byte	.LASF22
 651 00ff 05       		.byte	0x5
 652 0100 40       		.byte	0x40
 653 0101 B8000000 		.4byte	0xb8
 654 0105 03       		.uleb128 0x3
 655 0106 D7010000 		.4byte	.LASF23
 656 010a 05       		.byte	0x5
 657 010b 41       		.byte	0x41
 658 010c AD000000 		.4byte	0xad
 659 0110 03       		.uleb128 0x3
 660 0111 10020000 		.4byte	.LASF24
 661 0115 05       		.byte	0x5
 662 0116 43       		.byte	0x43
 663 0117 B8000000 		.4byte	0xb8
ARM GAS  /tmp/ccd90TRS.s 			page 28


 664 011b 03       		.uleb128 0x3
 665 011c 6B010000 		.4byte	.LASF25
 666 0120 05       		.byte	0x5
 667 0121 45       		.byte	0x45
 668 0122 AD000000 		.4byte	0xad
 669 0126 03       		.uleb128 0x3
 670 0127 64040000 		.4byte	.LASF26
 671 012b 06       		.byte	0x6
 672 012c 33       		.byte	0x33
 673 012d B8000000 		.4byte	0xb8
 674 0131 03       		.uleb128 0x3
 675 0132 54040000 		.4byte	.LASF27
 676 0136 06       		.byte	0x6
 677 0137 3F       		.byte	0x3f
 678 0138 3C010000 		.4byte	0x13c
 679 013c 05       		.uleb128 0x5
 680 013d CD010000 		.4byte	.LASF46
 681 0141 40       		.byte	0x40
 682 0142 07       		.byte	0x7
 683 0143 C2       		.byte	0xc2
 684 0144 1C020000 		.4byte	0x21c
 685 0148 06       		.uleb128 0x6
 686 0149 B4030000 		.4byte	.LASF28
 687 014d 07       		.byte	0x7
 688 014e C3       		.byte	0xc3
 689 014f 27020000 		.4byte	0x227
 690 0153 00       		.byte	0
 691 0154 06       		.uleb128 0x6
 692 0155 47030000 		.4byte	.LASF29
 693 0159 07       		.byte	0x7
 694 015a C5       		.byte	0xc5
 695 015b 27020000 		.4byte	0x227
 696 015f 04       		.byte	0x4
 697 0160 06       		.uleb128 0x6
 698 0161 BD000000 		.4byte	.LASF30
 699 0165 07       		.byte	0x7
 700 0166 C7       		.byte	0xc7
 701 0167 FA000000 		.4byte	0xfa
 702 016b 08       		.byte	0x8
 703 016c 06       		.uleb128 0x6
 704 016d 53060000 		.4byte	.LASF31
 705 0171 07       		.byte	0x7
 706 0172 C8       		.byte	0xc8
 707 0173 57040000 		.4byte	0x457
 708 0177 0C       		.byte	0xc
 709 0178 06       		.uleb128 0x6
 710 0179 1F010000 		.4byte	.LASF32
 711 017d 07       		.byte	0x7
 712 017e CA       		.byte	0xca
 713 017f 27020000 		.4byte	0x227
 714 0183 10       		.byte	0x10
 715 0184 06       		.uleb128 0x6
 716 0185 82020000 		.4byte	.LASF33
 717 0189 07       		.byte	0x7
 718 018a CB       		.byte	0xcb
 719 018b 27020000 		.4byte	0x227
 720 018f 14       		.byte	0x14
ARM GAS  /tmp/ccd90TRS.s 			page 29


 721 0190 06       		.uleb128 0x6
 722 0191 C3030000 		.4byte	.LASF34
 723 0195 07       		.byte	0x7
 724 0196 D2       		.byte	0xd2
 725 0197 E2050000 		.4byte	0x5e2
 726 019b 18       		.byte	0x18
 727 019c 06       		.uleb128 0x6
 728 019d 9E030000 		.4byte	.LASF35
 729 01a1 07       		.byte	0x7
 730 01a2 DD       		.byte	0xdd
 731 01a3 E4000000 		.4byte	0xe4
 732 01a7 1C       		.byte	0x1c
 733 01a8 06       		.uleb128 0x6
 734 01a9 BB030000 		.4byte	.LASF36
 735 01ad 07       		.byte	0x7
 736 01ae E1       		.byte	0xe1
 737 01af D9000000 		.4byte	0xd9
 738 01b3 1D       		.byte	0x1d
 739 01b4 06       		.uleb128 0x6
 740 01b5 DA040000 		.4byte	.LASF37
 741 01b9 07       		.byte	0x7
 742 01ba E6       		.byte	0xe6
 743 01bb EF000000 		.4byte	0xef
 744 01bf 1E       		.byte	0x1e
 745 01c0 07       		.uleb128 0x7
 746 01c1 705F7500 		.ascii	"p_u\000"
 747 01c5 07       		.byte	0x7
 748 01c6 3701     		.2byte	0x137
 749 01c8 11050000 		.4byte	0x511
 750 01cc 20       		.byte	0x20
 751 01cd 08       		.uleb128 0x8
 752 01ce 31020000 		.4byte	.LASF38
 753 01d2 07       		.byte	0x7
 754 01d3 3C01     		.2byte	0x13c
 755 01d5 2D020000 		.4byte	0x22d
 756 01d9 24       		.byte	0x24
 757 01da 08       		.uleb128 0x8
 758 01db 8D010000 		.4byte	.LASF39
 759 01df 07       		.byte	0x7
 760 01e0 4201     		.2byte	0x142
 761 01e2 51020000 		.4byte	0x251
 762 01e6 28       		.byte	0x28
 763 01e7 08       		.uleb128 0x8
 764 01e8 F1030000 		.4byte	.LASF40
 765 01ec 07       		.byte	0x7
 766 01ed 4801     		.2byte	0x148
 767 01ef 10010000 		.4byte	0x110
 768 01f3 30       		.byte	0x30
 769 01f4 08       		.uleb128 0x8
 770 01f5 8A030000 		.4byte	.LASF41
 771 01f9 07       		.byte	0x7
 772 01fa 4F01     		.2byte	0x14f
 773 01fc DC050000 		.4byte	0x5dc
 774 0200 34       		.byte	0x34
 775 0201 08       		.uleb128 0x8
 776 0202 6E040000 		.4byte	.LASF42
 777 0206 07       		.byte	0x7
ARM GAS  /tmp/ccd90TRS.s 			page 30


 778 0207 5301     		.2byte	0x153
 779 0209 FA000000 		.4byte	0xfa
 780 020d 38       		.byte	0x38
 781 020e 08       		.uleb128 0x8
 782 020f DE000000 		.4byte	.LASF43
 783 0213 07       		.byte	0x7
 784 0214 5A01     		.2byte	0x15a
 785 0216 04030000 		.4byte	0x304
 786 021a 3C       		.byte	0x3c
 787 021b 00       		.byte	0
 788 021c 03       		.uleb128 0x3
 789 021d 44020000 		.4byte	.LASF44
 790 0221 06       		.byte	0x6
 791 0222 44       		.byte	0x44
 792 0223 27020000 		.4byte	0x227
 793 0227 09       		.uleb128 0x9
 794 0228 04       		.byte	0x4
 795 0229 31010000 		.4byte	0x131
 796 022d 03       		.uleb128 0x3
 797 022e 0D060000 		.4byte	.LASF45
 798 0232 06       		.byte	0x6
 799 0233 49       		.byte	0x49
 800 0234 38020000 		.4byte	0x238
 801 0238 05       		.uleb128 0x5
 802 0239 20040000 		.4byte	.LASF47
 803 023d 04       		.byte	0x4
 804 023e 07       		.byte	0x7
 805 023f B0       		.byte	0xb0
 806 0240 51020000 		.4byte	0x251
 807 0244 06       		.uleb128 0x6
 808 0245 B4030000 		.4byte	.LASF28
 809 0249 07       		.byte	0x7
 810 024a B1       		.byte	0xb1
 811 024b 27020000 		.4byte	0x227
 812 024f 00       		.byte	0
 813 0250 00       		.byte	0
 814 0251 03       		.uleb128 0x3
 815 0252 BE040000 		.4byte	.LASF48
 816 0256 06       		.byte	0x6
 817 0257 50       		.byte	0x50
 818 0258 5C020000 		.4byte	0x25c
 819 025c 05       		.uleb128 0x5
 820 025d AC000000 		.4byte	.LASF49
 821 0261 08       		.byte	0x8
 822 0262 07       		.byte	0x7
 823 0263 B7       		.byte	0xb7
 824 0264 81020000 		.4byte	0x281
 825 0268 06       		.uleb128 0x6
 826 0269 B4030000 		.4byte	.LASF28
 827 026d 07       		.byte	0x7
 828 026e B8       		.byte	0xb8
 829 026f 27020000 		.4byte	0x227
 830 0273 00       		.byte	0
 831 0274 06       		.uleb128 0x6
 832 0275 47030000 		.4byte	.LASF29
 833 0279 07       		.byte	0x7
 834 027a B9       		.byte	0xb9
ARM GAS  /tmp/ccd90TRS.s 			page 31


 835 027b 27020000 		.4byte	0x227
 836 027f 04       		.byte	0x4
 837 0280 00       		.byte	0
 838 0281 03       		.uleb128 0x3
 839 0282 00000000 		.4byte	.LASF50
 840 0286 06       		.byte	0x6
 841 0287 57       		.byte	0x57
 842 0288 8C020000 		.4byte	0x28c
 843 028c 0A       		.uleb128 0xa
 844 028d 02020000 		.4byte	.LASF51
 845 0291 1C       		.byte	0x1c
 846 0292 07       		.byte	0x7
 847 0293 9201     		.2byte	0x192
 848 0295 E8020000 		.4byte	0x2e8
 849 0299 08       		.uleb128 0x8
 850 029a 6E020000 		.4byte	.LASF52
 851 029e 07       		.byte	0x7
 852 029f 9301     		.2byte	0x193
 853 02a1 51020000 		.4byte	0x251
 854 02a5 00       		.byte	0
 855 02a6 08       		.uleb128 0x8
 856 02a7 A6030000 		.4byte	.LASF53
 857 02ab 07       		.byte	0x7
 858 02ac 9401     		.2byte	0x194
 859 02ae FA000000 		.4byte	0xfa
 860 02b2 08       		.byte	0x8
 861 02b3 08       		.uleb128 0x8
 862 02b4 D1020000 		.4byte	.LASF54
 863 02b8 07       		.byte	0x7
 864 02b9 9601     		.2byte	0x196
 865 02bb 57040000 		.4byte	0x457
 866 02bf 0C       		.byte	0xc
 867 02c0 08       		.uleb128 0x8
 868 02c1 2F010000 		.4byte	.LASF55
 869 02c5 07       		.byte	0x7
 870 02c6 9901     		.2byte	0x199
 871 02c8 27020000 		.4byte	0x227
 872 02cc 10       		.byte	0x10
 873 02cd 08       		.uleb128 0x8
 874 02ce 07030000 		.4byte	.LASF56
 875 02d2 07       		.byte	0x7
 876 02d3 9A01     		.2byte	0x19a
 877 02d5 27020000 		.4byte	0x227
 878 02d9 14       		.byte	0x14
 879 02da 08       		.uleb128 0x8
 880 02db FD020000 		.4byte	.LASF57
 881 02df 07       		.byte	0x7
 882 02e0 9D01     		.2byte	0x19d
 883 02e2 27020000 		.4byte	0x227
 884 02e6 18       		.byte	0x18
 885 02e7 00       		.byte	0
 886 02e8 03       		.uleb128 0x3
 887 02e9 79040000 		.4byte	.LASF58
 888 02ed 06       		.byte	0x6
 889 02ee 5C       		.byte	0x5c
 890 02ef F3020000 		.4byte	0x2f3
 891 02f3 09       		.uleb128 0x9
ARM GAS  /tmp/ccd90TRS.s 			page 32


 892 02f4 04       		.byte	0x4
 893 02f5 F9020000 		.4byte	0x2f9
 894 02f9 0B       		.uleb128 0xb
 895 02fa 04030000 		.4byte	0x304
 896 02fe 0C       		.uleb128 0xc
 897 02ff 04030000 		.4byte	0x304
 898 0303 00       		.byte	0
 899 0304 0D       		.uleb128 0xd
 900 0305 04       		.byte	0x4
 901 0306 03       		.uleb128 0x3
 902 0307 37030000 		.4byte	.LASF59
 903 030b 06       		.byte	0x6
 904 030c 61       		.byte	0x61
 905 030d 11030000 		.4byte	0x311
 906 0311 0A       		.uleb128 0xa
 907 0312 CA030000 		.4byte	.LASF60
 908 0316 14       		.byte	0x14
 909 0317 07       		.byte	0x7
 910 0318 6D01     		.2byte	0x16d
 911 031a 60030000 		.4byte	0x360
 912 031e 08       		.uleb128 0x8
 913 031f 7E010000 		.4byte	.LASF61
 914 0323 07       		.byte	0x7
 915 0324 6E01     		.2byte	0x16e
 916 0326 F4050000 		.4byte	0x5f4
 917 032a 00       		.byte	0
 918 032b 08       		.uleb128 0x8
 919 032c 4C010000 		.4byte	.LASF62
 920 0330 07       		.byte	0x7
 921 0331 6F01     		.2byte	0x16f
 922 0333 F4050000 		.4byte	0x5f4
 923 0337 04       		.byte	0x4
 924 0338 08       		.uleb128 0x8
 925 0339 17040000 		.4byte	.LASF63
 926 033d 07       		.byte	0x7
 927 033e 7001     		.2byte	0x170
 928 0340 26010000 		.4byte	0x126
 929 0344 08       		.byte	0x8
 930 0345 08       		.uleb128 0x8
 931 0346 59060000 		.4byte	.LASF64
 932 034a 07       		.byte	0x7
 933 034b 7101     		.2byte	0x171
 934 034d E8020000 		.4byte	0x2e8
 935 0351 0C       		.byte	0xc
 936 0352 08       		.uleb128 0x8
 937 0353 B7040000 		.4byte	.LASF65
 938 0357 07       		.byte	0x7
 939 0358 7301     		.2byte	0x173
 940 035a 04030000 		.4byte	0x304
 941 035e 10       		.byte	0x10
 942 035f 00       		.byte	0
 943 0360 03       		.uleb128 0x3
 944 0361 89000000 		.4byte	.LASF66
 945 0365 06       		.byte	0x6
 946 0366 66       		.byte	0x66
 947 0367 6B030000 		.4byte	0x36b
 948 036b 0A       		.uleb128 0xa
ARM GAS  /tmp/ccd90TRS.s 			page 33


 949 036c 57020000 		.4byte	.LASF67
 950 0370 10       		.byte	0x10
 951 0371 07       		.byte	0x7
 952 0372 7D01     		.2byte	0x17d
 953 0374 AD030000 		.4byte	0x3ad
 954 0378 08       		.uleb128 0x8
 955 0379 7E010000 		.4byte	.LASF61
 956 037d 07       		.byte	0x7
 957 037e 7E01     		.2byte	0x17e
 958 0380 F4050000 		.4byte	0x5f4
 959 0384 00       		.byte	0
 960 0385 08       		.uleb128 0x8
 961 0386 4C010000 		.4byte	.LASF62
 962 038a 07       		.byte	0x7
 963 038b 8001     		.2byte	0x180
 964 038d F4050000 		.4byte	0x5f4
 965 0391 04       		.byte	0x4
 966 0392 08       		.uleb128 0x8
 967 0393 17040000 		.4byte	.LASF63
 968 0397 07       		.byte	0x7
 969 0398 8201     		.2byte	0x182
 970 039a 26010000 		.4byte	0x126
 971 039e 08       		.byte	0x8
 972 039f 08       		.uleb128 0x8
 973 03a0 76020000 		.4byte	.LASF68
 974 03a4 07       		.byte	0x7
 975 03a5 8A01     		.2byte	0x18a
 976 03a7 26010000 		.4byte	0x126
 977 03ab 0C       		.byte	0xc
 978 03ac 00       		.byte	0
 979 03ad 03       		.uleb128 0x3
 980 03ae 3A000000 		.4byte	.LASF69
 981 03b2 06       		.byte	0x6
 982 03b3 6B       		.byte	0x6b
 983 03b4 B8030000 		.4byte	0x3b8
 984 03b8 0A       		.uleb128 0xa
 985 03b9 5E030000 		.4byte	.LASF70
 986 03bd 04       		.byte	0x4
 987 03be 07       		.byte	0x7
 988 03bf A401     		.2byte	0x1a4
 989 03c1 D3030000 		.4byte	0x3d3
 990 03c5 08       		.uleb128 0x8
 991 03c6 8D040000 		.4byte	.LASF71
 992 03ca 07       		.byte	0x7
 993 03cb AC01     		.2byte	0x1ac
 994 03cd FA050000 		.4byte	0x5fa
 995 03d1 00       		.byte	0
 996 03d2 00       		.byte	0
 997 03d3 03       		.uleb128 0x3
 998 03d4 DD010000 		.4byte	.LASF72
 999 03d8 06       		.byte	0x6
 1000 03d9 70       		.byte	0x70
 1001 03da DE030000 		.4byte	0x3de
 1002 03de 0E       		.uleb128 0xe
 1003 03df FB000000 		.4byte	.LASF73
 1004 03e3 5001     		.2byte	0x150
 1005 03e5 07       		.byte	0x7
ARM GAS  /tmp/ccd90TRS.s 			page 34


 1006 03e6 C401     		.2byte	0x1c4
 1007 03e8 3A040000 		.4byte	0x43a
 1008 03ec 08       		.uleb128 0x8
 1009 03ed E1040000 		.4byte	.LASF74
 1010 03f1 07       		.byte	0x7
 1011 03f2 C801     		.2byte	0x1c8
 1012 03f4 81020000 		.4byte	0x281
 1013 03f8 00       		.byte	0
 1014 03f9 08       		.uleb128 0x8
 1015 03fa EE000000 		.4byte	.LASF75
 1016 03fe 07       		.byte	0x7
 1017 03ff CC01     		.2byte	0x1cc
 1018 0401 60030000 		.4byte	0x360
 1019 0405 1C       		.byte	0x1c
 1020 0406 07       		.uleb128 0x7
 1021 0407 64626700 		.ascii	"dbg\000"
 1022 040b 07       		.byte	0x7
 1023 040c D001     		.2byte	0x1d0
 1024 040e AD030000 		.4byte	0x3ad
 1025 0412 2C       		.byte	0x2c
 1026 0413 08       		.uleb128 0x8
 1027 0414 76000000 		.4byte	.LASF76
 1028 0418 07       		.byte	0x7
 1029 0419 D401     		.2byte	0x1d4
 1030 041b 31010000 		.4byte	0x131
 1031 041f 30       		.byte	0x30
 1032 0420 07       		.uleb128 0x7
 1033 0421 746D00   		.ascii	"tm\000"
 1034 0424 07       		.byte	0x7
 1035 0425 D901     		.2byte	0x1d9
 1036 0427 06050000 		.4byte	0x506
 1037 042b 70       		.byte	0x70
 1038 042c 08       		.uleb128 0x8
 1039 042d 5C010000 		.4byte	.LASF77
 1040 0431 07       		.byte	0x7
 1041 0432 E501     		.2byte	0x1e5
 1042 0434 FF050000 		.4byte	0x5ff
 1043 0438 78       		.byte	0x78
 1044 0439 00       		.byte	0
 1045 043a 04       		.uleb128 0x4
 1046 043b 04       		.byte	0x4
 1047 043c 07       		.byte	0x7
 1048 043d 3B020000 		.4byte	.LASF78
 1049 0441 03       		.uleb128 0x3
 1050 0442 43010000 		.4byte	.LASF79
 1051 0446 08       		.byte	0x8
 1052 0447 65       		.byte	0x65
 1053 0448 04030000 		.4byte	0x304
 1054 044c 03       		.uleb128 0x3
 1055 044d 26020000 		.4byte	.LASF80
 1056 0451 08       		.byte	0x8
 1057 0452 6D       		.byte	0x6d
 1058 0453 C3000000 		.4byte	0xc3
 1059 0457 05       		.uleb128 0x5
 1060 0458 A7040000 		.4byte	.LASF81
 1061 045c 04       		.byte	0x4
 1062 045d 08       		.byte	0x8
ARM GAS  /tmp/ccd90TRS.s 			page 35


 1063 045e 89       		.byte	0x89
 1064 045f 70040000 		.4byte	0x470
 1065 0463 0F       		.uleb128 0xf
 1066 0464 72313300 		.ascii	"r13\000"
 1067 0468 08       		.byte	0x8
 1068 0469 8A       		.byte	0x8a
 1069 046a EB040000 		.4byte	0x4eb
 1070 046e 00       		.byte	0
 1071 046f 00       		.byte	0
 1072 0470 05       		.uleb128 0x5
 1073 0471 2E000000 		.4byte	.LASF82
 1074 0475 24       		.byte	0x24
 1075 0476 09       		.byte	0x9
 1076 0477 FD       		.byte	0xfd
 1077 0478 EB040000 		.4byte	0x4eb
 1078 047c 07       		.uleb128 0x7
 1079 047d 723400   		.ascii	"r4\000"
 1080 0480 09       		.byte	0x9
 1081 0481 1001     		.2byte	0x110
 1082 0483 41040000 		.4byte	0x441
 1083 0487 00       		.byte	0
 1084 0488 07       		.uleb128 0x7
 1085 0489 723500   		.ascii	"r5\000"
 1086 048c 09       		.byte	0x9
 1087 048d 1101     		.2byte	0x111
 1088 048f 41040000 		.4byte	0x441
 1089 0493 04       		.byte	0x4
 1090 0494 07       		.uleb128 0x7
 1091 0495 723600   		.ascii	"r6\000"
 1092 0498 09       		.byte	0x9
 1093 0499 1201     		.2byte	0x112
 1094 049b 41040000 		.4byte	0x441
 1095 049f 08       		.byte	0x8
 1096 04a0 07       		.uleb128 0x7
 1097 04a1 723700   		.ascii	"r7\000"
 1098 04a4 09       		.byte	0x9
 1099 04a5 1301     		.2byte	0x113
 1100 04a7 41040000 		.4byte	0x441
 1101 04ab 0C       		.byte	0xc
 1102 04ac 07       		.uleb128 0x7
 1103 04ad 723800   		.ascii	"r8\000"
 1104 04b0 09       		.byte	0x9
 1105 04b1 1401     		.2byte	0x114
 1106 04b3 41040000 		.4byte	0x441
 1107 04b7 10       		.byte	0x10
 1108 04b8 07       		.uleb128 0x7
 1109 04b9 723900   		.ascii	"r9\000"
 1110 04bc 09       		.byte	0x9
 1111 04bd 1501     		.2byte	0x115
 1112 04bf 41040000 		.4byte	0x441
 1113 04c3 14       		.byte	0x14
 1114 04c4 07       		.uleb128 0x7
 1115 04c5 72313000 		.ascii	"r10\000"
 1116 04c9 09       		.byte	0x9
 1117 04ca 1601     		.2byte	0x116
 1118 04cc 41040000 		.4byte	0x441
 1119 04d0 18       		.byte	0x18
ARM GAS  /tmp/ccd90TRS.s 			page 36


 1120 04d1 07       		.uleb128 0x7
 1121 04d2 72313100 		.ascii	"r11\000"
 1122 04d6 09       		.byte	0x9
 1123 04d7 1701     		.2byte	0x117
 1124 04d9 41040000 		.4byte	0x441
 1125 04dd 1C       		.byte	0x1c
 1126 04de 07       		.uleb128 0x7
 1127 04df 6C7200   		.ascii	"lr\000"
 1128 04e2 09       		.byte	0x9
 1129 04e3 1801     		.2byte	0x118
 1130 04e5 41040000 		.4byte	0x441
 1131 04e9 20       		.byte	0x20
 1132 04ea 00       		.byte	0
 1133 04eb 09       		.uleb128 0x9
 1134 04ec 04       		.byte	0x4
 1135 04ed 70040000 		.4byte	0x470
 1136 04f1 10       		.uleb128 0x10
 1137 04f2 04       		.byte	0x4
 1138 04f3 0A       		.byte	0xa
 1139 04f4 38       		.byte	0x38
 1140 04f5 06050000 		.4byte	0x506
 1141 04f9 06       		.uleb128 0x6
 1142 04fa 97040000 		.4byte	.LASF83
 1143 04fe 0A       		.byte	0xa
 1144 04ff 3C       		.byte	0x3c
 1145 0500 CE000000 		.4byte	0xce
 1146 0504 00       		.byte	0
 1147 0505 00       		.byte	0
 1148 0506 03       		.uleb128 0x3
 1149 0507 E6020000 		.4byte	.LASF84
 1150 050b 0A       		.byte	0xa
 1151 050c 3D       		.byte	0x3d
 1152 050d F1040000 		.4byte	0x4f1
 1153 0511 11       		.uleb128 0x11
 1154 0512 04       		.byte	0x4
 1155 0513 07       		.byte	0x7
 1156 0514 FA       		.byte	0xfa
 1157 0515 7A050000 		.4byte	0x57a
 1158 0519 12       		.uleb128 0x12
 1159 051a 14000000 		.4byte	.LASF85
 1160 051e 07       		.byte	0x7
 1161 051f 0101     		.2byte	0x101
 1162 0521 05010000 		.4byte	0x105
 1163 0525 12       		.uleb128 0x12
 1164 0526 6D000000 		.4byte	.LASF86
 1165 052a 07       		.byte	0x7
 1166 052b 0801     		.2byte	0x108
 1167 052d 05010000 		.4byte	0x105
 1168 0531 12       		.uleb128 0x12
 1169 0532 E6050000 		.4byte	.LASF87
 1170 0536 07       		.byte	0x7
 1171 0537 0F01     		.2byte	0x10f
 1172 0539 04030000 		.4byte	0x304
 1173 053d 12       		.uleb128 0x12
 1174 053e F5000000 		.4byte	.LASF88
 1175 0542 07       		.byte	0x7
 1176 0543 1601     		.2byte	0x116
ARM GAS  /tmp/ccd90TRS.s 			page 37


 1177 0545 7A050000 		.4byte	0x57a
 1178 0549 12       		.uleb128 0x12
 1179 054a 81000000 		.4byte	.LASF89
 1180 054e 07       		.byte	0x7
 1181 054f 1B01     		.2byte	0x11b
 1182 0551 05010000 		.4byte	0x105
 1183 0555 12       		.uleb128 0x12
 1184 0556 86010000 		.4byte	.LASF90
 1185 055a 07       		.byte	0x7
 1186 055b 2401     		.2byte	0x124
 1187 055d A5050000 		.4byte	0x5a5
 1188 0561 12       		.uleb128 0x12
 1189 0562 05040000 		.4byte	.LASF91
 1190 0566 07       		.byte	0x7
 1191 0567 2D01     		.2byte	0x12d
 1192 0569 DC050000 		.4byte	0x5dc
 1193 056d 12       		.uleb128 0x12
 1194 056e AD030000 		.4byte	.LASF92
 1195 0572 07       		.byte	0x7
 1196 0573 3501     		.2byte	0x135
 1197 0575 10010000 		.4byte	0x110
 1198 0579 00       		.byte	0
 1199 057a 09       		.uleb128 0x9
 1200 057b 04       		.byte	0x4
 1201 057c 1C020000 		.4byte	0x21c
 1202 0580 05       		.uleb128 0x5
 1203 0581 E4030000 		.4byte	.LASF93
 1204 0585 0C       		.byte	0xc
 1205 0586 0B       		.byte	0xb
 1206 0587 34       		.byte	0x34
 1207 0588 A5050000 		.4byte	0x5a5
 1208 058c 06       		.uleb128 0x6
 1209 058d 27010000 		.4byte	.LASF94
 1210 0591 0B       		.byte	0xb
 1211 0592 35       		.byte	0x35
 1212 0593 51020000 		.4byte	0x251
 1213 0597 00       		.byte	0
 1214 0598 06       		.uleb128 0x6
 1215 0599 B4010000 		.4byte	.LASF95
 1216 059d 0B       		.byte	0xb
 1217 059e 37       		.byte	0x37
 1218 059f 1B010000 		.4byte	0x11b
 1219 05a3 08       		.byte	0x8
 1220 05a4 00       		.byte	0
 1221 05a5 09       		.uleb128 0x9
 1222 05a6 04       		.byte	0x4
 1223 05a7 80050000 		.4byte	0x580
 1224 05ab 05       		.uleb128 0x5
 1225 05ac 9E040000 		.4byte	.LASF96
 1226 05b0 10       		.byte	0x10
 1227 05b1 0C       		.byte	0xc
 1228 05b2 39       		.byte	0x39
 1229 05b3 DC050000 		.4byte	0x5dc
 1230 05b7 06       		.uleb128 0x6
 1231 05b8 E6000000 		.4byte	.LASF97
 1232 05bc 0C       		.byte	0xc
 1233 05bd 3A       		.byte	0x3a
ARM GAS  /tmp/ccd90TRS.s 			page 38


 1234 05be 51020000 		.4byte	0x251
 1235 05c2 00       		.byte	0
 1236 05c3 06       		.uleb128 0x6
 1237 05c4 4B060000 		.4byte	.LASF98
 1238 05c8 0C       		.byte	0xc
 1239 05c9 3C       		.byte	0x3c
 1240 05ca 27020000 		.4byte	0x227
 1241 05ce 08       		.byte	0x8
 1242 05cf 06       		.uleb128 0x6
 1243 05d0 5D040000 		.4byte	.LASF99
 1244 05d4 0C       		.byte	0xc
 1245 05d5 3E       		.byte	0x3e
 1246 05d6 1A060000 		.4byte	0x61a
 1247 05da 0C       		.byte	0xc
 1248 05db 00       		.byte	0
 1249 05dc 09       		.uleb128 0x9
 1250 05dd 04       		.byte	0x4
 1251 05de AB050000 		.4byte	0x5ab
 1252 05e2 09       		.uleb128 0x9
 1253 05e3 04       		.byte	0x4
 1254 05e4 E8050000 		.4byte	0x5e8
 1255 05e8 13       		.uleb128 0x13
 1256 05e9 ED050000 		.4byte	0x5ed
 1257 05ed 04       		.uleb128 0x4
 1258 05ee 01       		.byte	0x1
 1259 05ef 08       		.byte	0x8
 1260 05f0 42040000 		.4byte	.LASF100
 1261 05f4 09       		.uleb128 0x9
 1262 05f5 04       		.byte	0x4
 1263 05f6 06030000 		.4byte	0x306
 1264 05fa 14       		.uleb128 0x14
 1265 05fb E2050000 		.4byte	0x5e2
 1266 05ff 15       		.uleb128 0x15
 1267 0600 4C040000 		.4byte	0x44c
 1268 0604 0F060000 		.4byte	0x60f
 1269 0608 16       		.uleb128 0x16
 1270 0609 3A040000 		.4byte	0x43a
 1271 060d 1A       		.byte	0x1a
 1272 060e 00       		.byte	0
 1273 060f 03       		.uleb128 0x3
 1274 0610 54010000 		.4byte	.LASF101
 1275 0614 0C       		.byte	0xc
 1276 0615 34       		.byte	0x34
 1277 0616 AB050000 		.4byte	0x5ab
 1278 061a 09       		.uleb128 0x9
 1279 061b 04       		.byte	0x4
 1280 061c 0F060000 		.4byte	0x60f
 1281 0620 03       		.uleb128 0x3
 1282 0621 49000000 		.4byte	.LASF102
 1283 0625 0D       		.byte	0xd
 1284 0626 36       		.byte	0x36
 1285 0627 2B060000 		.4byte	0x62b
 1286 062b 09       		.uleb128 0x9
 1287 062c 04       		.byte	0x4
 1288 062d 31060000 		.4byte	0x631
 1289 0631 17       		.uleb128 0x17
 1290 0632 04030000 		.4byte	0x304
ARM GAS  /tmp/ccd90TRS.s 			page 39


 1291 0636 40060000 		.4byte	0x640
 1292 063a 0C       		.uleb128 0xc
 1293 063b 2C000000 		.4byte	0x2c
 1294 063f 00       		.byte	0
 1295 0640 05       		.uleb128 0x5
 1296 0641 CE040000 		.4byte	.LASF103
 1297 0645 04       		.byte	0x4
 1298 0646 0E       		.byte	0xe
 1299 0647 38       		.byte	0x38
 1300 0648 59060000 		.4byte	0x659
 1301 064c 06       		.uleb128 0x6
 1302 064d 27030000 		.4byte	.LASF104
 1303 0651 0E       		.byte	0xe
 1304 0652 39       		.byte	0x39
 1305 0653 59060000 		.4byte	0x659
 1306 0657 00       		.byte	0
 1307 0658 00       		.byte	0
 1308 0659 09       		.uleb128 0x9
 1309 065a 04       		.byte	0x4
 1310 065b 40060000 		.4byte	0x640
 1311 065f 10       		.uleb128 0x10
 1312 0660 0C       		.byte	0xc
 1313 0661 0E       		.byte	0xe
 1314 0662 40       		.byte	0x40
 1315 0663 8C060000 		.4byte	0x68c
 1316 0667 06       		.uleb128 0x6
 1317 0668 17010000 		.4byte	.LASF105
 1318 066c 0E       		.byte	0xe
 1319 066d 41       		.byte	0x41
 1320 066e 59060000 		.4byte	0x659
 1321 0672 00       		.byte	0
 1322 0673 06       		.uleb128 0x6
 1323 0674 D7020000 		.4byte	.LASF106
 1324 0678 0E       		.byte	0xe
 1325 0679 42       		.byte	0x42
 1326 067a 2C000000 		.4byte	0x2c
 1327 067e 04       		.byte	0x4
 1328 067f 06       		.uleb128 0x6
 1329 0680 37010000 		.4byte	.LASF107
 1330 0684 0E       		.byte	0xe
 1331 0685 44       		.byte	0x44
 1332 0686 20060000 		.4byte	0x620
 1333 068a 08       		.byte	0x8
 1334 068b 00       		.byte	0
 1335 068c 03       		.uleb128 0x3
 1336 068d A1010000 		.4byte	.LASF108
 1337 0691 0E       		.byte	0xe
 1338 0692 46       		.byte	0x46
 1339 0693 5F060000 		.4byte	0x65f
 1340 0697 05       		.uleb128 0x5
 1341 0698 DB030000 		.4byte	.LASF109
 1342 069c 10       		.byte	0x10
 1343 069d 0F       		.byte	0xf
 1344 069e 3B       		.byte	0x3b
 1345 069f D4060000 		.4byte	0x6d4
 1346 06a3 06       		.uleb128 0x6
 1347 06a4 AF010000 		.4byte	.LASF110
ARM GAS  /tmp/ccd90TRS.s 			page 40


 1348 06a8 0F       		.byte	0xf
 1349 06a9 3C       		.byte	0x3c
 1350 06aa E2050000 		.4byte	0x5e2
 1351 06ae 00       		.byte	0
 1352 06af 06       		.uleb128 0x6
 1353 06b0 F7020000 		.4byte	.LASF111
 1354 06b4 0F       		.byte	0xf
 1355 06b5 3D       		.byte	0x3d
 1356 06b6 D5060000 		.4byte	0x6d5
 1357 06ba 04       		.byte	0x4
 1358 06bb 06       		.uleb128 0x6
 1359 06bc 98010000 		.4byte	.LASF112
 1360 06c0 0F       		.byte	0xf
 1361 06c1 3E       		.byte	0x3e
 1362 06c2 D5060000 		.4byte	0x6d5
 1363 06c6 08       		.byte	0x8
 1364 06c7 06       		.uleb128 0x6
 1365 06c8 4E030000 		.4byte	.LASF113
 1366 06cc 0F       		.byte	0xf
 1367 06cd 3F       		.byte	0x3f
 1368 06ce D5060000 		.4byte	0x6d5
 1369 06d2 0C       		.byte	0xc
 1370 06d3 00       		.byte	0
 1371 06d4 18       		.uleb128 0x18
 1372 06d5 09       		.uleb128 0x9
 1373 06d6 04       		.byte	0x4
 1374 06d7 D4060000 		.4byte	0x6d4
 1375 06db 19       		.uleb128 0x19
 1376 06dc 61060000 		.4byte	.LASF125
 1377 06e0 01       		.byte	0x1
 1378 06e1 47       		.byte	0x47
 1379 06e2 01       		.byte	0x1
 1380 06e3 F1060000 		.4byte	0x6f1
 1381 06e7 1A       		.uleb128 0x1a
 1382 06e8 6900     		.ascii	"i\000"
 1383 06ea 01       		.byte	0x1
 1384 06eb 48       		.byte	0x48
 1385 06ec 25000000 		.4byte	0x25
 1386 06f0 00       		.byte	0
 1387 06f1 1B       		.uleb128 0x1b
 1388 06f2 ED050000 		.4byte	.LASF126
 1389 06f6 01       		.byte	0x1
 1390 06f7 3C       		.byte	0x3c
 1391 06f8 04030000 		.4byte	0x304
 1392 06fc 00000000 		.4byte	.LFB241
 1393 0700 04000000 		.4byte	.LFE241-.LFB241
 1394 0704 01       		.uleb128 0x1
 1395 0705 9C       		.byte	0x9c
 1396 0706 1A070000 		.4byte	0x71a
 1397 070a 1C       		.uleb128 0x1c
 1398 070b FB050000 		.4byte	.LASF127
 1399 070f 01       		.byte	0x1
 1400 0710 3C       		.byte	0x3c
 1401 0711 2C000000 		.4byte	0x2c
 1402 0715 00000000 		.4byte	.LLST0
 1403 0719 00       		.byte	0
 1404 071a 1D       		.uleb128 0x1d
ARM GAS  /tmp/ccd90TRS.s 			page 41


 1405 071b 47040000 		.4byte	.LASF128
 1406 071f 01       		.byte	0x1
 1407 0720 42       		.byte	0x42
 1408 0721 00000000 		.4byte	.LFB242
 1409 0725 10000000 		.4byte	.LFE242-.LFB242
 1410 0729 01       		.uleb128 0x1
 1411 072a 9C       		.byte	0x9c
 1412 072b 4F070000 		.4byte	0x74f
 1413 072f 1E       		.uleb128 0x1e
 1414 0730 0C000000 		.4byte	.LVL2
 1415 0734 4E090000 		.4byte	0x94e
 1416 0738 1F       		.uleb128 0x1f
 1417 0739 01       		.uleb128 0x1
 1418 073a 52       		.byte	0x52
 1419 073b 01       		.uleb128 0x1
 1420 073c 30       		.byte	0x30
 1421 073d 1F       		.uleb128 0x1f
 1422 073e 01       		.uleb128 0x1
 1423 073f 51       		.byte	0x51
 1424 0740 03       		.uleb128 0x3
 1425 0741 0A       		.byte	0xa
 1426 0742 4801     		.2byte	0x148
 1427 0744 1F       		.uleb128 0x1f
 1428 0745 01       		.uleb128 0x1
 1429 0746 50       		.byte	0x50
 1430 0747 05       		.uleb128 0x5
 1431 0748 03       		.byte	0x3
 1432 0749 00000000 		.4byte	.LANCHOR0
 1433 074d 00       		.byte	0
 1434 074e 00       		.byte	0
 1435 074f 20       		.uleb128 0x20
 1436 0750 DB060000 		.4byte	0x6db
 1437 0754 00000000 		.4byte	.LFB243
 1438 0758 C0000000 		.4byte	.LFE243-.LFB243
 1439 075c 01       		.uleb128 0x1
 1440 075d 9C       		.byte	0x9c
 1441 075e C5080000 		.4byte	0x8c5
 1442 0762 21       		.uleb128 0x21
 1443 0763 E7060000 		.4byte	0x6e7
 1444 0767 21000000 		.4byte	.LLST1
 1445 076b 22       		.uleb128 0x22
 1446 076c 00000000 		.4byte	.Ldebug_ranges0+0
 1447 0770 52080000 		.4byte	0x852
 1448 0774 21       		.uleb128 0x21
 1449 0775 E7060000 		.4byte	0x6e7
 1450 0779 62000000 		.4byte	.LLST2
 1451 077d 23       		.uleb128 0x23
 1452 077e 4E000000 		.4byte	.LVL11
 1453 0782 6F090000 		.4byte	0x96f
 1454 0786 9B070000 		.4byte	0x79b
 1455 078a 1F       		.uleb128 0x1f
 1456 078b 01       		.uleb128 0x1
 1457 078c 51       		.byte	0x51
 1458 078d 03       		.uleb128 0x3
 1459 078e 74       		.byte	0x74
 1460 078f 00       		.sleb128 0
 1461 0790 06       		.byte	0x6
ARM GAS  /tmp/ccd90TRS.s 			page 42


 1462 0791 1F       		.uleb128 0x1f
 1463 0792 01       		.uleb128 0x1
 1464 0793 50       		.byte	0x50
 1465 0794 05       		.uleb128 0x5
 1466 0795 03       		.byte	0x3
 1467 0796 00000000 		.4byte	.LANCHOR0
 1468 079a 00       		.byte	0
 1469 079b 23       		.uleb128 0x23
 1470 079c 5C000000 		.4byte	.LVL12
 1471 07a0 6F090000 		.4byte	0x96f
 1472 07a4 B2070000 		.4byte	0x7b2
 1473 07a8 1F       		.uleb128 0x1f
 1474 07a9 01       		.uleb128 0x1
 1475 07aa 50       		.byte	0x50
 1476 07ab 05       		.uleb128 0x5
 1477 07ac 03       		.byte	0x3
 1478 07ad 00000000 		.4byte	.LANCHOR0
 1479 07b1 00       		.byte	0
 1480 07b2 23       		.uleb128 0x23
 1481 07b3 68000000 		.4byte	.LVL14
 1482 07b7 85090000 		.4byte	0x985
 1483 07bb C9070000 		.4byte	0x7c9
 1484 07bf 1F       		.uleb128 0x1f
 1485 07c0 01       		.uleb128 0x1
 1486 07c1 50       		.byte	0x50
 1487 07c2 05       		.uleb128 0x5
 1488 07c3 03       		.byte	0x3
 1489 07c4 00000000 		.4byte	.LANCHOR0
 1490 07c8 00       		.byte	0
 1491 07c9 23       		.uleb128 0x23
 1492 07ca 74000000 		.4byte	.LVL15
 1493 07ce 9A090000 		.4byte	0x99a
 1494 07d2 DC070000 		.4byte	0x7dc
 1495 07d6 1F       		.uleb128 0x1f
 1496 07d7 01       		.uleb128 0x1
 1497 07d8 50       		.byte	0x50
 1498 07d9 01       		.uleb128 0x1
 1499 07da 33       		.byte	0x33
 1500 07db 00       		.byte	0
 1501 07dc 23       		.uleb128 0x23
 1502 07dd 80000000 		.4byte	.LVL17
 1503 07e1 85090000 		.4byte	0x985
 1504 07e5 F3070000 		.4byte	0x7f3
 1505 07e9 1F       		.uleb128 0x1f
 1506 07ea 01       		.uleb128 0x1
 1507 07eb 50       		.byte	0x50
 1508 07ec 05       		.uleb128 0x5
 1509 07ed 03       		.byte	0x3
 1510 07ee 00000000 		.4byte	.LANCHOR0
 1511 07f2 00       		.byte	0
 1512 07f3 23       		.uleb128 0x23
 1513 07f4 8E000000 		.4byte	.LVL18
 1514 07f8 9A090000 		.4byte	0x99a
 1515 07fc 06080000 		.4byte	0x806
 1516 0800 1F       		.uleb128 0x1f
 1517 0801 01       		.uleb128 0x1
 1518 0802 50       		.byte	0x50
ARM GAS  /tmp/ccd90TRS.s 			page 43


 1519 0803 01       		.uleb128 0x1
 1520 0804 34       		.byte	0x34
 1521 0805 00       		.byte	0
 1522 0806 23       		.uleb128 0x23
 1523 0807 9C000000 		.4byte	.LVL21
 1524 080b 4E090000 		.4byte	0x94e
 1525 080f 2B080000 		.4byte	0x82b
 1526 0813 1F       		.uleb128 0x1f
 1527 0814 01       		.uleb128 0x1
 1528 0815 52       		.byte	0x52
 1529 0816 05       		.uleb128 0x5
 1530 0817 03       		.byte	0x3
 1531 0818 00000000 		.4byte	null_provider
 1532 081c 1F       		.uleb128 0x1f
 1533 081d 01       		.uleb128 0x1
 1534 081e 51       		.byte	0x51
 1535 081f 01       		.uleb128 0x1
 1536 0820 40       		.byte	0x40
 1537 0821 1F       		.uleb128 0x1f
 1538 0822 01       		.uleb128 0x1
 1539 0823 50       		.byte	0x50
 1540 0824 05       		.uleb128 0x5
 1541 0825 03       		.byte	0x3
 1542 0826 00000000 		.4byte	.LANCHOR0
 1543 082a 00       		.byte	0
 1544 082b 23       		.uleb128 0x23
 1545 082c A2000000 		.4byte	.LVL22
 1546 0830 85090000 		.4byte	0x985
 1547 0834 42080000 		.4byte	0x842
 1548 0838 1F       		.uleb128 0x1f
 1549 0839 01       		.uleb128 0x1
 1550 083a 50       		.byte	0x50
 1551 083b 05       		.uleb128 0x5
 1552 083c 03       		.byte	0x3
 1553 083d 00000000 		.4byte	.LANCHOR0
 1554 0841 00       		.byte	0
 1555 0842 1E       		.uleb128 0x1e
 1556 0843 B4000000 		.4byte	.LVL24
 1557 0847 9A090000 		.4byte	0x99a
 1558 084b 1F       		.uleb128 0x1f
 1559 084c 01       		.uleb128 0x1
 1560 084d 50       		.byte	0x50
 1561 084e 01       		.uleb128 0x1
 1562 084f 35       		.byte	0x35
 1563 0850 00       		.byte	0
 1564 0851 00       		.byte	0
 1565 0852 23       		.uleb128 0x23
 1566 0853 10000000 		.4byte	.LVL3
 1567 0857 BB090000 		.4byte	0x9bb
 1568 085b 74080000 		.4byte	0x874
 1569 085f 1F       		.uleb128 0x1f
 1570 0860 01       		.uleb128 0x1
 1571 0861 52       		.byte	0x52
 1572 0862 01       		.uleb128 0x1
 1573 0863 35       		.byte	0x35
 1574 0864 1F       		.uleb128 0x1f
 1575 0865 01       		.uleb128 0x1
ARM GAS  /tmp/ccd90TRS.s 			page 44


 1576 0866 51       		.byte	0x51
 1577 0867 02       		.uleb128 0x2
 1578 0868 75       		.byte	0x75
 1579 0869 00       		.sleb128 0
 1580 086a 1F       		.uleb128 0x1f
 1581 086b 01       		.uleb128 0x1
 1582 086c 50       		.byte	0x50
 1583 086d 05       		.uleb128 0x5
 1584 086e 03       		.byte	0x3
 1585 086f 00000000 		.4byte	.LANCHOR0
 1586 0873 00       		.byte	0
 1587 0874 23       		.uleb128 0x23
 1588 0875 18000000 		.4byte	.LVL5
 1589 0879 85090000 		.4byte	0x985
 1590 087d 8B080000 		.4byte	0x88b
 1591 0881 1F       		.uleb128 0x1f
 1592 0882 01       		.uleb128 0x1
 1593 0883 50       		.byte	0x50
 1594 0884 05       		.uleb128 0x5
 1595 0885 03       		.byte	0x3
 1596 0886 00000000 		.4byte	.LANCHOR0
 1597 088a 00       		.byte	0
 1598 088b 23       		.uleb128 0x23
 1599 088c 24000000 		.4byte	.LVL6
 1600 0890 9A090000 		.4byte	0x99a
 1601 0894 9E080000 		.4byte	0x89e
 1602 0898 1F       		.uleb128 0x1f
 1603 0899 01       		.uleb128 0x1
 1604 089a 50       		.byte	0x50
 1605 089b 01       		.uleb128 0x1
 1606 089c 31       		.byte	0x31
 1607 089d 00       		.byte	0
 1608 089e 23       		.uleb128 0x23
 1609 089f 30000000 		.4byte	.LVL8
 1610 08a3 85090000 		.4byte	0x985
 1611 08a7 B5080000 		.4byte	0x8b5
 1612 08ab 1F       		.uleb128 0x1f
 1613 08ac 01       		.uleb128 0x1
 1614 08ad 50       		.byte	0x50
 1615 08ae 05       		.uleb128 0x5
 1616 08af 03       		.byte	0x3
 1617 08b0 00000000 		.4byte	.LANCHOR0
 1618 08b4 00       		.byte	0
 1619 08b5 24       		.uleb128 0x24
 1620 08b6 3E000000 		.4byte	.LVL9
 1621 08ba 9A090000 		.4byte	0x99a
 1622 08be 1F       		.uleb128 0x1f
 1623 08bf 01       		.uleb128 0x1
 1624 08c0 50       		.byte	0x50
 1625 08c1 01       		.uleb128 0x1
 1626 08c2 32       		.byte	0x32
 1627 08c3 00       		.byte	0
 1628 08c4 00       		.byte	0
 1629 08c5 25       		.uleb128 0x25
 1630 08c6 6D703100 		.ascii	"mp1\000"
 1631 08ca 01       		.byte	0x1
 1632 08cb 31       		.byte	0x31
ARM GAS  /tmp/ccd90TRS.s 			page 45


 1633 08cc 8C060000 		.4byte	0x68c
 1634 08d0 05       		.uleb128 0x5
 1635 08d1 03       		.byte	0x3
 1636 08d2 00000000 		.4byte	mp1
 1637 08d6 26       		.uleb128 0x26
 1638 08d7 9F000000 		.4byte	.LASF114
 1639 08db 10       		.byte	0x10
 1640 08dc FA06     		.2byte	0x6fa
 1641 08de E2080000 		.4byte	0x8e2
 1642 08e2 14       		.uleb128 0x14
 1643 08e3 AD000000 		.4byte	0xad
 1644 08e7 27       		.uleb128 0x27
 1645 08e8 636800   		.ascii	"ch\000"
 1646 08eb 07       		.byte	0x7
 1647 08ec 0B02     		.2byte	0x20b
 1648 08ee D3030000 		.4byte	0x3d3
 1649 08f2 15       		.uleb128 0x15
 1650 08f3 04030000 		.4byte	0x304
 1651 08f7 FD080000 		.4byte	0x8fd
 1652 08fb 28       		.uleb128 0x28
 1653 08fc 00       		.byte	0
 1654 08fd 29       		.uleb128 0x29
 1655 08fe 776100   		.ascii	"wa\000"
 1656 0901 0F       		.byte	0xf
 1657 0902 A9       		.byte	0xa9
 1658 0903 07090000 		.4byte	0x907
 1659 0907 13       		.uleb128 0x13
 1660 0908 F2080000 		.4byte	0x8f2
 1661 090c 2A       		.uleb128 0x2a
 1662 090d 0C040000 		.4byte	.LASF115
 1663 0911 01       		.byte	0x1
 1664 0912 64       		.byte	0x64
 1665 0913 1D090000 		.4byte	0x91d
 1666 0917 05       		.uleb128 0x5
 1667 0918 03       		.byte	0x3
 1668 0919 00000000 		.4byte	testpools1
 1669 091d 13       		.uleb128 0x13
 1670 091e 97060000 		.4byte	0x697
 1671 0922 15       		.uleb128 0x15
 1672 0923 32090000 		.4byte	0x932
 1673 0927 32090000 		.4byte	0x932
 1674 092b 16       		.uleb128 0x16
 1675 092c 3A040000 		.4byte	0x43a
 1676 0930 01       		.byte	0x1
 1677 0931 00       		.byte	0
 1678 0932 09       		.uleb128 0x9
 1679 0933 04       		.byte	0x4
 1680 0934 1D090000 		.4byte	0x91d
 1681 0938 2A       		.uleb128 0x2a
 1682 0939 0F030000 		.4byte	.LASF116
 1683 093d 01       		.byte	0x1
 1684 093e 70       		.byte	0x70
 1685 093f 49090000 		.4byte	0x949
 1686 0943 05       		.uleb128 0x5
 1687 0944 03       		.byte	0x3
 1688 0945 00000000 		.4byte	patternpools
 1689 0949 13       		.uleb128 0x13
ARM GAS  /tmp/ccd90TRS.s 			page 46


 1690 094a 22090000 		.4byte	0x922
 1691 094e 2B       		.uleb128 0x2b
 1692 094f F1010000 		.4byte	.LASF117
 1693 0953 0E       		.byte	0xe
 1694 0954 6C       		.byte	0x6c
 1695 0955 69090000 		.4byte	0x969
 1696 0959 0C       		.uleb128 0xc
 1697 095a 69090000 		.4byte	0x969
 1698 095e 0C       		.uleb128 0xc
 1699 095f 2C000000 		.4byte	0x2c
 1700 0963 0C       		.uleb128 0xc
 1701 0964 20060000 		.4byte	0x620
 1702 0968 00       		.byte	0
 1703 0969 09       		.uleb128 0x9
 1704 096a 04       		.byte	0x4
 1705 096b 8C060000 		.4byte	0x68c
 1706 096f 2B       		.uleb128 0x2b
 1707 0970 FB040000 		.4byte	.LASF118
 1708 0974 0E       		.byte	0xe
 1709 0975 71       		.byte	0x71
 1710 0976 85090000 		.4byte	0x985
 1711 097a 0C       		.uleb128 0xc
 1712 097b 69090000 		.4byte	0x969
 1713 097f 0C       		.uleb128 0xc
 1714 0980 04030000 		.4byte	0x304
 1715 0984 00       		.byte	0
 1716 0985 2C       		.uleb128 0x2c
 1717 0986 EF040000 		.4byte	.LASF119
 1718 098a 0E       		.byte	0xe
 1719 098b 6F       		.byte	0x6f
 1720 098c 04030000 		.4byte	0x304
 1721 0990 9A090000 		.4byte	0x99a
 1722 0994 0C       		.uleb128 0xc
 1723 0995 69090000 		.4byte	0x969
 1724 0999 00       		.byte	0
 1725 099a 2C       		.uleb128 0x2c
 1726 099b 00060000 		.4byte	.LASF120
 1727 099f 0F       		.byte	0xf
 1728 09a0 5A       		.byte	0x5a
 1729 09a1 B4090000 		.4byte	0x9b4
 1730 09a5 B4090000 		.4byte	0x9b4
 1731 09a9 0C       		.uleb128 0xc
 1732 09aa 37000000 		.4byte	0x37
 1733 09ae 0C       		.uleb128 0xc
 1734 09af B4090000 		.4byte	0x9b4
 1735 09b3 00       		.byte	0
 1736 09b4 04       		.uleb128 0x4
 1737 09b5 01       		.byte	0x1
 1738 09b6 02       		.byte	0x2
 1739 09b7 6E030000 		.4byte	.LASF121
 1740 09bb 2D       		.uleb128 0x2d
 1741 09bc 1C060000 		.4byte	.LASF129
 1742 09c0 0E       		.byte	0xe
 1743 09c1 6D       		.byte	0x6d
 1744 09c2 0C       		.uleb128 0xc
 1745 09c3 69090000 		.4byte	0x969
 1746 09c7 0C       		.uleb128 0xc
ARM GAS  /tmp/ccd90TRS.s 			page 47


 1747 09c8 04030000 		.4byte	0x304
 1748 09cc 0C       		.uleb128 0xc
 1749 09cd 2C000000 		.4byte	0x2c
 1750 09d1 00       		.byte	0
 1751 09d2 00       		.byte	0
 1752              		.section	.debug_abbrev,"",%progbits
 1753              	.Ldebug_abbrev0:
 1754 0000 01       		.uleb128 0x1
 1755 0001 11       		.uleb128 0x11
 1756 0002 01       		.byte	0x1
 1757 0003 25       		.uleb128 0x25
 1758 0004 0E       		.uleb128 0xe
 1759 0005 13       		.uleb128 0x13
 1760 0006 0B       		.uleb128 0xb
 1761 0007 03       		.uleb128 0x3
 1762 0008 0E       		.uleb128 0xe
 1763 0009 1B       		.uleb128 0x1b
 1764 000a 0E       		.uleb128 0xe
 1765 000b 55       		.uleb128 0x55
 1766 000c 17       		.uleb128 0x17
 1767 000d 11       		.uleb128 0x11
 1768 000e 01       		.uleb128 0x1
 1769 000f 10       		.uleb128 0x10
 1770 0010 17       		.uleb128 0x17
 1771 0011 00       		.byte	0
 1772 0012 00       		.byte	0
 1773 0013 02       		.uleb128 0x2
 1774 0014 24       		.uleb128 0x24
 1775 0015 00       		.byte	0
 1776 0016 0B       		.uleb128 0xb
 1777 0017 0B       		.uleb128 0xb
 1778 0018 3E       		.uleb128 0x3e
 1779 0019 0B       		.uleb128 0xb
 1780 001a 03       		.uleb128 0x3
 1781 001b 08       		.uleb128 0x8
 1782 001c 00       		.byte	0
 1783 001d 00       		.byte	0
 1784 001e 03       		.uleb128 0x3
 1785 001f 16       		.uleb128 0x16
 1786 0020 00       		.byte	0
 1787 0021 03       		.uleb128 0x3
 1788 0022 0E       		.uleb128 0xe
 1789 0023 3A       		.uleb128 0x3a
 1790 0024 0B       		.uleb128 0xb
 1791 0025 3B       		.uleb128 0x3b
 1792 0026 0B       		.uleb128 0xb
 1793 0027 49       		.uleb128 0x49
 1794 0028 13       		.uleb128 0x13
 1795 0029 00       		.byte	0
 1796 002a 00       		.byte	0
 1797 002b 04       		.uleb128 0x4
 1798 002c 24       		.uleb128 0x24
 1799 002d 00       		.byte	0
 1800 002e 0B       		.uleb128 0xb
 1801 002f 0B       		.uleb128 0xb
 1802 0030 3E       		.uleb128 0x3e
 1803 0031 0B       		.uleb128 0xb
ARM GAS  /tmp/ccd90TRS.s 			page 48


 1804 0032 03       		.uleb128 0x3
 1805 0033 0E       		.uleb128 0xe
 1806 0034 00       		.byte	0
 1807 0035 00       		.byte	0
 1808 0036 05       		.uleb128 0x5
 1809 0037 13       		.uleb128 0x13
 1810 0038 01       		.byte	0x1
 1811 0039 03       		.uleb128 0x3
 1812 003a 0E       		.uleb128 0xe
 1813 003b 0B       		.uleb128 0xb
 1814 003c 0B       		.uleb128 0xb
 1815 003d 3A       		.uleb128 0x3a
 1816 003e 0B       		.uleb128 0xb
 1817 003f 3B       		.uleb128 0x3b
 1818 0040 0B       		.uleb128 0xb
 1819 0041 01       		.uleb128 0x1
 1820 0042 13       		.uleb128 0x13
 1821 0043 00       		.byte	0
 1822 0044 00       		.byte	0
 1823 0045 06       		.uleb128 0x6
 1824 0046 0D       		.uleb128 0xd
 1825 0047 00       		.byte	0
 1826 0048 03       		.uleb128 0x3
 1827 0049 0E       		.uleb128 0xe
 1828 004a 3A       		.uleb128 0x3a
 1829 004b 0B       		.uleb128 0xb
 1830 004c 3B       		.uleb128 0x3b
 1831 004d 0B       		.uleb128 0xb
 1832 004e 49       		.uleb128 0x49
 1833 004f 13       		.uleb128 0x13
 1834 0050 38       		.uleb128 0x38
 1835 0051 0B       		.uleb128 0xb
 1836 0052 00       		.byte	0
 1837 0053 00       		.byte	0
 1838 0054 07       		.uleb128 0x7
 1839 0055 0D       		.uleb128 0xd
 1840 0056 00       		.byte	0
 1841 0057 03       		.uleb128 0x3
 1842 0058 08       		.uleb128 0x8
 1843 0059 3A       		.uleb128 0x3a
 1844 005a 0B       		.uleb128 0xb
 1845 005b 3B       		.uleb128 0x3b
 1846 005c 05       		.uleb128 0x5
 1847 005d 49       		.uleb128 0x49
 1848 005e 13       		.uleb128 0x13
 1849 005f 38       		.uleb128 0x38
 1850 0060 0B       		.uleb128 0xb
 1851 0061 00       		.byte	0
 1852 0062 00       		.byte	0
 1853 0063 08       		.uleb128 0x8
 1854 0064 0D       		.uleb128 0xd
 1855 0065 00       		.byte	0
 1856 0066 03       		.uleb128 0x3
 1857 0067 0E       		.uleb128 0xe
 1858 0068 3A       		.uleb128 0x3a
 1859 0069 0B       		.uleb128 0xb
 1860 006a 3B       		.uleb128 0x3b
ARM GAS  /tmp/ccd90TRS.s 			page 49


 1861 006b 05       		.uleb128 0x5
 1862 006c 49       		.uleb128 0x49
 1863 006d 13       		.uleb128 0x13
 1864 006e 38       		.uleb128 0x38
 1865 006f 0B       		.uleb128 0xb
 1866 0070 00       		.byte	0
 1867 0071 00       		.byte	0
 1868 0072 09       		.uleb128 0x9
 1869 0073 0F       		.uleb128 0xf
 1870 0074 00       		.byte	0
 1871 0075 0B       		.uleb128 0xb
 1872 0076 0B       		.uleb128 0xb
 1873 0077 49       		.uleb128 0x49
 1874 0078 13       		.uleb128 0x13
 1875 0079 00       		.byte	0
 1876 007a 00       		.byte	0
 1877 007b 0A       		.uleb128 0xa
 1878 007c 13       		.uleb128 0x13
 1879 007d 01       		.byte	0x1
 1880 007e 03       		.uleb128 0x3
 1881 007f 0E       		.uleb128 0xe
 1882 0080 0B       		.uleb128 0xb
 1883 0081 0B       		.uleb128 0xb
 1884 0082 3A       		.uleb128 0x3a
 1885 0083 0B       		.uleb128 0xb
 1886 0084 3B       		.uleb128 0x3b
 1887 0085 05       		.uleb128 0x5
 1888 0086 01       		.uleb128 0x1
 1889 0087 13       		.uleb128 0x13
 1890 0088 00       		.byte	0
 1891 0089 00       		.byte	0
 1892 008a 0B       		.uleb128 0xb
 1893 008b 15       		.uleb128 0x15
 1894 008c 01       		.byte	0x1
 1895 008d 27       		.uleb128 0x27
 1896 008e 19       		.uleb128 0x19
 1897 008f 01       		.uleb128 0x1
 1898 0090 13       		.uleb128 0x13
 1899 0091 00       		.byte	0
 1900 0092 00       		.byte	0
 1901 0093 0C       		.uleb128 0xc
 1902 0094 05       		.uleb128 0x5
 1903 0095 00       		.byte	0
 1904 0096 49       		.uleb128 0x49
 1905 0097 13       		.uleb128 0x13
 1906 0098 00       		.byte	0
 1907 0099 00       		.byte	0
 1908 009a 0D       		.uleb128 0xd
 1909 009b 0F       		.uleb128 0xf
 1910 009c 00       		.byte	0
 1911 009d 0B       		.uleb128 0xb
 1912 009e 0B       		.uleb128 0xb
 1913 009f 00       		.byte	0
 1914 00a0 00       		.byte	0
 1915 00a1 0E       		.uleb128 0xe
 1916 00a2 13       		.uleb128 0x13
 1917 00a3 01       		.byte	0x1
ARM GAS  /tmp/ccd90TRS.s 			page 50


 1918 00a4 03       		.uleb128 0x3
 1919 00a5 0E       		.uleb128 0xe
 1920 00a6 0B       		.uleb128 0xb
 1921 00a7 05       		.uleb128 0x5
 1922 00a8 3A       		.uleb128 0x3a
 1923 00a9 0B       		.uleb128 0xb
 1924 00aa 3B       		.uleb128 0x3b
 1925 00ab 05       		.uleb128 0x5
 1926 00ac 01       		.uleb128 0x1
 1927 00ad 13       		.uleb128 0x13
 1928 00ae 00       		.byte	0
 1929 00af 00       		.byte	0
 1930 00b0 0F       		.uleb128 0xf
 1931 00b1 0D       		.uleb128 0xd
 1932 00b2 00       		.byte	0
 1933 00b3 03       		.uleb128 0x3
 1934 00b4 08       		.uleb128 0x8
 1935 00b5 3A       		.uleb128 0x3a
 1936 00b6 0B       		.uleb128 0xb
 1937 00b7 3B       		.uleb128 0x3b
 1938 00b8 0B       		.uleb128 0xb
 1939 00b9 49       		.uleb128 0x49
 1940 00ba 13       		.uleb128 0x13
 1941 00bb 38       		.uleb128 0x38
 1942 00bc 0B       		.uleb128 0xb
 1943 00bd 00       		.byte	0
 1944 00be 00       		.byte	0
 1945 00bf 10       		.uleb128 0x10
 1946 00c0 13       		.uleb128 0x13
 1947 00c1 01       		.byte	0x1
 1948 00c2 0B       		.uleb128 0xb
 1949 00c3 0B       		.uleb128 0xb
 1950 00c4 3A       		.uleb128 0x3a
 1951 00c5 0B       		.uleb128 0xb
 1952 00c6 3B       		.uleb128 0x3b
 1953 00c7 0B       		.uleb128 0xb
 1954 00c8 01       		.uleb128 0x1
 1955 00c9 13       		.uleb128 0x13
 1956 00ca 00       		.byte	0
 1957 00cb 00       		.byte	0
 1958 00cc 11       		.uleb128 0x11
 1959 00cd 17       		.uleb128 0x17
 1960 00ce 01       		.byte	0x1
 1961 00cf 0B       		.uleb128 0xb
 1962 00d0 0B       		.uleb128 0xb
 1963 00d1 3A       		.uleb128 0x3a
 1964 00d2 0B       		.uleb128 0xb
 1965 00d3 3B       		.uleb128 0x3b
 1966 00d4 0B       		.uleb128 0xb
 1967 00d5 01       		.uleb128 0x1
 1968 00d6 13       		.uleb128 0x13
 1969 00d7 00       		.byte	0
 1970 00d8 00       		.byte	0
 1971 00d9 12       		.uleb128 0x12
 1972 00da 0D       		.uleb128 0xd
 1973 00db 00       		.byte	0
 1974 00dc 03       		.uleb128 0x3
ARM GAS  /tmp/ccd90TRS.s 			page 51


 1975 00dd 0E       		.uleb128 0xe
 1976 00de 3A       		.uleb128 0x3a
 1977 00df 0B       		.uleb128 0xb
 1978 00e0 3B       		.uleb128 0x3b
 1979 00e1 05       		.uleb128 0x5
 1980 00e2 49       		.uleb128 0x49
 1981 00e3 13       		.uleb128 0x13
 1982 00e4 00       		.byte	0
 1983 00e5 00       		.byte	0
 1984 00e6 13       		.uleb128 0x13
 1985 00e7 26       		.uleb128 0x26
 1986 00e8 00       		.byte	0
 1987 00e9 49       		.uleb128 0x49
 1988 00ea 13       		.uleb128 0x13
 1989 00eb 00       		.byte	0
 1990 00ec 00       		.byte	0
 1991 00ed 14       		.uleb128 0x14
 1992 00ee 35       		.uleb128 0x35
 1993 00ef 00       		.byte	0
 1994 00f0 49       		.uleb128 0x49
 1995 00f1 13       		.uleb128 0x13
 1996 00f2 00       		.byte	0
 1997 00f3 00       		.byte	0
 1998 00f4 15       		.uleb128 0x15
 1999 00f5 01       		.uleb128 0x1
 2000 00f6 01       		.byte	0x1
 2001 00f7 49       		.uleb128 0x49
 2002 00f8 13       		.uleb128 0x13
 2003 00f9 01       		.uleb128 0x1
 2004 00fa 13       		.uleb128 0x13
 2005 00fb 00       		.byte	0
 2006 00fc 00       		.byte	0
 2007 00fd 16       		.uleb128 0x16
 2008 00fe 21       		.uleb128 0x21
 2009 00ff 00       		.byte	0
 2010 0100 49       		.uleb128 0x49
 2011 0101 13       		.uleb128 0x13
 2012 0102 2F       		.uleb128 0x2f
 2013 0103 0B       		.uleb128 0xb
 2014 0104 00       		.byte	0
 2015 0105 00       		.byte	0
 2016 0106 17       		.uleb128 0x17
 2017 0107 15       		.uleb128 0x15
 2018 0108 01       		.byte	0x1
 2019 0109 27       		.uleb128 0x27
 2020 010a 19       		.uleb128 0x19
 2021 010b 49       		.uleb128 0x49
 2022 010c 13       		.uleb128 0x13
 2023 010d 01       		.uleb128 0x1
 2024 010e 13       		.uleb128 0x13
 2025 010f 00       		.byte	0
 2026 0110 00       		.byte	0
 2027 0111 18       		.uleb128 0x18
 2028 0112 15       		.uleb128 0x15
 2029 0113 00       		.byte	0
 2030 0114 27       		.uleb128 0x27
 2031 0115 19       		.uleb128 0x19
ARM GAS  /tmp/ccd90TRS.s 			page 52


 2032 0116 00       		.byte	0
 2033 0117 00       		.byte	0
 2034 0118 19       		.uleb128 0x19
 2035 0119 2E       		.uleb128 0x2e
 2036 011a 01       		.byte	0x1
 2037 011b 03       		.uleb128 0x3
 2038 011c 0E       		.uleb128 0xe
 2039 011d 3A       		.uleb128 0x3a
 2040 011e 0B       		.uleb128 0xb
 2041 011f 3B       		.uleb128 0x3b
 2042 0120 0B       		.uleb128 0xb
 2043 0121 27       		.uleb128 0x27
 2044 0122 19       		.uleb128 0x19
 2045 0123 20       		.uleb128 0x20
 2046 0124 0B       		.uleb128 0xb
 2047 0125 01       		.uleb128 0x1
 2048 0126 13       		.uleb128 0x13
 2049 0127 00       		.byte	0
 2050 0128 00       		.byte	0
 2051 0129 1A       		.uleb128 0x1a
 2052 012a 34       		.uleb128 0x34
 2053 012b 00       		.byte	0
 2054 012c 03       		.uleb128 0x3
 2055 012d 08       		.uleb128 0x8
 2056 012e 3A       		.uleb128 0x3a
 2057 012f 0B       		.uleb128 0xb
 2058 0130 3B       		.uleb128 0x3b
 2059 0131 0B       		.uleb128 0xb
 2060 0132 49       		.uleb128 0x49
 2061 0133 13       		.uleb128 0x13
 2062 0134 00       		.byte	0
 2063 0135 00       		.byte	0
 2064 0136 1B       		.uleb128 0x1b
 2065 0137 2E       		.uleb128 0x2e
 2066 0138 01       		.byte	0x1
 2067 0139 03       		.uleb128 0x3
 2068 013a 0E       		.uleb128 0xe
 2069 013b 3A       		.uleb128 0x3a
 2070 013c 0B       		.uleb128 0xb
 2071 013d 3B       		.uleb128 0x3b
 2072 013e 0B       		.uleb128 0xb
 2073 013f 27       		.uleb128 0x27
 2074 0140 19       		.uleb128 0x19
 2075 0141 49       		.uleb128 0x49
 2076 0142 13       		.uleb128 0x13
 2077 0143 11       		.uleb128 0x11
 2078 0144 01       		.uleb128 0x1
 2079 0145 12       		.uleb128 0x12
 2080 0146 06       		.uleb128 0x6
 2081 0147 40       		.uleb128 0x40
 2082 0148 18       		.uleb128 0x18
 2083 0149 9742     		.uleb128 0x2117
 2084 014b 19       		.uleb128 0x19
 2085 014c 01       		.uleb128 0x1
 2086 014d 13       		.uleb128 0x13
 2087 014e 00       		.byte	0
 2088 014f 00       		.byte	0
ARM GAS  /tmp/ccd90TRS.s 			page 53


 2089 0150 1C       		.uleb128 0x1c
 2090 0151 05       		.uleb128 0x5
 2091 0152 00       		.byte	0
 2092 0153 03       		.uleb128 0x3
 2093 0154 0E       		.uleb128 0xe
 2094 0155 3A       		.uleb128 0x3a
 2095 0156 0B       		.uleb128 0xb
 2096 0157 3B       		.uleb128 0x3b
 2097 0158 0B       		.uleb128 0xb
 2098 0159 49       		.uleb128 0x49
 2099 015a 13       		.uleb128 0x13
 2100 015b 02       		.uleb128 0x2
 2101 015c 17       		.uleb128 0x17
 2102 015d 00       		.byte	0
 2103 015e 00       		.byte	0
 2104 015f 1D       		.uleb128 0x1d
 2105 0160 2E       		.uleb128 0x2e
 2106 0161 01       		.byte	0x1
 2107 0162 03       		.uleb128 0x3
 2108 0163 0E       		.uleb128 0xe
 2109 0164 3A       		.uleb128 0x3a
 2110 0165 0B       		.uleb128 0xb
 2111 0166 3B       		.uleb128 0x3b
 2112 0167 0B       		.uleb128 0xb
 2113 0168 27       		.uleb128 0x27
 2114 0169 19       		.uleb128 0x19
 2115 016a 11       		.uleb128 0x11
 2116 016b 01       		.uleb128 0x1
 2117 016c 12       		.uleb128 0x12
 2118 016d 06       		.uleb128 0x6
 2119 016e 40       		.uleb128 0x40
 2120 016f 18       		.uleb128 0x18
 2121 0170 9742     		.uleb128 0x2117
 2122 0172 19       		.uleb128 0x19
 2123 0173 01       		.uleb128 0x1
 2124 0174 13       		.uleb128 0x13
 2125 0175 00       		.byte	0
 2126 0176 00       		.byte	0
 2127 0177 1E       		.uleb128 0x1e
 2128 0178 898201   		.uleb128 0x4109
 2129 017b 01       		.byte	0x1
 2130 017c 11       		.uleb128 0x11
 2131 017d 01       		.uleb128 0x1
 2132 017e 9542     		.uleb128 0x2115
 2133 0180 19       		.uleb128 0x19
 2134 0181 31       		.uleb128 0x31
 2135 0182 13       		.uleb128 0x13
 2136 0183 00       		.byte	0
 2137 0184 00       		.byte	0
 2138 0185 1F       		.uleb128 0x1f
 2139 0186 8A8201   		.uleb128 0x410a
 2140 0189 00       		.byte	0
 2141 018a 02       		.uleb128 0x2
 2142 018b 18       		.uleb128 0x18
 2143 018c 9142     		.uleb128 0x2111
 2144 018e 18       		.uleb128 0x18
 2145 018f 00       		.byte	0
ARM GAS  /tmp/ccd90TRS.s 			page 54


 2146 0190 00       		.byte	0
 2147 0191 20       		.uleb128 0x20
 2148 0192 2E       		.uleb128 0x2e
 2149 0193 01       		.byte	0x1
 2150 0194 31       		.uleb128 0x31
 2151 0195 13       		.uleb128 0x13
 2152 0196 11       		.uleb128 0x11
 2153 0197 01       		.uleb128 0x1
 2154 0198 12       		.uleb128 0x12
 2155 0199 06       		.uleb128 0x6
 2156 019a 40       		.uleb128 0x40
 2157 019b 18       		.uleb128 0x18
 2158 019c 9742     		.uleb128 0x2117
 2159 019e 19       		.uleb128 0x19
 2160 019f 01       		.uleb128 0x1
 2161 01a0 13       		.uleb128 0x13
 2162 01a1 00       		.byte	0
 2163 01a2 00       		.byte	0
 2164 01a3 21       		.uleb128 0x21
 2165 01a4 34       		.uleb128 0x34
 2166 01a5 00       		.byte	0
 2167 01a6 31       		.uleb128 0x31
 2168 01a7 13       		.uleb128 0x13
 2169 01a8 02       		.uleb128 0x2
 2170 01a9 17       		.uleb128 0x17
 2171 01aa 00       		.byte	0
 2172 01ab 00       		.byte	0
 2173 01ac 22       		.uleb128 0x22
 2174 01ad 0B       		.uleb128 0xb
 2175 01ae 01       		.byte	0x1
 2176 01af 55       		.uleb128 0x55
 2177 01b0 17       		.uleb128 0x17
 2178 01b1 01       		.uleb128 0x1
 2179 01b2 13       		.uleb128 0x13
 2180 01b3 00       		.byte	0
 2181 01b4 00       		.byte	0
 2182 01b5 23       		.uleb128 0x23
 2183 01b6 898201   		.uleb128 0x4109
 2184 01b9 01       		.byte	0x1
 2185 01ba 11       		.uleb128 0x11
 2186 01bb 01       		.uleb128 0x1
 2187 01bc 31       		.uleb128 0x31
 2188 01bd 13       		.uleb128 0x13
 2189 01be 01       		.uleb128 0x1
 2190 01bf 13       		.uleb128 0x13
 2191 01c0 00       		.byte	0
 2192 01c1 00       		.byte	0
 2193 01c2 24       		.uleb128 0x24
 2194 01c3 898201   		.uleb128 0x4109
 2195 01c6 01       		.byte	0x1
 2196 01c7 11       		.uleb128 0x11
 2197 01c8 01       		.uleb128 0x1
 2198 01c9 31       		.uleb128 0x31
 2199 01ca 13       		.uleb128 0x13
 2200 01cb 00       		.byte	0
 2201 01cc 00       		.byte	0
 2202 01cd 25       		.uleb128 0x25
ARM GAS  /tmp/ccd90TRS.s 			page 55


 2203 01ce 34       		.uleb128 0x34
 2204 01cf 00       		.byte	0
 2205 01d0 03       		.uleb128 0x3
 2206 01d1 08       		.uleb128 0x8
 2207 01d2 3A       		.uleb128 0x3a
 2208 01d3 0B       		.uleb128 0xb
 2209 01d4 3B       		.uleb128 0x3b
 2210 01d5 0B       		.uleb128 0xb
 2211 01d6 49       		.uleb128 0x49
 2212 01d7 13       		.uleb128 0x13
 2213 01d8 02       		.uleb128 0x2
 2214 01d9 18       		.uleb128 0x18
 2215 01da 00       		.byte	0
 2216 01db 00       		.byte	0
 2217 01dc 26       		.uleb128 0x26
 2218 01dd 34       		.uleb128 0x34
 2219 01de 00       		.byte	0
 2220 01df 03       		.uleb128 0x3
 2221 01e0 0E       		.uleb128 0xe
 2222 01e1 3A       		.uleb128 0x3a
 2223 01e2 0B       		.uleb128 0xb
 2224 01e3 3B       		.uleb128 0x3b
 2225 01e4 05       		.uleb128 0x5
 2226 01e5 49       		.uleb128 0x49
 2227 01e6 13       		.uleb128 0x13
 2228 01e7 3F       		.uleb128 0x3f
 2229 01e8 19       		.uleb128 0x19
 2230 01e9 3C       		.uleb128 0x3c
 2231 01ea 19       		.uleb128 0x19
 2232 01eb 00       		.byte	0
 2233 01ec 00       		.byte	0
 2234 01ed 27       		.uleb128 0x27
 2235 01ee 34       		.uleb128 0x34
 2236 01ef 00       		.byte	0
 2237 01f0 03       		.uleb128 0x3
 2238 01f1 08       		.uleb128 0x8
 2239 01f2 3A       		.uleb128 0x3a
 2240 01f3 0B       		.uleb128 0xb
 2241 01f4 3B       		.uleb128 0x3b
 2242 01f5 05       		.uleb128 0x5
 2243 01f6 49       		.uleb128 0x49
 2244 01f7 13       		.uleb128 0x13
 2245 01f8 3F       		.uleb128 0x3f
 2246 01f9 19       		.uleb128 0x19
 2247 01fa 3C       		.uleb128 0x3c
 2248 01fb 19       		.uleb128 0x19
 2249 01fc 00       		.byte	0
 2250 01fd 00       		.byte	0
 2251 01fe 28       		.uleb128 0x28
 2252 01ff 21       		.uleb128 0x21
 2253 0200 00       		.byte	0
 2254 0201 00       		.byte	0
 2255 0202 00       		.byte	0
 2256 0203 29       		.uleb128 0x29
 2257 0204 34       		.uleb128 0x34
 2258 0205 00       		.byte	0
 2259 0206 03       		.uleb128 0x3
ARM GAS  /tmp/ccd90TRS.s 			page 56


 2260 0207 08       		.uleb128 0x8
 2261 0208 3A       		.uleb128 0x3a
 2262 0209 0B       		.uleb128 0xb
 2263 020a 3B       		.uleb128 0x3b
 2264 020b 0B       		.uleb128 0xb
 2265 020c 49       		.uleb128 0x49
 2266 020d 13       		.uleb128 0x13
 2267 020e 3F       		.uleb128 0x3f
 2268 020f 19       		.uleb128 0x19
 2269 0210 3C       		.uleb128 0x3c
 2270 0211 19       		.uleb128 0x19
 2271 0212 00       		.byte	0
 2272 0213 00       		.byte	0
 2273 0214 2A       		.uleb128 0x2a
 2274 0215 34       		.uleb128 0x34
 2275 0216 00       		.byte	0
 2276 0217 03       		.uleb128 0x3
 2277 0218 0E       		.uleb128 0xe
 2278 0219 3A       		.uleb128 0x3a
 2279 021a 0B       		.uleb128 0xb
 2280 021b 3B       		.uleb128 0x3b
 2281 021c 0B       		.uleb128 0xb
 2282 021d 49       		.uleb128 0x49
 2283 021e 13       		.uleb128 0x13
 2284 021f 3F       		.uleb128 0x3f
 2285 0220 19       		.uleb128 0x19
 2286 0221 02       		.uleb128 0x2
 2287 0222 18       		.uleb128 0x18
 2288 0223 00       		.byte	0
 2289 0224 00       		.byte	0
 2290 0225 2B       		.uleb128 0x2b
 2291 0226 2E       		.uleb128 0x2e
 2292 0227 01       		.byte	0x1
 2293 0228 3F       		.uleb128 0x3f
 2294 0229 19       		.uleb128 0x19
 2295 022a 03       		.uleb128 0x3
 2296 022b 0E       		.uleb128 0xe
 2297 022c 3A       		.uleb128 0x3a
 2298 022d 0B       		.uleb128 0xb
 2299 022e 3B       		.uleb128 0x3b
 2300 022f 0B       		.uleb128 0xb
 2301 0230 27       		.uleb128 0x27
 2302 0231 19       		.uleb128 0x19
 2303 0232 3C       		.uleb128 0x3c
 2304 0233 19       		.uleb128 0x19
 2305 0234 01       		.uleb128 0x1
 2306 0235 13       		.uleb128 0x13
 2307 0236 00       		.byte	0
 2308 0237 00       		.byte	0
 2309 0238 2C       		.uleb128 0x2c
 2310 0239 2E       		.uleb128 0x2e
 2311 023a 01       		.byte	0x1
 2312 023b 3F       		.uleb128 0x3f
 2313 023c 19       		.uleb128 0x19
 2314 023d 03       		.uleb128 0x3
 2315 023e 0E       		.uleb128 0xe
 2316 023f 3A       		.uleb128 0x3a
ARM GAS  /tmp/ccd90TRS.s 			page 57


 2317 0240 0B       		.uleb128 0xb
 2318 0241 3B       		.uleb128 0x3b
 2319 0242 0B       		.uleb128 0xb
 2320 0243 27       		.uleb128 0x27
 2321 0244 19       		.uleb128 0x19
 2322 0245 49       		.uleb128 0x49
 2323 0246 13       		.uleb128 0x13
 2324 0247 3C       		.uleb128 0x3c
 2325 0248 19       		.uleb128 0x19
 2326 0249 01       		.uleb128 0x1
 2327 024a 13       		.uleb128 0x13
 2328 024b 00       		.byte	0
 2329 024c 00       		.byte	0
 2330 024d 2D       		.uleb128 0x2d
 2331 024e 2E       		.uleb128 0x2e
 2332 024f 01       		.byte	0x1
 2333 0250 3F       		.uleb128 0x3f
 2334 0251 19       		.uleb128 0x19
 2335 0252 03       		.uleb128 0x3
 2336 0253 0E       		.uleb128 0xe
 2337 0254 3A       		.uleb128 0x3a
 2338 0255 0B       		.uleb128 0xb
 2339 0256 3B       		.uleb128 0x3b
 2340 0257 0B       		.uleb128 0xb
 2341 0258 27       		.uleb128 0x27
 2342 0259 19       		.uleb128 0x19
 2343 025a 3C       		.uleb128 0x3c
 2344 025b 19       		.uleb128 0x19
 2345 025c 00       		.byte	0
 2346 025d 00       		.byte	0
 2347 025e 00       		.byte	0
 2348              		.section	.debug_loc,"",%progbits
 2349              	.Ldebug_loc0:
 2350              	.LLST0:
 2351 0000 00000000 		.4byte	.LVL0
 2352 0004 02000000 		.4byte	.LVL1
 2353 0008 0100     		.2byte	0x1
 2354 000a 50       		.byte	0x50
 2355 000b 02000000 		.4byte	.LVL1
 2356 000f 04000000 		.4byte	.LFE241
 2357 0013 0400     		.2byte	0x4
 2358 0015 F3       		.byte	0xf3
 2359 0016 01       		.uleb128 0x1
 2360 0017 50       		.byte	0x50
 2361 0018 9F       		.byte	0x9f
 2362 0019 00000000 		.4byte	0
 2363 001d 00000000 		.4byte	0
 2364              	.LLST1:
 2365 0021 10000000 		.4byte	.LVL3
 2366 0025 12000000 		.4byte	.LVL4
 2367 0029 0200     		.2byte	0x2
 2368 002b 30       		.byte	0x30
 2369 002c 9F       		.byte	0x9f
 2370 002d 12000000 		.4byte	.LVL4
 2371 0031 24000000 		.4byte	.LVL6
 2372 0035 0500     		.2byte	0x5
 2373 0037 35       		.byte	0x35
ARM GAS  /tmp/ccd90TRS.s 			page 58


 2374 0038 74       		.byte	0x74
 2375 0039 00       		.sleb128 0
 2376 003a 1C       		.byte	0x1c
 2377 003b 9F       		.byte	0x9f
 2378 003c 24000000 		.4byte	.LVL6
 2379 0040 28000000 		.4byte	.LVL7
 2380 0044 0500     		.2byte	0x5
 2381 0046 36       		.byte	0x36
 2382 0047 74       		.byte	0x74
 2383 0048 00       		.sleb128 0
 2384 0049 1C       		.byte	0x1c
 2385 004a 9F       		.byte	0x9f
 2386 004b 28000000 		.4byte	.LVL7
 2387 004f 42000000 		.4byte	.LVL10
 2388 0053 0500     		.2byte	0x5
 2389 0055 35       		.byte	0x35
 2390 0056 74       		.byte	0x74
 2391 0057 00       		.sleb128 0
 2392 0058 1C       		.byte	0x1c
 2393 0059 9F       		.byte	0x9f
 2394 005a 00000000 		.4byte	0
 2395 005e 00000000 		.4byte	0
 2396              	.LLST2:
 2397 0062 62000000 		.4byte	.LVL13
 2398 0066 74000000 		.4byte	.LVL15
 2399 006a 0500     		.2byte	0x5
 2400 006c 35       		.byte	0x35
 2401 006d 74       		.byte	0x74
 2402 006e 00       		.sleb128 0
 2403 006f 1C       		.byte	0x1c
 2404 0070 9F       		.byte	0x9f
 2405 0071 74000000 		.4byte	.LVL15
 2406 0075 78000000 		.4byte	.LVL16
 2407 0079 0500     		.2byte	0x5
 2408 007b 36       		.byte	0x36
 2409 007c 74       		.byte	0x74
 2410 007d 00       		.sleb128 0
 2411 007e 1C       		.byte	0x1c
 2412 007f 9F       		.byte	0x9f
 2413 0080 78000000 		.4byte	.LVL16
 2414 0084 90000000 		.4byte	.LVL19
 2415 0088 0500     		.2byte	0x5
 2416 008a 35       		.byte	0x35
 2417 008b 74       		.byte	0x74
 2418 008c 00       		.sleb128 0
 2419 008d 1C       		.byte	0x1c
 2420 008e 9F       		.byte	0x9f
 2421 008f 92000000 		.4byte	.LVL20
 2422 0093 B0000000 		.4byte	.LVL23
 2423 0097 0500     		.2byte	0x5
 2424 0099 35       		.byte	0x35
 2425 009a 74       		.byte	0x74
 2426 009b 00       		.sleb128 0
 2427 009c 1C       		.byte	0x1c
 2428 009d 9F       		.byte	0x9f
 2429 009e 00000000 		.4byte	0
 2430 00a2 00000000 		.4byte	0
ARM GAS  /tmp/ccd90TRS.s 			page 59


 2431              		.section	.debug_aranges,"",%progbits
 2432 0000 2C000000 		.4byte	0x2c
 2433 0004 0200     		.2byte	0x2
 2434 0006 00000000 		.4byte	.Ldebug_info0
 2435 000a 04       		.byte	0x4
 2436 000b 00       		.byte	0
 2437 000c 0000     		.2byte	0
 2438 000e 0000     		.2byte	0
 2439 0010 00000000 		.4byte	.LFB241
 2440 0014 04000000 		.4byte	.LFE241-.LFB241
 2441 0018 00000000 		.4byte	.LFB242
 2442 001c 10000000 		.4byte	.LFE242-.LFB242
 2443 0020 00000000 		.4byte	.LFB243
 2444 0024 C0000000 		.4byte	.LFE243-.LFB243
 2445 0028 00000000 		.4byte	0
 2446 002c 00000000 		.4byte	0
 2447              		.section	.debug_ranges,"",%progbits
 2448              	.Ldebug_ranges0:
 2449 0000 42000000 		.4byte	.LBB5
 2450 0004 44000000 		.4byte	.LBE5
 2451 0008 4A000000 		.4byte	.LBB6
 2452 000c AC000000 		.4byte	.LBE6
 2453 0010 B0000000 		.4byte	.LBB7
 2454 0014 C0000000 		.4byte	.LBE7
 2455 0018 00000000 		.4byte	0
 2456 001c 00000000 		.4byte	0
 2457 0020 00000000 		.4byte	.LFB241
 2458 0024 04000000 		.4byte	.LFE241
 2459 0028 00000000 		.4byte	.LFB242
 2460 002c 10000000 		.4byte	.LFE242
 2461 0030 00000000 		.4byte	.LFB243
 2462 0034 C0000000 		.4byte	.LFE243
 2463 0038 00000000 		.4byte	0
 2464 003c 00000000 		.4byte	0
 2465              		.section	.debug_line,"",%progbits
 2466              	.Ldebug_line0:
 2467 0000 1C030000 		.section	.debug_str,"MS",%progbits,1
 2467      0200D402 
 2467      00000201 
 2467      FB0E0D00 
 2467      01010101 
 2468              	.LASF50:
 2469 0000 72656164 		.ascii	"ready_list_t\000"
 2469      795F6C69 
 2469      73745F74 
 2469      00
 2470              	.LASF2:
 2471 000d 73697A65 		.ascii	"size_t\000"
 2471      5F7400
 2472              	.LASF85:
 2473 0014 7264796D 		.ascii	"rdymsg\000"
 2473      736700
 2474              	.LASF17:
 2475 001b 75696E74 		.ascii	"uint64_t\000"
 2475      36345F74 
 2475      00
 2476              	.LASF3:
ARM GAS  /tmp/ccd90TRS.s 			page 60


 2477 0024 5F5F7569 		.ascii	"__uint8_t\000"
 2477      6E74385F 
 2477      7400
 2478              	.LASF82:
 2479 002e 706F7274 		.ascii	"port_intctx\000"
 2479      5F696E74 
 2479      63747800 
 2480              	.LASF69:
 2481 003a 73797374 		.ascii	"system_debug_t\000"
 2481      656D5F64 
 2481      65627567 
 2481      5F7400
 2482              	.LASF102:
 2483 0049 6D656D67 		.ascii	"memgetfunc_t\000"
 2483      65746675 
 2483      6E635F74 
 2483      00
 2484              	.LASF13:
 2485 0056 6C6F6E67 		.ascii	"long long unsigned int\000"
 2485      206C6F6E 
 2485      6720756E 
 2485      7369676E 
 2485      65642069 
 2486              	.LASF86:
 2487 006d 65786974 		.ascii	"exitcode\000"
 2487      636F6465 
 2487      00
 2488              	.LASF76:
 2489 0076 6D61696E 		.ascii	"mainthread\000"
 2489      74687265 
 2489      616400
 2490              	.LASF89:
 2491 0081 73656E74 		.ascii	"sentmsg\000"
 2491      6D736700 
 2492              	.LASF66:
 2493 0089 76697274 		.ascii	"virtual_timers_list_t\000"
 2493      75616C5F 
 2493      74696D65 
 2493      72735F6C 
 2493      6973745F 
 2494              	.LASF114:
 2495 009f 49544D5F 		.ascii	"ITM_RxBuffer\000"
 2495      52784275 
 2495      66666572 
 2495      00
 2496              	.LASF49:
 2497 00ac 63685F74 		.ascii	"ch_threads_queue\000"
 2497      68726561 
 2497      64735F71 
 2497      75657565 
 2497      00
 2498              	.LASF30:
 2499 00bd 705F7072 		.ascii	"p_prio\000"
 2499      696F00
 2500              	.LASF11:
 2501 00c4 6C6F6E67 		.ascii	"long long int\000"
 2501      206C6F6E 
ARM GAS  /tmp/ccd90TRS.s 			page 61


 2501      6720696E 
 2501      7400
 2502              	.LASF1:
 2503 00d2 7369676E 		.ascii	"signed char\000"
 2503      65642063 
 2503      68617200 
 2504              	.LASF43:
 2505 00de 705F6D70 		.ascii	"p_mpool\000"
 2505      6F6F6C00 
 2506              	.LASF97:
 2507 00e6 6D5F7175 		.ascii	"m_queue\000"
 2507      65756500 
 2508              	.LASF75:
 2509 00ee 76746C69 		.ascii	"vtlist\000"
 2509      737400
 2510              	.LASF88:
 2511 00f5 77747472 		.ascii	"wttrp\000"
 2511      7000
 2512              	.LASF73:
 2513 00fb 63685F73 		.ascii	"ch_system\000"
 2513      79737465 
 2513      6D00
 2514              	.LASF8:
 2515 0105 6C6F6E67 		.ascii	"long int\000"
 2515      20696E74 
 2515      00
 2516              	.LASF20:
 2517 010e 74737461 		.ascii	"tstate_t\000"
 2517      74655F74 
 2517      00
 2518              	.LASF105:
 2519 0117 6D705F6E 		.ascii	"mp_next\000"
 2519      65787400 
 2520              	.LASF32:
 2521 011f 705F6E65 		.ascii	"p_newer\000"
 2521      77657200 
 2522              	.LASF94:
 2523 0127 735F7175 		.ascii	"s_queue\000"
 2523      65756500 
 2524              	.LASF55:
 2525 012f 725F6E65 		.ascii	"r_newer\000"
 2525      77657200 
 2526              	.LASF107:
 2527 0137 6D705F70 		.ascii	"mp_provider\000"
 2527      726F7669 
 2527      64657200 
 2528              	.LASF79:
 2529 0143 72656761 		.ascii	"regarm_t\000"
 2529      726D5F74 
 2529      00
 2530              	.LASF62:
 2531 014c 76745F70 		.ascii	"vt_prev\000"
 2531      72657600 
 2532              	.LASF101:
 2533 0154 6D757465 		.ascii	"mutex_t\000"
 2533      785F7400 
 2534              	.LASF77:
ARM GAS  /tmp/ccd90TRS.s 			page 62


 2535 015c 69646C65 		.ascii	"idle_thread_wa\000"
 2535      5F746872 
 2535      6561645F 
 2535      776100
 2536              	.LASF25:
 2537 016b 636E745F 		.ascii	"cnt_t\000"
 2537      7400
 2538              	.LASF0:
 2539 0171 756E7369 		.ascii	"unsigned int\000"
 2539      676E6564 
 2539      20696E74 
 2539      00
 2540              	.LASF61:
 2541 017e 76745F6E 		.ascii	"vt_next\000"
 2541      65787400 
 2542              	.LASF90:
 2543 0186 77747365 		.ascii	"wtsemp\000"
 2543      6D7000
 2544              	.LASF39:
 2545 018d 705F6D73 		.ascii	"p_msgqueue\000"
 2545      67717565 
 2545      756500
 2546              	.LASF112:
 2547 0198 74656172 		.ascii	"teardown\000"
 2547      646F776E 
 2547      00
 2548              	.LASF108:
 2549 01a1 6D656D6F 		.ascii	"memory_pool_t\000"
 2549      72795F70 
 2549      6F6F6C5F 
 2549      7400
 2550              	.LASF110:
 2551 01af 6E616D65 		.ascii	"name\000"
 2551      00
 2552              	.LASF95:
 2553 01b4 735F636E 		.ascii	"s_cnt\000"
 2553      7400
 2554              	.LASF6:
 2555 01ba 73686F72 		.ascii	"short unsigned int\000"
 2555      7420756E 
 2555      7369676E 
 2555      65642069 
 2555      6E7400
 2556              	.LASF46:
 2557 01cd 63685F74 		.ascii	"ch_thread\000"
 2557      68726561 
 2557      6400
 2558              	.LASF23:
 2559 01d7 6D73675F 		.ascii	"msg_t\000"
 2559      7400
 2560              	.LASF72:
 2561 01dd 63685F73 		.ascii	"ch_system_t\000"
 2561      79737465 
 2561      6D5F7400 
 2562              	.LASF19:
 2563 01e9 746D6F64 		.ascii	"tmode_t\000"
 2563      655F7400 
ARM GAS  /tmp/ccd90TRS.s 			page 63


 2564              	.LASF117:
 2565 01f1 6368506F 		.ascii	"chPoolObjectInit\000"
 2565      6F6C4F62 
 2565      6A656374 
 2565      496E6974 
 2565      00
 2566              	.LASF51:
 2567 0202 63685F72 		.ascii	"ch_ready_list\000"
 2567      65616479 
 2567      5F6C6973 
 2567      7400
 2568              	.LASF24:
 2569 0210 6576656E 		.ascii	"eventmask_t\000"
 2569      746D6173 
 2569      6B5F7400 
 2570              	.LASF7:
 2571 021c 5F5F696E 		.ascii	"__int32_t\000"
 2571      7433325F 
 2571      7400
 2572              	.LASF80:
 2573 0226 73746B61 		.ascii	"stkalign_t\000"
 2573      6C69676E 
 2573      5F7400
 2574              	.LASF38:
 2575 0231 705F7761 		.ascii	"p_waiting\000"
 2575      6974696E 
 2575      6700
 2576              	.LASF78:
 2577 023b 73697A65 		.ascii	"sizetype\000"
 2577      74797065 
 2577      00
 2578              	.LASF44:
 2579 0244 74687265 		.ascii	"thread_reference_t\000"
 2579      61645F72 
 2579      65666572 
 2579      656E6365 
 2579      5F7400
 2580              	.LASF67:
 2581 0257 63685F76 		.ascii	"ch_virtual_timers_list\000"
 2581      69727475 
 2581      616C5F74 
 2581      696D6572 
 2581      735F6C69 
 2582              	.LASF52:
 2583 026e 725F7175 		.ascii	"r_queue\000"
 2583      65756500 
 2584              	.LASF68:
 2585 0276 76745F6C 		.ascii	"vt_lasttime\000"
 2585      61737474 
 2585      696D6500 
 2586              	.LASF33:
 2587 0282 705F6F6C 		.ascii	"p_older\000"
 2587      64657200 
 2588              	.LASF124:
 2589 028a 2F6E6673 		.ascii	"/nfs/nfs4/home/galexeev/classes/P442WifiTrailCounte"
 2589      2F6E6673 
 2589      342F686F 
ARM GAS  /tmp/ccd90TRS.s 			page 64


 2589      6D652F67 
 2589      616C6578 
 2590 02bd 7250726F 		.ascii	"rProject/milestone3\000"
 2590      6A656374 
 2590      2F6D696C 
 2590      6573746F 
 2590      6E653300 
 2591              	.LASF54:
 2592 02d1 725F6374 		.ascii	"r_ctx\000"
 2592      7800
 2593              	.LASF106:
 2594 02d7 6D705F6F 		.ascii	"mp_object_size\000"
 2594      626A6563 
 2594      745F7369 
 2594      7A6500
 2595              	.LASF84:
 2596 02e6 746D5F63 		.ascii	"tm_calibration_t\000"
 2596      616C6962 
 2596      72617469 
 2596      6F6E5F74 
 2596      00
 2597              	.LASF111:
 2598 02f7 73657475 		.ascii	"setup\000"
 2598      7000
 2599              	.LASF57:
 2600 02fd 725F6375 		.ascii	"r_current\000"
 2600      7272656E 
 2600      7400
 2601              	.LASF56:
 2602 0307 725F6F6C 		.ascii	"r_older\000"
 2602      64657200 
 2603              	.LASF116:
 2604 030f 70617474 		.ascii	"patternpools\000"
 2604      65726E70 
 2604      6F6F6C73 
 2604      00
 2605              	.LASF12:
 2606 031c 5F5F7569 		.ascii	"__uint64_t\000"
 2606      6E743634 
 2606      5F7400
 2607              	.LASF104:
 2608 0327 70685F6E 		.ascii	"ph_next\000"
 2608      65787400 
 2609              	.LASF21:
 2610 032f 74726566 		.ascii	"trefs_t\000"
 2610      735F7400 
 2611              	.LASF59:
 2612 0337 76697274 		.ascii	"virtual_timer_t\000"
 2612      75616C5F 
 2612      74696D65 
 2612      725F7400 
 2613              	.LASF29:
 2614 0347 705F7072 		.ascii	"p_prev\000"
 2614      657600
 2615              	.LASF113:
 2616 034e 65786563 		.ascii	"execute\000"
 2616      75746500 
ARM GAS  /tmp/ccd90TRS.s 			page 65


 2617              	.LASF22:
 2618 0356 74707269 		.ascii	"tprio_t\000"
 2618      6F5F7400 
 2619              	.LASF70:
 2620 035e 63685F73 		.ascii	"ch_system_debug\000"
 2620      79737465 
 2620      6D5F6465 
 2620      62756700 
 2621              	.LASF121:
 2622 036e 5F426F6F 		.ascii	"_Bool\000"
 2622      6C00
 2623              	.LASF15:
 2624 0374 696E7433 		.ascii	"int32_t\000"
 2624      325F7400 
 2625              	.LASF4:
 2626 037c 756E7369 		.ascii	"unsigned char\000"
 2626      676E6564 
 2626      20636861 
 2626      7200
 2627              	.LASF41:
 2628 038a 705F6D74 		.ascii	"p_mtxlist\000"
 2628      786C6973 
 2628      7400
 2629              	.LASF5:
 2630 0394 73686F72 		.ascii	"short int\000"
 2630      7420696E 
 2630      7400
 2631              	.LASF35:
 2632 039e 705F7374 		.ascii	"p_state\000"
 2632      61746500 
 2633              	.LASF53:
 2634 03a6 725F7072 		.ascii	"r_prio\000"
 2634      696F00
 2635              	.LASF92:
 2636 03ad 65776D61 		.ascii	"ewmask\000"
 2636      736B00
 2637              	.LASF28:
 2638 03b4 705F6E65 		.ascii	"p_next\000"
 2638      787400
 2639              	.LASF36:
 2640 03bb 705F666C 		.ascii	"p_flags\000"
 2640      61677300 
 2641              	.LASF34:
 2642 03c3 705F6E61 		.ascii	"p_name\000"
 2642      6D6500
 2643              	.LASF60:
 2644 03ca 63685F76 		.ascii	"ch_virtual_timer\000"
 2644      69727475 
 2644      616C5F74 
 2644      696D6572 
 2644      00
 2645              	.LASF109:
 2646 03db 74657374 		.ascii	"testcase\000"
 2646      63617365 
 2646      00
 2647              	.LASF93:
 2648 03e4 63685F73 		.ascii	"ch_semaphore\000"
ARM GAS  /tmp/ccd90TRS.s 			page 66


 2648      656D6170 
 2648      686F7265 
 2648      00
 2649              	.LASF40:
 2650 03f1 705F6570 		.ascii	"p_epending\000"
 2650      656E6469 
 2650      6E6700
 2651              	.LASF16:
 2652 03fc 75696E74 		.ascii	"uint32_t\000"
 2652      33325F74 
 2652      00
 2653              	.LASF91:
 2654 0405 77746D74 		.ascii	"wtmtxp\000"
 2654      787000
 2655              	.LASF115:
 2656 040c 74657374 		.ascii	"testpools1\000"
 2656      706F6F6C 
 2656      733100
 2657              	.LASF63:
 2658 0417 76745F64 		.ascii	"vt_delta\000"
 2658      656C7461 
 2658      00
 2659              	.LASF47:
 2660 0420 63685F74 		.ascii	"ch_threads_list\000"
 2660      68726561 
 2660      64735F6C 
 2660      69737400 
 2661              	.LASF10:
 2662 0430 6C6F6E67 		.ascii	"long unsigned int\000"
 2662      20756E73 
 2662      69676E65 
 2662      6420696E 
 2662      7400
 2663              	.LASF100:
 2664 0442 63686172 		.ascii	"char\000"
 2664      00
 2665              	.LASF128:
 2666 0447 706F6F6C 		.ascii	"pools1_setup\000"
 2666      73315F73 
 2666      65747570 
 2666      00
 2667              	.LASF27:
 2668 0454 74687265 		.ascii	"thread_t\000"
 2668      61645F74 
 2668      00
 2669              	.LASF99:
 2670 045d 6D5F6E65 		.ascii	"m_next\000"
 2670      787400
 2671              	.LASF26:
 2672 0464 73797374 		.ascii	"systime_t\000"
 2672      696D655F 
 2672      7400
 2673              	.LASF42:
 2674 046e 705F7265 		.ascii	"p_realprio\000"
 2674      616C7072 
 2674      696F00
 2675              	.LASF58:
ARM GAS  /tmp/ccd90TRS.s 			page 67


 2676 0479 76746675 		.ascii	"vtfunc_t\000"
 2676      6E635F74 
 2676      00
 2677              	.LASF9:
 2678 0482 5F5F7569 		.ascii	"__uint32_t\000"
 2678      6E743332 
 2678      5F7400
 2679              	.LASF71:
 2680 048d 70616E69 		.ascii	"panic_msg\000"
 2680      635F6D73 
 2680      6700
 2681              	.LASF83:
 2682 0497 6F666673 		.ascii	"offset\000"
 2682      657400
 2683              	.LASF96:
 2684 049e 63685F6D 		.ascii	"ch_mutex\000"
 2684      75746578 
 2684      00
 2685              	.LASF81:
 2686 04a7 636F6E74 		.ascii	"context\000"
 2686      65787400 
 2687              	.LASF18:
 2688 04af 7274636E 		.ascii	"rtcnt_t\000"
 2688      745F7400 
 2689              	.LASF65:
 2690 04b7 76745F70 		.ascii	"vt_par\000"
 2690      617200
 2691              	.LASF48:
 2692 04be 74687265 		.ascii	"threads_queue_t\000"
 2692      6164735F 
 2692      71756575 
 2692      655F7400 
 2693              	.LASF103:
 2694 04ce 706F6F6C 		.ascii	"pool_header\000"
 2694      5F686561 
 2694      64657200 
 2695              	.LASF37:
 2696 04da 705F7265 		.ascii	"p_refs\000"
 2696      667300
 2697              	.LASF74:
 2698 04e1 726C6973 		.ascii	"rlist\000"
 2698      7400
 2699              	.LASF14:
 2700 04e7 75696E74 		.ascii	"uint8_t\000"
 2700      385F7400 
 2701              	.LASF119:
 2702 04ef 6368506F 		.ascii	"chPoolAlloc\000"
 2702      6F6C416C 
 2702      6C6F6300 
 2703              	.LASF118:
 2704 04fb 6368506F 		.ascii	"chPoolFree\000"
 2704      6F6C4672 
 2704      656500
 2705              	.LASF122:
 2706 0506 474E5520 		.ascii	"GNU C 4.8.4 20140526 (release) [ARM/embedded-4_8-br"
 2706      4320342E 
 2706      382E3420 
ARM GAS  /tmp/ccd90TRS.s 			page 68


 2706      32303134 
 2706      30353236 
 2707 0539 616E6368 		.ascii	"anch revision 211358] -mcpu=cortex-m4 -mno-thumb-in"
 2707      20726576 
 2707      6973696F 
 2707      6E203231 
 2707      31333538 
 2708 056c 74657277 		.ascii	"terwork -mthumb -ggdb -O2 -fomit-frame-pointer -fal"
 2708      6F726B20 
 2708      2D6D7468 
 2708      756D6220 
 2708      2D676764 
 2709 059f 69676E2D 		.ascii	"ign-functions=16 -ffunction-sections -fdata-section"
 2709      66756E63 
 2709      74696F6E 
 2709      733D3136 
 2709      202D6666 
 2710 05d2 73202D66 		.ascii	"s -fno-common -flto\000"
 2710      6E6F2D63 
 2710      6F6D6D6F 
 2710      6E202D66 
 2710      6C746F00 
 2711              	.LASF87:
 2712 05e6 77746F62 		.ascii	"wtobjp\000"
 2712      6A7000
 2713              	.LASF126:
 2714 05ed 6E756C6C 		.ascii	"null_provider\000"
 2714      5F70726F 
 2714      76696465 
 2714      7200
 2715              	.LASF127:
 2716 05fb 73697A65 		.ascii	"size\000"
 2716      00
 2717              	.LASF120:
 2718 0600 5F746573 		.ascii	"_test_assert\000"
 2718      745F6173 
 2718      73657274 
 2718      00
 2719              	.LASF45:
 2720 060d 74687265 		.ascii	"threads_list_t\000"
 2720      6164735F 
 2720      6C697374 
 2720      5F7400
 2721              	.LASF129:
 2722 061c 6368506F 		.ascii	"chPoolLoadArray\000"
 2722      6F6C4C6F 
 2722      61644172 
 2722      72617900 
 2723              	.LASF123:
 2724 062c 2E2E2F43 		.ascii	"../ChibiOS/test/rt/testpools.c\000"
 2724      68696269 
 2724      4F532F74 
 2724      6573742F 
 2724      72742F74 
 2725              	.LASF98:
 2726 064b 6D5F6F77 		.ascii	"m_owner\000"
 2726      6E657200 
ARM GAS  /tmp/ccd90TRS.s 			page 69


 2727              	.LASF31:
 2728 0653 705F6374 		.ascii	"p_ctx\000"
 2728      7800
 2729              	.LASF64:
 2730 0659 76745F66 		.ascii	"vt_func\000"
 2730      756E6300 
 2731              	.LASF125:
 2732 0661 706F6F6C 		.ascii	"pools1_execute\000"
 2732      73315F65 
 2732      78656375 
 2732      746500
 2733              		.comm	__gnu_lto_v1,1,1
 2734              		.ident	"GCC: (GNU Tools for ARM Embedded Processors) 4.8.4 20140526 (release) [ARM/embedded-4_8-br
ARM GAS  /tmp/ccd90TRS.s 			page 70


DEFINED SYMBOLS
                            *ABS*:00000000 testpools.c
     /tmp/ccd90TRS.s:282    .text.null_provider:00000000 $t
     /tmp/ccd90TRS.s:287    .text.null_provider:00000000 null_provider
     /tmp/ccd90TRS.s:304    .text.pools1_setup:00000000 $t
     /tmp/ccd90TRS.s:309    .text.pools1_setup:00000000 pools1_setup
     /tmp/ccd90TRS.s:325    .text.pools1_setup:0000000c $d
     /tmp/ccd90TRS.s:330    .text.pools1_execute:00000000 $t
     /tmp/ccd90TRS.s:335    .text.pools1_execute:00000000 pools1_execute
     /tmp/ccd90TRS.s:474    .text.pools1_execute:000000b4 $d
     /tmp/ccd90TRS.s:492    .rodata.patternpools:00000000 patternpools
     /tmp/ccd90TRS.s:508    .rodata.testpools1:00000000 testpools1
     /tmp/ccd90TRS.s:485    .rodata.str1.4:00000000 $d
     /tmp/ccd90TRS.s:489    .rodata.patternpools:00000000 $d
     /tmp/ccd90TRS.s:496    .data.mp1:00000000 $d
     /tmp/ccd90TRS.s:500    .data.mp1:00000000 mp1
     /tmp/ccd90TRS.s:505    .rodata.testpools1:00000000 $d
                            *COM*:00000001 __gnu_lto_v1
                     .debug_frame:00000010 $d

UNDEFINED SYMBOLS
chPoolObjectInit
chPoolLoadArray
chPoolAlloc
_test_assert
chPoolFree
wa
