ARM GAS  /tmp/ccsnLqbb.s 			page 1


   1              		.syntax unified
   2              		.cpu cortex-m4
   3              		.fpu softvfp
   4              		.eabi_attribute 20, 1
   5              		.eabi_attribute 21, 1
   6              		.eabi_attribute 23, 3
   7              		.eabi_attribute 24, 1
   8              		.eabi_attribute 25, 1
   9              		.eabi_attribute 26, 1
  10              		.eabi_attribute 30, 2
  11              		.eabi_attribute 34, 1
  12              		.eabi_attribute 18, 4
  13              		.thumb
  14              		.file	"chvt.c"
  15              		.text
  16              	.Ltext0:
  17              		.section	.gnu.lto_.jmpfuncs.bc563bbfe7bc8671,"",%progbits
  18 0000 789C6362 		.ascii	"x\234cb`b\300\006d\2404\013\003#\020\002\0251\363\003"
  18      6062C006 
  18      64A0340B 
  18      03231002 
  18      1531F303 
  19 0014 29206261 		.ascii	") badd\006\212\227\001\231\000\011|\000\275"
  19      6464068A 
  19      97019900 
  19      097C00BD 
  20              		.text
  21              		.section	.gnu.lto_.inline.bc563bbfe7bc8671,"",%progbits
  22 0000 789C6362 		.ascii	"x\234cb`b\300\006\224\031\031\030d\2014\013\003\203"
  22      6062C006 
  22      94191918 
  22      6481340B 
  22      0383
  23 0012 9414230B 		.ascii	"\224\024#\013Cz5\303\257\206\216\206\007\315\357-3\031"
  23      437A35C3 
  23      AF868E86 
  23      07CDEF2D 
  23      3319
  24 0024 19B41956 		.ascii	"\031\264\031V5\000\201i&#c.#C\022#\\\0333\003CF\"\343"
  24      35008169 
  24      2623632E 
  24      23431223 
  24      5C1B3303 
  25 003c 42C66A10 		.ascii	"B\306j\020\213\221\001F:\260\263v\2503\260w\250310\276"
  25      8B910146 
  25      3AB0B376 
  25      A833B077 
  25      A8333130 
  26 0051 60176062 		.ascii	"`\027`b\000r\005\030\244\276-a\344``\334\315\256\300"
  26      00720518 
  26      A4BE2D61 
  26      E46060DC 
  26      CDAEC0
  27 0064 C104A140 		.ascii	"\301\004\241@F0r\201,e\342f\000JM\360cb`gcd`\3428`\307"
  27      46307281 
  27      2C65E266 
  27      004A4DF0 
ARM GAS  /tmp/ccsnLqbb.s 			page 2


  27      63626067 
  28 007f C0B6409E 		.ascii	"\300\266@\236\011b\207\356%\006Ff\306\224\010\306LF"
  28      096287EE 
  28      25064666 
  28      C69408C6 
  28      4C46
  29 0091 26A0F18C 		.ascii	"&\240\361\214\251p\026\310%\314\016\177\357p0\360-u"
  29      A97016C8 
  29      25CC0E7F 
  29      EF7030F0 
  29      2D75
  30 00a3 63626059 		.ascii	"cb`Y /\000\322\0024\015l\030\204ba\020\021`d\006;L\001"
  30      202F00D2 
  30      02340D6C 
  30      18846261 
  30      10116064 
  31 00bb D9911C62 		.ascii	"\331\221\034b\023&32p\034\321\001\272\346\022\033\013"
  31      13263332 
  31      701CD101 
  31      BAE6121B 
  31      0B
  32 00cc 8404111C 		.ascii	"\204\004\021\034`&\320=\227X\005\230\300$\222\241\014"
  32      6026D03D 
  32      97580598 
  32      C02492A1 
  32      0C
  33 00dd 327A7AFA 		.ascii	"2zz\372\316\031\231I\231\376\301\372\371\305\372E%\372"
  33      CE199949 
  33      99FEC1FA 
  33      F9C5FA45 
  33      25FA
  34 00ef C545C9FA 		.ascii	"\305E\311\372\311\031e%z\311\014\000i\2232|"
  34      C9196525 
  34      7AC90C00 
  34      6993327C 
  35              		.text
  36              		.section	.gnu.lto_.pureconst.bc563bbfe7bc8671,"",%progbits
  37 0000 789C6362 		.ascii	"x\234cb`b\340d\200\000\026\006)&\011f)\026)\000\002"
  37      6062E064 
  37      80001606 
  37      29260966 
  37      29162900 
  38 0015 D80081   		.ascii	"\330\000\201"
  39              		.text
  40              		.section	.gnu.lto_chVTDoResetI.part.0.bc563bbfe7bc8671,"",%progbits
  41 0000 789C9555 		.ascii	"x\234\225U]h\024W\024>g\376gw\315*\342C\240\325 \370"
  41      5D681457 
  41      143E67FE 
  41      6777CD2A 
  41      E243A0D5 
  42 0016 5231838A 		.ascii	"R1\203\212\017\276X\304\276\010\206\202n@_*\353l\330"
  42      0FBE58C4 
  42      BE088682 
  42      6E405F2A 
  42      EB6CD8
  43 0029 1DD83565 		.ascii	"\035\3305e\263\376@\037\234d\227\242Uh\220BA\253\321"
  43      B3FE401F 
ARM GAS  /tmp/ccsnLqbb.s 			page 3


  43      9C6497A2 
  43      55689042 
  43      41ABD1
  44 003c D80A8AA0 		.ascii	"\330\012\212\240E\360\247-m\"\242\211\301H\250(\006"
  44      45F0A72D 
  44      6D22A289 
  44      C148A828 
  44      06
  45 004d 0D014105 		.ascii	"\015\001A\005\301\006}\320\004\232\3519w~v\2224\250"
  45      C1067DD0 
  45      049AE939 
  45      777E7692 
  45      34A8
  46 005f 17E69E73 		.ascii	"\027\346\236s\357=\347;\337=\367\334;\022H0\273\225"
  46      EF3DE73B 
  46      DF3DF7DC 
  46      3B124830 
  46      BB95
  47 0071 E83BA201 		.ascii	"\350;\242\001\\&\211\011@\263{\230\024\023%!%I\276."
  47      5C268909 
  47      40B37B98 
  47      14132521 
  47      2549BE2E 
  48 0085 839B501E 		.ascii	"\203\233P\036\336\001pS2\032<\335i(\222\361\307R\232"
  48      DE017053 
  48      321A3CDD 
  48      692892F1 
  48      C7529A
  49 0098 57EF5B34 		.ascii	"W\357[4\255J\332\221%4\322k\353i\244\241\356\033\351"
  49      AD4ADA91 
  49      2534D26B 
  49      EB69A4A1 
  49      EE1BE9
  50 00ab A1B581C8 		.ascii	"\241\265\201\310\012 \0340%YQ5\335\300\003;\220\303"
  50      0A201C30 
  50      25595135 
  50      DDC0033B 
  50      90C3
  51 00bd 2B2584E5 		.ascii	"+%\204\345p\332u\217\215\377\362\333\257\215\337\235"
  51      70DA758F 
  51      8DFFF2DB 
  51      AF8DDF9D 
  52 00cd EAEA76A7 		.ascii	"\352\352v\247=\017\035^\265\021\266\223\206MBH\312L"
  52      3D0F1D5E 
  52      B511B693 
  52      864D4248 
  52      CA4C
  53 00df E6C2ED68 		.ascii	"\346\302\355h\337\361\341\037\033\335\230\233\004\313"
  53      DFF1E11F 
  53      1BDD989B 
  53      04CB
  54 00ed F0833CDD 		.ascii	"\360\203<\335\337s\003n\255\317\363>\027^+\336\347u"
  54      DF73036E 
  54      ADCFF33E 
  54      175E2BDE 
  54      E775
  55 00ff 5172C73D 		.ascii	"Qr\307=o\3223\227 \226\020%pP\226\251S\024\356T\356"
ARM GAS  /tmp/ccsnLqbb.s 			page 4


  55      6FD23397 
  55      20961025 
  55      705096A9 
  55      5314EE54 
  56 0114 34EA4067 		.ascii	"4\352@g\315\200,\376\214\313\301$\331K2\301\223\311"
  56      CD802CFE 
  56      8CCBC124 
  56      D94B32C1 
  56      93C9
  57 0126 6090E201 		.ascii	"`\220\342\001!\252Ps\335\356&\337\322_\022\233\246\226"
  57      21AA5073 
  57      DDEE26DF 
  57      D25F129B 
  57      A696
  58 0138 A19E7396 		.ascii	"\241\236s\226A\223\245\334J\361X\336\205\256\321w/G"
  58      4193A5DC 
  58      4AF158DE 
  58      85AED177 
  58      2F47
  59 014a E42C9E45 		.ascii	"\344,\236E\025\362(\255\204\317\210\307q8\326\351\272"
  59      15F228AD 
  59      84CF88C7 
  59      7138D6E9 
  59      BA
  60 015b 0B1D54F3 		.ascii	"\013\035T\363\210L^\026\224waH\236\374\006/%}\257\225"
  60      884C5E16 
  60      94776148 
  60      9EFC062F 
  60      257DAF95 
  61 016f 70DEA5B6 		.ascii	"p\336\245\266\236\254\0025\351\240\026A\350\337\300"
  61      9EAC0235 
  61      E9A01641 
  61      E8DFC0
  62 017e 947B9035 		.ascii	"\224{\2205\243\204\\0\214g\004x\030H\277\220\362,\011"
  62      A3845C30 
  62      8C670478 
  62      1848BF90 
  62      F22C09
  63 0191 7AAAFAF4 		.ascii	"z\252\372\364\304\206\031\340;f\221\222\342\244|\351"
  63      C48619E0 
  63      3B669192 
  63      E2A47CE9 
  64 01a1 87711FD2 		.ascii	"\207q\037\322\202\031x=!]\243\240a\234\220\372\265k"
  64      8219783D 
  64      215DA3A0 
  64      619C90FA 
  64      B56B
  65 01b3 AFFAA519 		.ascii	"\257\372\245\031\370\013\034L\314\273i\377\340x&\301"
  65      F80B1C4C 
  65      CCBB69FF 
  65      E07826C1 
  66 01c3 CA00DC7C 		.ascii	"\312\000\334|\336\377\256!JY\0208]\217\273\356\177\302"
  66      DEFFAE21 
  66      4A591038 
  66      5D8FBBEE 
  66      7FC2
  67 01d5 86AD9560 		.ascii	"\206\255\225`\257\313\362=\250N\214=\3706\035\234Yx"
ARM GAS  /tmp/ccsnLqbb.s 			page 5


  67      AFCBF23D 
  67      A84E8C3D 
  67      F8361D9C 
  67      5978
  68 01e7 787D4363 		.ascii	"x}Ccgt\000\037\333\016\375\243\014&m$\336Wh\215\232"
  68      6774001F 
  68      DB0EFDA3 
  68      0C266D24 
  68      DE57688D 
  69 01fc 83A91052 		.ascii	"\203\251\020R\001\272P\376a\276\236\214\01638\016\362"
  69      01BA50FE 
  69      61BE9E8C 
  69      0E33380E 
  69      F2
  70 020d 837973A7 		.ascii	"\203ys\247\326\2632ziq\350\251\2102\200y3R\367\252\036"
  70      D6B3327A 
  70      6971E8A9 
  70      88328079 
  70      3352F7AA 
  71 0222 AC4E63E8 		.ascii	"\254Nc\350Ffr\236\323Eh\233\343\371\375\000\012y\226"
  71      4666729E 
  71      D345689B 
  71      E3F9FD00 
  71      0A7996
  72 0235 77E1C6E8 		.ascii	"w\341\306\350O\377\2748\247\315N\313\344\350\247u\375"
  72      4FFFBC38 
  72      A7CD4ECB 
  72      E4E8A775 
  72      FD
  73 0246 87477A34 		.ascii	"\207Gz48\374\252j\326\363%\323\247\320\247\372\210\032"
  73      38FCAA6A 
  73      D6F325D3 
  73      A7D0A7FA 
  73      881A
  74 0258 47AF758E 		.ascii	"G\257u\216O\336\032\356E\212\270\2009t3\207\006&\220"
  74      4FDE1AEE 
  74      458AB880 
  74      39743387 
  74      062690
  75 026b E6B352C4 		.ascii	"\346\263R\304\301\246\003.\032c\375\345\373sJ\036O\234"
  75      C1A6032E 
  75      1A63FDE5 
  75      FB734A1E 
  75      4F9C
  76 027d FC2ADC9D 		.ascii	"\374*\334\235\356'%8\343\036\374\350\"\327\353Y;T-\207"
  76      EE272538 
  76      E31EFCE8 
  76      22D7EB59 
  76      3B542D87 
  77 0291 B006F1CC 		.ascii	"\260\006\361\314\363\332 \0045\351_\340<\373\017@\355"
  77      F3DA2004 
  77      35E95FE0 
  77      3CFB0F40 
  77      ED
  78 02a2 59FFC8F7 		.ascii	"Y\377\310\367r,\303F\274\226T\270\275J\026xW{\032C#"
  78      722CC346 
  78      BC9654B8 
ARM GAS  /tmp/ccsnLqbb.s 			page 6


  78      BD4A1678 
  78      577B1A43 
  79 02b7 33B48B21 		.ascii	"3\264\213!\366\012D3@|SG4\231)\304\013\265\225\262p"
  79      F60A4433 
  79      407C5347 
  79      349929C4 
  79      0BB595B2 
  80 02cc 36250F42 		.ascii	"6%\017B\327\370\324s-\016\300\246\212\024\231\351\034"
  80      D7F8D473 
  80      2D0EC0A6 
  80      8A1499E9 
  80      1C
  81 02dd 9CCC0C88 		.ascii	"\234\314\014\210\002$\203\232x\333\023\245-A\233\023"
  81      0224839A 
  81      78DB13A5 
  81      2D419B13 
  82 02ed 6CC4C29F 		.ascii	"l\304\302\237Q\261\244\304R2\3062x\201\377><\204\364"
  82      51B1A4C4 
  82      5232C632 
  82      7881FF3E 
  82      3C84F4
  83 0300 9C764E78 		.ascii	"\234vNx^Z<\245\027\361}oi\236\257\302=\250M\214M\337"
  83      5E5A3CA5 
  83      17F17D6F 
  83      699EAFC2 
  83      3DA84D8C 
  84 0316 6A9873A5 		.ascii	"j\230s\245\246\337\250Y\034\020\257aX(\332\254\213\265"
  84      A6DFA859 
  84      1C10AF61 
  84      5828DAAC 
  84      8BB5
  85 0328 D0463D8B 		.ascii	"\320F=\213Ca\341\244\034\\\304\332#HR\206\324\307\377"
  85      4361E1A4 
  85      1C5CC4DA 
  85      23485286 
  85      D4C7FF
  86 033b E682AD6B 		.ascii	"\346\202\255k\027\274\"o\335\020\257\347\010\375\214"
  86      17BC226F 
  86      DD10AFE7 
  86      08FD8C
  87 034a EA243244 		.ascii	"\352$2D\223f9?\23747[\233\012\316.\347\313mV{\207U\256"
  87      9366393F 
  87      9F34375B 
  87      9B0ACE2E 
  87      E7CB6D56 
  88 0362 581D65DB 		.ascii	"X\035e\333\262\013{+\3156\250\271\266b%k\354n\337'\224"
  88      B20B7B2B 
  88      CD36A8B9 
  88      B662256B 
  88      EC6EDF27 
  89 0377 55736CBF 		.ascii	"Usl\277n/W:\254\215[[6\265\354''\273\275\334\266\263"
  89      6E2F573A 
  89      AC8D5B5B 
  89      36B5EC27 
  89      27BBBDDC 
  90 038d E294DACA 		.ascii	"\342\224\332\312\315\005X=\323\272\220-\006\346\333"
  90      CD05583D 
ARM GAS  /tmp/ccsnLqbb.s 			page 7


  90      D3BA902D 
  90      06E6DB
  91 039c 322D6BD7 		.ascii	"2-k\327X[\266|ae6\267\354]muTv\026\2139\362h\232\203"
  91      585BB67C 
  91      616536B7 
  91      EC5D6D75 
  91      5476168B 
  92 03b5 EFECB68B 		.ascii	"\357\354\266\213{rm>\237\002(\214\375\037\245\304\310"
  92      7B726D3E 
  92      9F02288C 
  92      FD1FA5C4 
  92      C8
  93 03c6 6E       		.ascii	"n"
  94              		.text
  95              		.section	.gnu.lto__vt_init.bc563bbfe7bc8671,"",%progbits
  96 0000 789C6362 		.ascii	"x\234cb`b@\007\222@,\015\024\226\003\322\214\314\014"
  96      60624007 
  96      92402C0D 
  96      149603D2 
  96      8CCC0C
  97 0013 8C4C13CE 		.ascii	"\214L\023\316104r012\202\030\014\214\014\365L\214\365"
  97      31303472 
  97      30313282 
  97      180C8C0C 
  97      F54C8CF5 
  98 0027 918C60B5 		.ascii	"\221\214`\265\353\231\016<\370\377\177\335\257\255\017"
  98      EB990E3C 
  98      F8FF7FDD 
  98      AFAD0F
  99 0036 FB1905D9 		.ascii	"\373\031\005\331\200\002\254\014-\015\015\023\024\030"
  99      8002AC0C 
  99      2D0D0D13 
  99      1418
 100 0044 1892C10A 		.ascii	"\030\222\301\012B\200$HW(#\023\210f>\313\320\364\253"
 100      42802448 
 100      57282313 
 100      88663ECB 
 100      D0F4AB
 101 0057 F9FF6BA6 		.ascii	"\371\377k\246D\306\205\214\254\014\332\014\253\032\200"
 101      44C6858C 
 101      AC0CDA0C 
 101      AB1A80
 102 0066 C0329311 		.ascii	"\3002\223\021\306\344\316dd\234\3150\253\261\241A \223"
 102      C6E4CE64 
 102      649CCD30 
 102      ABB1A141 
 102      2093
 103 0078 91A99AE1 		.ascii	"\221\251\232\341WC\007\210\305\234\0136-\202\021\310"
 103      57430788 
 103      C59C0B36 
 103      2D8211C8 
 104 0088 04DB9B04 		.ascii	"\004\333\233\004\261\036HC\030\020\225\015[\201\012"
 104      B11E4843 
 104      1810950D 
 104      5B810A
 105 0097 58A046ED 		.ascii	"X\240F\355\006\262\031\201\372`J\301\000l\377\342\036"
 105      06B21981 
ARM GAS  /tmp/ccsnLqbb.s 			page 8


 105      FA604AC1 
 105      006CFFE2 
 105      1E
 106 00a8 5DEAD9CF 		.ascii	"]\352\331\317D\252\375;v<\372\200\341\177V\262\355\207"
 106      44AAFD3B 
 106      763CFA80 
 106      E17F56B2 
 106      ED87
 107 00ba F041326C 		.ascii	"\360A2l\377\201\200\037f\311\343\023\314\324\263\204"
 107      FF81801F 
 107      66C9E313 
 107      CCD4B384 
 108 00ca 05610988 		.ascii	"\005a\011\210q\221\241\361A\2772\304x\030\010\001\306"
 108      7191A1F1 
 108      41BF32C4 
 108      78180801 
 108      C6
 109 00db 04308641 		.ascii	"\0040\206A\301!\243\247\247\357\234\221\231\224\351"
 109      C121A3A7 
 109      A7EF9C91 
 109      9994E9
 110 00ea 1FAC9F5F 		.ascii	"\037\254\237_\254_T\242_\\\224\254\237\234QV\242\227"
 110      AC5F54A2 
 110      5F5C94AC 
 110      9F9C5156 
 110      A297
 111 00fc CC00008C 		.ascii	"\314\000\000\214l\216T"
 111      6C8E54
 112              		.text
 113              		.section	.gnu.lto_chVTDoSetI.bc563bbfe7bc8671,"",%progbits
 114 0000 789CAD56 		.ascii	"x\234\255VmlSU\030~\337s\332\336\333\256\203EE\330\006"
 114      6D6C5355 
 114      187EDF73 
 114      DADEDBAE 
 114      834545D8 
 115 0015 ACEE0F1F 		.ascii	"\254\356\017\037\3235\260\030\263\030c\014\376!a1\312"
 115      D335B018 
 115      B318630C 
 115      FE216131 
 115      CA
 116 0026 88FA8B94 		.ascii	"\210\372\213\224\262tM\366A\266\212&\230p\273U\3050"
 116      B2744DF6 
 116      41B68A26 
 116      9870BB55 
 116      C530
 117 0038 75D191A0 		.ascii	"u\321\221\240\222\010YP#f3\343\317\026%\331\010\011"
 117      92085950 
 117      236633E3 
 117      CF1625D9 
 117      0809
 118 004a AB8BC040 		.ascii	"\253\213\300@\3026\375\261H611\206\211\037\023\311\352"
 118      C236FDB1 
 118      48363131 
 118      86891F13 
 118      C9EA
 119 005c 7BBEBA76 		.ascii	"{\276\272v\255\024\0107\271\347\334{\356\373>\347y?"
 119      AD140837 
ARM GAS  /tmp/ccsnLqbb.s 			page 9


 119      B9E7DC7B 
 119      EEFB3EE7 
 119      793F
 120 006e EF61C060 		.ascii	"\357a\300`\351\365\001\335k\374\000_\321\214\305\200"
 120      E9F501DD 
 120      6BFC005F 
 120      D18CC580 
 121 007e ACFB1C40 		.ascii	"\254\373\034@\334f\214w\255\000\307\347J\324\202\343"
 121      DC668C77 
 121      AD00C7E7 
 121      4AD482E3 
 122 008e E7E852CB 		.ascii	"\347\350R\313.\346\036\342\264\354\271\362-\320\272"
 122      2EE61EE2 
 122      B4ECB9F2 
 122      2DD0BA
 123 009d 1BFD6ADD 		.ascii	"\033\375j\335\303\254\357\037\246u\373\233'h\331B[-"
 123      C3ACEF1F 
 123      A675FB9B 
 123      2768D942 
 123      5B2D
 124 00af DBE8530F 		.ascii	"\333\350S\017^\3650b\373\230\267\353,\251\372\212\022"
 124      5EF53062 
 124      FB98B7EB 
 124      2CA9FA8A 
 124      12
 125 00c0 16491619 		.ascii	"\026I\026\031\000?\242x\000\204\375\214\273\334\036"
 125      003FA278 
 125      0084FD8C 
 125      BBDC1E
 126 00cf CBF6FA8A 		.ascii	"\313\366\372\212\374\270\377e\024$Y%\034s\234\367\247"
 126      FCB8FF65 
 126      14245925 
 126      1C739CF7 
 126      A7
 127 00e0 8FFF3ECD 		.ascii	"\217\377>\315>t\206\023G\235[\251\024b\024\311\240\012"
 127      3E748613 
 127      479D5BA9 
 127      146214C9 
 127      A00A
 128 00f2 8430C24B 		.ascii	"\2040\302K\364\202\00191W\266\205Jw\370\320\331wK\235"
 128      F4820139 
 128      3157B685 
 128      4A77F8D0 
 128      D9774B9D 
 129 0106 A31DDDCE 		.ascii	"\243\035\335\316\002\251F\2213x\244\220f?\033\236N\245"
 129      02A94691 
 129      3378A490 
 129      663F1B9E 
 129      4EA5
 130 0118 BA86FEF8 		.ascii	"\272\206\376\370\351<>P\215\320,\366\013\3411\254\004"
 130      E93C3E50 
 130      8DD02CF6 
 130      0BE131AC 
 130      04
 131 0129 4E732FCD 		.ascii	"Ns/\315\0266#\33240\037\015\274\230\006X\006Dl\005\015"
 131      163623DA 
 131      34301F0D 
ARM GAS  /tmp/ccsnLqbb.s 			page 10


 131      BC980658 
 131      06446C05 
 132 013e AE956258 		.ascii	"\256\225bX%\206R-_&^\312\305\260F#\255\025/\025\372"
 132      2586522D 
 132      5F265ECA 
 132      C5B04623 
 132      AD152F15 
 133 0153 73402F56 		.ascii	"s@/V\012\210u\342\313z1T\321\300\211\220\033\022\216"
 133      0A8875E2 
 133      CB7A3154 
 133      D1C08990 
 133      1B128E
 134 0166 D31D5032 		.ascii	"\323\035P2J\243\031\211tXz\251\236\306>\013v \243\211"
 134      4AA31989 
 134      74587AA9 
 134      9EC63E0B 
 134      7620A389 
 135 017a 7F071D63 		.ascii	"\177\007\035c\3637\3461\204\307\321\015U\360\205CWq"
 135      F337E631 
 135      84C7D10D 
 135      55F08543 
 135      5771
 136 018c 14DD1FC3 		.ascii	"\024\335\037\303Gd\253'\202\226\260YY\272K\317\021\264"
 136      4764AB27 
 136      8296B059 
 136      59BA4BCF 
 136      11B4
 137 019e 0184E6E1 		.ascii	"\001\204\346\341\277\206\331RM+\277&jM\237\320<=u\353"
 137      BF86D952 
 137      4D2BBF26 
 137      6A4D9FD0 
 137      3C3D75EB 
 138 01b2 D2B9CD9A 		.ascii	"\322\271\315\232\247!<<\363\316\017<\375r\252g\322J"
 138      A7213C3C 
 138      F3CE0F3C 
 138      FD72AA67 
 138      D24A
 139 01c4 BF1CFC6D 		.ascii	"\277\034\374m.\375%\240\"\345\0148\216WF\230\3130}\216"
 139      2EFD25A0 
 139      22E50C38 
 139      8E574698 
 139      CB307D8E 
 140 01d8 85E204A0 		.ascii	"\205\342\004\240\250\202\360\204\020fts\305\252J\360"
 140      A882F084 
 140      10667473 
 140      C5AA4AF0 
 141 01e8 4FC4A73F 		.ascii	"O\304\247?\371\263\247,\2126\231\020\357vJ\242\350\025"
 141      F9B3A72C 
 141      8A369910 
 141      EF764AA2 
 141      E815
 142 01fa 403E6199 		.ascii	"@>a\231Kb\372\2645L\200\235P`I\350\270~\372\353\327"
 142      4B62FAB4 
 142      354C809D 
 142      506049E8 
 142      B87EFAEB 
 143 020f 43D847EF 		.ascii	"C\330G\357!\354'w\213k\024\022\263#\343o\371\325z\004"
ARM GAS  /tmp/ccsnLqbb.s 			page 11


 143      21EC2777 
 143      8B6B1412 
 143      B323E36F 
 143      F9D57A04 
 144 0223 8B853EC7 		.ascii	"\213\205>\307\014:;h\367\005\344\244?\375K\257\245\344"
 144      0C3A3B68 
 144      F705E4A4 
 144      3FFD4BAF 
 144      A5E4
 145 0235 9A95092E 		.ascii	"\232\225\011.\226\226q\2110\221\014\271\234>F\204#\311"
 145      96967189 
 145      30910CB9 
 145      9C3E4684 
 145      23C9
 146 0247 F55383FF 		.ascii	"\365S\203\377\216Z\006zY\025l$O\353\030\\&\375\"a\201"
 146      8E5A067A 
 146      59156C24 
 146      4FEB185C 
 146      26FD2261 
 147 025c 232CF0EF 		.ascii	"#,\360\357\203\233\316\001\361T\334,\371\012\370bm\006"
 147      839BCE01 
 147      F154DC2C 
 147      F90AF862 
 147      6D06
 148 026e D7B3F1D4 		.ascii	"\327\263\361\324(\234\3719\276)\015\253T\235\232\250"
 148      289CF939 
 148      BE290DAB 
 148      549D9AA8 
 149 027e D84162D7 		.ascii	"\330Ab\327\0224\301\030\315\214k\022\220ld\250\331\363"
 149      1234C118 
 149      CD8C6B12 
 149      906C64A8 
 149      D9F3
 150 0290 23A76282 		.ascii	"#\247b\202\275\0336\212\034K\016.\\\343\012W#=O\316"
 150      BD1B368A 
 150      1C4B0E2E 
 150      5CE30A57 
 150      233D4FCE 
 151 02a4 D08F3577 		.ascii	"\320\2175w\315\327\255\223\251J\245\341\304\302h\016"
 151      CDD7AD93 
 151      A94AA5E1 
 151      C4C2680E 
 152 02b4 38DC33B8 		.ascii	"8\3343\270K\203[\012|\376\276\202{\262\300ov\336x\357"
 152      4B835B0A 
 152      7CFEBE82 
 152      7BB2C06F 
 152      76DE78EF 
 153 02c8 D12CF0C7 		.ascii	"\321,\360\307\011<\177\001Yr\326!9\211\2131\031\302"
 153      093C7F01 
 153      5972D621 
 153      39898B31 
 153      19C2
 154 02da 3C4191E0 		.ascii	"<A\221\340\177\3371\270}\267\340c\023\251kl)8\317\017"
 154      7FDF31B8 
 154      7DB7E063 
 154      13A96B6C 
 154      2938CF0F 
ARM GAS  /tmp/ccsnLqbb.s 			page 12


 155 02ee EED536CB 		.ascii	"\356\3256\313\314\355<\320\371Y\317S&\305V\320\252\014"
 155      CCED3CD0 
 155      F959CF53 
 155      26C556D0 
 155      AA0C
 156 0300 6312349A 		.ascii	"c\0224\232\356\303\2517\307\220\212<~=\225Z.\353\373"
 156      EEC3A937 
 156      C7908A3C 
 156      7E3D955A 
 156      2EEBFB
 157 0313 CB82F54D 		.ascii	"\313\202\365Mh\000\347!q}\250wv\036\2276\227\2613\027"
 157      6800E721 
 157      717DA877 
 157      761E9736 
 157      97B13317 
 158 0327 A95ECECB 		.ascii	"\251^\316\313\342T;\205M\332\247\343\266<\214\356\020"
 158      E2543B85 
 158      4DDAA7E3 
 158      B63C8CEE 
 158      10
 159 0338 5E54E945 		.ascii	"^T\351EpQ,1U\350\201\204h\226\304\376j\317\006\303~"
 159      70512C31 
 159      55E88184 
 159      6896C4FE 
 159      6ACF06C3 
 160 034d A5612F0A 		.ascii	"\245a/\012\262\373A\263\274J\226\243\311\356}\367\230"
 160      B2FB41B3 
 160      BC4A96A3 
 160      C9EE7DF7 
 160      98
 161 035e DDD2596F 		.ascii	"\335\322Yow\266\030\324R\271\337\252\014W\251\326N_"
 161      77B618D4 
 161      52B9DFAA 
 161      0C57A9D6 
 161      4E5F
 162 0370 7447F874 		.ascii	"tG\370t\334e\204\313\024\205t<\226\345\306CV\373\354"
 162      DC6584CB 
 162      1485743C 
 162      96E5C643 
 162      56FBEC
 163 0383 62B59749 		.ascii	"b\265\227I s\355\240|{\203)\213o\364<i\204\312\211\201"
 163      2073EDA0 
 163      7C7B8329 
 163      8B6FF43C 
 163      6984CA89 
 164 0398 942B10AF 		.ascii	"\224+\020\257\020^\220\355\365\366\361*\227\361\272"
 164      105E90ED 
 164      F5F6F12A 
 164      97F1BA
 165 03a7 30D46B2D 		.ascii	"0\324k-\215\326\301s\003\024\255\251\254hyr\243E2?\232"
 165      8DD6C173 
 165      0314ADA9 
 165      AC687972 
 165      A345323F 
 166 03bc 68956744 		.ascii	"h\225gD\313V\321\352\230\2328\261A5\375\010\256\271"
 166      CB56D1EA 
 166      989A38B1 
ARM GAS  /tmp/ccsnLqbb.s 			page 13


 166      4135FD08 
 166      AEB9
 167 03ce 7FBD41F6 		.ascii	"\177\275A\366\374a\267BV\277Y\3027\233{\201\316.\\\006"
 167      FC61B742 
 167      56BF59C2 
 167      379B7B81 
 167      CE2E5C06 
 168 03e2 EFEAA172 		.ascii	"\357\352\241r\263}E\004y\004\327j\317\035\317\010_\205"
 168      B37D4504 
 168      7904D76A 
 168      CF1DCF08 
 168      5F85
 169 03f4 0E5F5FAD 		.ascii	"\016__\255\221\015\344\253W\226\333\014\024\017+\233"
 169      910DE4AB 
 169      5796DB0C 
 169      140F2B9B 
 170 0404 47C0F0F0 		.ascii	"G\300\360\360\001\235\225\364\237\303\354\305\245\212"
 170      019D95F4 
 170      9FC3ECC5 
 170      A58A
 171 0412 5C50D24C 		.ascii	"\\P\322Lm>\177b\022\315\356k\227\344\016\373\237\334"
 171      6D3E7F62 
 171      12CDEE6B 
 171      97E40EFB 
 171      9FDC
 172 0424 9989D7A4 		.ascii	"\231\211\327\244U\"\213\355a\022\0309\303\376\365\362"
 172      55228BED 
 172      61121839 
 172      C3FEF5F2 
 173 0434 43C4C57B 		.ascii	"C\304\305{\344\312\352I \303K\355\256KMd\2537\361\242"
 173      E4CAEA49 
 173      20C34BED 
 173      AE4B4D64 
 173      AB37F1A2 
 174 0448 E056A403 		.ascii	"\340V\244\003\224\034\354\037\3119A\334\266\001\246"
 174      941CEC1F 
 174      C93941DC 
 174      B601A6
 175 0457 294FF4CF 		.ascii	")O\364\317q\263\177\245\372\001\346\247l\247\313\251"
 175      71B37FA5 
 175      FA01E6A7 
 175      6CA7CBA9 
 176 0467 23D9EDBB 		.ascii	"#\331\355\273\303\315l\275Y\245\376\011\364'y\226\346"
 176      C3CD6CBD 
 176      59A5FE09 
 176      F4277996 
 176      E6
 177 0478 D3999A95 		.ascii	"\323\231\232\225\371h\352\337\307\341\201\271\354\303"
 177      F968EADF 
 177      C7E181B9 
 177      ECC3
 178 0486 95B70051 		.ascii	"\225\267\000Q\243\231\034\034H\346\270\246@\207\345"
 178      A3991C1C 
 178      48E6B8A6 
 178      4087E5
 179 0495 3A954EFE 		.ascii	":\225N\376\223\216\346:\245\\R0\242\"a\323\016]O\212"
 179      938EE63A 
ARM GAS  /tmp/ccsnLqbb.s 			page 14


 179      A55C5230 
 179      A22261D3 
 179      0E5D4F8A 
 180 04a9 066E6B26 		.ascii	"\006nk&\211B8\244*\225\006'N\316e\263\257]l\211Ew]w"
 180      894238A4 
 180      2A950627 
 180      4ECE65B3 
 180      AF5D6C89 
 181 04c1 EADC25CF 		.ascii	"\352\334%\317\026)\272\226\203Ir\2778\035\215C|\372"
 181      1629BA96 
 181      834972BF 
 181      381D8D43 
 181      7CFA
 182 04d3 E00CAA46 		.ascii	"\340\014\252Fa\256z\372a\364Y\342\034\265\272\272:\270"
 182      61AE7AFA 
 182      61F459E2 
 182      1CB5BABA 
 182      3AB8
 183 04e5 A531BA2B 		.ascii	"\2451\272+\372\334\366`k{\260-\026lo\013\007\303\215"
 183      FADCF660 
 183      6B7BB02D 
 183      166C6F0B 
 183      07C38D
 184 04f8 7B63D561 		.ascii	"{c\325a\300=\356\335\015M\261\320\246l\241\306PSpOk"
 184      C03DEEDD 
 184      0D4DB1D0 
 184      A66CA1C6 
 184      5053704F 
 185 050d 5BAC3DB8 		.ascii	"[\254=\270\275\276\256fsp\333\266g\203\365[\353\366"
 185      BDBEAE66 
 185      7370DBB6 
 185      6783F55B 
 185      EBF6
 186 051f 6E0AB6C7 		.ascii	"n\012\266\307v65\355\256n\204\307r`\225\3023/\324m\251"
 186      763635ED 
 186      AE6E84C7 
 186      726095C2 
 186      332FD46D 
 187 0534 7B8DF0C3 		.ascii	"{\215\360\303\255m\015;c\321\346\2066\222\016\344HG"
 187      AD6D0D3B 
 187      63D1E686 
 187      36920EE4 
 187      4847
 188 0546 5BC24DAF 		.ascii	"[\302M\257\354nPD\032\201\267\264\276\352\022\322\377"
 188      EC6E5044 
 188      1A81B7B4 
 188      BEEA12D2 
 188      FF
 189 0557 01F21000 		.ascii	"\001\362\020\000|"
 189      7C
 190              		.text
 191              		.section	.gnu.lto_chVTDoResetI.bc563bbfe7bc8671,"",%progbits
 192 0000 789CAD93 		.ascii	"x\234\255\2231h\024A\024\206\337{\263\263{\271=\203"
 192      31681441 
 192      1486DF7B 
 192      B3B37BB9 
 192      3D83
ARM GAS  /tmp/ccsnLqbb.s 			page 15


 193 0012 984A100C 		.ascii	"\230J\020\014Vb\360\026\261\321*\205\225 X$\007Z&\033"
 193      5662F016 
 193      B1D12A85 
 193      95205824 
 193      075A261B 
 194 0026 49163C03 		.ascii	"I\026<\003\311\241\205E\346\222+R\311\221JLcZ\021m,"
 194      C9A18545 
 194      E6922B52 
 194      C9914A4C 
 194      635A116D 
 195 003b CECA3BAB 		.ascii	"\316\312;\253\210\030\215\245\004\264J@\024\264\223"
 195      88188DA5 
 195      04B44A40 
 195      14B493
 196 004a 20AE6F66 		.ascii	" \256ofvn\357\314a\232\014\354{3\273\363\275\377\315"
 196      766EEFCC 
 196      619A0CEC 
 196      7B33BBF3 
 196      BDFFCD
 197 005d 7BB30404 		.ascii	"{\263\004\004\377\216k\374|\027\000\347\331c\000H\315"
 197      FF8E6BFC 
 197      7C1700E7 
 197      D9630048 
 197      CD
 198 006e 2D807A81 		.ascii	"-\200z\201H\274x\015\240\212r'\004U\022\344\331\245"
 198      48BC780D 
 198      A08A7227 
 198      045512E4 
 198      D9A5
 199 0080 6F961EFA 		.ascii	"o\226\036\372v\233\264\023\364\021\265\007\204%\022"
 199      769BB413 
 199      F411B507 
 199      842512
 200 008f 9EF471E9 		.ascii	"\236\364q\351&\232\360\317\251\375%M\237}|\373\3647"
 200      269AF0CF 
 200      A9FD254D 
 200      9F7D7CFB 
 200      F437
 201 00a1 BEA21182 		.ascii	"\276\242\021\202\004A`\025\301\3233\251M\240M\221\015"
 201      04416015 
 201      C1D333A9 
 201      4DA04D91 
 201      0D
 202 00b2 86DA94B4 		.ascii	"\206\332\224\264aRBC\251\346h\025\361\014l(\265\326"
 202      61524243 
 202      A9E66815 
 202      F10C6C28 
 202      B5D6
 203 00c4 5EDF7A70 		.ascii	"^\337zpR=^n\252?i\212\011\022\301i\204\030\341\006/"
 203      523D5E6E 
 203      AA3F698A 
 203      0912C169 
 203      8418E106 
 204 00d9 C4A8719E 		.ascii	"\304\250q\236\327\1778K\252\3173\233\252\321N\323qC"
 204      D77F384B 
 204      AACF339B 
 204      AAD14ED3 
ARM GAS  /tmp/ccsnLqbb.s 			page 16


 204      7143
 205 00eb 9D3D8C02 		.ascii	"\235=\214\002\375\235\307$[}\252\012\222\366\342\035"
 205      FD9DC724 
 205      5B7DAA0A 
 205      92F6E21D 
 206 00fb 2C7F6AED 		.ascii	",\177j\355vh\0127P\302,\322\030\234\343\324\307\340"
 206      76680A37 
 206      50C22CD2 
 206      189CE3D4 
 206      C7E0
 207 010d 89E27131 		.ascii	"\211\342q1A\271\016\217\352J\035O\320\277\017\373jU"
 207      41B90E8F 
 207      EA4A1D4F 
 207      D0BF0FFB 
 207      6A55
 208 011f CF822AEA 		.ascii	"\317\202*\352\242k\235\300\304\236\266\205a\237M`\023"
 208      A26B9DC0 
 208      C49EB685 
 208      619F4D60 
 208      13
 209 0130 1ADFEAC7 		.ascii	"\032\337\352\307\272QgQ\344\231Tx\301\2257\332\277v"
 209      BA516751 
 209      E4995478 
 209      C19537DA 
 209      BF76
 210 0142 3BE87679 		.ascii	";\350vyV\233\0059p\201\021-\340\002\273.k\250y\302!"
 210      569B0539 
 210      7081112D 
 210      E002BB2E 
 210      6BA879C2 
 211 0157 F27F88C8 		.ascii	"\362\177\210\310\2217?\206-\222\035l\242\027\362\016"
 211      91373F86 
 211      2D921D6C 
 211      A217F20E 
 212 0167 421CD94A 		.ascii	"B\034\331J=\334\313\363\013\216B,8x(\316\300p\255\326"
 212      3DDCCBF3 
 212      0B8E422C 
 212      387828CE 
 212      C070ADD6 
 213 017b DE36F591 		.ascii	"\3366\365\221\027\022\034\032,g\333\253\337\014\271"
 213      17121C1A 
 213      2C67DBAB 
 213      DF0CB9
 214 018a 72773E0C 		.ascii	"rw>\014w3\265\255\322\375+f\241.s+\271m\256S}\243\302"
 214      7733B5AD 
 214      D2FD2B66 
 214      A12E732B 
 214      B96DAE53 
 215 01a1 E15E5EB2 		.ascii	"\341^^\262w\341\353O\341\242d(7\234\006\247/{{2\342"
 215      77E1EB4F 
 215      E1A26428 
 215      379C06A7 
 215      2F7B7B32 
 216 01b6 B0D09489 		.ascii	"\260\320\224\211\006\347\235#+\253+\373\335\322\226"
 216      06E79D23 
 216      2BAB2BFB 
 216      DDD296
ARM GAS  /tmp/ccsnLqbb.s 			page 17


 217 01c5 588D4913 		.ascii	"X\215I\023\352jo\011\016\023g\324\235A\302N(\336C\243"
 217      EA6A6F09 
 217      0E1367D4 
 217      9D41C24E 
 217      28DE43A3 
 218 01d9 607980EE 		.ascii	"`y\200\356}\015\343\354^r2I\016\370\346\017\330\346"
 218      7D0DE3EC 
 218      5E723249 
 218      0EF8E60F 
 218      D8E6
 219 01eb 5F3E2FC5 		.ascii	"_>/\305$\357\344\267\2721\247\312\345\350\312\\2\235"
 219      24EFE4B7 
 219      BA31A7CA 
 219      E5E8CA5C 
 219      329D
 220 01fd 5C9F88E6 		.ascii	"\\\237\210\346\027\243\205Z\264\270\020G\361\334\335"
 220      17A3855A 
 220      B4B81047 
 220      F1DCDD
 221 020c 5A3986C2 		.ascii	"Z9\206\302\235\371{3\267n\327\246\244\261\177\001kQ"
 221      9DF97B33 
 221      B76ED7A6 
 221      A4B17F01 
 221      6B51
 222 021e E48F     		.ascii	"\344\217"
 223              		.text
 224              		.section	.gnu.lto_.symbol_nodes.bc563bbfe7bc8671,"",%progbits
 225 0000 789C4DC8 		.ascii	"x\234M\3101\016\202@\024\204\341\231\367v\2273x\011"
 225      310E8240 
 225      1484E199 
 225      F7769733 
 225      7809
 226 0012 AF387410 		.ascii	"\2578t\020+\033K,\344(\026\024$\224p\000O\200\022\215"
 226      2B1B4B2C 
 226      E4281614 
 226      24947000 
 226      4F80128D 
 227 0026 89852610 		.ascii	"\211\205&\020p\252\377\033\203\341\204e\366\241\200"
 227      70AAFF1B 
 227      83E18465 
 227      F6A180
 228 0035 63074855 		.ascii	"c\007HU\3118\361W\260\221\342\362\236K\332\235\262?"
 228      C938F157 
 228      B091E2F2 
 228      9E4BDA9D 
 228      B23F
 229 0047 3E28DFC8 		.ascii	">(\337\3107\025f\3469\371\242\342\246'\225V9\022nm\263"
 229      371566E6 
 229      39F9A2E2 
 229      A6279556 
 229      39126E6D 
 230 005c 7344D4A3 		.ascii	"sD\324\243\271g\250\017{\367\204k\327\007\017\300\245"
 230      B967A80F 
 230      7BF7846B 
 230      D7070FC0 
 230      A5
 231 006d 180C5FC5 		.ascii	"\030\014_\305\333--"
ARM GAS  /tmp/ccsnLqbb.s 			page 18


 231      DB2D2D
 232              		.text
 233              		.section	.gnu.lto_.refs.bc563bbfe7bc8671,"",%progbits
 234 0000 789C6362 		.ascii	"x\234cb`b0e\200\000\026\006FF& d`dc\002\261 \230\221"
 234      60623065 
 234      80001606 
 234      46462620 
 234      64606463 
 235 0019 918B9901 		.ascii	"\221\213\231\001\312\202\3113\200X, Q\006\000\026\273"
 235      CA82C933 
 235      80582C20 
 235      51060016 
 235      BB
 236 002a 0088     		.ascii	"\000\210"
 237              		.text
 238              		.section	.gnu.lto_.decls.bc563bbfe7bc8671,"",%progbits
 239 0000 789CBD5B 		.ascii	"x\234\275[{p\024\307\231\237\231]\255\264\222x\030\307"
 239      7B7014C7 
 239      999F995D 
 239      ADB49278 
 239      18C7
 240 0012 3EE2E062 		.ascii	">\342\340bI9\017'\007\022\217`Rw\025\340\204\317\366"
 240      49390F27 
 240      07128F60 
 240      527715E0 
 240      84CFF6
 241 0025 55485C82 		.ascii	"UH\\\202\334QuU\267\031V\203\264\027\255v\263;\022\360"
 241      DC517555 
 241      B7195683 
 241      B417AD76 
 241      B33B12F0 
 242 0039 97070964 		.ascii	"\227\007\011dl\354D \004B\346!\361\012\330\030\2030"
 242      6CEC4420 
 242      0442E621 
 242      F10AD818 
 242      8330
 243 004b B249000F 		.ascii	"\262I\000\017\256\262\"\300\346%\214@2\262x\032\260"
 243      AEB222C0 
 243      E6258C40 
 243      32B2781A 
 243      B0
 244 005c CF3CC41B 		.ascii	"\317<\304\033\202\356\353\257gvgfgV3\202d\253\272\325"
 244      82EEEBAF 
 244      67766766 
 244      67563382 
 244      64ABBAD5 
 245 0070 33D3FDFB 		.ascii	"3\323\375\373\236\375\365\327=#\216\341\230\015\034"
 245      9EFDF5D7 
 245      3D238EE1 
 245      980D1C
 246 007f C3F4C06F 		.ascii	"\303\364\300o\314D\206\371\257\014\206Ic\030\346\027"
 246      CC4486F9 
 246      AF0C8649 
 246      6318E617 
 247 008f 505C501A 		.ascii	"P\\P\032\240\254\206\322\004\205\205r\000J:\224\355"
 247      A0AC86D2 
 247      04858572 
ARM GAS  /tmp/ccsnLqbb.s 			page 19


 247      004A3A94 
 247      ED
 248 00a0 70B1138A 		.ascii	"p\261\023\212\014\345 \224\317\241\264A\351`i\277\223"
 248      0CE52094 
 248      CFA1B441 
 248      E96069BF 
 248      93
 249 00b1 A4D2FC48 		.ascii	"\244\322\374H\377A\012N\177(\331P\336V\260\336QhtB\237"
 249      FF410A4E 
 249      7F28D950 
 249      DE56B0DE 
 249      51687442 
 250 00c6 D32CA5B9 		.ascii	"\323,\245\271\007\312\031h\357\202r\026\3129(\203\201"
 250      07CA1968 
 250      EF827216 
 250      CA392883 
 250      81
 251 00d7 CFEF4239 		.ascii	"\317\357B9\016m`\223\331\252\360\263\021\3126(2\241"
 251      0E6D6093 
 251      D9AAF0B3 
 251      11CA3628 
 251      32A1
 252 00e9 03E53E3C 		.ascii	"\003\345><\377\224\241}\010\335\2478\312\337\323\360"
 252      FF94A17D 
 252      08DDA738 
 252      CADFD3F0 
 253 00f9 77189467 		.ascii	"w\030\224g\240\374\210\243\374\022\031\377\031\332;"
 253      A0FC88A3 
 253      FC1219FF 
 253      19DA3B
 254 0108 D8649E89 		.ascii	"\330d\236\211|\351\012\237F\376\232\024\336\3234<\354"
 254      7CE90A9F 
 254      46FE9A14 
 254      DED3343C 
 254      EC
 255 0119 83B29FA1 		.ascii	"\203\262\237\241\264Ye\274\231.\210\316\036SpU]\250"
 255      B45965BC 
 255      992E88CE 
 255      1E537055 
 255      5DA8
 256 012b 78E3157D 		.ascii	"x\343\025}\020\371\265r\033\351\253z\310\202v\213\""
 256      10F9B572 
 256      1BE9AB7A 
 256      C882768B 
 256      22
 257 013c 3B915BE5 		.ascii	";\221[\345\345S\205\237\255\212n\266+\274e(\364\265"
 257      E553859F 
 257      AD8A6EB6 
 257      2BBC6528 
 257      F4B5
 258 014e BA18C551 		.ascii	"\272\030\305Q\273\251:\361\020L\370\373W\242G(\373\240"
 258      BBA93AF1 
 258      104CF8FB 
 258      57A24728 
 258      FBA0
 259 0160 8CE592E5 		.ascii	"\214\345\222\345 v\357\247\261\243\326\266Z~Uy\010\337"
 259      2076EFA7 
ARM GAS  /tmp/ccsnLqbb.s 			page 20


 259      B1A3D6B6 
 259      5A7E5579 
 259      08DF
 260 0172 FF02384D 		.ascii	"\377\0028M\012\015\255\355\266j\354\307)\330\333\025"
 260      0A0DADED 
 260      B66AECC7 
 260      29D8DB15 
 261 0182 FBB4B2D4 		.ascii	"\373\264\262\324FF\372Y\314\353\222T.\325WJ/\266\364"
 261      4646FA59 
 261      CCEB9254 
 261      2ED5574A 
 261      2FB6F4
 262 0195 1FC42C94 		.ascii	"\037\304,\224\340\347k\001\016\246\261<\333\337\313"
 262      E0E76B01 
 262      0EA6B13C 
 262      DBDFCB
 263 01a4 482CB6B2 		.ascii	"H,\266\262\275\314@\350\375\003f\255$Uu}\322-\247IR"
 263      BDCC40E8 
 263      FD0366AD 
 263      2455757D 
 263      D22DA749 
 264 01b9 06CFAE66 		.ascii	"\006\317\256f\007\001\245gY\346'\314F\030X%I\247\207"
 264      0701A567 
 264      59E627CC 
 264      46185825 
 264      49A787
 265 01cc 32C9BF5E 		.ascii	"2\311\277^q9\346\337Y\206g\327\003\034\317\256c\177"
 265      7139E6DF 
 265      598667D7 
 265      031CCFAE 
 265      637F
 266 01de 4209495D 		.ascii	"B\011I]\367\232\037\314c\347H\022K\2371\312S\223\337"
 266      F79A1FCC 
 266      63E74812 
 266      4B9F31CA 
 266      5393DF
 267 01f1 30A61EE4 		.ascii	"0\246\036\344\220\377\266t\305w\245\372\217\331\336"
 267      90FFB674 
 267      C577A5FA 
 267      8FD9DE
 268 0200 C4AA8F93 		.ascii	"\304\252\217\223\377NB\254u\327Z\334(\326;(\226\304"
 268      FF4E42AC 
 268      75D75ADC 
 268      28D63B28 
 268      96C4
 269 0212 B23A7ABD 		.ascii	"\262:z\275\302pL\025\016\331\234,\306\267\252\030\233"
 269      C2704C15 
 269      0ED99C2C 
 269      C6B7AA18 
 269      9B
 270 0223 6D89B14B 		.ascii	"m\211\261K\021\203g\337\006Q8\246!\216\253\020\366\251"
 270      118367DF 
 270      065138A6 
 270      218EAB10 
 270      F6A9
 271 0235 74DD0CA3 		.ascii	"t\335\014\2436\351O\351\240\307\333\335\226]\305\253"
 271      36E94FE9 
ARM GAS  /tmp/ccsnLqbb.s 			page 21


 271      A0C7DBDD 
 271      965DC5AB 
 272 0245 601B1D83 		.ascii	"`\033\035\203\371t`\207\333\226#s^f~B\307\214)\230\242"
 272      F9746087 
 272      DB962373 
 272      5E667E42 
 272      C78C2998 
 273 025a D873754F 		.ascii	"\330suOHn\236m\202!\034\263\325\240V\3730\267\026|\262"
 273      486E9E6D 
 273      82211CB3 
 273      D5A056FB 
 273      30B7167C 
 274 026f 872D4735 		.ascii	"\207-G5\356@\250\367\270\276B]\255\336\371s4\365N\004"
 274      EE40A8F7 
 274      B8BE425D 
 274      ADDEF973 
 274      34F54E04 
 275 0283 DAE5D203 		.ascii	"\332\345\322\003\361lz\\\205\361k\265\003A\303\307J"
 275      F16C7A5C 
 275      85F16BB5 
 275      0341C3C7 
 275      4A
 276 0294 8384FD01 		.ascii	"\203\204\375\001\314\337\271;\307\264\270l\230-\303"
 276      CCDFB93B 
 276      C7B4B86C 
 276      982DC3
 277 02a3 D207BAEE 		.ascii	"\322\007\272\3566_O[&\311s]\272\271\361$SC\234\032."
 277      365F4F5B 
 277      26C9735D 
 277      BAB9F124 
 277      53439C1A 
 278 02b8 2456E4D9 		.ascii	"$V\344\331_<a\212Nx\374\230}\022[.\214-pc|\026T\277"
 278      5F3C618A 
 278      4E78FC98 
 278      7D125B2E 
 278      8C2D7063 
 279 02d0 71C5C548 		.ascii	"q\305\305H\241\356y\227e\016\325\275\007=\360\260A\335"
 279      A1EE7997 
 279      650ED5BD 
 279      073DF0B0 
 279      41DD
 280 02e2 3A8E2825 		.ascii	":\216(%+.\232\331,\213\331\223\364\214c\332\035\253"
 280      2B2E9AD9 
 280      2C8BD993 
 280      F48C63DA 
 280      1DAB
 281 02f4 4CE7E930 		.ascii	"L\347\3510oo\254c\253+\244\226\\\224\226cN\333\001\034"
 281      6F6FAC63 
 281      AB2BA496 
 281      5C949663 
 281      4EDB011C 
 282 0308 686203B3 		.ascii	"hb\003\263\2376P\360\354\026\366\007Poe\207A\275\015"
 282      9F3650F0 
 282      EC16F607 
 282      506F6587 
 282      41BD0D
 283 031b EBED58CB 		.ascii	"\353\355X\313X\267@\235R\321\004\216L\3578v#\313)\021"
ARM GAS  /tmp/ccsnLqbb.s 			page 22


 283      58B7409D 
 283      52D1048E 
 283      4CEF3876 
 283      23CB2911 
 284 032f B56F21A3 		.ascii	"\265o!\243\252=\0362x\366}\307`:E\3125\355\313\225x"
 284      AA3D1E32 
 284      78F67DC7 
 284      603A45CA 
 284      35EDCB95 
 285 0344 466200CF 		.ascii	"Fb\000\317~d\007\317\332\227\345\367)s4\240\\t\261\016"
 285      7E6407CF 
 285      DA97E5F7 
 285      297334A0 
 285      5C74B10E 
 286 0358 C17CA98C 		.ascii	"\301|\251\214\262^c\224\015h\224\215h\202}X\357\307"
 286      B25E6394 
 286      0D68948D 
 286      68827D58 
 286      EFC7
 287 036a FA533BE6 		.ascii	"\372S;\346hH\230\003\331\226\344\017\377\207pM\027\315"
 287      68489803 
 287      D996E40F 
 287      FF87704D 
 287      17CD
 288 037c 1BC0B5BA 		.ascii	"\033\300\265\272\242\314'Y\232\2720>\241\342\034\"\363"
 288      A2CC2759 
 288      9ABA303E 
 288      A1E21C22 
 288      F3
 289 038d 8C63EEA3 		.ascii	"\214c\356\243x\207\014k\212\274le6\211\251\207l\254"
 289      78870C6B 
 289      8ABC6C65 
 289      3689A987 
 289      6CAC
 290 039f 2792BCB5 		.ascii	"'\222\274\265s9K\364o\262\204u\305\227\260!L\"`\177"
 290      73394BF4 
 290      6FB28475 
 290      C597B021 
 290      4C22607F 
 291 03b3 7DC585F3 		.ascii	"}\305\205\363\365(\362Z\351\356u%\324\303pL5\016iKZ"
 291      F528F25A 
 291      E9EE7525 
 291      D4C3704C 
 291      350E694B 
 292 03c8 092B3FAF 		.ascii	"\011+?\257TV\3026[\234\267\265[r>Ak[5\320\\R\226\360"
 292      5456C236 
 292      5B9CB7B5 
 292      5B723E41 
 292      6B5B35D0 
 293 03e0 0E64BCC1 		.ascii	"\016d\274\301\234\361\372\011V0\260<\341\220\316\344"
 293      9CF1FA09 
 293      5630B03C 
 293      E190CEE4 
 294 03f0 25FC56B9 		.ascii	"%\374V\271\302x\247\255%\374\352\002{\231\210\344V\351"
 294      C278A7AD 
 294      25FCEA02 
 294      7B9988E4 
ARM GAS  /tmp/ccsnLqbb.s 			page 23


 294      56E9
 295 0402 4F488871 		.ascii	"OH\210qv(\307\263gP\204\217{\327\275\036\202c\366\343"
 295      7628C7B3 
 295      6750848F 
 295      7BD7BD1E 
 295      8263F6E3 
 296 0416 90F3C9BA 		.ascii	"\220\363\311\272\377\244B\021\341\274-\021\226\376A"
 296      FFA44211 
 296      E1BC2D11 
 296      96FE41
 297 0425 CD424E63 		.ascii	"\315BNc\330\376<\216\333\267\220Rw\000g-\005\373\302"
 297      D8FE3C8E 
 297      DBB79052 
 297      7700672D 
 297      05FBC2
 298 0438 31984F07 		.ascii	"1\230O\007\266\352\200\323,d\351W\362\340]\2224\220"
 298      B6EA80D3 
 298      2C64E957 
 298      F2E05D92 
 298      3490
 299 044a 67BFC5B8 		.ascii	"g\277\305\270Q\227f\\\364IV\241\371\331[\227W\247\331"
 299      5197665C 
 299      F44956A1 
 299      F9D95B97 
 299      57A7D9
 300 045d 10C43296 		.ascii	"\020\3042\226\021\263|ZM\027\031\325;=V\202@\356\206"
 300      11B37C5A 
 300      4D1719D5 
 300      3B3D5682 
 300      40EE86
 301 0470 C4BA8DA6 		.ascii	"\304\272\215\246m\375\272\345\331Z\024\255\333\226e"
 301      6DFDBAE5 
 301      D95A14AD 
 301      DB9665
 302 047f B7EF5B6A 		.ascii	"\267\357[j/M\346T\362\317 \371\023H\376\266\221\374"
 302      2F4DE654 
 302      F2CF20F9 
 302      1348FEB6 
 302      91FC
 303 0491 5B972F8C 		.ascii	"[\227/\214\247\344o\333\"\177\370\310\342d\362\226\311"
 303      A7E46FDB 
 303      227FF8C8 
 303      E264F296 
 303      C9
 304 04a2 8762BED6 		.ascii	"\207b\276\326\257/\014Y\205D\356\243\003-\364\030\315"
 304      AF2F0C59 
 304      8544EEA3 
 304      032DF418 
 304      CD
 305 04b3 373E4B4B 		.ascii	"7>KKKIP4\351@\235G\345\276O\376\013b\266\374\307\306"
 305      4B495034 
 305      E9409D47 
 305      E5BE4FFE 
 305      0B62B6FC 
 306 04c9 46497ACD 		.ascii	"FIz\315\243\362\260\3021\242\336\211\217\036\301\031"
 306      A3F2B0C2 
 306      31A2DE89 
ARM GAS  /tmp/ccsnLqbb.s 			page 24


 306      8F1EC119 
 307 04d9 41C1EAED 		.ascii	"A\301\352\355\200\245X\024\217i\301\3268\006\323sv\\"
 307      80A55814 
 307      8F69C1D6 
 307      3806D373 
 307      765C
 308 04eb 0BB6DE0E 		.ascii	"\013\266\336\016\230Y\332\243\200\265k\3016:\006\323"
 308      9859DAA3 
 308      80B56BC1 
 308      363A06D3 
 309 04fb 73F68516 		.ascii	"s\366\205\026l\223\035\260\301\326\234uj\301\2668\006"
 309      6C931DB0 
 309      C1D69C75 
 309      6AC1B638 
 309      06
 310 050c D3737645 		.ascii	"\323svE\013\366\276\0350\237\011g\361\237U^q+\221Wp"
 310      0BF6BE1D 
 310      309F0967 
 310      F19F555E 
 310      712B9157 
 311 0521 CC071E35 		.ascii	"\314\007\0365 8\364i&\201\361\027\217\323\010\246\223"
 311      2038F469 
 311      2681F117 
 311      8FD308A6 
 311      93
 312 0532 1B22D867 		.ascii	"\033\"\330gk\3244\231\006\367=v\020S8L\223v\245\330"
 312      6BD43499 
 312      06F73D76 
 312      1053384C 
 312      9376A5D8 
 313 0546 EB184C6F 		.ascii	"\353\030Lo\226\243\004L\027j\2245\243k\235<\2706\021"
 313      96A3044C 
 313      176A9435 
 313      A36B9D3C 
 313      B83611
 314 0559 EC32542C 		.ascii	"\3542T,rDB#[\225$q\361\316\322\340\301\346}yv\031G\362"
 314      72444223 
 314      5B952471 
 314      F1CED2E0 
 314      C1E67D79 
 315 0571 C43ACE1B 		.ascii	"\304:\316\033\347\202\266\325V\017K\364|\330c8|Q\177"
 315      E782B6D5 
 315      560F4BF4 
 315      7CD86338 
 315      7C517F
 316 0584 BD0DB5F2 		.ascii	"\275\015\265\362\204\245\234\306\023\216\331QS\212\251"
 316      84A59CC6 
 316      138ED951 
 316      538AA9
 317 0593 70EFC0F2 		.ascii	"p\357\300\362\177\222\272dV#oJ\345\220\005\365B\033"
 317      7F92BA64 
 317      56236F4A 
 317      E59005F5 
 317      421B
 318 05a5 5B8109C5 		.ascii	"[\201\011\305J\216\254\250'\015!\331>\324\255\005\357"
 318      4A8EACA8 
 318      270D21D9 
ARM GAS  /tmp/ccsnLqbb.s 			page 25


 318      3ED4AD05 
 318      EF
 319 05b6 FE14F3B6 		.ascii	"\376\024\363\266\006\004:\337g\240\253\325+\307!\320"
 319      06043ADF 
 319      67A0ABD5 
 319      2BC721D0 
 320 05c6 5A04FA36 		.ascii	"Z\004\3726i\2210.\361\254~\211g\275\211F\217\336\\\217"
 320      6991302E 
 320      F1AC7E89 
 320      67BD8946 
 320      8FDE5C8F 
 321 05da B42FC7DC 		.ascii	"\264/\307\3346\332K'N\257\321\0062\322\263\325lw\271"
 321      36DA4B27 
 321      4EAFD106 
 321      32D2B3D5 
 321      6C77B9
 322 05ed 549BEBC4 		.ascii	"T\233\353\304b]\252\3056\242~\244t\243~\0328g\012\342"
 322      625DAAC5 
 322      36A27EA4 
 322      74A37E1A 
 322      38670AE2 
 323 0601 98F9E94E 		.ascii	"\230\371\351N\005\371\261^\220\312\257\372 \310\025"
 323      05F9B15E 
 323      90CAAFFA 
 323      20C815
 324 0610 5590CD28 		.ascii	"U\220\315(H\325#\020\244\326\261 \271\032Ap\217\260"
 324      48D52310 
 324      A4D6B120 
 324      B91A4170 
 324      8FB0
 325 0622 98C6C1C7 		.ascii	"\230\306\301\307\231E\25139\302\3176\356q\375\226\356"
 325      9945A933 
 325      39C2CF36 
 325      EE71FD96 
 325      EE
 326 0633 C641D647 		.ascii	"\306A\326Go\367\276/\252>\242I\177%{\351o\213\222\376"
 326      6FF7BE2F 
 326      AA3EA249 
 326      7F257BE9 
 326      6F8B92FE 
 327 0647 36A1C656 		.ascii	"6\241\306V\245\233\3141;H\365\267\366\343q\336\016\204"
 327      A59BCC31 
 327      3B48F5B7 
 327      F6E371DE 
 327      0E84
 328 0659 59D75798 		.ascii	"Y\327W\230\256\253\255\037\320\251\272\023\201\336M"
 328      AEABAD1F 
 328      D0A9BA13 
 328      81DE4D
 329 0668 B2A0C760 		.ascii	"\262\240\307`@\217\336\200pI(\335&\2318\373\212r\207"
 329      408FDE80 
 329      704928DD 
 329      269938FB 
 329      8A7287
 330 067b 5CA433FF 		.ascii	"\\\2443\377\360q\260\020#\373\304x}I.q\033\260X]D\251"
 330      F071B010 
 330      23FBC478 
ARM GAS  /tmp/ccsnLqbb.s 			page 26


 330      7D492E71 
 330      1BB0585D 
 331 0691 81763F14 		.ascii	"\201v?\024b\271\374\321\"u\373\206gW\177}H8\314\273"
 331      62B9FCD1 
 331      2275FB86 
 331      67577F7D 
 331      4838CCBB 
 332 06a5 74CBA821 		.ascii	"t\313\250!}?c\261\364\250[\3633]\364\014\260\231#\354"
 332      7D3F63B1 
 332      F4A85BF3 
 332      335DF40C 
 332      B09923EC 
 333 06b9 1C4832F7 		.ascii	"\034H2\367i\326\220\277\237\326\237\347Y\315\243O\264"
 333      69D690BF 
 333      9FD69FE7 
 333      59CDA34F 
 333      B4
 334 06ca ABE0A987 		.ascii	"\253\340\251\2075C\363I\203\031\276zH\275-\253\266w"
 334      3543F349 
 334      8319BE7A 
 334      48BD2DAB 
 334      B677
 335 06dc 10F05B15 		.ascii	"\020\360[\025+\033\005\271\214d\017p\206\255\326\235"
 335      2B1B05B9 
 335      8C640F70 
 335      86ADD69D 
 336 06ec 9EAE4AE5 		.ascii	"\236\256J\345\014\234<\353=Pt\234\363J\213\262\325\003"
 336      0C9C3CEB 
 336      3D50749C 
 336      F34A8BB2 
 336      D503
 337 06fe 9195192A 		.ascii	"\221\225\031*\252BUw\372\321\253z\344N\241%\327I\310"
 337      AA425577 
 337      FAD1AB7A 
 337      E44EA125 
 337      D749C8
 338 0711 B9A0849C 		.ascii	"\271\240\204\234\243\250\312\365\031I;nc\220v4\3476"
 338      A3A8CAF5 
 338      19493B6E 
 338      63907634 
 338      E736
 339 0723 19A5B1BB 		.ascii	"\031\245\261\273c\212\377\254|\3523\255O5f<\224\007"
 339      638AFFAC 
 339      7CEA33AD 
 339      4F35663C 
 339      9407
 340 0735 90D73F6B 		.ascii	"\220\327?k\251O9{\333\3061;\220r\207\321\011j\326\357"
 340      A94F397B 
 340      DBC6313B 
 340      907287D1 
 340      096AD6EF 
 341 0749 7D5539C9 		.ascii	"}U9\311\351\260\345\0047tNp6\216\332\027'(\227\357\\"
 341      E9B0E504 
 341      37744E70 
 341      368EDA17 
 341      272897EF 
 342 075e DCCB221C 		.ascii	"\334\313\"\034\315\317\2771\3029\334\267\336\027\234"
ARM GAS  /tmp/ccsnLqbb.s 			page 27


 342      CDCFBF31 
 342      C239DCB7 
 342      DE179C
 343 076d 2A86BA97 		.ascii	"*\206\272\227|\342\034Y/\317rD\246\353I\256E5\243q\255"
 343      7CE21C59 
 343      2FCF7244 
 343      A6EB49AE 
 343      4535A371 
 344 0782 841A79F6 		.ascii	"\204\032y\366$&\354\235\0349\314\355\302\3724g\343H"
 344      2426EC9D 
 344      1C39CCED 
 344      C2FA3467 
 344      E348
 345 0794 F78CD62D 		.ascii	"\367\214\326-\356;\226\333g\323\373\332\265d*\274\017"
 345      EE3B96DB 
 345      67D3FBDA 
 345      B5642ABC 
 345      0F
 346 07a5 E77D779B 		.ascii	"\347}w\233o\272\361\275\217\223\223\262\343\312\274"
 346      6FBAF1BD 
 346      8F9393B2 
 346      E3CABC
 347 07b4 BD84F3F6 		.ascii	"\275\204\363\366u\357#9)[\322WI\342?\216Y\341\265\261"
 347      75EF2339 
 347      295BD257 
 347      49E23F8E 
 347      59E1B5B1 
 348 07c8 CBF15969 		.ascii	"\313\361Yi\203,\263\017"
 348      832CB30F 
 349 07d0 16DB3C6D 		.ascii	"\026\333<mS\337\012\237\227\351\221\362\025t\264\006"
 349      53DF0A9F 
 349      97E991F2 
 349      1574B406 
 350 07e0 832E6C1C 		.ascii	"\203.l\034\332m\301!\335\306Y|\257\362\272z\244\334"
 350      DA6DC121 
 350      DDC6597C 
 350      AFF2BA7A 
 350      A4DC
 351 07f2 6D631697 		.ascii	"mc\026\227\313\255\013\264\347\261`\034|\213\322\235"
 351      CBAD0BB4 
 351      E7B1601C 
 351      7C8BD29D 
 352 0802 DA0153EA 		.ascii	"\332\001S\352Sg\302n\315\374\270\201\363\343\246vNp"
 352      5367C26E 
 352      CDFCB881 
 352      F3E3A676 
 352      4E70
 353 0814 8CEC58F7 		.ascii	"\214\354X\367>\255\356\345\232c\364,_\215C\373\214x"
 353      3EADEEE5 
 353      9A63F42C 
 353      5F8D43FB 
 353      8C78
 354 0826 6671E8C7 		.ascii	"fq\350\307V\266,\227\267\034\303S\002\352\243\237\333"
 354      56B62C97 
 354      B71CC353 
 354      02EAA39F 
 354      DB
ARM GAS  /tmp/ccsnLqbb.s 			page 28


 355 0837 612ED71A 		.ascii	"a.\327\032\354\243%\252r\3331?\351r\214\347\323\341"
 355      ECA325AA 
 355      72DB313F 
 355      E9728CE7 
 355      D3E1
 356 0849 B51D535F 		.ascii	"\265\035S_y\321\323\346Kv\360\306Y\363wc\211.\233\273"
 356      79D1D3E6 
 356      4B76F0C6 
 356      59F37763 
 356      892E9BBB 
 357 085d E118CE97 		.ascii	"\341\030\316\227\312\366\211\227\005<{\001_z]\304\027"
 357      CAF68997 
 357      053C7B01 
 357      5F7A5DC4 
 357      17
 358 086e 5D5F63FD 		.ascii	"]_c\375\177X_\303z\021F\313\305X/\301z\005\326\033\260"
 358      7F585FC3 
 358      7A1146CB 
 358      C5582FC1 
 358      7A05D61B 
 359 0883 7E17EB46 		.ascii	"~\027\353F\254/c}\033\353\273X\337\307\372\001\326\222"
 359      AC2F637D 
 359      1BEBBB58 
 359      DFC7FA01 
 359      D692
 360 0895 CB46BC35 		.ascii	"\313F\2745d\200\252\313w\366\371\025\304\265\375\361"
 360      6480AACB 
 360      77F6F915 
 360      C4B5FDF1 
 361 08a5 83259EFD 		.ascii	"\203%\236\375\3061XJ\035vjt\330\205:<\205\032+w\351"
 361      C631584A 
 361      1D766A74 
 361      D8853A3C 
 361      851A2B77 
 362 08ba 66D1DFBC 		.ascii	"f\321\337\274\352\233\261\276\255\276'\332\365\2165"
 362      EA9BB1BE 
 362      ADBE27DA 
 362      F58E35
 363 08c9 2FD380E7 		.ascii	"/\323\200\347h\371\225\344/\350\273\324n\234\222o8\006"
 363      68F995E4 
 363      2FE8BBD4 
 363      6E9C926F 
 363      3806
 364 08db F3E998EB 		.ascii	"\363\351\230\353\256\323\2772Zd\007/\305A\340\365v\315"
 364      AED3BF32 
 364      5A64072F 
 364      C541E0F5 
 364      76CD
 365 08ed 41609D63 		.ascii	"A`\235c0=sw\265`\253\355\200\231\035\227\231\033\277"
 365      303D7377 
 365      B560ABED 
 365      80991D97 
 365      991BBF
 366 0900 4D63FC13 		.ascii	"Mc\374\023h\374v4\376\\\027\251+\261\236\217\365\353"
 366      68FC7634 
 366      FE5C17A9 
 366      2BB19E8F 
ARM GAS  /tmp/ccsnLqbb.s 			page 29


 366      F5EB
 367 0912 58BFA177 		.ascii	"X\277\241w\212M\231\352K^\205\230\376}j\012\257\200"
 367      8A4D99EA 
 367      4B5E8598 
 367      FE7D6A0A 
 367      AF80
 368 0924 FC170829 		.ascii	"\374\027\010)\266<\334I}\303\356\332v\356\246L\327\266"
 368      B63CDC49 
 368      7DC3EEDA 
 368      76EEA64C 
 368      D7B6
 369 0936 2A17B17E 		.ascii	"*\027\261~c\246\343\265m\017\016\251v%\255m\347\325"
 369      63A6E3B5 
 369      6D0F0EA9 
 369      7625AD6D 
 369      E7D5
 370 0948 F7BCE459 		.ascii	"\367\274\344Y/k\333\334\012y\307[\353\023\273\244\212"
 370      2F6BDBDC 
 370      0A79C75B 
 370      EB13BBA4 
 370      8A
 371 0959 F89EB216 		.ascii	"\370\236\262\026b\273Up\320\235~\036\216\363\361H\326"
 371      62BB5570 
 371      D09D7E1E 
 371      8EF3F148 
 371      D6
 372 096a C284403C 		.ascii	"\302\204@<[\343\"\346\\\2427X\207\321`f\364tk\227/!"
 372      5BE322E6 
 372      5CA23758 
 372      87D16066 
 372      F4746B97 
 373 0980 2F58EA44 		.ascii	"/X\352D\247\272\026\322\327\274_\032\361\364/u{[\277"
 373      A7BA16D2 
 373      D7BC5F1A 
 373      F1F42F75 
 373      7B5BBF
 374 0993 24F95A27 		.ascii	"$\371Z'8\267]\273o\377\340\342sh\367\025h\367\005Y\016"
 374      38B75DBB 
 374      6FFFE0E2 
 374      7368F715 
 374      68F70559 
 375 09a8 ED4E5454 		.ascii	"\355NTTo\260\271|U\360\321\273\275g2w\316\341\016\302"
 375      6FB0B97C 
 375      55F0D1BB 
 375      BD673277 
 375      CEE10EC2 
 376 09bc 4946DAA2 		.ascii	"IF\332\242\236\367\255q\221\250\267\334\300r\037S\322"
 376      9EF7AD71 
 376      91A8B7DC 
 376      C0721F53 
 376      D2
 377 09cd B50853FF 		.ascii	"\265\010S\377\250\334\246^\3436\015\3506\253\365n\363"
 377      A8DCA65E 
 377      E3360DE8 
 377      36ABF56E 
 377      F3
 378 09de 4E960DB7 		.ascii	"N\226\015\267\211XZ\031\266\222\347\237\233#\311\265"
ARM GAS  /tmp/ccsnLqbb.s 			page 30


 378      89585A19 
 378      B692E79F 
 378      9B23C9B5 
 379 09ee B98F3155 		.ascii	"\271\2171U\270G\232\177F=\260\227+\245\371\354\234\255"
 379      B8479A7F 
 379      463DB097 
 379      2BA5F9EC 
 379      9CAD
 380 0a00 43E22375 		.ascii	"C\342#u\353J\342%\352\323ocf\3776\252q\263A\215N\260"
 380      EB4AE225 
 380      EAD36F63 
 380      66FF36AA 
 380      71B3418D 
 381 0a16 6E2D38A8 		.ascii	"n-8\250~\216\367.\202\355\350;X\375\325\326!\344Lq\013"
 381      7E8EF72E 
 381      82EDE83B 
 381      58FDD5D6 
 381      21E44C71 
 382 0a2b 027D9C64 		.ascii	"\002}\234d\\\257\301\266^\275m\275\336D\243G\375\031"
 382      5CAFC1B6 
 382      5EBD6DBD 
 382      DE44A347 
 382      FD19
 383 0a3d 4FE4FF8E 		.ascii	"O\344\377\216c\024\301\344~\252d\307Y\005`\243\353\261"
 383      6314C1E4 
 383      7EAA64C7 
 383      590560A3 
 383      EBB1
 384 0a4f 842EA478 		.ascii	"\204.\244x\\\313\266\016k\333\\\211WA\331\336D\343\251"
 384      5CCBB60E 
 384      6BDB5C89 
 384      5741D9DE 
 384      44E3A9
 385 0a62 B8137D66 		.ascii	"\270\023}ft\"\003]\245=+\225\333\252QF\267\2576[\365"
 385      7422035D 
 385      A53D2B95 
 385      DBAA5146 
 385      B7AF365B 
 386 0a77 7CB4FF50 		.ascii	"|\264\377Pf\245$_\351\272\263{\357\210%\025\345-\322"
 386      66A5245F 
 386      E9BAB37B 
 386      EF882515 
 386      E52DD2
 387 0a8a 153281EC 		.ascii	"\0252\201\354\177<\330\3442|<H\277+\323|=\3101w\014"
 387      7F3CD8E4 
 387      327C3C48 
 387      BF2BD37C 
 387      3DC83177 
 388 0a9f 567F8659 		.ascii	"V\177\206Y#I\213\244e\302\213\352\227\253of\223\036"
 388      23498BA4 
 388      65C28BEA 
 388      97AB6F66 
 388      931E
 389 0ab1 DB5D434D 		.ascii	"\333]CM\351\304?\200\373!\263\216\274\272{S\2327\220"
 389      E9C43F80 
 389      FB21B38E 
 389      BCBA7B53 
ARM GAS  /tmp/ccsnLqbb.s 			page 31


 389      9A3790
 390 0ac4 45AE1865 		.ascii	"E\256\030e\224\316\264\037\2728\355\015\"`}\227|W\240"
 390      94CEB41F 
 390      BA38ED0D 
 390      22607D97 
 390      7C57A0
 391 0ad7 B2D9176D 		.ascii	"\262\331\027m\227\"ZB\032\216Y\230\255\027E\341\011"
 391      97225A42 
 391      1A8E5998 
 391      AD1745E1 
 391      09
 392 0ae8 7E1B2457 		.ascii	"~\033$W\234\245\235F\226v'\263\324uE~\320\234]5\247"
 392      9CA59D46 
 392      967627B3 
 392      D475457E 
 392      D09C5D35 
 393 0afd ABA767A8 		.ascii	"\253\247g\250}\236\366\230\251;~\321D#e\374z\017U\233"
 393      7D9EF698 
 393      A93B7ED1 
 393      442365FC 
 393      7A0F559B 
 394 0b11 F6C34E9D 		.ascii	"\366\303N\235<(R]\266\251ujT\353\360\354\237]$\235\226"
 394      3C28525D 
 394      B6A9756A 
 394      54EBF0EC 
 394      9F5D249D 
 395 0b26 535B4719 		.ascii	"S[G\031\326J\206\321\317\367\326!\260\3650\344\226\016"
 395      D64A86D1 
 395      CFF7D621 
 395      B0F530E4 
 395      960E
 396 0b38 9317BE4A 		.ascii	"\223\027\276J\322KN\375\216\364\235^\206\356\321P\334"
 396      D24B4EFD 
 396      8EF49D5E 
 396      86EED150 
 396      DC
 397 0b49 4A28E2D6 		.ascii	"J(\342\326\251\261\227Q\343\023N$\311=\225\025\365\254"
 397      A9B19751 
 397      E3134E24 
 397      C93D9515 
 397      F5AC
 398 0b5b E489DB4C 		.ascii	"\344\211\333L6\332\254\331\324fG\366S\233\255\232`\337"
 398      36DAACD9 
 398      D46647F6 
 398      539BAD9A 
 398      60DF
 399 0b6d 68876CCC 		.ascii	"h\207l\314\221&s+,3Z\341\240\2559\"\031\346\310A\243"
 399      9126732B 
 399      2C335AE1 
 399      A0AD3922 
 399      19E6C841 
 400 0b82 70474C84 		.ascii	"pGL\204\203\305\370\374\236\357\3256Js_\223\036\364"
 400      83C5F8FC 
 400      9EEFD536 
 400      4A735F93 
 400      1EF4
 401 0b94 BCC2D219 		.ascii	"\274\302\322\031\3001g\222|\236b\0343\303\220\2575\277"
ARM GAS  /tmp/ccsnLqbb.s 			page 32


 401      C0316792 
 401      7C9E621C 
 401      33C390AF 
 401      35BF
 402 0ba6 21B14EDD 		.ascii	"!\261N\335\372\270QC\364kR\235\206.[\260\321n\312Fg"
 402      FAB85143 
 402      F46B529D 
 402      862E5BB0 
 402      D16ECA46 
 403 0bbb 820D0ACF 		.ascii	"\202\015\012\3171w-\000\276\320\003|\237i \272\270\327"
 403      31772D00 
 403      BED0037C 
 403      9F6920BA 
 403      B8D7
 404 0bcd FCD9E04D 		.ascii	"\374\331\340M\345\322\334\255 A\017\3333\336\306'\235"
 404      E5D2DCAD 
 404      20410FDB 
 404      33DEC627 
 404      9D
 405 0bde EAFB90BB 		.ascii	"\352\373\220\273\207\3507\226\235\230\203\275\332\317"
 405      87E83796 
 405      9D9883BD 
 405      DACF
 406 0bec B8E6D14F 		.ascii	"\270\346\321O;5\034\034\322\3541\216\340\036\243\025"
 406      3B351C1C 
 406      D2EC318E 
 406      E01EA315 
 407 0bfc F71807B0 		.ascii	"\367\030\007\260\376#\356+\352\260^\216\365\006}\356"
 407      FE23EE2B 
 407      EAB05E8E 
 407      F5067DEE 
 408 0c0c 511DA760 		.ascii	"Q\035\247`\316\027!q*!\244\341\355N\247E\216\204\333"
 408      CE172171 
 408      2A21A4E1 
 408      ED4EA745 
 408      8E84DB
 409 0c1f 745796C5 		.ascii	"tW\226\305(\342\032V\243\316$F\341\352X\2212\021\004"
 409      28E21A56 
 409      A3CE2446 
 409      E1EA5891 
 409      321104
 410 0c32 CF46917B 		.ascii	"\317F\221{\317\352\314\216\217=*\324o\023\0068y\351"
 410      CFEACC8E 
 410      8F3D2AD4 
 410      6F130638 
 410      79E9
 411 0c44 6A094D29 		.ascii	"j\011M)\317\241\005\366\3673\315\202\255q\010S\027\214"
 411      CFA105F6 
 411      F733CD82 
 411      AD710853 
 411      178C
 412 0c56 59707507 		.ascii	"Ypu\007~\227{\301\326\256\247\246C\335\313\237\305\304"
 412      7E977BC1 
 412      D6AEA7A6 
 412      43DDCB9F 
 412      C5C4
 413 0c68 A70D59B8 		.ascii	"\247\015Y\270\340<\035U\360\226t\340\016\227\202u8\006"
ARM GAS  /tmp/ccsnLqbb.s 			page 33


 413      E03C1D55 
 413      F09674E0 
 413      0E978275 
 413      3806
 414 0c7a F3E9C06A 		.ascii	"\363\351\300j\265`_\332\001\263:e\000\260:-\330Y\307"
 414      B5605FDA 
 414      01B33A65 
 414      00B03A2D 
 414      D859C7
 415 0c8d 607ACE96 		.ascii	"`z\316\226k\301.\332\001\263:b\000\260\225Z\260o\034"
 415      6BC12EDA 
 415      01B33A62 
 415      00B0955A 
 415      B06F1C
 416 0ca0 83E939DB 		.ascii	"\203\3519\333\242\005\273b\007\314\352\213\034\000k"
 416      A205BB62 
 416      07CCEA8B 
 416      1C006B
 417 0caf D482DD74 		.ascii	"\324\202\335t\014\246\347\354}-\330};`>k\316\232\264"
 417      0CA6E7EC 
 417      7D2DD87D 
 417      3B603E6B 
 417      CE9AB4
 418 0cc2 6073FA3B 		.ascii	"`s\372;\005\323s\366\241\026l\236\0350\2533a\000\373"
 418      05D373F6 
 418      A1166C9E 
 418      1D30AB33 
 418      6100FB
 419 0cd5 B316EC35 		.ascii	"\263\026\3545\307`z\316vj\301\336\264\003f\265A\237"
 419      C7607ACE 
 419      766AC1DE 
 419      B40366B5 
 419      419F
 420 0ce7 3B47DEFD 		.ascii	";G\336\375\337U\274\272k#\241\221\240\232f\341\344\037"
 420      DF55BCBA 
 420      6B23A191 
 420      A09A66E1 
 420      E41F
 421 0cf9 1B13DDC8 		.ascii	"\033\023\335\310\266\326\242\033\317V\272\235\356.^"
 421      B6D6A21B 
 421      CF56BA9D 
 421      EE2E5E
 422 0d08 759BEF2E 		.ascii	"u\233\357.\022K\250\266\027Ie\215b\233n\031\254\016"
 422      124BA8B6 
 422      1749658D 
 422      629B6E19 
 422      AC0E
 423 0d1a C2418987 		.ascii	"\302A\211\207\264J\254\261\243\304\011\326`G\264`uv"
 423      B44AACB1 
 423      A3C409D6 
 423      6047B460 
 423      7576
 424 0d2c C05EB4F6 		.ascii	"\300^\264\366\225\243Z\260\225\216\301\364\234\035\323"
 424      95A35AB0 
 424      958EC1F4 
 424      9C1DD3
 425 0d3b 82ADB103 		.ascii	"\202\255\261\003\366\2625g\307\265`\353\035\203i9\233"
ARM GAS  /tmp/ccsnLqbb.s 			page 34


 425      F6B23567 
 425      C7B560EB 
 425      1D836939 
 425      9B
 426 0d4c 23B7271C 		.ascii	"#\267'\034\217\374\343\203\316\363t[\361\270\343\321"
 426      8FFCE383 
 426      CEF3745B 
 426      F1B8E3D1 
 427 0d5c 6E1ACF33 		.ascii	"n\032\3173t\343\331\032\307\216\267\304\302\361\264"
 427      74E3D91A 
 427      C78EB7C4 
 427      C2F1B4
 428 0d6b 3BEE442F 		.ascii	";\356D/r$j\024[\307\204\322\234f\242C\263\237v\241\346"
 428      72246A14 
 428      5BC784D2 
 428      9C66A243 
 428      B39F76A1 
 429 0d80 D98B7834 		.ascii	"\331\213x4s\011\223\244o\260\376\026\353+X_\303\372"
 429      730993A4 
 429      6FB0FE16 
 429      EB2B585F 
 429      C3FA
 430 0d92 3AD637B1 		.ascii	":\3267\261\276\215\365]\254\357c\375\000k\311\215\347"
 430      BE8DF55D 
 430      ACEF63FD 
 430      006BC98D 
 430      E7
 431 0da3 FB58CFC5 		.ascii	"\373X\317\305\3725\254\027`\375&\326\177\304z!\326\325"
 431      FA35AC17 
 431      60FD26D6 
 431      7FC47A21 
 431      D6D5
 432 0db5 6E4D4266 		.ascii	"nMBf\310\224\316\245\310\257j\335V\371\325\361\024\371"
 432      C894CEA5 
 432      C8AF6ADD 
 432      56F9D5F1 
 432      14F9
 433 0dc7 D5B2C428 		.ascii	"\325\262\304(e\367\336\332\275\367\251M\344\003v\222"
 433      65F7DEDA 
 433      BDF7A94D 
 433      E4037692 
 434 0dd7 B8CF99CB 		.ascii	"\270\317\231\313\252\251\373\227\375\355lW\353\334\206"
 434      AAA9FB97 
 434      FDED6C57 
 434      EBDC86
 435 0de6 DDC15BEE 		.ascii	"\335\301[\356\244\224\032\210t\334:\365\257;4D\014\351"
 435      A4941A88 
 435      74DC3AF5 
 435      AF3B3444 
 435      0CE9
 436 0df8 7D136BED 		.ascii	"}\023k\355#+\335\311[\351%\003Ly+\227\0327H^u/\313\263"
 436      232BDDC9 
 436      5BE92503 
 436      4C792B97 
 436      1A37485E 
 437 0e10 2BDCE61B 		.ascii	"+\334\346\033\036\005o\225)\253G\272\367>M^\215K==\257"
 437      1E056F95 
ARM GAS  /tmp/ccsnLqbb.s 			page 35


 437      29AB47BA 
 437      F73E4D5E 
 437      8D4B3D3D 
 438 0e25 0CA3E439 		.ascii	"\014\243\3449f\243=\202\015\251\011\2566%x\367\336\211"
 438      66A33D82 
 438      0DA909AE 
 438      362578F7 
 438      DE89
 439 0e37 6793085E 		.ascii	"g\223\010^\266Gpmj\202\353L\011\266v_\374\236\336\342"
 439      B647706D 
 439      6A82EB4C 
 439      09B6765F 
 439      FC9EDEE2 
 440 0e4b 7493533E 		.ascii	"t\223S>\320t\037\331\226\330\226/\305\036\177\262 \032"
 440      D0741FD9 
 440      96D8962F 
 440      C51E7FB2 
 440      201A
 441 0e5d 3F44501C 		.ascii	"?DP\034\345\204\364\362\340\270\243\374\311\350(\033"
 441      E584F4F2 
 441      E0B8A3FC 
 441      C9E8281B 
 442 0e6d DC495BA7 		.ascii	"\334I[\247C\207\272\356\354>5\242Z*\257\225\346\312"
 442      4387BAEE 
 442      EC3E35A2 
 442      5A2AAF95 
 442      E6CA
 443 0e7f 3D3DEC50 		.ascii	"==\354Pu\321\253\325\037\373\027\251d\373\341Xm\257"
 443      75D1ABD5 
 443      1FFB17A9 
 443      64FBE158 
 443      6DAF
 444 0e91 3ACB5E3C 		.ascii	":\313^<\273\331q\200z\317\"@e\353Dy/\021\240\226\243"
 444      BBD97180 
 444      7ACF2240 
 444      65EB4479 
 444      2F11A096 
 445 0ea6 86343B6D 		.ascii	"\2064;m\003\023\034\263n\240z\014\230\311jLrg\260\231"
 445      03131CB3 
 445      6EA07A0C 
 445      98C96A4C 
 445      7267B099 
 446 0eba 49B6999B 		.ascii	"I\266\231\233\244C5\011l\335\335dk\337\330\027\2234"
 446      A4433509 
 446      6CDDDD64 
 446      6BDFD817 
 446      9334
 447 0ecc 1A4DB2CD 		.ascii	"\032M\262\315\302$\027\207\364n\222i*\331\254T&1\364"
 447      C2241787 
 447      F46E9269 
 447      2AD9AC54 
 447      2631F4
 448 0edf E2D90F1D 		.ascii	"\342\331\017\035\233d\207\205I2u\242\250\275\240\271"
 448      9B648785 
 448      493275A2 
 448      A8BDA0B9 
 449 0eef C56D3882 		.ascii	"\305m8\20220\3011\373t&1D\323\246\024\321\364/\211h"
ARM GAS  /tmp/ccsnLqbb.s 			page 36


 449      3230C131 
 449      FB742631 
 449      44D3A614 
 449      D1F42F89 
 450 0f04 CAFC70C4 		.ascii	"\312\374p\304\210\234\274\242\340\364\340\257\247\344"
 450      889CBCA2 
 450      E0F4E0AF 
 450      A7E4
 451 0f12 84633951 		.ascii	"\204c9Q1'X\022(.-\020r\002E\261\3311qvD\210\215(b\236"
 451      31275812 
 451      282E2D10 
 451      720245B1 
 451      D9317176 
 452 0f2c 280B46C5 		.ascii	"(\013F\305R\276\330/\006CB4\346/\016\306D\277\350y\341"
 452      52BED82F 
 452      06434234 
 452      E62F0EC6 
 452      44BFE879 
 453 0f41 57BFF1E5 		.ascii	"W\277\361\3451O\006\212\374&\317\277\237\012:PT\000"
 453      314F068A 
 453      FC26CFBF 
 453      9F0A3A50 
 453      5400
 454 0f53 B00374C3 		.ascii	"\260\003t\303\374\342@#Rz\231\350/\021f\211\344o$*\224"
 454      FCE24023 
 454      527A99E8 
 454      2F116689 
 454      E46F242A 
 455 0f68 79094FF0 		.ascii	"y\011O\360\300/\306rJf`\371YNQ8$\344D\205\230\300G\003"
 455      C02FC672 
 455      4A6660F9 
 455      594E5138 
 455      24E44485 
 456 0f80 4539457C 		.ascii	"E9E|\264`&\037\025r\370hhTNa 0\034\032\303\205\320t"
 456      B460261F 
 456      1572F868 
 456      68544E61 
 456      20301C1A 
 457 0f98 A1A04028 		.ascii	"\241\240@(\210\337(\011"
 457      88DF2809 
 458 0fa0 9708C305 		.ascii	"\227\010\303\005~zp\370\030\377\270\341\243rG\216\371"
 458      7E7A70F8 
 458      18FFB8E1 
 458      A372478E 
 458      F9
 459 0fb1 FDA81CDD 		.ascii	"\375\250\034\335\2038\2731\261 X\"\002\273\031\245\360"
 459      8338BB31 
 459      B1205822 
 459      02BB19A5 
 459      F0
 460 0fc2 77F428BF 		.ascii	"w\364(\277X\301\376\343\250\207\370@Q\260D\310\361\027"
 460      58C1FEE3 
 460      A887F840 
 460      51B044C8 
 460      F117
 461 0fd4 0833F8D2 		.ascii	"\0103\370\322bP\273b\223L\277_\345'\003\324S \024\213"
 461      6250BB62 
ARM GAS  /tmp/ccsnLqbb.s 			page 37


 461      934CBF5F 
 461      E52703D4 
 461      5320148B 
 462 0fe8 3C346694 		.ascii	"<4f\224\226\004\374\2500\322\362\020\305\361\321,\370"
 462      9604FCA8 
 462      30D2F210 
 462      C5F1D12C 
 462      F8
 463 0ff9 53CCC744 		.ascii	"S\314\307D\242;\270"
 463      A23BB8
 464 1000 45CCE305 		.ascii	"E\314\343\005]\023m\012\241\354\250\300\027\314Vl\332"
 464      5D136D0A 
 464      A1ECA8C0 
 464      17CC566C 
 464      DA
 465 1011 0F6E27AE 		.ascii	"\017n'\256\007\210E\344\"\346\377}\251P*P\003\351ne"
 465      078845E4 
 465      22E6FF7D 
 465      A9502A50 
 465      03E96E65 
 466 1025 D02B3FC2 		.ascii	"\320+?\302\321\266'\202&\203?\304bc\223\274 \022\216"
 466      D1B62782 
 466      26833FC4 
 466      626393BC 
 466      20128E
 467 1038 82F526E6 		.ascii	"\202\365&\346O\316\233<+'\020\016E\202\305\34029/\344"
 467      4FCE9B3C 
 467      2B27100E 
 467      4582C5E0 
 467      32392FE4 
 468 104c E58163A8 		.ascii	"\345\201c\250\302\245\213\221h0\354\247(\301pz \\\""
 468      C2A58B91 
 468      6830ECA7 
 468      28C1707A 
 468      205C22
 469 105f 02E88F7A 		.ascii	"\002\350\217zA+\012\204\243\002\014\317\"\267\375\240"
 469      412B0A84 
 469      A3020CCF 
 469      22B7FDA0 
 470 106f 9D8038EB 		.ascii	"\235\2008\353\247v\306\370\313\236\013\021\013G\205"
 470      A776C6F8 
 470      CB9E0B11 
 470      0B4785
 471 107e 4230835F 		.ascii	"B0\203_\344\242c\270\350\317\270\350X.\372\034\027\035"
 471      E4A263B8 
 471      E8CFB8E8 
 471      582EFA1C 
 471      171D
 472 1090 C7457FEE 		.ascii	"\307E\177\356\212\216\314\2052\222+\216\302\237\321"
 472      8A8ECC85 
 472      32922B8E 
 472      C29FD1
 473 109f 69113F60 		.ascii	"i\021?`\247\023Yg\202\237F\374\341\342\002!\352\016"
 473      A7135967 
 473      829F46FC 
 473      E1E20221 
 473      EA0E
ARM GAS  /tmp/ccsnLqbb.s 			page 38


 474 10b1 80031005 		.ascii	"\200\003\020\005\360!PML\344EPZ:1\3238P\0215\030\264"
 474      F021504D 
 474      4CE44550 
 474      5A3A31D3 
 474      38501135 
 475 10c7 A03B3E4B 		.ascii	"\240;>K\027C\341\002\001\257g\024\363\205\261t1*\314"
 475      1743E102 
 475      01AF6714 
 475      F385B174 
 475      312ACC
 476 10da 88A1D4A4 		.ascii	"\210\241\324\244\221\026\212\025\302C\305\3100\\iy\242"
 476      91168A15 
 476      C243C5C8 
 476      305C6979 
 476      A2
 477 10eb 05B3E151 		.ascii	"\005\263\341Q\2060+(\006\000\3003S\014O\377\337\310"
 477      86302B28 
 477      0600C033 
 477      530C4FFF 
 477      DFC8
 478 10fd 20C51630 		.ascii	" \305\0260T\210\012%\001\000N\233)\212\321HzL(\021a"
 478      54880A25 
 478      01004E9B 
 478      298AD148 
 478      7A4C2811 
 479 1112 403631B9 		.ascii	"@61\271\020\342#E \361\260T\323S \312HWl\234\026(\001"
 479      10E22345 
 479      20F1B054 
 479      D35320CA 
 479      48576C9C 
 480 1129 C7488BF9 		.ascii	"\307H\213\371\341/\220\202\207\221\014@\012\225\202"
 480      E12F9082 
 480      87910C40 
 480      0A9582
 481 1138 4552A184 		.ascii	"ER\241\204\304Y\004%DQ\340oxf\011\250\012\307\201\020"
 481      C4590425 
 481      4451E06F 
 481      786609A8 
 481      0AC78110 
 482 114c 21EA2633 		.ascii	"!\352&3E\350\027\311\022\312\010\217|\354w\360D\230"
 482      45E817C9 
 482      12CA088F 
 482      7CEC77F0 
 482      4498
 483 115e 491AAE88 		.ascii	"I\032\256\210\277\264\277\352l\3249\007h\334\017}8\342"
 483      BFB4BFEA 
 483      6CD43907 
 483      68DC0F7D 
 483      38E2
 484 1170 9FC907C5 		.ascii	"\237\311\007\305`Iaf\304\017\002\"!h\012\021\241\004"
 484      60496166 
 484      C40F0222 
 484      21680A11 
 484      A104
 485 1182 E66C213C 		.ascii	"\346l!<\007p\3223\223h\224/F_\202\233\221p\2708=J\031"
 485      0770D233 
 485      9368942F 
ARM GAS  /tmp/ccsnLqbb.s 			page 39


 485      465F829B 
 485      9170B838 
 486 1199 F344D1C5 		.ascii	"\363D\321\305\322\242h\320\250b\320(5\250\027\356\226"
 486      D2A268D0 
 486      A862D028 
 486      35A817EE 
 486      96
 487 11aa 46419B62 		.ascii	"FA\233bZ\224\340\364\247S\006f\333\364\322B\312\220"
 487      5A94E0F4 
 487      A7530666 
 487      DBF4D242 
 487      CA90
 488 11bc F68E37C2 		.ascii	"\366\2167\302\227\004\003\204\025W\301\364\302\314\020"
 488      97040384 
 488      1557C1F4 
 488      C2CC10
 489 11cb 0F16437E 		.ascii	"\017\026C~})\364$\022e\017\024C\376\000_\034\234\036"
 489      7D29F424 
 489      12650F14 
 489      43FE005F 
 489      1C9C1E
 490 11de E5C560B8 		.ascii	"\345\305`\270\004\314\036\025Q\357\236\360\214\0311"
 490      04CC1E15 
 490      51EF9EF0 
 490      8C1931
 491 11ed 41E4C450 		.ascii	"A\344\304PfL\374\035\364(\204\207\030\211\306\216\361"
 491      664CFC1D 
 491      F4288487 
 491      1889C68E 
 491      F1
 492 11fe 8B4A1020 		.ascii	"\213J\020 \315\376\301\202bAQ\017\250eH\022\305X4\000"
 492      CDFEC182 
 492      6241510F 
 492      A8654812 
 492      C5583400 
 493 1212 D4CAC411 		.ascii	"\324\312\304\021\001\346\361@\321\177N\235\024\316\207"
 493      01E6F140 
 493      D17F4E9D 
 493      14CE87
 494 1221 B025BE34 		.ascii	"\260%\2764\002\002\2048\"\327U&F2\374ed\332\004\305"
 494      02028438 
 494      22D75526 
 494      4632FC65 
 494      64DA04C5 
 495 1235 4CDA610A 		.ascii	"L\332a\012<N\203\310\302\317\366\320\310\342\202\276"
 495      3C4E83C8 
 495      C2CFF6D0 
 495      C8E282BE 
 496 1245 D9DAC143 		.ascii	"\331\332\301C\365d\212\370bM\334$31&N\021\303\221\211"
 496      F5648AF8 
 496      624DDC24 
 496      3331264E 
 496      11C39189 
 497 1259 C530AD40 		.ascii	"\3050\255@\000\000\304f6\271\015d\361\"+\241E\221\013"
 497      0000C466 
 497      36B90D64 
 497      F1222BA1 
ARM GAS  /tmp/ccsnLqbb.s 			page 40


 497      45910B
 498 126c 148D4986 		.ascii	"\024\215I\206\2443v\312\324\311\243G\345\374\362\227"
 498      A43376CA 
 498      D4C9A347 
 498      E5FCF297 
 499 127c 9372A6BE 		.ascii	"\223r\246\2764\271l$\020\010\221\351\020\014Q:\312\205"
 499      34B96C24 
 499      100891E9 
 499      100C513A 
 499      CA85
 500 128e 5F74E5E5 		.ascii	"_t\345\345\217\2042\312=er^\276{\322K\317\347sS\362"
 500      8F8432CA 
 500      3D65725E 
 500      BE7BD24B 
 500      CFE77353 
 501 12a3 5DCFBF90 		.ascii	"]\317\277\220\237\226\22779\177$\326\243\334yy\317\347"
 501      9F969737 
 501      397F24D6 
 501      A3DC7979 
 501      CFE7
 502 12b5 BBF27E35 		.ascii	"\273\362~5\325\365\362\224<\327\304\374|W~\036\\\303"
 502      D5F5F294 
 502      3CD7C4FC 
 502      7C577E1E 
 502      5CC3
 503 12c7 807F9B34 		.ascii	"\200\177\23345\3375\211\214\234<1\237\3735\0355\032"
 503      35DF3589 
 503      8C9C3C31 
 503      9FFB351D 
 503      351A
 504 12d9 FA4FCB1F 		.ascii	"\372O\313\037n+\226\340\322EVM\214Btm\213\201\022\374"
 504      6E2B96E0 
 504      D245564D 
 504      8C42746D 
 504      8B8112FC 
 505 12ed 3C913695 		.ascii	"<\2216\225+\224\021\225\015\"\372}A\020\247\240J\246"
 505      2B941195 
 505      0D22FA7D 
 505      4110A7A0 
 505      4AA6
 506 12ff C2F0698F 		.ascii	"\302\360i\217k\220\012\005\332\032i_M\376\342b\262\334"
 506      6B900A05 
 506      DA1A695F 
 506      4DFEE262 
 506      B2DC
 507 1311 0EA22D44 		.ascii	"\016\242-D\010\204K!\242F\277\243e\021n#\207nr\235\341"
 507      08844B21 
 507      A246BFA3 
 507      65116E23 
 507      876E729D 
 508 1326 C705C4EF 		.ascii	"\307\005\304\357\357\2476F\214\0353r\344\223:\231\300"
 508      EFA73646 
 508      8C1D3372 
 508      E4933A99 
 508      C0
 509 1337 827488B6 		.ascii	"\202t\210\266S\356\350\377\007%\0033\261"
 509      53EEE8FF 
ARM GAS  /tmp/ccsnLqbb.s 			page 41


 509      07250333 
 509      B1
 510              		.text
 511              		.section	.gnu.lto_.symtab.bc563bbfe7bc8671,"",%progbits
 512 0000 5F76745F 		.ascii	"_vt_init\000\000\000\000\000\000\000\000\000\000\000"
 512      696E6974 
 512      00000000 
 512      00000000 
 512      000000
 513 0013 00BC0100 		.ascii	"\000\274\001\000\000chVTDoSetI\000\000\000\000\000\000"
 513      00636856 
 513      54446F53 
 513      65744900 
 513      00000000 
 514 0028 00000000 		.ascii	"\000\000\000\000\000\000\300\001\000\000chVTDoReset"
 514      0000C001 
 514      00006368 
 514      5654446F 
 514      52657365 
 515 003d 49000000 		.ascii	"I\000\000\000\000\000\000\000\000\000\000\000\000\317"
 515      00000000 
 515      00000000 
 515      00CF
 516 004b 01000063 		.ascii	"\001\000\000ch\000\000\002\000\000\000\000\000\000\000"
 516      68000002 
 516      00000000 
 516      000000
 517 005a 0000DD01 		.ascii	"\000\000\335\001\000\000stStopAlarm\000\000\002\000"
 517      00007374 
 517      53746F70 
 517      416C6172 
 517      6D000002 
 518 006f 00000000 		.ascii	"\000\000\000\000\000\000\000\000\325\001\000\000stS"
 518      00000000 
 518      D5010000 
 518      737453
 519 007e 6574416C 		.ascii	"etAlarm\000\000\002\000\000\000\000\000\000\000\000"
 519      61726D00 
 519      00020000 
 519      00000000 
 519      0000
 520 0090 00D70100 		.ascii	"\000\327\001\000\000stStartAlarm\000\000\002\000\000"
 520      00737453 
 520      74617274 
 520      416C6172 
 520      6D000002 
 521 00a6 00000000 		.ascii	"\000\000\000\000\000\000\000\333\001\000\000"
 521      000000DB 
 521      010000
 522              		.text
 523              		.section	.gnu.lto_.opts,"",%progbits
 524 0000 272D6D63 		.ascii	"'-mcpu=cortex-m4' '-mno-thumb-interwork' '-mthumb' "
 524      70753D63 
 524      6F727465 
 524      782D6D34 
 524      2720272D 
 525 0033 272D6767 		.ascii	"'-ggdb' '-O2' '-fomit-frame-pointer' '-falign-funct"
ARM GAS  /tmp/ccsnLqbb.s 			page 42


 525      64622720 
 525      272D4F32 
 525      2720272D 
 525      666F6D69 
 526 0066 696F6E73 		.ascii	"ions=16' '-ffunction-sections' '-fdata-sections' '-"
 526      3D313627 
 526      20272D66 
 526      66756E63 
 526      74696F6E 
 527 0099 666E6F2D 		.ascii	"fno-common' '-flto'\000"
 527      636F6D6D 
 527      6F6E2720 
 527      272D666C 
 527      746F2700 
 528              		.text
 529              		.cfi_sections	.debug_frame
 530              		.section	.text._vt_init,"ax",%progbits
 531              		.align	2
 532              		.p2align 4,,15
 533              		.global	_vt_init
 534              		.thumb
 535              		.thumb_func
 536              		.type	_vt_init, %function
 537              	_vt_init:
 538              	.LFB241:
 539              		.file 1 "../ChibiOS/os/rt/src/chvt.c"
 540              		.loc 1 61 0
 541              		.cfi_startproc
 542              		@ args = 0, pretend = 0, frame = 0
 543              		@ frame_needed = 0, uses_anonymous_args = 0
 544              		@ link register save eliminated.
 545              		.loc 1 63 0
 546 0000 054B     		ldr	r3, .L2
 547              		.loc 1 65 0
 548 0002 4FF0FF30 		mov	r0, #-1
 549              		.loc 1 63 0
 550 0006 03F11C02 		add	r2, r3, #28
 551              		.loc 1 69 0
 552 000a 0021     		movs	r1, #0
 553              		.loc 1 65 0
 554 000c 5862     		str	r0, [r3, #36]
 555              		.loc 1 69 0
 556 000e 9962     		str	r1, [r3, #40]
 557              		.loc 1 63 0
 558 0010 DA61     		str	r2, [r3, #28]
 559              		.loc 1 64 0
 560 0012 1A62     		str	r2, [r3, #32]
 561 0014 7047     		bx	lr
 562              	.L3:
 563 0016 00BF     		.align	2
 564              	.L2:
 565 0018 00000000 		.word	ch
 566              		.cfi_endproc
 567              	.LFE241:
 568              		.size	_vt_init, .-_vt_init
 569 001c AFF30080 		.section	.text.chVTDoSetI,"ax",%progbits
 570              		.align	2
ARM GAS  /tmp/ccsnLqbb.s 			page 43


 571              		.p2align 4,,15
 572              		.global	chVTDoSetI
 573              		.thumb
 574              		.thumb_func
 575              		.type	chVTDoSetI, %function
 576              	chVTDoSetI:
 577              	.LFB242:
 578              		.loc 1 96 0
 579              		.cfi_startproc
 580              		@ args = 0, pretend = 0, frame = 0
 581              		@ frame_needed = 0, uses_anonymous_args = 0
 582              	.LVL0:
 583 0000 F8B5     		push	{r3, r4, r5, r6, r7, lr}
 584              		.cfi_def_cfa_offset 24
 585              		.cfi_offset 3, -24
 586              		.cfi_offset 4, -20
 587              		.cfi_offset 5, -16
 588              		.cfi_offset 6, -12
 589              		.cfi_offset 7, -8
 590              		.cfi_offset 14, -4
 591              	.LBB35:
 592              		.loc 1 117 0
 593 0002 1C4E     		ldr	r6, .L14
 594 0004 3446     		mov	r4, r6
 595              		.loc 1 113 0
 596 0006 0129     		cmp	r1, #1
 597 0008 98BF     		it	ls
 598 000a 0221     		movls	r1, #2
 599              	.LVL1:
 600              		.loc 1 117 0
 601 000c 54F81C7F 		ldr	r7, [r4, #28]!
 602              	.LBE35:
 603              		.loc 1 103 0
 604 0010 0361     		str	r3, [r0, #16]
 605              	.LBB50:
 606              	.LBB36:
 607              	.LBB37:
 608              	.LBB38:
 609              	.LBB39:
 610              		.file 2 "../ChibiOS/os/hal/ports/STM32/LLD/TIMv1/st_lld.h"
 611              		.loc 2 141 0
 612 0012 4FF08043 		mov	r3, #1073741824
 613              	.LVL2:
 614              	.LBE39:
 615              	.LBE38:
 616              	.LBE37:
 617              	.LBE36:
 618              		.loc 1 117 0
 619 0016 A742     		cmp	r7, r4
 620              	.LBE50:
 621              		.loc 1 96 0
 622 0018 0546     		mov	r5, r0
 623              		.loc 1 104 0
 624 001a C260     		str	r2, [r0, #12]
 625              	.LBB51:
 626              	.LBB43:
 627              	.LBB42:
ARM GAS  /tmp/ccsnLqbb.s 			page 44


 628              	.LBB41:
 629              	.LBB40:
 630              		.loc 2 141 0
 631 001c 586A     		ldr	r0, [r3, #36]
 632              	.LVL3:
 633              	.LBE40:
 634              	.LBE41:
 635              	.LBE42:
 636              	.LBE43:
 637              		.loc 1 117 0
 638 001e 1ED0     		beq	.L12
 639              		.loc 1 136 0
 640 0020 B46A     		ldr	r4, [r6, #40]
 641              		.loc 1 137 0
 642 0022 BB68     		ldr	r3, [r7, #8]
 643              		.loc 1 136 0
 644 0024 0844     		add	r0, r0, r1
 645 0026 041B     		subs	r4, r0, r4
 646              	.LVL4:
 647              		.loc 1 137 0
 648 0028 9C42     		cmp	r4, r3
 649 002a 15D3     		bcc	.L13
 650              	.LVL5:
 651              	.L7:
 652              	.LBE51:
 653              		.loc 1 150 0
 654 002c F369     		ldr	r3, [r6, #28]
 655              	.LVL6:
 656              		.loc 1 151 0
 657 002e 9A68     		ldr	r2, [r3, #8]
 658 0030 9442     		cmp	r4, r2
 659 0032 04D9     		bls	.L8
 660              	.L9:
 661              		.loc 1 153 0
 662 0034 1B68     		ldr	r3, [r3]
 663              	.LVL7:
 664              		.loc 1 152 0
 665 0036 A41A     		subs	r4, r4, r2
 666              	.LVL8:
 667              		.loc 1 151 0
 668 0038 9A68     		ldr	r2, [r3, #8]
 669 003a A242     		cmp	r2, r4
 670 003c FAD3     		bcc	.L9
 671              	.L8:
 672              		.loc 1 158 0
 673 003e 5A68     		ldr	r2, [r3, #4]
 674 0040 6A60     		str	r2, [r5, #4]
 675              		.loc 1 157 0
 676 0042 2B60     		str	r3, [r5]
 677              		.loc 1 159 0
 678 0044 1560     		str	r5, [r2]
 679              		.loc 1 160 0
 680 0046 5D60     		str	r5, [r3, #4]
 681              		.loc 1 161 0
 682 0048 AC60     		str	r4, [r5, #8]
 683              		.loc 1 165 0
 684 004a 9A68     		ldr	r2, [r3, #8]
ARM GAS  /tmp/ccsnLqbb.s 			page 45


 685              		.loc 1 166 0
 686 004c 4FF0FF31 		mov	r1, #-1
 687              		.loc 1 165 0
 688 0050 141B     		subs	r4, r2, r4
 689              	.LVL9:
 690 0052 9C60     		str	r4, [r3, #8]
 691              	.LVL10:
 692              		.loc 1 166 0
 693 0054 7162     		str	r1, [r6, #36]
 694 0056 F8BD     		pop	{r3, r4, r5, r6, r7, pc}
 695              	.LVL11:
 696              	.L13:
 697              	.LBB52:
 698              	.LBB44:
 699              	.LBB45:
 700              		.file 3 "../ChibiOS/os/rt/ports/ARMCMx/chcore_timer.h"
 701              		.loc 3 95 0
 702 0058 FFF7FEFF 		bl	stSetAlarm
 703              	.LVL12:
 704 005c E6E7     		b	.L7
 705              	.LVL13:
 706              	.L12:
 707              	.LBE45:
 708              	.LBE44:
 709              		.loc 1 121 0
 710 005e B062     		str	r0, [r6, #40]
 711              		.loc 1 122 0
 712 0060 F561     		str	r5, [r6, #28]
 713              		.loc 1 123 0
 714 0062 3562     		str	r5, [r6, #32]
 715              	.LBB46:
 716              	.LBB47:
 717              		.loc 3 73 0
 718 0064 0844     		add	r0, r0, r1
 719              	.LBE47:
 720              	.LBE46:
 721              		.loc 1 124 0
 722 0066 2F60     		str	r7, [r5]
 723              		.loc 1 125 0
 724 0068 6F60     		str	r7, [r5, #4]
 725              		.loc 1 126 0
 726 006a A960     		str	r1, [r5, #8]
 727              	.LVL14:
 728              	.LBE52:
 729              		.loc 1 167 0
 730 006c BDE8F840 		pop	{r3, r4, r5, r6, r7, lr}
 731              	.LVL15:
 732              	.LBB53:
 733              	.LBB49:
 734              	.LBB48:
 735              		.loc 3 73 0
 736 0070 FFF7FEBF 		b	stStartAlarm
 737              	.LVL16:
 738              	.L15:
 739              		.align	2
 740              	.L14:
 741 0074 00000000 		.word	ch
ARM GAS  /tmp/ccsnLqbb.s 			page 46


 742              	.LBE48:
 743              	.LBE49:
 744              	.LBE53:
 745              		.cfi_endproc
 746              	.LFE242:
 747              		.size	chVTDoSetI, .-chVTDoSetI
 748 0078 AFF30080 		.section	.text.chVTDoResetI,"ax",%progbits
 748      AFF30080 
 749              		.align	2
 750              		.p2align 4,,15
 751              		.global	chVTDoResetI
 752              		.thumb
 753              		.thumb_func
 754              		.type	chVTDoResetI, %function
 755              	chVTDoResetI:
 756              	.LFB243:
 757              		.loc 1 177 0
 758              		.cfi_startproc
 759              		@ args = 0, pretend = 0, frame = 0
 760              		@ frame_needed = 0, uses_anonymous_args = 0
 761              		@ link register save eliminated.
 762              	.LVL17:
 763              		.loc 1 201 0
 764 0000 1B4A     		ldr	r2, .L25
 765 0002 D369     		ldr	r3, [r2, #28]
 766 0004 8342     		cmp	r3, r0
 767              		.loc 1 177 0
 768 0006 10B4     		push	{r4}
 769              		.cfi_def_cfa_offset 4
 770              		.cfi_offset 4, -4
 771              		.loc 1 201 0
 772 0008 10D0     		beq	.L17
 773              		.loc 1 203 0
 774 000a 4168     		ldr	r1, [r0, #4]
 775 000c 0368     		ldr	r3, [r0]
 776 000e 0B60     		str	r3, [r1]
 777              		.loc 1 204 0
 778 0010 0368     		ldr	r3, [r0]
 779              		.loc 1 208 0
 780 0012 1C32     		adds	r2, r2, #28
 781              		.loc 1 205 0
 782 0014 0024     		movs	r4, #0
 783              		.loc 1 208 0
 784 0016 9342     		cmp	r3, r2
 785              		.loc 1 204 0
 786 0018 5960     		str	r1, [r3, #4]
 787              		.loc 1 205 0
 788 001a C460     		str	r4, [r0, #12]
 789              		.loc 1 208 0
 790 001c 03D0     		beq	.L16
 791              		.loc 1 209 0
 792 001e 8168     		ldr	r1, [r0, #8]
 793 0020 9A68     		ldr	r2, [r3, #8]
 794 0022 0A44     		add	r2, r2, r1
 795 0024 9A60     		str	r2, [r3, #8]
 796              	.LVL18:
 797              	.L16:
ARM GAS  /tmp/ccsnLqbb.s 			page 47


 798              		.loc 1 255 0
 799 0026 5DF8044B 		ldr	r4, [sp], #4
 800 002a 7047     		bx	lr
 801              	.LVL19:
 802              	.L17:
 803              	.LBB64:
 804              	.LBB65:
 805              		.loc 1 215 0
 806 002c 1046     		mov	r0, r2
 807              	.LVL20:
 808 002e 1968     		ldr	r1, [r3]
 809 0030 40F81C1F 		str	r1, [r0, #28]!
 810              		.loc 1 217 0
 811 0034 0024     		movs	r4, #0
 812              		.loc 1 220 0
 813 0036 8142     		cmp	r1, r0
 814              		.loc 1 216 0
 815 0038 4860     		str	r0, [r1, #4]
 816              		.loc 1 217 0
 817 003a DC60     		str	r4, [r3, #12]
 818              		.loc 1 220 0
 819 003c 13D0     		beq	.L24
 820              		.loc 1 227 0
 821 003e 8868     		ldr	r0, [r1, #8]
 822 0040 9B68     		ldr	r3, [r3, #8]
 823              	.LVL21:
 824              		.loc 1 236 0
 825 0042 926A     		ldr	r2, [r2, #40]
 826              		.loc 1 227 0
 827 0044 0344     		add	r3, r3, r0
 828              	.LBB66:
 829              	.LBB67:
 830              	.LBB68:
 831              	.LBB69:
 832              		.loc 2 141 0
 833 0046 4FF08040 		mov	r0, #1073741824
 834              	.LBE69:
 835              	.LBE68:
 836              	.LBE67:
 837              	.LBE66:
 838              		.loc 1 227 0
 839 004a 8B60     		str	r3, [r1, #8]
 840              	.LBB73:
 841              	.LBB72:
 842              	.LBB71:
 843              	.LBB70:
 844              		.loc 2 141 0
 845 004c 406A     		ldr	r0, [r0, #36]
 846              	.LBE70:
 847              	.LBE71:
 848              	.LBE72:
 849              	.LBE73:
 850              		.loc 1 236 0
 851 004e 821A     		subs	r2, r0, r2
 852              	.LVL22:
 853              		.loc 1 240 0
 854 0050 9342     		cmp	r3, r2
ARM GAS  /tmp/ccsnLqbb.s 			page 48


 855 0052 E8D9     		bls	.L16
 856              		.loc 1 245 0
 857 0054 9B1A     		subs	r3, r3, r2
 858              	.LVL23:
 859              		.loc 1 249 0
 860 0056 012B     		cmp	r3, #1
 861              		.loc 1 250 0
 862 0058 98BF     		it	ls
 863 005a 0223     		movls	r3, #2
 864              	.LVL24:
 865              	.LBB74:
 866              	.LBB75:
 867              		.loc 3 95 0
 868 005c 1844     		add	r0, r0, r3
 869              	.LVL25:
 870              	.LBE75:
 871              	.LBE74:
 872              	.LBE65:
 873              	.LBE64:
 874              		.loc 1 255 0
 875 005e 5DF8044B 		ldr	r4, [sp], #4
 876              	.LBB82:
 877              	.LBB80:
 878              	.LBB77:
 879              	.LBB76:
 880              		.loc 3 95 0
 881 0062 FFF7FEBF 		b	stSetAlarm
 882              	.LVL26:
 883              	.L24:
 884              	.LBE76:
 885              	.LBE77:
 886              	.LBE80:
 887              	.LBE82:
 888              		.loc 1 255 0
 889 0066 5DF8044B 		ldr	r4, [sp], #4
 890              	.LBB83:
 891              	.LBB81:
 892              	.LBB78:
 893              	.LBB79:
 894              		.loc 3 83 0
 895 006a FFF7FEBF 		b	stStopAlarm
 896              	.LVL27:
 897              	.L26:
 898 006e 00BF     		.align	2
 899              	.L25:
 900 0070 00000000 		.word	ch
 901              	.LBE79:
 902              	.LBE78:
 903              	.LBE81:
 904              	.LBE83:
 905              		.cfi_endproc
 906              	.LFE243:
 907              		.size	chVTDoResetI, .-chVTDoResetI
 908 0074 AFF30080 		.text
 908      AFF30080 
 908      AFF30080 
 909              	.Letext0:
ARM GAS  /tmp/ccsnLqbb.s 			page 49


 910              		.file 4 "/nfs/nfs5/home/research/hardware/arm2/gcc-arm-embedded/gcc-arm-none-eabi-4_8-2014q2/arm-n
 911              		.file 5 "/nfs/nfs5/home/research/hardware/arm2/gcc-arm-embedded/gcc-arm-none-eabi-4_8-2014q2/arm-n
 912              		.file 6 "../ChibiOS/os/rt/ports/ARMCMx/compilers/GCC/chtypes.h"
 913              		.file 7 "../ChibiOS/os/rt/include/chsystypes.h"
 914              		.file 8 "../ChibiOS/os/rt/include/chschd.h"
 915              		.file 9 "../ChibiOS/os/rt/ports/ARMCMx/chcore.h"
 916              		.file 10 "../ChibiOS/os/rt/ports/ARMCMx/chcore_v7m.h"
 917              		.file 11 "../ChibiOS/os/hal/ports/STM32/LLD/TIMv1/stm32_tim.h"
 918              		.file 12 "../ChibiOS/os/rt/include/chtm.h"
 919              		.file 13 "../ChibiOS/os/rt/include/chsem.h"
 920              		.file 14 "../ChibiOS/os/rt/include/chmtx.h"
 921              		.file 15 "../ChibiOS/os/rt/include/chvt.h"
 922              		.file 16 "../ChibiOS/os/hal/include/st.h"
 923              		.file 17 "../ChibiOS/os/ext/CMSIS/include/core_cm4.h"
 924              		.section	.debug_info,"",%progbits
 925              	.Ldebug_info0:
 926 0000 3D0A0000 		.4byte	0xa3d
 927 0004 0400     		.2byte	0x4
 928 0006 00000000 		.4byte	.Ldebug_abbrev0
 929 000a 04       		.byte	0x4
 930 000b 01       		.uleb128 0x1
 931 000c 7E050000 		.4byte	.LASF126
 932 0010 01       		.byte	0x1
 933 0011 6B000000 		.4byte	.LASF127
 934 0015 29040000 		.4byte	.LASF128
 935 0019 B0000000 		.4byte	.Ldebug_ranges0+0xb0
 936 001d 00000000 		.4byte	0
 937 0021 00000000 		.4byte	.Ldebug_line0
 938 0025 02       		.uleb128 0x2
 939 0026 04       		.byte	0x4
 940 0027 05       		.byte	0x5
 941 0028 696E7400 		.ascii	"int\000"
 942 002c 03       		.uleb128 0x3
 943 002d 04       		.byte	0x4
 944 002e 07       		.byte	0x7
 945 002f 9C040000 		.4byte	.LASF0
 946 0033 03       		.uleb128 0x3
 947 0034 01       		.byte	0x1
 948 0035 06       		.byte	0x6
 949 0036 1C010000 		.4byte	.LASF1
 950 003a 04       		.uleb128 0x4
 951 003b 3A000000 		.4byte	.LASF5
 952 003f 04       		.byte	0x4
 953 0040 1C       		.byte	0x1c
 954 0041 45000000 		.4byte	0x45
 955 0045 03       		.uleb128 0x3
 956 0046 01       		.byte	0x1
 957 0047 08       		.byte	0x8
 958 0048 57030000 		.4byte	.LASF2
 959 004c 03       		.uleb128 0x3
 960 004d 02       		.byte	0x2
 961 004e 05       		.byte	0x5
 962 004f 75030000 		.4byte	.LASF3
 963 0053 03       		.uleb128 0x3
 964 0054 02       		.byte	0x2
 965 0055 07       		.byte	0x7
 966 0056 A4030000 		.4byte	.LASF4
ARM GAS  /tmp/ccsnLqbb.s 			page 50


 967 005a 04       		.uleb128 0x4
 968 005b 73020000 		.4byte	.LASF6
 969 005f 04       		.byte	0x4
 970 0060 37       		.byte	0x37
 971 0061 65000000 		.4byte	0x65
 972 0065 03       		.uleb128 0x3
 973 0066 04       		.byte	0x4
 974 0067 05       		.byte	0x5
 975 0068 56010000 		.4byte	.LASF7
 976 006c 04       		.uleb128 0x4
 977 006d DC040000 		.4byte	.LASF8
 978 0071 04       		.byte	0x4
 979 0072 38       		.byte	0x38
 980 0073 77000000 		.4byte	0x77
 981 0077 03       		.uleb128 0x3
 982 0078 04       		.byte	0x4
 983 0079 07       		.byte	0x7
 984 007a 74040000 		.4byte	.LASF9
 985 007e 03       		.uleb128 0x3
 986 007f 08       		.byte	0x8
 987 0080 05       		.byte	0x5
 988 0081 6D010000 		.4byte	.LASF10
 989 0085 04       		.uleb128 0x4
 990 0086 0D030000 		.4byte	.LASF11
 991 008a 04       		.byte	0x4
 992 008b 4E       		.byte	0x4e
 993 008c 90000000 		.4byte	0x90
 994 0090 03       		.uleb128 0x3
 995 0091 08       		.byte	0x8
 996 0092 07       		.byte	0x7
 997 0093 87000000 		.4byte	.LASF12
 998 0097 04       		.uleb128 0x4
 999 0098 9C030000 		.4byte	.LASF13
 1000 009c 05       		.byte	0x5
 1001 009d 2A       		.byte	0x2a
 1002 009e 3A000000 		.4byte	0x3a
 1003 00a2 04       		.uleb128 0x4
 1004 00a3 4F030000 		.4byte	.LASF14
 1005 00a7 05       		.byte	0x5
 1006 00a8 41       		.byte	0x41
 1007 00a9 5A000000 		.4byte	0x5a
 1008 00ad 04       		.uleb128 0x4
 1009 00ae F8030000 		.4byte	.LASF15
 1010 00b2 05       		.byte	0x5
 1011 00b3 42       		.byte	0x42
 1012 00b4 6C000000 		.4byte	0x6c
 1013 00b8 04       		.uleb128 0x4
 1014 00b9 25000000 		.4byte	.LASF16
 1015 00bd 05       		.byte	0x5
 1016 00be 4E       		.byte	0x4e
 1017 00bf 85000000 		.4byte	0x85
 1018 00c3 04       		.uleb128 0x4
 1019 00c4 21050000 		.4byte	.LASF17
 1020 00c8 06       		.byte	0x6
 1021 00c9 39       		.byte	0x39
 1022 00ca AD000000 		.4byte	0xad
 1023 00ce 04       		.uleb128 0x4
ARM GAS  /tmp/ccsnLqbb.s 			page 51


 1024 00cf 7B060000 		.4byte	.LASF18
 1025 00d3 06       		.byte	0x6
 1026 00d4 3C       		.byte	0x3c
 1027 00d5 97000000 		.4byte	0x97
 1028 00d9 04       		.uleb128 0x4
 1029 00da 5F010000 		.4byte	.LASF19
 1030 00de 06       		.byte	0x6
 1031 00df 3D       		.byte	0x3d
 1032 00e0 97000000 		.4byte	0x97
 1033 00e4 04       		.uleb128 0x4
 1034 00e5 18030000 		.4byte	.LASF20
 1035 00e9 06       		.byte	0x6
 1036 00ea 3E       		.byte	0x3e
 1037 00eb 97000000 		.4byte	0x97
 1038 00ef 04       		.uleb128 0x4
 1039 00f0 37030000 		.4byte	.LASF21
 1040 00f4 06       		.byte	0x6
 1041 00f5 40       		.byte	0x40
 1042 00f6 AD000000 		.4byte	0xad
 1043 00fa 04       		.uleb128 0x4
 1044 00fb 44000000 		.4byte	.LASF22
 1045 00ff 06       		.byte	0x6
 1046 0100 41       		.byte	0x41
 1047 0101 A2000000 		.4byte	0xa2
 1048 0105 04       		.uleb128 0x4
 1049 0106 2E000000 		.4byte	.LASF23
 1050 010a 06       		.byte	0x6
 1051 010b 43       		.byte	0x43
 1052 010c AD000000 		.4byte	0xad
 1053 0110 04       		.uleb128 0x4
 1054 0111 D1010000 		.4byte	.LASF24
 1055 0115 06       		.byte	0x6
 1056 0116 45       		.byte	0x45
 1057 0117 A2000000 		.4byte	0xa2
 1058 011b 04       		.uleb128 0x4
 1059 011c BE040000 		.4byte	.LASF25
 1060 0120 07       		.byte	0x7
 1061 0121 33       		.byte	0x33
 1062 0122 AD000000 		.4byte	0xad
 1063 0126 04       		.uleb128 0x4
 1064 0127 AE040000 		.4byte	.LASF26
 1065 012b 07       		.byte	0x7
 1066 012c 3F       		.byte	0x3f
 1067 012d 31010000 		.4byte	0x131
 1068 0131 05       		.uleb128 0x5
 1069 0132 21020000 		.4byte	.LASF45
 1070 0136 40       		.byte	0x40
 1071 0137 08       		.byte	0x8
 1072 0138 C2       		.byte	0xc2
 1073 0139 11020000 		.4byte	0x211
 1074 013d 06       		.uleb128 0x6
 1075 013e 95030000 		.4byte	.LASF27
 1076 0142 08       		.byte	0x8
 1077 0143 C3       		.byte	0xc3
 1078 0144 1C020000 		.4byte	0x21c
 1079 0148 00       		.byte	0
 1080 0149 06       		.uleb128 0x6
ARM GAS  /tmp/ccsnLqbb.s 			page 52


 1081 014a 30030000 		.4byte	.LASF28
 1082 014e 08       		.byte	0x8
 1083 014f C5       		.byte	0xc5
 1084 0150 1C020000 		.4byte	0x21c
 1085 0154 04       		.byte	0x4
 1086 0155 06       		.uleb128 0x6
 1087 0156 00010000 		.4byte	.LASF29
 1088 015a 08       		.byte	0x8
 1089 015b C7       		.byte	0xc7
 1090 015c EF000000 		.4byte	0xef
 1091 0160 08       		.byte	0x8
 1092 0161 06       		.uleb128 0x6
 1093 0162 DF020000 		.4byte	.LASF30
 1094 0166 08       		.byte	0x8
 1095 0167 C8       		.byte	0xc8
 1096 0168 71040000 		.4byte	0x471
 1097 016c 0C       		.byte	0xc
 1098 016d 06       		.uleb128 0x6
 1099 016e 7B010000 		.4byte	.LASF31
 1100 0172 08       		.byte	0x8
 1101 0173 CA       		.byte	0xca
 1102 0174 1C020000 		.4byte	0x21c
 1103 0178 10       		.byte	0x10
 1104 0179 06       		.uleb128 0x6
 1105 017a D1020000 		.4byte	.LASF32
 1106 017e 08       		.byte	0x8
 1107 017f CB       		.byte	0xcb
 1108 0180 1C020000 		.4byte	0x21c
 1109 0184 14       		.byte	0x14
 1110 0185 06       		.uleb128 0x6
 1111 0186 65060000 		.4byte	.LASF33
 1112 018a 08       		.byte	0x8
 1113 018b D2       		.byte	0xd2
 1114 018c 1E070000 		.4byte	0x71e
 1115 0190 18       		.byte	0x18
 1116 0191 06       		.uleb128 0x6
 1117 0192 7F030000 		.4byte	.LASF34
 1118 0196 08       		.byte	0x8
 1119 0197 DD       		.byte	0xdd
 1120 0198 D9000000 		.4byte	0xd9
 1121 019c 1C       		.byte	0x1c
 1122 019d 06       		.uleb128 0x6
 1123 019e 83060000 		.4byte	.LASF35
 1124 01a2 08       		.byte	0x8
 1125 01a3 E1       		.byte	0xe1
 1126 01a4 CE000000 		.4byte	0xce
 1127 01a8 1D       		.byte	0x1d
 1128 01a9 06       		.uleb128 0x6
 1129 01aa 50050000 		.4byte	.LASF36
 1130 01ae 08       		.byte	0x8
 1131 01af E6       		.byte	0xe6
 1132 01b0 E4000000 		.4byte	0xe4
 1133 01b4 1E       		.byte	0x1e
 1134 01b5 07       		.uleb128 0x7
 1135 01b6 705F7500 		.ascii	"p_u\000"
 1136 01ba 08       		.byte	0x8
 1137 01bb 3701     		.2byte	0x137
ARM GAS  /tmp/ccsnLqbb.s 			page 53


 1138 01bd 4D060000 		.4byte	0x64d
 1139 01c1 20       		.byte	0x20
 1140 01c2 08       		.uleb128 0x8
 1141 01c3 88020000 		.4byte	.LASF37
 1142 01c7 08       		.byte	0x8
 1143 01c8 3C01     		.2byte	0x13c
 1144 01ca 22020000 		.4byte	0x222
 1145 01ce 24       		.byte	0x24
 1146 01cf 08       		.uleb128 0x8
 1147 01d0 02020000 		.4byte	.LASF38
 1148 01d4 08       		.byte	0x8
 1149 01d5 4201     		.2byte	0x142
 1150 01d7 46020000 		.4byte	0x246
 1151 01db 28       		.byte	0x28
 1152 01dc 08       		.uleb128 0x8
 1153 01dd DA030000 		.4byte	.LASF39
 1154 01e1 08       		.byte	0x8
 1155 01e2 4801     		.2byte	0x148
 1156 01e4 05010000 		.4byte	0x105
 1157 01e8 30       		.byte	0x30
 1158 01e9 08       		.uleb128 0x8
 1159 01ea 6B030000 		.4byte	.LASF40
 1160 01ee 08       		.byte	0x8
 1161 01ef 4F01     		.2byte	0x14f
 1162 01f1 18070000 		.4byte	0x718
 1163 01f5 34       		.byte	0x34
 1164 01f6 08       		.uleb128 0x8
 1165 01f7 C8040000 		.4byte	.LASF41
 1166 01fb 08       		.byte	0x8
 1167 01fc 5301     		.2byte	0x153
 1168 01fe EF000000 		.4byte	0xef
 1169 0202 38       		.byte	0x38
 1170 0203 08       		.uleb128 0x8
 1171 0204 A1010000 		.4byte	.LASF42
 1172 0208 08       		.byte	0x8
 1173 0209 5A01     		.2byte	0x15a
 1174 020b F9020000 		.4byte	0x2f9
 1175 020f 3C       		.byte	0x3c
 1176 0210 00       		.byte	0
 1177 0211 04       		.uleb128 0x4
 1178 0212 9B020000 		.4byte	.LASF43
 1179 0216 07       		.byte	0x7
 1180 0217 44       		.byte	0x44
 1181 0218 1C020000 		.4byte	0x21c
 1182 021c 09       		.uleb128 0x9
 1183 021d 04       		.byte	0x4
 1184 021e 26010000 		.4byte	0x126
 1185 0222 04       		.uleb128 0x4
 1186 0223 6C060000 		.4byte	.LASF44
 1187 0227 07       		.byte	0x7
 1188 0228 49       		.byte	0x49
 1189 0229 2D020000 		.4byte	0x22d
 1190 022d 05       		.uleb128 0x5
 1191 022e 19040000 		.4byte	.LASF46
 1192 0232 04       		.byte	0x4
 1193 0233 08       		.byte	0x8
 1194 0234 B0       		.byte	0xb0
ARM GAS  /tmp/ccsnLqbb.s 			page 54


 1195 0235 46020000 		.4byte	0x246
 1196 0239 06       		.uleb128 0x6
 1197 023a 95030000 		.4byte	.LASF27
 1198 023e 08       		.byte	0x8
 1199 023f B1       		.byte	0xb1
 1200 0240 1C020000 		.4byte	0x21c
 1201 0244 00       		.byte	0
 1202 0245 00       		.byte	0
 1203 0246 04       		.uleb128 0x4
 1204 0247 37050000 		.4byte	.LASF47
 1205 024b 07       		.byte	0x7
 1206 024c 50       		.byte	0x50
 1207 024d 51020000 		.4byte	0x251
 1208 0251 05       		.uleb128 0x5
 1209 0252 EF000000 		.4byte	.LASF48
 1210 0256 08       		.byte	0x8
 1211 0257 08       		.byte	0x8
 1212 0258 B7       		.byte	0xb7
 1213 0259 76020000 		.4byte	0x276
 1214 025d 06       		.uleb128 0x6
 1215 025e 95030000 		.4byte	.LASF27
 1216 0262 08       		.byte	0x8
 1217 0263 B8       		.byte	0xb8
 1218 0264 1C020000 		.4byte	0x21c
 1219 0268 00       		.byte	0
 1220 0269 06       		.uleb128 0x6
 1221 026a 30030000 		.4byte	.LASF28
 1222 026e 08       		.byte	0x8
 1223 026f B9       		.byte	0xb9
 1224 0270 1C020000 		.4byte	0x21c
 1225 0274 04       		.byte	0x4
 1226 0275 00       		.byte	0
 1227 0276 04       		.uleb128 0x4
 1228 0277 00000000 		.4byte	.LASF49
 1229 027b 07       		.byte	0x7
 1230 027c 57       		.byte	0x57
 1231 027d 81020000 		.4byte	0x281
 1232 0281 0A       		.uleb128 0xa
 1233 0282 5A020000 		.4byte	.LASF50
 1234 0286 1C       		.byte	0x1c
 1235 0287 08       		.byte	0x8
 1236 0288 9201     		.2byte	0x192
 1237 028a DD020000 		.4byte	0x2dd
 1238 028e 08       		.uleb128 0x8
 1239 028f 08040000 		.4byte	.LASF51
 1240 0293 08       		.byte	0x8
 1241 0294 9301     		.2byte	0x193
 1242 0296 46020000 		.4byte	0x246
 1243 029a 00       		.byte	0
 1244 029b 08       		.uleb128 0x8
 1245 029c 87030000 		.4byte	.LASF52
 1246 02a0 08       		.byte	0x8
 1247 02a1 9401     		.2byte	0x194
 1248 02a3 EF000000 		.4byte	0xef
 1249 02a7 08       		.byte	0x8
 1250 02a8 08       		.uleb128 0x8
 1251 02a9 D9020000 		.4byte	.LASF53
ARM GAS  /tmp/ccsnLqbb.s 			page 55


 1252 02ad 08       		.byte	0x8
 1253 02ae 9601     		.2byte	0x196
 1254 02b0 71040000 		.4byte	0x471
 1255 02b4 0C       		.byte	0xc
 1256 02b5 08       		.uleb128 0x8
 1257 02b6 99010000 		.4byte	.LASF54
 1258 02ba 08       		.byte	0x8
 1259 02bb 9901     		.2byte	0x199
 1260 02bd 1C020000 		.4byte	0x21c
 1261 02c1 10       		.byte	0x10
 1262 02c2 08       		.uleb128 0x8
 1263 02c3 05030000 		.4byte	.LASF55
 1264 02c7 08       		.byte	0x8
 1265 02c8 9A01     		.2byte	0x19a
 1266 02ca 1C020000 		.4byte	0x21c
 1267 02ce 14       		.byte	0x14
 1268 02cf 08       		.uleb128 0x8
 1269 02d0 FB020000 		.4byte	.LASF56
 1270 02d4 08       		.byte	0x8
 1271 02d5 9D01     		.2byte	0x19d
 1272 02d7 1C020000 		.4byte	0x21c
 1273 02db 18       		.byte	0x18
 1274 02dc 00       		.byte	0
 1275 02dd 04       		.uleb128 0x4
 1276 02de D3040000 		.4byte	.LASF57
 1277 02e2 07       		.byte	0x7
 1278 02e3 5C       		.byte	0x5c
 1279 02e4 E8020000 		.4byte	0x2e8
 1280 02e8 09       		.uleb128 0x9
 1281 02e9 04       		.byte	0x4
 1282 02ea EE020000 		.4byte	0x2ee
 1283 02ee 0B       		.uleb128 0xb
 1284 02ef F9020000 		.4byte	0x2f9
 1285 02f3 0C       		.uleb128 0xc
 1286 02f4 F9020000 		.4byte	0x2f9
 1287 02f8 00       		.byte	0
 1288 02f9 0D       		.uleb128 0xd
 1289 02fa 04       		.byte	0x4
 1290 02fb 04       		.uleb128 0x4
 1291 02fc 20030000 		.4byte	.LASF58
 1292 0300 07       		.byte	0x7
 1293 0301 61       		.byte	0x61
 1294 0302 06030000 		.4byte	0x306
 1295 0306 0A       		.uleb128 0xa
 1296 0307 B7030000 		.4byte	.LASF59
 1297 030b 14       		.byte	0x14
 1298 030c 08       		.byte	0x8
 1299 030d 6D01     		.2byte	0x16d
 1300 030f 55030000 		.4byte	0x355
 1301 0313 08       		.uleb128 0x8
 1302 0314 F3010000 		.4byte	.LASF60
 1303 0318 08       		.byte	0x8
 1304 0319 6E01     		.2byte	0x16e
 1305 031b 30070000 		.4byte	0x730
 1306 031f 00       		.byte	0
 1307 0320 08       		.uleb128 0x8
 1308 0321 B2010000 		.4byte	.LASF61
ARM GAS  /tmp/ccsnLqbb.s 			page 56


 1309 0325 08       		.byte	0x8
 1310 0326 6F01     		.2byte	0x16f
 1311 0328 30070000 		.4byte	0x730
 1312 032c 04       		.byte	0x4
 1313 032d 08       		.uleb128 0x8
 1314 032e 10040000 		.4byte	.LASF62
 1315 0332 08       		.byte	0x8
 1316 0333 7001     		.2byte	0x170
 1317 0335 1B010000 		.4byte	0x11b
 1318 0339 08       		.byte	0x8
 1319 033a 08       		.uleb128 0x8
 1320 033b 93060000 		.4byte	.LASF63
 1321 033f 08       		.byte	0x8
 1322 0340 7101     		.2byte	0x171
 1323 0342 DD020000 		.4byte	0x2dd
 1324 0346 0C       		.byte	0xc
 1325 0347 08       		.uleb128 0x8
 1326 0348 29050000 		.4byte	.LASF64
 1327 034c 08       		.byte	0x8
 1328 034d 7301     		.2byte	0x173
 1329 034f F9020000 		.4byte	0x2f9
 1330 0353 10       		.byte	0x10
 1331 0354 00       		.byte	0
 1332 0355 04       		.uleb128 0x4
 1333 0356 C7000000 		.4byte	.LASF65
 1334 035a 07       		.byte	0x7
 1335 035b 66       		.byte	0x66
 1336 035c 60030000 		.4byte	0x360
 1337 0360 0A       		.uleb128 0xa
 1338 0361 AE020000 		.4byte	.LASF66
 1339 0365 10       		.byte	0x10
 1340 0366 08       		.byte	0x8
 1341 0367 7D01     		.2byte	0x17d
 1342 0369 A2030000 		.4byte	0x3a2
 1343 036d 08       		.uleb128 0x8
 1344 036e F3010000 		.4byte	.LASF60
 1345 0372 08       		.byte	0x8
 1346 0373 7E01     		.2byte	0x17e
 1347 0375 30070000 		.4byte	0x730
 1348 0379 00       		.byte	0
 1349 037a 08       		.uleb128 0x8
 1350 037b B2010000 		.4byte	.LASF61
 1351 037f 08       		.byte	0x8
 1352 0380 8001     		.2byte	0x180
 1353 0382 30070000 		.4byte	0x730
 1354 0386 04       		.byte	0x4
 1355 0387 08       		.uleb128 0x8
 1356 0388 10040000 		.4byte	.LASF62
 1357 038c 08       		.byte	0x8
 1358 038d 8201     		.2byte	0x182
 1359 038f 1B010000 		.4byte	0x11b
 1360 0393 08       		.byte	0x8
 1361 0394 08       		.uleb128 0x8
 1362 0395 C5020000 		.4byte	.LASF67
 1363 0399 08       		.byte	0x8
 1364 039a 8A01     		.2byte	0x18a
 1365 039c 1B010000 		.4byte	0x11b
ARM GAS  /tmp/ccsnLqbb.s 			page 57


 1366 03a0 0C       		.byte	0xc
 1367 03a1 00       		.byte	0
 1368 03a2 04       		.uleb128 0x4
 1369 03a3 56000000 		.4byte	.LASF68
 1370 03a7 07       		.byte	0x7
 1371 03a8 6B       		.byte	0x6b
 1372 03a9 AD030000 		.4byte	0x3ad
 1373 03ad 0A       		.uleb128 0xa
 1374 03ae 3F030000 		.4byte	.LASF69
 1375 03b2 04       		.byte	0x4
 1376 03b3 08       		.byte	0x8
 1377 03b4 A401     		.2byte	0x1a4
 1378 03b6 C8030000 		.4byte	0x3c8
 1379 03ba 08       		.uleb128 0x8
 1380 03bb E7040000 		.4byte	.LASF70
 1381 03bf 08       		.byte	0x8
 1382 03c0 AC01     		.2byte	0x1ac
 1383 03c2 36070000 		.4byte	0x736
 1384 03c6 00       		.byte	0
 1385 03c7 00       		.byte	0
 1386 03c8 04       		.uleb128 0x4
 1387 03c9 42020000 		.4byte	.LASF71
 1388 03cd 07       		.byte	0x7
 1389 03ce 70       		.byte	0x70
 1390 03cf D3030000 		.4byte	0x3d3
 1391 03d3 0E       		.uleb128 0xe
 1392 03d4 4C010000 		.4byte	.LASF72
 1393 03d8 5001     		.2byte	0x150
 1394 03da 08       		.byte	0x8
 1395 03db C401     		.2byte	0x1c4
 1396 03dd 2F040000 		.4byte	0x42f
 1397 03e1 08       		.uleb128 0x8
 1398 03e2 57050000 		.4byte	.LASF73
 1399 03e6 08       		.byte	0x8
 1400 03e7 C801     		.2byte	0x1c8
 1401 03e9 76020000 		.4byte	0x276
 1402 03ed 00       		.byte	0
 1403 03ee 08       		.uleb128 0x8
 1404 03ef 45010000 		.4byte	.LASF74
 1405 03f3 08       		.byte	0x8
 1406 03f4 CC01     		.2byte	0x1cc
 1407 03f6 55030000 		.4byte	0x355
 1408 03fa 1C       		.byte	0x1c
 1409 03fb 07       		.uleb128 0x7
 1410 03fc 64626700 		.ascii	"dbg\000"
 1411 0400 08       		.byte	0x8
 1412 0401 D001     		.2byte	0x1d0
 1413 0403 A2030000 		.4byte	0x3a2
 1414 0407 2C       		.byte	0x2c
 1415 0408 08       		.uleb128 0x8
 1416 0409 B4000000 		.4byte	.LASF75
 1417 040d 08       		.byte	0x8
 1418 040e D401     		.2byte	0x1d4
 1419 0410 26010000 		.4byte	0x126
 1420 0414 30       		.byte	0x30
 1421 0415 07       		.uleb128 0x7
 1422 0416 746D00   		.ascii	"tm\000"
ARM GAS  /tmp/ccsnLqbb.s 			page 58


 1423 0419 08       		.byte	0x8
 1424 041a D901     		.2byte	0x1d9
 1425 041c 42060000 		.4byte	0x642
 1426 0420 70       		.byte	0x70
 1427 0421 08       		.uleb128 0x8
 1428 0422 C2010000 		.4byte	.LASF76
 1429 0426 08       		.byte	0x8
 1430 0427 E501     		.2byte	0x1e5
 1431 0429 3B070000 		.4byte	0x73b
 1432 042d 78       		.byte	0x78
 1433 042e 00       		.byte	0
 1434 042f 03       		.uleb128 0x3
 1435 0430 04       		.byte	0x4
 1436 0431 07       		.byte	0x7
 1437 0432 92020000 		.4byte	.LASF77
 1438 0436 0F       		.uleb128 0xf
 1439 0437 AD000000 		.4byte	0xad
 1440 043b 10       		.uleb128 0x10
 1441 043c AD000000 		.4byte	0xad
 1442 0440 4B040000 		.4byte	0x44b
 1443 0444 11       		.uleb128 0x11
 1444 0445 2F040000 		.4byte	0x42f
 1445 0449 01       		.byte	0x1
 1446 044a 00       		.byte	0
 1447 044b 10       		.uleb128 0x10
 1448 044c AD000000 		.4byte	0xad
 1449 0450 5B040000 		.4byte	0x45b
 1450 0454 11       		.uleb128 0x11
 1451 0455 2F040000 		.4byte	0x42f
 1452 0459 03       		.byte	0x3
 1453 045a 00       		.byte	0
 1454 045b 04       		.uleb128 0x4
 1455 045c A9010000 		.4byte	.LASF78
 1456 0460 09       		.byte	0x9
 1457 0461 65       		.byte	0x65
 1458 0462 F9020000 		.4byte	0x2f9
 1459 0466 04       		.uleb128 0x4
 1460 0467 7D020000 		.4byte	.LASF79
 1461 046b 09       		.byte	0x9
 1462 046c 6D       		.byte	0x6d
 1463 046d B8000000 		.4byte	0xb8
 1464 0471 05       		.uleb128 0x5
 1465 0472 05050000 		.4byte	.LASF80
 1466 0476 04       		.byte	0x4
 1467 0477 09       		.byte	0x9
 1468 0478 89       		.byte	0x89
 1469 0479 8A040000 		.4byte	0x48a
 1470 047d 12       		.uleb128 0x12
 1471 047e 72313300 		.ascii	"r13\000"
 1472 0482 09       		.byte	0x9
 1473 0483 8A       		.byte	0x8a
 1474 0484 05050000 		.4byte	0x505
 1475 0488 00       		.byte	0
 1476 0489 00       		.byte	0
 1477 048a 05       		.uleb128 0x5
 1478 048b 4A000000 		.4byte	.LASF81
 1479 048f 24       		.byte	0x24
ARM GAS  /tmp/ccsnLqbb.s 			page 59


 1480 0490 0A       		.byte	0xa
 1481 0491 FD       		.byte	0xfd
 1482 0492 05050000 		.4byte	0x505
 1483 0496 07       		.uleb128 0x7
 1484 0497 723400   		.ascii	"r4\000"
 1485 049a 0A       		.byte	0xa
 1486 049b 1001     		.2byte	0x110
 1487 049d 5B040000 		.4byte	0x45b
 1488 04a1 00       		.byte	0
 1489 04a2 07       		.uleb128 0x7
 1490 04a3 723500   		.ascii	"r5\000"
 1491 04a6 0A       		.byte	0xa
 1492 04a7 1101     		.2byte	0x111
 1493 04a9 5B040000 		.4byte	0x45b
 1494 04ad 04       		.byte	0x4
 1495 04ae 07       		.uleb128 0x7
 1496 04af 723600   		.ascii	"r6\000"
 1497 04b2 0A       		.byte	0xa
 1498 04b3 1201     		.2byte	0x112
 1499 04b5 5B040000 		.4byte	0x45b
 1500 04b9 08       		.byte	0x8
 1501 04ba 07       		.uleb128 0x7
 1502 04bb 723700   		.ascii	"r7\000"
 1503 04be 0A       		.byte	0xa
 1504 04bf 1301     		.2byte	0x113
 1505 04c1 5B040000 		.4byte	0x45b
 1506 04c5 0C       		.byte	0xc
 1507 04c6 07       		.uleb128 0x7
 1508 04c7 723800   		.ascii	"r8\000"
 1509 04ca 0A       		.byte	0xa
 1510 04cb 1401     		.2byte	0x114
 1511 04cd 5B040000 		.4byte	0x45b
 1512 04d1 10       		.byte	0x10
 1513 04d2 07       		.uleb128 0x7
 1514 04d3 723900   		.ascii	"r9\000"
 1515 04d6 0A       		.byte	0xa
 1516 04d7 1501     		.2byte	0x115
 1517 04d9 5B040000 		.4byte	0x45b
 1518 04dd 14       		.byte	0x14
 1519 04de 07       		.uleb128 0x7
 1520 04df 72313000 		.ascii	"r10\000"
 1521 04e3 0A       		.byte	0xa
 1522 04e4 1601     		.2byte	0x116
 1523 04e6 5B040000 		.4byte	0x45b
 1524 04ea 18       		.byte	0x18
 1525 04eb 07       		.uleb128 0x7
 1526 04ec 72313100 		.ascii	"r11\000"
 1527 04f0 0A       		.byte	0xa
 1528 04f1 1701     		.2byte	0x117
 1529 04f3 5B040000 		.4byte	0x45b
 1530 04f7 1C       		.byte	0x1c
 1531 04f8 07       		.uleb128 0x7
 1532 04f9 6C7200   		.ascii	"lr\000"
 1533 04fc 0A       		.byte	0xa
 1534 04fd 1801     		.2byte	0x118
 1535 04ff 5B040000 		.4byte	0x45b
 1536 0503 20       		.byte	0x20
ARM GAS  /tmp/ccsnLqbb.s 			page 60


 1537 0504 00       		.byte	0
 1538 0505 09       		.uleb128 0x9
 1539 0506 04       		.byte	0x4
 1540 0507 8A040000 		.4byte	0x48a
 1541 050b 13       		.uleb128 0x13
 1542 050c 60       		.byte	0x60
 1543 050d 0B       		.byte	0xb
 1544 050e A101     		.2byte	0x1a1
 1545 0510 17060000 		.4byte	0x617
 1546 0514 07       		.uleb128 0x7
 1547 0515 43523100 		.ascii	"CR1\000"
 1548 0519 0B       		.byte	0xb
 1549 051a A201     		.2byte	0x1a2
 1550 051c 36040000 		.4byte	0x436
 1551 0520 00       		.byte	0
 1552 0521 07       		.uleb128 0x7
 1553 0522 43523200 		.ascii	"CR2\000"
 1554 0526 0B       		.byte	0xb
 1555 0527 A301     		.2byte	0x1a3
 1556 0529 36040000 		.4byte	0x436
 1557 052d 04       		.byte	0x4
 1558 052e 08       		.uleb128 0x8
 1559 052f 97040000 		.4byte	.LASF82
 1560 0533 0B       		.byte	0xb
 1561 0534 A401     		.2byte	0x1a4
 1562 0536 36040000 		.4byte	0x436
 1563 053a 08       		.byte	0x8
 1564 053b 08       		.uleb128 0x8
 1565 053c 0D000000 		.4byte	.LASF83
 1566 0540 0B       		.byte	0xb
 1567 0541 A501     		.2byte	0x1a5
 1568 0543 36040000 		.4byte	0x436
 1569 0547 0C       		.byte	0xc
 1570 0548 07       		.uleb128 0x7
 1571 0549 535200   		.ascii	"SR\000"
 1572 054c 0B       		.byte	0xb
 1573 054d A601     		.2byte	0x1a6
 1574 054f 36040000 		.4byte	0x436
 1575 0553 10       		.byte	0x10
 1576 0554 07       		.uleb128 0x7
 1577 0555 45475200 		.ascii	"EGR\000"
 1578 0559 0B       		.byte	0xb
 1579 055a A701     		.2byte	0x1a7
 1580 055c 36040000 		.4byte	0x436
 1581 0560 14       		.byte	0x14
 1582 0561 08       		.uleb128 0x8
 1583 0562 07010000 		.4byte	.LASF84
 1584 0566 0B       		.byte	0xb
 1585 0567 A801     		.2byte	0x1a8
 1586 0569 36040000 		.4byte	0x436
 1587 056d 18       		.byte	0x18
 1588 056e 08       		.uleb128 0x8
 1589 056f 65000000 		.4byte	.LASF85
 1590 0573 0B       		.byte	0xb
 1591 0574 A901     		.2byte	0x1a9
 1592 0576 36040000 		.4byte	0x436
 1593 057a 1C       		.byte	0x1c
ARM GAS  /tmp/ccsnLqbb.s 			page 61


 1594 057b 08       		.uleb128 0x8
 1595 057c 68010000 		.4byte	.LASF86
 1596 0580 0B       		.byte	0xb
 1597 0581 AA01     		.2byte	0x1aa
 1598 0583 36040000 		.4byte	0x436
 1599 0587 20       		.byte	0x20
 1600 0588 07       		.uleb128 0x7
 1601 0589 434E5400 		.ascii	"CNT\000"
 1602 058d 0B       		.byte	0xb
 1603 058e AB01     		.2byte	0x1ab
 1604 0590 36040000 		.4byte	0x436
 1605 0594 24       		.byte	0x24
 1606 0595 07       		.uleb128 0x7
 1607 0596 50534300 		.ascii	"PSC\000"
 1608 059a 0B       		.byte	0xb
 1609 059b AC01     		.2byte	0x1ac
 1610 059d 36040000 		.4byte	0x436
 1611 05a1 28       		.byte	0x28
 1612 05a2 07       		.uleb128 0x7
 1613 05a3 41525200 		.ascii	"ARR\000"
 1614 05a7 0B       		.byte	0xb
 1615 05a8 AD01     		.2byte	0x1ad
 1616 05aa 36040000 		.4byte	0x436
 1617 05ae 2C       		.byte	0x2c
 1618 05af 07       		.uleb128 0x7
 1619 05b0 52435200 		.ascii	"RCR\000"
 1620 05b4 0B       		.byte	0xb
 1621 05b5 AE01     		.2byte	0x1ae
 1622 05b7 36040000 		.4byte	0x436
 1623 05bb 30       		.byte	0x30
 1624 05bc 07       		.uleb128 0x7
 1625 05bd 43435200 		.ascii	"CCR\000"
 1626 05c1 0B       		.byte	0xb
 1627 05c2 AF01     		.2byte	0x1af
 1628 05c4 17060000 		.4byte	0x617
 1629 05c8 34       		.byte	0x34
 1630 05c9 08       		.uleb128 0x8
 1631 05ca EA000000 		.4byte	.LASF87
 1632 05ce 0B       		.byte	0xb
 1633 05cf B001     		.2byte	0x1b0
 1634 05d1 36040000 		.4byte	0x436
 1635 05d5 44       		.byte	0x44
 1636 05d6 07       		.uleb128 0x7
 1637 05d7 44435200 		.ascii	"DCR\000"
 1638 05db 0B       		.byte	0xb
 1639 05dc B101     		.2byte	0x1b1
 1640 05de 36040000 		.4byte	0x436
 1641 05e2 48       		.byte	0x48
 1642 05e3 08       		.uleb128 0x8
 1643 05e4 A9040000 		.4byte	.LASF88
 1644 05e8 0B       		.byte	0xb
 1645 05e9 B201     		.2byte	0x1b2
 1646 05eb 36040000 		.4byte	0x436
 1647 05ef 4C       		.byte	0x4c
 1648 05f0 07       		.uleb128 0x7
 1649 05f1 4F5200   		.ascii	"OR\000"
 1650 05f4 0B       		.byte	0xb
ARM GAS  /tmp/ccsnLqbb.s 			page 62


 1651 05f5 B301     		.2byte	0x1b3
 1652 05f7 36040000 		.4byte	0x436
 1653 05fb 50       		.byte	0x50
 1654 05fc 08       		.uleb128 0x8
 1655 05fd 16010000 		.4byte	.LASF89
 1656 0601 0B       		.byte	0xb
 1657 0602 B401     		.2byte	0x1b4
 1658 0604 36040000 		.4byte	0x436
 1659 0608 54       		.byte	0x54
 1660 0609 08       		.uleb128 0x8
 1661 060a D5030000 		.4byte	.LASF90
 1662 060e 0B       		.byte	0xb
 1663 060f B501     		.2byte	0x1b5
 1664 0611 1C060000 		.4byte	0x61c
 1665 0615 58       		.byte	0x58
 1666 0616 00       		.byte	0
 1667 0617 0F       		.uleb128 0xf
 1668 0618 4B040000 		.4byte	0x44b
 1669 061c 0F       		.uleb128 0xf
 1670 061d 3B040000 		.4byte	0x43b
 1671 0621 14       		.uleb128 0x14
 1672 0622 4E020000 		.4byte	.LASF91
 1673 0626 0B       		.byte	0xb
 1674 0627 B601     		.2byte	0x1b6
 1675 0629 0B050000 		.4byte	0x50b
 1676 062d 15       		.uleb128 0x15
 1677 062e 04       		.byte	0x4
 1678 062f 0C       		.byte	0xc
 1679 0630 38       		.byte	0x38
 1680 0631 42060000 		.4byte	0x642
 1681 0635 06       		.uleb128 0x6
 1682 0636 F1040000 		.4byte	.LASF92
 1683 063a 0C       		.byte	0xc
 1684 063b 3C       		.byte	0x3c
 1685 063c C3000000 		.4byte	0xc3
 1686 0640 00       		.byte	0
 1687 0641 00       		.byte	0
 1688 0642 04       		.uleb128 0x4
 1689 0643 E5020000 		.4byte	.LASF93
 1690 0647 0C       		.byte	0xc
 1691 0648 3D       		.byte	0x3d
 1692 0649 2D060000 		.4byte	0x62d
 1693 064d 16       		.uleb128 0x16
 1694 064e 04       		.byte	0x4
 1695 064f 08       		.byte	0x8
 1696 0650 FA       		.byte	0xfa
 1697 0651 B6060000 		.4byte	0x6b6
 1698 0655 17       		.uleb128 0x17
 1699 0656 1E000000 		.4byte	.LASF94
 1700 065a 08       		.byte	0x8
 1701 065b 0101     		.2byte	0x101
 1702 065d FA000000 		.4byte	0xfa
 1703 0661 17       		.uleb128 0x17
 1704 0662 AB000000 		.4byte	.LASF95
 1705 0666 08       		.byte	0x8
 1706 0667 0801     		.2byte	0x108
 1707 0669 FA000000 		.4byte	0xfa
ARM GAS  /tmp/ccsnLqbb.s 			page 63


 1708 066d 17       		.uleb128 0x17
 1709 066e 5E060000 		.4byte	.LASF96
 1710 0672 08       		.byte	0x8
 1711 0673 0F01     		.2byte	0x10f
 1712 0675 F9020000 		.4byte	0x2f9
 1713 0679 17       		.uleb128 0x17
 1714 067a 12000000 		.4byte	.LASF97
 1715 067e 08       		.byte	0x8
 1716 067f 1601     		.2byte	0x116
 1717 0681 B6060000 		.4byte	0x6b6
 1718 0685 17       		.uleb128 0x17
 1719 0686 BF000000 		.4byte	.LASF98
 1720 068a 08       		.byte	0x8
 1721 068b 1B01     		.2byte	0x11b
 1722 068d FA000000 		.4byte	0xfa
 1723 0691 17       		.uleb128 0x17
 1724 0692 FB010000 		.4byte	.LASF99
 1725 0696 08       		.byte	0x8
 1726 0697 2401     		.2byte	0x124
 1727 0699 E1060000 		.4byte	0x6e1
 1728 069d 17       		.uleb128 0x17
 1729 069e 01040000 		.4byte	.LASF100
 1730 06a2 08       		.byte	0x8
 1731 06a3 2D01     		.2byte	0x12d
 1732 06a5 18070000 		.4byte	0x718
 1733 06a9 17       		.uleb128 0x17
 1734 06aa 8E030000 		.4byte	.LASF101
 1735 06ae 08       		.byte	0x8
 1736 06af 3501     		.2byte	0x135
 1737 06b1 05010000 		.4byte	0x105
 1738 06b5 00       		.byte	0
 1739 06b6 09       		.uleb128 0x9
 1740 06b7 04       		.byte	0x4
 1741 06b8 11020000 		.4byte	0x211
 1742 06bc 05       		.uleb128 0x5
 1743 06bd C8030000 		.4byte	.LASF102
 1744 06c1 0C       		.byte	0xc
 1745 06c2 0D       		.byte	0xd
 1746 06c3 34       		.byte	0x34
 1747 06c4 E1060000 		.4byte	0x6e1
 1748 06c8 06       		.uleb128 0x6
 1749 06c9 83010000 		.4byte	.LASF103
 1750 06cd 0D       		.byte	0xd
 1751 06ce 35       		.byte	0x35
 1752 06cf 46020000 		.4byte	0x246
 1753 06d3 00       		.byte	0
 1754 06d4 06       		.uleb128 0x6
 1755 06d5 0D020000 		.4byte	.LASF104
 1756 06d9 0D       		.byte	0xd
 1757 06da 37       		.byte	0x37
 1758 06db 10010000 		.4byte	0x110
 1759 06df 08       		.byte	0x8
 1760 06e0 00       		.byte	0
 1761 06e1 09       		.uleb128 0x9
 1762 06e2 04       		.byte	0x4
 1763 06e3 BC060000 		.4byte	0x6bc
 1764 06e7 05       		.uleb128 0x5
ARM GAS  /tmp/ccsnLqbb.s 			page 64


 1765 06e8 47050000 		.4byte	.LASF105
 1766 06ec 10       		.byte	0x10
 1767 06ed 0E       		.byte	0xe
 1768 06ee 39       		.byte	0x39
 1769 06ef 18070000 		.4byte	0x718
 1770 06f3 06       		.uleb128 0x6
 1771 06f4 3D010000 		.4byte	.LASF106
 1772 06f8 0E       		.byte	0xe
 1773 06f9 3A       		.byte	0x3a
 1774 06fa 46020000 		.4byte	0x246
 1775 06fe 00       		.byte	0
 1776 06ff 06       		.uleb128 0x6
 1777 0700 8B060000 		.4byte	.LASF107
 1778 0704 0E       		.byte	0xe
 1779 0705 3C       		.byte	0x3c
 1780 0706 1C020000 		.4byte	0x21c
 1781 070a 08       		.byte	0x8
 1782 070b 06       		.uleb128 0x6
 1783 070c B7040000 		.4byte	.LASF108
 1784 0710 0E       		.byte	0xe
 1785 0711 3E       		.byte	0x3e
 1786 0712 56070000 		.4byte	0x756
 1787 0716 0C       		.byte	0xc
 1788 0717 00       		.byte	0
 1789 0718 09       		.uleb128 0x9
 1790 0719 04       		.byte	0x4
 1791 071a E7060000 		.4byte	0x6e7
 1792 071e 09       		.uleb128 0x9
 1793 071f 04       		.byte	0x4
 1794 0720 24070000 		.4byte	0x724
 1795 0724 18       		.uleb128 0x18
 1796 0725 29070000 		.4byte	0x729
 1797 0729 03       		.uleb128 0x3
 1798 072a 01       		.byte	0x1
 1799 072b 08       		.byte	0x8
 1800 072c 92040000 		.4byte	.LASF109
 1801 0730 09       		.uleb128 0x9
 1802 0731 04       		.byte	0x4
 1803 0732 FB020000 		.4byte	0x2fb
 1804 0736 0F       		.uleb128 0xf
 1805 0737 1E070000 		.4byte	0x71e
 1806 073b 10       		.uleb128 0x10
 1807 073c 66040000 		.4byte	0x466
 1808 0740 4B070000 		.4byte	0x74b
 1809 0744 11       		.uleb128 0x11
 1810 0745 2F040000 		.4byte	0x42f
 1811 0749 1A       		.byte	0x1a
 1812 074a 00       		.byte	0
 1813 074b 04       		.uleb128 0x4
 1814 074c BA010000 		.4byte	.LASF110
 1815 0750 0E       		.byte	0xe
 1816 0751 34       		.byte	0x34
 1817 0752 E7060000 		.4byte	0x6e7
 1818 0756 09       		.uleb128 0x9
 1819 0757 04       		.byte	0x4
 1820 0758 4B070000 		.4byte	0x74b
 1821 075c 19       		.uleb128 0x19
ARM GAS  /tmp/ccsnLqbb.s 			page 65


 1822 075d E5030000 		.4byte	.LASF111
 1823 0761 02       		.byte	0x2
 1824 0762 8B       		.byte	0x8b
 1825 0763 1B010000 		.4byte	0x11b
 1826 0767 03       		.byte	0x3
 1827 0768 19       		.uleb128 0x19
 1828 0769 0D050000 		.4byte	.LASF112
 1829 076d 03       		.byte	0x3
 1830 076e 69       		.byte	0x69
 1831 076f 1B010000 		.4byte	0x11b
 1832 0773 03       		.byte	0x3
 1833 0774 19       		.uleb128 0x19
 1834 0775 D7010000 		.4byte	.LASF113
 1835 0779 0F       		.byte	0xf
 1836 077a E4       		.byte	0xe4
 1837 077b 1B010000 		.4byte	0x11b
 1838 077f 03       		.byte	0x3
 1839 0780 1A       		.uleb128 0x1a
 1840 0781 2B020000 		.4byte	.LASF114
 1841 0785 03       		.byte	0x3
 1842 0786 47       		.byte	0x47
 1843 0787 03       		.byte	0x3
 1844 0788 98070000 		.4byte	0x798
 1845 078c 1B       		.uleb128 0x1b
 1846 078d F6020000 		.4byte	.LASF116
 1847 0791 03       		.byte	0x3
 1848 0792 47       		.byte	0x47
 1849 0793 1B010000 		.4byte	0x11b
 1850 0797 00       		.byte	0
 1851 0798 1A       		.uleb128 0x1a
 1852 0799 28010000 		.4byte	.LASF115
 1853 079d 03       		.byte	0x3
 1854 079e 5D       		.byte	0x5d
 1855 079f 03       		.byte	0x3
 1856 07a0 B0070000 		.4byte	0x7b0
 1857 07a4 1B       		.uleb128 0x1b
 1858 07a5 F6020000 		.4byte	.LASF116
 1859 07a9 03       		.byte	0x3
 1860 07aa 5D       		.byte	0x5d
 1861 07ab 1B010000 		.4byte	0x11b
 1862 07af 00       		.byte	0
 1863 07b0 1C       		.uleb128 0x1c
 1864 07b1 68050000 		.4byte	.LASF129
 1865 07b5 03       		.byte	0x3
 1866 07b6 51       		.byte	0x51
 1867 07b7 03       		.byte	0x3
 1868 07b8 1D       		.uleb128 0x1d
 1869 07b9 9E000000 		.4byte	.LASF123
 1870 07bd 01       		.byte	0x1
 1871 07be B1       		.byte	0xb1
 1872 07bf 01       		.byte	0x1
 1873 07c0 F3070000 		.4byte	0x7f3
 1874 07c4 1E       		.uleb128 0x1e
 1875 07c5 76747000 		.ascii	"vtp\000"
 1876 07c9 01       		.byte	0x1
 1877 07ca B1       		.byte	0xb1
 1878 07cb 30070000 		.4byte	0x730
ARM GAS  /tmp/ccsnLqbb.s 			page 66


 1879 07cf 1F       		.uleb128 0x1f
 1880 07d0 13020000 		.4byte	.LASF117
 1881 07d4 03080000 		.4byte	0x803
 1882 07d8 9E000000 		.4byte	.LASF123
 1883 07dc 20       		.uleb128 0x20
 1884 07dd EA010000 		.4byte	.LASF118
 1885 07e1 01       		.byte	0x1
 1886 07e2 C5       		.byte	0xc5
 1887 07e3 1B010000 		.4byte	0x11b
 1888 07e7 20       		.uleb128 0x20
 1889 07e8 18000000 		.4byte	.LASF119
 1890 07ec 01       		.byte	0x1
 1891 07ed C5       		.byte	0xc5
 1892 07ee 1B010000 		.4byte	0x11b
 1893 07f2 00       		.byte	0
 1894 07f3 10       		.uleb128 0x10
 1895 07f4 29070000 		.4byte	0x729
 1896 07f8 03080000 		.4byte	0x803
 1897 07fc 11       		.uleb128 0x11
 1898 07fd 2F040000 		.4byte	0x42f
 1899 0801 0C       		.byte	0xc
 1900 0802 00       		.byte	0
 1901 0803 18       		.uleb128 0x18
 1902 0804 F3070000 		.4byte	0x7f3
 1903 0808 21       		.uleb128 0x21
 1904 0809 0D010000 		.4byte	.LASF130
 1905 080d 01       		.byte	0x1
 1906 080e 3D       		.byte	0x3d
 1907 080f 00000000 		.4byte	.LFB241
 1908 0813 1C000000 		.4byte	.LFE241-.LFB241
 1909 0817 01       		.uleb128 0x1
 1910 0818 9C       		.byte	0x9c
 1911 0819 22       		.uleb128 0x22
 1912 081a 68020000 		.4byte	.LASF131
 1913 081e 01       		.byte	0x1
 1914 081f 5F       		.byte	0x5f
 1915 0820 00000000 		.4byte	.LFB242
 1916 0824 78000000 		.4byte	.LFE242-.LFB242
 1917 0828 01       		.uleb128 0x1
 1918 0829 9C       		.byte	0x9c
 1919 082a 1C090000 		.4byte	0x91c
 1920 082e 23       		.uleb128 0x23
 1921 082f 76747000 		.ascii	"vtp\000"
 1922 0833 01       		.byte	0x1
 1923 0834 5F       		.byte	0x5f
 1924 0835 30070000 		.4byte	0x730
 1925 0839 00000000 		.4byte	.LLST0
 1926 083d 24       		.uleb128 0x24
 1927 083e 65030000 		.4byte	.LASF120
 1928 0842 01       		.byte	0x1
 1929 0843 5F       		.byte	0x5f
 1930 0844 1B010000 		.4byte	0x11b
 1931 0848 2C000000 		.4byte	.LLST1
 1932 084c 24       		.uleb128 0x24
 1933 084d 30050000 		.4byte	.LASF121
 1934 0851 01       		.byte	0x1
 1935 0852 60       		.byte	0x60
ARM GAS  /tmp/ccsnLqbb.s 			page 67


 1936 0853 DD020000 		.4byte	0x2dd
 1937 0857 D1000000 		.4byte	.LLST2
 1938 085b 23       		.uleb128 0x23
 1939 085c 70617200 		.ascii	"par\000"
 1940 0860 01       		.byte	0x1
 1941 0861 60       		.byte	0x60
 1942 0862 F9020000 		.4byte	0x2f9
 1943 0866 24010000 		.4byte	.LLST3
 1944 086a 25       		.uleb128 0x25
 1945 086b 7000     		.ascii	"p\000"
 1946 086d 01       		.byte	0x1
 1947 086e 61       		.byte	0x61
 1948 086f 30070000 		.4byte	0x730
 1949 0873 91010000 		.4byte	.LLST4
 1950 0877 26       		.uleb128 0x26
 1951 0878 18000000 		.4byte	.LASF119
 1952 087c 01       		.byte	0x1
 1953 087d 62       		.byte	0x62
 1954 087e 1B010000 		.4byte	0x11b
 1955 0882 AF010000 		.4byte	.LLST5
 1956 0886 27       		.uleb128 0x27
 1957 0887 8B010000 		.4byte	.LASF132
 1958 088b 2C090000 		.4byte	0x92c
 1959 088f 28       		.uleb128 0x28
 1960 0890 00000000 		.4byte	.Ldebug_ranges0+0
 1961 0894 29       		.uleb128 0x29
 1962 0895 6E6F7700 		.ascii	"now\000"
 1963 0899 01       		.byte	0x1
 1964 089a 6C       		.byte	0x6c
 1965 089b 1B010000 		.4byte	0x11b
 1966 089f 2A       		.uleb128 0x2a
 1967 08a0 74070000 		.4byte	0x774
 1968 08a4 12000000 		.4byte	.LBB36
 1969 08a8 30000000 		.4byte	.Ldebug_ranges0+0x30
 1970 08ac 01       		.byte	0x1
 1971 08ad 6C       		.byte	0x6c
 1972 08ae D2080000 		.4byte	0x8d2
 1973 08b2 2B       		.uleb128 0x2b
 1974 08b3 68070000 		.4byte	0x768
 1975 08b7 12000000 		.4byte	.LBB37
 1976 08bb 30000000 		.4byte	.Ldebug_ranges0+0x30
 1977 08bf 0F       		.byte	0xf
 1978 08c0 E9       		.byte	0xe9
 1979 08c1 2C       		.uleb128 0x2c
 1980 08c2 5C070000 		.4byte	0x75c
 1981 08c6 12000000 		.4byte	.LBB38
 1982 08ca 30000000 		.4byte	.Ldebug_ranges0+0x30
 1983 08ce 03       		.byte	0x3
 1984 08cf 6B       		.byte	0x6b
 1985 08d0 00       		.byte	0
 1986 08d1 00       		.byte	0
 1987 08d2 2D       		.uleb128 0x2d
 1988 08d3 98070000 		.4byte	0x798
 1989 08d7 58000000 		.4byte	.LBB44
 1990 08db 06000000 		.4byte	.LBE44-.LBB44
 1991 08df 01       		.byte	0x1
 1992 08e0 8C       		.byte	0x8c
ARM GAS  /tmp/ccsnLqbb.s 			page 68


 1993 08e1 F8080000 		.4byte	0x8f8
 1994 08e5 2E       		.uleb128 0x2e
 1995 08e6 A4070000 		.4byte	0x7a4
 1996 08ea DC010000 		.4byte	.LLST6
 1997 08ee 2F       		.uleb128 0x2f
 1998 08ef 5C000000 		.4byte	.LVL12
 1999 08f3 170A0000 		.4byte	0xa17
 2000 08f7 00       		.byte	0
 2001 08f8 2B       		.uleb128 0x2b
 2002 08f9 80070000 		.4byte	0x780
 2003 08fd 64000000 		.4byte	.LBB46
 2004 0901 48000000 		.4byte	.Ldebug_ranges0+0x48
 2005 0905 01       		.byte	0x1
 2006 0906 81       		.byte	0x81
 2007 0907 2E       		.uleb128 0x2e
 2008 0908 8C070000 		.4byte	0x78c
 2009 090c EF010000 		.4byte	.LLST7
 2010 0910 30       		.uleb128 0x30
 2011 0911 74000000 		.4byte	.LVL16
 2012 0915 280A0000 		.4byte	0xa28
 2013 0919 00       		.byte	0
 2014 091a 00       		.byte	0
 2015 091b 00       		.byte	0
 2016 091c 10       		.uleb128 0x10
 2017 091d 29070000 		.4byte	0x729
 2018 0921 2C090000 		.4byte	0x92c
 2019 0925 11       		.uleb128 0x11
 2020 0926 2F040000 		.4byte	0x42f
 2021 092a 0A       		.byte	0xa
 2022 092b 00       		.byte	0
 2023 092c 18       		.uleb128 0x18
 2024 092d 1C090000 		.4byte	0x91c
 2025 0931 31       		.uleb128 0x31
 2026 0932 B8070000 		.4byte	0x7b8
 2027 0936 00000000 		.4byte	.LFB243
 2028 093a 74000000 		.4byte	.LFE243-.LFB243
 2029 093e 01       		.uleb128 0x1
 2030 093f 9C       		.byte	0x9c
 2031 0940 FB090000 		.4byte	0x9fb
 2032 0944 2E       		.uleb128 0x2e
 2033 0945 C4070000 		.4byte	0x7c4
 2034 0949 0C020000 		.4byte	.LLST8
 2035 094d 32       		.uleb128 0x32
 2036 094e CF070000 		.4byte	0x7cf
 2037 0952 32       		.uleb128 0x32
 2038 0953 DC070000 		.4byte	0x7dc
 2039 0957 32       		.uleb128 0x32
 2040 0958 E7070000 		.4byte	0x7e7
 2041 095c 28       		.uleb128 0x28
 2042 095d 60000000 		.4byte	.Ldebug_ranges0+0x60
 2043 0961 2E       		.uleb128 0x2e
 2044 0962 C4070000 		.4byte	0x7c4
 2045 0966 46020000 		.4byte	.LLST9
 2046 096a 28       		.uleb128 0x28
 2047 096b 60000000 		.4byte	.Ldebug_ranges0+0x60
 2048 096f 33       		.uleb128 0x33
 2049 0970 DC070000 		.4byte	0x7dc
ARM GAS  /tmp/ccsnLqbb.s 			page 69


 2050 0974 64020000 		.4byte	.LLST10
 2051 0978 33       		.uleb128 0x33
 2052 0979 E7070000 		.4byte	0x7e7
 2053 097d 77020000 		.4byte	.LLST11
 2054 0981 32       		.uleb128 0x32
 2055 0982 CF070000 		.4byte	0x7cf
 2056 0986 2A       		.uleb128 0x2a
 2057 0987 74070000 		.4byte	0x774
 2058 098b 46000000 		.4byte	.LBB66
 2059 098f 80000000 		.4byte	.Ldebug_ranges0+0x80
 2060 0993 01       		.byte	0x1
 2061 0994 EC       		.byte	0xec
 2062 0995 B9090000 		.4byte	0x9b9
 2063 0999 2B       		.uleb128 0x2b
 2064 099a 68070000 		.4byte	0x768
 2065 099e 46000000 		.4byte	.LBB67
 2066 09a2 80000000 		.4byte	.Ldebug_ranges0+0x80
 2067 09a6 0F       		.byte	0xf
 2068 09a7 E9       		.byte	0xe9
 2069 09a8 2C       		.uleb128 0x2c
 2070 09a9 5C070000 		.4byte	0x75c
 2071 09ad 46000000 		.4byte	.LBB68
 2072 09b1 80000000 		.4byte	.Ldebug_ranges0+0x80
 2073 09b5 03       		.byte	0x3
 2074 09b6 6B       		.byte	0x6b
 2075 09b7 00       		.byte	0
 2076 09b8 00       		.byte	0
 2077 09b9 2A       		.uleb128 0x2a
 2078 09ba 98070000 		.4byte	0x798
 2079 09be 5C000000 		.4byte	.LBB74
 2080 09c2 98000000 		.4byte	.Ldebug_ranges0+0x98
 2081 09c6 01       		.byte	0x1
 2082 09c7 FD       		.byte	0xfd
 2083 09c8 DF090000 		.4byte	0x9df
 2084 09cc 2E       		.uleb128 0x2e
 2085 09cd A4070000 		.4byte	0x7a4
 2086 09d1 8A020000 		.4byte	.LLST12
 2087 09d5 30       		.uleb128 0x30
 2088 09d6 66000000 		.4byte	.LVL26
 2089 09da 170A0000 		.4byte	0xa17
 2090 09de 00       		.byte	0
 2091 09df 34       		.uleb128 0x34
 2092 09e0 B0070000 		.4byte	0x7b0
 2093 09e4 6A000000 		.4byte	.LBB78
 2094 09e8 0A000000 		.4byte	.LBE78-.LBB78
 2095 09ec 01       		.byte	0x1
 2096 09ed DD       		.byte	0xdd
 2097 09ee 30       		.uleb128 0x30
 2098 09ef 6E000000 		.4byte	.LVL27
 2099 09f3 390A0000 		.4byte	0xa39
 2100 09f7 00       		.byte	0
 2101 09f8 00       		.byte	0
 2102 09f9 00       		.byte	0
 2103 09fa 00       		.byte	0
 2104 09fb 35       		.uleb128 0x35
 2105 09fc DD000000 		.4byte	.LASF122
 2106 0a00 11       		.byte	0x11
ARM GAS  /tmp/ccsnLqbb.s 			page 70


 2107 0a01 FA06     		.2byte	0x6fa
 2108 0a03 070A0000 		.4byte	0xa07
 2109 0a07 0F       		.uleb128 0xf
 2110 0a08 A2000000 		.4byte	0xa2
 2111 0a0c 36       		.uleb128 0x36
 2112 0a0d 636800   		.ascii	"ch\000"
 2113 0a10 08       		.byte	0x8
 2114 0a11 0B02     		.2byte	0x20b
 2115 0a13 C8030000 		.4byte	0x3c8
 2116 0a17 37       		.uleb128 0x37
 2117 0a18 5D050000 		.4byte	.LASF124
 2118 0a1c 10       		.byte	0x10
 2119 0a1d 59       		.byte	0x59
 2120 0a1e 280A0000 		.4byte	0xa28
 2121 0a22 0C       		.uleb128 0xc
 2122 0a23 1B010000 		.4byte	0x11b
 2123 0a27 00       		.byte	0
 2124 0a28 37       		.uleb128 0x37
 2125 0a29 F8040000 		.4byte	.LASF125
 2126 0a2d 10       		.byte	0x10
 2127 0a2e 57       		.byte	0x57
 2128 0a2f 390A0000 		.4byte	0xa39
 2129 0a33 0C       		.uleb128 0xc
 2130 0a34 1B010000 		.4byte	0x11b
 2131 0a38 00       		.byte	0
 2132 0a39 38       		.uleb128 0x38
 2133 0a3a 86040000 		.4byte	.LASF133
 2134 0a3e 10       		.byte	0x10
 2135 0a3f 58       		.byte	0x58
 2136 0a40 00       		.byte	0
 2137              		.section	.debug_abbrev,"",%progbits
 2138              	.Ldebug_abbrev0:
 2139 0000 01       		.uleb128 0x1
 2140 0001 11       		.uleb128 0x11
 2141 0002 01       		.byte	0x1
 2142 0003 25       		.uleb128 0x25
 2143 0004 0E       		.uleb128 0xe
 2144 0005 13       		.uleb128 0x13
 2145 0006 0B       		.uleb128 0xb
 2146 0007 03       		.uleb128 0x3
 2147 0008 0E       		.uleb128 0xe
 2148 0009 1B       		.uleb128 0x1b
 2149 000a 0E       		.uleb128 0xe
 2150 000b 55       		.uleb128 0x55
 2151 000c 17       		.uleb128 0x17
 2152 000d 11       		.uleb128 0x11
 2153 000e 01       		.uleb128 0x1
 2154 000f 10       		.uleb128 0x10
 2155 0010 17       		.uleb128 0x17
 2156 0011 00       		.byte	0
 2157 0012 00       		.byte	0
 2158 0013 02       		.uleb128 0x2
 2159 0014 24       		.uleb128 0x24
 2160 0015 00       		.byte	0
 2161 0016 0B       		.uleb128 0xb
 2162 0017 0B       		.uleb128 0xb
 2163 0018 3E       		.uleb128 0x3e
ARM GAS  /tmp/ccsnLqbb.s 			page 71


 2164 0019 0B       		.uleb128 0xb
 2165 001a 03       		.uleb128 0x3
 2166 001b 08       		.uleb128 0x8
 2167 001c 00       		.byte	0
 2168 001d 00       		.byte	0
 2169 001e 03       		.uleb128 0x3
 2170 001f 24       		.uleb128 0x24
 2171 0020 00       		.byte	0
 2172 0021 0B       		.uleb128 0xb
 2173 0022 0B       		.uleb128 0xb
 2174 0023 3E       		.uleb128 0x3e
 2175 0024 0B       		.uleb128 0xb
 2176 0025 03       		.uleb128 0x3
 2177 0026 0E       		.uleb128 0xe
 2178 0027 00       		.byte	0
 2179 0028 00       		.byte	0
 2180 0029 04       		.uleb128 0x4
 2181 002a 16       		.uleb128 0x16
 2182 002b 00       		.byte	0
 2183 002c 03       		.uleb128 0x3
 2184 002d 0E       		.uleb128 0xe
 2185 002e 3A       		.uleb128 0x3a
 2186 002f 0B       		.uleb128 0xb
 2187 0030 3B       		.uleb128 0x3b
 2188 0031 0B       		.uleb128 0xb
 2189 0032 49       		.uleb128 0x49
 2190 0033 13       		.uleb128 0x13
 2191 0034 00       		.byte	0
 2192 0035 00       		.byte	0
 2193 0036 05       		.uleb128 0x5
 2194 0037 13       		.uleb128 0x13
 2195 0038 01       		.byte	0x1
 2196 0039 03       		.uleb128 0x3
 2197 003a 0E       		.uleb128 0xe
 2198 003b 0B       		.uleb128 0xb
 2199 003c 0B       		.uleb128 0xb
 2200 003d 3A       		.uleb128 0x3a
 2201 003e 0B       		.uleb128 0xb
 2202 003f 3B       		.uleb128 0x3b
 2203 0040 0B       		.uleb128 0xb
 2204 0041 01       		.uleb128 0x1
 2205 0042 13       		.uleb128 0x13
 2206 0043 00       		.byte	0
 2207 0044 00       		.byte	0
 2208 0045 06       		.uleb128 0x6
 2209 0046 0D       		.uleb128 0xd
 2210 0047 00       		.byte	0
 2211 0048 03       		.uleb128 0x3
 2212 0049 0E       		.uleb128 0xe
 2213 004a 3A       		.uleb128 0x3a
 2214 004b 0B       		.uleb128 0xb
 2215 004c 3B       		.uleb128 0x3b
 2216 004d 0B       		.uleb128 0xb
 2217 004e 49       		.uleb128 0x49
 2218 004f 13       		.uleb128 0x13
 2219 0050 38       		.uleb128 0x38
 2220 0051 0B       		.uleb128 0xb
ARM GAS  /tmp/ccsnLqbb.s 			page 72


 2221 0052 00       		.byte	0
 2222 0053 00       		.byte	0
 2223 0054 07       		.uleb128 0x7
 2224 0055 0D       		.uleb128 0xd
 2225 0056 00       		.byte	0
 2226 0057 03       		.uleb128 0x3
 2227 0058 08       		.uleb128 0x8
 2228 0059 3A       		.uleb128 0x3a
 2229 005a 0B       		.uleb128 0xb
 2230 005b 3B       		.uleb128 0x3b
 2231 005c 05       		.uleb128 0x5
 2232 005d 49       		.uleb128 0x49
 2233 005e 13       		.uleb128 0x13
 2234 005f 38       		.uleb128 0x38
 2235 0060 0B       		.uleb128 0xb
 2236 0061 00       		.byte	0
 2237 0062 00       		.byte	0
 2238 0063 08       		.uleb128 0x8
 2239 0064 0D       		.uleb128 0xd
 2240 0065 00       		.byte	0
 2241 0066 03       		.uleb128 0x3
 2242 0067 0E       		.uleb128 0xe
 2243 0068 3A       		.uleb128 0x3a
 2244 0069 0B       		.uleb128 0xb
 2245 006a 3B       		.uleb128 0x3b
 2246 006b 05       		.uleb128 0x5
 2247 006c 49       		.uleb128 0x49
 2248 006d 13       		.uleb128 0x13
 2249 006e 38       		.uleb128 0x38
 2250 006f 0B       		.uleb128 0xb
 2251 0070 00       		.byte	0
 2252 0071 00       		.byte	0
 2253 0072 09       		.uleb128 0x9
 2254 0073 0F       		.uleb128 0xf
 2255 0074 00       		.byte	0
 2256 0075 0B       		.uleb128 0xb
 2257 0076 0B       		.uleb128 0xb
 2258 0077 49       		.uleb128 0x49
 2259 0078 13       		.uleb128 0x13
 2260 0079 00       		.byte	0
 2261 007a 00       		.byte	0
 2262 007b 0A       		.uleb128 0xa
 2263 007c 13       		.uleb128 0x13
 2264 007d 01       		.byte	0x1
 2265 007e 03       		.uleb128 0x3
 2266 007f 0E       		.uleb128 0xe
 2267 0080 0B       		.uleb128 0xb
 2268 0081 0B       		.uleb128 0xb
 2269 0082 3A       		.uleb128 0x3a
 2270 0083 0B       		.uleb128 0xb
 2271 0084 3B       		.uleb128 0x3b
 2272 0085 05       		.uleb128 0x5
 2273 0086 01       		.uleb128 0x1
 2274 0087 13       		.uleb128 0x13
 2275 0088 00       		.byte	0
 2276 0089 00       		.byte	0
 2277 008a 0B       		.uleb128 0xb
ARM GAS  /tmp/ccsnLqbb.s 			page 73


 2278 008b 15       		.uleb128 0x15
 2279 008c 01       		.byte	0x1
 2280 008d 27       		.uleb128 0x27
 2281 008e 19       		.uleb128 0x19
 2282 008f 01       		.uleb128 0x1
 2283 0090 13       		.uleb128 0x13
 2284 0091 00       		.byte	0
 2285 0092 00       		.byte	0
 2286 0093 0C       		.uleb128 0xc
 2287 0094 05       		.uleb128 0x5
 2288 0095 00       		.byte	0
 2289 0096 49       		.uleb128 0x49
 2290 0097 13       		.uleb128 0x13
 2291 0098 00       		.byte	0
 2292 0099 00       		.byte	0
 2293 009a 0D       		.uleb128 0xd
 2294 009b 0F       		.uleb128 0xf
 2295 009c 00       		.byte	0
 2296 009d 0B       		.uleb128 0xb
 2297 009e 0B       		.uleb128 0xb
 2298 009f 00       		.byte	0
 2299 00a0 00       		.byte	0
 2300 00a1 0E       		.uleb128 0xe
 2301 00a2 13       		.uleb128 0x13
 2302 00a3 01       		.byte	0x1
 2303 00a4 03       		.uleb128 0x3
 2304 00a5 0E       		.uleb128 0xe
 2305 00a6 0B       		.uleb128 0xb
 2306 00a7 05       		.uleb128 0x5
 2307 00a8 3A       		.uleb128 0x3a
 2308 00a9 0B       		.uleb128 0xb
 2309 00aa 3B       		.uleb128 0x3b
 2310 00ab 05       		.uleb128 0x5
 2311 00ac 01       		.uleb128 0x1
 2312 00ad 13       		.uleb128 0x13
 2313 00ae 00       		.byte	0
 2314 00af 00       		.byte	0
 2315 00b0 0F       		.uleb128 0xf
 2316 00b1 35       		.uleb128 0x35
 2317 00b2 00       		.byte	0
 2318 00b3 49       		.uleb128 0x49
 2319 00b4 13       		.uleb128 0x13
 2320 00b5 00       		.byte	0
 2321 00b6 00       		.byte	0
 2322 00b7 10       		.uleb128 0x10
 2323 00b8 01       		.uleb128 0x1
 2324 00b9 01       		.byte	0x1
 2325 00ba 49       		.uleb128 0x49
 2326 00bb 13       		.uleb128 0x13
 2327 00bc 01       		.uleb128 0x1
 2328 00bd 13       		.uleb128 0x13
 2329 00be 00       		.byte	0
 2330 00bf 00       		.byte	0
 2331 00c0 11       		.uleb128 0x11
 2332 00c1 21       		.uleb128 0x21
 2333 00c2 00       		.byte	0
 2334 00c3 49       		.uleb128 0x49
ARM GAS  /tmp/ccsnLqbb.s 			page 74


 2335 00c4 13       		.uleb128 0x13
 2336 00c5 2F       		.uleb128 0x2f
 2337 00c6 0B       		.uleb128 0xb
 2338 00c7 00       		.byte	0
 2339 00c8 00       		.byte	0
 2340 00c9 12       		.uleb128 0x12
 2341 00ca 0D       		.uleb128 0xd
 2342 00cb 00       		.byte	0
 2343 00cc 03       		.uleb128 0x3
 2344 00cd 08       		.uleb128 0x8
 2345 00ce 3A       		.uleb128 0x3a
 2346 00cf 0B       		.uleb128 0xb
 2347 00d0 3B       		.uleb128 0x3b
 2348 00d1 0B       		.uleb128 0xb
 2349 00d2 49       		.uleb128 0x49
 2350 00d3 13       		.uleb128 0x13
 2351 00d4 38       		.uleb128 0x38
 2352 00d5 0B       		.uleb128 0xb
 2353 00d6 00       		.byte	0
 2354 00d7 00       		.byte	0
 2355 00d8 13       		.uleb128 0x13
 2356 00d9 13       		.uleb128 0x13
 2357 00da 01       		.byte	0x1
 2358 00db 0B       		.uleb128 0xb
 2359 00dc 0B       		.uleb128 0xb
 2360 00dd 3A       		.uleb128 0x3a
 2361 00de 0B       		.uleb128 0xb
 2362 00df 3B       		.uleb128 0x3b
 2363 00e0 05       		.uleb128 0x5
 2364 00e1 01       		.uleb128 0x1
 2365 00e2 13       		.uleb128 0x13
 2366 00e3 00       		.byte	0
 2367 00e4 00       		.byte	0
 2368 00e5 14       		.uleb128 0x14
 2369 00e6 16       		.uleb128 0x16
 2370 00e7 00       		.byte	0
 2371 00e8 03       		.uleb128 0x3
 2372 00e9 0E       		.uleb128 0xe
 2373 00ea 3A       		.uleb128 0x3a
 2374 00eb 0B       		.uleb128 0xb
 2375 00ec 3B       		.uleb128 0x3b
 2376 00ed 05       		.uleb128 0x5
 2377 00ee 49       		.uleb128 0x49
 2378 00ef 13       		.uleb128 0x13
 2379 00f0 00       		.byte	0
 2380 00f1 00       		.byte	0
 2381 00f2 15       		.uleb128 0x15
 2382 00f3 13       		.uleb128 0x13
 2383 00f4 01       		.byte	0x1
 2384 00f5 0B       		.uleb128 0xb
 2385 00f6 0B       		.uleb128 0xb
 2386 00f7 3A       		.uleb128 0x3a
 2387 00f8 0B       		.uleb128 0xb
 2388 00f9 3B       		.uleb128 0x3b
 2389 00fa 0B       		.uleb128 0xb
 2390 00fb 01       		.uleb128 0x1
 2391 00fc 13       		.uleb128 0x13
ARM GAS  /tmp/ccsnLqbb.s 			page 75


 2392 00fd 00       		.byte	0
 2393 00fe 00       		.byte	0
 2394 00ff 16       		.uleb128 0x16
 2395 0100 17       		.uleb128 0x17
 2396 0101 01       		.byte	0x1
 2397 0102 0B       		.uleb128 0xb
 2398 0103 0B       		.uleb128 0xb
 2399 0104 3A       		.uleb128 0x3a
 2400 0105 0B       		.uleb128 0xb
 2401 0106 3B       		.uleb128 0x3b
 2402 0107 0B       		.uleb128 0xb
 2403 0108 01       		.uleb128 0x1
 2404 0109 13       		.uleb128 0x13
 2405 010a 00       		.byte	0
 2406 010b 00       		.byte	0
 2407 010c 17       		.uleb128 0x17
 2408 010d 0D       		.uleb128 0xd
 2409 010e 00       		.byte	0
 2410 010f 03       		.uleb128 0x3
 2411 0110 0E       		.uleb128 0xe
 2412 0111 3A       		.uleb128 0x3a
 2413 0112 0B       		.uleb128 0xb
 2414 0113 3B       		.uleb128 0x3b
 2415 0114 05       		.uleb128 0x5
 2416 0115 49       		.uleb128 0x49
 2417 0116 13       		.uleb128 0x13
 2418 0117 00       		.byte	0
 2419 0118 00       		.byte	0
 2420 0119 18       		.uleb128 0x18
 2421 011a 26       		.uleb128 0x26
 2422 011b 00       		.byte	0
 2423 011c 49       		.uleb128 0x49
 2424 011d 13       		.uleb128 0x13
 2425 011e 00       		.byte	0
 2426 011f 00       		.byte	0
 2427 0120 19       		.uleb128 0x19
 2428 0121 2E       		.uleb128 0x2e
 2429 0122 00       		.byte	0
 2430 0123 03       		.uleb128 0x3
 2431 0124 0E       		.uleb128 0xe
 2432 0125 3A       		.uleb128 0x3a
 2433 0126 0B       		.uleb128 0xb
 2434 0127 3B       		.uleb128 0x3b
 2435 0128 0B       		.uleb128 0xb
 2436 0129 27       		.uleb128 0x27
 2437 012a 19       		.uleb128 0x19
 2438 012b 49       		.uleb128 0x49
 2439 012c 13       		.uleb128 0x13
 2440 012d 20       		.uleb128 0x20
 2441 012e 0B       		.uleb128 0xb
 2442 012f 00       		.byte	0
 2443 0130 00       		.byte	0
 2444 0131 1A       		.uleb128 0x1a
 2445 0132 2E       		.uleb128 0x2e
 2446 0133 01       		.byte	0x1
 2447 0134 03       		.uleb128 0x3
 2448 0135 0E       		.uleb128 0xe
ARM GAS  /tmp/ccsnLqbb.s 			page 76


 2449 0136 3A       		.uleb128 0x3a
 2450 0137 0B       		.uleb128 0xb
 2451 0138 3B       		.uleb128 0x3b
 2452 0139 0B       		.uleb128 0xb
 2453 013a 27       		.uleb128 0x27
 2454 013b 19       		.uleb128 0x19
 2455 013c 20       		.uleb128 0x20
 2456 013d 0B       		.uleb128 0xb
 2457 013e 01       		.uleb128 0x1
 2458 013f 13       		.uleb128 0x13
 2459 0140 00       		.byte	0
 2460 0141 00       		.byte	0
 2461 0142 1B       		.uleb128 0x1b
 2462 0143 05       		.uleb128 0x5
 2463 0144 00       		.byte	0
 2464 0145 03       		.uleb128 0x3
 2465 0146 0E       		.uleb128 0xe
 2466 0147 3A       		.uleb128 0x3a
 2467 0148 0B       		.uleb128 0xb
 2468 0149 3B       		.uleb128 0x3b
 2469 014a 0B       		.uleb128 0xb
 2470 014b 49       		.uleb128 0x49
 2471 014c 13       		.uleb128 0x13
 2472 014d 00       		.byte	0
 2473 014e 00       		.byte	0
 2474 014f 1C       		.uleb128 0x1c
 2475 0150 2E       		.uleb128 0x2e
 2476 0151 00       		.byte	0
 2477 0152 03       		.uleb128 0x3
 2478 0153 0E       		.uleb128 0xe
 2479 0154 3A       		.uleb128 0x3a
 2480 0155 0B       		.uleb128 0xb
 2481 0156 3B       		.uleb128 0x3b
 2482 0157 0B       		.uleb128 0xb
 2483 0158 27       		.uleb128 0x27
 2484 0159 19       		.uleb128 0x19
 2485 015a 20       		.uleb128 0x20
 2486 015b 0B       		.uleb128 0xb
 2487 015c 00       		.byte	0
 2488 015d 00       		.byte	0
 2489 015e 1D       		.uleb128 0x1d
 2490 015f 2E       		.uleb128 0x2e
 2491 0160 01       		.byte	0x1
 2492 0161 3F       		.uleb128 0x3f
 2493 0162 19       		.uleb128 0x19
 2494 0163 03       		.uleb128 0x3
 2495 0164 0E       		.uleb128 0xe
 2496 0165 3A       		.uleb128 0x3a
 2497 0166 0B       		.uleb128 0xb
 2498 0167 3B       		.uleb128 0x3b
 2499 0168 0B       		.uleb128 0xb
 2500 0169 27       		.uleb128 0x27
 2501 016a 19       		.uleb128 0x19
 2502 016b 20       		.uleb128 0x20
 2503 016c 0B       		.uleb128 0xb
 2504 016d 01       		.uleb128 0x1
 2505 016e 13       		.uleb128 0x13
ARM GAS  /tmp/ccsnLqbb.s 			page 77


 2506 016f 00       		.byte	0
 2507 0170 00       		.byte	0
 2508 0171 1E       		.uleb128 0x1e
 2509 0172 05       		.uleb128 0x5
 2510 0173 00       		.byte	0
 2511 0174 03       		.uleb128 0x3
 2512 0175 08       		.uleb128 0x8
 2513 0176 3A       		.uleb128 0x3a
 2514 0177 0B       		.uleb128 0xb
 2515 0178 3B       		.uleb128 0x3b
 2516 0179 0B       		.uleb128 0xb
 2517 017a 49       		.uleb128 0x49
 2518 017b 13       		.uleb128 0x13
 2519 017c 00       		.byte	0
 2520 017d 00       		.byte	0
 2521 017e 1F       		.uleb128 0x1f
 2522 017f 34       		.uleb128 0x34
 2523 0180 00       		.byte	0
 2524 0181 03       		.uleb128 0x3
 2525 0182 0E       		.uleb128 0xe
 2526 0183 49       		.uleb128 0x49
 2527 0184 13       		.uleb128 0x13
 2528 0185 34       		.uleb128 0x34
 2529 0186 19       		.uleb128 0x19
 2530 0187 1C       		.uleb128 0x1c
 2531 0188 0E       		.uleb128 0xe
 2532 0189 00       		.byte	0
 2533 018a 00       		.byte	0
 2534 018b 20       		.uleb128 0x20
 2535 018c 34       		.uleb128 0x34
 2536 018d 00       		.byte	0
 2537 018e 03       		.uleb128 0x3
 2538 018f 0E       		.uleb128 0xe
 2539 0190 3A       		.uleb128 0x3a
 2540 0191 0B       		.uleb128 0xb
 2541 0192 3B       		.uleb128 0x3b
 2542 0193 0B       		.uleb128 0xb
 2543 0194 49       		.uleb128 0x49
 2544 0195 13       		.uleb128 0x13
 2545 0196 00       		.byte	0
 2546 0197 00       		.byte	0
 2547 0198 21       		.uleb128 0x21
 2548 0199 2E       		.uleb128 0x2e
 2549 019a 00       		.byte	0
 2550 019b 3F       		.uleb128 0x3f
 2551 019c 19       		.uleb128 0x19
 2552 019d 03       		.uleb128 0x3
 2553 019e 0E       		.uleb128 0xe
 2554 019f 3A       		.uleb128 0x3a
 2555 01a0 0B       		.uleb128 0xb
 2556 01a1 3B       		.uleb128 0x3b
 2557 01a2 0B       		.uleb128 0xb
 2558 01a3 27       		.uleb128 0x27
 2559 01a4 19       		.uleb128 0x19
 2560 01a5 11       		.uleb128 0x11
 2561 01a6 01       		.uleb128 0x1
 2562 01a7 12       		.uleb128 0x12
ARM GAS  /tmp/ccsnLqbb.s 			page 78


 2563 01a8 06       		.uleb128 0x6
 2564 01a9 40       		.uleb128 0x40
 2565 01aa 18       		.uleb128 0x18
 2566 01ab 9742     		.uleb128 0x2117
 2567 01ad 19       		.uleb128 0x19
 2568 01ae 00       		.byte	0
 2569 01af 00       		.byte	0
 2570 01b0 22       		.uleb128 0x22
 2571 01b1 2E       		.uleb128 0x2e
 2572 01b2 01       		.byte	0x1
 2573 01b3 3F       		.uleb128 0x3f
 2574 01b4 19       		.uleb128 0x19
 2575 01b5 03       		.uleb128 0x3
 2576 01b6 0E       		.uleb128 0xe
 2577 01b7 3A       		.uleb128 0x3a
 2578 01b8 0B       		.uleb128 0xb
 2579 01b9 3B       		.uleb128 0x3b
 2580 01ba 0B       		.uleb128 0xb
 2581 01bb 27       		.uleb128 0x27
 2582 01bc 19       		.uleb128 0x19
 2583 01bd 11       		.uleb128 0x11
 2584 01be 01       		.uleb128 0x1
 2585 01bf 12       		.uleb128 0x12
 2586 01c0 06       		.uleb128 0x6
 2587 01c1 40       		.uleb128 0x40
 2588 01c2 18       		.uleb128 0x18
 2589 01c3 9742     		.uleb128 0x2117
 2590 01c5 19       		.uleb128 0x19
 2591 01c6 01       		.uleb128 0x1
 2592 01c7 13       		.uleb128 0x13
 2593 01c8 00       		.byte	0
 2594 01c9 00       		.byte	0
 2595 01ca 23       		.uleb128 0x23
 2596 01cb 05       		.uleb128 0x5
 2597 01cc 00       		.byte	0
 2598 01cd 03       		.uleb128 0x3
 2599 01ce 08       		.uleb128 0x8
 2600 01cf 3A       		.uleb128 0x3a
 2601 01d0 0B       		.uleb128 0xb
 2602 01d1 3B       		.uleb128 0x3b
 2603 01d2 0B       		.uleb128 0xb
 2604 01d3 49       		.uleb128 0x49
 2605 01d4 13       		.uleb128 0x13
 2606 01d5 02       		.uleb128 0x2
 2607 01d6 17       		.uleb128 0x17
 2608 01d7 00       		.byte	0
 2609 01d8 00       		.byte	0
 2610 01d9 24       		.uleb128 0x24
 2611 01da 05       		.uleb128 0x5
 2612 01db 00       		.byte	0
 2613 01dc 03       		.uleb128 0x3
 2614 01dd 0E       		.uleb128 0xe
 2615 01de 3A       		.uleb128 0x3a
 2616 01df 0B       		.uleb128 0xb
 2617 01e0 3B       		.uleb128 0x3b
 2618 01e1 0B       		.uleb128 0xb
 2619 01e2 49       		.uleb128 0x49
ARM GAS  /tmp/ccsnLqbb.s 			page 79


 2620 01e3 13       		.uleb128 0x13
 2621 01e4 02       		.uleb128 0x2
 2622 01e5 17       		.uleb128 0x17
 2623 01e6 00       		.byte	0
 2624 01e7 00       		.byte	0
 2625 01e8 25       		.uleb128 0x25
 2626 01e9 34       		.uleb128 0x34
 2627 01ea 00       		.byte	0
 2628 01eb 03       		.uleb128 0x3
 2629 01ec 08       		.uleb128 0x8
 2630 01ed 3A       		.uleb128 0x3a
 2631 01ee 0B       		.uleb128 0xb
 2632 01ef 3B       		.uleb128 0x3b
 2633 01f0 0B       		.uleb128 0xb
 2634 01f1 49       		.uleb128 0x49
 2635 01f2 13       		.uleb128 0x13
 2636 01f3 02       		.uleb128 0x2
 2637 01f4 17       		.uleb128 0x17
 2638 01f5 00       		.byte	0
 2639 01f6 00       		.byte	0
 2640 01f7 26       		.uleb128 0x26
 2641 01f8 34       		.uleb128 0x34
 2642 01f9 00       		.byte	0
 2643 01fa 03       		.uleb128 0x3
 2644 01fb 0E       		.uleb128 0xe
 2645 01fc 3A       		.uleb128 0x3a
 2646 01fd 0B       		.uleb128 0xb
 2647 01fe 3B       		.uleb128 0x3b
 2648 01ff 0B       		.uleb128 0xb
 2649 0200 49       		.uleb128 0x49
 2650 0201 13       		.uleb128 0x13
 2651 0202 02       		.uleb128 0x2
 2652 0203 17       		.uleb128 0x17
 2653 0204 00       		.byte	0
 2654 0205 00       		.byte	0
 2655 0206 27       		.uleb128 0x27
 2656 0207 34       		.uleb128 0x34
 2657 0208 00       		.byte	0
 2658 0209 03       		.uleb128 0x3
 2659 020a 0E       		.uleb128 0xe
 2660 020b 49       		.uleb128 0x49
 2661 020c 13       		.uleb128 0x13
 2662 020d 34       		.uleb128 0x34
 2663 020e 19       		.uleb128 0x19
 2664 020f 00       		.byte	0
 2665 0210 00       		.byte	0
 2666 0211 28       		.uleb128 0x28
 2667 0212 0B       		.uleb128 0xb
 2668 0213 01       		.byte	0x1
 2669 0214 55       		.uleb128 0x55
 2670 0215 17       		.uleb128 0x17
 2671 0216 00       		.byte	0
 2672 0217 00       		.byte	0
 2673 0218 29       		.uleb128 0x29
 2674 0219 34       		.uleb128 0x34
 2675 021a 00       		.byte	0
 2676 021b 03       		.uleb128 0x3
ARM GAS  /tmp/ccsnLqbb.s 			page 80


 2677 021c 08       		.uleb128 0x8
 2678 021d 3A       		.uleb128 0x3a
 2679 021e 0B       		.uleb128 0xb
 2680 021f 3B       		.uleb128 0x3b
 2681 0220 0B       		.uleb128 0xb
 2682 0221 49       		.uleb128 0x49
 2683 0222 13       		.uleb128 0x13
 2684 0223 00       		.byte	0
 2685 0224 00       		.byte	0
 2686 0225 2A       		.uleb128 0x2a
 2687 0226 1D       		.uleb128 0x1d
 2688 0227 01       		.byte	0x1
 2689 0228 31       		.uleb128 0x31
 2690 0229 13       		.uleb128 0x13
 2691 022a 52       		.uleb128 0x52
 2692 022b 01       		.uleb128 0x1
 2693 022c 55       		.uleb128 0x55
 2694 022d 17       		.uleb128 0x17
 2695 022e 58       		.uleb128 0x58
 2696 022f 0B       		.uleb128 0xb
 2697 0230 59       		.uleb128 0x59
 2698 0231 0B       		.uleb128 0xb
 2699 0232 01       		.uleb128 0x1
 2700 0233 13       		.uleb128 0x13
 2701 0234 00       		.byte	0
 2702 0235 00       		.byte	0
 2703 0236 2B       		.uleb128 0x2b
 2704 0237 1D       		.uleb128 0x1d
 2705 0238 01       		.byte	0x1
 2706 0239 31       		.uleb128 0x31
 2707 023a 13       		.uleb128 0x13
 2708 023b 52       		.uleb128 0x52
 2709 023c 01       		.uleb128 0x1
 2710 023d 55       		.uleb128 0x55
 2711 023e 17       		.uleb128 0x17
 2712 023f 58       		.uleb128 0x58
 2713 0240 0B       		.uleb128 0xb
 2714 0241 59       		.uleb128 0x59
 2715 0242 0B       		.uleb128 0xb
 2716 0243 00       		.byte	0
 2717 0244 00       		.byte	0
 2718 0245 2C       		.uleb128 0x2c
 2719 0246 1D       		.uleb128 0x1d
 2720 0247 00       		.byte	0
 2721 0248 31       		.uleb128 0x31
 2722 0249 13       		.uleb128 0x13
 2723 024a 52       		.uleb128 0x52
 2724 024b 01       		.uleb128 0x1
 2725 024c 55       		.uleb128 0x55
 2726 024d 17       		.uleb128 0x17
 2727 024e 58       		.uleb128 0x58
 2728 024f 0B       		.uleb128 0xb
 2729 0250 59       		.uleb128 0x59
 2730 0251 0B       		.uleb128 0xb
 2731 0252 00       		.byte	0
 2732 0253 00       		.byte	0
 2733 0254 2D       		.uleb128 0x2d
ARM GAS  /tmp/ccsnLqbb.s 			page 81


 2734 0255 1D       		.uleb128 0x1d
 2735 0256 01       		.byte	0x1
 2736 0257 31       		.uleb128 0x31
 2737 0258 13       		.uleb128 0x13
 2738 0259 11       		.uleb128 0x11
 2739 025a 01       		.uleb128 0x1
 2740 025b 12       		.uleb128 0x12
 2741 025c 06       		.uleb128 0x6
 2742 025d 58       		.uleb128 0x58
 2743 025e 0B       		.uleb128 0xb
 2744 025f 59       		.uleb128 0x59
 2745 0260 0B       		.uleb128 0xb
 2746 0261 01       		.uleb128 0x1
 2747 0262 13       		.uleb128 0x13
 2748 0263 00       		.byte	0
 2749 0264 00       		.byte	0
 2750 0265 2E       		.uleb128 0x2e
 2751 0266 05       		.uleb128 0x5
 2752 0267 00       		.byte	0
 2753 0268 31       		.uleb128 0x31
 2754 0269 13       		.uleb128 0x13
 2755 026a 02       		.uleb128 0x2
 2756 026b 17       		.uleb128 0x17
 2757 026c 00       		.byte	0
 2758 026d 00       		.byte	0
 2759 026e 2F       		.uleb128 0x2f
 2760 026f 898201   		.uleb128 0x4109
 2761 0272 00       		.byte	0
 2762 0273 11       		.uleb128 0x11
 2763 0274 01       		.uleb128 0x1
 2764 0275 31       		.uleb128 0x31
 2765 0276 13       		.uleb128 0x13
 2766 0277 00       		.byte	0
 2767 0278 00       		.byte	0
 2768 0279 30       		.uleb128 0x30
 2769 027a 898201   		.uleb128 0x4109
 2770 027d 00       		.byte	0
 2771 027e 11       		.uleb128 0x11
 2772 027f 01       		.uleb128 0x1
 2773 0280 9542     		.uleb128 0x2115
 2774 0282 19       		.uleb128 0x19
 2775 0283 31       		.uleb128 0x31
 2776 0284 13       		.uleb128 0x13
 2777 0285 00       		.byte	0
 2778 0286 00       		.byte	0
 2779 0287 31       		.uleb128 0x31
 2780 0288 2E       		.uleb128 0x2e
 2781 0289 01       		.byte	0x1
 2782 028a 31       		.uleb128 0x31
 2783 028b 13       		.uleb128 0x13
 2784 028c 11       		.uleb128 0x11
 2785 028d 01       		.uleb128 0x1
 2786 028e 12       		.uleb128 0x12
 2787 028f 06       		.uleb128 0x6
 2788 0290 40       		.uleb128 0x40
 2789 0291 18       		.uleb128 0x18
 2790 0292 9742     		.uleb128 0x2117
ARM GAS  /tmp/ccsnLqbb.s 			page 82


 2791 0294 19       		.uleb128 0x19
 2792 0295 01       		.uleb128 0x1
 2793 0296 13       		.uleb128 0x13
 2794 0297 00       		.byte	0
 2795 0298 00       		.byte	0
 2796 0299 32       		.uleb128 0x32
 2797 029a 34       		.uleb128 0x34
 2798 029b 00       		.byte	0
 2799 029c 31       		.uleb128 0x31
 2800 029d 13       		.uleb128 0x13
 2801 029e 00       		.byte	0
 2802 029f 00       		.byte	0
 2803 02a0 33       		.uleb128 0x33
 2804 02a1 34       		.uleb128 0x34
 2805 02a2 00       		.byte	0
 2806 02a3 31       		.uleb128 0x31
 2807 02a4 13       		.uleb128 0x13
 2808 02a5 02       		.uleb128 0x2
 2809 02a6 17       		.uleb128 0x17
 2810 02a7 00       		.byte	0
 2811 02a8 00       		.byte	0
 2812 02a9 34       		.uleb128 0x34
 2813 02aa 1D       		.uleb128 0x1d
 2814 02ab 01       		.byte	0x1
 2815 02ac 31       		.uleb128 0x31
 2816 02ad 13       		.uleb128 0x13
 2817 02ae 11       		.uleb128 0x11
 2818 02af 01       		.uleb128 0x1
 2819 02b0 12       		.uleb128 0x12
 2820 02b1 06       		.uleb128 0x6
 2821 02b2 58       		.uleb128 0x58
 2822 02b3 0B       		.uleb128 0xb
 2823 02b4 59       		.uleb128 0x59
 2824 02b5 0B       		.uleb128 0xb
 2825 02b6 00       		.byte	0
 2826 02b7 00       		.byte	0
 2827 02b8 35       		.uleb128 0x35
 2828 02b9 34       		.uleb128 0x34
 2829 02ba 00       		.byte	0
 2830 02bb 03       		.uleb128 0x3
 2831 02bc 0E       		.uleb128 0xe
 2832 02bd 3A       		.uleb128 0x3a
 2833 02be 0B       		.uleb128 0xb
 2834 02bf 3B       		.uleb128 0x3b
 2835 02c0 05       		.uleb128 0x5
 2836 02c1 49       		.uleb128 0x49
 2837 02c2 13       		.uleb128 0x13
 2838 02c3 3F       		.uleb128 0x3f
 2839 02c4 19       		.uleb128 0x19
 2840 02c5 3C       		.uleb128 0x3c
 2841 02c6 19       		.uleb128 0x19
 2842 02c7 00       		.byte	0
 2843 02c8 00       		.byte	0
 2844 02c9 36       		.uleb128 0x36
 2845 02ca 34       		.uleb128 0x34
 2846 02cb 00       		.byte	0
 2847 02cc 03       		.uleb128 0x3
ARM GAS  /tmp/ccsnLqbb.s 			page 83


 2848 02cd 08       		.uleb128 0x8
 2849 02ce 3A       		.uleb128 0x3a
 2850 02cf 0B       		.uleb128 0xb
 2851 02d0 3B       		.uleb128 0x3b
 2852 02d1 05       		.uleb128 0x5
 2853 02d2 49       		.uleb128 0x49
 2854 02d3 13       		.uleb128 0x13
 2855 02d4 3F       		.uleb128 0x3f
 2856 02d5 19       		.uleb128 0x19
 2857 02d6 3C       		.uleb128 0x3c
 2858 02d7 19       		.uleb128 0x19
 2859 02d8 00       		.byte	0
 2860 02d9 00       		.byte	0
 2861 02da 37       		.uleb128 0x37
 2862 02db 2E       		.uleb128 0x2e
 2863 02dc 01       		.byte	0x1
 2864 02dd 3F       		.uleb128 0x3f
 2865 02de 19       		.uleb128 0x19
 2866 02df 03       		.uleb128 0x3
 2867 02e0 0E       		.uleb128 0xe
 2868 02e1 3A       		.uleb128 0x3a
 2869 02e2 0B       		.uleb128 0xb
 2870 02e3 3B       		.uleb128 0x3b
 2871 02e4 0B       		.uleb128 0xb
 2872 02e5 27       		.uleb128 0x27
 2873 02e6 19       		.uleb128 0x19
 2874 02e7 3C       		.uleb128 0x3c
 2875 02e8 19       		.uleb128 0x19
 2876 02e9 01       		.uleb128 0x1
 2877 02ea 13       		.uleb128 0x13
 2878 02eb 00       		.byte	0
 2879 02ec 00       		.byte	0
 2880 02ed 38       		.uleb128 0x38
 2881 02ee 2E       		.uleb128 0x2e
 2882 02ef 00       		.byte	0
 2883 02f0 3F       		.uleb128 0x3f
 2884 02f1 19       		.uleb128 0x19
 2885 02f2 03       		.uleb128 0x3
 2886 02f3 0E       		.uleb128 0xe
 2887 02f4 3A       		.uleb128 0x3a
 2888 02f5 0B       		.uleb128 0xb
 2889 02f6 3B       		.uleb128 0x3b
 2890 02f7 0B       		.uleb128 0xb
 2891 02f8 27       		.uleb128 0x27
 2892 02f9 19       		.uleb128 0x19
 2893 02fa 3C       		.uleb128 0x3c
 2894 02fb 19       		.uleb128 0x19
 2895 02fc 00       		.byte	0
 2896 02fd 00       		.byte	0
 2897 02fe 00       		.byte	0
 2898              		.section	.debug_loc,"",%progbits
 2899              	.Ldebug_loc0:
 2900              	.LLST0:
 2901 0000 00000000 		.4byte	.LVL0
 2902 0004 1E000000 		.4byte	.LVL3
 2903 0008 0100     		.2byte	0x1
 2904 000a 50       		.byte	0x50
ARM GAS  /tmp/ccsnLqbb.s 			page 84


 2905 000b 1E000000 		.4byte	.LVL3
 2906 000f 70000000 		.4byte	.LVL15
 2907 0013 0100     		.2byte	0x1
 2908 0015 55       		.byte	0x55
 2909 0016 73000000 		.4byte	.LVL16-1
 2910 001a 78000000 		.4byte	.LFE242
 2911 001e 0400     		.2byte	0x4
 2912 0020 F3       		.byte	0xf3
 2913 0021 01       		.uleb128 0x1
 2914 0022 50       		.byte	0x50
 2915 0023 9F       		.byte	0x9f
 2916 0024 00000000 		.4byte	0
 2917 0028 00000000 		.4byte	0
 2918              	.LLST1:
 2919 002c 00000000 		.4byte	.LVL0
 2920 0030 0C000000 		.4byte	.LVL1
 2921 0034 0100     		.2byte	0x1
 2922 0036 51       		.byte	0x51
 2923 0037 0C000000 		.4byte	.LVL1
 2924 003b 1E000000 		.4byte	.LVL3
 2925 003f 0400     		.2byte	0x4
 2926 0041 F3       		.byte	0xf3
 2927 0042 01       		.uleb128 0x1
 2928 0043 51       		.byte	0x51
 2929 0044 9F       		.byte	0x9f
 2930 0045 1E000000 		.4byte	.LVL3
 2931 0049 2C000000 		.4byte	.LVL5
 2932 004d 0100     		.2byte	0x1
 2933 004f 51       		.byte	0x51
 2934 0050 2C000000 		.4byte	.LVL5
 2935 0054 58000000 		.4byte	.LVL11
 2936 0058 1700     		.2byte	0x17
 2937 005a F3       		.byte	0xf3
 2938 005b 01       		.uleb128 0x1
 2939 005c 51       		.byte	0x51
 2940 005d 32       		.byte	0x32
 2941 005e F3       		.byte	0xf3
 2942 005f 01       		.uleb128 0x1
 2943 0060 51       		.byte	0x51
 2944 0061 40       		.byte	0x40
 2945 0062 4B       		.byte	0x4b
 2946 0063 24       		.byte	0x24
 2947 0064 22       		.byte	0x22
 2948 0065 0C       		.byte	0xc
 2949 0066 01000080 		.4byte	0x80000001
 2950 006a 2B       		.byte	0x2b
 2951 006b 28       		.byte	0x28
 2952 006c 0100     		.2byte	0x1
 2953 006e 16       		.byte	0x16
 2954 006f 13       		.byte	0x13
 2955 0070 9F       		.byte	0x9f
 2956 0071 58000000 		.4byte	.LVL11
 2957 0075 5B000000 		.4byte	.LVL12-1
 2958 0079 0100     		.2byte	0x1
 2959 007b 51       		.byte	0x51
 2960 007c 5B000000 		.4byte	.LVL12-1
 2961 0080 5E000000 		.4byte	.LVL13
ARM GAS  /tmp/ccsnLqbb.s 			page 85


 2962 0084 1700     		.2byte	0x17
 2963 0086 F3       		.byte	0xf3
 2964 0087 01       		.uleb128 0x1
 2965 0088 51       		.byte	0x51
 2966 0089 32       		.byte	0x32
 2967 008a F3       		.byte	0xf3
 2968 008b 01       		.uleb128 0x1
 2969 008c 51       		.byte	0x51
 2970 008d 40       		.byte	0x40
 2971 008e 4B       		.byte	0x4b
 2972 008f 24       		.byte	0x24
 2973 0090 22       		.byte	0x22
 2974 0091 0C       		.byte	0xc
 2975 0092 01000080 		.4byte	0x80000001
 2976 0096 2B       		.byte	0x2b
 2977 0097 28       		.byte	0x28
 2978 0098 0100     		.2byte	0x1
 2979 009a 16       		.byte	0x16
 2980 009b 13       		.byte	0x13
 2981 009c 9F       		.byte	0x9f
 2982 009d 5E000000 		.4byte	.LVL13
 2983 00a1 73000000 		.4byte	.LVL16-1
 2984 00a5 0100     		.2byte	0x1
 2985 00a7 51       		.byte	0x51
 2986 00a8 73000000 		.4byte	.LVL16-1
 2987 00ac 78000000 		.4byte	.LFE242
 2988 00b0 1700     		.2byte	0x17
 2989 00b2 F3       		.byte	0xf3
 2990 00b3 01       		.uleb128 0x1
 2991 00b4 51       		.byte	0x51
 2992 00b5 32       		.byte	0x32
 2993 00b6 F3       		.byte	0xf3
 2994 00b7 01       		.uleb128 0x1
 2995 00b8 51       		.byte	0x51
 2996 00b9 40       		.byte	0x40
 2997 00ba 4B       		.byte	0x4b
 2998 00bb 24       		.byte	0x24
 2999 00bc 22       		.byte	0x22
 3000 00bd 0C       		.byte	0xc
 3001 00be 01000080 		.4byte	0x80000001
 3002 00c2 2B       		.byte	0x2b
 3003 00c3 28       		.byte	0x28
 3004 00c4 0100     		.2byte	0x1
 3005 00c6 16       		.byte	0x16
 3006 00c7 13       		.byte	0x13
 3007 00c8 9F       		.byte	0x9f
 3008 00c9 00000000 		.4byte	0
 3009 00cd 00000000 		.4byte	0
 3010              	.LLST2:
 3011 00d1 00000000 		.4byte	.LVL0
 3012 00d5 2C000000 		.4byte	.LVL5
 3013 00d9 0100     		.2byte	0x1
 3014 00db 52       		.byte	0x52
 3015 00dc 2C000000 		.4byte	.LVL5
 3016 00e0 58000000 		.4byte	.LVL11
 3017 00e4 0400     		.2byte	0x4
 3018 00e6 F3       		.byte	0xf3
ARM GAS  /tmp/ccsnLqbb.s 			page 86


 3019 00e7 01       		.uleb128 0x1
 3020 00e8 52       		.byte	0x52
 3021 00e9 9F       		.byte	0x9f
 3022 00ea 58000000 		.4byte	.LVL11
 3023 00ee 5B000000 		.4byte	.LVL12-1
 3024 00f2 0100     		.2byte	0x1
 3025 00f4 52       		.byte	0x52
 3026 00f5 5B000000 		.4byte	.LVL12-1
 3027 00f9 5E000000 		.4byte	.LVL13
 3028 00fd 0400     		.2byte	0x4
 3029 00ff F3       		.byte	0xf3
 3030 0100 01       		.uleb128 0x1
 3031 0101 52       		.byte	0x52
 3032 0102 9F       		.byte	0x9f
 3033 0103 5E000000 		.4byte	.LVL13
 3034 0107 73000000 		.4byte	.LVL16-1
 3035 010b 0100     		.2byte	0x1
 3036 010d 52       		.byte	0x52
 3037 010e 73000000 		.4byte	.LVL16-1
 3038 0112 78000000 		.4byte	.LFE242
 3039 0116 0400     		.2byte	0x4
 3040 0118 F3       		.byte	0xf3
 3041 0119 01       		.uleb128 0x1
 3042 011a 52       		.byte	0x52
 3043 011b 9F       		.byte	0x9f
 3044 011c 00000000 		.4byte	0
 3045 0120 00000000 		.4byte	0
 3046              	.LLST3:
 3047 0124 00000000 		.4byte	.LVL0
 3048 0128 16000000 		.4byte	.LVL2
 3049 012c 0100     		.2byte	0x1
 3050 012e 53       		.byte	0x53
 3051 012f 16000000 		.4byte	.LVL2
 3052 0133 1E000000 		.4byte	.LVL3
 3053 0137 0200     		.2byte	0x2
 3054 0139 70       		.byte	0x70
 3055 013a 10       		.sleb128 16
 3056 013b 1E000000 		.4byte	.LVL3
 3057 013f 2C000000 		.4byte	.LVL5
 3058 0143 0200     		.2byte	0x2
 3059 0145 75       		.byte	0x75
 3060 0146 10       		.sleb128 16
 3061 0147 2C000000 		.4byte	.LVL5
 3062 014b 58000000 		.4byte	.LVL11
 3063 014f 0400     		.2byte	0x4
 3064 0151 F3       		.byte	0xf3
 3065 0152 01       		.uleb128 0x1
 3066 0153 53       		.byte	0x53
 3067 0154 9F       		.byte	0x9f
 3068 0155 58000000 		.4byte	.LVL11
 3069 0159 5B000000 		.4byte	.LVL12-1
 3070 015d 0200     		.2byte	0x2
 3071 015f 75       		.byte	0x75
 3072 0160 10       		.sleb128 16
 3073 0161 5B000000 		.4byte	.LVL12-1
 3074 0165 5E000000 		.4byte	.LVL13
 3075 0169 0400     		.2byte	0x4
ARM GAS  /tmp/ccsnLqbb.s 			page 87


 3076 016b F3       		.byte	0xf3
 3077 016c 01       		.uleb128 0x1
 3078 016d 53       		.byte	0x53
 3079 016e 9F       		.byte	0x9f
 3080 016f 5E000000 		.4byte	.LVL13
 3081 0173 70000000 		.4byte	.LVL15
 3082 0177 0200     		.2byte	0x2
 3083 0179 75       		.byte	0x75
 3084 017a 10       		.sleb128 16
 3085 017b 73000000 		.4byte	.LVL16-1
 3086 017f 78000000 		.4byte	.LFE242
 3087 0183 0400     		.2byte	0x4
 3088 0185 F3       		.byte	0xf3
 3089 0186 01       		.uleb128 0x1
 3090 0187 53       		.byte	0x53
 3091 0188 9F       		.byte	0x9f
 3092 0189 00000000 		.4byte	0
 3093 018d 00000000 		.4byte	0
 3094              	.LLST4:
 3095 0191 2E000000 		.4byte	.LVL6
 3096 0195 36000000 		.4byte	.LVL7
 3097 0199 0100     		.2byte	0x1
 3098 019b 53       		.byte	0x53
 3099 019c 38000000 		.4byte	.LVL8
 3100 01a0 58000000 		.4byte	.LVL11
 3101 01a4 0100     		.2byte	0x1
 3102 01a6 53       		.byte	0x53
 3103 01a7 00000000 		.4byte	0
 3104 01ab 00000000 		.4byte	0
 3105              	.LLST5:
 3106 01af 28000000 		.4byte	.LVL4
 3107 01b3 52000000 		.4byte	.LVL9
 3108 01b7 0100     		.2byte	0x1
 3109 01b9 54       		.byte	0x54
 3110 01ba 52000000 		.4byte	.LVL9
 3111 01be 54000000 		.4byte	.LVL10
 3112 01c2 0500     		.2byte	0x5
 3113 01c4 73       		.byte	0x73
 3114 01c5 04       		.sleb128 4
 3115 01c6 06       		.byte	0x6
 3116 01c7 23       		.byte	0x23
 3117 01c8 08       		.uleb128 0x8
 3118 01c9 58000000 		.4byte	.LVL11
 3119 01cd 5E000000 		.4byte	.LVL13
 3120 01d1 0100     		.2byte	0x1
 3121 01d3 54       		.byte	0x54
 3122 01d4 00000000 		.4byte	0
 3123 01d8 00000000 		.4byte	0
 3124              	.LLST6:
 3125 01dc 58000000 		.4byte	.LVL11
 3126 01e0 5B000000 		.4byte	.LVL12-1
 3127 01e4 0100     		.2byte	0x1
 3128 01e6 50       		.byte	0x50
 3129 01e7 00000000 		.4byte	0
 3130 01eb 00000000 		.4byte	0
 3131              	.LLST7:
 3132 01ef 6C000000 		.4byte	.LVL14
ARM GAS  /tmp/ccsnLqbb.s 			page 88


 3133 01f3 70000000 		.4byte	.LVL15
 3134 01f7 0B00     		.2byte	0xb
 3135 01f9 76       		.byte	0x76
 3136 01fa 1C       		.sleb128 28
 3137 01fb 06       		.byte	0x6
 3138 01fc 23       		.byte	0x23
 3139 01fd 08       		.uleb128 0x8
 3140 01fe 06       		.byte	0x6
 3141 01ff 76       		.byte	0x76
 3142 0200 28       		.sleb128 40
 3143 0201 06       		.byte	0x6
 3144 0202 22       		.byte	0x22
 3145 0203 9F       		.byte	0x9f
 3146 0204 00000000 		.4byte	0
 3147 0208 00000000 		.4byte	0
 3148              	.LLST8:
 3149 020c 00000000 		.4byte	.LVL17
 3150 0210 26000000 		.4byte	.LVL18
 3151 0214 0100     		.2byte	0x1
 3152 0216 50       		.byte	0x50
 3153 0217 26000000 		.4byte	.LVL18
 3154 021b 2C000000 		.4byte	.LVL19
 3155 021f 0400     		.2byte	0x4
 3156 0221 F3       		.byte	0xf3
 3157 0222 01       		.uleb128 0x1
 3158 0223 50       		.byte	0x50
 3159 0224 9F       		.byte	0x9f
 3160 0225 2C000000 		.4byte	.LVL19
 3161 0229 2E000000 		.4byte	.LVL20
 3162 022d 0100     		.2byte	0x1
 3163 022f 50       		.byte	0x50
 3164 0230 2E000000 		.4byte	.LVL20
 3165 0234 74000000 		.4byte	.LFE243
 3166 0238 0400     		.2byte	0x4
 3167 023a F3       		.byte	0xf3
 3168 023b 01       		.uleb128 0x1
 3169 023c 50       		.byte	0x50
 3170 023d 9F       		.byte	0x9f
 3171 023e 00000000 		.4byte	0
 3172 0242 00000000 		.4byte	0
 3173              	.LLST9:
 3174 0246 2C000000 		.4byte	.LVL19
 3175 024a 42000000 		.4byte	.LVL21
 3176 024e 0100     		.2byte	0x1
 3177 0250 53       		.byte	0x53
 3178 0251 66000000 		.4byte	.LVL26
 3179 0255 6D000000 		.4byte	.LVL27-1
 3180 0259 0100     		.2byte	0x1
 3181 025b 53       		.byte	0x53
 3182 025c 00000000 		.4byte	0
 3183 0260 00000000 		.4byte	0
 3184              	.LLST10:
 3185 0264 50000000 		.4byte	.LVL22
 3186 0268 65000000 		.4byte	.LVL26-1
 3187 026c 0100     		.2byte	0x1
 3188 026e 52       		.byte	0x52
 3189 026f 00000000 		.4byte	0
ARM GAS  /tmp/ccsnLqbb.s 			page 89


 3190 0273 00000000 		.4byte	0
 3191              	.LLST11:
 3192 0277 56000000 		.4byte	.LVL23
 3193 027b 65000000 		.4byte	.LVL26-1
 3194 027f 0100     		.2byte	0x1
 3195 0281 53       		.byte	0x53
 3196 0282 00000000 		.4byte	0
 3197 0286 00000000 		.4byte	0
 3198              	.LLST12:
 3199 028a 5C000000 		.4byte	.LVL24
 3200 028e 5E000000 		.4byte	.LVL25
 3201 0292 0600     		.2byte	0x6
 3202 0294 73       		.byte	0x73
 3203 0295 00       		.sleb128 0
 3204 0296 70       		.byte	0x70
 3205 0297 00       		.sleb128 0
 3206 0298 22       		.byte	0x22
 3207 0299 9F       		.byte	0x9f
 3208 029a 5E000000 		.4byte	.LVL25
 3209 029e 65000000 		.4byte	.LVL26-1
 3210 02a2 0100     		.2byte	0x1
 3211 02a4 50       		.byte	0x50
 3212 02a5 00000000 		.4byte	0
 3213 02a9 00000000 		.4byte	0
 3214              		.section	.debug_aranges,"",%progbits
 3215 0000 2C000000 		.4byte	0x2c
 3216 0004 0200     		.2byte	0x2
 3217 0006 00000000 		.4byte	.Ldebug_info0
 3218 000a 04       		.byte	0x4
 3219 000b 00       		.byte	0
 3220 000c 0000     		.2byte	0
 3221 000e 0000     		.2byte	0
 3222 0010 00000000 		.4byte	.LFB241
 3223 0014 1C000000 		.4byte	.LFE241-.LFB241
 3224 0018 00000000 		.4byte	.LFB242
 3225 001c 78000000 		.4byte	.LFE242-.LFB242
 3226 0020 00000000 		.4byte	.LFB243
 3227 0024 74000000 		.4byte	.LFE243-.LFB243
 3228 0028 00000000 		.4byte	0
 3229 002c 00000000 		.4byte	0
 3230              		.section	.debug_ranges,"",%progbits
 3231              	.Ldebug_ranges0:
 3232 0000 02000000 		.4byte	.LBB35
 3233 0004 10000000 		.4byte	.LBE35
 3234 0008 12000000 		.4byte	.LBB50
 3235 000c 18000000 		.4byte	.LBE50
 3236 0010 1C000000 		.4byte	.LBB51
 3237 0014 2C000000 		.4byte	.LBE51
 3238 0018 58000000 		.4byte	.LBB52
 3239 001c 6C000000 		.4byte	.LBE52
 3240 0020 70000000 		.4byte	.LBB53
 3241 0024 78000000 		.4byte	.LBE53
 3242 0028 00000000 		.4byte	0
 3243 002c 00000000 		.4byte	0
 3244 0030 12000000 		.4byte	.LBB36
 3245 0034 16000000 		.4byte	.LBE36
 3246 0038 1C000000 		.4byte	.LBB43
ARM GAS  /tmp/ccsnLqbb.s 			page 90


 3247 003c 1E000000 		.4byte	.LBE43
 3248 0040 00000000 		.4byte	0
 3249 0044 00000000 		.4byte	0
 3250 0048 64000000 		.4byte	.LBB46
 3251 004c 66000000 		.4byte	.LBE46
 3252 0050 70000000 		.4byte	.LBB49
 3253 0054 78000000 		.4byte	.LBE49
 3254 0058 00000000 		.4byte	0
 3255 005c 00000000 		.4byte	0
 3256 0060 2C000000 		.4byte	.LBB64
 3257 0064 5E000000 		.4byte	.LBE64
 3258 0068 62000000 		.4byte	.LBB82
 3259 006c 66000000 		.4byte	.LBE82
 3260 0070 6A000000 		.4byte	.LBB83
 3261 0074 74000000 		.4byte	.LBE83
 3262 0078 00000000 		.4byte	0
 3263 007c 00000000 		.4byte	0
 3264 0080 46000000 		.4byte	.LBB66
 3265 0084 4A000000 		.4byte	.LBE66
 3266 0088 4C000000 		.4byte	.LBB73
 3267 008c 4E000000 		.4byte	.LBE73
 3268 0090 00000000 		.4byte	0
 3269 0094 00000000 		.4byte	0
 3270 0098 5C000000 		.4byte	.LBB74
 3271 009c 5E000000 		.4byte	.LBE74
 3272 00a0 62000000 		.4byte	.LBB77
 3273 00a4 66000000 		.4byte	.LBE77
 3274 00a8 00000000 		.4byte	0
 3275 00ac 00000000 		.4byte	0
 3276 00b0 00000000 		.4byte	.LFB241
 3277 00b4 1C000000 		.4byte	.LFE241
 3278 00b8 00000000 		.4byte	.LFB242
 3279 00bc 78000000 		.4byte	.LFE242
 3280 00c0 00000000 		.4byte	.LFB243
 3281 00c4 74000000 		.4byte	.LFE243
 3282 00c8 00000000 		.4byte	0
 3283 00cc 00000000 		.4byte	0
 3284              		.section	.debug_line,"",%progbits
 3285              	.Ldebug_line0:
 3286 0000 9A030000 		.section	.debug_str,"MS",%progbits,1
 3286      0200A502 
 3286      00000201 
 3286      FB0E0D00 
 3286      01010101 
 3287              	.LASF49:
 3288 0000 72656164 		.ascii	"ready_list_t\000"
 3288      795F6C69 
 3288      73745F74 
 3288      00
 3289              	.LASF83:
 3290 000d 44494552 		.ascii	"DIER\000"
 3290      00
 3291              	.LASF97:
 3292 0012 77747472 		.ascii	"wttrp\000"
 3292      7000
 3293              	.LASF119:
 3294 0018 64656C74 		.ascii	"delta\000"
ARM GAS  /tmp/ccsnLqbb.s 			page 91


 3294      6100
 3295              	.LASF94:
 3296 001e 7264796D 		.ascii	"rdymsg\000"
 3296      736700
 3297              	.LASF16:
 3298 0025 75696E74 		.ascii	"uint64_t\000"
 3298      36345F74 
 3298      00
 3299              	.LASF23:
 3300 002e 6576656E 		.ascii	"eventmask_t\000"
 3300      746D6173 
 3300      6B5F7400 
 3301              	.LASF5:
 3302 003a 5F5F7569 		.ascii	"__uint8_t\000"
 3302      6E74385F 
 3302      7400
 3303              	.LASF22:
 3304 0044 6D73675F 		.ascii	"msg_t\000"
 3304      7400
 3305              	.LASF81:
 3306 004a 706F7274 		.ascii	"port_intctx\000"
 3306      5F696E74 
 3306      63747800 
 3307              	.LASF68:
 3308 0056 73797374 		.ascii	"system_debug_t\000"
 3308      656D5F64 
 3308      65627567 
 3308      5F7400
 3309              	.LASF85:
 3310 0065 43434D52 		.ascii	"CCMR2\000"
 3310      3200
 3311              	.LASF127:
 3312 006b 2E2E2F43 		.ascii	"../ChibiOS/os/rt/src/chvt.c\000"
 3312      68696269 
 3312      4F532F6F 
 3312      732F7274 
 3312      2F737263 
 3313              	.LASF12:
 3314 0087 6C6F6E67 		.ascii	"long long unsigned int\000"
 3314      206C6F6E 
 3314      6720756E 
 3314      7369676E 
 3314      65642069 
 3315              	.LASF123:
 3316 009e 63685654 		.ascii	"chVTDoResetI\000"
 3316      446F5265 
 3316      73657449 
 3316      00
 3317              	.LASF95:
 3318 00ab 65786974 		.ascii	"exitcode\000"
 3318      636F6465 
 3318      00
 3319              	.LASF75:
 3320 00b4 6D61696E 		.ascii	"mainthread\000"
 3320      74687265 
 3320      616400
 3321              	.LASF98:
ARM GAS  /tmp/ccsnLqbb.s 			page 92


 3322 00bf 73656E74 		.ascii	"sentmsg\000"
 3322      6D736700 
 3323              	.LASF65:
 3324 00c7 76697274 		.ascii	"virtual_timers_list_t\000"
 3324      75616C5F 
 3324      74696D65 
 3324      72735F6C 
 3324      6973745F 
 3325              	.LASF122:
 3326 00dd 49544D5F 		.ascii	"ITM_RxBuffer\000"
 3326      52784275 
 3326      66666572 
 3326      00
 3327              	.LASF87:
 3328 00ea 42445452 		.ascii	"BDTR\000"
 3328      00
 3329              	.LASF48:
 3330 00ef 63685F74 		.ascii	"ch_threads_queue\000"
 3330      68726561 
 3330      64735F71 
 3330      75657565 
 3330      00
 3331              	.LASF29:
 3332 0100 705F7072 		.ascii	"p_prio\000"
 3332      696F00
 3333              	.LASF84:
 3334 0107 43434D52 		.ascii	"CCMR1\000"
 3334      3100
 3335              	.LASF130:
 3336 010d 5F76745F 		.ascii	"_vt_init\000"
 3336      696E6974 
 3336      00
 3337              	.LASF89:
 3338 0116 43434D52 		.ascii	"CCMR3\000"
 3338      3300
 3339              	.LASF1:
 3340 011c 7369676E 		.ascii	"signed char\000"
 3340      65642063 
 3340      68617200 
 3341              	.LASF115:
 3342 0128 706F7274 		.ascii	"port_timer_set_alarm\000"
 3342      5F74696D 
 3342      65725F73 
 3342      65745F61 
 3342      6C61726D 
 3343              	.LASF106:
 3344 013d 6D5F7175 		.ascii	"m_queue\000"
 3344      65756500 
 3345              	.LASF74:
 3346 0145 76746C69 		.ascii	"vtlist\000"
 3346      737400
 3347              	.LASF72:
 3348 014c 63685F73 		.ascii	"ch_system\000"
 3348      79737465 
 3348      6D00
 3349              	.LASF7:
 3350 0156 6C6F6E67 		.ascii	"long int\000"
ARM GAS  /tmp/ccsnLqbb.s 			page 93


 3350      20696E74 
 3350      00
 3351              	.LASF19:
 3352 015f 74737461 		.ascii	"tstate_t\000"
 3352      74655F74 
 3352      00
 3353              	.LASF86:
 3354 0168 43434552 		.ascii	"CCER\000"
 3354      00
 3355              	.LASF10:
 3356 016d 6C6F6E67 		.ascii	"long long int\000"
 3356      206C6F6E 
 3356      6720696E 
 3356      7400
 3357              	.LASF31:
 3358 017b 705F6E65 		.ascii	"p_newer\000"
 3358      77657200 
 3359              	.LASF103:
 3360 0183 735F7175 		.ascii	"s_queue\000"
 3360      65756500 
 3361              	.LASF132:
 3362 018b 5F5F6675 		.ascii	"__func__.6403\000"
 3362      6E635F5F 
 3362      2E363430 
 3362      3300
 3363              	.LASF54:
 3364 0199 725F6E65 		.ascii	"r_newer\000"
 3364      77657200 
 3365              	.LASF42:
 3366 01a1 705F6D70 		.ascii	"p_mpool\000"
 3366      6F6F6C00 
 3367              	.LASF78:
 3368 01a9 72656761 		.ascii	"regarm_t\000"
 3368      726D5F74 
 3368      00
 3369              	.LASF61:
 3370 01b2 76745F70 		.ascii	"vt_prev\000"
 3370      72657600 
 3371              	.LASF110:
 3372 01ba 6D757465 		.ascii	"mutex_t\000"
 3372      785F7400 
 3373              	.LASF76:
 3374 01c2 69646C65 		.ascii	"idle_thread_wa\000"
 3374      5F746872 
 3374      6561645F 
 3374      776100
 3375              	.LASF24:
 3376 01d1 636E745F 		.ascii	"cnt_t\000"
 3376      7400
 3377              	.LASF113:
 3378 01d7 63685654 		.ascii	"chVTGetSystemTimeX\000"
 3378      47657453 
 3378      79737465 
 3378      6D54696D 
 3378      655800
 3379              	.LASF118:
 3380 01ea 6E6F7764 		.ascii	"nowdelta\000"
ARM GAS  /tmp/ccsnLqbb.s 			page 94


 3380      656C7461 
 3380      00
 3381              	.LASF60:
 3382 01f3 76745F6E 		.ascii	"vt_next\000"
 3382      65787400 
 3383              	.LASF99:
 3384 01fb 77747365 		.ascii	"wtsemp\000"
 3384      6D7000
 3385              	.LASF38:
 3386 0202 705F6D73 		.ascii	"p_msgqueue\000"
 3386      67717565 
 3386      756500
 3387              	.LASF104:
 3388 020d 735F636E 		.ascii	"s_cnt\000"
 3388      7400
 3389              	.LASF117:
 3390 0213 5F5F6675 		.ascii	"__func__.6411\000"
 3390      6E635F5F 
 3390      2E363431 
 3390      3100
 3391              	.LASF45:
 3392 0221 63685F74 		.ascii	"ch_thread\000"
 3392      68726561 
 3392      6400
 3393              	.LASF114:
 3394 022b 706F7274 		.ascii	"port_timer_start_alarm\000"
 3394      5F74696D 
 3394      65725F73 
 3394      74617274 
 3394      5F616C61 
 3395              	.LASF71:
 3396 0242 63685F73 		.ascii	"ch_system_t\000"
 3396      79737465 
 3396      6D5F7400 
 3397              	.LASF91:
 3398 024e 73746D33 		.ascii	"stm32_tim_t\000"
 3398      325F7469 
 3398      6D5F7400 
 3399              	.LASF50:
 3400 025a 63685F72 		.ascii	"ch_ready_list\000"
 3400      65616479 
 3400      5F6C6973 
 3400      7400
 3401              	.LASF131:
 3402 0268 63685654 		.ascii	"chVTDoSetI\000"
 3402      446F5365 
 3402      744900
 3403              	.LASF6:
 3404 0273 5F5F696E 		.ascii	"__int32_t\000"
 3404      7433325F 
 3404      7400
 3405              	.LASF79:
 3406 027d 73746B61 		.ascii	"stkalign_t\000"
 3406      6C69676E 
 3406      5F7400
 3407              	.LASF37:
 3408 0288 705F7761 		.ascii	"p_waiting\000"
ARM GAS  /tmp/ccsnLqbb.s 			page 95


 3408      6974696E 
 3408      6700
 3409              	.LASF77:
 3410 0292 73697A65 		.ascii	"sizetype\000"
 3410      74797065 
 3410      00
 3411              	.LASF43:
 3412 029b 74687265 		.ascii	"thread_reference_t\000"
 3412      61645F72 
 3412      65666572 
 3412      656E6365 
 3412      5F7400
 3413              	.LASF66:
 3414 02ae 63685F76 		.ascii	"ch_virtual_timers_list\000"
 3414      69727475 
 3414      616C5F74 
 3414      696D6572 
 3414      735F6C69 
 3415              	.LASF67:
 3416 02c5 76745F6C 		.ascii	"vt_lasttime\000"
 3416      61737474 
 3416      696D6500 
 3417              	.LASF32:
 3418 02d1 705F6F6C 		.ascii	"p_older\000"
 3418      64657200 
 3419              	.LASF53:
 3420 02d9 725F6374 		.ascii	"r_ctx\000"
 3420      7800
 3421              	.LASF30:
 3422 02df 705F6374 		.ascii	"p_ctx\000"
 3422      7800
 3423              	.LASF93:
 3424 02e5 746D5F63 		.ascii	"tm_calibration_t\000"
 3424      616C6962 
 3424      72617469 
 3424      6F6E5F74 
 3424      00
 3425              	.LASF116:
 3426 02f6 74696D65 		.ascii	"time\000"
 3426      00
 3427              	.LASF56:
 3428 02fb 725F6375 		.ascii	"r_current\000"
 3428      7272656E 
 3428      7400
 3429              	.LASF55:
 3430 0305 725F6F6C 		.ascii	"r_older\000"
 3430      64657200 
 3431              	.LASF11:
 3432 030d 5F5F7569 		.ascii	"__uint64_t\000"
 3432      6E743634 
 3432      5F7400
 3433              	.LASF20:
 3434 0318 74726566 		.ascii	"trefs_t\000"
 3434      735F7400 
 3435              	.LASF58:
 3436 0320 76697274 		.ascii	"virtual_timer_t\000"
 3436      75616C5F 
ARM GAS  /tmp/ccsnLqbb.s 			page 96


 3436      74696D65 
 3436      725F7400 
 3437              	.LASF28:
 3438 0330 705F7072 		.ascii	"p_prev\000"
 3438      657600
 3439              	.LASF21:
 3440 0337 74707269 		.ascii	"tprio_t\000"
 3440      6F5F7400 
 3441              	.LASF69:
 3442 033f 63685F73 		.ascii	"ch_system_debug\000"
 3442      79737465 
 3442      6D5F6465 
 3442      62756700 
 3443              	.LASF14:
 3444 034f 696E7433 		.ascii	"int32_t\000"
 3444      325F7400 
 3445              	.LASF2:
 3446 0357 756E7369 		.ascii	"unsigned char\000"
 3446      676E6564 
 3446      20636861 
 3446      7200
 3447              	.LASF120:
 3448 0365 64656C61 		.ascii	"delay\000"
 3448      7900
 3449              	.LASF40:
 3450 036b 705F6D74 		.ascii	"p_mtxlist\000"
 3450      786C6973 
 3450      7400
 3451              	.LASF3:
 3452 0375 73686F72 		.ascii	"short int\000"
 3452      7420696E 
 3452      7400
 3453              	.LASF34:
 3454 037f 705F7374 		.ascii	"p_state\000"
 3454      61746500 
 3455              	.LASF52:
 3456 0387 725F7072 		.ascii	"r_prio\000"
 3456      696F00
 3457              	.LASF101:
 3458 038e 65776D61 		.ascii	"ewmask\000"
 3458      736B00
 3459              	.LASF27:
 3460 0395 705F6E65 		.ascii	"p_next\000"
 3460      787400
 3461              	.LASF13:
 3462 039c 75696E74 		.ascii	"uint8_t\000"
 3462      385F7400 
 3463              	.LASF4:
 3464 03a4 73686F72 		.ascii	"short unsigned int\000"
 3464      7420756E 
 3464      7369676E 
 3464      65642069 
 3464      6E7400
 3465              	.LASF59:
 3466 03b7 63685F76 		.ascii	"ch_virtual_timer\000"
 3466      69727475 
 3466      616C5F74 
ARM GAS  /tmp/ccsnLqbb.s 			page 97


 3466      696D6572 
 3466      00
 3467              	.LASF102:
 3468 03c8 63685F73 		.ascii	"ch_semaphore\000"
 3468      656D6170 
 3468      686F7265 
 3468      00
 3469              	.LASF90:
 3470 03d5 43435852 		.ascii	"CCXR\000"
 3470      00
 3471              	.LASF39:
 3472 03da 705F6570 		.ascii	"p_epending\000"
 3472      656E6469 
 3472      6E6700
 3473              	.LASF111:
 3474 03e5 73745F6C 		.ascii	"st_lld_get_counter\000"
 3474      6C645F67 
 3474      65745F63 
 3474      6F756E74 
 3474      657200
 3475              	.LASF15:
 3476 03f8 75696E74 		.ascii	"uint32_t\000"
 3476      33325F74 
 3476      00
 3477              	.LASF100:
 3478 0401 77746D74 		.ascii	"wtmtxp\000"
 3478      787000
 3479              	.LASF51:
 3480 0408 725F7175 		.ascii	"r_queue\000"
 3480      65756500 
 3481              	.LASF62:
 3482 0410 76745F64 		.ascii	"vt_delta\000"
 3482      656C7461 
 3482      00
 3483              	.LASF46:
 3484 0419 63685F74 		.ascii	"ch_threads_list\000"
 3484      68726561 
 3484      64735F6C 
 3484      69737400 
 3485              	.LASF128:
 3486 0429 2F6E6673 		.ascii	"/nfs/nfs4/home/irbrown/Courses/P442/P442WifiTrailCo"
 3486      2F6E6673 
 3486      342F686F 
 3486      6D652F69 
 3486      7262726F 
 3487 045c 756E7465 		.ascii	"unterProject/milestone4\000"
 3487      7250726F 
 3487      6A656374 
 3487      2F6D696C 
 3487      6573746F 
 3488              	.LASF9:
 3489 0474 6C6F6E67 		.ascii	"long unsigned int\000"
 3489      20756E73 
 3489      69676E65 
 3489      6420696E 
 3489      7400
 3490              	.LASF133:
ARM GAS  /tmp/ccsnLqbb.s 			page 98


 3491 0486 73745374 		.ascii	"stStopAlarm\000"
 3491      6F70416C 
 3491      61726D00 
 3492              	.LASF109:
 3493 0492 63686172 		.ascii	"char\000"
 3493      00
 3494              	.LASF82:
 3495 0497 534D4352 		.ascii	"SMCR\000"
 3495      00
 3496              	.LASF0:
 3497 049c 756E7369 		.ascii	"unsigned int\000"
 3497      676E6564 
 3497      20696E74 
 3497      00
 3498              	.LASF88:
 3499 04a9 444D4152 		.ascii	"DMAR\000"
 3499      00
 3500              	.LASF26:
 3501 04ae 74687265 		.ascii	"thread_t\000"
 3501      61645F74 
 3501      00
 3502              	.LASF108:
 3503 04b7 6D5F6E65 		.ascii	"m_next\000"
 3503      787400
 3504              	.LASF25:
 3505 04be 73797374 		.ascii	"systime_t\000"
 3505      696D655F 
 3505      7400
 3506              	.LASF41:
 3507 04c8 705F7265 		.ascii	"p_realprio\000"
 3507      616C7072 
 3507      696F00
 3508              	.LASF57:
 3509 04d3 76746675 		.ascii	"vtfunc_t\000"
 3509      6E635F74 
 3509      00
 3510              	.LASF8:
 3511 04dc 5F5F7569 		.ascii	"__uint32_t\000"
 3511      6E743332 
 3511      5F7400
 3512              	.LASF70:
 3513 04e7 70616E69 		.ascii	"panic_msg\000"
 3513      635F6D73 
 3513      6700
 3514              	.LASF92:
 3515 04f1 6F666673 		.ascii	"offset\000"
 3515      657400
 3516              	.LASF125:
 3517 04f8 73745374 		.ascii	"stStartAlarm\000"
 3517      61727441 
 3517      6C61726D 
 3517      00
 3518              	.LASF80:
 3519 0505 636F6E74 		.ascii	"context\000"
 3519      65787400 
 3520              	.LASF112:
 3521 050d 706F7274 		.ascii	"port_timer_get_time\000"
ARM GAS  /tmp/ccsnLqbb.s 			page 99


 3521      5F74696D 
 3521      65725F67 
 3521      65745F74 
 3521      696D6500 
 3522              	.LASF17:
 3523 0521 7274636E 		.ascii	"rtcnt_t\000"
 3523      745F7400 
 3524              	.LASF64:
 3525 0529 76745F70 		.ascii	"vt_par\000"
 3525      617200
 3526              	.LASF121:
 3527 0530 76746675 		.ascii	"vtfunc\000"
 3527      6E6300
 3528              	.LASF47:
 3529 0537 74687265 		.ascii	"threads_queue_t\000"
 3529      6164735F 
 3529      71756575 
 3529      655F7400 
 3530              	.LASF105:
 3531 0547 63685F6D 		.ascii	"ch_mutex\000"
 3531      75746578 
 3531      00
 3532              	.LASF36:
 3533 0550 705F7265 		.ascii	"p_refs\000"
 3533      667300
 3534              	.LASF73:
 3535 0557 726C6973 		.ascii	"rlist\000"
 3535      7400
 3536              	.LASF124:
 3537 055d 73745365 		.ascii	"stSetAlarm\000"
 3537      74416C61 
 3537      726D00
 3538              	.LASF129:
 3539 0568 706F7274 		.ascii	"port_timer_stop_alarm\000"
 3539      5F74696D 
 3539      65725F73 
 3539      746F705F 
 3539      616C6172 
 3540              	.LASF126:
 3541 057e 474E5520 		.ascii	"GNU C 4.8.4 20140526 (release) [ARM/embedded-4_8-br"
 3541      4320342E 
 3541      382E3420 
 3541      32303134 
 3541      30353236 
 3542 05b1 616E6368 		.ascii	"anch revision 211358] -mcpu=cortex-m4 -mno-thumb-in"
 3542      20726576 
 3542      6973696F 
 3542      6E203231 
 3542      31333538 
 3543 05e4 74657277 		.ascii	"terwork -mthumb -ggdb -O2 -fomit-frame-pointer -fal"
 3543      6F726B20 
 3543      2D6D7468 
 3543      756D6220 
 3543      2D676764 
 3544 0617 69676E2D 		.ascii	"ign-functions=16 -ffunction-sections -fdata-section"
 3544      66756E63 
 3544      74696F6E 
ARM GAS  /tmp/ccsnLqbb.s 			page 100


 3544      733D3136 
 3544      202D6666 
 3545 064a 73202D66 		.ascii	"s -fno-common -flto\000"
 3545      6E6F2D63 
 3545      6F6D6D6F 
 3545      6E202D66 
 3545      6C746F00 
 3546              	.LASF96:
 3547 065e 77746F62 		.ascii	"wtobjp\000"
 3547      6A7000
 3548              	.LASF33:
 3549 0665 705F6E61 		.ascii	"p_name\000"
 3549      6D6500
 3550              	.LASF44:
 3551 066c 74687265 		.ascii	"threads_list_t\000"
 3551      6164735F 
 3551      6C697374 
 3551      5F7400
 3552              	.LASF18:
 3553 067b 746D6F64 		.ascii	"tmode_t\000"
 3553      655F7400 
 3554              	.LASF35:
 3555 0683 705F666C 		.ascii	"p_flags\000"
 3555      61677300 
 3556              	.LASF107:
 3557 068b 6D5F6F77 		.ascii	"m_owner\000"
 3557      6E657200 
 3558              	.LASF63:
 3559 0693 76745F66 		.ascii	"vt_func\000"
 3559      756E6300 
 3560              		.comm	__gnu_lto_v1,1,1
 3561              		.ident	"GCC: (GNU Tools for ARM Embedded Processors) 4.8.4 20140526 (release) [ARM/embedded-4_8-br
ARM GAS  /tmp/ccsnLqbb.s 			page 101


DEFINED SYMBOLS
                            *ABS*:00000000 chvt.c
     /tmp/ccsnLqbb.s:531    .text._vt_init:00000000 $t
     /tmp/ccsnLqbb.s:537    .text._vt_init:00000000 _vt_init
     /tmp/ccsnLqbb.s:565    .text._vt_init:00000018 $d
     /tmp/ccsnLqbb.s:570    .text.chVTDoSetI:00000000 $t
     /tmp/ccsnLqbb.s:576    .text.chVTDoSetI:00000000 chVTDoSetI
     /tmp/ccsnLqbb.s:741    .text.chVTDoSetI:00000074 $d
     /tmp/ccsnLqbb.s:749    .text.chVTDoResetI:00000000 $t
     /tmp/ccsnLqbb.s:755    .text.chVTDoResetI:00000000 chVTDoResetI
     /tmp/ccsnLqbb.s:900    .text.chVTDoResetI:00000070 $d
                            *COM*:00000001 __gnu_lto_v1
                     .debug_frame:00000010 $d
     /tmp/ccsnLqbb.s:569    .text._vt_init:0000001c $t
     /tmp/ccsnLqbb.s:748    .text.chVTDoSetI:00000078 $t
     /tmp/ccsnLqbb.s:908    .text.chVTDoResetI:00000074 $t

UNDEFINED SYMBOLS
ch
stSetAlarm
stStartAlarm
stStopAlarm
