ARM GAS  /tmp/ccQm5rwd.s 			page 1


   1              		.syntax unified
   2              		.cpu cortex-m4
   3              		.fpu softvfp
   4              		.eabi_attribute 20, 1
   5              		.eabi_attribute 21, 1
   6              		.eabi_attribute 23, 3
   7              		.eabi_attribute 24, 1
   8              		.eabi_attribute 25, 1
   9              		.eabi_attribute 26, 1
  10              		.eabi_attribute 30, 2
  11              		.eabi_attribute 34, 1
  12              		.eabi_attribute 18, 4
  13              		.thumb
  14              		.file	"crt1.c"
  15              		.text
  16              	.Ltext0:
  17              		.section	.gnu.lto_.jmpfuncs.7f1c0518ccf14f0e,"",%progbits
  18 0000 789C6362 		.ascii	"x\234cb`b\300\006x\2404+\003\003#P\0113\003\013\003"
  18      6062C006 
  18      78A0342B 
  18      03032350 
  18      0933030B 
  19 0015 03000236 		.ascii	"\003\000\0026\000 "
  19      0020
  20              		.text
  21              		.section	.gnu.lto_.inline.7f1c0518ccf14f0e,"",%progbits
  22 0000 789C6362 		.ascii	"x\234cb`b\300\006\342\2414+\003\0033\023#X\021\333\002"
  22      6062C006 
  22      E2A1342B 
  22      03033313 
  22      235811DB 
  23 0015 79B05A46 		.ascii	"y\260ZF\014\021&\014\021f \017\"\302\002\261\200\205"
  23      0C11260C 
  23      1166200F 
  23      22C202B1 
  23      8085
  24 0027 41E41527 		.ascii	"A\344\025'PD\251m\321LF\2702\006\000\3774\006\240"
  24      5044A96D 
  24      D14C46B8 
  24      320600FF 
  24      3406A0
  25              		.text
  26              		.section	.gnu.lto_.pureconst.7f1c0518ccf14f0e,"",%progbits
  27 0000 789C6362 		.ascii	"x\234cb`b\340f\200\000V\006\011F\011&\011f\023\026)"
  27      6062E066 
  27      80005606 
  27      09460926 
  27      09661316 
  28 0015 00044D00 		.ascii	"\000\004M\000\265"
  28      B5
  29              		.text
  30              		.section	.gnu.lto___core_init.7f1c0518ccf14f0e,"",%progbits
  31 0000 789C6362 		.ascii	"x\234cb`b@\007\222@\034\014\304\226@\314\310\314\300"
  31      60624007 
  31      92401C0C 
  31      C49640CC 
  31      C8CCC0
ARM GAS  /tmp/ccQm5rwd.s 			page 2


  32 0013 C834E11C 		.ascii	"\3104\341\034\003C#\007\023##\210\301\300\310P\317\304"
  32      03432307 
  32      13232388 
  32      C1C0C850 
  32      CFC4
  33 0025 581FC908 		.ascii	"X\037\311\010V\273\236\351\300\203\377\377\327m\353"
  33      56BB9EE9 
  33      C083FFFF 
  33      D76DEB
  34 0034 9A338771 		.ascii	"\2323\207q\025\023\310,V\206\226\206\206\011\012\014"
  34      1513C82C 
  34      56869686 
  34      86090A0C 
  35 0044 0CC96015 		.ascii	"\014\311`\025!@\022\244-\224\221\011D3_d`Ld\\\310\310"
  35      214012A4 
  35      2D949109 
  35      44335F64 
  35      604C645C 
  36 005a 0AB72D84 		.ascii	"\012\267-\204\221\021$\001\322j\256\247\247\357\234"
  36      91112401 
  36      D26AAEA7 
  36      A7EF9C
  37 0069 919994E9 		.ascii	"\221\231\224\351\037\254\237_\254\237\234\237\233\233"
  37      1FAC9F5F 
  37      AC9F9C9F 
  37      9B9B
  38 0077 9FA75F90 		.ascii	"\237\247_\220_TR\254\357\030\344\353\354[\001\022+\310"
  38      5F5452AC 
  38      EF18E4EB 
  38      EC5B0112 
  38      2BC8
  39 0089 CC492D2A 		.ascii	"\314I-*\326wwv\326O.*1\324Kf\000\000\273\274)\321"
  39      D6777776 
  39      D64F2E2A 
  39      31D44B66 
  39      0000BBBC 
  40              		.text
  41              		.section	.gnu.lto___early_init.7f1c0518ccf14f0e,"",%progbits
  42 0000 789C6362 		.ascii	"x\234cb`b@\007\222@\034\000\304\226@\314\310\314\300"
  42      60624007 
  42      92401C00 
  42      C49640CC 
  42      C8CCC0
  43 0013 C834E11C 		.ascii	"\3104\341\034\003C#\007\023##\210\301\300\310P\317\304"
  43      03432307 
  43      13232388 
  43      C1C0C850 
  43      CFC4
  44 0025 581FC908 		.ascii	"X\037\311\010V\273\236\351\300\203\377\377\327\3759"
  44      56BB9EE9 
  44      C083FFFF 
  44      D7FD39
  45 0034 35470264 		.ascii	"5G\002d\020+CKC\303\004\005\006\206d\260t\010\220\004"
  45      102B434B 
  45      43C30405 
  45      068664B0 
  45      74089004 
ARM GAS  /tmp/ccQm5rwd.s 			page 3


  46 0048 E9096564 		.ascii	"\351\011ed\002\321\314\027\031\030\023\031\0272\262"
  46      02D1CC17 
  46      19181319 
  46      1732B2
  47 0057 C2AD0A61 		.ascii	"\302\255\012ad\004I\200\264\232\353\351\351;gd&e\372"
  47      64044980 
  47      B49AEBE9 
  47      E93B6764 
  47      2665FA
  48 006a 07EBE717 		.ascii	"\007\353\347\027\353'\347\347\346\346\347\351\027\344"
  48      EB27E7E7 
  48      E6E6E7E9 
  48      17E4
  49 0078 179514EB 		.ascii	"\027\225\024\353;\006\371:\373V\200\304\0122sR\213\212"
  49      3B06F93A 
  49      FB5680C4 
  49      0A327352 
  49      8B8A
  50 008a F5DD9D9D 		.ascii	"\365\335\235\235\365\223\213J\014\365\222\031\000C\333"
  50      F5938B4A 
  50      0CF59219 
  50      0043DB
  51 0099 2923     		.ascii	")#"
  52              		.text
  53              		.section	.gnu.lto___late_init.7f1c0518ccf14f0e,"",%progbits
  54 0000 789C6362 		.ascii	"x\234cb`b@\007\222@\034\000\304\226@\314\310\314\300"
  54      60624007 
  54      92401C00 
  54      C49640CC 
  54      C8CCC0
  55 0013 C834E11C 		.ascii	"\3104\341\034\003C#\007\023##\210\301\300\310P\317\304"
  55      03432307 
  55      13232388 
  55      C1C0C850 
  55      CFC4
  56 0025 581FC908 		.ascii	"X\037\311\010V\273\236\351\300\203\377\377\327\355\350"
  56      56BB9EE9 
  56      C083FFFF 
  56      D7EDE8
  57 0034 9E230132 		.ascii	"\236#\0012\210\225\241\245\241a\202\002\003C2X:\004"
  57      8895A1A5 
  57      A1618202 
  57      03433258 
  57      3A04
  58 0046 4882F484 		.ascii	"H\202\364\20422\201h\346\213\014\214\211\214\013\031"
  58      32328168 
  58      E68B0C8C 
  58      898C0B19 
  59 0056 59E15685 		.ascii	"Y\341V\20502\202$@Z\315\365\364\364\23532\2232\375\203"
  59      30328224 
  59      405ACDF5 
  59      F4F49D33 
  59      329332FD 
  60 006b F5F38BF5 		.ascii	"\365\363\213\365\223\363ss\363\363\364\013\362\213J"
  60      93F37373 
  60      F3F3F40B 
  60      F28B4A
ARM GAS  /tmp/ccQm5rwd.s 			page 4


  61 007a 8AF51D83 		.ascii	"\212\365\035\203|\235}+@b\005\2319\251E\305\372\356"
  61      7C9D7D2B 
  61      40620599 
  61      39A945C5 
  61      FAEE
  62 008c CECEFAC9 		.ascii	"\316\316\372\311E%\206z\311\014\000\005)(\240"
  62      4525867A 
  62      C90C0005 
  62      2928A0
  63              		.text
  64              		.section	.gnu.lto___default_exit.7f1c0518ccf14f0e,"",%progbits
  65 0000 789C6362 		.ascii	"x\234cb`b@\007:@\354\003\304\226@\314\310\312\300\310"
  65      60624007 
  65      3A40EC03 
  65      C49640CC 
  65      C8CAC0C8 
  66 0014 34E11C03 		.ascii	"4\341\034\003C#\007\023#3\210\301\310\314\310\002\021"
  66      43230713 
  66      233388C1 
  66      C8CCC802 
  66      11
  67 0025 60810838 		.ascii	"`\201\010822\32431\2630\326G2\202\265\257g:\360\340"
  67      3232D433 
  67      31B330D6 
  67      473282B5 
  67      AF673AF0 
  68 003a FFFF759F 		.ascii	"\377\377u\237N\317}\303\270\236\011$\306\312\320\322"
  68      4ECF7DC3 
  68      B89E0924 
  68      C6CAD0D2 
  69 004a D0304181 		.ascii	"\3200A\201\201!\031\254\"\004H2\002I&\240Y!\214\314"
  69      812119AC 
  69      22044832 
  69      024926A0 
  69      59218CCC 
  70 005e 0C404318 		.ascii	"\014@C\030C\030Y\2404\304\020\006s==}\347\214\314\244"
  70      431859A0 
  70      34C41006 
  70      733D3D7D 
  70      E78CCCA4 
  71 0072 4CFF60FD 		.ascii	"L\377`\375\374b\375\344\374\334\334\374<\375\202\374"
  71      FC62FDE4 
  71      FCDCDCFC 
  71      3CFD82FC 
  72 0082 A292627D 		.ascii	"\242\222b}\307 _g\337\012\220XAfNjQ\261\276\273\263"
  72      C7205F67 
  72      DF0A9058 
  72      41664E6A 
  72      51B1BEBB 
  73 0097 B37E7251 		.ascii	"\263~rQ\211\241^2\003\0000\212+\312"
  73      89A15E32 
  73      0300308A 
  73      2BCA
  74              		.text
  75              		.section	.gnu.lto___init_ram_areas.7f1c0518ccf14f0e,"",%progbits
  76 0000 789C8D54 		.ascii	"x\234\215TMhSA\020\236\331}\357\345\345\247&%\025,("
  76      4D685341 
ARM GAS  /tmp/ccQm5rwd.s 			page 5


  76      109ED97D 
  76      EFE5E5A7 
  76      2625152C 
  77 0015 96227810 		.ascii	"\226\"x\020\033<\025<\010\265\007OE\324\026\364 \232"
  77      1B3C153C 
  77      08B5074F 
  77      45D416F4 
  77      209A
  78 0027 46894163 		.ascii	"F\211AcC[AP\350\246MA\260h\364\324j\205\226R\254\"\210"
  78      435B4150 
  78      E8A64D41 
  78      B068F4D4 
  78      6A859652 
  79 003e 7A50AC42 		.ascii	"zP\254B\012B\355\301`\217\025\017\021\261\202z\221*"
  79      0A42EDC1 
  79      608F150F 
  79      11B1827A 
  79      912A
  80 0050 FE15E3EC 		.ascii	"\376\025\343\354\333}\257\244\244\352B2\273\363\363"
  80      DB7DAFA4 
  80      A4EA4232 
  80      BBF3F3
  81 005f CDCCB73B 		.ascii	"\315\314\267;\217\001\203\325k\200~'M\200\335$1\004"
  81      8F0183D5 
  81      6B807E27 
  81      4D80DD24 
  81      3104
  82 0071 C8F24580 		.ascii	"\310\362E\200\254\315\220\253\015GSm\014\265\231\261"
  82      ACCD90AB 
  82      0D47536D 
  82      0CB599B1 
  83 0081 4D660CCD 		.ascii	"Mf\014\315\002\210\200\225\363\201\010YhK=\372\224\234"
  83      02888095 
  83      F3810859 
  83      684B3DFA 
  83      949C
  84 0093 B16DE653 		.ascii	"\261m\346Sv\277c\367\263\240:\006\234cP\001\267\004"
  84      76BF63F7 
  84      B3A03A06 
  84      9C635001 
  84      B704
  85 00a5 10A50484 		.ascii	"\020\245\004\204>\306\015\323\362\331\376`\000\373\016"
  85      3EC60DD3 
  85      F2D9FE60 
  85      00FB0E
  86 00b4 A12C8A37 		.ascii	"\241,\2127\302\270\020WK\203o\347\371\210(\344\306\304"
  86      C2B81057 
  86      4B836FE7 
  86      F98828E4 
  86      C6C4
  87 00c6 72B98C98 		.ascii	"r\271\214\230Bj`'B\002\341 \035\260\301\021\314\250"
  87      426A6027 
  87      4202E120 
  87      1DB0C111 
  87      CCA8
  88 00d8 EC48C516 		.ascii	"\354H\305\026\356\025/\327\213\261\376\274\370M\241"
  88      EE152FD7 
ARM GAS  /tmp/ccQm5rwd.s 			page 6


  88      8BB1FEBC 
  88      F84DA1
  89 00e7 29E40C76 		.ascii	")\344\014v\375g\344\375b(\237\275 \312\345>'\254\345"
  89      FD67E4FD 
  89      62289FBD 
  89      20CAE53E 
  89      27ACE5
  90 00fa 5F617759 		.ascii	"_awY\241T.?\371\374\345\3154F\327#\304q\034\033\251"
  90      A1542E3F 
  90      F9FCE5CD 
  90      3446D723 
  90      C4711C1B 
  91 010f D2384E90 		.ascii	"\3228N\220\344$'I\032Z\332Z\006\264=\250\317!\240l5"
  91      E4242749 
  91      1A5ADA5A 
  91      06B43DA8 
  91      CF21A06C 
  92 0124 F46784B5 		.ascii	"\364g\204\265&\242=j\245%\252\225u\032\236\226\0119"
  92      26A23D6A 
  92      A525AA95 
  92      751A9E96 
  92      0939
  93 0136 21F20DEE 		.ascii	"!\362\015\3569\341P\327N\377\363\000\035\310H\3609\350"
  93      39E150D7 
  93      4EFFF300 
  93      1DC848F0 
  93      39E8
  94 0148 2F0DCDAE 		.ascii	"/\015\315\256\213\343M4u\3409\370)\206\205\270B\215"
  94      8BE34D34 
  94      75E039F8 
  94      298685B8 
  94      428D
  95 015a 98695CE9 		.ascii	"\230i\\\351\242\0039\344|2\302\006\355\232D\262\277"
  95      A20339E4 
  95      7C32C206 
  95      ED9A44B2 
  95      BF
  96 016b 80FE57C3 		.ascii	"\200\376W\303\213?\320\313&KR\265H?\011L+\211\201mp"
  96      8B3FD0CB 
  96      264B52B5 
  96      483F094C 
  96      2B89816D 
  97 0180 5BE48538 		.ascii	"[\344\2058\222B\353:\\#x\037\305K\276\024~\247\227\213"
  97      9242EB3A 
  97      5C23781F 
  97      C54BBE14 
  97      7EA7978B 
  98 0194 521436C7 		.ascii	"R\0246\307\361\226S\322\204\223'\240\362L-\242\322'"
  98      F19653D2 
  98      849327A0 
  98      F24C2DA2 
  98      D227
  99 01a6 31A8E10E 		.ascii	"1\250\341\016\257\011\207\325\340&\035\270\240\324/"
  99      AF0987D5 
  99      E0261DB8 
  99      A0D42F
 100 01b5 00AA5E0B 		.ascii	"\000\252^\013#\227\266x\315\262)\302\251\013.\177=*"
ARM GAS  /tmp/ccQm5rwd.s 			page 7


 100      2397B678 
 100      CDB229C2 
 100      A90B2E7F 
 100      3D2A
 101 01c7 5B3680DE 		.ascii	"[6\200\336&\247\324\217\007\277\215nts\327\250\204v"
 101      26A7D48F 
 101      07BF8D6E 
 101      7473D7A8 
 101      8476
 102 01d9 12994CC8 		.ascii	"\022\231L\310u\"r\233{i)'\362\310\012!\302\216\027_"
 102      7522729B 
 102      7B692927 
 102      F2C80A21 
 102      C28E175F 
 103 01ed F1A260E9 		.ascii	"\361\242`\3518pq\340\327\350\006\027/\254]\234\2073"
 103      387071E0 
 103      D7E80617 
 103      2FAC5D9C 
 103      8733
 104 01ff 07ACB2D8 		.ascii	"\007\254\262\330\260\016(\217\326\273\001\021\235yu"
 104      B00E288F 
 104      D6BB0111 
 104      9D7975
 105 020e 80222BE2 		.ascii	"\200\"+\342^\230\0114B\336\215)4\356\020\342(\2247\323"
 105      5E980934 
 105      42DE8D29 
 105      34EE10E2 
 105      289437D3 
 106 0222 57F87E81 		.ascii	"W\370~\201\271\360!\311mdMb\335\217\304sx\266\230m\366"
 106      B9F021C9 
 106      6D644D62 
 106      DD8FC473 
 106      78B6986D 
 107 0237 82921E11 		.ascii	"\202\222\036\021D-\243;\343CK\347\251\032cy\351\330"
 107      442DA33B 
 107      E3434BE7 
 107      A91A6379 
 107      E9D8
 108 0249 0270629D 		.ascii	"\002pb\235\217JE\330\370\264\344\220k\311\367$\235%"
 108      8F4A45D8 
 108      F8B4E490 
 108      6BC9F724 
 108      9D25
 109 025b 45264A95 		.ascii	"E&J\225\317\345\373\321\360\307y\254B\245\261B\245\334"
 109      CFE5FBD1 
 109      F0C779AC 
 109      42A5B142 
 109      A5DC
 110 026d D98A7762 		.ascii	"\331\212wb\347\341\015\217\316\250v\253Ng\324e\307\226"
 110      E7E10D8F 
 110      CEA876AB 
 110      4E67D465 
 110      C796
 111 027f EC60253B 		.ascii	"\354`%;\206\"\343\373\207\0252j\377N\006\257JF\255\003"
 111      8622E3FB 
 111      8715326A 
 111      FF4E06AF 
ARM GAS  /tmp/ccQm5rwd.s 			page 8


 111      4A46AD03 
 112 0293 E5926124 		.ascii	"\345\222a$\321\266\220R\373^\253g\345\227\235;e?\335"
 112      D1B69052 
 112      FB5EAB67 
 112      E5979D3B 
 112      653FDD
 113 02a6 E486D469 		.ascii	"\344\206\324i`\026\251\254Z\015Z\235\223\341\335\314"
 113      6016A9AC 
 113      5A0D5A9D 
 113      93E1DDCC 
 114 02b6 5211D54C 		.ascii	"R\021\325L\221JO\352>*f;\334\221\303p\206\352K\253o"
 114      914A4FEA 
 114      3E2A663B 
 114      DC91C370 
 114      86EA4BAB 
 115 02cb 91DF866A 		.ascii	"\221\337\206j\253\235\336\376\003\013;h\242h\374\347"
 115      AB9DDEFE 
 115      030B3B68 
 115      A268FCE7 
 116 02db 215B9ADE 		.ascii	"![\232\336\352\015\251\366@2\311;nnj\212\265\236Hu\246"
 116      EA0DA9F6 
 116      4032C93B 
 116      6E6E6A8A 
 116      B59E4875 
 117 02f0 F61E8875 		.ascii	"\366\036\210u\365\304\022]\351t\327\351X\246\253\273"
 117      F5C4125D 
 117      E974D7E9 
 117      58A6ABBB 
 118 0300 B727D6B2 		.ascii	"\267'\326\262\277\255\265\355\254\324eR\247\216w\367"
 118      BFADB5ED 
 118      ACD46552 
 118      A78E77F7 
 119 0310 C4F6B4B6 		.ascii	"\304\366\264\266\306\022\335\275;\232\022\300\273\343"
 119      C612DDBD 
 119      3B9A12C0 
 119      BBE3
 120 031e 19D69BC1 		.ascii	"\031\326\233\301\314\037\034\375V\206"
 120      CC1F1CFD 
 120      5686
 121              		.text
 122              		.section	.gnu.lto_.symbol_nodes.7f1c0518ccf14f0e,"",%progbits
 123 0000 789C4DD0 		.ascii	"x\234M\320YN\002Q\020F\341:\267\273\025p\002E@\020u"
 123      594E0251 
 123      1046E13A 
 123      B7BB1570 
 123      02454010 
 124 0015 0F6E825D 		.ascii	"\017n\202]]\024Af\231d\020\004V\304\206D\321?\306H\275"
 124      5D144166 
 124      99641004 
 124      56C48644 
 124      D13FC648 
 125 002a 7C39A9A4 		.ascii	"|9\251\244\036\312\231\263{\354w\334\326\274Yoc\346"
 125      1ECA99B3 
 125      7BEC77DC 
 125      D6BC596F 
 125      63E6
 126 003c FDB28EFB 		.ascii	"\375\262\216\3734\317^~\231w{\2713\037\374e\311\225"
ARM GAS  /tmp/ccQm5rwd.s 			page 9


 126      34CF5E7E 
 126      99777BB9 
 126      331FFC65 
 126      C995
 127 004e F1E1FF32 		.ascii	"\361\341\3772\3720\013}\020=\300\317\311\350\021'*\004"
 127      FA300B7D 
 127      103DC0CF 
 127      C9E81127 
 127      2A04
 128 0060 E2895054 		.ascii	"\342\211PT\211D\215\003\361\314\241\250\023\023\015"
 128      89448D03 
 128      F1CCA1A8 
 128      13130D
 129 006f E2A24942 		.ascii	"\342\242IB\2648\022m\216E\207\023\321\345T\274p&z$E"
 129      B438126D 
 129      8E458713 
 129      D1E554BC 
 129      70267A24 
 130 0084 9F941870 		.ascii	"\237\224\030p.\206\\\210\021i\361\312\245\030\223\021"
 130      2E865C88 
 130      1169F1CA 
 130      A5189311 
 131 0094 13B2624A 		.ascii	"\023\262bJN\314\270\022o\344\305\234\202Xp-\336)\212"
 131      4ECCB812 
 131      6FE4C59C 
 131      8258702D 
 131      DE298A
 132 00a7 253762C5 		.ascii	"%7b\305\255Xs\247_}\003\001\303>\323"
 132      AD5873A7 
 132      5F7D0301 
 132      C33ED3
 133              		.text
 134              		.section	.gnu.lto_.refs.7f1c0518ccf14f0e,"",%progbits
 135 0000 789C25C1 		.ascii	"x\234%\301[\026BP\000\000\300{\346\270Ry\246\007J\221"
 135      5B164250 
 135      0000C07B 
 135      E6B85279 
 135      A6074A91 
 136 0014 2CA6FD6F 		.ascii	",\246\375o\310\207\031A\370\207\235D\024\247(u\2209"
 136      C8871941 
 136      F8879D44 
 136      14A72875 
 136      9039
 137 0026 3A39CB15 		.ascii	":9\313\025J\225Z\343\242uus\367\320\351\015\236^Fo\037"
 137      4A955AE3 
 137      A2757573 
 137      F7D0E90D 
 137      9E5E466F 
 138 003b 93D9D7E2 		.ascii	"\223\331\327\342g\015\033s\304\003w"
 138      670D1B73 
 138      C40377
 139              		.text
 140              		.section	.gnu.lto_.decls.7f1c0518ccf14f0e,"",%progbits
 141 0000 789CBD58 		.ascii	"x\234\275Xml\024E\030\236\331+m\257=\012\242b0\032\256"
 141      6D6C1445 
 141      189ED92B 
 141      6DAF3D0A 
ARM GAS  /tmp/ccQm5rwd.s 			page 10


 141      A262301A 
 142 0015 2A9A10DB 		.ascii	"*\232\020\333\345\256\327V\215\240\246?\360\017\232"
 142      E5AED756 
 142      8DA0A63F 
 142      F00F9A
 143 0024 6048FCB7 		.ascii	"`H\374\267Y\356\026{\241w\207w\333\000\372g\371\010"
 143      59EE167B 
 143      A1778777 
 143      DB00FA67 
 143      F908
 144 0036 34184D21 		.ascii	"4\030M!\0245\245\310\251\220\022\253iml)P\273m\002\026"
 144      1435A5C8 
 144      A99012AB 
 144      696D6C29 
 144      50BB6D02 
 145 004b 9B1AA4A9 		.ascii	"\233\032\244\251\246\026\303\305\317\240\230X%\030\010"
 145      A616C3C5 
 145      CFA09858 
 145      251808
 146 005a 72BEFB71 		.ascii	"r\276\373q\037;7sC\3778\351s7\273\373>\3573\373>\363"
 146      1F3B3773 
 146      43FF38E9 
 146      7337BBFB 
 146      3EEF33FB 
 147 0070 4ED30A48 		.ascii	"N\323\012H@=\030\2414\214\303\367 \364\273\013\241R"
 147      403D18A1 
 147      348CC3F7 
 147      20F4BB0B 
 147      A152
 148 0082 84D01A94 		.ascii	"\204\320\032\224\033\013\000I@7\240\007\320\013\030"
 148      1B0B0049 
 148      4037A007 
 148      D00B18
 149 0091 00540386 		.ascii	"\000T\003\206\000\337\000f\000\227\000\227\001?\002"
 149      00DF0066 
 149      00970097 
 149      013F02
 150 00a0 7E015C01 		.ascii	"~\001\\\001\\\005\374\011\370\033p\035p\003\360\257"
 150      5C05FC09 
 150      F81B701D 
 150      7003F0AF 
 151 00b0 9114345D 		.ascii	"\221\0244]\200R@\005`!`1\340n\300}\200\373\001\017\002"
 151      80524005 
 151      60216031 
 151      E06EC07D 
 151      80FB010F 
 152 00c5 BC804700 		.ascii	"\274\200G\000\217\001V\002j\000>@\000\320\010x\012#"
 152      8F015602 
 152      6A003E40 
 152      00D00878 
 152      0A23
 153 00d7 C748E6CD 		.ascii	"\307H\346\3151q\235\031\335DL7%\246\207\210\351\241"
 153      31719D19 
 153      DD444C37 
 153      25A68788 
 153      E9A1
 154 00e9 C4F41231 		.ascii	"\304\364\0221\275\224\030\243N\025\200\247!\240\012"
ARM GAS  /tmp/ccQm5rwd.s 			page 11


 154      BD9418A3 
 154      4E1580A7 
 154      21A00A
 155 00f8 BE3D8051 		.ascii	"\276=\200Q@\031`5\334[\0038\015\3631@\211\015\035p\036"
 155      40196035 
 155      DC5B0338 
 155      0DF33140 
 155      890D1D70 
 156 010d 300198B4 		.ascii	"0\001\230\264s\017\330\337CD\376\345\350\210vTO\375"
 156      730FD8DF 
 156      4344FEE5 
 156      E8887654 
 156      4FFD
 157 011f 7CBC6F99 		.ascii	"|\274o\231vt\347h:\375\014Z\212:4\030G\367h\032Ve\274"
 157      7674E768 
 157      3AFD0C5A 
 157      8A3A3418 
 157      47F7681A 
 158 0136 E65EF432 		.ascii	"\346^\3642\226q\225\033y\315\211\307m\212 $\343\367"
 158      9671951B 
 158      79CD89C7 
 158      6D8A2024 
 158      E3F7
 159 0148 F1527BB6 		.ascii	"\361R{\266\301e\245\023\214\202\256D'\200\337\256ic"
 159      C165A513 
 159      8C82AE44 
 159      2780DFAE 
 159      6963
 160 015a 0F13D585 		.ascii	"\017\023\325\205\341\202\030\370Y\227}\362(:f\310i\335"
 160      E18218F8 
 160      59977DF2 
 160      283A66C8 
 160      69DD
 161 016c 9ACB1433 		.ascii	"\232\313\0243\322%\361\362|\216\214?\300B\341\252\365"
 161      D225F1F2 
 161      7C8E8C3F 
 161      C042E1AA 
 161      F5
 162 017d 5B5F7ADA 		.ascii	"[_z\332GS\351\364rk)\002Z\217!\366C\2742\247$\343\343"
 162      4753E9F4 
 162      726B2902 
 162      5A8F21F6 
 162      43BC32A7 
 163 0194 392A4DAA 		.ascii	"9*M\252\233\224:A\225:9AHI\363\227\352!\245>\246H\215"
 163      9B943A41 
 163      953A3941 
 163      4849F397 
 163      EA21A53E 
 164 01ab EA7F9152 		.ascii	"\352\177\221R\233\231Rv1_\313/3M\271\227T\356\243(\247"
 164      9B995276 
 164      315FCB2F 
 164      334DB997 
 164      54EEA328 
 165 01c0 F4435F79 		.ascii	"\364C_y\332w\344+\357\302\371\322\254\354\003d\366A"
 165      DA77E42B 
 165      EFC2F9D2 
 165      ACEC0364 
ARM GAS  /tmp/ccQm5rwd.s 			page 12


 165      F641
 166 01d2 67F68750 		.ascii	"g\366\207PR\273pAO\357y\017\303\036\323\264\333\351"
 166      52BB7041 
 166      4FEF790F 
 166      C31ED3B4 
 166      DBE9
 167 01e4 34BE0BB5 		.ascii	"4\276\013\265\033i\274\343UK\320~s\273\301n\033\207"
 167      1B69BCE3 
 167      554BD07E 
 167      73BBC16E 
 167      1B87
 168 01f6 1D6EEF35 		.ascii	"\035n\3575\015g6\333b\310\260\002}\010\033J\277\261"
 168      0D6736DB 
 168      62C8B002 
 168      7D081B4A 
 168      BFB1
 169 0208 50B0A3BD 		.ascii	"P\260\243\275\314P\031\237\301+\0207\314\010\374\034"
 169      CC50199F 
 169      C12B1037 
 169      CC08FC1C 
 170 0218 2FB1DFCE 		.ascii	"/\261\337\316\314\257\351\227\025\257u\027\021o\235"
 170      CCAFE997 
 170      15AF7517 
 170      116F9D
 171 0227 37AA11AC 		.ascii	"7\252\021\254t\247>w\345<\326\016x*\321>\2702z\345\371"
 171      74A73E77 
 171      E53CD60E 
 171      782AD13E 
 171      B8327AE5 
 172 023c 71D068CB 		.ascii	"q\320h\313] j\327X/\222\232\331wv\024C%\340\301\030"
 172      5D206AD7 
 172      582F929A 
 172      D9777614 
 172      4325E0C1 
 173 0251 7643A1DB 		.ascii	"vC\241\333\004g\241\357<\325\324\2013OjZ\271\214\317"
 173      0467A1EF 
 173      3CD5D481 
 173      334F6A5A 
 173      B98CCF
 174 0264 9A890EB9 		.ascii	"\232\211\016\271\234\211d\\\346v\232\003\327\231\000"
 174      9C89645C 
 174      E6769A03 
 174      D79900
 175 0273 239BF9D8 		.ascii	"#\233\371\330\236\030\207\370\"4\337p\326\3510\212+"
 175      9E1887F8 
 175      2234DF70 
 175      D6E9308A 
 175      2B
 176 0284 33690494 		.ascii	"3i\004\2244\327e\324\226\026nO\255a\0078\352\235:v\244"
 176      34D765D4 
 176      96166E4F 
 176      AD610738 
 176      EA9D3A76 
 177 0299 0B0EA831 		.ascii	"\013\016\2501l\245\025P\357\274\363y\035\376]S\306W"
 177      6CA51550 
 177      EFBCF379 
 177      1DFE5D53 
ARM GAS  /tmp/ccQm5rwd.s 			page 13


 177      C657
 178 02ab 65729DBA 		.ascii	"er\235\272\223\\\345\314\265\351\327\363r\235\235w."
 178      935CE5CC 
 178      B5E9D7F3 
 178      729D9D77 
 178      2E
 179 02bc 2FB1C1AC 		.ascii	"/\261\301\254j\313x\004\266\261\214u\\\015\237\347\315"
 179      6ACB7804 
 179      B6B18C75 
 179      5C0D9FE7 
 179      CD
 180 02cd CF09F373 		.ascii	"\317\011\363s\022W\347\202\005t\261\300pk\003\347\345"
 180      1257E782 
 180      0574B1C0 
 180      706B03E7 
 180      E5
 181 02de CBED73C4 		.ascii	"\313\355s\304\317\230\351\226\362\314b5\353p\3115\254"
 181      CF98E996 
 181      F2CC6235 
 181      EB70C935 
 181      AC
 182 02ef 8C8773AF 		.ascii	"\214\207s\257W\020'\343\013\320\334\3060\367\260f\357"
 182      571027E3 
 182      0BD0DCC6 
 182      30F7B066 
 182      EF
 183 0300 613384B5 		.ascii	"a3\204\265S\276\306\356\254\266\307\235\233\2249^#\023"
 183      53BEC6EE 
 183      ACB6C79D 
 183      9B94395E 
 183      2313
 184 0312 052FFD43 		.ascii	"\005/\375C\366\245\331\313\270h\037B\001\324\257\265"
 184      F6A5D9CB 
 184      B8681F42 
 184      01D4AFB5 
 185 0322 E9C67175 		.ascii	"\351\306qu\012\026\2265\320\272\375\254\214O\233\325"
 185      0A169635 
 185      D0BAFDAC 
 185      8C4F9BD5 
 186 0332 31AAF23A 		.ascii	"1\252\362:\272\251\265i\372\376\275\202\345\246qn\245"
 186      BAA9B569 
 186      FAFEBD82 
 186      E5A6716E 
 186      A5
 187 0343 0EE86F9F 		.ascii	"\016\350o\237;\270LK\332\347V\246a\257\222+(x\251o\035"
 187      3BB84C4B 
 187      DAE756A6 
 187      61AF922B 
 187      2878A96F 
 188 0358 87A055F1 		.ascii	"\207\240U\361\214\302\027\017\020\012\307\013\025\322"
 188      8CC2170F 
 188      100AC70B 
 188      15D2
 189 0366 5C85EF08 		.ascii	"\\\205\357\010\205\211|\205\307\235\012{\006\012\025"
 189      85897C85 
 189      C79D0A7B 
 189      060A15
ARM GAS  /tmp/ccQm5rwd.s 			page 14


 190 0375 DE2CE129 		.ascii	"\336,\341)|O(L\346Wi5\241p\016\277\253\215\355\326\264"
 190      7C4F284C 
 190      E6576935 
 190      A1700EBF 
 190      AB8DEDD6 
 191 038a 5B2091D5 		.ascii	"[ \221\3258\314\325H9\177Y\330a\270\210A\035\204A]4"
 191      38CCD548 
 191      397F59D8 
 191      61B88841 
 191      1D84415D 
 192 039f 837AB8C2 		.ascii	"\203z\270\302?\261\015\352 \014\352\242\0314\302U\370"
 192      3FB10DEA 
 192      200CEAA2 
 192      1934C255 
 192      F8
 193 03b0 956D5007 		.ascii	"\225mP\007aP\027\315\240I\256\302ol\203:\010\203\272"
 193      615017CD 
 193      A049AEC2 
 193      6F6C833A 
 193      0883BA
 194 03c3 E8065DE2 		.ascii	"\350\006]\342j\374A5H(bP'aP?\265\203\270\302sl\203:"
 194      6AFC4135 
 194      48286250 
 194      2761503F 
 194      B583B8C2 
 195 03db 0983FAA9 		.ascii	"\011\203\372\251\035\304U\270\3066\250\2230\250\237"
 195      1DC455B8 
 195      C636A893 
 195      30A89F
 196 03ea DA410B78 		.ascii	"\332A\013x\012\377\260\015\352$\014\352gt\020W\343&"
 196      0AFFB00D 
 196      EA240CEA 
 196      67741057 
 196      E326
 197 03fc D5205711 		.ascii	"\325 W\021\203\372\010\203\206\250\035\304\025\276\315"
 197      83FA0883 
 197      86A81DC4 
 197      15BECD
 198 040b 36A88F30 		.ascii	"6\250\2170h\210\332A\\\205\035\002\323\240>\302\240"
 198      6888DA41 
 198      5C851D02 
 198      D3A03EC2 
 198      A0
 199 041c 216A0771 		.ascii	"!j\007q\025v\013L\203\372\010\203\206\030\035\304\325"
 199      15760B4C 
 199      83FA0883 
 199      86181DC4 
 199      D5
 200 042d D82BD00C 		.ascii	"\330+\320\014*)b\320 a\320\010\265\203\270\302o\010"
 200      2A2962D0 
 200      2061D008 
 200      B583B8C2 
 200      6F08
 201 043f 4C830609 		.ascii	"L\203\006\011\203F\250\035\304Ux\213m\320 a\320\010"
 201      8346A81D 
 201      C455788B 
 201      6DD02061 
ARM GAS  /tmp/ccQm5rwd.s 			page 15


 201      D008
 202 0451 B5834A79 		.ascii	"\265\203Jy\012\373\331\006\015\022\006\2150:\210\253"
 202      0AFBD906 
 202      0D12068D 
 202      303A88AB 
 203 0461 71906AD0 		.ascii	"q\220j\320\202\"\006\015\023\006MS;\210+\374\016\333"
 203      8222060D 
 203      13064D53 
 203      3B882BFC 
 203      0EDB
 204 0473 A061C2A0 		.ascii	"\240a\302\240ij\007q\025:\331\006\015\023\006MS;\210"
 204      696A0771 
 204      153AD906 
 204      0D13064D 
 204      533B88
 205 0486 AB70846D 		.ascii	"\253p\204m\3200a\3204\243\203\270\032I\252A\245E\014"
 205      D03061D0 
 205      34A383B8 
 205      1A49AA41 
 205      A5450C
 206 0499 9A220C9A 		.ascii	"\232\"\014\232\245v\020W\370\030\333\240)\302\240Yj"
 206      A5761057 
 206      F818DBA0 
 206      29C2A059 
 206      6A
 207 04aa 077115BA 		.ascii	"\007q\025\272\331\006M\021\006\315R;\250\214\247\360"
 207      D9064D11 
 207      06CD523B 
 207      A88CA7F0 
 208 04ba 11DBA029 		.ascii	"\021\333\240)\302\240YF\007q5>\241\032TV\304\240\031"
 208      C2A05946 
 208      0771353E 
 208      A11A5456 
 208      C4A019
 209 04cd C2A0396A 		.ascii	"\302\2409j\007q\205?e\0334C\0304G\355 \256\302gl\203"
 209      0771853F 
 209      651B3443 
 209      183447ED 
 209      20AEC267 
 210 04e3 660883E6 		.ascii	"f\010\203\346\250\035\304U8\3116h\2060h\216\321A\\\215"
 210      A81DC455 
 210      38C93668 
 210      8630688E 
 210      D1415C8D 
 211 04f7 D34E8310 		.ascii	"\323N\203\020r\374\353\302\362\207\305=#T2Xy\177R\025"
 211      72FCEBC2 
 211      F287C53D 
 211      23543258 
 211      797F5215 
 212 050b B086292C 		.ascii	"\260\206),\335d\031k\276\203\377\032\240\306\332Z\261"
 212      DD64196B 
 212      BE83FF1A 
 212      A0C6DA5A 
 212      B1
 213 051c A939BC31 		.ascii	"\2519\2741\374\342Kb,!\006c\221H,*n\211\305\325\204"
 213      FCE24B62 
 213      2C210663 
ARM GAS  /tmp/ccQm5rwd.s 			page 16


 213      91482C2A 
 213      6E89C5D5 
 214 0531 F8DCFA75 		.ascii	"\370\334\372uM\353\266\031\367\266\204[\224xB\\\333"
 214      4DEBB619 
 214      F7B6845B 
 214      9478425C 
 214      DB
 215 0542 D42406E3 		.ascii	"\324$\006\343\252\2576\210*%)\030\213+R8\032VK\327\276"
 215      AAAF3688 
 215      2A252918 
 215      8B2B5238 
 215      1A564BD7 
 216 0557 B0C1DB84 		.ascii	"\260\301\333\204J\266*\362f\217$)r\274e\273\371\000"
 216      4AB62AF2 
 216      668F2429 
 216      72BC65BB 
 216      F900
 217 0569 825A64D5 		.ascii	"\202Zd\325\012\252\222\244\220\262InmQ%e[X-\217\002"
 217      0AAA92A4 
 217      90B2496E 
 217      6D512565 
 217      5B582D8F 
 218 057e 5B6D8D47 		.ascii	"[m\215G\027K\346c).G$9\256\310\211\204\030\335d\242"
 218      174BE663 
 218      292E4724 
 218      39AEC889 
 218      8418DD64 
 219 0593 5E6C8E45 		.ascii	"^l\216E\0241\256$ c\260Yl\226\343\241\255\020\"\312"
 219      1431AE24 
 219      2063B059 
 219      6C96E3A1 
 219      AD1022CA 
 220 05a7 F1885F7C 		.ascii	"\361\210_|%\030\254\201I\215\022\331\250\204BJ({#\032"
 220      2518AC81 
 220      498D12D9 
 220      A884424A 
 220      287B231A 
 221 05bb 8B2A358A 		.ascii	"\213*5\212\2741\\\023\220\236\250\361\257\362\005^\365"
 221      BC315C13 
 221      909EA8F1 
 221      AFF2055E 
 221      F5
 222 05cc 8B8E0762 		.ascii	"\213\216\007b8\032li\015)bB\015\205\243jm3*o\205\357"
 222      381A6C69 
 222      0D296242 
 222      0D85A36A 
 222      6D332A6F 
 223 05e2 3ABFA4EE 		.ascii	":\277\244\356\302\377\237zD\0166\207\243\212\230\255"
 223      C2FF9F7A 
 223      440E3687 
 223      A38A98AD 
 224 05f2 8BBA7D8B 		.ascii	"\213\272}\213\222\200\325THRf=UfmTe\233j\026\307m^\032"
 224      9280D554 
 224      4852663D 
 224      55666D54 
 224      659B6A16 
 225 060a B38A600B 		.ascii	"\263\212`\013\254\313\234z\2421){\177\221Q\307\354\225"
ARM GAS  /tmp/ccQm5rwd.s 			page 17


 225      ACCB9C7A 
 225      A231297B 
 225      7F9151C7 
 225      EC95
 226 061c A4BAB375 		.ascii	"\244\272\263u]\"\0315^%\3452J\013\363oIU\366\225\225"
 226      5D221935 
 226      5E25E532 
 226      4A0BF36F 
 226      4955F695 
 227 0631 595A645F 		.ascii	"YZd_Fc\326c\213\357+\344\373\034|\237\223\357#\370\376"
 227      4663D663 
 227      8BEF2BE4 
 227      FB1C7C9F 
 227      93EF23F8 
 228 0646 42BEDFC1 		.ascii	"B\276\337\301\367;\371~\202_W\310\257s\360\353\234\374"
 228      F73BF97E 
 228      825F57C8 
 228      AF73F0EB 
 228      9CFC
 229 0658 3A821F28 		.ascii	":\202\037(\344\007\034\374\200\223\037 \370\365\205"
 229      E4071CFC 
 229      80931F20 
 229      F8F585
 230 0667 FC7A07BF 		.ascii	"\374z\007\277\336\311\257'\370\015\205\374\006\007\277"
 230      DEC9AF27 
 230      F80D85FC 
 230      0607BF
 231 0676 C1C96F20 		.ascii	"\301\311o \370\215\205\374F\007\277\321\311o\314\362"
 231      F88D85FC 
 231      4607BFD1 
 231      C96FCCF2 
 232 0686 FF037573 		.ascii	"\377\003us>\222"
 232      3E92
 233              		.text
 234              		.section	.gnu.lto_.symtab.7f1c0518ccf14f0e,"",%progbits
 235 0000 5F5F636F 		.ascii	"__core_init\000\000\001\000\000\000\000\000\000\000"
 235      72655F69 
 235      6E697400 
 235      00010000 
 235      00000000 
 236 0015 0000A100 		.ascii	"\000\000\241\000\000\000__early_init\000\000\001\000"
 236      00005F5F 
 236      6561726C 
 236      795F696E 
 236      69740000 
 237 002b 00000000 		.ascii	"\000\000\000\000\000\000\000\000\250\000\000\000__l"
 237      00000000 
 237      A8000000 
 237      5F5F6C
 238 003a 6174655F 		.ascii	"ate_init\000\000\001\000\000\000\000\000\000\000\000"
 238      696E6974 
 238      00000100 
 238      00000000 
 238      000000
 239 004d 00AC0000 		.ascii	"\000\254\000\000\000__default_exit\000\000\001\000\000"
 239      005F5F64 
 239      65666175 
ARM GAS  /tmp/ccQm5rwd.s 			page 18


 239      6C745F65 
 239      78697400 
 240 0065 00000000 		.ascii	"\000\000\000\000\000\000\000\260\000\000\000__init_"
 240      000000B0 
 240      0000005F 
 240      5F696E69 
 240      745F
 241 0077 72616D5F 		.ascii	"ram_areas\000\000\000\000\000\000\000\000\000\000\000"
 241      61726561 
 241      73000000 
 241      00000000 
 241      00000000 
 242 008b 00B60000 		.ascii	"\000\266\000\000\000__ram0_init_text__\000\000\002\000"
 242      005F5F72 
 242      616D305F 
 242      696E6974 
 242      5F746578 
 243 00a6 00000000 		.ascii	"\000\000\000\000\000\000\000\000\326\000\000\000__r"
 243      00000000 
 243      D6000000 
 243      5F5F72
 244 00b5 616D305F 		.ascii	"am0_init__\000\000\002\000\000\000\000\000\000\000\000"
 244      696E6974 
 244      5F5F0000 
 244      02000000 
 244      00000000 
 245 00ca 00D90000 		.ascii	"\000\331\000\000\000__ram0_clear__\000\000\002\000\000"
 245      005F5F72 
 245      616D305F 
 245      636C6561 
 245      725F5F00 
 246 00e2 00000000 		.ascii	"\000\000\000\000\000\000\000\334\000\000\000__ram0_"
 246      000000DC 
 246      0000005F 
 246      5F72616D 
 246      305F
 247 00f4 6E6F696E 		.ascii	"noinit__\000\000\002\000\000\000\000\000\000\000\000"
 247      69745F5F 
 247      00000200 
 247      00000000 
 247      000000
 248 0107 00DF0000 		.ascii	"\000\337\000\000\000__ram1_init_text__\000\000\002\000"
 248      005F5F72 
 248      616D315F 
 248      696E6974 
 248      5F746578 
 249 0122 00000000 		.ascii	"\000\000\000\000\000\000\000\000\343\000\000\000__r"
 249      00000000 
 249      E3000000 
 249      5F5F72
 250 0131 616D315F 		.ascii	"am1_init__\000\000\002\000\000\000\000\000\000\000\000"
 250      696E6974 
 250      5F5F0000 
 250      02000000 
 250      00000000 
 251 0146 00E60000 		.ascii	"\000\346\000\000\000__ram1_clear__\000\000\002\000\000"
 251      005F5F72 
ARM GAS  /tmp/ccQm5rwd.s 			page 19


 251      616D315F 
 251      636C6561 
 251      725F5F00 
 252 015e 00000000 		.ascii	"\000\000\000\000\000\000\000\351\000\000\000__ram1_"
 252      000000E9 
 252      0000005F 
 252      5F72616D 
 252      315F
 253 0170 6E6F696E 		.ascii	"noinit__\000\000\002\000\000\000\000\000\000\000\000"
 253      69745F5F 
 253      00000200 
 253      00000000 
 253      000000
 254 0183 00EC0000 		.ascii	"\000\354\000\000\000__ram2_init_text__\000\000\002\000"
 254      005F5F72 
 254      616D325F 
 254      696E6974 
 254      5F746578 
 255 019e 00000000 		.ascii	"\000\000\000\000\000\000\000\000\360\000\000\000__r"
 255      00000000 
 255      F0000000 
 255      5F5F72
 256 01ad 616D325F 		.ascii	"am2_init__\000\000\002\000\000\000\000\000\000\000\000"
 256      696E6974 
 256      5F5F0000 
 256      02000000 
 256      00000000 
 257 01c2 00F30000 		.ascii	"\000\363\000\000\000__ram2_clear__\000\000\002\000\000"
 257      005F5F72 
 257      616D325F 
 257      636C6561 
 257      725F5F00 
 258 01da 00000000 		.ascii	"\000\000\000\000\000\000\000\366\000\000\000__ram2_"
 258      000000F6 
 258      0000005F 
 258      5F72616D 
 258      325F
 259 01ec 6E6F696E 		.ascii	"noinit__\000\000\002\000\000\000\000\000\000\000\000"
 259      69745F5F 
 259      00000200 
 259      00000000 
 259      000000
 260 01ff 00F90000 		.ascii	"\000\371\000\000\000__ram3_init_text__\000\000\002\000"
 260      005F5F72 
 260      616D335F 
 260      696E6974 
 260      5F746578 
 261 021a 00000000 		.ascii	"\000\000\000\000\000\000\000\000\375\000\000\000__r"
 261      00000000 
 261      FD000000 
 261      5F5F72
 262 0229 616D335F 		.ascii	"am3_init__\000\000\002\000\000\000\000\000\000\000\000"
 262      696E6974 
 262      5F5F0000 
 262      02000000 
 262      00000000 
 263 023e 00000100 		.ascii	"\000\000\001\000\000__ram3_clear__\000\000\002\000\000"
ARM GAS  /tmp/ccQm5rwd.s 			page 20


 263      005F5F72 
 263      616D335F 
 263      636C6561 
 263      725F5F00 
 264 0256 00000000 		.ascii	"\000\000\000\000\000\000\000\003\001\000\000__ram3_"
 264      00000003 
 264      0100005F 
 264      5F72616D 
 264      335F
 265 0268 6E6F696E 		.ascii	"noinit__\000\000\002\000\000\000\000\000\000\000\000"
 265      69745F5F 
 265      00000200 
 265      00000000 
 265      000000
 266 027b 00060100 		.ascii	"\000\006\001\000\000__ram4_init_text__\000\000\002\000"
 266      005F5F72 
 266      616D345F 
 266      696E6974 
 266      5F746578 
 267 0296 00000000 		.ascii	"\000\000\000\000\000\000\000\000\012\001\000\000__r"
 267      00000000 
 267      0A010000 
 267      5F5F72
 268 02a5 616D345F 		.ascii	"am4_init__\000\000\002\000\000\000\000\000\000\000\000"
 268      696E6974 
 268      5F5F0000 
 268      02000000 
 268      00000000 
 269 02ba 000D0100 		.ascii	"\000\015\001\000\000__ram4_clear__\000\000\002\000\000"
 269      005F5F72 
 269      616D345F 
 269      636C6561 
 269      725F5F00 
 270 02d2 00000000 		.ascii	"\000\000\000\000\000\000\000\020\001\000\000__ram4_"
 270      00000010 
 270      0100005F 
 270      5F72616D 
 270      345F
 271 02e4 6E6F696E 		.ascii	"noinit__\000\000\002\000\000\000\000\000\000\000\000"
 271      69745F5F 
 271      00000200 
 271      00000000 
 271      000000
 272 02f7 00130100 		.ascii	"\000\023\001\000\000__ram5_init_text__\000\000\002\000"
 272      005F5F72 
 272      616D355F 
 272      696E6974 
 272      5F746578 
 273 0312 00000000 		.ascii	"\000\000\000\000\000\000\000\000\027\001\000\000__r"
 273      00000000 
 273      17010000 
 273      5F5F72
 274 0321 616D355F 		.ascii	"am5_init__\000\000\002\000\000\000\000\000\000\000\000"
 274      696E6974 
 274      5F5F0000 
 274      02000000 
 274      00000000 
ARM GAS  /tmp/ccQm5rwd.s 			page 21


 275 0336 001A0100 		.ascii	"\000\032\001\000\000__ram5_clear__\000\000\002\000\000"
 275      005F5F72 
 275      616D355F 
 275      636C6561 
 275      725F5F00 
 276 034e 00000000 		.ascii	"\000\000\000\000\000\000\000\035\001\000\000__ram5_"
 276      0000001D 
 276      0100005F 
 276      5F72616D 
 276      355F
 277 0360 6E6F696E 		.ascii	"noinit__\000\000\002\000\000\000\000\000\000\000\000"
 277      69745F5F 
 277      00000200 
 277      00000000 
 277      000000
 278 0373 00200100 		.ascii	"\000 \001\000\000__ram6_init_text__\000\000\002\000"
 278      005F5F72 
 278      616D365F 
 278      696E6974 
 278      5F746578 
 279 038e 00000000 		.ascii	"\000\000\000\000\000\000\000\000$\001\000\000__ram6"
 279      00000000 
 279      24010000 
 279      5F5F7261 
 279      6D36
 280 03a0 5F696E69 		.ascii	"_init__\000\000\002\000\000\000\000\000\000\000\000"
 280      745F5F00 
 280      00020000 
 280      00000000 
 280      0000
 281 03b2 00270100 		.ascii	"\000'\001\000\000__ram6_clear__\000\000\002\000\000"
 281      005F5F72 
 281      616D365F 
 281      636C6561 
 281      725F5F00 
 282 03ca 00000000 		.ascii	"\000\000\000\000\000\000\000*\001\000\000__ram6_noi"
 282      0000002A 
 282      0100005F 
 282      5F72616D 
 282      365F6E6F 
 283 03df 6E69745F 		.ascii	"nit__\000\000\002\000\000\000\000\000\000\000\000\000"
 283      5F000002 
 283      00000000 
 283      00000000 
 283      00
 284 03f0 2D010000 		.ascii	"-\001\000\000__ram7_i"
 284      5F5F7261 
 284      6D375F69 
 285 03fc 6E69745F 		.ascii	"nit_text__\000\000\002\000\000\000\000\000\000\000\000"
 285      74657874 
 285      5F5F0000 
 285      02000000 
 285      00000000 
 286 0411 00310100 		.ascii	"\0001\001\000\000__ram7_init__\000\000\002\000\000\000"
 286      005F5F72 
 286      616D375F 
 286      696E6974 
ARM GAS  /tmp/ccQm5rwd.s 			page 22


 286      5F5F0000 
 287 0429 00000000 		.ascii	"\000\000\000\000\000\0004\001\000\000__ram7_clear__"
 287      00003401 
 287      00005F5F 
 287      72616D37 
 287      5F636C65 
 288 0441 00000200 		.ascii	"\000\000\002\000\000\000\000\000\000\000\000\0007\001"
 288      00000000 
 288      00000000 
 288      3701
 289 044f 00005F5F 		.ascii	"\000\000__ram7_noinit__\000\000\002\000\000\000\000"
 289      72616D37 
 289      5F6E6F69 
 289      6E69745F 
 289      5F000002 
 290 0467 00000000 		.ascii	"\000\000\000\000\000:\001\000\000"
 290      003A0100 
 290      00
 291              		.text
 292              		.section	.gnu.lto_.opts,"",%progbits
 293 0000 272D6D63 		.ascii	"'-mcpu=cortex-m4' '-mno-thumb-interwork' '-mthumb' "
 293      70753D63 
 293      6F727465 
 293      782D6D34 
 293      2720272D 
 294 0033 272D6767 		.ascii	"'-ggdb' '-O2' '-fomit-frame-pointer' '-falign-funct"
 294      64622720 
 294      272D4F32 
 294      2720272D 
 294      666F6D69 
 295 0066 696F6E73 		.ascii	"ions=16' '-ffunction-sections' '-fdata-sections' '-"
 295      3D313627 
 295      20272D66 
 295      66756E63 
 295      74696F6E 
 296 0099 666E6F2D 		.ascii	"fno-common' '-flto'\000"
 296      636F6D6D 
 296      6F6E2720 
 296      272D666C 
 296      746F2700 
 297              		.text
 298              		.cfi_sections	.debug_frame
 299              		.section	.text.__core_init,"ax",%progbits
 300              		.align	2
 301              		.p2align 4,,15
 302              		.weak	__core_init
 303              		.thumb
 304              		.thumb_func
 305              		.type	__core_init, %function
 306              	__core_init:
 307              	.LFB123:
 308              		.file 1 "../ChibiOS/os/common/ports/ARMCMx/compilers/GCC/crt1.c"
 309              		.loc 1 139 0
 310              		.cfi_startproc
 311              		@ args = 0, pretend = 0, frame = 0
 312              		@ frame_needed = 0, uses_anonymous_args = 0
 313              		@ link register save eliminated.
ARM GAS  /tmp/ccQm5rwd.s 			page 23


 314 0000 7047     		bx	lr
 315              		.cfi_endproc
 316              	.LFE123:
 317              		.size	__core_init, .-__core_init
 318 0002 00BFAFF3 		.section	.text.__early_init,"ax",%progbits
 318      0080AFF3 
 318      0080AFF3 
 318      0080
 319              		.align	2
 320              		.p2align 4,,15
 321              		.weak	__early_init
 322              		.thumb
 323              		.thumb_func
 324              		.type	__early_init, %function
 325              	__early_init:
 326              	.LFB124:
 327              		.loc 1 158 0
 328              		.cfi_startproc
 329              		@ args = 0, pretend = 0, frame = 0
 330              		@ frame_needed = 0, uses_anonymous_args = 0
 331              		@ link register save eliminated.
 332 0000 7047     		bx	lr
 333              		.cfi_endproc
 334              	.LFE124:
 335              		.size	__early_init, .-__early_init
 336 0002 00BFAFF3 		.section	.text.__late_init,"ax",%progbits
 336      0080AFF3 
 336      0080AFF3 
 336      0080
 337              		.align	2
 338              		.p2align 4,,15
 339              		.weak	__late_init
 340              		.thumb
 341              		.thumb_func
 342              		.type	__late_init, %function
 343              	__late_init:
 344              	.LFB125:
 345              		.loc 1 172 0
 346              		.cfi_startproc
 347              		@ args = 0, pretend = 0, frame = 0
 348              		@ frame_needed = 0, uses_anonymous_args = 0
 349              		@ link register save eliminated.
 350 0000 7047     		bx	lr
 351              		.cfi_endproc
 352              	.LFE125:
 353              		.size	__late_init, .-__late_init
 354 0002 00BFAFF3 		.section	.text.__default_exit,"ax",%progbits
 354      0080AFF3 
 354      0080AFF3 
 354      0080
 355              		.align	2
 356              		.p2align 4,,15
 357              		.weak	__default_exit
 358              		.thumb
 359              		.thumb_func
 360              		.type	__default_exit, %function
 361              	__default_exit:
ARM GAS  /tmp/ccQm5rwd.s 			page 24


 362              	.LFB126:
 363              		.loc 1 185 0
 364              		.cfi_startproc
 365              		@ Volatile: function does not return.
 366              		@ args = 0, pretend = 0, frame = 0
 367              		@ frame_needed = 0, uses_anonymous_args = 0
 368              		@ link register save eliminated.
 369              	.L5:
 370 0000 FEE7     		b	.L5
 371              		.cfi_endproc
 372              	.LFE126:
 373              		.size	__default_exit, .-__default_exit
 374 0002 00BFAFF3 		.section	.text.__init_ram_areas,"ax",%progbits
 374      0080AFF3 
 374      0080AFF3 
 374      0080
 375              		.align	2
 376              		.p2align 4,,15
 377              		.global	__init_ram_areas
 378              		.thumb
 379              		.thumb_func
 380              		.type	__init_ram_areas, %function
 381              	__init_ram_areas:
 382              	.LFB127:
 383              		.loc 1 195 0
 384              		.cfi_startproc
 385              		@ args = 0, pretend = 0, frame = 0
 386              		@ frame_needed = 0, uses_anonymous_args = 0
 387              		@ link register save eliminated.
 388              	.LVL0:
 389              		.loc 1 195 0
 390 0000 F0B4     		push	{r4, r5, r6, r7}
 391              		.cfi_def_cfa_offset 16
 392              		.cfi_offset 4, -16
 393              		.cfi_offset 5, -12
 394              		.cfi_offset 6, -8
 395              		.cfi_offset 7, -4
 396 0002 134E     		ldr	r6, .L19
 397              	.LBB2:
 398              		.loc 1 212 0
 399 0004 0025     		movs	r5, #0
 400 0006 06F17007 		add	r7, r6, #112
 401              	.LVL1:
 402              	.L15:
 403              		.loc 1 200 0
 404 000a A6F11001 		sub	r1, r6, #16
 405              	.LVL2:
 406 000e 1AC9     		ldmia	r1, {r1, r3, r4}
 407              	.LVL3:
 408              		.loc 1 204 0
 409 0010 A342     		cmp	r3, r4
 410 0012 0DD2     		bcs	.L7
 411 0014 0439     		subs	r1, r1, #4
 412              	.LVL4:
 413 0016 1A46     		mov	r2, r3
 414              	.LVL5:
 415              	.L9:
ARM GAS  /tmp/ccQm5rwd.s 			page 25


 416              		.loc 1 205 0
 417 0018 51F8040F 		ldr	r0, [r1, #4]!
 418              	.LVL6:
 419 001c 42F8040B 		str	r0, [r2], #4
 420              	.LVL7:
 421              		.loc 1 204 0
 422 0020 A242     		cmp	r2, r4
 423 0022 F9D3     		bcc	.L9
 424 0024 DA43     		mvns	r2, r3
 425              	.LVL8:
 426 0026 1444     		add	r4, r4, r2
 427 0028 24F00304 		bic	r4, r4, #3
 428 002c 0434     		adds	r4, r4, #4
 429 002e 2344     		add	r3, r3, r4
 430              	.LVL9:
 431              	.L7:
 432              		.loc 1 211 0 discriminator 1
 433 0030 56F8042C 		ldr	r2, [r6, #-4]
 434 0034 9342     		cmp	r3, r2
 435 0036 03D2     		bcs	.L13
 436              	.L14:
 437              		.loc 1 212 0
 438 0038 43F8045B 		str	r5, [r3], #4
 439              	.LVL10:
 440              		.loc 1 211 0
 441 003c 9342     		cmp	r3, r2
 442 003e FBD3     		bcc	.L14
 443              	.L13:
 444              	.LVL11:
 445              	.LBE2:
 446              		.loc 1 217 0
 447 0040 BE42     		cmp	r6, r7
 448 0042 06F11003 		add	r3, r6, #16
 449              	.LVL12:
 450 0046 01D2     		bcs	.L18
 451 0048 1E46     		mov	r6, r3
 452              	.LVL13:
 453 004a DEE7     		b	.L15
 454              	.LVL14:
 455              	.L18:
 456              		.loc 1 219 0
 457 004c F0BC     		pop	{r4, r5, r6, r7}
 458              	.LVL15:
 459 004e 7047     		bx	lr
 460              	.L20:
 461              		.align	2
 462              	.L19:
 463 0050 10000000 		.word	.LANCHOR0+16
 464              		.cfi_endproc
 465              	.LFE127:
 466              		.size	__init_ram_areas, .-__init_ram_areas
 467 0054 AFF30080 		.section	.rodata.ram_areas,"a",%progbits
 467      AFF30080 
 467      AFF30080 
 468              		.align	2
 469              		.set	.LANCHOR0,. + 0
 470              		.type	ram_areas, %object
ARM GAS  /tmp/ccQm5rwd.s 			page 26


 471              		.size	ram_areas, 128
 472              	ram_areas:
 473 0000 00000000 		.word	__ram0_init_text__
 474 0004 00000000 		.word	__ram0_init__
 475 0008 00000000 		.word	__ram0_clear__
 476 000c 00000000 		.word	__ram0_noinit__
 477 0010 00000000 		.word	__ram1_init_text__
 478 0014 00000000 		.word	__ram1_init__
 479 0018 00000000 		.word	__ram1_clear__
 480 001c 00000000 		.word	__ram1_noinit__
 481 0020 00000000 		.word	__ram2_init_text__
 482 0024 00000000 		.word	__ram2_init__
 483 0028 00000000 		.word	__ram2_clear__
 484 002c 00000000 		.word	__ram2_noinit__
 485 0030 00000000 		.word	__ram3_init_text__
 486 0034 00000000 		.word	__ram3_init__
 487 0038 00000000 		.word	__ram3_clear__
 488 003c 00000000 		.word	__ram3_noinit__
 489 0040 00000000 		.word	__ram4_init_text__
 490 0044 00000000 		.word	__ram4_init__
 491 0048 00000000 		.word	__ram4_clear__
 492 004c 00000000 		.word	__ram4_noinit__
 493 0050 00000000 		.word	__ram5_init_text__
 494 0054 00000000 		.word	__ram5_init__
 495 0058 00000000 		.word	__ram5_clear__
 496 005c 00000000 		.word	__ram5_noinit__
 497 0060 00000000 		.word	__ram6_init_text__
 498 0064 00000000 		.word	__ram6_init__
 499 0068 00000000 		.word	__ram6_clear__
 500 006c 00000000 		.word	__ram6_noinit__
 501 0070 00000000 		.word	__ram7_init_text__
 502 0074 00000000 		.word	__ram7_init__
 503 0078 00000000 		.word	__ram7_clear__
 504 007c 00000000 		.word	__ram7_noinit__
 505              		.text
 506              	.Letext0:
 507              		.file 2 "/nfs/nfs5/home/research/hardware/arm2/gcc-arm-embedded/gcc-arm-none-eabi-4_8-2014q2/arm-n
 508              		.file 3 "/nfs/nfs5/home/research/hardware/arm2/gcc-arm-embedded/gcc-arm-none-eabi-4_8-2014q2/arm-n
 509              		.file 4 "../ChibiOS/os/ext/CMSIS/include/core_cm4.h"