ARM GAS  /tmp/ccs6sxAx.s 			page 1


   1              		.syntax unified
   2              		.cpu cortex-m4
   3              		.fpu softvfp
   4              		.eabi_attribute 20, 1
   5              		.eabi_attribute 21, 1
   6              		.eabi_attribute 23, 3
   7              		.eabi_attribute 24, 1
   8              		.eabi_attribute 25, 1
   9              		.eabi_attribute 26, 1
  10              		.eabi_attribute 30, 2
  11              		.eabi_attribute 34, 1
  12              		.eabi_attribute 18, 4
  13              		.thumb
  14              		.file	"evtimer.c"
  15              		.text
  16              	.Ltext0:
  17              		.section	.gnu.lto_.jmpfuncs.6391b9b13a5685a,"",%progbits
  18 0000 789C6362 		.ascii	"x\234cb`b\300\006\212\2404\013\003#\013\210f\252f\370"
  18      6062C006 
  18      8AA0340B 
  18      03230B88 
  18      66AA66F8 
  19 0014 D5D0D120 		.ascii	"\325\320\321 \220\311\310\220\314\010\226a\006\3422"
  19      90C9C890 
  19      CC089661 
  19      06E232
  20 0023 069076A6 		.ascii	"\006\220v\246\010\306LF\220 #?\013T\024H1B(&\010\305"
  20      08C64C46 
  20      9020233F 
  20      0B541448 
  20      31422826 
  21 0039 0CA41861 		.ascii	"\014\244\030aZ\230\231q\031\012\004\000\335\341\014"
  21      5A989971 
  21      190A0400 
  21      DDE10C
  22 0048 00       		.ascii	"\000"
  23              		.text
  24              		.section	.gnu.lto_.inline.6391b9b13a5685a,"",%progbits
  25 0000 789C6362 		.ascii	"x\234cb`b\300\006\026Ci\026\006\006>yFF\006F \233\211"
  25      6062C006 
  25      16436916 
  25      06063E79 
  25      46460646 
  26 0017 B5439D81 		.ascii	"\265C\235\201\275C\035\254\203\225\017(9\301o\202\037"
  26      BD431DAC 
  26      83950F28 
  26      39C16F82 
  26      1F
  27 0028 C3043F66 		.ascii	"\303\004?f\036\240$\220\305\310\300+\303\210C\031\010"
  27      1EA02490 
  27      C5C8C02B 
  27      C3884319 
  27      08
  28 0039 32713330 		.ascii	"2q300\002)\0066V\230\221\314;\304\0318o\230\201\325"
  28      30022906 
  28      36569891 
  28      CC3BC419 
ARM GAS  /tmp/ccs6sxAx.s 			page 2


  28      386F9881 
  29 004e 3233700B 		.ascii	"23p\01332\201\305A\004\363\001F\026\226\005\362\014"
  29      333281C5 
  29      4104F301 
  29      46169605 
  29      F20C
  30 0060 6C0BE481 		.ascii	"l\013\344\201\202/\3309 $\272\345\014\000\2026\025\026"
  30      822FD839 
  30      2024BAE5 
  30      0C008236 
  30      1516
  31              		.text
  32              		.section	.gnu.lto_.pureconst.6391b9b13a5685a,"",%progbits
  33 0000 789C6362 		.ascii	"x\234cb`b\340d\200\000\026\006+FI&)f+\000\003\321\000"
  33      6062E064 
  33      80001606 
  33      2B464926 
  33      29662B00 
  34 0017 BF       		.ascii	"\277"
  35              		.text
  36              		.section	.gnu.lto_tmrcb.6391b9b13a5685a,"",%progbits
  37 0000 789C8553 		.ascii	"x\234\205S]H\024Q\024>gf\377\2646\267\307\240d3{qu\247"
  37      5D481451 
  37      143E6766 
  37      FFB436B7 
  37      C7A06433 
  38 0018 B75E0B21 		.ascii	"\267^\013!\350a\011\\\205z\222q\032v/\270\3562\263\273"
  38      E861095C 
  38      857A9271 
  38      1A762FB8 
  38      EE32B3BB 
  39 002c 6812CEAA 		.ascii	"h\022\316\252a\220\017\"=\224\021\245\024\221D\006\222"
  39      61900F22 
  39      3D9411A5 
  39      14914406 
  39      92
  40 003d D20FEED2 		.ascii	"\322\017\356\322C$\221&\275\371\244\364\030\224\022"
  40      43249126 
  40      BDF9A4F4 
  40      189412
  41 004c BD2CC276 		.ascii	"\275,\302v\356\374\254\343*z\207{\357\314\275\347|\337"
  41      EEFCACE3 
  41      2A7A877B 
  41      EFCCBDE7 
  41      7CDF
  42 005e 39DF3923 		.ascii	"9\3379#\200\000\265\343\024\315f\017\300o\332Q\004\024"
  42      8000B5E3 
  42      14CD660F 
  42      C06FDA51 
  42      0414
  43 0070 2656000A 		.ascii	"&V\000\012\001\001\221\277\000\302\220\200C7\320\264"
  43      010191BF 
  43      00C29080 
  43      4337D0B4 
  44 0080 9D134A1B 		.ascii	"\235\023J\033\225\312\353\357\333\233i\014\"\246\020"
  44      95CAEBEF 
  44      DB9B690C 
ARM GAS  /tmp/ccs6sxAx.s 			page 3


  44      22A610
  45 008f 3CC0107C 		.ascii	"<\300\020|\264\240\237\026\216\356\205Q\303\230\010"
  45      B4A09F16 
  45      8EEE8551 
  45      C39808
  46 009e 37C1B461 		.ascii	"7\301\264aL\226~\274\\Fc\322(lU*\015\014E\001\316!("
  46      4C967EBC 
  46      5C4663D2 
  46      286C552A 
  46      0D0C4501 
  47 00b5 08D791A1 		.ascii	"\010\327\221\241'ln^OmD\212I\326I+\217\240\213Pi\027"
  47      276C6E5E 
  47      4F6D448A 
  47      49D6492B 
  47      8FA08B50 
  48 00cb 97419071 		.ascii	"\227A\220q\032\275 \343\0146A\002\351~\031\206\003\000"
  48      1ABD20E3 
  48      0C364102 
  48      E97E1986 
  48      0300
  49 00dd 16D5C693 		.ascii	"\026\325\306\223\315\217\255\017\215\322\350Sc\247R"
  49      CD8FAD0F 
  49      8DD2E853 
  49      63A752
  50 00ec 4142F609 		.ascii	"AB\366\011\020?\212\215\237\371\302\364\262\002\303"
  50      103F8A8D 
  50      9FF9C2F4 
  50      B202C3
  51 00fb DBEF46E6 		.ascii	"\333\357F\346\307E;~'\221R\361S9D\314\317\210\32393"
  51      C7453B7E 
  51      279152F1 
  51      533944CC 
  51      CF88D339 
  52 0110 5E144F57 		.ascii	"^\024OW\357\177\336\037\017\266U\277\276\276\215\000"
  52      EF7FDE1F 
  52      0FB655BF 
  52      BEBE8D00 
  53 0120 58712AC8 		.ascii	"Xq*\310\311\005\232\"M\223\027\351\231\245O\322I\264"
  53      C9059A22 
  53      4D9317E9 
  53      99A54FD2 
  53      49B4
  54 0132 4AD1081F 		.ascii	"J\321\010\037\360\261\361\340\022#\375\334\341\354\336"
  54      F0B1F1E0 
  54      1223FDDC 
  54      E1ECDE
  55 0141 2FD9F701 		.ascii	"/\331\367\001+\340o0\\\036\231\377ak\221@\317 \334\242"
  55      2BE06F30 
  55      5C1E99FF 
  55      616B9140 
  55      CF20DCA2 
  56 0155 124460D6 		.ascii	"\022D`\326\240\321\315\260\356\021L\021J=\011\304\321"
  56      A0D1CDB0 
  56      EE114C11 
  56      4A3D09C4 
  56      D1
  57 0166 44D3AB07 		.ascii	"D\323\253\007]9\223j\245\026\313\337\256\322\332\277"
ARM GAS  /tmp/ccs6sxAx.s 			page 4


  57      5D39936A 
  57      A516CBDF 
  57      AED2DABF 
  58 0176 2FAE2A11 		.ascii	"/\256*\021\363g<J\270\004\317h\025\356lM\215\315\224"
  58      F3673C4A 
  58      B804CF68 
  58      15EE6C4D 
  58      8DCD94
  59 0189 855AD1EE 		.ascii	"\205Z\321\356-\020\301\274)\231#\206\327\362\033\204"
  59      2D10C1BC 
  59      29992386 
  59      D7F21B84 
  60 0199 B271D708 		.ascii	"\262q\327\0101<\246\240O\306\005\353\234\3208\011\245"
  60      313CA6A0 
  60      4FC605EB 
  60      9CD03809 
  60      A5
  61 01aa CCF0B89D 		.ascii	"\314\360\270\235\344\342/t\222\364\231I\242\235d\027"
  61      E4E22F74 
  61      92F49949 
  61      A29D6417 
  62 01ba C3E0C149 		.ascii	"\303\340\301I\272\262$\210\3657~\007\300\037\201\026"
  62      BAB22488 
  62      F5377E07 
  62      C01F8116 
  63 01ca 8627C8AB 		.ascii	"\206'\310\253@\000\267\367{:\377\305*\214\225\316X^"
  63      4000B7F7 
  63      7B3AFFC5 
  63      2A8C95CE 
  63      585E
  64 01dc AE581B14 		.ascii	"\256X\033\024\253<<\024\002\343\347\001\206!R\3106M"
  64      AB3C3C14 
  64      02E3E701 
  64      862152C8 
  64      364D
  65 01ee F07E3B59 		.ascii	"\360~;Y\333\220\323K5\015)\343s\263!\216\354H8\264#"
  65      DB90D34B 
  65      350D29E3 
  65      73B3218E 
  65      EC4838B4 
  66 0203 D7777847 		.ascii	"\327wxG\026\335\035\371\267\330\350\352\310\367Ai\267"
  66      16DD1DF9 
  66      B7D8E8EA 
  66      C8F74169 
  66      B7
  67 0214 148B6DBB 		.ascii	"\024\213m\273E\010\320\254\243Y\177@G\312\370\212^\252"
  67      4508D0AC 
  67      A3597F40 
  67      47CAF88A 
  67      5EAA
  68 0226 F44E07CA 		.ascii	"\364N\007\3128\207\215VhkP\330\370#8\352X\243\223D\247"
  68      38878D56 
  68      686B50D8 
  68      F82338EA 
  68      58A39344 
  69 023b DF939B86 		.ascii	"\337\223\233\206\243Q\251=\311z\330\265\270\224\326"
  69      A351A93D 
ARM GAS  /tmp/ccs6sxAx.s 			page 5


  69      C97AD8B5 
  69      B894D6
  70 024a A5BCACB1 		.ascii	"\245\274\254\261tN\227\324|\226\245T-\252\200\250f3"
  70      744E97D4 
  70      7C96A554 
  70      2DAA80A8 
  70      6633
  71 025c 91BD465A 		.ascii	"\221\275FZV\312\244\265\254.]\356\210\265\307\372%%"
  71      56CAA4B5 
  71      AC2E5DEE 
  71      88B5C7FA 
  71      2525
  72 026e A9A435B5 		.ascii	"\251\2445\265;\1771\025M\2027/\367\346\324\350^\017"
  72      3B7F3115 
  72      4D82372F 
  72      F7E6D4E8 
  72      5E0F
  73 0280 B53F2BB5 		.ascii	"\265?+\265\307\342W\343\022\353Szs7U\311\364PRWr}\012"
  73      C7E257E3 
  73      12EB537A 
  73      733755C9 
  73      F4505257 
  74 0297 399DDD47 		.ascii	"9\235\335GP\265K\352\003:Y\204b\361\216p\217\254\253"
  74      50B54BEA 
  74      033A5984 
  74      62F18E70 
  74      8FACAB
  75 02aa 198DB586 		.ascii	"\031\215\265\206\317_\000A\003\177JM\245\265\001\012"
  75      CF5F0041 
  75      037F4A4D 
  75      A5B5010A 
  76 02ba 51CF341F 		.ascii	"Q\3174\037\202\240\346\325\276,\007\371\017\037\266"
  76      82A0E6D5 
  76      BE2C07F9 
  76      0F1FB6
  77 02c9 3F4B     		.ascii	"?K"
  78              		.text
  79              		.section	.gnu.lto_chVTSetI.6391b9b13a5685a,"",%progbits
  80 0000 789C7D52 		.ascii	"x\234}R1K\034A\030}of\366<N\013\333\024\302a \345-\330"
  80      314B1C41 
  80      187D6F66 
  80      F63C4E0B 
  80      DB14C261 
  81 0018 5BE507A4 		.ascii	"[\345\007\244\210\202\226\233U\356\026r\032\314i\223"
  81      8882969B 
  81      55EE1672 
  81      1ACC6993 
  82 0028 C2B9E344 		.ascii	"\302\271\343D\313\303\"\202g\304S\264SI M\270\200\246"
  82      CBC32282 
  82      67C453B4 
  82      5349204D 
  82      B880A6
  83 003b 8A8511EB 		.ascii	"\212\205\021\353H\330>\011\251R(\222\3137\273^\342Y"
  83      48D83E09 
  83      A9522892 
  83      CB37BB5E 
  83      E259
ARM GAS  /tmp/ccs6sxAx.s 			page 6


  84 004d 38B0DF37 		.ascii	"8\260\3377\337\354{o\336\3671\012\012w\327\210|\327"
  84      DFEC7B6F 
  84      DEF7310A 
  84      0A77D788 
  84      7CD7
  85 005f 041E49A6 		.ascii	"\004\036I\246\007\252\306\027\240\232UJ7Gas\346\367"
  85      07AAC617 
  85      A09A554A 
  85      37476173 
  85      E6F7
  86 0071 20EC80A6 		.ascii	" \354\200\246I\217\015\3516 \026\2256\\\234d\"r\250"
  86      498F0DE9 
  86      36201695 
  86      365C9C64 
  86      2272A8
  87 0084 8EE24EE7 		.ascii	"\216\342N\347\340\335\267\366\005/U\277b\2310\022\350"
  87      E0DDB7F6 
  87      052F55BF 
  87      62993012 
  87      E8
  88 0095 49501909 		.ascii	"IP\031\011:\213(\301z\250[\333\310\003aR\216It\212\343"
  88      3A8B28C1 
  88      7AA85BDB 
  88      C8036152 
  88      8E49748A 
  89 00aa 542EEB13 		.ascii	"T.\353\023\324\262\3000Z\326\256\036\275\335|\375\300"
  89      D4B2C030 
  89      5AD6AE1E 
  89      BDDD7CFD 
  89      C0
  90 00bb 6ED51AF6 		.ascii	"n\325\032\366O\247\303\210\002yH\307\233\220B\345\223"
  90      4FA7C388 
  90      027948C7 
  90      9B9042E5 
  90      93
  91 00cc A44D6F3B 		.ascii	"\244Mo;E\001\341\004\237D\244L\023p\233\303rz\212\332"
  91      4501E104 
  91      9F44A44C 
  91      13709BC3 
  91      727A8ADA 
  92 00e0 87A5EFEF 		.ascii	"\207\245\357\357K\356\177\266\211\365\252\265\203\021"
  92      4BEE7FB6 
  92      89F5AAB5 
  92      8311
  93 00ee 8D809D06 		.ascii	"\215\200\235\006\007R\256\334\035\267\177\346\3769L"
  93      0752AEDC 
  93      1DB77FE6 
  93      FE394C
  94 00fd 37F6577B 		.ascii	"7\366W{\250\253\023\260%3\012\231X/\323\223+\022\332"
  94      A8AB13B0 
  94      25330A99 
  94      582FD393 
  94      2B12DA
  95 0110 7FCB5FD7 		.ascii	"\177\313_\327z-\007\334\021G\302\270\307\263\010\001"
  95      7A2D07DC 
  95      1147C2B8 
  95      C7B30801 
ARM GAS  /tmp/ccs6sxAx.s 			page 7


  96 0120 9F51FF71 		.ascii	"\237Q\377q|\271\256\003\356J)6\035\262\0078N\215\346"
  96      7CB9AE03 
  96      EE4A2936 
  96      1DB20738 
  96      4E8DE6
  97 0133 A83E433D 		.ascii	"\250>C=\376\270\237Kq\300+\\\331\025\327\215\027R\005"
  97      FEB89F4B 
  97      71C02B5C 
  97      D915D78D 
  97      175205
  98 0146 DC4B0EDD 		.ascii	"\334K\016\335\030\"f\272<\223\214\366\014\313\361\306"
  98      182266BA 
  98      3C938CF6 
  98      0CCBF1C6 
  99 0156 615FDAC3 		.ascii	"a_\332\303-b_(\3027\244\242\033\212Wd&\242\364t\216"
  99      2D625F28 
  99      C237A4A2 
  99      1B8A5764 
  99      26A2F474 
 100 016b 6AFCC6EF 		.ascii	"j\374\306\357\022\3225&\315\213\232{H\371B\301\177\\"
 100      12D23526 
 100      CD8B9A7B 
 100      48F942C1 
 100      7F5C
 101 017d 8A9E454F 		.ascii	"\212\236EO\236\372\263/\375\271\212\037\315\204\317"
 101      9EFAB32F 
 101      FDB98A1F 
 101      CD84CF
 102 018c E7A7A6FD 		.ascii	"\347\247\246\375\260\264P)\224\240\027*/\376\002\365"
 102      B0B45029 
 102      94A0172A 
 102      2FFE02F5 
 103 019c 418731   		.ascii	"A\2071"
 104              		.text
 105              		.section	.gnu.lto_evtObjectInit.6391b9b13a5685a,"",%progbits
 106 0000 789C8552 		.ascii	"x\234\205R1k\024A\030\375\336l\366\274D\305\0246V9\022"
 106      316B1441 
 106      18FDDE6C 
 106      F6BC44C5 
 106      14365639 
 107 0015 1B156E7F 		.ascii	"\033\025n\177\204?\300B\003\246\020\271\254Kn \233\034"
 107      843FC042 
 107      03A610B9 
 107      AC4B6E20 
 107      9B1C
 108 0027 779B2DB4 		.ascii	"w\233-\264\310\334%\\c\212x\201\030\265\220\203\004"
 108      C8DC255C 
 108      638A7881 
 108      18B59083 
 108      04
 109 0038 8245C42A 		.ascii	"\202E\304*\021,V\204$r(X\330/Z\012\022;\021a\375fg<"
 109      112C5684 
 109      24722858 
 109      D82F5A0A 
 109      123B1161 
 110 0050 BC23E0C0 		.ascii	"\274#\340\300\356|\014\357}\357\275oF\220\240\341u\211"
 110      EE7C0CEF 
ARM GAS  /tmp/ccs6sxAx.s 			page 8


 110      7DEFBD6F 
 110      4690A0E1 
 110      7589
 111 0062 BF361FD7 		.ascii	"\2776\037\327x\207C\020\353\037\211\232E\001\350\202"
 111      78874310 
 111      EB1F899A 
 111      4501E882 
 112 0072 40CB02CB 		.ascii	"@\313\002\3133\310\261/E\222f\331\336f\373\315\032\236"
 112      33C8B12F 
 112      459266D9 
 112      DE66FBCD 
 112      1A9E
 113 0084 88312004 		.ascii	"\2101 \004w\224\240\002W\032\342\322\252R\353%\"?'\334"
 113      7794A002 
 113      571AE2D2 
 113      AA52EB25 
 113      223F27DC 
 114 0098 E2BFEE32 		.ascii	"\342\277\3562\015\241w\347\003\265~\255\354\257]\255"
 114      0DA177E7 
 114      03B57EAD 
 114      ECAF5DAD 
 115 00a8 A00B97E6 		.ascii	"\240\013\227\346 \036\320}f_\243\027\212\327]\011<\243"
 115      201ED07D 
 115      665FA317 
 115      8AD75D09 
 115      3CA3
 116 00ba A7901073 		.ascii	"\247\220\020s\300m\336\235\\u\026\377\330}O\255\304"
 116      C06DDE9D 
 116      5C7516FF 
 116      D87D4FAD 
 116      C4
 117 00cb F227A9AB 		.ascii	"\362'\251\253T'y\334\356AuT\363$\313.H\355g\012Z^\363"
 117      542779DC 
 117      EE417554 
 117      F324CB2E 
 117      48ED670A 
 118 00e2 474AF9E6 		.ascii	"GJ\371\346\216\014Ffa\"\366\322\373\275\361\275\345"
 118      8E0C4666 
 118      6122F6D2 
 118      FBBDF1BD 
 118      E5
 119 00f3 F63D9B22 		.ascii	"\366=\233\"\351\035v\335\012v0\311H#\344\347\331\254"
 119      E91D76DD 
 119      0A7630C9 
 119      4823E4E7 
 119      D9AC
 120 0105 CDF4F98F 		.ascii	"\315\364\371\217\315\202D\201\2356\225\032g\317\326"
 120      CD824481 
 120      9D36951A 
 120      67CFD6
 121 0114 2C5D3466 		.ascii	",]4f\241i\273L3:l\370\344\313\253m\230V\241\315|\306"
 121      A169BB4C 
 121      333A6CF8 
 121      E4CBAB6D 
 121      9856A1CD 
 122 012a 66BE2351 		.ascii	"f\276#Q<=\263\271)\303\262\271\257\374\355\341\204\266"
 122      3C3DB3B9 
ARM GAS  /tmp/ccs6sxAx.s 			page 9


 122      29C3B2B9 
 122      AFFCEDE1 
 122      84B6
 123 013c 7391EC14 		.ascii	"s\221\354\024\322\327\355\317\357\320YQ\307j5\3112L"
 123      D2D7EDCF 
 123      EFD05951 
 123      C76A35C9 
 123      324C
 124 014e B08460E4 		.ascii	"\260\204`\344\177&\021j9\236\304\301\326\267\267bx\020"
 124      7F26116A 
 124      399EC4C1 
 124      D6B7B762 
 124      7810
 125 0160 0F8F1EF1 		.ascii	"\017\217\036\361 \366\006\006\221\273\352G\037\265\236"
 125      20F60606 
 125      91BBEA47 
 125      1FB59E
 126 016f C7CEE963 		.ascii	"\307\316\351c]\215\352B\217\366\347\327T\030\222Mz^"
 126      5D8DEA42 
 126      8FF6E7D7 
 126      5418924D 
 126      7A5E
 127 0181 E2ECE949 		.ascii	"\342\354\351I\035{)\005\242O\324L\267\246\372\241\311"
 127      1D7B2905 
 127      A24FD44C 
 127      B7A6FAA1 
 127      C9
 128 0192 3C22E8C7 		.ascii	"<\"\350\307\243\225K\345\262w\275*g\345\215\233\336"
 128      A3954BE5 
 128      B277BD2A 
 128      67E58D9B 
 128      DE
 129 01a3 62C38B2B 		.ascii	"b\303\213+u\271\270\324\360\2028\222aP/\373\344\004"
 129      75B9B8D4 
 129      F0823892 
 129      61502FFB 
 129      E404
 130 01b5 8DDAE541 		.ascii	"\215\332\345AP=\362\344\202?\277t/\360\374j\020\007"
 130      503DF2E4 
 130      823FBF74 
 130      2FF0FC6A 
 130      1007
 131 01c7 0B51A35C 		.ascii	"\013Q\243\\\035\3564\000\212#\0068qT\373\003L\320\275"
 131      1DEE3400 
 131      8A230638 
 131      7154FB03 
 131      4CD0BD
 132 01da D7       		.ascii	"\327"
 133              		.text
 134              		.section	.gnu.lto_evtStart.6391b9b13a5685a,"",%progbits
 135 0000 789C8D54 		.ascii	"x\234\215TMh\023Q\020\236y\273IScM\257\212\224X\021"
 135      4D681351 
 135      109E79BB 
 135      4953634D 
 135      AF8A9458 
 136 0015 C1D6AC07 		.ascii	"\301\326\254\007\301\243JA\360\020\204\246\202\342A"
 136      C1A34A41 
ARM GAS  /tmp/ccs6sxAx.s 			page 10


 136      F01084A6 
 136      82E241
 137 0024 B6DBB559 		.ascii	"\266\333\265Yh\232\260\331\254\255=t\323\226*\250P\012"
 137      689AB0D9 
 137      ACAD3D74 
 137      D3962AA8 
 137      500A
 138 0036 52AD08E6 		.ascii	"R\255\010\346P\304\026\352\037V\204\240\013EADm\017"
 138      50C416EA 
 138      1F5684A0 
 138      0B454144 
 138      6D0F
 139 0048 05693D44 		.ascii	"\005i=D<\010J!\275(\324B\234}\233\306\246\225\244/\354"
 139      3C084A21 
 139      BD28D442 
 139      9C7D9BC6 
 139      A695A42F 
 140 005d 7B6FDFCC 		.ascii	"{o\337\314\367\315\314\367f\303\200\301\346\261\233"
 140      F7CDCCF7 
 140      66C380C1 
 140      E6B19B
 141 006c 9E0B22C0 		.ascii	"\236\013\"\300oZQ\000d#\037\001\322>\206\350l\000\241"
 141      6F5A5100 
 141      64231F01 
 141      D23E86E8 
 141      6C00A1
 142 007f 9F61FF79 		.ascii	"\237a\377y\344\276\217\230\235+\024\246\347\336Ndq\234"
 142      E4BE8F98 
 142      9D2B14A6 
 142      E7DE4E64 
 142      719C
 143 0091 D522C690 		.ascii	"\325\"\306\220\0305\004\221&\307\305\003C\2265\022\004"
 143      18350491 
 143      26C7C503 
 143      43963512 
 143      04
 144 00a2 5038A08D 		.ascii	"P8\240\215f\207\345,2g\025>\300\300\352\340\324\315"
 144      6687E52C 
 144      3267153E 
 144      C0C0EAE0 
 144      D4CD
 145 00b4 3D3266D0 		.ascii	"=2f\320\003\235\310\372\340\012\241\233`\322\242q\\"
 145      039DC8FA 
 145      E00AA19B 
 145      60D2A271 
 145      5C
 146 00c5 437617C6 		.ascii	"Cv\027\306QC\241\023\361\034\255\"\217\332\216\033\322"
 146      5143A113 
 146      F11CAD22 
 146      8FDA8E1B 
 146      D2
 147 00d6 258AC539 		.ascii	"%\212\3059\357:\201\330\004\2074\364\020*M\004\227\267"
 147      EF3A81D8 
 147      048734F4 
 147      102A4D04 
 147      97B7
 148 00e8 22D7A1EF 		.ascii	"\"\327\241\357`\300.\206m\204\214e\215\332\363\303\357"
ARM GAS  /tmp/ccs6sxAx.s 			page 11


 148      60C02E86 
 148      6D848C65 
 148      8DDAF3C3 
 148      EF
 149 00f9 D11AB5D2 		.ascii	"\321\032\265\322\371B!\2409e\354G'k\007\354\015\362"
 149      F94221A0 
 149      3965EC47 
 149      276B07EC 
 149      0DF2
 150 010b A5462C57 		.ascii	"\245F,W\212\362\345D\271\311Yo\005*\017\203\203\325"
 150      8AF2E544 
 150      B9C9596F 
 150      052A0F83 
 150      83D5
 151 011d A9C4ED50 		.ascii	"\251\304\355P\371\030\034\256F\325\007\253\3265\313"
 151      F9181CAE 
 151      46D507AB 
 151      D635CB
 152 012c 5E18AED3 		.ascii	"^\030\256\323\260VAt\351x\311\254\002\365\016\006G\253"
 152      B0564174 
 152      E978C9AC 
 152      02F50E06 
 152      47AB
 153 013e 67893C4B 		.ascii	"g\211<K\037\0249r+_\263\315w,{\350\276\265V( A\374\014"
 153      1F143972 
 153      2B5FB3CD 
 153      772C7BE8 
 153      BEB55628 
 154 0156 3AAAD138 		.ascii	":\252\3218g~\352\011\370\010\003+\213\203\317n\010\245"
 154      677EEA09 
 154      F808032B 
 154      8B83CF6E 
 154      08A5
 155 0168 367137F6 		.ascii	"6q7\366\267\331\325zJ\36616\226z\310\376~+\353\337["
 155      B7D9D57A 
 155      4AF63136 
 155      967AC8FE 
 155      7E2BEBDF 
 156 017d 7A5B1EFB 		.ascii	"z[\036\373\034\330\320^\305\323\353\013\031A\306i\202"
 156      1CD8D05E 
 156      C5D3EB0B 
 156      1941C669 
 156      82
 157 018e C938C5E7 		.ascii	"\3118\305\347\207|~\300\211\334\352\025\344=\257Po+"
 157      877C7EC0 
 157      89DCEA15 
 157      E43DAF50 
 157      6F2B
 158 01a0 A4BAE28A 		.ascii	"\244\272\342\212\203\364\373BGd\023\334\217\242\001"
 158      83F4FB42 
 158      476413DC 
 158      8FA201
 159 01af 96F19E75 		.ascii	"\226\361\236u\373\204\206;\313\222\376g\317\027\355"
 159      FB84863B 
 159      CB92FE67 
 159      CF17ED
 160 01be 756E599F 		.ascii	"unY\237\340j\376\317\304\257%R|\206\223\2727Q\257\341"
ARM GAS  /tmp/ccs6sxAx.s 			page 12


 160      E06AFECF 
 160      C4AF2552 
 160      7C8693BA 
 160      3751AFE1 
 161 01d2 2E05E956 		.ascii	".\005\351V_\270\221\250k\350\266][\356\315\2179,\273"
 161      5FB891A8 
 161      6BE8B65D 
 161      5BEECD8F 
 161      392CBB
 162 01e5 A64E47C4 		.ascii	"\246NG\304\300f\2253\2576\251,\343\023*c\0332CE\231"
 162      C0669533 
 162      AF36A92C 
 162      E3132A63 
 162      1B324345 
 163 01fa 97D61C99 		.ascii	"\227\326\034\231_\227\313\374\323\337\260U\331\345\261"
 163      5F97CBFC 
 163      D3DFB055 
 163      D9E5B1
 164 0209 C580A3E0 		.ascii	"\305\200\243\340\014W\260\306U\320\367\037\365d|I\233"
 164      0C57B0C6 
 164      55D0F71F 
 164      F5647C49 
 164      9B
 165 021a 52EC75B5 		.ascii	"R\354u\265d\314b\203\233\327<\244\363O\237\213\245\276"
 165      64CC6283 
 165      9BD73CA4 
 165      F34F9F8B 
 165      A5BE
 166 022c E4A38D5A 		.ascii	"\344\243\215Z\213\376\021\034\337`($\265D\265v\355L"
 166      8BFE111C 
 166      DF602824 
 166      B544B576 
 166      ED4C
 167 023e 448A2725 		.ascii	"D\212'%S\326\265x*)\251\246\241\305T=\244\200`\032\011"
 167      53D6B578 
 167      2A29A9A6 
 167      A1C5543D 
 167      A480601A 
 168 0253 4F87DA25 		.ascii	"O\207\332%\367zM\343R\252[\021\022\262\336T\216\322"
 168      F77A4DE3 
 168      52AA5B11 
 168      12B2DE54 
 168      8ED2
 169 0265 0D2911D7 		.ascii	"\015)\021\327\215\244t\2625\334\022\356\221\224\250"
 169      8DA474B2 
 169      35DC12EE 
 169      9194A8
 170 0274 12D7D58B 		.ascii	"\022\327\325\213\346\261X(\012\036S\356J\251\241r\204"
 170      E6B15828 
 170      0A1E53EE 
 170      4AA9A172 
 170      84
 171 0285 DA63482D 		.ascii	"\332cH-\341\310\351\210\244u+]\251\016U\342\010%v\212"
 171      E1C8E988 
 171      A4752B5D 
 171      A90E55E2 
 171      0825768A 
ARM GAS  /tmp/ccs6sxAx.s 			page 13


 172 0299 221068DF 		.ascii	"\"\020h\337\226\000%\277h\2627I\036\301\012\036\246"
 172      960025BF 
 172      68B23749 
 172      1EC10A1E 
 172      A6
 173 02aa 410EF5E1 		.ascii	"A\016\365\341Hk\260]N\252\011]k\016\0368\002L\207\232"
 173      486BB05D 
 173      4EAA095D 
 173      6B0E1E38 
 173      024C879A 
 174 02be 981A8BEB 		.ascii	"\230\032\213\353\275\360\027\343\315Z\350"
 174      BDF017E3 
 174      CD5AE8
 175              		.text
 176              		.section	.gnu.lto_.symbol_nodes.6391b9b13a5685a,"",%progbits
 177 0000 789C45C8 		.ascii	"x\234E\3101\016\202P\024D\321\231\367>l\203\265\261"
 177      310E8250 
 177      1444D199 
 177      F73E6C83 
 177      B5B1
 178 0012 92219218 		.ascii	"\222!\222\030\354X\000\330\270\013[z\367`\244\244R\301"
 178      EC5800D8 
 178      B80B5B7A 
 178      F760A4A4 
 178      52C1
 179 0024 4A03841F 		.ascii	"J\003\204\037\231fr\256\301P#\316\236\024P\337\000\251"
 179      996672AE 
 179      C15023CE 
 179      9E1450DF 
 179      00A9
 180 0036 39E576A5 		.ascii	"9\345v\245\030\331V\271\275(\213<W\2647\345;9RacQ\220"
 180      18D956B9 
 180      BD288B3C 
 180      57B437E5 
 180      3B395261 
 181 004d 1395ECFA 		.ascii	"\023\225\354\372P\351_\216\004\227\373o\371\200\362"
 181      50E95F8E 
 181      0497FB6F 
 181      F980F2
 182 005c 3864CE14 		.ascii	"8d\316\024\335\267\2473\340\261v'\016K\307\014\210\226"
 182      DDB7A733 
 182      E0B17627 
 182      0E4BC70C 
 182      8896
 183 006e 2E48     		.ascii	".H"
 184              		.text
 185              		.section	.gnu.lto_.refs.6391b9b13a5685a,"",%progbits
 186 0000 789C6362 		.ascii	"x\234cb`b\340d\200\000F \233\221\231\211\201\001\000"
 186      6062E064 
 186      80004620 
 186      9B919989 
 186      810100
 187 0013 012C0017 		.ascii	"\001,\000\027"
 188              		.text
 189              		.section	.gnu.lto_.decls.6391b9b13a5685a,"",%progbits
 190 0000 789CBD5B 		.ascii	"x\234\275[\177p\024\325\035\177o/\311\345\222\020R\264"
 190      7F7014D5 
ARM GAS  /tmp/ccs6sxAx.s 			page 14


 190      1D7F6F2F 
 190      C9E59210 
 190      52B4
 191 0012 16673AE3 		.ascii	"\026g:\343\321\261\255\265\302\341\217*\375\247Xi\255"
 191      D1B1ADB5 
 191      C2E18F2A 
 191      FDA75869 
 191      AD
 192 0023 B4B5ED48 		.ascii	"\264\265\355H\355t\2463\275.\227\205\234\336\257\356"
 192      ED74A633 
 192      BD2E9785 
 192      9CDEAFEE 
 193 0033 6D12E84C 		.ascii	"m\022\350L\207%\010U*4\002\362\253\374\210\025P\014"
 193      87250855 
 193      2A3402F2 
 193      ABFC8815 
 193      500C
 194 0045 C11F8814 		.ascii	"\301\037\210\024\244p*`\000\211DB\202\374<D\303\017"
 194      A4702A60 
 194      00894442 
 194      82FC3C44 
 194      C30F
 195 0057 95824920 		.ascii	"\225\202I T \375\276\357\356\336\355\356\355\336\355"
 195      5420FDBE 
 195      EFEEDEED 
 195      EEEDDEED 
 196 0067 1DB43BF3 		.ascii	"\035\264;\363^\336\355\276\367y\337\337\337\267o_8\302"
 196      5EDEEDBE 
 196      F779DFDF 
 196      DFB76F5F 
 196      38C2
 197 0079 916A8E90 		.ascii	"\221j\216\220\001\270\032\356%\344q7!\305\204\220\037"
 197      01B81AEE 
 197      25E47137 
 197      21C58490 
 197      1F
 198 008a 4081DBE4 		.ascii	"@\201\333\3449(p\013/\366w%\224\227\240tAy\225\022\262"
 198      3928700B 
 198      2FF67725 
 198      9497A074 
 198      41799512 
 199 009f 01CA4628 		.ascii	"\001\312F([)\311\270X\337!P6\303\263\026u\374A(\225"
 199      5B29C9B8 
 199      58DF2150 
 199      36C3B316 
 199      75FC4128 
 200 00b4 502AD87D 		.ascii	"P*\330}(\357\300\263\355PN@\373\020\224w\241\275\011"
 200      28EFC0B3 
 200      ED504E40 
 200      FB109477 
 200      A1BD09
 201 00c7 CA5A686F 		.ascii	"\312Zho\204\322J\025\032\232\241\270\240|\004%\011\345"
 201      84D24A15 
 201      1A9AA1B8 
 201      A07C0425 
 201      09E5
 202 00d9 45B85FAE 		.ascii	"E\270_\256\316\261\023\332{\240\354\205\262\017\312"
ARM GAS  /tmp/ccs6sxAx.s 			page 15


 202      CEB113DA 
 202      7BA0EC85 
 202      B20FCA
 203 00e8 61952646 		.ascii	"a\225&F\333\011(\335PNCa$\276`\242\221\361\342Q\371"
 203      DB0928DD 
 203      504E4361 
 203      24BE60A2 
 203      91F1E251 
 204 00fd 6CD1D1B6 		.ascii	"l\321\321\266\015\312g0 A\025\032\232\325\376E\352\230"
 204      0DCA6730 
 204      2041151A 
 204      9AD5FE45 
 204      EA98
 205 010f CF559ED9 		.ascii	"\317U\236\331\034%\360\273\015\312^(\037@\351\200r\036"
 205      1C25F0BB 
 205      0DCA5E28 
 205      1F40E980 
 205      721E
 206 0121 EE7F6192 		.ascii	"\356\177a\222I\227\306\267\216_\275<\316\2504\254U\347"
 206      4997C6B7 
 206      8E5FBD3C 
 206      CEA834AC 
 206      55E7
 207 0133 EFA18A0C 		.ascii	"\357\241\212\014\212T\276O\353xw\251x\275\320\356\247"
 207      8A54BE4F 
 207      EB7877A9 
 207      78BDD0EE 
 207      A7
 208 0144 4A9F354C 		.ascii	"J\2375LnP.C\271b\232\233\351\252\212\244\365\260V7\377"
 208      6E502E43 
 208      B9629A9B 
 208      E9AA8AA4 
 208      F5B05637 
 209 0159 4613DF4C 		.ascii	"F\023\337L\026\243M\372\321d\300\351h\360\250\270L\007"
 209      16A34DFA 
 209      D164C0E9 
 209      68F0A8B8 
 209      4C07
 210 016b 57E16F31 		.ascii	"W\341o1\227\326\001\223Q)\227\226\373z\023=\345d\246"
 210      97D60193 
 210      51299796 
 210      FB7A133D 
 210      E564A6
 211 017e 2C37C84D 		.ascii	",7\310M3\344\207Z+o\"\317\312p\301\017\231J<\375\301"
 211      33E4875A 
 211      2B6F22CF 
 211      CA70C10F 
 211      994A3CFD 
 212 0193 57C96F29 		.ascii	"W\311o)O+=\304\213\215\012\017\262G\010O\377Ao\302\226"
 212      4F2B3DC4 
 212      8B8D0A0F 
 212      B247084F 
 212      FF416FC2 
 213 01a8 0B09811B 		.ascii	"\013\011\201\033\243\313\241z\324\225\302\265\033\370"
 213      A3CBA17A 
 213      D495C2B5 
 213      1BF8
ARM GAS  /tmp/ccs6sxAx.s 			page 16


 214 01b6 1C2D27B7 		.ascii	"\034-'\267\223\3250K\243,?@2\256[\31029q.\271\256\351"
 214      93D5304B 
 214      A32C3F40 
 214      32AE5BC8 
 214      3239712E 
 215 01cd 53BA484E 		.ascii	"S\272HN<!\017\014LQ\247\343\310\355\024\232+\350\355"
 215      3C210F0C 
 215      4C51A7E3 
 215      C8ED149A 
 215      2BE8ED
 216 01e0 6AD75BC9 		.ascii	"j\327[\311\363\262<G\356\251~\010\247\347\310H\366|"
 216      F3B23C47 
 216      EEA97E08 
 216      A7E7C848 
 216      F67C
 217 01f2 25BDC572 		.ascii	"%\275\305rr\354\003\327\267\310J\306\343\233\362\257"
 217      72EC03D7 
 217      B7C84AC6 
 217      E39BF2AF 
 218 0202 86228744 		.ascii	"\206\"\207D\035\243\273x\272\212r\026D\355?\276\371"
 218      1DA3BB78 
 218      BA8A7216 
 218      44ED3FBE 
 218      F9
 219 0213 0E8D28AF 		.ascii	"\016\215(\257sY5\033ee\220\370\020\362\014C\361\266"
 219      7359351B 
 219      656590F8 
 219      10F20C43 
 219      F1B6
 220 0225 56A644D6 		.ascii	"V\246D\326D5\200\033\241\3677\311\012\020U\262k\307"
 220      4435801B 
 220      A1F737C9 
 220      0A1055B2 
 220      6BC7
 221 0237 C7CFD027 		.ascii	"\307\317\320'`*\236\256\245C\000\350OFY\344\304\341"
 221      602A9EAE 
 221      A54300E8 
 221      4F4659E4 
 221      C4E1
 222 0249 C84CCA86 		.ascii	"\310L\312\206\274\012\243\225\201\210,'/\356:;\235N"
 222      BC0AA395 
 222      81882C27 
 222      2FEE3A3B 
 222      9D4E
 223 025b 4564F68C 		.ascii	"Ed\366\214\030`\015\3270\322\004\204'\376\265`\351\315"
 223      18600DD7 
 223      30D20484 
 223      27FEB560 
 223      E9CD
 224 026d 72D3DBD0 		.ascii	"r\323\333\320\277\2052\251oI\341Z\011@m\032\214\302"
 224      BF8532A9 
 224      6F49E15A 
 224      09406D1A 
 224      8CC2
 225 027f 88B7A5AB 		.ascii	"\210\267\245\253\242\221\327\300v\344\015\3465\200\265"
 225      A291D7C0 
 225      76E40DE6 
ARM GAS  /tmp/ccs6sxAx.s 			page 17


 225      3580B5
 226 028e 772D41E2 		.ascii	"w-A\342<\344\311\264\220\255\2551%\331\365\267\313r"
 226      3CE4C9B4 
 226      90ADAD31 
 226      25D9F5B7 
 226      CB72
 227 02a0 294F37C2 		.ascii	")O7\302 \216\264Q\243`\235\003\235\237\275\375-\332"
 227      208EB451 
 227      A3609D03 
 227      9D9FBDFD 
 227      2DDA
 228 02b2 8082DC8C 		.ascii	"\200\202\334\214P\357q\205B\035\232\277\371\373H\323"
 228      50EF7185 
 228      421D9ABF 
 228      F9FB48D3 
 229 02c2 56043AE8 		.ascii	"V\004:\3502\002\361\324\235\022b\352\267\326\201\241"
 229      3202F1D4 
 229      9D1262EA 
 229      B7D681A1 
 230 02d2 E163B5C1 		.ascii	"\341c\265\301\022\312`\362?\356\316\221O\\\016\024W"
 230      12CA60F2 
 230      3FEECE91 
 230      4F5C0E14 
 230      57
 231 02e3 6A6B05C9 		.ascii	"jk\005\311\013\273z\213\231o\271\014\356\241x~6\355"
 231      0BBB7A8B 
 231      996FB90C 
 231      EEA1787E 
 231      36ED
 232 02f5 CD383A55 		.ascii	"\3158:U\025\37264\240\263\031\262b\021\307\300\016\273"
 232      15FA3634 
 232      A0B319B2 
 232      6211C7C0 
 232      0EBB
 233 0307 A1EBC291 		.ascii	"\241\353\302\221\213y\323n0:p\241\276\225t\3564\271"
 233      8B79D36E 
 233      303A70A1 
 233      BE9574EE 
 233      34B9
 234 0319 75A41A88 		.ascii	"u\244\032\210\006\234\000VY\010\303\352\322\373,O\327"
 234      069C0056 
 234      5908C3EA 
 234      D2FB2C4F 
 234      D7
 235 032a D16F42FD 		.ascii	"\321oB\375:\035\006\365\033X\377\023\353w\260n\205:"
 235      3A1D06F5 
 235      1B58FF13 
 235      EB77B06E 
 235      853A
 236 033c 75D9C5A3 		.ascii	"u\331\305\243\226\264@R\341\233\031\277\376\3676\245"
 236      96B44052 
 236      E19B19BF 
 236      FEF736A5 
 237 034c 8F3EBCE3 		.ascii	"\217>\274\343_]\204\347\310\214\"\253\200\314\302\344"
 237      5F5D84E7 
 237      C88C22AB 
 237      80CCC2E4 
ARM GAS  /tmp/ccs6sxAx.s 			page 18


 238 035c EF419545 		.ascii	"\357A\225E\232O\377\015\273\275d\033\227\221\0365\230"
 238      9A4FFF0D 
 238      BBBD641B 
 238      97911E35 
 238      98
 239 036d 7F293CA4 		.ascii	"\177)<\244y\342\334\034\303\220deXb\335\262\027\300"
 239      79E2DC1C 
 239      C3906465 
 239      5862DDB2 
 239      17C0
 240 037f ED39CD08 		.ascii	"\3559\315\010\026\345\030\272M7\343\207\202\226>\232"
 240      16E518BA 
 240      4D37E387 
 240      82963E9A 
 241 038f 728CD2E7 		.ascii	"r\214\322\347\217\304\253\313n\232\371\207T\002y\311"
 241      8FC4ABCB 
 241      6E9AF987 
 241      540279C9 
 242 039f 9C40F664 		.ascii	"\234@\366d&\220\246dr\335\232\247KRY\315y\0029\220_"
 242      2690A664 
 242      72DD9AA7 
 242      4B5259CD 
 242      79023990 
 243 03b4 0249A602 		.ascii	"\002I\246\002\377\327I\312Q\026\235\330{\037\206\224"
 243      FFD749CA 
 243      51169DD8 
 243      7B1F8694 
 244 03c4 43983EB6 		.ascii	"C\230>\266\027\345\314\037F\030F\307QS\356H\034\021"
 244      17E5CC1F 
 244      461846C7 
 244      5153EE48 
 244      1C11
 245 03d6 BCCADD5C 		.ascii	"\274\312\335\\YCN\034\373\304#\317\251\320\262\327>"
 245      59434E1C 
 245      FBC423CF 
 245      A9D0B2D7 
 245      3E
 246 03e7 9CFE68DA 		.ascii	"\234\376h\332A\214\311*W\322\200d,\264\216Tin*\311\021"
 246      418CC92A 
 246      57D28064 
 246      2CB48E54 
 246      696E2AC9 
 247 03fc 4D7BBACF 		.ascii	"M{\272\317\335<\015C\304\011\234\374\2525\357\3668\034"
 247      DD3C0D43 
 247      C4099CFC 
 247      AA35EFF6 
 247      381C
 248 040e 9955CC86 		.ascii	"\231U\314\206t\233\371_?\343F\271H\271\237;on\230\241"
 248      749BF95F 
 248      3FE346B9 
 248      48B99F3B 
 248      6F6E98A1 
 249 0422 E4CD42F2 		.ascii	"\344\315B\362\177\342\303+\024D\375)\322\277\2708\357"
 249      7FE2C32B 
 249      1444FD29 
 249      D2BFB838 
 249      EF
ARM GAS  /tmp/ccs6sxAx.s 			page 19


 250 0433 DCDF8C43 		.ascii	"\334\337\214C\316\232\351\357\341\275\312\335\334\324"
 250      CE9AE9EF 
 250      E1BDCADD 
 250      DCD4
 251 0441 F79DDE49 		.ascii	"\367\235\336IQ\201g\320\3036\245\000\013K\372\377\001"
 251      518167D0 
 251      C336A500 
 251      0B4BFAFF 
 251      01
 252 0452 FDE51284 		.ascii	"\375\345\022\204\\\244\001\335\237Vf\347\216\321L\344"
 252      5CA401DD 
 252      9F5666E7 
 252      8ED14CE4 
 253 0462 7D2889B7 		.ascii	"}(\211\267sK\302\010\302\221\3358\244?c\0254s\3734u"
 253      734BC208 
 253      C291DD38 
 253      A43F6315 
 253      3473FB34 
 254 0477 15D4EF48 		.ascii	"\025\324\357H\036\013fk\253\240^\024\310\376\024na\002"
 254      1E0B666B 
 254      ABA05E14 
 254      C8FE146E 
 254      6102
 255 0489 59DC86AB 		.ascii	"Y\334\206\253 \005\354p\336`^\003\330\362\266|WA\013"
 255      2005EC70 
 255      DE605E03 
 255      D8F2B67C 
 255      57410B
 256 049c FE9D18FA 		.ascii	"\376\235\030\372/Y\256\342\251\314\261\340\273\270\304"
 256      2F59AEE2 
 256      A9CCB1E0 
 256      BBB8C4
 257 04ab 9C4637D3 		.ascii	"\234F7\323\274\327\034\034\371G\211\003FlW\005L-\357"
 257      BCD71C1C 
 257      F9478903 
 257      466C5705 
 257      4C2DEF
 258 04be CD5532AB 		.ascii	"\315U2\253\003']\215\223M\347L\252\335\327\323\372\235"
 258      03275D8D 
 258      934DE74C 
 258      AADDD7D3 
 258      FA9D
 259 04d0 85C81A7B 		.ascii	"\205\310\032{\224[\263\353w-p\346\247\2346\375\2558"
 259      945BB3EB 
 259      772D70E6 
 259      A79C36FD 
 259      AD38
 260 04e2 FD8738FD 		.ascii	"\375\2078\375L\363\364\177\277xj\2642\375LG\323\267"
 260      4CF3F47F 
 260      BF786AB4 
 260      32FD4C47 
 260      D3B7
 261 04f4 7F302F73 		.ascii	"\1770/sz\333\364\240\252o_\317\251\257/\307Ifs\314\200"
 261      7ADBF4A0 
 261      AA6F5FCF 
 261      A9AF2FC7 
 261      496673CC 
ARM GAS  /tmp/ccs6sxAx.s 			page 20


 262 0509 9E719BD5 		.ascii	"\236q\233\3257\332\264\010\032mZ\003-vk\324\027d\277"
 262      37DAB408 
 262      1A6D5A03 
 262      2D766BD4 
 262      1764BF
 263 051c C066EB4F 		.ascii	"\300f\353OW\277&\313O\225h4,\315\033\321h\304\035\037"
 263      57BF26CB 
 263      4F956834 
 263      2CCD1BD1 
 263      68C41D1F 
 264 0530 A0472860 		.ascii	"\240G(`MN\300\354\227\227\211N=\330\363y\203\031);\240"
 264      4D4EC0EC 
 264      9797894E 
 264      3DD8F379 
 264      8319293B 
 265 0545 075BE504 		.ascii	"\007[\345\004\314j\255\247\202\035\324\203\255\316\033"
 265      CC6AADA7 
 265      821DD483 
 265      ADCE1B
 266 0554 CC48D961 		.ascii	"\314H\331a=\330\032'`C\355);\252\007{%o0#e\347\364`"
 266      3DD81A27 
 266      6043ED29 
 266      3BAA077B 
 266      256F3023 
 267 056c AF3B01F3 		.ascii	"\257;\001\363ZP\226\272\354\226JOq);\347\310\006\267"
 267      5A5096BA 
 267      EC964A4F 
 267      71293BE7 
 267      C806B7
 268 057f 1610F2B4 		.ascii	"\026\020\362\264i\222\306x\323\235o\0043\360\015\021"
 268      6992C678 
 268      D39D6F04 
 268      33F00D11 
 269 058f 6CCFF3DA 		.ascii	"l\317\363\332\273\201\022\334\337r\202\230\305`\336"
 269      BB8112DC 
 269      DF728298 
 269      C560DE
 270 059e D0678A9D 		.ascii	"\320g\212\235y\203\031\325\322\301\300\014\241F\315"
 270      798319D5 
 270      D2C1C00C 
 270      A146CD
 271 05ad 19C99589 		.ascii	"\031\311\225\211\241\013\323\301\256T\303b\333GJdk\224"
 271      A10BD3C1 
 271      AE54C362 
 271      DB474A64 
 271      6B94
 272 05bf 59AA503B 		.ascii	"Y\252P;\313C\207Z\367\345i3\307\336X\326p\236\024\025"
 272      CB43875A 
 272      F7E56933 
 272      C7DE58D6 
 272      709E1415 
 273 05d3 4A5B6B0D 		.ascii	"J[k\015P&\347v\267\305\306\245\242\323\354C\355,a\265"
 273      5026E776 
 273      B7C5C6A5 
 273      A2D3EC43 
 273      ED2C61B5 
 274 05e7 DE123A9D 		.ascii	"\336\022:\235\210)\213+|\331\266\344kr2Au\374f\025\016"
ARM GAS  /tmp/ccs6sxAx.s 			page 21


 274      88298B2B 
 274      7CD9B6E4 
 274      6B723241 
 274      75FC6615 
 275 05fc 4BA8A7BA 		.ascii	"K\250\247\272\250\262\352|\0053\352\021SHv\016u~v\313"
 275      A8B2EA7C 
 275      0533EA11 
 275      5348760E 
 275      757E76CB 
 276 0610 7771E9BE 		.ascii	"wq\351\276\016\201\272\013\006:4\177\331(\004z\003\201"
 276      0E81BA0B 
 276      063A347F 
 276      D928047A 
 276      0381
 277 0622 CE662409 		.ascii	"\316f$\011s\212\247\306\024O=\351\306\200Q]\327\265"
 277      738AA7C6 
 277      144F3DE9 
 277      C680515D 
 277      D7B5
 278 0634 2F47FACD 		.ascii	"/G\372\315\3722\260\2233\332\300\033\371\307siO\203"
 278      FA32B093 
 278      33DAC01B 
 278      F9C77369 
 278      4F83
 279 0646 BC70643E 		.ascii	"\274pd>\032Kj\032{\023\345#\227\232\345\263\216\313"
 279      1A4B6A1A 
 279      7B13E523 
 279      979AE5B3 
 279      8ECB
 280 0658 4F401C79 		.ascii	"O@\034y\2624_Fn322\363d\001\214\234\323\030I #\215\327"
 280      B2345F46 
 280      6E333232 
 280      F364018C 
 280      9CD31849 
 281 0670 81918579 		.ascii	"\201\221\205y32R\307\010\333f\2748O\211\2037\2209\331"
 281      333252C7 
 281      08DB66BC 
 281      384F8983 
 281      379039D9 
 282 0684 57728C9E 		.ascii	"Wr\214\236\355\334\015\306W\225\276\367\331\013\020"
 282      EDDC0DC6 
 282      5795BEF7 
 282      D90B10
 283 0693 BB9DFB5D 		.ascii	"\273\235\373]s\356\007\272\345\257\354l\371\333\252"
 283      73EE07BA 
 283      E5AFEC6C 
 283      F9DBAA
 284 06a2 2E7F5B51 		.ascii	".\177[Qb\313K-|\314\011R\323\371\266\257\262\367\223"
 284      62CB4B2D 
 284      7CCC0952 
 284      D3F9B6AF 
 284      B2F793
 285 06b5 DD08B3B2 		.ascii	"\335\010\263\262P\230\344\241\316\015\212\253\266!P"
 285      5098E4A1 
 285      CE0D8AAB 
 285      B62150
 286 06c4 4B86064B 		.ascii	"K\206\006KL\012,1*\020~\262\231\372\331J\234NQ\357\260"
ARM GAS  /tmp/ccs6sxAx.s 			page 22


 286      4C0A2C31 
 286      2A107EB2 
 286      99FAD94A 
 286      9C4E51EF 
 287 06d9 1F6EF27F 		.ascii	"\037n\362\177\037\007\211\030\311g\312+dq\211\257\001"
 287      1F078918 
 287      C967CA2B 
 287      647189AF 
 287      01
 288 06ea F3B424AA 		.ascii	"\363\264$\252(h\3135!6$\266\316\321^\337p\353\347\335"
 288      2868CB35 
 288      213624B6 
 288      CED15EDF 
 288      70EBE7DD 
 289 06fe 6B84C375 		.ascii	"k\204\303u\227!\215\232\226\357}6\251'\265\215\271C"
 289      97218D9A 
 289      96EF7D36 
 289      A927B58D 
 289      B943
 290 0710 DB3B3E80 		.ascii	"\333;>\200+\244\266\014\205\367\232\2671{\215\333\230"
 290      2BA4B60C 
 290      85F79AB7 
 290      317B8DDB 
 290      98
 291 0721 769ED4A5 		.ascii	"v\236\324\245\317\203\307\257U\021\273\216\230\024q"
 291      CF83C7AF 
 291      5511BB8E 
 291      981471
 292 0730 F21A25B7 		.ascii	"\362\032%\267h\256\263]\221?hX\025\310\310\277q\332"
 292      68AEB35D 
 292      913F6858 
 292      15C8C8BF 
 292      71DA
 293 0742 A4F965EB 		.ascii	"\244\371e\353\322\013\307g\250rL:x\333\222\023\207p"
 293      D20BC767 
 293      A8724C3A 
 293      78DB9213 
 293      8770
 294 0754 5BCA62BE 		.ascii	"[\312b\276\373\365k\273\224\226:\264\2170\037sl\377"
 294      FBF56BBB 
 294      94963AB4 
 294      8F301F73 
 294      6CFF
 295 0766 6199C77A 		.ascii	"a\231\307z'\351~; \216\254\305!'\315\204CxlP\367\037"
 295      27E97E3B 
 295      208EACC5 
 295      2127CD84 
 295      43786C50 
 296 077c 4E3A7A4D 		.ascii	"N:zM<\377W\375\376\003O/SN\305-L\017_\354N\255*yz5o"
 296      3CFF57FD 
 296      FE034F2F 
 296      534EC52D 
 296      4C0F5FEC 
 297 0797 30AF15A9 		.ascii	"0\257\025\251\232\245\246\271\345\351i\\\015\236\341"
 297      9AA5A6B9 
 297      E5E9695C 
 297      0D9EE1
ARM GAS  /tmp/ccs6sxAx.s 			page 23


 298 07a6 D86EF5A7 		.ascii	"\330n\365\247\234n\267\232#[=\232N\255D\227\3338/\275"
 298      9C6EB79A 
 298      235B3D9A 
 298      4EAD4497 
 298      DB382FBD 
 299 07ba 7069BE62 		.ascii	"pi\276b\234\371\004\376Sj\340?\213\346\374\256\307\354"
 299      9CF904FE 
 299      536AE03F 
 299      8BE6FCAE 
 299      C7EC
 300 07cc 77BBCDA9 		.ascii	"w\273\315\251"
 301 07d0 32AFC8B7 		.ascii	"2\257\310\267\307\314\223\323\367\326\324e\347\327\307"
 301      C7CC93D3 
 301      F7D6D465 
 301      E7D7C7
 302 07df F47EBDCF 		.ascii	"\364~\275\317sM^\310>\002\256PD\227sS.\265\263X\205"
 302      734D5EC8 
 302      3E02AE50 
 302      44977353 
 302      2EB5B358 
 303 07f4 331FC499 		.ascii	"3\037\304\231\373\314\366\274\340\345\235\177Q\355\271"
 303      FBCCF6BC 
 303      E0E59D7F 
 303      51EDB9
 304 0803 CF9123F6 		.ascii	"\317\221#\366\251\373\303\212cM/\323P\0131\205\206\304"
 304      A9FBC38A 
 304      634D2FD3 
 304      500B3185 
 304      86C4
 305 0815 256DB752 		.ascii	"%m\267RyK\232e\206\313s\367\340\262\223\335J\203`\264"
 305      794B9A65 
 305      86CB73F7 
 305      E0B293DD 
 305      4A8360B4 
 306 0829 6DDB4FD8 		.ascii	"m\333O\330\252\345*\362\364l\231\331\264\024\311\350"
 306      AAE52AF2 
 306      F46C99D9 
 306      B414C9E8 
 307 0839 4CAB4FE7 		.ascii	"L\253O\347(\027\321Q\372\321Q\376\203\365e\275\273\330"
 307      2817D151 
 307      FAD151FE 
 307      83F565BD 
 307      BBD8
 308 084b 99C515BD 		.ascii	"\231\305\025\275Y,\315\233o\257C\353\353\325O\263\242"
 308      592CCD9B 
 308      6FAF43EB 
 308      EBD54FB3 
 308      A2
 309 085c ECDAACEF 		.ascii	"\354\332\254\357\302\256\013E\370\355/\237\375\312\003"
 309      C2AE0B45 
 309      F8ED2F9F 
 309      FDCA03
 310 086b AADFB251 		.ascii	"\252\337\262Q\034i\316\020nA\373\225\033\012\345$u\301"
 310      1C69CE10 
 310      6E41FB95 
 310      1B0AE524 
 310      75C1
ARM GAS  /tmp/ccs6sxAx.s 			page 24


 311 087d D2A4CCC1 		.ascii	"\322\244\314\301\273\246\327N\032l\261su\236\303=\317"
 311      BBA6D74E 
 311      1A6CB173 
 311      759EC33D 
 311      CF
 312 088e D427ECF7 		.ascii	"\324'\354\367\246\252yi\246\013\367\305\313\254\363"
 312      A6AA7969 
 312      A60BF7C5 
 312      CBACF3
 313 089d 5296CDD3 		.ascii	"R\226\315\323v\0342\313\225\261/\336\253\345%\366,w"
 313      761C32CB 
 313      95B12FDE 
 313      ABE525F6 
 313      2C77
 314 08af 5EDA6799 		.ascii	"^\332g\231\227\330\330B%jPb\232@\236\376\315\305<\244"
 314      97D8D842 
 314      256A5062 
 314      9A409EFE 
 314      CDC53CA4 
 315 08c3 D1654822 		.ascii	"\321eH\"\307\363\226\276W/\375\304\263\235K\250B\277"
 315      C7F396BE 
 315      572FFDC4 
 315      B39D4BA8 
 315      42BF
 316 08d5 12893E35 		.ascii	"\022\211>5\343YE\242\333\354\264\331\220x\245\023\363"
 316      E35945A2 
 316      DBECB4D9 
 316      9078A513 
 316      F3
 317 08e6 AA62A517 		.ascii	"\252b\245\027\234\0207\322\036l\353\374\224pq\2258\265"
 317      9C1037D2 
 317      1E6CEBFC 
 317      94707195 
 317      38B5
 318 08f8 3C5F3CAF 		.ascii	"<_<\257\001\257\253s\211\212\247\354\372\377\325\011"
 318      01AFAB73 
 318      898AA7EC 
 318      FAFFD509 
 319 0908 DE287BFA 		.ascii	"\336({\372\372\346\033V\325\363\363\206\363f\323}\372"
 319      FAE61B56 
 319      D5F3F386 
 319      F366D37D 
 319      FA
 320 0919 A30D4444 		.ascii	"\243\015DD\374\014\376%~\364\276\202\365\000\326O`\244"
 320      FC0CFE25 
 320      7EF4BE82 
 320      F500D64F 
 320      60A4
 321 092b 5C81F52A 		.ascii	"\\\201\365*\254_\304\372e\2547a\275\025\353mX?\345b"
 321      AC5FC4FA 
 321      65AC3761 
 321      BD15EB6D 
 321      583FE562 
 322 093f F51CACE7 		.ascii	"\365\034\254\347a=\037\353\205X/v9\210\270\275\346\343"
 322      613D1FEB 
 322      85582F76 
 322      3988B8BD 
ARM GAS  /tmp/ccs6sxAx.s 			page 25


 322      E6E3
 323 0951 04CBCAF3 		.ascii	"\004\313\312\363\3756f\320J\262\247\273\177\201\266"
 323      FD3666D0 
 323      4AB2A7BB 
 323      7F81B6
 324 0960 C856ECE6 		.ascii	"\310V\354\346%'\210Y\362\327\234\035`\204\371\004\327"
 324      25278859 
 324      F2D79C1D 
 324      6084F904 
 324      D7
 325 0971 A41A5C9B 		.ascii	"\244\032\\\233p\372\327\313\257Kp}+o.\314r90t\243\372"
 325      70FAD7CB 
 325      AF4B707D 
 325      2B6F2ECC 
 325      72393074 
 326 0987 8941216C 		.ascii	"\211A!l\227\023D\347\347,\316\352\014\354\034\032\330"
 326      971344E7 
 326      E72CCEEA 
 326      0CEC1C1A 
 326      D8
 327 0998 7934AA1E 		.ascii	"y4\252\036\254\227\242I,\307z\205\023\3038Cu9\262\243"
 327      AC97A249 
 327      2CC77A85 
 327      13C33843 
 327      7539B2A3 
 328 09ac 5CFB827C 		.ascii	"\\\373\202|]\342`\267\216\324SH\352ij\210\203\207\313"
 328      5DE260B7 
 328      8ED45348 
 328      EA696A88 
 328      8387CB
 329 09bf 4D5FD873 		.ascii	"M_\330s\212\306(\354\205'Z\335\230\223\265\343\030\037"
 329      8AC628EC 
 329      85275ADD 
 329      9893B5E3 
 329      181F
 330 09d1 3901B4DA 		.ascii	"9\001\264\332B\265f\340\250\216\201c\310@\022\245\374"
 330      42B566E0 
 330      A88E8163 
 330      C84012A5 
 330      FC
 331 09e2 11D62F3A 		.ascii	"\021\326/:\221\357A\373s,\246\203*gM\006\254\036TY\267"
 331      91EF41FB 
 331      732CA683 
 331      2A674D06 
 331      AC1E5459 
 332 09f7 E6E99F29 		.ascii	"\346\351\237)\007U\016\3422\3612v\353\262=\000rPwld"
 332      07550EE2 
 332      32F13276 
 332      EBB23D00 
 332      7250776C 
 333 0a0c 7FFAA08A 		.ascii	"\177\372\240\212\\\221}\230J\223z\360p\226<\275\212"
 333      5C917D98 
 333      4A937AF0 
 333      70963CBD 
 333      8A
 334 0a1d A60E8E74 		.ascii	"\246\016\216t\231\017\2164\273,\016\216$\366\202\003"
 334      990F8E34 
ARM GAS  /tmp/ccs6sxAx.s 			page 26


 334      BB2C0E8E 
 334      24F68203 
 335 0a2d 4F4D0E0C 		.ascii	"OM\016\014\334\342\374\320\310k.\323\011\315\203\264"
 335      DCE2FCD0 
 335      C86B2ED3 
 335      09CD83B4 
 336 0a3d DC2C97E9 		.ascii	"\334,\227\351\025Vr\221\257\260\023\225J\367\026\027"
 336      15567291 
 336      AFB01395 
 336      4AF71617 
 337 0a4d 4BDFAFBA 		.ascii	"K\337\257\272\262\212\304\20676\312\300\333\353\231"
 337      B28AC486 
 337      3736CAC0 
 337      DBEB99
 338 0a5c BC251B93 		.ascii	"\274%\033\223\373\317/\030\272H~[;\352\331\214G=g\233"
 338      FBCF2F18 
 338      BA487E5B 
 338      3BEAD98C 
 338      473D679B 
 339 0a70 28D320FE 		.ascii	"(\323 \376i\011\361Ew\377m)\010\347\"\332\344\262?W"
 339      6909F145 
 339      77FF6D29 
 339      08E722DA 
 339      E4B23F57 
 340 0a84 A31C16B1 		.ascii	"\243\034\026\261\033\271\331\225iz,$e\232\336\"\033"
 340      1BB9D995 
 340      697A2C24 
 340      659ADE22 
 340      1B
 341 0a95 46B65832 		.ascii	"F\266X2\322qi\301\315\362s\015\211\201\201\321y\360"
 341      D27169C1 
 341      CDF2730D 
 341      898181D1 
 341      79F0
 342 0aa7 9130ABBA 		.ascii	"\2210\253\272%S\325km\350x\333H\307WH\243\262\203\261"
 342      2553D56B 
 342      6DE878DB 
 342      48C75748 
 342      A3B283B1 
 343 0abb B052F9C4 		.ascii	"\260R\371\304\242\316Y\245\315\311\251\343\336q}\005"
 343      A2CE59A5 
 343      CDC9A9E3 
 343      DE717D05 
 344 0acb 5B86576D 		.ascii	"[\206Wm\354aG\3456W\3723N\205'\335\240\306\251\275\246"
 344      EC6147E5 
 344      3657FA33 
 344      4E8527DD 
 344      A0C6A9BD 
 345 0ae0 994769FD 		.ascii	"\231Gi\375\334*\316\366\274g\336a3s\211:\263I\361\314"
 345      DC2ACEF6 
 345      BC67DE61 
 345      3373893A 
 345      B349F1CC 
 346 0af4 2CECA0DE 		.ascii	",\354\240\336M+\3364\252\331\346\240\"\033\325\232\036"
 346      4D2BDE34 
 346      AAD9E6A0 
 346      221BD59A 
ARM GAS  /tmp/ccs6sxAx.s 			page 27


 346      1E
 347 0b05 A51E25BE 		.ascii	"\245\036%\276x\242\275f\015\313e\362\325\201)S\237\240"
 347      78A2BD66 
 347      0DCB65F2 
 347      D5812953 
 347      9FA0
 348 0b17 CE95BD4B 		.ascii	"\316\225\275KUvZ\277\0349\222\241\\\325!\345\027eW\312"
 348      55765ABF 
 348      1C3992A1 
 348      5CD521E5 
 348      176557CA 
 349 0b2b 1F779AFD 		.ascii	"\037w\232\375qw\246\015\002i\213/\366\377Y;\2446L\231"
 349      7177A60D 
 349      02698B2F 
 349      F6FF593B 
 349      A4364C99 
 350 0b3f 0F22A8A3 		.ascii	"\017\"\250\243\031\366\230gh\263\232!\361\312Q%\232"
 350      19F69867 
 350      68B39A21 
 350      F1CA5125 
 350      9A
 351 0b50 2D4F5469 		.ascii	"-OTi\370S\0079\301\337k\306o\267\344`\303\231\366\247"
 351      F8530739 
 351      C1DF6BC6 
 351      6FB7E460 
 351      C399F6A7 
 352 0b64 E9332FCF 		.ascii	"\3513/\317\220\331,S\226'\032\213\234\213\267\303\354"
 352      90D92C53 
 352      96271A8B 
 352      9C8BB7C3 
 352      EC
 353 0b75 4B9BF1D3 		.ascii	"K\233\361\323\210\301\2276\031\210\305\236\034i\035"
 353      88C19736 
 353      1988C59E 
 353      1C691D
 354 0b84 A41AB21A 		.ascii	"\244\032\262\032D\333!dS\355(p'\216\330g\033F7\033R"
 354      44DB2164 
 354      53ED2870 
 354      278ED867 
 354      1B46371B 
 355 0b99 44CF54DD 		.ascii	"D\317T\335\331\364}f\236;-y\356\351>7\2720\203:\222"
 355      D9F47D66 
 355      9E3B2D79 
 355      EEE93E37 
 355      BA30833A 
 356 0bae C1B12B23 		.ascii	"\301\261+#z\034\036d\231(\360\354$\353\316\221\317\260"
 356      7A1C1E64 
 356      9928F0EC 
 356      24EBCE91 
 356      CFB0
 357 0bc0 C7617B0E 		.ascii	"\307a{\016]\372D\361\241\376\364\375a3\207\307,9\274"
 357      5DFA44F1 
 357      A1FEF4FD 
 357      613387C7 
 357      2C39BC
 358 0bd3 70E2FC63 		.ascii	"p\342\374c\031vy\316\221\335\2340\317\360\261\215\345"
 358      197679CE 
ARM GAS  /tmp/ccs6sxAx.s 			page 28


 358      91DD9C30 
 358      CFF0B18D 
 358      E5
 359 0be4 EF9D9231 		.ascii	"\357\235\2221\303\264J'3t\233g8ii\371\215\3072,\177"
 359      C3B44A27 
 359      33749B67 
 359      386969F9 
 359      8DC7322C 
 360 0bf9 A123FCD3 		.ascii	"\241#\374\323f\3743F|S0Jd\011a\237e\004\243\216\323"
 360      66FC3346 
 360      7C53304A 
 360      6409619F 
 360      6504A38E 
 361 0c0e EBE1B58D 		.ascii	"\353\341\265\215e\235\255\36205\237pdE\245\245\316\333"
 361      659DADF2 
 361      30359F70 
 361      6445A5A5 
 361      CEDB
 362 0c20 99CE9504 		.ascii	"\231\316\225\004\363>\276\333\177n\253\363\026j\253"
 362      F33EBEDB 
 362      7F6EABF3 
 362      166AAB
 363 0c2f F3CFCDFC 		.ascii	"\363\317\315\374\2345\362\363m\262\212m?\254[3\213."
 363      9C35F2F3 
 363      6DB28A6D 
 363      3FAC5B33 
 363      8B2E
 364 0c41 6A2C359C 		.ascii	"j,5\234Y\326w\220_k\252\262xh\222\006;\356k'\215\236"
 364      59D67790 
 364      5F6BAAB2 
 364      78689206 
 364      3BEE6B27 
 365 0c57 0C69F474 		.ascii	"\014i\364t\357\035\256\367$\305C8\362\262\265<R>\300"
 365      EF1DAEF7 
 365      24C54338 
 365      F2B2B53C 
 365      523EC0
 366 0c6a D3E3B858 		.ascii	"\323\343\270X\352-\304\007z\315\362\350\263\260\237"
 366      EA2DC407 
 366      7ACDF2E8 
 366      B3B09F
 367 0c79 BDC98ED5 		.ascii	"\275\311\216\325K-4\2655\013ezM\365\027\242\251~3e\227"
 367      4B2D34B5 
 367      350B657A 
 367      4DF517A2 
 367      A97E3365 
 368 0c8e AEA7A6B4 		.ascii	"\256\247\246\264\377\254Y\277\345\016\235\347)k\300"
 368      FFAC59BF 
 368      E50E9DE7 
 368      296BC0
 369 0c9d 366BB6DE 		.ascii	"6k\266\3364\263u5;[\352\260K\332\202\035\262F\216a\372"
 369      34B37535 
 369      3B5BEAB0 
 369      4BDA821D 
 369      B2468E61 
 370 0cb2 93E54B8F 		.ascii	"\223\345K\217\255J\237,\207h\234c\250\376dy\227z\262"
 370      AD4A9F2C 
ARM GAS  /tmp/ccs6sxAx.s 			page 29


 370      87689C63 
 370      A8FE6479 
 370      977AB2
 371 0cc5 9CA7FB73 		.ascii	"\234\247\373s\2142\234,\377\373r\375\311\362\253f\361"
 371      8C329C2C 
 371      FFFB72FD 
 371      C9F2AB66 
 371      F1
 372 0cd6 0FD804C7 		.ascii	"\017\330\004\307\366\337e\204\256NG\241ez\221i\206\031"
 372      F6DF6584 
 372      AE4E47A1 
 372      657A9169 
 372      8619
 373 0ce8 4556A16B 		.ascii	"EV\241kIWF\350J:\302\177\322\214\377\224\021\237\224"
 373      495746E8 
 373      4A3AC27F 
 373      D28CFF94 
 373      119F94
 374 0cfb FCE4178F 		.ascii	"\374\344\027\217z\307\020\357\210\021\27615\301\361"
 374      7AC710EF 
 374      8811BE31 
 374      35C1F1
 375 0d0a C15F8EF3 		.ascii	"\301_\216\363E\343\276:^\014Fk\343>\241N\012\206\005"
 375      45E3BE3A 
 375      5E0C466B 
 375      E33EA14E 
 375      0A8605
 376 0d1d 71448014 		.ascii	"qD\200\024Ka10\236\306L\035E\311\027\214\004B\265\325"
 376      4B613130 
 376      9EC64C1D 
 376      45C9178C 
 376      0442B5D5 
 377 0d31 822F5053 		.ascii	"\202/PS'\215\250!\337\312\322!>9.M\216\011q\3506\270"
 377      278DA821 
 377      DFCAD221 
 377      3E392E4D 
 377      8E0971E8 
 378 0d47 2E284AB5 		.ascii	".(J\265|\310\217\023\370\245\252@\215\337p\353\033\331"
 378      7CC88F13 
 378      F8A5AA40 
 378      8DDF70EB 
 378      1BD9
 379 0d59 700235D5 		.ascii	"p\0025\325\200\341\256\223\374\021a\222\304\376\306"
 379      80E1AE93 
 379      FC116192 
 379      C4FEC6
 380 0d68 44A1CEC3 		.ascii	"D\241\316\303\360a\254_\212\373\"\023\260|\317W\023"
 380      F061AC5F 
 380      8AFB2213 
 380      B07CCF57 
 380      13
 381 0d79 0D0B3E51 		.ascii	"\015\013>Q\210\013\274\030\250\361\325\360bu=/\012>"
 381      880BBC18 
 381      A8F1D5F0 
 381      62753D2F 
 381      0A3E
 382 0d8b 5E0CDFE5 		.ascii	"^\014\337\345\233\030\010\014\207\306p!<^\250\256\026"
ARM GAS  /tmp/ccs6sxAx.s 			page 30


 382      9B18080C 
 382      87C67021 
 382      3C5EA8AE 
 382      16
 383 0d9c AA533722 		.ascii	"\252S7\"\321\2100\\\340\307\007\207\337\343\0375\374"
 383      D188305C 
 383      E0C70787 
 383      DFE31F35 
 383      FC
 384 0dad AE9177DE 		.ascii	"\256\221w\336\363\307\273|\206\007)j\342Ru0\302\030"
 384      F3C7BB7C 
 384      8607296A 
 384      E2527530 
 384      C218
 385 0dbf 2FAD85BF 		.ascii	"/\255\205\277w\337\345\227\246\321\377\337\354a>P\023"
 385      77DFE597 
 385      A6D1FFDF 
 385      EC613E50 
 385      13
 386 0dd0 8C083E7F 		.ascii	"\214\010>\177\2650\201\257\015I~M\276e~\277FO)\210\247"
 386      B53081AF 
 386      0D497E4D 
 386      BE657EBF 
 386      464F2988 
 387 0de5 5A08493C 		.ascii	"Z\010I<4&\324F\002~\024\030k\2250\301\361bi\240\346"
 387      3426D446 
 387      027E1418 
 387      6B9530C1 
 387      F16269A0 
 388 0dfa 37BF1E27 		.ascii	"7\277\036'Hc]uR\254\030\272\362\223K\224\256.x\232\303"
 388      48635D75 
 388      52AC18BA 
 388      F2934B94 
 388      AE2E789A 
 389 0e0f 346AC820 		.ascii	"4j\310 \241N\210H\232\"\213\005\311_'\335\232E{\330"
 389      A14E8848 
 389      9A228B05 
 389      C95F27DD 
 389      9A457BD8 
 390 0e23 9DD158A9 		.ascii	"\235\321X\251\014\214Gk\305\000(\255B\377\263J\371\021"
 390      0C8C476B 
 390      C50028AD 
 390      42FFB34A 
 390      F911
 391 0e35 0AC62521 		.ascii	"\012\306%!\302p+\2157\334B\010u_*\325\210\002_\355\227"
 391      C2702B8D 
 391      37DC4208 
 391      755F2AD5 
 391      88025FED 
 392 0e4a 3C60404A 		.ascii	"<`@J\273$\206O\340\0173\212{3(\211EE0\220\037>\362\360"
 392      BB24864F 
 392      E00F338A 
 392      7B332889 
 392      45453090 
 393 0e62 988727F9 		.ascii	"\230\207'\371\002\321p,\030\022\304\270\357'c\306\000"
 393      02D1702C 
 393      1812C4B8 
ARM GAS  /tmp/ccs6sxAx.s 			page 31


 393      EF2763C6 
 393      00
 394 0e73 719AFCDC 		.ascii	"q\232\374\334R\014\370\364+(\301\250;\020\215H\000\372"
 394      520CF8F4 
 394      2B28C1A8 
 394      3B108D48 
 394      00FA
 395 0e85 ED1C6835 		.ascii	"\355\034h5\201\250(\300\360rv\333\017\012\010H\223\276"
 395      81A828C0 
 395      F07276DB 
 395      0F0A0848 
 395      93BE
 396 0e97 EB648CBF 		.ascii	"\353d\214\277\356\27603\"Q\230\010\232\366K\234x\017"
 396      EEBE3033 
 396      22519808 
 396      9AF64B9C 
 396      780F
 397 0ea9 277E8F13 		.ascii	"'~\217\023\357\345\304\3738q\024'~\337%\3369\022\312"
 397      EFE5C4FB 
 397      38711427 
 397      7EDF25DE 
 397      3912CA
 398 0ebc 9D5C4884 		.ascii	"\235\\H\204?w\027\307\374\200\355f\274\326\2038b\376"
 398      3F7717C7 
 398      FC80ED66 
 398      BCD68338 
 398      62FE
 399 0ece 68A85A10 		.ascii	"h\250Z\020\213\002`cL\000|X(\225\342\022/\201`\335\314"
 399      8B026063 
 399      4C007C58 
 399      2895E212 
 399      2F8160DD 
 400 0ee3 12468188 		.ascii	"\022F\201\210\024\233\200\026t\307gn)\034\255\026\360"
 400      149B8016 
 400      74C7676E 
 400      291CAD16 
 400      F0
 401 0ef4 F784103F 		.ascii	"\367\204\020?1\356\226DaB\034\271f\215\342p|\"<T\355"
 401      31EE9644 
 401      61421CB9 
 401      668DE270 
 401      7C223C54 
 402 0f09 0886ABAD 		.ascii	"\010\206\253\255\022\261z2<*\025&\005\245\000\000\224"
 402      12B17A32 
 402      3C2A1526 
 402      05A50000 
 402      94
 403 0f1a D44BD1F1 		.ascii	"\324K\321\361\217\305\206\250\272\200\241\202(D\230"
 403      8FC586A8 
 403      BA80A182 
 403      284498
 404 0f29 4E8BEB25 		.ascii	"N\213\353%I\214\271\343\240:\030P\001:\212\013a>V\003"
 404      498CB9E3 
 404      A03A1850 
 404      013A8A0B 
 404      613E5603 
 405 0f3d 1C0FCBE6 		.ascii	"\034\017\313\346\340\002\023\306`\005/\356\377c\255"
ARM GAS  /tmp/ccs6sxAx.s 			page 32


 405      E00213C6 
 405      60052FEE 
 405      FF63AD
 406 0f4c 502B2831 		.ascii	"P+(1\302p\313\255\376-\0160\373+\216\373\341/\320\002"
 406      C270CBAD 
 406      FE2D0E30 
 406      FB2B8EFB 
 406      E12FD002 
 407 0f60 A36360D3 		.ascii	"\243c`\323\376p-\250,\3334ai\022SuXE\013\373\243\365"
 407      FE702DA8 
 407      2CDB3461 
 407      69125375 
 407      58450BFB 
 408 0f76 CCB4701C 		.ascii	"\314\264p\034p\031V\354\250^\202~\261r\264\2770\037"
 408      701956EC 
 408      A85E827E 
 408      B172B4BF 
 408      301F
 409 0f88 7F1C9E08 		.ascii	"\177\034\236\010\365\254\341\212\371k+5\202\230a\372"
 409      F5ACE18A 
 409      F96B2B35 
 409      829861FA 
 410 0f98 A5C13A12 		.ascii	"\245\301:\022\331\035O\314"
 410      D91D4FCC 
 411 0fa0 5FCF07A5 		.ascii	"_\317\007\245`dbY\314\017\022\300\211\240)\304\204\010"
 411      60646259 
 411      CC0F12C0 
 411      89A029C4 
 411      8408
 412 0fb2 C48D89F0 		.ascii	"\304\215\211\360\034\300Y\3172&r>\204\306\0067c\321"
 412      1CC059CF 
 412      3226723E 
 412      84C60637 
 412      63D1
 413 0fc4 68A81C6C 		.ascii	"h\250\034l\\\263w\017\264\025\307Q\334\004\325\005\276"
 413      5CB3770F 
 413      B415C751 
 413      DC04D505 
 413      BE
 414 0fd5 0DB7B1C9 		.ascii	"\015\267\261\311\236\327+:\024\342H7sD!^.\240\031\012"
 414      9ED72B3A 
 414      14E24837 
 414      7344215E 
 414      2EA0190A 
 415 0fe9 621D1F02 		.ascii	"b\035\037\002G\225~9\3761! \215\215\004%\227 \305\212"
 415      47957E39 
 415      FE312120 
 415      8D8D0425 
 415      9720C58A 
 416 0ffd 98D396   		.ascii	"\230\323\226"
 417 1000 C2ED7112 		.ascii	"\302\355q\022/Je,\016\374(\312\"\301\215\201\232\037"
 417      2F4A652C 
 417      0EFC28CA 
 417      22C18D81 
 417      9A1F
 418 1012 D7490F88 		.ascii	"\327I\017\210Q\276:\300\307\245\007\031\360\330\012"
 418      51BE3AC0 
ARM GAS  /tmp/ccs6sxAx.s 			page 33


 418      C7A50719 
 418      F0D80A
 419 1021 E5F92310 		.ascii	"\345\371#\020\316\244\261Y\3257\231\271\020\250k\334"
 419      CEA4B159 
 419      D53799B9 
 419      10A86BDC 
 420 1031 E4F8CFA3 		.ascii	"\344\370\317\243\201\307\037\024\243\341\261\343\036"
 420      81C71F14 
 420      A3E1B1E3 
 420      1E
 421 103e 19824E11 		.ascii	"\031\202N\021\202\033\376\011p\307\037\214\213\236\324"
 421      821BFE09 
 421      70C71F8C 
 421      8B9ED4
 422 104d AD11463C 		.ascii	"\255\021F<`\3007\346\341qc\307\245a\231\227\004\302"
 422      60C037E6 
 422      E17163C7 
 422      A5619997 
 422      04C2
 423 105f 0F425862 		.ascii	"\017BXbA\307\017\226$\371\037\370\341\270\037\377\352"
 423      41C70F96 
 423      24F91FF8 
 423      E1B81FFF 
 423      EA
 424 1070 91B183F8 		.ascii	"\221\261\203\370P=?9\016\234\206 \032\026\003\257\265"
 424      503D3F39 
 424      0E9C8620 
 424      1A1603AF 
 424      B5
 425 1081 C260230B 		.ascii	"\302`#\013c]B<6\004Iz4\022J\023u#RP\0331\220U\256\273"
 425      635D423C 
 425      3604497A 
 425      34124A13 
 425      75235250 
 426 109b 89525178 		.ascii	"\211RQxV \323\"\254d\217\322?\335j\034\365\244\030/"
 426      5620D322 
 426      AC648FD2 
 426      3FDD6A1C 
 426      F5A4182F 
 427 10af D7CDF75F 		.ascii	"\327\315\367_\353\2403\274"
 427      EBA033BC 
 428              		.text
 429              		.section	.gnu.lto_.symtab.6391b9b13a5685a,"",%progbits
 430 0000 6576744F 		.ascii	"evtObjectInit\000\000\000\000\000\000\000\000\000\000"
 430      626A6563 
 430      74496E69 
 430      74000000 
 430      00000000 
 431 0017 0000D700 		.ascii	"\000\000\327\000\000\000evtStart\000\000\000\000\000"
 431      00006576 
 431      74537461 
 431      72740000 
 431      000000
 432 002a 00000000 		.ascii	"\000\000\000\000\000\000\000\261\001\000\000chVTDoS"
 432      000000B1 
 432      01000063 
 432      68565444 
ARM GAS  /tmp/ccs6sxAx.s 			page 34


 432      6F53
 433 003c 65744900 		.ascii	"etI\000\000\002\000\000\000\000\000\000\000\000\000"
 433      00020000 
 433      00000000 
 433      000000
 434 004b B7010000 		.ascii	"\267\001\000\000chEvtBroadcastFlagsI\000\000\002\000"
 434      63684576 
 434      7442726F 
 434      61646361 
 434      7374466C 
 435 0067 00000000 		.ascii	"\000\000\000\000\000\000\000\000\271\001\000\000chV"
 435      00000000 
 435      B9010000 
 435      636856
 436 0076 54446F52 		.ascii	"TDoResetI\000\000\002\000\000\000\000\000\000\000\000"
 436      65736574 
 436      49000002 
 436      00000000 
 436      00000000 
 437 008a 00BF0100 		.ascii	"\000\277\001\000\000"
 437      00
 438              		.text
 439              		.section	.gnu.lto_.opts,"",%progbits
 440 0000 272D6D63 		.ascii	"'-mcpu=cortex-m4' '-mno-thumb-interwork' '-mthumb' "
 440      70753D63 
 440      6F727465 
 440      782D6D34 
 440      2720272D 
 441 0033 272D6767 		.ascii	"'-ggdb' '-O2' '-fomit-frame-pointer' '-falign-funct"
 441      64622720 
 441      272D4F32 
 441      2720272D 
 441      666F6D69 
 442 0066 696F6E73 		.ascii	"ions=16' '-ffunction-sections' '-fdata-sections' '-"
 442      3D313627 
 442      20272D66 
 442      66756E63 
 442      74696F6E 
 443 0099 666E6F2D 		.ascii	"fno-common' '-flto'\000"
 443      636F6D6D 
 443      6F6E2720 
 443      272D666C 
 443      746F2700 
 444              		.text
 445              		.cfi_sections	.debug_frame
 446              		.section	.text.tmrcb,"ax",%progbits
 447              		.align	2
 448              		.p2align 4,,15
 449              		.thumb
 450              		.thumb_func
 451              		.type	tmrcb, %function
 452              	tmrcb:
 453              	.LFB242:
 454              		.file 1 "../ChibiOS/os/various/evtimer.c"
 455              		.loc 1 48 0
 456              		.cfi_startproc
 457              		@ args = 0, pretend = 0, frame = 0
ARM GAS  /tmp/ccs6sxAx.s 			page 35


 458              		@ frame_needed = 0, uses_anonymous_args = 0
 459              	.LVL0:
 460 0000 10B5     		push	{r4, lr}
 461              		.cfi_def_cfa_offset 8
 462              		.cfi_offset 4, -8
 463              		.cfi_offset 14, -4
 464              	.LBB77:
 465              	.LBB78:
 466              	.LBB79:
 467              	.LBB80:
 468              	.LBB81:
 469              		.file 2 "../ChibiOS/os/ext/CMSIS/include/core_cmFunc.h"
 470              		.loc 2 548 0
 471 0002 2023     		movs	r3, #32
 472              	.LBE81:
 473              	.LBE80:
 474              	.LBE79:
 475              	.LBE78:
 476              	.LBE77:
 477              		.loc 1 48 0
 478 0004 0446     		mov	r4, r0
 479              	.LVL1:
 480              	.LBB86:
 481              	.LBB85:
 482              	.LBB84:
 483              	.LBB83:
 484              	.LBB82:
 485              		.loc 2 548 0
 486              	@ 548 "../ChibiOS/os/ext/CMSIS/include/core_cmFunc.h" 1
 487 0006 83F31188 		MSR basepri, r3
 488              	@ 0 "" 2
 489              	.LVL2:
 490              		.thumb
 491              	.LBE82:
 492              	.LBE83:
 493              	.LBE84:
 494              	.LBE85:
 495              	.LBE86:
 496              	.LBB87:
 497              	.LBB88:
 498              		.file 3 "../ChibiOS/os/rt/include/chevents.h"
 499              		.loc 3 256 0
 500 000a 0021     		movs	r1, #0
 501 000c 1430     		adds	r0, r0, #20
 502              	.LVL3:
 503 000e FFF7FEFF 		bl	chEvtBroadcastFlagsI
 504              	.LVL4:
 505              	.LBE88:
 506              	.LBE87:
 507              		.loc 1 53 0
 508 0012 2346     		mov	r3, r4
 509 0014 2046     		mov	r0, r4
 510 0016 A169     		ldr	r1, [r4, #24]
 511 0018 034A     		ldr	r2, .L2
 512 001a FFF7FEFF 		bl	chVTDoSetI
 513              	.LVL5:
 514              	.LBB89:
ARM GAS  /tmp/ccs6sxAx.s 			page 36


 515              	.LBB90:
 516              	.LBB91:
 517              	.LBB92:
 518              	.LBB93:
 519              		.loc 2 548 0
 520 001e 0023     		movs	r3, #0
 521              	@ 548 "../ChibiOS/os/ext/CMSIS/include/core_cmFunc.h" 1
 522 0020 83F31188 		MSR basepri, r3
 523              	@ 0 "" 2
 524              		.thumb
 525 0024 10BD     		pop	{r4, pc}
 526              	.LVL6:
 527              	.L3:
 528 0026 00BF     		.align	2
 529              	.L2:
 530 0028 00000000 		.word	tmrcb
 531              	.LBE93:
 532              	.LBE92:
 533              	.LBE91:
 534              	.LBE90:
 535              	.LBE89:
 536              		.cfi_endproc
 537              	.LFE242:
 538              		.size	tmrcb, .-tmrcb
 539 002c AFF30080 		.section	.text.evtObjectInit,"ax",%progbits
 540              		.align	2
 541              		.p2align 4,,15
 542              		.global	evtObjectInit
 543              		.thumb
 544              		.thumb_func
 545              		.type	evtObjectInit, %function
 546              	evtObjectInit:
 547              	.LFB243:
 548              		.loc 1 67 0
 549              		.cfi_startproc
 550              		@ args = 0, pretend = 0, frame = 0
 551              		@ frame_needed = 0, uses_anonymous_args = 0
 552              		@ link register save eliminated.
 553              	.LVL7:
 554              		.loc 1 69 0
 555 0000 00F11402 		add	r2, r0, #20
 556              	.LVL8:
 557              	.LBB94:
 558              	.LBB95:
 559              		.file 4 "../ChibiOS/os/rt/include/chvt.h"
 560              		.loc 4 212 0
 561 0004 0023     		movs	r3, #0
 562              	.LBE95:
 563              	.LBE94:
 564              		.loc 1 71 0
 565 0006 8161     		str	r1, [r0, #24]
 566              	.LBB97:
 567              	.LBB98:
 568              		.loc 3 172 0
 569 0008 4261     		str	r2, [r0, #20]
 570              	.LVL9:
 571              	.LBE98:
ARM GAS  /tmp/ccs6sxAx.s 			page 37


 572              	.LBE97:
 573              	.LBB99:
 574              	.LBB96:
 575              		.loc 4 212 0
 576 000a C360     		str	r3, [r0, #12]
 577 000c 7047     		bx	lr
 578              	.LBE96:
 579              	.LBE99:
 580              		.cfi_endproc
 581              	.LFE243:
 582              		.size	evtObjectInit, .-evtObjectInit
 583 000e 00BF     		.section	.text.evtStart,"ax",%progbits
 584              		.align	2
 585              		.p2align 4,,15
 586              		.global	evtStart
 587              		.thumb
 588              		.thumb_func
 589              		.type	evtStart, %function
 590              	evtStart:
 591              	.LFB244:
 592              		.loc 1 80 0
 593              		.cfi_startproc
 594              		@ args = 0, pretend = 0, frame = 0
 595              		@ frame_needed = 0, uses_anonymous_args = 0
 596              	.LVL10:
 597 0000 38B5     		push	{r3, r4, r5, lr}
 598              		.cfi_def_cfa_offset 16
 599              		.cfi_offset 3, -16
 600              		.cfi_offset 4, -12
 601              		.cfi_offset 5, -8
 602              		.cfi_offset 14, -4
 603              		.loc 1 80 0
 604 0002 0446     		mov	r4, r0
 605              	.LBB115:
 606              	.LBB116:
 607              	.LBB117:
 608              	.LBB118:
 609              	.LBB119:
 610              		.loc 2 548 0
 611 0004 2023     		movs	r3, #32
 612              	.LBE119:
 613              	.LBE118:
 614              	.LBE117:
 615              	.LBE116:
 616              	.LBE115:
 617              		.loc 1 82 0
 618 0006 8569     		ldr	r5, [r0, #24]
 619              	.LVL11:
 620              	.LBB133:
 621              	.LBB123:
 622              	.LBB122:
 623              	.LBB121:
 624              	.LBB120:
 625              		.loc 2 548 0
 626              	@ 548 "../ChibiOS/os/ext/CMSIS/include/core_cmFunc.h" 1
 627 0008 83F31188 		MSR basepri, r3
 628              	@ 0 "" 2
ARM GAS  /tmp/ccs6sxAx.s 			page 38


 629              	.LVL12:
 630              		.thumb
 631              	.LBE120:
 632              	.LBE121:
 633              	.LBE122:
 634              	.LBE123:
 635              	.LBB124:
 636              	.LBB125:
 637              	.LBB126:
 638              	.LBB127:
 639              		.loc 4 412 0
 640 000c C368     		ldr	r3, [r0, #12]
 641 000e 0BB1     		cbz	r3, .L6
 642              		.loc 4 413 0
 643 0010 FFF7FEFF 		bl	chVTDoResetI
 644              	.LVL13:
 645              	.L6:
 646              	.LBE127:
 647              	.LBE126:
 648              		.loc 4 460 0
 649 0014 2346     		mov	r3, r4
 650 0016 2046     		mov	r0, r4
 651 0018 2946     		mov	r1, r5
 652 001a 034A     		ldr	r2, .L11
 653 001c FFF7FEFF 		bl	chVTDoSetI
 654              	.LVL14:
 655              	.LBE125:
 656              	.LBE124:
 657              	.LBB128:
 658              	.LBB129:
 659              	.LBB130:
 660              	.LBB131:
 661              	.LBB132:
 662              		.loc 2 548 0
 663 0020 0023     		movs	r3, #0
 664              	@ 548 "../ChibiOS/os/ext/CMSIS/include/core_cmFunc.h" 1
 665 0022 83F31188 		MSR basepri, r3
 666              	@ 0 "" 2
 667              		.thumb
 668 0026 38BD     		pop	{r3, r4, r5, pc}
 669              	.LVL15:
 670              	.L12:
 671              		.align	2
 672              	.L11:
 673 0028 00000000 		.word	tmrcb
 674              	.LBE132:
 675              	.LBE131:
 676              	.LBE130:
 677              	.LBE129:
 678              	.LBE128:
 679              	.LBE133:
 680              		.cfi_endproc
 681              	.LFE244:
 682              		.size	evtStart, .-evtStart
 683 002c AFF30080 		.text
 684              	.Letext0:
 685              		.file 5 "/nfs/nfs5/home/research/hardware/arm2/gcc-arm-embedded/gcc-arm-none-eabi-4_8-2014q2/arm-n
ARM GAS  /tmp/ccs6sxAx.s 			page 39


 686              		.file 6 "/nfs/nfs5/home/research/hardware/arm2/gcc-arm-embedded/gcc-arm-none-eabi-4_8-2014q2/arm-n
 687              		.file 7 "../ChibiOS/os/rt/ports/ARMCMx/compilers/GCC/chtypes.h"
 688              		.file 8 "../ChibiOS/os/rt/include/chsystypes.h"
 689              		.file 9 "../ChibiOS/os/rt/include/chschd.h"
 690              		.file 10 "../ChibiOS/os/rt/ports/ARMCMx/chcore.h"
 691              		.file 11 "../ChibiOS/os/rt/ports/ARMCMx/chcore_v7m.h"
 692              		.file 12 "../ChibiOS/os/rt/include/chtm.h"
 693              		.file 13 "../ChibiOS/os/rt/include/chsem.h"
 694              		.file 14 "../ChibiOS/os/rt/include/chmtx.h"
 695              		.file 15 "../ChibiOS/os/various/evtimer.h"
 696              		.file 16 "../ChibiOS/os/rt/include/chsys.h"
 697              		.file 17 "../ChibiOS/os/ext/CMSIS/include/core_cm4.h"