ARM GAS  /tmp/ccs6sxAx.s 			page 1


   1              		.syntax unified
   2              		.cpu cortex-m4
   3              		.fpu softvfp
   4              		.eabi_attribute 20, 1
   5              		.eabi_attribute 21, 1
   6              		.eabi_attribute 23, 3
   7              		.eabi_attribute 24, 1
   8              		.eabi_attribute 25, 1
   9              		.eabi_attribute 26, 1
  10              		.eabi_attribute 30, 2
  11              		.eabi_attribute 34, 1
  12              		.eabi_attribute 18, 4
  13              		.thumb
  14              		.file	"evtimer.c"
  15              		.text
  16              	.Ltext0:
  17              		.section	.gnu.lto_.jmpfuncs.6391b9b13a5685a,"",%progbits
  18 0000 789C6362 		.ascii	"x\234cb`b\300\006\212\2404\013\003#\013\210f\252f\370"
  18      6062C006 
  18      8AA0340B 
  18      03230B88 
  18      66AA66F8 
  19 0014 D5D0D120 		.ascii	"\325\320\321 \220\311\310\220\314\010\226a\006\3422"
  19      90C9C890 
  19      CC089661 
  19      06E232
  20 0023 069076A6 		.ascii	"\006\220v\246\010\306LF\220 #?\013T\024H1B(&\010\305"
  20      08C64C46 
  20      9020233F 
  20      0B541448 
  20      31422826 
  21 0039 0CA41861 		.ascii	"\014\244\030aZ\230\231q\031\012\004\000\335\341\014"
  21      5A989971 
  21      190A0400 
  21      DDE10C
  22 0048 00       		.ascii	"\000"
  23              		.text
  24              		.section	.gnu.lto_.inline.6391b9b13a5685a,"",%progbits
  25 0000 789C6362 		.ascii	"x\234cb`b\300\006\026Ci\026\006\006>yFF\006F \233\211"
  25      6062C006 
  25      16436916 
  25      06063E79 
  25      46460646 
  26 0017 B5439D81 		.ascii	"\265C\235\201\275C\035\254\203\225\017(9\301o\202\037"
  26      BD431DAC 
  26      83950F28 
  26      39C16F82 
  26      1F
  27 0028 C3043F66 		.ascii	"\303\004?f\036\240$\220\305\310\300+\303\210C\031\010"
  27      1EA02490 
  27      C5C8C02B 
  27      C3884319 
  27      08
  28 0039 32713330 		.ascii	"2q300\002)\0066V\230\221\314;\304\0318o\230\201\325"
  28      30022906 
  28      36569891 
  28      CC3BC419 
ARM GAS  /tmp/ccs6sxAx.s 			page 2


  28      386F9881 
  29 004e 3233700B 		.ascii	"23p\01332\201\305A\004\363\001F\026\226\005\362\014"
  29      333281C5 
  29      4104F301 
  29      46169605 
  29      F20C
  30 0060 6C0BE481 		.ascii	"l\013\344\201\202/\3309 $\272\345\014\000\2026\025\026"
  30      822FD839 
  30      2024BAE5 
  30      0C008236 
  30      1516
  31              		.text
  32              		.section	.gnu.lto_.pureconst.6391b9b13a5685a,"",%progbits
  33 0000 789C6362 		.ascii	"x\234cb`b\340d\200\000\026\006+FI&)f+\000\003\321\000"
  33      6062E064 
  33      80001606 
  33      2B464926 
  33      29662B00 
  34 0017 BF       		.ascii	"\277"
  35              		.text
  36              		.section	.gnu.lto_tmrcb.6391b9b13a5685a,"",%progbits
  37 0000 789C8553 		.ascii	"x\234\205S]H\024Q\024>gf\377\2646\267\307\240d3{qu\247"
  37      5D481451 
  37      143E6766 
  37      FFB436B7 
  37      C7A06433 
  38 0018 B75E0B21 		.ascii	"\267^\013!\350a\011\\\205z\222q\032v/\270\3562\263\273"
  38      E861095C 
  38      857A9271 
  38      1A762FB8 
  38      EE32B3BB 
  39 002c 6812CEAA 		.ascii	"h\022\316\252a\220\017\"=\224\021\245\024\221D\006\222"
  39      61900F22 
  39      3D9411A5 
  39      14914406 
  39      92
  40 003d D20FEED2 		.ascii	"\322\017\356\322C$\221&\275\371\244\364\030\224\022"
  40      43249126 
  40      BDF9A4F4 
  40      189412
  41 004c BD2CC276 		.ascii	"\275,\302v\356\374\254\343*z\207{\357\314\275\347|\337"
  41      EEFCACE3 
  41      2A7A877B 
  41      EFCCBDE7 
  41      7CDF
  42 005e 39DF3923 		.ascii	"9\3379#\200\000\265\343\024\315f\017\300o\332Q\004\024"
  42      8000B5E3 
  42      14CD660F 
  42      C06FDA51 
  42      0414
  43 0070 2656000A 		.ascii	"&V\000\012\001\001\221\277\000\302\220\200C7\320\264"
  43      010191BF 
  43      00C29080 
  43      4337D0B4 
  44 0080 9D134A1B 		.ascii	"\235\023J\033\225\312\353\357\333\233i\014\"\246\020"
  44      95CAEBEF 
  44      DB9B690C 
ARM GAS  /tmp/ccs6sxAx.s 			page 3


  44      22A610
  45 008f 3CC0107C 		.ascii	"<\300\020|\264\240\237\026\216\356\205Q\303\230\010"
  45      B4A09F16 
  45      8EEE8551 
  45      C39808
  46 009e 37C1B461 		.ascii	"7\301\264aL\226~\274\\Fc\322(lU*\015\014E\001\316!("
  46      4C967EBC 
  46      5C4663D2 
  46      286C552A 
  46      0D0C4501 
  47 00b5 08D791A1 		.ascii	"\010\327\221\241'ln^OmD\212I\326I+\217\240\213Pi\027"
  47      276C6E5E 
  47      4F6D448A 
  47      49D6492B 
  47      8FA08B50 
  48 00cb 97419071 		.ascii	"\227A\220q\032\275 \343\0146A\002\351~\031\206\003\000"
  48      1ABD20E3 
  48      0C364102 
  48      E97E1986 
  48      0300
  49 00dd 16D5C693 		.ascii	"\026\325\306\223\315\217\255\017\215\322\350Sc\247R"
  49      CD8FAD0F 
  49      8DD2E853 
  49      63A752
  50 00ec 4142F609 		.ascii	"AB\366\011\020?\212\215\237\371\302\364\262\002\303"
  50      103F8A8D 
  50      9FF9C2F4 
  50      B202C3
  51 00fb DBEF46E6 		.ascii	"\333\357F\346\307E;~'\221R\361S9D\314\317\210\32393"
  51      C7453B7E 
  51      279152F1 
  51      533944CC 
  51      CF88D339 
  52 0110 5E144F57 		.ascii	"^\024OW\357\177\336\037\017\266U\277\276\276\215\000"
  52      EF7FDE1F 
  52      0FB655BF 
  52      BEBE8D00 
  53 0120 58712AC8 		.ascii	"Xq*\310\311\005\232\"M\223\027\351\231\245O\322I\264"
  53      C9059A22 
  53      4D9317E9 
  53      99A54FD2 
  53      49B4
  54 0132 4AD1081F 		.ascii	"J\321\010\037\360\261\361\340\022#\375\334\341\354\336"
  54      F0B1F1E0 
  54      1223FDDC 
  54      E1ECDE
  55 0141 2FD9F701 		.ascii	"/\331\367\001+\340o0\\\036\231\377ak\221@\317 \334\242"
  55      2BE06F30 
  55      5C1E99FF 
  55      616B9140 
  55      CF20DCA2 
  56 0155 124460D6 		.ascii	"\022D`\326\240\321\315\260\356\021L\021J=\011\304\321"
  56      A0D1CDB0 
  56      EE114C11 
  56      4A3D09C4 
  56      D1
  57 0166 44D3AB07 		.ascii	"D\323\253\007]9\223j\245\026\313\337\256\322\332\277"
ARM GAS  /tmp/ccs6sxAx.s 			page 4


  57      5D39936A 
  57      A516CBDF 
  57      AED2DABF 
  58 0176 2FAE2A11 		.ascii	"/\256*\021\363g<J\270\004\317h\025\356lM\215\315\224"
  58      F3673C4A 
  58      B804CF68 
  58      15EE6C4D 
  58      8DCD94
  59 0189 855AD1EE 		.ascii	"\205Z\321\356-\020\301\274)\231#\206\327\362\033\204"
  59      2D10C1BC 
  59      29992386 
  59      D7F21B84 
  60 0199 B271D708 		.ascii	"\262q\327\0101<\246\240O\306\005\353\234\3208\011\245"
  60      313CA6A0 
  60      4FC605EB 
  60      9CD03809 
  60      A5
  61 01aa CCF0B89D 		.ascii	"\314\360\270\235\344\342/t\222\364\231I\242\235d\027"
  61      E4E22F74 
  61      92F49949 
  61      A29D6417 
  62 01ba C3E0C149 		.ascii	"\303\340\301I\272\262$\210\3657~\007\300\037\201\026"
  62      BAB22488 
  62      F5377E07 
  62      C01F8116 
  63 01ca 8627C8AB 		.ascii	"\206'\310\253@\000\267\367{:\377\305*\214\225\316X^"
  63      4000B7F7 
  63      7B3AFFC5 
  63      2A8C95CE 
  63      585E
  64 01dc AE581B14 		.ascii	"\256X\033\024\253<<\024\002\343\347\001\206!R\3106M"
  64      AB3C3C14 
  64      02E3E701 
  64      862152C8 
  64      364D
  65 01ee F07E3B59 		.ascii	"\360~;Y\333\220\323K5\015)\343s\263!\216\354H8\264#"
  65      DB90D34B 
  65      350D29E3 
  65      73B3218E 
  65      EC4838B4 
  66 0203 D7777847 		.ascii	"\327wxG\026\335\035\371\267\330\350\352\310\367Ai\267"
  66      16DD1DF9 
  66      B7D8E8EA 
  66      C8F74169 
  66      B7
  67 0214 148B6DBB 		.ascii	"\024\213m\273E\010\320\254\243Y\177@G\312\370\212^\252"
  67      4508D0AC 
  67      A3597F40 
  67      47CAF88A 
  67      5EAA
  68 0226 F44E07CA 		.ascii	"\364N\007\3128\207\215VhkP\330\370#8\352X\243\223D\247"
  68      38878D56 
  68      686B50D8 
  68      F82338EA 
  68      58A39344 
  69 023b DF939B86 		.ascii	"\337\223\233\206\243Q\251=\311z\330\265\270\224\326"
  69      A351A93D 
ARM GAS  /tmp/ccs6sxAx.s 			page 5


  69      C97AD8B5 
  69      B894D6
  70 024a A5BCACB1 		.ascii	"\245\274\254\261tN\227\324|\226\245T-\252\200\250f3"
  70      744E97D4 
  70      7C96A554 
  70      2DAA80A8 
  70      6633
  71 025c 91BD465A 		.ascii	"\221\275FZV\312\244\265\254.]\356\210\265\307\372%%"
  71      56CAA4B5 
  71      AC2E5DEE 
  71      88B5C7FA 
  71      2525
  72 026e A9A435B5 		.ascii	"\251\2445\265;\1771\025M\2027/\367\346\324\350^\017"
  72      3B7F3115 
  72      4D82372F 
  72      F7E6D4E8 
  72      5E0F
  73 0280 B53F2BB5 		.ascii	"\265?+\265\307\342W\343\022\353Szs7U\311\364PRWr}\012"
  73      C7E257E3 
  73      12EB537A 
  73      733755C9 
  73      F4505257 
  74 0297 399DDD47 		.ascii	"9\235\335GP\265K\352\003:Y\204b\361\216p\217\254\253"
  74      50B54BEA 
  74      033A5984 
  74      62F18E70 
  74      8FACAB
  75 02aa 198DB586 		.ascii	"\031\215\265\206\317_\000A\003\177JM\245\265\001\012"
  75      CF5F0041 
  75      037F4A4D 
  75      A5B5010A 
  76 02ba 51CF341F 		.ascii	"Q\3174\037\202\240\346\325\276,\007\371\017\037\266"
  76      82A0E6D5 
  76      BE2C07F9 
  76      0F1FB6
  77 02c9 3F4B     		.ascii	"?K"
  78              		.text
  79              		.section	.gnu.lto_chVTSetI.6391b9b13a5685a,"",%progbits
  80 0000 789C7D52 		.ascii	"x\234}R1K\034A\030}of\366<N\013\333\024\302a \345-\330"
  80      314B1C41 
  80      187D6F66 
  80      F63C4E0B 
  80      DB14C261 
  81 0018 5BE507A4 		.ascii	"[\345\007\244\210\202\226\233U\356\026r\032\314i\223"
  81      8882969B 
  81      55EE1672 
  81      1ACC6993 
  82 0028 C2B9E344 		.ascii	"\302\271\343D\313\303\"\202g\304S\264SI M\270\200\246"
  82      CBC32282 
  82      67C453B4 
  82      5349204D 
  82      B880A6
  83 003b 8A8511EB 		.ascii	"\212\205\021\353H\330>\011\251R(\222\3137\273^\342Y"
  83      48D83E09 
  83      A9522892 
  83      CB37BB5E 
  83      E259
ARM GAS  /tmp/ccs6sxAx.s 			page 6


  84 004d 38B0DF37 		.ascii	"8\260\3377\337\354{o\336\3671\012\012w\327\210|\327"
  84      DFEC7B6F 
  84      DEF7310A 
  84      0A77D788 
  84      7CD7
  85 005f 041E49A6 		.ascii	"\004\036I\246\007\252\306\027\240\232UJ7Gas\346\367"
  85      07AAC617 
  85      A09A554A 
  85      37476173 
  85      E6F7
  86 0071 20EC80A6 		.ascii	" \354\200\246I\217\015\3516 \026\2256\\\234d\"r\250"
  86      498F0DE9 
  86      36201695 
  86      365C9C64 
  86      2272A8
  87 0084 8EE24EE7 		.ascii	"\216\342N\347\340\335\267\366\005/U\277b\2310\022\350"
  87      E0DDB7F6 
  87      052F55BF 
  87      62993012 
  87      E8
  88 0095 49501909 		.ascii	"IP\031\011:\213(\301z\250[\333\310\003aR\216It\212\343"
  88      3A8B28C1 
  88      7AA85BDB 
  88      C8036152 
  88      8E49748A 
  89 00aa 542EEB13 		.ascii	"T.\353\023\324\262\3000Z\326\256\036\275\335|\375\300"
  89      D4B2C030 
  89      5AD6AE1E 
  89      BDDD7CFD 
  89      C0
  90 00bb 6ED51AF6 		.ascii	"n\325\032\366O\247\303\210\002yH\307\233\220B\345\223"
  90      4FA7C388 
  90      027948C7 
  90      9B9042E5 
  90      93
  91 00cc A44D6F3B 		.ascii	"\244Mo;E\001\341\004\237D\244L\023p\233\303rz\212\332"
  91      4501E104 
  91      9F44A44C 
  91      13709BC3 
  91      727A8ADA 
  92 00e0 87A5EFEF 		.ascii	"\207\245\357\357K\356\177\266\211\365\252\265\203\021"
  92      4BEE7FB6 
  92      89F5AAB5 
  92      8311
  93 00ee 8D809D06 		.ascii	"\215\200\235\006\007R\256\334\035\267\177\346\3769L"
  93      0752AEDC 
  93      1DB77FE6 
  93      FE394C
  94 00fd 37F6577B 		.ascii	"7\366W{\250\253\023\260%3\012\231X/\323\223+\022\332"
  94      A8AB13B0 
  94      25330A99 
  94      582FD393 
  94      2B12DA
  95 0110 7FCB5FD7 		.ascii	"\177\313_\327z-\007\334\021G\302\270\307\263\010\001"
  95      7A2D07DC 
  95      1147C2B8 
  95      C7B30801 
ARM GAS  /tmp/ccs6sxAx.s 			page 7


  96 0120 9F51FF71 		.ascii	"\237Q\377q|\271\256\003\356J)6\035\262\0078N\215\346"
  96      7CB9AE03 
  96      EE4A2936 
  96      1DB20738 
  96      4E8DE6
  97 0133 A83E433D 		.ascii	"\250>C=\376\270\237Kq\300+\\\331\025\327\215\027R\005"
  97      FEB89F4B 
  97      71C02B5C 
  97      D915D78D 
  97      175205
  98 0146 DC4B0EDD 		.ascii	"\334K\016\335\030\"f\272<\223\214\366\014\313\361\306"
  98      182266BA 
  98      3C938CF6 
  98      0CCBF1C6 
  99 0156 615FDAC3 		.ascii	"a_\332\303-b_(\3027\244\242\033\212Wd&\242\364t\216"
  99      2D625F28 
  99      C237A4A2 
  99      1B8A5764 
  99      26A2F474 
 100 016b 6AFCC6EF 		.ascii	"j\374\306\357\022\3225&\315\213\232{H\371B\301\177\\"
 100      12D23526 
 100      CD8B9A7B 
 100      48F942C1 
 100      7F5C
 101 017d 8A9E454F 		.ascii	"\212\236EO\236\372\263/\375\271\212\037\315\204\317"
 101      9EFAB32F 
 101      FDB98A1F 
 101      CD84CF
 102 018c E7A7A6FD 		.ascii	"\347\247\246\375\260\264P)\224\240\027*/\376\002\365"
 102      B0B45029 
 102      94A0172A 
 102      2FFE02F5 
 103 019c 418731   		.ascii	"A\2071"
 104              		.text
 105              		.section	.gnu.lto_evtObjectInit.6391b9b13a5685a,"",%progbits
 106 0000 789C8552 		.ascii	"x\234\205R1k\024A\030\375\336l\366\274D\305\0246V9\022"
 106      316B1441 
 106      18FDDE6C 
 106      F6BC44C5 
 106      14365639 
 107 0015 1B156E7F 		.ascii	"\033\025n\177\204?\300B\003\246\020\271\254Kn \233\034"
 107      843FC042 
 107      03A610B9 
 107      AC4B6E20 
 107      9B1C
 108 0027 779B2DB4 		.ascii	"w\233-\264\310\334%\\c\212x\201\030\265\220\203\004"
 108      C8DC255C 
 108      638A7881 
 108      18B59083 
 108      04
 109 0038 8245C42A 		.ascii	"\202E\304*\021,V\204$r(X\330/Z\012\022;\021a\375fg<"
 109      112C5684 
 109      24722858 
 109      D82F5A0A 
 109      123B1161 
 110 0050 BC23E0C0 		.ascii	"\274#\340\300\356|\014\357}\357\275oF\220\240\341u\211"
 110      EE7C0CEF 
ARM GAS  /tmp/ccs6sxAx.s 			page 8


 110      7DEFBD6F 
 110      4690A0E1 
 110      7589
 111 0062 BF361FD7 		.ascii	"\2776\037\327x\207C\020\353\037\211\232E\001\350\202"
 111      78874310 
 111      EB1F899A 
 111      4501E882 
 112 0072 40CB02CB 		.ascii	"@\313\002\3133\310\261/E\222f\331\336f\373\315\032\236"
 112      33C8B12F 
 112      459266D9 
 112      DE66FBCD 
 112      1A9E
 113 0084 88312004 		.ascii	"\2101 \004w\224\240\002W\032\342\322\252R\353%\"?'\334"
 113      7794A002 
 113      571AE2D2 
 113      AA52EB25 
 113      223F27DC 
 114 0098 E2BFEE32 		.ascii	"\342\277\3562\015\241w\347\003\265~\255\354\257]\255"
 114      0DA177E7 
 114      03B57EAD 
 114      ECAF5DAD 
 115 00a8 A00B97E6 		.ascii	"\240\013\227\346 \036\320}f_\243\027\212\327]\011<\243"
 115      201ED07D 
 115      665FA317 
 115      8AD75D09 
 115      3CA3
 116 00ba A7901073 		.ascii	"\247\220\020s\300m\336\235\\u\026\377\330}O\255\304"
 116      C06DDE9D 
 116      5C7516FF 
 116      D87D4FAD 
 116      C4
 117 00cb F227A9AB 		.ascii	"\362'\251\253T'y\334\356AuT\363$\313.H\355g\012Z^\363"
 117      542779DC 
 117      EE417554 
 117      F324CB2E 
 117      48ED670A 
 118 00e2 474AF9E6 		.ascii	"GJ\371\346\216\014Ffa\"\366\322\373\275\361\275\345"
 118      8E0C4666 
 118      6122F6D2 
 118      FBBDF1BD 
 118      E5
 119 00f3 F63D9B22 		.ascii	"\366=\233\"\351\035v\335\012v0\311H#\344\347\331\254"
 119      E91D76DD 
 119      0A7630C9 
 119      4823E4E7 
 119      D9AC
 120 0105 CDF4F98F 		.ascii	"\315\364\371\217\315\202D\201\2356\225\032g\317\326"
 120      CD824481 
 120      9D36951A 
 120      67CFD6
 121 0114 2C5D3466 		.ascii	",]4f\241i\273L3:l\370\344\313\253m\230V\241\315|\306"
 121      A169BB4C 
 121      333A6CF8 
 121      E4CBAB6D 
 121      9856A1CD 
 122 012a 66BE2351 		.ascii	"f\276#Q<=\263\271)\303\262\271\257\374\355\341\204\266"
 122      3C3DB3B9 
ARM GAS  /tmp/ccs6sxAx.s 			page 9


 122      29C3B2B9 
 122      AFFCEDE1 
 122      84B6
 123 013c 7391EC14 		.ascii	"s\221\354\024\322\327\355\317\357\320YQ\307j5\3112L"
 123      D2D7EDCF 
 123      EFD05951 
 123      C76A35C9 
 123      324C
 124 014e B08460E4 		.ascii	"\260\204`\344\177&\021j9\236\304\301\326\267\267bx\020"
 124      7F26116A 
 124      399EC4C1 
 124      D6B7B762 
 124      7810
 125 0160 0F8F1EF1 		.ascii	"\017\217\036\361 \366\006\006\221\273\352G\037\265\236"
 125      20F60606 
 125      91BBEA47 
 125      1FB59E
 126 016f C7CEE963 		.ascii	"\307\316\351c]\215\352B\217\366\347\327T\030\222Mz^"
 126      5D8DEA42 
 126      8FF6E7D7 
 126      5418924D 
 126      7A5E
 127 0181 E2ECE949 		.ascii	"\342\354\351I\035{)\005\242O\324L\267\246\372\241\311"
 127      1D7B2905 
 127      A24FD44C 
 127      B7A6FAA1 
 127      C9
 128 0192 3C22E8C7 		.ascii	"<\"\350\307\243\225K\345\262w\275*g\345\215\233\336"
 128      A3954BE5 
 128      B277BD2A 
 128      67E58D9B 
 128      DE
 129 01a3 62C38B2B 		.ascii	"b\303\213+u\271\270\324\360\2028\222aP/\373\344\004"
 129      75B9B8D4 
 129      F0823892 
 129      61502FFB 
 129      E404
 130 01b5 8DDAE541 		.ascii	"\215\332\345AP=\362\344\202?\277t/\360\374j\020\007"
 130      503DF2E4 
 130      823FBF74 
 130      2FF0FC6A 
 130      1007
 131 01c7 0B51A35C 		.ascii	"\013Q\243\\\035\3564\000\212#\0068qT\373\003L\320\275"
 131      1DEE3400 
 131      8A230638 
 131      7154FB03 
 131      4CD0BD
 132 01da D7       		.ascii	"\327"
 133              		.text
 134              		.section	.gnu.lto_evtStart.6391b9b13a5685a,"",%progbits
 135 0000 789C8D54 		.ascii	"x\234\215TMh\023Q\020\236y\273IScM\257\212\224X\021"
 135      4D681351 
 135      109E79BB 
 135      4953634D 
 135      AF8A9458 
 136 0015 C1D6AC07 		.ascii	"\301\326\254\007\301\243JA\360\020\204\246\202\342A"
 136      C1A34A41 
ARM GAS  /tmp/ccs6sxAx.s 			page 10


 136      F01084A6 
 136      82E241
 137 0024 B6DBB559 		.ascii	"\266\333\265Yh\232\260\331\254\255=t\323\226*\250P\012"
 137      689AB0D9 
 137      ACAD3D74 
 137      D3962AA8 
 137      500A
 138 0036 52AD08E6 		.ascii	"R\255\010\346P\304\026\352\037V\204\240\013EADm\017"
 138      50C416EA 
 138      1F5684A0 
 138      0B454144 
 138      6D0F
 139 0048 05693D44 		.ascii	"\005i=D<\010J!\275(\324B\234}\233\306\246\225\244/\354"
 139      3C084A21 
 139      BD28D442 
 139      9C7D9BC6 
 139      A695A42F 
 140 005d 7B6FDFCC 		.ascii	"{o\337\314\367\315\314\367f\303\200\301\346\261\233"
 140      F7CDCCF7 
 140      66C380C1 
 140      E6B19B
 141 006c 9E0B22C0 		.ascii	"\236\013\"\300oZQ\000d#\037\001\322>\206\350l\000\241"
 141      6F5A5100 
 141      64231F01 
 141      D23E86E8 
 141      6C00A1
 142 007f 9F61FF79 		.ascii	"\237a\377y\344\276\217\230\235+\024\246\347\336Ndq\234"
 142      E4BE8F98 
 142      9D2B14A6 
 142      E7DE4E64 
 142      719C
 143 0091 D522C690 		.ascii	"\325\"\306\220\0305\004\221&\307\305\003C\2265\022\004"
 143      18350491 
 143      26C7C503 
 143      43963512 
 143      04
 144 00a2 5038A08D 		.ascii	"P8\240\215f\207\345,2g\025>\300\300\352\340\324\315"
 144      6687E52C 
 144      3267153E 
 144      C0C0EAE0 
 144      D4CD
 145 00b4 3D3266D0 		.ascii	"=2f\320\003\235\310\372\340\012\241\233`\322\242q\\"
 145      039DC8FA 
 145      E00AA19B 
 145      60D2A271 
 145      5C
 146 00c5 437617C6 		.ascii	"Cv\027\306QC\241\023\361\034\255\"\217\332\216\033\322"
 146      5143A113 
 146      F11CAD22 
 146      8FDA8E1B 
 146      D2
 147 00d6 258AC539 		.ascii	"%\212\3059\357:\201\330\004\2074\364\020*M\004\227\267"
 147      EF3A81D8 
 147      048734F4 
 147      102A4D04 
 147      97B7
 148 00e8 22D7A1EF 		.ascii	"\"\327\241\357`\300.\206m\204\214e\215\332\363\303\357"
ARM GAS  /tmp/ccs6sxAx.s 			page 11


 148      60C02E86 
 148      6D848C65 
 148      8DDAF3C3 
 148      EF
 149 00f9 D11AB5D2 		.ascii	"\321\032\265\322\371B!\2409e\354G'k\007\354\015\362"
 149      F94221A0 
 149      3965EC47 
 149      276B07EC 
 149      0DF2
 150 010b A5462C57 		.ascii	"\245F,W\212\362\345D\271\311Yo\005*\017\203\203\325"
 150      8AF2E544 
 150      B9C9596F 
 150      052A0F83 
 150      83D5
 151 011d A9C4ED50 		.ascii	"\251\304\355P\371\030\034\256F\325\007\253\3265\313"
 151      F9181CAE 
 151      46D507AB 
 151      D635CB
 152 012c 5E18AED3 		.ascii	"^\030\256\323\260VAt\351x\311\254\002\365\016\006G\253"
 152      B0564174 
 152      E978C9AC 
 152      02F50E06 
 152      47AB
 153 013e 67893C4B 		.ascii	"g\211<K\037\0249r+_\263\315w,{\350\276\265V( A\374\014"
 153      1F143972 
 153      2B5FB3CD 
 153      772C7BE8 
 153      BEB55628 
 154 0156 3AAAD138 		.ascii	":\252\3218g~\352\011\370\010\003+\213\203\317n\010\245"
 154      677EEA09 
 154      F808032B 
 154      8B83CF6E 
 154      08A5
 155 0168 367137F6 		.ascii	"6q7\366\267\331\325zJ\36616\226z\310\376~+\353\337["
 155      B7D9D57A 
 155      4AF63136 
 155      967AC8FE 
 155      7E2BEBDF 
 156 017d 7A5B1EFB 		.ascii	"z[\036\373\034\330\320^\305\323\353\013\031A\306i\202"
 156      1CD8D05E 
 156      C5D3EB0B 
 156      1941C669 
 156      82
 157 018e C938C5E7 		.ascii	"\3118\305\347\207|~\300\211\334\352\025\344=\257Po+"
 157      877C7EC0 
 157      89DCEA15 
 157      E43DAF50 
 157      6F2B
 158 01a0 A4BAE28A 		.ascii	"\244\272\342\212\203\364\373BGd\023\334\217\242\001"
 158      83F4FB42 
 158      476413DC 
 158      8FA201
 159 01af 96F19E75 		.ascii	"\226\361\236u\373\204\206;\313\222\376g\317\027\355"
 159      FB84863B 
 159      CB92FE67 
 159      CF17ED
 160 01be 756E599F 		.ascii	"unY\237\340j\376\317\304\257%R|\206\223\2727Q\257\341"
ARM GAS  /tmp/ccs6sxAx.s 			page 12


 160      E06AFECF 
 160      C4AF2552 
 160      7C8693BA 
 160      3751AFE1 
 161 01d2 2E05E956 		.ascii	".\005\351V_\270\221\250k\350\266][\356\315\2179,\273"
 161      5FB891A8 
 161      6BE8B65D 
 161      5BEECD8F 
 161      392CBB
 162 01e5 A64E47C4 		.ascii	"\246NG\304\300f\2253\2576\251,\343\023*c\0332CE\231"
 162      C0669533 
 162      AF36A92C 
 162      E3132A63 
 162      1B324345 
 163 01fa 97D61C99 		.ascii	"\227\326\034\231_\227\313\374\323\337\260U\331\345\261"
 163      5F97CBFC 
 163      D3DFB055 
 163      D9E5B1
 164 0209 C580A3E0 		.ascii	"\305\200\243\340\014W\260\306U\320\367\037\365d|I\233"
 164      0C57B0C6 
 164      55D0F71F 
 164      F5647C49 
 164      9B
 165 021a 52EC75B5 		.ascii	"R\354u\265d\314b\203\233\327<\244\363O\237\213\245\276"
 165      64CC6283 
 165      9BD73CA4 
 165      F34F9F8B 
 165      A5BE
 166 022c E4A38D5A 		.ascii	"\344\243\215Z\213\376\021\034\337`($\265D\265v\355L"
 166      8BFE111C 
 166      DF602824 
 166      B544B576 
 166      ED4C
 167 023e 448A2725 		.ascii	"D\212'%S\326\265x*)\251\246\241\305T=\244\200`\032\011"
 167      53D6B578 
 167      2A29A9A6 
 167      A1C5543D 
 167      A480601A 
 168 0253 4F87DA25 		.ascii	"O\207\332%\367zM\343R\252[\021\022\262\336T\216\322"
 168      F77A4DE3 
 168      52AA5B11 
 168      12B2DE54 
 168      8ED2
 169 0265 0D2911D7 		.ascii	"\015)\021\327\215\244t\2625\334\022\356\221\224\250"
 169      8DA474B2 
 169      35DC12EE 
 169      9194A8
 170 0274 12D7D58B 		.ascii	"\022\327\325\213\346\261X(\012\036S\356J\251\241r\204"
 170      E6B15828 
 170      0A1E53EE 
 170      4AA9A172 
 170      84
 171 0285 DA63482D 		.ascii	"\332cH-\341\310\351\210\244u+]\251\016U\342\010%v\212"
 171      E1C8E988 
 171      A4752B5D 
 171      A90E55E2 
 171      0825768A 
ARM GAS  /tmp/ccs6sxAx.s 			page 13


 172 0299 221068DF 		.ascii	"\"\020h\337\226\000%\277h\2627I\036\301\012\036\246"
 172      960025BF 
 172      68B23749 
 172      1EC10A1E 
 172      A6
 173 02aa 410EF5E1 		.ascii	"A\016\365\341Hk\260]N\252\011]k\016\0368\002L\207\232"
 173      486BB05D 
 173      4EAA095D 
 173      6B0E1E38 
 173      024C879A 
 174 02be 981A8BEB 		.ascii	"\230\032\213\353\275\360\027\343\315Z\350"
 174      BDF017E3 
 174      CD5AE8
 175              		.text
 176              		.section	.gnu.lto_.symbol_nodes.6391b9b13a5685a,"",%progbits
 177 0000 789C45C8 		.ascii	"x\234E\3101\016\202P\024D\321\231\367>l\203\265\261"
 177      310E8250 
 177      1444D199 
 177      F73E6C83 
 177      B5B1
 178 0012 92219218 		.ascii	"\222!\222\030\354X\000\330\270\013[z\367`\244\244R\301"
 178      EC5800D8 
 178      B80B5B7A 
 178      F760A4A4 
 178      52C1
 179 0024 4A03841F 		.ascii	"J\003\204\037\231fr\256\301P#\316\236\024P\337\000\251"
 179      996672AE 
 179      C15023CE 
 179      9E1450DF 
 179      00A9
 180 0036 39E576A5 		.ascii	"9\345v\245\030\331V\271\275(\213<W\2647\345;9RacQ\220"
 180      18D956B9 
 180      BD288B3C 
 180      57B437E5 
 180      3B395261 
 181 004d 1395ECFA 		.ascii	"\023\225\354\372P\351_\216\004\227\373o\371\200\362"
 181      50E95F8E 
 181      0497FB6F 
 181      F980F2
 182 005c 3864CE14 		.ascii	"8d\316\024\335\267\2473\340\261v'\016K\307\014\210\226"
 182      DDB7A733 
 182      E0B17627 
 182      0E4BC70C 
 182      8896
 183 006e 2E48     		.ascii	".H"
 184              		.text
 185              		.section	.gnu.lto_.refs.6391b9b13a5685a,"",%progbits
 186 0000 789C6362 		.ascii	"x\234cb`b\340d\200\000F \233\221\231\211\201\001\000"
 186      6062E064 
 186      80004620 
 186      9B919989 
 186      810100
 187 0013 012C0017 		.ascii	"\001,\000\027"
 188              		.text
 189              		.section	.gnu.lto_.decls.6391b9b13a5685a,"",%progbits
 190 0000 789CBD5B 		.ascii	"x\234\275[\177p\024\325\035\177o/\311\345\222\020R\264"
 190      7F7014D5 
ARM GAS  /tmp/ccs6sxAx.s 			page 14


 190      1D7F6F2F 
 190      C9E59210 
 190      52B4
 191 0012 16673AE3 		.ascii	"\026g:\343\321\261\255\265\302\341\217*\375\247Xi\255"
 191      D1B1ADB5 
 191      C2E18F2A 
 191      FDA75869 
 191      AD
 192 0023 B4B5ED48 		.ascii	"\264\265\355H\355t\2463\275.\227\205\234\336\257\356"
 192      ED74A633 
 192      BD2E9785 
 192      9CDEAFEE 
 193 0033 6D12E84C 		.ascii	"m\022\350L\207%\010U*4\002\362\253\374\210\025P\014"
 193      87250855 
 193      2A3402F2 
 193      ABFC8815 
 193      500C
 194 0045 C11F8814 		.ascii	"\301\037\210\024\244p*`\000\211DB\202\374<D\303\017"
 194      A4702A60 
 194      00894442 
 194      82FC3C44 
 194      C30F
 195 0057 95824920 		.ascii	"\225\202I T \375\276\357\356\336\355\356\355\336\355"
 195      5420FDBE 
 195      EFEEDEED 
 195      EEEDDEED 
 196 0067 1DB43BF3 		.ascii	"\035\264;\363^\336\355\276\367y\337\337\337\267o_8\302"
 196      5EDEEDBE 
 196      F779DFDF 
 196      DFB76F5F 
 196      38C2
 197 0079 916A8E90 		.ascii	"\221j\216\220\001\270\032\356%\344q7!\305\204\220\037"
 197      01B81AEE 
 197      25E47137 
 197      21C58490 
 197      1F
 198 008a 4081DBE4 		.ascii	"@\201\333\3449(p\013/\366w%\224\227\240tAy\225\022\262"
 198      3928700B 
 198      2FF67725 
 198      9497A074 
 198      41799512 
 199 009f 01CA4628 		.ascii	"\001\312F([)\311\270X\337!P6\303\263\026u\374A(\225"
 199      5B29C9B8 
 199      58DF2150 
 199      36C3B316 
 199      75FC4128 
 200 00b4 502AD87D 		.ascii	"P*\330}(\357\300\263\355PN@\373\020\224w\241\275\011"
 200      28EFC0B3 
 200      ED504E40 
 200      FB109477 
 200      A1BD09
 201 00c7 CA5A686F 		.ascii	"\312Zho\204\322J\025\032\232\241\270\240|\004%\011\345"
 201      84D24A15 
 201      1A9AA1B8 
 201      A07C0425 
 201      09E5
 202 00d9 45B85FAE 		.ascii	"E\270_\256\316\261\023\332{\240\354\205\262\017\312"
ARM GAS  /tmp/ccs6sxAx.s 			page 15


 202      CEB113DA 
 202      7BA0EC85 
 202      B20FCA
 203 00e8 61952646 		.ascii	"a\225&F\333\011(\335PNCa$\276`\242\221\361\342Q\371"
 203      DB0928DD 
 203      504E4361 
 203      24BE60A2 
 203      91F1E251 
 204 00fd 6CD1D1B6 		.ascii	"l\321\321\266\015\312g0 A\025\032\232\325\376E\352\230"
 204      0DCA6730 
 204      2041151A 
 204      9AD5FE45 
 204      EA98
 205 010f CF559ED9 		.ascii	"\317U\236\331\034%\360\273\015\312^(\037@\351\200r\036"
 205      1C25F0BB 
 205      0DCA5E28 
 205      1F40E980 
 205      721E
 206 0121 EE7F6192 		.ascii	"\356\177a\222I\227\306\267\216_\275<\316\2504\254U\347"
 206      4997C6B7 
 206      8E5FBD3C 
 206      CEA834AC 
 206      55E7
 207 0133 EFA18A0C 		.ascii	"\357\241\212\014\212T\276O\353xw\251x\275\320\356\247"
 207      8A54BE4F 
 207      EB7877A9 
 207      78BDD0EE 
 207      A7
 208 0144 4A9F354C 		.ascii	"J\2375LnP.C\271b\232\233\351\252\212\244\365\260V7\377"
 208      6E502E43 
 208      B9629A9B 
 208      E9AA8AA4 
 208      F5B05637 
 209 0159 4613DF4C 		.ascii	"F\023\337L\026\243M\372\321d\300\351h\360\250\270L\007"
 209      16A34DFA 
 209      D164C0E9 
 209      68F0A8B8 
 209      4C07
 210 016b 57E16F31 		.ascii	"W\341o1\227\326\001\223Q)\227\226\373z\023=\345d\246"
 210      97D60193 
 210      51299796 
 210      FB7A133D 
 210      E564A6
 211 017e 2C37C84D 		.ascii	",7\310M3\344\207Z+o\"\317\312p\301\017\231J<\375\301"
 211      33E4875A 
 211      2B6F22CF 
 211      CA70C10F 
 211      994A3CFD 
 212 0193 57C96F29 		.ascii	"W\311o)O+=\304\213\215\012\017\262G\010O\377Ao\302\226"
 212      4F2B3DC4 
 212      8B8D0A0F 
 212      B247084F 
 212      FF416FC2 
 213 01a8 0B09811B 		.ascii	"\013\011\201\033\243\313\241z\324\225\302\265\033\370"
 213      A3CBA17A 
 213      D495C2B5 
 213      1BF8
ARM GAS  /tmp/ccs6sxAx.s 			page 16


 214 01b6 1C2D27B7 		.ascii	"\034-'\267\223\3250K\243,?@2\256[\31029q.\271\256\351"
 214      93D5304B 
 214      A32C3F40 
 214      32AE5BC8 
 214      3239712E 
 215 01cd 53BA484E 		.ascii	"S\272HN<!\017\014LQ\247\343\310\355\024\232+\350\355"
 215      3C210F0C 
 215      4C51A7E3 
 215      C8ED149A 
 215      2BE8ED
 216 01e0 6AD75BC9 		.ascii	"j\327[\311\363\262<G\356\251~\010\247\347\310H\366|"
 216      F3B23C47 
 216      EEA97E08 
 216      A7E7C848 
 216      F67C
 217 01f2 25BDC572 		.ascii	"%\275\305rr\354\003\327\267\310J\306\343\233\362\257"
 217      72EC03D7 
 217      B7C84AC6 
 217      E39BF2AF 
 218 0202 86228744 		.ascii	"\206\"\207D\035\243\273x\272\212r\026D\355?\276\371"
 218      1DA3BB78 
 218      BA8A7216 
 218      44ED3FBE 
 218      F9
 219 0213 0E8D28AF 		.ascii	"\016\215(\257sY5\033ee\220\370\020\362\014C\361\266"
 219      7359351B 
 219      656590F8 
 219      10F20C43 
 219      F1B6
 220 0225 56A644D6 		.ascii	"V\246D\326D5\200\033\241\3677\311\012\020U\262k\307"
 220      4435801B 
 220      A1F737C9 
 220      0A1055B2 
 220      6BC7
 221 0237 C7CFD027 		.ascii	"\307\317\320'`*\236\256\245C\000\350OFY\344\304\341"
 221      602A9EAE 
 221      A54300E8 
 221      4F4659E4 
 221      C4E1
 222 0249 C84CCA86 		.ascii	"\310L\312\206\274\012\243\225\201\210,'/\356:;\235N"
 222      BC0AA395 
 222      81882C27 
 222      2FEE3A3B 
 222      9D4E
 223 025b 4564F68C 		.ascii	"Ed\366\214\030`\015\3270\322\004\204'\376\265`\351\315"
 223      18600DD7 
 223      30D20484 
 223      27FEB560 
 223      E9CD
 224 026d 72D3DBD0 		.ascii	"r\323\333\320\277\2052\251oI\341Z\011@m\032\214\302"
 224      BF8532A9 
 224      6F49E15A 
 224      09406D1A 
 224      8CC2
 225 027f 88B7A5AB 		.ascii	"\210\267\245\253\242\221\327\300v\344\015\3465\200\265"
 225      A291D7C0 
 225      76E40DE6 
ARM GAS  /tmp/ccs6sxAx.s 			page 17


 225      3580B5
 226 028e 772D41E2 		.ascii	"w-A\342<\344\311\264\220\255\2551%\331\365\267\313r"
 226      3CE4C9B4 
 226      90ADAD31 
 226      25D9F5B7 
 226      CB72
 227 02a0 294F37C2 		.ascii	")O7\302 \216\264Q\243`\235\003\235\237\275\375-\332"
 227      208EB451 
 227      A3609D03 
 227      9D9FBDFD 
 227      2DDA
 228 02b2 8082DC8C 		.ascii	"\200\202\334\214P\357q\205B\035\232\277\371\373H\323"
 228      50EF7185 
 228      421D9ABF 
 228      F9FB48D3 
 229 02c2 56043AE8 		.ascii	"V\004:\3502\002\361\324\235\022b\352\267\326\201\241"
 229      3202F1D4 
 229      9D1262EA 
 229      B7D681A1 
 230 02d2 E163B5C1 		.ascii	"\341c\265\301\022\312`\362?\356\316\221O\\\016\024W"
 230      12CA60F2 
 230      3FEECE91 
 230      4F5C0E14 
 230      57
 231 02e3 6A6B05C9 		.ascii	"jk\005\311\013\273z\213\231o\271\014\356\241x~6\355"
 231      0BBB7A8B 
 231      996FB90C 
 231      EEA1787E 
 231      36ED
 232 02f5 CD383A55 		.ascii	"\3158:U\025\37264\240\263\031\262b\021\307\300\016\273"
 232      15FA3634 
 232      A0B319B2 
 232      6211C7C0 
 232      0EBB
 233 0307 A1EBC291 		.ascii	"\241\353\302\221\213y\323n0:p\241\276\225t\3564\271"
 233      8B79D36E 
 233      303A70A1 
 233      BE9574EE 
 233      34B9
 234 0319 75A41A88 		.ascii	"u\244\032\210\006\234\000VY\010\303\352\322\373,O\327"
 234      069C0056 
 234      5908C3EA 
 234      D2FB2C4F 
 234      D7
 235 032a D16F42FD 		.ascii	"\321oB\375:\035\006\365\033X\377\023\353w\260n\205:"
 235      3A1D06F5 
 235      1B58FF13 
 235      EB77B06E 
 235      853A
 236 033c 75D9C5A3 		.ascii	"u\331\305\243\226\264@R\341\233\031\277\376\3676\245"
 236      96B44052 
 236      E19B19BF 
 236      FEF736A5 
 237 034c 8F3EBCE3 		.ascii	"\217>\274\343_]\204\347\310\214\"\253\200\314\302\344"
 237      5F5D84E7 
 237      C88C22AB 
 237      80CCC2E4 
ARM GAS  /tmp/ccs6sxAx.s 			page 18


 238 035c EF419545 		.ascii	"\357A\225E\232O\377\015\273\275d\033\227\221\0365\230"
 238      9A4FFF0D 
 238      BBBD641B 
 238      97911E35 
 238      98
 239 036d 7F293CA4 		.ascii	"\177)<\244y\342\334\034\303\220deXb\335\262\027\300"
 239      79E2DC1C 
 239      C3906465 
 239      5862DDB2 
 239      17C0
 240 037f ED39CD08 		.ascii	"\3559\315\010\026\345\030\272M7\343\207\202\226>\232"
 240      16E518BA 
 240      4D37E387 
 240      82963E9A 
 241 038f 728CD2E7 		.ascii	"r\214\322\347\217\304\253\313n\232\371\207T\002y\311"
 241      8FC4ABCB 
 241      6E9AF987 
 241      540279C9 
 242 039f 9C40F664 		.ascii	"\234@\366d&\220\246dr\335\232\247KRY\315y\0029\220_"
 242      2690A664 
 242      72DD9AA7 
 242      4B5259CD 
 242      79023990 
 243 03b4 0249A602 		.ascii	"\002I\246\002\377\327I\312Q\026\235\330{\037\206\224"
 243      FFD749CA 
 243      51169DD8 
 243      7B1F8694 
 244 03c4 43983EB6 		.ascii	"C\230>\266\027\345\314\037F\030F\307QS\356H\034\021"
 244      17E5CC1F 
 244      461846C7 
 244      5153EE48 
 244      1C11
 245 03d6 BCCADD5C 		.ascii	"\274\312\335\\YCN\034\373\304#\317\251\320\262\327>"
 245      59434E1C 
 245      FBC423CF 
 245      A9D0B2D7 
 245      3E
 246 03e7 9CFE68DA 		.ascii	"\234\376h\332A\214\311*W\322\200d,\264\216Tin*\311\021"
 246      418CC92A 
 246      57D28064 
 246      2CB48E54 
 246      696E2AC9 
 247 03fc 4D7BBACF 		.ascii	"M{\272\317\335<\015C\304\011\234\374\2525\357\3668\034"
 247      DD3C0D43 
 247      C4099CFC 
 247      AA35EFF6 
 247      381C
 248 040e 9955CC86 		.ascii	"\231U\314\206t\233\371_?\343F\271H\271\237;on\230\241"
 248      749BF95F 
 248      3FE346B9 
 248      48B99F3B 
 248      6F6E98A1 
 249 0422 E4CD42F2 		.ascii	"\344\315B\362\177\342\303+\024D\375)\322\277\2708\357"
 249      7FE2C32B 
 249      1444FD29 
 249      D2BFB838 
 249      EF
ARM GAS  /tmp/ccs6sxAx.s 			page 19


 250 0433 DCDF8C43 		.ascii	"\334\337\214C\316\232\351\357\341\275\312\335\334\324"
 250      CE9AE9EF 
 250      E1BDCADD 
 250      DCD4
 251 0441 F79DDE49 		.ascii	"\367\235\336IQ\201g\320\3036\245\000\013K\372\377\001"
 251      518167D0 
 251      C336A500 
 251      0B4BFAFF 
 251      01
 252 0452 FDE51284 		.ascii	"\375\345\022\204\\\244\001\335\237Vf\347\216\321L\344"
 252      5CA401DD 
 252      9F5666E7 
 252      8ED14CE4 
 253 0462 7D2889B7 		.ascii	"}(\211\267sK\302\010\302\221\3358\244?c\0254s\3734u"
 253      734BC208 
 253      C291DD38 
 253      A43F6315 
 253      3473FB34 
 254 0477 15D4EF48 		.ascii	"\025\324\357H\036\013fk\253\240^\024\310\376\024na\002"
 254      1E0B666B 
 254      ABA05E14 
 254      C8FE146E 
 254      6102
 255 0489 59DC86AB 		.ascii	"Y\334\206\253 \005\354p\336`^\003\330\362\266|WA\013"
 255      2005EC70 
 255      DE605E03 
 255      D8F2B67C 
 255      57410B
 256 049c FE9D18FA 		.ascii	"\376\235\030\372/Y\256\342\251\314\261\340\273\270\304"
 256      2F59AEE2 
 256      A9CCB1E0 
 256      BBB8C4
 257 04ab 9C4637D3 		.ascii	"\234F7\323\274\327\034\034\371G\211\003FlW\005L-\357"
 257      BCD71C1C 
 257      F9478903 
 257      466C5705 
 257      4C2DEF
 258 04be CD5532AB 		.ascii	"\315U2\253\003']\215\223M\347L\252\335\327\323\372\235"
 258      03275D8D 
 258      934DE74C 
 258      AADDD7D3 
 258      FA9D
 259 04d0 85C81A7B 		.ascii	"\205\310\032{\224[\263\353w-p\346\247\2346\375\2558"
 259      945BB3EB 
 259      772D70E6 
 259      A79C36FD 
 259      AD38
 260 04e2 FD8738FD 		.ascii	"\375\2078\375L\363\364\177\277xj\2642\375LG\323\267"
 260      4CF3F47F 
 260      BF786AB4 
 260      32FD4C47 
 260      D3B7
 261 04f4 7F302F73 		.ascii	"\1770/sz\333\364\240\252o_\317\251\257/\307Ifs\314\200"
 261      7ADBF4A0 
 261      AA6F5FCF 
 261      A9AF2FC7 
 261      496673CC 
ARM GAS  /tmp/ccs6sxAx.s 			page 20


 262 0509 9E719BD5 		.ascii	"\236q\233\3257\332\264\010\032mZ\003-vk\324\027d\277"
 262      37DAB408 
 262      1A6D5A03 
 262      2D766BD4 
 262      1764BF
 263 051c C066EB4F 		.ascii	"\300f\353OW\277&\313O\225h4,\315\033\321h\304\035\037"
 263      57BF26CB 
 263      4F956834 
 263      2CCD1BD1 
 263      68C41D1F 
 264 0530 A0472860 		.ascii	"\240G(`MN\300\354\227\227\211N=\330\363y\203\031);\240"
 264      4D4EC0EC 
 264      9797894E 
 264      3DD8F379 
 264      8319293B 
 265 0545 075BE504 		.ascii	"\007[\345\004\314j\255\247\202\035\324\203\255\316\033"
 265      CC6AADA7 
 265      821DD483 
 265      ADCE1B
 266 0554 CC48D961 		.ascii	"\314H\331a=\330\032'`C\355);\252\007{%o0#e\347\364`"
 266      3DD81A27 
 266      6043ED29 
 266      3BAA077B 
 266      256F3023 
 267 056c AF3B01F3 		.ascii	"\257;\001\363ZP\226\272\354\226JOq);\347\310\006\267"
 267      5A5096BA 
 267      EC964A4F 
 267      71293BE7 
 267      C806B7
 268 057f 1610F2B4 		.ascii	"\026\020\362\264i\222\306x\323\235o\0043\360\015\021"
 268      6992C678 
 268      D39D6F04 
 268      33F00D11 
 269 058f 6CCFF3DA 		.ascii	"l\317\363\332\273\201\022\334\337r\202\230\305`\336"
 269      BB8112DC 
 269      DF728298 
 269      C560DE
 270 059e D0678A9D 		.ascii	"\320g\212\235y\203\031\325\322\301\300\014\241F\315"
 270      798319D5 
 270      D2C1C00C 
 270      A146CD
 271 05ad 19C99589 		.ascii	"\031\311\225\211\241\013\323\301\256T\303b\333GJdk\224"
 271      A10BD3C1 
 271      AE54C362 
 271      DB474A64 
 271      6B94
 272 05bf 59AA503B 		.ascii	"Y\252P;\313C\207Z\367\345i3\307\336X\326p\236\024\025"
 272      CB43875A 
 272      F7E56933 
 272      C7DE58D6 
 272      709E1415 
 273 05d3 4A5B6B0D 		.ascii	"J[k\015P&\347v\267\305\306\245\242\323\354C\355,a\265"
 273      5026E776 
 273      B7C5C6A5 
 273      A2D3EC43 
 273      ED2C61B5 
 274 05e7 DE123A9D 		.ascii	"\336\022:\235\210)\213+|\331\266\344kr2Au\374f\025\016"
ARM GAS  /tmp/ccs6sxAx.s 			page 21


 274      88298B2B 
 274      7CD9B6E4 
 274      6B723241 
 274      75FC6615 
 275 05fc 4BA8A7BA 		.ascii	"K\250\247\272\250\262\352|\0053\352\021SHv\016u~v\313"
 275      A8B2EA7C 
 275      0533EA11 
 275      5348760E 
 275      757E76CB 
 276 0610 7771E9BE 		.ascii	"wq\351\276\016\201\272\013\006:4\177\331(\004z\003\201"
 276      0E81BA0B 
 276      063A347F 
 276      D928047A 
 276      0381
 277 0622 CE662409 		.ascii	"\316f$\011s\212\247\306\024O=\351\306\200Q]\327\265"
 277      738AA7C6 
 277      144F3DE9 
 277      C680515D 
 277      D7B5
 278 0634 2F47FACD 		.ascii	"/G\372\315\3722\260\2233\332\300\033\371\307siO\203"
 278      FA32B093 
 278      33DAC01B 
 278      F9C77369 
 278      4F83
 279 0646 BC70643E 		.ascii	"\274pd>\032Kj\032{\023\345#\227\232\345\263\216\313"
 279      1A4B6A1A 
 279      7B13E523 
 279      979AE5B3 
 279      8ECB
 280 0658 4F401C79 		.ascii	"O@\034y\2624_Fn322\363d\001\214\234\323\030I #\215\327"
 280      B2345F46 
 280      6E333232 
 280      F364018C 
 280      9CD31849 
 281 0670 81918579 		.ascii	"\201\221\205y32R\307\010\333f\2748O\211\2037\2209\331"
 281      333252C7 
 281      08DB66BC 
 281      384F8983 
 281      379039D9 
 282 0684 57728C9E 		.ascii	"Wr\214\236\355\334\015\306W\225\276\367\331\013\020"
 282      EDDC0DC6 
 282      5795BEF7 
 282      D90B10
 283 0693 BB9DFB5D 		.ascii	"\273\235\373]s\356\007\272\345\257\354l\371\333\252"
 283      73EE07BA 
 283      E5AFEC6C 
 283      F9DBAA
 284 06a2 2E7F5B51 		.ascii	".\177[Qb\313K-|\314\011R\323\371\266\257\262\367\223"
 284      62CB4B2D 
 284      7CCC0952 
 284      D3F9B6AF 
 284      B2F793
 285 06b5 DD08B3B2 		.ascii	"\335\010\263\262P\230\344\241\316\015\212\253\266!P"
 285      5098E4A1 
 285      CE0D8AAB 
 285      B62150
 286 06c4 4B86064B 		.ascii	"K\206\006KL\012,1*\020~\262\231\372\331J\234NQ\357\260"
ARM GAS  /tmp/ccs6sxAx.s 			page 22


 286      4C0A2C31 
 286      2A107EB2 
 286      99FAD94A 
 286      9C4E51EF 
 287 06d9 1F6EF27F 		.ascii	"\037n\362\177\037\007\211\030\311g\312+dq\211\257\001"
 287      1F078918 
 287      C967CA2B 
 287      647189AF 
 287      01
 288 06ea F3B424AA 		.ascii	"\363\264$\252(h\3135!6$\266\316\321^\337p\353\347\335"
 288      2868CB35 
 288      213624B6 
 288      CED15EDF 
 288      70EBE7DD 
 289 06fe 6B84C375 		.ascii	"k\204\303u\227!\215\232\226\357}6\251'\265\215\271C"
 289      97218D9A 
 289      96EF7D36 
 289      A927B58D 
 289      B943
 290 0710 DB3B3E80 		.ascii	"\333;>\200+\244\266\014\205\367\232\2671{\215\333\230"
 290      2BA4B60C 
 290      85F79AB7 
 290      317B8DDB 
 290      98
 291 0721 769ED4A5 		.ascii	"v\236\324\245\317\203\307\257U\021\273\216\230\024q"
 291      CF83C7AF 
 291      5511BB8E 
 291      981471
 292 0730 F21A25B7 		.ascii	"\362\032%\267h\256\263]\221?hX\025\310\310\277q\332"
 292      68AEB35D 
 292      913F6858 
 292      15C8C8BF 
 292      71DA
 293 0742 A4F965EB 		.ascii	"\244\371e\353\322\013\307g\250rL:x\333\222\023\207p"
 293      D20BC767 
 293      A8724C3A 
 293      78DB9213 
 293      8770
 294 0754 5BCA62BE 		.ascii	"[\312b\276\373\365k\273\224\226:\264\2170\037sl\377"
 294      FBF56BBB 
 294      94963AB4 
 294      8F301F73 
 294      6CFF
 295 0766 6199C77A 		.ascii	"a\231\307z'\351~; \216\254\305!'\315\204CxlP\367\037"
 295      27E97E3B 
 295      208EACC5 
 295      2127CD84 
 295      43786C50 
 296 077c 4E3A7A4D 		.ascii	"N:zM<\377W\375\376\003O/SN\305-L\017_\354N\255*yz5o"
 296      3CFF57FD 
 296      FE034F2F 
 296      534EC52D 
 296      4C0F5FEC 
 297 0797 30AF15A9 		.ascii	"0\257\025\251\232\245\246\271\345\351i\\\015\236\341"
 297      9AA5A6B9 
 297      E5E9695C 
 297      0D9EE1
ARM GAS  /tmp/ccs6sxAx.s 			page 23


 298 07a6 D86EF5A7 		.ascii	"\330n\365\247\234n\267\232#[=\232N\255D\227\3338/\275"
 298      9C6EB79A 
 298      235B3D9A 
 298      4EAD4497 
 298      DB382FBD 
 299 07ba 7069BE62 		.ascii	"pi\276b\234\371\004\376Sj\340?\213\346\374\256\307\354"
 299      9CF904FE 
 299      536AE03F 
 299      8BE6FCAE 
 299      C7EC
 300 07cc 77BBCDA9 		.ascii	"w\273\315\251"
 301 07d0 32AFC8B7 		.ascii	"2\257\310\267\307\314\223\323\367\326\324e\347\327\307"
 301      C7CC93D3 
 301      F7D6D465 
 301      E7D7C7
 302 07df F47EBDCF 		.ascii	"\364~\275\317sM^\310>\002\256PD\227sS.\265\263X\205"
 302      734D5EC8 
 302      3E02AE50 
 302      44977353 
 302      2EB5B358 
 303 07f4 331FC499 		.ascii	"3\037\304\231\373\314\366\274\340\345\235\177Q\355\271"
 303      FBCCF6BC 
 303      E0E59D7F 
 303      51EDB9
 304 0803 CF9123F6 		.ascii	"\317\221#\366\251\373\303\212cM/\323P\0131\205\206\304"
 304      A9FBC38A 
 304      634D2FD3 
 304      500B3185 
 304      86C4
 305 0815 256DB752 		.ascii	"%m\267RyK\232e\206\313s\367\340\262\223\335J\203`\264"
 305      794B9A65 
 305      86CB73F7 
 305      E0B293DD 
 305      4A8360B4 
 306 0829 6DDB4FD8 		.ascii	"m\333O\330\252\345*\362\364l\231\331\264\024\311\350"
 306      AAE52AF2 
 306      F46C99D9 
 306      B414C9E8 
 307 0839 4CAB4FE7 		.ascii	"L\253O\347(\027\321Q\372\321Q\376\203\365e\275\273\330"
 307      2817D151 
 307      FAD151FE 
 307      83F565BD 
 307      BBD8
 308 084b 99C515BD 		.ascii	"\231\305\025\275Y,\315\233o\257C\353\353\325O\263\242"
 308      592CCD9B 
 308      6FAF43EB 
 308      EBD54FB3 
 308      A2
 309 085c ECDAACEF 		.ascii	"\354\332\254\357\302\256\013E\370\355/\237\375\312\003"
 309      C2AE0B45 
 309      F8ED2F9F 
 309      FDCA03
 310 086b AADFB251 		.ascii	"\252\337\262Q\034i\316\020nA\373\225\033\012\345$u\301"
 310      1C69CE10 
 310      6E41FB95 
 310      1B0AE524 
 310      75C1
ARM GAS  /tmp/ccs6sxAx.s 			page 24


 311 087d D2A4CCC1 		.ascii	"\322\244\314\301\273\246\327N\032l\261su\236\303=\317"
 311      BBA6D74E 
 311      1A6CB173 
 311      759EC33D 
 311      CF
 312 088e D427ECF7 		.ascii	"\324'\354\367\246\252yi\246\013\367\305\313\254\363"
 312      A6AA7969 
 312      A60BF7C5 
 312      CBACF3
 313 089d 5296CDD3 		.ascii	"R\226\315\323v\0342\313\225\261/\336\253\345%\366,w"
 313      761C32CB 
 313      95B12FDE 
 313      ABE525F6 
 313      2C77
 314 08af 5EDA6799 		.ascii	"^\332g\231\227\330\330B%jPb\232@\236\376\315\305<\244"
 314      97D8D842 
 314      256A5062 
 314      9A409EFE 
 314      CDC53CA4 
 315 08c3 D1654822 		.ascii	"\321eH\"\307\363\226\276W/\375\304\263\235K\250B\277"
 315      C7F396BE 
 315      572FFDC4 
 315      B39D4BA8 
 315      42BF
 316 08d5 12893E35 		.ascii	"\022\211>5\343YE\242\333\354\264\331\220x\245\023\363"
 316      E35945A2 
 316      DBECB4D9 
 316      9078A513 
 316      F3
 317 08e6 AA62A517 		.ascii	"\252b\245\027\234\0207\322\036l\353\374\224pq\2258\265"
 317      9C1037D2 
 317      1E6CEBFC 
 317      94707195 
 317      38B5
 318 08f8 3C5F3CAF 		.ascii	"<_<\257\001\257\253s\211\212\247\354\372\377\325\011"
 318      01AFAB73 
 318      898AA7EC 
 318      FAFFD509 
 319 0908 DE287BFA 		.ascii	"\336({\372\372\346\033V\325\363\363\206\363f\323}\372"
 319      FAE61B56 
 319      D5F3F386 
 319      F366D37D 
 319      FA
 320 0919 A30D4444 		.ascii	"\243\015DD\374\014\376%~\364\276\202\365\000\326O`\244"
 320      FC0CFE25 
 320      7EF4BE82 
 320      F500D64F 
 320      60A4
 321 092b 5C81F52A 		.ascii	"\\\201\365*\254_\304\372e\2547a\275\025\353mX?\345b"
 321      AC5FC4FA 
 321      65AC3761 
 321      BD15EB6D 
 321      583FE562 
 322 093f F51CACE7 		.ascii	"\365\034\254\347a=\037\353\205X/v9\210\270\275\346\343"
 322      613D1FEB 
 322      85582F76 
 322      3988B8BD 
ARM GAS  /tmp/ccs6sxAx.s 			page 25


 322      E6E3
 323 0951 04CBCAF3 		.ascii	"\004\313\312\363\3756f\320J\262\247\273\177\201\266"
 323      FD3666D0 
 323      4AB2A7BB 
 323      7F81B6
 324 0960 C856ECE6 		.ascii	"\310V\354\346%'\210Y\362\327\234\035`\204\371\004\327"
 324      25278859 
 324      F2D79C1D 
 324      6084F904 
 324      D7
 325 0971 A41A5C9B 		.ascii	"\244\032\\\233p\372\327\313\257Kp}+o.\314r90t\243\372"
 325      70FAD7CB 
 325      AF4B707D 
 325      2B6F2ECC 
 325      72393074 
 326 0987 8941216C 		.ascii	"\211A!l\227\023D\347\347,\316\352\014\354\034\032\330"
 326      971344E7 
 326      E72CCEEA 
 326      0CEC1C1A 
 326      D8
 327 0998 7934AA1E 		.ascii	"y4\252\036\254\227\242I,\307z\205\023\3038Cu9\262\243"
 327      AC97A249 
 327      2CC77A85 
 327      13C33843 
 327      7539B2A3 
 328 09ac 5CFB827C 		.ascii	"\\\373\202|]\342`\267\216\324SH\352ij\210\203\207\313"
 328      5DE260B7 
 328      8ED45348 
 328      EA696A88 
 328      8387CB
 329 09bf 4D5FD873 		.ascii	"M_\330s\212\306(\354\205'Z\335\230\223\265\343\030\037"
 329      8AC628EC 
 329      85275ADD 
 329      9893B5E3 
 329      181F
 330 09d1 3901B4DA 		.ascii	"9\001\264\332B\265f\340\250\216\201c\310@\022\245\374"
 330      42B566E0 
 330      A88E8163 
 330      C84012A5 
 330      FC
 331 09e2 11D62F3A 		.ascii	"\021\326/:\221\357A\373s,\246\203*gM\006\254\036TY\267"
 331      91EF41FB 
 331      732CA683 
 331      2A674D06 
 331      AC1E5459 
 332 09f7 E6E99F29 		.ascii	"\346\351\237)\007U\016\3422\3612v\353\262=\000rPwld"
 332      07550EE2 
 332      32F13276 
 332      EBB23D00 
 332      7250776C 
 333 0a0c 7FFAA08A 		.ascii	"\177\372\240\212\\\221}\230J\223z\360p\226<\275\212"
 333      5C917D98 
 333      4A937AF0 
 333      70963CBD 
 333      8A
 334 0a1d A60E8E74 		.ascii	"\246\016\216t\231\017\2164\273,\016\216$\366\202\003"
 334      990F8E34 
ARM GAS  /tmp/ccs6sxAx.s 			page 26


 334      BB2C0E8E 
 334      24F68203 
 335 0a2d 4F4D0E0C 		.ascii	"OM\016\014\334\342\374\320\310k.\323\011\315\203\264"
 335      DCE2FCD0 
 335      C86B2ED3 
 335      09CD83B4 
 336 0a3d DC2C97E9 		.ascii	"\334,\227\351\025Vr\221\257\260\023\225J\367\026\027"
 336      15567291 
 336      AFB01395 
 336      4AF71617 
 337 0a4d 4BDFAFBA 		.ascii	"K\337\257\272\262\212\304\20676\312\300\333\353\231"
 337      B28AC486 
 337      3736CAC0 
 337      DBEB99
 338 0a5c BC251B93 		.ascii	"\274%\033\223\373\317/\030\272H~[;\352\331\214G=g\233"
 338      FBCF2F18 
 338      BA487E5B 
 338      3BEAD98C 
 338      473D679B 
 339 0a70 28D320FE 		.ascii	"(\323 \376i\011\361Ew\377m)\010\347\"\332\344\262?W"
 339      6909F145 
 339      77FF6D29 
 339      08E722DA 
 339      E4B23F57 
 340 0a84 A31C16B1 		.ascii	"\243\034\026\261\033\271\331\225iz,$e\232\336\"\033"
 340      1BB9D995 
 340      697A2C24 
 340      659ADE22 
 340      1B
 341 0a95 46B65832 		.ascii	"F\266X2\322qi\301\315\362s\015\211\201\201\321y\360"
 341      D27169C1 
 341      CDF2730D 
 341      898181D1 
 341      79F0
 342 0aa7 9130ABBA 		.ascii	"\2210\253\272%S\325km\350x\333H\307WH\243\262\203\261"
 342      2553D56B 
 342      6DE878DB 
 342      48C75748 
 342      A3B283B1 
 343 0abb B052F9C4 		.ascii	"\260R\371\304\242\316Y\245\315\311\251\343\336q}\005"
 343      A2CE59A5 
 343      CDC9A9E3 
 343      DE717D05 
 344 0acb 5B86576D 		.ascii	"[\206Wm\354aG\3456W\3723N\205'\335\240\306\251\275\246"
 344      EC6147E5 
 344      3657FA33 
 344      4E8527DD 
 344      A0C6A9BD 
 345 0ae0 994769FD 		.ascii	"\231Gi\375\334*\316\366\274g\336a3s\211:\263I\361\314"
 345      DC2ACEF6 
 345      BC67DE61 
 345      3373893A 
 345      B349F1CC 
 346 0af4 2CECA0DE 		.ascii	",\354\240\336M+\3364\252\331\346\240\"\033\325\232\036"
 346      4D2BDE34 
 346      AAD9E6A0 
 346      221BD59A 
ARM GAS  /tmp/ccs6sxAx.s 			page 27


 346      1E
 347 0b05 A51E25BE 		.ascii	"\245\036%\276x\242\275f\015\313e\362\325\201)S\237\240"
 347      78A2BD66 
 347      0DCB65F2 
 347      D5812953 
 347      9FA0
 348 0b17 CE95BD4B 		.ascii	"\316\225\275KUvZ\277\0349\222\241\\\325!\345\027eW\312"
 348      55765ABF 
 348      1C3992A1 
 348      5CD521E5 
 348      176557CA 
 349 0b2b 1F779AFD 		.ascii	"\037w\232\375qw\246\015\002i\213/\366\377Y;\2446L\231"
 349      7177A60D 
 349      02698B2F 
 349      F6FF593B 
 349      A4364C99 
 350 0b3f 0F22A8A3 		.ascii	"\017\"\250\243\031\366\230gh\263\232!\361\312Q%\232"
 350      19F69867 
 350      68B39A21 
 350      F1CA5125 
 350      9A
 351 0b50 2D4F5469 		.ascii	"-OTi\370S\0079\301\337k\306o\267\344`\303\231\366\247"
 351      F8530739 
 351      C1DF6BC6 
 351      6FB7E460 
 351      C399F6A7 
 352 0b64 E9332FCF 		.ascii	"\3513/\317\220\331,S\226'\032\213\234\213\267\303\354"
 352      90D92C53 
 352      96271A8B 
 352      9C8BB7C3 
 352      EC
 353 0b75 4B9BF1D3 		.ascii	"K\233\361\323\210\301\2276\031\210\305\236\034i\035"
 353      88C19736 
 353      1988C59E 
 353      1C691D
 354 0b84 A41AB21A 		.ascii	"\244\032\262\032D\333!dS\355(p'\216\330g\033F7\033R"
 354      44DB2164 
 354      53ED2870 
 354      278ED867 
 354      1B46371B 
 355 0b99 44CF54DD 		.ascii	"D\317T\335\331\364}f\236;-y\356\351>7\2720\203:\222"
 355      D9F47D66 
 355      9E3B2D79 
 355      EEE93E37 
 355      BA30833A 
 356 0bae C1B12B23 		.ascii	"\301\261+#z\034\036d\231(\360\354$\353\316\221\317\260"
 356      7A1C1E64 
 356      9928F0EC 
 356      24EBCE91 
 356      CFB0
 357 0bc0 C7617B0E 		.ascii	"\307a{\016]\372D\361\241\376\364\375a3\207\307,9\274"
 357      5DFA44F1 
 357      A1FEF4FD 
 357      613387C7 
 357      2C39BC
 358 0bd3 70E2FC63 		.ascii	"p\342\374c\031vy\316\221\335\2340\317\360\261\215\345"
 358      197679CE 
ARM GAS  /tmp/ccs6sxAx.s 			page 28


 358      91DD9C30 
 358      CFF0B18D 
 358      E5
 359 0be4 EF9D9231 		.ascii	"\357\235\2221\303\264J'3t\233g8ii\371\215\3072,\177"
 359      C3B44A27 
 359      33749B67 
 359      386969F9 
 359      8DC7322C 
 360 0bf9 A123FCD3 		.ascii	"\241#\374\323f\3743F|S0Jd\011a\237e\004\243\216\323"
 360      66FC3346 
 360      7C53304A 
 360      6409619F 
 360      6504A38E 
 361 0c0e EBE1B58D 		.ascii	"\353\341\265\215e\235\255\36205\237pdE\245\245\316\333"
 361      659DADF2 
 361      30359F70 
 361      6445A5A5 
 361      CEDB
 362 0c20 99CE9504 		.ascii	"\231\316\225\004\363>\276\333\177n\253\363\026j\253"
 362      F33EBEDB 
 362      7F6EABF3 
 362      166AAB
 363 0c2f F3CFCDFC 		.ascii	"\363\317\315\374\2345\362\363m\262\212m?\254[3\213."
 363      9C35F2F3 
 363      6DB28A6D 
 363      3FAC5B33 
 363      8B2E
 364 0c41 6A2C359C 		.ascii	"j,5\234Y\326w\220_k\252\262xh\222\006;\356k'\215\236"
 364      59D67790 
 364      5F6BAAB2 
 364      78689206 
 364      3BEE6B27 
 365 0c57 0C69F474 		.ascii	"\014i\364t\357\035\256\367$\305C8\362\262\265<R>\300"
 365      EF1DAEF7 
 365      24C54338 
 365      F2B2B53C 
 365      523EC0
 366 0c6a D3E3B858 		.ascii	"\323\343\270X\352-\304\007z\315\362\350\263\260\237"
 366      EA2DC407 
 366      7ACDF2E8 
 366      B3B09F
 367 0c79 BDC98ED5 		.ascii	"\275\311\216\325K-4\2655\013ezM\365\027\242\251~3e\227"
 367      4B2D34B5 
 367      350B657A 
 367      4DF517A2 
 367      A97E3365 
 368 0c8e AEA7A6B4 		.ascii	"\256\247\246\264\377\254Y\277\345\016\235\347)k\300"
 368      FFAC59BF 
 368      E50E9DE7 
 368      296BC0
 369 0c9d 366BB6DE 		.ascii	"6k\266\3364\263u5;[\352\260K\332\202\035\262F\216a\372"
 369      34B37535 
 369      3B5BEAB0 
 369      4BDA821D 
 369      B2468E61 
 370 0cb2 93E54B8F 		.ascii	"\223\345K\217\255J\237,\207h\234c\250\376dy\227z\262"
 370      AD4A9F2C 
ARM GAS  /tmp/ccs6sxAx.s 			page 29


 370      87689C63 
 370      A8FE6479 
 370      977AB2
 371 0cc5 9CA7FB73 		.ascii	"\234\247\373s\2142\234,\377\373r\375\311\362\253f\361"
 371      8C329C2C 
 371      FFFB72FD 
 371      C9F2AB66 
 371      F1
 372 0cd6 0FD804C7 		.ascii	"\017\330\004\307\366\337e\204\256NG\241ez\221i\206\031"
 372      F6DF6584 
 372      AE4E47A1 
 372      657A9169 
 372      8619
 373 0ce8 4556A16B 		.ascii	"EV\241kIWF\350J:\302\177\322\214\377\224\021\237\224"
 373      495746E8 
 373      4A3AC27F 
 373      D28CFF94 
 373      119F94
 374 0cfb FCE4178F 		.ascii	"\374\344\027\217z\307\020\357\210\021\27615\301\361"
 374      7AC710EF 
 374      8811BE31 
 374      35C1F1
 375 0d0a C15F8EF3 		.ascii	"\301_\216\363E\343\276:^\014Fk\343>\241N\012\206\005"
 375      45E3BE3A 
 375      5E0C466B 
 375      E33EA14E 
 375      0A8605
 376 0d1d 71448014 		.ascii	"qD\200\024Ka10\236\306L\035E\311\027\214\004B\265\325"
 376      4B613130 
 376      9EC64C1D 
 376      45C9178C 
 376      0442B5D5 
 377 0d31 822F5053 		.ascii	"\202/PS'\215\250!\337\312\322!>9.M\216\011q\3506\270"
 377      278DA821 
 377      DFCAD221 
 377      3E392E4D 
 377      8E0971E8 
 378 0d47 2E284AB5 		.ascii	".(J\265|\310\217\023\370\245\252@\215\337p\353\033\331"
 378      7CC88F13 
 378      F8A5AA40 
 378      8DDF70EB 
 378      1BD9
 379 0d59 700235D5 		.ascii	"p\0025\325\200\341\256\223\374\021a\222\304\376\306"
 379      80E1AE93 
 379      FC116192 
 379      C4FEC6
 380 0d68 44A1CEC3 		.ascii	"D\241\316\303\360a\254_\212\373\"\023\260|\317W\023"
 380      F061AC5F 
 380      8AFB2213 
 380      B07CCF57 
 380      13
 381 0d79 0D0B3E51 		.ascii	"\015\013>Q\210\013\274\030\250\361\325\360bu=/\012>"
 381      880BBC18 
 381      A8F1D5F0 
 381      62753D2F 
 381      0A3E
 382 0d8b 5E0CDFE5 		.ascii	"^\014\337\345\233\030\010\014\207\306p!<^\250\256\026"
ARM GAS  /tmp/ccs6sxAx.s 			page 30


 382      9B18080C 
 382      87C67021 
 382      3C5EA8AE 
 382      16
 383 0d9c AA533722 		.ascii	"\252S7\"\321\2100\\\340\307\007\207\337\343\0375\374"
 383      D188305C 
 383      E0C70787 
 383      DFE31F35 
 383      FC
 384 0dad AE9177DE 		.ascii	"\256\221w\336\363\307\273|\206\007)j\342Ru0\302\030"
 384      F3C7BB7C 
 384      8607296A 
 384      E2527530 
 384      C218
 385 0dbf 2FAD85BF 		.ascii	"/\255\205\277w\337\345\227\246\321\377\337\354a>P\023"
 385      77DFE597 
 385      A6D1FFDF 
 385      EC613E50 
 385      13
 386 0dd0 8C083E7F 		.ascii	"\214\010>\177\2650\201\257\015I~M\276e~\277FO)\210\247"
 386      B53081AF 
 386      0D497E4D 
 386      BE657EBF 
 386      464F2988 
 387 0de5 5A08493C 		.ascii	"Z\010I<4&\324F\002~\024\030k\2250\301\361bi\240\346"
 387      3426D446 
 387      027E1418 
 387      6B9530C1 
 387      F16269A0 
 388 0dfa 37BF1E27 		.ascii	"7\277\036'Hc]uR\254\030\272\362\223K\224\256.x\232\303"
 388      48635D75 
 388      52AC18BA 
 388      F2934B94 
 388      AE2E789A 
 389 0e0f 346AC820 		.ascii	"4j\310 \241N\210H\232\"\213\005\311_'\335\232E{\330"
 389      A14E8848 
 389      9A228B05 
 389      C95F27DD 
 389      9A457BD8 
 390 0e23 9DD158A9 		.ascii	"\235\321X\251\014\214Gk\305\000(\255B\377\263J\371\021"
 390      0C8C476B 
 390      C50028AD 
 390      42FFB34A 
 390      F911
 391 0e35 0AC62521 		.ascii	"\012\306%!\302p+\2157\334B\010u_*\325\210\002_\355\227"
 391      C2702B8D 
 391      37DC4208 
 391      755F2AD5 
 391      88025FED 
 392 0e4a 3C60404A 		.ascii	"<`@J\273$\206O\340\0173\212{3(\211EE0\220\037>\362\360"
 392      BB24864F 
 392      E00F338A 
 392      7B332889 
 392      45453090 
 393 0e62 988727F9 		.ascii	"\230\207'\371\002\321p,\030\022\304\270\357'c\306\000"
 393      02D1702C 
 393      1812C4B8 
ARM GAS  /tmp/ccs6sxAx.s 			page 31


 393      EF2763C6 
 393      00
 394 0e73 719AFCDC 		.ascii	"q\232\374\334R\014\370\364+(\301\250;\020\215H\000\372"
 394      520CF8F4 
 394      2B28C1A8 
 394      3B108D48 
 394      00FA
 395 0e85 ED1C6835 		.ascii	"\355\034h5\201\250(\300\360rv\333\017\012\010H\223\276"
 395      81A828C0 
 395      F07276DB 
 395      0F0A0848 
 395      93BE
 396 0e97 EB648CBF 		.ascii	"\353d\214\277\356\27603\"Q\230\010\232\366K\234x\017"
 396      EEBE3033 
 396      22519808 
 396      9AF64B9C 
 396      780F
 397 0ea9 277E8F13 		.ascii	"'~\217\023\357\345\304\3738q\024'~\337%\3369\022\312"
 397      EFE5C4FB 
 397      38711427 
 397      7EDF25DE 
 397      3912CA
 398 0ebc 9D5C4884 		.ascii	"\235\\H\204?w\027\307\374\200\355f\274\326\2038b\376"
 398      3F7717C7 
 398      FC80ED66 
 398      BCD68338 
 398      62FE
 399 0ece 68A85A10 		.ascii	"h\250Z\020\213\002`cL\000|X(\225\342\022/\201`\335\314"
 399      8B026063 
 399      4C007C58 
 399      2895E212 
 399      2F8160DD 
 400 0ee3 12468188 		.ascii	"\022F\201\210\024\233\200\026t\307gn)\034\255\026\360"
 400      149B8016 
 400      74C7676E 
 400      291CAD16 
 400      F0
 401 0ef4 F784103F 		.ascii	"\367\204\020?1\356\226DaB\034\271f\215\342p|\"<T\355"
 401      31EE9644 
 401      61421CB9 
 401      668DE270 
 401      7C223C54 
 402 0f09 0886ABAD 		.ascii	"\010\206\253\255\022\261z2<*\025&\005\245\000\000\224"
 402      12B17A32 
 402      3C2A1526 
 402      05A50000 
 402      94
 403 0f1a D44BD1F1 		.ascii	"\324K\321\361\217\305\206\250\272\200\241\202(D\230"
 403      8FC586A8 
 403      BA80A182 
 403      284498
 404 0f29 4E8BEB25 		.ascii	"N\213\353%I\214\271\343\240:\030P\001:\212\013a>V\003"
 404      498CB9E3 
 404      A03A1850 
 404      013A8A0B 
 404      613E5603 
 405 0f3d 1C0FCBE6 		.ascii	"\034\017\313\346\340\002\023\306`\005/\356\377c\255"
ARM GAS  /tmp/ccs6sxAx.s 			page 32


 405      E00213C6 
 405      60052FEE 
 405      FF63AD
 406 0f4c 502B2831 		.ascii	"P+(1\302p\313\255\376-\0160\373+\216\373\341/\320\002"
 406      C270CBAD 
 406      FE2D0E30 
 406      FB2B8EFB 
 406      E12FD002 
 407 0f60 A36360D3 		.ascii	"\243c`\323\376p-\250,\3334ai\022SuXE\013\373\243\365"
 407      FE702DA8 
 407      2CDB3461 
 407      69125375 
 407      58450BFB 
 408 0f76 CCB4701C 		.ascii	"\314\264p\034p\031V\354\250^\202~\261r\264\2770\037"
 408      701956EC 
 408      A85E827E 
 408      B172B4BF 
 408      301F
 409 0f88 7F1C9E08 		.ascii	"\177\034\236\010\365\254\341\212\371k+5\202\230a\372"
 409      F5ACE18A 
 409      F96B2B35 
 409      829861FA 
 410 0f98 A5C13A12 		.ascii	"\245\301:\022\331\035O\314"
 410      D91D4FCC 
 411 0fa0 5FCF07A5 		.ascii	"_\317\007\245`dbY\314\017\022\300\211\240)\304\204\010"
 411      60646259 
 411      CC0F12C0 
 411      89A029C4 
 411      8408
 412 0fb2 C48D89F0 		.ascii	"\304\215\211\360\034\300Y\3172&r>\204\306\0067c\321"
 412      1CC059CF 
 412      3226723E 
 412      84C60637 
 412      63D1
 413 0fc4 68A81C6C 		.ascii	"h\250\034l\\\263w\017\264\025\307Q\334\004\325\005\276"
 413      5CB3770F 
 413      B415C751 
 413      DC04D505 
 413      BE
 414 0fd5 0DB7B1C9 		.ascii	"\015\267\261\311\236\327+:\024\342H7sD!^.\240\031\012"
 414      9ED72B3A 
 414      14E24837 
 414      7344215E 
 414      2EA0190A 
 415 0fe9 621D1F02 		.ascii	"b\035\037\002G\225~9\3761! \215\215\004%\227 \305\212"
 415      47957E39 
 415      FE312120 
 415      8D8D0425 
 415      9720C58A 
 416 0ffd 98D396   		.ascii	"\230\323\226"
 417 1000 C2ED7112 		.ascii	"\302\355q\022/Je,\016\374(\312\"\301\215\201\232\037"
 417      2F4A652C 
 417      0EFC28CA 
 417      22C18D81 
 417      9A1F
 418 1012 D7490F88 		.ascii	"\327I\017\210Q\276:\300\307\245\007\031\360\330\012"
 418      51BE3AC0 
ARM GAS  /tmp/ccs6sxAx.s 			page 33


 418      C7A50719 
 418      F0D80A
 419 1021 E5F92310 		.ascii	"\345\371#\020\316\244\261Y\3257\231\271\020\250k\334"
 419      CEA4B159 
 419      D53799B9 
 419      10A86BDC 
 420 1031 E4F8CFA3 		.ascii	"\344\370\317\243\201\307\037\024\243\341\261\343\036"
 420      81C71F14 
 420      A3E1B1E3 
 420      1E
 421 103e 19824E11 		.ascii	"\031\202N\021\202\033\376\011p\307\037\214\213\236\324"
 421      821BFE09 
 421      70C71F8C 
 421      8B9ED4
 422 104d AD11463C 		.ascii	"\255\021F<`\3007\346\341qc\307\245a\231\227\004\302"
 422      60C037E6 
 422      E17163C7 
 422      A5619997 
 422      04C2
 423 105f 0F425862 		.ascii	"\017BXbA\307\017\226$\371\037\370\341\270\037\377\352"
 423      41C70F96 
 423      24F91FF8 
 423      E1B81FFF 
 423      EA
 424 1070 91B183F8 		.ascii	"\221\261\203\370P=?9\016\234\206 \032\026\003\257\265"
 424      503D3F39 
 424      0E9C8620 
 424      1A1603AF 
 424      B5
 425 1081 C260230B 		.ascii	"\302`#\013c]B<6\004Iz4\022J\023u#RP\0331\220U\256\273"
 425      635D423C 
 425      3604497A 
 425      34124A13 
 425      75235250 
 426 109b 89525178 		.ascii	"\211RQxV \323\"\254d\217\322?\335j\034\365\244\030/"
 426      5620D322 
 426      AC648FD2 
 426      3FDD6A1C 
 426      F5A4182F 
 427 10af D7CDF75F 		.ascii	"\327\315\367_\353\2403\274"
 427      EBA033BC 
 428              		.text
 429              		.section	.gnu.lto_.symtab.6391b9b13a5685a,"",%progbits
 430 0000 6576744F 		.ascii	"evtObjectInit\000\000\000\000\000\000\000\000\000\000"
 430      626A6563 
 430      74496E69 
 430      74000000 
 430      00000000 
 431 0017 0000D700 		.ascii	"\000\000\327\000\000\000evtStart\000\000\000\000\000"
 431      00006576 
 431      74537461 
 431      72740000 
 431      000000
 432 002a 00000000 		.ascii	"\000\000\000\000\000\000\000\261\001\000\000chVTDoS"
 432      000000B1 
 432      01000063 
 432      68565444 
ARM GAS  /tmp/ccs6sxAx.s 			page 34


 432      6F53
 433 003c 65744900 		.ascii	"etI\000\000\002\000\000\000\000\000\000\000\000\000"
 433      00020000 
 433      00000000 
 433      000000
 434 004b B7010000 		.ascii	"\267\001\000\000chEvtBroadcastFlagsI\000\000\002\000"
 434      63684576 
 434      7442726F 
 434      61646361 
 434      7374466C 
 435 0067 00000000 		.ascii	"\000\000\000\000\000\000\000\000\271\001\000\000chV"
 435      00000000 
 435      B9010000 
 435      636856
 436 0076 54446F52 		.ascii	"TDoResetI\000\000\002\000\000\000\000\000\000\000\000"
 436      65736574 
 436      49000002 
 436      00000000 
 436      00000000 
 437 008a 00BF0100 		.ascii	"\000\277\001\000\000"
 437      00
 438              		.text
 439              		.section	.gnu.lto_.opts,"",%progbits
 440 0000 272D6D63 		.ascii	"'-mcpu=cortex-m4' '-mno-thumb-interwork' '-mthumb' "
 440      70753D63 
 440      6F727465 
 440      782D6D34 
 440      2720272D 
 441 0033 272D6767 		.ascii	"'-ggdb' '-O2' '-fomit-frame-pointer' '-falign-funct"
 441      64622720 
 441      272D4F32 
 441      2720272D 
 441      666F6D69 
 442 0066 696F6E73 		.ascii	"ions=16' '-ffunction-sections' '-fdata-sections' '-"
 442      3D313627 
 442      20272D66 
 442      66756E63 
 442      74696F6E 
 443 0099 666E6F2D 		.ascii	"fno-common' '-flto'\000"
 443      636F6D6D 
 443      6F6E2720 
 443      272D666C 
 443      746F2700 
 444              		.text
 445              		.cfi_sections	.debug_frame
 446              		.section	.text.tmrcb,"ax",%progbits
 447              		.align	2
 448              		.p2align 4,,15
 449              		.thumb
 450              		.thumb_func
 451              		.type	tmrcb, %function
 452              	tmrcb:
 453              	.LFB242:
 454              		.file 1 "../ChibiOS/os/various/evtimer.c"
 455              		.loc 1 48 0
 456              		.cfi_startproc
 457              		@ args = 0, pretend = 0, frame = 0
ARM GAS  /tmp/ccs6sxAx.s 			page 35


 458              		@ frame_needed = 0, uses_anonymous_args = 0
 459              	.LVL0:
 460 0000 10B5     		push	{r4, lr}
 461              		.cfi_def_cfa_offset 8
 462              		.cfi_offset 4, -8
 463              		.cfi_offset 14, -4
 464              	.LBB77:
 465              	.LBB78:
 466              	.LBB79:
 467              	.LBB80:
 468              	.LBB81:
 469              		.file 2 "../ChibiOS/os/ext/CMSIS/include/core_cmFunc.h"
 470              		.loc 2 548 0
 471 0002 2023     		movs	r3, #32
 472              	.LBE81:
 473              	.LBE80:
 474              	.LBE79:
 475              	.LBE78:
 476              	.LBE77:
 477              		.loc 1 48 0
 478 0004 0446     		mov	r4, r0
 479              	.LVL1:
 480              	.LBB86:
 481              	.LBB85:
 482              	.LBB84:
 483              	.LBB83:
 484              	.LBB82:
 485              		.loc 2 548 0
 486              	@ 548 "../ChibiOS/os/ext/CMSIS/include/core_cmFunc.h" 1
 487 0006 83F31188 		MSR basepri, r3
 488              	@ 0 "" 2
 489              	.LVL2:
 490              		.thumb
 491              	.LBE82:
 492              	.LBE83:
 493              	.LBE84:
 494              	.LBE85:
 495              	.LBE86:
 496              	.LBB87:
 497              	.LBB88:
 498              		.file 3 "../ChibiOS/os/rt/include/chevents.h"
 499              		.loc 3 256 0
 500 000a 0021     		movs	r1, #0
 501 000c 1430     		adds	r0, r0, #20
 502              	.LVL3:
 503 000e FFF7FEFF 		bl	chEvtBroadcastFlagsI
 504              	.LVL4:
 505              	.LBE88:
 506              	.LBE87:
 507              		.loc 1 53 0
 508 0012 2346     		mov	r3, r4
 509 0014 2046     		mov	r0, r4
 510 0016 A169     		ldr	r1, [r4, #24]
 511 0018 034A     		ldr	r2, .L2
 512 001a FFF7FEFF 		bl	chVTDoSetI
 513              	.LVL5:
 514              	.LBB89:
ARM GAS  /tmp/ccs6sxAx.s 			page 36


 515              	.LBB90:
 516              	.LBB91:
 517              	.LBB92:
 518              	.LBB93:
 519              		.loc 2 548 0
 520 001e 0023     		movs	r3, #0
 521              	@ 548 "../ChibiOS/os/ext/CMSIS/include/core_cmFunc.h" 1
 522 0020 83F31188 		MSR basepri, r3
 523              	@ 0 "" 2
 524              		.thumb
 525 0024 10BD     		pop	{r4, pc}
 526              	.LVL6:
 527              	.L3:
 528 0026 00BF     		.align	2
 529              	.L2:
 530 0028 00000000 		.word	tmrcb
 531              	.LBE93:
 532              	.LBE92:
 533              	.LBE91:
 534              	.LBE90:
 535              	.LBE89:
 536              		.cfi_endproc
 537              	.LFE242:
 538              		.size	tmrcb, .-tmrcb
 539 002c AFF30080 		.section	.text.evtObjectInit,"ax",%progbits
 540              		.align	2
 541              		.p2align 4,,15
 542              		.global	evtObjectInit
 543              		.thumb
 544              		.thumb_func
 545              		.type	evtObjectInit, %function
 546              	evtObjectInit:
 547              	.LFB243:
 548              		.loc 1 67 0
 549              		.cfi_startproc
 550              		@ args = 0, pretend = 0, frame = 0
 551              		@ frame_needed = 0, uses_anonymous_args = 0
 552              		@ link register save eliminated.
 553              	.LVL7:
 554              		.loc 1 69 0
 555 0000 00F11402 		add	r2, r0, #20
 556              	.LVL8:
 557              	.LBB94:
 558              	.LBB95:
 559              		.file 4 "../ChibiOS/os/rt/include/chvt.h"
 560              		.loc 4 212 0
 561 0004 0023     		movs	r3, #0
 562              	.LBE95:
 563              	.LBE94:
 564              		.loc 1 71 0
 565 0006 8161     		str	r1, [r0, #24]
 566              	.LBB97:
 567              	.LBB98:
 568              		.loc 3 172 0
 569 0008 4261     		str	r2, [r0, #20]
 570              	.LVL9:
 571              	.LBE98:
ARM GAS  /tmp/ccs6sxAx.s 			page 37


 572              	.LBE97:
 573              	.LBB99:
 574              	.LBB96:
 575              		.loc 4 212 0
 576 000a C360     		str	r3, [r0, #12]
 577 000c 7047     		bx	lr
 578              	.LBE96:
 579              	.LBE99:
 580              		.cfi_endproc
 581              	.LFE243:
 582              		.size	evtObjectInit, .-evtObjectInit
 583 000e 00BF     		.section	.text.evtStart,"ax",%progbits
 584              		.align	2
 585              		.p2align 4,,15
 586              		.global	evtStart
 587              		.thumb
 588              		.thumb_func
 589              		.type	evtStart, %function
 590              	evtStart:
 591              	.LFB244:
 592              		.loc 1 80 0
 593              		.cfi_startproc
 594              		@ args = 0, pretend = 0, frame = 0
 595              		@ frame_needed = 0, uses_anonymous_args = 0
 596              	.LVL10:
 597 0000 38B5     		push	{r3, r4, r5, lr}
 598              		.cfi_def_cfa_offset 16
 599              		.cfi_offset 3, -16
 600              		.cfi_offset 4, -12
 601              		.cfi_offset 5, -8
 602              		.cfi_offset 14, -4
 603              		.loc 1 80 0
 604 0002 0446     		mov	r4, r0
 605              	.LBB115:
 606              	.LBB116:
 607              	.LBB117:
 608              	.LBB118:
 609              	.LBB119:
 610              		.loc 2 548 0
 611 0004 2023     		movs	r3, #32
 612              	.LBE119:
 613              	.LBE118:
 614              	.LBE117:
 615              	.LBE116:
 616              	.LBE115:
 617              		.loc 1 82 0
 618 0006 8569     		ldr	r5, [r0, #24]
 619              	.LVL11:
 620              	.LBB133:
 621              	.LBB123:
 622              	.LBB122:
 623              	.LBB121:
 624              	.LBB120:
 625              		.loc 2 548 0
 626              	@ 548 "../ChibiOS/os/ext/CMSIS/include/core_cmFunc.h" 1
 627 0008 83F31188 		MSR basepri, r3
 628              	@ 0 "" 2
ARM GAS  /tmp/ccs6sxAx.s 			page 38


 629              	.LVL12:
 630              		.thumb
 631              	.LBE120:
 632              	.LBE121:
 633              	.LBE122:
 634              	.LBE123:
 635              	.LBB124:
 636              	.LBB125:
 637              	.LBB126:
 638              	.LBB127:
 639              		.loc 4 412 0
 640 000c C368     		ldr	r3, [r0, #12]
 641 000e 0BB1     		cbz	r3, .L6
 642              		.loc 4 413 0
 643 0010 FFF7FEFF 		bl	chVTDoResetI
 644              	.LVL13:
 645              	.L6:
 646              	.LBE127:
 647              	.LBE126:
 648              		.loc 4 460 0
 649 0014 2346     		mov	r3, r4
 650 0016 2046     		mov	r0, r4
 651 0018 2946     		mov	r1, r5
 652 001a 034A     		ldr	r2, .L11
 653 001c FFF7FEFF 		bl	chVTDoSetI
 654              	.LVL14:
 655              	.LBE125:
 656              	.LBE124:
 657              	.LBB128:
 658              	.LBB129:
 659              	.LBB130:
 660              	.LBB131:
 661              	.LBB132:
 662              		.loc 2 548 0
 663 0020 0023     		movs	r3, #0
 664              	@ 548 "../ChibiOS/os/ext/CMSIS/include/core_cmFunc.h" 1
 665 0022 83F31188 		MSR basepri, r3
 666              	@ 0 "" 2
 667              		.thumb
 668 0026 38BD     		pop	{r3, r4, r5, pc}
 669              	.LVL15:
 670              	.L12:
 671              		.align	2
 672              	.L11:
 673 0028 00000000 		.word	tmrcb
 674              	.LBE132:
 675              	.LBE131:
 676              	.LBE130:
 677              	.LBE129:
 678              	.LBE128:
 679              	.LBE133:
 680              		.cfi_endproc
 681              	.LFE244:
 682              		.size	evtStart, .-evtStart
 683 002c AFF30080 		.text
 684              	.Letext0:
 685              		.file 5 "/nfs/nfs5/home/research/hardware/arm2/gcc-arm-embedded/gcc-arm-none-eabi-4_8-2014q2/arm-n
ARM GAS  /tmp/ccs6sxAx.s 			page 39


 686              		.file 6 "/nfs/nfs5/home/research/hardware/arm2/gcc-arm-embedded/gcc-arm-none-eabi-4_8-2014q2/arm-n
 687              		.file 7 "../ChibiOS/os/rt/ports/ARMCMx/compilers/GCC/chtypes.h"
 688              		.file 8 "../ChibiOS/os/rt/include/chsystypes.h"
 689              		.file 9 "../ChibiOS/os/rt/include/chschd.h"
 690              		.file 10 "../ChibiOS/os/rt/ports/ARMCMx/chcore.h"
 691              		.file 11 "../ChibiOS/os/rt/ports/ARMCMx/chcore_v7m.h"
 692              		.file 12 "../ChibiOS/os/rt/include/chtm.h"
 693              		.file 13 "../ChibiOS/os/rt/include/chsem.h"
 694              		.file 14 "../ChibiOS/os/rt/include/chmtx.h"
 695              		.file 15 "../ChibiOS/os/various/evtimer.h"
 696              		.file 16 "../ChibiOS/os/rt/include/chsys.h"
 697              		.file 17 "../ChibiOS/os/ext/CMSIS/include/core_cm4.h"
 698              		.section	.debug_info,"",%progbits
 699              	.Ldebug_info0:
 700 0000 BB0B0000 		.4byte	0xbbb
 701 0004 0400     		.2byte	0x4
 702 0006 00000000 		.4byte	.Ldebug_abbrev0
 703 000a 04       		.byte	0x4
 704 000b 01       		.uleb128 0x1
 705 000c 1B060000 		.4byte	.LASF141
 706 0010 01       		.byte	0x1
 707 0011 AA020000 		.4byte	.LASF142
 708 0015 CB040000 		.4byte	.LASF143
 709 0019 60000000 		.4byte	.Ldebug_ranges0+0x60
 710 001d 00000000 		.4byte	0
 711 0021 00000000 		.4byte	.Ldebug_line0
 712 0025 02       		.uleb128 0x2
 713 0026 04       		.byte	0x4
 714 0027 05       		.byte	0x5
 715 0028 696E7400 		.ascii	"int\000"
 716 002c 03       		.uleb128 0x3
 717 002d 04       		.byte	0x4
 718 002e 07       		.byte	0x7
 719 002f B9010000 		.4byte	.LASF0
 720 0033 03       		.uleb128 0x3
 721 0034 01       		.byte	0x1
 722 0035 06       		.byte	0x6
 723 0036 F7000000 		.4byte	.LASF1
 724 003a 04       		.uleb128 0x4
 725 003b 3B000000 		.4byte	.LASF5
 726 003f 05       		.byte	0x5
 727 0040 1C       		.byte	0x1c
 728 0041 45000000 		.4byte	0x45
 729 0045 03       		.uleb128 0x3
 730 0046 01       		.byte	0x1
 731 0047 08       		.byte	0x8
 732 0048 DE030000 		.4byte	.LASF2
 733 004c 03       		.uleb128 0x3
 734 004d 02       		.byte	0x2
 735 004e 05       		.byte	0x5
 736 004f 0B040000 		.4byte	.LASF3
 737 0053 03       		.uleb128 0x3
 738 0054 02       		.byte	0x2
 739 0055 07       		.byte	0x7
 740 0056 FF010000 		.4byte	.LASF4
 741 005a 04       		.uleb128 0x4
 742 005b 86020000 		.4byte	.LASF6
ARM GAS  /tmp/ccs6sxAx.s 			page 40


 743 005f 05       		.byte	0x5
 744 0060 37       		.byte	0x37
 745 0061 65000000 		.4byte	0x65
 746 0065 03       		.uleb128 0x3
 747 0066 04       		.byte	0x4
 748 0067 05       		.byte	0x5
 749 0068 30010000 		.4byte	.LASF7
 750 006c 04       		.uleb128 0x4
 751 006d 76050000 		.4byte	.LASF8
 752 0071 05       		.byte	0x5
 753 0072 38       		.byte	0x38
 754 0073 77000000 		.4byte	0x77
 755 0077 03       		.uleb128 0x3
 756 0078 04       		.byte	0x4
 757 0079 07       		.byte	0x7
 758 007a 16050000 		.4byte	.LASF9
 759 007e 03       		.uleb128 0x3
 760 007f 08       		.byte	0x8
 761 0080 05       		.byte	0x5
 762 0081 E9000000 		.4byte	.LASF10
 763 0085 04       		.uleb128 0x4
 764 0086 7B030000 		.4byte	.LASF11
 765 008a 05       		.byte	0x5
 766 008b 4E       		.byte	0x4e
 767 008c 90000000 		.4byte	0x90
 768 0090 03       		.uleb128 0x3
 769 0091 08       		.byte	0x8
 770 0092 07       		.byte	0x7
 771 0093 6A000000 		.4byte	.LASF12
 772 0097 04       		.uleb128 0x4
 773 0098 13060000 		.4byte	.LASF13
 774 009c 06       		.byte	0x6
 775 009d 2A       		.byte	0x2a
 776 009e 3A000000 		.4byte	0x3a
 777 00a2 04       		.uleb128 0x4
 778 00a3 D6030000 		.4byte	.LASF14
 779 00a7 06       		.byte	0x6
 780 00a8 41       		.byte	0x41
 781 00a9 5A000000 		.4byte	0x5a
 782 00ad 04       		.uleb128 0x4
 783 00ae 9D040000 		.4byte	.LASF15
 784 00b2 06       		.byte	0x6
 785 00b3 42       		.byte	0x42
 786 00b4 6C000000 		.4byte	0x6c
 787 00b8 04       		.uleb128 0x4
 788 00b9 26000000 		.4byte	.LASF16
 789 00bd 06       		.byte	0x6
 790 00be 4E       		.byte	0x4e
 791 00bf 85000000 		.4byte	0x85
 792 00c3 04       		.uleb128 0x4
 793 00c4 B6050000 		.4byte	.LASF17
 794 00c8 07       		.byte	0x7
 795 00c9 39       		.byte	0x39
 796 00ca AD000000 		.4byte	0xad
 797 00ce 04       		.uleb128 0x4
 798 00cf 32040000 		.4byte	.LASF18
 799 00d3 07       		.byte	0x7
ARM GAS  /tmp/ccs6sxAx.s 			page 41


 800 00d4 3C       		.byte	0x3c
 801 00d5 97000000 		.4byte	0x97
 802 00d9 04       		.uleb128 0x4
 803 00da 39010000 		.4byte	.LASF19
 804 00de 07       		.byte	0x7
 805 00df 3D       		.byte	0x3d
 806 00e0 97000000 		.4byte	0x97
 807 00e4 04       		.uleb128 0x4
 808 00e5 86030000 		.4byte	.LASF20
 809 00e9 07       		.byte	0x7
 810 00ea 3E       		.byte	0x3e
 811 00eb 97000000 		.4byte	0x97
 812 00ef 04       		.uleb128 0x4
 813 00f0 A5030000 		.4byte	.LASF21
 814 00f4 07       		.byte	0x7
 815 00f5 40       		.byte	0x40
 816 00f6 AD000000 		.4byte	0xad
 817 00fa 04       		.uleb128 0x4
 818 00fb 3E020000 		.4byte	.LASF22
 819 00ff 07       		.byte	0x7
 820 0100 41       		.byte	0x41
 821 0101 A2000000 		.4byte	0xa2
 822 0105 04       		.uleb128 0x4
 823 0106 2F000000 		.4byte	.LASF23
 824 010a 07       		.byte	0x7
 825 010b 43       		.byte	0x43
 826 010c AD000000 		.4byte	0xad
 827 0110 04       		.uleb128 0x4
 828 0111 31020000 		.4byte	.LASF24
 829 0115 07       		.byte	0x7
 830 0116 44       		.byte	0x44
 831 0117 AD000000 		.4byte	0xad
 832 011b 04       		.uleb128 0x4
 833 011c B3010000 		.4byte	.LASF25
 834 0120 07       		.byte	0x7
 835 0121 45       		.byte	0x45
 836 0122 A2000000 		.4byte	0xa2
 837 0126 04       		.uleb128 0x4
 838 0127 58050000 		.4byte	.LASF26
 839 012b 08       		.byte	0x8
 840 012c 33       		.byte	0x33
 841 012d AD000000 		.4byte	0xad
 842 0131 04       		.uleb128 0x4
 843 0132 48050000 		.4byte	.LASF27
 844 0136 08       		.byte	0x8
 845 0137 3F       		.byte	0x3f
 846 0138 3C010000 		.4byte	0x13c
 847 013c 05       		.uleb128 0x5
 848 013d 12020000 		.4byte	.LASF46
 849 0141 40       		.byte	0x40
 850 0142 09       		.byte	0x9
 851 0143 C2       		.byte	0xc2
 852 0144 1C020000 		.4byte	0x21c
 853 0148 06       		.uleb128 0x6
 854 0149 2B040000 		.4byte	.LASF28
 855 014d 09       		.byte	0x9
 856 014e C3       		.byte	0xc3
ARM GAS  /tmp/ccs6sxAx.s 			page 42


 857 014f 27020000 		.4byte	0x227
 858 0153 00       		.byte	0
 859 0154 06       		.uleb128 0x6
 860 0155 9E030000 		.4byte	.LASF29
 861 0159 09       		.byte	0x9
 862 015a C5       		.byte	0xc5
 863 015b 27020000 		.4byte	0x227
 864 015f 04       		.byte	0x4
 865 0160 06       		.uleb128 0x6
 866 0161 E2000000 		.4byte	.LASF30
 867 0165 09       		.byte	0x9
 868 0166 C7       		.byte	0xc7
 869 0167 EF000000 		.4byte	0xef
 870 016b 08       		.byte	0x8
 871 016c 06       		.uleb128 0x6
 872 016d 44070000 		.4byte	.LASF31
 873 0171 09       		.byte	0x9
 874 0172 C8       		.byte	0xc8
 875 0173 57040000 		.4byte	0x457
 876 0177 0C       		.byte	0xc
 877 0178 06       		.uleb128 0x6
 878 0179 5E010000 		.4byte	.LASF32
 879 017d 09       		.byte	0x9
 880 017e CA       		.byte	0xca
 881 017f 27020000 		.4byte	0x227
 882 0183 10       		.byte	0x10
 883 0184 06       		.uleb128 0x6
 884 0185 33030000 		.4byte	.LASF33
 885 0189 09       		.byte	0x9
 886 018a CB       		.byte	0xcb
 887 018b 27020000 		.4byte	0x227
 888 018f 14       		.byte	0x14
 889 0190 06       		.uleb128 0x6
 890 0191 0C070000 		.4byte	.LASF34
 891 0195 09       		.byte	0x9
 892 0196 D2       		.byte	0xd2
 893 0197 E2050000 		.4byte	0x5e2
 894 019b 18       		.byte	0x18
 895 019c 06       		.uleb128 0x6
 896 019d 15040000 		.4byte	.LASF35
 897 01a1 09       		.byte	0x9
 898 01a2 DD       		.byte	0xdd
 899 01a3 D9000000 		.4byte	0xd9
 900 01a7 1C       		.byte	0x1c
 901 01a8 06       		.uleb128 0x6
 902 01a9 3A040000 		.4byte	.LASF36
 903 01ad 09       		.byte	0x9
 904 01ae E1       		.byte	0xe1
 905 01af CE000000 		.4byte	0xce
 906 01b3 1D       		.byte	0x1d
 907 01b4 06       		.uleb128 0x6
 908 01b5 42010000 		.4byte	.LASF37
 909 01b9 09       		.byte	0x9
 910 01ba E6       		.byte	0xe6
 911 01bb E4000000 		.4byte	0xe4
 912 01bf 1E       		.byte	0x1e
 913 01c0 07       		.uleb128 0x7
ARM GAS  /tmp/ccs6sxAx.s 			page 43


 914 01c1 705F7500 		.ascii	"p_u\000"
 915 01c5 09       		.byte	0x9
 916 01c6 3701     		.2byte	0x137
 917 01c8 11050000 		.4byte	0x511
 918 01cc 20       		.byte	0x20
 919 01cd 08       		.uleb128 0x8
 920 01ce DB020000 		.4byte	.LASF38
 921 01d2 09       		.byte	0x9
 922 01d3 3C01     		.2byte	0x13c
 923 01d5 2D020000 		.4byte	0x22d
 924 01d9 24       		.byte	0x24
 925 01da 08       		.uleb128 0x8
 926 01db DE010000 		.4byte	.LASF39
 927 01df 09       		.byte	0x9
 928 01e0 4201     		.2byte	0x142
 929 01e2 51020000 		.4byte	0x251
 930 01e6 28       		.byte	0x28
 931 01e7 08       		.uleb128 0x8
 932 01e8 92040000 		.4byte	.LASF40
 933 01ec 09       		.byte	0x9
 934 01ed 4801     		.2byte	0x148
 935 01ef 05010000 		.4byte	0x105
 936 01f3 30       		.byte	0x30
 937 01f4 08       		.uleb128 0x8
 938 01f5 01040000 		.4byte	.LASF41
 939 01f9 09       		.byte	0x9
 940 01fa 4F01     		.2byte	0x14f
 941 01fc DC050000 		.4byte	0x5dc
 942 0200 34       		.byte	0x34
 943 0201 08       		.uleb128 0x8
 944 0202 62050000 		.4byte	.LASF42
 945 0206 09       		.byte	0x9
 946 0207 5301     		.2byte	0x153
 947 0209 EF000000 		.4byte	0xef
 948 020d 38       		.byte	0x38
 949 020e 08       		.uleb128 0x8
 950 020f 03010000 		.4byte	.LASF43
 951 0213 09       		.byte	0x9
 952 0214 5A01     		.2byte	0x15a
 953 0216 04030000 		.4byte	0x304
 954 021a 3C       		.byte	0x3c
 955 021b 00       		.byte	0
 956 021c 04       		.uleb128 0x4
 957 021d F4020000 		.4byte	.LASF44
 958 0221 08       		.byte	0x8
 959 0222 44       		.byte	0x44
 960 0223 27020000 		.4byte	0x227
 961 0227 09       		.uleb128 0x9
 962 0228 04       		.byte	0x4
 963 0229 31010000 		.4byte	0x131
 964 022d 04       		.uleb128 0x4
 965 022e 13070000 		.4byte	.LASF45
 966 0232 08       		.byte	0x8
 967 0233 49       		.byte	0x49
 968 0234 38020000 		.4byte	0x238
 969 0238 05       		.uleb128 0x5
 970 0239 BB040000 		.4byte	.LASF47
ARM GAS  /tmp/ccs6sxAx.s 			page 44


 971 023d 04       		.byte	0x4
 972 023e 09       		.byte	0x9
 973 023f B0       		.byte	0xb0
 974 0240 51020000 		.4byte	0x251
 975 0244 06       		.uleb128 0x6
 976 0245 2B040000 		.4byte	.LASF28
 977 0249 09       		.byte	0x9
 978 024a B1       		.byte	0xb1
 979 024b 27020000 		.4byte	0x227
 980 024f 00       		.byte	0
 981 0250 00       		.byte	0
 982 0251 04       		.uleb128 0x4
 983 0252 DF050000 		.4byte	.LASF48
 984 0256 08       		.byte	0x8
 985 0257 50       		.byte	0x50
 986 0258 5C020000 		.4byte	0x25c
 987 025c 05       		.uleb128 0x5
 988 025d D1000000 		.4byte	.LASF49
 989 0261 08       		.byte	0x8
 990 0262 09       		.byte	0x9
 991 0263 B7       		.byte	0xb7
 992 0264 81020000 		.4byte	0x281
 993 0268 06       		.uleb128 0x6
 994 0269 2B040000 		.4byte	.LASF28
 995 026d 09       		.byte	0x9
 996 026e B8       		.byte	0xb8
 997 026f 27020000 		.4byte	0x227
 998 0273 00       		.byte	0
 999 0274 06       		.uleb128 0x6
 1000 0275 9E030000 		.4byte	.LASF29
 1001 0279 09       		.byte	0x9
 1002 027a B9       		.byte	0xb9
 1003 027b 27020000 		.4byte	0x227
 1004 027f 04       		.byte	0x4
 1005 0280 00       		.byte	0
 1006 0281 04       		.uleb128 0x4
 1007 0282 0C000000 		.4byte	.LASF50
 1008 0286 08       		.byte	0x8
 1009 0287 57       		.byte	0x57
 1010 0288 8C020000 		.4byte	0x28c
 1011 028c 0A       		.uleb128 0xa
 1012 028d 6D020000 		.4byte	.LASF51
 1013 0291 1C       		.byte	0x1c
 1014 0292 09       		.byte	0x9
 1015 0293 9201     		.2byte	0x192
 1016 0295 E8020000 		.4byte	0x2e8
 1017 0299 08       		.uleb128 0x8
 1018 029a AD040000 		.4byte	.LASF52
 1019 029e 09       		.byte	0x9
 1020 029f 9301     		.2byte	0x193
 1021 02a1 51020000 		.4byte	0x251
 1022 02a5 00       		.byte	0
 1023 02a6 08       		.uleb128 0x8
 1024 02a7 1D040000 		.4byte	.LASF53
 1025 02ab 09       		.byte	0x9
 1026 02ac 9401     		.2byte	0x194
 1027 02ae EF000000 		.4byte	0xef
ARM GAS  /tmp/ccs6sxAx.s 			page 45


 1028 02b2 08       		.byte	0x8
 1029 02b3 08       		.uleb128 0x8
 1030 02b4 3B030000 		.4byte	.LASF54
 1031 02b8 09       		.byte	0x9
 1032 02b9 9601     		.2byte	0x196
 1033 02bb 57040000 		.4byte	0x457
 1034 02bf 0C       		.byte	0xc
 1035 02c0 08       		.uleb128 0x8
 1036 02c1 6E010000 		.4byte	.LASF55
 1037 02c5 09       		.byte	0x9
 1038 02c6 9901     		.2byte	0x199
 1039 02c8 27020000 		.4byte	0x227
 1040 02cc 10       		.byte	0x10
 1041 02cd 08       		.uleb128 0x8
 1042 02ce 69030000 		.4byte	.LASF56
 1043 02d2 09       		.byte	0x9
 1044 02d3 9A01     		.2byte	0x19a
 1045 02d5 27020000 		.4byte	0x227
 1046 02d9 14       		.byte	0x14
 1047 02da 08       		.uleb128 0x8
 1048 02db 5F030000 		.4byte	.LASF57
 1049 02df 09       		.byte	0x9
 1050 02e0 9D01     		.2byte	0x19d
 1051 02e2 27020000 		.4byte	0x227
 1052 02e6 18       		.byte	0x18
 1053 02e7 00       		.byte	0
 1054 02e8 04       		.uleb128 0x4
 1055 02e9 6D050000 		.4byte	.LASF58
 1056 02ed 08       		.byte	0x8
 1057 02ee 5C       		.byte	0x5c
 1058 02ef F3020000 		.4byte	0x2f3
 1059 02f3 09       		.uleb128 0x9
 1060 02f4 04       		.byte	0x4
 1061 02f5 F9020000 		.4byte	0x2f9
 1062 02f9 0B       		.uleb128 0xb
 1063 02fa 04030000 		.4byte	0x304
 1064 02fe 0C       		.uleb128 0xc
 1065 02ff 04030000 		.4byte	0x304
 1066 0303 00       		.byte	0
 1067 0304 0D       		.uleb128 0xd
 1068 0305 04       		.byte	0x4
 1069 0306 04       		.uleb128 0x4
 1070 0307 8E030000 		.4byte	.LASF59
 1071 030b 08       		.byte	0x8
 1072 030c 61       		.byte	0x61
 1073 030d 11030000 		.4byte	0x311
 1074 0311 0A       		.uleb128 0xa
 1075 0312 69040000 		.4byte	.LASF60
 1076 0316 14       		.byte	0x14
 1077 0317 09       		.byte	0x9
 1078 0318 6D01     		.2byte	0x16d
 1079 031a 60030000 		.4byte	0x360
 1080 031e 08       		.uleb128 0x8
 1081 031f C6010000 		.4byte	.LASF61
 1082 0323 09       		.byte	0x9
 1083 0324 6E01     		.2byte	0x16e
 1084 0326 F4050000 		.4byte	0x5f4
ARM GAS  /tmp/ccs6sxAx.s 			page 46


 1085 032a 00       		.byte	0
 1086 032b 08       		.uleb128 0x8
 1087 032c 7F010000 		.4byte	.LASF62
 1088 0330 09       		.byte	0x9
 1089 0331 6F01     		.2byte	0x16f
 1090 0333 F4050000 		.4byte	0x5f4
 1091 0337 04       		.byte	0x4
 1092 0338 08       		.uleb128 0x8
 1093 0339 D5010000 		.4byte	.LASF63
 1094 033d 09       		.byte	0x9
 1095 033e 7001     		.2byte	0x170
 1096 0340 26010000 		.4byte	0x126
 1097 0344 08       		.byte	0x8
 1098 0345 08       		.uleb128 0x8
 1099 0346 4A070000 		.4byte	.LASF64
 1100 034a 09       		.byte	0x9
 1101 034b 7101     		.2byte	0x171
 1102 034d E8020000 		.4byte	0x2e8
 1103 0351 0C       		.byte	0xc
 1104 0352 08       		.uleb128 0x8
 1105 0353 D1050000 		.4byte	.LASF65
 1106 0357 09       		.byte	0x9
 1107 0358 7301     		.2byte	0x173
 1108 035a 04030000 		.4byte	0x304
 1109 035e 10       		.byte	0x10
 1110 035f 00       		.byte	0
 1111 0360 04       		.uleb128 0x4
 1112 0361 A8000000 		.4byte	.LASF66
 1113 0365 08       		.byte	0x8
 1114 0366 66       		.byte	0x66
 1115 0367 6B030000 		.4byte	0x36b
 1116 036b 0A       		.uleb128 0xa
 1117 036c 07030000 		.4byte	.LASF67
 1118 0370 10       		.byte	0x10
 1119 0371 09       		.byte	0x9
 1120 0372 7D01     		.2byte	0x17d
 1121 0374 AD030000 		.4byte	0x3ad
 1122 0378 08       		.uleb128 0x8
 1123 0379 C6010000 		.4byte	.LASF61
 1124 037d 09       		.byte	0x9
 1125 037e 7E01     		.2byte	0x17e
 1126 0380 F4050000 		.4byte	0x5f4
 1127 0384 00       		.byte	0
 1128 0385 08       		.uleb128 0x8
 1129 0386 7F010000 		.4byte	.LASF62
 1130 038a 09       		.byte	0x9
 1131 038b 8001     		.2byte	0x180
 1132 038d F4050000 		.4byte	0x5f4
 1133 0391 04       		.byte	0x4
 1134 0392 08       		.uleb128 0x8
 1135 0393 D5010000 		.4byte	.LASF63
 1136 0397 09       		.byte	0x9
 1137 0398 8201     		.2byte	0x182
 1138 039a 26010000 		.4byte	0x126
 1139 039e 08       		.byte	0x8
 1140 039f 08       		.uleb128 0x8
 1141 03a0 1E030000 		.4byte	.LASF68
ARM GAS  /tmp/ccs6sxAx.s 			page 47


 1142 03a4 09       		.byte	0x9
 1143 03a5 8A01     		.2byte	0x18a
 1144 03a7 26010000 		.4byte	0x126
 1145 03ab 0C       		.byte	0xc
 1146 03ac 00       		.byte	0
 1147 03ad 04       		.uleb128 0x4
 1148 03ae 51000000 		.4byte	.LASF69
 1149 03b2 08       		.byte	0x8
 1150 03b3 6B       		.byte	0x6b
 1151 03b4 B8030000 		.4byte	0x3b8
 1152 03b8 0A       		.uleb128 0xa
 1153 03b9 C0030000 		.4byte	.LASF70
 1154 03bd 04       		.byte	0x4
 1155 03be 09       		.byte	0x9
 1156 03bf A401     		.2byte	0x1a4
 1157 03c1 D3030000 		.4byte	0x3d3
 1158 03c5 08       		.uleb128 0x8
 1159 03c6 8F050000 		.4byte	.LASF71
 1160 03ca 09       		.byte	0x9
 1161 03cb AC01     		.2byte	0x1ac
 1162 03cd FA050000 		.4byte	0x5fa
 1163 03d1 00       		.byte	0
 1164 03d2 00       		.byte	0
 1165 03d3 04       		.uleb128 0x4
 1166 03d4 4C020000 		.4byte	.LASF72
 1167 03d8 08       		.byte	0x8
 1168 03d9 70       		.byte	0x70
 1169 03da DE030000 		.4byte	0x3de
 1170 03de 0E       		.uleb128 0xe
 1171 03df 26010000 		.4byte	.LASF73
 1172 03e3 5001     		.2byte	0x150
 1173 03e5 09       		.byte	0x9
 1174 03e6 C401     		.2byte	0x1c4
 1175 03e8 3A040000 		.4byte	0x43a
 1176 03ec 08       		.uleb128 0x8
 1177 03ed 00060000 		.4byte	.LASF74
 1178 03f1 09       		.byte	0x9
 1179 03f2 C801     		.2byte	0x1c8
 1180 03f4 81020000 		.4byte	0x281
 1181 03f8 00       		.byte	0
 1182 03f9 08       		.uleb128 0x8
 1183 03fa 13010000 		.4byte	.LASF75
 1184 03fe 09       		.byte	0x9
 1185 03ff CC01     		.2byte	0x1cc
 1186 0401 60030000 		.4byte	0x360
 1187 0405 1C       		.byte	0x1c
 1188 0406 07       		.uleb128 0x7
 1189 0407 64626700 		.ascii	"dbg\000"
 1190 040b 09       		.byte	0x9
 1191 040c D001     		.2byte	0x1d0
 1192 040e AD030000 		.4byte	0x3ad
 1193 0412 2C       		.byte	0x2c
 1194 0413 08       		.uleb128 0x8
 1195 0414 26020000 		.4byte	.LASF76
 1196 0418 09       		.byte	0x9
 1197 0419 D401     		.2byte	0x1d4
 1198 041b 31010000 		.4byte	0x131
ARM GAS  /tmp/ccs6sxAx.s 			page 48


 1199 041f 30       		.byte	0x30
 1200 0420 07       		.uleb128 0x7
 1201 0421 746D00   		.ascii	"tm\000"
 1202 0424 09       		.byte	0x9
 1203 0425 D901     		.2byte	0x1d9
 1204 0427 06050000 		.4byte	0x506
 1205 042b 70       		.byte	0x70
 1206 042c 08       		.uleb128 0x8
 1207 042d A4010000 		.4byte	.LASF77
 1208 0431 09       		.byte	0x9
 1209 0432 E501     		.2byte	0x1e5
 1210 0434 FF050000 		.4byte	0x5ff
 1211 0438 78       		.byte	0x78
 1212 0439 00       		.byte	0
 1213 043a 03       		.uleb128 0x3
 1214 043b 04       		.byte	0x4
 1215 043c 07       		.byte	0x7
 1216 043d EB020000 		.4byte	.LASF78
 1217 0441 04       		.uleb128 0x4
 1218 0442 76010000 		.4byte	.LASF79
 1219 0446 0A       		.byte	0xa
 1220 0447 65       		.byte	0x65
 1221 0448 04030000 		.4byte	0x304
 1222 044c 04       		.uleb128 0x4
 1223 044d 9F020000 		.4byte	.LASF80
 1224 0451 0A       		.byte	0xa
 1225 0452 6D       		.byte	0x6d
 1226 0453 B8000000 		.4byte	0xb8
 1227 0457 05       		.uleb128 0x5
 1228 0458 AE050000 		.4byte	.LASF81
 1229 045c 04       		.byte	0x4
 1230 045d 0A       		.byte	0xa
 1231 045e 89       		.byte	0x89
 1232 045f 70040000 		.4byte	0x470
 1233 0463 0F       		.uleb128 0xf
 1234 0464 72313300 		.ascii	"r13\000"
 1235 0468 0A       		.byte	0xa
 1236 0469 8A       		.byte	0x8a
 1237 046a EB040000 		.4byte	0x4eb
 1238 046e 00       		.byte	0
 1239 046f 00       		.byte	0
 1240 0470 05       		.uleb128 0x5
 1241 0471 45000000 		.4byte	.LASF82
 1242 0475 24       		.byte	0x24
 1243 0476 0B       		.byte	0xb
 1244 0477 FD       		.byte	0xfd
 1245 0478 EB040000 		.4byte	0x4eb
 1246 047c 07       		.uleb128 0x7
 1247 047d 723400   		.ascii	"r4\000"
 1248 0480 0B       		.byte	0xb
 1249 0481 1001     		.2byte	0x110
 1250 0483 41040000 		.4byte	0x441
 1251 0487 00       		.byte	0
 1252 0488 07       		.uleb128 0x7
 1253 0489 723500   		.ascii	"r5\000"
 1254 048c 0B       		.byte	0xb
 1255 048d 1101     		.2byte	0x111
ARM GAS  /tmp/ccs6sxAx.s 			page 49


 1256 048f 41040000 		.4byte	0x441
 1257 0493 04       		.byte	0x4
 1258 0494 07       		.uleb128 0x7
 1259 0495 723600   		.ascii	"r6\000"
 1260 0498 0B       		.byte	0xb
 1261 0499 1201     		.2byte	0x112
 1262 049b 41040000 		.4byte	0x441
 1263 049f 08       		.byte	0x8
 1264 04a0 07       		.uleb128 0x7
 1265 04a1 723700   		.ascii	"r7\000"
 1266 04a4 0B       		.byte	0xb
 1267 04a5 1301     		.2byte	0x113
 1268 04a7 41040000 		.4byte	0x441
 1269 04ab 0C       		.byte	0xc
 1270 04ac 07       		.uleb128 0x7
 1271 04ad 723800   		.ascii	"r8\000"
 1272 04b0 0B       		.byte	0xb
 1273 04b1 1401     		.2byte	0x114
 1274 04b3 41040000 		.4byte	0x441
 1275 04b7 10       		.byte	0x10
 1276 04b8 07       		.uleb128 0x7
 1277 04b9 723900   		.ascii	"r9\000"
 1278 04bc 0B       		.byte	0xb
 1279 04bd 1501     		.2byte	0x115
 1280 04bf 41040000 		.4byte	0x441
 1281 04c3 14       		.byte	0x14
 1282 04c4 07       		.uleb128 0x7
 1283 04c5 72313000 		.ascii	"r10\000"
 1284 04c9 0B       		.byte	0xb
 1285 04ca 1601     		.2byte	0x116
 1286 04cc 41040000 		.4byte	0x441
 1287 04d0 18       		.byte	0x18
 1288 04d1 07       		.uleb128 0x7
 1289 04d2 72313100 		.ascii	"r11\000"
 1290 04d6 0B       		.byte	0xb
 1291 04d7 1701     		.2byte	0x117
 1292 04d9 41040000 		.4byte	0x441
 1293 04dd 1C       		.byte	0x1c
 1294 04de 07       		.uleb128 0x7
 1295 04df 6C7200   		.ascii	"lr\000"
 1296 04e2 0B       		.byte	0xb
 1297 04e3 1801     		.2byte	0x118
 1298 04e5 41040000 		.4byte	0x441
 1299 04e9 20       		.byte	0x20
 1300 04ea 00       		.byte	0
 1301 04eb 09       		.uleb128 0x9
 1302 04ec 04       		.byte	0x4
 1303 04ed 70040000 		.4byte	0x470
 1304 04f1 10       		.uleb128 0x10
 1305 04f2 04       		.byte	0x4
 1306 04f3 0C       		.byte	0xc
 1307 04f4 38       		.byte	0x38
 1308 04f5 06050000 		.4byte	0x506
 1309 04f9 06       		.uleb128 0x6
 1310 04fa 99050000 		.4byte	.LASF83
 1311 04fe 0C       		.byte	0xc
 1312 04ff 3C       		.byte	0x3c
ARM GAS  /tmp/ccs6sxAx.s 			page 50


 1313 0500 C3000000 		.4byte	0xc3
 1314 0504 00       		.byte	0
 1315 0505 00       		.byte	0
 1316 0506 04       		.uleb128 0x4
 1317 0507 49030000 		.4byte	.LASF84
 1318 050b 0C       		.byte	0xc
 1319 050c 3D       		.byte	0x3d
 1320 050d F1040000 		.4byte	0x4f1
 1321 0511 11       		.uleb128 0x11
 1322 0512 04       		.byte	0x4
 1323 0513 09       		.byte	0x9
 1324 0514 FA       		.byte	0xfa
 1325 0515 7A050000 		.4byte	0x57a
 1326 0519 12       		.uleb128 0x12
 1327 051a 1F000000 		.4byte	.LASF85
 1328 051e 09       		.byte	0x9
 1329 051f 0101     		.2byte	0x101
 1330 0521 FA000000 		.4byte	0xfa
 1331 0525 12       		.uleb128 0x12
 1332 0526 8E000000 		.4byte	.LASF86
 1333 052a 09       		.byte	0x9
 1334 052b 0801     		.2byte	0x108
 1335 052d FA000000 		.4byte	0xfa
 1336 0531 12       		.uleb128 0x12
 1337 0532 66020000 		.4byte	.LASF87
 1338 0536 09       		.byte	0x9
 1339 0537 0F01     		.2byte	0x10f
 1340 0539 04030000 		.4byte	0x304
 1341 053d 12       		.uleb128 0x12
 1342 053e 19000000 		.4byte	.LASF88
 1343 0542 09       		.byte	0x9
 1344 0543 1601     		.2byte	0x116
 1345 0545 7A050000 		.4byte	0x57a
 1346 0549 12       		.uleb128 0x12
 1347 054a A0000000 		.4byte	.LASF89
 1348 054e 09       		.byte	0x9
 1349 054f 1B01     		.2byte	0x11b
 1350 0551 FA000000 		.4byte	0xfa
 1351 0555 12       		.uleb128 0x12
 1352 0556 CE010000 		.4byte	.LASF90
 1353 055a 09       		.byte	0x9
 1354 055b 2401     		.2byte	0x124
 1355 055d A5050000 		.4byte	0x5a5
 1356 0561 12       		.uleb128 0x12
 1357 0562 A6040000 		.4byte	.LASF91
 1358 0566 09       		.byte	0x9
 1359 0567 2D01     		.2byte	0x12d
 1360 0569 DC050000 		.4byte	0x5dc
 1361 056d 12       		.uleb128 0x12
 1362 056e 24040000 		.4byte	.LASF92
 1363 0572 09       		.byte	0x9
 1364 0573 3501     		.2byte	0x135
 1365 0575 05010000 		.4byte	0x105
 1366 0579 00       		.byte	0
 1367 057a 09       		.uleb128 0x9
 1368 057b 04       		.byte	0x4
 1369 057c 1C020000 		.4byte	0x21c
ARM GAS  /tmp/ccs6sxAx.s 			page 51


 1370 0580 05       		.uleb128 0x5
 1371 0581 85040000 		.4byte	.LASF93
 1372 0585 0C       		.byte	0xc
 1373 0586 0D       		.byte	0xd
 1374 0587 34       		.byte	0x34
 1375 0588 A5050000 		.4byte	0x5a5
 1376 058c 06       		.uleb128 0x6
 1377 058d 66010000 		.4byte	.LASF94
 1378 0591 0D       		.byte	0xd
 1379 0592 35       		.byte	0x35
 1380 0593 51020000 		.4byte	0x251
 1381 0597 00       		.byte	0
 1382 0598 06       		.uleb128 0x6
 1383 0599 E9010000 		.4byte	.LASF95
 1384 059d 0D       		.byte	0xd
 1385 059e 37       		.byte	0x37
 1386 059f 1B010000 		.4byte	0x11b
 1387 05a3 08       		.byte	0x8
 1388 05a4 00       		.byte	0
 1389 05a5 09       		.uleb128 0x9
 1390 05a6 04       		.byte	0x4
 1391 05a7 80050000 		.4byte	0x580
 1392 05ab 05       		.uleb128 0x5
 1393 05ac EF050000 		.4byte	.LASF96
 1394 05b0 10       		.byte	0x10
 1395 05b1 0E       		.byte	0xe
 1396 05b2 39       		.byte	0x39
 1397 05b3 DC050000 		.4byte	0x5dc
 1398 05b7 06       		.uleb128 0x6
 1399 05b8 0B010000 		.4byte	.LASF97
 1400 05bc 0E       		.byte	0xe
 1401 05bd 3A       		.byte	0x3a
 1402 05be 51020000 		.4byte	0x251
 1403 05c2 00       		.byte	0
 1404 05c3 06       		.uleb128 0x6
 1405 05c4 3C070000 		.4byte	.LASF98
 1406 05c8 0E       		.byte	0xe
 1407 05c9 3C       		.byte	0x3c
 1408 05ca 27020000 		.4byte	0x227
 1409 05ce 08       		.byte	0x8
 1410 05cf 06       		.uleb128 0x6
 1411 05d0 51050000 		.4byte	.LASF99
 1412 05d4 0E       		.byte	0xe
 1413 05d5 3E       		.byte	0x3e
 1414 05d6 1A060000 		.4byte	0x61a
 1415 05da 0C       		.byte	0xc
 1416 05db 00       		.byte	0
 1417 05dc 09       		.uleb128 0x9
 1418 05dd 04       		.byte	0x4
 1419 05de AB050000 		.4byte	0x5ab
 1420 05e2 09       		.uleb128 0x9
 1421 05e3 04       		.byte	0x4
 1422 05e4 E8050000 		.4byte	0x5e8
 1423 05e8 13       		.uleb128 0x13
 1424 05e9 ED050000 		.4byte	0x5ed
 1425 05ed 03       		.uleb128 0x3
 1426 05ee 01       		.byte	0x1
ARM GAS  /tmp/ccs6sxAx.s 			page 52


 1427 05ef 08       		.byte	0x8
 1428 05f0 28050000 		.4byte	.LASF100
 1429 05f4 09       		.uleb128 0x9
 1430 05f5 04       		.byte	0x4
 1431 05f6 06030000 		.4byte	0x306
 1432 05fa 14       		.uleb128 0x14
 1433 05fb E2050000 		.4byte	0x5e2
 1434 05ff 15       		.uleb128 0x15
 1435 0600 4C040000 		.4byte	0x44c
 1436 0604 0F060000 		.4byte	0x60f
 1437 0608 16       		.uleb128 0x16
 1438 0609 3A040000 		.4byte	0x43a
 1439 060d 1A       		.byte	0x1a
 1440 060e 00       		.byte	0
 1441 060f 04       		.uleb128 0x4
 1442 0610 87010000 		.4byte	.LASF101
 1443 0614 0E       		.byte	0xe
 1444 0615 34       		.byte	0x34
 1445 0616 AB050000 		.4byte	0x5ab
 1446 061a 09       		.uleb128 0x9
 1447 061b 04       		.byte	0x4
 1448 061c 0F060000 		.4byte	0x60f
 1449 0620 04       		.uleb128 0x4
 1450 0621 CA020000 		.4byte	.LASF102
 1451 0625 03       		.byte	0x3
 1452 0626 34       		.byte	0x34
 1453 0627 2B060000 		.4byte	0x62b
 1454 062b 05       		.uleb128 0x5
 1455 062c 52070000 		.4byte	.LASF103
 1456 0630 14       		.byte	0x14
 1457 0631 03       		.byte	0x3
 1458 0632 39       		.byte	0x39
 1459 0633 74060000 		.4byte	0x674
 1460 0637 06       		.uleb128 0x6
 1461 0638 44020000 		.4byte	.LASF104
 1462 063c 03       		.byte	0x3
 1463 063d 3A       		.byte	0x3a
 1464 063e 74060000 		.4byte	0x674
 1465 0642 00       		.byte	0
 1466 0643 06       		.uleb128 0x6
 1467 0644 EC030000 		.4byte	.LASF105
 1468 0648 03       		.byte	0x3
 1469 0649 3D       		.byte	0x3d
 1470 064a 27020000 		.4byte	0x227
 1471 064e 04       		.byte	0x4
 1472 064f 06       		.uleb128 0x6
 1473 0650 71030000 		.4byte	.LASF106
 1474 0654 03       		.byte	0x3
 1475 0655 3F       		.byte	0x3f
 1476 0656 05010000 		.4byte	0x105
 1477 065a 08       		.byte	0x8
 1478 065b 06       		.uleb128 0x6
 1479 065c F8030000 		.4byte	.LASF107
 1480 0660 03       		.byte	0x3
 1481 0661 41       		.byte	0x41
 1482 0662 10010000 		.4byte	0x110
 1483 0666 0C       		.byte	0xc
ARM GAS  /tmp/ccs6sxAx.s 			page 53


 1484 0667 06       		.uleb128 0x6
 1485 0668 1C020000 		.4byte	.LASF108
 1486 066c 03       		.byte	0x3
 1487 066d 43       		.byte	0x43
 1488 066e 10010000 		.4byte	0x110
 1489 0672 10       		.byte	0x10
 1490 0673 00       		.byte	0
 1491 0674 09       		.uleb128 0x9
 1492 0675 04       		.byte	0x4
 1493 0676 20060000 		.4byte	0x620
 1494 067a 05       		.uleb128 0x5
 1495 067b 06060000 		.4byte	.LASF109
 1496 067f 04       		.byte	0x4
 1497 0680 03       		.byte	0x3
 1498 0681 4A       		.byte	0x4a
 1499 0682 93060000 		.4byte	0x693
 1500 0686 06       		.uleb128 0x6
 1501 0687 F8050000 		.4byte	.LASF110
 1502 068b 03       		.byte	0x3
 1503 068c 4B       		.byte	0x4b
 1504 068d 74060000 		.4byte	0x674
 1505 0691 00       		.byte	0
 1506 0692 00       		.byte	0
 1507 0693 04       		.uleb128 0x4
 1508 0694 95010000 		.4byte	.LASF111
 1509 0698 03       		.byte	0x3
 1510 0699 4E       		.byte	0x4e
 1511 069a 7A060000 		.4byte	0x67a
 1512 069e 10       		.uleb128 0x10
 1513 069f 1C       		.byte	0x1c
 1514 06a0 0F       		.byte	0xf
 1515 06a1 36       		.byte	0x36
 1516 06a2 CB060000 		.4byte	0x6cb
 1517 06a6 06       		.uleb128 0x6
 1518 06a7 B5040000 		.4byte	.LASF112
 1519 06ab 0F       		.byte	0xf
 1520 06ac 37       		.byte	0x37
 1521 06ad 06030000 		.4byte	0x306
 1522 06b1 00       		.byte	0
 1523 06b2 06       		.uleb128 0x6
 1524 06b3 E5020000 		.4byte	.LASF113
 1525 06b7 0F       		.byte	0xf
 1526 06b8 38       		.byte	0x38
 1527 06b9 93060000 		.4byte	0x693
 1528 06bd 14       		.byte	0x14
 1529 06be 06       		.uleb128 0x6
 1530 06bf 00000000 		.4byte	.LASF114
 1531 06c3 0F       		.byte	0xf
 1532 06c4 39       		.byte	0x39
 1533 06c5 26010000 		.4byte	0x126
 1534 06c9 18       		.byte	0x18
 1535 06ca 00       		.byte	0
 1536 06cb 04       		.uleb128 0x4
 1537 06cc 2E070000 		.4byte	.LASF115
 1538 06d0 0F       		.byte	0xf
 1539 06d1 3A       		.byte	0x3a
 1540 06d2 9E060000 		.4byte	0x69e
ARM GAS  /tmp/ccs6sxAx.s 			page 54


 1541 06d6 17       		.uleb128 0x17
 1542 06d7 81050000 		.4byte	.LASF120
 1543 06db 02       		.byte	0x2
 1544 06dc 2202     		.2byte	0x222
 1545 06de 03       		.byte	0x3
 1546 06df F0060000 		.4byte	0x6f0
 1547 06e3 18       		.uleb128 0x18
 1548 06e4 8F010000 		.4byte	.LASF122
 1549 06e8 02       		.byte	0x2
 1550 06e9 2202     		.2byte	0x222
 1551 06eb AD000000 		.4byte	0xad
 1552 06ef 00       		.byte	0
 1553 06f0 19       		.uleb128 0x19
 1554 06f1 60000000 		.4byte	.LASF116
 1555 06f5 0B       		.byte	0xb
 1556 06f6 C801     		.2byte	0x1c8
 1557 06f8 03       		.byte	0x3
 1558 06f9 19       		.uleb128 0x19
 1559 06fa 1A010000 		.4byte	.LASF117
 1560 06fe 0B       		.byte	0xb
 1561 06ff E001     		.2byte	0x1e0
 1562 0701 03       		.byte	0x3
 1563 0702 19       		.uleb128 0x19
 1564 0703 BE050000 		.4byte	.LASF118
 1565 0707 0B       		.byte	0xb
 1566 0708 EF01     		.2byte	0x1ef
 1567 070a 03       		.byte	0x3
 1568 070b 19       		.uleb128 0x19
 1569 070c 33050000 		.4byte	.LASF119
 1570 0710 0B       		.byte	0xb
 1571 0711 FA01     		.2byte	0x1fa
 1572 0713 03       		.byte	0x3
 1573 0714 1A       		.uleb128 0x1a
 1574 0715 90020000 		.4byte	.LASF121
 1575 0719 04       		.byte	0x4
 1576 071a D2       		.byte	0xd2
 1577 071b 03       		.byte	0x3
 1578 071c 2C070000 		.4byte	0x72c
 1579 0720 1B       		.uleb128 0x1b
 1580 0721 76747000 		.ascii	"vtp\000"
 1581 0725 04       		.byte	0x4
 1582 0726 D2       		.byte	0xd2
 1583 0727 F4050000 		.4byte	0x5f4
 1584 072b 00       		.byte	0
 1585 072c 1C       		.uleb128 0x1c
 1586 072d 4C040000 		.4byte	.LASF144
 1587 0731 04       		.byte	0x4
 1588 0732 7501     		.2byte	0x175
 1589 0734 4A070000 		.4byte	0x74a
 1590 0738 03       		.byte	0x3
 1591 0739 4A070000 		.4byte	0x74a
 1592 073d 1D       		.uleb128 0x1d
 1593 073e 76747000 		.ascii	"vtp\000"
 1594 0742 04       		.byte	0x4
 1595 0743 7501     		.2byte	0x175
 1596 0745 F4050000 		.4byte	0x5f4
 1597 0749 00       		.byte	0
ARM GAS  /tmp/ccs6sxAx.s 			page 55


 1598 074a 03       		.uleb128 0x3
 1599 074b 01       		.byte	0x1
 1600 074c 02       		.byte	0x2
 1601 074d D0030000 		.4byte	.LASF123
 1602 0751 19       		.uleb128 0x19
 1603 0752 FB060000 		.4byte	.LASF124
 1604 0756 10       		.byte	0x10
 1605 0757 8201     		.2byte	0x182
 1606 0759 03       		.byte	0x3
 1607 075a 1A       		.uleb128 0x1a
 1608 075b 59040000 		.4byte	.LASF125
 1609 075f 03       		.byte	0x3
 1610 0760 FE       		.byte	0xfe
 1611 0761 03       		.byte	0x3
 1612 0762 72070000 		.4byte	0x772
 1613 0766 1B       		.uleb128 0x1b
 1614 0767 65737000 		.ascii	"esp\000"
 1615 076b 03       		.byte	0x3
 1616 076c FE       		.byte	0xfe
 1617 076d 72070000 		.4byte	0x772
 1618 0771 00       		.byte	0
 1619 0772 09       		.uleb128 0x9
 1620 0773 04       		.byte	0x4
 1621 0774 93060000 		.4byte	0x693
 1622 0778 19       		.uleb128 0x19
 1623 0779 AD030000 		.4byte	.LASF126
 1624 077d 10       		.byte	0x10
 1625 077e 9601     		.2byte	0x196
 1626 0780 03       		.byte	0x3
 1627 0781 17       		.uleb128 0x17
 1628 0782 7A040000 		.4byte	.LASF127
 1629 0786 04       		.byte	0x4
 1630 0787 9A01     		.2byte	0x19a
 1631 0789 03       		.byte	0x3
 1632 078a 9B070000 		.4byte	0x79b
 1633 078e 1D       		.uleb128 0x1d
 1634 078f 76747000 		.ascii	"vtp\000"
 1635 0793 04       		.byte	0x4
 1636 0794 9A01     		.2byte	0x19a
 1637 0796 F4050000 		.4byte	0x5f4
 1638 079a 00       		.byte	0
 1639 079b 19       		.uleb128 0x19
 1640 079c 42040000 		.4byte	.LASF128
 1641 07a0 10       		.byte	0x10
 1642 07a1 5A01     		.2byte	0x15a
 1643 07a3 03       		.byte	0x3
 1644 07a4 17       		.uleb128 0x17
 1645 07a5 22070000 		.4byte	.LASF129
 1646 07a9 10       		.byte	0x10
 1647 07aa 6601     		.2byte	0x166
 1648 07ac 03       		.byte	0x3
 1649 07ad BF070000 		.4byte	0x7bf
 1650 07b1 1E       		.uleb128 0x1e
 1651 07b2 A0050000 		.4byte	.LASF145
 1652 07b6 CF070000 		.4byte	0x7cf
 1653 07ba 22070000 		.4byte	.LASF129
 1654 07be 00       		.byte	0
ARM GAS  /tmp/ccs6sxAx.s 			page 56


 1655 07bf 15       		.uleb128 0x15
 1656 07c0 ED050000 		.4byte	0x5ed
 1657 07c4 CF070000 		.4byte	0x7cf
 1658 07c8 16       		.uleb128 0x16
 1659 07c9 3A040000 		.4byte	0x43a
 1660 07cd 0B       		.byte	0xb
 1661 07ce 00       		.byte	0
 1662 07cf 13       		.uleb128 0x13
 1663 07d0 BF070000 		.4byte	0x7bf
 1664 07d4 1A       		.uleb128 0x1a
 1665 07d5 EF010000 		.4byte	.LASF130
 1666 07d9 03       		.byte	0x3
 1667 07da AA       		.byte	0xaa
 1668 07db 03       		.byte	0x3
 1669 07dc EC070000 		.4byte	0x7ec
 1670 07e0 1B       		.uleb128 0x1b
 1671 07e1 65737000 		.ascii	"esp\000"
 1672 07e5 03       		.byte	0x3
 1673 07e6 AA       		.byte	0xaa
 1674 07e7 72070000 		.4byte	0x772
 1675 07eb 00       		.byte	0
 1676 07ec 17       		.uleb128 0x17
 1677 07ed 41030000 		.4byte	.LASF131
 1678 07f1 04       		.byte	0x4
 1679 07f2 E501     		.2byte	0x1e5
 1680 07f4 03       		.byte	0x3
 1681 07f5 2A080000 		.4byte	0x82a
 1682 07f9 1D       		.uleb128 0x1d
 1683 07fa 76747000 		.ascii	"vtp\000"
 1684 07fe 04       		.byte	0x4
 1685 07ff E501     		.2byte	0x1e5
 1686 0801 F4050000 		.4byte	0x5f4
 1687 0805 18       		.uleb128 0x18
 1688 0806 CB000000 		.4byte	.LASF132
 1689 080a 04       		.byte	0x4
 1690 080b E501     		.2byte	0x1e5
 1691 080d 26010000 		.4byte	0x126
 1692 0811 18       		.uleb128 0x18
 1693 0812 D8050000 		.4byte	.LASF133
 1694 0816 04       		.byte	0x4
 1695 0817 E601     		.2byte	0x1e6
 1696 0819 E8020000 		.4byte	0x2e8
 1697 081d 1D       		.uleb128 0x1d
 1698 081e 70617200 		.ascii	"par\000"
 1699 0822 04       		.byte	0x4
 1700 0823 E601     		.2byte	0x1e6
 1701 0825 04030000 		.4byte	0x304
 1702 0829 00       		.byte	0
 1703 082a 17       		.uleb128 0x17
 1704 082b 2A030000 		.4byte	.LASF134
 1705 082f 04       		.byte	0x4
 1706 0830 C801     		.2byte	0x1c8
 1707 0832 03       		.byte	0x3
 1708 0833 68080000 		.4byte	0x868
 1709 0837 1D       		.uleb128 0x1d
 1710 0838 76747000 		.ascii	"vtp\000"
 1711 083c 04       		.byte	0x4
ARM GAS  /tmp/ccs6sxAx.s 			page 57


 1712 083d C801     		.2byte	0x1c8
 1713 083f F4050000 		.4byte	0x5f4
 1714 0843 18       		.uleb128 0x18
 1715 0844 CB000000 		.4byte	.LASF132
 1716 0848 04       		.byte	0x4
 1717 0849 C801     		.2byte	0x1c8
 1718 084b 26010000 		.4byte	0x126
 1719 084f 18       		.uleb128 0x18
 1720 0850 D8050000 		.4byte	.LASF133
 1721 0854 04       		.byte	0x4
 1722 0855 C901     		.2byte	0x1c9
 1723 0857 E8020000 		.4byte	0x2e8
 1724 085b 1D       		.uleb128 0x1d
 1725 085c 70617200 		.ascii	"par\000"
 1726 0860 04       		.byte	0x4
 1727 0861 C901     		.2byte	0x1c9
 1728 0863 04030000 		.4byte	0x304
 1729 0867 00       		.byte	0
 1730 0868 1F       		.uleb128 0x1f
 1731 0869 2D050000 		.4byte	.LASF146
 1732 086d 01       		.byte	0x1
 1733 086e 30       		.byte	0x30
 1734 086f 00000000 		.4byte	.LFB242
 1735 0873 2C000000 		.4byte	.LFE242-.LFB242
 1736 0877 01       		.uleb128 0x1
 1737 0878 9C       		.byte	0x9c
 1738 0879 85090000 		.4byte	0x985
 1739 087d 20       		.uleb128 0x20
 1740 087e 7000     		.ascii	"p\000"
 1741 0880 01       		.byte	0x1
 1742 0881 30       		.byte	0x30
 1743 0882 04030000 		.4byte	0x304
 1744 0886 00000000 		.4byte	.LLST0
 1745 088a 21       		.uleb128 0x21
 1746 088b 65747000 		.ascii	"etp\000"
 1747 088f 01       		.byte	0x1
 1748 0890 31       		.byte	0x31
 1749 0891 85090000 		.4byte	0x985
 1750 0895 2C000000 		.4byte	.LLST1
 1751 0899 22       		.uleb128 0x22
 1752 089a 51070000 		.4byte	0x751
 1753 089e 02000000 		.4byte	.LBB77
 1754 08a2 00000000 		.4byte	.Ldebug_ranges0+0
 1755 08a6 01       		.byte	0x1
 1756 08a7 33       		.byte	0x33
 1757 08a8 E6080000 		.4byte	0x8e6
 1758 08ac 23       		.uleb128 0x23
 1759 08ad 02070000 		.4byte	0x702
 1760 08b1 02000000 		.4byte	.LBB78
 1761 08b5 00000000 		.4byte	.Ldebug_ranges0+0
 1762 08b9 10       		.byte	0x10
 1763 08ba 8401     		.2byte	0x184
 1764 08bc 23       		.uleb128 0x23
 1765 08bd F0060000 		.4byte	0x6f0
 1766 08c1 02000000 		.4byte	.LBB79
 1767 08c5 00000000 		.4byte	.Ldebug_ranges0+0
 1768 08c9 0B       		.byte	0xb
ARM GAS  /tmp/ccs6sxAx.s 			page 58


 1769 08ca F101     		.2byte	0x1f1
 1770 08cc 23       		.uleb128 0x23
 1771 08cd D6060000 		.4byte	0x6d6
 1772 08d1 02000000 		.4byte	.LBB80
 1773 08d5 00000000 		.4byte	.Ldebug_ranges0+0
 1774 08d9 0B       		.byte	0xb
 1775 08da D001     		.2byte	0x1d0
 1776 08dc 24       		.uleb128 0x24
 1777 08dd E3060000 		.4byte	0x6e3
 1778 08e1 20       		.byte	0x20
 1779 08e2 00       		.byte	0
 1780 08e3 00       		.byte	0
 1781 08e4 00       		.byte	0
 1782 08e5 00       		.byte	0
 1783 08e6 25       		.uleb128 0x25
 1784 08e7 5A070000 		.4byte	0x75a
 1785 08eb 0A000000 		.4byte	.LBB87
 1786 08ef 08000000 		.4byte	.LBE87-.LBB87
 1787 08f3 01       		.byte	0x1
 1788 08f4 34       		.byte	0x34
 1789 08f5 18090000 		.4byte	0x918
 1790 08f9 26       		.uleb128 0x26
 1791 08fa 66070000 		.4byte	0x766
 1792 08fe 58000000 		.4byte	.LLST2
 1793 0902 27       		.uleb128 0x27
 1794 0903 12000000 		.4byte	.LVL4
 1795 0907 7B0B0000 		.4byte	0xb7b
 1796 090b 28       		.uleb128 0x28
 1797 090c 01       		.uleb128 0x1
 1798 090d 51       		.byte	0x51
 1799 090e 01       		.uleb128 0x1
 1800 090f 30       		.byte	0x30
 1801 0910 28       		.uleb128 0x28
 1802 0911 01       		.uleb128 0x1
 1803 0912 50       		.byte	0x50
 1804 0913 02       		.uleb128 0x2
 1805 0914 74       		.byte	0x74
 1806 0915 14       		.sleb128 20
 1807 0916 00       		.byte	0
 1808 0917 00       		.byte	0
 1809 0918 25       		.uleb128 0x25
 1810 0919 78070000 		.4byte	0x778
 1811 091d 1E000000 		.4byte	.LBB89
 1812 0921 0E000000 		.4byte	.LBE89-.LBB89
 1813 0925 01       		.byte	0x1
 1814 0926 36       		.byte	0x36
 1815 0927 65090000 		.4byte	0x965
 1816 092b 29       		.uleb128 0x29
 1817 092c 0B070000 		.4byte	0x70b
 1818 0930 1E000000 		.4byte	.LBB90
 1819 0934 0E000000 		.4byte	.LBE90-.LBB90
 1820 0938 10       		.byte	0x10
 1821 0939 9A01     		.2byte	0x19a
 1822 093b 29       		.uleb128 0x29
 1823 093c F9060000 		.4byte	0x6f9
 1824 0940 1E000000 		.4byte	.LBB91
 1825 0944 0E000000 		.4byte	.LBE91-.LBB91
ARM GAS  /tmp/ccs6sxAx.s 			page 59


 1826 0948 0B       		.byte	0xb
 1827 0949 FC01     		.2byte	0x1fc
 1828 094b 29       		.uleb128 0x29
 1829 094c D6060000 		.4byte	0x6d6
 1830 0950 1E000000 		.4byte	.LBB92
 1831 0954 0E000000 		.4byte	.LBE92-.LBB92
 1832 0958 0B       		.byte	0xb
 1833 0959 E301     		.2byte	0x1e3
 1834 095b 24       		.uleb128 0x24
 1835 095c E3060000 		.4byte	0x6e3
 1836 0960 00       		.byte	0
 1837 0961 00       		.byte	0
 1838 0962 00       		.byte	0
 1839 0963 00       		.byte	0
 1840 0964 00       		.byte	0
 1841 0965 27       		.uleb128 0x27
 1842 0966 1E000000 		.4byte	.LVL5
 1843 096a 910B0000 		.4byte	0xb91
 1844 096e 28       		.uleb128 0x28
 1845 096f 01       		.uleb128 0x1
 1846 0970 53       		.byte	0x53
 1847 0971 02       		.uleb128 0x2
 1848 0972 74       		.byte	0x74
 1849 0973 00       		.sleb128 0
 1850 0974 28       		.uleb128 0x28
 1851 0975 01       		.uleb128 0x1
 1852 0976 52       		.byte	0x52
 1853 0977 05       		.uleb128 0x5
 1854 0978 03       		.byte	0x3
 1855 0979 00000000 		.4byte	tmrcb
 1856 097d 28       		.uleb128 0x28
 1857 097e 01       		.uleb128 0x1
 1858 097f 50       		.byte	0x50
 1859 0980 02       		.uleb128 0x2
 1860 0981 74       		.byte	0x74
 1861 0982 00       		.sleb128 0
 1862 0983 00       		.byte	0
 1863 0984 00       		.byte	0
 1864 0985 09       		.uleb128 0x9
 1865 0986 04       		.byte	0x4
 1866 0987 CB060000 		.4byte	0x6cb
 1867 098b 2A       		.uleb128 0x2a
 1868 098c 58020000 		.4byte	.LASF136
 1869 0990 01       		.byte	0x1
 1870 0991 43       		.byte	0x43
 1871 0992 00000000 		.4byte	.LFB243
 1872 0996 0E000000 		.4byte	.LFE243-.LFB243
 1873 099a 01       		.uleb128 0x1
 1874 099b 9C       		.byte	0x9c
 1875 099c EF090000 		.4byte	0x9ef
 1876 09a0 2B       		.uleb128 0x2b
 1877 09a1 65747000 		.ascii	"etp\000"
 1878 09a5 01       		.byte	0x1
 1879 09a6 43       		.byte	0x43
 1880 09a7 85090000 		.4byte	0x985
 1881 09ab 01       		.uleb128 0x1
 1882 09ac 50       		.byte	0x50
ARM GAS  /tmp/ccs6sxAx.s 			page 60


 1883 09ad 2C       		.uleb128 0x2c
 1884 09ae 5A030000 		.4byte	.LASF135
 1885 09b2 01       		.byte	0x1
 1886 09b3 43       		.byte	0x43
 1887 09b4 26010000 		.4byte	0x126
 1888 09b8 01       		.uleb128 0x1
 1889 09b9 51       		.byte	0x51
 1890 09ba 22       		.uleb128 0x22
 1891 09bb 14070000 		.4byte	0x714
 1892 09bf 04000000 		.4byte	.LBB94
 1893 09c3 18000000 		.4byte	.Ldebug_ranges0+0x18
 1894 09c7 01       		.byte	0x1
 1895 09c8 46       		.byte	0x46
 1896 09c9 D5090000 		.4byte	0x9d5
 1897 09cd 2D       		.uleb128 0x2d
 1898 09ce 20070000 		.4byte	0x720
 1899 09d2 01       		.uleb128 0x1
 1900 09d3 50       		.byte	0x50
 1901 09d4 00       		.byte	0
 1902 09d5 2E       		.uleb128 0x2e
 1903 09d6 D4070000 		.4byte	0x7d4
 1904 09da 08000000 		.4byte	.LBB97
 1905 09de 02000000 		.4byte	.LBE97-.LBB97
 1906 09e2 01       		.byte	0x1
 1907 09e3 45       		.byte	0x45
 1908 09e4 26       		.uleb128 0x26
 1909 09e5 E0070000 		.4byte	0x7e0
 1910 09e9 95000000 		.4byte	.LLST3
 1911 09ed 00       		.byte	0
 1912 09ee 00       		.byte	0
 1913 09ef 2A       		.uleb128 0x2a
 1914 09f0 97000000 		.4byte	.LASF137
 1915 09f4 01       		.byte	0x1
 1916 09f5 50       		.byte	0x50
 1917 09f6 00000000 		.4byte	.LFB244
 1918 09fa 2C000000 		.4byte	.LFE244-.LFB244
 1919 09fe 01       		.uleb128 0x1
 1920 09ff 9C       		.byte	0x9c
 1921 0a00 5F0B0000 		.4byte	0xb5f
 1922 0a04 20       		.uleb128 0x20
 1923 0a05 65747000 		.ascii	"etp\000"
 1924 0a09 01       		.byte	0x1
 1925 0a0a 50       		.byte	0x50
 1926 0a0b 85090000 		.4byte	0x985
 1927 0a0f B5000000 		.4byte	.LLST4
 1928 0a13 2F       		.uleb128 0x2f
 1929 0a14 EC070000 		.4byte	0x7ec
 1930 0a18 04000000 		.4byte	.LBB115
 1931 0a1c 30000000 		.4byte	.Ldebug_ranges0+0x30
 1932 0a20 01       		.byte	0x1
 1933 0a21 52       		.byte	0x52
 1934 0a22 26       		.uleb128 0x26
 1935 0a23 1D080000 		.4byte	0x81d
 1936 0a27 E1000000 		.4byte	.LLST5
 1937 0a2b 2D       		.uleb128 0x2d
 1938 0a2c 11080000 		.4byte	0x811
 1939 0a30 06       		.uleb128 0x6
ARM GAS  /tmp/ccs6sxAx.s 			page 61


 1940 0a31 03       		.byte	0x3
 1941 0a32 00000000 		.4byte	tmrcb
 1942 0a36 9F       		.byte	0x9f
 1943 0a37 26       		.uleb128 0x26
 1944 0a38 05080000 		.4byte	0x805
 1945 0a3c 0D010000 		.4byte	.LLST6
 1946 0a40 26       		.uleb128 0x26
 1947 0a41 F9070000 		.4byte	0x7f9
 1948 0a45 E1000000 		.4byte	.LLST5
 1949 0a49 30       		.uleb128 0x30
 1950 0a4a 9B070000 		.4byte	0x79b
 1951 0a4e 04000000 		.4byte	.LBB116
 1952 0a52 48000000 		.4byte	.Ldebug_ranges0+0x48
 1953 0a56 04       		.byte	0x4
 1954 0a57 E801     		.2byte	0x1e8
 1955 0a59 860A0000 		.4byte	0xa86
 1956 0a5d 23       		.uleb128 0x23
 1957 0a5e F0060000 		.4byte	0x6f0
 1958 0a62 04000000 		.4byte	.LBB117
 1959 0a66 48000000 		.4byte	.Ldebug_ranges0+0x48
 1960 0a6a 10       		.byte	0x10
 1961 0a6b 5C01     		.2byte	0x15c
 1962 0a6d 23       		.uleb128 0x23
 1963 0a6e D6060000 		.4byte	0x6d6
 1964 0a72 04000000 		.4byte	.LBB118
 1965 0a76 48000000 		.4byte	.Ldebug_ranges0+0x48
 1966 0a7a 0B       		.byte	0xb
 1967 0a7b D001     		.2byte	0x1d0
 1968 0a7d 24       		.uleb128 0x24
 1969 0a7e E3060000 		.4byte	0x6e3
 1970 0a82 20       		.byte	0x20
 1971 0a83 00       		.byte	0
 1972 0a84 00       		.byte	0
 1973 0a85 00       		.byte	0
 1974 0a86 31       		.uleb128 0x31
 1975 0a87 2A080000 		.4byte	0x82a
 1976 0a8b 0C000000 		.4byte	.LBB124
 1977 0a8f 14000000 		.4byte	.LBE124-.LBB124
 1978 0a93 04       		.byte	0x4
 1979 0a94 E901     		.2byte	0x1e9
 1980 0a96 150B0000 		.4byte	0xb15
 1981 0a9a 2D       		.uleb128 0x2d
 1982 0a9b 4F080000 		.4byte	0x84f
 1983 0a9f 06       		.uleb128 0x6
 1984 0aa0 03       		.byte	0x3
 1985 0aa1 00000000 		.4byte	tmrcb
 1986 0aa5 9F       		.byte	0x9f
 1987 0aa6 26       		.uleb128 0x26
 1988 0aa7 5B080000 		.4byte	0x85b
 1989 0aab 20010000 		.4byte	.LLST8
 1990 0aaf 26       		.uleb128 0x26
 1991 0ab0 43080000 		.4byte	0x843
 1992 0ab4 4C010000 		.4byte	.LLST9
 1993 0ab8 26       		.uleb128 0x26
 1994 0ab9 37080000 		.4byte	0x837
 1995 0abd 20010000 		.4byte	.LLST8
 1996 0ac1 31       		.uleb128 0x31
ARM GAS  /tmp/ccs6sxAx.s 			page 62


 1997 0ac2 81070000 		.4byte	0x781
 1998 0ac6 0C000000 		.4byte	.LBB126
 1999 0aca 08000000 		.4byte	.LBE126-.LBB126
 2000 0ace 04       		.byte	0x4
 2001 0acf CB01     		.2byte	0x1cb
 2002 0ad1 EF0A0000 		.4byte	0xaef
 2003 0ad5 26       		.uleb128 0x26
 2004 0ad6 8E070000 		.4byte	0x78e
 2005 0ada 20010000 		.4byte	.LLST8
 2006 0ade 27       		.uleb128 0x27
 2007 0adf 14000000 		.4byte	.LVL13
 2008 0ae3 B10B0000 		.4byte	0xbb1
 2009 0ae7 28       		.uleb128 0x28
 2010 0ae8 01       		.uleb128 0x1
 2011 0ae9 50       		.byte	0x50
 2012 0aea 02       		.uleb128 0x2
 2013 0aeb 74       		.byte	0x74
 2014 0aec 00       		.sleb128 0
 2015 0aed 00       		.byte	0
 2016 0aee 00       		.byte	0
 2017 0aef 27       		.uleb128 0x27
 2018 0af0 20000000 		.4byte	.LVL14
 2019 0af4 910B0000 		.4byte	0xb91
 2020 0af8 28       		.uleb128 0x28
 2021 0af9 01       		.uleb128 0x1
 2022 0afa 53       		.byte	0x53
 2023 0afb 02       		.uleb128 0x2
 2024 0afc 74       		.byte	0x74
 2025 0afd 00       		.sleb128 0
 2026 0afe 28       		.uleb128 0x28
 2027 0aff 01       		.uleb128 0x1
 2028 0b00 52       		.byte	0x52
 2029 0b01 05       		.uleb128 0x5
 2030 0b02 03       		.byte	0x3
 2031 0b03 00000000 		.4byte	tmrcb
 2032 0b07 28       		.uleb128 0x28
 2033 0b08 01       		.uleb128 0x1
 2034 0b09 51       		.byte	0x51
 2035 0b0a 02       		.uleb128 0x2
 2036 0b0b 75       		.byte	0x75
 2037 0b0c 00       		.sleb128 0
 2038 0b0d 28       		.uleb128 0x28
 2039 0b0e 01       		.uleb128 0x1
 2040 0b0f 50       		.byte	0x50
 2041 0b10 02       		.uleb128 0x2
 2042 0b11 74       		.byte	0x74
 2043 0b12 00       		.sleb128 0
 2044 0b13 00       		.byte	0
 2045 0b14 00       		.byte	0
 2046 0b15 29       		.uleb128 0x29
 2047 0b16 A4070000 		.4byte	0x7a4
 2048 0b1a 20000000 		.4byte	.LBB128
 2049 0b1e 0C000000 		.4byte	.LBE128-.LBB128
 2050 0b22 04       		.byte	0x4
 2051 0b23 EA01     		.2byte	0x1ea
 2052 0b25 32       		.uleb128 0x32
 2053 0b26 20000000 		.4byte	.LBB129
ARM GAS  /tmp/ccs6sxAx.s 			page 63


 2054 0b2a 0C000000 		.4byte	.LBE129-.LBB129
 2055 0b2e 33       		.uleb128 0x33
 2056 0b2f B1070000 		.4byte	0x7b1
 2057 0b33 29       		.uleb128 0x29
 2058 0b34 F9060000 		.4byte	0x6f9
 2059 0b38 20000000 		.4byte	.LBB130
 2060 0b3c 0C000000 		.4byte	.LBE130-.LBB130
 2061 0b40 10       		.byte	0x10
 2062 0b41 7301     		.2byte	0x173
 2063 0b43 29       		.uleb128 0x29
 2064 0b44 D6060000 		.4byte	0x6d6
 2065 0b48 20000000 		.4byte	.LBB131
 2066 0b4c 0C000000 		.4byte	.LBE131-.LBB131
 2067 0b50 0B       		.byte	0xb
 2068 0b51 E301     		.2byte	0x1e3
 2069 0b53 24       		.uleb128 0x24
 2070 0b54 E3060000 		.4byte	0x6e3
 2071 0b58 00       		.byte	0
 2072 0b59 00       		.byte	0
 2073 0b5a 00       		.byte	0
 2074 0b5b 00       		.byte	0
 2075 0b5c 00       		.byte	0
 2076 0b5d 00       		.byte	0
 2077 0b5e 00       		.byte	0
 2078 0b5f 34       		.uleb128 0x34
 2079 0b60 BE000000 		.4byte	.LASF138
 2080 0b64 11       		.byte	0x11
 2081 0b65 FA06     		.2byte	0x6fa
 2082 0b67 6B0B0000 		.4byte	0xb6b
 2083 0b6b 14       		.uleb128 0x14
 2084 0b6c A2000000 		.4byte	0xa2
 2085 0b70 35       		.uleb128 0x35
 2086 0b71 636800   		.ascii	"ch\000"
 2087 0b74 09       		.byte	0x9
 2088 0b75 0B02     		.2byte	0x20b
 2089 0b77 D3030000 		.4byte	0x3d3
 2090 0b7b 36       		.uleb128 0x36
 2091 0b7c 49010000 		.4byte	.LASF139
 2092 0b80 03       		.byte	0x3
 2093 0b81 87       		.byte	0x87
 2094 0b82 910B0000 		.4byte	0xb91
 2095 0b86 0C       		.uleb128 0xc
 2096 0b87 72070000 		.4byte	0x772
 2097 0b8b 0C       		.uleb128 0xc
 2098 0b8c 10010000 		.4byte	0x110
 2099 0b90 00       		.byte	0
 2100 0b91 36       		.uleb128 0x36
 2101 0b92 7B020000 		.4byte	.LASF140
 2102 0b96 04       		.byte	0x4
 2103 0b97 BC       		.byte	0xbc
 2104 0b98 B10B0000 		.4byte	0xbb1
 2105 0b9c 0C       		.uleb128 0xc
 2106 0b9d F4050000 		.4byte	0x5f4
 2107 0ba1 0C       		.uleb128 0xc
 2108 0ba2 26010000 		.4byte	0x126
 2109 0ba6 0C       		.uleb128 0xc
 2110 0ba7 E8020000 		.4byte	0x2e8
ARM GAS  /tmp/ccs6sxAx.s 			page 64


 2111 0bab 0C       		.uleb128 0xc
 2112 0bac 04030000 		.4byte	0x304
 2113 0bb0 00       		.byte	0
 2114 0bb1 37       		.uleb128 0x37
 2115 0bb2 81000000 		.4byte	.LASF147
 2116 0bb6 04       		.byte	0x4
 2117 0bb7 BE       		.byte	0xbe
 2118 0bb8 0C       		.uleb128 0xc
 2119 0bb9 F4050000 		.4byte	0x5f4
 2120 0bbd 00       		.byte	0
 2121 0bbe 00       		.byte	0
 2122              		.section	.debug_abbrev,"",%progbits
 2123              	.Ldebug_abbrev0:
 2124 0000 01       		.uleb128 0x1
 2125 0001 11       		.uleb128 0x11
 2126 0002 01       		.byte	0x1
 2127 0003 25       		.uleb128 0x25
 2128 0004 0E       		.uleb128 0xe
 2129 0005 13       		.uleb128 0x13
 2130 0006 0B       		.uleb128 0xb
 2131 0007 03       		.uleb128 0x3
 2132 0008 0E       		.uleb128 0xe
 2133 0009 1B       		.uleb128 0x1b
 2134 000a 0E       		.uleb128 0xe
 2135 000b 55       		.uleb128 0x55
 2136 000c 17       		.uleb128 0x17
 2137 000d 11       		.uleb128 0x11
 2138 000e 01       		.uleb128 0x1
 2139 000f 10       		.uleb128 0x10
 2140 0010 17       		.uleb128 0x17
 2141 0011 00       		.byte	0
 2142 0012 00       		.byte	0
 2143 0013 02       		.uleb128 0x2
 2144 0014 24       		.uleb128 0x24
 2145 0015 00       		.byte	0
 2146 0016 0B       		.uleb128 0xb
 2147 0017 0B       		.uleb128 0xb
 2148 0018 3E       		.uleb128 0x3e
 2149 0019 0B       		.uleb128 0xb
 2150 001a 03       		.uleb128 0x3
 2151 001b 08       		.uleb128 0x8
 2152 001c 00       		.byte	0
 2153 001d 00       		.byte	0
 2154 001e 03       		.uleb128 0x3
 2155 001f 24       		.uleb128 0x24
 2156 0020 00       		.byte	0
 2157 0021 0B       		.uleb128 0xb
 2158 0022 0B       		.uleb128 0xb
 2159 0023 3E       		.uleb128 0x3e
 2160 0024 0B       		.uleb128 0xb
 2161 0025 03       		.uleb128 0x3
 2162 0026 0E       		.uleb128 0xe
 2163 0027 00       		.byte	0
 2164 0028 00       		.byte	0
 2165 0029 04       		.uleb128 0x4
 2166 002a 16       		.uleb128 0x16
 2167 002b 00       		.byte	0
ARM GAS  /tmp/ccs6sxAx.s 			page 65


 2168 002c 03       		.uleb128 0x3
 2169 002d 0E       		.uleb128 0xe
 2170 002e 3A       		.uleb128 0x3a
 2171 002f 0B       		.uleb128 0xb
 2172 0030 3B       		.uleb128 0x3b
 2173 0031 0B       		.uleb128 0xb
 2174 0032 49       		.uleb128 0x49
 2175 0033 13       		.uleb128 0x13
 2176 0034 00       		.byte	0
 2177 0035 00       		.byte	0
 2178 0036 05       		.uleb128 0x5
 2179 0037 13       		.uleb128 0x13
 2180 0038 01       		.byte	0x1
 2181 0039 03       		.uleb128 0x3
 2182 003a 0E       		.uleb128 0xe
 2183 003b 0B       		.uleb128 0xb
 2184 003c 0B       		.uleb128 0xb
 2185 003d 3A       		.uleb128 0x3a
 2186 003e 0B       		.uleb128 0xb
 2187 003f 3B       		.uleb128 0x3b
 2188 0040 0B       		.uleb128 0xb
 2189 0041 01       		.uleb128 0x1
 2190 0042 13       		.uleb128 0x13
 2191 0043 00       		.byte	0
 2192 0044 00       		.byte	0
 2193 0045 06       		.uleb128 0x6
 2194 0046 0D       		.uleb128 0xd
 2195 0047 00       		.byte	0
 2196 0048 03       		.uleb128 0x3
 2197 0049 0E       		.uleb128 0xe
 2198 004a 3A       		.uleb128 0x3a
 2199 004b 0B       		.uleb128 0xb
 2200 004c 3B       		.uleb128 0x3b
 2201 004d 0B       		.uleb128 0xb
 2202 004e 49       		.uleb128 0x49
 2203 004f 13       		.uleb128 0x13
 2204 0050 38       		.uleb128 0x38
 2205 0051 0B       		.uleb128 0xb
 2206 0052 00       		.byte	0
 2207 0053 00       		.byte	0
 2208 0054 07       		.uleb128 0x7
 2209 0055 0D       		.uleb128 0xd
 2210 0056 00       		.byte	0
 2211 0057 03       		.uleb128 0x3
 2212 0058 08       		.uleb128 0x8
 2213 0059 3A       		.uleb128 0x3a
 2214 005a 0B       		.uleb128 0xb
 2215 005b 3B       		.uleb128 0x3b
 2216 005c 05       		.uleb128 0x5
 2217 005d 49       		.uleb128 0x49
 2218 005e 13       		.uleb128 0x13
 2219 005f 38       		.uleb128 0x38
 2220 0060 0B       		.uleb128 0xb
 2221 0061 00       		.byte	0
 2222 0062 00       		.byte	0
 2223 0063 08       		.uleb128 0x8
 2224 0064 0D       		.uleb128 0xd
ARM GAS  /tmp/ccs6sxAx.s 			page 66


 2225 0065 00       		.byte	0
 2226 0066 03       		.uleb128 0x3
 2227 0067 0E       		.uleb128 0xe
 2228 0068 3A       		.uleb128 0x3a
 2229 0069 0B       		.uleb128 0xb
 2230 006a 3B       		.uleb128 0x3b
 2231 006b 05       		.uleb128 0x5
 2232 006c 49       		.uleb128 0x49
 2233 006d 13       		.uleb128 0x13
 2234 006e 38       		.uleb128 0x38
 2235 006f 0B       		.uleb128 0xb
 2236 0070 00       		.byte	0
 2237 0071 00       		.byte	0
 2238 0072 09       		.uleb128 0x9
 2239 0073 0F       		.uleb128 0xf
 2240 0074 00       		.byte	0
 2241 0075 0B       		.uleb128 0xb
 2242 0076 0B       		.uleb128 0xb
 2243 0077 49       		.uleb128 0x49
 2244 0078 13       		.uleb128 0x13
 2245 0079 00       		.byte	0
 2246 007a 00       		.byte	0
 2247 007b 0A       		.uleb128 0xa
 2248 007c 13       		.uleb128 0x13
 2249 007d 01       		.byte	0x1
 2250 007e 03       		.uleb128 0x3
 2251 007f 0E       		.uleb128 0xe
 2252 0080 0B       		.uleb128 0xb
 2253 0081 0B       		.uleb128 0xb
 2254 0082 3A       		.uleb128 0x3a
 2255 0083 0B       		.uleb128 0xb
 2256 0084 3B       		.uleb128 0x3b
 2257 0085 05       		.uleb128 0x5
 2258 0086 01       		.uleb128 0x1
 2259 0087 13       		.uleb128 0x13
 2260 0088 00       		.byte	0
 2261 0089 00       		.byte	0
 2262 008a 0B       		.uleb128 0xb
 2263 008b 15       		.uleb128 0x15
 2264 008c 01       		.byte	0x1
 2265 008d 27       		.uleb128 0x27
 2266 008e 19       		.uleb128 0x19
 2267 008f 01       		.uleb128 0x1
 2268 0090 13       		.uleb128 0x13
 2269 0091 00       		.byte	0
 2270 0092 00       		.byte	0
 2271 0093 0C       		.uleb128 0xc
 2272 0094 05       		.uleb128 0x5
 2273 0095 00       		.byte	0
 2274 0096 49       		.uleb128 0x49
 2275 0097 13       		.uleb128 0x13
 2276 0098 00       		.byte	0
 2277 0099 00       		.byte	0
 2278 009a 0D       		.uleb128 0xd
 2279 009b 0F       		.uleb128 0xf
 2280 009c 00       		.byte	0
 2281 009d 0B       		.uleb128 0xb
ARM GAS  /tmp/ccs6sxAx.s 			page 67


 2282 009e 0B       		.uleb128 0xb
 2283 009f 00       		.byte	0
 2284 00a0 00       		.byte	0
 2285 00a1 0E       		.uleb128 0xe
 2286 00a2 13       		.uleb128 0x13
 2287 00a3 01       		.byte	0x1
 2288 00a4 03       		.uleb128 0x3
 2289 00a5 0E       		.uleb128 0xe
 2290 00a6 0B       		.uleb128 0xb
 2291 00a7 05       		.uleb128 0x5
 2292 00a8 3A       		.uleb128 0x3a
 2293 00a9 0B       		.uleb128 0xb
 2294 00aa 3B       		.uleb128 0x3b
 2295 00ab 05       		.uleb128 0x5
 2296 00ac 01       		.uleb128 0x1
 2297 00ad 13       		.uleb128 0x13
 2298 00ae 00       		.byte	0
 2299 00af 00       		.byte	0
 2300 00b0 0F       		.uleb128 0xf
 2301 00b1 0D       		.uleb128 0xd
 2302 00b2 00       		.byte	0
 2303 00b3 03       		.uleb128 0x3
 2304 00b4 08       		.uleb128 0x8
 2305 00b5 3A       		.uleb128 0x3a
 2306 00b6 0B       		.uleb128 0xb
 2307 00b7 3B       		.uleb128 0x3b
 2308 00b8 0B       		.uleb128 0xb
 2309 00b9 49       		.uleb128 0x49
 2310 00ba 13       		.uleb128 0x13
 2311 00bb 38       		.uleb128 0x38
 2312 00bc 0B       		.uleb128 0xb
 2313 00bd 00       		.byte	0
 2314 00be 00       		.byte	0
 2315 00bf 10       		.uleb128 0x10
 2316 00c0 13       		.uleb128 0x13
 2317 00c1 01       		.byte	0x1
 2318 00c2 0B       		.uleb128 0xb
 2319 00c3 0B       		.uleb128 0xb
 2320 00c4 3A       		.uleb128 0x3a
 2321 00c5 0B       		.uleb128 0xb
 2322 00c6 3B       		.uleb128 0x3b
 2323 00c7 0B       		.uleb128 0xb
 2324 00c8 01       		.uleb128 0x1
 2325 00c9 13       		.uleb128 0x13
 2326 00ca 00       		.byte	0
 2327 00cb 00       		.byte	0
 2328 00cc 11       		.uleb128 0x11
 2329 00cd 17       		.uleb128 0x17
 2330 00ce 01       		.byte	0x1
 2331 00cf 0B       		.uleb128 0xb
 2332 00d0 0B       		.uleb128 0xb
 2333 00d1 3A       		.uleb128 0x3a
 2334 00d2 0B       		.uleb128 0xb
 2335 00d3 3B       		.uleb128 0x3b
 2336 00d4 0B       		.uleb128 0xb
 2337 00d5 01       		.uleb128 0x1
 2338 00d6 13       		.uleb128 0x13
ARM GAS  /tmp/ccs6sxAx.s 			page 68


 2339 00d7 00       		.byte	0
 2340 00d8 00       		.byte	0
 2341 00d9 12       		.uleb128 0x12
 2342 00da 0D       		.uleb128 0xd
 2343 00db 00       		.byte	0
 2344 00dc 03       		.uleb128 0x3
 2345 00dd 0E       		.uleb128 0xe
 2346 00de 3A       		.uleb128 0x3a
 2347 00df 0B       		.uleb128 0xb
 2348 00e0 3B       		.uleb128 0x3b
 2349 00e1 05       		.uleb128 0x5
 2350 00e2 49       		.uleb128 0x49
 2351 00e3 13       		.uleb128 0x13
 2352 00e4 00       		.byte	0
 2353 00e5 00       		.byte	0
 2354 00e6 13       		.uleb128 0x13
 2355 00e7 26       		.uleb128 0x26
 2356 00e8 00       		.byte	0
 2357 00e9 49       		.uleb128 0x49
 2358 00ea 13       		.uleb128 0x13
 2359 00eb 00       		.byte	0
 2360 00ec 00       		.byte	0
 2361 00ed 14       		.uleb128 0x14
 2362 00ee 35       		.uleb128 0x35
 2363 00ef 00       		.byte	0
 2364 00f0 49       		.uleb128 0x49
 2365 00f1 13       		.uleb128 0x13
 2366 00f2 00       		.byte	0
 2367 00f3 00       		.byte	0
 2368 00f4 15       		.uleb128 0x15
 2369 00f5 01       		.uleb128 0x1
 2370 00f6 01       		.byte	0x1
 2371 00f7 49       		.uleb128 0x49
 2372 00f8 13       		.uleb128 0x13
 2373 00f9 01       		.uleb128 0x1
 2374 00fa 13       		.uleb128 0x13
 2375 00fb 00       		.byte	0
 2376 00fc 00       		.byte	0
 2377 00fd 16       		.uleb128 0x16
 2378 00fe 21       		.uleb128 0x21
 2379 00ff 00       		.byte	0
 2380 0100 49       		.uleb128 0x49
 2381 0101 13       		.uleb128 0x13
 2382 0102 2F       		.uleb128 0x2f
 2383 0103 0B       		.uleb128 0xb
 2384 0104 00       		.byte	0
 2385 0105 00       		.byte	0
 2386 0106 17       		.uleb128 0x17
 2387 0107 2E       		.uleb128 0x2e
 2388 0108 01       		.byte	0x1
 2389 0109 03       		.uleb128 0x3
 2390 010a 0E       		.uleb128 0xe
 2391 010b 3A       		.uleb128 0x3a
 2392 010c 0B       		.uleb128 0xb
 2393 010d 3B       		.uleb128 0x3b
 2394 010e 05       		.uleb128 0x5
 2395 010f 27       		.uleb128 0x27
ARM GAS  /tmp/ccs6sxAx.s 			page 69


 2396 0110 19       		.uleb128 0x19
 2397 0111 20       		.uleb128 0x20
 2398 0112 0B       		.uleb128 0xb
 2399 0113 01       		.uleb128 0x1
 2400 0114 13       		.uleb128 0x13
 2401 0115 00       		.byte	0
 2402 0116 00       		.byte	0
 2403 0117 18       		.uleb128 0x18
 2404 0118 05       		.uleb128 0x5
 2405 0119 00       		.byte	0
 2406 011a 03       		.uleb128 0x3
 2407 011b 0E       		.uleb128 0xe
 2408 011c 3A       		.uleb128 0x3a
 2409 011d 0B       		.uleb128 0xb
 2410 011e 3B       		.uleb128 0x3b
 2411 011f 05       		.uleb128 0x5
 2412 0120 49       		.uleb128 0x49
 2413 0121 13       		.uleb128 0x13
 2414 0122 00       		.byte	0
 2415 0123 00       		.byte	0
 2416 0124 19       		.uleb128 0x19
 2417 0125 2E       		.uleb128 0x2e
 2418 0126 00       		.byte	0
 2419 0127 03       		.uleb128 0x3
 2420 0128 0E       		.uleb128 0xe
 2421 0129 3A       		.uleb128 0x3a
 2422 012a 0B       		.uleb128 0xb
 2423 012b 3B       		.uleb128 0x3b
 2424 012c 05       		.uleb128 0x5
 2425 012d 27       		.uleb128 0x27
 2426 012e 19       		.uleb128 0x19
 2427 012f 20       		.uleb128 0x20
 2428 0130 0B       		.uleb128 0xb
 2429 0131 00       		.byte	0
 2430 0132 00       		.byte	0
 2431 0133 1A       		.uleb128 0x1a
 2432 0134 2E       		.uleb128 0x2e
 2433 0135 01       		.byte	0x1
 2434 0136 03       		.uleb128 0x3
 2435 0137 0E       		.uleb128 0xe
 2436 0138 3A       		.uleb128 0x3a
 2437 0139 0B       		.uleb128 0xb
 2438 013a 3B       		.uleb128 0x3b
 2439 013b 0B       		.uleb128 0xb
 2440 013c 27       		.uleb128 0x27
 2441 013d 19       		.uleb128 0x19
 2442 013e 20       		.uleb128 0x20
 2443 013f 0B       		.uleb128 0xb
 2444 0140 01       		.uleb128 0x1
 2445 0141 13       		.uleb128 0x13
 2446 0142 00       		.byte	0
 2447 0143 00       		.byte	0
 2448 0144 1B       		.uleb128 0x1b
 2449 0145 05       		.uleb128 0x5
 2450 0146 00       		.byte	0
 2451 0147 03       		.uleb128 0x3
 2452 0148 08       		.uleb128 0x8
ARM GAS  /tmp/ccs6sxAx.s 			page 70


 2453 0149 3A       		.uleb128 0x3a
 2454 014a 0B       		.uleb128 0xb
 2455 014b 3B       		.uleb128 0x3b
 2456 014c 0B       		.uleb128 0xb
 2457 014d 49       		.uleb128 0x49
 2458 014e 13       		.uleb128 0x13
 2459 014f 00       		.byte	0
 2460 0150 00       		.byte	0
 2461 0151 1C       		.uleb128 0x1c
 2462 0152 2E       		.uleb128 0x2e
 2463 0153 01       		.byte	0x1
 2464 0154 03       		.uleb128 0x3
 2465 0155 0E       		.uleb128 0xe
 2466 0156 3A       		.uleb128 0x3a
 2467 0157 0B       		.uleb128 0xb
 2468 0158 3B       		.uleb128 0x3b
 2469 0159 05       		.uleb128 0x5
 2470 015a 27       		.uleb128 0x27
 2471 015b 19       		.uleb128 0x19
 2472 015c 49       		.uleb128 0x49
 2473 015d 13       		.uleb128 0x13
 2474 015e 20       		.uleb128 0x20
 2475 015f 0B       		.uleb128 0xb
 2476 0160 01       		.uleb128 0x1
 2477 0161 13       		.uleb128 0x13
 2478 0162 00       		.byte	0
 2479 0163 00       		.byte	0
 2480 0164 1D       		.uleb128 0x1d
 2481 0165 05       		.uleb128 0x5
 2482 0166 00       		.byte	0
 2483 0167 03       		.uleb128 0x3
 2484 0168 08       		.uleb128 0x8
 2485 0169 3A       		.uleb128 0x3a
 2486 016a 0B       		.uleb128 0xb
 2487 016b 3B       		.uleb128 0x3b
 2488 016c 05       		.uleb128 0x5
 2489 016d 49       		.uleb128 0x49
 2490 016e 13       		.uleb128 0x13
 2491 016f 00       		.byte	0
 2492 0170 00       		.byte	0
 2493 0171 1E       		.uleb128 0x1e
 2494 0172 34       		.uleb128 0x34
 2495 0173 00       		.byte	0
 2496 0174 03       		.uleb128 0x3
 2497 0175 0E       		.uleb128 0xe
 2498 0176 49       		.uleb128 0x49
 2499 0177 13       		.uleb128 0x13
 2500 0178 34       		.uleb128 0x34
 2501 0179 19       		.uleb128 0x19
 2502 017a 1C       		.uleb128 0x1c
 2503 017b 0E       		.uleb128 0xe
 2504 017c 00       		.byte	0
 2505 017d 00       		.byte	0
 2506 017e 1F       		.uleb128 0x1f
 2507 017f 2E       		.uleb128 0x2e
 2508 0180 01       		.byte	0x1
 2509 0181 03       		.uleb128 0x3
ARM GAS  /tmp/ccs6sxAx.s 			page 71


 2510 0182 0E       		.uleb128 0xe
 2511 0183 3A       		.uleb128 0x3a
 2512 0184 0B       		.uleb128 0xb
 2513 0185 3B       		.uleb128 0x3b
 2514 0186 0B       		.uleb128 0xb
 2515 0187 27       		.uleb128 0x27
 2516 0188 19       		.uleb128 0x19
 2517 0189 11       		.uleb128 0x11
 2518 018a 01       		.uleb128 0x1
 2519 018b 12       		.uleb128 0x12
 2520 018c 06       		.uleb128 0x6
 2521 018d 40       		.uleb128 0x40
 2522 018e 18       		.uleb128 0x18
 2523 018f 9742     		.uleb128 0x2117
 2524 0191 19       		.uleb128 0x19
 2525 0192 01       		.uleb128 0x1
 2526 0193 13       		.uleb128 0x13
 2527 0194 00       		.byte	0
 2528 0195 00       		.byte	0
 2529 0196 20       		.uleb128 0x20
 2530 0197 05       		.uleb128 0x5
 2531 0198 00       		.byte	0
 2532 0199 03       		.uleb128 0x3
 2533 019a 08       		.uleb128 0x8
 2534 019b 3A       		.uleb128 0x3a
 2535 019c 0B       		.uleb128 0xb
 2536 019d 3B       		.uleb128 0x3b
 2537 019e 0B       		.uleb128 0xb
 2538 019f 49       		.uleb128 0x49
 2539 01a0 13       		.uleb128 0x13
 2540 01a1 02       		.uleb128 0x2
 2541 01a2 17       		.uleb128 0x17
 2542 01a3 00       		.byte	0
 2543 01a4 00       		.byte	0
 2544 01a5 21       		.uleb128 0x21
 2545 01a6 34       		.uleb128 0x34
 2546 01a7 00       		.byte	0
 2547 01a8 03       		.uleb128 0x3
 2548 01a9 08       		.uleb128 0x8
 2549 01aa 3A       		.uleb128 0x3a
 2550 01ab 0B       		.uleb128 0xb
 2551 01ac 3B       		.uleb128 0x3b
 2552 01ad 0B       		.uleb128 0xb
 2553 01ae 49       		.uleb128 0x49
 2554 01af 13       		.uleb128 0x13
 2555 01b0 02       		.uleb128 0x2
 2556 01b1 17       		.uleb128 0x17
 2557 01b2 00       		.byte	0
 2558 01b3 00       		.byte	0
 2559 01b4 22       		.uleb128 0x22
 2560 01b5 1D       		.uleb128 0x1d
 2561 01b6 01       		.byte	0x1
 2562 01b7 31       		.uleb128 0x31
 2563 01b8 13       		.uleb128 0x13
 2564 01b9 52       		.uleb128 0x52
 2565 01ba 01       		.uleb128 0x1
 2566 01bb 55       		.uleb128 0x55
ARM GAS  /tmp/ccs6sxAx.s 			page 72


 2567 01bc 17       		.uleb128 0x17
 2568 01bd 58       		.uleb128 0x58
 2569 01be 0B       		.uleb128 0xb
 2570 01bf 59       		.uleb128 0x59
 2571 01c0 0B       		.uleb128 0xb
 2572 01c1 01       		.uleb128 0x1
 2573 01c2 13       		.uleb128 0x13
 2574 01c3 00       		.byte	0
 2575 01c4 00       		.byte	0
 2576 01c5 23       		.uleb128 0x23
 2577 01c6 1D       		.uleb128 0x1d
 2578 01c7 01       		.byte	0x1
 2579 01c8 31       		.uleb128 0x31
 2580 01c9 13       		.uleb128 0x13
 2581 01ca 52       		.uleb128 0x52
 2582 01cb 01       		.uleb128 0x1
 2583 01cc 55       		.uleb128 0x55
 2584 01cd 17       		.uleb128 0x17
 2585 01ce 58       		.uleb128 0x58
 2586 01cf 0B       		.uleb128 0xb
 2587 01d0 59       		.uleb128 0x59
 2588 01d1 05       		.uleb128 0x5
 2589 01d2 00       		.byte	0
 2590 01d3 00       		.byte	0
 2591 01d4 24       		.uleb128 0x24
 2592 01d5 05       		.uleb128 0x5
 2593 01d6 00       		.byte	0
 2594 01d7 31       		.uleb128 0x31
 2595 01d8 13       		.uleb128 0x13
 2596 01d9 1C       		.uleb128 0x1c
 2597 01da 0B       		.uleb128 0xb
 2598 01db 00       		.byte	0
 2599 01dc 00       		.byte	0
 2600 01dd 25       		.uleb128 0x25
 2601 01de 1D       		.uleb128 0x1d
 2602 01df 01       		.byte	0x1
 2603 01e0 31       		.uleb128 0x31
 2604 01e1 13       		.uleb128 0x13
 2605 01e2 11       		.uleb128 0x11
 2606 01e3 01       		.uleb128 0x1
 2607 01e4 12       		.uleb128 0x12
 2608 01e5 06       		.uleb128 0x6
 2609 01e6 58       		.uleb128 0x58
 2610 01e7 0B       		.uleb128 0xb
 2611 01e8 59       		.uleb128 0x59
 2612 01e9 0B       		.uleb128 0xb
 2613 01ea 01       		.uleb128 0x1
 2614 01eb 13       		.uleb128 0x13
 2615 01ec 00       		.byte	0
 2616 01ed 00       		.byte	0
 2617 01ee 26       		.uleb128 0x26
 2618 01ef 05       		.uleb128 0x5
 2619 01f0 00       		.byte	0
 2620 01f1 31       		.uleb128 0x31
 2621 01f2 13       		.uleb128 0x13
 2622 01f3 02       		.uleb128 0x2
 2623 01f4 17       		.uleb128 0x17
ARM GAS  /tmp/ccs6sxAx.s 			page 73


 2624 01f5 00       		.byte	0
 2625 01f6 00       		.byte	0
 2626 01f7 27       		.uleb128 0x27
 2627 01f8 898201   		.uleb128 0x4109
 2628 01fb 01       		.byte	0x1
 2629 01fc 11       		.uleb128 0x11
 2630 01fd 01       		.uleb128 0x1
 2631 01fe 31       		.uleb128 0x31
 2632 01ff 13       		.uleb128 0x13
 2633 0200 00       		.byte	0
 2634 0201 00       		.byte	0
 2635 0202 28       		.uleb128 0x28
 2636 0203 8A8201   		.uleb128 0x410a
 2637 0206 00       		.byte	0
 2638 0207 02       		.uleb128 0x2
 2639 0208 18       		.uleb128 0x18
 2640 0209 9142     		.uleb128 0x2111
 2641 020b 18       		.uleb128 0x18
 2642 020c 00       		.byte	0
 2643 020d 00       		.byte	0
 2644 020e 29       		.uleb128 0x29
 2645 020f 1D       		.uleb128 0x1d
 2646 0210 01       		.byte	0x1
 2647 0211 31       		.uleb128 0x31
 2648 0212 13       		.uleb128 0x13
 2649 0213 11       		.uleb128 0x11
 2650 0214 01       		.uleb128 0x1
 2651 0215 12       		.uleb128 0x12
 2652 0216 06       		.uleb128 0x6
 2653 0217 58       		.uleb128 0x58
 2654 0218 0B       		.uleb128 0xb
 2655 0219 59       		.uleb128 0x59
 2656 021a 05       		.uleb128 0x5
 2657 021b 00       		.byte	0
 2658 021c 00       		.byte	0
 2659 021d 2A       		.uleb128 0x2a
 2660 021e 2E       		.uleb128 0x2e
 2661 021f 01       		.byte	0x1
 2662 0220 3F       		.uleb128 0x3f
 2663 0221 19       		.uleb128 0x19
 2664 0222 03       		.uleb128 0x3
 2665 0223 0E       		.uleb128 0xe
 2666 0224 3A       		.uleb128 0x3a
 2667 0225 0B       		.uleb128 0xb
 2668 0226 3B       		.uleb128 0x3b
 2669 0227 0B       		.uleb128 0xb
 2670 0228 27       		.uleb128 0x27
 2671 0229 19       		.uleb128 0x19
 2672 022a 11       		.uleb128 0x11
 2673 022b 01       		.uleb128 0x1
 2674 022c 12       		.uleb128 0x12
 2675 022d 06       		.uleb128 0x6
 2676 022e 40       		.uleb128 0x40
 2677 022f 18       		.uleb128 0x18
 2678 0230 9742     		.uleb128 0x2117
 2679 0232 19       		.uleb128 0x19
 2680 0233 01       		.uleb128 0x1
ARM GAS  /tmp/ccs6sxAx.s 			page 74


 2681 0234 13       		.uleb128 0x13
 2682 0235 00       		.byte	0
 2683 0236 00       		.byte	0
 2684 0237 2B       		.uleb128 0x2b
 2685 0238 05       		.uleb128 0x5
 2686 0239 00       		.byte	0
 2687 023a 03       		.uleb128 0x3
 2688 023b 08       		.uleb128 0x8
 2689 023c 3A       		.uleb128 0x3a
 2690 023d 0B       		.uleb128 0xb
 2691 023e 3B       		.uleb128 0x3b
 2692 023f 0B       		.uleb128 0xb
 2693 0240 49       		.uleb128 0x49
 2694 0241 13       		.uleb128 0x13
 2695 0242 02       		.uleb128 0x2
 2696 0243 18       		.uleb128 0x18
 2697 0244 00       		.byte	0
 2698 0245 00       		.byte	0
 2699 0246 2C       		.uleb128 0x2c
 2700 0247 05       		.uleb128 0x5
 2701 0248 00       		.byte	0
 2702 0249 03       		.uleb128 0x3
 2703 024a 0E       		.uleb128 0xe
 2704 024b 3A       		.uleb128 0x3a
 2705 024c 0B       		.uleb128 0xb
 2706 024d 3B       		.uleb128 0x3b
 2707 024e 0B       		.uleb128 0xb
 2708 024f 49       		.uleb128 0x49
 2709 0250 13       		.uleb128 0x13
 2710 0251 02       		.uleb128 0x2
 2711 0252 18       		.uleb128 0x18
 2712 0253 00       		.byte	0
 2713 0254 00       		.byte	0
 2714 0255 2D       		.uleb128 0x2d
 2715 0256 05       		.uleb128 0x5
 2716 0257 00       		.byte	0
 2717 0258 31       		.uleb128 0x31
 2718 0259 13       		.uleb128 0x13
 2719 025a 02       		.uleb128 0x2
 2720 025b 18       		.uleb128 0x18
 2721 025c 00       		.byte	0
 2722 025d 00       		.byte	0
 2723 025e 2E       		.uleb128 0x2e
 2724 025f 1D       		.uleb128 0x1d
 2725 0260 01       		.byte	0x1
 2726 0261 31       		.uleb128 0x31
 2727 0262 13       		.uleb128 0x13
 2728 0263 11       		.uleb128 0x11
 2729 0264 01       		.uleb128 0x1
 2730 0265 12       		.uleb128 0x12
 2731 0266 06       		.uleb128 0x6
 2732 0267 58       		.uleb128 0x58
 2733 0268 0B       		.uleb128 0xb
 2734 0269 59       		.uleb128 0x59
 2735 026a 0B       		.uleb128 0xb
 2736 026b 00       		.byte	0
 2737 026c 00       		.byte	0
ARM GAS  /tmp/ccs6sxAx.s 			page 75


 2738 026d 2F       		.uleb128 0x2f
 2739 026e 1D       		.uleb128 0x1d
 2740 026f 01       		.byte	0x1
 2741 0270 31       		.uleb128 0x31
 2742 0271 13       		.uleb128 0x13
 2743 0272 52       		.uleb128 0x52
 2744 0273 01       		.uleb128 0x1
 2745 0274 55       		.uleb128 0x55
 2746 0275 17       		.uleb128 0x17
 2747 0276 58       		.uleb128 0x58
 2748 0277 0B       		.uleb128 0xb
 2749 0278 59       		.uleb128 0x59
 2750 0279 0B       		.uleb128 0xb
 2751 027a 00       		.byte	0
 2752 027b 00       		.byte	0
 2753 027c 30       		.uleb128 0x30
 2754 027d 1D       		.uleb128 0x1d
 2755 027e 01       		.byte	0x1
 2756 027f 31       		.uleb128 0x31
 2757 0280 13       		.uleb128 0x13
 2758 0281 52       		.uleb128 0x52
 2759 0282 01       		.uleb128 0x1
 2760 0283 55       		.uleb128 0x55
 2761 0284 17       		.uleb128 0x17
 2762 0285 58       		.uleb128 0x58
 2763 0286 0B       		.uleb128 0xb
 2764 0287 59       		.uleb128 0x59
 2765 0288 05       		.uleb128 0x5
 2766 0289 01       		.uleb128 0x1
 2767 028a 13       		.uleb128 0x13
 2768 028b 00       		.byte	0
 2769 028c 00       		.byte	0
 2770 028d 31       		.uleb128 0x31
 2771 028e 1D       		.uleb128 0x1d
 2772 028f 01       		.byte	0x1
 2773 0290 31       		.uleb128 0x31
 2774 0291 13       		.uleb128 0x13
 2775 0292 11       		.uleb128 0x11
 2776 0293 01       		.uleb128 0x1
 2777 0294 12       		.uleb128 0x12
 2778 0295 06       		.uleb128 0x6
 2779 0296 58       		.uleb128 0x58
 2780 0297 0B       		.uleb128 0xb
 2781 0298 59       		.uleb128 0x59
 2782 0299 05       		.uleb128 0x5
 2783 029a 01       		.uleb128 0x1
 2784 029b 13       		.uleb128 0x13
 2785 029c 00       		.byte	0
 2786 029d 00       		.byte	0
 2787 029e 32       		.uleb128 0x32
 2788 029f 0B       		.uleb128 0xb
 2789 02a0 01       		.byte	0x1
 2790 02a1 11       		.uleb128 0x11
 2791 02a2 01       		.uleb128 0x1
 2792 02a3 12       		.uleb128 0x12
 2793 02a4 06       		.uleb128 0x6
 2794 02a5 00       		.byte	0
ARM GAS  /tmp/ccs6sxAx.s 			page 76


 2795 02a6 00       		.byte	0
 2796 02a7 33       		.uleb128 0x33
 2797 02a8 34       		.uleb128 0x34
 2798 02a9 00       		.byte	0
 2799 02aa 31       		.uleb128 0x31
 2800 02ab 13       		.uleb128 0x13
 2801 02ac 00       		.byte	0
 2802 02ad 00       		.byte	0
 2803 02ae 34       		.uleb128 0x34
 2804 02af 34       		.uleb128 0x34
 2805 02b0 00       		.byte	0
 2806 02b1 03       		.uleb128 0x3
 2807 02b2 0E       		.uleb128 0xe
 2808 02b3 3A       		.uleb128 0x3a
 2809 02b4 0B       		.uleb128 0xb
 2810 02b5 3B       		.uleb128 0x3b
 2811 02b6 05       		.uleb128 0x5
 2812 02b7 49       		.uleb128 0x49
 2813 02b8 13       		.uleb128 0x13
 2814 02b9 3F       		.uleb128 0x3f
 2815 02ba 19       		.uleb128 0x19
 2816 02bb 3C       		.uleb128 0x3c
 2817 02bc 19       		.uleb128 0x19
 2818 02bd 00       		.byte	0
 2819 02be 00       		.byte	0
 2820 02bf 35       		.uleb128 0x35
 2821 02c0 34       		.uleb128 0x34
 2822 02c1 00       		.byte	0
 2823 02c2 03       		.uleb128 0x3
 2824 02c3 08       		.uleb128 0x8
 2825 02c4 3A       		.uleb128 0x3a
 2826 02c5 0B       		.uleb128 0xb
 2827 02c6 3B       		.uleb128 0x3b
 2828 02c7 05       		.uleb128 0x5
 2829 02c8 49       		.uleb128 0x49
 2830 02c9 13       		.uleb128 0x13
 2831 02ca 3F       		.uleb128 0x3f
 2832 02cb 19       		.uleb128 0x19
 2833 02cc 3C       		.uleb128 0x3c
 2834 02cd 19       		.uleb128 0x19
 2835 02ce 00       		.byte	0
 2836 02cf 00       		.byte	0
 2837 02d0 36       		.uleb128 0x36
 2838 02d1 2E       		.uleb128 0x2e
 2839 02d2 01       		.byte	0x1
 2840 02d3 3F       		.uleb128 0x3f
 2841 02d4 19       		.uleb128 0x19
 2842 02d5 03       		.uleb128 0x3
 2843 02d6 0E       		.uleb128 0xe
 2844 02d7 3A       		.uleb128 0x3a
 2845 02d8 0B       		.uleb128 0xb
 2846 02d9 3B       		.uleb128 0x3b
 2847 02da 0B       		.uleb128 0xb
 2848 02db 27       		.uleb128 0x27
 2849 02dc 19       		.uleb128 0x19
 2850 02dd 3C       		.uleb128 0x3c
 2851 02de 19       		.uleb128 0x19
ARM GAS  /tmp/ccs6sxAx.s 			page 77


 2852 02df 01       		.uleb128 0x1
 2853 02e0 13       		.uleb128 0x13
 2854 02e1 00       		.byte	0
 2855 02e2 00       		.byte	0
 2856 02e3 37       		.uleb128 0x37
 2857 02e4 2E       		.uleb128 0x2e
 2858 02e5 01       		.byte	0x1
 2859 02e6 3F       		.uleb128 0x3f
 2860 02e7 19       		.uleb128 0x19
 2861 02e8 03       		.uleb128 0x3
 2862 02e9 0E       		.uleb128 0xe
 2863 02ea 3A       		.uleb128 0x3a
 2864 02eb 0B       		.uleb128 0xb
 2865 02ec 3B       		.uleb128 0x3b
 2866 02ed 0B       		.uleb128 0xb
 2867 02ee 27       		.uleb128 0x27
 2868 02ef 19       		.uleb128 0x19
 2869 02f0 3C       		.uleb128 0x3c
 2870 02f1 19       		.uleb128 0x19
 2871 02f2 00       		.byte	0
 2872 02f3 00       		.byte	0
 2873 02f4 00       		.byte	0
 2874              		.section	.debug_loc,"",%progbits
 2875              	.Ldebug_loc0:
 2876              	.LLST0:
 2877 0000 00000000 		.4byte	.LVL0
 2878 0004 0E000000 		.4byte	.LVL3
 2879 0008 0100     		.2byte	0x1
 2880 000a 50       		.byte	0x50
 2881 000b 0E000000 		.4byte	.LVL3
 2882 000f 26000000 		.4byte	.LVL6
 2883 0013 0100     		.2byte	0x1
 2884 0015 54       		.byte	0x54
 2885 0016 26000000 		.4byte	.LVL6
 2886 001a 2C000000 		.4byte	.LFE242
 2887 001e 0400     		.2byte	0x4
 2888 0020 F3       		.byte	0xf3
 2889 0021 01       		.uleb128 0x1
 2890 0022 50       		.byte	0x50
 2891 0023 9F       		.byte	0x9f
 2892 0024 00000000 		.4byte	0
 2893 0028 00000000 		.4byte	0
 2894              	.LLST1:
 2895 002c 06000000 		.4byte	.LVL1
 2896 0030 0E000000 		.4byte	.LVL3
 2897 0034 0100     		.2byte	0x1
 2898 0036 50       		.byte	0x50
 2899 0037 0E000000 		.4byte	.LVL3
 2900 003b 26000000 		.4byte	.LVL6
 2901 003f 0100     		.2byte	0x1
 2902 0041 54       		.byte	0x54
 2903 0042 26000000 		.4byte	.LVL6
 2904 0046 2C000000 		.4byte	.LFE242
 2905 004a 0400     		.2byte	0x4
 2906 004c F3       		.byte	0xf3
 2907 004d 01       		.uleb128 0x1
 2908 004e 50       		.byte	0x50
ARM GAS  /tmp/ccs6sxAx.s 			page 78


 2909 004f 9F       		.byte	0x9f
 2910 0050 00000000 		.4byte	0
 2911 0054 00000000 		.4byte	0
 2912              	.LLST2:
 2913 0058 0A000000 		.4byte	.LVL2
 2914 005c 0E000000 		.4byte	.LVL3
 2915 0060 0300     		.2byte	0x3
 2916 0062 70       		.byte	0x70
 2917 0063 14       		.sleb128 20
 2918 0064 9F       		.byte	0x9f
 2919 0065 0E000000 		.4byte	.LVL3
 2920 0069 11000000 		.4byte	.LVL4-1
 2921 006d 0100     		.2byte	0x1
 2922 006f 50       		.byte	0x50
 2923 0070 11000000 		.4byte	.LVL4-1
 2924 0074 26000000 		.4byte	.LVL6
 2925 0078 0300     		.2byte	0x3
 2926 007a 74       		.byte	0x74
 2927 007b 14       		.sleb128 20
 2928 007c 9F       		.byte	0x9f
 2929 007d 26000000 		.4byte	.LVL6
 2930 0081 2C000000 		.4byte	.LFE242
 2931 0085 0600     		.2byte	0x6
 2932 0087 F3       		.byte	0xf3
 2933 0088 01       		.uleb128 0x1
 2934 0089 50       		.byte	0x50
 2935 008a 23       		.byte	0x23
 2936 008b 14       		.uleb128 0x14
 2937 008c 9F       		.byte	0x9f
 2938 008d 00000000 		.4byte	0
 2939 0091 00000000 		.4byte	0
 2940              	.LLST3:
 2941 0095 00000000 		.4byte	.LVL7
 2942 0099 04000000 		.4byte	.LVL8
 2943 009d 0300     		.2byte	0x3
 2944 009f 70       		.byte	0x70
 2945 00a0 14       		.sleb128 20
 2946 00a1 9F       		.byte	0x9f
 2947 00a2 04000000 		.4byte	.LVL8
 2948 00a6 0E000000 		.4byte	.LFE243
 2949 00aa 0100     		.2byte	0x1
 2950 00ac 52       		.byte	0x52
 2951 00ad 00000000 		.4byte	0
 2952 00b1 00000000 		.4byte	0
 2953              	.LLST4:
 2954 00b5 00000000 		.4byte	.LVL10
 2955 00b9 13000000 		.4byte	.LVL13-1
 2956 00bd 0100     		.2byte	0x1
 2957 00bf 50       		.byte	0x50
 2958 00c0 13000000 		.4byte	.LVL13-1
 2959 00c4 28000000 		.4byte	.LVL15
 2960 00c8 0100     		.2byte	0x1
 2961 00ca 54       		.byte	0x54
 2962 00cb 28000000 		.4byte	.LVL15
 2963 00cf 2C000000 		.4byte	.LFE244
 2964 00d3 0400     		.2byte	0x4
 2965 00d5 F3       		.byte	0xf3
ARM GAS  /tmp/ccs6sxAx.s 			page 79


 2966 00d6 01       		.uleb128 0x1
 2967 00d7 50       		.byte	0x50
 2968 00d8 9F       		.byte	0x9f
 2969 00d9 00000000 		.4byte	0
 2970 00dd 00000000 		.4byte	0
 2971              	.LLST5:
 2972 00e1 08000000 		.4byte	.LVL11
 2973 00e5 13000000 		.4byte	.LVL13-1
 2974 00e9 0100     		.2byte	0x1
 2975 00eb 50       		.byte	0x50
 2976 00ec 13000000 		.4byte	.LVL13-1
 2977 00f0 28000000 		.4byte	.LVL15
 2978 00f4 0100     		.2byte	0x1
 2979 00f6 54       		.byte	0x54
 2980 00f7 28000000 		.4byte	.LVL15
 2981 00fb 2C000000 		.4byte	.LFE244
 2982 00ff 0400     		.2byte	0x4
 2983 0101 F3       		.byte	0xf3
 2984 0102 01       		.uleb128 0x1
 2985 0103 50       		.byte	0x50
 2986 0104 9F       		.byte	0x9f
 2987 0105 00000000 		.4byte	0
 2988 0109 00000000 		.4byte	0
 2989              	.LLST6:
 2990 010d 08000000 		.4byte	.LVL11
 2991 0111 28000000 		.4byte	.LVL15
 2992 0115 0100     		.2byte	0x1
 2993 0117 55       		.byte	0x55
 2994 0118 00000000 		.4byte	0
 2995 011c 00000000 		.4byte	0
 2996              	.LLST8:
 2997 0120 0C000000 		.4byte	.LVL12
 2998 0124 13000000 		.4byte	.LVL13-1
 2999 0128 0100     		.2byte	0x1
 3000 012a 50       		.byte	0x50
 3001 012b 13000000 		.4byte	.LVL13-1
 3002 012f 28000000 		.4byte	.LVL15
 3003 0133 0100     		.2byte	0x1
 3004 0135 54       		.byte	0x54
 3005 0136 28000000 		.4byte	.LVL15
 3006 013a 2C000000 		.4byte	.LFE244
 3007 013e 0400     		.2byte	0x4
 3008 0140 F3       		.byte	0xf3
 3009 0141 01       		.uleb128 0x1
 3010 0142 50       		.byte	0x50
 3011 0143 9F       		.byte	0x9f
 3012 0144 00000000 		.4byte	0
 3013 0148 00000000 		.4byte	0
 3014              	.LLST9:
 3015 014c 0C000000 		.4byte	.LVL12
 3016 0150 28000000 		.4byte	.LVL15
 3017 0154 0100     		.2byte	0x1
 3018 0156 55       		.byte	0x55
 3019 0157 00000000 		.4byte	0
 3020 015b 00000000 		.4byte	0
 3021              		.section	.debug_aranges,"",%progbits
 3022 0000 2C000000 		.4byte	0x2c
ARM GAS  /tmp/ccs6sxAx.s 			page 80


 3023 0004 0200     		.2byte	0x2
 3024 0006 00000000 		.4byte	.Ldebug_info0
 3025 000a 04       		.byte	0x4
 3026 000b 00       		.byte	0
 3027 000c 0000     		.2byte	0
 3028 000e 0000     		.2byte	0
 3029 0010 00000000 		.4byte	.LFB242
 3030 0014 2C000000 		.4byte	.LFE242-.LFB242
 3031 0018 00000000 		.4byte	.LFB243
 3032 001c 0E000000 		.4byte	.LFE243-.LFB243
 3033 0020 00000000 		.4byte	.LFB244
 3034 0024 2C000000 		.4byte	.LFE244-.LFB244
 3035 0028 00000000 		.4byte	0
 3036 002c 00000000 		.4byte	0
 3037              		.section	.debug_ranges,"",%progbits
 3038              	.Ldebug_ranges0:
 3039 0000 02000000 		.4byte	.LBB77
 3040 0004 04000000 		.4byte	.LBE77
 3041 0008 06000000 		.4byte	.LBB86
 3042 000c 0A000000 		.4byte	.LBE86
 3043 0010 00000000 		.4byte	0
 3044 0014 00000000 		.4byte	0
 3045 0018 04000000 		.4byte	.LBB94
 3046 001c 06000000 		.4byte	.LBE94
 3047 0020 0A000000 		.4byte	.LBB99
 3048 0024 0E000000 		.4byte	.LBE99
 3049 0028 00000000 		.4byte	0
 3050 002c 00000000 		.4byte	0
 3051 0030 04000000 		.4byte	.LBB115
 3052 0034 06000000 		.4byte	.LBE115
 3053 0038 08000000 		.4byte	.LBB133
 3054 003c 2C000000 		.4byte	.LBE133
 3055 0040 00000000 		.4byte	0
 3056 0044 00000000 		.4byte	0
 3057 0048 04000000 		.4byte	.LBB116
 3058 004c 06000000 		.4byte	.LBE116
 3059 0050 08000000 		.4byte	.LBB123
 3060 0054 0C000000 		.4byte	.LBE123
 3061 0058 00000000 		.4byte	0
 3062 005c 00000000 		.4byte	0
 3063 0060 00000000 		.4byte	.LFB242
 3064 0064 2C000000 		.4byte	.LFE242
 3065 0068 00000000 		.4byte	.LFB243
 3066 006c 0E000000 		.4byte	.LFE243
 3067 0070 00000000 		.4byte	.LFB244
 3068 0074 2C000000 		.4byte	.LFE244
 3069 0078 00000000 		.4byte	0
 3070 007c 00000000 		.4byte	0
 3071              		.section	.debug_line,"",%progbits
 3072              	.Ldebug_line0:
 3073 0000 FD020000 		.section	.debug_str,"MS",%progbits,1
 3073      02006902 
 3073      00000201 
 3073      FB0E0D00 
 3073      01010101 
 3074              	.LASF114:
 3075 0000 65745F69 		.ascii	"et_interval\000"
ARM GAS  /tmp/ccs6sxAx.s 			page 81


 3075      6E746572 
 3075      76616C00 
 3076              	.LASF50:
 3077 000c 72656164 		.ascii	"ready_list_t\000"
 3077      795F6C69 
 3077      73745F74 
 3077      00
 3078              	.LASF88:
 3079 0019 77747472 		.ascii	"wttrp\000"
 3079      7000
 3080              	.LASF85:
 3081 001f 7264796D 		.ascii	"rdymsg\000"
 3081      736700
 3082              	.LASF16:
 3083 0026 75696E74 		.ascii	"uint64_t\000"
 3083      36345F74 
 3083      00
 3084              	.LASF23:
 3085 002f 6576656E 		.ascii	"eventmask_t\000"
 3085      746D6173 
 3085      6B5F7400 
 3086              	.LASF5:
 3087 003b 5F5F7569 		.ascii	"__uint8_t\000"
 3087      6E74385F 
 3087      7400
 3088              	.LASF82:
 3089 0045 706F7274 		.ascii	"port_intctx\000"
 3089      5F696E74 
 3089      63747800 
 3090              	.LASF69:
 3091 0051 73797374 		.ascii	"system_debug_t\000"
 3091      656D5F64 
 3091      65627567 
 3091      5F7400
 3092              	.LASF116:
 3093 0060 706F7274 		.ascii	"port_lock\000"
 3093      5F6C6F63 
 3093      6B00
 3094              	.LASF12:
 3095 006a 6C6F6E67 		.ascii	"long long unsigned int\000"
 3095      206C6F6E 
 3095      6720756E 
 3095      7369676E 
 3095      65642069 
 3096              	.LASF147:
 3097 0081 63685654 		.ascii	"chVTDoResetI\000"
 3097      446F5265 
 3097      73657449 
 3097      00
 3098              	.LASF86:
 3099 008e 65786974 		.ascii	"exitcode\000"
 3099      636F6465 
 3099      00
 3100              	.LASF137:
 3101 0097 65767453 		.ascii	"evtStart\000"
 3101      74617274 
 3101      00
ARM GAS  /tmp/ccs6sxAx.s 			page 82


 3102              	.LASF89:
 3103 00a0 73656E74 		.ascii	"sentmsg\000"
 3103      6D736700 
 3104              	.LASF66:
 3105 00a8 76697274 		.ascii	"virtual_timers_list_t\000"
 3105      75616C5F 
 3105      74696D65 
 3105      72735F6C 
 3105      6973745F 
 3106              	.LASF138:
 3107 00be 49544D5F 		.ascii	"ITM_RxBuffer\000"
 3107      52784275 
 3107      66666572 
 3107      00
 3108              	.LASF132:
 3109 00cb 64656C61 		.ascii	"delay\000"
 3109      7900
 3110              	.LASF49:
 3111 00d1 63685F74 		.ascii	"ch_threads_queue\000"
 3111      68726561 
 3111      64735F71 
 3111      75657565 
 3111      00
 3112              	.LASF30:
 3113 00e2 705F7072 		.ascii	"p_prio\000"
 3113      696F00
 3114              	.LASF10:
 3115 00e9 6C6F6E67 		.ascii	"long long int\000"
 3115      206C6F6E 
 3115      6720696E 
 3115      7400
 3116              	.LASF1:
 3117 00f7 7369676E 		.ascii	"signed char\000"
 3117      65642063 
 3117      68617200 
 3118              	.LASF43:
 3119 0103 705F6D70 		.ascii	"p_mpool\000"
 3119      6F6F6C00 
 3120              	.LASF97:
 3121 010b 6D5F7175 		.ascii	"m_queue\000"
 3121      65756500 
 3122              	.LASF75:
 3123 0113 76746C69 		.ascii	"vtlist\000"
 3123      737400
 3124              	.LASF117:
 3125 011a 706F7274 		.ascii	"port_unlock\000"
 3125      5F756E6C 
 3125      6F636B00 
 3126              	.LASF73:
 3127 0126 63685F73 		.ascii	"ch_system\000"
 3127      79737465 
 3127      6D00
 3128              	.LASF7:
 3129 0130 6C6F6E67 		.ascii	"long int\000"
 3129      20696E74 
 3129      00
 3130              	.LASF19:
ARM GAS  /tmp/ccs6sxAx.s 			page 83


 3131 0139 74737461 		.ascii	"tstate_t\000"
 3131      74655F74 
 3131      00
 3132              	.LASF37:
 3133 0142 705F7265 		.ascii	"p_refs\000"
 3133      667300
 3134              	.LASF139:
 3135 0149 63684576 		.ascii	"chEvtBroadcastFlagsI\000"
 3135      7442726F 
 3135      61646361 
 3135      7374466C 
 3135      61677349 
 3136              	.LASF32:
 3137 015e 705F6E65 		.ascii	"p_newer\000"
 3137      77657200 
 3138              	.LASF94:
 3139 0166 735F7175 		.ascii	"s_queue\000"
 3139      65756500 
 3140              	.LASF55:
 3141 016e 725F6E65 		.ascii	"r_newer\000"
 3141      77657200 
 3142              	.LASF79:
 3143 0176 72656761 		.ascii	"regarm_t\000"
 3143      726D5F74 
 3143      00
 3144              	.LASF62:
 3145 017f 76745F70 		.ascii	"vt_prev\000"
 3145      72657600 
 3146              	.LASF101:
 3147 0187 6D757465 		.ascii	"mutex_t\000"
 3147      785F7400 
 3148              	.LASF122:
 3149 018f 76616C75 		.ascii	"value\000"
 3149      6500
 3150              	.LASF111:
 3151 0195 6576656E 		.ascii	"event_source_t\000"
 3151      745F736F 
 3151      75726365 
 3151      5F7400
 3152              	.LASF77:
 3153 01a4 69646C65 		.ascii	"idle_thread_wa\000"
 3153      5F746872 
 3153      6561645F 
 3153      776100
 3154              	.LASF25:
 3155 01b3 636E745F 		.ascii	"cnt_t\000"
 3155      7400
 3156              	.LASF0:
 3157 01b9 756E7369 		.ascii	"unsigned int\000"
 3157      676E6564 
 3157      20696E74 
 3157      00
 3158              	.LASF61:
 3159 01c6 76745F6E 		.ascii	"vt_next\000"
 3159      65787400 
 3160              	.LASF90:
 3161 01ce 77747365 		.ascii	"wtsemp\000"
ARM GAS  /tmp/ccs6sxAx.s 			page 84


 3161      6D7000
 3162              	.LASF63:
 3163 01d5 76745F64 		.ascii	"vt_delta\000"
 3163      656C7461 
 3163      00
 3164              	.LASF39:
 3165 01de 705F6D73 		.ascii	"p_msgqueue\000"
 3165      67717565 
 3165      756500
 3166              	.LASF95:
 3167 01e9 735F636E 		.ascii	"s_cnt\000"
 3167      7400
 3168              	.LASF130:
 3169 01ef 63684576 		.ascii	"chEvtObjectInit\000"
 3169      744F626A 
 3169      65637449 
 3169      6E697400 
 3170              	.LASF4:
 3171 01ff 73686F72 		.ascii	"short unsigned int\000"
 3171      7420756E 
 3171      7369676E 
 3171      65642069 
 3171      6E7400
 3172              	.LASF46:
 3173 0212 63685F74 		.ascii	"ch_thread\000"
 3173      68726561 
 3173      6400
 3174              	.LASF108:
 3175 021c 656C5F77 		.ascii	"el_wflags\000"
 3175      666C6167 
 3175      7300
 3176              	.LASF76:
 3177 0226 6D61696E 		.ascii	"mainthread\000"
 3177      74687265 
 3177      616400
 3178              	.LASF24:
 3179 0231 6576656E 		.ascii	"eventflags_t\000"
 3179      74666C61 
 3179      67735F74 
 3179      00
 3180              	.LASF22:
 3181 023e 6D73675F 		.ascii	"msg_t\000"
 3181      7400
 3182              	.LASF104:
 3183 0244 656C5F6E 		.ascii	"el_next\000"
 3183      65787400 
 3184              	.LASF72:
 3185 024c 63685F73 		.ascii	"ch_system_t\000"
 3185      79737465 
 3185      6D5F7400 
 3186              	.LASF136:
 3187 0258 6576744F 		.ascii	"evtObjectInit\000"
 3187      626A6563 
 3187      74496E69 
 3187      7400
 3188              	.LASF87:
 3189 0266 77746F62 		.ascii	"wtobjp\000"
ARM GAS  /tmp/ccs6sxAx.s 			page 85


 3189      6A7000
 3190              	.LASF51:
 3191 026d 63685F72 		.ascii	"ch_ready_list\000"
 3191      65616479 
 3191      5F6C6973 
 3191      7400
 3192              	.LASF140:
 3193 027b 63685654 		.ascii	"chVTDoSetI\000"
 3193      446F5365 
 3193      744900
 3194              	.LASF6:
 3195 0286 5F5F696E 		.ascii	"__int32_t\000"
 3195      7433325F 
 3195      7400
 3196              	.LASF121:
 3197 0290 63685654 		.ascii	"chVTObjectInit\000"
 3197      4F626A65 
 3197      6374496E 
 3197      697400
 3198              	.LASF80:
 3199 029f 73746B61 		.ascii	"stkalign_t\000"
 3199      6C69676E 
 3199      5F7400
 3200              	.LASF142:
 3201 02aa 2E2E2F43 		.ascii	"../ChibiOS/os/various/evtimer.c\000"
 3201      68696269 
 3201      4F532F6F 
 3201      732F7661 
 3201      72696F75 
 3202              	.LASF102:
 3203 02ca 6576656E 		.ascii	"event_listener_t\000"
 3203      745F6C69 
 3203      7374656E 
 3203      65725F74 
 3203      00
 3204              	.LASF38:
 3205 02db 705F7761 		.ascii	"p_waiting\000"
 3205      6974696E 
 3205      6700
 3206              	.LASF113:
 3207 02e5 65745F65 		.ascii	"et_es\000"
 3207      7300
 3208              	.LASF78:
 3209 02eb 73697A65 		.ascii	"sizetype\000"
 3209      74797065 
 3209      00
 3210              	.LASF44:
 3211 02f4 74687265 		.ascii	"thread_reference_t\000"
 3211      61645F72 
 3211      65666572 
 3211      656E6365 
 3211      5F7400
 3212              	.LASF67:
 3213 0307 63685F76 		.ascii	"ch_virtual_timers_list\000"
 3213      69727475 
 3213      616C5F74 
 3213      696D6572 
ARM GAS  /tmp/ccs6sxAx.s 			page 86


 3213      735F6C69 
 3214              	.LASF68:
 3215 031e 76745F6C 		.ascii	"vt_lasttime\000"
 3215      61737474 
 3215      696D6500 
 3216              	.LASF134:
 3217 032a 63685654 		.ascii	"chVTSetI\000"
 3217      53657449 
 3217      00
 3218              	.LASF33:
 3219 0333 705F6F6C 		.ascii	"p_older\000"
 3219      64657200 
 3220              	.LASF54:
 3221 033b 725F6374 		.ascii	"r_ctx\000"
 3221      7800
 3222              	.LASF131:
 3223 0341 63685654 		.ascii	"chVTSet\000"
 3223      53657400 
 3224              	.LASF84:
 3225 0349 746D5F63 		.ascii	"tm_calibration_t\000"
 3225      616C6962 
 3225      72617469 
 3225      6F6E5F74 
 3225      00
 3226              	.LASF135:
 3227 035a 74696D65 		.ascii	"time\000"
 3227      00
 3228              	.LASF57:
 3229 035f 725F6375 		.ascii	"r_current\000"
 3229      7272656E 
 3229      7400
 3230              	.LASF56:
 3231 0369 725F6F6C 		.ascii	"r_older\000"
 3231      64657200 
 3232              	.LASF106:
 3233 0371 656C5F65 		.ascii	"el_events\000"
 3233      76656E74 
 3233      7300
 3234              	.LASF11:
 3235 037b 5F5F7569 		.ascii	"__uint64_t\000"
 3235      6E743634 
 3235      5F7400
 3236              	.LASF20:
 3237 0386 74726566 		.ascii	"trefs_t\000"
 3237      735F7400 
 3238              	.LASF59:
 3239 038e 76697274 		.ascii	"virtual_timer_t\000"
 3239      75616C5F 
 3239      74696D65 
 3239      725F7400 
 3240              	.LASF29:
 3241 039e 705F7072 		.ascii	"p_prev\000"
 3241      657600
 3242              	.LASF21:
 3243 03a5 74707269 		.ascii	"tprio_t\000"
 3243      6F5F7400 
 3244              	.LASF126:
ARM GAS  /tmp/ccs6sxAx.s 			page 87


 3245 03ad 63685379 		.ascii	"chSysUnlockFromISR\000"
 3245      73556E6C 
 3245      6F636B46 
 3245      726F6D49 
 3245      535200
 3246              	.LASF70:
 3247 03c0 63685F73 		.ascii	"ch_system_debug\000"
 3247      79737465 
 3247      6D5F6465 
 3247      62756700 
 3248              	.LASF123:
 3249 03d0 5F426F6F 		.ascii	"_Bool\000"
 3249      6C00
 3250              	.LASF14:
 3251 03d6 696E7433 		.ascii	"int32_t\000"
 3251      325F7400 
 3252              	.LASF2:
 3253 03de 756E7369 		.ascii	"unsigned char\000"
 3253      676E6564 
 3253      20636861 
 3253      7200
 3254              	.LASF105:
 3255 03ec 656C5F6C 		.ascii	"el_listener\000"
 3255      69737465 
 3255      6E657200 
 3256              	.LASF107:
 3257 03f8 656C5F66 		.ascii	"el_flags\000"
 3257      6C616773 
 3257      00
 3258              	.LASF41:
 3259 0401 705F6D74 		.ascii	"p_mtxlist\000"
 3259      786C6973 
 3259      7400
 3260              	.LASF3:
 3261 040b 73686F72 		.ascii	"short int\000"
 3261      7420696E 
 3261      7400
 3262              	.LASF35:
 3263 0415 705F7374 		.ascii	"p_state\000"
 3263      61746500 
 3264              	.LASF53:
 3265 041d 725F7072 		.ascii	"r_prio\000"
 3265      696F00
 3266              	.LASF92:
 3267 0424 65776D61 		.ascii	"ewmask\000"
 3267      736B00
 3268              	.LASF28:
 3269 042b 705F6E65 		.ascii	"p_next\000"
 3269      787400
 3270              	.LASF18:
 3271 0432 746D6F64 		.ascii	"tmode_t\000"
 3271      655F7400 
 3272              	.LASF36:
 3273 043a 705F666C 		.ascii	"p_flags\000"
 3273      61677300 
 3274              	.LASF128:
 3275 0442 63685379 		.ascii	"chSysLock\000"
ARM GAS  /tmp/ccs6sxAx.s 			page 88


 3275      734C6F63 
 3275      6B00
 3276              	.LASF144:
 3277 044c 63685654 		.ascii	"chVTIsArmedI\000"
 3277      49734172 
 3277      6D656449 
 3277      00
 3278              	.LASF125:
 3279 0459 63684576 		.ascii	"chEvtBroadcastI\000"
 3279      7442726F 
 3279      61646361 
 3279      73744900 
 3280              	.LASF60:
 3281 0469 63685F76 		.ascii	"ch_virtual_timer\000"
 3281      69727475 
 3281      616C5F74 
 3281      696D6572 
 3281      00
 3282              	.LASF127:
 3283 047a 63685654 		.ascii	"chVTResetI\000"
 3283      52657365 
 3283      744900
 3284              	.LASF93:
 3285 0485 63685F73 		.ascii	"ch_semaphore\000"
 3285      656D6170 
 3285      686F7265 
 3285      00
 3286              	.LASF40:
 3287 0492 705F6570 		.ascii	"p_epending\000"
 3287      656E6469 
 3287      6E6700
 3288              	.LASF15:
 3289 049d 75696E74 		.ascii	"uint32_t\000"
 3289      33325F74 
 3289      00
 3290              	.LASF91:
 3291 04a6 77746D74 		.ascii	"wtmtxp\000"
 3291      787000
 3292              	.LASF52:
 3293 04ad 725F7175 		.ascii	"r_queue\000"
 3293      65756500 
 3294              	.LASF112:
 3295 04b5 65745F76 		.ascii	"et_vt\000"
 3295      7400
 3296              	.LASF47:
 3297 04bb 63685F74 		.ascii	"ch_threads_list\000"
 3297      68726561 
 3297      64735F6C 
 3297      69737400 
 3298              	.LASF143:
 3299 04cb 2F6E6673 		.ascii	"/nfs/nfs4/home/irbrown/Courses/P442/P442WifiTrailCo"
 3299      2F6E6673 
 3299      342F686F 
 3299      6D652F69 
 3299      7262726F 
 3300 04fe 756E7465 		.ascii	"unterProject/milestone4\000"
 3300      7250726F 
ARM GAS  /tmp/ccs6sxAx.s 			page 89


 3300      6A656374 
 3300      2F6D696C 
 3300      6573746F 
 3301              	.LASF9:
 3302 0516 6C6F6E67 		.ascii	"long unsigned int\000"
 3302      20756E73 
 3302      69676E65 
 3302      6420696E 
 3302      7400
 3303              	.LASF100:
 3304 0528 63686172 		.ascii	"char\000"
 3304      00
 3305              	.LASF146:
 3306 052d 746D7263 		.ascii	"tmrcb\000"
 3306      6200
 3307              	.LASF119:
 3308 0533 706F7274 		.ascii	"port_unlock_from_isr\000"
 3308      5F756E6C 
 3308      6F636B5F 
 3308      66726F6D 
 3308      5F697372 
 3309              	.LASF27:
 3310 0548 74687265 		.ascii	"thread_t\000"
 3310      61645F74 
 3310      00
 3311              	.LASF99:
 3312 0551 6D5F6E65 		.ascii	"m_next\000"
 3312      787400
 3313              	.LASF26:
 3314 0558 73797374 		.ascii	"systime_t\000"
 3314      696D655F 
 3314      7400
 3315              	.LASF42:
 3316 0562 705F7265 		.ascii	"p_realprio\000"
 3316      616C7072 
 3316      696F00
 3317              	.LASF58:
 3318 056d 76746675 		.ascii	"vtfunc_t\000"
 3318      6E635F74 
 3318      00
 3319              	.LASF8:
 3320 0576 5F5F7569 		.ascii	"__uint32_t\000"
 3320      6E743332 
 3320      5F7400
 3321              	.LASF120:
 3322 0581 5F5F7365 		.ascii	"__set_BASEPRI\000"
 3322      745F4241 
 3322      53455052 
 3322      4900
 3323              	.LASF71:
 3324 058f 70616E69 		.ascii	"panic_msg\000"
 3324      635F6D73 
 3324      6700
 3325              	.LASF83:
 3326 0599 6F666673 		.ascii	"offset\000"
 3326      657400
 3327              	.LASF145:
ARM GAS  /tmp/ccs6sxAx.s 			page 90


 3328 05a0 5F5F6675 		.ascii	"__func__.5700\000"
 3328      6E635F5F 
 3328      2E353730 
 3328      3000
 3329              	.LASF81:
 3330 05ae 636F6E74 		.ascii	"context\000"
 3330      65787400 
 3331              	.LASF17:
 3332 05b6 7274636E 		.ascii	"rtcnt_t\000"
 3332      745F7400 
 3333              	.LASF118:
 3334 05be 706F7274 		.ascii	"port_lock_from_isr\000"
 3334      5F6C6F63 
 3334      6B5F6672 
 3334      6F6D5F69 
 3334      737200
 3335              	.LASF65:
 3336 05d1 76745F70 		.ascii	"vt_par\000"
 3336      617200
 3337              	.LASF133:
 3338 05d8 76746675 		.ascii	"vtfunc\000"
 3338      6E6300
 3339              	.LASF48:
 3340 05df 74687265 		.ascii	"threads_queue_t\000"
 3340      6164735F 
 3340      71756575 
 3340      655F7400 
 3341              	.LASF96:
 3342 05ef 63685F6D 		.ascii	"ch_mutex\000"
 3342      75746578 
 3342      00
 3343              	.LASF110:
 3344 05f8 65735F6E 		.ascii	"es_next\000"
 3344      65787400 
 3345              	.LASF74:
 3346 0600 726C6973 		.ascii	"rlist\000"
 3346      7400
 3347              	.LASF109:
 3348 0606 6576656E 		.ascii	"event_source\000"
 3348      745F736F 
 3348      75726365 
 3348      00
 3349              	.LASF13:
 3350 0613 75696E74 		.ascii	"uint8_t\000"
 3350      385F7400 
 3351              	.LASF141:
 3352 061b 474E5520 		.ascii	"GNU C 4.8.4 20140526 (release) [ARM/embedded-4_8-br"
 3352      4320342E 
 3352      382E3420 
 3352      32303134 
 3352      30353236 
 3353 064e 616E6368 		.ascii	"anch revision 211358] -mcpu=cortex-m4 -mno-thumb-in"
 3353      20726576 
 3353      6973696F 
 3353      6E203231 
 3353      31333538 
 3354 0681 74657277 		.ascii	"terwork -mthumb -ggdb -O2 -fomit-frame-pointer -fal"
ARM GAS  /tmp/ccs6sxAx.s 			page 91


 3354      6F726B20 
 3354      2D6D7468 
 3354      756D6220 
 3354      2D676764 
 3355 06b4 69676E2D 		.ascii	"ign-functions=16 -ffunction-sections -fdata-section"
 3355      66756E63 
 3355      74696F6E 
 3355      733D3136 
 3355      202D6666 
 3356 06e7 73202D66 		.ascii	"s -fno-common -flto\000"
 3356      6E6F2D63 
 3356      6F6D6D6F 
 3356      6E202D66 
 3356      6C746F00 
 3357              	.LASF124:
 3358 06fb 63685379 		.ascii	"chSysLockFromISR\000"
 3358      734C6F63 
 3358      6B46726F 
 3358      6D495352 
 3358      00
 3359              	.LASF34:
 3360 070c 705F6E61 		.ascii	"p_name\000"
 3360      6D6500
 3361              	.LASF45:
 3362 0713 74687265 		.ascii	"threads_list_t\000"
 3362      6164735F 
 3362      6C697374 
 3362      5F7400
 3363              	.LASF129:
 3364 0722 63685379 		.ascii	"chSysUnlock\000"
 3364      73556E6C 
 3364      6F636B00 
 3365              	.LASF115:
 3366 072e 6576656E 		.ascii	"event_timer_t\000"
 3366      745F7469 
 3366      6D65725F 
 3366      7400
 3367              	.LASF98:
 3368 073c 6D5F6F77 		.ascii	"m_owner\000"
 3368      6E657200 
 3369              	.LASF31:
 3370 0744 705F6374 		.ascii	"p_ctx\000"
 3370      7800
 3371              	.LASF64:
 3372 074a 76745F66 		.ascii	"vt_func\000"
 3372      756E6300 
 3373              	.LASF103:
 3374 0752 6576656E 		.ascii	"event_listener\000"
 3374      745F6C69 
 3374      7374656E 
 3374      657200
 3375              		.comm	__gnu_lto_v1,1,1
 3376              		.ident	"GCC: (GNU Tools for ARM Embedded Processors) 4.8.4 20140526 (release) [ARM/embedded-4_8-br
ARM GAS  /tmp/ccs6sxAx.s 			page 92


DEFINED SYMBOLS
                            *ABS*:00000000 evtimer.c
     /tmp/ccs6sxAx.s:447    .text.tmrcb:00000000 $t
     /tmp/ccs6sxAx.s:452    .text.tmrcb:00000000 tmrcb
     /tmp/ccs6sxAx.s:530    .text.tmrcb:00000028 $d
     /tmp/ccs6sxAx.s:540    .text.evtObjectInit:00000000 $t
     /tmp/ccs6sxAx.s:546    .text.evtObjectInit:00000000 evtObjectInit
     /tmp/ccs6sxAx.s:584    .text.evtStart:00000000 $t
     /tmp/ccs6sxAx.s:590    .text.evtStart:00000000 evtStart
     /tmp/ccs6sxAx.s:673    .text.evtStart:00000028 $d
                            *COM*:00000001 __gnu_lto_v1
                     .debug_frame:00000010 $d
     /tmp/ccs6sxAx.s:539    .text.tmrcb:0000002c $t
     /tmp/ccs6sxAx.s:683    .text.evtStart:0000002c $t

UNDEFINED SYMBOLS
chEvtBroadcastFlagsI
chVTDoSetI
chVTDoResetI
