ARM GAS  /tmp/ccARsyzv.s 			page 1


   1              		.syntax unified
   2              		.cpu cortex-m4
   3              		.fpu softvfp
   4              		.eabi_attribute 20, 1
   5              		.eabi_attribute 21, 1
   6              		.eabi_attribute 23, 3
   7              		.eabi_attribute 24, 1
   8              		.eabi_attribute 25, 1
   9              		.eabi_attribute 26, 1
  10              		.eabi_attribute 30, 2
  11              		.eabi_attribute 34, 1
  12              		.eabi_attribute 18, 4
  13              		.thumb
  14              		.file	"nvic.c"
  15              		.text
  16              	.Ltext0:
  17              		.section	.gnu.lto_.jmpfuncs.97fffd9d7fed9425,"",%progbits
  18 0000 789C6362 		.ascii	"x\234cb`b\300\006\270\2404\013\0033##\02333#\003\000"
  18      6062C006 
  18      B8A0340B 
  18      03332323 
  18      13333323 
  19 0016 01F00021 		.ascii	"\001\360\000!"
  20              		.text
  21              		.section	.gnu.lto_.inline.97fffd9d7fed9425,"",%progbits
  22 0000 789C6D4C 		.ascii	"x\234mL\313\025\200 \014KK\205\352\305\021\330\300%"
  22      CB158020 
  22      0C4B4B85 
  22      EAC511D8 
  22      C025
  23 0012 5D84911C 		.ascii	"]\204\221\034\305\021LQy\036\354!}\371*\024\177\267"
  23      C5114C51 
  23      791EEC21 
  23      7DF92A14 
  23      7FB7
  24 0024 3FDF8065 		.ascii	"?\337\200e\026\025\011\022`\371\334\220[U\350\261\032"
  24      16150912 
  24      60F9DC90 
  24      5B55E8B1 
  24      1A
  25 0035 C89CAAD3 		.ascii	"\310\234\252\323\363\302TD\222\265zG\350Z\037QL&\322"
  25      F3C25444 
  25      92B57A47 
  25      E85A1F51 
  25      4C26D2
  26 0048 57127B9F 		.ascii	"W\022{\237\201PP\362[\035\346\250\342\002a/\015\002"
  26      815050F2 
  26      5B1DE6A8 
  26      E202612F 
  26      0D02
  27              		.text
  28              		.section	.gnu.lto_.pureconst.97fffd9d7fed9425,"",%progbits
  29 0000 789C6362 		.ascii	"x\234cb`b\340d\200\000\026\006)F)&)f)\000\002\326\000"
  29      6062E064 
  29      80001606 
  29      29462926 
  29      29662900 
ARM GAS  /tmp/ccARsyzv.s 			page 2


  30 0017 80       		.ascii	"\200"
  31              		.text
  32              		.section	.gnu.lto_nvicEnableVector.97fffd9d7fed9425,"",%progbits
  33 0000 789C9D91 		.ascii	"x\234\235\221\277K\303@\024\307\337\2734\346GQW\235"
  33      BF4BC340 
  33      14C7DFBB 
  33      34E64751 
  33      579D
  34 0012 2CBA08D2 		.ascii	",\272\010\322\244\340\340\340$\235\034\212P+\350\330"
  34      A4E0E0E0 
  34      249D1C8A 
  34      502BE8D8 
  35 0022 664803B6 		.ascii	"fH\003\266\021+\342f\332t\323\241\203\213\325\301\""
  35      112BE266 
  35      DA74D3A1 
  35      838BD5C1 
  35      22
  36 0033 22883FFE 		.ascii	"\"\210?\376\000AJ7\207*nNR\\\005\021'A!\276Kl\244\""
  36      00414A37 
  36      872A6E4E 
  36      525C0511 
  36      274121BE 
  37 004b 0E1EDCDD 		.ascii	"\016\036\334\335\273{\337\367\276\237\343\0300\3709"
  37      BB7BDFF7 
  37      BE9FE318 
  37      30F839
  38 005a 8669A6E9 		.ascii	"\206i\246\351z\222v\024\000Y\355\006\240,3D\036\000"
  38      7A927614 
  38      0059ED06 
  38      A02C3344 
  38      1E00
  39 006c C226C3CD 		.ascii	"\302&\303\315%\344R\034\205\206\343\324:G\217olw\247"
  39      25E4521C 
  39      8586E3D4 
  39      3A478F6F 
  39      6C77A7
  40 007f 593D703E 		.ascii	"Y=p><\017\321Bj\233@0\020\026\351\2001\177c\221^\237"
  40      3C0FD142 
  40      6A9B4030 
  40      1016E980 
  40      317F6391 
  41 0095 0BD6EC78 		.ascii	"\013\326\354x\336\376m\375a\010\373\021\013\274\310"
  41      DEFE6DFD 
  41      6108FB11 
  41      0BBCC8
  42 00a4 4241E08B 		.ascii	"BA\340\213HG\224(\212\310\220\305\006\371(t\000\225"
  42      48479428 
  42      8AC890C5 
  42      06F92874 
  42      0095
  43 00b6 16914A45 		.ascii	"\026\221JE\250\222m\014\270\003\215\014\255\234m\001"
  43      A8926D0C 
  43      B8038D0C 
  43      AD9C6D01 
  44 00c6 19DF8536 		.ascii	"\031\337\2056T\236\\\357\035\263xHr\023\231\211\244"
  44      549E5CEF 
  44      1DB37848 
ARM GAS  /tmp/ccARsyzv.s 			page 3


  44      72139989 
  44      A4
  45 00d7 68837B26 		.ascii	"h\203{&t\257\004\272\345P}\034\252\015\255\331 \021"
  45      74AF04BA 
  45      E5507D1C 
  45      AA0DADD9 
  45      2011
  46 00e9 8753A75A 		.ascii	"\207S\247Zv\246(1\001'<\034\264P\332\203:Ie\256W\234"
  46      76A62831 
  46      01273C1C 
  46      B450DA83 
  46      3A4965AE 
  47 00ff 96EB0CF8 		.ascii	"\226\353\014\370\357Q\374W\3440x\215\351\203\005\221"
  47      EF51FC57 
  47      E430788D 
  47      E9830591 
  48 010f E09B9DBB 		.ascii	"\340\233\235\273\307\333\343]?\211\362\274\010D\337"
  48      C7DBE35D 
  48      3F89F2BC 
  48      0844DF
  49 011e AFF2EC5E 		.ascii	"\257\362\354^\205x\262_K\025\227!\236b\006v0\002\001"
  49      8578B25F 
  49      4B159721 
  49      9E620676 
  49      300201
  50 0131 B8FB1ACA 		.ascii	"\270\373\032\312U\236\020\221\253|\364\353\227h\017"
  50      559E1091 
  50      AB7CF4EB 
  50      97680F
  51 0140 FCB485EA 		.ascii	"\374\264\205\3527|\364ox\374B\226Bx5hzO_\372\377\266"
  51      377CF46F 
  51      78FC4296 
  51      42783568 
  51      7A4F5FFA 
  52 0156 ECB7B677 		.ascii	"\354\267\266wP\356l\215\005M\273#C\004\364e\\\037\327"
  52      50EE6C8D 
  52      054DBB23 
  52      4304F465 
  52      5C1FD7
  53 0169 343D99B7 		.ascii	"4=\231\267r\326\334\274n\227\364|vY_\261W\327J\272a"
  53      72D6DCBC 
  53      6E97F47C 
  53      76595FB1 
  53      57D74ABA 
  54 017e 170A7651 		.ascii	"\027\012vQ\237I\247\222\251\015\275\270n\031\232\001"
  54      9F49A792 
  54      A90DBDB8 
  54      6E199A01 
  55 018e 42514B7C 		.ascii	"BQK|\002\020\\\224\200"
  55      02105C94 
  55      80
  56              		.text
  57              		.section	.gnu.lto_nvicDisableVector.97fffd9d7fed9425,"",%progbits
  58 0000 789C7D50 		.ascii	"x\234}P=K\003A\020\235\267w\247\211\202bie\320F\220"
  58      3D4B0341 
  58      109DB777 
  58      A7898262 
ARM GAS  /tmp/ccARsyzv.s 			page 4


  58      6965D046 
  59 0015 DC291616 		.ascii	"\334)\026\026V\222:\010\032A\313\344\212\344\300\344"
  59      56923A08 
  59      1A41CBE4 
  59      8AE4C0E4 
  60 0025 C488D8E5 		.ascii	"\304\210\330\345\342\305\316\"\205\205\037\215\301."
  60      E2C5CE22 
  60      85851F8D 
  60      C12E
  61 0033 C40FB011 		.ascii	"\304\017\260\021\004\011\001\013\213\010\376\203`#X"
  61      0409010B 
  61      8B08FE83 
  61      602358
  62 0042 88689342 		.ascii	"\210h\223B8g/9%\026\016\354\316\354\2747ofV\220\240"
  62      38672F39 
  62      25160EEC 
  62      CEECBC37 
  62      6F665690 
  63 0057 BF36CAE7 		.ascii	"\2776\312\347\036D\263\354\241\020D\371\221\250\030"
  63      1E44B3EC 
  63      A11044F9 
  63      91A818
  64 0066 12800C08 		.ascii	"\022\200\014\010T\020(\254AR1N\025\307)\267\366^\332"
  64      541028AC 
  64      4152314E 
  64      15C729B7 
  64      F65EDA
  65 0079 E2E8A05E 		.ascii	"\342\350\240^:u\276<\017\260\300\262\323 \023\264\312"
  65      3A75BE3C 
  65      0FB0C0B2 
  65      D32013B4 
  65      CA
  66 008a 0F447C27 		.ascii	"\017D|'\324\336>\227\242\336\362\274\332\365\325s\025"
  66      D4DE3E97 
  66      A2DEF2BC 
  66      DAF5D573 
  66      15
  67 009b 2361202B 		.ascii	"#a +\253,(\012%Qae\225\037\244\361%\3534*q\243\010I"
  67      AB2C280A 
  67      25516165 
  67      951FA4F1 
  67      25EB342A 
  68 00b3 4DB604DF 		.ascii	"M\266\004\337r\232\025\010\351\225&\271\027\356\347"
  68      729A1508 
  68      E99526B9 
  68      17EEE7
  69 00c2 FE641267 		.ascii	"\376d\022g\320(\015\221\006dO\256#j\322\356\233{\207"
  69      D0280D91 
  69      06644FAE 
  69      236AD2EE 
  69      9B7B87
  70 00d5 00531893 		.ascii	"\000S\030\223I\367V\011R*g}\372\230Ow\317\335\217\037"
  70      49F75609 
  70      522A677D 
  70      FA984F77 
  70      CFDD8F1F 
  71 00e9 BA260115 		.ascii	"\272&\001\025\222%\261\306\303\373`\007\212R\315)\025"
ARM GAS  /tmp/ccARsyzv.s 			page 5


  71      9225B1C6 
  71      C3FB6007 
  71      8A52CD29 
  71      15
  72 00fa 9D790BDA 		.ascii	"\235y\013\332\024Ue8l\241\357\204\216\231\337/\213B"
  72      14556538 
  72      6CA1EF84 
  72      8E99DF2F 
  72      8B42
  73 010c 4EC37586 		.ascii	"N\303u\206\374\335C\376\306)t6\347\371(\2104_\364\346"
  73      FCDD43FE 
  73      C6297436 
  73      E7F92888 
  73      345FF4E6 
  74 0120 F0B58D1E 		.ascii	"\360\265\215\036\3319\013\341_\331\201\377e\321\025"
  74      D9390BE1 
  74      5FD981FF 
  74      65D115
  75 012f EBEAFB58 		.ascii	"\353\352\373XX\006OTlU':\302\201%\230\306\177&G\210"
  75      58064F54 
  75      6C55273A 
  75      C2812598 
  75      C67F2647 
  76 0144 EABA11CB 		.ascii	"\352\272\021\313X)kq\331\260\363F&\271nl\330\233[y\303"
  76      58296B71 
  76      D9B0F346 
  76      26B96E6C 
  76      D89B5B79 
  77 0159 B4B3593B 		.ascii	"\264\263Y;g,,\305c\361\035#\267m\231\272IJN\237\371"
  77      672C2CC5 
  77      63F11D23 
  77      B76D99BA 
  77      494A4E9F 
  78 016e 06CE8A78 		.ascii	"\006\316\212xt"
  78      74
  79              		.text
  80              		.section	.gnu.lto_nvicSetSystemHandlerPriority.97fffd9d7fed9425,"",%progbits
  81 0000 789C5D50 		.ascii	"x\234]P-O\003A\020}o\267\0270\340q$\225\344n%\232T!"
  81      2D4F0341 
  81      107D6FB7 
  81      1730E071 
  81      2495E46E 
  82 0018 1A122809 		.ascii	"\032\022(\011\310\366D\273\011\327#\224\020\\\367\270"
  82      C8F644BB 
  82      09D72394 
  82      105CF7B8 
  83 0028 0649AA41 		.ascii	"\006I\252Aa\011\037\202?@\021\270^\202E\325c\020\370"
  83      61091F82 
  83      3F4011B8 
  83      5E8245D5 
  83      6310F8
  84 003b 327B9733 		.ascii	"2{\2273L2\263og\336\274}Y\005\205\377\261!\371#i$\251"
  84      4C32B36F 
  84      67DEBC7D 
  84      590585FF 
  84      B121F923 
  85 0052 41352D80 		.ascii	"A5-\200lU\221\036\200\030+\216\217Yr_\324\333b\271|"
ARM GAS  /tmp/ccARsyzv.s 			page 6


  85      6C55911E 
  85      80182B8E 
  85      8F59725F 
  85      D4DB62B9 
  86 0067 FEBDFE98 		.ascii	"\376\275\376\230\261h\256\220\011E\321\022\332\227@"
  86      B168AE90 
  86      0945D112 
  86      DA9740
  87 0076 AE9E1760 		.ascii	"\256\236\027`\342\334t3\241<\026\227\213\035\251^\355"
  87      E2DC7433 
  87      A13C1697 
  87      8B1DA95E 
  87      ED
  88 0087 505A72EA 		.ascii	"PZr\3529\256\276\363\327\233\260\313{\006\350S\365\375"
  88      39AEBEF3 
  88      D79BB0CB 
  88      7B06E853 
  88      F5FD
  89 0099 E21CF993 		.ascii	"\342\034\371\223\256[Z\272G\264d\003~\362\276[\015B"
  89      AE5B5ABA 
  89      47B46403 
  89      7EF2BE5B 
  89      0D42
  90 00ab 3CBA49E6 		.ascii	"<\272I\346\266e\260\205\007\017\327,\325\035n\205\252"
  90      B665B085 
  90      070FD72C 
  90      D51D6E85 
  90      AA
  91 00bc 3DBFE1BE 		.ascii	"=\277\341\276r\267\216\022\226\236{\225u\221\014P#\015"
  91      72B78E12 
  91      969E7B95 
  91      75910C50 
  91      230D
  92 00ce 7C225B14 		.ascii	"|\"[\024\315J\264\216\216\270\020{\376\217\302(2\255"
  92      CD4AB48E 
  92      8EB8107B 
  92      FE8FC228 
  92      32AD
  93 00e0 81EDD9BD 		.ascii	"\201\355\331\275\003\223\216\314\240{bN\323\263\363"
  93      03938ECC 
  93      A07B624E 
  93      D3B3F3
  94 00ef 9189D324 		.ascii	"\221\211\323$I\207fg\277\335j_\232\341\205\215\243\030"
  94      49876667 
  94      BFDD6A5F 
  94      9AE1858D 
  94      A318
  95 0101 7F83C847 		.ascii	"\177\203\310G\205"
  95      85
  96              		.text
  97              		.section	.gnu.lto_nvicClearPending.97fffd9d7fed9425,"",%progbits
  98 0000 789C5D50 		.ascii	"x\234]P1H\303P\020\275\367\177\222\352\2428:Yt\021\244"
  98      3148C350 
  98      10BDF77F 
  98      92EAA238 
  98      3A597411 
  99 0015 89E8E824 		.ascii	"\211\350\350$\235\034\212\240\025tL3\264\001\333\210"
ARM GAS  /tmp/ccARsyzv.s 			page 7


  99      9D1C8AA0 
  99      15744C33 
  99      B401DB88 
 100 0025 1571EBAF 		.ascii	"\025q\353\257\351,\035\\\324\305\342&Uw\273\224\356"
 100      E92C1D5C 
 100      D4C5E226 
 100      5577BB94 
 100      EE
 101 0036 15DD1D8A 		.ascii	"\025\335\035\212 \024\007W\027!\336OMA\017\376\277\373"
 101      20140757 
 101      1721DE4F 
 101      4D410FFE 
 101      BFFB
 102 0048 EFDEBDBB 		.ascii	"\357\336\275\273\177\202\004\375\267Y>\012D\253\354"
 102      7F8204FD 
 102      B7593E0A 
 102      44ABEC
 103 0057 2109A2F9 		.ascii	"!\011\242\371DT\237\020\200\016\010T\023\250\355AS1"
 103      44549F10 
 103      800E0854 
 103      13A8ED41 
 103      5331
 104 0069 4F2DA59A 		.ascii	"O-\245\232\203\367\257gyq\336m\\\253\357(\002|\260\354"
 104      83F7AF67 
 104      7971DE6D 
 104      5CABEF28 
 104      027CB0EC 
 105 007d 32C803ED 		.ascii	"2\310\003\355\362\003\351\330\011\343o\237\007\321\035"
 105      F203E9D8 
 105      09E36F9F 
 105      07D11D
 106 008c 44D16BA7 		.ascii	"D\321k\247\3756\304\314$P\326U>\244$\027-V6\370A\246"
 106      FD36C4CC 
 106      2450D655 
 106      3EA42417 
 106      2D5636F8 
 107 00a2 BE2C0D73 		.ascii	"\276,\015s\205I\015\356\226&-\314\226\347[\217\264\003"
 107      85490DEE 
 107      96262DCC 
 107      96E75B8F 
 107      B403
 108 00b4 A1BDEC53 		.ascii	"\241\275\354Sx\037Fg\213.n`R\021\242\010\350\306\\G"
 108      781F4667 
 108      8B2E6E60 
 108      5211A208 
 108      E8C65C47 
 109 00c8 D4A7D3CF 		.ascii	"\324\247\323\317\360\003INrN\203aG&\220\301hL\237\213"
 109      F003494E 
 109      724E8361 
 109      472690C1 
 109      684C9F8B 
 110 00dc E9E1DD38 		.ascii	"\351\341\3358c\30604\347W\350q,dqZ\203\275\215\021\222"
 110      63C63034 
 110      E757E871 
 110      2C64715A 
 110      83BD8D11 
 111 00f1 A1B66AD4 		.ascii	"\241\266j\324\325\232\017c\211nu8\355\303\274\242K\226"
ARM GAS  /tmp/ccARsyzv.s 			page 8


 111      D59A0F63 
 111      896E7538 
 111      EDC3BCA2 
 111      4B96
 112 0103 B0B44E4A 		.ascii	"\260\264NJ\365B5\025o$\025\357\241\200\321>x`J\"\213"
 112      F5423515 
 112      6F2415EF 
 112      A180D13E 
 112      78604A22 
 113 0118 E885EA83 		.ascii	"\350\205\352\203\341\302H4\261<\017\315?\325\274\214"
 113      E1C24834 
 113      B13C0FCD 
 113      3FD5BC8C 
 114 0128 6D3BD992 		.ascii	"m;\331\222_\3607\267\235\240\352\224\334}\347 8<\252"
 114      5FF037B7 
 114      9DA0EA94 
 114      DC7DE720 
 114      383CAA
 115 013b 3A5E502E 		.ascii	":^P.\007\025g}+\227\315\2358\225c\337\263=\222\025{"
 115      0715677D 
 115      2B97CD9D 
 115      389563DF 
 115      B33D9215 
 116 0150 E5077161 		.ascii	"\345\007qahb"
 116      6862
 117              		.text
 118              		.section	.gnu.lto_.symbol_nodes.97fffd9d7fed9425,"",%progbits
 119 0000 789C4DC7 		.ascii	"x\234M\307\261\025\000\020\020D\301\275\257/\255m*<"
 119      B1150010 
 119      1044C1BD 
 119      AF2FAD6D 
 119      2A3C
 120 0012 E44A5293 		.ascii	"\344JR\223\304{L6\010U]$\226rK\366jA\307\361u`\276N"
 120      C47B4C36 
 120      08555D24 
 120      96724BF6 
 120      6A41C7F1 
 121 002a 5C5E7500 		.ascii	"\\^u\000Ff\022\247"
 121      466612A7 
 122              		.text
 123              		.section	.gnu.lto_.refs.97fffd9d7fed9425,"",%progbits
 124 0000 789C6362 		.ascii	"x\234cb`b`d\200\002\000\000F\000\006"
 124      60626064 
 124      80020000 
 124      460006
 125              		.text
 126              		.section	.gnu.lto_.decls.97fffd9d7fed9425,"",%progbits
 127 0000 789CBD59 		.ascii	"x\234\275Yml\024\307\031\236\331\273\303\276\340:\020"
 127      6D6C14C7 
 127      199ED9BB 
 127      C3BEE03A 
 127      10
 128 0011 E5835454 		.ascii	"\345\203TT8U\023Ui\355\003\307\021\316\237\010s6\365"
 128      38551355 
 128      69ED03C7 
 128      11CE9F08 
 128      7336F5
ARM GAS  /tmp/ccARsyzv.s 			page 9


 129 0024 FD7062DD 		.ascii	"\375pb\335\001\252\024\211c9/\361I\366\035=\037m\370"
 129      01AA1489 
 129      63392FF1 
 129      49F61D3D 
 129      1F6DF8
 130 0037 378E434B 		.ascii	"7\216CK\012IM\200\324M\211uPS\212\352\020\352\020\313"
 130      0A494D80 
 130      D44D8975 
 130      50538AEA 
 130      10EA10CB 
 131 004b 46889E08 		.ascii	"F\210\236\010JI\023)@> \230\220K\243(M\323\324\211\362"
 131      4A491329 
 131      403E2098 
 131      904BA328 
 131      4DD3D489 
 132 0060 5554C2F5 		.ascii	"UT\302\365\235\331\235\335\235\275\235\363nTu\245yo"
 132      9DD99DDD 
 132      9DBD9DF3 
 132      6E5475A5 
 132      796F
 133 0072 76F79D67 		.ascii	"v\367\235g\236\347\235wg_\257\025\244\240\035\030\241"
 133      9EE79D77 
 133      675FAF15 
 133      A4A01D18 
 133      A1
 134 0083 321C996F 		.ascii	"2\034\231o#\364\252\202P\010!t/\262\216 \264}\320&\240"
 134      23F4AA82 
 134      50082174 
 134      2FB28E20 
 134      B47DD026 
 135 0098 4D413B81 		.ascii	"MA;\201*\017z\277\316\360\2557\372\000\213j\220\216"
 135      2A0F7ABF 
 135      CEF0AD37 
 135      FA008B6A 
 135      908E
 136 00aa 7712DA4B 		.ascii	"w\022\332K\320^\201\366\005\264\327\240\235\203\026"
 136      D05E81F6 
 136      05B4D7A0 
 136      9D8316
 137 00b9 80F631B4 		.ascii	"\200\3661\264\367\240\2355\306P,\240\201\236\205\366"
 137      F7A09D35 
 137      C6502CA0 
 137      819E85F6 
 138 00c9 8C631ECA 		.ascii	"\214c\036\312a\276c\036>\007\307\344s\3609)\326\214"
 138      61BE631E 
 138      3E07C7E4 
 138      73F03929 
 138      D68C
 139 00db 310F3630 		.ascii	"1\01760\350\357\244\003{\312\300\301\306\330/\241]\201"
 139      E8EFA403 
 139      7BCAC0C1 
 139      C6D82FA1 
 139      5D81
 140 00ed B60CEBD7 		.ascii	"\266\014\353\327\346\033\277S\006\357\343\320\216Ak"
 140      E61BBF53 
 140      06EFE3D0 
 140      8E416B
ARM GAS  /tmp/ccARsyzv.s 			page 10


 141 00fc C6220E8D 		.ascii	"\306\"\016\215O\255\013G'?l\350\306\306\030\372[tpZ"
 141      4FAD0B47 
 141      273F6CE8 
 141      C6C618FA 
 141      5B74705A 
 142 0110 824649A1 		.ascii	"\202FI\241T:0\3722&O\220\253\345r\000\335\214\366\020"
 142      543A30FA 
 142      32264F90 
 142      ABE57200 
 142      DD8CF610 
 143 0124 380A3F27 		.ascii	"8\012?'\004\347U|\357M\350\307X\305\365a\324\300:ua"
 143      04E7557C 
 143      EF4DE8C7 
 143      58C5F561 
 143      D4C03A75 
 144 0139 3631422A 		.ascii	"61B*\336\217of\275\000\013\001\012\243m\204<L\007v\236"
 144      DE8F6F66 
 144      BD000B01 
 144      0AA36D84 
 144      3C4C0776 
 145 014e 065E6EA3 		.ascii	"\006^n\243nGc\204\014\227\316\036\332\361CBjU<\206\303"
 145      6E476384 
 145      0C97CE1E 
 145      DAF14342 
 145      6A553C86 
 146 0163 30760C63 		.ascii	"0v\014ct':\004\223\016\023\262\177\271\202*\017\357"
 146      74273A04 
 146      930E13B2 
 146      7FB9822A 
 146      0FEF
 147 0175 D86F6D3F 		.ascii	"\330om?~\017\303\376\003\303\236V00=\210\3574\200T\\"
 147      7E0FC3FE 
 147      03C39E56 
 147      30303D88 
 147      EF348054 
 148 018a 13B603B3 		.ascii	"\023\266\003\263s\356@\321\330m\243C\263\366z\344\327"
 148      73EE40D1 
 148      D86DA343 
 148      B3F67AE4 
 148      D7
 149 019b DD0887AE 		.ascii	"\335\010\207\256\216u\326\004L\000\005\235r0\372\036"
 149      8E75D604 
 149      4C00059D 
 149      7230FA1E 
 150 01ab FA1D214F 		.ascii	"\372\035!O\300\022\214\335J\012\012\217\311\033\314"
 150      C0128CDD 
 150      4A0A0A8F 
 150      C91BCC
 151 01ba 6B1F5EE2 		.ascii	"k\037^\342\252\325\300\326\207\222i\255\223\017;\357"
 151      AAD5C0D6 
 151      879269AD 
 151      930F3BEF 
 152 01ca 65184277 		.ascii	"e\030Bw\240\003t\215\037#[\027`\266\304\310\030%H\035"
 152      A003748D 
 152      1F235B17 
 152      60B6C4C8 
 152      1825481D 
ARM GAS  /tmp/ccARsyzv.s 			page 11


 153 01de C7C252E8 		.ascii	"\307\302R\350\271R<\372b\335\360`\251\\^\342=Q\236\023"
 153      B9523CFA 
 153      62DDF060 
 153      A95C5EE2 
 153      3D519E13 
 154 01f2 1345A7E1 		.ascii	"\023E\247\341\010\313%\327\260\220]\\\233\212\017\003"
 154      08CB25D7 
 154      B0905D5C 
 154      9B8A0F03 
 155 0202 1D154F7C 		.ascii	"\035\025O|#m\023Nm\317\273j\373\234k\323\223[A\377r"
 155      236D134E 
 155      6DCFBB6A 
 155      FB9C6BD3 
 155      935B41FF 
 156 0217 67658BF8 		.ascii	"ge\213\370\366\000\365\230\362\264P_[b\21601s\014\223"
 156      F600F598 
 156      F2B4505F 
 156      5B628E30 
 156      31730C93 
 157 022b 8899728A 		.ascii	"\210\231r\212\231v\025s\354/\246\230\347\230\230]\001"
 157      99761573 
 157      EC2FA698 
 157      E798985D 
 157      01
 158 023c 57313B9D 		.ascii	"W1;\235!>\361\215X\235p\262\372\263\310\212=\302C\244"
 158      213EF18D 
 158      589D70B2 
 158      FAB3C88A 
 158      3DC243A4 
 159 0250 74802C1A 		.ascii	"t\200,\032\261\036\341Z>\001\335\235\370\366\360\341"
 159      B11EE15A 
 159      3E01DD9D 
 159      F8F6F0E1 
 160 0260 45051E61 		.ascii	"E\005\036a\343\231\2576@\305/\340\333\301b\361\241\304"
 160      E399AF36 
 160      40C52FE0 
 160      DBC162F1 
 160      A1C4
 161 0272 61AB53C6 		.ascii	"a\253S\3064\273\306\034\322=`\233\373\311h+\333O^d\313"
 161      34BBC61C 
 161      D23D609B 
 161      FBC9682B 
 161      DB4F5E64 
 162 0287 3D1E70EE 		.ascii	"=\036p\356'\330\261\237\314\301\305\217\357B4L\343\334"
 162      27D8B19F 
 162      CCC1C58F 
 162      EF42344C 
 162      E3DC
 163 0299 3052AFE2 		.ascii	"0R\257\342\223p\315\240I\256\347<?\321\001\355~\247"
 163      9370CDA0 
 163      49AEE73C 
 163      3FD101ED 
 163      7EA7
 164 02ab AAF8A9F8 		.ascii	"\252\370\251\370\257x\241\245\237\030\373)s\221=\273"
 164      AF78A1A5 
 164      9F18FB29 
 164      73913DBB 
ARM GAS  /tmp/ccARsyzv.s 			page 12


 165 02bb 2F1BFA8C 		.ascii	"/\033\372\214\313fg\026\013J\270\033\272\001\355d\\"
 165      CB666716 
 165      0B4AB81B 
 165      BA01ED64 
 165      5C
 166 02cc 6CDB74A1 		.ascii	"l\333t\241\204\371\250G\026[\221}{fv\025\213\354+\370"
 166      84F9A847 
 166      165B917D 
 166      7B667615 
 166      8BEC2BF8 
 167 02e0 0688ECDF 		.ascii	"\006\210\354\337\034\221\365\000D'~\025\006\353\303"
 167      1C91F500 
 167      44277E15 
 167      06EBC3
 168 02ef 182C29EE 		.ascii	"\030,)\356\234\251#A\375:\022\000\205\3436T \217\014"
 168      9CA92341 
 168      FD3A1200 
 168      85E33654 
 168      208F0C
 169 0302 16F7CCEC 		.ascii	"\026\367\314\354\306\244p\022\363\010\236\2567\322\264"
 169      C6A47012 
 169      F3089EAE 
 169      37D2B4
 170 0311 DA9B46C5 		.ascii	"\332\233F\305\007X\326\315\375*\340\013\241\360\341"
 170      0758D6CD 
 170      FD2AE00B 
 170      A1F0E1
 171 0320 0DC27AD1 		.ascii	"\015\302z\321\320\217\331\326\313\341\246\342\327}/"
 171      D08FD9D6 
 171      CBE1A6E2 
 171      D77D2F
 172 032f D71B92E5 		.ascii	"\327\033\222\345\252\021V\213{A\330\377\311\302N\243"
 172      AA11568B 
 172      7B41D8FF 
 172      C9C24EA3 
 173 033f E5CAC2C4 		.ascii	"\345\312\302\304\341\240\365f\272\323\020B\274\237|"
 173      E1A0F566 
 173      BAD31042 
 173      BC9F7C
 174 034e 60589509 		.ascii	"`X\225\011\232\307\307\2577&\276\340[\320[\022A\267"
 174      9AC7C7AF 
 174      3726BEE0 
 174      5BD05B12 
 174      41B7
 175 0360 20AEE0D3 		.ascii	" \256\340\323\012\005\302\264BH+\025@\022\214\200\002"
 175      0A05C2B4 
 175      42482B15 
 175      40128C80 
 175      02
 176 0371 159F036A 		.ascii	"\025\237\003j\012\372\217\247p\020,\217\307S\014\355"
 176      0AFA8FA7 
 176      70102C8F 
 176      C7530CED 
 177 0381 02432341 		.ascii	"\002C#A/\324\01224\340\266\327\306\355\321\0124Wn\212"
 177      2FD40A32 
 177      34E0B6D7 
 177      C6EDD10A 
ARM GAS  /tmp/ccARsyzv.s 			page 13


 177      34576E8A 
 178 0395 9CDBA88D 		.ascii	"\234\333\250\215\333\343\336\270\311\320\200\333\021"
 178      DBE3DEB8 
 178      C9D080DB 
 178      11
 179 03a2 1BB7116F 		.ascii	"\033\267\021o\334\002rn\0236nO{\343&C\003nGm\334\016"
 179      DC02726E 
 179      13366E4F 
 179      7BE32643 
 179      036E476D 
 180 03b8 7AE31694 		.ascii	"z\343\026\224s\233\254\222\343\365\034\240\3047\331"
 180      739BAC92 
 180      E3F51CA0 
 180      C437D9
 181 03c7 7FF84EF2 		.ascii	"\177\370N\362\217$I\276\334L\362\361\012\015\342\274"
 181      8F2449BE 
 181      DC4CF2F1 
 181      0A0DE2BC 
 182 03d7 3C243211 		.ascii	"<$2\021\020\222\251\007\216\254W\361K,$\223\025p\342"
 182      1092A907 
 182      8EAC57F1 
 182      4B2C2493 
 182      1570E2
 183 03ea BB82C764 		.ascii	"\273\202\307d\236<&\307\252\304d\237\271O\017\337hH"
 183      9E3C26C7 
 183      AAC4649F 
 183      B94F0FDF 
 183      6848
 184 03fc FCC47750 		.ascii	"\374\304wP>\225\004e(dFe\272B\206cf\256\251F\026\226"
 184      3E950465 
 184      28644665 
 184      BA428663 
 184      66AEA946 
 185 0412 A1E2F199 		.ascii	"\241\342\361\231:\232*\257\261\327\373\013N@\201\025"
 185      3A9A2AAF 
 185      B1D7FB0B 
 185      4E408115 
 186 0422 8FCA6217 		.ascii	"\217\312b\0274\267\303\376vR\361\031\366\3228\213o\003"
 186      34B7C3FE 
 186      7652F119 
 186      F6D2388B 
 186      6F03
 187 0434 7B9ED919 		.ascii	"{\236\331\031f\337f\366\035f\337e\366=f\337g\366\003"
 187      66DF66F6 
 187      1D66DF65 
 187      F63D66DF 
 187      67F603
 188 0447 663F64F6 		.ascii	"f?d\366cfg\231\375\014\254y\314G\277\264\376<\322_\250"
 188      63666799 
 188      FD0CAC79 
 188      CC47BFB4 
 188      FE3CD25F 
 189 045c B2A87E81 		.ascii	"\262\250~\201\347\363Q\222\362b=\037RW\341uJ\352\245"
 189      E7F35192 
 189      F2623D1F 
 189      5257E175 
 189      4AEAA5
ARM GAS  /tmp/ccARsyzv.s 			page 14


 190 046f E2AF7C2F 		.ascii	"\342\257|/\360\277%\013l\022\024\274\334\012\202\222"
 190      F0BF250B 
 190      6C1214BC 
 190      DC0A8292 
 191 047f 59B1EDB0 		.ascii	"Y\261\355\260J\266\342;\227q\203\212\257\260\252\342"
 191      4AB6E23B 
 191      9771838A 
 191      AFB0AAE2 
 192 048f 7470CEAA 		.ascii	"tp\316\252\302\001B\347\274ZQT\\fE\305\325\271\213\212"
 192      C20142E7 
 192      BC5A5154 
 192      5C6645C5 
 192      D5B98B8A 
 193 04a3 DD43C53D 		.ascii	"\335C\305=\227w\337J\213\012\263\224(\376\017J\011\005"
 193      9777DF4A 
 193      8B0AB394 
 193      28FE0F4A 
 193      0905
 194 04b5 9D6552AE 		.ascii	"\235eR\256V\317M$O\364'/\333\022\375\274o\260\006\001"
 194      56CF4D24 
 194      4FF4272F 
 194      DB12FDBC 
 194      6FB00601 
 195 04c9 6CC40E76 		.ascii	"l\304\016v\311\013X\255\234\331Sv\260w}\203\211\314"
 195      C90B58AD 
 195      9CD95376 
 195      B0777D83 
 195      89CC
 196 04db F6DAC13E 		.ascii	"\366\332\301>\360\002\266@\316l\324\016\366\221o0;3"
 196      F002B640 
 196      CE6CD40E 
 196      F6916F30 
 196      3B33
 197 04ed 785FAEA3 		.ascii	"x_\256\243\033\360\227l\003\236ub\011\317\223\321]$"
 197      1BF0976C 
 197      039E7562 
 197      09CF93D1 
 197      5D24
 198 04ff 27366127 		.ascii	"'6a'\366\231\027b\015\362\220\035\265\203]\361\002\366"
 198      F6991762 
 198      0DF2901D 
 198      B5835DF1 
 198      02F6
 199 0511 7D39B349 		.ascii	"}9\263I;\3305\337`\"\263);\330P\310\003\330R9\263cv"
 199      3BD835DF 
 199      6022B329 
 199      3BD850C8 
 199      03D85239 
 200 0528 B06DBEC1 		.ascii	"\260m\276\301Df\307\355`\217{\001k\2253;a\007\333\345"
 200      4466C7ED 
 200      608F7B01 
 200      6B95333B 
 200      6107DBE5 
 201 053c 1BCCC66C 		.ascii	"\033\314\306l\367`\361\314:\363\305\\XA\267\340\262"
 201      F760F1CC 
 201      3AF3C55C 
 201      5841B7E0 
ARM GAS  /tmp/ccARsyzv.s 			page 15


 201      B2
 202 054d B56BAF10 		.ascii	"\265k\257\020\037 \301mL\352\246\342\247\025\277\233"
 202      1F20C16D 
 202      4CEAA6E2 
 202      A715BF9B 
 203 055d FBA8E2BE 		.ascii	"\373\250\342\276\271\213\1776r/ZA:e\013$\214\356\012"
 203      B98B7F36 
 203      722F5A41 
 203      3A650B24 
 203      8CEE0A
 204 0570 490C61D7 		.ascii	"I\014a\327=\247\307\260\314b\270\327K\014;\345`\257"
 204      3DA7C7B0 
 204      CC62B8D7 
 204      4B0C3BE5 
 204      60AF
 205 0582 DBC10ABE 		.ascii	"\333\301\012\276\301\304\005ys\235X)\331\326\203\230"
 205      C1C40579 
 205      739D5829 
 205      D9D68398 
 206 0592 E5CA02FB 		.ascii	"\345\312\002\373\202T\024T\0167\025\377\336\367\202"
 206      82541454 
 206      0E3715FF 
 206      DEF782
 207 05a1 1C942C88 		.ascii	"\034\224,\210\365\021\316\356E\277\2318e\213,\214n\267"
 207      F511CEEE 
 207      45BF9938 
 207      658B2C8C 
 207      6EB7
 208 05b3 2C8883C5 		.ascii	",\210\203\305\013r\335\005\023\352\306j\272\235n*\376"
 208      0B72DD05 
 208      13EAC66A 
 208      BA9D6E2A 
 208      FE
 209 05c4 A36FDDE3 		.ascii	"\243o\335\343\022\335AA\367\270\245\373\220S\267\310"
 209      12DD4141 
 209      F7B8A5FB 
 209      9053B7C8 
 210 05d4 C2E8AE97 		.ascii	"\302\350\256\227\350\206b\341\342:\232;\224\251\212"
 210      E88662E1 
 210      E23A9A3B 
 210      94A98A
 211 05e3 2FB22F6A 		.ascii	"/\262/js\201m\222$\017l\015\227\354[\303a/\231\270\315"
 211      73816D92 
 211      240F6C0D 
 211      97EC5BC3 
 211      612F99B8 
 212 05f8 EDCF49B7 		.ascii	"\355\317I\267\303^\347\250\370kV\210\\c\305\345\240"
 212      C35EE7A8 
 212      F86B5688 
 212      5C63C5E5 
 212      A0
 213 0609 42ED10B3 		.ascii	"B\355\020\263[\231\375\005\263\2172\273\235\331\307"
 213      5B99FD05 
 213      B38F32BB 
 213      9DD9C7
 214 0618 98FD15B3 		.ascii	"\230\375\025\263;\231\335\305\354\036f\177\315\354o"
 214      3B99DDC5 
ARM GAS  /tmp/ccARsyzv.s 			page 16


 214      EC1E667F 
 214      CDEC6F
 215 0627 98FD2DB3 		.ascii	"\230\375-\263\005f\3673;\306\354!f\0173\373\254\"/g"
 215      0566F733 
 215      3BC6EC21 
 215      660F33FB 
 215      AC222F67 
 216 063b AF542967 		.ascii	"\257T)g\377\244\230\325\342w\321>r\346Li\353\354\010"
 216      FFA498D5 
 216      E277D13E 
 216      72E64C69 
 216      EBEC08
 217 064e DE5622C3 		.ascii	"\336V\"\303\344Z\271\214\255\342\325\374\342W\254\376"
 217      E45AB98C 
 217      ADE2D5FC 
 217      E257ACFE 
 218 065e C58FFE0F 		.ascii	"\305\217\376\017B\261}\036\\\344\356\253\342\347\025"
 218      42B17D1E 
 218      5CE4EEAB 
 218      E2E715
 219 066d 1AAF495B 		.ascii	"\032\257I[v\351}\336\323?<\036\0159\376{c\005\277\372"
 219      76E97DDE 
 219      D33F3C1E 
 219      0D39FE7B 
 219      6305BFFA 
 220 0681 5063D2BF 		.ascii	"Pc\322\277\233\351\362\035\341A\241\3258u\225\270\251"
 220      9BE9F21D 
 220      E141A1D5 
 220      387595B8 
 220      A9
 221 0692 78CAF783 		.ascii	"x\312\367\2032-yP\026\013\254\247\255\007e:\344\370"
 221      322D7950 
 221      160BACA7 
 221      AD07653A 
 221      E4F8
 222 06a4 F4ED64A1 		.ascii	"\364\355d\241\240\223!^R_G;\215MM\221hozC\372\376D$"
 222      A093215E 
 222      525F473B 
 222      8D4D4D91 
 222      686F7A43 
 223 06bc 3B10E955 		.ascii	";\020\351U\373\"\233\262\271\374@$\225\355\357\317f"
 223      FB229BB2 
 223      B9FC4024 
 223      95EDEFCF 
 223      66
 224 06cd 226DF1AE 		.ascii	"\"m\361\256h\327C\221\314O\323\251\246\024\032\210d"
 224      68D74391 
 224      CC4FD3A9 
 224      A6141A88 
 224      64
 225 06de 36B27677 		.ascii	"6\262vw\2447\333\257Er\332\200\246\346R\2750.\327\363"
 225      A437DBAF 
 225      4572DA80 
 225      A6E652BD 
 225      302ED7F3 
 226 06f2 3335A745 		.ascii	"35\247E\324\\\177s\344\301T\252\021:\215Z\377\006\255"
 226      D45C7F73 
ARM GAS  /tmp/ccARsyzv.s 			page 17


 226      E4C154AA 
 226      113A8D5A 
 226      FF06AD
 227 0705 A747EB31 		.ascii	"\247G\3531/d\262\031\255QS7\244\033[\222\255\215\315"
 227      2F64B219 
 227      AD515337 
 227      A41B5B92 
 227      AD8DCD
 228 0718 4B97B5FC 		.ascii	"K\227\265\374\2449\"\334\210\2443\251\276\315=Zd \337"
 228      A43922DC 
 228      88A433A9 
 228      BECD3D5A 
 228      6420DF
 229 072b 93CEE49B 		.ascii	"\223\316\344\233zQ\355f\370\275\2539\231\237\367\243"
 229      7A51ED66 
 229      F8BDAB39 
 229      999FF7A3 
 230 073b FBD63444 		.ascii	"\373\3264D\321\020\376\377\221\350WS\275\351\214\026"
 230      D110FEFF 
 230      91E85753 
 230      BDE98C16 
 231 074b 49F6681B 		.ascii	"I\366h\033\325\315}\371d~\313&m\000H]\227LrZ\013hl:"
 231      D5CD7DF9 
 231      647ECB26 
 231      6D00485D 
 231      974C725A 
 232 0763 32EA863E 		.ascii	"2\352\206>m\255\226\312gs8\023\334\224Kg\027\322\353"
 232      6DAD96CA 
 232      67733813 
 232      DC944B67 
 232      17D2EB
 233 0776 EDE901EB 		.ascii	"\355\351\001\353\306bz%\241\345\023[\006\362Z\177\247"
 233      C6627A25 
 233      A1E5135B 
 233      06F25A7F 
 233      A7
 234 0787 9AE9E9D3 		.ascii	"\232\351\351\323r\335\340\232K\347\267\324\364\352\347"
 234      72DDE09A 
 234      4BE7B7D4 
 234      F4EAE7
 235 0796 0C2EDA07 		.ascii	"\014.\332\007\212\272\265\014\204\340\301\032:Qk2\037"
 235      8ABAB50C 
 235      84E0C11A 
 235      3A516B32 
 235      1F
 236 07a7 D6A784DE 		.ascii	"\326\247\204\336\017\3045\323\036\312G\242]\211X\302"
 236      0FC435D3 
 236      1ECA47A2 
 236      5D8958C2 
 237 07b7 A49DCAE6 		.ascii	"\244\235\312\346\264d\252\277\005\210\206\357[\033\213"
 237      B464AABF 
 237      058886EF 
 237      5B1B8B
 238 07c6 265703ED 		.ascii	"&W\003\355`,\321\021\017\307"
 238      602CD111 
 238      0FC7
 239 07d0 3BC0AEED 		.ascii	";\300\256\355h_\032\214E;\342\265q\375l\031\334\354"
ARM GAS  /tmp/ccARsyzv.s 			page 18


 239      685F1A8C 
 239      453BE2B5 
 239      71FD6C19 
 239      DCEC
 240 07e2 B66E36C3 		.ascii	"\266n6\303M\333\351]\301X\333J\353\264E\211u\233'w\007"
 240      4DDBE95D 
 240      C158DB4A 
 240      EBB44589 
 240      759B2777 
 241 07f7 13AB63F1 		.ascii	"\023\253c\361\332Dt%\233$\024\355^\023k\207\341\211"
 241      DA447425 
 241      9B2414ED 
 241      5E136B87 
 241      E189
 242 0809 7870EDEA 		.ascii	"xp\355\352\373\343\241\266X<\032\017$\240E\351ogw(\321"
 242      FBE3A1B6 
 242      583C1A0F 
 242      24A045E9 
 242      6F677728 
 243 081e 496F4657 		.ascii	"IoFW\201\351\244\246\035L\250\253kU[<\270\222\23268"
 243      81E9A4A6 
 243      1D4CA8AB 
 243      6B555B3C 
 243      B8929A36 
 244 0833 0F74AF8A 		.ascii	"\017t\257\212\007\332\241\265\265\307\203p/\016\374"
 244      07DAA1B5 
 244      B5C78370 
 244      2F0EFC
 245 0842 DAE200DE 		.ascii	"\332\342\000\336\026\215\007S\260\316\265\311\344\306"
 245      168D0753 
 245      B0CEB5C9 
 245      E4C6
 246 0850 CD995432 		.ascii	"\315\231T2\371-\336iZ\276\264\265\345\277\361\012\230"
 246      F92DDE69 
 246      5ABEB4B5 
 246      E5BFF10A 
 246      98
 247 0861 E5       		.ascii	"\345"
 248              		.text
 249              		.section	.gnu.lto_.symtab.97fffd9d7fed9425,"",%progbits
 250 0000 6E766963 		.ascii	"nvicEnableVector\000\000\000\000\000\000\000\000\000"
 250      456E6162 
 250      6C655665 
 250      63746F72 
 250      00000000 
 251 0019 000000A1 		.ascii	"\000\000\000\241\000\000\000nvicDisableVector\000\000"
 251      0000006E 
 251      76696344 
 251      69736162 
 251      6C655665 
 252 0033 00000000 		.ascii	"\000\000\000\000\000\000\000\000\000\000\262\000\000"
 252      00000000 
 252      0000B200 
 252      00
 253 0040 006E7669 		.ascii	"\000nvicSetSystemHandlerPriority\000\000\000\000\000"
 253      63536574 
 253      53797374 
ARM GAS  /tmp/ccARsyzv.s 			page 19


 253      656D4861 
 253      6E646C65 
 254 0062 00000000 		.ascii	"\000\000\000\000\000\000\000\270\000\000\000nvicCle"
 254      000000B8 
 254      0000006E 
 254      76696343 
 254      6C65
 255 0074 61725065 		.ascii	"arPending\000\000\000\000\000\000\000\000\000\000\000"
 255      6E64696E 
 255      67000000 
 255      00000000 
 255      00000000 
 256 0088 00BE0000 		.ascii	"\000\276\000\000\000"
 256      00
 257              		.text
 258              		.section	.gnu.lto_.opts,"",%progbits
 259 0000 272D6D63 		.ascii	"'-mcpu=cortex-m4' '-mno-thumb-interwork' '-mthumb' "
 259      70753D63 
 259      6F727465 
 259      782D6D34 
 259      2720272D 
 260 0033 272D6767 		.ascii	"'-ggdb' '-O2' '-fomit-frame-pointer' '-falign-funct"
 260      64622720 
 260      272D4F32 
 260      2720272D 
 260      666F6D69 
 261 0066 696F6E73 		.ascii	"ions=16' '-ffunction-sections' '-fdata-sections' '-"
 261      3D313627 
 261      20272D66 
 261      66756E63 
 261      74696F6E 
 262 0099 666E6F2D 		.ascii	"fno-common' '-flto'\000"
 262      636F6D6D 
 262      6F6E2720 
 262      272D666C 
 262      746F2700 
 263              		.text
 264              		.cfi_sections	.debug_frame
 265              		.section	.text.nvicEnableVector,"ax",%progbits
 266              		.align	2
 267              		.p2align 4,,15
 268              		.global	nvicEnableVector
 269              		.thumb
 270              		.thumb_func
 271              		.type	nvicEnableVector, %function
 272              	nvicEnableVector:
 273              	.LFB272:
 274              		.file 1 "../ChibiOS/os/hal/ports/common/ARMCMx/nvic.c"
 275              		.loc 1 57 0
 276              		.cfi_startproc
 277              		@ args = 0, pretend = 0, frame = 0
 278              		@ frame_needed = 0, uses_anonymous_args = 0
 279              		@ link register save eliminated.
 280              	.LVL0:
 281              		.loc 1 65 0
 282 0000 4309     		lsrs	r3, r0, #5
 283 0002 9B00     		lsls	r3, r3, #2
ARM GAS  /tmp/ccARsyzv.s 			page 20


 284              		.loc 1 63 0
 285 0004 00F16042 		add	r2, r0, #-536870912
 286 0008 03F16043 		add	r3, r3, #-536870912
 287              		.loc 1 57 0
 288 000c 10B4     		push	{r4}
 289              		.cfi_def_cfa_offset 4
 290              		.cfi_offset 4, -4
 291 000e 03F56143 		add	r3, r3, #57600
 292              		.loc 1 65 0
 293 0012 0124     		movs	r4, #1
 294              		.loc 1 63 0
 295 0014 0901     		lsls	r1, r1, #4
 296              	.LVL1:
 297 0016 02F56142 		add	r2, r2, #57600
 298              		.loc 1 65 0
 299 001a 00F01F00 		and	r0, r0, #31
 300              	.LVL2:
 301 001e 04FA00F0 		lsl	r0, r4, r0
 302              		.loc 1 63 0
 303 0022 C9B2     		uxtb	r1, r1
 304 0024 82F80013 		strb	r1, [r2, #768]
 305              		.loc 1 65 0
 306 0028 C3F88001 		str	r0, [r3, #384]
 307              		.loc 1 66 0
 308 002c 1860     		str	r0, [r3]
 309              		.loc 1 67 0
 310 002e 5DF8044B 		ldr	r4, [sp], #4
 311 0032 7047     		bx	lr
 312              		.cfi_endproc
 313              	.LFE272:
 314              		.size	nvicEnableVector, .-nvicEnableVector
 315 0034 AFF30080 		.section	.text.nvicDisableVector,"ax",%progbits
 315      AFF30080 
 315      AFF30080 
 316              		.align	2
 317              		.p2align 4,,15
 318              		.global	nvicDisableVector
 319              		.thumb
 320              		.thumb_func
 321              		.type	nvicDisableVector, %function
 322              	nvicDisableVector:
 323              	.LFB273:
 324              		.loc 1 74 0
 325              		.cfi_startproc
 326              		@ args = 0, pretend = 0, frame = 0
 327              		@ frame_needed = 0, uses_anonymous_args = 0
 328              		@ link register save eliminated.
 329              	.LVL3:
 330              		.loc 1 76 0
 331 0000 084B     		ldr	r3, .L3
 332 0002 4109     		lsrs	r1, r0, #5
 333              		.loc 1 74 0
 334 0004 10B4     		push	{r4}
 335              		.cfi_def_cfa_offset 4
 336              		.cfi_offset 4, -4
 337              		.loc 1 76 0
 338 0006 00F01F02 		and	r2, r0, #31
ARM GAS  /tmp/ccARsyzv.s 			page 21


 339 000a 2031     		adds	r1, r1, #32
 340 000c 0124     		movs	r4, #1
 341              		.loc 1 80 0
 342 000e 1844     		add	r0, r0, r3
 343              	.LVL4:
 344              		.loc 1 76 0
 345 0010 9440     		lsls	r4, r4, r2
 346              		.loc 1 80 0
 347 0012 0022     		movs	r2, #0
 348              		.loc 1 76 0
 349 0014 43F82140 		str	r4, [r3, r1, lsl #2]
 350              		.loc 1 80 0
 351 0018 80F80023 		strb	r2, [r0, #768]
 352              		.loc 1 82 0
 353 001c 5DF8044B 		ldr	r4, [sp], #4
 354 0020 7047     		bx	lr
 355              	.L4:
 356 0022 00BF     		.align	2
 357              	.L3:
 358 0024 00E100E0 		.word	-536813312
 359              		.cfi_endproc
 360              	.LFE273:
 361              		.size	nvicDisableVector, .-nvicDisableVector
 362 0028 AFF30080 		.section	.text.nvicSetSystemHandlerPriority,"ax",%progbits
 362      AFF30080 
 363              		.align	2
 364              		.p2align 4,,15
 365              		.global	nvicSetSystemHandlerPriority
 366              		.thumb
 367              		.thumb_func
 368              		.type	nvicSetSystemHandlerPriority, %function
 369              	nvicSetSystemHandlerPriority:
 370              	.LFB274:
 371              		.loc 1 90 0
 372              		.cfi_startproc
 373              		@ args = 0, pretend = 0, frame = 0
 374              		@ frame_needed = 0, uses_anonymous_args = 0
 375              		@ link register save eliminated.
 376              	.LVL5:
 377              		.loc 1 100 0
 378 0000 00F16040 		add	r0, r0, #-536870912
 379              	.LVL6:
 380 0004 00F56D40 		add	r0, r0, #60672
 381              	.LVL7:
 382 0008 0901     		lsls	r1, r1, #4
 383              	.LVL8:
 384 000a C9B2     		uxtb	r1, r1
 385 000c 0176     		strb	r1, [r0, #24]
 386 000e 7047     		bx	lr
 387              		.cfi_endproc
 388              	.LFE274:
 389              		.size	nvicSetSystemHandlerPriority, .-nvicSetSystemHandlerPriority
 390              		.section	.text.nvicClearPending,"ax",%progbits
 391              		.align	2
 392              		.p2align 4,,15
 393              		.global	nvicClearPending
 394              		.thumb
ARM GAS  /tmp/ccARsyzv.s 			page 22


 395              		.thumb_func
 396              		.type	nvicClearPending, %function
 397              	nvicClearPending:
 398              	.LFB275:
 399              		.loc 1 109 0
 400              		.cfi_startproc
 401              		@ args = 0, pretend = 0, frame = 0
 402              		@ frame_needed = 0, uses_anonymous_args = 0
 403              		@ link register save eliminated.
 404              	.LVL9:
 405              		.loc 1 111 0
 406 0000 4209     		lsrs	r2, r0, #5
 407 0002 6032     		adds	r2, r2, #96
 408 0004 00F01F00 		and	r0, r0, #31
 409              	.LVL10:
 410 0008 0121     		movs	r1, #1
 411 000a 034B     		ldr	r3, .L7
 412 000c 01FA00F0 		lsl	r0, r1, r0
 413 0010 43F82200 		str	r0, [r3, r2, lsl #2]
 414 0014 7047     		bx	lr
 415              	.L8:
 416 0016 00BF     		.align	2
 417              	.L7:
 418 0018 00E100E0 		.word	-536813312
 419              		.cfi_endproc
 420              	.LFE275:
 421              		.size	nvicClearPending, .-nvicClearPending
 422 001c AFF30080 		.text
 423              	.Letext0:
 424              		.file 2 "/nfs/nfs5/home/research/hardware/arm2/gcc-arm-embedded/gcc-arm-none-eabi-4_8-2014q2/arm-n
 425              		.file 3 "/nfs/nfs5/home/research/hardware/arm2/gcc-arm-embedded/gcc-arm-none-eabi-4_8-2014q2/arm-n
 426              		.file 4 "../ChibiOS/os/rt/ports/ARMCMx/compilers/GCC/chtypes.h"
 427              		.file 5 "../ChibiOS/os/rt/include/chsystypes.h"
 428              		.file 6 "../ChibiOS/os/rt/include/chschd.h"
 429              		.file 7 "../ChibiOS/os/ext/CMSIS/include/core_cm4.h"
 430              		.file 8 "../ChibiOS/os/rt/ports/ARMCMx/chcore.h"
 431              		.file 9 "../ChibiOS/os/rt/ports/ARMCMx/chcore_v7m.h"
 432              		.file 10 "../ChibiOS/os/rt/include/chtm.h"
 433              		.file 11 "../ChibiOS/os/rt/include/chsem.h"
 434              		.file 12 "../ChibiOS/os/rt/include/chmtx.h"
 435              		.section	.debug_info,"",%progbits
 436              	.Ldebug_info0:
 437 0000 CA090000 		.4byte	0x9ca
 438 0004 0400     		.2byte	0x4
 439 0006 00000000 		.4byte	.Ldebug_abbrev0
 440 000a 04       		.byte	0x4
 441 000b 01       		.uleb128 0x1
 442 000c 7E050000 		.4byte	.LASF137
 443 0010 01       		.byte	0x1
 444 0011 D9010000 		.4byte	.LASF138
 445 0015 70040000 		.4byte	.LASF139
 446 0019 00000000 		.4byte	.Ldebug_ranges0+0
 447 001d 00000000 		.4byte	0
 448 0021 00000000 		.4byte	.Ldebug_line0
 449 0025 02       		.uleb128 0x2
 450 0026 04       		.byte	0x4
 451 0027 05       		.byte	0x5
ARM GAS  /tmp/ccARsyzv.s 			page 23


 452 0028 696E7400 		.ascii	"int\000"
 453 002c 03       		.uleb128 0x3
 454 002d 04       		.byte	0x4
 455 002e 07       		.byte	0x7
 456 002f 95010000 		.4byte	.LASF0
 457 0033 03       		.uleb128 0x3
 458 0034 01       		.byte	0x1
 459 0035 06       		.byte	0x6
 460 0036 EC000000 		.4byte	.LASF1
 461 003a 04       		.uleb128 0x4
 462 003b 37000000 		.4byte	.LASF5
 463 003f 02       		.byte	0x2
 464 0040 1C       		.byte	0x1c
 465 0041 45000000 		.4byte	0x45
 466 0045 03       		.uleb128 0x3
 467 0046 01       		.byte	0x1
 468 0047 08       		.byte	0x8
 469 0048 73030000 		.4byte	.LASF2
 470 004c 03       		.uleb128 0x3
 471 004d 02       		.byte	0x2
 472 004e 05       		.byte	0x5
 473 004f A6030000 		.4byte	.LASF3
 474 0053 03       		.uleb128 0x3
 475 0054 02       		.byte	0x2
 476 0055 07       		.byte	0x7
 477 0056 F9030000 		.4byte	.LASF4
 478 005a 04       		.uleb128 0x4
 479 005b 5A020000 		.4byte	.LASF6
 480 005f 02       		.byte	0x2
 481 0060 37       		.byte	0x37
 482 0061 65000000 		.4byte	0x65
 483 0065 03       		.uleb128 0x3
 484 0066 04       		.byte	0x4
 485 0067 05       		.byte	0x5
 486 0068 2A010000 		.4byte	.LASF7
 487 006c 04       		.uleb128 0x4
 488 006d 0A050000 		.4byte	.LASF8
 489 0071 02       		.byte	0x2
 490 0072 38       		.byte	0x38
 491 0073 77000000 		.4byte	0x77
 492 0077 03       		.uleb128 0x3
 493 0078 04       		.byte	0x4
 494 0079 07       		.byte	0x7
 495 007a BB040000 		.4byte	.LASF9
 496 007e 03       		.uleb128 0x3
 497 007f 08       		.byte	0x8
 498 0080 05       		.byte	0x5
 499 0081 DE000000 		.4byte	.LASF10
 500 0085 04       		.uleb128 0x4
 501 0086 0B030000 		.4byte	.LASF11
 502 008a 02       		.byte	0x2
 503 008b 4E       		.byte	0x4e
 504 008c 90000000 		.4byte	0x90
 505 0090 03       		.uleb128 0x3
 506 0091 08       		.byte	0x8
 507 0092 07       		.byte	0x7
 508 0093 5C000000 		.4byte	.LASF12
ARM GAS  /tmp/ccARsyzv.s 			page 24


 509 0097 04       		.uleb128 0x4
 510 0098 68050000 		.4byte	.LASF13
 511 009c 03       		.byte	0x3
 512 009d 2A       		.byte	0x2a
 513 009e 3A000000 		.4byte	0x3a
 514 00a2 04       		.uleb128 0x4
 515 00a3 6B030000 		.4byte	.LASF14
 516 00a7 03       		.byte	0x3
 517 00a8 41       		.byte	0x41
 518 00a9 5A000000 		.4byte	0x5a
 519 00ad 04       		.uleb128 0x4
 520 00ae 3F040000 		.4byte	.LASF15
 521 00b2 03       		.byte	0x3
 522 00b3 42       		.byte	0x42
 523 00b4 6C000000 		.4byte	0x6c
 524 00b8 04       		.uleb128 0x4
 525 00b9 2E000000 		.4byte	.LASF16
 526 00bd 03       		.byte	0x3
 527 00be 4E       		.byte	0x4e
 528 00bf 85000000 		.4byte	0x85
 529 00c3 04       		.uleb128 0x4
 530 00c4 2E050000 		.4byte	.LASF17
 531 00c8 04       		.byte	0x4
 532 00c9 39       		.byte	0x39
 533 00ca AD000000 		.4byte	0xad
 534 00ce 04       		.uleb128 0x4
 535 00cf 38020000 		.4byte	.LASF18
 536 00d3 04       		.byte	0x4
 537 00d4 3C       		.byte	0x3c
 538 00d5 97000000 		.4byte	0x97
 539 00d9 04       		.uleb128 0x4
 540 00da 33010000 		.4byte	.LASF19
 541 00de 04       		.byte	0x4
 542 00df 3D       		.byte	0x3d
 543 00e0 97000000 		.4byte	0x97
 544 00e4 04       		.uleb128 0x4
 545 00e5 16030000 		.4byte	.LASF20
 546 00e9 04       		.byte	0x4
 547 00ea 3E       		.byte	0x3e
 548 00eb 97000000 		.4byte	0x97
 549 00ef 04       		.uleb128 0x4
 550 00f0 4D030000 		.4byte	.LASF21
 551 00f4 04       		.byte	0x4
 552 00f5 40       		.byte	0x40
 553 00f6 AD000000 		.4byte	0xad
 554 00fa 04       		.uleb128 0x4
 555 00fb 15020000 		.4byte	.LASF22
 556 00ff 04       		.byte	0x4
 557 0100 41       		.byte	0x41
 558 0101 A2000000 		.4byte	0xa2
 559 0105 04       		.uleb128 0x4
 560 0106 4E020000 		.4byte	.LASF23
 561 010a 04       		.byte	0x4
 562 010b 43       		.byte	0x43
 563 010c AD000000 		.4byte	0xad
 564 0110 04       		.uleb128 0x4
 565 0111 8F010000 		.4byte	.LASF24
ARM GAS  /tmp/ccARsyzv.s 			page 25


 566 0115 04       		.byte	0x4
 567 0116 45       		.byte	0x45
 568 0117 A2000000 		.4byte	0xa2
 569 011b 04       		.uleb128 0x4
 570 011c EC040000 		.4byte	.LASF25
 571 0120 05       		.byte	0x5
 572 0121 33       		.byte	0x33
 573 0122 AD000000 		.4byte	0xad
 574 0126 04       		.uleb128 0x4
 575 0127 DC040000 		.4byte	.LASF26
 576 012b 05       		.byte	0x5
 577 012c 3F       		.byte	0x3f
 578 012d 31010000 		.4byte	0x131
 579 0131 05       		.uleb128 0x5
 580 0132 06020000 		.4byte	.LASF45
 581 0136 40       		.byte	0x40
 582 0137 06       		.byte	0x6
 583 0138 C2       		.byte	0xc2
 584 0139 11020000 		.4byte	0x211
 585 013d 06       		.uleb128 0x6
 586 013e EA030000 		.4byte	.LASF27
 587 0142 06       		.byte	0x6
 588 0143 C3       		.byte	0xc3
 589 0144 1C020000 		.4byte	0x21c
 590 0148 00       		.byte	0
 591 0149 06       		.uleb128 0x6
 592 014a 46030000 		.4byte	.LASF28
 593 014e 06       		.byte	0x6
 594 014f C5       		.byte	0xc5
 595 0150 1C020000 		.4byte	0x21c
 596 0154 04       		.byte	0x4
 597 0155 06       		.uleb128 0x6
 598 0156 C1000000 		.4byte	.LASF29
 599 015a 06       		.byte	0x6
 600 015b C7       		.byte	0xc7
 601 015c EF000000 		.4byte	0xef
 602 0160 08       		.byte	0x8
 603 0161 06       		.uleb128 0x6
 604 0162 8D060000 		.4byte	.LASF30
 605 0166 06       		.byte	0x6
 606 0167 C8       		.byte	0xc8
 607 0168 17070000 		.4byte	0x717
 608 016c 0C       		.byte	0xc
 609 016d 06       		.uleb128 0x6
 610 016e 3C010000 		.4byte	.LASF31
 611 0172 06       		.byte	0x6
 612 0173 CA       		.byte	0xca
 613 0174 1C020000 		.4byte	0x21c
 614 0178 10       		.byte	0x10
 615 0179 06       		.uleb128 0x6
 616 017a DA020000 		.4byte	.LASF32
 617 017e 06       		.byte	0x6
 618 017f CB       		.byte	0xcb
 619 0180 1C020000 		.4byte	0x21c
 620 0184 14       		.byte	0x14
 621 0185 06       		.uleb128 0x6
 622 0186 73060000 		.4byte	.LASF33
ARM GAS  /tmp/ccARsyzv.s 			page 26


 623 018a 06       		.byte	0x6
 624 018b D2       		.byte	0xd2
 625 018c A2080000 		.4byte	0x8a2
 626 0190 18       		.byte	0x18
 627 0191 06       		.uleb128 0x6
 628 0192 94030000 		.4byte	.LASF34
 629 0196 06       		.byte	0x6
 630 0197 DD       		.byte	0xdd
 631 0198 D9000000 		.4byte	0xd9
 632 019c 1C       		.byte	0x1c
 633 019d 06       		.uleb128 0x6
 634 019e F1030000 		.4byte	.LASF35
 635 01a2 06       		.byte	0x6
 636 01a3 E1       		.byte	0xe1
 637 01a4 CE000000 		.4byte	0xce
 638 01a8 1D       		.byte	0x1d
 639 01a9 06       		.uleb128 0x6
 640 01aa 56050000 		.4byte	.LASF36
 641 01ae 06       		.byte	0x6
 642 01af E6       		.byte	0xe6
 643 01b0 E4000000 		.4byte	0xe4
 644 01b4 1E       		.byte	0x1e
 645 01b5 07       		.uleb128 0x7
 646 01b6 705F7500 		.ascii	"p_u\000"
 647 01ba 06       		.byte	0x6
 648 01bb 3701     		.2byte	0x137
 649 01bd D1070000 		.4byte	0x7d1
 650 01c1 20       		.byte	0x20
 651 01c2 08       		.uleb128 0x8
 652 01c3 87020000 		.4byte	.LASF37
 653 01c7 06       		.byte	0x6
 654 01c8 3C01     		.2byte	0x13c
 655 01ca 22020000 		.4byte	0x222
 656 01ce 24       		.byte	0x24
 657 01cf 08       		.uleb128 0x8
 658 01d0 C3010000 		.4byte	.LASF38
 659 01d4 06       		.byte	0x6
 660 01d5 4201     		.2byte	0x142
 661 01d7 46020000 		.4byte	0x246
 662 01db 28       		.byte	0x28
 663 01dc 08       		.uleb128 0x8
 664 01dd 2A040000 		.4byte	.LASF39
 665 01e1 06       		.byte	0x6
 666 01e2 4801     		.2byte	0x148
 667 01e4 05010000 		.4byte	0x105
 668 01e8 30       		.byte	0x30
 669 01e9 08       		.uleb128 0x8
 670 01ea 9C030000 		.4byte	.LASF40
 671 01ee 06       		.byte	0x6
 672 01ef 4F01     		.2byte	0x14f
 673 01f1 9C080000 		.4byte	0x89c
 674 01f5 34       		.byte	0x34
 675 01f6 08       		.uleb128 0x8
 676 01f7 F6040000 		.4byte	.LASF41
 677 01fb 06       		.byte	0x6
 678 01fc 5301     		.2byte	0x153
 679 01fe EF000000 		.4byte	0xef
ARM GAS  /tmp/ccARsyzv.s 			page 27


 680 0202 38       		.byte	0x38
 681 0203 08       		.uleb128 0x8
 682 0204 F8000000 		.4byte	.LASF42
 683 0208 06       		.byte	0x6
 684 0209 5A01     		.2byte	0x15a
 685 020b F9020000 		.4byte	0x2f9
 686 020f 3C       		.byte	0x3c
 687 0210 00       		.byte	0
 688 0211 04       		.uleb128 0x4
 689 0212 9A020000 		.4byte	.LASF43
 690 0216 05       		.byte	0x5
 691 0217 44       		.byte	0x44
 692 0218 1C020000 		.4byte	0x21c
 693 021c 09       		.uleb128 0x9
 694 021d 04       		.byte	0x4
 695 021e 26010000 		.4byte	0x126
 696 0222 04       		.uleb128 0x4
 697 0223 00000000 		.4byte	.LASF44
 698 0227 05       		.byte	0x5
 699 0228 49       		.byte	0x49
 700 0229 2D020000 		.4byte	0x22d
 701 022d 05       		.uleb128 0x5
 702 022e 60040000 		.4byte	.LASF46
 703 0232 04       		.byte	0x4
 704 0233 06       		.byte	0x6
 705 0234 B0       		.byte	0xb0
 706 0235 46020000 		.4byte	0x246
 707 0239 06       		.uleb128 0x6
 708 023a EA030000 		.4byte	.LASF27
 709 023e 06       		.byte	0x6
 710 023f B1       		.byte	0xb1
 711 0240 1C020000 		.4byte	0x21c
 712 0244 00       		.byte	0
 713 0245 00       		.byte	0
 714 0246 04       		.uleb128 0x4
 715 0247 3D050000 		.4byte	.LASF47
 716 024b 05       		.byte	0x5
 717 024c 50       		.byte	0x50
 718 024d 51020000 		.4byte	0x251
 719 0251 05       		.uleb128 0x5
 720 0252 AB000000 		.4byte	.LASF48
 721 0256 08       		.byte	0x8
 722 0257 06       		.byte	0x6
 723 0258 B7       		.byte	0xb7
 724 0259 76020000 		.4byte	0x276
 725 025d 06       		.uleb128 0x6
 726 025e EA030000 		.4byte	.LASF27
 727 0262 06       		.byte	0x6
 728 0263 B8       		.byte	0xb8
 729 0264 1C020000 		.4byte	0x21c
 730 0268 00       		.byte	0
 731 0269 06       		.uleb128 0x6
 732 026a 46030000 		.4byte	.LASF28
 733 026e 06       		.byte	0x6
 734 026f B9       		.byte	0xb9
 735 0270 1C020000 		.4byte	0x21c
 736 0274 04       		.byte	0x4
ARM GAS  /tmp/ccARsyzv.s 			page 28


 737 0275 00       		.byte	0
 738 0276 04       		.uleb128 0x4
 739 0277 14000000 		.4byte	.LASF49
 740 027b 05       		.byte	0x5
 741 027c 57       		.byte	0x57
 742 027d 81020000 		.4byte	0x281
 743 0281 0A       		.uleb128 0xa
 744 0282 40020000 		.4byte	.LASF50
 745 0286 1C       		.byte	0x1c
 746 0287 06       		.byte	0x6
 747 0288 9201     		.2byte	0x192
 748 028a DD020000 		.4byte	0x2dd
 749 028e 08       		.uleb128 0x8
 750 028f 4F040000 		.4byte	.LASF51
 751 0293 06       		.byte	0x6
 752 0294 9301     		.2byte	0x193
 753 0296 46020000 		.4byte	0x246
 754 029a 00       		.byte	0
 755 029b 08       		.uleb128 0x8
 756 029c DC030000 		.4byte	.LASF52
 757 02a0 06       		.byte	0x6
 758 02a1 9401     		.2byte	0x194
 759 02a3 EF000000 		.4byte	0xef
 760 02a7 08       		.byte	0x8
 761 02a8 08       		.uleb128 0x8
 762 02a9 E2020000 		.4byte	.LASF53
 763 02ad 06       		.byte	0x6
 764 02ae 9601     		.2byte	0x196
 765 02b0 17070000 		.4byte	0x717
 766 02b4 0C       		.byte	0xc
 767 02b5 08       		.uleb128 0x8
 768 02b6 56010000 		.4byte	.LASF54
 769 02ba 06       		.byte	0x6
 770 02bb 9901     		.2byte	0x199
 771 02bd 1C020000 		.4byte	0x21c
 772 02c1 10       		.byte	0x10
 773 02c2 08       		.uleb128 0x8
 774 02c3 03030000 		.4byte	.LASF55
 775 02c7 06       		.byte	0x6
 776 02c8 9A01     		.2byte	0x19a
 777 02ca 1C020000 		.4byte	0x21c
 778 02ce 14       		.byte	0x14
 779 02cf 08       		.uleb128 0x8
 780 02d0 CD040000 		.4byte	.LASF56
 781 02d4 06       		.byte	0x6
 782 02d5 9D01     		.2byte	0x19d
 783 02d7 1C020000 		.4byte	0x21c
 784 02db 18       		.byte	0x18
 785 02dc 00       		.byte	0
 786 02dd 04       		.uleb128 0x4
 787 02de 01050000 		.4byte	.LASF57
 788 02e2 05       		.byte	0x5
 789 02e3 5C       		.byte	0x5c
 790 02e4 E8020000 		.4byte	0x2e8
 791 02e8 09       		.uleb128 0x9
 792 02e9 04       		.byte	0x4
 793 02ea EE020000 		.4byte	0x2ee
ARM GAS  /tmp/ccARsyzv.s 			page 29


 794 02ee 0B       		.uleb128 0xb
 795 02ef F9020000 		.4byte	0x2f9
 796 02f3 0C       		.uleb128 0xc
 797 02f4 F9020000 		.4byte	0x2f9
 798 02f8 00       		.byte	0
 799 02f9 0D       		.uleb128 0xd
 800 02fa 04       		.byte	0x4
 801 02fb 04       		.uleb128 0x4
 802 02fc 77020000 		.4byte	.LASF58
 803 0300 05       		.byte	0x5
 804 0301 61       		.byte	0x61
 805 0302 06030000 		.4byte	0x306
 806 0306 0A       		.uleb128 0xa
 807 0307 0C040000 		.4byte	.LASF59
 808 030b 14       		.byte	0x14
 809 030c 06       		.byte	0x6
 810 030d 6D01     		.2byte	0x16d
 811 030f 55030000 		.4byte	0x355
 812 0313 08       		.uleb128 0x8
 813 0314 A2010000 		.4byte	.LASF60
 814 0318 06       		.byte	0x6
 815 0319 6E01     		.2byte	0x16e
 816 031b B4080000 		.4byte	0x8b4
 817 031f 00       		.byte	0
 818 0320 08       		.uleb128 0x8
 819 0321 67010000 		.4byte	.LASF61
 820 0325 06       		.byte	0x6
 821 0326 6F01     		.2byte	0x16f
 822 0328 B4080000 		.4byte	0x8b4
 823 032c 04       		.byte	0x4
 824 032d 08       		.uleb128 0x8
 825 032e 57040000 		.4byte	.LASF62
 826 0332 06       		.byte	0x6
 827 0333 7001     		.2byte	0x170
 828 0335 1B010000 		.4byte	0x11b
 829 0339 08       		.byte	0x8
 830 033a 08       		.uleb128 0x8
 831 033b 93060000 		.4byte	.LASF63
 832 033f 06       		.byte	0x6
 833 0340 7101     		.2byte	0x171
 834 0342 DD020000 		.4byte	0x2dd
 835 0346 0C       		.byte	0xc
 836 0347 08       		.uleb128 0x8
 837 0348 36050000 		.4byte	.LASF64
 838 034c 06       		.byte	0x6
 839 034d 7301     		.2byte	0x173
 840 034f F9020000 		.4byte	0x2f9
 841 0353 10       		.byte	0x10
 842 0354 00       		.byte	0
 843 0355 04       		.uleb128 0x4
 844 0356 8F000000 		.4byte	.LASF65
 845 035a 05       		.byte	0x5
 846 035b 66       		.byte	0x66
 847 035c 60030000 		.4byte	0x360
 848 0360 0A       		.uleb128 0xa
 849 0361 AD020000 		.4byte	.LASF66
 850 0365 10       		.byte	0x10
ARM GAS  /tmp/ccARsyzv.s 			page 30


 851 0366 06       		.byte	0x6
 852 0367 7D01     		.2byte	0x17d
 853 0369 A2030000 		.4byte	0x3a2
 854 036d 08       		.uleb128 0x8
 855 036e A2010000 		.4byte	.LASF60
 856 0372 06       		.byte	0x6
 857 0373 7E01     		.2byte	0x17e
 858 0375 B4080000 		.4byte	0x8b4
 859 0379 00       		.byte	0
 860 037a 08       		.uleb128 0x8
 861 037b 67010000 		.4byte	.LASF61
 862 037f 06       		.byte	0x6
 863 0380 8001     		.2byte	0x180
 864 0382 B4080000 		.4byte	0x8b4
 865 0386 04       		.byte	0x4
 866 0387 08       		.uleb128 0x8
 867 0388 57040000 		.4byte	.LASF62
 868 038c 06       		.byte	0x6
 869 038d 8201     		.2byte	0x182
 870 038f 1B010000 		.4byte	0x11b
 871 0393 08       		.byte	0x8
 872 0394 08       		.uleb128 0x8
 873 0395 CE020000 		.4byte	.LASF67
 874 0399 06       		.byte	0x6
 875 039a 8A01     		.2byte	0x18a
 876 039c 1B010000 		.4byte	0x11b
 877 03a0 0C       		.byte	0xc
 878 03a1 00       		.byte	0
 879 03a2 04       		.uleb128 0x4
 880 03a3 4D000000 		.4byte	.LASF68
 881 03a7 05       		.byte	0x5
 882 03a8 6B       		.byte	0x6b
 883 03a9 AD030000 		.4byte	0x3ad
 884 03ad 0A       		.uleb128 0xa
 885 03ae 55030000 		.4byte	.LASF69
 886 03b2 04       		.byte	0x4
 887 03b3 06       		.byte	0x6
 888 03b4 A401     		.2byte	0x1a4
 889 03b6 C8030000 		.4byte	0x3c8
 890 03ba 08       		.uleb128 0x8
 891 03bb 15050000 		.4byte	.LASF70
 892 03bf 06       		.byte	0x6
 893 03c0 AC01     		.2byte	0x1ac
 894 03c2 BA080000 		.4byte	0x8ba
 895 03c6 00       		.byte	0
 896 03c7 00       		.byte	0
 897 03c8 04       		.uleb128 0x4
 898 03c9 2C020000 		.4byte	.LASF71
 899 03cd 05       		.byte	0x5
 900 03ce 70       		.byte	0x70
 901 03cf D3030000 		.4byte	0x3d3
 902 03d3 0E       		.uleb128 0xe
 903 03d4 20010000 		.4byte	.LASF72
 904 03d8 5001     		.2byte	0x150
 905 03da 06       		.byte	0x6
 906 03db C401     		.2byte	0x1c4
 907 03dd 2F040000 		.4byte	0x42f
ARM GAS  /tmp/ccARsyzv.s 			page 31


 908 03e1 08       		.uleb128 0x8
 909 03e2 62050000 		.4byte	.LASF73
 910 03e6 06       		.byte	0x6
 911 03e7 C801     		.2byte	0x1c8
 912 03e9 76020000 		.4byte	0x276
 913 03ed 00       		.byte	0
 914 03ee 08       		.uleb128 0x8
 915 03ef 19010000 		.4byte	.LASF74
 916 03f3 06       		.byte	0x6
 917 03f4 CC01     		.2byte	0x1cc
 918 03f6 55030000 		.4byte	0x355
 919 03fa 1C       		.byte	0x1c
 920 03fb 07       		.uleb128 0x7
 921 03fc 64626700 		.ascii	"dbg\000"
 922 0400 06       		.byte	0x6
 923 0401 D001     		.2byte	0x1d0
 924 0403 A2030000 		.4byte	0x3a2
 925 0407 2C       		.byte	0x2c
 926 0408 08       		.uleb128 0x8
 927 0409 7C000000 		.4byte	.LASF75
 928 040d 06       		.byte	0x6
 929 040e D401     		.2byte	0x1d4
 930 0410 26010000 		.4byte	0x126
 931 0414 30       		.byte	0x30
 932 0415 07       		.uleb128 0x7
 933 0416 746D00   		.ascii	"tm\000"
 934 0419 06       		.byte	0x6
 935 041a D901     		.2byte	0x1d9
 936 041c C6070000 		.4byte	0x7c6
 937 0420 70       		.byte	0x70
 938 0421 08       		.uleb128 0x8
 939 0422 80010000 		.4byte	.LASF76
 940 0426 06       		.byte	0x6
 941 0427 E501     		.2byte	0x1e5
 942 0429 BF080000 		.4byte	0x8bf
 943 042d 78       		.byte	0x78
 944 042e 00       		.byte	0
 945 042f 0F       		.uleb128 0xf
 946 0430 040E     		.2byte	0xe04
 947 0432 07       		.byte	0x7
 948 0433 A001     		.2byte	0x1a0
 949 0435 EB040000 		.4byte	0x4eb
 950 0439 08       		.uleb128 0x8
 951 043a B0030000 		.4byte	.LASF77
 952 043e 07       		.byte	0x7
 953 043f A201     		.2byte	0x1a2
 954 0441 02050000 		.4byte	0x502
 955 0445 00       		.byte	0
 956 0446 08       		.uleb128 0x8
 957 0447 1E030000 		.4byte	.LASF78
 958 044b 07       		.byte	0x7
 959 044c A301     		.2byte	0x1a3
 960 044e 07050000 		.4byte	0x507
 961 0452 20       		.byte	0x20
 962 0453 08       		.uleb128 0x8
 963 0454 F9020000 		.4byte	.LASF79
 964 0458 07       		.byte	0x7
ARM GAS  /tmp/ccARsyzv.s 			page 32


 965 0459 A401     		.2byte	0x1a4
 966 045b 17050000 		.4byte	0x517
 967 045f 80       		.byte	0x80
 968 0460 08       		.uleb128 0x8
 969 0461 70050000 		.4byte	.LASF80
 970 0465 07       		.byte	0x7
 971 0466 A501     		.2byte	0x1a5
 972 0468 07050000 		.4byte	0x507
 973 046c A0       		.byte	0xa0
 974 046d 10       		.uleb128 0x10
 975 046e BC000000 		.4byte	.LASF81
 976 0472 07       		.byte	0x7
 977 0473 A601     		.2byte	0x1a6
 978 0475 1C050000 		.4byte	0x51c
 979 0479 0001     		.2byte	0x100
 980 047b 10       		.uleb128 0x10
 981 047c 28030000 		.4byte	.LASF82
 982 0480 07       		.byte	0x7
 983 0481 A701     		.2byte	0x1a7
 984 0483 07050000 		.4byte	0x507
 985 0487 2001     		.2byte	0x120
 986 0489 10       		.uleb128 0x10
 987 048a 0F000000 		.4byte	.LASF83
 988 048e 07       		.byte	0x7
 989 048f A801     		.2byte	0x1a8
 990 0491 21050000 		.4byte	0x521
 991 0495 8001     		.2byte	0x180
 992 0497 10       		.uleb128 0x10
 993 0498 32030000 		.4byte	.LASF84
 994 049c 07       		.byte	0x7
 995 049d A901     		.2byte	0x1a9
 996 049f 07050000 		.4byte	0x507
 997 04a3 A001     		.2byte	0x1a0
 998 04a5 10       		.uleb128 0x10
 999 04a6 C9020000 		.4byte	.LASF85
 1000 04aa 07       		.byte	0x7
 1001 04ab AA01     		.2byte	0x1aa
 1002 04ad 26050000 		.4byte	0x526
 1003 04b1 0002     		.2byte	0x200
 1004 04b3 10       		.uleb128 0x10
 1005 04b4 3C030000 		.4byte	.LASF86
 1006 04b8 07       		.byte	0x7
 1007 04b9 AB01     		.2byte	0x1ab
 1008 04bb 2B050000 		.4byte	0x52b
 1009 04bf 2002     		.2byte	0x220
 1010 04c1 11       		.uleb128 0x11
 1011 04c2 495000   		.ascii	"IP\000"
 1012 04c5 07       		.byte	0x7
 1013 04c6 AC01     		.2byte	0x1ac
 1014 04c8 4B050000 		.4byte	0x54b
 1015 04cc 0003     		.2byte	0x300
 1016 04ce 10       		.uleb128 0x10
 1017 04cf 35040000 		.4byte	.LASF87
 1018 04d3 07       		.byte	0x7
 1019 04d4 AD01     		.2byte	0x1ad
 1020 04d6 50050000 		.4byte	0x550
 1021 04da F003     		.2byte	0x3f0
ARM GAS  /tmp/ccARsyzv.s 			page 33


 1022 04dc 10       		.uleb128 0x10
 1023 04dd 79050000 		.4byte	.LASF88
 1024 04e1 07       		.byte	0x7
 1025 04e2 AE01     		.2byte	0x1ae
 1026 04e4 61050000 		.4byte	0x561
 1027 04e8 000E     		.2byte	0xe00
 1028 04ea 00       		.byte	0
 1029 04eb 12       		.uleb128 0x12
 1030 04ec AD000000 		.4byte	0xad
 1031 04f0 FB040000 		.4byte	0x4fb
 1032 04f4 13       		.uleb128 0x13
 1033 04f5 FB040000 		.4byte	0x4fb
 1034 04f9 07       		.byte	0x7
 1035 04fa 00       		.byte	0
 1036 04fb 03       		.uleb128 0x3
 1037 04fc 04       		.byte	0x4
 1038 04fd 07       		.byte	0x7
 1039 04fe 91020000 		.4byte	.LASF89
 1040 0502 14       		.uleb128 0x14
 1041 0503 EB040000 		.4byte	0x4eb
 1042 0507 12       		.uleb128 0x12
 1043 0508 AD000000 		.4byte	0xad
 1044 050c 17050000 		.4byte	0x517
 1045 0510 13       		.uleb128 0x13
 1046 0511 FB040000 		.4byte	0x4fb
 1047 0515 17       		.byte	0x17
 1048 0516 00       		.byte	0
 1049 0517 14       		.uleb128 0x14
 1050 0518 EB040000 		.4byte	0x4eb
 1051 051c 14       		.uleb128 0x14
 1052 051d EB040000 		.4byte	0x4eb
 1053 0521 14       		.uleb128 0x14
 1054 0522 EB040000 		.4byte	0x4eb
 1055 0526 14       		.uleb128 0x14
 1056 0527 EB040000 		.4byte	0x4eb
 1057 052b 12       		.uleb128 0x12
 1058 052c AD000000 		.4byte	0xad
 1059 0530 3B050000 		.4byte	0x53b
 1060 0534 13       		.uleb128 0x13
 1061 0535 FB040000 		.4byte	0x4fb
 1062 0539 37       		.byte	0x37
 1063 053a 00       		.byte	0
 1064 053b 12       		.uleb128 0x12
 1065 053c 97000000 		.4byte	0x97
 1066 0540 4B050000 		.4byte	0x54b
 1067 0544 13       		.uleb128 0x13
 1068 0545 FB040000 		.4byte	0x4fb
 1069 0549 EF       		.byte	0xef
 1070 054a 00       		.byte	0
 1071 054b 14       		.uleb128 0x14
 1072 054c 3B050000 		.4byte	0x53b
 1073 0550 12       		.uleb128 0x12
 1074 0551 AD000000 		.4byte	0xad
 1075 0555 61050000 		.4byte	0x561
 1076 0559 15       		.uleb128 0x15
 1077 055a FB040000 		.4byte	0x4fb
 1078 055e 8302     		.2byte	0x283
ARM GAS  /tmp/ccARsyzv.s 			page 34


 1079 0560 00       		.byte	0
 1080 0561 14       		.uleb128 0x14
 1081 0562 AD000000 		.4byte	0xad
 1082 0566 16       		.uleb128 0x16
 1083 0567 B5030000 		.4byte	.LASF90
 1084 056b 07       		.byte	0x7
 1085 056c AF01     		.2byte	0x1af
 1086 056e 2F040000 		.4byte	0x42f
 1087 0572 17       		.uleb128 0x17
 1088 0573 8C       		.byte	0x8c
 1089 0574 07       		.byte	0x7
 1090 0575 C001     		.2byte	0x1c0
 1091 0577 8D060000 		.4byte	0x68d
 1092 057b 08       		.uleb128 0x8
 1093 057c A5000000 		.4byte	.LASF91
 1094 0580 07       		.byte	0x7
 1095 0581 C201     		.2byte	0x1c2
 1096 0583 8D060000 		.4byte	0x68d
 1097 0587 00       		.byte	0
 1098 0588 08       		.uleb128 0x8
 1099 0589 10020000 		.4byte	.LASF92
 1100 058d 07       		.byte	0x7
 1101 058e C301     		.2byte	0x1c3
 1102 0590 61050000 		.4byte	0x561
 1103 0594 04       		.byte	0x4
 1104 0595 08       		.uleb128 0x8
 1105 0596 CE010000 		.4byte	.LASF93
 1106 059a 07       		.byte	0x7
 1107 059b C401     		.2byte	0x1c4
 1108 059d 61050000 		.4byte	0x561
 1109 05a1 08       		.byte	0x8
 1110 05a2 08       		.uleb128 0x8
 1111 05a3 1B020000 		.4byte	.LASF94
 1112 05a7 07       		.byte	0x7
 1113 05a8 C501     		.2byte	0x1c5
 1114 05aa 61050000 		.4byte	0x561
 1115 05ae 0C       		.byte	0xc
 1116 05af 07       		.uleb128 0x7
 1117 05b0 53435200 		.ascii	"SCR\000"
 1118 05b4 07       		.byte	0x7
 1119 05b5 C601     		.2byte	0x1c6
 1120 05b7 61050000 		.4byte	0x561
 1121 05bb 10       		.byte	0x10
 1122 05bc 07       		.uleb128 0x7
 1123 05bd 43435200 		.ascii	"CCR\000"
 1124 05c1 07       		.byte	0x7
 1125 05c2 C701     		.2byte	0x1c7
 1126 05c4 61050000 		.4byte	0x561
 1127 05c8 14       		.byte	0x14
 1128 05c9 07       		.uleb128 0x7
 1129 05ca 53485000 		.ascii	"SHP\000"
 1130 05ce 07       		.byte	0x7
 1131 05cf C801     		.2byte	0x1c8
 1132 05d1 A2060000 		.4byte	0x6a2
 1133 05d5 18       		.byte	0x18
 1134 05d6 08       		.uleb128 0x8
 1135 05d7 81030000 		.4byte	.LASF95
ARM GAS  /tmp/ccARsyzv.s 			page 35


 1136 05db 07       		.byte	0x7
 1137 05dc C901     		.2byte	0x1c9
 1138 05de 61050000 		.4byte	0x561
 1139 05e2 24       		.byte	0x24
 1140 05e3 08       		.uleb128 0x8
 1141 05e4 C4020000 		.4byte	.LASF96
 1142 05e8 07       		.byte	0x7
 1143 05e9 CA01     		.2byte	0x1ca
 1144 05eb 61050000 		.4byte	0x561
 1145 05ef 28       		.byte	0x28
 1146 05f0 08       		.uleb128 0x8
 1147 05f1 80060000 		.4byte	.LASF97
 1148 05f5 07       		.byte	0x7
 1149 05f6 CB01     		.2byte	0x1cb
 1150 05f8 61050000 		.4byte	0x561
 1151 05fc 2C       		.byte	0x2c
 1152 05fd 08       		.uleb128 0x8
 1153 05fe 21020000 		.4byte	.LASF98
 1154 0602 07       		.byte	0x7
 1155 0603 CC01     		.2byte	0x1cc
 1156 0605 61050000 		.4byte	0x561
 1157 0609 30       		.byte	0x30
 1158 060a 08       		.uleb128 0x8
 1159 060b 26020000 		.4byte	.LASF99
 1160 060f 07       		.byte	0x7
 1161 0610 CD01     		.2byte	0x1cd
 1162 0612 61050000 		.4byte	0x561
 1163 0616 34       		.byte	0x34
 1164 0617 08       		.uleb128 0x8
 1165 0618 4C010000 		.4byte	.LASF100
 1166 061c 07       		.byte	0x7
 1167 061d CE01     		.2byte	0x1ce
 1168 061f 61050000 		.4byte	0x561
 1169 0623 38       		.byte	0x38
 1170 0624 08       		.uleb128 0x8
 1171 0625 51010000 		.4byte	.LASF101
 1172 0629 07       		.byte	0x7
 1173 062a CF01     		.2byte	0x1cf
 1174 062c 61050000 		.4byte	0x561
 1175 0630 3C       		.byte	0x3c
 1176 0631 07       		.uleb128 0x7
 1177 0632 50465200 		.ascii	"PFR\000"
 1178 0636 07       		.byte	0x7
 1179 0637 D001     		.2byte	0x1d0
 1180 0639 B7060000 		.4byte	0x6b7
 1181 063d 40       		.byte	0x40
 1182 063e 07       		.uleb128 0x7
 1183 063f 44465200 		.ascii	"DFR\000"
 1184 0643 07       		.byte	0x7
 1185 0644 D101     		.2byte	0x1d1
 1186 0646 8D060000 		.4byte	0x68d
 1187 064a 48       		.byte	0x48
 1188 064b 07       		.uleb128 0x7
 1189 064c 41445200 		.ascii	"ADR\000"
 1190 0650 07       		.byte	0x7
 1191 0651 D201     		.2byte	0x1d2
 1192 0653 8D060000 		.4byte	0x68d
ARM GAS  /tmp/ccARsyzv.s 			page 36


 1193 0657 4C       		.byte	0x4c
 1194 0658 08       		.uleb128 0x8
 1195 0659 5D050000 		.4byte	.LASF102
 1196 065d 07       		.byte	0x7
 1197 065e D301     		.2byte	0x1d3
 1198 0660 D1060000 		.4byte	0x6d1
 1199 0664 50       		.byte	0x50
 1200 0665 08       		.uleb128 0x8
 1201 0666 D9000000 		.4byte	.LASF103
 1202 066a 07       		.byte	0x7
 1203 066b D401     		.2byte	0x1d4
 1204 066d EB060000 		.4byte	0x6eb
 1205 0671 60       		.byte	0x60
 1206 0672 08       		.uleb128 0x8
 1207 0673 1E030000 		.4byte	.LASF78
 1208 0677 07       		.byte	0x7
 1209 0678 D501     		.2byte	0x1d5
 1210 067a DB060000 		.4byte	0x6db
 1211 067e 74       		.byte	0x74
 1212 067f 08       		.uleb128 0x8
 1213 0680 7A060000 		.4byte	.LASF104
 1214 0684 07       		.byte	0x7
 1215 0685 D601     		.2byte	0x1d6
 1216 0687 61050000 		.4byte	0x561
 1217 068b 88       		.byte	0x88
 1218 068c 00       		.byte	0
 1219 068d 18       		.uleb128 0x18
 1220 068e 61050000 		.4byte	0x561
 1221 0692 12       		.uleb128 0x12
 1222 0693 97000000 		.4byte	0x97
 1223 0697 A2060000 		.4byte	0x6a2
 1224 069b 13       		.uleb128 0x13
 1225 069c FB040000 		.4byte	0x4fb
 1226 06a0 0B       		.byte	0xb
 1227 06a1 00       		.byte	0
 1228 06a2 14       		.uleb128 0x14
 1229 06a3 92060000 		.4byte	0x692
 1230 06a7 12       		.uleb128 0x12
 1231 06a8 AD000000 		.4byte	0xad
 1232 06ac B7060000 		.4byte	0x6b7
 1233 06b0 13       		.uleb128 0x13
 1234 06b1 FB040000 		.4byte	0x4fb
 1235 06b5 01       		.byte	0x1
 1236 06b6 00       		.byte	0
 1237 06b7 18       		.uleb128 0x18
 1238 06b8 BC060000 		.4byte	0x6bc
 1239 06bc 14       		.uleb128 0x14
 1240 06bd A7060000 		.4byte	0x6a7
 1241 06c1 12       		.uleb128 0x12
 1242 06c2 AD000000 		.4byte	0xad
 1243 06c6 D1060000 		.4byte	0x6d1
 1244 06ca 13       		.uleb128 0x13
 1245 06cb FB040000 		.4byte	0x4fb
 1246 06cf 03       		.byte	0x3
 1247 06d0 00       		.byte	0
 1248 06d1 18       		.uleb128 0x18
 1249 06d2 D6060000 		.4byte	0x6d6
ARM GAS  /tmp/ccARsyzv.s 			page 37


 1250 06d6 14       		.uleb128 0x14
 1251 06d7 C1060000 		.4byte	0x6c1
 1252 06db 12       		.uleb128 0x12
 1253 06dc AD000000 		.4byte	0xad
 1254 06e0 EB060000 		.4byte	0x6eb
 1255 06e4 13       		.uleb128 0x13
 1256 06e5 FB040000 		.4byte	0x4fb
 1257 06e9 04       		.byte	0x4
 1258 06ea 00       		.byte	0
 1259 06eb 18       		.uleb128 0x18
 1260 06ec F0060000 		.4byte	0x6f0
 1261 06f0 14       		.uleb128 0x14
 1262 06f1 DB060000 		.4byte	0x6db
 1263 06f5 16       		.uleb128 0x16
 1264 06f6 6F010000 		.4byte	.LASF105
 1265 06fa 07       		.byte	0x7
 1266 06fb D701     		.2byte	0x1d7
 1267 06fd 72050000 		.4byte	0x572
 1268 0701 04       		.uleb128 0x4
 1269 0702 5E010000 		.4byte	.LASF106
 1270 0706 08       		.byte	0x8
 1271 0707 65       		.byte	0x65
 1272 0708 F9020000 		.4byte	0x2f9
 1273 070c 04       		.uleb128 0x4
 1274 070d 64020000 		.4byte	.LASF107
 1275 0711 08       		.byte	0x8
 1276 0712 6D       		.byte	0x6d
 1277 0713 B8000000 		.4byte	0xb8
 1278 0717 05       		.uleb128 0x5
 1279 0718 26050000 		.4byte	.LASF108
 1280 071c 04       		.byte	0x4
 1281 071d 08       		.byte	0x8
 1282 071e 89       		.byte	0x89
 1283 071f 30070000 		.4byte	0x730
 1284 0723 19       		.uleb128 0x19
 1285 0724 72313300 		.ascii	"r13\000"
 1286 0728 08       		.byte	0x8
 1287 0729 8A       		.byte	0x8a
 1288 072a AB070000 		.4byte	0x7ab
 1289 072e 00       		.byte	0
 1290 072f 00       		.byte	0
 1291 0730 05       		.uleb128 0x5
 1292 0731 41000000 		.4byte	.LASF109
 1293 0735 24       		.byte	0x24
 1294 0736 09       		.byte	0x9
 1295 0737 FD       		.byte	0xfd
 1296 0738 AB070000 		.4byte	0x7ab
 1297 073c 07       		.uleb128 0x7
 1298 073d 723400   		.ascii	"r4\000"
 1299 0740 09       		.byte	0x9
 1300 0741 1001     		.2byte	0x110
 1301 0743 01070000 		.4byte	0x701
 1302 0747 00       		.byte	0
 1303 0748 07       		.uleb128 0x7
 1304 0749 723500   		.ascii	"r5\000"
 1305 074c 09       		.byte	0x9
 1306 074d 1101     		.2byte	0x111
ARM GAS  /tmp/ccARsyzv.s 			page 38


 1307 074f 01070000 		.4byte	0x701
 1308 0753 04       		.byte	0x4
 1309 0754 07       		.uleb128 0x7
 1310 0755 723600   		.ascii	"r6\000"
 1311 0758 09       		.byte	0x9
 1312 0759 1201     		.2byte	0x112
 1313 075b 01070000 		.4byte	0x701
 1314 075f 08       		.byte	0x8
 1315 0760 07       		.uleb128 0x7
 1316 0761 723700   		.ascii	"r7\000"
 1317 0764 09       		.byte	0x9
 1318 0765 1301     		.2byte	0x113
 1319 0767 01070000 		.4byte	0x701
 1320 076b 0C       		.byte	0xc
 1321 076c 07       		.uleb128 0x7
 1322 076d 723800   		.ascii	"r8\000"
 1323 0770 09       		.byte	0x9
 1324 0771 1401     		.2byte	0x114
 1325 0773 01070000 		.4byte	0x701
 1326 0777 10       		.byte	0x10
 1327 0778 07       		.uleb128 0x7
 1328 0779 723900   		.ascii	"r9\000"
 1329 077c 09       		.byte	0x9
 1330 077d 1501     		.2byte	0x115
 1331 077f 01070000 		.4byte	0x701
 1332 0783 14       		.byte	0x14
 1333 0784 07       		.uleb128 0x7
 1334 0785 72313000 		.ascii	"r10\000"
 1335 0789 09       		.byte	0x9
 1336 078a 1601     		.2byte	0x116
 1337 078c 01070000 		.4byte	0x701
 1338 0790 18       		.byte	0x18
 1339 0791 07       		.uleb128 0x7
 1340 0792 72313100 		.ascii	"r11\000"
 1341 0796 09       		.byte	0x9
 1342 0797 1701     		.2byte	0x117
 1343 0799 01070000 		.4byte	0x701
 1344 079d 1C       		.byte	0x1c
 1345 079e 07       		.uleb128 0x7
 1346 079f 6C7200   		.ascii	"lr\000"
 1347 07a2 09       		.byte	0x9
 1348 07a3 1801     		.2byte	0x118
 1349 07a5 01070000 		.4byte	0x701
 1350 07a9 20       		.byte	0x20
 1351 07aa 00       		.byte	0
 1352 07ab 09       		.uleb128 0x9
 1353 07ac 04       		.byte	0x4
 1354 07ad 30070000 		.4byte	0x730
 1355 07b1 1A       		.uleb128 0x1a
 1356 07b2 04       		.byte	0x4
 1357 07b3 0A       		.byte	0xa
 1358 07b4 38       		.byte	0x38
 1359 07b5 C6070000 		.4byte	0x7c6
 1360 07b9 06       		.uleb128 0x6
 1361 07ba 1F050000 		.4byte	.LASF110
 1362 07be 0A       		.byte	0xa
 1363 07bf 3C       		.byte	0x3c
ARM GAS  /tmp/ccARsyzv.s 			page 39


 1364 07c0 C3000000 		.4byte	0xc3
 1365 07c4 00       		.byte	0
 1366 07c5 00       		.byte	0
 1367 07c6 04       		.uleb128 0x4
 1368 07c7 E8020000 		.4byte	.LASF111
 1369 07cb 0A       		.byte	0xa
 1370 07cc 3D       		.byte	0x3d
 1371 07cd B1070000 		.4byte	0x7b1
 1372 07d1 1B       		.uleb128 0x1b
 1373 07d2 04       		.byte	0x4
 1374 07d3 06       		.byte	0x6
 1375 07d4 FA       		.byte	0xfa
 1376 07d5 3A080000 		.4byte	0x83a
 1377 07d9 1C       		.uleb128 0x1c
 1378 07da 27000000 		.4byte	.LASF112
 1379 07de 06       		.byte	0x6
 1380 07df 0101     		.2byte	0x101
 1381 07e1 FA000000 		.4byte	0xfa
 1382 07e5 1C       		.uleb128 0x1c
 1383 07e6 73000000 		.4byte	.LASF113
 1384 07ea 06       		.byte	0x6
 1385 07eb 0801     		.2byte	0x108
 1386 07ed FA000000 		.4byte	0xfa
 1387 07f1 1C       		.uleb128 0x1c
 1388 07f2 5E060000 		.4byte	.LASF114
 1389 07f6 06       		.byte	0x6
 1390 07f7 0F01     		.2byte	0x10f
 1391 07f9 F9020000 		.4byte	0x2f9
 1392 07fd 1C       		.uleb128 0x1c
 1393 07fe 21000000 		.4byte	.LASF115
 1394 0802 06       		.byte	0x6
 1395 0803 1601     		.2byte	0x116
 1396 0805 3A080000 		.4byte	0x83a
 1397 0809 1C       		.uleb128 0x1c
 1398 080a 87000000 		.4byte	.LASF116
 1399 080e 06       		.byte	0x6
 1400 080f 1B01     		.2byte	0x11b
 1401 0811 FA000000 		.4byte	0xfa
 1402 0815 1C       		.uleb128 0x1c
 1403 0816 BC010000 		.4byte	.LASF117
 1404 081a 06       		.byte	0x6
 1405 081b 2401     		.2byte	0x124
 1406 081d 65080000 		.4byte	0x865
 1407 0821 1C       		.uleb128 0x1c
 1408 0822 48040000 		.4byte	.LASF118
 1409 0826 06       		.byte	0x6
 1410 0827 2D01     		.2byte	0x12d
 1411 0829 9C080000 		.4byte	0x89c
 1412 082d 1C       		.uleb128 0x1c
 1413 082e E3030000 		.4byte	.LASF119
 1414 0832 06       		.byte	0x6
 1415 0833 3501     		.2byte	0x135
 1416 0835 05010000 		.4byte	0x105
 1417 0839 00       		.byte	0
 1418 083a 09       		.uleb128 0x9
 1419 083b 04       		.byte	0x4
 1420 083c 11020000 		.4byte	0x211
ARM GAS  /tmp/ccARsyzv.s 			page 40


 1421 0840 05       		.uleb128 0x5
 1422 0841 1D040000 		.4byte	.LASF120
 1423 0845 0C       		.byte	0xc
 1424 0846 0B       		.byte	0xb
 1425 0847 34       		.byte	0x34
 1426 0848 65080000 		.4byte	0x865
 1427 084c 06       		.uleb128 0x6
 1428 084d 44010000 		.4byte	.LASF121
 1429 0851 0B       		.byte	0xb
 1430 0852 35       		.byte	0x35
 1431 0853 46020000 		.4byte	0x246
 1432 0857 00       		.byte	0
 1433 0858 06       		.uleb128 0x6
 1434 0859 D3010000 		.4byte	.LASF122
 1435 085d 0B       		.byte	0xb
 1436 085e 37       		.byte	0x37
 1437 085f 10010000 		.4byte	0x110
 1438 0863 08       		.byte	0x8
 1439 0864 00       		.byte	0
 1440 0865 09       		.uleb128 0x9
 1441 0866 04       		.byte	0x4
 1442 0867 40080000 		.4byte	0x840
 1443 086b 05       		.uleb128 0x5
 1444 086c 4D050000 		.4byte	.LASF123
 1445 0870 10       		.byte	0x10
 1446 0871 0C       		.byte	0xc
 1447 0872 39       		.byte	0x39
 1448 0873 9C080000 		.4byte	0x89c
 1449 0877 06       		.uleb128 0x6
 1450 0878 00010000 		.4byte	.LASF124
 1451 087c 0C       		.byte	0xc
 1452 087d 3A       		.byte	0x3a
 1453 087e 46020000 		.4byte	0x246
 1454 0882 00       		.byte	0
 1455 0883 06       		.uleb128 0x6
 1456 0884 85060000 		.4byte	.LASF125
 1457 0888 0C       		.byte	0xc
 1458 0889 3C       		.byte	0x3c
 1459 088a 1C020000 		.4byte	0x21c
 1460 088e 08       		.byte	0x8
 1461 088f 06       		.uleb128 0x6
 1462 0890 E5040000 		.4byte	.LASF126
 1463 0894 0C       		.byte	0xc
 1464 0895 3E       		.byte	0x3e
 1465 0896 DA080000 		.4byte	0x8da
 1466 089a 0C       		.byte	0xc
 1467 089b 00       		.byte	0
 1468 089c 09       		.uleb128 0x9
 1469 089d 04       		.byte	0x4
 1470 089e 6B080000 		.4byte	0x86b
 1471 08a2 09       		.uleb128 0x9
 1472 08a3 04       		.byte	0x4
 1473 08a4 A8080000 		.4byte	0x8a8
 1474 08a8 18       		.uleb128 0x18
 1475 08a9 AD080000 		.4byte	0x8ad
 1476 08ad 03       		.uleb128 0x3
 1477 08ae 01       		.byte	0x1
ARM GAS  /tmp/ccARsyzv.s 			page 41


 1478 08af 08       		.byte	0x8
 1479 08b0 D7040000 		.4byte	.LASF127
 1480 08b4 09       		.uleb128 0x9
 1481 08b5 04       		.byte	0x4
 1482 08b6 FB020000 		.4byte	0x2fb
 1483 08ba 14       		.uleb128 0x14
 1484 08bb A2080000 		.4byte	0x8a2
 1485 08bf 12       		.uleb128 0x12
 1486 08c0 0C070000 		.4byte	0x70c
 1487 08c4 CF080000 		.4byte	0x8cf
 1488 08c8 13       		.uleb128 0x13
 1489 08c9 FB040000 		.4byte	0x4fb
 1490 08cd 1A       		.byte	0x1a
 1491 08ce 00       		.byte	0
 1492 08cf 04       		.uleb128 0x4
 1493 08d0 78010000 		.4byte	.LASF128
 1494 08d4 0C       		.byte	0xc
 1495 08d5 34       		.byte	0x34
 1496 08d6 6B080000 		.4byte	0x86b
 1497 08da 09       		.uleb128 0x9
 1498 08db 04       		.byte	0x4
 1499 08dc CF080000 		.4byte	0x8cf
 1500 08e0 03       		.uleb128 0x3
 1501 08e1 01       		.byte	0x1
 1502 08e2 02       		.byte	0x2
 1503 08e3 65030000 		.4byte	.LASF129
 1504 08e7 1D       		.uleb128 0x1d
 1505 08e8 C8000000 		.4byte	.LASF131
 1506 08ec 01       		.byte	0x1
 1507 08ed 39       		.byte	0x39
 1508 08ee 00000000 		.4byte	.LFB272
 1509 08f2 34000000 		.4byte	.LFE272-.LFB272
 1510 08f6 01       		.uleb128 0x1
 1511 08f7 9C       		.byte	0x9c
 1512 08f8 19090000 		.4byte	0x919
 1513 08fc 1E       		.uleb128 0x1e
 1514 08fd 6E00     		.ascii	"n\000"
 1515 08ff 01       		.byte	0x1
 1516 0900 39       		.byte	0x39
 1517 0901 AD000000 		.4byte	0xad
 1518 0905 00000000 		.4byte	.LLST0
 1519 0909 1F       		.uleb128 0x1f
 1520 090a FE020000 		.4byte	.LASF130
 1521 090e 01       		.byte	0x1
 1522 090f 39       		.byte	0x39
 1523 0910 AD000000 		.4byte	0xad
 1524 0914 24000000 		.4byte	.LLST1
 1525 0918 00       		.byte	0
 1526 0919 1D       		.uleb128 0x1d
 1527 091a AA010000 		.4byte	.LASF132
 1528 091e 01       		.byte	0x1
 1529 091f 4A       		.byte	0x4a
 1530 0920 00000000 		.4byte	.LFB273
 1531 0924 28000000 		.4byte	.LFE273-.LFB273
 1532 0928 01       		.uleb128 0x1
 1533 0929 9C       		.byte	0x9c
 1534 092a 3C090000 		.4byte	0x93c
ARM GAS  /tmp/ccARsyzv.s 			page 42


 1535 092e 1E       		.uleb128 0x1e
 1536 092f 6E00     		.ascii	"n\000"
 1537 0931 01       		.byte	0x1
 1538 0932 4A       		.byte	0x4a
 1539 0933 AD000000 		.4byte	0xad
 1540 0937 45000000 		.4byte	.LLST2
 1541 093b 00       		.byte	0
 1542 093c 1D       		.uleb128 0x1d
 1543 093d BF030000 		.4byte	.LASF133
 1544 0941 01       		.byte	0x1
 1545 0942 5A       		.byte	0x5a
 1546 0943 00000000 		.4byte	.LFB274
 1547 0947 10000000 		.4byte	.LFE274-.LFB274
 1548 094b 01       		.uleb128 0x1
 1549 094c 9C       		.byte	0x9c
 1550 094d 79090000 		.4byte	0x979
 1551 0951 1F       		.uleb128 0x1f
 1552 0952 6F020000 		.4byte	.LASF134
 1553 0956 01       		.byte	0x1
 1554 0957 5A       		.byte	0x5a
 1555 0958 AD000000 		.4byte	0xad
 1556 095c 69000000 		.4byte	.LLST3
 1557 0960 1F       		.uleb128 0x1f
 1558 0961 FE020000 		.4byte	.LASF130
 1559 0965 01       		.byte	0x1
 1560 0966 5A       		.byte	0x5a
 1561 0967 AD000000 		.4byte	0xad
 1562 096b 9E000000 		.4byte	.LLST4
 1563 096f 20       		.uleb128 0x20
 1564 0970 65060000 		.4byte	.LASF140
 1565 0974 89090000 		.4byte	0x989
 1566 0978 00       		.byte	0
 1567 0979 12       		.uleb128 0x12
 1568 097a AD080000 		.4byte	0x8ad
 1569 097e 89090000 		.4byte	0x989
 1570 0982 13       		.uleb128 0x13
 1571 0983 FB040000 		.4byte	0x4fb
 1572 0987 1C       		.byte	0x1c
 1573 0988 00       		.byte	0
 1574 0989 18       		.uleb128 0x18
 1575 098a 79090000 		.4byte	0x979
 1576 098e 1D       		.uleb128 0x1d
 1577 098f 08010000 		.4byte	.LASF135
 1578 0993 01       		.byte	0x1
 1579 0994 6D       		.byte	0x6d
 1580 0995 00000000 		.4byte	.LFB275
 1581 0999 1C000000 		.4byte	.LFE275-.LFB275
 1582 099d 01       		.uleb128 0x1
 1583 099e 9C       		.byte	0x9c
 1584 099f B1090000 		.4byte	0x9b1
 1585 09a3 1E       		.uleb128 0x1e
 1586 09a4 6E00     		.ascii	"n\000"
 1587 09a6 01       		.byte	0x1
 1588 09a7 6D       		.byte	0x6d
 1589 09a8 AD000000 		.4byte	0xad
 1590 09ac BF000000 		.4byte	.LLST5
 1591 09b0 00       		.byte	0
ARM GAS  /tmp/ccARsyzv.s 			page 43


 1592 09b1 21       		.uleb128 0x21
 1593 09b2 87030000 		.4byte	.LASF136
 1594 09b6 07       		.byte	0x7
 1595 09b7 FA06     		.2byte	0x6fa
 1596 09b9 BD090000 		.4byte	0x9bd
 1597 09bd 14       		.uleb128 0x14
 1598 09be A2000000 		.4byte	0xa2
 1599 09c2 22       		.uleb128 0x22
 1600 09c3 636800   		.ascii	"ch\000"
 1601 09c6 06       		.byte	0x6
 1602 09c7 0B02     		.2byte	0x20b
 1603 09c9 C8030000 		.4byte	0x3c8
 1604 09cd 00       		.byte	0
 1605              		.section	.debug_abbrev,"",%progbits
 1606              	.Ldebug_abbrev0:
 1607 0000 01       		.uleb128 0x1
 1608 0001 11       		.uleb128 0x11
 1609 0002 01       		.byte	0x1
 1610 0003 25       		.uleb128 0x25
 1611 0004 0E       		.uleb128 0xe
 1612 0005 13       		.uleb128 0x13
 1613 0006 0B       		.uleb128 0xb
 1614 0007 03       		.uleb128 0x3
 1615 0008 0E       		.uleb128 0xe
 1616 0009 1B       		.uleb128 0x1b
 1617 000a 0E       		.uleb128 0xe
 1618 000b 55       		.uleb128 0x55
 1619 000c 17       		.uleb128 0x17
 1620 000d 11       		.uleb128 0x11
 1621 000e 01       		.uleb128 0x1
 1622 000f 10       		.uleb128 0x10
 1623 0010 17       		.uleb128 0x17
 1624 0011 00       		.byte	0
 1625 0012 00       		.byte	0
 1626 0013 02       		.uleb128 0x2
 1627 0014 24       		.uleb128 0x24
 1628 0015 00       		.byte	0
 1629 0016 0B       		.uleb128 0xb
 1630 0017 0B       		.uleb128 0xb
 1631 0018 3E       		.uleb128 0x3e
 1632 0019 0B       		.uleb128 0xb
 1633 001a 03       		.uleb128 0x3
 1634 001b 08       		.uleb128 0x8
 1635 001c 00       		.byte	0
 1636 001d 00       		.byte	0
 1637 001e 03       		.uleb128 0x3
 1638 001f 24       		.uleb128 0x24
 1639 0020 00       		.byte	0
 1640 0021 0B       		.uleb128 0xb
 1641 0022 0B       		.uleb128 0xb
 1642 0023 3E       		.uleb128 0x3e
 1643 0024 0B       		.uleb128 0xb
 1644 0025 03       		.uleb128 0x3
 1645 0026 0E       		.uleb128 0xe
 1646 0027 00       		.byte	0
 1647 0028 00       		.byte	0
 1648 0029 04       		.uleb128 0x4
ARM GAS  /tmp/ccARsyzv.s 			page 44


 1649 002a 16       		.uleb128 0x16
 1650 002b 00       		.byte	0
 1651 002c 03       		.uleb128 0x3
 1652 002d 0E       		.uleb128 0xe
 1653 002e 3A       		.uleb128 0x3a
 1654 002f 0B       		.uleb128 0xb
 1655 0030 3B       		.uleb128 0x3b
 1656 0031 0B       		.uleb128 0xb
 1657 0032 49       		.uleb128 0x49
 1658 0033 13       		.uleb128 0x13
 1659 0034 00       		.byte	0
 1660 0035 00       		.byte	0
 1661 0036 05       		.uleb128 0x5
 1662 0037 13       		.uleb128 0x13
 1663 0038 01       		.byte	0x1
 1664 0039 03       		.uleb128 0x3
 1665 003a 0E       		.uleb128 0xe
 1666 003b 0B       		.uleb128 0xb
 1667 003c 0B       		.uleb128 0xb
 1668 003d 3A       		.uleb128 0x3a
 1669 003e 0B       		.uleb128 0xb
 1670 003f 3B       		.uleb128 0x3b
 1671 0040 0B       		.uleb128 0xb
 1672 0041 01       		.uleb128 0x1
 1673 0042 13       		.uleb128 0x13
 1674 0043 00       		.byte	0
 1675 0044 00       		.byte	0
 1676 0045 06       		.uleb128 0x6
 1677 0046 0D       		.uleb128 0xd
 1678 0047 00       		.byte	0
 1679 0048 03       		.uleb128 0x3
 1680 0049 0E       		.uleb128 0xe
 1681 004a 3A       		.uleb128 0x3a
 1682 004b 0B       		.uleb128 0xb
 1683 004c 3B       		.uleb128 0x3b
 1684 004d 0B       		.uleb128 0xb
 1685 004e 49       		.uleb128 0x49
 1686 004f 13       		.uleb128 0x13
 1687 0050 38       		.uleb128 0x38
 1688 0051 0B       		.uleb128 0xb
 1689 0052 00       		.byte	0
 1690 0053 00       		.byte	0
 1691 0054 07       		.uleb128 0x7
 1692 0055 0D       		.uleb128 0xd
 1693 0056 00       		.byte	0
 1694 0057 03       		.uleb128 0x3
 1695 0058 08       		.uleb128 0x8
 1696 0059 3A       		.uleb128 0x3a
 1697 005a 0B       		.uleb128 0xb
 1698 005b 3B       		.uleb128 0x3b
 1699 005c 05       		.uleb128 0x5
 1700 005d 49       		.uleb128 0x49
 1701 005e 13       		.uleb128 0x13
 1702 005f 38       		.uleb128 0x38
 1703 0060 0B       		.uleb128 0xb
 1704 0061 00       		.byte	0
 1705 0062 00       		.byte	0
ARM GAS  /tmp/ccARsyzv.s 			page 45


 1706 0063 08       		.uleb128 0x8
 1707 0064 0D       		.uleb128 0xd
 1708 0065 00       		.byte	0
 1709 0066 03       		.uleb128 0x3
 1710 0067 0E       		.uleb128 0xe
 1711 0068 3A       		.uleb128 0x3a
 1712 0069 0B       		.uleb128 0xb
 1713 006a 3B       		.uleb128 0x3b
 1714 006b 05       		.uleb128 0x5
 1715 006c 49       		.uleb128 0x49
 1716 006d 13       		.uleb128 0x13
 1717 006e 38       		.uleb128 0x38
 1718 006f 0B       		.uleb128 0xb
 1719 0070 00       		.byte	0
 1720 0071 00       		.byte	0
 1721 0072 09       		.uleb128 0x9
 1722 0073 0F       		.uleb128 0xf
 1723 0074 00       		.byte	0
 1724 0075 0B       		.uleb128 0xb
 1725 0076 0B       		.uleb128 0xb
 1726 0077 49       		.uleb128 0x49
 1727 0078 13       		.uleb128 0x13
 1728 0079 00       		.byte	0
 1729 007a 00       		.byte	0
 1730 007b 0A       		.uleb128 0xa
 1731 007c 13       		.uleb128 0x13
 1732 007d 01       		.byte	0x1
 1733 007e 03       		.uleb128 0x3
 1734 007f 0E       		.uleb128 0xe
 1735 0080 0B       		.uleb128 0xb
 1736 0081 0B       		.uleb128 0xb
 1737 0082 3A       		.uleb128 0x3a
 1738 0083 0B       		.uleb128 0xb
 1739 0084 3B       		.uleb128 0x3b
 1740 0085 05       		.uleb128 0x5
 1741 0086 01       		.uleb128 0x1
 1742 0087 13       		.uleb128 0x13
 1743 0088 00       		.byte	0
 1744 0089 00       		.byte	0
 1745 008a 0B       		.uleb128 0xb
 1746 008b 15       		.uleb128 0x15
 1747 008c 01       		.byte	0x1
 1748 008d 27       		.uleb128 0x27
 1749 008e 19       		.uleb128 0x19
 1750 008f 01       		.uleb128 0x1
 1751 0090 13       		.uleb128 0x13
 1752 0091 00       		.byte	0
 1753 0092 00       		.byte	0
 1754 0093 0C       		.uleb128 0xc
 1755 0094 05       		.uleb128 0x5
 1756 0095 00       		.byte	0
 1757 0096 49       		.uleb128 0x49
 1758 0097 13       		.uleb128 0x13
 1759 0098 00       		.byte	0
 1760 0099 00       		.byte	0
 1761 009a 0D       		.uleb128 0xd
 1762 009b 0F       		.uleb128 0xf
ARM GAS  /tmp/ccARsyzv.s 			page 46


 1763 009c 00       		.byte	0
 1764 009d 0B       		.uleb128 0xb
 1765 009e 0B       		.uleb128 0xb
 1766 009f 00       		.byte	0
 1767 00a0 00       		.byte	0
 1768 00a1 0E       		.uleb128 0xe
 1769 00a2 13       		.uleb128 0x13
 1770 00a3 01       		.byte	0x1
 1771 00a4 03       		.uleb128 0x3
 1772 00a5 0E       		.uleb128 0xe
 1773 00a6 0B       		.uleb128 0xb
 1774 00a7 05       		.uleb128 0x5
 1775 00a8 3A       		.uleb128 0x3a
 1776 00a9 0B       		.uleb128 0xb
 1777 00aa 3B       		.uleb128 0x3b
 1778 00ab 05       		.uleb128 0x5
 1779 00ac 01       		.uleb128 0x1
 1780 00ad 13       		.uleb128 0x13
 1781 00ae 00       		.byte	0
 1782 00af 00       		.byte	0
 1783 00b0 0F       		.uleb128 0xf
 1784 00b1 13       		.uleb128 0x13
 1785 00b2 01       		.byte	0x1
 1786 00b3 0B       		.uleb128 0xb
 1787 00b4 05       		.uleb128 0x5
 1788 00b5 3A       		.uleb128 0x3a
 1789 00b6 0B       		.uleb128 0xb
 1790 00b7 3B       		.uleb128 0x3b
 1791 00b8 05       		.uleb128 0x5
 1792 00b9 01       		.uleb128 0x1
 1793 00ba 13       		.uleb128 0x13
 1794 00bb 00       		.byte	0
 1795 00bc 00       		.byte	0
 1796 00bd 10       		.uleb128 0x10
 1797 00be 0D       		.uleb128 0xd
 1798 00bf 00       		.byte	0
 1799 00c0 03       		.uleb128 0x3
 1800 00c1 0E       		.uleb128 0xe
 1801 00c2 3A       		.uleb128 0x3a
 1802 00c3 0B       		.uleb128 0xb
 1803 00c4 3B       		.uleb128 0x3b
 1804 00c5 05       		.uleb128 0x5
 1805 00c6 49       		.uleb128 0x49
 1806 00c7 13       		.uleb128 0x13
 1807 00c8 38       		.uleb128 0x38
 1808 00c9 05       		.uleb128 0x5
 1809 00ca 00       		.byte	0
 1810 00cb 00       		.byte	0
 1811 00cc 11       		.uleb128 0x11
 1812 00cd 0D       		.uleb128 0xd
 1813 00ce 00       		.byte	0
 1814 00cf 03       		.uleb128 0x3
 1815 00d0 08       		.uleb128 0x8
 1816 00d1 3A       		.uleb128 0x3a
 1817 00d2 0B       		.uleb128 0xb
 1818 00d3 3B       		.uleb128 0x3b
 1819 00d4 05       		.uleb128 0x5
ARM GAS  /tmp/ccARsyzv.s 			page 47


 1820 00d5 49       		.uleb128 0x49
 1821 00d6 13       		.uleb128 0x13
 1822 00d7 38       		.uleb128 0x38
 1823 00d8 05       		.uleb128 0x5
 1824 00d9 00       		.byte	0
 1825 00da 00       		.byte	0
 1826 00db 12       		.uleb128 0x12
 1827 00dc 01       		.uleb128 0x1
 1828 00dd 01       		.byte	0x1
 1829 00de 49       		.uleb128 0x49
 1830 00df 13       		.uleb128 0x13
 1831 00e0 01       		.uleb128 0x1
 1832 00e1 13       		.uleb128 0x13
 1833 00e2 00       		.byte	0
 1834 00e3 00       		.byte	0
 1835 00e4 13       		.uleb128 0x13
 1836 00e5 21       		.uleb128 0x21
 1837 00e6 00       		.byte	0
 1838 00e7 49       		.uleb128 0x49
 1839 00e8 13       		.uleb128 0x13
 1840 00e9 2F       		.uleb128 0x2f
 1841 00ea 0B       		.uleb128 0xb
 1842 00eb 00       		.byte	0
 1843 00ec 00       		.byte	0
 1844 00ed 14       		.uleb128 0x14
 1845 00ee 35       		.uleb128 0x35
 1846 00ef 00       		.byte	0
 1847 00f0 49       		.uleb128 0x49
 1848 00f1 13       		.uleb128 0x13
 1849 00f2 00       		.byte	0
 1850 00f3 00       		.byte	0
 1851 00f4 15       		.uleb128 0x15
 1852 00f5 21       		.uleb128 0x21
 1853 00f6 00       		.byte	0
 1854 00f7 49       		.uleb128 0x49
 1855 00f8 13       		.uleb128 0x13
 1856 00f9 2F       		.uleb128 0x2f
 1857 00fa 05       		.uleb128 0x5
 1858 00fb 00       		.byte	0
 1859 00fc 00       		.byte	0
 1860 00fd 16       		.uleb128 0x16
 1861 00fe 16       		.uleb128 0x16
 1862 00ff 00       		.byte	0
 1863 0100 03       		.uleb128 0x3
 1864 0101 0E       		.uleb128 0xe
 1865 0102 3A       		.uleb128 0x3a
 1866 0103 0B       		.uleb128 0xb
 1867 0104 3B       		.uleb128 0x3b
 1868 0105 05       		.uleb128 0x5
 1869 0106 49       		.uleb128 0x49
 1870 0107 13       		.uleb128 0x13
 1871 0108 00       		.byte	0
 1872 0109 00       		.byte	0
 1873 010a 17       		.uleb128 0x17
 1874 010b 13       		.uleb128 0x13
 1875 010c 01       		.byte	0x1
 1876 010d 0B       		.uleb128 0xb
ARM GAS  /tmp/ccARsyzv.s 			page 48


 1877 010e 0B       		.uleb128 0xb
 1878 010f 3A       		.uleb128 0x3a
 1879 0110 0B       		.uleb128 0xb
 1880 0111 3B       		.uleb128 0x3b
 1881 0112 05       		.uleb128 0x5
 1882 0113 01       		.uleb128 0x1
 1883 0114 13       		.uleb128 0x13
 1884 0115 00       		.byte	0
 1885 0116 00       		.byte	0
 1886 0117 18       		.uleb128 0x18
 1887 0118 26       		.uleb128 0x26
 1888 0119 00       		.byte	0
 1889 011a 49       		.uleb128 0x49
 1890 011b 13       		.uleb128 0x13
 1891 011c 00       		.byte	0
 1892 011d 00       		.byte	0
 1893 011e 19       		.uleb128 0x19
 1894 011f 0D       		.uleb128 0xd
 1895 0120 00       		.byte	0
 1896 0121 03       		.uleb128 0x3
 1897 0122 08       		.uleb128 0x8
 1898 0123 3A       		.uleb128 0x3a
 1899 0124 0B       		.uleb128 0xb
 1900 0125 3B       		.uleb128 0x3b
 1901 0126 0B       		.uleb128 0xb
 1902 0127 49       		.uleb128 0x49
 1903 0128 13       		.uleb128 0x13
 1904 0129 38       		.uleb128 0x38
 1905 012a 0B       		.uleb128 0xb
 1906 012b 00       		.byte	0
 1907 012c 00       		.byte	0
 1908 012d 1A       		.uleb128 0x1a
 1909 012e 13       		.uleb128 0x13
 1910 012f 01       		.byte	0x1
 1911 0130 0B       		.uleb128 0xb
 1912 0131 0B       		.uleb128 0xb
 1913 0132 3A       		.uleb128 0x3a
 1914 0133 0B       		.uleb128 0xb
 1915 0134 3B       		.uleb128 0x3b
 1916 0135 0B       		.uleb128 0xb
 1917 0136 01       		.uleb128 0x1
 1918 0137 13       		.uleb128 0x13
 1919 0138 00       		.byte	0
 1920 0139 00       		.byte	0
 1921 013a 1B       		.uleb128 0x1b
 1922 013b 17       		.uleb128 0x17
 1923 013c 01       		.byte	0x1
 1924 013d 0B       		.uleb128 0xb
 1925 013e 0B       		.uleb128 0xb
 1926 013f 3A       		.uleb128 0x3a
 1927 0140 0B       		.uleb128 0xb
 1928 0141 3B       		.uleb128 0x3b
 1929 0142 0B       		.uleb128 0xb
 1930 0143 01       		.uleb128 0x1
 1931 0144 13       		.uleb128 0x13
 1932 0145 00       		.byte	0
 1933 0146 00       		.byte	0
ARM GAS  /tmp/ccARsyzv.s 			page 49


 1934 0147 1C       		.uleb128 0x1c
 1935 0148 0D       		.uleb128 0xd
 1936 0149 00       		.byte	0
 1937 014a 03       		.uleb128 0x3
 1938 014b 0E       		.uleb128 0xe
 1939 014c 3A       		.uleb128 0x3a
 1940 014d 0B       		.uleb128 0xb
 1941 014e 3B       		.uleb128 0x3b
 1942 014f 05       		.uleb128 0x5
 1943 0150 49       		.uleb128 0x49
 1944 0151 13       		.uleb128 0x13
 1945 0152 00       		.byte	0
 1946 0153 00       		.byte	0
 1947 0154 1D       		.uleb128 0x1d
 1948 0155 2E       		.uleb128 0x2e
 1949 0156 01       		.byte	0x1
 1950 0157 3F       		.uleb128 0x3f
 1951 0158 19       		.uleb128 0x19
 1952 0159 03       		.uleb128 0x3
 1953 015a 0E       		.uleb128 0xe
 1954 015b 3A       		.uleb128 0x3a
 1955 015c 0B       		.uleb128 0xb
 1956 015d 3B       		.uleb128 0x3b
 1957 015e 0B       		.uleb128 0xb
 1958 015f 27       		.uleb128 0x27
 1959 0160 19       		.uleb128 0x19
 1960 0161 11       		.uleb128 0x11
 1961 0162 01       		.uleb128 0x1
 1962 0163 12       		.uleb128 0x12
 1963 0164 06       		.uleb128 0x6
 1964 0165 40       		.uleb128 0x40
 1965 0166 18       		.uleb128 0x18
 1966 0167 9742     		.uleb128 0x2117
 1967 0169 19       		.uleb128 0x19
 1968 016a 01       		.uleb128 0x1
 1969 016b 13       		.uleb128 0x13
 1970 016c 00       		.byte	0
 1971 016d 00       		.byte	0
 1972 016e 1E       		.uleb128 0x1e
 1973 016f 05       		.uleb128 0x5
 1974 0170 00       		.byte	0
 1975 0171 03       		.uleb128 0x3
 1976 0172 08       		.uleb128 0x8
 1977 0173 3A       		.uleb128 0x3a
 1978 0174 0B       		.uleb128 0xb
 1979 0175 3B       		.uleb128 0x3b
 1980 0176 0B       		.uleb128 0xb
 1981 0177 49       		.uleb128 0x49
 1982 0178 13       		.uleb128 0x13
 1983 0179 02       		.uleb128 0x2
 1984 017a 17       		.uleb128 0x17
 1985 017b 00       		.byte	0
 1986 017c 00       		.byte	0
 1987 017d 1F       		.uleb128 0x1f
 1988 017e 05       		.uleb128 0x5
 1989 017f 00       		.byte	0
 1990 0180 03       		.uleb128 0x3
ARM GAS  /tmp/ccARsyzv.s 			page 50


 1991 0181 0E       		.uleb128 0xe
 1992 0182 3A       		.uleb128 0x3a
 1993 0183 0B       		.uleb128 0xb
 1994 0184 3B       		.uleb128 0x3b
 1995 0185 0B       		.uleb128 0xb
 1996 0186 49       		.uleb128 0x49
 1997 0187 13       		.uleb128 0x13
 1998 0188 02       		.uleb128 0x2
 1999 0189 17       		.uleb128 0x17
 2000 018a 00       		.byte	0
 2001 018b 00       		.byte	0
 2002 018c 20       		.uleb128 0x20
 2003 018d 34       		.uleb128 0x34
 2004 018e 00       		.byte	0
 2005 018f 03       		.uleb128 0x3
 2006 0190 0E       		.uleb128 0xe
 2007 0191 49       		.uleb128 0x49
 2008 0192 13       		.uleb128 0x13
 2009 0193 34       		.uleb128 0x34
 2010 0194 19       		.uleb128 0x19
 2011 0195 00       		.byte	0
 2012 0196 00       		.byte	0
 2013 0197 21       		.uleb128 0x21
 2014 0198 34       		.uleb128 0x34
 2015 0199 00       		.byte	0
 2016 019a 03       		.uleb128 0x3
 2017 019b 0E       		.uleb128 0xe
 2018 019c 3A       		.uleb128 0x3a
 2019 019d 0B       		.uleb128 0xb
 2020 019e 3B       		.uleb128 0x3b
 2021 019f 05       		.uleb128 0x5
 2022 01a0 49       		.uleb128 0x49
 2023 01a1 13       		.uleb128 0x13
 2024 01a2 3F       		.uleb128 0x3f
 2025 01a3 19       		.uleb128 0x19
 2026 01a4 3C       		.uleb128 0x3c
 2027 01a5 19       		.uleb128 0x19
 2028 01a6 00       		.byte	0
 2029 01a7 00       		.byte	0
 2030 01a8 22       		.uleb128 0x22
 2031 01a9 34       		.uleb128 0x34
 2032 01aa 00       		.byte	0
 2033 01ab 03       		.uleb128 0x3
 2034 01ac 08       		.uleb128 0x8
 2035 01ad 3A       		.uleb128 0x3a
 2036 01ae 0B       		.uleb128 0xb
 2037 01af 3B       		.uleb128 0x3b
 2038 01b0 05       		.uleb128 0x5
 2039 01b1 49       		.uleb128 0x49
 2040 01b2 13       		.uleb128 0x13
 2041 01b3 3F       		.uleb128 0x3f
 2042 01b4 19       		.uleb128 0x19
 2043 01b5 3C       		.uleb128 0x3c
 2044 01b6 19       		.uleb128 0x19
 2045 01b7 00       		.byte	0
 2046 01b8 00       		.byte	0
 2047 01b9 00       		.byte	0
ARM GAS  /tmp/ccARsyzv.s 			page 51


 2048              		.section	.debug_loc,"",%progbits
 2049              	.Ldebug_loc0:
 2050              	.LLST0:
 2051 0000 00000000 		.4byte	.LVL0
 2052 0004 1E000000 		.4byte	.LVL2
 2053 0008 0100     		.2byte	0x1
 2054 000a 50       		.byte	0x50
 2055 000b 1E000000 		.4byte	.LVL2
 2056 000f 34000000 		.4byte	.LFE272
 2057 0013 0700     		.2byte	0x7
 2058 0015 72       		.byte	0x72
 2059 0016 80BEFCFF 		.sleb128 536813312
 2059      01
 2060 001b 9F       		.byte	0x9f
 2061 001c 00000000 		.4byte	0
 2062 0020 00000000 		.4byte	0
 2063              	.LLST1:
 2064 0024 00000000 		.4byte	.LVL0
 2065 0028 16000000 		.4byte	.LVL1
 2066 002c 0100     		.2byte	0x1
 2067 002e 51       		.byte	0x51
 2068 002f 16000000 		.4byte	.LVL1
 2069 0033 34000000 		.4byte	.LFE272
 2070 0037 0400     		.2byte	0x4
 2071 0039 F3       		.byte	0xf3
 2072 003a 01       		.uleb128 0x1
 2073 003b 51       		.byte	0x51
 2074 003c 9F       		.byte	0x9f
 2075 003d 00000000 		.4byte	0
 2076 0041 00000000 		.4byte	0
 2077              	.LLST2:
 2078 0045 00000000 		.4byte	.LVL3
 2079 0049 10000000 		.4byte	.LVL4
 2080 004d 0100     		.2byte	0x1
 2081 004f 50       		.byte	0x50
 2082 0050 10000000 		.4byte	.LVL4
 2083 0054 28000000 		.4byte	.LFE273
 2084 0058 0700     		.2byte	0x7
 2085 005a 70       		.byte	0x70
 2086 005b 80BEFCFF 		.sleb128 536813312
 2086      01
 2087 0060 9F       		.byte	0x9f
 2088 0061 00000000 		.4byte	0
 2089 0065 00000000 		.4byte	0
 2090              	.LLST3:
 2091 0069 00000000 		.4byte	.LVL5
 2092 006d 04000000 		.4byte	.LVL6
 2093 0071 0100     		.2byte	0x1
 2094 0073 50       		.byte	0x50
 2095 0074 04000000 		.4byte	.LVL6
 2096 0078 08000000 		.4byte	.LVL7
 2097 007c 0700     		.2byte	0x7
 2098 007e 70       		.byte	0x70
 2099 007f 80808080 		.sleb128 536870912
 2099      02
 2100 0084 9F       		.byte	0x9f
 2101 0085 08000000 		.4byte	.LVL7
ARM GAS  /tmp/ccARsyzv.s 			page 52


 2102 0089 10000000 		.4byte	.LFE274
 2103 008d 0700     		.2byte	0x7
 2104 008f 70       		.byte	0x70
 2105 0090 80A6FCFF 		.sleb128 536810240
 2105      01
 2106 0095 9F       		.byte	0x9f
 2107 0096 00000000 		.4byte	0
 2108 009a 00000000 		.4byte	0
 2109              	.LLST4:
 2110 009e 00000000 		.4byte	.LVL5
 2111 00a2 0A000000 		.4byte	.LVL8
 2112 00a6 0100     		.2byte	0x1
 2113 00a8 51       		.byte	0x51
 2114 00a9 0A000000 		.4byte	.LVL8
 2115 00ad 10000000 		.4byte	.LFE274
 2116 00b1 0400     		.2byte	0x4
 2117 00b3 F3       		.byte	0xf3
 2118 00b4 01       		.uleb128 0x1
 2119 00b5 51       		.byte	0x51
 2120 00b6 9F       		.byte	0x9f
 2121 00b7 00000000 		.4byte	0
 2122 00bb 00000000 		.4byte	0
 2123              	.LLST5:
 2124 00bf 00000000 		.4byte	.LVL9
 2125 00c3 08000000 		.4byte	.LVL10
 2126 00c7 0100     		.2byte	0x1
 2127 00c9 50       		.byte	0x50
 2128 00ca 08000000 		.4byte	.LVL10
 2129 00ce 1C000000 		.4byte	.LFE275
 2130 00d2 0400     		.2byte	0x4
 2131 00d4 F3       		.byte	0xf3
 2132 00d5 01       		.uleb128 0x1
 2133 00d6 50       		.byte	0x50
 2134 00d7 9F       		.byte	0x9f
 2135 00d8 00000000 		.4byte	0
 2136 00dc 00000000 		.4byte	0
 2137              		.section	.debug_aranges,"",%progbits
 2138 0000 34000000 		.4byte	0x34
 2139 0004 0200     		.2byte	0x2
 2140 0006 00000000 		.4byte	.Ldebug_info0
 2141 000a 04       		.byte	0x4
 2142 000b 00       		.byte	0
 2143 000c 0000     		.2byte	0
 2144 000e 0000     		.2byte	0
 2145 0010 00000000 		.4byte	.LFB272
 2146 0014 34000000 		.4byte	.LFE272-.LFB272
 2147 0018 00000000 		.4byte	.LFB273
 2148 001c 28000000 		.4byte	.LFE273-.LFB273
 2149 0020 00000000 		.4byte	.LFB274
 2150 0024 10000000 		.4byte	.LFE274-.LFB274
 2151 0028 00000000 		.4byte	.LFB275
 2152 002c 1C000000 		.4byte	.LFE275-.LFB275
 2153 0030 00000000 		.4byte	0
 2154 0034 00000000 		.4byte	0
 2155              		.section	.debug_ranges,"",%progbits
 2156              	.Ldebug_ranges0:
 2157 0000 00000000 		.4byte	.LFB272
ARM GAS  /tmp/ccARsyzv.s 			page 53


 2158 0004 34000000 		.4byte	.LFE272
 2159 0008 00000000 		.4byte	.LFB273
 2160 000c 28000000 		.4byte	.LFE273
 2161 0010 00000000 		.4byte	.LFB274
 2162 0014 10000000 		.4byte	.LFE274
 2163 0018 00000000 		.4byte	.LFB275
 2164 001c 1C000000 		.4byte	.LFE275
 2165 0020 00000000 		.4byte	0
 2166 0024 00000000 		.4byte	0
 2167              		.section	.debug_line,"",%progbits
 2168              	.Ldebug_line0:
 2169 0000 93020000 		.section	.debug_str,"MS",%progbits,1
 2169      02003502 
 2169      00000201 
 2169      FB0E0D00 
 2169      01010101 
 2170              	.LASF44:
 2171 0000 74687265 		.ascii	"threads_list_t\000"
 2171      6164735F 
 2171      6C697374 
 2171      5F7400
 2172              	.LASF83:
 2173 000f 49435052 		.ascii	"ICPR\000"
 2173      00
 2174              	.LASF49:
 2175 0014 72656164 		.ascii	"ready_list_t\000"
 2175      795F6C69 
 2175      73745F74 
 2175      00
 2176              	.LASF115:
 2177 0021 77747472 		.ascii	"wttrp\000"
 2177      7000
 2178              	.LASF112:
 2179 0027 7264796D 		.ascii	"rdymsg\000"
 2179      736700
 2180              	.LASF16:
 2181 002e 75696E74 		.ascii	"uint64_t\000"
 2181      36345F74 
 2181      00
 2182              	.LASF5:
 2183 0037 5F5F7569 		.ascii	"__uint8_t\000"
 2183      6E74385F 
 2183      7400
 2184              	.LASF109:
 2185 0041 706F7274 		.ascii	"port_intctx\000"
 2185      5F696E74 
 2185      63747800 
 2186              	.LASF68:
 2187 004d 73797374 		.ascii	"system_debug_t\000"
 2187      656D5F64 
 2187      65627567 
 2187      5F7400
 2188              	.LASF12:
 2189 005c 6C6F6E67 		.ascii	"long long unsigned int\000"
 2189      206C6F6E 
 2189      6720756E 
 2189      7369676E 
ARM GAS  /tmp/ccARsyzv.s 			page 54


 2189      65642069 
 2190              	.LASF113:
 2191 0073 65786974 		.ascii	"exitcode\000"
 2191      636F6465 
 2191      00
 2192              	.LASF75:
 2193 007c 6D61696E 		.ascii	"mainthread\000"
 2193      74687265 
 2193      616400
 2194              	.LASF116:
 2195 0087 73656E74 		.ascii	"sentmsg\000"
 2195      6D736700 
 2196              	.LASF65:
 2197 008f 76697274 		.ascii	"virtual_timers_list_t\000"
 2197      75616C5F 
 2197      74696D65 
 2197      72735F6C 
 2197      6973745F 
 2198              	.LASF91:
 2199 00a5 43505549 		.ascii	"CPUID\000"
 2199      4400
 2200              	.LASF48:
 2201 00ab 63685F74 		.ascii	"ch_threads_queue\000"
 2201      68726561 
 2201      64735F71 
 2201      75657565 
 2201      00
 2202              	.LASF81:
 2203 00bc 49535052 		.ascii	"ISPR\000"
 2203      00
 2204              	.LASF29:
 2205 00c1 705F7072 		.ascii	"p_prio\000"
 2205      696F00
 2206              	.LASF131:
 2207 00c8 6E766963 		.ascii	"nvicEnableVector\000"
 2207      456E6162 
 2207      6C655665 
 2207      63746F72 
 2207      00
 2208              	.LASF103:
 2209 00d9 49534152 		.ascii	"ISAR\000"
 2209      00
 2210              	.LASF10:
 2211 00de 6C6F6E67 		.ascii	"long long int\000"
 2211      206C6F6E 
 2211      6720696E 
 2211      7400
 2212              	.LASF1:
 2213 00ec 7369676E 		.ascii	"signed char\000"
 2213      65642063 
 2213      68617200 
 2214              	.LASF42:
 2215 00f8 705F6D70 		.ascii	"p_mpool\000"
 2215      6F6F6C00 
 2216              	.LASF124:
 2217 0100 6D5F7175 		.ascii	"m_queue\000"
 2217      65756500 
ARM GAS  /tmp/ccARsyzv.s 			page 55


 2218              	.LASF135:
 2219 0108 6E766963 		.ascii	"nvicClearPending\000"
 2219      436C6561 
 2219      7250656E 
 2219      64696E67 
 2219      00
 2220              	.LASF74:
 2221 0119 76746C69 		.ascii	"vtlist\000"
 2221      737400
 2222              	.LASF72:
 2223 0120 63685F73 		.ascii	"ch_system\000"
 2223      79737465 
 2223      6D00
 2224              	.LASF7:
 2225 012a 6C6F6E67 		.ascii	"long int\000"
 2225      20696E74 
 2225      00
 2226              	.LASF19:
 2227 0133 74737461 		.ascii	"tstate_t\000"
 2227      74655F74 
 2227      00
 2228              	.LASF31:
 2229 013c 705F6E65 		.ascii	"p_newer\000"
 2229      77657200 
 2230              	.LASF121:
 2231 0144 735F7175 		.ascii	"s_queue\000"
 2231      65756500 
 2232              	.LASF100:
 2233 014c 42464152 		.ascii	"BFAR\000"
 2233      00
 2234              	.LASF101:
 2235 0151 41465352 		.ascii	"AFSR\000"
 2235      00
 2236              	.LASF54:
 2237 0156 725F6E65 		.ascii	"r_newer\000"
 2237      77657200 
 2238              	.LASF106:
 2239 015e 72656761 		.ascii	"regarm_t\000"
 2239      726D5F74 
 2239      00
 2240              	.LASF61:
 2241 0167 76745F70 		.ascii	"vt_prev\000"
 2241      72657600 
 2242              	.LASF105:
 2243 016f 5343425F 		.ascii	"SCB_Type\000"
 2243      54797065 
 2243      00
 2244              	.LASF128:
 2245 0178 6D757465 		.ascii	"mutex_t\000"
 2245      785F7400 
 2246              	.LASF76:
 2247 0180 69646C65 		.ascii	"idle_thread_wa\000"
 2247      5F746872 
 2247      6561645F 
 2247      776100
 2248              	.LASF24:
 2249 018f 636E745F 		.ascii	"cnt_t\000"
ARM GAS  /tmp/ccARsyzv.s 			page 56


 2249      7400
 2250              	.LASF0:
 2251 0195 756E7369 		.ascii	"unsigned int\000"
 2251      676E6564 
 2251      20696E74 
 2251      00
 2252              	.LASF60:
 2253 01a2 76745F6E 		.ascii	"vt_next\000"
 2253      65787400 
 2254              	.LASF132:
 2255 01aa 6E766963 		.ascii	"nvicDisableVector\000"
 2255      44697361 
 2255      626C6556 
 2255      6563746F 
 2255      7200
 2256              	.LASF117:
 2257 01bc 77747365 		.ascii	"wtsemp\000"
 2257      6D7000
 2258              	.LASF38:
 2259 01c3 705F6D73 		.ascii	"p_msgqueue\000"
 2259      67717565 
 2259      756500
 2260              	.LASF93:
 2261 01ce 56544F52 		.ascii	"VTOR\000"
 2261      00
 2262              	.LASF122:
 2263 01d3 735F636E 		.ascii	"s_cnt\000"
 2263      7400
 2264              	.LASF138:
 2265 01d9 2E2E2F43 		.ascii	"../ChibiOS/os/hal/ports/common/ARMCMx/nvic.c\000"
 2265      68696269 
 2265      4F532F6F 
 2265      732F6861 
 2265      6C2F706F 
 2266              	.LASF45:
 2267 0206 63685F74 		.ascii	"ch_thread\000"
 2267      68726561 
 2267      6400
 2268              	.LASF92:
 2269 0210 49435352 		.ascii	"ICSR\000"
 2269      00
 2270              	.LASF22:
 2271 0215 6D73675F 		.ascii	"msg_t\000"
 2271      7400
 2272              	.LASF94:
 2273 021b 41495243 		.ascii	"AIRCR\000"
 2273      5200
 2274              	.LASF98:
 2275 0221 44465352 		.ascii	"DFSR\000"
 2275      00
 2276              	.LASF99:
 2277 0226 4D4D4641 		.ascii	"MMFAR\000"
 2277      5200
 2278              	.LASF71:
 2279 022c 63685F73 		.ascii	"ch_system_t\000"
 2279      79737465 
 2279      6D5F7400 
ARM GAS  /tmp/ccARsyzv.s 			page 57


 2280              	.LASF18:
 2281 0238 746D6F64 		.ascii	"tmode_t\000"
 2281      655F7400 
 2282              	.LASF50:
 2283 0240 63685F72 		.ascii	"ch_ready_list\000"
 2283      65616479 
 2283      5F6C6973 
 2283      7400
 2284              	.LASF23:
 2285 024e 6576656E 		.ascii	"eventmask_t\000"
 2285      746D6173 
 2285      6B5F7400 
 2286              	.LASF6:
 2287 025a 5F5F696E 		.ascii	"__int32_t\000"
 2287      7433325F 
 2287      7400
 2288              	.LASF107:
 2289 0264 73746B61 		.ascii	"stkalign_t\000"
 2289      6C69676E 
 2289      5F7400
 2290              	.LASF134:
 2291 026f 68616E64 		.ascii	"handler\000"
 2291      6C657200 
 2292              	.LASF58:
 2293 0277 76697274 		.ascii	"virtual_timer_t\000"
 2293      75616C5F 
 2293      74696D65 
 2293      725F7400 
 2294              	.LASF37:
 2295 0287 705F7761 		.ascii	"p_waiting\000"
 2295      6974696E 
 2295      6700
 2296              	.LASF89:
 2297 0291 73697A65 		.ascii	"sizetype\000"
 2297      74797065 
 2297      00
 2298              	.LASF43:
 2299 029a 74687265 		.ascii	"thread_reference_t\000"
 2299      61645F72 
 2299      65666572 
 2299      656E6365 
 2299      5F7400
 2300              	.LASF66:
 2301 02ad 63685F76 		.ascii	"ch_virtual_timers_list\000"
 2301      69727475 
 2301      616C5F74 
 2301      696D6572 
 2301      735F6C69 
 2302              	.LASF96:
 2303 02c4 43465352 		.ascii	"CFSR\000"
 2303      00
 2304              	.LASF85:
 2305 02c9 49414252 		.ascii	"IABR\000"
 2305      00
 2306              	.LASF67:
 2307 02ce 76745F6C 		.ascii	"vt_lasttime\000"
 2307      61737474 
ARM GAS  /tmp/ccARsyzv.s 			page 58


 2307      696D6500 
 2308              	.LASF32:
 2309 02da 705F6F6C 		.ascii	"p_older\000"
 2309      64657200 
 2310              	.LASF53:
 2311 02e2 725F6374 		.ascii	"r_ctx\000"
 2311      7800
 2312              	.LASF111:
 2313 02e8 746D5F63 		.ascii	"tm_calibration_t\000"
 2313      616C6962 
 2313      72617469 
 2313      6F6E5F74 
 2313      00
 2314              	.LASF79:
 2315 02f9 49434552 		.ascii	"ICER\000"
 2315      00
 2316              	.LASF130:
 2317 02fe 7072696F 		.ascii	"prio\000"
 2317      00
 2318              	.LASF55:
 2319 0303 725F6F6C 		.ascii	"r_older\000"
 2319      64657200 
 2320              	.LASF11:
 2321 030b 5F5F7569 		.ascii	"__uint64_t\000"
 2321      6E743634 
 2321      5F7400
 2322              	.LASF20:
 2323 0316 74726566 		.ascii	"trefs_t\000"
 2323      735F7400 
 2324              	.LASF78:
 2325 031e 52455345 		.ascii	"RESERVED0\000"
 2325      52564544 
 2325      3000
 2326              	.LASF82:
 2327 0328 52455345 		.ascii	"RESERVED2\000"
 2327      52564544 
 2327      3200
 2328              	.LASF84:
 2329 0332 52455345 		.ascii	"RESERVED3\000"
 2329      52564544 
 2329      3300
 2330              	.LASF86:
 2331 033c 52455345 		.ascii	"RESERVED4\000"
 2331      52564544 
 2331      3400
 2332              	.LASF28:
 2333 0346 705F7072 		.ascii	"p_prev\000"
 2333      657600
 2334              	.LASF21:
 2335 034d 74707269 		.ascii	"tprio_t\000"
 2335      6F5F7400 
 2336              	.LASF69:
 2337 0355 63685F73 		.ascii	"ch_system_debug\000"
 2337      79737465 
 2337      6D5F6465 
 2337      62756700 
 2338              	.LASF129:
ARM GAS  /tmp/ccARsyzv.s 			page 59


 2339 0365 5F426F6F 		.ascii	"_Bool\000"
 2339      6C00
 2340              	.LASF14:
 2341 036b 696E7433 		.ascii	"int32_t\000"
 2341      325F7400 
 2342              	.LASF2:
 2343 0373 756E7369 		.ascii	"unsigned char\000"
 2343      676E6564 
 2343      20636861 
 2343      7200
 2344              	.LASF95:
 2345 0381 53484353 		.ascii	"SHCSR\000"
 2345      5200
 2346              	.LASF136:
 2347 0387 49544D5F 		.ascii	"ITM_RxBuffer\000"
 2347      52784275 
 2347      66666572 
 2347      00
 2348              	.LASF34:
 2349 0394 705F7374 		.ascii	"p_state\000"
 2349      61746500 
 2350              	.LASF40:
 2351 039c 705F6D74 		.ascii	"p_mtxlist\000"
 2351      786C6973 
 2351      7400
 2352              	.LASF3:
 2353 03a6 73686F72 		.ascii	"short int\000"
 2353      7420696E 
 2353      7400
 2354              	.LASF77:
 2355 03b0 49534552 		.ascii	"ISER\000"
 2355      00
 2356              	.LASF90:
 2357 03b5 4E564943 		.ascii	"NVIC_Type\000"
 2357      5F547970 
 2357      6500
 2358              	.LASF133:
 2359 03bf 6E766963 		.ascii	"nvicSetSystemHandlerPriority\000"
 2359      53657453 
 2359      79737465 
 2359      6D48616E 
 2359      646C6572 
 2360              	.LASF52:
 2361 03dc 725F7072 		.ascii	"r_prio\000"
 2361      696F00
 2362              	.LASF119:
 2363 03e3 65776D61 		.ascii	"ewmask\000"
 2363      736B00
 2364              	.LASF27:
 2365 03ea 705F6E65 		.ascii	"p_next\000"
 2365      787400
 2366              	.LASF35:
 2367 03f1 705F666C 		.ascii	"p_flags\000"
 2367      61677300 
 2368              	.LASF4:
 2369 03f9 73686F72 		.ascii	"short unsigned int\000"
 2369      7420756E 
ARM GAS  /tmp/ccARsyzv.s 			page 60


 2369      7369676E 
 2369      65642069 
 2369      6E7400
 2370              	.LASF59:
 2371 040c 63685F76 		.ascii	"ch_virtual_timer\000"
 2371      69727475 
 2371      616C5F74 
 2371      696D6572 
 2371      00
 2372              	.LASF120:
 2373 041d 63685F73 		.ascii	"ch_semaphore\000"
 2373      656D6170 
 2373      686F7265 
 2373      00
 2374              	.LASF39:
 2375 042a 705F6570 		.ascii	"p_epending\000"
 2375      656E6469 
 2375      6E6700
 2376              	.LASF87:
 2377 0435 52455345 		.ascii	"RESERVED5\000"
 2377      52564544 
 2377      3500
 2378              	.LASF15:
 2379 043f 75696E74 		.ascii	"uint32_t\000"
 2379      33325F74 
 2379      00
 2380              	.LASF118:
 2381 0448 77746D74 		.ascii	"wtmtxp\000"
 2381      787000
 2382              	.LASF51:
 2383 044f 725F7175 		.ascii	"r_queue\000"
 2383      65756500 
 2384              	.LASF62:
 2385 0457 76745F64 		.ascii	"vt_delta\000"
 2385      656C7461 
 2385      00
 2386              	.LASF46:
 2387 0460 63685F74 		.ascii	"ch_threads_list\000"
 2387      68726561 
 2387      64735F6C 
 2387      69737400 
 2388              	.LASF139:
 2389 0470 2F6E6673 		.ascii	"/nfs/nfs4/home/irbrown/Courses/P442/P442WifiTrailCo"
 2389      2F6E6673 
 2389      342F686F 
 2389      6D652F69 
 2389      7262726F 
 2390 04a3 756E7465 		.ascii	"unterProject/milestone4\000"
 2390      7250726F 
 2390      6A656374 
 2390      2F6D696C 
 2390      6573746F 
 2391              	.LASF9:
 2392 04bb 6C6F6E67 		.ascii	"long unsigned int\000"
 2392      20756E73 
 2392      69676E65 
 2392      6420696E 
ARM GAS  /tmp/ccARsyzv.s 			page 61


 2392      7400
 2393              	.LASF56:
 2394 04cd 725F6375 		.ascii	"r_current\000"
 2394      7272656E 
 2394      7400
 2395              	.LASF127:
 2396 04d7 63686172 		.ascii	"char\000"
 2396      00
 2397              	.LASF26:
 2398 04dc 74687265 		.ascii	"thread_t\000"
 2398      61645F74 
 2398      00
 2399              	.LASF126:
 2400 04e5 6D5F6E65 		.ascii	"m_next\000"
 2400      787400
 2401              	.LASF25:
 2402 04ec 73797374 		.ascii	"systime_t\000"
 2402      696D655F 
 2402      7400
 2403              	.LASF41:
 2404 04f6 705F7265 		.ascii	"p_realprio\000"
 2404      616C7072 
 2404      696F00
 2405              	.LASF57:
 2406 0501 76746675 		.ascii	"vtfunc_t\000"
 2406      6E635F74 
 2406      00
 2407              	.LASF8:
 2408 050a 5F5F7569 		.ascii	"__uint32_t\000"
 2408      6E743332 
 2408      5F7400
 2409              	.LASF70:
 2410 0515 70616E69 		.ascii	"panic_msg\000"
 2410      635F6D73 
 2410      6700
 2411              	.LASF110:
 2412 051f 6F666673 		.ascii	"offset\000"
 2412      657400
 2413              	.LASF108:
 2414 0526 636F6E74 		.ascii	"context\000"
 2414      65787400 
 2415              	.LASF17:
 2416 052e 7274636E 		.ascii	"rtcnt_t\000"
 2416      745F7400 
 2417              	.LASF64:
 2418 0536 76745F70 		.ascii	"vt_par\000"
 2418      617200
 2419              	.LASF47:
 2420 053d 74687265 		.ascii	"threads_queue_t\000"
 2420      6164735F 
 2420      71756575 
 2420      655F7400 
 2421              	.LASF123:
 2422 054d 63685F6D 		.ascii	"ch_mutex\000"
 2422      75746578 
 2422      00
 2423              	.LASF36:
ARM GAS  /tmp/ccARsyzv.s 			page 62


 2424 0556 705F7265 		.ascii	"p_refs\000"
 2424      667300
 2425              	.LASF102:
 2426 055d 4D4D4652 		.ascii	"MMFR\000"
 2426      00
 2427              	.LASF73:
 2428 0562 726C6973 		.ascii	"rlist\000"
 2428      7400
 2429              	.LASF13:
 2430 0568 75696E74 		.ascii	"uint8_t\000"
 2430      385F7400 
 2431              	.LASF80:
 2432 0570 52534552 		.ascii	"RSERVED1\000"
 2432      56454431 
 2432      00
 2433              	.LASF88:
 2434 0579 53544952 		.ascii	"STIR\000"
 2434      00
 2435              	.LASF137:
 2436 057e 474E5520 		.ascii	"GNU C 4.8.4 20140526 (release) [ARM/embedded-4_8-br"
 2436      4320342E 
 2436      382E3420 
 2436      32303134 
 2436      30353236 
 2437 05b1 616E6368 		.ascii	"anch revision 211358] -mcpu=cortex-m4 -mno-thumb-in"
 2437      20726576 
 2437      6973696F 
 2437      6E203231 
 2437      31333538 
 2438 05e4 74657277 		.ascii	"terwork -mthumb -ggdb -O2 -fomit-frame-pointer -fal"
 2438      6F726B20 
 2438      2D6D7468 
 2438      756D6220 
 2438      2D676764 
 2439 0617 69676E2D 		.ascii	"ign-functions=16 -ffunction-sections -fdata-section"
 2439      66756E63 
 2439      74696F6E 
 2439      733D3136 
 2439      202D6666 
 2440 064a 73202D66 		.ascii	"s -fno-common -flto\000"
 2440      6E6F2D63 
 2440      6F6D6D6F 
 2440      6E202D66 
 2440      6C746F00 
 2441              	.LASF114:
 2442 065e 77746F62 		.ascii	"wtobjp\000"
 2442      6A7000
 2443              	.LASF140:
 2444 0665 5F5F6675 		.ascii	"__func__.7084\000"
 2444      6E635F5F 
 2444      2E373038 
 2444      3400
 2445              	.LASF33:
 2446 0673 705F6E61 		.ascii	"p_name\000"
 2446      6D6500
 2447              	.LASF104:
 2448 067a 43504143 		.ascii	"CPACR\000"
ARM GAS  /tmp/ccARsyzv.s 			page 63


 2448      5200
 2449              	.LASF97:
 2450 0680 48465352 		.ascii	"HFSR\000"
 2450      00
 2451              	.LASF125:
 2452 0685 6D5F6F77 		.ascii	"m_owner\000"
 2452      6E657200 
 2453              	.LASF30:
 2454 068d 705F6374 		.ascii	"p_ctx\000"
 2454      7800
 2455              	.LASF63:
 2456 0693 76745F66 		.ascii	"vt_func\000"
 2456      756E6300 
 2457              		.comm	__gnu_lto_v1,1,1
 2458              		.ident	"GCC: (GNU Tools for ARM Embedded Processors) 4.8.4 20140526 (release) [ARM/embedded-4_8-br
ARM GAS  /tmp/ccARsyzv.s 			page 64


DEFINED SYMBOLS
                            *ABS*:00000000 nvic.c
     /tmp/ccARsyzv.s:266    .text.nvicEnableVector:00000000 $t
     /tmp/ccARsyzv.s:272    .text.nvicEnableVector:00000000 nvicEnableVector
     /tmp/ccARsyzv.s:316    .text.nvicDisableVector:00000000 $t
     /tmp/ccARsyzv.s:322    .text.nvicDisableVector:00000000 nvicDisableVector
     /tmp/ccARsyzv.s:358    .text.nvicDisableVector:00000024 $d
     /tmp/ccARsyzv.s:363    .text.nvicSetSystemHandlerPriority:00000000 $t
     /tmp/ccARsyzv.s:369    .text.nvicSetSystemHandlerPriority:00000000 nvicSetSystemHandlerPriority
     /tmp/ccARsyzv.s:391    .text.nvicClearPending:00000000 $t
     /tmp/ccARsyzv.s:397    .text.nvicClearPending:00000000 nvicClearPending
     /tmp/ccARsyzv.s:418    .text.nvicClearPending:00000018 $d
                            *COM*:00000001 __gnu_lto_v1
                     .debug_frame:00000010 $d
     /tmp/ccARsyzv.s:362    .text.nvicDisableVector:00000028 $t
     /tmp/ccARsyzv.s:422    .text.nvicClearPending:0000001c $t

NO UNDEFINED SYMBOLS
