ARM GAS  /tmp/ccNIDDOt.s 			page 1


   1              		.syntax unified
   2              		.cpu cortex-m4
   3              		.fpu softvfp
   4              		.eabi_attribute 20, 1
   5              		.eabi_attribute 21, 1
   6              		.eabi_attribute 23, 3
   7              		.eabi_attribute 24, 1
   8              		.eabi_attribute 25, 1
   9              		.eabi_attribute 26, 1
  10              		.eabi_attribute 30, 2
  11              		.eabi_attribute 34, 1
  12              		.eabi_attribute 18, 4
  13              		.thumb
  14              		.file	"syscalls.c"
  15              		.text
  16              	.Ltext0:
  17              		.section	.gnu.lto_.jmpfuncs.9679cea104f44850,"",%progbits
  18 0000 789C6362 		.ascii	"x\234cb`b\300\006t\2414;\003##\003\023\0073\003\013"
  18      6062C006 
  18      74A1343B 
  18      03232303 
  18      13073303 
  19 0015 33230303 		.ascii	"3#\003\003+\01333\003\003S\031P(\2021\223\021\244\000"
  19      2B0B3333 
  19      03035319 
  19      50288231 
  19      9311A400 
  20 0029 CC60B461 		.ascii	"\314`\264a``c`\000\0004>\002\245"
  20      60606360 
  20      0000343E 
  20      02A5
  21              		.text
  22              		.section	.gnu.lto_.inline.9679cea104f44850,"",%progbits
  23 0000 789C6362 		.ascii	"x\234cb`b\300\006f@iv\006\006\026fF\006&\306\027\354"
  23      6062C006 
  23      66406976 
  23      06061666 
  23      460626C6 
  24 0016 0CEC1DEA 		.ascii	"\014\354\035\352`\305\214\014\314L\214`}l\013\344\301"
  24      60C58C0C 
  24      CC4C8C60 
  24      7D6C0BE4 
  24      C1
  25 0027 224C1822 		.ascii	"\"L\030\"\314\030\",\014\234\002\214@\000R\316\372C"
  25      CC18222C 
  25      0C9C028C 
  25      400052CE 
  25      FA43
  26 0039 8181FD87 		.ascii	"\201\201\375\207\002D%\017\320\304\011~\254\014\034"
  26      0244250F 
  26      D0C4097E 
  26      AC0C1C
  27 0048 0268F6B0 		.ascii	"\002h\366\260\360\002e'\370\001\215\3000\214\001\000"
  27      F0026527 
  27      F8018DC0 
  27      308C0100 
  28 0058 77DC0BA7 		.ascii	"w\334\013\247"
ARM GAS  /tmp/ccNIDDOt.s 			page 2


  29              		.text
  30              		.section	.gnu.lto_.pureconst.9679cea104f44850,"",%progbits
  31 0000 789C6362 		.ascii	"x\234cb`b\340g\200\000v\006)F \227\231\201E\212U\212"
  31      6062E067 
  31      80007606 
  31      29462097 
  31      9981458A 
  32 0016 8D010004 		.ascii	"\215\001\000\004\327\000~"
  32      D7007E
  33              		.text
  34              		.section	.gnu.lto__read_r.9679cea104f44850,"",%progbits
  35 0000 789C6362 		.ascii	"x\234cb`b@\007\222@\274\014\210\225\201\230\221\231"
  35      60624007 
  35      9240BC0C 
  35      88958198 
  35      9199
  36 0012 819169C2 		.ascii	"\201\221i\3029\006\206F\016&FF\020\203\201\221\241\236"
  36      39068646 
  36      0E264646 
  36      10838191 
  36      A19E
  37 0024 89B13E92 		.ascii	"\211\261>\222\021\254v=\323\201\007\377\377\257\233"
  37      11AC763D 
  37      D38107FF 
  37      FFAF9B
  38 0033 776CC17A 		.ascii	"wl\301zFF\026&\306\\\2600+CKC\303\004\005\006\206d0"
  38      46461626 
  38      C65CB030 
  38      2B434B43 
  38      C3040506 
  39 004a 37044882 		.ascii	"7\004H\202\264\20622\201h\346\263\014M;f\274>\300\224"
  39      B4863232 
  39      8168E6B3 
  39      0C4D3B66 
  39      BC3EC094 
  40 005e C8B89091 		.ascii	"\310\270\220\221\225A\233aU\003\020\260g22\314f\230"
  40      95419B61 
  40      550310B0 
  40      673232CC 
  40      6698
  41 0070 C598C9C8 		.ascii	"\305\230\311\310\230\316\310\024\001\244!.K\202X\304"
  41      98CEC814 
  41      01A4212E 
  41      4B8258C4 
  42 0080 00126110 		.ascii	"\000\022a\020\0032.24.X\313\014\321\013\026\374\017"
  42      03322E32 
  42      342E58CB 
  42      0CD10B16 
  42      FC0F
  43 0092 038CF510 		.ascii	"\003\214\365\020\245!\214\214 {@\372\025\365\364\364"
  43      A5218C8C 
  43      207B40FA 
  43      15F5F4F4 
  44 00a2 9D333293 		.ascii	"\23532\2232\375\203\365\363\213\365\313\022\2132\363"
  44      32FD83F5 
  44      F38BF5CB 
  44      128B32F3 
ARM GAS  /tmp/ccNIDDOt.s 			page 3


  45 00b2 4B8BF58B 		.ascii	"K\213\365\213+\213\223\023sr\212\365\222\031\000\350"
  45      2B8B9313 
  45      73728AF5 
  45      921900E8 
  46 00c2 7E3BA9   		.ascii	"~;\251"
  47              		.text
  48              		.section	.gnu.lto__lseek_r.9679cea104f44850,"",%progbits
  49 0000 789C6362 		.ascii	"x\234cb`b@\007\222@\034\005\304\312@\314\310\314\300"
  49      60624007 
  49      92401C05 
  49      C4CA40CC 
  49      C8CCC0
  50 0013 C834E11C 		.ascii	"\3104\341\034\003C#\007\023##\210\301\300\310P\317\304"
  50      03432307 
  50      13232388 
  50      C1C0C850 
  50      CFC4
  51 0025 581FC908 		.ascii	"X\037\311\010V\273\236\351\300\203\377\377\327\3758"
  51      56BB9EE9 
  51      C083FFFF 
  51      D7FD38
  52 0034 B6E03423 		.ascii	"\266\3404##\310(V\206\226\206\206\011\012\014\014\311"
  52      23C82856 
  52      86968686 
  52      090A0C0C 
  52      C9
  53 0045 60052140 		.ascii	"`\005!@\022\244+\024(\011\244\231/24>8\225\234\310\270"
  53      12A42B14 
  53      2809A499 
  53      2F32343E 
  53      38959CC8 
  54 005a 90919521 		.ascii	"\220\221\225!\2021\223\021ni\010##H\001\310\010E==}"
  54      82319311 
  54      6E690823 
  54      234801C8 
  54      08453D3D 
  55 006f E78CCCA4 		.ascii	"\347\214\314\244L\377`\375\374b\375\262\304\242\314"
  55      4CFF60FD 
  55      FC62FDB2 
  55      C4A2CC
  56 007e FCD262FD 		.ascii	"\374\322b\375\342\312\342\344\304\234\234b\275d\006"
  56      E2CAE2E4 
  56      C49C9C62 
  56      BD6406
  57 008d 00D51825 		.ascii	"\000\325\030%\377"
  57      FF
  58              		.text
  59              		.section	.gnu.lto__write_r.9679cea104f44850,"",%progbits
  60 0000 789C6362 		.ascii	"x\234cb`b@\007\222@\034\015\304\312@\314\310\314\300"
  60      60624007 
  60      92401C0D 
  60      C4CA40CC 
  60      C8CCC0
  61 0013 C834E11C 		.ascii	"\3104\341\034\003C#\007\023##\210\301\300\310P\317\304"
  61      03432307 
  61      13232388 
  61      C1C0C850 
ARM GAS  /tmp/ccNIDDOt.s 			page 4


  61      CFC4
  62 0025 581FC908 		.ascii	"X\037\311\010V\273\236\351\300\203\377\377\327m8\276"
  62      56BB9EE9 
  62      C083FFFF 
  62      D76D38BE 
  63 0035 E00D2323 		.ascii	"\340\015##3#c.X\230\225\241\245\241a\202\002\003C2\230"
  63      3323632E 
  63      589895A1 
  63      A5A16182 
  63      02034332 
  64 004a 1B022441 		.ascii	"\033\002$AZC\031\231@4\363E\206\306\007\257\223\023"
  64      5A431999 
  64      4034F345 
  64      86C607AF 
  64      9313
  65 005c 191732B2 		.ascii	"\031\0272\2622\2443B\014\002*b\004I\202\234\243\250"
  65      32A43342 
  65      0C022A62 
  65      0449829C 
  65      A3A8
  66 006e A7A7EF9C 		.ascii	"\247\247\357\234\221\231\224\351\037\254\237_\254_\226"
  66      919994E9 
  66      1FAC9F5F 
  66      AC5F96
  67 007d 5894995F 		.ascii	"X\224\231_Z\254_\\Y\234\234\230\223S\254\227\314\000"
  67      5AAC5F5C 
  67      599C9C98 
  67      9353AC97 
  67      CC00
  68 008f 00C8A526 		.ascii	"\000\310\245&\022"
  68      12
  69              		.text
  70              		.section	.gnu.lto__close_r.9679cea104f44850,"",%progbits
  71 0000 789C6362 		.ascii	"x\234cb`b@\007\222@\034\005\304\312@\314\310\314\300"
  71      60624007 
  71      92401C05 
  71      C4CA40CC 
  71      C8CCC0
  72 0013 C834E11C 		.ascii	"\3104\341\034\003C#\007\023##\210\301\300\310P\317\304"
  72      03432307 
  72      13232388 
  72      C1C0C850 
  72      CFC4
  73 0025 581FC908 		.ascii	"X\037\311\010V\273\236\351\300\203\377\377\327}:\276"
  73      56BB9EE9 
  73      C083FFFF 
  73      D77D3ABE 
  74 0035 E01F2323 		.ascii	"\340\037##\310(V\206\226\206\206\011\012\014\014\311"
  74      C8285686 
  74      96868609 
  74      0A0C0CC9 
  75 0045 60052140 		.ascii	"`\005!@\022\244+\024(\011\244\231/24>\370\233\234\310"
  75      12A42B14 
  75      2809A499 
  75      2F32343E 
  75      F89B9CC8 
  76 0059 B8909195 		.ascii	"\270\220\221\225!\2021\223\021ni\010##H\001\310\010"
ARM GAS  /tmp/ccNIDDOt.s 			page 5


  76      21823193 
  76      116E6908 
  76      23234801 
  76      C808
  77 006b 453D3D7D 		.ascii	"E==}\347\214\314\244L\377`\375\374b\375\262\304\242"
  77      E78CCCA4 
  77      4CFF60FD 
  77      FC62FDB2 
  77      C4A2
  78 007d CCFCD262 		.ascii	"\314\374\322b\375\342\312\342\344\304\234\234b\275d"
  78      FDE2CAE2 
  78      E4C49C9C 
  78      62BD64
  79 008c 0600F596 		.ascii	"\006\000\365\226&`"
  79      2660
  80              		.text
  81              		.section	.gnu.lto__sbrk_r.9679cea104f44850,"",%progbits
  82 0000 789C8552 		.ascii	"x\234\205R\277K\034A\030}of\316[\317\003\257\265\273"
  82      BF4B1C41 
  82      187D6F66 
  82      CE5BCF03 
  82      AFB5BB
  83 0013 1CA934DC 		.ascii	"\034\2514\334\211}*\377\000\013#hynq\031\360G\270\305"
  83      897D2AFF 
  83      000B2368 
  83      796E7119 
  83      F047B8C5 
  84 0027 805838EA 		.ascii	"\200X8\352\025A,\016\261\211\"\334!\227\"M\252@\212"
  84      15412C0E 
  84      B18922DC 
  84      2197224D 
  84      AA408A
  85 003a 141BB822 		.ascii	"\024\033\270\"\011$\341\260\262\22346!\215M\010\301"
  85      0924E1B0 
  85      B2933436 
  85      218D4D08 
  85      C1
  86 004b CD37BB28 		.ascii	"\3157\273(j\343\007\273o\347\361\336\367kGA\341~L\311"
  86      6AE307BB 
  86      6FE7F1DE 
  86      F76B4741 
  86      E17E4CC9 
  87 005f F385C013 		.ascii	"\363\205\300\023A\346@\325\376\016l\005J\351\313\022"
  87      41E640D5 
  87      FE0E6C05 
  87      4AE9CB12 
  88 006f 5CC11C3F 		.ascii	"\\\301\034?\205+j\232\2146\244\377\000\261\251\264\341"
  88      852B6A9A 
  88      8C36A4FF 
  88      00B1A9B4 
  88      E1
  89 0080 E6027D0E 		.ascii	"\346\002}\016UA\327\271\375\363\336\233\201z}\020\267"
  89      5541D7B9 
  89      FDF3DE9B 
  89      817A7D10 
  89      B7
  90 0091 3AEE5F92 		.ascii	":\356_\222\220\226R\3571\021\022\363r`9\005e\3566\220"
ARM GAS  /tmp/ccNIDDOt.s 			page 6


  90      909652EF 
  90      311112F3 
  90      72603905 
  90      65EE3690 
  91 00a5 79E3A3AF 		.ascii	"y\343\243\257{c\256\263\335vWb\265\324\012\023\0179"
  91      7B63AEB3 
  91      DD765762 
  91      B5D40A13 
  91      0F39
  92 00b7 DFA9F83C 		.ascii	"\337\251\370<I>\016Z?\307\013\204\245\321\\&\014\352"
  92      493E0E5A 
  92      3FC70B84 
  92      A5D15C26 
  92      0CEA
  93 00c9 ECB282BC 		.ascii	"\354\262\202\274\340\211` \244\3572\207\226s\355rF."
  93      E0896020 
  93      A4EF3287 
  93      9673ED72 
  93      462E
  94 00db 533611A6 		.ascii	"S6\021\246\315?\223\267\237iN(A\375\015\333\277w.\016"
  94      CD3F93B7 
  94      9F694E28 
  94      41FD0DDB 
  94      BF772E0E 
  95 00ef C6EBECC9 		.ascii	"\306\353\354\311>\0324\015j\340\007Zq\356\232\312o\340"
  95      3E1A340D 
  95      6AE0075A 
  95      71EE9ACA 
  95      6FE0
  96 0101 AF7BE54A 		.ascii	"\257{\345J\226\2710\315\015\257\263\034\222UBe\252\254"
  96      96B930CD 
  96      0DAFB31C 
  96      92554265 
  96      AAAC
  97 0113 8E6881CF 		.ascii	"\216h\201\317\350_|z\277\253o\354~\030}{\22299^\226"
  97      E85F7C7A 
  97      BFAB6FEC 
  97      7E187D7B 
  97      9239395E 
  98 0128 7CE90F7F 		.ascii	"|\351\017\177d\207\231p\002o\235\304\210e\376\010\207"
  98      64879970 
  98      026F9DC4 
  98      8865FE08 
  98      87
  99 0139 62091A0C 		.ascii	"b\011\032\014\274u8\365,f\205\323\315\344\2137\211L"
  99      BC7538F5 
  99      2C6685D3 
  99      CDE48B37 
  99      894C
 100 014b 3AC440FE 		.ascii	":\304@\376\225o*\325\234\201^d\022\211Q\350\376\254"
 100      956F2AD5 
 100      9C815E64 
 100      128951E8 
 100      FEAC
 101 015d B4A07E9D 		.ascii	"\264\240~\235\026\375\354\364r\177+\036U\253\265\351"
 101      16FDECF4 
 101      727F2B1E 
ARM GAS  /tmp/ccNIDDOt.s 			page 7


 101      55ABB5E9 
 102 016d E776D1CE 		.ascii	"\347v\321\316\314\326V\243\332\313z\323\256\256E\265"
 102      CCD656A3 
 102      DACB7AD3 
 102      AEAE45B5 
 103 017d 683D0AEB 		.ascii	"h=\012\353KKQ5\304\220]\011\233\325I\276\370\017\356"
 103      4B4B5135 
 103      C4905D09 
 103      9BD549BE 
 103      F80FEE
 104 0190 FB7D06   		.ascii	"\373}\006"
 105              		.text
 106              		.section	.gnu.lto__fstat_r.9679cea104f44850,"",%progbits
 107 0000 789C6362 		.ascii	"x\234cb`b@\007\222@|\025\210\225\201\230\221\231\201"
 107      60624007 
 107      92407C15 
 107      88958198 
 107      919981
 108 0013 9169C239 		.ascii	"\221i\3029\006\206F\016&FF\020\203\201\221\241\236\211"
 108      0686460E 
 108      26464610 
 108      838191A1 
 108      9E89
 109 0025 B13E9211 		.ascii	"\261>\222\021\254v=\323\201\007\377\377\257\373tj\301"
 109      AC763DD3 
 109      8107FFFF 
 109      AFFB746A 
 109      C1
 110 0036 09462656 		.ascii	"\011F&V&\306\\\2600+CKC\303\004\005\006\206d07\004H"
 110      26C65CB0 
 110      302B434B 
 110      43C30405 
 110      06866430 
 111 004d 82B48632 		.ascii	"\202\264\20622\201h\346\363\014m\017\366.eKd\\\310\310"
 111      328168E6 
 111      F30C6D0F 
 111      F62E654B 
 111      645CC8C8 
 112 0061 0A94AE66 		.ascii	"\012\224\256f\370\325\320\321 \220\311\010T\01615\235"
 112      F8D5D0D1 
 112      2090C908 
 112      540E3135 
 112      9D
 113 0072 91298231 		.ascii	"\221)\2021\023\304\001QL6\014\231@w0\234eh\332qc\375"
 113      13C40151 
 113      4C360C99 
 113      4077309C 
 113      6568DA71 
 114 0088 4F46883E 		.ascii	"OF\210>m\206U\015@\300\235\311\3102\233a\026P\031+T"
 114      6D86550D 
 114      40C09DC9 
 114      C8329B61 
 114      1650192B 
 115 009d 171BD888 		.ascii	"\027\033\330\210$\210I`\003X\032\034\200\254\213\014"
 115      24884960 
 115      03581A1C 
 115      80AC8B0C 
ARM GAS  /tmp/ccNIDDOt.s 			page 8


 116 00ad 8D0FF6A7 		.ascii	"\215\017\366\247B4CM\207\200\020 \023\350,P@(\352\351"
 116      4234434D 
 116      87801020 
 116      13E82C50 
 116      4028EAE9 
 117 00c1 E93B6764 		.ascii	"\351;gd&e\372\007\353\347\027\353\227%\026e\346\227"
 117      2665FA07 
 117      EBE717EB 
 117      97251665 
 117      E697
 118 00d3 16EB1757 		.ascii	"\026\353\027W\026''\346\344\024\353%3\000\000^\225?"
 118      162727E6 
 118      E414EB25 
 118      3300005E 
 118      953F
 119 00e5 A1       		.ascii	"\241"
 120              		.text
 121              		.section	.gnu.lto__isatty_r.9679cea104f44850,"",%progbits
 122 0000 789C6362 		.ascii	"x\234cb`b@\007\222@\034\005\304\312@\314\310\314\300"
 122      60624007 
 122      92401C05 
 122      C4CA40CC 
 122      C8CCC0
 123 0013 C834E11C 		.ascii	"\3104\341\034\003C#\007\023##\210\301\300\310P\317\304"
 123      03432307 
 123      13232388 
 123      C1C0C850 
 123      CFC4
 124 0025 581FC908 		.ascii	"X\037\311\010V\273\236\351\300\203\377\377\327\315:"
 124      56BB9EE9 
 124      C083FFFF 
 124      D7CD3A
 125 0034 BDE01623 		.ascii	"\275\340\026#\023\310(V\206\226\206\206\011\012\014"
 125      13C82856 
 125      86968686 
 125      090A0C
 126 0043 0CC96005 		.ascii	"\014\311`\005!@\022\244+\224\221\011D3_dh|p35\221q!"
 126      214012A4 
 126      2B949109 
 126      44335F64 
 126      687C7033 
 127 005b 232B4304 		.ascii	"#+C\004c&#\003#\324\322\020FF\220\002\220\021\212zz"
 127      63262303 
 127      23D4D210 
 127      46469002 
 127      90118A7A 
 128 0070 FACE1999 		.ascii	"\372\316\031\231I\231\376\301\372\371\305\372e\211E"
 128      4999FEC1 
 128      FAF9C5FA 
 128      658945
 129 007f 99F9A5C5 		.ascii	"\231\371\245\305\372\305\225\305\311\21199\305z\311"
 129      FAC595C5 
 129      C9893939 
 129      C57AC9
 130 008e 0C00B9CF 		.ascii	"\014\000\271\317%\310"
 130      25C8
 131              		.text
ARM GAS  /tmp/ccNIDDOt.s 			page 9


 132              		.section	.gnu.lto_.symbol_nodes.9679cea104f44850,"",%progbits
 133 0000 789C4DC7 		.ascii	"x\234M\307;\016@`\024D\341\231\373{\355z$\032\245N\247"
 133      3B0E4060 
 133      1444E199 
 133      FB7BED7A 
 133      241AA54E 
 134 0015 B11F6BB0 		.ascii	"\261\037k\260\005oQ\010\011\341\236\346\3443\030j\274"
 134      056F5108 
 134      09E19EE6 
 134      E433186A 
 134      BC
 135 0026 D9400155 		.ascii	"\331@\001U\007HMI\033):N\2249\316Tp\\\250\310q\245b"
 135      07484D49 
 135      1B293A4E 
 135      9439CE54 
 135      705CA8C8 
 136 003d C78D4A7E 		.ascii	"\307\215J~r\247\322\207yN\036T\366)D)\332\376d\2103"
 136      72A7D287 
 136      794E1E54 
 136      F6294429 
 136      DAFE6488 
 137 0052 14F77101 		.ascii	"\024\367q\001\354(1A"
 137      EC283141 
 138              		.text
 139              		.section	.gnu.lto_.refs.9679cea104f44850,"",%progbits
 140 0000 789C6362 		.ascii	"x\234cb`b`d\200\002\000\000F\000\006"
 140      60626064 
 140      80020000 
 140      460006
 141              		.text
 142              		.section	.gnu.lto_.decls.9679cea104f44850,"",%progbits
 143 0000 789CBD5C 		.ascii	"x\234\275\\\177p\024U\236\357\356\371\225\204\020\210"
 143      7F701455 
 143      9EEFEEF9 
 143      95841088 
 144 0010 D679E1EE 		.ascii	"\326y\341\356V\306-\335\332b\013\022]\366\226:\267\026"
 144      56C62DDD 
 144      DA620B12 
 144      5DF6963A 
 144      B716
 145 0022 6E29EFD8 		.ascii	"n)\357\330:owk=\267\366\217\253j;3\235d\212\311LnfB"
 145      3A6F776B 
 145      3DB7F68F 
 145      AB6A3B33 
 145      9D648AC9 
 146 003a E0FEB109 		.ascii	"\340\376\261\011\020XA\014\277\177\011D\001\005W\024"
 146      1058410C 
 146      BF7F0944 
 146      01055714 
 147 004a 04055791 		.ascii	"\004\005W\221\206-!\300^L\210\034p\012\214F\023u\325"
 147      862D21C0 
 147      5E4C881C 
 147      700A8C46 
 147      1375D5
 148 005d 222ABF44 		.ascii	"\"*\277D\310}\337\353\037\323\357M\277\231\327\343."
 148      C87DDFEB 
 148      1FD3EF4D 
ARM GAS  /tmp/ccNIDDOt.s 			page 10


 148      BF99D7E3 
 148      2E
 149 006e 5DD53DAF 		.ascii	"]\325=\257\177\274\317\373~?\337\357\373\276\037\375"
 149      7FBCCFFB 
 149      7E3FDFEF 
 149      FBBE1FFD 
 150 007e 7A244112 		.ascii	"z$A\022\336\026\005a\004\2663\377.\010\325\345\202P"
 150      DE160561 
 150      04B633FF 
 150      2E08D5E5 
 150      8250
 151 0090 2608C24F 		.ascii	"&\010\302Oa\227`\367\303\036\020\214\015n\011O\301~"
 151      619760F7 
 151      C31E108C 
 151      0D6E094F 
 151      C17E
 152 00a2 039EAF80 		.ascii	"\003\236\257\200\233\325\260\217\203\375\036\330\347"
 152      9BD5B08F 
 152      83FD1ED8 
 152      E7
 153 00af C0FE28EC 		.ascii	"\300\376(\354\035\222\220\267\241<>\023k\033\354[a\007"
 153      1D9290B7 
 153      A13C3E13 
 153      6B1BEC5B 
 153      6107
 154 00c1 086187F9 		.ascii	"\010a\207\371\373\224\371\373\225H\346C\345\210f>\301"
 154      FB94F9FB 
 154      9548E643 
 154      E588663E 
 154      C1
 155 00d2 7CE606F5 		.ascii	"|\346\006\365\014\332*\034e\212\3469\372\035C\311R-"
 155      0CDA2A1C 
 155      658AE639 
 155      FA1D43C9 
 155      522D
 156 00e4 E5E355BB 		.ascii	"\345\343U\273\310\213t\2520\365\256\202\275\022\366"
 156      C88B74AA 
 156      30F5AE82 
 156      BD12F6
 157 00f3 A9B0FF3D 		.ascii	"\251\260\377=\\_\015\273&\271\353\"\231y\021\017H\337"
 157      5C5F0DBB 
 157      26B9EB22 
 157      9979110F 
 157      48DF
 158 0105 EFC2EF5D 		.ascii	"\357\302\357]\260\257\241\312@|\205\340w\203\224\343"
 158      B0AFA1CA 
 158      407C85E0 
 158      778394E3 
 159 0115 7721A47F 		.ascii	"w!\244\177\002\373\017`\237`\312y\277d`\336c\362\212"
 159      02FB0F60 
 159      9F60CA79 
 159      BF6460DE 
 159      63F28A
 160 0128 AECDA2B0 		.ascii	"\256\315\242\260\346\270\3504\307E\247\361\302&\255"
 160      E6B8E834 
 160      C745A7F1 
 160      C226AD
ARM GAS  /tmp/ccNIDDOt.s 			page 11


 161 0137 2B9B7D73 		.ascii	"+\233}s`\3738\255\253]\037\031\231*\334!\254\322`\353"
 161      60FB38AD 
 161      AB5D1F19 
 161      992ADC21 
 161      ACD260EB 
 162 014b EAD03431 		.ascii	"\352\32041\243\210\376r\341\267\242\"V\225\013a\234"
 162      A388FE72 
 162      E1B7A222 
 162      56950B61 
 162      9C
 163 015c A82C3741 		.ascii	"\250,7A\025\361i\361\016\234\362aq\204Q\302c\232\326"
 163      15F169F1 
 163      0E9CF261 
 163      718451C2 
 163      639AD6
 164 016f 8E32CEE8 		.ascii	"\2162\316\350\256\272MX\206P\302\213\006\240h\023@\377"
 164      AEBA4D58 
 164      8650C28B 
 164      06A06813 
 164      40FF
 165 0181 9985B0BD 		.ascii	"\231\205\260\275\014\363r\267\010(\333\304\333\204\011"
 165      0CF372B7 
 165      0828DBC4 
 165      DB8409
 166 0190 C20E78B8 		.ascii	"\302\016x\270S\323\336\277\203\244D\330\012\327\263"
 166      53D3DEBF 
 166      83A444D8 
 166      0AD7B3
 167 019f A73E3C3A 		.ascii	"\247><:W\234\013\362\030O\243\262\237\025'\344k\003"
 167      579C0BF2 
 167      184FA3B2 
 167      9F1527E4 
 167      6B03
 168 01b1 BC0A5D90 		.ascii	"\274\012]\220A\2772\260\037\3649,b\361%a\207h\025\344"
 168      41BF32B0 
 168      1FF4392C 
 168      62F12561 
 168      876815E4 
 169 01c5 A68A9934 		.ascii	"\246\212\23146\363\001'\\\273\276l\360\214\270N\323"
 169      36F30127 
 169      5CBBBE6C 
 169      F08CB84E 
 169      D3
 170 01d6 E7FB5C55 		.ascii	"\347\373\\U\354\256\312i\030\264\320\232,\351;\365\353"
 170      ECAECA69 
 170      18B4D09A 
 170      2CE93BF5 
 170      EB
 171 01e7 CBBFA3F9 		.ascii	"\313\277\243\371\025q'\024/\011\273\260(9\351\213\202"
 171      15712714 
 171      2F09BBB0 
 171      2839E98B 
 171      82
 172 01f8 48C23E9C 		.ascii	"H\302>\234e\027d72\032\244\350\247\027W\"\330]\034\204"
 172      65176437 
 172      321AA4E8 
 172      A7175722 
ARM GAS  /tmp/ccNIDDOt.s 			page 12


 172      D85D1C84 
 173 020c B4EB6717 		.ascii	"\264\353g\027\257\302\204\020\012(\242\3106\356^x\326"
 173      AFC28410 
 173      0A28A2C8 
 173      36EE5E78 
 173      D6
 174 021d DC24E1A0 		.ascii	"\334$\341\240-B)\004j\372;'N\210\332\362J\323\034\207"
 174      2D422904 
 174      6AFA3B27 
 174      4E88DAF2 
 174      4AD31C87 
 175 0231 3DA38509 		.ascii	"=\243\205\011\264wOTv*&\326\233<Xel\311.\234XR\243u"
 175      B4774F54 
 175      762A26D6 
 175      9B3C5865 
 175      6CC92E9C 
 176 0249 1D825B12 		.ascii	"\035\202[\022\202\353\246\341\306Z\030\022\003\216\024"
 176      82EBA6E1 
 176      C65A1812 
 176      038E14
 177 0258 EDE2E2CA 		.ascii	"\355\342\342\312\336GL\254\267<c\325\021X_\236X)\"\233"
 177      DE474CAC 
 177      B73C63D5 
 177      11585F9E 
 177      5829229B 
 178 026c 992ED235 		.ascii	"\231.\3225\315\341#\323\234\371%\341\024.\352`\236\213"
 178      CDE123D3 
 178      9CF925E1 
 178      142EEA60 
 178      9E8B
 179 027e 2CC42E72 		.ascii	",\304.r\220\317E\216\2564\353\0142\275$\274kc\226h\363"
 179      90CF458E 
 179      AE34EB0C 
 179      32BD24BC 
 179      6B639668 
 180 0293 854E9BBF 		.ascii	"\205N\233\277\357\031-L\211)\011\037\321\204\022,\230"
 180      EF192D4C 
 180      8929091F 
 180      D184122C 
 180      98
 181 02a4 C9B16C89 		.ascii	"\311\261l\211.\021^\370)\217\347\324\260\320\332\365"
 181      2E115EF8 
 181      298FE7D4 
 181      B0D0DAF5 
 182 02b4 154B9798 		.ascii	"\025K\227\230|MEt]\362\014\027&\340\326\364l\314\257"
 182      7C4D4574 
 182      5DF20C17 
 182      26E0D6F4 
 182      6CCCAF
 183 02c7 A1FCB1F8 		.ascii	"\241\374\261\370\177\310X\254\210[\001\311>\231:\312"
 183      7FC858AC 
 183      885B01C9 
 183      3E993ACA 
 184 02d7 718F28A1 		.ascii	"q\217(\241\\X\204N\262\333\264\232\032[\2622\013\035"
 184      5C58844E 
 184      B2DBB49A 
 184      1A5BB232 
ARM GAS  /tmp/ccNIDDOt.s 			page 13


 184      0B1D
 185 02e9 351B862F 		.ascii	"5\033\206/Al\226\024\361\244\210\230\273!\272\264\266"
 185      416C9614 
 185      F1A48898 
 185      BB21BAB4 
 185      B6
 186 02fa 4641E801 		.ascii	"FA\350\001KE#m\245FD\201)|\037\310J\272\247-\271\277"
 186      4B45236D 
 186      A5464481 
 186      297C1FC8 
 186      4ABAA72D 
 187 0310 DCF87DD8 		.ascii	"\334\370}\330g\337c\241\374\311\031\261\332%\016s\204"
 187      67DF63A1 
 187      FCC919B1 
 187      DA250E73 
 187      84
 188 0321 D9D65DDF 		.ascii	"\331\326]\337\0031\246D[\234\375\266\266\320k\326V\271"
 188      0331A644 
 188      5B9CFDB6 
 188      B6D06BD6 
 188      56B9
 189 0333 1B4311FB 		.ascii	"\033C\021\373\305{J\346\371\\\216\241\0229>\343\344"
 189      C57B4AE6 
 189      F95C8EA1 
 189      12393EE3 
 189      E4
 190 0344 7891678E 		.ascii	"x\221g\216\303\004\307\273{\036/\342\362\230\021\315"
 190      C304C7BB 
 190      7B1E2FE2 
 190      F29811CD 
 191 0354 BCE32E95 		.ascii	"\274\343.\225\321\310f\017\236|\366NM+S\304\017\260"
 191      D1C8660F 
 191      9E7CF64E 
 191      4D2B53C4 
 191      0FB0
 192 0366 8B2EF491 		.ascii	"\213.\364\221\315\254\"\006m\013\333\347\326\003\010"
 192      CDAC2206 
 192      6D0BDBE7 
 192      D60308
 193 0375 0D4E5149 		.ascii	"\015NQIWQ\207W|\324\274\202NBl2\006\370\355l\310U\""
 193      57518757 
 193      7CD4BC82 
 193      4E426C32 
 193      06F8ED6C 
 194 038c E9EF3B49 		.ascii	"\351\357;I\177\302\307A\372\367\231\216\015}\251'C\371"
 194      7FC2C741 
 194      FAF7998E 
 194      0D7DA927 
 194      43F9
 195 039e 7D197EE7 		.ascii	"}\031~\347\376\234Ci.\255>sj\265\312\263VNW\322\364"
 195      FE9C4369 
 195      2EAD3E73 
 195      6AB5CAB3 
 195      564E57D2 
 196 03b3 577B8CB6 		.ascii	"W{\214\266\322hb$\341I\032\317\255\251\250c\262\244"
 196      D2686224 
 196      E1491ACF 
ARM GAS  /tmp/ccNIDDOt.s 			page 14


 196      ADA9A863 
 196      B2A4
 197 03c5 BFB67415 		.ascii	"\277\266t\025\321\030v\361\3107\205\205\247\351\007"
 197      D11876F1 
 197      C8378585 
 197      A7E907
 198 03d4 7A9C4DCF 		.ascii	"z\234M\317V\317h\244\266\375H\333\254.V\013\235\270"
 198      56CF68A4 
 198      B6FD48DB 
 198      AC2E560B 
 198      9DB8
 199 03e6 F358E3EC 		.ascii	"\363X\343\354\311\325X\000>\223\350k\360\034\332\210"
 199      C9D55800 
 199      3E93E86B 
 199      F01CDA88 
 200 03f6 CA849F60 		.ascii	"\312\204\237`\231\346kGt\251,\317%\254\001\204$l\247"
 200      99E66B47 
 200      74A92CCF 
 200      25AC0184 
 200      246CA7
 201 0409 35204A35 		.ascii	"5 J5\223\323\330|\274\3353j\327#\246\370\331\000!?\021"
 201      93D3D87C 
 201      BCDD336A 
 201      D723A6F8 
 201      D900213F 
 202 041e EF903437 		.ascii	"\357\22047<\313\177\223!\177\316\337^\240\345'Ju\223"
 202      3CCB7F93 
 202      217FCEDF 
 202      5EA0E527 
 202      4A7593
 203 0431 BF8690FF 		.ascii	"\277\206\220\377\377~\201z\240\206\257\355\345\3615"
 203      FF7E817A 
 203      A086AFED 
 203      E5F135
 204 0440 028BB4E6 		.ascii	"\002\213\264\3460\341\033\373y|c\006\033\355\313\245"
 204      30E11BFB 
 204      797C6306 
 204      1BEDCBA5 
 205 0450 4650F510 		.ascii	"FP\365\020:\227\2574B\347\002\334m=\364\227\014\235"
 205      3A97AF34 
 205      42E702DC 
 205      6D3DF497 
 205      0C9D
 206 0462 D0A3E6D1 		.ascii	"\320\243\346\321\347W\314\232\230=5\274q\002\216WF\244"
 206      E757CC9A 
 206      983D35BC 
 206      71028E57 
 206      46A4
 207 0474 91845ECF 		.ascii	"\221\204^\317\200$A\313\236X\352\225\240\223\247v\213"
 207      802441CB 
 207      9E58EA95 
 207      A093A776 
 207      8B
 208 0485 F3F0F073 		.ascii	"\363\360\360s\011\246\350\177)\212\370\241F\316\377"
 208      09A6E87F 
 208      298AF8A1 
 208      46CEFF
ARM GAS  /tmp/ccNIDDOt.s 			page 15


 209 0494 59C45C3F 		.ascii	"Y\304\\?\201\201N\371i\256\375\024\327~\222k\177\036"
 209      81814EF9 
 209      69AEFD14 
 209      D77E926B 
 209      7F1E
 210 04a6 D77E9BEB 		.ascii	"\327~\233\353R\363I\302\220\237\203\322\337\262l\004"
 210      52F349C2 
 210      909F83D2 
 210      DFB26C04 
 211 04b6 E3F31D9B 		.ascii	"\343\363\035\233\356\234\213lTt\250b3\372\326\275\230"
 211      EE9C8B6C 
 211      5474A862 
 211      33FAD6BD 
 211      98
 212 04c7 869512AA 		.ascii	"\206\225\022\252A\237\371]\007\305l\030\244\341\032"
 212      419FF95D 
 212      07C56C18 
 212      A4E11A
 213 04d6 891AED6C 		.ascii	"\211\032\355l>\202G;\350z\361\031\202=G\234\225\356"
 213      3E82473B 
 213      E87AF119 
 213      823D479C 
 213      95EE
 214 04e8 2A1600E5 		.ascii	"*\026\000\345,@\200\300$@?p\3448B\273]X\216\345\016"
 214      2C4080C0 
 214      24403F70 
 214      E43842BB 
 214      5D588EE5 
 215 04fd B2BC00C9 		.ascii	"\262\274\000\311\365\244t;)\367\313G\304\260q\271\370"
 215      F5A4743B 
 215      29F7CB47 
 215      C4B071B9 
 215      F8
 216 050e 20EDD50E 		.ascii	" \355\325\016\207\363\266\363x\334\262O\272\377\363"
 216      87F3B6F3 
 216      78DCB24F 
 216      BAFFF3
 217 051d 454D1BAB 		.ascii	"EM\033\253\210\233\261\313\315\013\322.\027\240\\.@"
 217      889BB1CB 
 217      CD0BD22E 
 217      17A05C2E 
 217      40
 218 052e BA4EA03C 		.ascii	"\272N\240<\227@\0363\006y\314c\030\005\311\\\022a\340"
 218      97401E33 
 218      0679CC63 
 218      1805C95C 
 218      1261E0
 219 0541 003DBB45 		.ascii	"\000=\273E km\235\331\010tM\253)8\035\261U\362\332\010"
 219      206B6D9D 
 219      D908744D 
 219      AB29381D 
 219      B155F2DA 
 220 0556 6C93DC1B 		.ascii	"l\223\334\033\001\253g\"\011\235\245*ao\222\260&\350"
 220      01AB6722 
 220      099DA52A 
 220      616F92B0 
 220      26E8
ARM GAS  /tmp/ccNIDDOt.s 			page 16


 221 0568 D573C26E 		.ascii	"\325s\302n\346\265\270\3179\265\"\256\225PO\177\235"
 221      E6B5B8CF 
 221      39B522AE 
 221      95504F7F 
 221      9D
 222 0579 74171C37 		.ascii	"t\027\0347\300\321Q\352\346 G\223CT\3300A\377\251\235"
 222      C0D151EA 
 222      E6204793 
 222      4354D830 
 222      41FFA99D 
 223 058d 9BC69941 		.ascii	"\233\306\231A\025\373\377v\032\317M\213G\270\265\310"
 223      15FBFF76 
 223      1ACF4D8B 
 223      47B8B5C8 
 224 059d CD5529E2 		.ascii	"\315U)\342Kx\274\262GDZ\274\202\217\373\361\361\017"
 224      4B78BCB2 
 224      47445ABC 
 224      828FFBF1 
 224      F10F
 225 05af F8F83A3E 		.ascii	"\370\370:>\276\201\217G\361\361\030>\236\300\307\323"
 225      BE818F47 
 225      F1F1183E 
 225      9EC0C7D3 
 226 05bf F8F81E3E 		.ascii	"\370\370\036>~\212\217_\340\343W\370x\031\037\257\342"
 226      7E8A8F5F 
 226      E0E357F8 
 226      78191FAF 
 226      E2
 227 05d0 E337F8A8 		.ascii	"\3437\370\250a\256\332\361q>>\376\016\037\027\343\343"
 227      61AEDAF1 
 227      713E3EFE 
 227      0E1F17E3 
 227      E3
 228 05e1 0A7CDCE1 		.ascii	"\012|\334\341d\222\345;\317;\373\246\273\202^g\017\235"
 228      6492E53B 
 228      CF3BFBA6 
 228      BB825E67 
 228      0F9D
 229 05f3 64A3D9C3 		.ascii	"d\243\331\303\254d\222\375<n\301\366\361\0002\347\254"
 229      AC6492FD 
 229      3C6EC1F6 
 229      F10032E7 
 229      AC
 230 0604 DAB51BD1 		.ascii	"\332\265\033\321\356:\013\353\240g,\302\023\364U\203"
 230      EE3A0BEB 
 230      A0672CC2 
 230      13F45583 
 231 0614 BAE8F484 		.ascii	"\272\350\364\204\243<x\005\346XV\017\226i\035\225\216"
 231      A33C7805 
 231      E658560F 
 231      96691D95 
 231      8E
 232 0625 8EE9C95C 		.ascii	"\216\351\311\\\245\356\026-\200q&\317{<\327\352\275"
 232      A5EE162D 
 232      807126CF 
 232      7B3CD7EA 
 232      BD
ARM GAS  /tmp/ccNIDDOt.s 			page 17


 233 0636 8C5A5D63 		.ascii	"\214Z]c\233\353O\264\006d\261n*\220\224l\030$&\217O"
 233      9BEB4FB4 
 233      0664B16E 
 233      2A90946C 
 233      1824268F 
 234 064b F3305260 		.ascii	"\3630R`(\261qP\267\314\177\016\233\354c\317\200\244"
 234      28B17150 
 234      B7CC7F0E 
 234      9BEC63CF 
 234      80A4
 235 065d 7CBB49F9 		.ascii	"|\273I\371\256\361\3001\207&\355\372\313\226\007\024"
 235      AEF1C031 
 235      8726EDFA 
 235      CB960714 
 236 066d 1A10FEF4 		.ascii	"\032\020\376\364o\230\026yCr\031\020r\215\000\017H\216"
 236      6F981679 
 236      43721910 
 236      728D000F 
 236      488E
 237 067f 5A363FE4 		.ascii	"Z6?\344U\015\262\226\2756xF\342\233\243\027\235>#\011"
 237      550DB296 
 237      BD367846 
 237      E29BA317 
 237      9D3E2309 
 238 0693 4B71C17F 		.ascii	"Kq\301\177\244{\023\257)a\343j\361F\371\340\316cF_\342"
 238      A47B13AF 
 238      2961E36A 
 238      F146F9E0 
 238      CE63465F 
 239 06a8 B084ECBB 		.ascii	"\260\204\354\273\332\006,\2553\321w.7\275\375\244g,"
 239      DA062CAD 
 239      33D1772E 
 239      37BDFDA4 
 239      672C
 240 06ba C257B47D 		.ascii	"\302W\264}8T`\250\315<P\354\231r\355l\016\352Y\317P"
 240      385460A8 
 240      CD3C50EC 
 240      9972ED6C 
 240      0EEA59CF 
 241 06cf A4545772 		.ascii	"\244TWrP;y\240\012\304\233\376\317\272\021\367V/\"h"
 241      503B79A0 
 241      0AC49BFE 
 241      CFBA11F7 
 241      562F2268 
 242 06e3 CFA215EF 		.ascii	"\317\242\025\357\032\351\347>@\035\257\223\270[\364"
 242      1AE9E73E 
 242      401DAF93 
 242      B85BF4
 243 06f2 5288EE16 		.ascii	"R\210\356\026\205\250nQ\210\354\026\205\312s\011\263"
 243      85A86E51 
 243      88EC1685 
 243      CA7309B3 
 244 0702 5BC4F2F3 		.ascii	"[\304\362\363>3\312\345\006\246P\340\037<+\036\246\274"
 244      3E33CAE5 
 244      06A650E0 
 244      1F3C2B1E 
 244      A6BC
ARM GAS  /tmp/ccNIDDOt.s 			page 18


 245 0714 8F55DC61 		.ascii	"\217U\334ag\265:\300S\255\246\261\371=@\006\2337=\303"
 245      67B53AC0 
 245      53ADA6B1 
 245      F93D4006 
 245      9B373DC3 
 246 0728 392D0F55 		.ascii	"9-\017U\305\252\245Vey\213\007p\006K\276v\275\317j\\"
 246      C5AAA556 
 246      65798B07 
 246      70064BBE 
 246      76BDCF6A 
 247 073d A9375B08 		.ascii	"\2517[\010\235E\320\273N\202\336\366,\000\341\313\372"
 247      9D45D0BB 
 247      4E82DEF6 
 247      2C00E1CB 
 247      FA
 248 074e 6992A0F3 		.ascii	"i\222\240\363<p\354\341\256~v\260\333j\217\373pk1\350"
 248      3C70ECE1 
 248      AE7E76B0 
 248      DB6A8FFB 
 248      706B31E8 
 249 0762 199094EF 		.ascii	"\031\220\224\357\302\320~Q\353ZRc\216M\210\027\262\332"
 249      C2D07E51 
 249      EB5A5263 
 249      8E4D8817 
 249      B2DA
 250 0774 180BE0A2 		.ascii	"\030\013\340\2425\3312@\217N\316\015\326\240Q\325\000"
 250      35D93240 
 250      8F4ECE0D 
 250      D6A051D5 
 250      00
 251 0785 C7F00482 		.ascii	"\307\360\004\202\346\320\031\021\006\202k\353\334^\377"
 251      E6D01911 
 251      06826BEB 
 251      DC5EFF
 252 0794 6AA3ADD2 		.ascii	"j\243\255\322z\255\322\006\351\250;<8\005\2256\310\025"
 252      7AADD206 
 252      E9A83B3C 
 252      38059536 
 252      C815
 253 07a6 772F0DEA 		.ascii	"w/\015\352>\223\253\000\342\376sL\325`\211\201\267]"
 253      3E93AB00 
 253      E2FE734C 
 253      D5608981 
 253      B75D
 254 07b8 BF32D82B 		.ascii	"\2772\330+\021\334_\367\014Hr\177\015\232~\240c\256"
 254      11DC5FF7 
 254      0C48727F 
 254      0D9A7EA0 
 254      63AE
 255 07ca CFBD3FD4 		.ascii	"\317\275?\324k\267"
 255      6BB7
 256 07d0 447F67F2 		.ascii	"D\177g\362\361\231\347\376\320\347\214\376\3208\333"
 256      F199E7FE 
 256      D0E78CFE 
 256      D038DB
 257 07df C1179551 		.ascii	"\301\027\225QJ\220\305\026\015\374\372\365\301\253\222"
 257      4A90C516 
ARM GAS  /tmp/ccNIDDOt.s 			page 19


 257      0DFCFAF5 
 257      C1AB92
 258 07ee 7374EF6C 		.ascii	"st\357lL\273$\013\340n\\\330*\\\3300m\326wPc:\31450"
 258      4CBB240B 
 258      E06E5CD8 
 258      2A5CD830 
 258      6DD67750 
 259 0807 BFF061B7 		.ascii	"\277\360a\267c`\276\336\306+\255-\275\250\332-\315\026"
 259      6360BEDE 
 259      C62BAD2D 
 259      BDA8DA2D 
 259      CD16
 260 0819 CF50A431 		.ascii	"\317P\2441\277\310A=\317\003U\200\321\257rP\257x\206"
 260      BFC8413D 
 260      CF035580 
 260      D1AF7250 
 260      AF7886
 261 082c 22A5BA9C 		.ascii	"\"\245\272\234\203\322y\240\0124\245WsP\307<C\221R}"
 261      83D279A0 
 261      0A34A557 
 261      7350C73C 
 261      4391527D 
 262 0840 9D83EAE7 		.ascii	"\235\203\352\347\201b\276f\325\364orP\347<C\221R\335"
 262      8162BE66 
 262      D5F46F72 
 262      50E73C43 
 262      9152DD
 263 0853 CC410DF1 		.ascii	"\314A\015\361@\205]\244\2627I\370\202\256Xdep\003!\345"
 263      40855DA4 
 263      B23749F8 
 263      82AE5864 
 263      65700321 
 264 0868 B9317895 		.ascii	"\2711x\225\030{\315-\347\0107\005\332\302\221\301l`"
 264      187BCD2D 
 264      E7083705 
 264      DAC291C1 
 264      6C60
 265 087a 3D8ABE8A 		.ascii	"=\212\276\212X\216\360:i\274iN\207*\326\026i\372\262"
 265      588EF03A 
 265      69BC694E 
 265      872AD616 
 265      69FAB2
 266 088d A15E1F54 		.ascii	"\241^\037T\374v\273\342o\317U\374\026+\177\025\346b"
 266      FC76BBE2 
 266      6FCF55FC 
 266      162B7F15 
 266      E662
 267 089f 032E6A89 		.ascii	"\003.j\211\217\252\367\327W\340)9t\275x\315\277\261"
 267      8FAAF7D7 
 267      57E02939 
 267      74BD78CD 
 267      BFB1
 268 08b1 62958896 		.ascii	"b\225\210\226bX\301r;D>\237\035\371\352\254\002\203"
 268      6258C172 
 268      3B443E9F 
 268      1DF9EAAC 
 268      0283
ARM GAS  /tmp/ccNIDDOt.s 			page 20


 269 08c3 388F2276 		.ascii	"8\217\"v\372\254^\325\327\271^\325\026[\016\267l\305"
 269      FAAC5ED5 
 269      D7B95ED5 
 269      165B0EB7 
 269      6CC5
 270 08d5 E3C5CD87 		.ascii	"\343\305\315\207\320\362\015\004-\011;<c9\327o\264\353"
 270      D0F20D04 
 270      2D093B3C 
 270      6339D76F 
 270      B4EB
 271 08e7 9DABF15A 		.ascii	"\235\253\361Z\020\0372\305\2134\026\357\272\022\207"
 271      101F32C5 
 271      8B3416EF 
 271      BA1287
 272 08f6 BFEDA5CD 		.ascii	"\277\355\245\315I\330\300L\262gi\365\025C\027\2158n"
 272      49D8C04C 
 272      B26769F5 
 272      1543178D 
 272      386E
 273 0908 4DBBBECA 		.ascii	"M\273\276\312\343\037Ml\300\225Ce8R\033hGx\320Z\330"
 273      E31F4D6C 
 273      C0954365 
 273      38521B68 
 273      4778D05A 
 274 091d 68AB09B4 		.ascii	"h\253\011\264\267y\320f\263\321\326\015\221M/\236_t"
 274      B779D066 
 274      B3D1D60D 
 274      914D2F9E 
 274      5F74
 275 092f B4BDD348 		.ascii	"\264\275\323H\322\025q\223\317k\323\273\331\347\336"
 275      D2157193 
 275      CF6BD3BB 
 275      D9E7DE
 276 093e F45A53F1 		.ascii	"\364ZS\361\222\360>\217\022\232\310\326b\375\020{6\205"
 276      92F03E8F 
 276      129AC8D6 
 276      62FD107B 
 276      3685
 277 0950 1CC7E2F5 		.ascii	"\034\307\342\365x\236U\330\302P\341om\025>\245U \213"
 277      789E55D8 
 277      C250E16F 
 277      6D153EA5 
 277      55208B
 278 0963 35938B0A 		.ascii	"5\223\213\012\350\260q\210\214rWy\242\\W\001\300\315"
 278      E8B07188 
 278      8C725779 
 278      A25C5701 
 278      C0CD
 279 0975 B41F2FA8 		.ascii	"\264\037/\250\340\240\231D\014\023\210\273\010\327["
 279      E0A09944 
 279      0C1388BB 
 279      08D75B
 280 0984 C103B7BD 		.ascii	"\301\003\267\275\000\334K\004\334\323<p\273\012\300"
 280      00DC4B04 
 280      DCD33C70 
 280      BB0AC0
 281 0993 ED25E0F6 		.ascii	"\355%\340\366\360\300\355/\000\367\012\001w\230\007"
ARM GAS  /tmp/ccNIDDOt.s 			page 21


 281      F0C0ED2F 
 281      00F70A01 
 281      779807
 282 09a2 4E2F00F7 		.ascii	"N/\000\367\352\0209\201\330O\003\272\231\267\333\015"
 282      EA103981 
 282      D84F03BA 
 282      99B7DB0D 
 283 09b2 D0DE14F1 		.ascii	"\320\336\024\361\031Q2\307\"\346#\324\330\241x ?g\214"
 283      195132C7 
 283      22E623D4 
 283      D8A17820 
 283      3F678C
 284 09c5 445C3BAD 		.ascii	"D\\;\255.\303\236\275t\313\325?\204\007\"{\271Z\256"
 284      2EC39EBD 
 284      74CBD53F 
 284      8407227B 
 284      B95AAE
 285 09d8 B343677C 		.ascii	"\263Cg|\2700\253\246\242j\207\026\016Xu&DF,E\334\347"
 285      B830ABA6 
 285      A26A8716 
 285      0E587526 
 285      44462C45 
 286 09ee B9AAEE67 		.ascii	"\271\252\356gT\325\357\230\242H\302\273\230\371\275"
 286      54D5EF98 
 286      A248C2BB 
 286      98F9BD
 287 09fd B936862C 		.ascii	"\2716\206,\2668g\357\014\351\371j\004\312\331Z\274f"
 287      B63867EF 
 287      0CE9F96A 
 287      04CAD95A 
 287      BC66
 288 0a0f 37C19674 		.ascii	"7\301\226t \306\000\227\030n\241\333\336 \354`\020\247"
 288      20C60097 
 288      186EA1DB 
 288      DE20EC60 
 288      10A7
 289 0a21 0390362B 		.ascii	"\003\2206+\240\214\003\345\253\012j\354\354\216\302"
 289      A08C03E5 
 289      AB0A6AEC 
 289      EC8EC2
 290 0a30 6C336148 		.ascii	"l3aH8\3049\253\250\215\263\320:}\270\354k\270\354C\264"
 290      38C439AB 
 290      A88DB3D0 
 290      3A7DB8EC 
 290      6BB8EC43 
 291 0a45 5F5DE9C0 		.ascii	"_]\351\300=\242C\034~\325\256_\353\260V\241\350>4\247"
 291      3DA2431C 
 291      7ED5AE5F 
 291      EBB056A1 
 291      E83E34A7 
 292 0a59 7A54924C 		.ascii	"zT\222L\314\002u\253\200\201\257w8_z\316\035%zD\013"
 292      CC0275AB 
 292      8081AF77 
 292      385F7ACE 
 292      1D257A44 
 293 0a6e 13682347 		.ascii	"\023h#G\226\340579o)q\006\371\270\357\0163eM\032\263"
 293      96E03537 
ARM GAS  /tmp/ccNIDDOt.s 			page 22


 293      396F2971 
 293      06F9B8EF 
 293      0E33654D 
 294 0a84 9E3CE6B3 		.ascii	"\236<\346\263gn,\336\355\205\033\232U\227\273=\327\255"
 294      676E2CDE 
 294      ED851B9A 
 294      5597BB3D 
 294      D7AD
 295 0a96 138CBA35 		.ascii	"\023\214\2725\336\366\244\016\232+\252\\\267\036\034"
 295      DEF6A40E 
 295      9A2BAA5C 
 295      B71E1C
 296 0aa5 C9FDB285 		.ascii	"\311\375\262\205\233\235\253y\211\031i\2733\270H\302"
 296      9B9DAB79 
 296      891969BB 
 296      33B848C2 
 297 0ab5 A52DC6A5 		.ascii	"\245-\306\245\365\320\276\263\333\360\235\036\256\230"
 297      F5D0BEB3 
 297      DBF09D1E 
 297      AE98
 298 0ac3 B4A7E371 		.ascii	"\264\247\343q\312:xu\026\233\266\223ve>\221\253\314"
 298      CA3A7875 
 298      169BB693 
 298      76653E91 
 298      ABCC
 299 0ad5 EB6C490A 		.ascii	"\353lI\012\352]\300\347^6\275\304(@\022\236\342Cd\367"
 299      EA5DC0E7 
 299      5E36BDC4 
 299      2840129E 
 299      E24364F7 
 300 0ae9 8AD04BF0 		.ascii	"\212\320K\360\307\315ja\314\335\356\244!\335\034Y\223"
 300      C7CD6A61 
 300      CCDDEEA4 
 300      21DD1C59 
 300      93
 301 0afa D8806F1C 		.ascii	"\330\200o\034\3013\356\006\332+\336\321\302\224\011"
 301      C133EE06 
 301      DA2BDED1 
 301      C29409
 302 0b09 14F12D1F 		.ascii	"\024\361-\037US)\033\027\3527\331\033\313]\365\\-P\304"
 302      5553291B 
 302      17EA37D9 
 302      1BCB5DF5 
 302      5C2D50C4 
 303 0b1d C3B8A422 		.ascii	"\303\270\244\"\363\203\335L\3455\375\332P\257\325\235"
 303      F383DD4C 
 303      E535FDDA 
 303      50AFD59D 
 304 0b2d 42F24AC2 		.ascii	"B\362J\302\033\243\350\250I\3066W\3140A\350\262O\262"
 304      1BA3E8A8 
 304      49C63657 
 304      CC3041E8 
 304      B24FB2
 305 0b40 2EEF944A 		.ascii	".\357\224J\014\017\027|\324\013&\274\266\205\343\375"
 305      0C0F177C 
 305      D40B26BC 
 305      B685E3FD 
ARM GAS  /tmp/ccNIDDOt.s 			page 23


 306 0b50 D2F9BC68 		.ascii	"\322\371\274h\221\367\3109\237c*\370(\255\270\033\225"
 306      91F7C839 
 306      9F632AF8 
 306      28ADB81B 
 306      95
 307 0b61 67022CB5 		.ascii	"g\002,\2655}\303':s\246\354\021\013\240\022\227\325"
 307      357DC327 
 307      3A73A6EC 
 307      110BA012 
 307      97D5
 308 0b73 87CB1AA0 		.ascii	"\207\313\032\240\253\370\012c\300<\300\325<\254\351"
 308      ABF80A63 
 308      C03CC0D5 
 308      3CACE9
 309 0b82 5FE9F651 		.ascii	"_\351\366Q\307\000\303u\021\340\220\323u\214\346\204"
 309      C700C375 
 309      11E090D3 
 309      758CE684 
 310 0b92 F578F1AA 		.ascii	"\365x\361\252\275\256\337\331\234\234\2665*\2459i\327"
 310      BDAEDFD9 
 310      9C9CB635 
 310      2AA53969 
 310      D7
 311 0ba3 37F45BB5 		.ascii	"7\364[\265\332x\263}\236\007\317-\340\332\233$|@[\224"
 311      DA78B37D 
 311      9E07CF2D 
 311      E0DA9B24 
 311      7C405B94 
 312 0bb7 B08299CC 		.ascii	"\260\202\231\314\006\\@\254\301\313'\275b^\227hg\016"
 312      065C40AC 
 312      C1CB27BD 
 312      625E9768 
 312      670E
 313 0bc9 4FBFDD42 		.ascii	"O\277\335B\331/\231\254~\3566/\361)-\010\225\321L\177"
 313      D92F99AC 
 313      7EEE362F 
 313      F1292D08 
 313      95D14C7F 
 314 0bdd E4E65CF6 		.ascii	"\344\346\\\366\3062\352\326\334j\005jy\261}\332'\216"
 314      C632EAD6 
 314      DC6A056A 
 314      79B17DDA 
 314      278E
 315 0bef 72B94DD4 		.ascii	"r\271M\324\"I\030\036E\276\003\273[\330\242i\313\263"
 315      2249181E 
 315      45BE03BB 
 315      5BD8A269 
 315      CBB3
 316 0c01 6F0E64D1 		.ascii	"o\016d\3214\273\337Z\200w\015?\366\2248\336U S\034\234"
 316      34BBDF5A 
 316      80770D3F 
 316      F69438DE 
 316      5520531C 
 317 0c16 B7535BA3 		.ascii	"\267S[\243\3160\335\343z\221\\H\"\243@\255\017e2f\340"
 317      CE30DDE3 
 317      7A915C48 
 317      22A340AD 
ARM GAS  /tmp/ccNIDDOt.s 			page 24


 317      0F653266 
 318 0c2b B5CAC2B9 		.ascii	"\265\312\302\271\372\034e}i\2275\277H.C\373\357\011"
 318      FA1C657D 
 318      699735BF 
 318      482E43FB 
 318      EF09
 319 0c3d DB90497F 		.ascii	"\333\220I\177\337\261`\254\337\274\306\316dR\375\245"
 319      DFB160AC 
 319      DFBCC6CE 
 319      6452FDA5 
 320 0c4d 8FF8880E 		.ascii	"\217\370\210\016}>\267+\253_\206\366cnvdd<\3772\352"
 320      7D3EB72B 
 320      AB5F86F6 
 320      636E7664 
 320      643CFF32 
 321 0c62 9B745023 		.ascii	"\233tP#\226QS\326s=\245\214\267\250\322\315x\332\365"
 321      965153D6 
 321      733DA58C 
 321      B7A8D2CD 
 321      78DAF5
 322 0c75 E80CEB8D 		.ascii	"\350\014\353\215\374%\334R\334\360\361\330m\235\311"
 322      FC25DC52 
 322      DCF0F1D8 
 322      6D9DC9
 323 0c84 A5225E29 		.ascii	"\245\"^)\222\313\266[\247v\300\316t\215?\323\005\333"
 323      92CBB65B 
 323      A776C0CE 
 323      748D3FD3 
 323      05DB
 324 0c96 6ACBB006 		.ascii	"j\313\260\006\20531\254\306\312d\222=\317\357f\265M"
 324      853331AC 
 324      C6CA6492 
 324      3DCFEF66 
 324      B54D
 325 0ca8 474DAB19 		.ascii	"GM\253\031_2J\302*N\012\037\363\227B!;\227\303\365\373"
 325      5F324AC2 
 325      2A4E0A1F 
 325      F3974221 
 325      3B97C3F5 
 326 0cbd 2DD7B738 		.ascii	"-\327\2678d\347r\272\376%\273\254\353\034e1Hde2I\\\354"
 326      64E772BA 
 326      FE25BBAC 
 326      EB1C6531 
 326      48646532 
 327 0cd4 4AE2C5A3 		.ascii	"J\342\305\243\236]\177\271\277\270\353S\316\275\211"
 327      9E5D7FB9 
 327      BFB8EB53 
 327      CEBD89
 328 0ce3 D332CB4A 		.ascii	"\3232\313J\262\014;W\001\266X\231L%W\345\263\325\225"
 328      B20C3B57 
 328      01B65899 
 328      4C2557E5 
 328      B3D595
 329 0cf6 D5571D5F 		.ascii	"\325W\035_\342\376\235-\325\204\237d\254\2044\327tn"
 329      E2FE9D2D 
 329      D5849F64 
 329      AC8434D7 
ARM GAS  /tmp/ccNIDDOt.s 			page 25


 329      746E
 330 0d08 1EE89BB0 		.ascii	"\036\350\233\260\035\257\351\334\340GQr\323hz\361B\037"
 330      1DAFE9DC 
 330      E0475172 
 330      D3687AF1 
 330      421F
 331 0d1a F1A58F90 		.ascii	"\361\245\217\220\367\211\025\3136\353\275\333\346\231"
 331      F78915CB 
 331      36EBBDDB 
 331      E699
 332 0d28 D1EEADC6 		.ascii	"\321\356\255\306\323\207\374\271V\3032\320:.\003m\266"
 332      D387FCB9 
 332      56C332D0 
 332      3A2E036D 
 332      B6
 333 0d39 63C20B18 		.ascii	"c\302\013\030\234\235\313a\240vm\317\007\277\232aP\""
 333      9C9DCB61 
 333      A0766DCF 
 333      07BF9A61 
 333      5022
 334 0d4b 14C8646A 		.ascii	"\024\310dj\332\345j\240\341\343h!\257\366\315\310\210"
 334      DAE56AA0 
 334      E1E36821 
 334      AFF6CDC8 
 334      88
 335 0d5c CFC387D0 		.ascii	"\317\303\207\320\317p\260V\350#iG71\353\263\300\177"
 335      CF70B056 
 335      E8236947 
 335      3731EBB3 
 335      C07F
 336 0d6e 82D9DD83 		.ascii	"\202\331\335\203\011\370\275\237\354'f\207\377|l\236"
 336      09F8BD9F 
 336      EC276687 
 336      FF7C6C9E 
 337 0d7e F94534BA 		.ascii	"\371E4\272W|8x\345#]\324\036\2534\307\304Z\207\366}"
 337      577C3878 
 337      E5235DD4 
 337      1EAB34C7 
 337      C45A87F6 
 338 0d93 C7CB1CE2 		.ascii	"\307\313\034\342e\204\355c\307jw`\037{\321\260D\225"
 338      6584ED63 
 338      C76A7760 
 338      1F7BD1B0 
 338      4495
 339 0da5 EB9A770E 		.ascii	"\353\232w\016\244\203\313W\217\307\213\275_\302@{\253"
 339      A483CB57 
 339      8FC78BBD 
 339      5FC2407B 
 339      AB
 340 0db6 686795A8 		.ascii	"hg\225\250\2256\022\271\322FBk\327o\216\214\344\326"
 340      953612B9 
 340      D246426B 
 340      D76F8E8C 
 340      E4D6
 341 0dc8 AE4B68C9 		.ascii	"\256Kh\311\215(\224\230K\022^\257\262Hu\023\273X\307"
 341      8D289498 
 341      4B125EAF 
ARM GAS  /tmp/ccNIDDOt.s 			page 26


 341      B2487513 
 341      BB58C7
 342 0ddb B71DD87F 		.ascii	"\267\035\330\177o\2138w\236\266\275\316\\l\304\305\347"
 342      6F8B3877 
 342      9EB6BDCE 
 342      5C6CC4C5 
 342      E7
 343 0dec D91FECC7 		.ascii	"\331\037\354\307|\356\3034\3741\217\006\037E\203\217"
 343      7CEEC334 
 343      FC318F06 
 343      1F45838F 
 344 0dfc 54C8579E 		.ascii	"T\310W\236K \367D\257i=\3531\226\322\343\343-\342\262"
 344      4B20F744 
 344      AF693DEB 
 344      3196D2E3 
 344      E32DE2B2 
 345 0e10 795A771D 		.ascii	"yZw\035\377zr\360\213\373_\300z\274\216\365\350\315"
 345      FF7A72F0 
 345      8BFB5FC0 
 345      7ABC8EF5 
 345      E8CD
 346 0e22 D3A394F5 		.ascii	"\323\243\224\365\344\247iM\274\015\036@\223\341=\336"
 346      E4A7694D 
 346      BC0D1E40 
 346      93E13DDE 
 347 0e32 2D327CBF 		.ascii	"-2|\277a\221CX\223\013\177\001\213\014\361X\204\275"
 347      61914358 
 347      930B7F01 
 347      8B0CF158 
 347      84BD
 348 0e44 B417F4B8 		.ascii	"\264\027\364\270V\202g\365\2315\365\010\326\343\242"
 348      568267F5 
 348      9935F508 
 348      D6E3A2
 349 0e53 5B4DE542 		.ascii	"[M\345B:\270\374\311)\270\246\036\303@\227\2775!\036"
 349      3AB8FCC9 
 349      29B8A61E 
 349      C34097BF 
 349      35211E
 350 0e66 D9BBE999 		.ascii	"\331\273\351\231=\332\237\017m-\241^\232\354\365`\245"
 350      3DDA9F0F 
 350      6D2DA15E 
 350      9AECF560 
 350      A5
 351 0e77 178C2999 		.ascii	"\027\214)\231\275\223\033\015\366\3720\320\3421\267"
 351      BD931B0D 
 351      F6FA30D0 
 351      E231B7
 352 0e86 98BD1563 		.ascii	"\230\275\025c\274\262\347\254C\270M1\331\263b\376z\317"
 352      BCB2E7AC 
 352      43B84D31 
 352      D9B362FE 
 352      7ACF
 353 0e98 88E43F18 		.ascii	"\210\344?\030\254T\315\310\302\365m\324\346\201C\265"
 353      AC54CDC8 
 353      C2F56DD4 
 353      E68143B5 
ARM GAS  /tmp/ccNIDDOt.s 			page 27


 354 0ea8 46AFE60C 		.ascii	"F\257\346\014.\375\351<\002\027\320-\205\247/\321\266"
 354      2EFDE93C 
 354      0217D02D 
 354      85A72FD1 
 354      B6
 355 0eb9 D3DAB8C5 		.ascii	"\323\332\270\305\030\366\372\030\344]\3178\242%\247"
 355      18F6FA18 
 355      E45DCF38 
 355      A225A7
 356 0ec8 4E7DE39F 		.ascii	"N}\343\237\303:\235\303:\355\312\323\351[}\\\267\317"
 356      C33A9DC3 
 356      3AEDCAD3 
 356      E95B7D5C 
 356      B7CF
 357 0eda B34A7926 		.ascii	"\263Jy&_m\250\204q%A\347\001,\260Z\347\324\307\346\352"
 357      5F6DA884 
 357      712541E7 
 357      012CB05A 
 357      E7D4C7E6 
 358 0eef 2D43DDE3 		.ascii	"-C\335\343\236\341\010\371\364\323\326b0,\\?\017Z\230"
 358      9EE108F9 
 358      F4D3D662 
 358      302C5C3F 
 358      0F5A98
 359 0f02 2DDC5952 		.ascii	"-\334YR\270s\236\341H\341\336!\204\033\344Ac~\227\255"
 359      B8739EE1 
 359      48E1DE21 
 359      841BE441 
 359      637E97AD 
 360 0f16 E9EFAAB6 		.ascii	"\351\357\252\266\021.z\206\"\005;\237\203\272\316\003"
 360      112E7A86 
 360      22053B9F 
 360      83BACE03 
 361 0f26 C5FC7841 		.ascii	"\305\374xA\323\207\337+s\254\256\236\206\306&A\366\032"
 361      D387DF2B 
 361      73ACAE9E 
 361      86C62641 
 361      F61A
 362 0f38 8A8B7EAF 		.ascii	"\212\213~\257o^\206\375\356o^\254\316\035\304\343\261"
 362      6F5E86FD 
 362      EE6F5EAC 
 362      CE1DC4E3 
 362      B1
 363 0f49 940644A9 		.ascii	"\224\006D\251n\032\204\005rc\225\375\234\3379F\242F"
 363      6E1A8405 
 363      726395FD 
 363      9CDF3946 
 363      A246
 364 0f5b 354F8C75 		.ascii	"5O\214u\035\325,x\341c_\376\250f[I\303Nv.\307\204\300"
 364      1DD52C78 
 364      E1635FFE 
 364      A8665B49 
 364      C34E762E 
 365 0f72 30CAF41C 		.ascii	"0\312\364\034\036\345\255\305\"\261s\231\372\270\216"
 365      1EE5ADC5 
 365      22B17399 
 365      FAB88E
ARM GAS  /tmp/ccNIDDOt.s 			page 28


 366 0f81 5659B94C 		.ascii	"VY\271L\325\277t\035\333\257=aO\220\2401\273$lp%E\273"
 366      D5BF741D 
 366      DBAF3D61 
 366      4F90A031 
 366      BB246C70 
 367 0f98 410FC3AF 		.ascii	"A\017\303\257q\361\261\301"
 367      71F1B1C1 
 368 0fa0 1EE56DC3 		.ascii	"\036\345m\303\270\354\\\005\206\341\254L\246b_\347+"
 368      B8EC5C05 
 368      86E1AC4C 
 368      A6625FE7 
 368      2B
 369 0fb1 96EDCCEE 		.ascii	"\226\355\314\356\336r\362\037\326\275\244\315\377\035"
 369      DE72F21F 
 369      D6BDA4CD 
 369      FF1D
 370 0fbf 0C101E15 		.ascii	"\014\020\036\025\251q\336T\366\302q-@\214\363\274|\204"
 370      A971DE54 
 370      F6C2712D 
 370      408CF3BC 
 370      7C84
 371 0fd1 99FD27E3 		.ascii	"\231\375'\343#\314v\274R\271g\354\267\3574S\016{\212"
 371      23CC76BC 
 371      52B967EC 
 371      B7EF3453 
 371      0E7B8A
 372 0fe4 82B48016 		.ascii	"\202\264\200\026\004\362\031\330\225]\361\354\361\364"
 372      04F219D8 
 372      955DF1EC 
 372      F1F4
 373 0ff2 3AEDF07C 		.ascii	":\355\360|\015\260j4\375\005.\022\260\332"
 373      0DB06A34 
 373      FD052E12 
 373      B0DA
 374 1000 5052B568 		.ascii	"PR\265hq\000A\024NL:\356\024>\254\336\250\225\011\224"
 374      71004114 
 374      4E4C3AEE 
 374      143EACDE 
 374      A8950994 
 375 1014 000B03D4 		.ascii	"\000\013\003\324\340x*{\242\263=\3406\3030T\355T\315"
 375      E0782A7B 
 375      A2B33DE0 
 375      36C33054 
 375      ED54CD
 376 1027 2CF873A7 		.ascii	",\370s\247\024\227\253\311\321 \265Q\263+\310\214,\023"
 376      1497ABC9 
 376      D120B551 
 376      B32BC88C 
 376      2C13
 377 1039 AF0E10F3 		.ascii	"\257\016\020\363$\337\025\236\322z{\263\037nY'.\312"
 377      24DF159E 
 377      D27A7BB3 
 377      1F6E5927 
 377      2ECA
 378 104b 82CFC280 		.ascii	"\202\317\302\200R\264\243\341Z\300:\317\261\244,\267"
 378      52B4A3E1 
 378      5AC03ACF 
ARM GAS  /tmp/ccNIDDOt.s 			page 29


 378      B1A42CB7 
 379 105b 540C45E4 		.ascii	"T\014E\344jjF\203\312&\011\363o\263^\311V\210y\262/"
 379      6A6A4683 
 379      CA2609F3 
 379      6FB35EC9 
 379      568879B2 
 380 1070 2C20FB86 		.ascii	", \373\206@.\240\3355iR\355\364\246X}\354\227\017\325"
 380      402EA0DD 
 380      356952ED 
 380      F4A6587D 
 380      EC970FD5 
 381 1084 26D3B5B3 		.ascii	"&\323\265\263\224T,\331\232\256M\317IG\224x<=)\"\004"
 381      94542CD9 
 381      9AAE4DCF 
 381      49479478 
 381      3C3D2922 
 382 1099 E594AA26 		.ascii	"\345\224\252&2\301\177\375\305\303\341\351\302\254\332"
 382      32C17FFD 
 382      C5C3E1E9 
 382      C2ACDA
 383 10a8 44431AED 		.ascii	"DC\032\355?\252mJ6\253\265)5\255*\251HSm\223\222\212"
 383      3FAA6D4A 
 383      36ABB529 
 383      35AD2AA9 
 383      48536D93 
 384 10be B62929B5 		.ascii	"\266))\265VI5\337W\333\030\211L\204\304D\265\271^\215"
 384      564935DF 
 384      57DB1889 
 384      4C84C444 
 384      B5B95E8D 
 385 10d2 46D5A87D 		.ascii	"F\325\250}!\221L\250\023U\245>6q\262<e\342}u\367N\376"
 385      21914CA8 
 385      1355A53E 
 385      3671B23C 
 385      65E27D75 
 386 10e9 AFFB6A89 		.ascii	"\257\373j\211\033\265\261D$\336\032U\221\014\265\270"
 386      1BB5B144 
 386      24DE1A55 
 386      910CB5B8 
 387 10f9 E8494D20 		.ascii	"\350IM \204\232J%\222AY\376\227\237?\370@H\226\323\350"
 387      849A4A25 
 387      924159FE 
 387      979F3FF8 
 387      404896D3 
 388 110e 57925B24 		.ascii	"W\222[$9%\311mA\271!\2564\246\003rC,\256\302C\351\372"
 388      3925C96D 
 388      41B921AE 
 388      34A60372 
 388      432CAEC2 
 389 1125 D686805C 		.ascii	"\326\206\200\\\257\244\325\200\234\216\375\267\352\223"
 389      AFA4D580 
 389      9C8EFDB7 
 389      EA93
 390 1133 EB1BCAE4 		.ascii	"\353\033\312\344x}\003:\011\311\221drfL\365G@\346\000"
 390      787D033A 
 390      09C99164 
 390      72664CF5 
ARM GAS  /tmp/ccNIDDOt.s 			page 30


 390      4740E600 
 391 1147 68A74483 		.ascii	"h\247D\203r[*\226Q\333n\255rrfN\213\232\006\355BrCK"
 391      725B2A96 
 391      51DB6EAD 
 391      7272664E 
 391      8B9A06ED 
 392 115f 322D6740 		.ascii	"2-g@XU\235\031\224#\361d\032dn\255\207\275\005v\220"
 392      58559D19 
 392      9423F164 
 392      1A646EAD 
 392      87BD0576 
 393 1174 B2156B94 		.ascii	"\262\025k\224\200\243\017\364(\223\353\3433\221.A9\331"
 393      80A30FF4 
 393      2893EBE3 
 393      33912E41 
 393      39D9
 394 1186 D0206742 		.ascii	"\320 gB\350'\255\002@T\311(e\300F22S\316\264\336Z}P"
 394      E827AD02 
 394      4054C928 
 394      65C04632 
 394      3253CEB4 
 395 119e A1A04DB5 		.ascii	"\241\240M\265\374\340/\247\377\233\374\353\007\246?"
 395      FCE02FA7 
 395      FF9BFCEB 
 395      07A63F
 396 11ad FCEB877E 		.ascii	"\374\353\207~\376\233\007\344\377\010\310\350V\205\334"
 396      FE9B07E4 
 396      FF08C8E8 
 396      5685DC
 397 11bc 5C9FCE28 		.ascii	"\\\237\316(\031\025\311\0136hMd\346\212\177\015\011"
 397      1915C90B 
 397      36684D64 
 397      E68A7F0D 
 397      09
 398 11cd E3B17AF4 		.ascii	"\343\261z\364\000%\351\344IS&M\316\311\233\001\234\006"
 398      0025E9E4 
 398      4953264D 
 398      CEC99B01 
 398      9C06
 399 11df E4596DB1 		.ascii	"\344Ym\261D\006Q/\267E\232\202\370X\017\342\315R\342"
 399      4406512F 
 399      B7459A82 
 399      F8580FE2 
 399      CD52E2
 400 11f2 AD6A9925 		.ascii	"\255j\231%q\310\360\257\373\2022\344\213%B\350'\331"
 400      71C8F0AF 
 400      FB8232E4 
 400      8B2542E8 
 400      27D9
 401 1204 9AC1BFE0 		.ascii	"\232\301\277\340\230~\031`+d\265YM5\252\211\310\234"
 401      987E1960 
 401      2B64B559 
 401      4D35AA89 
 401      C89C
 402 1216 6A39D29A 		.ascii	"j9\322\232J\201\347\312\021\310\334\230L\315\031c_\001"
 402      4A81E7CA 
 402      11C8DC98 
ARM GAS  /tmp/ccNIDDOt.s 			page 31


 402      4CCD1963 
 402      5F01
 403 1228 2694B85A 		.ascii	"&\224\270Z\001>\032\215\001T,S\016\\\304U%\321\332\022"
 403      013E1A8D 
 403      01542C53 
 403      0E5CC455 
 403      25D1DA12 
 404 123c 927F166B 		.ascii	"\222\177\026k\004i\300\316\352\354\214$\317\014\311"
 404      0469C0CE 
 404      EAEC8C24 
 404      CF0CC9
 405 124b CDCAECB6 		.ascii	"\315\312\354\266h\0329qc\302/C\022D{\370\301d\242Q\222"
 405      681A3971 
 405      63C22F43 
 405      12447BF8 
 405      C164A251 
 406 1260 6787C075 		.ascii	"g\207\300u\323\255q\0000~\345\231~\271\345G\351r\271"
 406      D3AD7100 
 406      307EE599 
 406      7EB9E547 
 406      E972B9
 407 1273 016A4D3C 		.ascii	"\001jM<\226\006\361\"\2632q5\201\177\301s*\345\326D"
 407      9606F122 
 407      B3327135 
 407      817FC173 
 407      2AE5D644 
 408 1287 6B5A8DCA 		.ascii	"kZ\215\312)%\021\255\004\331S\231\344L9\256\2443\225"
 408      292511AD 
 408      04D95399 
 408      E44C39AE 
 408      A43395
 409 129a B2928E64 		.ascii	"\262\222\216db\315\252\014\217\371e9\323\\\206\016\340"
 409      62CDAA0C 
 409      8FF96539 
 409      D35C860E 
 409      E0
 410 12ab 8E1123D1 		.ascii	"\216\021#\321\034K\224\343DS\2625e\244\232\243\312\034"
 410      1C4B94E3 
 410      4453B235 
 410      65A49AA3 
 410      CA1C
 411 12bd F366D2BC 		.ascii	"\363f\322\2749\007lg\244\332\340\246y\015R\0258\025"
 411      39076C67 
 411      A4DAE0A6 
 411      790D5215 
 411      3815
 412 12cf 4B47D399 		.ascii	"KG\323\231*\203\000\253\254*\271QinV\260~\220\252\300"
 412      2A8300AB 
 412      AC2AB951 
 412      696E56B0 
 412      7E90AAC0 
 413 12e3 A261F543 		.ascii	"\242a\365C89y\012\256\023\321\200\334\014\032\372e%"
 413      3839790A 
 413      AE13D180 
 413      DC0C1AFA 
 413      6525
 414 12f5 1AF5CBA9 		.ascii	"\032\365\313\251\311S*\3012\240\231\214\2553\032N2\311"
ARM GAS  /tmp/ccNIDDOt.s 			page 32


 414      C9532AC1 
 414      32A0998C 
 414      AD331A4E 
 414      32C9
 415 1307 B68875D6 		.ascii	"\266\210u\326\026\311$\233\353\215\263r9\376\217\223"
 415      16C9249B 
 415      EB8DB372 
 415      39FE8F93 
 416 1317 1554D428 		.ascii	"\025T\324(\\\210\022\2271\023\215j&\212\\\021\254\207"
 416      5C881297 
 416      31138D6A 
 416      268A5C11 
 416      AC87
 417 1329 B2A76CB0 		.ascii	"\262\247l\260*t\226C\033\213\\\000\237\247\255\373m"
 417      2A749643 
 417      1B8B5C00 
 417      9FA7ADFB 
 417      6D
 418 133a 91540E7F 		.ascii	"\221T\016\177,\234\246\361\271y\277Ln\262b\025R\003"
 418      2C9CA6F1 
 418      B979BF4C 
 418      6EB26215 
 418      5203
 419 134c C24EA219 		.ascii	"\302N\242\031\"i2\0222\331\367\303\365\266\220\014\217"
 419      22693212 
 419      32D9F7C3 
 419      F5B6900C 
 419      8F
 420 135d CE8E6590 		.ascii	"\316\216e\220\347\300\225\206Dz\264\234L\310\350\222"
 420      E7C09586 
 420      447AB49C 
 420      4CC8E892 
 421 136d ACA41AC1 		.ascii	"\254\244\032\301\314\015\011\364;J\216\246\223r\023"
 421      CC0D09F4 
 421      3B4A8EA6 
 421      937213
 422 137c 301107E4 		.ascii	"0\021\007\344\206\004\216\030!\240R\216\314\206zn\200"
 422      86048E18 
 422      21A0528E 
 422      CC867A6E 
 422      80
 423 138d D49523D5 		.ascii	"\324\225#\325\344\206\326D$ 7\202\337B\321\261d=\270"
 423      E486D644 
 423      24203782 
 423      DF42D1B1 
 423      643DB8
 424 13a0 0D3AA260 		.ascii	"\015:\242`\211.\202Y\323\015!\034\356\344\224\230\362"
 424      892E8259 
 424      D30D211C 
 424      EEE49498 
 424      F2
 425 13b1 A350E96B 		.ascii	"\243P\351k\311\244|\240:\304F\024y\344\224/\032K\225"
 425      C9A47CA0 
 425      3AC44614 
 425      79E4942F 
 425      1A4B95
 426 13c4 19C15086 		.ascii	"\031\301P\206\004\016Dr\352\026\007};,F\300\334)\024"
ARM GAS  /tmp/ccNIDDOt.s 			page 33


 426      040E4472 
 426      EA16077D 
 426      3B2C46C0 
 426      DC2914
 427 13d7 2DD2F529 		.ascii	"-\322\365)\020\316\017\017\245\374\210\345[\034\330"
 427      10CE0F0F 
 427      A5FC88E5 
 427      5B1CD8
 428 13e6 5091204F 		.ascii	"P\221 O \252\316\302\261\013\377\006\323\031\224\010"
 428      20AACEC2 
 428      B10BFF06 
 428      D3199408 
 429 13f6 C41249E3 		.ascii	"\304\022I\343\004\022\301\346d\024\20578C\251P\"\036"
 429      0412C1E6 
 429      64148537 
 429      3843A950 
 429      221E
 430 1408 4B401C2E 		.ascii	"K@\034.\203s\234\014\264\306\242\030\001\377\242L\220"
 430      83739C0C 
 430      B4C6A218 
 430      01FFA24C 
 430      90
 431 1419 08349A17 		.ascii	"\0104\232\027\033\255\213\220@\020)\004o\304w8\303\341"
 431      1BAD8B90 
 431      40102904 
 431      6FC47738 
 431      C3E1
 432 142b 1ED71B8C 		.ascii	"\036\327\033\214\247\240d9\272\336\002\372\336\213."
 432      A7A06439 
 432      BADE02FA 
 432      DE8B2E
 433 143a 351397EE 		.ascii	"5\023\227\356C\227\"\304\245\037V@\312l9\312q\022\302"
 433      439722C4 
 433      A51F5640 
 433      CA6C39CA 
 433      7112C2
 434 144d 72DABE3D 		.ascii	"r\332\276=\031<\014\251\012Mj\032\242J,\255d2s\340\244"
 434      193C0CA9 
 434      0A4D6A1A 
 434      A24A2CAD 
 434      643273E0 
 435 1462 217A0FD9 		.ascii	"!z\017\331KHelz\"M\315js$\231RQ(E\270rfT\244i:\\\370"
 435      4B48656C 
 435      7A224DCD 
 435      6A732499 
 435      52512845 
 436 147f 67E4F4E9 		.ascii	"g\344\364\351[h\250L*\226hDn\003\367\022\255\361x\250"
 436      5B68A84C 
 436      2A966844 
 436      6E03F712 
 436      ADF178A8 
 437 1493 21114EB7 		.ascii	"!\021N\267\250\021\361\336 \310\010\255#\334\3104\245"
 437      A811F1DE 
 437      20C808AD 
 437      23DCC834 
 437      A5
 438 14a4 926D7E08 		.ascii	"\222m~\010\267P/q\205\221\345\321Vb\322\217\177X\367"
ARM GAS  /tmp/ccNIDDOt.s 			page 34


 438      B7502F71 
 438      8591E5D1 
 438      5662D28F 
 438      7F58F7
 439 14b7 E3FF0787 		.ascii	"\343\377\007\207\346\317B"
 439      E6CF42
 440              		.text
 441              		.section	.gnu.lto_.symtab.9679cea104f44850,"",%progbits
 442 0000 5F726561 		.ascii	"_read_r\000\000\000\000\000\000\000\000\000\000\000"
 442      645F7200 
 442      00000000 
 442      00000000 
 442      0000
 443 0012 00A10000 		.ascii	"\000\241\000\000\000_lseek_r\000\000\000\000\000\000"
 443      005F6C73 
 443      65656B5F 
 443      72000000 
 443      000000
 444 0025 00000000 		.ascii	"\000\000\000\000\000\000\375\001\000\000_write_r\000"
 444      0000FD01 
 444      00005F77 
 444      72697465 
 444      5F7200
 445 0038 00000000 		.ascii	"\000\000\000\000\000\000\000\000\000\000\000\012\002"
 445      00000000 
 445      0000000A 
 445      02
 446 0045 00005F63 		.ascii	"\000\000_close_r\000\000\000\000\000\000\000\000\000"
 446      6C6F7365 
 446      5F720000 
 446      00000000 
 446      000000
 447 0058 00000011 		.ascii	"\000\000\000\021\002\000\000_sbrk_r\000\000\000\000"
 447      0200005F 
 447      7362726B 
 447      5F720000 
 447      0000
 448 006a 00000000 		.ascii	"\000\000\000\000\000\000\000\000\031\002\000\000_fs"
 448      00000000 
 448      19020000 
 448      5F6673
 449 0079 7461745F 		.ascii	"tat_r\000\000\000\000\000\000\000\000\000\000\000\000"
 449      72000000 
 449      00000000 
 449      00000000 
 449      00
 450 008a 25020000 		.ascii	"%\002\000\000_isatty_r\000\000\000\000\000\000\000\000"
 450      5F697361 
 450      7474795F 
 450      72000000 
 450      00000000 
 451 009f 00000000 		.ascii	"\000\000\000\000y\002\000\000chCoreAlloc\000\000\002"
 451      79020000 
 451      6368436F 
 451      7265416C 
 451      6C6F6300 
 452 00b5 00000000 		.ascii	"\000\000\000\000\000\000\000\000\000\177\002\000\000"
ARM GAS  /tmp/ccNIDDOt.s 			page 35


 452      00000000 
 452      007F0200 
 452      00
 453              		.text
 454              		.section	.gnu.lto_.opts,"",%progbits
 455 0000 272D6D63 		.ascii	"'-mcpu=cortex-m4' '-mno-thumb-interwork' '-mthumb' "
 455      70753D63 
 455      6F727465 
 455      782D6D34 
 455      2720272D 
 456 0033 272D6767 		.ascii	"'-ggdb' '-O2' '-fomit-frame-pointer' '-falign-funct"
 456      64622720 
 456      272D4F32 
 456      2720272D 
 456      666F6D69 
 457 0066 696F6E73 		.ascii	"ions=16' '-ffunction-sections' '-fdata-sections' '-"
 457      3D313627 
 457      20272D66 
 457      66756E63 
 457      74696F6E 
 458 0099 666E6F2D 		.ascii	"fno-common' '-flto'\000"
 458      636F6D6D 
 458      6F6E2720 
 458      272D666C 
 458      746F2700 
 459              		.text
 460              		.cfi_sections	.debug_frame
 461              		.section	.text._read_r,"ax",%progbits
 462              		.align	2
 463              		.p2align 4,,15
 464              		.global	_read_r
 465              		.thumb
 466              		.thumb_func
 467              		.type	_read_r, %function
 468              	_read_r:
 469              	.LFB241:
 470              		.file 1 "../ChibiOS/os/various/syscalls.c"
 471              		.loc 1 71 0
 472              		.cfi_startproc
 473              		@ args = 0, pretend = 0, frame = 0
 474              		@ frame_needed = 0, uses_anonymous_args = 0
 475              		@ link register save eliminated.
 476              	.LVL0:
 477              		.loc 1 84 0
 478 0000 1623     		movs	r3, #22
 479              	.LVL1:
 480 0002 0360     		str	r3, [r0]
 481              		.loc 1 87 0
 482 0004 4FF0FF30 		mov	r0, #-1
 483              	.LVL2:
 484 0008 7047     		bx	lr
 485              		.cfi_endproc
 486              	.LFE241:
 487              		.size	_read_r, .-_read_r
 488 000a 00BFAFF3 		.section	.text._lseek_r,"ax",%progbits
 488      0080
 489              		.align	2
ARM GAS  /tmp/ccNIDDOt.s 			page 36


 490              		.p2align 4,,15
 491              		.global	_lseek_r
 492              		.thumb
 493              		.thumb_func
 494              		.type	_lseek_r, %function
 495              	_lseek_r:
 496              	.LFB242:
 497              		.loc 1 92 0
 498              		.cfi_startproc
 499              		@ args = 0, pretend = 0, frame = 0
 500              		@ frame_needed = 0, uses_anonymous_args = 0
 501              		@ link register save eliminated.
 502              	.LVL3:
 503              		.loc 1 99 0
 504 0000 0020     		movs	r0, #0
 505              	.LVL4:
 506 0002 7047     		bx	lr
 507              		.cfi_endproc
 508              	.LFE242:
 509              		.size	_lseek_r, .-_lseek_r
 510 0004 AFF30080 		.section	.text._write_r,"ax",%progbits
 510      AFF30080 
 510      AFF30080 
 511              		.align	2
 512              		.p2align 4,,15
 513              		.global	_write_r
 514              		.thumb
 515              		.thumb_func
 516              		.type	_write_r, %function
 517              	_write_r:
 518              	.LFB243:
 519              		.loc 1 104 0
 520              		.cfi_startproc
 521              		@ args = 0, pretend = 0, frame = 0
 522              		@ frame_needed = 0, uses_anonymous_args = 0
 523              		@ link register save eliminated.
 524              	.LVL5:
 525              		.loc 1 116 0
 526 0000 1846     		mov	r0, r3
 527              	.LVL6:
 528 0002 7047     		bx	lr
 529              		.cfi_endproc
 530              	.LFE243:
 531              		.size	_write_r, .-_write_r
 532 0004 AFF30080 		.section	.text._close_r,"ax",%progbits
 532      AFF30080 
 532      AFF30080 
 533              		.align	2
 534              		.p2align 4,,15
 535              		.global	_close_r
 536              		.thumb
 537              		.thumb_func
 538              		.type	_close_r, %function
 539              	_close_r:
 540              	.LFB244:
 541              		.loc 1 121 0
 542              		.cfi_startproc
ARM GAS  /tmp/ccNIDDOt.s 			page 37


 543              		@ args = 0, pretend = 0, frame = 0
 544              		@ frame_needed = 0, uses_anonymous_args = 0
 545              		@ link register save eliminated.
 546              	.LVL7:
 547              		.loc 1 126 0
 548 0000 0020     		movs	r0, #0
 549              	.LVL8:
 550 0002 7047     		bx	lr
 551              		.cfi_endproc
 552              	.LFE244:
 553              		.size	_close_r, .-_close_r
 554 0004 AFF30080 		.section	.text._sbrk_r,"ax",%progbits
 554      AFF30080 
 554      AFF30080 
 555              		.align	2
 556              		.p2align 4,,15
 557              		.global	_sbrk_r
 558              		.thumb
 559              		.thumb_func
 560              		.type	_sbrk_r, %function
 561              	_sbrk_r:
 562              	.LFB245:
 563              		.loc 1 131 0
 564              		.cfi_startproc
 565              		@ args = 0, pretend = 0, frame = 0
 566              		@ frame_needed = 0, uses_anonymous_args = 0
 567              	.LVL9:
 568 0000 10B5     		push	{r4, lr}
 569              		.cfi_def_cfa_offset 8
 570              		.cfi_offset 4, -8
 571              		.cfi_offset 14, -4
 572              		.loc 1 131 0
 573 0002 0446     		mov	r4, r0
 574              		.loc 1 137 0
 575 0004 0846     		mov	r0, r1
 576              	.LVL10:
 577 0006 FFF7FEFF 		bl	chCoreAlloc
 578              	.LVL11:
 579              		.loc 1 138 0
 580 000a 00B1     		cbz	r0, .L9
 581              		.loc 1 148 0
 582 000c 10BD     		pop	{r4, pc}
 583              	.LVL12:
 584              	.L9:
 585              		.loc 1 139 0
 586 000e 0C23     		movs	r3, #12
 587 0010 2360     		str	r3, [r4]
 588              		.loc 1 140 0
 589 0012 4FF0FF30 		mov	r0, #-1
 590              	.LVL13:
 591              		.loc 1 148 0
 592 0016 10BD     		pop	{r4, pc}
 593              		.cfi_endproc
 594              	.LFE245:
 595              		.size	_sbrk_r, .-_sbrk_r
 596 0018 AFF30080 		.section	.text._fstat_r,"ax",%progbits
 596      AFF30080 
ARM GAS  /tmp/ccNIDDOt.s 			page 38


 597              		.align	2
 598              		.p2align 4,,15
 599              		.global	_fstat_r
 600              		.thumb
 601              		.thumb_func
 602              		.type	_fstat_r, %function
 603              	_fstat_r:
 604              	.LFB246:
 605              		.loc 1 153 0
 606              		.cfi_startproc
 607              		@ args = 0, pretend = 0, frame = 0
 608              		@ frame_needed = 0, uses_anonymous_args = 0
 609              	.LVL14:
 610 0000 10B5     		push	{r4, lr}
 611              		.cfi_def_cfa_offset 8
 612              		.cfi_offset 4, -8
 613              		.cfi_offset 14, -4
 614              		.loc 1 157 0
 615 0002 1046     		mov	r0, r2
 616              	.LVL15:
 617              		.loc 1 153 0
 618 0004 1446     		mov	r4, r2
 619              		.loc 1 157 0
 620 0006 0021     		movs	r1, #0
 621              	.LVL16:
 622 0008 3C22     		movs	r2, #60
 623              	.LVL17:
 624 000a FFF7FEFF 		bl	memset
 625              	.LVL18:
 626              		.loc 1 158 0
 627 000e 4FF40053 		mov	r3, #8192
 628 0012 6360     		str	r3, [r4, #4]
 629              		.loc 1 160 0
 630 0014 0020     		movs	r0, #0
 631 0016 10BD     		pop	{r4, pc}
 632              		.cfi_endproc
 633              	.LFE246:
 634              		.size	_fstat_r, .-_fstat_r
 635 0018 AFF30080 		.section	.text._isatty_r,"ax",%progbits
 635      AFF30080 
 636              		.align	2
 637              		.p2align 4,,15
 638              		.global	_isatty_r
 639              		.thumb
 640              		.thumb_func
 641              		.type	_isatty_r, %function
 642              	_isatty_r:
 643              	.LFB247:
 644              		.loc 1 165 0
 645              		.cfi_startproc
 646              		@ args = 0, pretend = 0, frame = 0
 647              		@ frame_needed = 0, uses_anonymous_args = 0
 648              		@ link register save eliminated.
 649              	.LVL19:
 650              		.loc 1 170 0
 651 0000 0120     		movs	r0, #1
 652              	.LVL20:
ARM GAS  /tmp/ccNIDDOt.s 			page 39


 653 0002 7047     		bx	lr
 654              		.cfi_endproc
 655              	.LFE247:
 656              		.size	_isatty_r, .-_isatty_r
 657 0004 AFF30080 		.text
 657      AFF30080 
 657      AFF30080 
 658              	.Letext0:
 659              		.file 2 "/nfs/nfs5/home/research/hardware/arm2/gcc-arm-embedded/gcc-arm-none-eabi-4_8-2014q2/lib/g
 660              		.file 3 "/nfs/nfs5/home/research/hardware/arm2/gcc-arm-embedded/gcc-arm-none-eabi-4_8-2014q2/arm-n
 661              		.file 4 "/nfs/nfs5/home/research/hardware/arm2/gcc-arm-embedded/gcc-arm-none-eabi-4_8-2014q2/arm-n
 662              		.file 5 "/nfs/nfs5/home/research/hardware/arm2/gcc-arm-embedded/gcc-arm-none-eabi-4_8-2014q2/arm-n
 663              		.file 6 "/nfs/nfs5/home/research/hardware/arm2/gcc-arm-embedded/gcc-arm-none-eabi-4_8-2014q2/arm-n
 664              		.file 7 "/nfs/nfs5/home/research/hardware/arm2/gcc-arm-embedded/gcc-arm-none-eabi-4_8-2014q2/arm-n
 665              		.file 8 "/nfs/nfs5/home/research/hardware/arm2/gcc-arm-embedded/gcc-arm-none-eabi-4_8-2014q2/arm-n
 666              		.file 9 "/nfs/nfs5/home/research/hardware/arm2/gcc-arm-embedded/gcc-arm-none-eabi-4_8-2014q2/arm-n
 667              		.file 10 "../ChibiOS/os/rt/ports/ARMCMx/compilers/GCC/chtypes.h"
 668              		.file 11 "../ChibiOS/os/rt/include/chsystypes.h"
 669              		.file 12 "../ChibiOS/os/rt/include/chschd.h"
 670              		.file 13 "../ChibiOS/os/rt/ports/ARMCMx/chcore.h"
 671              		.file 14 "../ChibiOS/os/rt/ports/ARMCMx/chcore_v7m.h"
 672              		.file 15 "../ChibiOS/os/rt/include/chtm.h"
 673              		.file 16 "../ChibiOS/os/rt/include/chsem.h"
 674              		.file 17 "../ChibiOS/os/rt/include/chmtx.h"
 675              		.file 18 "../ChibiOS/os/ext/CMSIS/include/core_cm4.h"
 676              		.file 19 "../ChibiOS/os/rt/include/chmemcore.h"