
build/lab1.elf:     file format elf32-littlearm


Disassembly of section .text:

08000200 <Reset_Handler>:
 8000200:	b672      	cpsid	i
 8000202:	4826      	ldr	r0, [pc, #152]	; (800029c <endfiniloop+0x4>)
 8000204:	f380 8809 	msr	PSP, r0
 8000208:	2002      	movs	r0, #2
 800020a:	f380 8814 	msr	CONTROL, r0
 800020e:	f3bf 8f6f 	isb	sy
 8000212:	f001 fd5d 	bl	8001cd0 <__core_init>
 8000216:	f001 fcbb 	bl	8001b90 <__early_init>
 800021a:	4821      	ldr	r0, [pc, #132]	; (80002a0 <endfiniloop+0x8>)
 800021c:	4921      	ldr	r1, [pc, #132]	; (80002a4 <endfiniloop+0xc>)
 800021e:	4a22      	ldr	r2, [pc, #136]	; (80002a8 <endfiniloop+0x10>)

08000220 <msloop>:
 8000220:	4291      	cmp	r1, r2
 8000222:	bf3c      	itt	cc
 8000224:	f841 0b04 	strcc.w	r0, [r1], #4
 8000228:	f7ff bffa 	bcc.w	8000220 <msloop>
 800022c:	491f      	ldr	r1, [pc, #124]	; (80002ac <endfiniloop+0x14>)
 800022e:	4a1b      	ldr	r2, [pc, #108]	; (800029c <endfiniloop+0x4>)

08000230 <psloop>:
 8000230:	4291      	cmp	r1, r2
 8000232:	bf3c      	itt	cc
 8000234:	f841 0b04 	strcc.w	r0, [r1], #4
 8000238:	f7ff bffa 	bcc.w	8000230 <psloop>
 800023c:	491c      	ldr	r1, [pc, #112]	; (80002b0 <endfiniloop+0x18>)
 800023e:	4a1d      	ldr	r2, [pc, #116]	; (80002b4 <endfiniloop+0x1c>)
 8000240:	4b1d      	ldr	r3, [pc, #116]	; (80002b8 <endfiniloop+0x20>)

08000242 <dloop>:
 8000242:	429a      	cmp	r2, r3
 8000244:	bf3e      	ittt	cc
 8000246:	f851 0b04 	ldrcc.w	r0, [r1], #4
 800024a:	f842 0b04 	strcc.w	r0, [r2], #4
 800024e:	f7ff bff8 	bcc.w	8000242 <dloop>
 8000252:	2000      	movs	r0, #0
 8000254:	4919      	ldr	r1, [pc, #100]	; (80002bc <endfiniloop+0x24>)
 8000256:	4a1a      	ldr	r2, [pc, #104]	; (80002c0 <endfiniloop+0x28>)

08000258 <bloop>:
 8000258:	4291      	cmp	r1, r2
 800025a:	bf3c      	itt	cc
 800025c:	f841 0b04 	strcc.w	r0, [r1], #4
 8000260:	f7ff bffa 	bcc.w	8000258 <bloop>
 8000264:	f001 fcf4 	bl	8001c50 <__init_ram_areas>
 8000268:	f001 fd2a 	bl	8001cc0 <__late_init>
 800026c:	4c15      	ldr	r4, [pc, #84]	; (80002c4 <endfiniloop+0x2c>)
 800026e:	4d16      	ldr	r5, [pc, #88]	; (80002c8 <endfiniloop+0x30>)

08000270 <initloop>:
 8000270:	42ac      	cmp	r4, r5
 8000272:	f280 8005 	bge.w	8000280 <endinitloop>
 8000276:	f854 1b04 	ldr.w	r1, [r4], #4
 800027a:	4788      	blx	r1
 800027c:	f7ff bff8 	b.w	8000270 <initloop>

08000280 <endinitloop>:
 8000280:	f001 f92e 	bl	80014e0 <main>
 8000284:	4c11      	ldr	r4, [pc, #68]	; (80002cc <endfiniloop+0x34>)
 8000286:	4d12      	ldr	r5, [pc, #72]	; (80002d0 <endfiniloop+0x38>)

08000288 <finiloop>:
 8000288:	42ac      	cmp	r4, r5
 800028a:	f280 8005 	bge.w	8000298 <endfiniloop>
 800028e:	f854 1b04 	ldr.w	r1, [r4], #4
 8000292:	4788      	blx	r1
 8000294:	f7ff bff8 	b.w	8000288 <finiloop>

08000298 <endfiniloop>:
 8000298:	f001 bd0a 	b.w	8001cb0 <__default_exit>
 800029c:	20000800 	.word	0x20000800
 80002a0:	55555555 	.word	0x55555555
 80002a4:	20000000 	.word	0x20000000
 80002a8:	20000400 	.word	0x20000400
 80002ac:	20000400 	.word	0x20000400
 80002b0:	080033b0 	.word	0x080033b0
 80002b4:	20000800 	.word	0x20000800
 80002b8:	2000082c 	.word	0x2000082c
 80002bc:	20000830 	.word	0x20000830
 80002c0:	20000c50 	.word	0x20000c50
 80002c4:	08000200 	.word	0x08000200
 80002c8:	08000200 	.word	0x08000200
 80002cc:	08000200 	.word	0x08000200
 80002d0:	08000200 	.word	0x08000200
	...

080002e0 <_port_switch>:
 80002e0:	e92d 4ff0 	stmdb	sp!, {r4, r5, r6, r7, r8, r9, sl, fp, lr}
 80002e4:	f8c1 d00c 	str.w	sp, [r1, #12]
 80002e8:	f8d0 d00c 	ldr.w	sp, [r0, #12]
 80002ec:	e8bd 8ff0 	ldmia.w	sp!, {r4, r5, r6, r7, r8, r9, sl, fp, pc}

080002f0 <_port_thread_start>:
 80002f0:	2300      	movs	r3, #0
 80002f2:	f383 8811 	msr	BASEPRI, r3
 80002f6:	4628      	mov	r0, r5
 80002f8:	47a0      	blx	r4
 80002fa:	2000      	movs	r0, #0
 80002fc:	f001 fc98 	bl	8001c30 <chThdExit>

08000300 <_port_switch_from_isr>:
 8000300:	f001 fc9e 	bl	8001c40 <chSchDoReschedule>

08000304 <_port_exit_from_isr>:
 8000304:	df00      	svc	0
 8000306:	e7fe      	b.n	8000306 <_port_exit_from_isr+0x2>
	...

08000310 <strcmp>:
 8000310:	ea40 0c01 	orr.w	ip, r0, r1
 8000314:	f01c 0f07 	tst.w	ip, #7
 8000318:	d123      	bne.n	8000362 <strcmp+0x52>
 800031a:	f1bd 0d10 	subs.w	sp, sp, #16
 800031e:	e9cd 4502 	strd	r4, r5, [sp, #8]
 8000322:	e9cd 6700 	strd	r6, r7, [sp]
 8000326:	f06f 0600 	mvn.w	r6, #0
 800032a:	f04f 0700 	mov.w	r7, #0
 800032e:	bf00      	nop
 8000330:	e8f0 2302 	ldrd	r2, r3, [r0], #8
 8000334:	e8f1 4502 	ldrd	r4, r5, [r1], #8
 8000338:	42a2      	cmp	r2, r4
 800033a:	fa82 fc46 	uadd8	ip, r2, r6
 800033e:	faa7 fc86 	sel	ip, r7, r6
 8000342:	bf08      	it	eq
 8000344:	f1bc 0f00 	cmpeq.w	ip, #0
 8000348:	f040 80d7 	bne.w	80004fa <strcmp+0x1ea>
 800034c:	42ab      	cmp	r3, r5
 800034e:	fa83 fc46 	uadd8	ip, r3, r6
 8000352:	faa7 fc86 	sel	ip, r7, r6
 8000356:	bf08      	it	eq
 8000358:	f1bc 0f00 	cmpeq.w	ip, #0
 800035c:	f040 80ca 	bne.w	80004f4 <strcmp+0x1e4>
 8000360:	e7e6      	b.n	8000330 <strcmp+0x20>
 8000362:	f010 0c03 	ands.w	ip, r0, #3
 8000366:	d021      	beq.n	80003ac <strcmp+0x9c>
 8000368:	f020 0003 	bic.w	r0, r0, #3
 800036c:	f850 2b04 	ldr.w	r2, [r0], #4
 8000370:	ea5f 7ccc 	movs.w	ip, ip, lsl #31
 8000374:	d008      	beq.n	8000388 <strcmp+0x78>
 8000376:	d20f      	bcs.n	8000398 <strcmp+0x88>
 8000378:	f811 cb01 	ldrb.w	ip, [r1], #1
 800037c:	fa5f f392 	uxtb.w	r3, r2, ror #8
 8000380:	ebb3 0c0c 	subs.w	ip, r3, ip
 8000384:	d110      	bne.n	80003a8 <strcmp+0x98>
 8000386:	b17b      	cbz	r3, 80003a8 <strcmp+0x98>
 8000388:	f811 cb01 	ldrb.w	ip, [r1], #1
 800038c:	fa5f f3a2 	uxtb.w	r3, r2, ror #16
 8000390:	ebb3 0c0c 	subs.w	ip, r3, ip
 8000394:	d108      	bne.n	80003a8 <strcmp+0x98>
 8000396:	b13b      	cbz	r3, 80003a8 <strcmp+0x98>
 8000398:	f811 cb01 	ldrb.w	ip, [r1], #1
 800039c:	fa5f f3b2 	uxtb.w	r3, r2, ror #24
 80003a0:	ebb3 0c0c 	subs.w	ip, r3, ip
 80003a4:	d100      	bne.n	80003a8 <strcmp+0x98>
 80003a6:	b90b      	cbnz	r3, 80003ac <strcmp+0x9c>
 80003a8:	4660      	mov	r0, ip
 80003aa:	4770      	bx	lr
 80003ac:	f1bd 0d10 	subs.w	sp, sp, #16
 80003b0:	e9cd 4502 	strd	r4, r5, [sp, #8]
 80003b4:	e9cd 6700 	strd	r6, r7, [sp]
 80003b8:	f06f 0600 	mvn.w	r6, #0
 80003bc:	f04f 0700 	mov.w	r7, #0
 80003c0:	f011 0c03 	ands.w	ip, r1, #3
 80003c4:	d12d      	bne.n	8000422 <strcmp+0x112>
 80003c6:	f010 0f04 	tst.w	r0, #4
 80003ca:	d00d      	beq.n	80003e8 <strcmp+0xd8>
 80003cc:	f850 2b04 	ldr.w	r2, [r0], #4
 80003d0:	f851 4b04 	ldr.w	r4, [r1], #4
 80003d4:	42a2      	cmp	r2, r4
 80003d6:	fa82 fc46 	uadd8	ip, r2, r6
 80003da:	faa7 fc86 	sel	ip, r7, r6
 80003de:	bf08      	it	eq
 80003e0:	f1bc 0f00 	cmpeq.w	ip, #0
 80003e4:	f040 8089 	bne.w	80004fa <strcmp+0x1ea>
 80003e8:	f011 0f04 	tst.w	r1, #4
 80003ec:	d09f      	beq.n	800032e <strcmp+0x1e>
 80003ee:	f851 5b04 	ldr.w	r5, [r1], #4
 80003f2:	bf00      	nop
 80003f4:	e8f0 2302 	ldrd	r2, r3, [r0], #8
 80003f8:	42aa      	cmp	r2, r5
 80003fa:	fa82 fc46 	uadd8	ip, r2, r6
 80003fe:	faa7 fc86 	sel	ip, r7, r6
 8000402:	bf08      	it	eq
 8000404:	f1bc 0f00 	cmpeq.w	ip, #0
 8000408:	d171      	bne.n	80004ee <strcmp+0x1de>
 800040a:	e8f1 4502 	ldrd	r4, r5, [r1], #8
 800040e:	42a3      	cmp	r3, r4
 8000410:	fa83 fc46 	uadd8	ip, r3, r6
 8000414:	faa7 fc86 	sel	ip, r7, r6
 8000418:	bf08      	it	eq
 800041a:	f1bc 0f00 	cmpeq.w	ip, #0
 800041e:	d163      	bne.n	80004e8 <strcmp+0x1d8>
 8000420:	e7e8      	b.n	80003f4 <strcmp+0xe4>
 8000422:	f021 0103 	bic.w	r1, r1, #3
 8000426:	f1bc 0f02 	cmp.w	ip, #2
 800042a:	d01e      	beq.n	800046a <strcmp+0x15a>
 800042c:	da3b      	bge.n	80004a6 <strcmp+0x196>
 800042e:	f851 5b04 	ldr.w	r5, [r1], #4
 8000432:	bf00      	nop
 8000434:	f850 3b04 	ldr.w	r3, [r0], #4
 8000438:	ea4f 2515 	mov.w	r5, r5, lsr #8
 800043c:	fa83 fc46 	uadd8	ip, r3, r6
 8000440:	faa7 fc86 	sel	ip, r7, r6
 8000444:	ebb7 2f0c 	cmp.w	r7, ip, lsl #8
 8000448:	ea03 2216 	and.w	r2, r3, r6, lsr #8
 800044c:	bf08      	it	eq
 800044e:	42aa      	cmpeq	r2, r5
 8000450:	d14d      	bne.n	80004ee <strcmp+0x1de>
 8000452:	f851 5b04 	ldr.w	r5, [r1], #4
 8000456:	f1bc 0f00 	cmp.w	ip, #0
 800045a:	ea82 0303 	eor.w	r3, r2, r3
 800045e:	ea4f 6205 	mov.w	r2, r5, lsl #24
 8000462:	bf08      	it	eq
 8000464:	4293      	cmpeq	r3, r2
 8000466:	d13c      	bne.n	80004e2 <strcmp+0x1d2>
 8000468:	e7e4      	b.n	8000434 <strcmp+0x124>
 800046a:	f851 5b04 	ldr.w	r5, [r1], #4
 800046e:	bf00      	nop
 8000470:	f850 3b04 	ldr.w	r3, [r0], #4
 8000474:	ea4f 4515 	mov.w	r5, r5, lsr #16
 8000478:	fa83 fc46 	uadd8	ip, r3, r6
 800047c:	faa7 fc86 	sel	ip, r7, r6
 8000480:	ebb7 4f0c 	cmp.w	r7, ip, lsl #16
 8000484:	ea03 4216 	and.w	r2, r3, r6, lsr #16
 8000488:	bf08      	it	eq
 800048a:	42aa      	cmpeq	r2, r5
 800048c:	d12f      	bne.n	80004ee <strcmp+0x1de>
 800048e:	f851 5b04 	ldr.w	r5, [r1], #4
 8000492:	f1bc 0f00 	cmp.w	ip, #0
 8000496:	ea82 0303 	eor.w	r3, r2, r3
 800049a:	ea4f 4205 	mov.w	r2, r5, lsl #16
 800049e:	bf08      	it	eq
 80004a0:	4293      	cmpeq	r3, r2
 80004a2:	d11e      	bne.n	80004e2 <strcmp+0x1d2>
 80004a4:	e7e4      	b.n	8000470 <strcmp+0x160>
 80004a6:	f851 5b04 	ldr.w	r5, [r1], #4
 80004aa:	bf00      	nop
 80004ac:	f850 3b04 	ldr.w	r3, [r0], #4
 80004b0:	ea4f 6515 	mov.w	r5, r5, lsr #24
 80004b4:	fa83 fc46 	uadd8	ip, r3, r6
 80004b8:	faa7 fc86 	sel	ip, r7, r6
 80004bc:	ebb7 6f0c 	cmp.w	r7, ip, lsl #24
 80004c0:	ea03 6216 	and.w	r2, r3, r6, lsr #24
 80004c4:	bf08      	it	eq
 80004c6:	42aa      	cmpeq	r2, r5
 80004c8:	d111      	bne.n	80004ee <strcmp+0x1de>
 80004ca:	f851 5b04 	ldr.w	r5, [r1], #4
 80004ce:	f1bc 0f00 	cmp.w	ip, #0
 80004d2:	ea82 0303 	eor.w	r3, r2, r3
 80004d6:	ea4f 2205 	mov.w	r2, r5, lsl #8
 80004da:	bf08      	it	eq
 80004dc:	4293      	cmpeq	r3, r2
 80004de:	d100      	bne.n	80004e2 <strcmp+0x1d2>
 80004e0:	e7e4      	b.n	80004ac <strcmp+0x19c>
 80004e2:	ba19      	rev	r1, r3
 80004e4:	ba12      	rev	r2, r2
 80004e6:	e00a      	b.n	80004fe <strcmp+0x1ee>
 80004e8:	ba19      	rev	r1, r3
 80004ea:	ba22      	rev	r2, r4
 80004ec:	e007      	b.n	80004fe <strcmp+0x1ee>
 80004ee:	ba11      	rev	r1, r2
 80004f0:	ba2a      	rev	r2, r5
 80004f2:	e004      	b.n	80004fe <strcmp+0x1ee>
 80004f4:	ba19      	rev	r1, r3
 80004f6:	ba2a      	rev	r2, r5
 80004f8:	e001      	b.n	80004fe <strcmp+0x1ee>
 80004fa:	ba11      	rev	r1, r2
 80004fc:	ba22      	rev	r2, r4
 80004fe:	fa9c f08c 	rev.w	r0, ip
 8000502:	e9dd 6700 	ldrd	r6, r7, [sp]
 8000506:	e9dd 4502 	ldrd	r4, r5, [sp, #8]
 800050a:	f11d 0d10 	adds.w	sp, sp, #16
 800050e:	b138      	cbz	r0, 8000520 <strcmp+0x210>
 8000510:	fab0 f080 	clz	r0, r0
 8000514:	f1c0 0018 	rsb	r0, r0, #24
 8000518:	fa21 f100 	lsr.w	r1, r1, r0
 800051c:	fa22 f200 	lsr.w	r2, r2, r0
 8000520:	2001      	movs	r0, #1
 8000522:	4291      	cmp	r1, r2
 8000524:	bf98      	it	ls
 8000526:	4180      	sbcls	r0, r0
 8000528:	4770      	bx	lr
 800052a:	bf00      	nop
 800052c:	0000      	movs	r0, r0
	...

08000530 <long_to_string_with_divisor.12262.constprop.3.4456>:
 8000530:	b4f0      	push	{r4, r5, r6, r7}
 8000532:	f100 070b 	add.w	r7, r0, #11
 8000536:	f100 050a 	add.w	r5, r0, #10
 800053a:	460c      	mov	r4, r1
 800053c:	fbb1 f6f2 	udiv	r6, r1, r2
 8000540:	fb02 1116 	mls	r1, r2, r6, r1
 8000544:	f101 0330 	add.w	r3, r1, #48	; 0x30
 8000548:	2b39      	cmp	r3, #57	; 0x39
 800054a:	bfc8      	it	gt
 800054c:	f101 0337 	addgt.w	r3, r1, #55	; 0x37
 8000550:	b2db      	uxtb	r3, r3
 8000552:	fbb4 f4f2 	udiv	r4, r4, r2
 8000556:	4631      	mov	r1, r6
 8000558:	462e      	mov	r6, r5
 800055a:	f805 3901 	strb.w	r3, [r5], #-1
 800055e:	2c00      	cmp	r4, #0
 8000560:	d1ec      	bne.n	800053c <long_to_string_with_divisor.12262.constprop.3.4456+0xc>
 8000562:	1bb9      	subs	r1, r7, r6
 8000564:	4632      	mov	r2, r6
 8000566:	4401      	add	r1, r0
 8000568:	e001      	b.n	800056e <long_to_string_with_divisor.12262.constprop.3.4456+0x3e>
 800056a:	f812 3f01 	ldrb.w	r3, [r2, #1]!
 800056e:	f800 3b01 	strb.w	r3, [r0], #1
 8000572:	4288      	cmp	r0, r1
 8000574:	d1f9      	bne.n	800056a <long_to_string_with_divisor.12262.constprop.3.4456+0x3a>
 8000576:	bcf0      	pop	{r4, r5, r6, r7}
 8000578:	4770      	bx	lr
 800057a:	bf00      	nop
 800057c:	f3af 8000 	nop.w

08000580 <notify1.9076>:
 8000580:	4b02      	ldr	r3, [pc, #8]	; (800058c <notify1.9076+0xc>)
 8000582:	681a      	ldr	r2, [r3, #0]
 8000584:	f042 0280 	orr.w	r2, r2, #128	; 0x80
 8000588:	601a      	str	r2, [r3, #0]
 800058a:	4770      	bx	lr
 800058c:	40013800 	.word	0x40013800

08000590 <chSchGoSleepTimeoutS.4261>:
 8000590:	b5f0      	push	{r4, r5, r6, r7, lr}
 8000592:	1c4b      	adds	r3, r1, #1
 8000594:	b087      	sub	sp, #28
 8000596:	4686      	mov	lr, r0
 8000598:	d044      	beq.n	8000624 <chSchGoSleepTimeoutS.4261+0x94>
 800059a:	4d3c      	ldr	r5, [pc, #240]	; (800068c <chSchGoSleepTimeoutS.4261+0xfc>)
 800059c:	4a3c      	ldr	r2, [pc, #240]	; (8000690 <chSchGoSleepTimeoutS.4261+0x100>)
 800059e:	69ab      	ldr	r3, [r5, #24]
 80005a0:	9305      	str	r3, [sp, #20]
 80005a2:	462e      	mov	r6, r5
 80005a4:	2901      	cmp	r1, #1
 80005a6:	f856 3f1c 	ldr.w	r3, [r6, #28]!
 80005aa:	f04f 4780 	mov.w	r7, #1073741824	; 0x40000000
 80005ae:	bf98      	it	ls
 80005b0:	2102      	movls	r1, #2
 80005b2:	42b3      	cmp	r3, r6
 80005b4:	6a78      	ldr	r0, [r7, #36]	; 0x24
 80005b6:	9204      	str	r2, [sp, #16]
 80005b8:	d054      	beq.n	8000664 <chSchGoSleepTimeoutS.4261+0xd4>
 80005ba:	6aaa      	ldr	r2, [r5, #40]	; 0x28
 80005bc:	689c      	ldr	r4, [r3, #8]
 80005be:	4401      	add	r1, r0
 80005c0:	1a8a      	subs	r2, r1, r2
 80005c2:	42a2      	cmp	r2, r4
 80005c4:	bf38      	it	cc
 80005c6:	6379      	strcc	r1, [r7, #52]	; 0x34
 80005c8:	42a2      	cmp	r2, r4
 80005ca:	d904      	bls.n	80005d6 <chSchGoSleepTimeoutS.4261+0x46>
 80005cc:	681b      	ldr	r3, [r3, #0]
 80005ce:	1b12      	subs	r2, r2, r4
 80005d0:	689c      	ldr	r4, [r3, #8]
 80005d2:	4294      	cmp	r4, r2
 80005d4:	d3fa      	bcc.n	80005cc <chSchGoSleepTimeoutS.4261+0x3c>
 80005d6:	6859      	ldr	r1, [r3, #4]
 80005d8:	9102      	str	r1, [sp, #8]
 80005da:	ac01      	add	r4, sp, #4
 80005dc:	9301      	str	r3, [sp, #4]
 80005de:	600c      	str	r4, [r1, #0]
 80005e0:	605c      	str	r4, [r3, #4]
 80005e2:	9203      	str	r2, [sp, #12]
 80005e4:	6899      	ldr	r1, [r3, #8]
 80005e6:	f04f 30ff 	mov.w	r0, #4294967295	; 0xffffffff
 80005ea:	1a8a      	subs	r2, r1, r2
 80005ec:	609a      	str	r2, [r3, #8]
 80005ee:	6268      	str	r0, [r5, #36]	; 0x24
 80005f0:	4670      	mov	r0, lr
 80005f2:	f002 faf5 	bl	8002be0 <chSchGoSleepS>
 80005f6:	9b04      	ldr	r3, [sp, #16]
 80005f8:	b183      	cbz	r3, 800061c <chSchGoSleepTimeoutS.4261+0x8c>
 80005fa:	69eb      	ldr	r3, [r5, #28]
 80005fc:	4a23      	ldr	r2, [pc, #140]	; (800068c <chSchGoSleepTimeoutS.4261+0xfc>)
 80005fe:	42a3      	cmp	r3, r4
 8000600:	d017      	beq.n	8000632 <chSchGoSleepTimeoutS.4261+0xa2>
 8000602:	9a02      	ldr	r2, [sp, #8]
 8000604:	9b01      	ldr	r3, [sp, #4]
 8000606:	6013      	str	r3, [r2, #0]
 8000608:	9b01      	ldr	r3, [sp, #4]
 800060a:	2100      	movs	r1, #0
 800060c:	42b3      	cmp	r3, r6
 800060e:	605a      	str	r2, [r3, #4]
 8000610:	9104      	str	r1, [sp, #16]
 8000612:	d003      	beq.n	800061c <chSchGoSleepTimeoutS.4261+0x8c>
 8000614:	6899      	ldr	r1, [r3, #8]
 8000616:	9a03      	ldr	r2, [sp, #12]
 8000618:	440a      	add	r2, r1
 800061a:	609a      	str	r2, [r3, #8]
 800061c:	69ab      	ldr	r3, [r5, #24]
 800061e:	6a18      	ldr	r0, [r3, #32]
 8000620:	b007      	add	sp, #28
 8000622:	bdf0      	pop	{r4, r5, r6, r7, pc}
 8000624:	4d19      	ldr	r5, [pc, #100]	; (800068c <chSchGoSleepTimeoutS.4261+0xfc>)
 8000626:	f002 fadb 	bl	8002be0 <chSchGoSleepS>
 800062a:	69ab      	ldr	r3, [r5, #24]
 800062c:	6a18      	ldr	r0, [r3, #32]
 800062e:	b007      	add	sp, #28
 8000630:	bdf0      	pop	{r4, r5, r6, r7, pc}
 8000632:	9b01      	ldr	r3, [sp, #4]
 8000634:	61d3      	str	r3, [r2, #28]
 8000636:	2100      	movs	r1, #0
 8000638:	42b3      	cmp	r3, r6
 800063a:	605e      	str	r6, [r3, #4]
 800063c:	9104      	str	r1, [sp, #16]
 800063e:	d021      	beq.n	8000684 <chSchGoSleepTimeoutS.4261+0xf4>
 8000640:	6899      	ldr	r1, [r3, #8]
 8000642:	9c03      	ldr	r4, [sp, #12]
 8000644:	6a90      	ldr	r0, [r2, #40]	; 0x28
 8000646:	1862      	adds	r2, r4, r1
 8000648:	f04f 4180 	mov.w	r1, #1073741824	; 0x40000000
 800064c:	609a      	str	r2, [r3, #8]
 800064e:	6a4b      	ldr	r3, [r1, #36]	; 0x24
 8000650:	1a18      	subs	r0, r3, r0
 8000652:	4282      	cmp	r2, r0
 8000654:	d9e2      	bls.n	800061c <chSchGoSleepTimeoutS.4261+0x8c>
 8000656:	1a12      	subs	r2, r2, r0
 8000658:	2a01      	cmp	r2, #1
 800065a:	bf98      	it	ls
 800065c:	2202      	movls	r2, #2
 800065e:	4413      	add	r3, r2
 8000660:	634b      	str	r3, [r1, #52]	; 0x34
 8000662:	e7db      	b.n	800061c <chSchGoSleepTimeoutS.4261+0x8c>
 8000664:	ac01      	add	r4, sp, #4
 8000666:	eb01 0c00 	add.w	ip, r1, r0
 800066a:	2200      	movs	r2, #0
 800066c:	2302      	movs	r3, #2
 800066e:	62a8      	str	r0, [r5, #40]	; 0x28
 8000670:	9601      	str	r6, [sp, #4]
 8000672:	9602      	str	r6, [sp, #8]
 8000674:	9103      	str	r1, [sp, #12]
 8000676:	61ec      	str	r4, [r5, #28]
 8000678:	622c      	str	r4, [r5, #32]
 800067a:	f8c7 c034 	str.w	ip, [r7, #52]	; 0x34
 800067e:	613a      	str	r2, [r7, #16]
 8000680:	60fb      	str	r3, [r7, #12]
 8000682:	e7b5      	b.n	80005f0 <chSchGoSleepTimeoutS.4261+0x60>
 8000684:	f04f 4380 	mov.w	r3, #1073741824	; 0x40000000
 8000688:	60d9      	str	r1, [r3, #12]
 800068a:	e7c7      	b.n	800061c <chSchGoSleepTimeoutS.4261+0x8c>
 800068c:	20000838 	.word	0x20000838
 8000690:	080025f1 	.word	0x080025f1
 8000694:	f3af 8000 	nop.w
 8000698:	f3af 8000 	nop.w
 800069c:	f3af 8000 	nop.w

080006a0 <chThdEnqueueTimeoutS.4257>:
 80006a0:	b410      	push	{r4}
 80006a2:	4602      	mov	r2, r0
 80006a4:	b159      	cbz	r1, 80006be <chThdEnqueueTimeoutS.4257+0x1e>
 80006a6:	4b08      	ldr	r3, [pc, #32]	; (80006c8 <chThdEnqueueTimeoutS.4257+0x28>)
 80006a8:	6844      	ldr	r4, [r0, #4]
 80006aa:	699b      	ldr	r3, [r3, #24]
 80006ac:	2004      	movs	r0, #4
 80006ae:	e883 0014 	stmia.w	r3, {r2, r4}
 80006b2:	6023      	str	r3, [r4, #0]
 80006b4:	6053      	str	r3, [r2, #4]
 80006b6:	f85d 4b04 	ldr.w	r4, [sp], #4
 80006ba:	f7ff bf69 	b.w	8000590 <chSchGoSleepTimeoutS.4261>
 80006be:	f04f 30ff 	mov.w	r0, #4294967295	; 0xffffffff
 80006c2:	f85d 4b04 	ldr.w	r4, [sp], #4
 80006c6:	4770      	bx	lr
 80006c8:	20000838 	.word	0x20000838
 80006cc:	f3af 8000 	nop.w

080006d0 <chIQGetTimeout.4182>:
 80006d0:	b570      	push	{r4, r5, r6, lr}
 80006d2:	2320      	movs	r3, #32
 80006d4:	460e      	mov	r6, r1
 80006d6:	4604      	mov	r4, r0
 80006d8:	f383 8811 	msr	BASEPRI, r3
 80006dc:	69c3      	ldr	r3, [r0, #28]
 80006de:	b12b      	cbz	r3, 80006ec <chIQGetTimeout.4182+0x1c>
 80006e0:	4798      	blx	r3
 80006e2:	e003      	b.n	80006ec <chIQGetTimeout.4182+0x1c>
 80006e4:	f7ff ffdc 	bl	80006a0 <chThdEnqueueTimeoutS.4257>
 80006e8:	2800      	cmp	r0, #0
 80006ea:	db16      	blt.n	800071a <chIQGetTimeout.4182+0x4a>
 80006ec:	68a5      	ldr	r5, [r4, #8]
 80006ee:	4620      	mov	r0, r4
 80006f0:	4631      	mov	r1, r6
 80006f2:	2d00      	cmp	r5, #0
 80006f4:	d0f6      	beq.n	80006e4 <chIQGetTimeout.4182+0x14>
 80006f6:	69a2      	ldr	r2, [r4, #24]
 80006f8:	68a0      	ldr	r0, [r4, #8]
 80006fa:	6921      	ldr	r1, [r4, #16]
 80006fc:	1c53      	adds	r3, r2, #1
 80006fe:	428b      	cmp	r3, r1
 8000700:	f100 30ff 	add.w	r0, r0, #4294967295	; 0xffffffff
 8000704:	61a3      	str	r3, [r4, #24]
 8000706:	60a0      	str	r0, [r4, #8]
 8000708:	bf28      	it	cs
 800070a:	68e3      	ldrcs	r3, [r4, #12]
 800070c:	7810      	ldrb	r0, [r2, #0]
 800070e:	bf28      	it	cs
 8000710:	61a3      	strcs	r3, [r4, #24]
 8000712:	2300      	movs	r3, #0
 8000714:	f383 8811 	msr	BASEPRI, r3
 8000718:	bd70      	pop	{r4, r5, r6, pc}
 800071a:	f385 8811 	msr	BASEPRI, r5
 800071e:	bd70      	pop	{r4, r5, r6, pc}

08000720 <gett.7800>:
 8000720:	300c      	adds	r0, #12
 8000722:	f7ff bfd5 	b.w	80006d0 <chIQGetTimeout.4182>
 8000726:	bf00      	nop
 8000728:	f3af 8000 	nop.w
 800072c:	f3af 8000 	nop.w

08000730 <get.7804>:
 8000730:	300c      	adds	r0, #12
 8000732:	f04f 31ff 	mov.w	r1, #4294967295	; 0xffffffff
 8000736:	f7ff bfcb 	b.w	80006d0 <chIQGetTimeout.4182>
 800073a:	bf00      	nop
 800073c:	f3af 8000 	nop.w

08000740 <chIQReadTimeout.4214>:
 8000740:	e92d 4ff8 	stmdb	sp!, {r3, r4, r5, r6, r7, r8, r9, sl, fp, lr}
 8000744:	4604      	mov	r4, r0
 8000746:	461d      	mov	r5, r3
 8000748:	f8d0 801c 	ldr.w	r8, [r0, #28]
 800074c:	f04f 0b20 	mov.w	fp, #32
 8000750:	f38b 8811 	msr	BASEPRI, fp
 8000754:	2600      	movs	r6, #0
 8000756:	eb01 0a02 	add.w	sl, r1, r2
 800075a:	f101 0901 	add.w	r9, r1, #1
 800075e:	f1b8 0f00 	cmp.w	r8, #0
 8000762:	d005      	beq.n	8000770 <chIQReadTimeout.4214+0x30>
 8000764:	4620      	mov	r0, r4
 8000766:	47c0      	blx	r8
 8000768:	e002      	b.n	8000770 <chIQReadTimeout.4214+0x30>
 800076a:	f7ff ff99 	bl	80006a0 <chThdEnqueueTimeoutS.4257>
 800076e:	b9f8      	cbnz	r0, 80007b0 <chIQReadTimeout.4214+0x70>
 8000770:	68a7      	ldr	r7, [r4, #8]
 8000772:	4620      	mov	r0, r4
 8000774:	4629      	mov	r1, r5
 8000776:	2f00      	cmp	r7, #0
 8000778:	d0f7      	beq.n	800076a <chIQReadTimeout.4214+0x2a>
 800077a:	69a3      	ldr	r3, [r4, #24]
 800077c:	68a1      	ldr	r1, [r4, #8]
 800077e:	1c5a      	adds	r2, r3, #1
 8000780:	3901      	subs	r1, #1
 8000782:	61a2      	str	r2, [r4, #24]
 8000784:	60a1      	str	r1, [r4, #8]
 8000786:	781b      	ldrb	r3, [r3, #0]
 8000788:	f809 3c01 	strb.w	r3, [r9, #-1]
 800078c:	6923      	ldr	r3, [r4, #16]
 800078e:	69a2      	ldr	r2, [r4, #24]
 8000790:	429a      	cmp	r2, r3
 8000792:	bf24      	itt	cs
 8000794:	68e3      	ldrcs	r3, [r4, #12]
 8000796:	61a3      	strcs	r3, [r4, #24]
 8000798:	2300      	movs	r3, #0
 800079a:	f383 8811 	msr	BASEPRI, r3
 800079e:	45d1      	cmp	r9, sl
 80007a0:	f106 0601 	add.w	r6, r6, #1
 80007a4:	d006      	beq.n	80007b4 <chIQReadTimeout.4214+0x74>
 80007a6:	f38b 8811 	msr	BASEPRI, fp
 80007aa:	f109 0901 	add.w	r9, r9, #1
 80007ae:	e7d6      	b.n	800075e <chIQReadTimeout.4214+0x1e>
 80007b0:	f387 8811 	msr	BASEPRI, r7
 80007b4:	4630      	mov	r0, r6
 80007b6:	e8bd 8ff8 	ldmia.w	sp!, {r3, r4, r5, r6, r7, r8, r9, sl, fp, pc}
 80007ba:	bf00      	nop
 80007bc:	f3af 8000 	nop.w

080007c0 <readt.7777>:
 80007c0:	300c      	adds	r0, #12
 80007c2:	f7ff bfbd 	b.w	8000740 <chIQReadTimeout.4214>
 80007c6:	bf00      	nop
 80007c8:	f3af 8000 	nop.w
 80007cc:	f3af 8000 	nop.w

080007d0 <read.7784>:
 80007d0:	300c      	adds	r0, #12
 80007d2:	f04f 33ff 	mov.w	r3, #4294967295	; 0xffffffff
 80007d6:	f7ff bfb3 	b.w	8000740 <chIQReadTimeout.4214>
 80007da:	bf00      	nop
 80007dc:	f3af 8000 	nop.w

080007e0 <chOQPutTimeout.4229>:
 80007e0:	b5f8      	push	{r3, r4, r5, r6, r7, lr}
 80007e2:	4604      	mov	r4, r0
 80007e4:	460f      	mov	r7, r1
 80007e6:	4616      	mov	r6, r2
 80007e8:	2320      	movs	r3, #32
 80007ea:	f383 8811 	msr	BASEPRI, r3
 80007ee:	e003      	b.n	80007f8 <chOQPutTimeout.4229+0x18>
 80007f0:	f7ff ff56 	bl	80006a0 <chThdEnqueueTimeoutS.4257>
 80007f4:	2800      	cmp	r0, #0
 80007f6:	db19      	blt.n	800082c <chOQPutTimeout.4229+0x4c>
 80007f8:	68a5      	ldr	r5, [r4, #8]
 80007fa:	4620      	mov	r0, r4
 80007fc:	4631      	mov	r1, r6
 80007fe:	2d00      	cmp	r5, #0
 8000800:	d0f6      	beq.n	80007f0 <chOQPutTimeout.4229+0x10>
 8000802:	6963      	ldr	r3, [r4, #20]
 8000804:	68a1      	ldr	r1, [r4, #8]
 8000806:	1c5a      	adds	r2, r3, #1
 8000808:	3901      	subs	r1, #1
 800080a:	6162      	str	r2, [r4, #20]
 800080c:	60a1      	str	r1, [r4, #8]
 800080e:	701f      	strb	r7, [r3, #0]
 8000810:	6923      	ldr	r3, [r4, #16]
 8000812:	6962      	ldr	r2, [r4, #20]
 8000814:	429a      	cmp	r2, r3
 8000816:	bf24      	itt	cs
 8000818:	68e3      	ldrcs	r3, [r4, #12]
 800081a:	6163      	strcs	r3, [r4, #20]
 800081c:	69e3      	ldr	r3, [r4, #28]
 800081e:	b10b      	cbz	r3, 8000824 <chOQPutTimeout.4229+0x44>
 8000820:	4620      	mov	r0, r4
 8000822:	4798      	blx	r3
 8000824:	2000      	movs	r0, #0
 8000826:	f380 8811 	msr	BASEPRI, r0
 800082a:	bdf8      	pop	{r3, r4, r5, r6, r7, pc}
 800082c:	f385 8811 	msr	BASEPRI, r5
 8000830:	bdf8      	pop	{r3, r4, r5, r6, r7, pc}
 8000832:	bf00      	nop
 8000834:	f3af 8000 	nop.w
 8000838:	f3af 8000 	nop.w
 800083c:	f3af 8000 	nop.w

08000840 <putt.7807>:
 8000840:	3030      	adds	r0, #48	; 0x30
 8000842:	f7ff bfcd 	b.w	80007e0 <chOQPutTimeout.4229>
 8000846:	bf00      	nop
 8000848:	f3af 8000 	nop.w
 800084c:	f3af 8000 	nop.w

08000850 <put.7812>:
 8000850:	3030      	adds	r0, #48	; 0x30
 8000852:	f04f 32ff 	mov.w	r2, #4294967295	; 0xffffffff
 8000856:	f7ff bfc3 	b.w	80007e0 <chOQPutTimeout.4229>
 800085a:	bf00      	nop
 800085c:	f3af 8000 	nop.w

08000860 <chOQWriteTimeout.4251>:
 8000860:	e92d 4ff0 	stmdb	sp!, {r4, r5, r6, r7, r8, r9, sl, fp, lr}
 8000864:	b083      	sub	sp, #12
 8000866:	4604      	mov	r4, r0
 8000868:	460d      	mov	r5, r1
 800086a:	4616      	mov	r6, r2
 800086c:	9301      	str	r3, [sp, #4]
 800086e:	f8d0 801c 	ldr.w	r8, [r0, #28]
 8000872:	f04f 0a20 	mov.w	sl, #32
 8000876:	f38a 8811 	msr	BASEPRI, sl
 800087a:	2700      	movs	r7, #0
 800087c:	46b9      	mov	r9, r7
 800087e:	68a3      	ldr	r3, [r4, #8]
 8000880:	f105 0b01 	add.w	fp, r5, #1
 8000884:	4620      	mov	r0, r4
 8000886:	b303      	cbz	r3, 80008ca <chOQWriteTimeout.4251+0x6a>
 8000888:	6963      	ldr	r3, [r4, #20]
 800088a:	68a1      	ldr	r1, [r4, #8]
 800088c:	1e4a      	subs	r2, r1, #1
 800088e:	1c59      	adds	r1, r3, #1
 8000890:	6161      	str	r1, [r4, #20]
 8000892:	60a2      	str	r2, [r4, #8]
 8000894:	7829      	ldrb	r1, [r5, #0]
 8000896:	7019      	strb	r1, [r3, #0]
 8000898:	6923      	ldr	r3, [r4, #16]
 800089a:	6961      	ldr	r1, [r4, #20]
 800089c:	4299      	cmp	r1, r3
 800089e:	bf24      	itt	cs
 80008a0:	68e3      	ldrcs	r3, [r4, #12]
 80008a2:	6163      	strcs	r3, [r4, #20]
 80008a4:	f1b8 0f00 	cmp.w	r8, #0
 80008a8:	d000      	beq.n	80008ac <chOQWriteTimeout.4251+0x4c>
 80008aa:	47c0      	blx	r8
 80008ac:	f389 8811 	msr	BASEPRI, r9
 80008b0:	3e01      	subs	r6, #1
 80008b2:	f107 0701 	add.w	r7, r7, #1
 80008b6:	d012      	beq.n	80008de <chOQWriteTimeout.4251+0x7e>
 80008b8:	f38a 8811 	msr	BASEPRI, sl
 80008bc:	68a3      	ldr	r3, [r4, #8]
 80008be:	465d      	mov	r5, fp
 80008c0:	f105 0b01 	add.w	fp, r5, #1
 80008c4:	4620      	mov	r0, r4
 80008c6:	2b00      	cmp	r3, #0
 80008c8:	d1de      	bne.n	8000888 <chOQWriteTimeout.4251+0x28>
 80008ca:	4620      	mov	r0, r4
 80008cc:	9901      	ldr	r1, [sp, #4]
 80008ce:	9300      	str	r3, [sp, #0]
 80008d0:	f7ff fee6 	bl	80006a0 <chThdEnqueueTimeoutS.4257>
 80008d4:	9b00      	ldr	r3, [sp, #0]
 80008d6:	2800      	cmp	r0, #0
 80008d8:	d0d1      	beq.n	800087e <chOQWriteTimeout.4251+0x1e>
 80008da:	f383 8811 	msr	BASEPRI, r3
 80008de:	4638      	mov	r0, r7
 80008e0:	b003      	add	sp, #12
 80008e2:	e8bd 8ff0 	ldmia.w	sp!, {r4, r5, r6, r7, r8, r9, sl, fp, pc}
 80008e6:	bf00      	nop
 80008e8:	f3af 8000 	nop.w
 80008ec:	f3af 8000 	nop.w

080008f0 <writet.7789>:
 80008f0:	3030      	adds	r0, #48	; 0x30
 80008f2:	f7ff bfb5 	b.w	8000860 <chOQWriteTimeout.4251>
 80008f6:	bf00      	nop
 80008f8:	f3af 8000 	nop.w
 80008fc:	f3af 8000 	nop.w

08000900 <write.7795>:
 8000900:	3030      	adds	r0, #48	; 0x30
 8000902:	f04f 33ff 	mov.w	r3, #4294967295	; 0xffffffff
 8000906:	f7ff bfab 	b.w	8000860 <chOQWriteTimeout.4251>
 800090a:	bf00      	nop
 800090c:	f3af 8000 	nop.w

08000910 <spi_lld_serve_rx_interrupt.8831>:
 8000910:	070b      	lsls	r3, r1, #28
 8000912:	e92d 41f0 	stmdb	sp!, {r4, r5, r6, r7, r8, lr}
 8000916:	4604      	mov	r4, r0
 8000918:	d435      	bmi.n	8000986 <spi_lld_serve_rx_interrupt.8831+0x76>
 800091a:	6a42      	ldr	r2, [r0, #36]	; 0x24
 800091c:	6a03      	ldr	r3, [r0, #32]
 800091e:	6856      	ldr	r6, [r2, #4]
 8000920:	6841      	ldr	r1, [r0, #4]
 8000922:	f8d6 8000 	ldr.w	r8, [r6]
 8000926:	685d      	ldr	r5, [r3, #4]
 8000928:	f8d2 c000 	ldr.w	ip, [r2]
 800092c:	681f      	ldr	r7, [r3, #0]
 800092e:	6809      	ldr	r1, [r1, #0]
 8000930:	f028 080f 	bic.w	r8, r8, #15
 8000934:	f8c6 8000 	str.w	r8, [r6]
 8000938:	7c16      	ldrb	r6, [r2, #16]
 800093a:	220f      	movs	r2, #15
 800093c:	fa02 f606 	lsl.w	r6, r2, r6
 8000940:	f8cc 6004 	str.w	r6, [ip, #4]
 8000944:	682e      	ldr	r6, [r5, #0]
 8000946:	f026 060f 	bic.w	r6, r6, #15
 800094a:	602e      	str	r6, [r5, #0]
 800094c:	7c1b      	ldrb	r3, [r3, #16]
 800094e:	409a      	lsls	r2, r3
 8000950:	607a      	str	r2, [r7, #4]
 8000952:	b1a9      	cbz	r1, 8000980 <spi_lld_serve_rx_interrupt.8831+0x70>
 8000954:	2304      	movs	r3, #4
 8000956:	7003      	strb	r3, [r0, #0]
 8000958:	4788      	blx	r1
 800095a:	7823      	ldrb	r3, [r4, #0]
 800095c:	2b04      	cmp	r3, #4
 800095e:	d00f      	beq.n	8000980 <spi_lld_serve_rx_interrupt.8831+0x70>
 8000960:	2320      	movs	r3, #32
 8000962:	f383 8811 	msr	BASEPRI, r3
 8000966:	68a3      	ldr	r3, [r4, #8]
 8000968:	b12b      	cbz	r3, 8000976 <spi_lld_serve_rx_interrupt.8831+0x66>
 800096a:	2200      	movs	r2, #0
 800096c:	60a2      	str	r2, [r4, #8]
 800096e:	4618      	mov	r0, r3
 8000970:	621a      	str	r2, [r3, #32]
 8000972:	f002 f95d 	bl	8002c30 <chSchReadyI>
 8000976:	2300      	movs	r3, #0
 8000978:	f383 8811 	msr	BASEPRI, r3
 800097c:	e8bd 81f0 	ldmia.w	sp!, {r4, r5, r6, r7, r8, pc}
 8000980:	2302      	movs	r3, #2
 8000982:	7023      	strb	r3, [r4, #0]
 8000984:	e7ec      	b.n	8000960 <spi_lld_serve_rx_interrupt.8831+0x50>
 8000986:	b672      	cpsid	i
 8000988:	4b01      	ldr	r3, [pc, #4]	; (8000990 <spi_lld_serve_rx_interrupt.8831+0x80>)
 800098a:	4a02      	ldr	r2, [pc, #8]	; (8000994 <spi_lld_serve_rx_interrupt.8831+0x84>)
 800098c:	62da      	str	r2, [r3, #44]	; 0x2c
 800098e:	e7fe      	b.n	800098e <spi_lld_serve_rx_interrupt.8831+0x7e>
 8000990:	20000838 	.word	0x20000838
 8000994:	08002ef0 	.word	0x08002ef0
 8000998:	f3af 8000 	nop.w
 800099c:	f3af 8000 	nop.w

080009a0 <Vector148>:
 80009a0:	b508      	push	{r3, lr}
 80009a2:	4b09      	ldr	r3, [pc, #36]	; (80009c8 <Vector148+0x28>)
 80009a4:	6b59      	ldr	r1, [r3, #52]	; 0x34
 80009a6:	681a      	ldr	r2, [r3, #0]
 80009a8:	400a      	ands	r2, r1
 80009aa:	f002 0202 	and.w	r2, r2, #2
 80009ae:	635a      	str	r2, [r3, #52]	; 0x34
 80009b0:	b12a      	cbz	r2, 80009be <Vector148+0x1e>
 80009b2:	4806      	ldr	r0, [pc, #24]	; (80009cc <Vector148+0x2c>)
 80009b4:	6843      	ldr	r3, [r0, #4]
 80009b6:	2121      	movs	r1, #33	; 0x21
 80009b8:	f8d3 310c 	ldr.w	r3, [r3, #268]	; 0x10c
 80009bc:	4798      	blx	r3
 80009be:	e8bd 4008 	ldmia.w	sp!, {r3, lr}
 80009c2:	f001 be55 	b.w	8002670 <_port_irq_epilogue>
 80009c6:	bf00      	nop
 80009c8:	40010400 	.word	0x40010400
 80009cc:	20000ad8 	.word	0x20000ad8

080009d0 <Vector144>:
 80009d0:	4b16      	ldr	r3, [pc, #88]	; (8000a2c <Vector144+0x5c>)
 80009d2:	695a      	ldr	r2, [r3, #20]
 80009d4:	6819      	ldr	r1, [r3, #0]
 80009d6:	400a      	ands	r2, r1
 80009d8:	b510      	push	{r4, lr}
 80009da:	f002 4440 	and.w	r4, r2, #3221225472	; 0xc0000000
 80009de:	615c      	str	r4, [r3, #20]
 80009e0:	0053      	lsls	r3, r2, #1
 80009e2:	d413      	bmi.n	8000a0c <Vector144+0x3c>
 80009e4:	2c00      	cmp	r4, #0
 80009e6:	db19      	blt.n	8000a1c <Vector144+0x4c>
 80009e8:	4b10      	ldr	r3, [pc, #64]	; (8000a2c <Vector144+0x5c>)
 80009ea:	6b59      	ldr	r1, [r3, #52]	; 0x34
 80009ec:	6a1a      	ldr	r2, [r3, #32]
 80009ee:	400a      	ands	r2, r1
 80009f0:	f002 0201 	and.w	r2, r2, #1
 80009f4:	635a      	str	r2, [r3, #52]	; 0x34
 80009f6:	b12a      	cbz	r2, 8000a04 <Vector144+0x34>
 80009f8:	480d      	ldr	r0, [pc, #52]	; (8000a30 <Vector144+0x60>)
 80009fa:	6843      	ldr	r3, [r0, #4]
 80009fc:	2120      	movs	r1, #32
 80009fe:	f8d3 3104 	ldr.w	r3, [r3, #260]	; 0x104
 8000a02:	4798      	blx	r3
 8000a04:	e8bd 4010 	ldmia.w	sp!, {r4, lr}
 8000a08:	f001 be32 	b.w	8002670 <_port_irq_epilogue>
 8000a0c:	4808      	ldr	r0, [pc, #32]	; (8000a30 <Vector144+0x60>)
 8000a0e:	6843      	ldr	r3, [r0, #4]
 8000a10:	211e      	movs	r1, #30
 8000a12:	f8d3 30f4 	ldr.w	r3, [r3, #244]	; 0xf4
 8000a16:	4798      	blx	r3
 8000a18:	2c00      	cmp	r4, #0
 8000a1a:	dae5      	bge.n	80009e8 <Vector144+0x18>
 8000a1c:	4804      	ldr	r0, [pc, #16]	; (8000a30 <Vector144+0x60>)
 8000a1e:	6843      	ldr	r3, [r0, #4]
 8000a20:	211f      	movs	r1, #31
 8000a22:	f8d3 30fc 	ldr.w	r3, [r3, #252]	; 0xfc
 8000a26:	4798      	blx	r3
 8000a28:	e7de      	b.n	80009e8 <Vector144+0x18>
 8000a2a:	bf00      	nop
 8000a2c:	40010400 	.word	0x40010400
 8000a30:	20000ad8 	.word	0x20000ad8
 8000a34:	f3af 8000 	nop.w
 8000a38:	f3af 8000 	nop.w
 8000a3c:	f3af 8000 	nop.w

08000a40 <Vector140>:
 8000a40:	4b12      	ldr	r3, [pc, #72]	; (8000a8c <Vector140+0x4c>)
 8000a42:	4a13      	ldr	r2, [pc, #76]	; (8000a90 <Vector140+0x50>)
 8000a44:	6959      	ldr	r1, [r3, #20]
 8000a46:	b510      	push	{r4, lr}
 8000a48:	681c      	ldr	r4, [r3, #0]
 8000a4a:	400c      	ands	r4, r1
 8000a4c:	4022      	ands	r2, r4
 8000a4e:	02a1      	lsls	r1, r4, #10
 8000a50:	615a      	str	r2, [r3, #20]
 8000a52:	d414      	bmi.n	8000a7e <Vector140+0x3e>
 8000a54:	0262      	lsls	r2, r4, #9
 8000a56:	d40b      	bmi.n	8000a70 <Vector140+0x30>
 8000a58:	00a3      	lsls	r3, r4, #2
 8000a5a:	d505      	bpl.n	8000a68 <Vector140+0x28>
 8000a5c:	480d      	ldr	r0, [pc, #52]	; (8000a94 <Vector140+0x54>)
 8000a5e:	6843      	ldr	r3, [r0, #4]
 8000a60:	211d      	movs	r1, #29
 8000a62:	f8d3 30ec 	ldr.w	r3, [r3, #236]	; 0xec
 8000a66:	4798      	blx	r3
 8000a68:	e8bd 4010 	ldmia.w	sp!, {r4, lr}
 8000a6c:	f001 be00 	b.w	8002670 <_port_irq_epilogue>
 8000a70:	4808      	ldr	r0, [pc, #32]	; (8000a94 <Vector140+0x54>)
 8000a72:	6843      	ldr	r3, [r0, #4]
 8000a74:	2116      	movs	r1, #22
 8000a76:	f8d3 30b4 	ldr.w	r3, [r3, #180]	; 0xb4
 8000a7a:	4798      	blx	r3
 8000a7c:	e7ec      	b.n	8000a58 <Vector140+0x18>
 8000a7e:	4805      	ldr	r0, [pc, #20]	; (8000a94 <Vector140+0x54>)
 8000a80:	6843      	ldr	r3, [r0, #4]
 8000a82:	2115      	movs	r1, #21
 8000a84:	f8d3 30ac 	ldr.w	r3, [r3, #172]	; 0xac
 8000a88:	4798      	blx	r3
 8000a8a:	e7e3      	b.n	8000a54 <Vector140+0x14>
 8000a8c:	40010400 	.word	0x40010400
 8000a90:	20600000 	.word	0x20600000
 8000a94:	20000ad8 	.word	0x20000ad8
 8000a98:	f3af 8000 	nop.w
 8000a9c:	f3af 8000 	nop.w

08000aa0 <Vector4C>:
 8000aa0:	b508      	push	{r3, lr}
 8000aa2:	4b09      	ldr	r3, [pc, #36]	; (8000ac8 <Vector4C+0x28>)
 8000aa4:	6959      	ldr	r1, [r3, #20]
 8000aa6:	681a      	ldr	r2, [r3, #0]
 8000aa8:	400a      	ands	r2, r1
 8000aaa:	f402 1280 	and.w	r2, r2, #1048576	; 0x100000
 8000aae:	615a      	str	r2, [r3, #20]
 8000ab0:	b12a      	cbz	r2, 8000abe <Vector4C+0x1e>
 8000ab2:	4806      	ldr	r0, [pc, #24]	; (8000acc <Vector4C+0x2c>)
 8000ab4:	6843      	ldr	r3, [r0, #4]
 8000ab6:	2114      	movs	r1, #20
 8000ab8:	f8d3 30a4 	ldr.w	r3, [r3, #164]	; 0xa4
 8000abc:	4798      	blx	r3
 8000abe:	e8bd 4008 	ldmia.w	sp!, {r3, lr}
 8000ac2:	f001 bdd5 	b.w	8002670 <_port_irq_epilogue>
 8000ac6:	bf00      	nop
 8000ac8:	40010400 	.word	0x40010400
 8000acc:	20000ad8 	.word	0x20000ad8

08000ad0 <Vector48>:
 8000ad0:	b508      	push	{r3, lr}
 8000ad2:	4b09      	ldr	r3, [pc, #36]	; (8000af8 <Vector48+0x28>)
 8000ad4:	6959      	ldr	r1, [r3, #20]
 8000ad6:	681a      	ldr	r2, [r3, #0]
 8000ad8:	400a      	ands	r2, r1
 8000ada:	f402 2200 	and.w	r2, r2, #524288	; 0x80000
 8000ade:	615a      	str	r2, [r3, #20]
 8000ae0:	b12a      	cbz	r2, 8000aee <Vector48+0x1e>
 8000ae2:	4806      	ldr	r0, [pc, #24]	; (8000afc <Vector48+0x2c>)
 8000ae4:	6843      	ldr	r3, [r0, #4]
 8000ae6:	2113      	movs	r1, #19
 8000ae8:	f8d3 309c 	ldr.w	r3, [r3, #156]	; 0x9c
 8000aec:	4798      	blx	r3
 8000aee:	e8bd 4008 	ldmia.w	sp!, {r3, lr}
 8000af2:	f001 bdbd 	b.w	8002670 <_port_irq_epilogue>
 8000af6:	bf00      	nop
 8000af8:	40010400 	.word	0x40010400
 8000afc:	20000ad8 	.word	0x20000ad8

08000b00 <VectorE8>:
 8000b00:	b508      	push	{r3, lr}
 8000b02:	4b09      	ldr	r3, [pc, #36]	; (8000b28 <VectorE8+0x28>)
 8000b04:	6959      	ldr	r1, [r3, #20]
 8000b06:	681a      	ldr	r2, [r3, #0]
 8000b08:	400a      	ands	r2, r1
 8000b0a:	f402 2280 	and.w	r2, r2, #262144	; 0x40000
 8000b0e:	615a      	str	r2, [r3, #20]
 8000b10:	b12a      	cbz	r2, 8000b1e <VectorE8+0x1e>
 8000b12:	4806      	ldr	r0, [pc, #24]	; (8000b2c <VectorE8+0x2c>)
 8000b14:	6843      	ldr	r3, [r0, #4]
 8000b16:	2112      	movs	r1, #18
 8000b18:	f8d3 3094 	ldr.w	r3, [r3, #148]	; 0x94
 8000b1c:	4798      	blx	r3
 8000b1e:	e8bd 4008 	ldmia.w	sp!, {r3, lr}
 8000b22:	f001 bda5 	b.w	8002670 <_port_irq_epilogue>
 8000b26:	bf00      	nop
 8000b28:	40010400 	.word	0x40010400
 8000b2c:	20000ad8 	.word	0x20000ad8

08000b30 <chThdSleep>:
 8000b30:	b508      	push	{r3, lr}
 8000b32:	4601      	mov	r1, r0
 8000b34:	2320      	movs	r3, #32
 8000b36:	f383 8811 	msr	BASEPRI, r3
 8000b3a:	2008      	movs	r0, #8
 8000b3c:	f7ff fd28 	bl	8000590 <chSchGoSleepTimeoutS.4261>
 8000b40:	2300      	movs	r3, #0
 8000b42:	f383 8811 	msr	BASEPRI, r3
 8000b46:	bd08      	pop	{r3, pc}
 8000b48:	f3af 8000 	nop.w
 8000b4c:	f3af 8000 	nop.w

08000b50 <chSchWakeupS.constprop.38>:
 8000b50:	f8df c058 	ldr.w	ip, [pc, #88]	; 8000bac <chSchWakeupS.constprop.38+0x5c>
 8000b54:	b4f0      	push	{r4, r5, r6, r7}
 8000b56:	f8dc 7018 	ldr.w	r7, [ip, #24]
 8000b5a:	6885      	ldr	r5, [r0, #8]
 8000b5c:	68bc      	ldr	r4, [r7, #8]
 8000b5e:	2300      	movs	r3, #0
 8000b60:	42a5      	cmp	r5, r4
 8000b62:	4606      	mov	r6, r0
 8000b64:	6203      	str	r3, [r0, #32]
 8000b66:	d80c      	bhi.n	8000b82 <chSchWakeupS.constprop.38+0x32>
 8000b68:	7703      	strb	r3, [r0, #28]
 8000b6a:	4663      	mov	r3, ip
 8000b6c:	681b      	ldr	r3, [r3, #0]
 8000b6e:	689a      	ldr	r2, [r3, #8]
 8000b70:	4295      	cmp	r5, r2
 8000b72:	d9fb      	bls.n	8000b6c <chSchWakeupS.constprop.38+0x1c>
 8000b74:	685a      	ldr	r2, [r3, #4]
 8000b76:	6072      	str	r2, [r6, #4]
 8000b78:	6033      	str	r3, [r6, #0]
 8000b7a:	6016      	str	r6, [r2, #0]
 8000b7c:	605e      	str	r6, [r3, #4]
 8000b7e:	bcf0      	pop	{r4, r5, r6, r7}
 8000b80:	4770      	bx	lr
 8000b82:	773b      	strb	r3, [r7, #28]
 8000b84:	4663      	mov	r3, ip
 8000b86:	681b      	ldr	r3, [r3, #0]
 8000b88:	689a      	ldr	r2, [r3, #8]
 8000b8a:	4294      	cmp	r4, r2
 8000b8c:	d9fb      	bls.n	8000b86 <chSchWakeupS.constprop.38+0x36>
 8000b8e:	685a      	ldr	r2, [r3, #4]
 8000b90:	607a      	str	r2, [r7, #4]
 8000b92:	2401      	movs	r4, #1
 8000b94:	603b      	str	r3, [r7, #0]
 8000b96:	6017      	str	r7, [r2, #0]
 8000b98:	605f      	str	r7, [r3, #4]
 8000b9a:	7734      	strb	r4, [r6, #28]
 8000b9c:	4639      	mov	r1, r7
 8000b9e:	4630      	mov	r0, r6
 8000ba0:	f8cc 6018 	str.w	r6, [ip, #24]
 8000ba4:	bcf0      	pop	{r4, r5, r6, r7}
 8000ba6:	f7ff bb9b 	b.w	80002e0 <_port_switch>
 8000baa:	bf00      	nop
 8000bac:	20000838 	.word	0x20000838

08000bb0 <chTMStartMeasurementX.constprop.35>:
 8000bb0:	4b01      	ldr	r3, [pc, #4]	; (8000bb8 <chTMStartMeasurementX.constprop.35+0x8>)
 8000bb2:	685b      	ldr	r3, [r3, #4]
 8000bb4:	6083      	str	r3, [r0, #8]
 8000bb6:	4770      	bx	lr
 8000bb8:	e0001000 	.word	0xe0001000
 8000bbc:	f3af 8000 	nop.w

08000bc0 <dmaStreamAllocate.constprop.18>:
 8000bc0:	b4f0      	push	{r4, r5, r6, r7}
 8000bc2:	4d29      	ldr	r5, [pc, #164]	; (8000c68 <dmaStreamAllocate.constprop.18+0xa8>)
 8000bc4:	7c44      	ldrb	r4, [r0, #17]
 8000bc6:	682b      	ldr	r3, [r5, #0]
 8000bc8:	2601      	movs	r6, #1
 8000bca:	fa06 f704 	lsl.w	r7, r6, r4
 8000bce:	421f      	tst	r7, r3
 8000bd0:	d147      	bne.n	8000c62 <dmaStreamAllocate.constprop.18+0xa2>
 8000bd2:	4e26      	ldr	r6, [pc, #152]	; (8000c6c <dmaStreamAllocate.constprop.18+0xac>)
 8000bd4:	eb06 07c4 	add.w	r7, r6, r4, lsl #3
 8000bd8:	f846 1034 	str.w	r1, [r6, r4, lsl #3]
 8000bdc:	607a      	str	r2, [r7, #4]
 8000bde:	065a      	lsls	r2, r3, #25
 8000be0:	d104      	bne.n	8000bec <dmaStreamAllocate.constprop.18+0x2c>
 8000be2:	4a23      	ldr	r2, [pc, #140]	; (8000c70 <dmaStreamAllocate.constprop.18+0xb0>)
 8000be4:	6954      	ldr	r4, [r2, #20]
 8000be6:	f044 0401 	orr.w	r4, r4, #1
 8000bea:	6154      	str	r4, [r2, #20]
 8000bec:	f413 6f78 	tst.w	r3, #3968	; 0xf80
 8000bf0:	d104      	bne.n	8000bfc <dmaStreamAllocate.constprop.18+0x3c>
 8000bf2:	4a1f      	ldr	r2, [pc, #124]	; (8000c70 <dmaStreamAllocate.constprop.18+0xb0>)
 8000bf4:	6954      	ldr	r4, [r2, #20]
 8000bf6:	f044 0402 	orr.w	r4, r4, #2
 8000bfa:	6154      	str	r4, [r2, #20]
 8000bfc:	6842      	ldr	r2, [r0, #4]
 8000bfe:	6884      	ldr	r4, [r0, #8]
 8000c00:	6816      	ldr	r6, [r2, #0]
 8000c02:	6807      	ldr	r7, [r0, #0]
 8000c04:	f026 060f 	bic.w	r6, r6, #15
 8000c08:	6016      	str	r6, [r2, #0]
 8000c0a:	7c06      	ldrb	r6, [r0, #16]
 8000c0c:	f04f 0c0f 	mov.w	ip, #15
 8000c10:	fa0c fc06 	lsl.w	ip, ip, r6
 8000c14:	4223      	tst	r3, r4
 8000c16:	f04f 0600 	mov.w	r6, #0
 8000c1a:	f8c7 c004 	str.w	ip, [r7, #4]
 8000c1e:	6016      	str	r6, [r2, #0]
 8000c20:	d116      	bne.n	8000c50 <dmaStreamAllocate.constprop.18+0x90>
 8000c22:	b1a9      	cbz	r1, 8000c50 <dmaStreamAllocate.constprop.18+0x90>
 8000c24:	7c84      	ldrb	r4, [r0, #18]
 8000c26:	0962      	lsrs	r2, r4, #5
 8000c28:	0092      	lsls	r2, r2, #2
 8000c2a:	f104 4160 	add.w	r1, r4, #3758096384	; 0xe0000000
 8000c2e:	f102 4260 	add.w	r2, r2, #3758096384	; 0xe0000000
 8000c32:	f502 4261 	add.w	r2, r2, #57600	; 0xe100
 8000c36:	f501 4161 	add.w	r1, r1, #57600	; 0xe100
 8000c3a:	f004 041f 	and.w	r4, r4, #31
 8000c3e:	2701      	movs	r7, #1
 8000c40:	fa07 f404 	lsl.w	r4, r7, r4
 8000c44:	26a0      	movs	r6, #160	; 0xa0
 8000c46:	f881 6300 	strb.w	r6, [r1, #768]	; 0x300
 8000c4a:	f8c2 4180 	str.w	r4, [r2, #384]	; 0x180
 8000c4e:	6014      	str	r4, [r2, #0]
 8000c50:	7c42      	ldrb	r2, [r0, #17]
 8000c52:	2101      	movs	r1, #1
 8000c54:	fa01 f202 	lsl.w	r2, r1, r2
 8000c58:	4313      	orrs	r3, r2
 8000c5a:	602b      	str	r3, [r5, #0]
 8000c5c:	2000      	movs	r0, #0
 8000c5e:	bcf0      	pop	{r4, r5, r6, r7}
 8000c60:	4770      	bx	lr
 8000c62:	4630      	mov	r0, r6
 8000c64:	bcf0      	pop	{r4, r5, r6, r7}
 8000c66:	4770      	bx	lr
 8000c68:	20000b00 	.word	0x20000b00
 8000c6c:	20000a74 	.word	0x20000a74
 8000c70:	40021000 	.word	0x40021000
 8000c74:	f3af 8000 	nop.w
 8000c78:	f3af 8000 	nop.w
 8000c7c:	f3af 8000 	nop.w

08000c80 <spiSelect.constprop.16>:
 8000c80:	2320      	movs	r3, #32
 8000c82:	f383 8811 	msr	BASEPRI, r3
 8000c86:	4b06      	ldr	r3, [pc, #24]	; (8000ca0 <spiSelect.constprop.16+0x20>)
 8000c88:	685b      	ldr	r3, [r3, #4]
 8000c8a:	891a      	ldrh	r2, [r3, #8]
 8000c8c:	685b      	ldr	r3, [r3, #4]
 8000c8e:	2101      	movs	r1, #1
 8000c90:	fa01 f202 	lsl.w	r2, r1, r2
 8000c94:	b292      	uxth	r2, r2
 8000c96:	835a      	strh	r2, [r3, #26]
 8000c98:	2300      	movs	r3, #0
 8000c9a:	f383 8811 	msr	BASEPRI, r3
 8000c9e:	4770      	bx	lr
 8000ca0:	20000988 	.word	0x20000988
 8000ca4:	f3af 8000 	nop.w
 8000ca8:	f3af 8000 	nop.w
 8000cac:	f3af 8000 	nop.w

08000cb0 <spiUnselect.constprop.15>:
 8000cb0:	2320      	movs	r3, #32
 8000cb2:	f383 8811 	msr	BASEPRI, r3
 8000cb6:	4b06      	ldr	r3, [pc, #24]	; (8000cd0 <spiUnselect.constprop.15+0x20>)
 8000cb8:	685b      	ldr	r3, [r3, #4]
 8000cba:	891a      	ldrh	r2, [r3, #8]
 8000cbc:	685b      	ldr	r3, [r3, #4]
 8000cbe:	2101      	movs	r1, #1
 8000cc0:	fa01 f202 	lsl.w	r2, r1, r2
 8000cc4:	b292      	uxth	r2, r2
 8000cc6:	831a      	strh	r2, [r3, #24]
 8000cc8:	2300      	movs	r3, #0
 8000cca:	f383 8811 	msr	BASEPRI, r3
 8000cce:	4770      	bx	lr
 8000cd0:	20000988 	.word	0x20000988
 8000cd4:	f3af 8000 	nop.w
 8000cd8:	f3af 8000 	nop.w
 8000cdc:	f3af 8000 	nop.w

08000ce0 <spiExchange.constprop.13>:
 8000ce0:	b5f8      	push	{r3, r4, r5, r6, r7, lr}
 8000ce2:	2320      	movs	r3, #32
 8000ce4:	f383 8811 	msr	BASEPRI, r3
 8000ce8:	4b11      	ldr	r3, [pc, #68]	; (8000d30 <spiExchange.constprop.13+0x50>)
 8000cea:	6a1c      	ldr	r4, [r3, #32]
 8000cec:	6a5a      	ldr	r2, [r3, #36]	; 0x24
 8000cee:	6a9e      	ldr	r6, [r3, #40]	; 0x28
 8000cf0:	6add      	ldr	r5, [r3, #44]	; 0x2c
 8000cf2:	6864      	ldr	r4, [r4, #4]
 8000cf4:	6852      	ldr	r2, [r2, #4]
 8000cf6:	60e1      	str	r1, [r4, #12]
 8000cf8:	2703      	movs	r7, #3
 8000cfa:	2101      	movs	r1, #1
 8000cfc:	f046 0680 	orr.w	r6, r6, #128	; 0x80
 8000d00:	f045 0580 	orr.w	r5, r5, #128	; 0x80
 8000d04:	6061      	str	r1, [r4, #4]
 8000d06:	701f      	strb	r7, [r3, #0]
 8000d08:	6026      	str	r6, [r4, #0]
 8000d0a:	60d0      	str	r0, [r2, #12]
 8000d0c:	6051      	str	r1, [r2, #4]
 8000d0e:	6015      	str	r5, [r2, #0]
 8000d10:	6821      	ldr	r1, [r4, #0]
 8000d12:	f041 0101 	orr.w	r1, r1, #1
 8000d16:	6021      	str	r1, [r4, #0]
 8000d18:	6811      	ldr	r1, [r2, #0]
 8000d1a:	f041 0101 	orr.w	r1, r1, #1
 8000d1e:	f103 0008 	add.w	r0, r3, #8
 8000d22:	6011      	str	r1, [r2, #0]
 8000d24:	f001 ff74 	bl	8002c10 <chThdSuspendS>
 8000d28:	2300      	movs	r3, #0
 8000d2a:	f383 8811 	msr	BASEPRI, r3
 8000d2e:	bdf8      	pop	{r3, r4, r5, r6, r7, pc}
 8000d30:	20000988 	.word	0x20000988
 8000d34:	f3af 8000 	nop.w
 8000d38:	f3af 8000 	nop.w
 8000d3c:	f3af 8000 	nop.w

08000d40 <spiSend.constprop.11>:
 8000d40:	b5f8      	push	{r3, r4, r5, r6, r7, lr}
 8000d42:	2320      	movs	r3, #32
 8000d44:	f383 8811 	msr	BASEPRI, r3
 8000d48:	4b10      	ldr	r3, [pc, #64]	; (8000d8c <spiSend.constprop.11+0x4c>)
 8000d4a:	4c11      	ldr	r4, [pc, #68]	; (8000d90 <spiSend.constprop.11+0x50>)
 8000d4c:	6a19      	ldr	r1, [r3, #32]
 8000d4e:	6a5a      	ldr	r2, [r3, #36]	; 0x24
 8000d50:	6add      	ldr	r5, [r3, #44]	; 0x2c
 8000d52:	6849      	ldr	r1, [r1, #4]
 8000d54:	6852      	ldr	r2, [r2, #4]
 8000d56:	6a9e      	ldr	r6, [r3, #40]	; 0x28
 8000d58:	60cc      	str	r4, [r1, #12]
 8000d5a:	2703      	movs	r7, #3
 8000d5c:	2401      	movs	r4, #1
 8000d5e:	f045 0580 	orr.w	r5, r5, #128	; 0x80
 8000d62:	604c      	str	r4, [r1, #4]
 8000d64:	701f      	strb	r7, [r3, #0]
 8000d66:	600e      	str	r6, [r1, #0]
 8000d68:	60d0      	str	r0, [r2, #12]
 8000d6a:	6054      	str	r4, [r2, #4]
 8000d6c:	6015      	str	r5, [r2, #0]
 8000d6e:	6808      	ldr	r0, [r1, #0]
 8000d70:	4320      	orrs	r0, r4
 8000d72:	6008      	str	r0, [r1, #0]
 8000d74:	6811      	ldr	r1, [r2, #0]
 8000d76:	4321      	orrs	r1, r4
 8000d78:	f103 0008 	add.w	r0, r3, #8
 8000d7c:	6011      	str	r1, [r2, #0]
 8000d7e:	f001 ff47 	bl	8002c10 <chThdSuspendS>
 8000d82:	2300      	movs	r3, #0
 8000d84:	f383 8811 	msr	BASEPRI, r3
 8000d88:	bdf8      	pop	{r3, r4, r5, r6, r7, pc}
 8000d8a:	bf00      	nop
 8000d8c:	20000988 	.word	0x20000988
 8000d90:	20000830 	.word	0x20000830
 8000d94:	f3af 8000 	nop.w
 8000d98:	f3af 8000 	nop.w
 8000d9c:	f3af 8000 	nop.w

08000da0 <spiReceive.constprop.9>:
 8000da0:	b5f8      	push	{r3, r4, r5, r6, r7, lr}
 8000da2:	2320      	movs	r3, #32
 8000da4:	f383 8811 	msr	BASEPRI, r3
 8000da8:	4b11      	ldr	r3, [pc, #68]	; (8000df0 <spiReceive.constprop.9+0x50>)
 8000daa:	4d12      	ldr	r5, [pc, #72]	; (8000df4 <spiReceive.constprop.9+0x54>)
 8000dac:	6adc      	ldr	r4, [r3, #44]	; 0x2c
 8000dae:	f103 0120 	add.w	r1, r3, #32
 8000db2:	c946      	ldmia	r1, {r1, r2, r6}
 8000db4:	6849      	ldr	r1, [r1, #4]
 8000db6:	6852      	ldr	r2, [r2, #4]
 8000db8:	60c8      	str	r0, [r1, #12]
 8000dba:	2703      	movs	r7, #3
 8000dbc:	2001      	movs	r0, #1
 8000dbe:	f046 0680 	orr.w	r6, r6, #128	; 0x80
 8000dc2:	6048      	str	r0, [r1, #4]
 8000dc4:	701f      	strb	r7, [r3, #0]
 8000dc6:	600e      	str	r6, [r1, #0]
 8000dc8:	60d5      	str	r5, [r2, #12]
 8000dca:	6050      	str	r0, [r2, #4]
 8000dcc:	6014      	str	r4, [r2, #0]
 8000dce:	6808      	ldr	r0, [r1, #0]
 8000dd0:	f040 0001 	orr.w	r0, r0, #1
 8000dd4:	6008      	str	r0, [r1, #0]
 8000dd6:	6811      	ldr	r1, [r2, #0]
 8000dd8:	f041 0101 	orr.w	r1, r1, #1
 8000ddc:	f103 0008 	add.w	r0, r3, #8
 8000de0:	6011      	str	r1, [r2, #0]
 8000de2:	f001 ff15 	bl	8002c10 <chThdSuspendS>
 8000de6:	2300      	movs	r3, #0
 8000de8:	f383 8811 	msr	BASEPRI, r3
 8000dec:	bdf8      	pop	{r3, r4, r5, r6, r7, pc}
 8000dee:	bf00      	nop
 8000df0:	20000988 	.word	0x20000988
 8000df4:	08002ee0 	.word	0x08002ee0
 8000df8:	f3af 8000 	nop.w
 8000dfc:	f3af 8000 	nop.w

08000e00 <_strtok.11712.constprop.4>:
 8000e00:	b538      	push	{r3, r4, r5, lr}
 8000e02:	4604      	mov	r4, r0
 8000e04:	460d      	mov	r5, r1
 8000e06:	b190      	cbz	r0, 8000e2e <_strtok.11712.constprop.4+0x2e>
 8000e08:	6028      	str	r0, [r5, #0]
 8000e0a:	4620      	mov	r0, r4
 8000e0c:	490b      	ldr	r1, [pc, #44]	; (8000e3c <_strtok.11712.constprop.4+0x3c>)
 8000e0e:	f002 f847 	bl	8002ea0 <strspn>
 8000e12:	4404      	add	r4, r0
 8000e14:	4620      	mov	r0, r4
 8000e16:	4909      	ldr	r1, [pc, #36]	; (8000e3c <_strtok.11712.constprop.4+0x3c>)
 8000e18:	f002 f81a 	bl	8002e50 <strpbrk>
 8000e1c:	b160      	cbz	r0, 8000e38 <_strtok.11712.constprop.4+0x38>
 8000e1e:	1c42      	adds	r2, r0, #1
 8000e20:	2300      	movs	r3, #0
 8000e22:	602a      	str	r2, [r5, #0]
 8000e24:	7003      	strb	r3, [r0, #0]
 8000e26:	7823      	ldrb	r3, [r4, #0]
 8000e28:	b123      	cbz	r3, 8000e34 <_strtok.11712.constprop.4+0x34>
 8000e2a:	4620      	mov	r0, r4
 8000e2c:	bd38      	pop	{r3, r4, r5, pc}
 8000e2e:	680c      	ldr	r4, [r1, #0]
 8000e30:	2c00      	cmp	r4, #0
 8000e32:	d1ea      	bne.n	8000e0a <_strtok.11712.constprop.4+0xa>
 8000e34:	2000      	movs	r0, #0
 8000e36:	bd38      	pop	{r3, r4, r5, pc}
 8000e38:	6028      	str	r0, [r5, #0]
 8000e3a:	e7f4      	b.n	8000e26 <_strtok.11712.constprop.4+0x26>
 8000e3c:	08002efc 	.word	0x08002efc

08000e40 <chprintf>:
 8000e40:	b40e      	push	{r1, r2, r3}
 8000e42:	e92d 4ff0 	stmdb	sp!, {r4, r5, r6, r7, r8, r9, sl, fp, lr}
 8000e46:	b088      	sub	sp, #32
 8000e48:	ad11      	add	r5, sp, #68	; 0x44
 8000e4a:	ab05      	add	r3, sp, #20
 8000e4c:	f10d 0c15 	add.w	ip, sp, #21
 8000e50:	9301      	str	r3, [sp, #4]
 8000e52:	f855 4b04 	ldr.w	r4, [r5], #4
 8000e56:	9504      	str	r5, [sp, #16]
 8000e58:	ebc3 030c 	rsb	r3, r3, ip
 8000e5c:	f8cd c000 	str.w	ip, [sp]
 8000e60:	4683      	mov	fp, r0
 8000e62:	9303      	str	r3, [sp, #12]
 8000e64:	f04f 0800 	mov.w	r8, #0
 8000e68:	7821      	ldrb	r1, [r4, #0]
 8000e6a:	1c63      	adds	r3, r4, #1
 8000e6c:	b169      	cbz	r1, 8000e8a <chprintf+0x4a>
 8000e6e:	2925      	cmp	r1, #37	; 0x25
 8000e70:	d011      	beq.n	8000e96 <chprintf+0x56>
 8000e72:	f8db 2000 	ldr.w	r2, [fp]
 8000e76:	461c      	mov	r4, r3
 8000e78:	6892      	ldr	r2, [r2, #8]
 8000e7a:	4658      	mov	r0, fp
 8000e7c:	4790      	blx	r2
 8000e7e:	7821      	ldrb	r1, [r4, #0]
 8000e80:	f108 0801 	add.w	r8, r8, #1
 8000e84:	1c63      	adds	r3, r4, #1
 8000e86:	2900      	cmp	r1, #0
 8000e88:	d1f1      	bne.n	8000e6e <chprintf+0x2e>
 8000e8a:	4640      	mov	r0, r8
 8000e8c:	b008      	add	sp, #32
 8000e8e:	e8bd 4ff0 	ldmia.w	sp!, {r4, r5, r6, r7, r8, r9, sl, fp, lr}
 8000e92:	b003      	add	sp, #12
 8000e94:	4770      	bx	lr
 8000e96:	7862      	ldrb	r2, [r4, #1]
 8000e98:	2a2d      	cmp	r2, #45	; 0x2d
 8000e9a:	bf03      	ittte	eq
 8000e9c:	78a2      	ldrbeq	r2, [r4, #2]
 8000e9e:	1ca3      	addeq	r3, r4, #2
 8000ea0:	f04f 0a01 	moveq.w	sl, #1
 8000ea4:	f04f 0a00 	movne.w	sl, #0
 8000ea8:	2a30      	cmp	r2, #48	; 0x30
 8000eaa:	bf03      	ittte	eq
 8000eac:	785a      	ldrbeq	r2, [r3, #1]
 8000eae:	3301      	addeq	r3, #1
 8000eb0:	2630      	moveq	r6, #48	; 0x30
 8000eb2:	2620      	movne	r6, #32
 8000eb4:	461c      	mov	r4, r3
 8000eb6:	2700      	movs	r7, #0
 8000eb8:	e006      	b.n	8000ec8 <chprintf+0x88>
 8000eba:	782b      	ldrb	r3, [r5, #0]
 8000ebc:	3504      	adds	r5, #4
 8000ebe:	eb07 0787 	add.w	r7, r7, r7, lsl #2
 8000ec2:	7822      	ldrb	r2, [r4, #0]
 8000ec4:	eb03 0747 	add.w	r7, r3, r7, lsl #1
 8000ec8:	f1a2 0330 	sub.w	r3, r2, #48	; 0x30
 8000ecc:	b2db      	uxtb	r3, r3
 8000ece:	2b09      	cmp	r3, #9
 8000ed0:	f104 0401 	add.w	r4, r4, #1
 8000ed4:	d9f3      	bls.n	8000ebe <chprintf+0x7e>
 8000ed6:	2a2a      	cmp	r2, #42	; 0x2a
 8000ed8:	d0ef      	beq.n	8000eba <chprintf+0x7a>
 8000eda:	2a2e      	cmp	r2, #46	; 0x2e
 8000edc:	f04f 0100 	mov.w	r1, #0
 8000ee0:	d02b      	beq.n	8000f3a <chprintf+0xfa>
 8000ee2:	f002 03df 	and.w	r3, r2, #223	; 0xdf
 8000ee6:	2b4c      	cmp	r3, #76	; 0x4c
 8000ee8:	d034      	beq.n	8000f54 <chprintf+0x114>
 8000eea:	f1a2 0344 	sub.w	r3, r2, #68	; 0x44
 8000eee:	2b34      	cmp	r3, #52	; 0x34
 8000ef0:	f200 80b6 	bhi.w	8001060 <chprintf+0x220>
 8000ef4:	e8df f003 	tbb	[pc, r3]
 8000ef8:	b4b4b4ac 	.word	0xb4b4b4ac
 8000efc:	b4b4acb4 	.word	0xb4b4acb4
 8000f00:	aab4b4b4 	.word	0xaab4b4b4
 8000f04:	b4b4b4b4 	.word	0xb4b4b4b4
 8000f08:	b4b434b4 	.word	0xb4b434b4
 8000f0c:	b4b4b47d 	.word	0xb4b4b47d
 8000f10:	b4b4b4b4 	.word	0xb4b4b4b4
 8000f14:	9fb4b4b4 	.word	0x9fb4b4b4
 8000f18:	b4b4b4ac 	.word	0xb4b4b4ac
 8000f1c:	b4b4acb4 	.word	0xb4b4acb4
 8000f20:	aab4b4b4 	.word	0xaab4b4b4
 8000f24:	7fb4b4b4 	.word	0x7fb4b4b4
 8000f28:	b4b434b4 	.word	0xb4b434b4
 8000f2c:	7d          	.byte	0x7d
 8000f2d:	00          	.byte	0x00
 8000f2e:	782b      	ldrb	r3, [r5, #0]
 8000f30:	3504      	adds	r5, #4
 8000f32:	eb01 0181 	add.w	r1, r1, r1, lsl #2
 8000f36:	eb03 0141 	add.w	r1, r3, r1, lsl #1
 8000f3a:	f814 2b01 	ldrb.w	r2, [r4], #1
 8000f3e:	f1a2 0330 	sub.w	r3, r2, #48	; 0x30
 8000f42:	b2db      	uxtb	r3, r3
 8000f44:	2b09      	cmp	r3, #9
 8000f46:	d9f4      	bls.n	8000f32 <chprintf+0xf2>
 8000f48:	2a2a      	cmp	r2, #42	; 0x2a
 8000f4a:	d0f0      	beq.n	8000f2e <chprintf+0xee>
 8000f4c:	f002 03df 	and.w	r3, r2, #223	; 0xdf
 8000f50:	2b4c      	cmp	r3, #76	; 0x4c
 8000f52:	d1ca      	bne.n	8000eea <chprintf+0xaa>
 8000f54:	7823      	ldrb	r3, [r4, #0]
 8000f56:	2b00      	cmp	r3, #0
 8000f58:	d0c7      	beq.n	8000eea <chprintf+0xaa>
 8000f5a:	3401      	adds	r4, #1
 8000f5c:	461a      	mov	r2, r3
 8000f5e:	e7c4      	b.n	8000eea <chprintf+0xaa>
 8000f60:	220a      	movs	r2, #10
 8000f62:	6829      	ldr	r1, [r5, #0]
 8000f64:	a805      	add	r0, sp, #20
 8000f66:	3504      	adds	r5, #4
 8000f68:	f7ff fae2 	bl	8000530 <long_to_string_with_divisor.12262.constprop.3.4456>
 8000f6c:	9b01      	ldr	r3, [sp, #4]
 8000f6e:	1ac0      	subs	r0, r0, r3
 8000f70:	f100 3cff 	add.w	ip, r0, #4294967295	; 0xffffffff
 8000f74:	f8cd c008 	str.w	ip, [sp, #8]
 8000f78:	f10d 0914 	add.w	r9, sp, #20
 8000f7c:	1a3f      	subs	r7, r7, r0
 8000f7e:	ea27 77e7 	bic.w	r7, r7, r7, asr #31
 8000f82:	f1ba 0f00 	cmp.w	sl, #0
 8000f86:	d112      	bne.n	8000fae <chprintf+0x16e>
 8000f88:	427f      	negs	r7, r7
 8000f8a:	b187      	cbz	r7, 8000fae <chprintf+0x16e>
 8000f8c:	f899 1000 	ldrb.w	r1, [r9]
 8000f90:	292d      	cmp	r1, #45	; 0x2d
 8000f92:	d06d      	beq.n	8001070 <chprintf+0x230>
 8000f94:	46ba      	mov	sl, r7
 8000f96:	f8db 3000 	ldr.w	r3, [fp]
 8000f9a:	4658      	mov	r0, fp
 8000f9c:	689b      	ldr	r3, [r3, #8]
 8000f9e:	4631      	mov	r1, r6
 8000fa0:	4798      	blx	r3
 8000fa2:	f11a 0a01 	adds.w	sl, sl, #1
 8000fa6:	d1f6      	bne.n	8000f96 <chprintf+0x156>
 8000fa8:	ebc7 0808 	rsb	r8, r7, r8
 8000fac:	4657      	mov	r7, sl
 8000fae:	9a02      	ldr	r2, [sp, #8]
 8000fb0:	2a00      	cmp	r2, #0
 8000fb2:	db0f      	blt.n	8000fd4 <chprintf+0x194>
 8000fb4:	f109 3aff 	add.w	sl, r9, #4294967295	; 0xffffffff
 8000fb8:	4491      	add	r9, r2
 8000fba:	f8db 3000 	ldr.w	r3, [fp]
 8000fbe:	f81a 1f01 	ldrb.w	r1, [sl, #1]!
 8000fc2:	689b      	ldr	r3, [r3, #8]
 8000fc4:	4658      	mov	r0, fp
 8000fc6:	4798      	blx	r3
 8000fc8:	45ca      	cmp	sl, r9
 8000fca:	d1f6      	bne.n	8000fba <chprintf+0x17a>
 8000fcc:	9b02      	ldr	r3, [sp, #8]
 8000fce:	f108 0801 	add.w	r8, r8, #1
 8000fd2:	4498      	add	r8, r3
 8000fd4:	2f00      	cmp	r7, #0
 8000fd6:	f43f af47 	beq.w	8000e68 <chprintf+0x28>
 8000fda:	46b9      	mov	r9, r7
 8000fdc:	f8db 3000 	ldr.w	r3, [fp]
 8000fe0:	4658      	mov	r0, fp
 8000fe2:	689b      	ldr	r3, [r3, #8]
 8000fe4:	4631      	mov	r1, r6
 8000fe6:	4798      	blx	r3
 8000fe8:	f1b9 0901 	subs.w	r9, r9, #1
 8000fec:	d1f6      	bne.n	8000fdc <chprintf+0x19c>
 8000fee:	44b8      	add	r8, r7
 8000ff0:	e73a      	b.n	8000e68 <chprintf+0x28>
 8000ff2:	2210      	movs	r2, #16
 8000ff4:	e7b5      	b.n	8000f62 <chprintf+0x122>
 8000ff6:	f8d5 9000 	ldr.w	r9, [r5]
 8000ffa:	4b30      	ldr	r3, [pc, #192]	; (80010bc <chprintf+0x27c>)
 8000ffc:	f1b9 0f00 	cmp.w	r9, #0
 8001000:	bf08      	it	eq
 8001002:	4699      	moveq	r9, r3
 8001004:	f647 73ff 	movw	r3, #32767	; 0x7fff
 8001008:	f899 0000 	ldrb.w	r0, [r9]
 800100c:	3504      	adds	r5, #4
 800100e:	2900      	cmp	r1, #0
 8001010:	bf08      	it	eq
 8001012:	4619      	moveq	r1, r3
 8001014:	2800      	cmp	r0, #0
 8001016:	d04c      	beq.n	80010b2 <chprintf+0x272>
 8001018:	4449      	add	r1, r9
 800101a:	464b      	mov	r3, r9
 800101c:	e001      	b.n	8001022 <chprintf+0x1e2>
 800101e:	428b      	cmp	r3, r1
 8001020:	d038      	beq.n	8001094 <chprintf+0x254>
 8001022:	785a      	ldrb	r2, [r3, #1]
 8001024:	3301      	adds	r3, #1
 8001026:	2a00      	cmp	r2, #0
 8001028:	d1f9      	bne.n	800101e <chprintf+0x1de>
 800102a:	ebc9 0003 	rsb	r0, r9, r3
 800102e:	1e43      	subs	r3, r0, #1
 8001030:	9302      	str	r3, [sp, #8]
 8001032:	2620      	movs	r6, #32
 8001034:	e7a2      	b.n	8000f7c <chprintf+0x13c>
 8001036:	9803      	ldr	r0, [sp, #12]
 8001038:	682b      	ldr	r3, [r5, #0]
 800103a:	f88d 3014 	strb.w	r3, [sp, #20]
 800103e:	1e42      	subs	r2, r0, #1
 8001040:	3504      	adds	r5, #4
 8001042:	9202      	str	r2, [sp, #8]
 8001044:	2620      	movs	r6, #32
 8001046:	f10d 0914 	add.w	r9, sp, #20
 800104a:	e797      	b.n	8000f7c <chprintf+0x13c>
 800104c:	2208      	movs	r2, #8
 800104e:	e788      	b.n	8000f62 <chprintf+0x122>
 8001050:	6829      	ldr	r1, [r5, #0]
 8001052:	2900      	cmp	r1, #0
 8001054:	f105 0504 	add.w	r5, r5, #4
 8001058:	db24      	blt.n	80010a4 <chprintf+0x264>
 800105a:	a805      	add	r0, sp, #20
 800105c:	220a      	movs	r2, #10
 800105e:	e783      	b.n	8000f68 <chprintf+0x128>
 8001060:	9803      	ldr	r0, [sp, #12]
 8001062:	f88d 2014 	strb.w	r2, [sp, #20]
 8001066:	1e42      	subs	r2, r0, #1
 8001068:	9202      	str	r2, [sp, #8]
 800106a:	f10d 0914 	add.w	r9, sp, #20
 800106e:	e785      	b.n	8000f7c <chprintf+0x13c>
 8001070:	2e30      	cmp	r6, #48	; 0x30
 8001072:	d18f      	bne.n	8000f94 <chprintf+0x154>
 8001074:	f8db 3000 	ldr.w	r3, [fp]
 8001078:	4658      	mov	r0, fp
 800107a:	689b      	ldr	r3, [r3, #8]
 800107c:	4798      	blx	r3
 800107e:	f8dd c008 	ldr.w	ip, [sp, #8]
 8001082:	f10c 3cff 	add.w	ip, ip, #4294967295	; 0xffffffff
 8001086:	f109 0901 	add.w	r9, r9, #1
 800108a:	f108 0801 	add.w	r8, r8, #1
 800108e:	f8cd c008 	str.w	ip, [sp, #8]
 8001092:	e77f      	b.n	8000f94 <chprintf+0x154>
 8001094:	ebc9 0001 	rsb	r0, r9, r1
 8001098:	f100 3cff 	add.w	ip, r0, #4294967295	; 0xffffffff
 800109c:	f8cd c008 	str.w	ip, [sp, #8]
 80010a0:	2620      	movs	r6, #32
 80010a2:	e76b      	b.n	8000f7c <chprintf+0x13c>
 80010a4:	232d      	movs	r3, #45	; 0x2d
 80010a6:	4249      	negs	r1, r1
 80010a8:	f88d 3014 	strb.w	r3, [sp, #20]
 80010ac:	f10d 0015 	add.w	r0, sp, #21
 80010b0:	e7d4      	b.n	800105c <chprintf+0x21c>
 80010b2:	f04f 33ff 	mov.w	r3, #4294967295	; 0xffffffff
 80010b6:	9302      	str	r3, [sp, #8]
 80010b8:	2620      	movs	r6, #32
 80010ba:	e75f      	b.n	8000f7c <chprintf+0x13c>
 80010bc:	08002f00 	.word	0x08002f00

080010c0 <cmd_myecho.12968>:
 80010c0:	b5f8      	push	{r3, r4, r5, r6, r7, lr}
 80010c2:	1e0f      	subs	r7, r1, #0
 80010c4:	4606      	mov	r6, r0
 80010c6:	dd0a      	ble.n	80010de <cmd_myecho.12968+0x1e>
 80010c8:	1f15      	subs	r5, r2, #4
 80010ca:	2400      	movs	r4, #0
 80010cc:	3401      	adds	r4, #1
 80010ce:	4630      	mov	r0, r6
 80010d0:	4903      	ldr	r1, [pc, #12]	; (80010e0 <cmd_myecho.12968+0x20>)
 80010d2:	f855 2f04 	ldr.w	r2, [r5, #4]!
 80010d6:	f7ff feb3 	bl	8000e40 <chprintf>
 80010da:	42bc      	cmp	r4, r7
 80010dc:	d1f6      	bne.n	80010cc <cmd_myecho.12968+0xc>
 80010de:	bdf8      	pop	{r3, r4, r5, r6, r7, pc}
 80010e0:	08002f08 	.word	0x08002f08
 80010e4:	f3af 8000 	nop.w
 80010e8:	f3af 8000 	nop.w
 80010ec:	f3af 8000 	nop.w

080010f0 <cmd_systime.11720>:
 80010f0:	2900      	cmp	r1, #0
 80010f2:	dd03      	ble.n	80010fc <cmd_systime.11720+0xc>
 80010f4:	4907      	ldr	r1, [pc, #28]	; (8001114 <cmd_systime.11720+0x24>)
 80010f6:	4a08      	ldr	r2, [pc, #32]	; (8001118 <cmd_systime.11720+0x28>)
 80010f8:	f7ff bea2 	b.w	8000e40 <chprintf>
 80010fc:	2320      	movs	r3, #32
 80010fe:	f383 8811 	msr	BASEPRI, r3
 8001102:	f04f 4280 	mov.w	r2, #1073741824	; 0x40000000
 8001106:	2300      	movs	r3, #0
 8001108:	6a52      	ldr	r2, [r2, #36]	; 0x24
 800110a:	f383 8811 	msr	BASEPRI, r3
 800110e:	4903      	ldr	r1, [pc, #12]	; (800111c <cmd_systime.11720+0x2c>)
 8001110:	f7ff be96 	b.w	8000e40 <chprintf>
 8001114:	08002f10 	.word	0x08002f10
 8001118:	08002f1c 	.word	0x08002f1c
 800111c:	08002f24 	.word	0x08002f24

08001120 <cmd_info.11728>:
 8001120:	b510      	push	{r4, lr}
 8001122:	2900      	cmp	r1, #0
 8001124:	b082      	sub	sp, #8
 8001126:	4604      	mov	r4, r0
 8001128:	dd06      	ble.n	8001138 <cmd_info.11728+0x18>
 800112a:	4919      	ldr	r1, [pc, #100]	; (8001190 <cmd_info.11728+0x70>)
 800112c:	4a19      	ldr	r2, [pc, #100]	; (8001194 <cmd_info.11728+0x74>)
 800112e:	b002      	add	sp, #8
 8001130:	e8bd 4010 	ldmia.w	sp!, {r4, lr}
 8001134:	f7ff be84 	b.w	8000e40 <chprintf>
 8001138:	4917      	ldr	r1, [pc, #92]	; (8001198 <cmd_info.11728+0x78>)
 800113a:	4a18      	ldr	r2, [pc, #96]	; (800119c <cmd_info.11728+0x7c>)
 800113c:	f7ff fe80 	bl	8000e40 <chprintf>
 8001140:	4620      	mov	r0, r4
 8001142:	4917      	ldr	r1, [pc, #92]	; (80011a0 <cmd_info.11728+0x80>)
 8001144:	4a17      	ldr	r2, [pc, #92]	; (80011a4 <cmd_info.11728+0x84>)
 8001146:	f7ff fe7b 	bl	8000e40 <chprintf>
 800114a:	4620      	mov	r0, r4
 800114c:	4916      	ldr	r1, [pc, #88]	; (80011a8 <cmd_info.11728+0x88>)
 800114e:	4a17      	ldr	r2, [pc, #92]	; (80011ac <cmd_info.11728+0x8c>)
 8001150:	f7ff fe76 	bl	8000e40 <chprintf>
 8001154:	4620      	mov	r0, r4
 8001156:	4916      	ldr	r1, [pc, #88]	; (80011b0 <cmd_info.11728+0x90>)
 8001158:	4a16      	ldr	r2, [pc, #88]	; (80011b4 <cmd_info.11728+0x94>)
 800115a:	f7ff fe71 	bl	8000e40 <chprintf>
 800115e:	4620      	mov	r0, r4
 8001160:	4915      	ldr	r1, [pc, #84]	; (80011b8 <cmd_info.11728+0x98>)
 8001162:	4a16      	ldr	r2, [pc, #88]	; (80011bc <cmd_info.11728+0x9c>)
 8001164:	f7ff fe6c 	bl	8000e40 <chprintf>
 8001168:	4620      	mov	r0, r4
 800116a:	4915      	ldr	r1, [pc, #84]	; (80011c0 <cmd_info.11728+0xa0>)
 800116c:	4a15      	ldr	r2, [pc, #84]	; (80011c4 <cmd_info.11728+0xa4>)
 800116e:	f7ff fe67 	bl	8000e40 <chprintf>
 8001172:	4620      	mov	r0, r4
 8001174:	4914      	ldr	r1, [pc, #80]	; (80011c8 <cmd_info.11728+0xa8>)
 8001176:	4a15      	ldr	r2, [pc, #84]	; (80011cc <cmd_info.11728+0xac>)
 8001178:	f7ff fe62 	bl	8000e40 <chprintf>
 800117c:	4b14      	ldr	r3, [pc, #80]	; (80011d0 <cmd_info.11728+0xb0>)
 800117e:	9300      	str	r3, [sp, #0]
 8001180:	4620      	mov	r0, r4
 8001182:	4914      	ldr	r1, [pc, #80]	; (80011d4 <cmd_info.11728+0xb4>)
 8001184:	4a14      	ldr	r2, [pc, #80]	; (80011d8 <cmd_info.11728+0xb8>)
 8001186:	4b15      	ldr	r3, [pc, #84]	; (80011dc <cmd_info.11728+0xbc>)
 8001188:	f7ff fe5a 	bl	8000e40 <chprintf>
 800118c:	b002      	add	sp, #8
 800118e:	bd10      	pop	{r4, pc}
 8001190:	08002f10 	.word	0x08002f10
 8001194:	08002f2c 	.word	0x08002f2c
 8001198:	08002f34 	.word	0x08002f34
 800119c:	08002f48 	.word	0x08002f48
 80011a0:	08002f50 	.word	0x08002f50
 80011a4:	08002f64 	.word	0x08002f64
 80011a8:	08002fac 	.word	0x08002fac
 80011ac:	08002fc0 	.word	0x08002fc0
 80011b0:	08002fcc 	.word	0x08002fcc
 80011b4:	08002fe0 	.word	0x08002fe0
 80011b8:	08002fec 	.word	0x08002fec
 80011bc:	08003000 	.word	0x08003000
 80011c0:	08003018 	.word	0x08003018
 80011c4:	0800302c 	.word	0x0800302c
 80011c8:	08003048 	.word	0x08003048
 80011cc:	0800305c 	.word	0x0800305c
 80011d0:	080030ac 	.word	0x080030ac
 80011d4:	08003084 	.word	0x08003084
 80011d8:	0800309c 	.word	0x0800309c
 80011dc:	080030a8 	.word	0x080030a8

080011e0 <_pal_lld_setgroupmode>:
 80011e0:	e92d 0ff0 	stmdb	sp!, {r4, r5, r6, r7, r8, r9, sl, fp}
 80011e4:	2300      	movs	r3, #0
 80011e6:	f002 0703 	and.w	r7, r2, #3
 80011ea:	f3c2 0680 	ubfx	r6, r2, #2, #1
 80011ee:	f3c2 05c1 	ubfx	r5, r2, #3, #2
 80011f2:	f3c2 1441 	ubfx	r4, r2, #5, #2
 80011f6:	f04f 090f 	mov.w	r9, #15
 80011fa:	f3c2 12c3 	ubfx	r2, r2, #7, #4
 80011fe:	f04f 0a01 	mov.w	sl, #1
 8001202:	e038      	b.n	8001276 <_pal_lld_setgroupmode+0x96>
 8001204:	f8d0 b020 	ldr.w	fp, [r0, #32]
 8001208:	ea2b 0c0c 	bic.w	ip, fp, ip
 800120c:	ea4c 0808 	orr.w	r8, ip, r8
 8001210:	f8c0 8020 	str.w	r8, [r0, #32]
 8001214:	f8d0 c004 	ldr.w	ip, [r0, #4]
 8001218:	fa0a f803 	lsl.w	r8, sl, r3
 800121c:	ea2c 0c08 	bic.w	ip, ip, r8
 8001220:	ea4c 0c06 	orr.w	ip, ip, r6
 8001224:	f8c0 c004 	str.w	ip, [r0, #4]
 8001228:	f04f 0b03 	mov.w	fp, #3
 800122c:	ea4f 0c43 	mov.w	ip, r3, lsl #1
 8001230:	f8d0 8008 	ldr.w	r8, [r0, #8]
 8001234:	fa0b fc0c 	lsl.w	ip, fp, ip
 8001238:	ea6f 0c0c 	mvn.w	ip, ip
 800123c:	ea0c 0808 	and.w	r8, ip, r8
 8001240:	ea48 0805 	orr.w	r8, r8, r5
 8001244:	f8c0 8008 	str.w	r8, [r0, #8]
 8001248:	f8d0 800c 	ldr.w	r8, [r0, #12]
 800124c:	ea0c 0808 	and.w	r8, ip, r8
 8001250:	ea48 0804 	orr.w	r8, r8, r4
 8001254:	f8c0 800c 	str.w	r8, [r0, #12]
 8001258:	f8d0 8000 	ldr.w	r8, [r0]
 800125c:	ea0c 0c08 	and.w	ip, ip, r8
 8001260:	ea4c 0c07 	orr.w	ip, ip, r7
 8001264:	f8c0 c000 	str.w	ip, [r0]
 8001268:	0849      	lsrs	r1, r1, #1
 800126a:	d01a      	beq.n	80012a2 <_pal_lld_setgroupmode+0xc2>
 800126c:	0076      	lsls	r6, r6, #1
 800126e:	00ad      	lsls	r5, r5, #2
 8001270:	00a4      	lsls	r4, r4, #2
 8001272:	00bf      	lsls	r7, r7, #2
 8001274:	3301      	adds	r3, #1
 8001276:	f003 0c07 	and.w	ip, r3, #7
 800127a:	ea4f 0c8c 	mov.w	ip, ip, lsl #2
 800127e:	f011 0f01 	tst.w	r1, #1
 8001282:	fa02 f80c 	lsl.w	r8, r2, ip
 8001286:	fa09 fc0c 	lsl.w	ip, r9, ip
 800128a:	d0ed      	beq.n	8001268 <_pal_lld_setgroupmode+0x88>
 800128c:	2b07      	cmp	r3, #7
 800128e:	d9b9      	bls.n	8001204 <_pal_lld_setgroupmode+0x24>
 8001290:	f8d0 b024 	ldr.w	fp, [r0, #36]	; 0x24
 8001294:	ea2b 0c0c 	bic.w	ip, fp, ip
 8001298:	ea4c 0808 	orr.w	r8, ip, r8
 800129c:	f8c0 8024 	str.w	r8, [r0, #36]	; 0x24
 80012a0:	e7b8      	b.n	8001214 <_pal_lld_setgroupmode+0x34>
 80012a2:	e8bd 0ff0 	ldmia.w	sp!, {r4, r5, r6, r7, r8, r9, sl, fp}
 80012a6:	4770      	bx	lr
 80012a8:	f3af 8000 	nop.w
 80012ac:	f3af 8000 	nop.w

080012b0 <shell_thread.11701>:
 80012b0:	e92d 47f0 	stmdb	sp!, {r4, r5, r6, r7, r8, r9, sl, lr}
 80012b4:	4b79      	ldr	r3, [pc, #484]	; (800149c <shell_thread.11701+0x1ec>)
 80012b6:	6804      	ldr	r4, [r0, #0]
 80012b8:	699b      	ldr	r3, [r3, #24]
 80012ba:	4a79      	ldr	r2, [pc, #484]	; (80014a0 <shell_thread.11701+0x1f0>)
 80012bc:	f8d0 8004 	ldr.w	r8, [r0, #4]
 80012c0:	4978      	ldr	r1, [pc, #480]	; (80014a4 <shell_thread.11701+0x1f4>)
 80012c2:	619a      	str	r2, [r3, #24]
 80012c4:	b098      	sub	sp, #96	; 0x60
 80012c6:	4620      	mov	r0, r4
 80012c8:	f7ff fdba 	bl	8000e40 <chprintf>
 80012cc:	ae08      	add	r6, sp, #32
 80012ce:	f10d 075f 	add.w	r7, sp, #95	; 0x5f
 80012d2:	4620      	mov	r0, r4
 80012d4:	4974      	ldr	r1, [pc, #464]	; (80014a8 <shell_thread.11701+0x1f8>)
 80012d6:	f7ff fdb3 	bl	8000e40 <chprintf>
 80012da:	4635      	mov	r5, r6
 80012dc:	6823      	ldr	r3, [r4, #0]
 80012de:	4620      	mov	r0, r4
 80012e0:	685b      	ldr	r3, [r3, #4]
 80012e2:	f10d 0107 	add.w	r1, sp, #7
 80012e6:	2201      	movs	r2, #1
 80012e8:	4798      	blx	r3
 80012ea:	b368      	cbz	r0, 8001348 <shell_thread.11701+0x98>
 80012ec:	f89d 1007 	ldrb.w	r1, [sp, #7]
 80012f0:	2904      	cmp	r1, #4
 80012f2:	d025      	beq.n	8001340 <shell_thread.11701+0x90>
 80012f4:	2908      	cmp	r1, #8
 80012f6:	d010      	beq.n	800131a <shell_thread.11701+0x6a>
 80012f8:	297f      	cmp	r1, #127	; 0x7f
 80012fa:	d00e      	beq.n	800131a <shell_thread.11701+0x6a>
 80012fc:	290d      	cmp	r1, #13
 80012fe:	d034      	beq.n	800136a <shell_thread.11701+0xba>
 8001300:	291f      	cmp	r1, #31
 8001302:	d9eb      	bls.n	80012dc <shell_thread.11701+0x2c>
 8001304:	42bd      	cmp	r5, r7
 8001306:	d2e9      	bcs.n	80012dc <shell_thread.11701+0x2c>
 8001308:	6823      	ldr	r3, [r4, #0]
 800130a:	4620      	mov	r0, r4
 800130c:	689b      	ldr	r3, [r3, #8]
 800130e:	4798      	blx	r3
 8001310:	f89d 3007 	ldrb.w	r3, [sp, #7]
 8001314:	702b      	strb	r3, [r5, #0]
 8001316:	3501      	adds	r5, #1
 8001318:	e7e0      	b.n	80012dc <shell_thread.11701+0x2c>
 800131a:	42b5      	cmp	r5, r6
 800131c:	4620      	mov	r0, r4
 800131e:	d0dd      	beq.n	80012dc <shell_thread.11701+0x2c>
 8001320:	6823      	ldr	r3, [r4, #0]
 8001322:	689b      	ldr	r3, [r3, #8]
 8001324:	4798      	blx	r3
 8001326:	6823      	ldr	r3, [r4, #0]
 8001328:	4620      	mov	r0, r4
 800132a:	689b      	ldr	r3, [r3, #8]
 800132c:	2120      	movs	r1, #32
 800132e:	4798      	blx	r3
 8001330:	6823      	ldr	r3, [r4, #0]
 8001332:	f89d 1007 	ldrb.w	r1, [sp, #7]
 8001336:	689b      	ldr	r3, [r3, #8]
 8001338:	4620      	mov	r0, r4
 800133a:	3d01      	subs	r5, #1
 800133c:	4798      	blx	r3
 800133e:	e7cd      	b.n	80012dc <shell_thread.11701+0x2c>
 8001340:	4620      	mov	r0, r4
 8001342:	495a      	ldr	r1, [pc, #360]	; (80014ac <shell_thread.11701+0x1fc>)
 8001344:	f7ff fd7c 	bl	8000e40 <chprintf>
 8001348:	4620      	mov	r0, r4
 800134a:	4959      	ldr	r1, [pc, #356]	; (80014b0 <shell_thread.11701+0x200>)
 800134c:	f7ff fd78 	bl	8000e40 <chprintf>
 8001350:	2320      	movs	r3, #32
 8001352:	f383 8811 	msr	BASEPRI, r3
 8001356:	2100      	movs	r1, #0
 8001358:	4856      	ldr	r0, [pc, #344]	; (80014b4 <shell_thread.11701+0x204>)
 800135a:	f001 fc81 	bl	8002c60 <chEvtBroadcastFlagsI>
 800135e:	2000      	movs	r0, #0
 8001360:	f001 fd4e 	bl	8002e00 <chThdExitS>
 8001364:	b018      	add	sp, #96	; 0x60
 8001366:	e8bd 87f0 	ldmia.w	sp!, {r4, r5, r6, r7, r8, r9, sl, pc}
 800136a:	4953      	ldr	r1, [pc, #332]	; (80014b8 <shell_thread.11701+0x208>)
 800136c:	4620      	mov	r0, r4
 800136e:	f7ff fd67 	bl	8000e40 <chprintf>
 8001372:	2300      	movs	r3, #0
 8001374:	a902      	add	r1, sp, #8
 8001376:	702b      	strb	r3, [r5, #0]
 8001378:	4630      	mov	r0, r6
 800137a:	461d      	mov	r5, r3
 800137c:	f7ff fd40 	bl	8000e00 <_strtok.11712.constprop.4>
 8001380:	a902      	add	r1, sp, #8
 8001382:	4682      	mov	sl, r0
 8001384:	2000      	movs	r0, #0
 8001386:	f10d 0908 	add.w	r9, sp, #8
 800138a:	f7ff fd39 	bl	8000e00 <_strtok.11712.constprop.4>
 800138e:	b150      	cbz	r0, 80013a6 <shell_thread.11701+0xf6>
 8001390:	2d04      	cmp	r5, #4
 8001392:	d01d      	beq.n	80013d0 <shell_thread.11701+0x120>
 8001394:	f849 0f04 	str.w	r0, [r9, #4]!
 8001398:	a902      	add	r1, sp, #8
 800139a:	2000      	movs	r0, #0
 800139c:	3501      	adds	r5, #1
 800139e:	f7ff fd2f 	bl	8000e00 <_strtok.11712.constprop.4>
 80013a2:	2800      	cmp	r0, #0
 80013a4:	d1f4      	bne.n	8001390 <shell_thread.11701+0xe0>
 80013a6:	aa18      	add	r2, sp, #96	; 0x60
 80013a8:	eb02 0385 	add.w	r3, r2, r5, lsl #2
 80013ac:	f843 0c54 	str.w	r0, [r3, #-84]
 80013b0:	f1ba 0f00 	cmp.w	sl, #0
 80013b4:	d08d      	beq.n	80012d2 <shell_thread.11701+0x22>
 80013b6:	4650      	mov	r0, sl
 80013b8:	4940      	ldr	r1, [pc, #256]	; (80014bc <shell_thread.11701+0x20c>)
 80013ba:	f7fe ffa9 	bl	8000310 <strcmp>
 80013be:	b970      	cbnz	r0, 80013de <shell_thread.11701+0x12e>
 80013c0:	2d00      	cmp	r5, #0
 80013c2:	d0c5      	beq.n	8001350 <shell_thread.11701+0xa0>
 80013c4:	4620      	mov	r0, r4
 80013c6:	493e      	ldr	r1, [pc, #248]	; (80014c0 <shell_thread.11701+0x210>)
 80013c8:	4a3c      	ldr	r2, [pc, #240]	; (80014bc <shell_thread.11701+0x20c>)
 80013ca:	f7ff fd39 	bl	8000e40 <chprintf>
 80013ce:	e780      	b.n	80012d2 <shell_thread.11701+0x22>
 80013d0:	4620      	mov	r0, r4
 80013d2:	493c      	ldr	r1, [pc, #240]	; (80014c4 <shell_thread.11701+0x214>)
 80013d4:	f7ff fd34 	bl	8000e40 <chprintf>
 80013d8:	2300      	movs	r3, #0
 80013da:	9307      	str	r3, [sp, #28]
 80013dc:	e779      	b.n	80012d2 <shell_thread.11701+0x22>
 80013de:	4650      	mov	r0, sl
 80013e0:	4939      	ldr	r1, [pc, #228]	; (80014c8 <shell_thread.11701+0x218>)
 80013e2:	f7fe ff95 	bl	8000310 <strcmp>
 80013e6:	b930      	cbnz	r0, 80013f6 <shell_thread.11701+0x146>
 80013e8:	4620      	mov	r0, r4
 80013ea:	b1cd      	cbz	r5, 8001420 <shell_thread.11701+0x170>
 80013ec:	4934      	ldr	r1, [pc, #208]	; (80014c0 <shell_thread.11701+0x210>)
 80013ee:	4a36      	ldr	r2, [pc, #216]	; (80014c8 <shell_thread.11701+0x218>)
 80013f0:	f7ff fd26 	bl	8000e40 <chprintf>
 80013f4:	e76d      	b.n	80012d2 <shell_thread.11701+0x22>
 80013f6:	4b35      	ldr	r3, [pc, #212]	; (80014cc <shell_thread.11701+0x21c>)
 80013f8:	6818      	ldr	r0, [r3, #0]
 80013fa:	4699      	mov	r9, r3
 80013fc:	b920      	cbnz	r0, 8001408 <shell_thread.11701+0x158>
 80013fe:	e032      	b.n	8001466 <shell_thread.11701+0x1b6>
 8001400:	f859 0f08 	ldr.w	r0, [r9, #8]!
 8001404:	2800      	cmp	r0, #0
 8001406:	d02e      	beq.n	8001466 <shell_thread.11701+0x1b6>
 8001408:	4651      	mov	r1, sl
 800140a:	f7fe ff81 	bl	8000310 <strcmp>
 800140e:	2800      	cmp	r0, #0
 8001410:	d1f6      	bne.n	8001400 <shell_thread.11701+0x150>
 8001412:	f8d9 3004 	ldr.w	r3, [r9, #4]
 8001416:	4629      	mov	r1, r5
 8001418:	4620      	mov	r0, r4
 800141a:	aa03      	add	r2, sp, #12
 800141c:	4798      	blx	r3
 800141e:	e758      	b.n	80012d2 <shell_thread.11701+0x22>
 8001420:	492b      	ldr	r1, [pc, #172]	; (80014d0 <shell_thread.11701+0x220>)
 8001422:	f7ff fd0d 	bl	8000e40 <chprintf>
 8001426:	4b29      	ldr	r3, [pc, #164]	; (80014cc <shell_thread.11701+0x21c>)
 8001428:	681a      	ldr	r2, [r3, #0]
 800142a:	461d      	mov	r5, r3
 800142c:	b13a      	cbz	r2, 800143e <shell_thread.11701+0x18e>
 800142e:	4620      	mov	r0, r4
 8001430:	4928      	ldr	r1, [pc, #160]	; (80014d4 <shell_thread.11701+0x224>)
 8001432:	f7ff fd05 	bl	8000e40 <chprintf>
 8001436:	f855 2f08 	ldr.w	r2, [r5, #8]!
 800143a:	2a00      	cmp	r2, #0
 800143c:	d1f7      	bne.n	800142e <shell_thread.11701+0x17e>
 800143e:	f1b8 0f00 	cmp.w	r8, #0
 8001442:	d00b      	beq.n	800145c <shell_thread.11701+0x1ac>
 8001444:	f8d8 2000 	ldr.w	r2, [r8]
 8001448:	b142      	cbz	r2, 800145c <shell_thread.11701+0x1ac>
 800144a:	4645      	mov	r5, r8
 800144c:	4620      	mov	r0, r4
 800144e:	4921      	ldr	r1, [pc, #132]	; (80014d4 <shell_thread.11701+0x224>)
 8001450:	f7ff fcf6 	bl	8000e40 <chprintf>
 8001454:	f855 2f08 	ldr.w	r2, [r5, #8]!
 8001458:	2a00      	cmp	r2, #0
 800145a:	d1f7      	bne.n	800144c <shell_thread.11701+0x19c>
 800145c:	4620      	mov	r0, r4
 800145e:	4916      	ldr	r1, [pc, #88]	; (80014b8 <shell_thread.11701+0x208>)
 8001460:	f7ff fcee 	bl	8000e40 <chprintf>
 8001464:	e735      	b.n	80012d2 <shell_thread.11701+0x22>
 8001466:	f1b8 0f00 	cmp.w	r8, #0
 800146a:	d00d      	beq.n	8001488 <shell_thread.11701+0x1d8>
 800146c:	f8d8 0000 	ldr.w	r0, [r8]
 8001470:	b150      	cbz	r0, 8001488 <shell_thread.11701+0x1d8>
 8001472:	46c1      	mov	r9, r8
 8001474:	e002      	b.n	800147c <shell_thread.11701+0x1cc>
 8001476:	f859 0f08 	ldr.w	r0, [r9, #8]!
 800147a:	b128      	cbz	r0, 8001488 <shell_thread.11701+0x1d8>
 800147c:	4651      	mov	r1, sl
 800147e:	f7fe ff47 	bl	8000310 <strcmp>
 8001482:	2800      	cmp	r0, #0
 8001484:	d1f7      	bne.n	8001476 <shell_thread.11701+0x1c6>
 8001486:	e7c4      	b.n	8001412 <shell_thread.11701+0x162>
 8001488:	4652      	mov	r2, sl
 800148a:	4620      	mov	r0, r4
 800148c:	4912      	ldr	r1, [pc, #72]	; (80014d8 <shell_thread.11701+0x228>)
 800148e:	f7ff fcd7 	bl	8000e40 <chprintf>
 8001492:	4620      	mov	r0, r4
 8001494:	4911      	ldr	r1, [pc, #68]	; (80014dc <shell_thread.11701+0x22c>)
 8001496:	f7ff fcd3 	bl	8000e40 <chprintf>
 800149a:	e71a      	b.n	80012d2 <shell_thread.11701+0x22>
 800149c:	20000838 	.word	0x20000838
 80014a0:	08003270 	.word	0x08003270
 80014a4:	08003278 	.word	0x08003278
 80014a8:	08003290 	.word	0x08003290
 80014ac:	08003298 	.word	0x08003298
 80014b0:	080032ec 	.word	0x080032ec
 80014b4:	20000ad4 	.word	0x20000ad4
 80014b8:	08003058 	.word	0x08003058
 80014bc:	080032b4 	.word	0x080032b4
 80014c0:	08002f10 	.word	0x08002f10
 80014c4:	0800329c 	.word	0x0800329c
 80014c8:	080032bc 	.word	0x080032bc
 80014cc:	20000804 	.word	0x20000804
 80014d0:	080032c4 	.word	0x080032c4
 80014d4:	080032dc 	.word	0x080032dc
 80014d8:	080032e0 	.word	0x080032e0
 80014dc:	080032e4 	.word	0x080032e4

080014e0 <main>:
 80014e0:	4bc1      	ldr	r3, [pc, #772]	; (80017e8 <main+0x308>)
 80014e2:	48c2      	ldr	r0, [pc, #776]	; (80017ec <main+0x30c>)
 80014e4:	6a9a      	ldr	r2, [r3, #40]	; 0x28
 80014e6:	f04f 31ff 	mov.w	r1, #4294967295	; 0xffffffff
 80014ea:	2200      	movs	r2, #0
 80014ec:	e92d 4880 	stmdb	sp!, {r7, fp, lr}
 80014f0:	6299      	str	r1, [r3, #40]	; 0x28
 80014f2:	629a      	str	r2, [r3, #40]	; 0x28
 80014f4:	691c      	ldr	r4, [r3, #16]
 80014f6:	6119      	str	r1, [r3, #16]
 80014f8:	611a      	str	r2, [r3, #16]
 80014fa:	68dc      	ldr	r4, [r3, #12]
 80014fc:	60d9      	str	r1, [r3, #12]
 80014fe:	60da      	str	r2, [r3, #12]
 8001500:	69d9      	ldr	r1, [r3, #28]
 8001502:	f041 5180 	orr.w	r1, r1, #268435456	; 0x10000000
 8001506:	61d9      	str	r1, [r3, #28]
 8001508:	6801      	ldr	r1, [r0, #0]
 800150a:	f441 7180 	orr.w	r1, r1, #256	; 0x100
 800150e:	6001      	str	r1, [r0, #0]
 8001510:	6a19      	ldr	r1, [r3, #32]
 8001512:	f401 7140 	and.w	r1, r1, #768	; 0x300
 8001516:	f5b1 7f00 	cmp.w	r1, #512	; 0x200
 800151a:	b087      	sub	sp, #28
 800151c:	d003      	beq.n	8001526 <main+0x46>
 800151e:	f44f 3180 	mov.w	r1, #65536	; 0x10000
 8001522:	6219      	str	r1, [r3, #32]
 8001524:	621a      	str	r2, [r3, #32]
 8001526:	4bb0      	ldr	r3, [pc, #704]	; (80017e8 <main+0x308>)
 8001528:	6a1a      	ldr	r2, [r3, #32]
 800152a:	0412      	lsls	r2, r2, #16
 800152c:	d407      	bmi.n	800153e <main+0x5e>
 800152e:	6a1a      	ldr	r2, [r3, #32]
 8001530:	f442 7200 	orr.w	r2, r2, #512	; 0x200
 8001534:	621a      	str	r2, [r3, #32]
 8001536:	6a1a      	ldr	r2, [r3, #32]
 8001538:	f442 4200 	orr.w	r2, r2, #32768	; 0x8000
 800153c:	621a      	str	r2, [r3, #32]
 800153e:	4aac      	ldr	r2, [pc, #688]	; (80017f0 <main+0x310>)
 8001540:	4cac      	ldr	r4, [pc, #688]	; (80017f4 <main+0x314>)
 8001542:	48ad      	ldr	r0, [pc, #692]	; (80017f8 <main+0x318>)
 8001544:	2300      	movs	r3, #0
 8001546:	6013      	str	r3, [r2, #0]
 8001548:	4619      	mov	r1, r3
 800154a:	461a      	mov	r2, r3
 800154c:	18a5      	adds	r5, r4, r2
 800154e:	3214      	adds	r2, #20
 8001550:	686e      	ldr	r6, [r5, #4]
 8001552:	2af0      	cmp	r2, #240	; 0xf0
 8001554:	6031      	str	r1, [r6, #0]
 8001556:	f04f 0500 	mov.w	r5, #0
 800155a:	50c1      	str	r1, [r0, r3]
 800155c:	f103 0308 	add.w	r3, r3, #8
 8001560:	d1f4      	bne.n	800154c <main+0x6c>
 8001562:	4fa6      	ldr	r7, [pc, #664]	; (80017fc <main+0x31c>)
 8001564:	4ca6      	ldr	r4, [pc, #664]	; (8001800 <main+0x320>)
 8001566:	f8df 8280 	ldr.w	r8, [pc, #640]	; 80017e8 <main+0x308>
 800156a:	49a6      	ldr	r1, [pc, #664]	; (8001804 <main+0x324>)
 800156c:	f8df b2e8 	ldr.w	fp, [pc, #744]	; 8001858 <main+0x378>
 8001570:	f8df c2e8 	ldr.w	ip, [pc, #744]	; 800185c <main+0x37c>
 8001574:	f8df 92e8 	ldr.w	r9, [pc, #744]	; 8001860 <main+0x380>
 8001578:	f8df a2e8 	ldr.w	sl, [pc, #744]	; 8001864 <main+0x384>
 800157c:	4ea2      	ldr	r6, [pc, #648]	; (8001808 <main+0x328>)
 800157e:	4aa3      	ldr	r2, [pc, #652]	; (800180c <main+0x32c>)
 8001580:	4ba3      	ldr	r3, [pc, #652]	; (8001810 <main+0x330>)
 8001582:	48a4      	ldr	r0, [pc, #656]	; (8001814 <main+0x334>)
 8001584:	f04f 3eff 	mov.w	lr, #4294967295	; 0xffffffff
 8001588:	f8c7 e004 	str.w	lr, [r7, #4]
 800158c:	f8c4 e004 	str.w	lr, [r4, #4]
 8001590:	f8d8 7018 	ldr.w	r7, [r8, #24]
 8001594:	4ca0      	ldr	r4, [pc, #640]	; (8001818 <main+0x338>)
 8001596:	f047 0701 	orr.w	r7, r7, #1
 800159a:	f8c8 7018 	str.w	r7, [r8, #24]
 800159e:	680f      	ldr	r7, [r1, #0]
 80015a0:	f047 0720 	orr.w	r7, r7, #32
 80015a4:	600f      	str	r7, [r1, #0]
 80015a6:	f8d8 1014 	ldr.w	r1, [r8, #20]
 80015aa:	f441 01fc 	orr.w	r1, r1, #8257536	; 0x7e0000
 80015ae:	f8c8 1014 	str.w	r1, [r8, #20]
 80015b2:	f04f 4190 	mov.w	r1, #1207959552	; 0x48000000
 80015b6:	4637      	mov	r7, r6
 80015b8:	604d      	str	r5, [r1, #4]
 80015ba:	f8c1 b008 	str.w	fp, [r1, #8]
 80015be:	f8c1 c00c 	str.w	ip, [r1, #12]
 80015c2:	f64f 7cff 	movw	ip, #65535	; 0xffff
 80015c6:	f8c1 c014 	str.w	ip, [r1, #20]
 80015ca:	620c      	str	r4, [r1, #32]
 80015cc:	f44f 246e 	mov.w	r4, #974848	; 0xee000
 80015d0:	624c      	str	r4, [r1, #36]	; 0x24
 80015d2:	4c92      	ldr	r4, [pc, #584]	; (800181c <main+0x33c>)
 80015d4:	600c      	str	r4, [r1, #0]
 80015d6:	24c0      	movs	r4, #192	; 0xc0
 80015d8:	f24f 01c0 	movw	r1, #61632	; 0xf0c0
 80015dc:	f8c9 4004 	str.w	r4, [r9, #4]
 80015e0:	f8c9 1008 	str.w	r1, [r9, #8]
 80015e4:	498e      	ldr	r1, [pc, #568]	; (8001820 <main+0x340>)
 80015e6:	f8c9 100c 	str.w	r1, [r9, #12]
 80015ea:	f24a 0b80 	movw	fp, #41088	; 0xa080
 80015ee:	f04f 4188 	mov.w	r1, #1140850688	; 0x44000000
 80015f2:	f8c9 c014 	str.w	ip, [r9, #20]
 80015f6:	f8c9 1020 	str.w	r1, [r9, #32]
 80015fa:	f8c9 5024 	str.w	r5, [r9, #36]	; 0x24
 80015fe:	f8c9 b000 	str.w	fp, [r9]
 8001602:	f8df 9264 	ldr.w	r9, [pc, #612]	; 8001868 <main+0x388>
 8001606:	f8ca 5004 	str.w	r5, [sl, #4]
 800160a:	f04f 4170 	mov.w	r1, #4026531840	; 0xf0000000
 800160e:	f8ca 1008 	str.w	r1, [sl, #8]
 8001612:	f8ca 900c 	str.w	r9, [sl, #12]
 8001616:	f04f 3155 	mov.w	r1, #1431655765	; 0x55555555
 800161a:	f1a9 6988 	sub.w	r9, r9, #71303168	; 0x4400000
 800161e:	f8ca c014 	str.w	ip, [sl, #20]
 8001622:	f8df b248 	ldr.w	fp, [pc, #584]	; 800186c <main+0x38c>
 8001626:	f8ca 5020 	str.w	r5, [sl, #32]
 800162a:	f1a9 0940 	sub.w	r9, r9, #64	; 0x40
 800162e:	f8ca 5024 	str.w	r5, [sl, #36]	; 0x24
 8001632:	f8ca 5000 	str.w	r5, [sl]
 8001636:	6055      	str	r5, [r2, #4]
 8001638:	6095      	str	r5, [r2, #8]
 800163a:	60d1      	str	r1, [r2, #12]
 800163c:	f5a1 41aa 	sub.w	r1, r1, #21760	; 0x5500
 8001640:	f8c2 c014 	str.w	ip, [r2, #20]
 8001644:	f04f 0aff 	mov.w	sl, #255	; 0xff
 8001648:	6215      	str	r5, [r2, #32]
 800164a:	3915      	subs	r1, #21
 800164c:	6255      	str	r5, [r2, #36]	; 0x24
 800164e:	6015      	str	r5, [r2, #0]
 8001650:	605d      	str	r5, [r3, #4]
 8001652:	220f      	movs	r2, #15
 8001654:	f8c3 b008 	str.w	fp, [r3, #8]
 8001658:	f8c3 900c 	str.w	r9, [r3, #12]
 800165c:	f8df b210 	ldr.w	fp, [pc, #528]	; 8001870 <main+0x390>
 8001660:	f8df 9210 	ldr.w	r9, [pc, #528]	; 8001874 <main+0x394>
 8001664:	f8c3 a014 	str.w	sl, [r3, #20]
 8001668:	621d      	str	r5, [r3, #32]
 800166a:	625d      	str	r5, [r3, #36]	; 0x24
 800166c:	6019      	str	r1, [r3, #0]
 800166e:	6045      	str	r5, [r0, #4]
 8001670:	6082      	str	r2, [r0, #8]
 8001672:	f8c0 b00c 	str.w	fp, [r0, #12]
 8001676:	f8c0 c014 	str.w	ip, [r0, #20]
 800167a:	6205      	str	r5, [r0, #32]
 800167c:	6245      	str	r5, [r0, #36]	; 0x24
 800167e:	6005      	str	r5, [r0, #0]
 8001680:	f847 9b04 	str.w	r9, [r7], #4
 8001684:	4967      	ldr	r1, [pc, #412]	; (8001824 <main+0x344>)
 8001686:	f8df a1f0 	ldr.w	sl, [pc, #496]	; 8001878 <main+0x398>
 800168a:	6077      	str	r7, [r6, #4]
 800168c:	f106 0954 	add.w	r9, r6, #84	; 0x54
 8001690:	f106 0c0c 	add.w	ip, r6, #12
 8001694:	2701      	movs	r7, #1
 8001696:	f106 0064 	add.w	r0, r6, #100	; 0x64
 800169a:	f106 0b30 	add.w	fp, r6, #48	; 0x30
 800169e:	f8c6 c00c 	str.w	ip, [r6, #12]
 80016a2:	f8c6 c010 	str.w	ip, [r6, #16]
 80016a6:	f8c6 9018 	str.w	r9, [r6, #24]
 80016aa:	f04f 0c10 	mov.w	ip, #16
 80016ae:	f8c6 9024 	str.w	r9, [r6, #36]	; 0x24
 80016b2:	f8c6 9020 	str.w	r9, [r6, #32]
 80016b6:	f04f 0920 	mov.w	r9, #32
 80016ba:	6175      	str	r5, [r6, #20]
 80016bc:	61f0      	str	r0, [r6, #28]
 80016be:	f8c6 c038 	str.w	ip, [r6, #56]	; 0x38
 80016c2:	f8c6 b030 	str.w	fp, [r6, #48]	; 0x30
 80016c6:	f8c6 b034 	str.w	fp, [r6, #52]	; 0x34
 80016ca:	f88a 7000 	strb.w	r7, [sl]
 80016ce:	f8ca 5004 	str.w	r5, [sl, #4]
 80016d2:	62b5      	str	r5, [r6, #40]	; 0x28
 80016d4:	62f6      	str	r6, [r6, #44]	; 0x2c
 80016d6:	7237      	strb	r7, [r6, #8]
 80016d8:	63f0      	str	r0, [r6, #60]	; 0x3c
 80016da:	f881 4325 	strb.w	r4, [r1, #805]	; 0x325
 80016de:	f8c1 9184 	str.w	r9, [r1, #388]	; 0x184
 80016e2:	f8c1 9004 	str.w	r9, [r1, #4]
 80016e6:	f8d8 b01c 	ldr.w	fp, [r8, #28]
 80016ea:	64b0      	str	r0, [r6, #72]	; 0x48
 80016ec:	6470      	str	r0, [r6, #68]	; 0x44
 80016ee:	f106 0074 	add.w	r0, r6, #116	; 0x74
 80016f2:	6430      	str	r0, [r6, #64]	; 0x40
 80016f4:	484c      	ldr	r0, [pc, #304]	; (8001828 <main+0x348>)
 80016f6:	64f0      	str	r0, [r6, #76]	; 0x4c
 80016f8:	484c      	ldr	r0, [pc, #304]	; (800182c <main+0x34c>)
 80016fa:	4a4d      	ldr	r2, [pc, #308]	; (8001830 <main+0x350>)
 80016fc:	f8df a17c 	ldr.w	sl, [pc, #380]	; 800187c <main+0x39c>
 8001700:	6770      	str	r0, [r6, #116]	; 0x74
 8001702:	484c      	ldr	r0, [pc, #304]	; (8001834 <main+0x354>)
 8001704:	67b0      	str	r0, [r6, #120]	; 0x78
 8001706:	484c      	ldr	r0, [pc, #304]	; (8001838 <main+0x358>)
 8001708:	4b4c      	ldr	r3, [pc, #304]	; (800183c <main+0x35c>)
 800170a:	61d0      	str	r0, [r2, #28]
 800170c:	f10a 0014 	add.w	r0, sl, #20
 8001710:	6250      	str	r0, [r2, #36]	; 0x24
 8001712:	484b      	ldr	r0, [pc, #300]	; (8001840 <main+0x360>)
 8001714:	f8c2 a020 	str.w	sl, [r2, #32]
 8001718:	61d8      	str	r0, [r3, #28]
 800171a:	f10a 0078 	add.w	r0, sl, #120	; 0x78
 800171e:	f10a 0a8c 	add.w	sl, sl, #140	; 0x8c
 8001722:	4c48      	ldr	r4, [pc, #288]	; (8001844 <main+0x364>)
 8001724:	6218      	str	r0, [r3, #32]
 8001726:	f8c3 a024 	str.w	sl, [r3, #36]	; 0x24
 800172a:	f102 000c 	add.w	r0, r2, #12
 800172e:	f103 0a0c 	add.w	sl, r3, #12
 8001732:	ea4b 0b07 	orr.w	fp, fp, r7
 8001736:	60d0      	str	r0, [r2, #12]
 8001738:	6110      	str	r0, [r2, #16]
 800173a:	f8c3 a00c 	str.w	sl, [r3, #12]
 800173e:	f241 000a 	movw	r0, #4106	; 0x100a
 8001742:	f8c3 a010 	str.w	sl, [r3, #16]
 8001746:	f241 0a18 	movw	sl, #4120	; 0x1018
 800174a:	7017      	strb	r7, [r2, #0]
 800174c:	701f      	strb	r7, [r3, #0]
 800174e:	6055      	str	r5, [r2, #4]
 8001750:	6095      	str	r5, [r2, #8]
 8001752:	6155      	str	r5, [r2, #20]
 8001754:	605d      	str	r5, [r3, #4]
 8001756:	609d      	str	r5, [r3, #8]
 8001758:	615d      	str	r5, [r3, #20]
 800175a:	6290      	str	r0, [r2, #40]	; 0x28
 800175c:	6298      	str	r0, [r3, #40]	; 0x28
 800175e:	f8c2 a02c 	str.w	sl, [r2, #44]	; 0x2c
 8001762:	f8c3 a02c 	str.w	sl, [r3, #44]	; 0x2c
 8001766:	6536      	str	r6, [r6, #80]	; 0x50
 8001768:	f8c8 b01c 	str.w	fp, [r8, #28]
 800176c:	f8d4 b008 	ldr.w	fp, [r4, #8]
 8001770:	f8df a10c 	ldr.w	sl, [pc, #268]	; 8001880 <main+0x3a0>
 8001774:	4b34      	ldr	r3, [pc, #208]	; (8001848 <main+0x368>)
 8001776:	4835      	ldr	r0, [pc, #212]	; (800184c <main+0x36c>)
 8001778:	4a35      	ldr	r2, [pc, #212]	; (8001850 <main+0x370>)
 800177a:	ea4b 0b07 	orr.w	fp, fp, r7
 800177e:	f8c4 b008 	str.w	fp, [r4, #8]
 8001782:	f04f 4480 	mov.w	r4, #1073741824	; 0x40000000
 8001786:	f641 4b1f 	movw	fp, #7199	; 0x1c1f
 800178a:	f8c4 b028 	str.w	fp, [r4, #40]	; 0x28
 800178e:	f8c4 e02c 	str.w	lr, [r4, #44]	; 0x2c
 8001792:	f04f 0b80 	mov.w	fp, #128	; 0x80
 8001796:	61a5      	str	r5, [r4, #24]
 8001798:	6365      	str	r5, [r4, #52]	; 0x34
 800179a:	60e5      	str	r5, [r4, #12]
 800179c:	6065      	str	r5, [r4, #4]
 800179e:	6167      	str	r7, [r4, #20]
 80017a0:	6027      	str	r7, [r4, #0]
 80017a2:	f04f 5480 	mov.w	r4, #268435456	; 0x10000000
 80017a6:	f881 b31c 	strb.w	fp, [r1, #796]	; 0x31c
 80017aa:	f8c1 4180 	str.w	r4, [r1, #384]	; 0x180
 80017ae:	600c      	str	r4, [r1, #0]
 80017b0:	f8ca 5008 	str.w	r5, [sl, #8]
 80017b4:	f8da b00c 	ldr.w	fp, [sl, #12]
 80017b8:	4c26      	ldr	r4, [pc, #152]	; (8001854 <main+0x374>)
 80017ba:	f64f 01ff 	movw	r1, #63743	; 0xf8ff
 80017be:	ea0b 0101 	and.w	r1, fp, r1
 80017c2:	430b      	orrs	r3, r1
 80017c4:	f8ca 300c 	str.w	r3, [sl, #12]
 80017c8:	68c3      	ldr	r3, [r0, #12]
 80017ca:	f8c4 e024 	str.w	lr, [r4, #36]	; 0x24
 80017ce:	f043 7380 	orr.w	r3, r3, #16777216	; 0x1000000
 80017d2:	60c3      	str	r3, [r0, #12]
 80017d4:	6813      	ldr	r3, [r2, #0]
 80017d6:	6064      	str	r4, [r4, #4]
 80017d8:	433b      	orrs	r3, r7
 80017da:	6013      	str	r3, [r2, #0]
 80017dc:	f104 011c 	add.w	r1, r4, #28
 80017e0:	2200      	movs	r2, #0
 80017e2:	2300      	movs	r3, #0
 80017e4:	e04e      	b.n	8001884 <main+0x3a4>
 80017e6:	bf00      	nop
 80017e8:	40021000 	.word	0x40021000
 80017ec:	40007000 	.word	0x40007000
 80017f0:	20000b00 	.word	0x20000b00
 80017f4:	08003180 	.word	0x08003180
 80017f8:	20000a74 	.word	0x20000a74
 80017fc:	40020000 	.word	0x40020000
 8001800:	40020400 	.word	0x40020400
 8001804:	40010000 	.word	0x40010000
 8001808:	200009bc 	.word	0x200009bc
 800180c:	48000c00 	.word	0x48000c00
 8001810:	48001000 	.word	0x48001000
 8001814:	48001400 	.word	0x48001400
 8001818:	55500000 	.word	0x55500000
 800181c:	2a80a800 	.word	0x2a80a800
 8001820:	55550515 	.word	0x55550515
 8001824:	e000e100 	.word	0xe000e100
 8001828:	08000581 	.word	0x08000581
 800182c:	40013800 	.word	0x40013800
 8001830:	20000988 	.word	0x20000988
 8001834:	02255100 	.word	0x02255100
 8001838:	40013000 	.word	0x40013000
 800183c:	20000a38 	.word	0x20000a38
 8001840:	40003c00 	.word	0x40003c00
 8001844:	e0042000 	.word	0xe0042000
 8001848:	05fa0300 	.word	0x05fa0300
 800184c:	e000edf0 	.word	0xe000edf0
 8001850:	e0001000 	.word	0xe0001000
 8001854:	20000838 	.word	0x20000838
 8001858:	3cc0fc00 	.word	0x3cc0fc00
 800185c:	64151154 	.word	0x64151154
 8001860:	48000400 	.word	0x48000400
 8001864:	48000800 	.word	0x48000800
 8001868:	05555555 	.word	0x05555555
 800186c:	ffff00c0 	.word	0xffff00c0
 8001870:	55555550 	.word	0x55555550
 8001874:	080030c0 	.word	0x080030c0
 8001878:	20000ad8 	.word	0x20000ad8
 800187c:	08003194 	.word	0x08003194
 8001880:	e000ed00 	.word	0xe000ed00
 8001884:	4668      	mov	r0, sp
 8001886:	f88a c01f 	strb.w	ip, [sl, #31]
 800188a:	60a5      	str	r5, [r4, #8]
 800188c:	f88a 9022 	strb.w	r9, [sl, #34]	; 0x22
 8001890:	f8cd e000 	str.w	lr, [sp]
 8001894:	61e1      	str	r1, [r4, #28]
 8001896:	6221      	str	r1, [r4, #32]
 8001898:	6124      	str	r4, [r4, #16]
 800189a:	6024      	str	r4, [r4, #0]
 800189c:	6164      	str	r4, [r4, #20]
 800189e:	62a5      	str	r5, [r4, #40]	; 0x28
 80018a0:	6725      	str	r5, [r4, #112]	; 0x70
 80018a2:	9501      	str	r5, [sp, #4]
 80018a4:	e9cd 2304 	strd	r2, r3, [sp, #16]
 80018a8:	9502      	str	r5, [sp, #8]
 80018aa:	9503      	str	r5, [sp, #12]
 80018ac:	f7ff f980 	bl	8000bb0 <chTMStartMeasurementX.constprop.35>
 80018b0:	4668      	mov	r0, sp
 80018b2:	f001 f94d 	bl	8002b50 <chTMStopMeasurementX>
 80018b6:	4ba0      	ldr	r3, [pc, #640]	; (8001b38 <main+0x658>)
 80018b8:	4aa0      	ldr	r2, [pc, #640]	; (8001b3c <main+0x65c>)
 80018ba:	f8df b2b8 	ldr.w	fp, [pc, #696]	; 8001b74 <main+0x694>
 80018be:	6961      	ldr	r1, [r4, #20]
 80018c0:	f8df a2b4 	ldr.w	sl, [pc, #692]	; 8001b78 <main+0x698>
 80018c4:	f8df e2b4 	ldr.w	lr, [pc, #692]	; 8001b7c <main+0x69c>
 80018c8:	6461      	str	r1, [r4, #68]	; 0x44
 80018ca:	f103 0010 	add.w	r0, r3, #16
 80018ce:	f022 0c07 	bic.w	ip, r2, #7
 80018d2:	9a02      	ldr	r2, [sp, #8]
 80018d4:	6722      	str	r2, [r4, #112]	; 0x70
 80018d6:	6118      	str	r0, [r3, #16]
 80018d8:	f104 0230 	add.w	r2, r4, #48	; 0x30
 80018dc:	6158      	str	r0, [r3, #20]
 80018de:	f02b 0b07 	bic.w	fp, fp, #7
 80018e2:	2040      	movs	r0, #64	; 0x40
 80018e4:	63a0      	str	r0, [r4, #56]	; 0x38
 80018e6:	66a0      	str	r0, [r4, #104]	; 0x68
 80018e8:	f884 504d 	strb.w	r5, [r4, #77]	; 0x4d
 80018ec:	6665      	str	r5, [r4, #100]	; 0x64
 80018ee:	6625      	str	r5, [r4, #96]	; 0x60
 80018f0:	f884 704e 	strb.w	r7, [r4, #78]	; 0x4e
 80018f4:	64a5      	str	r5, [r4, #72]	; 0x48
 80018f6:	6424      	str	r4, [r4, #64]	; 0x40
 80018f8:	619d      	str	r5, [r3, #24]
 80018fa:	f8ca b000 	str.w	fp, [sl]
 80018fe:	610a      	str	r2, [r1, #16]
 8001900:	f104 0a54 	add.w	sl, r4, #84	; 0x54
 8001904:	f104 0158 	add.w	r1, r4, #88	; 0x58
 8001908:	488d      	ldr	r0, [pc, #564]	; (8001b40 <main+0x660>)
 800190a:	f8ce c000 	str.w	ip, [lr]
 800190e:	609d      	str	r5, [r3, #8]
 8001910:	60dd      	str	r5, [r3, #12]
 8001912:	6162      	str	r2, [r4, #20]
 8001914:	61a2      	str	r2, [r4, #24]
 8001916:	f884 704c 	strb.w	r7, [r4, #76]	; 0x4c
 800191a:	f8c4 a054 	str.w	sl, [r4, #84]	; 0x54
 800191e:	6018      	str	r0, [r3, #0]
 8001920:	65a1      	str	r1, [r4, #88]	; 0x58
 8001922:	65e1      	str	r1, [r4, #92]	; 0x5c
 8001924:	f04f 0e02 	mov.w	lr, #2
 8001928:	f385 8811 	msr	BASEPRI, r5
 800192c:	b662      	cpsie	i
 800192e:	69a3      	ldr	r3, [r4, #24]
 8001930:	4a84      	ldr	r2, [pc, #528]	; (8001b44 <main+0x664>)
 8001932:	619a      	str	r2, [r3, #24]
 8001934:	f389 8811 	msr	BASEPRI, r9
 8001938:	6962      	ldr	r2, [r4, #20]
 800193a:	4983      	ldr	r1, [pc, #524]	; (8001b48 <main+0x668>)
 800193c:	f8df a240 	ldr.w	sl, [pc, #576]	; 8001b80 <main+0x6a0>
 8001940:	f8c4 112c 	str.w	r1, [r4, #300]	; 0x12c
 8001944:	f104 0378 	add.w	r3, r4, #120	; 0x78
 8001948:	f504 7096 	add.w	r0, r4, #300	; 0x12c
 800194c:	f8c4 0084 	str.w	r0, [r4, #132]	; 0x84
 8001950:	f8c4 208c 	str.w	r2, [r4, #140]	; 0x8c
 8001954:	f8c4 5130 	str.w	r5, [r4, #304]	; 0x130
 8001958:	f8c4 7080 	str.w	r7, [r4, #128]	; 0x80
 800195c:	f884 e094 	strb.w	lr, [r4, #148]	; 0x94
 8001960:	f884 5095 	strb.w	r5, [r4, #149]	; 0x95
 8001964:	f8c4 70b0 	str.w	r7, [r4, #176]	; 0xb0
 8001968:	f8c4 50ac 	str.w	r5, [r4, #172]	; 0xac
 800196c:	f8c4 50a8 	str.w	r5, [r4, #168]	; 0xa8
 8001970:	f884 7096 	strb.w	r7, [r4, #150]	; 0x96
 8001974:	f8c4 5090 	str.w	r5, [r4, #144]	; 0x90
 8001978:	f8c4 4088 	str.w	r4, [r4, #136]	; 0x88
 800197c:	f8c4 a14c 	str.w	sl, [r4, #332]	; 0x14c
 8001980:	f104 019c 	add.w	r1, r4, #156	; 0x9c
 8001984:	6113      	str	r3, [r2, #16]
 8001986:	f104 02a0 	add.w	r2, r4, #160	; 0xa0
 800198a:	4618      	mov	r0, r3
 800198c:	f8c4 109c 	str.w	r1, [r4, #156]	; 0x9c
 8001990:	f8c4 20a0 	str.w	r2, [r4, #160]	; 0xa0
 8001994:	f8c4 20a4 	str.w	r2, [r4, #164]	; 0xa4
 8001998:	6163      	str	r3, [r4, #20]
 800199a:	f7ff f8d9 	bl	8000b50 <chSchWakeupS.constprop.38>
 800199e:	f385 8811 	msr	BASEPRI, r5
 80019a2:	4b6a      	ldr	r3, [pc, #424]	; (8001b4c <main+0x66c>)
 80019a4:	f8c4 3090 	str.w	r3, [r4, #144]	; 0x90
 80019a8:	f389 8811 	msr	BASEPRI, r9
 80019ac:	7a33      	ldrb	r3, [r6, #8]
 80019ae:	42bb      	cmp	r3, r7
 80019b0:	d105      	bne.n	80019be <main+0x4de>
 80019b2:	f8d8 3018 	ldr.w	r3, [r8, #24]
 80019b6:	f443 4380 	orr.w	r3, r3, #16384	; 0x4000
 80019ba:	f8c8 3018 	str.w	r3, [r8, #24]
 80019be:	6fb2      	ldr	r2, [r6, #120]	; 0x78
 80019c0:	4963      	ldr	r1, [pc, #396]	; (8001b50 <main+0x670>)
 80019c2:	6f73      	ldr	r3, [r6, #116]	; 0x74
 80019c4:	fba1 0202 	umull	r0, r2, r1, r2
 80019c8:	0b10      	lsrs	r0, r2, #12
 80019ca:	f244 0140 	movw	r1, #16448	; 0x4040
 80019ce:	2701      	movs	r7, #1
 80019d0:	f240 122d 	movw	r2, #301	; 0x12d
 80019d4:	f04f 3bff 	mov.w	fp, #4294967295	; 0xffffffff
 80019d8:	f04f 0802 	mov.w	r8, #2
 80019dc:	60d8      	str	r0, [r3, #12]
 80019de:	2500      	movs	r5, #0
 80019e0:	6059      	str	r1, [r3, #4]
 80019e2:	609f      	str	r7, [r3, #8]
 80019e4:	601a      	str	r2, [r3, #0]
 80019e6:	f8c3 b020 	str.w	fp, [r3, #32]
 80019ea:	f886 8008 	strb.w	r8, [r6, #8]
 80019ee:	f385 8811 	msr	BASEPRI, r5
 80019f2:	4858      	ldr	r0, [pc, #352]	; (8001b54 <main+0x674>)
 80019f4:	2110      	movs	r1, #16
 80019f6:	f240 3282 	movw	r2, #898	; 0x382
 80019fa:	f7ff fbf1 	bl	80011e0 <_pal_lld_setgroupmode>
 80019fe:	4855      	ldr	r0, [pc, #340]	; (8001b54 <main+0x674>)
 8001a00:	2120      	movs	r1, #32
 8001a02:	f240 3282 	movw	r2, #898	; 0x382
 8001a06:	f7ff fbeb 	bl	80011e0 <_pal_lld_setgroupmode>
 8001a0a:	f04f 4090 	mov.w	r0, #1207959552	; 0x48000000
 8001a0e:	2120      	movs	r1, #32
 8001a10:	f240 2282 	movw	r2, #642	; 0x282
 8001a14:	f7ff fbe4 	bl	80011e0 <_pal_lld_setgroupmode>
 8001a18:	f04f 4090 	mov.w	r0, #1207959552	; 0x48000000
 8001a1c:	2140      	movs	r1, #64	; 0x40
 8001a1e:	f240 2282 	movw	r2, #642	; 0x282
 8001a22:	f7ff fbdd 	bl	80011e0 <_pal_lld_setgroupmode>
 8001a26:	f04f 4090 	mov.w	r0, #1207959552	; 0x48000000
 8001a2a:	2180      	movs	r1, #128	; 0x80
 8001a2c:	f240 2282 	movw	r2, #642	; 0x282
 8001a30:	f7ff fbd6 	bl	80011e0 <_pal_lld_setgroupmode>
 8001a34:	463a      	mov	r2, r7
 8001a36:	f04f 4090 	mov.w	r0, #1207959552	; 0x48000000
 8001a3a:	f44f 7180 	mov.w	r1, #256	; 0x100
 8001a3e:	f7ff fbcf 	bl	80011e0 <_pal_lld_setgroupmode>
 8001a42:	463a      	mov	r2, r7
 8001a44:	4844      	ldr	r0, [pc, #272]	; (8001b58 <main+0x678>)
 8001a46:	2108      	movs	r1, #8
 8001a48:	f7ff fbca 	bl	80011e0 <_pal_lld_setgroupmode>
 8001a4c:	f04f 4390 	mov.w	r3, #1207959552	; 0x48000000
 8001a50:	f44f 7280 	mov.w	r2, #256	; 0x100
 8001a54:	831a      	strh	r2, [r3, #24]
 8001a56:	483f      	ldr	r0, [pc, #252]	; (8001b54 <main+0x674>)
 8001a58:	2220      	movs	r2, #32
 8001a5a:	2108      	movs	r1, #8
 8001a5c:	f7ff fbc0 	bl	80011e0 <_pal_lld_setgroupmode>
 8001a60:	493e      	ldr	r1, [pc, #248]	; (8001b5c <main+0x67c>)
 8001a62:	483f      	ldr	r0, [pc, #252]	; (8001b60 <main+0x680>)
 8001a64:	f7ff f9ec 	bl	8000e40 <chprintf>
 8001a68:	4b3e      	ldr	r3, [pc, #248]	; (8001b64 <main+0x684>)
 8001a6a:	f04f 0920 	mov.w	r9, #32
 8001a6e:	601b      	str	r3, [r3, #0]
 8001a70:	f389 8811 	msr	BASEPRI, r9
 8001a74:	6819      	ldr	r1, [r3, #0]
 8001a76:	69a2      	ldr	r2, [r4, #24]
 8001a78:	9100      	str	r1, [sp, #0]
 8001a7a:	eb0d 0105 	add.w	r1, sp, r5
 8001a7e:	9702      	str	r7, [sp, #8]
 8001a80:	9503      	str	r5, [sp, #12]
 8001a82:	f8cd b010 	str.w	fp, [sp, #16]
 8001a86:	6019      	str	r1, [r3, #0]
 8001a88:	9201      	str	r2, [sp, #4]
 8001a8a:	f385 8811 	msr	BASEPRI, r5
 8001a8e:	f000 fc47 	bl	8002320 <chThdCreateFromHeap.constprop.28>
 8001a92:	4b35      	ldr	r3, [pc, #212]	; (8001b68 <main+0x688>)
 8001a94:	6018      	str	r0, [r3, #0]
 8001a96:	f389 8811 	msr	BASEPRI, r9
 8001a9a:	4b34      	ldr	r3, [pc, #208]	; (8001b6c <main+0x68c>)
 8001a9c:	6962      	ldr	r2, [r4, #20]
 8001a9e:	4834      	ldr	r0, [pc, #208]	; (8001b70 <main+0x690>)
 8001aa0:	f8c3 0124 	str.w	r0, [r3, #292]	; 0x124
 8001aa4:	2141      	movs	r1, #65	; 0x41
 8001aa6:	615a      	str	r2, [r3, #20]
 8001aa8:	f8c3 a144 	str.w	sl, [r3, #324]	; 0x144
 8001aac:	f8c3 5128 	str.w	r5, [r3, #296]	; 0x128
 8001ab0:	f883 801c 	strb.w	r8, [r3, #28]
 8001ab4:	775d      	strb	r5, [r3, #29]
 8001ab6:	635d      	str	r5, [r3, #52]	; 0x34
 8001ab8:	631d      	str	r5, [r3, #48]	; 0x30
 8001aba:	779f      	strb	r7, [r3, #30]
 8001abc:	619d      	str	r5, [r3, #24]
 8001abe:	611c      	str	r4, [r3, #16]
 8001ac0:	f503 7e92 	add.w	lr, r3, #292	; 0x124
 8001ac4:	6399      	str	r1, [r3, #56]	; 0x38
 8001ac6:	f103 0624 	add.w	r6, r3, #36	; 0x24
 8001aca:	6113      	str	r3, [r2, #16]
 8001acc:	f103 0228 	add.w	r2, r3, #40	; 0x28
 8001ad0:	4618      	mov	r0, r3
 8001ad2:	f8c3 e00c 	str.w	lr, [r3, #12]
 8001ad6:	6099      	str	r1, [r3, #8]
 8001ad8:	625e      	str	r6, [r3, #36]	; 0x24
 8001ada:	629a      	str	r2, [r3, #40]	; 0x28
 8001adc:	62da      	str	r2, [r3, #44]	; 0x2c
 8001ade:	6163      	str	r3, [r4, #20]
 8001ae0:	f7ff f836 	bl	8000b50 <chSchWakeupS.constprop.38>
 8001ae4:	f385 8811 	msr	BASEPRI, r5
 8001ae8:	f8df 8098 	ldr.w	r8, [pc, #152]	; 8001b84 <main+0x6a4>
 8001aec:	69a5      	ldr	r5, [r4, #24]
 8001aee:	f389 8811 	msr	BASEPRI, r9
 8001af2:	6b2b      	ldr	r3, [r5, #48]	; 0x30
 8001af4:	b933      	cbnz	r3, 8001b04 <main+0x624>
 8001af6:	f04f 33ff 	mov.w	r3, #4294967295	; 0xffffffff
 8001afa:	622b      	str	r3, [r5, #32]
 8001afc:	200a      	movs	r0, #10
 8001afe:	f001 f86f 	bl	8002be0 <chSchGoSleepS>
 8001b02:	6b2b      	ldr	r3, [r5, #48]	; 0x30
 8001b04:	425e      	negs	r6, r3
 8001b06:	401e      	ands	r6, r3
 8001b08:	ea23 0306 	bic.w	r3, r3, r6
 8001b0c:	632b      	str	r3, [r5, #48]	; 0x30
 8001b0e:	2500      	movs	r5, #0
 8001b10:	f385 8811 	msr	BASEPRI, r5
 8001b14:	b91e      	cbnz	r6, 8001b1e <main+0x63e>
 8001b16:	e7e9      	b.n	8001aec <main+0x60c>
 8001b18:	3501      	adds	r5, #1
 8001b1a:	2e00      	cmp	r6, #0
 8001b1c:	d0e6      	beq.n	8001aec <main+0x60c>
 8001b1e:	fa26 f305 	lsr.w	r3, r6, r5
 8001b22:	07db      	lsls	r3, r3, #31
 8001b24:	d5f8      	bpl.n	8001b18 <main+0x638>
 8001b26:	fa07 f205 	lsl.w	r2, r7, r5
 8001b2a:	f858 3025 	ldr.w	r3, [r8, r5, lsl #2]
 8001b2e:	4628      	mov	r0, r5
 8001b30:	ea26 0602 	bic.w	r6, r6, r2
 8001b34:	4798      	blx	r3
 8001b36:	e7ef      	b.n	8001b18 <main+0x638>
 8001b38:	20000ae0 	.word	0x20000ae0
 8001b3c:	2000a000 	.word	0x2000a000
 8001b40:	080025b1 	.word	0x080025b1
 8001b44:	08003320 	.word	0x08003320
 8001b48:	08002661 	.word	0x08002661
 8001b4c:	080032f8 	.word	0x080032f8
 8001b50:	1b4e81b5 	.word	0x1b4e81b5
 8001b54:	48000800 	.word	0x48000800
 8001b58:	48001000 	.word	0x48001000
 8001b5c:	08003300 	.word	0x08003300
 8001b60:	200009bc 	.word	0x200009bc
 8001b64:	20000ad4 	.word	0x20000ad4
 8001b68:	20000a6c 	.word	0x20000a6c
 8001b6c:	20000b08 	.word	0x20000b08
 8001b70:	08001d01 	.word	0x08001d01
 8001b74:	20000c57 	.word	0x20000c57
 8001b78:	20000834 	.word	0x20000834
 8001b7c:	20000a70 	.word	0x20000a70
 8001b80:	080002f1 	.word	0x080002f1
 8001b84:	20000800 	.word	0x20000800
 8001b88:	f3af 8000 	nop.w
 8001b8c:	f3af 8000 	nop.w

08001b90 <__early_init>:
 8001b90:	4924      	ldr	r1, [pc, #144]	; (8001c24 <__early_init+0x94>)
 8001b92:	680b      	ldr	r3, [r1, #0]
 8001b94:	f043 0301 	orr.w	r3, r3, #1
 8001b98:	600b      	str	r3, [r1, #0]
 8001b9a:	680b      	ldr	r3, [r1, #0]
 8001b9c:	4a21      	ldr	r2, [pc, #132]	; (8001c24 <__early_init+0x94>)
 8001b9e:	0798      	lsls	r0, r3, #30
 8001ba0:	d5fb      	bpl.n	8001b9a <__early_init+0xa>
 8001ba2:	6853      	ldr	r3, [r2, #4]
 8001ba4:	f023 0303 	bic.w	r3, r3, #3
 8001ba8:	6053      	str	r3, [r2, #4]
 8001baa:	6853      	ldr	r3, [r2, #4]
 8001bac:	6053      	str	r3, [r2, #4]
 8001bae:	4611      	mov	r1, r2
 8001bb0:	684b      	ldr	r3, [r1, #4]
 8001bb2:	4a1c      	ldr	r2, [pc, #112]	; (8001c24 <__early_init+0x94>)
 8001bb4:	f013 030c 	ands.w	r3, r3, #12
 8001bb8:	d1fa      	bne.n	8001bb0 <__early_init+0x20>
 8001bba:	6811      	ldr	r1, [r2, #0]
 8001bbc:	f001 01f9 	and.w	r1, r1, #249	; 0xf9
 8001bc0:	6011      	str	r1, [r2, #0]
 8001bc2:	6053      	str	r3, [r2, #4]
 8001bc4:	6813      	ldr	r3, [r2, #0]
 8001bc6:	f443 23a0 	orr.w	r3, r3, #327680	; 0x50000
 8001bca:	6013      	str	r3, [r2, #0]
 8001bcc:	6813      	ldr	r3, [r2, #0]
 8001bce:	4915      	ldr	r1, [pc, #84]	; (8001c24 <__early_init+0x94>)
 8001bd0:	039b      	lsls	r3, r3, #14
 8001bd2:	d5fb      	bpl.n	8001bcc <__early_init+0x3c>
 8001bd4:	6a4b      	ldr	r3, [r1, #36]	; 0x24
 8001bd6:	f043 0301 	orr.w	r3, r3, #1
 8001bda:	624b      	str	r3, [r1, #36]	; 0x24
 8001bdc:	6a4b      	ldr	r3, [r1, #36]	; 0x24
 8001bde:	4a11      	ldr	r2, [pc, #68]	; (8001c24 <__early_init+0x94>)
 8001be0:	0798      	lsls	r0, r3, #30
 8001be2:	d5fb      	bpl.n	8001bdc <__early_init+0x4c>
 8001be4:	4b10      	ldr	r3, [pc, #64]	; (8001c28 <__early_init+0x98>)
 8001be6:	6053      	str	r3, [r2, #4]
 8001be8:	f44f 5104 	mov.w	r1, #8448	; 0x2100
 8001bec:	2330      	movs	r3, #48	; 0x30
 8001bee:	62d1      	str	r1, [r2, #44]	; 0x2c
 8001bf0:	6313      	str	r3, [r2, #48]	; 0x30
 8001bf2:	6813      	ldr	r3, [r2, #0]
 8001bf4:	f043 7380 	orr.w	r3, r3, #16777216	; 0x1000000
 8001bf8:	6013      	str	r3, [r2, #0]
 8001bfa:	6813      	ldr	r3, [r2, #0]
 8001bfc:	4909      	ldr	r1, [pc, #36]	; (8001c24 <__early_init+0x94>)
 8001bfe:	019b      	lsls	r3, r3, #6
 8001c00:	d5fb      	bpl.n	8001bfa <__early_init+0x6a>
 8001c02:	4b0a      	ldr	r3, [pc, #40]	; (8001c2c <__early_init+0x9c>)
 8001c04:	2212      	movs	r2, #18
 8001c06:	601a      	str	r2, [r3, #0]
 8001c08:	684b      	ldr	r3, [r1, #4]
 8001c0a:	f043 0302 	orr.w	r3, r3, #2
 8001c0e:	604b      	str	r3, [r1, #4]
 8001c10:	684b      	ldr	r3, [r1, #4]
 8001c12:	4a04      	ldr	r2, [pc, #16]	; (8001c24 <__early_init+0x94>)
 8001c14:	f003 030c 	and.w	r3, r3, #12
 8001c18:	2b08      	cmp	r3, #8
 8001c1a:	d1f9      	bne.n	8001c10 <__early_init+0x80>
 8001c1c:	6b13      	ldr	r3, [r2, #48]	; 0x30
 8001c1e:	6313      	str	r3, [r2, #48]	; 0x30
 8001c20:	4770      	bx	lr
 8001c22:	bf00      	nop
 8001c24:	40021000 	.word	0x40021000
 8001c28:	001d2400 	.word	0x001d2400
 8001c2c:	40022000 	.word	0x40022000

08001c30 <chThdExit>:
 8001c30:	2320      	movs	r3, #32
 8001c32:	f383 8811 	msr	BASEPRI, r3
 8001c36:	f001 b8e3 	b.w	8002e00 <chThdExitS>
 8001c3a:	bf00      	nop
 8001c3c:	f3af 8000 	nop.w

08001c40 <chSchDoReschedule>:
 8001c40:	f000 bfae 	b.w	8002ba0 <chSchDoRescheduleAhead>
 8001c44:	f3af 8000 	nop.w
 8001c48:	f3af 8000 	nop.w
 8001c4c:	f3af 8000 	nop.w

08001c50 <__init_ram_areas>:
 8001c50:	b4f0      	push	{r4, r5, r6, r7}
 8001c52:	4e13      	ldr	r6, [pc, #76]	; (8001ca0 <__init_ram_areas+0x50>)
 8001c54:	2500      	movs	r5, #0
 8001c56:	f106 0770 	add.w	r7, r6, #112	; 0x70
 8001c5a:	f1a6 0110 	sub.w	r1, r6, #16
 8001c5e:	c91a      	ldmia	r1, {r1, r3, r4}
 8001c60:	42a3      	cmp	r3, r4
 8001c62:	d20d      	bcs.n	8001c80 <__init_ram_areas+0x30>
 8001c64:	3904      	subs	r1, #4
 8001c66:	461a      	mov	r2, r3
 8001c68:	f851 0f04 	ldr.w	r0, [r1, #4]!
 8001c6c:	f842 0b04 	str.w	r0, [r2], #4
 8001c70:	42a2      	cmp	r2, r4
 8001c72:	d3f9      	bcc.n	8001c68 <__init_ram_areas+0x18>
 8001c74:	43da      	mvns	r2, r3
 8001c76:	4414      	add	r4, r2
 8001c78:	f024 0403 	bic.w	r4, r4, #3
 8001c7c:	3404      	adds	r4, #4
 8001c7e:	4423      	add	r3, r4
 8001c80:	f856 2c04 	ldr.w	r2, [r6, #-4]
 8001c84:	4293      	cmp	r3, r2
 8001c86:	d203      	bcs.n	8001c90 <__init_ram_areas+0x40>
 8001c88:	f843 5b04 	str.w	r5, [r3], #4
 8001c8c:	4293      	cmp	r3, r2
 8001c8e:	d3fb      	bcc.n	8001c88 <__init_ram_areas+0x38>
 8001c90:	42be      	cmp	r6, r7
 8001c92:	f106 0310 	add.w	r3, r6, #16
 8001c96:	d201      	bcs.n	8001c9c <__init_ram_areas+0x4c>
 8001c98:	461e      	mov	r6, r3
 8001c9a:	e7de      	b.n	8001c5a <__init_ram_areas+0xa>
 8001c9c:	bcf0      	pop	{r4, r5, r6, r7}
 8001c9e:	4770      	bx	lr
 8001ca0:	080030f0 	.word	0x080030f0
 8001ca4:	f3af 8000 	nop.w
 8001ca8:	f3af 8000 	nop.w
 8001cac:	f3af 8000 	nop.w

08001cb0 <__default_exit>:
 8001cb0:	e7fe      	b.n	8001cb0 <__default_exit>
 8001cb2:	bf00      	nop
 8001cb4:	f3af 8000 	nop.w
 8001cb8:	f3af 8000 	nop.w
 8001cbc:	f3af 8000 	nop.w

08001cc0 <__late_init>:
 8001cc0:	4770      	bx	lr
 8001cc2:	bf00      	nop
 8001cc4:	f3af 8000 	nop.w
 8001cc8:	f3af 8000 	nop.w
 8001ccc:	f3af 8000 	nop.w

08001cd0 <__core_init>:
 8001cd0:	4770      	bx	lr
 8001cd2:	bf00      	nop
 8001cd4:	f3af 8000 	nop.w
 8001cd8:	f3af 8000 	nop.w
 8001cdc:	f3af 8000 	nop.w

08001ce0 <spi_lld_serve_tx_interrupt.8827.4366>:
 8001ce0:	070b      	lsls	r3, r1, #28
 8001ce2:	d400      	bmi.n	8001ce6 <spi_lld_serve_tx_interrupt.8827.4366+0x6>
 8001ce4:	4770      	bx	lr
 8001ce6:	b672      	cpsid	i
 8001ce8:	4b01      	ldr	r3, [pc, #4]	; (8001cf0 <spi_lld_serve_tx_interrupt.8827.4366+0x10>)
 8001cea:	4a02      	ldr	r2, [pc, #8]	; (8001cf4 <spi_lld_serve_tx_interrupt.8827.4366+0x14>)
 8001cec:	62da      	str	r2, [r3, #44]	; 0x2c
 8001cee:	e7fe      	b.n	8001cee <spi_lld_serve_tx_interrupt.8827.4366+0xe>
 8001cf0:	20000838 	.word	0x20000838
 8001cf4:	08002ef0 	.word	0x08002ef0
 8001cf8:	f3af 8000 	nop.w
 8001cfc:	f3af 8000 	nop.w

08001d00 <counterThread.12965>:
 8001d00:	b508      	push	{r3, lr}
 8001d02:	f44f 7500 	mov.w	r5, #512	; 0x200
 8001d06:	4c06      	ldr	r4, [pc, #24]	; (8001d20 <counterThread.12965+0x20>)
 8001d08:	462e      	mov	r6, r5
 8001d0a:	8326      	strh	r6, [r4, #24]
 8001d0c:	f241 3088 	movw	r0, #5000	; 0x1388
 8001d10:	f7fe ff0e 	bl	8000b30 <chThdSleep>
 8001d14:	8365      	strh	r5, [r4, #26]
 8001d16:	f241 3088 	movw	r0, #5000	; 0x1388
 8001d1a:	f7fe ff09 	bl	8000b30 <chThdSleep>
 8001d1e:	e7f4      	b.n	8001d0a <counterThread.12965+0xa>
 8001d20:	48001000 	.word	0x48001000
 8001d24:	f3af 8000 	nop.w
 8001d28:	f3af 8000 	nop.w
 8001d2c:	f3af 8000 	nop.w

08001d30 <VectorB0.4375>:
 8001d30:	e92d 41f0 	stmdb	sp!, {r4, r5, r6, r7, r8, lr}
 8001d34:	f04f 4580 	mov.w	r5, #1073741824	; 0x40000000
 8001d38:	692b      	ldr	r3, [r5, #16]
 8001d3a:	079b      	lsls	r3, r3, #30
 8001d3c:	d403      	bmi.n	8001d46 <VectorB0.4375+0x16>
 8001d3e:	e8bd 41f0 	ldmia.w	sp!, {r4, r5, r6, r7, r8, lr}
 8001d42:	f000 bc95 	b.w	8002670 <_port_irq_epilogue>
 8001d46:	2700      	movs	r7, #0
 8001d48:	612f      	str	r7, [r5, #16]
 8001d4a:	2620      	movs	r6, #32
 8001d4c:	f386 8811 	msr	BASEPRI, r6
 8001d50:	4c1d      	ldr	r4, [pc, #116]	; (8001dc8 <VectorB0.4375+0x98>)
 8001d52:	6a6a      	ldr	r2, [r5, #36]	; 0x24
 8001d54:	69e3      	ldr	r3, [r4, #28]
 8001d56:	6aa0      	ldr	r0, [r4, #40]	; 0x28
 8001d58:	6899      	ldr	r1, [r3, #8]
 8001d5a:	ebc0 0c02 	rsb	ip, r0, r2
 8001d5e:	458c      	cmp	ip, r1
 8001d60:	bf38      	it	cc
 8001d62:	f104 071c 	addcc.w	r7, r4, #28
 8001d66:	d31d      	bcc.n	8001da4 <VectorB0.4375+0x74>
 8001d68:	46b8      	mov	r8, r7
 8001d6a:	f104 071c 	add.w	r7, r4, #28
 8001d6e:	681a      	ldr	r2, [r3, #0]
 8001d70:	f8d3 c00c 	ldr.w	ip, [r3, #12]
 8001d74:	4401      	add	r1, r0
 8001d76:	42ba      	cmp	r2, r7
 8001d78:	62a1      	str	r1, [r4, #40]	; 0x28
 8001d7a:	6057      	str	r7, [r2, #4]
 8001d7c:	61e2      	str	r2, [r4, #28]
 8001d7e:	f8c3 800c 	str.w	r8, [r3, #12]
 8001d82:	bf08      	it	eq
 8001d84:	f8c5 800c 	streq.w	r8, [r5, #12]
 8001d88:	f388 8811 	msr	BASEPRI, r8
 8001d8c:	6918      	ldr	r0, [r3, #16]
 8001d8e:	47e0      	blx	ip
 8001d90:	f386 8811 	msr	BASEPRI, r6
 8001d94:	69e3      	ldr	r3, [r4, #28]
 8001d96:	6a6a      	ldr	r2, [r5, #36]	; 0x24
 8001d98:	6aa0      	ldr	r0, [r4, #40]	; 0x28
 8001d9a:	6899      	ldr	r1, [r3, #8]
 8001d9c:	ebc0 0c02 	rsb	ip, r0, r2
 8001da0:	4561      	cmp	r1, ip
 8001da2:	d9e4      	bls.n	8001d6e <VectorB0.4375+0x3e>
 8001da4:	42bb      	cmp	r3, r7
 8001da6:	d008      	beq.n	8001dba <VectorB0.4375+0x8a>
 8001da8:	4401      	add	r1, r0
 8001daa:	1a89      	subs	r1, r1, r2
 8001dac:	2901      	cmp	r1, #1
 8001dae:	bf98      	it	ls
 8001db0:	2102      	movls	r1, #2
 8001db2:	f04f 4380 	mov.w	r3, #1073741824	; 0x40000000
 8001db6:	440a      	add	r2, r1
 8001db8:	635a      	str	r2, [r3, #52]	; 0x34
 8001dba:	2300      	movs	r3, #0
 8001dbc:	f383 8811 	msr	BASEPRI, r3
 8001dc0:	e8bd 41f0 	ldmia.w	sp!, {r4, r5, r6, r7, r8, lr}
 8001dc4:	f000 bc54 	b.w	8002670 <_port_irq_epilogue>
 8001dc8:	20000838 	.word	0x20000838
 8001dcc:	f3af 8000 	nop.w

08001dd0 <VectorD4.4338>:
 8001dd0:	e92d 41f0 	stmdb	sp!, {r4, r5, r6, r7, r8, lr}
 8001dd4:	4d63      	ldr	r5, [pc, #396]	; (8001f64 <VectorD4.4338+0x194>)
 8001dd6:	6f6e      	ldr	r6, [r5, #116]	; 0x74
 8001dd8:	6837      	ldr	r7, [r6, #0]
 8001dda:	69f4      	ldr	r4, [r6, #28]
 8001ddc:	6234      	str	r4, [r6, #32]
 8001dde:	0722      	lsls	r2, r4, #28
 8001de0:	d154      	bne.n	8001e8c <VectorD4.4338+0xbc>
 8001de2:	05e3      	lsls	r3, r4, #23
 8001de4:	d446      	bmi.n	8001e74 <VectorD4.4338+0xa4>
 8001de6:	06a0      	lsls	r0, r4, #26
 8001de8:	d418      	bmi.n	8001e1c <VectorD4.4338+0x4c>
 8001dea:	0639      	lsls	r1, r7, #24
 8001dec:	d501      	bpl.n	8001df2 <VectorD4.4338+0x22>
 8001dee:	0622      	lsls	r2, r4, #24
 8001df0:	d467      	bmi.n	8001ec2 <VectorD4.4338+0xf2>
 8001df2:	0663      	lsls	r3, r4, #25
 8001df4:	d50e      	bpl.n	8001e14 <VectorD4.4338+0x44>
 8001df6:	2320      	movs	r3, #32
 8001df8:	f383 8811 	msr	BASEPRI, r3
 8001dfc:	6c6a      	ldr	r2, [r5, #68]	; 0x44
 8001dfe:	6cab      	ldr	r3, [r5, #72]	; 0x48
 8001e00:	4858      	ldr	r0, [pc, #352]	; (8001f64 <VectorD4.4338+0x194>)
 8001e02:	429a      	cmp	r2, r3
 8001e04:	f000 8089 	beq.w	8001f1a <VectorD4.4338+0x14a>
 8001e08:	f027 0740 	bic.w	r7, r7, #64	; 0x40
 8001e0c:	6037      	str	r7, [r6, #0]
 8001e0e:	2300      	movs	r3, #0
 8001e10:	f383 8811 	msr	BASEPRI, r3
 8001e14:	e8bd 41f0 	ldmia.w	sp!, {r4, r5, r6, r7, r8, lr}
 8001e18:	f000 bc2a 	b.w	8002670 <_port_irq_epilogue>
 8001e1c:	2320      	movs	r3, #32
 8001e1e:	f383 8811 	msr	BASEPRI, r3
 8001e22:	8cb2      	ldrh	r2, [r6, #36]	; 0x24
 8001e24:	696b      	ldr	r3, [r5, #20]
 8001e26:	fa5f f882 	uxtb.w	r8, r2
 8001e2a:	2b00      	cmp	r3, #0
 8001e2c:	d07e      	beq.n	8001f2c <VectorD4.4338+0x15c>
 8001e2e:	6a2b      	ldr	r3, [r5, #32]
 8001e30:	6a6a      	ldr	r2, [r5, #36]	; 0x24
 8001e32:	484c      	ldr	r0, [pc, #304]	; (8001f64 <VectorD4.4338+0x194>)
 8001e34:	4293      	cmp	r3, r2
 8001e36:	d07e      	beq.n	8001f36 <VectorD4.4338+0x166>
 8001e38:	6968      	ldr	r0, [r5, #20]
 8001e3a:	4a4a      	ldr	r2, [pc, #296]	; (8001f64 <VectorD4.4338+0x194>)
 8001e3c:	1c59      	adds	r1, r3, #1
 8001e3e:	3001      	adds	r0, #1
 8001e40:	6229      	str	r1, [r5, #32]
 8001e42:	6168      	str	r0, [r5, #20]
 8001e44:	f883 8000 	strb.w	r8, [r3]
 8001e48:	6a29      	ldr	r1, [r5, #32]
 8001e4a:	69eb      	ldr	r3, [r5, #28]
 8001e4c:	4299      	cmp	r1, r3
 8001e4e:	d261      	bcs.n	8001f14 <VectorD4.4338+0x144>
 8001e50:	4944      	ldr	r1, [pc, #272]	; (8001f64 <VectorD4.4338+0x194>)
 8001e52:	68eb      	ldr	r3, [r5, #12]
 8001e54:	f101 020c 	add.w	r2, r1, #12
 8001e58:	4293      	cmp	r3, r2
 8001e5a:	d007      	beq.n	8001e6c <VectorD4.4338+0x9c>
 8001e5c:	6818      	ldr	r0, [r3, #0]
 8001e5e:	60c8      	str	r0, [r1, #12]
 8001e60:	2100      	movs	r1, #0
 8001e62:	6042      	str	r2, [r0, #4]
 8001e64:	4618      	mov	r0, r3
 8001e66:	6219      	str	r1, [r3, #32]
 8001e68:	f000 fee2 	bl	8002c30 <chSchReadyI>
 8001e6c:	2300      	movs	r3, #0
 8001e6e:	f383 8811 	msr	BASEPRI, r3
 8001e72:	e7ba      	b.n	8001dea <VectorD4.4338+0x1a>
 8001e74:	2320      	movs	r3, #32
 8001e76:	f383 8811 	msr	BASEPRI, r3
 8001e7a:	483b      	ldr	r0, [pc, #236]	; (8001f68 <VectorD4.4338+0x198>)
 8001e7c:	f44f 7100 	mov.w	r1, #512	; 0x200
 8001e80:	f000 feee 	bl	8002c60 <chEvtBroadcastFlagsI>
 8001e84:	2300      	movs	r3, #0
 8001e86:	f383 8811 	msr	BASEPRI, r3
 8001e8a:	e7ac      	b.n	8001de6 <VectorD4.4338+0x16>
 8001e8c:	f014 0f08 	tst.w	r4, #8
 8001e90:	bf14      	ite	ne
 8001e92:	2180      	movne	r1, #128	; 0x80
 8001e94:	2100      	moveq	r1, #0
 8001e96:	07e3      	lsls	r3, r4, #31
 8001e98:	bf48      	it	mi
 8001e9a:	f041 0120 	orrmi.w	r1, r1, #32
 8001e9e:	07a0      	lsls	r0, r4, #30
 8001ea0:	bf48      	it	mi
 8001ea2:	f041 0140 	orrmi.w	r1, r1, #64	; 0x40
 8001ea6:	0762      	lsls	r2, r4, #29
 8001ea8:	bf48      	it	mi
 8001eaa:	f441 7180 	orrmi.w	r1, r1, #256	; 0x100
 8001eae:	2320      	movs	r3, #32
 8001eb0:	f383 8811 	msr	BASEPRI, r3
 8001eb4:	482c      	ldr	r0, [pc, #176]	; (8001f68 <VectorD4.4338+0x198>)
 8001eb6:	f000 fed3 	bl	8002c60 <chEvtBroadcastFlagsI>
 8001eba:	2300      	movs	r3, #0
 8001ebc:	f383 8811 	msr	BASEPRI, r3
 8001ec0:	e78f      	b.n	8001de2 <VectorD4.4338+0x12>
 8001ec2:	2320      	movs	r3, #32
 8001ec4:	f383 8811 	msr	BASEPRI, r3
 8001ec8:	6cab      	ldr	r3, [r5, #72]	; 0x48
 8001eca:	6c6a      	ldr	r2, [r5, #68]	; 0x44
 8001ecc:	4825      	ldr	r0, [pc, #148]	; (8001f64 <VectorD4.4338+0x194>)
 8001ece:	429a      	cmp	r2, r3
 8001ed0:	d03a      	beq.n	8001f48 <VectorD4.4338+0x178>
 8001ed2:	6baa      	ldr	r2, [r5, #56]	; 0x38
 8001ed4:	4823      	ldr	r0, [pc, #140]	; (8001f64 <VectorD4.4338+0x194>)
 8001ed6:	1c51      	adds	r1, r2, #1
 8001ed8:	63a9      	str	r1, [r5, #56]	; 0x38
 8001eda:	6c29      	ldr	r1, [r5, #64]	; 0x40
 8001edc:	1c5a      	adds	r2, r3, #1
 8001ede:	64aa      	str	r2, [r5, #72]	; 0x48
 8001ee0:	428a      	cmp	r2, r1
 8001ee2:	f893 8000 	ldrb.w	r8, [r3]
 8001ee6:	d301      	bcc.n	8001eec <VectorD4.4338+0x11c>
 8001ee8:	6bc3      	ldr	r3, [r0, #60]	; 0x3c
 8001eea:	6483      	str	r3, [r0, #72]	; 0x48
 8001eec:	491d      	ldr	r1, [pc, #116]	; (8001f64 <VectorD4.4338+0x194>)
 8001eee:	6b2b      	ldr	r3, [r5, #48]	; 0x30
 8001ef0:	f101 0230 	add.w	r2, r1, #48	; 0x30
 8001ef4:	4293      	cmp	r3, r2
 8001ef6:	d007      	beq.n	8001f08 <VectorD4.4338+0x138>
 8001ef8:	6818      	ldr	r0, [r3, #0]
 8001efa:	6308      	str	r0, [r1, #48]	; 0x30
 8001efc:	2100      	movs	r1, #0
 8001efe:	6042      	str	r2, [r0, #4]
 8001f00:	4618      	mov	r0, r3
 8001f02:	6219      	str	r1, [r3, #32]
 8001f04:	f000 fe94 	bl	8002c30 <chSchReadyI>
 8001f08:	f8a6 8028 	strh.w	r8, [r6, #40]	; 0x28
 8001f0c:	2300      	movs	r3, #0
 8001f0e:	f383 8811 	msr	BASEPRI, r3
 8001f12:	e76e      	b.n	8001df2 <VectorD4.4338+0x22>
 8001f14:	6993      	ldr	r3, [r2, #24]
 8001f16:	6213      	str	r3, [r2, #32]
 8001f18:	e79a      	b.n	8001e50 <VectorD4.4338+0x80>
 8001f1a:	6b83      	ldr	r3, [r0, #56]	; 0x38
 8001f1c:	2b00      	cmp	r3, #0
 8001f1e:	f43f af73 	beq.w	8001e08 <VectorD4.4338+0x38>
 8001f22:	3004      	adds	r0, #4
 8001f24:	2110      	movs	r1, #16
 8001f26:	f000 fe9b 	bl	8002c60 <chEvtBroadcastFlagsI>
 8001f2a:	e76d      	b.n	8001e08 <VectorD4.4338+0x38>
 8001f2c:	480e      	ldr	r0, [pc, #56]	; (8001f68 <VectorD4.4338+0x198>)
 8001f2e:	2104      	movs	r1, #4
 8001f30:	f000 fe96 	bl	8002c60 <chEvtBroadcastFlagsI>
 8001f34:	e77b      	b.n	8001e2e <VectorD4.4338+0x5e>
 8001f36:	6942      	ldr	r2, [r0, #20]
 8001f38:	2a00      	cmp	r2, #0
 8001f3a:	f43f af7d 	beq.w	8001e38 <VectorD4.4338+0x68>
 8001f3e:	3004      	adds	r0, #4
 8001f40:	2180      	movs	r1, #128	; 0x80
 8001f42:	f000 fe8d 	bl	8002c60 <chEvtBroadcastFlagsI>
 8001f46:	e791      	b.n	8001e6c <VectorD4.4338+0x9c>
 8001f48:	6b82      	ldr	r2, [r0, #56]	; 0x38
 8001f4a:	2a00      	cmp	r2, #0
 8001f4c:	d0c1      	beq.n	8001ed2 <VectorD4.4338+0x102>
 8001f4e:	3004      	adds	r0, #4
 8001f50:	2108      	movs	r1, #8
 8001f52:	f000 fe85 	bl	8002c60 <chEvtBroadcastFlagsI>
 8001f56:	f027 03c0 	bic.w	r3, r7, #192	; 0xc0
 8001f5a:	f043 0340 	orr.w	r3, r3, #64	; 0x40
 8001f5e:	6033      	str	r3, [r6, #0]
 8001f60:	e7d4      	b.n	8001f0c <VectorD4.4338+0x13c>
 8001f62:	bf00      	nop
 8001f64:	200009bc 	.word	0x200009bc
 8001f68:	200009c0 	.word	0x200009c0
 8001f6c:	f3af 8000 	nop.w

08001f70 <cmd_bluefruit.12985>:
 8001f70:	e92d 4ff0 	stmdb	sp!, {r4, r5, r6, r7, r8, r9, sl, fp, lr}
 8001f74:	b08b      	sub	sp, #44	; 0x2c
 8001f76:	af00      	add	r7, sp, #0
 8001f78:	6811      	ldr	r1, [r2, #0]
 8001f7a:	60f8      	str	r0, [r7, #12]
 8001f7c:	48c2      	ldr	r0, [pc, #776]	; (8002288 <cmd_bluefruit.12985+0x318>)
 8001f7e:	4614      	mov	r4, r2
 8001f80:	f7fe f9c6 	bl	8000310 <strcmp>
 8001f84:	2800      	cmp	r0, #0
 8001f86:	f040 8176 	bne.w	8002276 <cmd_bluefruit.12985+0x306>
 8001f8a:	6864      	ldr	r4, [r4, #4]
 8001f8c:	7823      	ldrb	r3, [r4, #0]
 8001f8e:	2b00      	cmp	r3, #0
 8001f90:	f000 81a8 	beq.w	80022e4 <cmd_bluefruit.12985+0x374>
 8001f94:	4601      	mov	r1, r0
 8001f96:	3101      	adds	r1, #1
 8001f98:	b289      	uxth	r1, r1
 8001f9a:	5c63      	ldrb	r3, [r4, r1]
 8001f9c:	2b00      	cmp	r3, #0
 8001f9e:	d1fa      	bne.n	8001f96 <cmd_bluefruit.12985+0x26>
 8001fa0:	1dca      	adds	r2, r1, #7
 8001fa2:	f022 0207 	bic.w	r2, r2, #7
 8001fa6:	f8c7 d000 	str.w	sp, [r7]
 8001faa:	ebad 0d02 	sub.w	sp, sp, r2
 8001fae:	466d      	mov	r5, sp
 8001fb0:	2900      	cmp	r1, #0
 8001fb2:	f000 8199 	beq.w	80022e8 <cmd_bluefruit.12985+0x378>
 8001fb6:	5ce2      	ldrb	r2, [r4, r3]
 8001fb8:	54ea      	strb	r2, [r5, r3]
 8001fba:	3301      	adds	r3, #1
 8001fbc:	b2db      	uxtb	r3, r3
 8001fbe:	428b      	cmp	r3, r1
 8001fc0:	d3f9      	bcc.n	8001fb6 <cmd_bluefruit.12985+0x46>
 8001fc2:	b2cb      	uxtb	r3, r1
 8001fc4:	f103 0904 	add.w	r9, r3, #4
 8001fc8:	fa5f f989 	uxtb.w	r9, r9
 8001fcc:	f109 0207 	add.w	r2, r9, #7
 8001fd0:	f402 72fc 	and.w	r2, r2, #504	; 0x1f8
 8001fd4:	ebad 0d02 	sub.w	sp, sp, r2
 8001fd8:	2410      	movs	r4, #16
 8001fda:	2000      	movs	r0, #0
 8001fdc:	220a      	movs	r2, #10
 8001fde:	f1b9 0f04 	cmp.w	r9, #4
 8001fe2:	f88d 3003 	strb.w	r3, [sp, #3]
 8001fe6:	f88d 4000 	strb.w	r4, [sp]
 8001fea:	f88d 0001 	strb.w	r0, [sp, #1]
 8001fee:	f88d 2002 	strb.w	r2, [sp, #2]
 8001ff2:	f8c7 d008 	str.w	sp, [r7, #8]
 8001ff6:	bfc8      	it	gt
 8001ff8:	2304      	movgt	r3, #4
 8001ffa:	dd07      	ble.n	800200c <cmd_bluefruit.12985+0x9c>
 8001ffc:	18ea      	adds	r2, r5, r3
 8001ffe:	68b8      	ldr	r0, [r7, #8]
 8002000:	f812 2c04 	ldrb.w	r2, [r2, #-4]
 8002004:	54c2      	strb	r2, [r0, r3]
 8002006:	3301      	adds	r3, #1
 8002008:	454b      	cmp	r3, r9
 800200a:	dbf7      	blt.n	8001ffc <cmd_bluefruit.12985+0x8c>
 800200c:	4608      	mov	r0, r1
 800200e:	f1a9 0904 	sub.w	r9, r9, #4
 8002012:	4602      	mov	r2, r0
 8002014:	499d      	ldr	r1, [pc, #628]	; (800228c <cmd_bluefruit.12985+0x31c>)
 8002016:	68f8      	ldr	r0, [r7, #12]
 8002018:	68bb      	ldr	r3, [r7, #8]
 800201a:	f7fe ff11 	bl	8000e40 <chprintf>
 800201e:	2420      	movs	r4, #32
 8002020:	f384 8811 	msr	BASEPRI, r4
 8002024:	4d9a      	ldr	r5, [pc, #616]	; (8002290 <cmd_bluefruit.12985+0x320>)
 8002026:	4628      	mov	r0, r5
 8002028:	f000 fe82 	bl	8002d30 <chMtxLockS>
 800202c:	2300      	movs	r3, #0
 800202e:	f383 8811 	msr	BASEPRI, r3
 8002032:	f384 8811 	msr	BASEPRI, r4
 8002036:	f815 3c0c 	ldrb.w	r3, [r5, #-12]
 800203a:	4896      	ldr	r0, [pc, #600]	; (8002294 <cmd_bluefruit.12985+0x324>)
 800203c:	f845 0c08 	str.w	r0, [r5, #-8]
 8002040:	f1a5 040c 	sub.w	r4, r5, #12
 8002044:	2b01      	cmp	r3, #1
 8002046:	f000 812d 	beq.w	80022a4 <cmd_bluefruit.12985+0x334>
 800204a:	8982      	ldrh	r2, [r0, #12]
 800204c:	6aa1      	ldr	r1, [r4, #40]	; 0x28
 800204e:	f402 6370 	and.w	r3, r2, #3840	; 0xf00
 8002052:	f5b3 6fe0 	cmp.w	r3, #1792	; 0x700
 8002056:	6ae3      	ldr	r3, [r4, #44]	; 0x2c
 8002058:	f421 6170 	bic.w	r1, r1, #3840	; 0xf00
 800205c:	f423 6370 	bic.w	r3, r3, #3840	; 0xf00
 8002060:	f240 810d 	bls.w	800227e <cmd_bluefruit.12985+0x30e>
 8002064:	f441 65a0 	orr.w	r5, r1, #1280	; 0x500
 8002068:	f443 61a0 	orr.w	r1, r3, #1280	; 0x500
 800206c:	2302      	movs	r3, #2
 800206e:	62a5      	str	r5, [r4, #40]	; 0x28
 8002070:	62e1      	str	r1, [r4, #44]	; 0x2c
 8002072:	6323      	str	r3, [r4, #48]	; 0x30
 8002074:	8941      	ldrh	r1, [r0, #10]
 8002076:	69e3      	ldr	r3, [r4, #28]
 8002078:	f041 0104 	orr.w	r1, r1, #4
 800207c:	f442 5280 	orr.w	r2, r2, #4096	; 0x1000
 8002080:	b289      	uxth	r1, r1
 8002082:	f042 0207 	orr.w	r2, r2, #7
 8002086:	2500      	movs	r5, #0
 8002088:	601d      	str	r5, [r3, #0]
 800208a:	6019      	str	r1, [r3, #0]
 800208c:	605a      	str	r2, [r3, #4]
 800208e:	6819      	ldr	r1, [r3, #0]
 8002090:	2202      	movs	r2, #2
 8002092:	f041 0140 	orr.w	r1, r1, #64	; 0x40
 8002096:	6019      	str	r1, [r3, #0]
 8002098:	7022      	strb	r2, [r4, #0]
 800209a:	f385 8811 	msr	BASEPRI, r5
 800209e:	f7fe fdef 	bl	8000c80 <spiSelect.constprop.16>
 80020a2:	45a9      	cmp	r9, r5
 80020a4:	f340 8117 	ble.w	80022d6 <cmd_bluefruit.12985+0x366>
 80020a8:	f1b9 0f10 	cmp.w	r9, #16
 80020ac:	46ab      	mov	fp, r5
 80020ae:	f107 0613 	add.w	r6, r7, #19
 80020b2:	f107 0414 	add.w	r4, r7, #20
 80020b6:	f107 0527 	add.w	r5, r7, #39	; 0x27
 80020ba:	f04f 0810 	mov.w	r8, #16
 80020be:	dd47      	ble.n	8002150 <cmd_bluefruit.12985+0x1e0>
 80020c0:	f06f 0201 	mvn.w	r2, #1
 80020c4:	74fa      	strb	r2, [r7, #19]
 80020c6:	f1a9 0910 	sub.w	r9, r9, #16
 80020ca:	f887 8014 	strb.w	r8, [r7, #20]
 80020ce:	e00b      	b.n	80020e8 <cmd_bluefruit.12985+0x178>
 80020d0:	f7fe fd2e 	bl	8000b30 <chThdSleep>
 80020d4:	f7fe fdec 	bl	8000cb0 <spiUnselect.constprop.15>
 80020d8:	2001      	movs	r0, #1
 80020da:	f7fe fd29 	bl	8000b30 <chThdSleep>
 80020de:	f7fe fdcf 	bl	8000c80 <spiSelect.constprop.16>
 80020e2:	7cfb      	ldrb	r3, [r7, #19]
 80020e4:	2bfe      	cmp	r3, #254	; 0xfe
 80020e6:	d10b      	bne.n	8002100 <cmd_bluefruit.12985+0x190>
 80020e8:	f107 0012 	add.w	r0, r7, #18
 80020ec:	4631      	mov	r1, r6
 80020ee:	f887 8012 	strb.w	r8, [r7, #18]
 80020f2:	f7fe fdf5 	bl	8000ce0 <spiExchange.constprop.13>
 80020f6:	7cfb      	ldrb	r3, [r7, #19]
 80020f8:	2bfe      	cmp	r3, #254	; 0xfe
 80020fa:	f04f 0001 	mov.w	r0, #1
 80020fe:	d1e7      	bne.n	80020d0 <cmd_bluefruit.12985+0x160>
 8002100:	68b8      	ldr	r0, [r7, #8]
 8002102:	2300      	movs	r3, #0
 8002104:	210a      	movs	r1, #10
 8002106:	2290      	movs	r2, #144	; 0x90
 8002108:	757b      	strb	r3, [r7, #21]
 800210a:	75b9      	strb	r1, [r7, #22]
 800210c:	75fa      	strb	r2, [r7, #23]
 800210e:	4458      	add	r0, fp
 8002110:	18c1      	adds	r1, r0, r3
 8002112:	18e2      	adds	r2, r4, r3
 8002114:	3301      	adds	r3, #1
 8002116:	7909      	ldrb	r1, [r1, #4]
 8002118:	7111      	strb	r1, [r2, #4]
 800211a:	2b10      	cmp	r3, #16
 800211c:	d1f8      	bne.n	8002110 <cmd_bluefruit.12985+0x1a0>
 800211e:	f10b 0b10 	add.w	fp, fp, #16
 8002122:	46a2      	mov	sl, r4
 8002124:	f81a 2f01 	ldrb.w	r2, [sl, #1]!
 8002128:	74ba      	strb	r2, [r7, #18]
 800212a:	f107 0012 	add.w	r0, r7, #18
 800212e:	f7fe fe07 	bl	8000d40 <spiSend.constprop.11>
 8002132:	45aa      	cmp	sl, r5
 8002134:	d1f6      	bne.n	8002124 <cmd_bluefruit.12985+0x1b4>
 8002136:	2001      	movs	r0, #1
 8002138:	f7fe fcfa 	bl	8000b30 <chThdSleep>
 800213c:	f7fe fdb8 	bl	8000cb0 <spiUnselect.constprop.15>
 8002140:	201e      	movs	r0, #30
 8002142:	f7fe fcf5 	bl	8000b30 <chThdSleep>
 8002146:	f7fe fd9b 	bl	8000c80 <spiSelect.constprop.16>
 800214a:	f1b9 0f10 	cmp.w	r9, #16
 800214e:	dcb7      	bgt.n	80020c0 <cmd_bluefruit.12985+0x150>
 8002150:	f109 030b 	add.w	r3, r9, #11
 8002154:	f023 0307 	bic.w	r3, r3, #7
 8002158:	f8c7 d004 	str.w	sp, [r7, #4]
 800215c:	ebad 0d03 	sub.w	sp, sp, r3
 8002160:	f04f 0a10 	mov.w	sl, #16
 8002164:	23fe      	movs	r3, #254	; 0xfe
 8002166:	46e8      	mov	r8, sp
 8002168:	f88d a000 	strb.w	sl, [sp]
 800216c:	753b      	strb	r3, [r7, #20]
 800216e:	e00b      	b.n	8002188 <cmd_bluefruit.12985+0x218>
 8002170:	f7fe fcde 	bl	8000b30 <chThdSleep>
 8002174:	f7fe fd9c 	bl	8000cb0 <spiUnselect.constprop.15>
 8002178:	2001      	movs	r0, #1
 800217a:	f7fe fcd9 	bl	8000b30 <chThdSleep>
 800217e:	f7fe fd7f 	bl	8000c80 <spiSelect.constprop.16>
 8002182:	7d3b      	ldrb	r3, [r7, #20]
 8002184:	2bfe      	cmp	r3, #254	; 0xfe
 8002186:	d10a      	bne.n	800219e <cmd_bluefruit.12985+0x22e>
 8002188:	4630      	mov	r0, r6
 800218a:	4621      	mov	r1, r4
 800218c:	f887 a013 	strb.w	sl, [r7, #19]
 8002190:	f7fe fda6 	bl	8000ce0 <spiExchange.constprop.13>
 8002194:	7d3b      	ldrb	r3, [r7, #20]
 8002196:	2bfe      	cmp	r3, #254	; 0xfe
 8002198:	f04f 0001 	mov.w	r0, #1
 800219c:	d1e8      	bne.n	8002170 <cmd_bluefruit.12985+0x200>
 800219e:	eb09 0e0b 	add.w	lr, r9, fp
 80021a2:	2300      	movs	r3, #0
 80021a4:	220a      	movs	r2, #10
 80021a6:	45f3      	cmp	fp, lr
 80021a8:	f888 9003 	strb.w	r9, [r8, #3]
 80021ac:	f888 3001 	strb.w	r3, [r8, #1]
 80021b0:	f888 2002 	strb.w	r2, [r8, #2]
 80021b4:	da0b      	bge.n	80021ce <cmd_bluefruit.12985+0x25e>
 80021b6:	68b8      	ldr	r0, [r7, #8]
 80021b8:	ebcb 0e0e 	rsb	lr, fp, lr
 80021bc:	4458      	add	r0, fp
 80021be:	18c1      	adds	r1, r0, r3
 80021c0:	eb08 0203 	add.w	r2, r8, r3
 80021c4:	3301      	adds	r3, #1
 80021c6:	7909      	ldrb	r1, [r1, #4]
 80021c8:	7111      	strb	r1, [r2, #4]
 80021ca:	4573      	cmp	r3, lr
 80021cc:	d1f7      	bne.n	80021be <cmd_bluefruit.12985+0x24e>
 80021ce:	f109 0903 	add.w	r9, r9, #3
 80021d2:	f04f 0a01 	mov.w	sl, #1
 80021d6:	f818 3f01 	ldrb.w	r3, [r8, #1]!
 80021da:	74fb      	strb	r3, [r7, #19]
 80021dc:	f10a 0a01 	add.w	sl, sl, #1
 80021e0:	4630      	mov	r0, r6
 80021e2:	f7fe fdad 	bl	8000d40 <spiSend.constprop.11>
 80021e6:	45ca      	cmp	sl, r9
 80021e8:	ddf5      	ble.n	80021d6 <cmd_bluefruit.12985+0x266>
 80021ea:	687b      	ldr	r3, [r7, #4]
 80021ec:	469d      	mov	sp, r3
 80021ee:	f7fe fd5f 	bl	8000cb0 <spiUnselect.constprop.15>
 80021f2:	201e      	movs	r0, #30
 80021f4:	f7fe fc9c 	bl	8000b30 <chThdSleep>
 80021f8:	f7fe fd42 	bl	8000c80 <spiSelect.constprop.16>
 80021fc:	4620      	mov	r0, r4
 80021fe:	f7fe fdcf 	bl	8000da0 <spiReceive.constprop.9>
 8002202:	7d3b      	ldrb	r3, [r7, #20]
 8002204:	2b10      	cmp	r3, #16
 8002206:	d005      	beq.n	8002214 <cmd_bluefruit.12985+0x2a4>
 8002208:	2b20      	cmp	r3, #32
 800220a:	d003      	beq.n	8002214 <cmd_bluefruit.12985+0x2a4>
 800220c:	2b40      	cmp	r3, #64	; 0x40
 800220e:	d001      	beq.n	8002214 <cmd_bluefruit.12985+0x2a4>
 8002210:	2b80      	cmp	r3, #128	; 0x80
 8002212:	d1f3      	bne.n	80021fc <cmd_bluefruit.12985+0x28c>
 8002214:	f107 0015 	add.w	r0, r7, #21
 8002218:	f7fe fdc2 	bl	8000da0 <spiReceive.constprop.9>
 800221c:	f107 0016 	add.w	r0, r7, #22
 8002220:	f7fe fdbe 	bl	8000da0 <spiReceive.constprop.9>
 8002224:	4630      	mov	r0, r6
 8002226:	f7fe fdbb 	bl	8000da0 <spiReceive.constprop.9>
 800222a:	7cfb      	ldrb	r3, [r7, #19]
 800222c:	76bb      	strb	r3, [r7, #26]
 800222e:	2400      	movs	r4, #0
 8002230:	b143      	cbz	r3, 8002244 <cmd_bluefruit.12985+0x2d4>
 8002232:	f107 0018 	add.w	r0, r7, #24
 8002236:	4420      	add	r0, r4
 8002238:	f7fe fdb2 	bl	8000da0 <spiReceive.constprop.9>
 800223c:	7cfb      	ldrb	r3, [r7, #19]
 800223e:	3401      	adds	r4, #1
 8002240:	429c      	cmp	r4, r3
 8002242:	dbf6      	blt.n	8002232 <cmd_bluefruit.12985+0x2c2>
 8002244:	f7fe fd34 	bl	8000cb0 <spiUnselect.constprop.15>
 8002248:	4811      	ldr	r0, [pc, #68]	; (8002290 <cmd_bluefruit.12985+0x320>)
 800224a:	f000 fd39 	bl	8002cc0 <chMtxUnlock>
 800224e:	68f8      	ldr	r0, [r7, #12]
 8002250:	4911      	ldr	r1, [pc, #68]	; (8002298 <cmd_bluefruit.12985+0x328>)
 8002252:	f7fe fdf5 	bl	8000e40 <chprintf>
 8002256:	f107 0417 	add.w	r4, r7, #23
 800225a:	f814 2f01 	ldrb.w	r2, [r4, #1]!
 800225e:	490f      	ldr	r1, [pc, #60]	; (800229c <cmd_bluefruit.12985+0x32c>)
 8002260:	68f8      	ldr	r0, [r7, #12]
 8002262:	f7fe fded 	bl	8000e40 <chprintf>
 8002266:	42ac      	cmp	r4, r5
 8002268:	d1f7      	bne.n	800225a <cmd_bluefruit.12985+0x2ea>
 800226a:	68f8      	ldr	r0, [r7, #12]
 800226c:	490c      	ldr	r1, [pc, #48]	; (80022a0 <cmd_bluefruit.12985+0x330>)
 800226e:	f7fe fde7 	bl	8000e40 <chprintf>
 8002272:	683d      	ldr	r5, [r7, #0]
 8002274:	46ad      	mov	sp, r5
 8002276:	372c      	adds	r7, #44	; 0x2c
 8002278:	46bd      	mov	sp, r7
 800227a:	e8bd 8ff0 	ldmia.w	sp!, {r4, r5, r6, r7, r8, r9, sl, fp, pc}
 800227e:	2501      	movs	r5, #1
 8002280:	62a1      	str	r1, [r4, #40]	; 0x28
 8002282:	62e3      	str	r3, [r4, #44]	; 0x2c
 8002284:	6325      	str	r5, [r4, #48]	; 0x30
 8002286:	e6f5      	b.n	8002074 <cmd_bluefruit.12985+0x104>
 8002288:	08003350 	.word	0x08003350
 800228c:	08003354 	.word	0x08003354
 8002290:	20000994 	.word	0x20000994
 8002294:	2000081c 	.word	0x2000081c
 8002298:	08003364 	.word	0x08003364
 800229c:	08003370 	.word	0x08003370
 80022a0:	08003360 	.word	0x08003360
 80022a4:	4918      	ldr	r1, [pc, #96]	; (8002308 <cmd_bluefruit.12985+0x398>)
 80022a6:	6a20      	ldr	r0, [r4, #32]
 80022a8:	4d18      	ldr	r5, [pc, #96]	; (800230c <cmd_bluefruit.12985+0x39c>)
 80022aa:	4622      	mov	r2, r4
 80022ac:	f7fe fc88 	bl	8000bc0 <dmaStreamAllocate.constprop.18>
 80022b0:	4917      	ldr	r1, [pc, #92]	; (8002310 <cmd_bluefruit.12985+0x3a0>)
 80022b2:	6a60      	ldr	r0, [r4, #36]	; 0x24
 80022b4:	4622      	mov	r2, r4
 80022b6:	f7fe fc83 	bl	8000bc0 <dmaStreamAllocate.constprop.18>
 80022ba:	6a21      	ldr	r1, [r4, #32]
 80022bc:	6a62      	ldr	r2, [r4, #36]	; 0x24
 80022be:	69ae      	ldr	r6, [r5, #24]
 80022c0:	69e3      	ldr	r3, [r4, #28]
 80022c2:	6849      	ldr	r1, [r1, #4]
 80022c4:	6852      	ldr	r2, [r2, #4]
 80022c6:	6860      	ldr	r0, [r4, #4]
 80022c8:	330c      	adds	r3, #12
 80022ca:	f446 5680 	orr.w	r6, r6, #4096	; 0x1000
 80022ce:	61ae      	str	r6, [r5, #24]
 80022d0:	608b      	str	r3, [r1, #8]
 80022d2:	6093      	str	r3, [r2, #8]
 80022d4:	e6b9      	b.n	800204a <cmd_bluefruit.12985+0xda>
 80022d6:	f107 0613 	add.w	r6, r7, #19
 80022da:	f107 0414 	add.w	r4, r7, #20
 80022de:	f107 0527 	add.w	r5, r7, #39	; 0x27
 80022e2:	e784      	b.n	80021ee <cmd_bluefruit.12985+0x27e>
 80022e4:	f8c7 d000 	str.w	sp, [r7]
 80022e8:	b082      	sub	sp, #8
 80022ea:	f04f 0900 	mov.w	r9, #0
 80022ee:	2210      	movs	r2, #16
 80022f0:	230a      	movs	r3, #10
 80022f2:	f88d 2000 	strb.w	r2, [sp]
 80022f6:	f88d 3002 	strb.w	r3, [sp, #2]
 80022fa:	f8c7 d008 	str.w	sp, [r7, #8]
 80022fe:	f88d 9001 	strb.w	r9, [sp, #1]
 8002302:	f88d 9003 	strb.w	r9, [sp, #3]
 8002306:	e684      	b.n	8002012 <cmd_bluefruit.12985+0xa2>
 8002308:	08000911 	.word	0x08000911
 800230c:	40021000 	.word	0x40021000
 8002310:	08001ce1 	.word	0x08001ce1
 8002314:	f3af 8000 	nop.w
 8002318:	f3af 8000 	nop.w
 800231c:	f3af 8000 	nop.w

08002320 <chThdCreateFromHeap.constprop.28>:
 8002320:	e92d 43f8 	stmdb	sp!, {r3, r4, r5, r6, r7, r8, r9, lr}
 8002324:	2320      	movs	r3, #32
 8002326:	f383 8811 	msr	BASEPRI, r3
 800232a:	483e      	ldr	r0, [pc, #248]	; (8002424 <chThdCreateFromHeap.constprop.28+0x104>)
 800232c:	f000 fd00 	bl	8002d30 <chMtxLockS>
 8002330:	2300      	movs	r3, #0
 8002332:	f383 8811 	msr	BASEPRI, r3
 8002336:	4a3c      	ldr	r2, [pc, #240]	; (8002428 <chThdCreateFromHeap.constprop.28+0x108>)
 8002338:	f640 00c7 	movw	r0, #2247	; 0x8c7
 800233c:	e003      	b.n	8002346 <chThdCreateFromHeap.constprop.28+0x26>
 800233e:	6859      	ldr	r1, [r3, #4]
 8002340:	4281      	cmp	r1, r0
 8002342:	d84c      	bhi.n	80023de <chThdCreateFromHeap.constprop.28+0xbe>
 8002344:	461a      	mov	r2, r3
 8002346:	6813      	ldr	r3, [r2, #0]
 8002348:	2b00      	cmp	r3, #0
 800234a:	d1f8      	bne.n	800233e <chThdCreateFromHeap.constprop.28+0x1e>
 800234c:	4c35      	ldr	r4, [pc, #212]	; (8002424 <chThdCreateFromHeap.constprop.28+0x104>)
 800234e:	4620      	mov	r0, r4
 8002350:	f000 fcb6 	bl	8002cc0 <chMtxUnlock>
 8002354:	f854 3c10 	ldr.w	r3, [r4, #-16]
 8002358:	3c10      	subs	r4, #16
 800235a:	2b00      	cmp	r3, #0
 800235c:	d05e      	beq.n	800241c <chThdCreateFromHeap.constprop.28+0xfc>
 800235e:	f44f 600d 	mov.w	r0, #2256	; 0x8d0
 8002362:	4798      	blx	r3
 8002364:	2800      	cmp	r0, #0
 8002366:	d059      	beq.n	800241c <chThdCreateFromHeap.constprop.28+0xfc>
 8002368:	f640 03c8 	movw	r3, #2248	; 0x8c8
 800236c:	6004      	str	r4, [r0, #0]
 800236e:	6043      	str	r3, [r0, #4]
 8002370:	f100 0408 	add.w	r4, r0, #8
 8002374:	2320      	movs	r3, #32
 8002376:	f383 8811 	msr	BASEPRI, r3
 800237a:	4b2c      	ldr	r3, [pc, #176]	; (800242c <chThdCreateFromHeap.constprop.28+0x10c>)
 800237c:	4a2c      	ldr	r2, [pc, #176]	; (8002430 <chThdCreateFromHeap.constprop.28+0x110>)
 800237e:	695e      	ldr	r6, [r3, #20]
 8002380:	f8c4 28a4 	str.w	r2, [r4, #2212]	; 0x8a4
 8002384:	2500      	movs	r5, #0
 8002386:	2101      	movs	r1, #1
 8002388:	f104 0228 	add.w	r2, r4, #40	; 0x28
 800238c:	f8df c0a8 	ldr.w	ip, [pc, #168]	; 8002438 <chThdCreateFromHeap.constprop.28+0x118>
 8002390:	f8df 80a8 	ldr.w	r8, [pc, #168]	; 800243c <chThdCreateFromHeap.constprop.28+0x11c>
 8002394:	6123      	str	r3, [r4, #16]
 8002396:	f04f 0e02 	mov.w	lr, #2
 800239a:	2040      	movs	r0, #64	; 0x40
 800239c:	f604 09a4 	addw	r9, r4, #2212	; 0x8a4
 80023a0:	f104 0724 	add.w	r7, r4, #36	; 0x24
 80023a4:	60a0      	str	r0, [r4, #8]
 80023a6:	f8c4 900c 	str.w	r9, [r4, #12]
 80023aa:	63a0      	str	r0, [r4, #56]	; 0x38
 80023ac:	6166      	str	r6, [r4, #20]
 80023ae:	f8c4 88a8 	str.w	r8, [r4, #2216]	; 0x8a8
 80023b2:	f8c4 c8c4 	str.w	ip, [r4, #2244]	; 0x8c4
 80023b6:	f884 e01c 	strb.w	lr, [r4, #28]
 80023ba:	6365      	str	r5, [r4, #52]	; 0x34
 80023bc:	6325      	str	r5, [r4, #48]	; 0x30
 80023be:	61a5      	str	r5, [r4, #24]
 80023c0:	77a1      	strb	r1, [r4, #30]
 80023c2:	4620      	mov	r0, r4
 80023c4:	6134      	str	r4, [r6, #16]
 80023c6:	6267      	str	r7, [r4, #36]	; 0x24
 80023c8:	7761      	strb	r1, [r4, #29]
 80023ca:	62a2      	str	r2, [r4, #40]	; 0x28
 80023cc:	62e2      	str	r2, [r4, #44]	; 0x2c
 80023ce:	615c      	str	r4, [r3, #20]
 80023d0:	f7fe fbbe 	bl	8000b50 <chSchWakeupS.constprop.38>
 80023d4:	f385 8811 	msr	BASEPRI, r5
 80023d8:	4620      	mov	r0, r4
 80023da:	e8bd 83f8 	ldmia.w	sp!, {r3, r4, r5, r6, r7, r8, r9, pc}
 80023de:	f5b1 6f0d 	cmp.w	r1, #2256	; 0x8d0
 80023e2:	d20d      	bcs.n	8002400 <chThdCreateFromHeap.constprop.28+0xe0>
 80023e4:	6819      	ldr	r1, [r3, #0]
 80023e6:	6011      	str	r1, [r2, #0]
 80023e8:	461c      	mov	r4, r3
 80023ea:	4812      	ldr	r0, [pc, #72]	; (8002434 <chThdCreateFromHeap.constprop.28+0x114>)
 80023ec:	f844 0b08 	str.w	r0, [r4], #8
 80023f0:	3010      	adds	r0, #16
 80023f2:	f000 fc65 	bl	8002cc0 <chMtxUnlock>
 80023f6:	2c00      	cmp	r4, #0
 80023f8:	d1bc      	bne.n	8002374 <chThdCreateFromHeap.constprop.28+0x54>
 80023fa:	4620      	mov	r0, r4
 80023fc:	e8bd 83f8 	ldmia.w	sp!, {r3, r4, r5, r6, r7, r8, r9, pc}
 8002400:	681c      	ldr	r4, [r3, #0]
 8002402:	f8c3 48d0 	str.w	r4, [r3, #2256]	; 0x8d0
 8002406:	f503 600d 	add.w	r0, r3, #2256	; 0x8d0
 800240a:	f5a1 610d 	sub.w	r1, r1, #2256	; 0x8d0
 800240e:	f640 04c8 	movw	r4, #2248	; 0x8c8
 8002412:	f8c3 18d4 	str.w	r1, [r3, #2260]	; 0x8d4
 8002416:	6010      	str	r0, [r2, #0]
 8002418:	605c      	str	r4, [r3, #4]
 800241a:	e7e5      	b.n	80023e8 <chThdCreateFromHeap.constprop.28+0xc8>
 800241c:	2000      	movs	r0, #0
 800241e:	e8bd 83f8 	ldmia.w	sp!, {r3, r4, r5, r6, r7, r8, r9, pc}
 8002422:	bf00      	nop
 8002424:	20000af0 	.word	0x20000af0
 8002428:	20000ae8 	.word	0x20000ae8
 800242c:	20000838 	.word	0x20000838
 8002430:	080012b1 	.word	0x080012b1
 8002434:	20000ae0 	.word	0x20000ae0
 8002438:	080002f1 	.word	0x080002f1
 800243c:	08003340 	.word	0x08003340

08002440 <termination_handler.12973>:
 8002440:	e92d 43f8 	stmdb	sp!, {r3, r4, r5, r6, r7, r8, r9, lr}
 8002444:	4d4a      	ldr	r5, [pc, #296]	; (8002570 <termination_handler.12973+0x130>)
 8002446:	484b      	ldr	r0, [pc, #300]	; (8002574 <termination_handler.12973+0x134>)
 8002448:	494b      	ldr	r1, [pc, #300]	; (8002578 <termination_handler.12973+0x138>)
 800244a:	f7fe fcf9 	bl	8000e40 <chprintf>
 800244e:	682c      	ldr	r4, [r5, #0]
 8002450:	b114      	cbz	r4, 8002458 <termination_handler.12973+0x18>
 8002452:	7f23      	ldrb	r3, [r4, #28]
 8002454:	2b0f      	cmp	r3, #15
 8002456:	d001      	beq.n	800245c <termination_handler.12973+0x1c>
 8002458:	e8bd 83f8 	ldmia.w	sp!, {r3, r4, r5, r6, r7, r8, r9, pc}
 800245c:	2320      	movs	r3, #32
 800245e:	f383 8811 	msr	BASEPRI, r3
 8002462:	7f23      	ldrb	r3, [r4, #28]
 8002464:	2b0f      	cmp	r3, #15
 8002466:	d007      	beq.n	8002478 <termination_handler.12973+0x38>
 8002468:	4b44      	ldr	r3, [pc, #272]	; (800257c <termination_handler.12973+0x13c>)
 800246a:	6a62      	ldr	r2, [r4, #36]	; 0x24
 800246c:	699b      	ldr	r3, [r3, #24]
 800246e:	2009      	movs	r0, #9
 8002470:	601a      	str	r2, [r3, #0]
 8002472:	6263      	str	r3, [r4, #36]	; 0x24
 8002474:	f000 fbb4 	bl	8002be0 <chSchGoSleepS>
 8002478:	2300      	movs	r3, #0
 800247a:	f383 8811 	msr	BASEPRI, r3
 800247e:	2220      	movs	r2, #32
 8002480:	f382 8811 	msr	BASEPRI, r2
 8002484:	7fa6      	ldrb	r6, [r4, #30]
 8002486:	3e01      	subs	r6, #1
 8002488:	b2f6      	uxtb	r6, r6
 800248a:	77a6      	strb	r6, [r4, #30]
 800248c:	f383 8811 	msr	BASEPRI, r3
 8002490:	b916      	cbnz	r6, 8002498 <termination_handler.12973+0x58>
 8002492:	7f23      	ldrb	r3, [r4, #28]
 8002494:	2b0f      	cmp	r3, #15
 8002496:	d00c      	beq.n	80024b2 <termination_handler.12973+0x72>
 8002498:	4939      	ldr	r1, [pc, #228]	; (8002580 <termination_handler.12973+0x140>)
 800249a:	4836      	ldr	r0, [pc, #216]	; (8002574 <termination_handler.12973+0x134>)
 800249c:	f7fe fcd0 	bl	8000e40 <chprintf>
 80024a0:	f44f 707a 	mov.w	r0, #1000	; 0x3e8
 80024a4:	f7fe fb44 	bl	8000b30 <chThdSleep>
 80024a8:	f7ff ff3a 	bl	8002320 <chThdCreateFromHeap.constprop.28>
 80024ac:	6028      	str	r0, [r5, #0]
 80024ae:	e8bd 83f8 	ldmia.w	sp!, {r3, r4, r5, r6, r7, r8, r9, pc}
 80024b2:	7f63      	ldrb	r3, [r4, #29]
 80024b4:	f003 0303 	and.w	r3, r3, #3
 80024b8:	2b01      	cmp	r3, #1
 80024ba:	d00f      	beq.n	80024dc <termination_handler.12973+0x9c>
 80024bc:	2b02      	cmp	r3, #2
 80024be:	d1eb      	bne.n	8002498 <termination_handler.12973+0x58>
 80024c0:	6961      	ldr	r1, [r4, #20]
 80024c2:	6923      	ldr	r3, [r4, #16]
 80024c4:	610b      	str	r3, [r1, #16]
 80024c6:	6920      	ldr	r0, [r4, #16]
 80024c8:	6be3      	ldr	r3, [r4, #60]	; 0x3c
 80024ca:	6141      	str	r1, [r0, #20]
 80024cc:	f382 8811 	msr	BASEPRI, r2
 80024d0:	681a      	ldr	r2, [r3, #0]
 80024d2:	6022      	str	r2, [r4, #0]
 80024d4:	601c      	str	r4, [r3, #0]
 80024d6:	f386 8811 	msr	BASEPRI, r6
 80024da:	e7dd      	b.n	8002498 <termination_handler.12973+0x58>
 80024dc:	6963      	ldr	r3, [r4, #20]
 80024de:	6921      	ldr	r1, [r4, #16]
 80024e0:	6119      	str	r1, [r3, #16]
 80024e2:	6921      	ldr	r1, [r4, #16]
 80024e4:	614b      	str	r3, [r1, #20]
 80024e6:	f854 3c08 	ldr.w	r3, [r4, #-8]
 80024ea:	f1a4 0708 	sub.w	r7, r4, #8
 80024ee:	f103 0808 	add.w	r8, r3, #8
 80024f2:	f103 0910 	add.w	r9, r3, #16
 80024f6:	f382 8811 	msr	BASEPRI, r2
 80024fa:	4648      	mov	r0, r9
 80024fc:	f000 fc18 	bl	8002d30 <chMtxLockS>
 8002500:	f386 8811 	msr	BASEPRI, r6
 8002504:	4643      	mov	r3, r8
 8002506:	4598      	cmp	r8, r3
 8002508:	d004      	beq.n	8002514 <termination_handler.12973+0xd4>
 800250a:	429f      	cmp	r7, r3
 800250c:	d802      	bhi.n	8002514 <termination_handler.12973+0xd4>
 800250e:	681b      	ldr	r3, [r3, #0]
 8002510:	4598      	cmp	r8, r3
 8002512:	d1fa      	bne.n	800250a <termination_handler.12973+0xca>
 8002514:	681a      	ldr	r2, [r3, #0]
 8002516:	b11a      	cbz	r2, 8002520 <termination_handler.12973+0xe0>
 8002518:	4297      	cmp	r7, r2
 800251a:	d301      	bcc.n	8002520 <termination_handler.12973+0xe0>
 800251c:	4613      	mov	r3, r2
 800251e:	e7f2      	b.n	8002506 <termination_handler.12973+0xc6>
 8002520:	f854 1c04 	ldr.w	r1, [r4, #-4]
 8002524:	f844 2c08 	str.w	r2, [r4, #-8]
 8002528:	601f      	str	r7, [r3, #0]
 800252a:	f101 0208 	add.w	r2, r1, #8
 800252e:	f854 0c08 	ldr.w	r0, [r4, #-8]
 8002532:	18be      	adds	r6, r7, r2
 8002534:	4286      	cmp	r6, r0
 8002536:	d009      	beq.n	800254c <termination_handler.12973+0x10c>
 8002538:	685a      	ldr	r2, [r3, #4]
 800253a:	f102 0108 	add.w	r1, r2, #8
 800253e:	4419      	add	r1, r3
 8002540:	428f      	cmp	r7, r1
 8002542:	d00c      	beq.n	800255e <termination_handler.12973+0x11e>
 8002544:	4648      	mov	r0, r9
 8002546:	f000 fbbb 	bl	8002cc0 <chMtxUnlock>
 800254a:	e7a5      	b.n	8002498 <termination_handler.12973+0x58>
 800254c:	6870      	ldr	r0, [r6, #4]
 800254e:	58ba      	ldr	r2, [r7, r2]
 8002550:	f844 2c08 	str.w	r2, [r4, #-8]
 8002554:	180a      	adds	r2, r1, r0
 8002556:	3208      	adds	r2, #8
 8002558:	f844 2c04 	str.w	r2, [r4, #-4]
 800255c:	e7ec      	b.n	8002538 <termination_handler.12973+0xf8>
 800255e:	f854 0c04 	ldr.w	r0, [r4, #-4]
 8002562:	f854 1c08 	ldr.w	r1, [r4, #-8]
 8002566:	6019      	str	r1, [r3, #0]
 8002568:	4402      	add	r2, r0
 800256a:	3208      	adds	r2, #8
 800256c:	605a      	str	r2, [r3, #4]
 800256e:	e7e9      	b.n	8002544 <termination_handler.12973+0x104>
 8002570:	20000a6c 	.word	0x20000a6c
 8002574:	200009bc 	.word	0x200009bc
 8002578:	08003374 	.word	0x08003374
 800257c:	20000838 	.word	0x20000838
 8002580:	08003384 	.word	0x08003384
 8002584:	f3af 8000 	nop.w
 8002588:	f3af 8000 	nop.w
 800258c:	f3af 8000 	nop.w

08002590 <SVC_Handler>:
 8002590:	f3ef 8309 	mrs	r3, PSP
 8002594:	3320      	adds	r3, #32
 8002596:	f383 8809 	msr	PSP, r3
 800259a:	2300      	movs	r3, #0
 800259c:	f383 8811 	msr	BASEPRI, r3
 80025a0:	4770      	bx	lr
 80025a2:	bf00      	nop
 80025a4:	f3af 8000 	nop.w
 80025a8:	f3af 8000 	nop.w
 80025ac:	f3af 8000 	nop.w

080025b0 <chCoreAlloc>:
 80025b0:	2320      	movs	r3, #32
 80025b2:	f383 8811 	msr	BASEPRI, r3
 80025b6:	4a09      	ldr	r2, [pc, #36]	; (80025dc <chCoreAlloc+0x2c>)
 80025b8:	4909      	ldr	r1, [pc, #36]	; (80025e0 <chCoreAlloc+0x30>)
 80025ba:	6813      	ldr	r3, [r2, #0]
 80025bc:	6809      	ldr	r1, [r1, #0]
 80025be:	3007      	adds	r0, #7
 80025c0:	f020 0007 	bic.w	r0, r0, #7
 80025c4:	1ac9      	subs	r1, r1, r3
 80025c6:	4288      	cmp	r0, r1
 80025c8:	bf9b      	ittet	ls
 80025ca:	18c0      	addls	r0, r0, r3
 80025cc:	6010      	strls	r0, [r2, #0]
 80025ce:	2000      	movhi	r0, #0
 80025d0:	4618      	movls	r0, r3
 80025d2:	2300      	movs	r3, #0
 80025d4:	f383 8811 	msr	BASEPRI, r3
 80025d8:	4770      	bx	lr
 80025da:	bf00      	nop
 80025dc:	20000834 	.word	0x20000834
 80025e0:	20000a70 	.word	0x20000a70
 80025e4:	f3af 8000 	nop.w
 80025e8:	f3af 8000 	nop.w
 80025ec:	f3af 8000 	nop.w

080025f0 <wakeup.4697>:
 80025f0:	b410      	push	{r4}
 80025f2:	2320      	movs	r3, #32
 80025f4:	f383 8811 	msr	BASEPRI, r3
 80025f8:	7f03      	ldrb	r3, [r0, #28]
 80025fa:	2b07      	cmp	r3, #7
 80025fc:	d80e      	bhi.n	800261c <wakeup.4697+0x2c>
 80025fe:	e8df f003 	tbb	[pc, r3]
 8002602:	0d27      	.short	0x0d27
 8002604:	0408230d 	.word	0x0408230d
 8002608:	080d      	.short	0x080d
 800260a:	6a03      	ldr	r3, [r0, #32]
 800260c:	689a      	ldr	r2, [r3, #8]
 800260e:	3201      	adds	r2, #1
 8002610:	609a      	str	r2, [r3, #8]
 8002612:	e890 000c 	ldmia.w	r0, {r2, r3}
 8002616:	601a      	str	r2, [r3, #0]
 8002618:	6802      	ldr	r2, [r0, #0]
 800261a:	6053      	str	r3, [r2, #4]
 800261c:	f04f 34ff 	mov.w	r4, #4294967295	; 0xffffffff
 8002620:	2200      	movs	r2, #0
 8002622:	6881      	ldr	r1, [r0, #8]
 8002624:	4b0d      	ldr	r3, [pc, #52]	; (800265c <wakeup.4697+0x6c>)
 8002626:	6204      	str	r4, [r0, #32]
 8002628:	7702      	strb	r2, [r0, #28]
 800262a:	681b      	ldr	r3, [r3, #0]
 800262c:	689a      	ldr	r2, [r3, #8]
 800262e:	428a      	cmp	r2, r1
 8002630:	d2fb      	bcs.n	800262a <wakeup.4697+0x3a>
 8002632:	685a      	ldr	r2, [r3, #4]
 8002634:	6042      	str	r2, [r0, #4]
 8002636:	6003      	str	r3, [r0, #0]
 8002638:	2100      	movs	r1, #0
 800263a:	6010      	str	r0, [r2, #0]
 800263c:	6058      	str	r0, [r3, #4]
 800263e:	f381 8811 	msr	BASEPRI, r1
 8002642:	f85d 4b04 	ldr.w	r4, [sp], #4
 8002646:	4770      	bx	lr
 8002648:	6a03      	ldr	r3, [r0, #32]
 800264a:	2200      	movs	r2, #0
 800264c:	601a      	str	r2, [r3, #0]
 800264e:	e7e5      	b.n	800261c <wakeup.4697+0x2c>
 8002650:	2300      	movs	r3, #0
 8002652:	f383 8811 	msr	BASEPRI, r3
 8002656:	f85d 4b04 	ldr.w	r4, [sp], #4
 800265a:	4770      	bx	lr
 800265c:	20000838 	.word	0x20000838

08002660 <_idle_thread.4308>:
 8002660:	e7fe      	b.n	8002660 <_idle_thread.4308>
 8002662:	bf00      	nop
 8002664:	f3af 8000 	nop.w
 8002668:	f3af 8000 	nop.w
 800266c:	f3af 8000 	nop.w

08002670 <_port_irq_epilogue>:
 8002670:	2320      	movs	r3, #32
 8002672:	f383 8811 	msr	BASEPRI, r3
 8002676:	4b0f      	ldr	r3, [pc, #60]	; (80026b4 <_port_irq_epilogue+0x44>)
 8002678:	685b      	ldr	r3, [r3, #4]
 800267a:	f413 6300 	ands.w	r3, r3, #2048	; 0x800
 800267e:	d102      	bne.n	8002686 <_port_irq_epilogue+0x16>
 8002680:	f383 8811 	msr	BASEPRI, r3
 8002684:	4770      	bx	lr
 8002686:	f3ef 8309 	mrs	r3, PSP
 800268a:	f04f 7280 	mov.w	r2, #16777216	; 0x1000000
 800268e:	f843 2c04 	str.w	r2, [r3, #-4]
 8002692:	f1a3 0220 	sub.w	r2, r3, #32
 8002696:	f382 8809 	msr	PSP, r2
 800269a:	4a07      	ldr	r2, [pc, #28]	; (80026b8 <_port_irq_epilogue+0x48>)
 800269c:	6811      	ldr	r1, [r2, #0]
 800269e:	6992      	ldr	r2, [r2, #24]
 80026a0:	6889      	ldr	r1, [r1, #8]
 80026a2:	6892      	ldr	r2, [r2, #8]
 80026a4:	4291      	cmp	r1, r2
 80026a6:	bf8c      	ite	hi
 80026a8:	4a04      	ldrhi	r2, [pc, #16]	; (80026bc <_port_irq_epilogue+0x4c>)
 80026aa:	4a05      	ldrls	r2, [pc, #20]	; (80026c0 <_port_irq_epilogue+0x50>)
 80026ac:	f843 2c08 	str.w	r2, [r3, #-8]
 80026b0:	4770      	bx	lr
 80026b2:	bf00      	nop
 80026b4:	e000ed00 	.word	0xe000ed00
 80026b8:	20000838 	.word	0x20000838
 80026bc:	08000301 	.word	0x08000301
 80026c0:	08000304 	.word	0x08000304
 80026c4:	f3af 8000 	nop.w
 80026c8:	f3af 8000 	nop.w
 80026cc:	f3af 8000 	nop.w

080026d0 <VectorE4>:
 80026d0:	b508      	push	{r3, lr}
 80026d2:	4b09      	ldr	r3, [pc, #36]	; (80026f8 <VectorE4+0x28>)
 80026d4:	6959      	ldr	r1, [r3, #20]
 80026d6:	681a      	ldr	r2, [r3, #0]
 80026d8:	400a      	ands	r2, r1
 80026da:	f402 3200 	and.w	r2, r2, #131072	; 0x20000
 80026de:	615a      	str	r2, [r3, #20]
 80026e0:	b12a      	cbz	r2, 80026ee <VectorE4+0x1e>
 80026e2:	4806      	ldr	r0, [pc, #24]	; (80026fc <VectorE4+0x2c>)
 80026e4:	6843      	ldr	r3, [r0, #4]
 80026e6:	2111      	movs	r1, #17
 80026e8:	f8d3 308c 	ldr.w	r3, [r3, #140]	; 0x8c
 80026ec:	4798      	blx	r3
 80026ee:	e8bd 4008 	ldmia.w	sp!, {r3, lr}
 80026f2:	f7ff bfbd 	b.w	8002670 <_port_irq_epilogue>
 80026f6:	bf00      	nop
 80026f8:	40010400 	.word	0x40010400
 80026fc:	20000ad8 	.word	0x20000ad8

08002700 <Vector44>:
 8002700:	b508      	push	{r3, lr}
 8002702:	4b09      	ldr	r3, [pc, #36]	; (8002728 <Vector44+0x28>)
 8002704:	6959      	ldr	r1, [r3, #20]
 8002706:	681a      	ldr	r2, [r3, #0]
 8002708:	400a      	ands	r2, r1
 800270a:	f402 3280 	and.w	r2, r2, #65536	; 0x10000
 800270e:	615a      	str	r2, [r3, #20]
 8002710:	b12a      	cbz	r2, 800271e <Vector44+0x1e>
 8002712:	4806      	ldr	r0, [pc, #24]	; (800272c <Vector44+0x2c>)
 8002714:	6843      	ldr	r3, [r0, #4]
 8002716:	2110      	movs	r1, #16
 8002718:	f8d3 3084 	ldr.w	r3, [r3, #132]	; 0x84
 800271c:	4798      	blx	r3
 800271e:	e8bd 4008 	ldmia.w	sp!, {r3, lr}
 8002722:	f7ff bfa5 	b.w	8002670 <_port_irq_epilogue>
 8002726:	bf00      	nop
 8002728:	40010400 	.word	0x40010400
 800272c:	20000ad8 	.word	0x20000ad8

08002730 <VectorE0>:
 8002730:	4b1d      	ldr	r3, [pc, #116]	; (80027a8 <VectorE0+0x78>)
 8002732:	b510      	push	{r4, lr}
 8002734:	695a      	ldr	r2, [r3, #20]
 8002736:	681c      	ldr	r4, [r3, #0]
 8002738:	4014      	ands	r4, r2
 800273a:	f404 427c 	and.w	r2, r4, #64512	; 0xfc00
 800273e:	615a      	str	r2, [r3, #20]
 8002740:	0562      	lsls	r2, r4, #21
 8002742:	d42a      	bmi.n	800279a <VectorE0+0x6a>
 8002744:	0523      	lsls	r3, r4, #20
 8002746:	d422      	bmi.n	800278e <VectorE0+0x5e>
 8002748:	04e0      	lsls	r0, r4, #19
 800274a:	d41a      	bmi.n	8002782 <VectorE0+0x52>
 800274c:	04a1      	lsls	r1, r4, #18
 800274e:	d412      	bmi.n	8002776 <VectorE0+0x46>
 8002750:	0462      	lsls	r2, r4, #17
 8002752:	d40a      	bmi.n	800276a <VectorE0+0x3a>
 8002754:	0423      	lsls	r3, r4, #16
 8002756:	d504      	bpl.n	8002762 <VectorE0+0x32>
 8002758:	4814      	ldr	r0, [pc, #80]	; (80027ac <VectorE0+0x7c>)
 800275a:	6843      	ldr	r3, [r0, #4]
 800275c:	210f      	movs	r1, #15
 800275e:	6fdb      	ldr	r3, [r3, #124]	; 0x7c
 8002760:	4798      	blx	r3
 8002762:	e8bd 4010 	ldmia.w	sp!, {r4, lr}
 8002766:	f7ff bf83 	b.w	8002670 <_port_irq_epilogue>
 800276a:	4810      	ldr	r0, [pc, #64]	; (80027ac <VectorE0+0x7c>)
 800276c:	6843      	ldr	r3, [r0, #4]
 800276e:	210e      	movs	r1, #14
 8002770:	6f5b      	ldr	r3, [r3, #116]	; 0x74
 8002772:	4798      	blx	r3
 8002774:	e7ee      	b.n	8002754 <VectorE0+0x24>
 8002776:	480d      	ldr	r0, [pc, #52]	; (80027ac <VectorE0+0x7c>)
 8002778:	6843      	ldr	r3, [r0, #4]
 800277a:	210d      	movs	r1, #13
 800277c:	6edb      	ldr	r3, [r3, #108]	; 0x6c
 800277e:	4798      	blx	r3
 8002780:	e7e6      	b.n	8002750 <VectorE0+0x20>
 8002782:	480a      	ldr	r0, [pc, #40]	; (80027ac <VectorE0+0x7c>)
 8002784:	6843      	ldr	r3, [r0, #4]
 8002786:	210c      	movs	r1, #12
 8002788:	6e5b      	ldr	r3, [r3, #100]	; 0x64
 800278a:	4798      	blx	r3
 800278c:	e7de      	b.n	800274c <VectorE0+0x1c>
 800278e:	4807      	ldr	r0, [pc, #28]	; (80027ac <VectorE0+0x7c>)
 8002790:	6843      	ldr	r3, [r0, #4]
 8002792:	210b      	movs	r1, #11
 8002794:	6ddb      	ldr	r3, [r3, #92]	; 0x5c
 8002796:	4798      	blx	r3
 8002798:	e7d6      	b.n	8002748 <VectorE0+0x18>
 800279a:	4804      	ldr	r0, [pc, #16]	; (80027ac <VectorE0+0x7c>)
 800279c:	6843      	ldr	r3, [r0, #4]
 800279e:	210a      	movs	r1, #10
 80027a0:	6d5b      	ldr	r3, [r3, #84]	; 0x54
 80027a2:	4798      	blx	r3
 80027a4:	e7ce      	b.n	8002744 <VectorE0+0x14>
 80027a6:	bf00      	nop
 80027a8:	40010400 	.word	0x40010400
 80027ac:	20000ad8 	.word	0x20000ad8

080027b0 <Vector9C>:
 80027b0:	4b19      	ldr	r3, [pc, #100]	; (8002818 <Vector9C+0x68>)
 80027b2:	b510      	push	{r4, lr}
 80027b4:	695a      	ldr	r2, [r3, #20]
 80027b6:	681c      	ldr	r4, [r3, #0]
 80027b8:	4014      	ands	r4, r2
 80027ba:	f404 7278 	and.w	r2, r4, #992	; 0x3e0
 80027be:	615a      	str	r2, [r3, #20]
 80027c0:	06a3      	lsls	r3, r4, #26
 80027c2:	d422      	bmi.n	800280a <Vector9C+0x5a>
 80027c4:	0660      	lsls	r0, r4, #25
 80027c6:	d41a      	bmi.n	80027fe <Vector9C+0x4e>
 80027c8:	0621      	lsls	r1, r4, #24
 80027ca:	d412      	bmi.n	80027f2 <Vector9C+0x42>
 80027cc:	05e2      	lsls	r2, r4, #23
 80027ce:	d40a      	bmi.n	80027e6 <Vector9C+0x36>
 80027d0:	05a3      	lsls	r3, r4, #22
 80027d2:	d504      	bpl.n	80027de <Vector9C+0x2e>
 80027d4:	4811      	ldr	r0, [pc, #68]	; (800281c <Vector9C+0x6c>)
 80027d6:	6843      	ldr	r3, [r0, #4]
 80027d8:	2109      	movs	r1, #9
 80027da:	6cdb      	ldr	r3, [r3, #76]	; 0x4c
 80027dc:	4798      	blx	r3
 80027de:	e8bd 4010 	ldmia.w	sp!, {r4, lr}
 80027e2:	f7ff bf45 	b.w	8002670 <_port_irq_epilogue>
 80027e6:	480d      	ldr	r0, [pc, #52]	; (800281c <Vector9C+0x6c>)
 80027e8:	6843      	ldr	r3, [r0, #4]
 80027ea:	2108      	movs	r1, #8
 80027ec:	6c5b      	ldr	r3, [r3, #68]	; 0x44
 80027ee:	4798      	blx	r3
 80027f0:	e7ee      	b.n	80027d0 <Vector9C+0x20>
 80027f2:	480a      	ldr	r0, [pc, #40]	; (800281c <Vector9C+0x6c>)
 80027f4:	6843      	ldr	r3, [r0, #4]
 80027f6:	2107      	movs	r1, #7
 80027f8:	6bdb      	ldr	r3, [r3, #60]	; 0x3c
 80027fa:	4798      	blx	r3
 80027fc:	e7e6      	b.n	80027cc <Vector9C+0x1c>
 80027fe:	4807      	ldr	r0, [pc, #28]	; (800281c <Vector9C+0x6c>)
 8002800:	6843      	ldr	r3, [r0, #4]
 8002802:	2106      	movs	r1, #6
 8002804:	6b5b      	ldr	r3, [r3, #52]	; 0x34
 8002806:	4798      	blx	r3
 8002808:	e7de      	b.n	80027c8 <Vector9C+0x18>
 800280a:	4804      	ldr	r0, [pc, #16]	; (800281c <Vector9C+0x6c>)
 800280c:	6843      	ldr	r3, [r0, #4]
 800280e:	2105      	movs	r1, #5
 8002810:	6adb      	ldr	r3, [r3, #44]	; 0x2c
 8002812:	4798      	blx	r3
 8002814:	e7d6      	b.n	80027c4 <Vector9C+0x14>
 8002816:	bf00      	nop
 8002818:	40010400 	.word	0x40010400
 800281c:	20000ad8 	.word	0x20000ad8

08002820 <Vector68>:
 8002820:	b508      	push	{r3, lr}
 8002822:	4b08      	ldr	r3, [pc, #32]	; (8002844 <Vector68+0x24>)
 8002824:	6959      	ldr	r1, [r3, #20]
 8002826:	681a      	ldr	r2, [r3, #0]
 8002828:	400a      	ands	r2, r1
 800282a:	f002 0210 	and.w	r2, r2, #16
 800282e:	615a      	str	r2, [r3, #20]
 8002830:	b122      	cbz	r2, 800283c <Vector68+0x1c>
 8002832:	4805      	ldr	r0, [pc, #20]	; (8002848 <Vector68+0x28>)
 8002834:	6843      	ldr	r3, [r0, #4]
 8002836:	2104      	movs	r1, #4
 8002838:	6a5b      	ldr	r3, [r3, #36]	; 0x24
 800283a:	4798      	blx	r3
 800283c:	e8bd 4008 	ldmia.w	sp!, {r3, lr}
 8002840:	f7ff bf16 	b.w	8002670 <_port_irq_epilogue>
 8002844:	40010400 	.word	0x40010400
 8002848:	20000ad8 	.word	0x20000ad8
 800284c:	f3af 8000 	nop.w

08002850 <Vector64>:
 8002850:	b508      	push	{r3, lr}
 8002852:	4b08      	ldr	r3, [pc, #32]	; (8002874 <Vector64+0x24>)
 8002854:	6959      	ldr	r1, [r3, #20]
 8002856:	681a      	ldr	r2, [r3, #0]
 8002858:	400a      	ands	r2, r1
 800285a:	f002 0208 	and.w	r2, r2, #8
 800285e:	615a      	str	r2, [r3, #20]
 8002860:	b122      	cbz	r2, 800286c <Vector64+0x1c>
 8002862:	4805      	ldr	r0, [pc, #20]	; (8002878 <Vector64+0x28>)
 8002864:	6843      	ldr	r3, [r0, #4]
 8002866:	2103      	movs	r1, #3
 8002868:	69db      	ldr	r3, [r3, #28]
 800286a:	4798      	blx	r3
 800286c:	e8bd 4008 	ldmia.w	sp!, {r3, lr}
 8002870:	f7ff befe 	b.w	8002670 <_port_irq_epilogue>
 8002874:	40010400 	.word	0x40010400
 8002878:	20000ad8 	.word	0x20000ad8
 800287c:	f3af 8000 	nop.w

08002880 <Vector60>:
 8002880:	b508      	push	{r3, lr}
 8002882:	4b08      	ldr	r3, [pc, #32]	; (80028a4 <Vector60+0x24>)
 8002884:	6959      	ldr	r1, [r3, #20]
 8002886:	681a      	ldr	r2, [r3, #0]
 8002888:	400a      	ands	r2, r1
 800288a:	f002 0204 	and.w	r2, r2, #4
 800288e:	615a      	str	r2, [r3, #20]
 8002890:	b122      	cbz	r2, 800289c <Vector60+0x1c>
 8002892:	4805      	ldr	r0, [pc, #20]	; (80028a8 <Vector60+0x28>)
 8002894:	6843      	ldr	r3, [r0, #4]
 8002896:	2102      	movs	r1, #2
 8002898:	695b      	ldr	r3, [r3, #20]
 800289a:	4798      	blx	r3
 800289c:	e8bd 4008 	ldmia.w	sp!, {r3, lr}
 80028a0:	f7ff bee6 	b.w	8002670 <_port_irq_epilogue>
 80028a4:	40010400 	.word	0x40010400
 80028a8:	20000ad8 	.word	0x20000ad8
 80028ac:	f3af 8000 	nop.w

080028b0 <Vector5C>:
 80028b0:	b508      	push	{r3, lr}
 80028b2:	4b08      	ldr	r3, [pc, #32]	; (80028d4 <Vector5C+0x24>)
 80028b4:	6959      	ldr	r1, [r3, #20]
 80028b6:	681a      	ldr	r2, [r3, #0]
 80028b8:	400a      	ands	r2, r1
 80028ba:	f002 0202 	and.w	r2, r2, #2
 80028be:	615a      	str	r2, [r3, #20]
 80028c0:	b122      	cbz	r2, 80028cc <Vector5C+0x1c>
 80028c2:	4805      	ldr	r0, [pc, #20]	; (80028d8 <Vector5C+0x28>)
 80028c4:	6843      	ldr	r3, [r0, #4]
 80028c6:	2101      	movs	r1, #1
 80028c8:	68db      	ldr	r3, [r3, #12]
 80028ca:	4798      	blx	r3
 80028cc:	e8bd 4008 	ldmia.w	sp!, {r3, lr}
 80028d0:	f7ff bece 	b.w	8002670 <_port_irq_epilogue>
 80028d4:	40010400 	.word	0x40010400
 80028d8:	20000ad8 	.word	0x20000ad8
 80028dc:	f3af 8000 	nop.w

080028e0 <Vector58>:
 80028e0:	b508      	push	{r3, lr}
 80028e2:	4b08      	ldr	r3, [pc, #32]	; (8002904 <Vector58+0x24>)
 80028e4:	6959      	ldr	r1, [r3, #20]
 80028e6:	681a      	ldr	r2, [r3, #0]
 80028e8:	400a      	ands	r2, r1
 80028ea:	f002 0201 	and.w	r2, r2, #1
 80028ee:	615a      	str	r2, [r3, #20]
 80028f0:	b122      	cbz	r2, 80028fc <Vector58+0x1c>
 80028f2:	4805      	ldr	r0, [pc, #20]	; (8002908 <Vector58+0x28>)
 80028f4:	6843      	ldr	r3, [r0, #4]
 80028f6:	2100      	movs	r1, #0
 80028f8:	685b      	ldr	r3, [r3, #4]
 80028fa:	4798      	blx	r3
 80028fc:	e8bd 4008 	ldmia.w	sp!, {r3, lr}
 8002900:	f7ff beb6 	b.w	8002670 <_port_irq_epilogue>
 8002904:	40010400 	.word	0x40010400
 8002908:	20000ad8 	.word	0x20000ad8
 800290c:	f3af 8000 	nop.w

08002910 <Vector130>:
 8002910:	4b08      	ldr	r3, [pc, #32]	; (8002934 <Vector130+0x24>)
 8002912:	6819      	ldr	r1, [r3, #0]
 8002914:	f3c1 4103 	ubfx	r1, r1, #16, #4
 8002918:	b510      	push	{r4, lr}
 800291a:	b131      	cbz	r1, 800292a <Vector130+0x1a>
 800291c:	4806      	ldr	r0, [pc, #24]	; (8002938 <Vector130+0x28>)
 800291e:	6d82      	ldr	r2, [r0, #88]	; 0x58
 8002920:	040c      	lsls	r4, r1, #16
 8002922:	605c      	str	r4, [r3, #4]
 8002924:	b10a      	cbz	r2, 800292a <Vector130+0x1a>
 8002926:	6dc0      	ldr	r0, [r0, #92]	; 0x5c
 8002928:	4790      	blx	r2
 800292a:	e8bd 4010 	ldmia.w	sp!, {r4, lr}
 800292e:	f7ff be9f 	b.w	8002670 <_port_irq_epilogue>
 8002932:	bf00      	nop
 8002934:	40020400 	.word	0x40020400
 8002938:	20000a74 	.word	0x20000a74
 800293c:	f3af 8000 	nop.w

08002940 <Vector12C>:
 8002940:	4b08      	ldr	r3, [pc, #32]	; (8002964 <Vector12C+0x24>)
 8002942:	6819      	ldr	r1, [r3, #0]
 8002944:	f3c1 3103 	ubfx	r1, r1, #12, #4
 8002948:	b510      	push	{r4, lr}
 800294a:	b131      	cbz	r1, 800295a <Vector12C+0x1a>
 800294c:	4806      	ldr	r0, [pc, #24]	; (8002968 <Vector12C+0x28>)
 800294e:	6d02      	ldr	r2, [r0, #80]	; 0x50
 8002950:	030c      	lsls	r4, r1, #12
 8002952:	605c      	str	r4, [r3, #4]
 8002954:	b10a      	cbz	r2, 800295a <Vector12C+0x1a>
 8002956:	6d40      	ldr	r0, [r0, #84]	; 0x54
 8002958:	4790      	blx	r2
 800295a:	e8bd 4010 	ldmia.w	sp!, {r4, lr}
 800295e:	f7ff be87 	b.w	8002670 <_port_irq_epilogue>
 8002962:	bf00      	nop
 8002964:	40020400 	.word	0x40020400
 8002968:	20000a74 	.word	0x20000a74
 800296c:	f3af 8000 	nop.w

08002970 <Vector128>:
 8002970:	4b08      	ldr	r3, [pc, #32]	; (8002994 <Vector128+0x24>)
 8002972:	6819      	ldr	r1, [r3, #0]
 8002974:	f3c1 2103 	ubfx	r1, r1, #8, #4
 8002978:	b510      	push	{r4, lr}
 800297a:	b131      	cbz	r1, 800298a <Vector128+0x1a>
 800297c:	4806      	ldr	r0, [pc, #24]	; (8002998 <Vector128+0x28>)
 800297e:	6c82      	ldr	r2, [r0, #72]	; 0x48
 8002980:	020c      	lsls	r4, r1, #8
 8002982:	605c      	str	r4, [r3, #4]
 8002984:	b10a      	cbz	r2, 800298a <Vector128+0x1a>
 8002986:	6cc0      	ldr	r0, [r0, #76]	; 0x4c
 8002988:	4790      	blx	r2
 800298a:	e8bd 4010 	ldmia.w	sp!, {r4, lr}
 800298e:	f7ff be6f 	b.w	8002670 <_port_irq_epilogue>
 8002992:	bf00      	nop
 8002994:	40020400 	.word	0x40020400
 8002998:	20000a74 	.word	0x20000a74
 800299c:	f3af 8000 	nop.w

080029a0 <Vector124>:
 80029a0:	4b08      	ldr	r3, [pc, #32]	; (80029c4 <Vector124+0x24>)
 80029a2:	6819      	ldr	r1, [r3, #0]
 80029a4:	f3c1 1103 	ubfx	r1, r1, #4, #4
 80029a8:	b510      	push	{r4, lr}
 80029aa:	b131      	cbz	r1, 80029ba <Vector124+0x1a>
 80029ac:	4806      	ldr	r0, [pc, #24]	; (80029c8 <Vector124+0x28>)
 80029ae:	6c02      	ldr	r2, [r0, #64]	; 0x40
 80029b0:	010c      	lsls	r4, r1, #4
 80029b2:	605c      	str	r4, [r3, #4]
 80029b4:	b10a      	cbz	r2, 80029ba <Vector124+0x1a>
 80029b6:	6c40      	ldr	r0, [r0, #68]	; 0x44
 80029b8:	4790      	blx	r2
 80029ba:	e8bd 4010 	ldmia.w	sp!, {r4, lr}
 80029be:	f7ff be57 	b.w	8002670 <_port_irq_epilogue>
 80029c2:	bf00      	nop
 80029c4:	40020400 	.word	0x40020400
 80029c8:	20000a74 	.word	0x20000a74
 80029cc:	f3af 8000 	nop.w

080029d0 <Vector120>:
 80029d0:	b508      	push	{r3, lr}
 80029d2:	4b07      	ldr	r3, [pc, #28]	; (80029f0 <Vector120+0x20>)
 80029d4:	6819      	ldr	r1, [r3, #0]
 80029d6:	f011 010f 	ands.w	r1, r1, #15
 80029da:	d005      	beq.n	80029e8 <Vector120+0x18>
 80029dc:	4a05      	ldr	r2, [pc, #20]	; (80029f4 <Vector120+0x24>)
 80029de:	6059      	str	r1, [r3, #4]
 80029e0:	6b93      	ldr	r3, [r2, #56]	; 0x38
 80029e2:	b10b      	cbz	r3, 80029e8 <Vector120+0x18>
 80029e4:	6bd0      	ldr	r0, [r2, #60]	; 0x3c
 80029e6:	4798      	blx	r3
 80029e8:	e8bd 4008 	ldmia.w	sp!, {r3, lr}
 80029ec:	f7ff be40 	b.w	8002670 <_port_irq_epilogue>
 80029f0:	40020400 	.word	0x40020400
 80029f4:	20000a74 	.word	0x20000a74
 80029f8:	f3af 8000 	nop.w
 80029fc:	f3af 8000 	nop.w

08002a00 <Vector84>:
 8002a00:	4b08      	ldr	r3, [pc, #32]	; (8002a24 <Vector84+0x24>)
 8002a02:	6819      	ldr	r1, [r3, #0]
 8002a04:	f3c1 6103 	ubfx	r1, r1, #24, #4
 8002a08:	b510      	push	{r4, lr}
 8002a0a:	b131      	cbz	r1, 8002a1a <Vector84+0x1a>
 8002a0c:	4806      	ldr	r0, [pc, #24]	; (8002a28 <Vector84+0x28>)
 8002a0e:	6b02      	ldr	r2, [r0, #48]	; 0x30
 8002a10:	060c      	lsls	r4, r1, #24
 8002a12:	605c      	str	r4, [r3, #4]
 8002a14:	b10a      	cbz	r2, 8002a1a <Vector84+0x1a>
 8002a16:	6b40      	ldr	r0, [r0, #52]	; 0x34
 8002a18:	4790      	blx	r2
 8002a1a:	e8bd 4010 	ldmia.w	sp!, {r4, lr}
 8002a1e:	f7ff be27 	b.w	8002670 <_port_irq_epilogue>
 8002a22:	bf00      	nop
 8002a24:	40020000 	.word	0x40020000
 8002a28:	20000a74 	.word	0x20000a74
 8002a2c:	f3af 8000 	nop.w

08002a30 <Vector80>:
 8002a30:	4b08      	ldr	r3, [pc, #32]	; (8002a54 <Vector80+0x24>)
 8002a32:	6819      	ldr	r1, [r3, #0]
 8002a34:	f3c1 5103 	ubfx	r1, r1, #20, #4
 8002a38:	b510      	push	{r4, lr}
 8002a3a:	b131      	cbz	r1, 8002a4a <Vector80+0x1a>
 8002a3c:	4806      	ldr	r0, [pc, #24]	; (8002a58 <Vector80+0x28>)
 8002a3e:	6a82      	ldr	r2, [r0, #40]	; 0x28
 8002a40:	050c      	lsls	r4, r1, #20
 8002a42:	605c      	str	r4, [r3, #4]
 8002a44:	b10a      	cbz	r2, 8002a4a <Vector80+0x1a>
 8002a46:	6ac0      	ldr	r0, [r0, #44]	; 0x2c
 8002a48:	4790      	blx	r2
 8002a4a:	e8bd 4010 	ldmia.w	sp!, {r4, lr}
 8002a4e:	f7ff be0f 	b.w	8002670 <_port_irq_epilogue>
 8002a52:	bf00      	nop
 8002a54:	40020000 	.word	0x40020000
 8002a58:	20000a74 	.word	0x20000a74
 8002a5c:	f3af 8000 	nop.w

08002a60 <Vector7C>:
 8002a60:	4b08      	ldr	r3, [pc, #32]	; (8002a84 <Vector7C+0x24>)
 8002a62:	6819      	ldr	r1, [r3, #0]
 8002a64:	f3c1 4103 	ubfx	r1, r1, #16, #4
 8002a68:	b510      	push	{r4, lr}
 8002a6a:	b131      	cbz	r1, 8002a7a <Vector7C+0x1a>
 8002a6c:	4806      	ldr	r0, [pc, #24]	; (8002a88 <Vector7C+0x28>)
 8002a6e:	6a02      	ldr	r2, [r0, #32]
 8002a70:	040c      	lsls	r4, r1, #16
 8002a72:	605c      	str	r4, [r3, #4]
 8002a74:	b10a      	cbz	r2, 8002a7a <Vector7C+0x1a>
 8002a76:	6a40      	ldr	r0, [r0, #36]	; 0x24
 8002a78:	4790      	blx	r2
 8002a7a:	e8bd 4010 	ldmia.w	sp!, {r4, lr}
 8002a7e:	f7ff bdf7 	b.w	8002670 <_port_irq_epilogue>
 8002a82:	bf00      	nop
 8002a84:	40020000 	.word	0x40020000
 8002a88:	20000a74 	.word	0x20000a74
 8002a8c:	f3af 8000 	nop.w

08002a90 <Vector78>:
 8002a90:	4b08      	ldr	r3, [pc, #32]	; (8002ab4 <Vector78+0x24>)
 8002a92:	6819      	ldr	r1, [r3, #0]
 8002a94:	f3c1 3103 	ubfx	r1, r1, #12, #4
 8002a98:	b510      	push	{r4, lr}
 8002a9a:	b131      	cbz	r1, 8002aaa <Vector78+0x1a>
 8002a9c:	4806      	ldr	r0, [pc, #24]	; (8002ab8 <Vector78+0x28>)
 8002a9e:	6982      	ldr	r2, [r0, #24]
 8002aa0:	030c      	lsls	r4, r1, #12
 8002aa2:	605c      	str	r4, [r3, #4]
 8002aa4:	b10a      	cbz	r2, 8002aaa <Vector78+0x1a>
 8002aa6:	69c0      	ldr	r0, [r0, #28]
 8002aa8:	4790      	blx	r2
 8002aaa:	e8bd 4010 	ldmia.w	sp!, {r4, lr}
 8002aae:	f7ff bddf 	b.w	8002670 <_port_irq_epilogue>
 8002ab2:	bf00      	nop
 8002ab4:	40020000 	.word	0x40020000
 8002ab8:	20000a74 	.word	0x20000a74
 8002abc:	f3af 8000 	nop.w

08002ac0 <Vector74>:
 8002ac0:	4b08      	ldr	r3, [pc, #32]	; (8002ae4 <Vector74+0x24>)
 8002ac2:	6819      	ldr	r1, [r3, #0]
 8002ac4:	f3c1 2103 	ubfx	r1, r1, #8, #4
 8002ac8:	b510      	push	{r4, lr}
 8002aca:	b131      	cbz	r1, 8002ada <Vector74+0x1a>
 8002acc:	4806      	ldr	r0, [pc, #24]	; (8002ae8 <Vector74+0x28>)
 8002ace:	6902      	ldr	r2, [r0, #16]
 8002ad0:	020c      	lsls	r4, r1, #8
 8002ad2:	605c      	str	r4, [r3, #4]
 8002ad4:	b10a      	cbz	r2, 8002ada <Vector74+0x1a>
 8002ad6:	6940      	ldr	r0, [r0, #20]
 8002ad8:	4790      	blx	r2
 8002ada:	e8bd 4010 	ldmia.w	sp!, {r4, lr}
 8002ade:	f7ff bdc7 	b.w	8002670 <_port_irq_epilogue>
 8002ae2:	bf00      	nop
 8002ae4:	40020000 	.word	0x40020000
 8002ae8:	20000a74 	.word	0x20000a74
 8002aec:	f3af 8000 	nop.w

08002af0 <Vector70>:
 8002af0:	4b08      	ldr	r3, [pc, #32]	; (8002b14 <Vector70+0x24>)
 8002af2:	6819      	ldr	r1, [r3, #0]
 8002af4:	f3c1 1103 	ubfx	r1, r1, #4, #4
 8002af8:	b510      	push	{r4, lr}
 8002afa:	b131      	cbz	r1, 8002b0a <Vector70+0x1a>
 8002afc:	4806      	ldr	r0, [pc, #24]	; (8002b18 <Vector70+0x28>)
 8002afe:	6882      	ldr	r2, [r0, #8]
 8002b00:	010c      	lsls	r4, r1, #4
 8002b02:	605c      	str	r4, [r3, #4]
 8002b04:	b10a      	cbz	r2, 8002b0a <Vector70+0x1a>
 8002b06:	68c0      	ldr	r0, [r0, #12]
 8002b08:	4790      	blx	r2
 8002b0a:	e8bd 4010 	ldmia.w	sp!, {r4, lr}
 8002b0e:	f7ff bdaf 	b.w	8002670 <_port_irq_epilogue>
 8002b12:	bf00      	nop
 8002b14:	40020000 	.word	0x40020000
 8002b18:	20000a74 	.word	0x20000a74
 8002b1c:	f3af 8000 	nop.w

08002b20 <Vector6C>:
 8002b20:	b508      	push	{r3, lr}
 8002b22:	4b07      	ldr	r3, [pc, #28]	; (8002b40 <Vector6C+0x20>)
 8002b24:	6819      	ldr	r1, [r3, #0]
 8002b26:	f011 010f 	ands.w	r1, r1, #15
 8002b2a:	d005      	beq.n	8002b38 <Vector6C+0x18>
 8002b2c:	4a05      	ldr	r2, [pc, #20]	; (8002b44 <Vector6C+0x24>)
 8002b2e:	6059      	str	r1, [r3, #4]
 8002b30:	6813      	ldr	r3, [r2, #0]
 8002b32:	b10b      	cbz	r3, 8002b38 <Vector6C+0x18>
 8002b34:	6850      	ldr	r0, [r2, #4]
 8002b36:	4798      	blx	r3
 8002b38:	e8bd 4008 	ldmia.w	sp!, {r3, lr}
 8002b3c:	f7ff bd98 	b.w	8002670 <_port_irq_epilogue>
 8002b40:	40020000 	.word	0x40020000
 8002b44:	20000a74 	.word	0x20000a74
 8002b48:	f3af 8000 	nop.w
 8002b4c:	f3af 8000 	nop.w

08002b50 <chTMStopMeasurementX>:
 8002b50:	4a0e      	ldr	r2, [pc, #56]	; (8002b8c <chTMStopMeasurementX+0x3c>)
 8002b52:	4b0f      	ldr	r3, [pc, #60]	; (8002b90 <chTMStopMeasurementX+0x40>)
 8002b54:	6851      	ldr	r1, [r2, #4]
 8002b56:	b4f0      	push	{r4, r5, r6, r7}
 8002b58:	6886      	ldr	r6, [r0, #8]
 8002b5a:	6f1f      	ldr	r7, [r3, #112]	; 0x70
 8002b5c:	6844      	ldr	r4, [r0, #4]
 8002b5e:	68c5      	ldr	r5, [r0, #12]
 8002b60:	e9d0 2304 	ldrd	r2, r3, [r0, #16]
 8002b64:	1b89      	subs	r1, r1, r6
 8002b66:	1bc9      	subs	r1, r1, r7
 8002b68:	1852      	adds	r2, r2, r1
 8002b6a:	f143 0300 	adc.w	r3, r3, #0
 8002b6e:	e9c0 2304 	strd	r2, r3, [r0, #16]
 8002b72:	6803      	ldr	r3, [r0, #0]
 8002b74:	6081      	str	r1, [r0, #8]
 8002b76:	42a1      	cmp	r1, r4
 8002b78:	f105 0501 	add.w	r5, r5, #1
 8002b7c:	bf88      	it	hi
 8002b7e:	6041      	strhi	r1, [r0, #4]
 8002b80:	4299      	cmp	r1, r3
 8002b82:	60c5      	str	r5, [r0, #12]
 8002b84:	bf38      	it	cc
 8002b86:	6001      	strcc	r1, [r0, #0]
 8002b88:	bcf0      	pop	{r4, r5, r6, r7}
 8002b8a:	4770      	bx	lr
 8002b8c:	e0001000 	.word	0xe0001000
 8002b90:	20000838 	.word	0x20000838
 8002b94:	f3af 8000 	nop.w
 8002b98:	f3af 8000 	nop.w
 8002b9c:	f3af 8000 	nop.w

08002ba0 <chSchDoRescheduleAhead>:
 8002ba0:	4a0d      	ldr	r2, [pc, #52]	; (8002bd8 <chSchDoRescheduleAhead+0x38>)
 8002ba2:	6810      	ldr	r0, [r2, #0]
 8002ba4:	b470      	push	{r4, r5, r6}
 8002ba6:	6803      	ldr	r3, [r0, #0]
 8002ba8:	6995      	ldr	r5, [r2, #24]
 8002baa:	6013      	str	r3, [r2, #0]
 8002bac:	2601      	movs	r6, #1
 8002bae:	2100      	movs	r1, #0
 8002bb0:	68ac      	ldr	r4, [r5, #8]
 8002bb2:	605a      	str	r2, [r3, #4]
 8002bb4:	7706      	strb	r6, [r0, #28]
 8002bb6:	6190      	str	r0, [r2, #24]
 8002bb8:	7729      	strb	r1, [r5, #28]
 8002bba:	e000      	b.n	8002bbe <chSchDoRescheduleAhead+0x1e>
 8002bbc:	681b      	ldr	r3, [r3, #0]
 8002bbe:	689a      	ldr	r2, [r3, #8]
 8002bc0:	42a2      	cmp	r2, r4
 8002bc2:	d8fb      	bhi.n	8002bbc <chSchDoRescheduleAhead+0x1c>
 8002bc4:	685a      	ldr	r2, [r3, #4]
 8002bc6:	606a      	str	r2, [r5, #4]
 8002bc8:	602b      	str	r3, [r5, #0]
 8002bca:	4629      	mov	r1, r5
 8002bcc:	6015      	str	r5, [r2, #0]
 8002bce:	605d      	str	r5, [r3, #4]
 8002bd0:	bc70      	pop	{r4, r5, r6}
 8002bd2:	f7fd bb85 	b.w	80002e0 <_port_switch>
 8002bd6:	bf00      	nop
 8002bd8:	20000838 	.word	0x20000838
 8002bdc:	f3af 8000 	nop.w

08002be0 <chSchGoSleepS>:
 8002be0:	4b07      	ldr	r3, [pc, #28]	; (8002c00 <chSchGoSleepS+0x20>)
 8002be2:	b430      	push	{r4, r5}
 8002be4:	681a      	ldr	r2, [r3, #0]
 8002be6:	6999      	ldr	r1, [r3, #24]
 8002be8:	6814      	ldr	r4, [r2, #0]
 8002bea:	7708      	strb	r0, [r1, #28]
 8002bec:	2501      	movs	r5, #1
 8002bee:	6063      	str	r3, [r4, #4]
 8002bf0:	7715      	strb	r5, [r2, #28]
 8002bf2:	601c      	str	r4, [r3, #0]
 8002bf4:	4610      	mov	r0, r2
 8002bf6:	bc30      	pop	{r4, r5}
 8002bf8:	619a      	str	r2, [r3, #24]
 8002bfa:	f7fd bb71 	b.w	80002e0 <_port_switch>
 8002bfe:	bf00      	nop
 8002c00:	20000838 	.word	0x20000838
 8002c04:	f3af 8000 	nop.w
 8002c08:	f3af 8000 	nop.w
 8002c0c:	f3af 8000 	nop.w

08002c10 <chThdSuspendS>:
 8002c10:	b510      	push	{r4, lr}
 8002c12:	4c05      	ldr	r4, [pc, #20]	; (8002c28 <chThdSuspendS+0x18>)
 8002c14:	69a3      	ldr	r3, [r4, #24]
 8002c16:	6003      	str	r3, [r0, #0]
 8002c18:	4602      	mov	r2, r0
 8002c1a:	621a      	str	r2, [r3, #32]
 8002c1c:	2003      	movs	r0, #3
 8002c1e:	f7ff ffdf 	bl	8002be0 <chSchGoSleepS>
 8002c22:	69a3      	ldr	r3, [r4, #24]
 8002c24:	6a18      	ldr	r0, [r3, #32]
 8002c26:	bd10      	pop	{r4, pc}
 8002c28:	20000838 	.word	0x20000838
 8002c2c:	f3af 8000 	nop.w

08002c30 <chSchReadyI>:
 8002c30:	2200      	movs	r2, #0
 8002c32:	6881      	ldr	r1, [r0, #8]
 8002c34:	4b08      	ldr	r3, [pc, #32]	; (8002c58 <chSchReadyI+0x28>)
 8002c36:	b410      	push	{r4}
 8002c38:	4604      	mov	r4, r0
 8002c3a:	7702      	strb	r2, [r0, #28]
 8002c3c:	681b      	ldr	r3, [r3, #0]
 8002c3e:	689a      	ldr	r2, [r3, #8]
 8002c40:	428a      	cmp	r2, r1
 8002c42:	d2fb      	bcs.n	8002c3c <chSchReadyI+0xc>
 8002c44:	685a      	ldr	r2, [r3, #4]
 8002c46:	6062      	str	r2, [r4, #4]
 8002c48:	6023      	str	r3, [r4, #0]
 8002c4a:	4620      	mov	r0, r4
 8002c4c:	6014      	str	r4, [r2, #0]
 8002c4e:	605c      	str	r4, [r3, #4]
 8002c50:	f85d 4b04 	ldr.w	r4, [sp], #4
 8002c54:	4770      	bx	lr
 8002c56:	bf00      	nop
 8002c58:	20000838 	.word	0x20000838
 8002c5c:	f3af 8000 	nop.w

08002c60 <chEvtBroadcastFlagsI>:
 8002c60:	b5f8      	push	{r3, r4, r5, r6, r7, lr}
 8002c62:	6804      	ldr	r4, [r0, #0]
 8002c64:	42a0      	cmp	r0, r4
 8002c66:	4607      	mov	r7, r0
 8002c68:	460d      	mov	r5, r1
 8002c6a:	d01f      	beq.n	8002cac <chEvtBroadcastFlagsI+0x4c>
 8002c6c:	2600      	movs	r6, #0
 8002c6e:	e002      	b.n	8002c76 <chEvtBroadcastFlagsI+0x16>
 8002c70:	6824      	ldr	r4, [r4, #0]
 8002c72:	42a7      	cmp	r7, r4
 8002c74:	d01a      	beq.n	8002cac <chEvtBroadcastFlagsI+0x4c>
 8002c76:	68e3      	ldr	r3, [r4, #12]
 8002c78:	432b      	orrs	r3, r5
 8002c7a:	60e3      	str	r3, [r4, #12]
 8002c7c:	b115      	cbz	r5, 8002c84 <chEvtBroadcastFlagsI+0x24>
 8002c7e:	6922      	ldr	r2, [r4, #16]
 8002c80:	4213      	tst	r3, r2
 8002c82:	d0f5      	beq.n	8002c70 <chEvtBroadcastFlagsI+0x10>
 8002c84:	6860      	ldr	r0, [r4, #4]
 8002c86:	68a2      	ldr	r2, [r4, #8]
 8002c88:	6b01      	ldr	r1, [r0, #48]	; 0x30
 8002c8a:	7f03      	ldrb	r3, [r0, #28]
 8002c8c:	430a      	orrs	r2, r1
 8002c8e:	2b0a      	cmp	r3, #10
 8002c90:	6302      	str	r2, [r0, #48]	; 0x30
 8002c92:	d00c      	beq.n	8002cae <chEvtBroadcastFlagsI+0x4e>
 8002c94:	2b0b      	cmp	r3, #11
 8002c96:	d1eb      	bne.n	8002c70 <chEvtBroadcastFlagsI+0x10>
 8002c98:	6a03      	ldr	r3, [r0, #32]
 8002c9a:	401a      	ands	r2, r3
 8002c9c:	4293      	cmp	r3, r2
 8002c9e:	d1e7      	bne.n	8002c70 <chEvtBroadcastFlagsI+0x10>
 8002ca0:	6206      	str	r6, [r0, #32]
 8002ca2:	f7ff ffc5 	bl	8002c30 <chSchReadyI>
 8002ca6:	6824      	ldr	r4, [r4, #0]
 8002ca8:	42a7      	cmp	r7, r4
 8002caa:	d1e4      	bne.n	8002c76 <chEvtBroadcastFlagsI+0x16>
 8002cac:	bdf8      	pop	{r3, r4, r5, r6, r7, pc}
 8002cae:	6a03      	ldr	r3, [r0, #32]
 8002cb0:	421a      	tst	r2, r3
 8002cb2:	d0dd      	beq.n	8002c70 <chEvtBroadcastFlagsI+0x10>
 8002cb4:	6206      	str	r6, [r0, #32]
 8002cb6:	f7ff ffbb 	bl	8002c30 <chSchReadyI>
 8002cba:	e7f4      	b.n	8002ca6 <chEvtBroadcastFlagsI+0x46>
 8002cbc:	f3af 8000 	nop.w

08002cc0 <chMtxUnlock>:
 8002cc0:	b570      	push	{r4, r5, r6, lr}
 8002cc2:	4e1a      	ldr	r6, [pc, #104]	; (8002d2c <chMtxUnlock+0x6c>)
 8002cc4:	4604      	mov	r4, r0
 8002cc6:	2320      	movs	r3, #32
 8002cc8:	69b0      	ldr	r0, [r6, #24]
 8002cca:	f383 8811 	msr	BASEPRI, r3
 8002cce:	6825      	ldr	r5, [r4, #0]
 8002cd0:	68e3      	ldr	r3, [r4, #12]
 8002cd2:	6343      	str	r3, [r0, #52]	; 0x34
 8002cd4:	42ac      	cmp	r4, r5
 8002cd6:	d022      	beq.n	8002d1e <chMtxUnlock+0x5e>
 8002cd8:	6b81      	ldr	r1, [r0, #56]	; 0x38
 8002cda:	b14b      	cbz	r3, 8002cf0 <chMtxUnlock+0x30>
 8002cdc:	681a      	ldr	r2, [r3, #0]
 8002cde:	4293      	cmp	r3, r2
 8002ce0:	d003      	beq.n	8002cea <chMtxUnlock+0x2a>
 8002ce2:	6892      	ldr	r2, [r2, #8]
 8002ce4:	4291      	cmp	r1, r2
 8002ce6:	bf38      	it	cc
 8002ce8:	4611      	movcc	r1, r2
 8002cea:	68db      	ldr	r3, [r3, #12]
 8002cec:	2b00      	cmp	r3, #0
 8002cee:	d1f5      	bne.n	8002cdc <chMtxUnlock+0x1c>
 8002cf0:	682b      	ldr	r3, [r5, #0]
 8002cf2:	6b6a      	ldr	r2, [r5, #52]	; 0x34
 8002cf4:	6081      	str	r1, [r0, #8]
 8002cf6:	6023      	str	r3, [r4, #0]
 8002cf8:	4628      	mov	r0, r5
 8002cfa:	605c      	str	r4, [r3, #4]
 8002cfc:	60e2      	str	r2, [r4, #12]
 8002cfe:	60a5      	str	r5, [r4, #8]
 8002d00:	636c      	str	r4, [r5, #52]	; 0x34
 8002d02:	f7ff ff95 	bl	8002c30 <chSchReadyI>
 8002d06:	6832      	ldr	r2, [r6, #0]
 8002d08:	69b3      	ldr	r3, [r6, #24]
 8002d0a:	6892      	ldr	r2, [r2, #8]
 8002d0c:	689b      	ldr	r3, [r3, #8]
 8002d0e:	429a      	cmp	r2, r3
 8002d10:	d901      	bls.n	8002d16 <chMtxUnlock+0x56>
 8002d12:	f7ff ff45 	bl	8002ba0 <chSchDoRescheduleAhead>
 8002d16:	2300      	movs	r3, #0
 8002d18:	f383 8811 	msr	BASEPRI, r3
 8002d1c:	bd70      	pop	{r4, r5, r6, pc}
 8002d1e:	2300      	movs	r3, #0
 8002d20:	60a3      	str	r3, [r4, #8]
 8002d22:	2300      	movs	r3, #0
 8002d24:	f383 8811 	msr	BASEPRI, r3
 8002d28:	bd70      	pop	{r4, r5, r6, pc}
 8002d2a:	bf00      	nop
 8002d2c:	20000838 	.word	0x20000838

08002d30 <chMtxLockS>:
 8002d30:	b570      	push	{r4, r5, r6, lr}
 8002d32:	4b2f      	ldr	r3, [pc, #188]	; (8002df0 <chMtxLockS+0xc0>)
 8002d34:	4605      	mov	r5, r0
 8002d36:	6880      	ldr	r0, [r0, #8]
 8002d38:	699c      	ldr	r4, [r3, #24]
 8002d3a:	2800      	cmp	r0, #0
 8002d3c:	d053      	beq.n	8002de6 <chMtxLockS+0xb6>
 8002d3e:	68a2      	ldr	r2, [r4, #8]
 8002d40:	6883      	ldr	r3, [r0, #8]
 8002d42:	4293      	cmp	r3, r2
 8002d44:	d206      	bcs.n	8002d54 <chMtxLockS+0x24>
 8002d46:	7f03      	ldrb	r3, [r0, #28]
 8002d48:	6082      	str	r2, [r0, #8]
 8002d4a:	2b06      	cmp	r3, #6
 8002d4c:	d032      	beq.n	8002db4 <chMtxLockS+0x84>
 8002d4e:	2b07      	cmp	r3, #7
 8002d50:	d01c      	beq.n	8002d8c <chMtxLockS+0x5c>
 8002d52:	b19b      	cbz	r3, 8002d7c <chMtxLockS+0x4c>
 8002d54:	462b      	mov	r3, r5
 8002d56:	e003      	b.n	8002d60 <chMtxLockS+0x30>
 8002d58:	6899      	ldr	r1, [r3, #8]
 8002d5a:	68a2      	ldr	r2, [r4, #8]
 8002d5c:	4291      	cmp	r1, r2
 8002d5e:	d302      	bcc.n	8002d66 <chMtxLockS+0x36>
 8002d60:	681b      	ldr	r3, [r3, #0]
 8002d62:	429d      	cmp	r5, r3
 8002d64:	d1f8      	bne.n	8002d58 <chMtxLockS+0x28>
 8002d66:	685a      	ldr	r2, [r3, #4]
 8002d68:	6062      	str	r2, [r4, #4]
 8002d6a:	6023      	str	r3, [r4, #0]
 8002d6c:	6014      	str	r4, [r2, #0]
 8002d6e:	605c      	str	r4, [r3, #4]
 8002d70:	6225      	str	r5, [r4, #32]
 8002d72:	2006      	movs	r0, #6
 8002d74:	e8bd 4070 	ldmia.w	sp!, {r4, r5, r6, lr}
 8002d78:	f7ff bf32 	b.w	8002be0 <chSchGoSleepS>
 8002d7c:	e890 000c 	ldmia.w	r0, {r2, r3}
 8002d80:	601a      	str	r2, [r3, #0]
 8002d82:	6802      	ldr	r2, [r0, #0]
 8002d84:	6053      	str	r3, [r2, #4]
 8002d86:	f7ff ff53 	bl	8002c30 <chSchReadyI>
 8002d8a:	e7e3      	b.n	8002d54 <chMtxLockS+0x24>
 8002d8c:	e890 000a 	ldmia.w	r0, {r1, r3}
 8002d90:	6019      	str	r1, [r3, #0]
 8002d92:	6a06      	ldr	r6, [r0, #32]
 8002d94:	6801      	ldr	r1, [r0, #0]
 8002d96:	604b      	str	r3, [r1, #4]
 8002d98:	4633      	mov	r3, r6
 8002d9a:	e002      	b.n	8002da2 <chMtxLockS+0x72>
 8002d9c:	6899      	ldr	r1, [r3, #8]
 8002d9e:	4291      	cmp	r1, r2
 8002da0:	d302      	bcc.n	8002da8 <chMtxLockS+0x78>
 8002da2:	681b      	ldr	r3, [r3, #0]
 8002da4:	429e      	cmp	r6, r3
 8002da6:	d1f9      	bne.n	8002d9c <chMtxLockS+0x6c>
 8002da8:	685a      	ldr	r2, [r3, #4]
 8002daa:	6042      	str	r2, [r0, #4]
 8002dac:	6003      	str	r3, [r0, #0]
 8002dae:	6010      	str	r0, [r2, #0]
 8002db0:	6058      	str	r0, [r3, #4]
 8002db2:	e7cf      	b.n	8002d54 <chMtxLockS+0x24>
 8002db4:	e890 000a 	ldmia.w	r0, {r1, r3}
 8002db8:	6019      	str	r1, [r3, #0]
 8002dba:	6a06      	ldr	r6, [r0, #32]
 8002dbc:	6801      	ldr	r1, [r0, #0]
 8002dbe:	604b      	str	r3, [r1, #4]
 8002dc0:	4633      	mov	r3, r6
 8002dc2:	e002      	b.n	8002dca <chMtxLockS+0x9a>
 8002dc4:	6899      	ldr	r1, [r3, #8]
 8002dc6:	4291      	cmp	r1, r2
 8002dc8:	d302      	bcc.n	8002dd0 <chMtxLockS+0xa0>
 8002dca:	681b      	ldr	r3, [r3, #0]
 8002dcc:	429e      	cmp	r6, r3
 8002dce:	d1f9      	bne.n	8002dc4 <chMtxLockS+0x94>
 8002dd0:	685a      	ldr	r2, [r3, #4]
 8002dd2:	6042      	str	r2, [r0, #4]
 8002dd4:	6003      	str	r3, [r0, #0]
 8002dd6:	6010      	str	r0, [r2, #0]
 8002dd8:	6058      	str	r0, [r3, #4]
 8002dda:	68b0      	ldr	r0, [r6, #8]
 8002ddc:	68a2      	ldr	r2, [r4, #8]
 8002dde:	6883      	ldr	r3, [r0, #8]
 8002de0:	4293      	cmp	r3, r2
 8002de2:	d3b0      	bcc.n	8002d46 <chMtxLockS+0x16>
 8002de4:	e7b6      	b.n	8002d54 <chMtxLockS+0x24>
 8002de6:	6b63      	ldr	r3, [r4, #52]	; 0x34
 8002de8:	60eb      	str	r3, [r5, #12]
 8002dea:	60ac      	str	r4, [r5, #8]
 8002dec:	6365      	str	r5, [r4, #52]	; 0x34
 8002dee:	bd70      	pop	{r4, r5, r6, pc}
 8002df0:	20000838 	.word	0x20000838
 8002df4:	f3af 8000 	nop.w
 8002df8:	f3af 8000 	nop.w
 8002dfc:	f3af 8000 	nop.w

08002e00 <chThdExitS>:
 8002e00:	b538      	push	{r3, r4, r5, lr}
 8002e02:	4b0e      	ldr	r3, [pc, #56]	; (8002e3c <chThdExitS+0x3c>)
 8002e04:	699c      	ldr	r4, [r3, #24]
 8002e06:	6a63      	ldr	r3, [r4, #36]	; 0x24
 8002e08:	6220      	str	r0, [r4, #32]
 8002e0a:	f104 0524 	add.w	r5, r4, #36	; 0x24
 8002e0e:	429d      	cmp	r5, r3
 8002e10:	d007      	beq.n	8002e22 <chThdExitS+0x22>
 8002e12:	681a      	ldr	r2, [r3, #0]
 8002e14:	6262      	str	r2, [r4, #36]	; 0x24
 8002e16:	4618      	mov	r0, r3
 8002e18:	f7ff ff0a 	bl	8002c30 <chSchReadyI>
 8002e1c:	6a63      	ldr	r3, [r4, #36]	; 0x24
 8002e1e:	42ab      	cmp	r3, r5
 8002e20:	d1f7      	bne.n	8002e12 <chThdExitS+0x12>
 8002e22:	7f63      	ldrb	r3, [r4, #29]
 8002e24:	079b      	lsls	r3, r3, #30
 8002e26:	d104      	bne.n	8002e32 <chThdExitS+0x32>
 8002e28:	6963      	ldr	r3, [r4, #20]
 8002e2a:	6922      	ldr	r2, [r4, #16]
 8002e2c:	611a      	str	r2, [r3, #16]
 8002e2e:	6922      	ldr	r2, [r4, #16]
 8002e30:	6153      	str	r3, [r2, #20]
 8002e32:	200f      	movs	r0, #15
 8002e34:	e8bd 4038 	ldmia.w	sp!, {r3, r4, r5, lr}
 8002e38:	f7ff bed2 	b.w	8002be0 <chSchGoSleepS>
 8002e3c:	20000838 	.word	0x20000838

08002e40 <BusFault_Handler>:
 8002e40:	e7fe      	b.n	8002e40 <BusFault_Handler>
 8002e42:	bf00      	nop
 8002e44:	f3af 8000 	nop.w
 8002e48:	f3af 8000 	nop.w
 8002e4c:	f3af 8000 	nop.w

08002e50 <strpbrk>:
 8002e50:	b4f0      	push	{r4, r5, r6, r7}
 8002e52:	7804      	ldrb	r4, [r0, #0]
 8002e54:	b30c      	cbz	r4, 8002e9a <strpbrk+0x4a>
 8002e56:	780e      	ldrb	r6, [r1, #0]
 8002e58:	4607      	mov	r7, r0
 8002e5a:	b1c6      	cbz	r6, 8002e8e <strpbrk+0x3e>
 8002e5c:	42a6      	cmp	r6, r4
 8002e5e:	d010      	beq.n	8002e82 <strpbrk+0x32>
 8002e60:	1c4b      	adds	r3, r1, #1
 8002e62:	e001      	b.n	8002e68 <strpbrk+0x18>
 8002e64:	4294      	cmp	r4, r2
 8002e66:	d00b      	beq.n	8002e80 <strpbrk+0x30>
 8002e68:	461d      	mov	r5, r3
 8002e6a:	f813 2b01 	ldrb.w	r2, [r3], #1
 8002e6e:	2a00      	cmp	r2, #0
 8002e70:	d1f8      	bne.n	8002e64 <strpbrk+0x14>
 8002e72:	7844      	ldrb	r4, [r0, #1]
 8002e74:	3001      	adds	r0, #1
 8002e76:	2c00      	cmp	r4, #0
 8002e78:	d1ee      	bne.n	8002e58 <strpbrk+0x8>
 8002e7a:	782e      	ldrb	r6, [r5, #0]
 8002e7c:	4607      	mov	r7, r0
 8002e7e:	e000      	b.n	8002e82 <strpbrk+0x32>
 8002e80:	4626      	mov	r6, r4
 8002e82:	2e00      	cmp	r6, #0
 8002e84:	bf14      	ite	ne
 8002e86:	4638      	movne	r0, r7
 8002e88:	2000      	moveq	r0, #0
 8002e8a:	bcf0      	pop	{r4, r5, r6, r7}
 8002e8c:	4770      	bx	lr
 8002e8e:	7844      	ldrb	r4, [r0, #1]
 8002e90:	460d      	mov	r5, r1
 8002e92:	3001      	adds	r0, #1
 8002e94:	2c00      	cmp	r4, #0
 8002e96:	d1df      	bne.n	8002e58 <strpbrk+0x8>
 8002e98:	e7ef      	b.n	8002e7a <strpbrk+0x2a>
 8002e9a:	4620      	mov	r0, r4
 8002e9c:	bcf0      	pop	{r4, r5, r6, r7}
 8002e9e:	4770      	bx	lr

08002ea0 <strspn>:
 8002ea0:	b4f0      	push	{r4, r5, r6, r7}
 8002ea2:	7804      	ldrb	r4, [r0, #0]
 8002ea4:	b1cc      	cbz	r4, 8002eda <strspn+0x3a>
 8002ea6:	780e      	ldrb	r6, [r1, #0]
 8002ea8:	4607      	mov	r7, r0
 8002eaa:	b19e      	cbz	r6, 8002ed4 <strspn+0x34>
 8002eac:	4605      	mov	r5, r0
 8002eae:	42b4      	cmp	r4, r6
 8002eb0:	d00a      	beq.n	8002ec8 <strspn+0x28>
 8002eb2:	460a      	mov	r2, r1
 8002eb4:	e001      	b.n	8002eba <strspn+0x1a>
 8002eb6:	429c      	cmp	r4, r3
 8002eb8:	d006      	beq.n	8002ec8 <strspn+0x28>
 8002eba:	f812 3f01 	ldrb.w	r3, [r2, #1]!
 8002ebe:	2b00      	cmp	r3, #0
 8002ec0:	d1f9      	bne.n	8002eb6 <strspn+0x16>
 8002ec2:	1a28      	subs	r0, r5, r0
 8002ec4:	bcf0      	pop	{r4, r5, r6, r7}
 8002ec6:	4770      	bx	lr
 8002ec8:	786c      	ldrb	r4, [r5, #1]
 8002eca:	1c7d      	adds	r5, r7, #1
 8002ecc:	2c00      	cmp	r4, #0
 8002ece:	d0f8      	beq.n	8002ec2 <strspn+0x22>
 8002ed0:	462f      	mov	r7, r5
 8002ed2:	e7ec      	b.n	8002eae <strspn+0xe>
 8002ed4:	4630      	mov	r0, r6
 8002ed6:	bcf0      	pop	{r4, r5, r6, r7}
 8002ed8:	4770      	bx	lr
 8002eda:	4620      	mov	r0, r4
 8002edc:	e7f2      	b.n	8002ec4 <strspn+0x24>
 8002ede:	bf00      	nop

08002ee0 <dummytx.8890.4535>:
 8002ee0:	ffff 0000 0000 0000 0000 0000 0000 0000     ................
 8002ef0:	4d44 2041 6166 6c69 7275 0065 0920 0000     DMA failure. ...
 8002f00:	6e28 6c75 296c 0000 7325 0d0a 0000 0000     (null)..%s......
 8002f10:	7355 6761 3a65 2520 0d73 000a 7973 7473     Usage: %s...syst
 8002f20:	6d69 0065 6c25 0d75 000a 0000 6e69 6f66     ime.%lu.....info
 8002f30:	0000 0000 654b 6e72 6c65 203a 2020 2020     ....Kernel:     
 8002f40:	2020 7325 0a0d 0000 2e33 2e32 0030 0000       %s....3.2.0...
 8002f50:	6f43 706d 6c69 7265 203a 2020 2020 7325     Compiler:     %s
 8002f60:	0a0d 0000 4347 2043 2e34 2e38 2034 3032     ....GCC 4.8.4 20
 8002f70:	3431 3530 3632 2820 6572 656c 7361 2965     140526 (release)
 8002f80:	5b20 5241 2f4d 6d65 6562 6464 6465 342d      [ARM/embedded-4
 8002f90:	385f 622d 6172 636e 2068 6572 6976 6973     _8-branch revisi
 8002fa0:	6e6f 3220 3131 3533 5d38 0000 7241 6863     on 211358]..Arch
 8002fb0:	7469 6365 7574 6572 203a 7325 0a0d 0000     itecture: %s....
 8002fc0:	5241 764d 4537 4d2d 0000 0000 6f43 6572     ARMv7E-M....Core
 8002fd0:	5620 7261 6169 746e 203a 7325 0a0d 0000      Variant: %s....
 8002fe0:	6f43 7472 7865 4d2d 0034 0000 6f50 7472     Cortex-M4...Port
 8002ff0:	4920 666e 3a6f 2020 2020 7325 0a0d 0000      Info:    %s....
 8003000:	6441 6176 636e 6465 6b20 7265 656e 206c     Advanced kernel 
 8003010:	6f6d 6564 0000 0000 6c50 7461 6f66 6d72     mode....Platform
 8003020:	203a 2020 2020 7325 0a0d 0000 5453 334d     :     %s....STM3
 8003030:	4632 3033 7833 2043 6e41 6c61 676f 2620     2F303xC Analog &
 8003040:	4420 5053 0000 0000 6f42 7261 3a64 2020      DSP....Board:  
 8003050:	2020 2020 2020 7325 0a0d 0000 5453 694d           %s....STMi
 8003060:	7263 656f 656c 7463 6f72 696e 7363 5320     croelectronics S
 8003070:	4d54 3233 3346 442d 7369 6f63 6576 7972     TM32F3-Discovery
 8003080:	0000 0000 7542 6c69 2064 6974 656d 203a     ....Build time: 
 8003090:	2020 7325 7325 7325 0a0d 0000 614d 2072       %s%s%s....Mar 
 80030a0:	3820 3220 3130 0036 2d20 0020 3831 333a      8 2016. - .18:3
 80030b0:	3a33 3735 0000 0000 0000 0000 0000 0000     3:57............

080030c0 <vmt.7902.4748>:
 80030c0:	0901 0800 07d1 0800 0851 0800 0731 0800     ........Q...1...
 80030d0:	0841 0800 0721 0800 08f1 0800 07c1 0800     A...!...........

080030e0 <ram_areas.4024.4749>:
 80030e0:	33dc 0800 0c50 2000 0c50 2000 0c50 2000     .3..P.. P.. P.. 
 80030f0:	33dc 0800 0000 0000 0000 0000 0000 0000     .3..............
 8003100:	33dc 0800 0000 0000 0000 0000 0000 0000     .3..............
 8003110:	33dc 0800 0000 0000 0000 0000 0000 0000     .3..............
 8003120:	33dc 0800 0000 1000 0000 1000 0000 1000     .3..............
 8003130:	33dc 0800 0000 0000 0000 0000 0000 0000     .3..............
 8003140:	33dc 0800 0000 0000 0000 0000 0000 0000     .3..............
 8003150:	33dc 0800 0000 0000 0000 0000 0000 0000     .3..............

08003160 <commands.13018>:
 8003160:	3314 0800 10c1 0800 331c 0800 1f71 0800     .3.......3..q...
	...

08003180 <_stm32_dma_streams.4746>:
 8003180:	0000 4002 0008 4002 0001 0000 0000 0000     ...@...@........
 8003190:	0000 000b 0000 4002 001c 4002 0002 0000     .......@...@....
 80031a0:	0000 0000 0104 000c 0000 4002 0030 4002     ...........@0..@
 80031b0:	0004 0000 0000 0000 0208 000d 0000 4002     ...............@
 80031c0:	0044 4002 0008 0000 0000 0000 030c 000e     D..@............
 80031d0:	0000 4002 0058 4002 0010 0000 0000 0000     ...@X..@........
 80031e0:	0410 000f 0000 4002 006c 4002 0020 0000     .......@l..@ ...
 80031f0:	0000 0000 0514 0010 0000 4002 0080 4002     ...........@...@
 8003200:	0040 0000 0000 0000 0618 0011 0400 4002     @..............@
 8003210:	0408 4002 0080 0000 0000 0000 0700 0038     ...@..........8.
 8003220:	0400 4002 041c 4002 0100 0000 0000 0000     ...@...@........
 8003230:	0804 0039 0400 4002 0430 4002 0200 0000     ..9....@0..@....
 8003240:	0000 0000 0908 003a 0400 4002 0444 4002     ......:....@D..@
 8003250:	0400 0000 0000 0000 0a0c 003b 0400 4002     ..........;....@
 8003260:	0458 4002 0800 0000 0000 0000 0b10 003c     X..@..........<.
 8003270:	6873 6c65 006c 0000 0a0d 6843 6269 4f69     shell.....ChibiO
 8003280:	2f53 5452 5320 6568 6c6c 0a0d 0000 0000     S/RT Shell......
 8003290:	6863 203e 0000 0000 445e 0000 6f74 206f     ch> ....^D..too 
 80032a0:	616d 796e 6120 6772 6d75 6e65 7374 0a0d     many arguments..
 80032b0:	0000 0000 7865 7469 0000 0000 6568 706c     ....exit....help
 80032c0:	0000 0000 6f43 6d6d 6e61 7364 203a 6568     ....Commands: he
 80032d0:	706c 6520 6978 2074 0000 0000 7325 0020     lp exit ....%s .
 80032e0:	7325 0000 3f20 0a0d 0000 0000 0a0d 6f6c     %s.. ?........lo
 80032f0:	6f67 7475 0000 0000 6469 656c 0000 0000     gout....idle....
 8003300:	0d0a 7055 6120 646e 5220 6e75 696e 676e     ..Up and Running
 8003310:	0d0a 0000 796d 6365 6f68 0000 6662 0000     ....myecho..bf..

08003320 <ch_debug.4702>:
 8003320:	616d 6e69 1600 1880 0404 0840 100c 1814     main......@.....
 8003330:	1c00 1e1d 0000 0000 0000 0000 0000 0000     ................

08003340 <shell_cfg1.13016>:
 8003340:	09bc 2000 3160 0800 0000 0000 0000 0000     ... `1..........
 8003350:	6d63 0064 6553 746e 203a 6425 2520 2078     cmd.Sent: %d %x 
 8003360:	0d0a 0000 6552 6563 7669 6465 003a 0000     ....Received:...
 8003370:	2520 0063 6853 6c65 206c 6944 6465 0d0a      %c.Shell Died..
 8003380:	0000 0000 6552 7473 7261 6974 676e 6620     ....Restarting f
 8003390:	6f72 206d 6574 6d72 6e69 7461 6f69 206e     rom termination 
 80033a0:	6168 646e 656c 0a72 000d 0000               handler.....
