ARM GAS  /tmp/ccNzjLd8.s 			page 1


   1              		.syntax unified
   2              		.cpu cortex-m4
   3              		.fpu softvfp
   4              		.eabi_attribute 20, 1
   5              		.eabi_attribute 21, 1
   6              		.eabi_attribute 23, 3
   7              		.eabi_attribute 24, 1
   8              		.eabi_attribute 25, 1
   9              		.eabi_attribute 26, 1
  10              		.eabi_attribute 30, 2
  11              		.eabi_attribute 34, 1
  12              		.eabi_attribute 18, 4
  13              		.thumb
  14              		.file	"chcore_v7m.c"
  15              		.text
  16              	.Ltext0:
  17              		.section	.gnu.lto_.jmpfuncs.8e3954938a1e7607,"",%progbits
  18 0000 789C6362 		.ascii	"x\234cb`b\300\006\270\24043\030\263\000I\000\001\302"
  18      6062C006 
  18      B8A03433 
  18      18B30049 
  18      0001C2
  19 0013 0019     		.ascii	"\000\031"
  20              		.text
  21              		.section	.gnu.lto_.inline.8e3954938a1e7607,"",%progbits
  22 0000 789C6362 		.ascii	"x\234cb`b\300\006\334\24043\003\003\277\030#\003\223"
  22      6062C006 
  22      DCA03433 
  22      0303BF18 
  22      230393
  23 0013 C8851E46 		.ascii	"\310\205\036F\006\266\005\362`\325L\334`\031N\016\240"
  23      06B605F2 
  23      60D54CDC 
  23      60194E0E 
  23      A0
  24 0024 04CF8358 		.ascii	"\004\317\203X\2708\013\003\0277HhN$\\\210\221\013D\002"
  24      B8380B03 
  24      17374868 
  24      4E245C88 
  24      910B4402 
  25 0038 000FB806 		.ascii	"\000\017\270\006\321"
  25      D1
  26              		.text
  27              		.section	.gnu.lto_.pureconst.8e3954938a1e7607,"",%progbits
  28 0000 789C6362 		.ascii	"x\234cb`b`g\200\000f\006+f+\026+\000\002\367\000\304"
  28      60626067 
  28      80006606 
  28      2B662B16 
  28      2B0002F7 
  29              		.text
  30              		.section	.gnu.lto__port_irq_epilogue.part.0.8e3954938a1e7607,"",%progbits
  31 0000 789CAD52 		.ascii	"x\234\255RMHTQ\024>\347\276\367F\235\234\212\026\201"
  31      4D485451 
  31      143EE7BE 
  31      F7469D9C 
  31      8A1681
  32 0013 10320861 		.ascii	"\0202\010a\240\314K\012\\\005\205\021\264\030\014G\241"
ARM GAS  /tmp/ccNzjLd8.s 			page 2


  32      A0CC4B0A 
  32      5C058511 
  32      B4180C47 
  32      A1
  33 0024 56313E27 		.ascii	"V1>'}\244\31603\206\021\344\235\237Hl\241\015\012iE"
  33      7DA4CE30 
  33      338611E4 
  33      9D9F486C 
  33      A10D0A69 
  34 0039 1A59660B 		.ascii	"\032Yf\013\251\026\271\234\210(\221\214V\021.\032j\021"
  34      A916B99C 
  34      8828918C 
  34      56112E1A 
  34      6A11
  35 004b 6184126D 		.ascii	"a\204\022m\354g:\367\276\367\306\231\010t\321\201\271"
  35      EC673AF7 
  35      BEF7C699 
  35      0874D181 
  35      B9
  36 005c E7CE3DE7 		.ascii	"\347\316=\347\373\276{\277\363\0300\370;\216\322\317"
  36      FBBE7BBF 
  36      F31830F8 
  36      3B8ED2CF 
  37 006c 5001A629 		.ascii	"P\001\246)c\031\240kd\2116.d23\246\014\326\002w\253"
  37      6319A06B 
  37      6489362E 
  37      643233A6 
  37      0CD60277 
  38 0081 62AD5450 		.ascii	"b\255TP\023\247\211r\325\331h\210b\003\010\003.\246"
  38      13A78972 
  38      D5D96888 
  38      62030803 
  38      2EA6
  39 0093 A81A0E9C 		.ascii	"\250\032\016\234B\301\252\326\300\024\347\231\334\245"
  39      42C1AAD6 
  39      C014E799 
  39      DCA5
  40 00a1 272B6C9C 		.ascii	"'+l\234g\323S\374g>\217h\"\335\240\001\301@8I\177\320"
  40      67D353FC 
  40      673E8F68 
  40      22DDA001 
  40      C1403849 
  41 00b7 2B13534B 		.ascii	"+\023SK\257$\261\023\271\265\317\303\256\361\321lz\262"
  41      AF24B113 
  41      B9B5CFC3 
  41      AEF1D16C 
  41      7AB2
  42 00c9 8085AD00 		.ascii	"\200\205\255\0003\331_/nT\361\311\344\010\377M8\023"
  42      33D95F2F 
  42      6E54F1C9 
  42      E408FF4D 
  42      3813
  43 00db 15061D5B 		.ascii	"\025\006\035[\222\314d\337\016\015W\015m U\006\346f"
  43      92CC64DF 
  43      0E0D570D 
  43      6D205506 
  43      E666
ARM GAS  /tmp/ccNzjLd8.s 			page 3


  44 00ed C839C673 		.ascii	"\3109\306s\371\374\273\307\025\225\010A\234\302\032"
  44      F9FCBBC7 
  44      15950841 
  44      9CC21A
  45 00fc 7A6110EF 		.ascii	"za\020\357PV\354\254R\276KY#2\215\020\032\2449\037\361"
  45      5056ECAC 
  45      52BE4B59 
  45      23328D10 
  45      1AA4391F 
  46 0111 CAC750B4 		.ascii	"\312\307P\264\322*<lE\227\310J\0332\231\227 \261\366"
  46      D22A3C6C 
  46      4597C84A 
  46      1B329997 
  46      20B1F6
  47 0124 61D96377 		.ascii	"a\331cw[\324\0168\373\361\333\314n\255@e\351\000\351"
  47      5BD40E38 
  47      FBF1DBCC 
  47      6EAD4065 
  47      E900E9
  48 0137 CC480562 		.ascii	"\314H\005b\226\3244\026\210(b\350\2125\371j\270x\223"
  48      96D43416 
  48      882862E8 
  48      8A35F96A 
  48      B87893
  49 014a 5F3B6C92 		.ascii	"_;l\222\024E\247\335\265\000\311UR\012\342}B[B\262\364"
  49      1445A7DD 
  49      B500C955 
  49      520AE27D 
  49      425B42B2 
  50 015f 0A922BCF 		.ascii	"\012\222+\317H\351`\020\037P\245\023\231<^\000f\035"
  50      48E96010 
  50      1F50A513 
  50      993C5E00 
  50      661D
  51 0171 58B2742C 		.ascii	"X\262t,ZSWR+\243UN\247B\247\322-\362&\277\003\376\001"
  51      5A535752 
  51      2BA3554E 
  51      A742A7D2 
  51      2DF226BF 
  52 0188 5224FFFC 		.ascii	"R$\377\374\374\275\247v\241\016f9\305\001\023\313\256"
  52      FCBDA776 
  52      A10E6639 
  52      C50113CB 
  52      AE
  53 0199 C34482F3 		.ascii	"\303D\202\363\235&\226\3334\212C\003\355\326\225\345"
  53      9D2696DB 
  53      348A4303 
  53      EDD695E5 
  54 01a9 282AA8BD 		.ascii	"(*\250\275\034$\317\327\324\334X\265#\256J\366\202\242"
  54      1C24CFD7 
  54      D4DC58B5 
  54      23AE4AF6 
  54      82A2
  55 01bb 3DDBEF97 		.ascii	"=\333\357\227\027\221gxb\225\230\344w\230\304\315fK"
  55      17916778 
  55      629598E4 
  55      7798C4CD 
ARM GAS  /tmp/ccNzjLd8.s 			page 4


  55      664B
  56 01cd 54004B90 		.ascii	"T\000K\220\\{\364\336S\230\2323\201\345\331=\030\304"
  56      5C7BF4DE 
  56      53989A33 
  56      81E5D93D 
  56      18C4
  57 01df 87B6F142 		.ascii	"\207\266\361B\310@f\231\216p\025Km\277\205\226\357\356"
  57      C8406699 
  57      8E70154B 
  57      6DBF8596 
  57      EFEE
  58 01f1 02ED46ED 		.ascii	"\002\355F\3556\026\315\004\3405\244rs\317w9\217\321"
  58      3616CD04 
  58      E035A472 
  58      73CF7739 
  58      8FD1
  59 0203 2EC03A1F 		.ascii	".\300:\037\024fl3\304\263(L\254\004x\011\351/\211\206"
  59      14666C33 
  59      C4B3284C 
  59      AC047809 
  59      E92F8986 
  60 0217 4297B8BE 		.ascii	"B\227\270\276V|\3676j\036\254U\310\233\365\324\247\261"
  60      567CF736 
  60      6A1EAC55 
  60      C89BF5D4 
  60      A7B1
  61 0229 7D251E37 		.ascii	"}%\0367n\346\261e\262\245\314\317\233\3501P-bV\013\314"
  61      6EE6B165 
  61      B2A5CCCF 
  61      9BE83150 
  61      2D62560B 
  62 023e 3FFE03B3 		.ascii	"?\376\003\263V\304\254\311O\377\015$r\213\323h1;\321"
  62      56C4ACC9 
  62      4FFF0D24 
  62      728BD368 
  62      313BD1
  63 0251 4A582A0A 		.ascii	"JX*\012\323|>\237\336\324e\266\233\315\001=\034\323"
  63      D37C3E9F 
  63      DED465B6 
  63      9BCD013D 
  63      1CD3
  64 0263 43FD71BD 		.ascii	"C\375q\275\311\0378\036\320\315^\243\273\257#\244\033"
  64      C91F381E 
  64      D0CD5EA3 
  64      BBAF23A4 
  64      1B
  65 0274 E168E8B4 		.ascii	"\341h\350\264\321s\254\257\327\360u\201+\032\212\365"
  65      D173ACAF 
  65      D7F07581 
  65      2B1A8AF5 
  66 0284 75C7EB4A 		.ascii	"u\307\353JQ\321\270\036\011G\3431\375H\213\277\311\337"
  66      51D1B81E 
  66      0947E331 
  66      FD488BBF 
  66      C9DF
  67 0296 AF1B5D12 		.ascii	"\257\033]\022u\256\261\307g\200j\304\373#.\261\370\032"
  67      75AEB1C7 
ARM GAS  /tmp/ccNzjLd8.s 			page 5


  67      67806AC4 
  67      FB232EB1 
  67      F81A
  68 02a8 3CFE9680 		.ascii	"<\376\226\200w\357\376zo$\026q\203r(\012\333\343\341"
  68      77EFFE7A 
  68      6F241671 
  68      8372280A 
  68      DBE3E1
  69 02bb 48F39913 		.ascii	"H\363\231\023\321\260\021\210\007\215\263\036\177\240"
  69      D1B01188 
  69      078DB31E 
  69      7FA0
  70 02c9 4514EBA9 		.ascii	"E\024\353\251\313\015,\012J,\002\177\000\220\021FT"
  70      CB0D2C0A 
  70      4A2C027F 
  70      00901146 
  70      54
  71              		.text
  72              		.section	.gnu.lto_SVC_Handler.8e3954938a1e7607,"",%progbits
  73 0000 789C9552 		.ascii	"x\234\225RMh\023A\024~of\267\015\325\372s\263 5T\004"
  73      4D681341 
  73      147E6F66 
  73      B70DD5FA 
  73      73B32035 
  74 0016 C19AED45 		.ascii	"\301\232\355E<\011JA\360\020*M\005=I\272\256\315b\323"
  74      3C094A41 
  74      F0102A4D 
  74      053D49BA 
  74      AECD62D3 
  75 002a 2C9B4DA9 		.ascii	",\233M\251\027;\3719\010\351!-\242\355\241\330*\242"
  75      173BF939 
  75      08E9212D 
  75      A2EDA1D8 
  75      2AA2
  76 003c 52D45B2F 		.ascii	"R\324[/\012F\004\265\264V\024\004\305KJ\025\021A\032"
  76      0A4604B5 
  76      B4561404 
  76      C54B4A15 
  76      11411A
  77 004f 8A1E4A75 		.ascii	"\212\036Ju\235\231M6m\021\253\017f\337\316{\357\373"
  77      9D994D36 
  77      6D11AB0F 
  77      66DFCE7B 
  77      EFFB
  78 0061 E6BD6F86 		.ascii	"\346\275o\206\000\201\215\326\304\327]\012\260\304="
  78      00818DD6 
  78      C4D75D0A 
  78      B0C43D
  79 0070 52405298 		.ascii	"R@R\230\007H\007\010\242\370\001\204A\202\203gP\224"
  79      07480708 
  79      A2F80184 
  79      41828367 
  79      5094
  80 0082 D2169864 		.ascii	"\322\026\230dl\244\364\351s\011\307\256\024s\023l\325"
  80      6CA4F4E9 
  80      7309C7AE 
  80      1473136C 
ARM GAS  /tmp/ccNzjLd8.s 			page 6


  80      D5
  81 0093 75114DE4 		.ascii	"u\021M\344\264!\004\035\3414\337`P:\242\254?\307\303"
  81      B421041D 
  81      E134DF60 
  81      503AA2AC 
  81      3FC7C3
  82 00a6 16879F5D 		.ascii	"\026\207\237]kb\023\231\002\373\305\241&R\002\207\376"
  82      6B621399 
  82      02FBC5A1 
  82      26520287 
  82      FE
  83 00b7 0D59FA5E 		.ascii	"\015Y\372^\236>8\306\212\271\311\352\251\012\001s3\354"
  83      9E3E38C6 
  83      8AB9C9EA 
  83      A90A0173 
  83      33EC
  84 00c9 03522CB9 		.ascii	"\003R,\271\356\375\325\205\205)\334\331@!\2127\261\005"
  84      EEFDD585 
  84      8529DCD9 
  84      40218A37 
  84      B105
  85 00db 948A57B9 		.ascii	"\224\212W\271\237\344>\300\375-\356\271\251\220c\254"
  85      9FE43EC0 
  85      FD2DEEB9 
  85      A99063AC 
  86 00eb 10F4F220 		.ascii	"\020\364\362 \330\271u\361\257P\343\024\022\341\351"
  86      D8B975F1 
  86      AF50E314 
  86      12E1E9
  87 00fa 3CA4CB2B 		.ascii	"<\244\313+\217>\240_\354\201\275m1?7\274\0058\343m\236"
  87      8F3EA05F 
  87      EC81BD6D 
  87      313F37BC 
  87      0538E36D 
  88 010f D7511270 		.ascii	"\327Q\022p\031\301\242B}\352]A3\\\032g\243GM^\302\255"
  88      19C1A242 
  88      7DEA5D41 
  88      335C1A67 
  88      A3474D5E 
  89 0125 0703B26A 		.ascii	"\007\003\262j\0062K\2027\212wP\255\364$s/!\363\365i"
  89      06324B82 
  89      378A7750 
  89      ADF42473 
  89      2F21F3F5 
  90 013a 7E2E4D3D 		.ascii	"~.M=\326\036\2442<\003\304\013x\355\362\260(\315\346"
  90      D61EA432 
  90      3C03C40B 
  90      78EDF2B0 
  90      28CDE6
  91 014d B3CB43F5 		.ascii	"\263\313C\365\325J\205G\2452A\370\003@\221\334\337\262"
  91      D54A8547 
  91      A53241F8 
  91      034091DC 
  91      DFB2
  92 015f EED0EE2A 		.ascii	"\356\320\356*@\225Q\277\262ro?\337o-\244/3\327\035\224"
  92      409551BF 
  92      B2726F3F 
ARM GAS  /tmp/ccNzjLd8.s 			page 7


  92      DF6F2DA4 
  92      2F33D71D 
  93 0174 C2677033 		.ascii	"\302gp3\345{\304h\363\220)\257\374\360\205\362%\232"
  93      E57BC468 
  93      F39029AF 
  93      FCF085F2 
  93      259A
  94 0186 7DF5848F 		.ascii	"}\365\204\217rO\252V\025\212x:!\014\343z\245\256\243"
  94      724FAA56 
  94      158A783A 
  94      210CE37A 
  94      A5AEA3
  95 0199 27559D4F 		.ascii	"'U\235O[\313\335\30052J\001\003\376\203\031\317\177"
  95      5BCBDDC0 
  95      35324A01 
  95      03FE8319 
  95      CF7F
  96 01ab 7C8E2359 		.ascii	"|\216#Y\366\202\345\212\374\305\354\221\215\277\331"
  96      F682E58A 
  96      FCC5EC91 
  96      8DBFD9
  97 01ba B4711193 		.ascii	"\264q\021\223!\331\374\350\342\256\215\315?\274:\273"
  97      21D9FCE8 
  97      E2AE8DCD 
  97      3FBC3ABB 
  98 01ca 7D7F14A7 		.ascii	"}\177\024\247\327\3349[~\334\\\273\377\267e\2656\026"
  98      D7DC395B 
  98      7EDC5CBB 
  98      FFB765B5 
  98      3616
  99 01dc E54BE14B 		.ascii	"\345K\341K\255\216\367\356o\343\371\207\327\362_*\371"
  99      AD8EF7EE 
  99      6FE3F987 
  99      D7F25F2A 
  99      F9
 100 01ed 7AAFBDD7 		.ascii	"z\257\275\327\220.M\355\365\330\253\326\305\207\342"
 100      902E4DED 
 100      F5D8ABD6 
 100      C587E2
 101 01fc EF52000E 		.ascii	"\357R\000\016\204BZ{\314\3546;\"Z\"\251\331\216f%l'"
 101      84425A7B 
 101      CCEC363B 
 101      225A22A9 
 101      D98E6625 
 102 0212 A91DEB0C 		.ascii	"\251\035\353\014\267\207\0074=\246'l\343l\377\341xH"
 102      B7870734 
 102      3DA6276C 
 102      E36CFFE1 
 102      7848
 103 0224 873ADD19 		.ascii	"\207:\335\031\260Bm\212t\353q\306\200\243\265\207#'"
 103      B0426D8A 
 103      74EB71C6 
 103      80A3B587 
 103      2327
 104 0236 229AD9A7 		.ascii	"\"\232\331\247\367\246\316\031\232\304\351\361\343\251"
 104      F7A6CE19 
 104      9AC4E9F1 
ARM GAS  /tmp/ccNzjLd8.s 			page 8


 104      E3A9
 105 0244 3E3D1483 		.ascii	">=\024\203:\333H\246z\235\306pg$\270\257\2555h%\255"
 105      3ADB48A6 
 105      7A9DC670 
 105      6724B8AF 
 105      AD356825 
 106 0259 06A0476C 		.ascii	"\006\240Gl\330\346$\254\216\363'\355\204\036q\242\372"
 106      D8E624AC 
 106      8EF327ED 
 106      841E71A2 
 106      FA
 107 026a 85C670A4 		.ascii	"\205\306p\244S$[yU\003\020\033h\322\372\217\036c\240"
 107      53245B79 
 107      5503101B 
 107      68D2FA8F 
 107      1E63A0
 108 027d F6477B53 		.ascii	"\366G{S\306\016A\323\035M\032\226m\012*\250\217\033"
 108      C60E41D3 
 108      1D4D1A96 
 108      6D0A2AA8 
 108      8F1B
 109 028f F1847D11 		.ascii	"\361\204}\021~\003\357b$V"
 109      7E03EF62 
 109      2456
 110              		.text
 111              		.section	.gnu.lto__port_irq_epilogue.8e3954938a1e7607,"",%progbits
 112 0000 789C9552 		.ascii	"x\234\225RMh\023A\024~of7]k\225\\,\010\022B\301SK\326"
 112      4D681341 
 112      147E6F66 
 112      375D6B95 
 112      5C2C0812 
 113 0019 5B0E5E94 		.ascii	"[\016^\224@\301C\020\232\026\324\213l\326\305,4M\330"
 113      40C14310 
 113      9A16D48B 
 113      6CD6C52C 
 113      344DD8
 114 002c 2425E2A1 		.ascii	"$%\342\241\223l\016\202\202\301\223\277\230XD\254\305"
 114      936C0E82 
 114      82C193BF 
 114      985844AC 
 114      C5
 115 003d 0A5E04A3 		.ascii	"\012^\004\243\015\275\264RZ)\364 9\305\213\247^\374"
 115      0DBDB452 
 115      5A29F420 
 115      39C58BA7 
 115      5EFC
 116 004f 39B5B571 		.ascii	"9\265\265qf\267\331&A,\016\314\2747\363\336\367\376"
 116      66B7D926 
 116      412C0ECC 
 116      BC37F3DE 
 116      F7FE
 117 0061 BE2140A0 		.ascii	"\276!@\240w\235\345\373\004\005X\340\022}\200\244\274"
 117      779DE5FB 
 117      040558E0 
 117      127D80A4 
 117      BC
 118 0072 0E505008 		.ascii	"\016PP\010\241\233\203\300\372\245Z\030\330\000EY<\243"
ARM GAS  /tmp/ccNzjLd8.s 			page 9


 118      A19B83C0 
 118      FAA55A18 
 118      D8004559 
 118      3CA3
 119 0084 E4CA8222 		.ascii	"\344\312\202\"#\012\005\020f\010\225d\234\271\214N\264"
 119      230A0510 
 119      66089564 
 119      9CB98C4E 
 119      B4
 120 0095 05526FB6 		.ascii	"\005Ro\266Z\257\177-?\335\302y2@\301D\220\304\301\227"
 120      5AAF7F2D 
 120      3FDDC279 
 120      3240C144 
 120      90C4C197 
 121 00a9 0C25C6CA 		.ascii	"\014%\306\312A\000\335\271\216\363S\304\230@\"$\375"
 121      4100DDB9 
 121      8EF353C4 
 121      98402224 
 121      FD
 122 00ba 04450560 		.ascii	"\004E\005`\010\252\214\335k~\370Z\033y\300\352\245\012"
 122      08AA8CDD 
 122      6B7EF85A 
 122      1B79C0EA 
 122      A50A
 123 00cc DB6DB510 		.ascii	"\333m\265\020M\344NWP /\361\013\011:\202J\335\255\210"
 123      4DE44E57 
 123      50202FF1 
 123      0B093A82 
 123      4ADDAD88 
 124 00e0 37E4F161 		.ascii	"7\344\361a\035\212\337W\354\267w\250\227\322U\352;K"
 124      1D8ADF57 
 124      ECB777A8 
 124      97D255EA 
 124      3B4B
 125 00f2 DB7EA2E1 		.ascii	"\333~\242\3413\034\362\352a/\026Oy\366\333{\0332\200"
 125      331CF2EA 
 125      612F164F 
 125      79F6DB7B 
 125      1B3280
 126 0105 86559479 		.ascii	"\206U\224y.\221\217\360M\301\351\024\341.W\371\004\251"
 126      2E918FF0 
 126      4DC1E914 
 126      E12E57F9 
 126      04A9
 127 0117 3BC60054 		.ascii	";\306\000T\360\011\273\177\316D\251+\373\201}v\337."
 127      F009BB7F 
 127      CE44A92B 
 127      FB817D76 
 127      DF2E
 128 0129 BBF5ADC1 		.ascii	"\273\365\255\301R\343]\353\013\272\361\257#\035\206"
 128      52E35DEB 
 128      0BBAF1AF 
 128      231D86
 129 0138 3956E230 		.ascii	"9V\3420\337#x\310E\237\010\241\260\206\315\216;\321"
 129      DF2378C8 
 129      459F08A1 
 129      B086CD8E 
ARM GAS  /tmp/ccNzjLd8.s 			page 10


 129      3BD1
 130 014a 140715C7 		.ascii	"\024\007\025\307v\177k`\277\267\347<\270\304#\0107`"
 130      767F6B60 
 130      BFB7E73C 
 130      B8C42308 
 130      3760
 131 015c 7E6E5C81 		.ascii	"~n\\\201\322V\341\230gs\014\235k\202\327\2769H?\203"
 131      D256E198 
 131      67730C9D 
 131      6B82D7BE 
 131      39483F83 
 132 0170 ADB84E00 		.ascii	"\255\270N\0007a\233\335b~\023\217\350n\013\234\250\376"
 132      37619BDD 
 132      627E138F 
 132      E86E0B9C 
 132      A8FE
 133 0182 B6B704B5 		.ascii	"\266\267\004\265p\017'\325\217=\234h8\353\014\350PR"
 133      700F27D5 
 133      8F3D9C68 
 133      38EB0CE8 
 133      5052
 134 0194 E09FA434 		.ascii	"\340\237\2444v\005)o:I\371\271\030\360\354\253\337~"
 134      7605296F 
 134      3A49F9B9 
 134      18F0ECAB 
 134      DF7E
 135 01a6 749022B6 		.ascii	"t\220\"\266\357/\244h\370\222+^\2666\011\032\316c\240"
 135      EF2FA468 
 135      F8922B5E 
 135      B636091A 
 135      CE63A0
 136 01b9 730AB2F3 		.ascii	"s\012\262\363\3316\240\320\\}\216\373\245\270\015\326"
 136      D936A0D0 
 136      5C7D8EFB 
 136      A5B80DD6 
 137 01c9 7F2F3F3E 		.ascii	"\177/?>\311*\3052\333\343\375\231x\224\300+<\354\317"
 137      C92AC532 
 137      DBE3FD99 
 137      7894C02B 
 137      3CECCF
 138 01dc B50BEB58 		.ascii	"\265\013\353X\343\034\304s\210\364\303\241\220\032I"
 138      E31CC473 
 138      88F4C3A1 
 138      901A49
 139 01eb 9871F362 		.ascii	"\230q\363bLMeT+\253\246SV6\243\236\037\213F\242yUO\350"
 139      4C4D6554 
 139      2BABA653 
 139      5636A39E 
 139      1F8B46A2 
 140 0203 29CBB83A 		.ascii	")\313\270:\035N\206\364\377\360M\200<\255M\346\214P"
 140      1D4E86F4 
 140      FFF04D80 
 140      3CAD4DE6 
 140      8C50
 141 0215 37C2C867 		.ascii	"7\302\310g\325H4v!\246\232S\372d\356\232\241:\010=9"
 141      D5483476 
 141      21A69A53 
ARM GAS  /tmp/ccNzjLd8.s 			page 11


 141      FA64EE9A 
 141      A13A083D 
 142 022a 9A9BD239 		.ascii	"\232\233\3229\310\037\215\215\005\343Z\306H[\346H\360"
 142      C81F8D8D 
 142      05E35AC6 
 142      485BE648 
 142      F0
 143 023b F4192016 		.ascii	"\364\031 \026\364%\215d\312\272\001\222\236\315\247"
 143      F4258D64 
 143      CABA0192 
 143      9ECDA7
 144 024a FF00CA5A 		.ascii	"\377\000\312Z\362{"
 144      F27B
 145              		.text
 146              		.section	.gnu.lto_.symbol_nodes.8e3954938a1e7607,"",%progbits
 147 0000 789C45CA 		.ascii	"x\234E\312\253\021\2000\024D\321\335\227\244\016\034"
 147      AB118030 
 147      1444D1DD 
 147      97A40E1C 
 148 0010 B5D1C506 		.ascii	"\265\321\305\006\303D\322@\0208\352\300S\011\206\237"
 148      C344D240 
 148      1038EAC0 
 148      5309869F 
 149 0020 4121C8C0 		.ascii	"A!\310\300ug\346\032\014\015JvS@\277\000RN\344I\361"
 149      7567E61A 
 149      0C0D4A76 
 149      5340BF00 
 149      524EE449 
 150 0035 656CC98B 		.ascii	"el\311\213\262O\266Q\256\254C\242\355\224\377\311\203"
 150      B24FB651 
 150      AEAC43A2 
 150      ED94FFC9 
 150      83
 151 0046 0AE58D74 		.ascii	"\012\345\215t\010\230\273\265r\036\030\247\032\017\333"
 151      0898BBB5 
 151      721E18A7 
 151      1A0FDB
 152 0055 1A2036   		.ascii	"\032 6"
 153              		.text
 154              		.section	.gnu.lto_.refs.8e3954938a1e7607,"",%progbits
 155 0000 789C6362 		.ascii	"x\234cb`b`g\200\000&\006&F&&\006\000\000\352\000\025"
 155      60626067 
 155      80002606 
 155      26462626 
 155      060000EA 
 156              		.text
 157              		.section	.gnu.lto_.decls.8e3954938a1e7607,"",%progbits
 158 0000 789CBD57 		.ascii	"x\234\275W\177l\023\327\035\177\357\354\374\360\222"
 158      7F6C13D7 
 158      1D7FEFEC 
 158      FCF092
 159 000f A694B555 		.ascii	"\246\224\265U\"M\"Lk7\025%\016)\3232i\003\202\003K\376"
 159      224D224C 
 159      6B371525 
 159      0E29D332 
 159      69038203 
 160 0025 48B1EC82 		.ascii	"H\261\354\202\366\027\307a\037\330\252c\207\363\245"
ARM GAS  /tmp/ccNzjLd8.s 			page 12


 160      F617C761 
 160      1FD8AA63 
 160      87F3A5
 161 0034 C036A917 		.ascii	"\3006\251\027\234fi\205:'\015(D\210\030\012-\224.\015"
 161      9C666985 
 161      3A270D28 
 161      4488180A 
 161      2D942E0D 
 162 0048 61058642 		.ascii	"a\005\206B\342\"A\243MZ\241\202R~\005Wtk5\306\232-\335"
 162      E22241A3 
 162      4D5AA182 
 162      527E0557 
 162      746B35C6 
 163 005f 34D8C0FB 		.ascii	"4\330\300\373\276ww\366\335\345\216\234\253i'}\277~"
 163      BE7777F6 
 163      DDE58E9C 
 163      AB69277D 
 163      BF7E
 164 0071 BE7BEFF3 		.ascii	"\276{\357\363\375|\277\357\373\336\373>\0061\350\027"
 164      FD7CBFEF 
 164      FBDEFB3E 
 164      0631E817 
 165 0081 18A12C3C 		.ascii	"\030\241,<\227\253\020\272\352@\310\211\020Z\212\362"
 165      97AB10BA 
 165      EA40C889 
 165      105A8AF2 
 166 0091 4F31C83E 		.ascii	"O1\310>\2207A\016\203\034\001\031\0069\212f?\244_\005"
 166      9037410E 
 166      831C0119 
 166      06398A66 
 166      3FA45F05 
 167 00a5 C809E5B7 		.ascii	"\310\011\345\267\034\3444H\011\3101\220\213 g@\306A"
 167      1CE43448 
 167      09C83190 
 167      8B206740 
 167      C641
 168 00b7 96815C01 		.ascii	"\226\201\\\001\271\0062\012r\035\204\001\371\010\344"
 168      B906320A 
 168      721D8401 
 168      F908E4
 169 00c6 BCC6EE0D 		.ascii	"\274\306\356\015\220[\212=\225\203\361!\234J\025;Z\273"
 169      905B8A3D 
 169      9583F121 
 169      9C4A153B 
 169      5ABB
 170 00d8 27149BC4 		.ascii	"'\024\233\304\316m\215?G4\270w@\246AfLp\207\025\254"
 170      CE6D8D3F 
 170      4734B877 
 170      40A64166 
 170      4C708715 
 171 00ed 12834F2A 		.ascii	"\022\203O*\336]\220{ ?\202\030\376\030d\277b\027\023"
 171      DE5D907B 
 171      203F8218 
 171      FE1864BF 
 171      621713
 172 0100 5FB03C8E 		.ascii	"_\260<\216`,\205v#\226m\354\323\3304>\013\320^)\235"
 172      602C8576 
ARM GAS  /tmp/ccNzjLd8.s 			page 13


 172      23966DEC 
 172      D3D8343E 
 172      0BD05E29 
 173 0115 C99C7D30 		.ascii	"\311\234}0R\325\223\332\236\316f\227\241'\321N\011\236"
 173      52D593DA 
 173      9ECE6697 
 173      A127D14E 
 173      099E
 174 0127 54B72461 		.ascii	"T\267$a\221\303K\237@?\305\034\256p\241j\332(w\321\011"
 174      91C34B9F 
 174      403FC51C 
 174      AE70A16A 
 174      DA2877D1 
 175 013c 4388C3FB 		.ascii	"C\210\303\373\361\223Jk\215C\206cP-F\317\240\3030>)"
 175      F1934A6B 
 175      8D438663 
 175      502D46CF 
 175      A0C3303E 
 176 0151 49DB9FC6 		.ascii	"I\333\237\306&&\021z\032\035\244\337\017I\016\212O\020"
 176      2626117A 
 176      1A1DA4DF 
 176      0F490E8A 
 176      4F10
 177 0163 F6E105DA 		.ascii	"\366\341\005\332.\034~\0033F\242\231df\242\373\037/"
 177      2E1C7E03 
 177      3346A299 
 177      6466A2FB 
 177      1F2F
 178 0175 E3DE446A 		.ascii	"\343\336DjR\232\316f\037-\200\353[&\\\177\216\341\357"
 178      529ACE66 
 178      1F2D80EB 
 178      5B265C7F 
 178      8EE1EF
 179 0188 01FC0CD2 		.ascii	"\001\374\014\322[>df9\375\361\345\035\022Nvf\262\331"
 179      5B3E6466 
 179      39FDF1E5 
 179      1D124E76 
 179      66B2D9
 180 019b 05321A83 		.ascii	"\0052\032\203z\2619\300\333\263\001R\020\343\241\337"
 180      7AB139C0 
 180      DBB30152 
 180      10E3A1DF 
 181 01ab 63A94FFA 		.ascii	"c\251O\372O6\353@*\302\301Y\01046\222>6G\214\261y\307"
 181      4F36EB40 
 181      2AC2C159 
 181      08343692 
 181      3E36478C 
 182 01c2 CC40FAAB 		.ascii	"\314@\372\253\017\312)\277\241\345*\374Q[\360\303F\370"
 182      0FCA29BF 
 182      A1E52AFC 
 182      515BF0C3 
 182      46F8
 183 01d4 774D43BF 		.ascii	"wMC\277\373\265\033\225\003\243R\327+\322\203\354KX"
 183      FBB51B95 
 183      03A352D7 
 183      2BD283EC 
 183      4B58
ARM GAS  /tmp/ccNzjLd8.s 			page 14


 184 01e6 17F952F4 		.ascii	"\027\371R\364K\230m)\363\262\324\2117#u\016J\3259 Y"
 184      4B986D29 
 184      F3B2D489 
 184      3723750E 
 184      4AD53920 
 185 01fb F0143A20 		.ascii	"\360\024: '\005\303\341c\270\024\310}\216\315\263\003"
 185      2705C3E1 
 185      63B814C8 
 185      7D8ECDB3 
 185      03
 186 020c C91DC843 		.ascii	"\311\035\310C\306\313m\265\205\221\345\014\217\232\314"
 186      C6CB6DB5 
 186      8591E50C 
 186      8F9ACC
 187 021b F01D8B19 		.ascii	"\360\035\213\031:\256\367\320\205z\010\177p\246y\262"
 187      3AAEF7D0 
 187      857A087F 
 187      70A679B2 
 188 022b C2DC02E5 		.ascii	"\302\334\002\345\237\314\014\365\235}\037o\007\2379"
 188      9FCC0CF5 
 188      9D7D1F6F 
 188      079F39
 189 023a 7C02BBC0 		.ascii	"|\002\273\300\302\277\031\275\005\373P\273\007\307~"
 189      C2BF19BD 
 189      05FB50BB 
 189      07C77E
 190 0249 2849A51C 		.ascii	"(I\245\034>E\201^q\352\2018\\\342\322\223\206\377j\007"
 190      3E45815E 
 190      71EA8138 
 190      5CE2D293 
 190      86FF6A07 
 191 025d 82463F2B 		.ascii	"\202F?+\015\262\235>\212\012\355^\206^\315s\235\217"
 191      0DB29D3E 
 191      8A0AED5E 
 191      865ECD73 
 191      9D8F
 192 026f 7AC98456 		.ascii	"z\311\204VkXK\214J\273\232F\263\237R\034\307\363\025"
 192      6B584B8C 
 192      4ABB9A46 
 192      B39F521C 
 192      C7F315
 193 0282 60794E61 		.ascii	"`yNaM\336L\340N\032\023\362\015\231D\\y\026\242\024"
 193      4DDE4CE0 
 193      4E1A13F2 
 193      0D99445C 
 193      7916A214 
 194 0296 184C67FF 		.ascii	"\030Lg\377\320_%\245\316`\235}\313\325\253\204\253\367"
 194      D05F25A5 
 194      CE609D7D 
 194      CBD5AB84 
 194      ABF7
 195 02a8 D617DF1A 		.ascii	"\326\027\337\032\222\244y\034&\003\03149+^\313\312\364"
 195      92A4791C 
 195      26031934 
 195      392B5ECB 
 195      CAF4
 196 02ba 0180FF9A 		.ascii	"\001\200\377\232\016\014\272\220\243ofFi\242\\\342U"
ARM GAS  /tmp/ccNzjLd8.s 			page 15


 196      0E0CBA90 
 196      A36F6646 
 196      69A25CE2 
 196      55
 197 02cb B8F4B4C1 		.ascii	"\270\364\264\301\317\317^\307}\011i\262N\345p\261`\304"
 197      CFCF5EC7 
 197      7D0969B2 
 197      4EE570B1 
 197      60C4
 198 02dd 6A5D20FA 		.ascii	"j] \372>,Or*\330e;`\245\226\364\322\375Z\260\253\005"
 198      3E2C4F72 
 198      2AD8653B 
 198      60A596F4 
 198      D2FD5AB0 
 199 02f3 83E999ED 		.ascii	"\203\351\231\355\322\202\335\260\0036\317\232\331\200"
 199      D282DDB0 
 199      0336CF9A 
 199      D980
 200 0301 16ECD382 		.ascii	"\026\354\323\202\301\364\314\006\265`_\330\001\253\264"
 200      C1F4CC06 
 200      B5605FD8 
 200      01ABB4
 201 0310 66B6470B 		.ascii	"f\266G\013v\273`\260jC~[mM\247q.5\037CI\272\314\006"
 201      76BB60B0 
 201      6A437E5B 
 201      6D4DA771 
 201      2E351F43 
 202 0328 2A949D22 		.ascii	"*\224\235\"sP\252\254\234{\317\274D7\211i\247\345\236"
 202      7350AAAC 
 202      9C7BCFBC 
 202      44378969 
 202      A7E59E
 203 033b 493AA81C 		.ascii	"I:\250\034\344\266\332\312\3467\315J\025\336\241\214"
 203      E4B6DACA 
 203      E637CD4A 
 203      15DEA18C 
 204 034b BA881FA3 		.ascii	"\272\210\037\243-JF\312-E\350a\345\313'\032;\345\256"
 204      2D4A46CA 
 204      2D45E861 
 204      E5CB271A 
 204      3BE5AE
 205 035e 7C43DD50 		.ascii	"|C\335P\025\007S\313\007*d\363\012\320<}G\016_)\330"
 205      150753CB 
 205      072A64F3 
 205      0AD03C7D 
 205      470E5F29 
 206 0373 F4550BD3 		.ascii	"\364U\013\323jL\014\373\0119\020\254\240\256\345g\304"
 206      6A4C0CFB 
 206      093910AC 
 206      A0AEE567 
 206      C4
 207 0384 30EAAD87 		.ascii	"0\352\255\207\214\272\236\037E\013\247\351\314\265\317"
 207      8CBA9E1F 
 207      450BA7E9 
 207      CCB5CF
 208 0393 CFB7DD1F 		.ascii	"\317\267\335\037\225$z(vv-4\024$'\260\2657S&\347\325"
 208      95247A28 
ARM GAS  /tmp/ccNzjLd8.s 			page 16


 208      76762D34 
 208      142427B0 
 208      B5375326 
 209 03a9 8122EDA6 		.ascii	"\201\"\355\246\346 \261b\320pQn\322\351\361\275]\032"
 209      E620B162 
 209      D070516E 
 209      D2E9F1BD 
 209      5D1A
 210 03bb 3D24B964 		.ascii	"=$\271dp2\374\006\234\337\346F\350\347\233\263O\363"
 210      7032FC06 
 210      9CDFE646 
 210      E8E79BB3 
 210      4FF3
 211 03cd F4747AE6 		.ascii	"\364tz\346\332\030\354\301\244\342\233\220\026:\355"
 211      DA18ECC1 
 211      A4E29B90 
 211      163AED
 212 03dc D7519F29 		.ascii	"\327Q\237)\254\035\362<\312,\362.P/\306f{\301\341OU"
 212      AC1DF23C 
 212      CA2CF22E 
 212      502FC666 
 212      7BC1E14F 
 213 03f1 1ADF416F 		.ascii	"\032\337AoHP\007\375\366\\y2w\212\236\243#nY8\242\272"
 213      485007FD 
 213      F65C7932 
 213      778A9EA3 
 213      236E5938 
 214 0407 AA562F33 		.ascii	"\252V/3\235\336\312\\\365r\313X\275\374I\357o~\301\351"
 214      9DDECA5C 
 214      F572CB58 
 214      BDFC49EF 
 214      6F7EC1E9 
 215 041b D2B14135 		.ascii	"\322\261A5P\242\014\273]p:\376\305\"\035\213\365)2\321"
 215      50A20CBB 
 215      5D703AFE 
 215      C5221D8B 
 215      F52932D1 
 216 042f 7DFF037A 		.ascii	"}\377\003zl\320\2225U\252\026g\227\212\354\024gw\214"
 216      6CD09235 
 216      55AA1667 
 216      978AEC14 
 216      67778C
 217 0442 EEFDD574 		.ascii	"\356\375\325t:\2237\225\332/=O\305\377\263-\374i#\376"
 217      3A933795 
 217      DA2F3D4F 
 217      C5FFB32D 
 217      FC6923FE 
 218 0456 DFCCF049 		.ascii	"\337\314\360I\236\357\300\275\357vK\304\312KC\351\244"
 218      9EEFC0BD 
 218      EF764BC4 
 218      CA4B43E9 
 218      A4
 219 0467 534E0506 		.ascii	"SN\005\006\375\323\316d_\320NvW1\0311\363u&{\306\310"
 219      FDD3CE64 
 219      5FD04E76 
 219      57311931 
 219      F375267B 
ARM GAS  /tmp/ccNzjLd8.s 			page 17


 220 047d F62B9342 		.ascii	"\366+\223B.\361\320\352\213\303'\361S\266\312#\223\212"
 220      2EF1D0EA 
 220      8BC327F1 
 220      53B6CA23 
 220      938A
 221 048f 2893DB9F 		.ascii	"(\223\333\237w\3446\350d\346\275\277\377\353g\011Z\377"
 221      77E436E8 
 221      64E6BDBF 
 221      FFEB6709 
 221      5AFF
 222 04a1 DC83C383 		.ascii	"\334\203\303\203A\307\213\365\221\237\033\210\320\272"
 222      41C78BF5 
 222      919F1B88 
 222      D0BA
 223 04af 6FA8ABD2 		.ascii	"o\250\253\322\275S\345\222S~?GM\325\237H\357\234\222"
 223      BD53E592 
 223      537E3F47 
 223      4DD59F48 
 223      EF9C92
 224 04c2 6BAA5C04 		.ascii	"k\252\\\004\322\377\203\0100h\202\272r\377\353\325L"
 224      D2FF8308 
 224      306882BA 
 224      72FFEBD5 
 224      4C
 225 04d3 5D89F4AE 		.ascii	"]\211\364\256)z\300\336\245\023\177\266`\260j\035\330"
 225      297AC0DE 
 225      A5137FB6 
 225      60B06A1D 
 225      D8
 226 04e4 8016EC77 		.ascii	"\200\026\354wv\300\254\312%\000\033\324\202}X0\230\236"
 226      76C0ACCA 
 226      25001BD4 
 226      827D5830 
 226      989E
 227 04f6 D91E2DD8 		.ascii	"\331\036-\330%;`V\345\022\200\355\325\202])\030L\313"
 227      253B6056 
 227      E51280ED 
 227      D5825D29 
 227      184CCB
 228 0509 AC333DB2 		.ascii	"\2543=\262nd\275\241\346H\320\232c \237\035\263\213"
 228      6E64BDA1 
 228      E648D09A 
 228      63209F1D 
 228      B38B
 229 051b 0E72D1F9 		.ascii	"\016r\321\371\365\"\270\235h\212\024\253\001\034\376"
 229      F522B89D 
 229      688A14AB 
 229      011CFE
 230 052a 1543D209 		.ascii	"\025C\322\011\353\323)W\202(\025\010\224\221\305\246"
 230      EBD32957 
 230      82281508 
 230      9491C5A6 
 231 053a 57251B64 		.ascii	"W%\033dv\017\356m\240W\245>\206\304\344\217\305\306"
 231      760FEE6D 
 231      A057A53E 
 231      86C4E48F 
 231      C5C6
ARM GAS  /tmp/ccNzjLd8.s 			page 18


 232 054c D21F1BAE 		.ascii	"\322\037\033\256Jsp)\244\257Bk\275J\253\234\016\323"
 232      4A737029 
 232      A4AF426B 
 232      BD4AAB9C 
 232      0ED3
 233 055e 9E2A49C6 		.ascii	"\236*I\306e\321\213\303;\231BO\225]\214\371\251R\246"
 233      65D18BC3 
 233      3B99424F 
 233      955D8CF9 
 233      A952A6
 234 0571 23ADF682 		.ascii	"#\255\366\202h|i\314\020\035\2119j\340\256\004\354^"
 234      687C69CC 
 234      101D8939 
 234      6AE0AE04 
 234      EC5E
 235 0583 93DB0E93 		.ascii	"\223\333\016\223\022\246X\315\271\031;9Wm\275\032~\243"
 235      12A658CD 
 235      B9193B39 
 235      576DBD1A 
 235      7EA3
 236 0595 4DE0BB76 		.ascii	"M\340\273v\300\276g\275\032\216k\301\036\024\014\246"
 236      C0BE67BD 
 236      1A8E6BC1 
 236      1E140CA6 
 237 05a5 6776520B 		.ascii	"gvR\013\226(\261\001Vg\315\354\224\026\254\247`0=\263"
 237      9628B101 
 237      5667CDEC 
 237      9416ACA7 
 237      60303DB3 
 238 05b9 312DD86B 		.ascii	"1-\330kv\300\032\254\231\215k\301^/\030L\303\254\277"
 238      76C01AAC 
 238      998D6BC1 
 238      5E2F184C 
 238      C3ACBF
 239 05cc 337D7E5D 		.ascii	"3}~]\222\313\025\365$y\245|\276/\327\357\215\272n\232"
 239      92CB15F5 
 239      2479A57C 
 239      BE2FD7EF 
 239      8DBA6E9A 
 240 05e0 DAD7D08D 		.ascii	"\332\327\320\215\303\207\224e\221\257\351\215\177\031"
 240      C3879465 
 240      91AFE98D 
 240      7F19
 241 05ee 3460E4AD 		.ascii	"4`\344\255CQ\232\313-\202\000'\342Gr\020$\272e\354\261"
 241      43519ACB 
 241      2D820027 
 241      E2477210 
 241      24BA65EC 
 242 0603 1384666B 		.ascii	"\023\204fk\260\213Z\260T\301`\372\210~\234\217h\265"
 242      B08B5AB0 
 242      54C160FA 
 242      887E9C8F 
 242      68B5
 243 0615 21A012D6 		.ascii	"!\240\022\326\357\351\332n\232\200\032\273qx\244\340"
 243      EFE9DA6E 
 243      9A801ABB 
 243      7178A4E0 
ARM GAS  /tmp/ccNzjLd8.s 			page 19


 244 0625 8DE6A8C5 		.ascii	"\215\346\250\305F\223\257\344\265\275\310\345\304\350"
 244      4693AFE4 
 244      B5BDC8E5 
 244      C4E8
 245 0633 B69E85D2 		.ascii	"\266\236\205\322\364Z\005\2613\375\211\265\337\251\034"
 245      F45A05B1 
 245      33FD89B5 
 245      DFA91C
 246 0642 D4E30FF3 		.ascii	"\324\343\017\363\333\330\215\303\357\025\354\367q\013"
 246      DBD88DC3 
 246      EF15ECF7 
 246      710B
 247 0650 BF735726 		.ascii	"\277sW&]/\360\373\260\321o=\013\245\271\336\302o(\344"
 247      5D2FF0FB 
 247      B0D16F3D 
 247      0BA5B9DE 
 247      C26F28E4 
 248 0664 AEAE23B9 		.ascii	"\256\256#\271C\230\302e\316\026X\273E\362\300\332\276"
 248      4398C265 
 248      CE1658BB 
 248      45F2C0DA 
 248      BE
 249 0675 AE5DDB27 		.ascii	"\256]\333'\355db\0176\241f\366hkP\016?\240Eb\026/\004"
 249      ED64620F 
 249      36A166F6 
 249      686B500E 
 249      3FA04562 
 250 068c BD9D21BA 		.ascii	"\275\235!\272\213\352n\252{\250~\225\352\035T\017P="
 250      8BEA6EAA 
 250      7BA87E95 
 250      EA1D540F 
 250      503D
 251 069e 48F51EAA 		.ascii	"H\365\036\252\367R\235\242z?\325\007\250~\223\352\267"
 251      F7529DA2 
 251      7A3FD507 
 251      A87E93EA 
 251      B7
 252 06af A97E87EA 		.ascii	"\251~\207\352a\252\217Q}\222\352S\240s\217\341\212~"
 252      61AA8F51 
 252      7D92EA53 
 252      A0738FE1 
 252      8A7E
 253 06c1 CFC25FE2 		.ascii	"\317\302_\342\301\030cu\261\337\377\220\213\375i\306"
 253      C1186375 
 253      B1DFFF90 
 253      8BFD69C6 
 254 06d1 78B19F38 		.ascii	"x\261\2378\367\245\351\255m\274\304\316\255j\2341\334"
 254      F7A5E9AD 
 254      6DBCC4CE 
 254      AD6A9C31 
 254      DC
 255 06e2 532618B3 		.ascii	"S&\030\263[\333\310\324\254[\333\005[\370\357\033\361"
 255      5BDBC8D4 
 255      AC5BDB05 
 255      5BF8EF1B 
 255      F1
 256 06f3 CFE8F1D1 		.ascii	"\317\350\361\321\242\332Z\267'\024\336\020^\355w\307"
ARM GAS  /tmp/ccNzjLd8.s 			page 20


 256      A2DA5AB7 
 256      2714DE10 
 256      5EED77C7 
 257 0703 E26E4174 		.ascii	"\342nAt\267\307\0041\356n\364\265zZ\267\272\003\241"
 257      B7C70431 
 257      EE6EF4B5 
 257      7A5AB7BA 
 257      03A1
 258 0715 404CE0D9 		.ascii	"@L\340\331\027\177\320V\033@U,\371\306\206\205\315,"
 258      177FD056 
 258      1B40552C 
 258      F9C68685 
 258      CD2C
 259 0727 DF1E8EC4 		.ascii	"\337\036\216\3046u\360\265\355\234 \326\326\025\377"
 259      3675F0B5 
 259      ED9C20D6 
 259      D615FF
 260 0736 E4B935D5 		.ascii	"\344\2715\325\236\002\300B\350\011\031,\276%,\006B\354"
 260      9E02C042 
 260      E809192C 
 260      BE252C06 
 260      42EC
 261 0748 4621D6C6 		.ascii	"F!\326\306\206\343\3027\345\267\374\326\260\230{W\346"
 261      86E3C237 
 261      E5B7FCD6 
 261      B0987B57 
 261      E6
 262 0759 5FEB619B 		.ascii	"_\353a\233\271h0\302\013\363gS\370\366,\243\341h \322"
 262      B96830C2 
 262      0BF36753 
 262      F8F62CA3 
 262      E16820D2 
 263 076d 11E4C15E 		.ascii	"\021\344\301^<\020\012\202\255\"vE,\026\251\012\204"
 263      3C100A82 
 263      AD227645 
 263      2C16A90A 
 263      84
 264 077e FC81504B 		.ascii	"\374\201PK\334+\360|[\273\030\216E}\374\346\216\260"
 264      DC2BF07C 
 264      5BBB188E 
 264      457DFCE6 
 264      8EB0
 265 0790 C007E3EE 		.ascii	"\300\007\343\356\350F*\337w\207bm\274[\340\343<'\004"
 265      E8462ADF 
 265      7787626D 
 265      BC5BE0E3 
 265      3C2704
 266 07a3 42EE1027 		.ascii	"B\356\020'\004\267p\002\357\346\204\266z\367\246@\240"
 266      04B77002 
 266      EFE684B6 
 266      7AF7A640 
 266      A0
 267 07b4 061A357C 		.ascii	"\006\0325|\333\006>\030\344\203\271\027\321X\224\257"
 267      DB063E18 
 267      E483B917 
 267      D15894AF 
 268 07c4 E1B90DE1 		.ascii	"\341\271\015\341\232%lCM}\335\342"
ARM GAS  /tmp/ccNzjLd8.s 			page 21


 268      9A256C43 
 268      4D7DDDE2 
 269 07d0 259BEBDD 		.ascii	"%\233\353\335\272\0179Nq1\030\216\212\300\251\264\003"
 269      BA0F394E 
 269      7131188E 
 269      8AC0A9B4 
 269      03
 270 07e1 7E9FAD67 		.ascii	"~\237\255g\305\004\376\377Yo\343\002\241p\224w\263A"
 270      C504FEFF 
 270      596FE302 
 270      A1709477 
 270      B341
 271 07f3 7E23D711 		.ascii	"~#\327\021\021Yq[;\037\0076\337`Y\225O\2312\003b@\334"
 271      1159715B 
 271      3B1F0736 
 271      DF605995 
 271      4F993203 
 272 080a FA5D3B13 		.ascii	"\372];\023J\234\021\370M`\221\025\031\241\216\021\026"
 272      4A9C11F8 
 272      4D609115 
 272      19A18E11 
 272      16
 273 081b 33423D23 		.ascii	"3B=#<\353\020\026\327\027G\004V\014\005\231\366\200"
 273      3CEB1016 
 273      D7174704 
 273      560C0599 
 273      F680
 274 082d 736B7B5C 		.ascii	"sk{\\p\006\300\247Z=(Xr{Z\375-\376\374\274\221,\011"
 274      7006C0A7 
 274      5A3D2858 
 274      727B5AFD 
 274      2DFEFCBC 
 275 0844 B4ADEA88 		.ascii	"\264\255\352\210\006\000\333\305\262\233x\221\365\372"
 275      0600DBC5 
 275      B29B7891 
 275      F5FA
 276 0852 BD8F7091 		.ascii	"\275\217p\221-\334\2668\033\216F\300\011x\037\227\337"
 276      2DDCB638 
 276      1B8E46C0 
 276      09781F97 
 276      DF
 277 0863 5788B1F6 		.ascii	"W\210\261\366\325\033\275B,\340\027\271\300\013\217"
 277      D51BBD42 
 277      2CE017B9 
 277      C00B8F
 278 0872 53073AA2 		.ascii	"S\007:\242\221X\340\205|\022i^>\"\217\\\321\350_\351"
 278      9158E085 
 278      7C12695E 
 278      3E228F5C 
 278      D1E85FE9 
 279 0886 F5B514BD 		.ascii	"\365\265\024\275\310E:\370E6I-!\336\372=+\330\347!r"
 279      C8453AF8 
 279      4536492D 
 279      21DEFA3D 
 279      2BD8E721 
 280 089b 451EEF9A 		.ascii	"E\036\357\232\226&g\213\307\357s\256}~\265\257\250\261"
 280      9626678B 
ARM GAS  /tmp/ccNzjLd8.s 			page 22


 280      C7EF73AE 
 280      7D7EB5AF 
 280      A8B1
 281 08ad C5E7F139 		.ascii	"\305\347\3619\374 \036\217\257\204D\264\201\025]rl\241"
 281      FC201E8F 
 281      AF8444B4 
 281      81155D72 
 281      6CA1
 282 08bf E5F0377B 		.ascii	"\345\3607{\213\374\315\244\273g\025\250f\242\232@\025"
 282      8BFCCDA4 
 282      BB6715A8 
 282      66A29A40 
 282      15
 283 08d0 B5B6AE6A 		.ascii	"\265\266\256j\3649W\020\325\010\377\035\336U>G\023H"
 283      F4395710 
 283      D508FF1D 
 283      DE553E47 
 283      1348
 284 08e2 6393CF09 		.ascii	"c\223\317\011\337|\316\026\177\243\317\345[\351_\351"
 284      DF7CCE16 
 284      7FA3CFE5 
 284      5BE95FE9 
 285 08f2 5BBBB2A9 		.ascii	"[\273\262\251\016\0147z|\363\251O:7]\271W\377\0050\234"
 285      0E0C377A 
 285      7CF3A94F 
 285      3A375DB9 
 285      57FF0530 
 286 0907 1DB5     		.ascii	"\035\265"
 287              		.text
 288              		.section	.gnu.lto_.symtab.8e3954938a1e7607,"",%progbits
 289 0000 5356435F 		.ascii	"SVC_Handler\000\000\000\000\000\000\000\000\000\000"
 289      48616E64 
 289      6C657200 
 289      00000000 
 289      00000000 
 290 0015 0000AB00 		.ascii	"\000\000\253\000\000\000_port_irq_epilogue\000\000\000"
 290      00005F70 
 290      6F72745F 
 290      6972715F 
 290      6570696C 
 291 0030 00000000 		.ascii	"\000\000\000\000\000\000\000\000\000\256\000\000\000"
 291      00000000 
 291      00AE0000 
 291      00
 292 003d 5F706F72 		.ascii	"_port_switch_from_isr\000\000\002\000\000\000\000\000"
 292      745F7377 
 292      69746368 
 292      5F66726F 
 292      6D5F6973 
 293 005a 00000000 		.ascii	"\000\000\000\000\246\000\000\000_port_exit_from_isr"
 293      A6000000 
 293      5F706F72 
 293      745F6578 
 293      69745F66 
 294 0075 00000200 		.ascii	"\000\000\002\000\000\000\000\000\000\000\000\000\251"
 294      00000000 
 294      00000000 
ARM GAS  /tmp/ccNzjLd8.s 			page 23


 294      A9
 295 0082 00000063 		.ascii	"\000\000\000chSchIsPreemptionRequired\000\000\002\000"
 295      68536368 
 295      49735072 
 295      65656D70 
 295      74696F6E 
 296 00a2 00000000 		.ascii	"\000\000\000\000\000\000\000\000\261\000\000\000"
 296      00000000 
 296      B1000000 
 297              		.text
 298              		.section	.gnu.lto_.opts,"",%progbits
 299 0000 272D6D63 		.ascii	"'-mcpu=cortex-m4' '-mno-thumb-interwork' '-mthumb' "
 299      70753D63 
 299      6F727465 
 299      782D6D34 
 299      2720272D 
 300 0033 272D6767 		.ascii	"'-ggdb' '-O2' '-fomit-frame-pointer' '-falign-funct"
 300      64622720 
 300      272D4F32 
 300      2720272D 
 300      666F6D69 
 301 0066 696F6E73 		.ascii	"ions=16' '-ffunction-sections' '-fdata-sections' '-"
 301      3D313627 
 301      20272D66 
 301      66756E63 
 301      74696F6E 
 302 0099 666E6F2D 		.ascii	"fno-common' '-flto'\000"
 302      636F6D6D 
 302      6F6E2720 
 302      272D666C 
 302      746F2700 
 303              		.text
 304              		.cfi_sections	.debug_frame
 305              		.section	.text.SVC_Handler,"ax",%progbits
 306              		.align	2
 307              		.p2align 4,,15
 308              		.global	SVC_Handler
 309              		.thumb
 310              		.thumb_func
 311              		.type	SVC_Handler, %function
 312              	SVC_Handler:
 313              	.LFB241:
 314              		.file 1 "../ChibiOS/os/rt/ports/ARMCMx/chcore_v7m.c"
 315              		.loc 1 62 0
 316              		.cfi_startproc
 317              		@ args = 0, pretend = 0, frame = 0
 318              		@ frame_needed = 0, uses_anonymous_args = 0
 319              		@ link register save eliminated.
 320              	.LBB51:
 321              	.LBB52:
 322              		.file 2 "../ChibiOS/os/ext/CMSIS/include/core_cmFunc.h"
 323              		.loc 2 430 0
 324              	@ 430 "../ChibiOS/os/ext/CMSIS/include/core_cmFunc.h" 1
 325 0000 EFF30983 		MRS r3, psp
 326              	
 327              	@ 0 "" 2
 328              	.LVL0:
ARM GAS  /tmp/ccNzjLd8.s 			page 24


 329              		.thumb
 330              	.LBE52:
 331              	.LBE51:
 332              		.loc 1 76 0
 333 0004 2033     		adds	r3, r3, #32
 334              	.LVL1:
 335              	.LBB53:
 336              	.LBB54:
 337              		.loc 2 443 0
 338              	@ 443 "../ChibiOS/os/ext/CMSIS/include/core_cmFunc.h" 1
 339 0006 83F30988 		MSR psp, r3
 340              	
 341              	@ 0 "" 2
 342              	.LVL2:
 343              		.thumb
 344              	.LBE54:
 345              	.LBE53:
 346              	.LBB55:
 347              	.LBB56:
 348              	.LBB57:
 349              	.LBB58:
 350              		.loc 2 548 0
 351 000a 0023     		movs	r3, #0
 352              	.LVL3:
 353              	@ 548 "../ChibiOS/os/ext/CMSIS/include/core_cmFunc.h" 1
 354 000c 83F31188 		MSR basepri, r3
 355              	@ 0 "" 2
 356              		.thumb
 357 0010 7047     		bx	lr
 358              	.LBE58:
 359              	.LBE57:
 360              	.LBE56:
 361              	.LBE55:
 362              		.cfi_endproc
 363              	.LFE241:
 364              		.size	SVC_Handler, .-SVC_Handler
 365 0012 00BFAFF3 		.section	.text._port_irq_epilogue,"ax",%progbits
 365      0080AFF3 
 365      0080AFF3 
 365      0080
 366              		.align	2
 367              		.p2align 4,,15
 368              		.global	_port_irq_epilogue
 369              		.thumb
 370              		.thumb_func
 371              		.type	_port_irq_epilogue, %function
 372              	_port_irq_epilogue:
 373              	.LFB242:
 374              		.loc 1 122 0
 375              		.cfi_startproc
 376              		@ args = 0, pretend = 0, frame = 0
 377              		@ frame_needed = 0, uses_anonymous_args = 0
 378              	.LVL4:
 379 0000 10B5     		push	{r4, lr}
 380              		.cfi_def_cfa_offset 8
 381              		.cfi_offset 4, -8
 382              		.cfi_offset 14, -4
ARM GAS  /tmp/ccNzjLd8.s 			page 25


 383              	.LBB83:
 384              	.LBB84:
 385              	.LBB85:
 386              	.LBB86:
 387              		.loc 2 548 0
 388 0002 2023     		movs	r3, #32
 389              	@ 548 "../ChibiOS/os/ext/CMSIS/include/core_cmFunc.h" 1
 390 0004 83F31188 		MSR basepri, r3
 391              	@ 0 "" 2
 392              		.thumb
 393              	.LBE86:
 394              	.LBE85:
 395              	.LBE84:
 396              	.LBE83:
 397              		.loc 1 125 0
 398 0008 0E4B     		ldr	r3, .L8
 399 000a 5B68     		ldr	r3, [r3, #4]
 400 000c 13F40063 		ands	r3, r3, #2048
 401 0010 02D1     		bne	.L7
 402              	.LVL5:
 403              	.LBB87:
 404              	.LBB88:
 405              	.LBB89:
 406              	.LBB90:
 407              		.loc 2 548 0
 408              	@ 548 "../ChibiOS/os/ext/CMSIS/include/core_cmFunc.h" 1
 409 0012 83F31188 		MSR basepri, r3
 410              	@ 0 "" 2
 411              		.thumb
 412 0016 10BD     		pop	{r4, pc}
 413              	.LVL6:
 414              	.L7:
 415              	.LBE90:
 416              	.LBE89:
 417              	.LBE88:
 418              	.LBE87:
 419              	.LBB91:
 420              	.LBB92:
 421              	.LBB93:
 422              	.LBB94:
 423              		.loc 2 430 0
 424              	@ 430 "../ChibiOS/os/ext/CMSIS/include/core_cmFunc.h" 1
 425 0018 EFF30984 		MRS r4, psp
 426              	
 427              	@ 0 "" 2
 428              	.LVL7:
 429              		.thumb
 430              	.LBE94:
 431              	.LBE93:
 432              		.loc 1 141 0
 433 001c 4FF08073 		mov	r3, #16777216
 434 0020 44F8043C 		str	r3, [r4, #-4]
 435              	.LVL8:
 436              		.loc 1 138 0
 437 0024 A4F12003 		sub	r3, r4, #32
 438              	.LVL9:
 439              	.LBB95:
ARM GAS  /tmp/ccNzjLd8.s 			page 26


 440              	.LBB96:
 441              		.loc 2 443 0
 442              	@ 443 "../ChibiOS/os/ext/CMSIS/include/core_cmFunc.h" 1
 443 0028 83F30988 		MSR psp, r3
 444              	
 445              	@ 0 "" 2
 446              		.thumb
 447              	.LBE96:
 448              	.LBE95:
 449              		.loc 1 151 0
 450 002c FFF7FEFF 		bl	chSchIsPreemptionRequired
 451              	.LVL10:
 452 0030 18B1     		cbz	r0, .L4
 453              		.loc 1 153 0
 454 0032 054B     		ldr	r3, .L8+4
 455 0034 44F8083C 		str	r3, [r4, #-8]
 456 0038 10BD     		pop	{r4, pc}
 457              	.LVL11:
 458              	.L4:
 459              		.loc 1 158 0
 460 003a 044B     		ldr	r3, .L8+8
 461 003c 44F8083C 		str	r3, [r4, #-8]
 462 0040 10BD     		pop	{r4, pc}
 463              	.LVL12:
 464              	.L9:
 465 0042 00BF     		.align	2
 466              	.L8:
 467 0044 00ED00E0 		.word	-536810240
 468 0048 00000000 		.word	_port_switch_from_isr
 469 004c 00000000 		.word	_port_exit_from_isr
 470              	.LBE92:
 471              	.LBE91:
 472              		.cfi_endproc
 473              	.LFE242:
 474              		.size	_port_irq_epilogue, .-_port_irq_epilogue
 475              		.text
 476              	.Letext0:
 477              		.file 3 "/nfs/nfs5/home/research/hardware/arm2/gcc-arm-embedded/gcc-arm-none-eabi-4_8-2014q2/arm-n
 478              		.file 4 "/nfs/nfs5/home/research/hardware/arm2/gcc-arm-embedded/gcc-arm-none-eabi-4_8-2014q2/arm-n
 479              		.file 5 "../ChibiOS/os/rt/ports/ARMCMx/compilers/GCC/chtypes.h"
 480              		.file 6 "../ChibiOS/os/rt/include/chsystypes.h"
 481              		.file 7 "../ChibiOS/os/rt/include/chschd.h"
 482              		.file 8 "../ChibiOS/os/ext/CMSIS/include/core_cm4.h"
 483              		.file 9 "../ChibiOS/os/rt/ports/ARMCMx/chcore.h"
 484              		.file 10 "../ChibiOS/os/rt/ports/ARMCMx/chcore_v7m.h"
 485              		.file 11 "../ChibiOS/os/rt/include/chtm.h"
 486              		.file 12 "../ChibiOS/os/rt/include/chsem.h"
 487              		.file 13 "../ChibiOS/os/rt/include/chmtx.h"
 488              		.section	.debug_info,"",%progbits
 489              	.Ldebug_info0:
 490 0000 630A0000 		.4byte	0xa63
 491 0004 0400     		.2byte	0x4
 492 0006 00000000 		.4byte	.Ldebug_abbrev0
 493 000a 04       		.byte	0x4
 494 000b 01       		.uleb128 0x1
 495 000c 8C050000 		.4byte	.LASF132
 496 0010 01       		.byte	0x1
ARM GAS  /tmp/ccNzjLd8.s 			page 27


 497 0011 4F040000 		.4byte	.LASF133
 498 0015 09050000 		.4byte	.LASF134
 499 0019 00000000 		.4byte	.Ldebug_ranges0+0
 500 001d 00000000 		.4byte	0
 501 0021 00000000 		.4byte	.Ldebug_line0
 502 0025 02       		.uleb128 0x2
 503 0026 04       		.byte	0x4
 504 0027 05       		.byte	0x5
 505 0028 696E7400 		.ascii	"int\000"
 506 002c 03       		.uleb128 0x3
 507 002d 04       		.byte	0x4
 508 002e 07       		.byte	0x7
 509 002f 90010000 		.4byte	.LASF0
 510 0033 03       		.uleb128 0x3
 511 0034 01       		.byte	0x1
 512 0035 06       		.byte	0x6
 513 0036 CC000000 		.4byte	.LASF1
 514 003a 04       		.uleb128 0x4
 515 003b 23000000 		.4byte	.LASF5
 516 003f 03       		.byte	0x3
 517 0040 1C       		.byte	0x1c
 518 0041 45000000 		.4byte	0x45
 519 0045 03       		.uleb128 0x3
 520 0046 01       		.byte	0x1
 521 0047 08       		.byte	0x8
 522 0048 44030000 		.4byte	.LASF2
 523 004c 03       		.uleb128 0x3
 524 004d 02       		.byte	0x2
 525 004e 05       		.byte	0x5
 526 004f 6F030000 		.4byte	.LASF3
 527 0053 03       		.uleb128 0x3
 528 0054 02       		.byte	0x2
 529 0055 07       		.byte	0x7
 530 0056 A3030000 		.4byte	.LASF4
 531 005a 04       		.uleb128 0x4
 532 005b 36020000 		.4byte	.LASF6
 533 005f 03       		.byte	0x3
 534 0060 37       		.byte	0x37
 535 0061 65000000 		.4byte	0x65
 536 0065 03       		.uleb128 0x3
 537 0066 04       		.byte	0x4
 538 0067 05       		.byte	0x5
 539 0068 05010000 		.4byte	.LASF7
 540 006c 04       		.uleb128 0x4
 541 006d 9F040000 		.4byte	.LASF8
 542 0071 03       		.byte	0x3
 543 0072 38       		.byte	0x38
 544 0073 77000000 		.4byte	0x77
 545 0077 03       		.uleb128 0x3
 546 0078 04       		.byte	0x4
 547 0079 07       		.byte	0x7
 548 007a 23040000 		.4byte	.LASF9
 549 007e 03       		.uleb128 0x3
 550 007f 08       		.byte	0x8
 551 0080 05       		.byte	0x5
 552 0081 BE000000 		.4byte	.LASF10
 553 0085 04       		.uleb128 0x4
ARM GAS  /tmp/ccNzjLd8.s 			page 28


 554 0086 E5020000 		.4byte	.LASF11
 555 008a 03       		.byte	0x3
 556 008b 4E       		.byte	0x4e
 557 008c 90000000 		.4byte	0x90
 558 0090 03       		.uleb128 0x3
 559 0091 08       		.byte	0x8
 560 0092 07       		.byte	0x7
 561 0093 52000000 		.4byte	.LASF12
 562 0097 04       		.uleb128 0x4
 563 0098 84050000 		.4byte	.LASF13
 564 009c 04       		.byte	0x4
 565 009d 2A       		.byte	0x2a
 566 009e 3A000000 		.4byte	0x3a
 567 00a2 04       		.uleb128 0x4
 568 00a3 3C030000 		.4byte	.LASF14
 569 00a7 04       		.byte	0x4
 570 00a8 41       		.byte	0x41
 571 00a9 5A000000 		.4byte	0x5a
 572 00ad 04       		.uleb128 0x4
 573 00ae F2030000 		.4byte	.LASF15
 574 00b2 04       		.byte	0x4
 575 00b3 42       		.byte	0x42
 576 00b4 6C000000 		.4byte	0x6c
 577 00b8 04       		.uleb128 0x4
 578 00b9 1A000000 		.4byte	.LASF16
 579 00bd 04       		.byte	0x4
 580 00be 4E       		.byte	0x4e
 581 00bf 85000000 		.4byte	0x85
 582 00c3 04       		.uleb128 0x4
 583 00c4 DD040000 		.4byte	.LASF17
 584 00c8 05       		.byte	0x5
 585 00c9 39       		.byte	0x39
 586 00ca AD000000 		.4byte	0xad
 587 00ce 04       		.uleb128 0x4
 588 00cf 05020000 		.4byte	.LASF18
 589 00d3 05       		.byte	0x5
 590 00d4 3C       		.byte	0x3c
 591 00d5 97000000 		.4byte	0x97
 592 00d9 04       		.uleb128 0x4
 593 00da 0E010000 		.4byte	.LASF19
 594 00de 05       		.byte	0x5
 595 00df 3D       		.byte	0x3d
 596 00e0 97000000 		.4byte	0x97
 597 00e4 04       		.uleb128 0x4
 598 00e5 F0020000 		.4byte	.LASF20
 599 00e9 05       		.byte	0x5
 600 00ea 3E       		.byte	0x3e
 601 00eb 97000000 		.4byte	0x97
 602 00ef 04       		.uleb128 0x4
 603 00f0 1E030000 		.4byte	.LASF21
 604 00f4 05       		.byte	0x5
 605 00f5 40       		.byte	0x40
 606 00f6 AD000000 		.4byte	0xad
 607 00fa 04       		.uleb128 0x4
 608 00fb DB010000 		.4byte	.LASF22
 609 00ff 05       		.byte	0x5
 610 0100 41       		.byte	0x41
ARM GAS  /tmp/ccNzjLd8.s 			page 29


 611 0101 A2000000 		.4byte	0xa2
 612 0105 04       		.uleb128 0x4
 613 0106 1B020000 		.4byte	.LASF23
 614 010a 05       		.byte	0x5
 615 010b 43       		.byte	0x43
 616 010c AD000000 		.4byte	0xad
 617 0110 04       		.uleb128 0x4
 618 0111 8A010000 		.4byte	.LASF24
 619 0115 05       		.byte	0x5
 620 0116 45       		.byte	0x45
 621 0117 A2000000 		.4byte	0xa2
 622 011b 04       		.uleb128 0x4
 623 011c 81040000 		.4byte	.LASF25
 624 0120 06       		.byte	0x6
 625 0121 33       		.byte	0x33
 626 0122 AD000000 		.4byte	0xad
 627 0126 04       		.uleb128 0x4
 628 0127 70050000 		.4byte	.LASF26
 629 012b 06       		.byte	0x6
 630 012c 3F       		.byte	0x3f
 631 012d 31010000 		.4byte	0x131
 632 0131 05       		.uleb128 0x5
 633 0132 CC010000 		.4byte	.LASF45
 634 0136 40       		.byte	0x40
 635 0137 07       		.byte	0x7
 636 0138 C2       		.byte	0xc2
 637 0139 11020000 		.4byte	0x211
 638 013d 06       		.uleb128 0x6
 639 013e 94030000 		.4byte	.LASF27
 640 0142 07       		.byte	0x7
 641 0143 C3       		.byte	0xc3
 642 0144 1C020000 		.4byte	0x21c
 643 0148 00       		.byte	0
 644 0149 06       		.uleb128 0x6
 645 014a 17030000 		.4byte	.LASF28
 646 014e 07       		.byte	0x7
 647 014f C5       		.byte	0xc5
 648 0150 1C020000 		.4byte	0x21c
 649 0154 04       		.byte	0x4
 650 0155 06       		.uleb128 0x6
 651 0156 B2000000 		.4byte	.LASF29
 652 015a 07       		.byte	0x7
 653 015b C7       		.byte	0xc7
 654 015c EF000000 		.4byte	0xef
 655 0160 08       		.byte	0x8
 656 0161 06       		.uleb128 0x6
 657 0162 94060000 		.4byte	.LASF30
 658 0166 07       		.byte	0x7
 659 0167 C8       		.byte	0xc8
 660 0168 E0050000 		.4byte	0x5e0
 661 016c 0C       		.byte	0xc
 662 016d 06       		.uleb128 0x6
 663 016e 31010000 		.4byte	.LASF31
 664 0172 07       		.byte	0x7
 665 0173 CA       		.byte	0xca
 666 0174 1C020000 		.4byte	0x21c
 667 0178 10       		.byte	0x10
ARM GAS  /tmp/ccNzjLd8.s 			page 30


 668 0179 06       		.uleb128 0x6
 669 017a A8020000 		.4byte	.LASF32
 670 017e 07       		.byte	0x7
 671 017f CB       		.byte	0xcb
 672 0180 1C020000 		.4byte	0x21c
 673 0184 14       		.byte	0x14
 674 0185 06       		.uleb128 0x6
 675 0186 73060000 		.4byte	.LASF33
 676 018a 07       		.byte	0x7
 677 018b D2       		.byte	0xd2
 678 018c D3070000 		.4byte	0x7d3
 679 0190 18       		.byte	0x18
 680 0191 06       		.uleb128 0x6
 681 0192 79030000 		.4byte	.LASF34
 682 0196 07       		.byte	0x7
 683 0197 DD       		.byte	0xdd
 684 0198 D9000000 		.4byte	0xd9
 685 019c 1C       		.byte	0x1c
 686 019d 06       		.uleb128 0x6
 687 019e 9B030000 		.4byte	.LASF35
 688 01a2 07       		.byte	0x7
 689 01a3 E1       		.byte	0xe1
 690 01a4 CE000000 		.4byte	0xce
 691 01a8 1D       		.byte	0x1d
 692 01a9 06       		.uleb128 0x6
 693 01aa 69050000 		.4byte	.LASF36
 694 01ae 07       		.byte	0x7
 695 01af E6       		.byte	0xe6
 696 01b0 E4000000 		.4byte	0xe4
 697 01b4 1E       		.byte	0x1e
 698 01b5 07       		.uleb128 0x7
 699 01b6 705F7500 		.ascii	"p_u\000"
 700 01ba 07       		.byte	0x7
 701 01bb 3701     		.2byte	0x137
 702 01bd 02070000 		.4byte	0x702
 703 01c1 20       		.byte	0x20
 704 01c2 08       		.uleb128 0x8
 705 01c3 5A020000 		.4byte	.LASF37
 706 01c7 07       		.byte	0x7
 707 01c8 3C01     		.2byte	0x13c
 708 01ca 22020000 		.4byte	0x222
 709 01ce 24       		.byte	0x24
 710 01cf 08       		.uleb128 0x8
 711 01d0 B6010000 		.4byte	.LASF38
 712 01d4 07       		.byte	0x7
 713 01d5 4201     		.2byte	0x142
 714 01d7 46020000 		.4byte	0x246
 715 01db 28       		.byte	0x28
 716 01dc 08       		.uleb128 0x8
 717 01dd E7030000 		.4byte	.LASF39
 718 01e1 07       		.byte	0x7
 719 01e2 4801     		.2byte	0x148
 720 01e4 05010000 		.4byte	0x105
 721 01e8 30       		.byte	0x30
 722 01e9 08       		.uleb128 0x8
 723 01ea 65030000 		.4byte	.LASF40
 724 01ee 07       		.byte	0x7
ARM GAS  /tmp/ccNzjLd8.s 			page 31


 725 01ef 4F01     		.2byte	0x14f
 726 01f1 CD070000 		.4byte	0x7cd
 727 01f5 34       		.byte	0x34
 728 01f6 08       		.uleb128 0x8
 729 01f7 8B040000 		.4byte	.LASF41
 730 01fb 07       		.byte	0x7
 731 01fc 5301     		.2byte	0x153
 732 01fe EF000000 		.4byte	0xef
 733 0202 38       		.byte	0x38
 734 0203 08       		.uleb128 0x8
 735 0204 D8000000 		.4byte	.LASF42
 736 0208 07       		.byte	0x7
 737 0209 5A01     		.2byte	0x15a
 738 020b F9020000 		.4byte	0x2f9
 739 020f 3C       		.byte	0x3c
 740 0210 00       		.byte	0
 741 0211 04       		.uleb128 0x4
 742 0212 6D020000 		.4byte	.LASF43
 743 0216 06       		.byte	0x6
 744 0217 44       		.byte	0x44
 745 0218 1C020000 		.4byte	0x21c
 746 021c 09       		.uleb128 0x9
 747 021d 04       		.byte	0x4
 748 021e 26010000 		.4byte	0x126
 749 0222 04       		.uleb128 0x4
 750 0223 4B020000 		.4byte	.LASF44
 751 0227 06       		.byte	0x6
 752 0228 49       		.byte	0x49
 753 0229 2D020000 		.4byte	0x22d
 754 022d 05       		.uleb128 0x5
 755 022e 13040000 		.4byte	.LASF46
 756 0232 04       		.byte	0x4
 757 0233 07       		.byte	0x7
 758 0234 B0       		.byte	0xb0
 759 0235 46020000 		.4byte	0x246
 760 0239 06       		.uleb128 0x6
 761 023a 94030000 		.4byte	.LASF27
 762 023e 07       		.byte	0x7
 763 023f B1       		.byte	0xb1
 764 0240 1C020000 		.4byte	0x21c
 765 0244 00       		.byte	0
 766 0245 00       		.byte	0
 767 0246 04       		.uleb128 0x4
 768 0247 50050000 		.4byte	.LASF47
 769 024b 06       		.byte	0x6
 770 024c 50       		.byte	0x50
 771 024d 51020000 		.4byte	0x251
 772 0251 05       		.uleb128 0x5
 773 0252 A1000000 		.4byte	.LASF48
 774 0256 08       		.byte	0x8
 775 0257 07       		.byte	0x7
 776 0258 B7       		.byte	0xb7
 777 0259 76020000 		.4byte	0x276
 778 025d 06       		.uleb128 0x6
 779 025e 94030000 		.4byte	.LASF27
 780 0262 07       		.byte	0x7
 781 0263 B8       		.byte	0xb8
ARM GAS  /tmp/ccNzjLd8.s 			page 32


 782 0264 1C020000 		.4byte	0x21c
 783 0268 00       		.byte	0
 784 0269 06       		.uleb128 0x6
 785 026a 17030000 		.4byte	.LASF28
 786 026e 07       		.byte	0x7
 787 026f B9       		.byte	0xb9
 788 0270 1C020000 		.4byte	0x21c
 789 0274 04       		.byte	0x4
 790 0275 00       		.byte	0
 791 0276 04       		.uleb128 0x4
 792 0277 00000000 		.4byte	.LASF49
 793 027b 06       		.byte	0x6
 794 027c 57       		.byte	0x57
 795 027d 81020000 		.4byte	0x281
 796 0281 0A       		.uleb128 0xa
 797 0282 0D020000 		.4byte	.LASF50
 798 0286 1C       		.byte	0x1c
 799 0287 07       		.byte	0x7
 800 0288 9201     		.2byte	0x192
 801 028a DD020000 		.4byte	0x2dd
 802 028e 08       		.uleb128 0x8
 803 028f 02040000 		.4byte	.LASF51
 804 0293 07       		.byte	0x7
 805 0294 9301     		.2byte	0x193
 806 0296 46020000 		.4byte	0x246
 807 029a 00       		.byte	0
 808 029b 08       		.uleb128 0x8
 809 029c 86030000 		.4byte	.LASF52
 810 02a0 07       		.byte	0x7
 811 02a1 9401     		.2byte	0x194
 812 02a3 EF000000 		.4byte	0xef
 813 02a7 08       		.byte	0x8
 814 02a8 08       		.uleb128 0x8
 815 02a9 B0020000 		.4byte	.LASF53
 816 02ad 07       		.byte	0x7
 817 02ae 9601     		.2byte	0x196
 818 02b0 E0050000 		.4byte	0x5e0
 819 02b4 0C       		.byte	0xc
 820 02b5 08       		.uleb128 0x8
 821 02b6 4B010000 		.4byte	.LASF54
 822 02ba 07       		.byte	0x7
 823 02bb 9901     		.2byte	0x199
 824 02bd 1C020000 		.4byte	0x21c
 825 02c1 10       		.byte	0x10
 826 02c2 08       		.uleb128 0x8
 827 02c3 DD020000 		.4byte	.LASF55
 828 02c7 07       		.byte	0x7
 829 02c8 9A01     		.2byte	0x19a
 830 02ca 1C020000 		.4byte	0x21c
 831 02ce 14       		.byte	0x14
 832 02cf 08       		.uleb128 0x8
 833 02d0 D3020000 		.4byte	.LASF56
 834 02d4 07       		.byte	0x7
 835 02d5 9D01     		.2byte	0x19d
 836 02d7 1C020000 		.4byte	0x21c
 837 02db 18       		.byte	0x18
 838 02dc 00       		.byte	0
ARM GAS  /tmp/ccNzjLd8.s 			page 33


 839 02dd 04       		.uleb128 0x4
 840 02de 96040000 		.4byte	.LASF57
 841 02e2 06       		.byte	0x6
 842 02e3 5C       		.byte	0x5c
 843 02e4 E8020000 		.4byte	0x2e8
 844 02e8 09       		.uleb128 0x9
 845 02e9 04       		.byte	0x4
 846 02ea EE020000 		.4byte	0x2ee
 847 02ee 0B       		.uleb128 0xb
 848 02ef F9020000 		.4byte	0x2f9
 849 02f3 0C       		.uleb128 0xc
 850 02f4 F9020000 		.4byte	0x2f9
 851 02f8 00       		.byte	0
 852 02f9 0D       		.uleb128 0xd
 853 02fa 04       		.byte	0x4
 854 02fb 04       		.uleb128 0x4
 855 02fc 07030000 		.4byte	.LASF58
 856 0300 06       		.byte	0x6
 857 0301 61       		.byte	0x61
 858 0302 06030000 		.4byte	0x306
 859 0306 0A       		.uleb128 0xa
 860 0307 C9030000 		.4byte	.LASF59
 861 030b 14       		.byte	0x14
 862 030c 07       		.byte	0x7
 863 030d 6D01     		.2byte	0x16d
 864 030f 55030000 		.4byte	0x355
 865 0313 08       		.uleb128 0x8
 866 0314 A7010000 		.4byte	.LASF60
 867 0318 07       		.byte	0x7
 868 0319 6E01     		.2byte	0x16e
 869 031b E5070000 		.4byte	0x7e5
 870 031f 00       		.byte	0
 871 0320 08       		.uleb128 0x8
 872 0321 5C010000 		.4byte	.LASF61
 873 0325 07       		.byte	0x7
 874 0326 6F01     		.2byte	0x16f
 875 0328 E5070000 		.4byte	0x7e5
 876 032c 04       		.byte	0x4
 877 032d 08       		.uleb128 0x8
 878 032e 0A040000 		.4byte	.LASF62
 879 0332 07       		.byte	0x7
 880 0333 7001     		.2byte	0x170
 881 0335 1B010000 		.4byte	0x11b
 882 0339 08       		.byte	0x8
 883 033a 08       		.uleb128 0x8
 884 033b 9A060000 		.4byte	.LASF63
 885 033f 07       		.byte	0x7
 886 0340 7101     		.2byte	0x171
 887 0342 DD020000 		.4byte	0x2dd
 888 0346 0C       		.byte	0xc
 889 0347 08       		.uleb128 0x8
 890 0348 02050000 		.4byte	.LASF64
 891 034c 07       		.byte	0x7
 892 034d 7301     		.2byte	0x173
 893 034f F9020000 		.4byte	0x2f9
 894 0353 10       		.byte	0x10
 895 0354 00       		.byte	0
ARM GAS  /tmp/ccNzjLd8.s 			page 34


 896 0355 04       		.uleb128 0x4
 897 0356 85000000 		.4byte	.LASF65
 898 035a 06       		.byte	0x6
 899 035b 66       		.byte	0x66
 900 035c 60030000 		.4byte	0x360
 901 0360 0A       		.uleb128 0xa
 902 0361 80020000 		.4byte	.LASF66
 903 0365 10       		.byte	0x10
 904 0366 07       		.byte	0x7
 905 0367 7D01     		.2byte	0x17d
 906 0369 A2030000 		.4byte	0x3a2
 907 036d 08       		.uleb128 0x8
 908 036e A7010000 		.4byte	.LASF60
 909 0372 07       		.byte	0x7
 910 0373 7E01     		.2byte	0x17e
 911 0375 E5070000 		.4byte	0x7e5
 912 0379 00       		.byte	0
 913 037a 08       		.uleb128 0x8
 914 037b 5C010000 		.4byte	.LASF61
 915 037f 07       		.byte	0x7
 916 0380 8001     		.2byte	0x180
 917 0382 E5070000 		.4byte	0x7e5
 918 0386 04       		.byte	0x4
 919 0387 08       		.uleb128 0x8
 920 0388 0A040000 		.4byte	.LASF62
 921 038c 07       		.byte	0x7
 922 038d 8201     		.2byte	0x182
 923 038f 1B010000 		.4byte	0x11b
 924 0393 08       		.byte	0x8
 925 0394 08       		.uleb128 0x8
 926 0395 9C020000 		.4byte	.LASF67
 927 0399 07       		.byte	0x7
 928 039a 8A01     		.2byte	0x18a
 929 039c 1B010000 		.4byte	0x11b
 930 03a0 0C       		.byte	0xc
 931 03a1 00       		.byte	0
 932 03a2 04       		.uleb128 0x4
 933 03a3 39000000 		.4byte	.LASF68
 934 03a7 06       		.byte	0x6
 935 03a8 6B       		.byte	0x6b
 936 03a9 AD030000 		.4byte	0x3ad
 937 03ad 0A       		.uleb128 0xa
 938 03ae 26030000 		.4byte	.LASF69
 939 03b2 04       		.byte	0x4
 940 03b3 07       		.byte	0x7
 941 03b4 A401     		.2byte	0x1a4
 942 03b6 C8030000 		.4byte	0x3c8
 943 03ba 08       		.uleb128 0x8
 944 03bb B8040000 		.4byte	.LASF70
 945 03bf 07       		.byte	0x7
 946 03c0 AC01     		.2byte	0x1ac
 947 03c2 EB070000 		.4byte	0x7eb
 948 03c6 00       		.byte	0
 949 03c7 00       		.byte	0
 950 03c8 04       		.uleb128 0x4
 951 03c9 D1040000 		.4byte	.LASF71
 952 03cd 06       		.byte	0x6
ARM GAS  /tmp/ccNzjLd8.s 			page 35


 953 03ce 70       		.byte	0x70
 954 03cf D3030000 		.4byte	0x3d3
 955 03d3 0E       		.uleb128 0xe
 956 03d4 FB000000 		.4byte	.LASF72
 957 03d8 5001     		.2byte	0x150
 958 03da 07       		.byte	0x7
 959 03db C401     		.2byte	0x1c4
 960 03dd 2F040000 		.4byte	0x42f
 961 03e1 08       		.uleb128 0x8
 962 03e2 7E050000 		.4byte	.LASF73
 963 03e6 07       		.byte	0x7
 964 03e7 C801     		.2byte	0x1c8
 965 03e9 76020000 		.4byte	0x276
 966 03ed 00       		.byte	0
 967 03ee 08       		.uleb128 0x8
 968 03ef E8000000 		.4byte	.LASF74
 969 03f3 07       		.byte	0x7
 970 03f4 CC01     		.2byte	0x1cc
 971 03f6 55030000 		.4byte	0x355
 972 03fa 1C       		.byte	0x1c
 973 03fb 07       		.uleb128 0x7
 974 03fc 64626700 		.ascii	"dbg\000"
 975 0400 07       		.byte	0x7
 976 0401 D001     		.2byte	0x1d0
 977 0403 A2030000 		.4byte	0x3a2
 978 0407 2C       		.byte	0x2c
 979 0408 08       		.uleb128 0x8
 980 0409 72000000 		.4byte	.LASF75
 981 040d 07       		.byte	0x7
 982 040e D401     		.2byte	0x1d4
 983 0410 26010000 		.4byte	0x126
 984 0414 30       		.byte	0x30
 985 0415 07       		.uleb128 0x7
 986 0416 746D00   		.ascii	"tm\000"
 987 0419 07       		.byte	0x7
 988 041a D901     		.2byte	0x1d9
 989 041c F7060000 		.4byte	0x6f7
 990 0420 70       		.byte	0x70
 991 0421 08       		.uleb128 0x8
 992 0422 7B010000 		.4byte	.LASF76
 993 0426 07       		.byte	0x7
 994 0427 E501     		.2byte	0x1e5
 995 0429 F0070000 		.4byte	0x7f0
 996 042d 78       		.byte	0x78
 997 042e 00       		.byte	0
 998 042f 03       		.uleb128 0x3
 999 0430 04       		.byte	0x4
 1000 0431 07       		.byte	0x7
 1001 0432 64020000 		.4byte	.LASF77
 1002 0436 0F       		.uleb128 0xf
 1003 0437 AD000000 		.4byte	0xad
 1004 043b 10       		.uleb128 0x10
 1005 043c 8C       		.byte	0x8c
 1006 043d 08       		.byte	0x8
 1007 043e C001     		.2byte	0x1c0
 1008 0440 56050000 		.4byte	0x556
 1009 0444 08       		.uleb128 0x8
ARM GAS  /tmp/ccNzjLd8.s 			page 36


 1010 0445 9B000000 		.4byte	.LASF78
 1011 0449 08       		.byte	0x8
 1012 044a C201     		.2byte	0x1c2
 1013 044c 56050000 		.4byte	0x556
 1014 0450 00       		.byte	0
 1015 0451 08       		.uleb128 0x8
 1016 0452 D6010000 		.4byte	.LASF79
 1017 0456 08       		.byte	0x8
 1018 0457 C301     		.2byte	0x1c3
 1019 0459 36040000 		.4byte	0x436
 1020 045d 04       		.byte	0x4
 1021 045e 08       		.uleb128 0x8
 1022 045f C1010000 		.4byte	.LASF80
 1023 0463 08       		.byte	0x8
 1024 0464 C401     		.2byte	0x1c4
 1025 0466 36040000 		.4byte	0x436
 1026 046a 08       		.byte	0x8
 1027 046b 08       		.uleb128 0x8
 1028 046c E1010000 		.4byte	.LASF81
 1029 0470 08       		.byte	0x8
 1030 0471 C501     		.2byte	0x1c5
 1031 0473 36040000 		.4byte	0x436
 1032 0477 0C       		.byte	0xc
 1033 0478 07       		.uleb128 0x7
 1034 0479 53435200 		.ascii	"SCR\000"
 1035 047d 08       		.byte	0x8
 1036 047e C601     		.2byte	0x1c6
 1037 0480 36040000 		.4byte	0x436
 1038 0484 10       		.byte	0x10
 1039 0485 07       		.uleb128 0x7
 1040 0486 43435200 		.ascii	"CCR\000"
 1041 048a 08       		.byte	0x8
 1042 048b C701     		.2byte	0x1c7
 1043 048d 36040000 		.4byte	0x436
 1044 0491 14       		.byte	0x14
 1045 0492 07       		.uleb128 0x7
 1046 0493 53485000 		.ascii	"SHP\000"
 1047 0497 08       		.byte	0x8
 1048 0498 C801     		.2byte	0x1c8
 1049 049a 6B050000 		.4byte	0x56b
 1050 049e 18       		.byte	0x18
 1051 049f 08       		.uleb128 0x8
 1052 04a0 52030000 		.4byte	.LASF82
 1053 04a4 08       		.byte	0x8
 1054 04a5 C901     		.2byte	0x1c9
 1055 04a7 36040000 		.4byte	0x436
 1056 04ab 24       		.byte	0x24
 1057 04ac 08       		.uleb128 0x8
 1058 04ad 97020000 		.4byte	.LASF83
 1059 04b1 08       		.byte	0x8
 1060 04b2 CA01     		.2byte	0x1ca
 1061 04b4 36040000 		.4byte	0x436
 1062 04b8 28       		.byte	0x28
 1063 04b9 08       		.uleb128 0x8
 1064 04ba 80060000 		.4byte	.LASF84
 1065 04be 08       		.byte	0x8
 1066 04bf CB01     		.2byte	0x1cb
ARM GAS  /tmp/ccNzjLd8.s 			page 37


 1067 04c1 36040000 		.4byte	0x436
 1068 04c5 2C       		.byte	0x2c
 1069 04c6 08       		.uleb128 0x8
 1070 04c7 E7010000 		.4byte	.LASF85
 1071 04cb 08       		.byte	0x8
 1072 04cc CC01     		.2byte	0x1cc
 1073 04ce 36040000 		.4byte	0x436
 1074 04d2 30       		.byte	0x30
 1075 04d3 08       		.uleb128 0x8
 1076 04d4 EC010000 		.4byte	.LASF86
 1077 04d8 08       		.byte	0x8
 1078 04d9 CD01     		.2byte	0x1cd
 1079 04db 36040000 		.4byte	0x436
 1080 04df 34       		.byte	0x34
 1081 04e0 08       		.uleb128 0x8
 1082 04e1 41010000 		.4byte	.LASF87
 1083 04e5 08       		.byte	0x8
 1084 04e6 CE01     		.2byte	0x1ce
 1085 04e8 36040000 		.4byte	0x436
 1086 04ec 38       		.byte	0x38
 1087 04ed 08       		.uleb128 0x8
 1088 04ee 46010000 		.4byte	.LASF88
 1089 04f2 08       		.byte	0x8
 1090 04f3 CF01     		.2byte	0x1cf
 1091 04f5 36040000 		.4byte	0x436
 1092 04f9 3C       		.byte	0x3c
 1093 04fa 07       		.uleb128 0x7
 1094 04fb 50465200 		.ascii	"PFR\000"
 1095 04ff 08       		.byte	0x8
 1096 0500 D001     		.2byte	0x1d0
 1097 0502 80050000 		.4byte	0x580
 1098 0506 40       		.byte	0x40
 1099 0507 07       		.uleb128 0x7
 1100 0508 44465200 		.ascii	"DFR\000"
 1101 050c 08       		.byte	0x8
 1102 050d D101     		.2byte	0x1d1
 1103 050f 56050000 		.4byte	0x556
 1104 0513 48       		.byte	0x48
 1105 0514 07       		.uleb128 0x7
 1106 0515 41445200 		.ascii	"ADR\000"
 1107 0519 08       		.byte	0x8
 1108 051a D201     		.2byte	0x1d2
 1109 051c 56050000 		.4byte	0x556
 1110 0520 4C       		.byte	0x4c
 1111 0521 08       		.uleb128 0x8
 1112 0522 79050000 		.4byte	.LASF89
 1113 0526 08       		.byte	0x8
 1114 0527 D301     		.2byte	0x1d3
 1115 0529 9A050000 		.4byte	0x59a
 1116 052d 50       		.byte	0x50
 1117 052e 08       		.uleb128 0x8
 1118 052f B9000000 		.4byte	.LASF90
 1119 0533 08       		.byte	0x8
 1120 0534 D401     		.2byte	0x1d4
 1121 0536 B4050000 		.4byte	0x5b4
 1122 053a 60       		.byte	0x60
 1123 053b 08       		.uleb128 0x8
ARM GAS  /tmp/ccNzjLd8.s 			page 38


 1124 053c F8020000 		.4byte	.LASF91
 1125 0540 08       		.byte	0x8
 1126 0541 D501     		.2byte	0x1d5
 1127 0543 A4050000 		.4byte	0x5a4
 1128 0547 74       		.byte	0x74
 1129 0548 08       		.uleb128 0x8
 1130 0549 7A060000 		.4byte	.LASF92
 1131 054d 08       		.byte	0x8
 1132 054e D601     		.2byte	0x1d6
 1133 0550 36040000 		.4byte	0x436
 1134 0554 88       		.byte	0x88
 1135 0555 00       		.byte	0
 1136 0556 11       		.uleb128 0x11
 1137 0557 36040000 		.4byte	0x436
 1138 055b 12       		.uleb128 0x12
 1139 055c 97000000 		.4byte	0x97
 1140 0560 6B050000 		.4byte	0x56b
 1141 0564 13       		.uleb128 0x13
 1142 0565 2F040000 		.4byte	0x42f
 1143 0569 0B       		.byte	0xb
 1144 056a 00       		.byte	0
 1145 056b 0F       		.uleb128 0xf
 1146 056c 5B050000 		.4byte	0x55b
 1147 0570 12       		.uleb128 0x12
 1148 0571 AD000000 		.4byte	0xad
 1149 0575 80050000 		.4byte	0x580
 1150 0579 13       		.uleb128 0x13
 1151 057a 2F040000 		.4byte	0x42f
 1152 057e 01       		.byte	0x1
 1153 057f 00       		.byte	0
 1154 0580 11       		.uleb128 0x11
 1155 0581 85050000 		.4byte	0x585
 1156 0585 0F       		.uleb128 0xf
 1157 0586 70050000 		.4byte	0x570
 1158 058a 12       		.uleb128 0x12
 1159 058b AD000000 		.4byte	0xad
 1160 058f 9A050000 		.4byte	0x59a
 1161 0593 13       		.uleb128 0x13
 1162 0594 2F040000 		.4byte	0x42f
 1163 0598 03       		.byte	0x3
 1164 0599 00       		.byte	0
 1165 059a 11       		.uleb128 0x11
 1166 059b 9F050000 		.4byte	0x59f
 1167 059f 0F       		.uleb128 0xf
 1168 05a0 8A050000 		.4byte	0x58a
 1169 05a4 12       		.uleb128 0x12
 1170 05a5 AD000000 		.4byte	0xad
 1171 05a9 B4050000 		.4byte	0x5b4
 1172 05ad 13       		.uleb128 0x13
 1173 05ae 2F040000 		.4byte	0x42f
 1174 05b2 04       		.byte	0x4
 1175 05b3 00       		.byte	0
 1176 05b4 11       		.uleb128 0x11
 1177 05b5 B9050000 		.4byte	0x5b9
 1178 05b9 0F       		.uleb128 0xf
 1179 05ba A4050000 		.4byte	0x5a4
 1180 05be 14       		.uleb128 0x14
ARM GAS  /tmp/ccNzjLd8.s 			page 39


 1181 05bf 64010000 		.4byte	.LASF93
 1182 05c3 08       		.byte	0x8
 1183 05c4 D701     		.2byte	0x1d7
 1184 05c6 3B040000 		.4byte	0x43b
 1185 05ca 04       		.uleb128 0x4
 1186 05cb 53010000 		.4byte	.LASF94
 1187 05cf 09       		.byte	0x9
 1188 05d0 65       		.byte	0x65
 1189 05d1 F9020000 		.4byte	0x2f9
 1190 05d5 04       		.uleb128 0x4
 1191 05d6 40020000 		.4byte	.LASF95
 1192 05da 09       		.byte	0x9
 1193 05db 6D       		.byte	0x6d
 1194 05dc B8000000 		.4byte	0xb8
 1195 05e0 05       		.uleb128 0x5
 1196 05e1 C9040000 		.4byte	.LASF96
 1197 05e5 04       		.byte	0x4
 1198 05e6 09       		.byte	0x9
 1199 05e7 89       		.byte	0x89
 1200 05e8 F9050000 		.4byte	0x5f9
 1201 05ec 15       		.uleb128 0x15
 1202 05ed 72313300 		.ascii	"r13\000"
 1203 05f1 09       		.byte	0x9
 1204 05f2 8A       		.byte	0x8a
 1205 05f3 74060000 		.4byte	0x674
 1206 05f7 00       		.byte	0
 1207 05f8 00       		.byte	0
 1208 05f9 05       		.uleb128 0x5
 1209 05fa 2D000000 		.4byte	.LASF97
 1210 05fe 24       		.byte	0x24
 1211 05ff 0A       		.byte	0xa
 1212 0600 FD       		.byte	0xfd
 1213 0601 74060000 		.4byte	0x674
 1214 0605 07       		.uleb128 0x7
 1215 0606 723400   		.ascii	"r4\000"
 1216 0609 0A       		.byte	0xa
 1217 060a 1001     		.2byte	0x110
 1218 060c CA050000 		.4byte	0x5ca
 1219 0610 00       		.byte	0
 1220 0611 07       		.uleb128 0x7
 1221 0612 723500   		.ascii	"r5\000"
 1222 0615 0A       		.byte	0xa
 1223 0616 1101     		.2byte	0x111
 1224 0618 CA050000 		.4byte	0x5ca
 1225 061c 04       		.byte	0x4
 1226 061d 07       		.uleb128 0x7
 1227 061e 723600   		.ascii	"r6\000"
 1228 0621 0A       		.byte	0xa
 1229 0622 1201     		.2byte	0x112
 1230 0624 CA050000 		.4byte	0x5ca
 1231 0628 08       		.byte	0x8
 1232 0629 07       		.uleb128 0x7
 1233 062a 723700   		.ascii	"r7\000"
 1234 062d 0A       		.byte	0xa
 1235 062e 1301     		.2byte	0x113
 1236 0630 CA050000 		.4byte	0x5ca
 1237 0634 0C       		.byte	0xc
ARM GAS  /tmp/ccNzjLd8.s 			page 40


 1238 0635 07       		.uleb128 0x7
 1239 0636 723800   		.ascii	"r8\000"
 1240 0639 0A       		.byte	0xa
 1241 063a 1401     		.2byte	0x114
 1242 063c CA050000 		.4byte	0x5ca
 1243 0640 10       		.byte	0x10
 1244 0641 07       		.uleb128 0x7
 1245 0642 723900   		.ascii	"r9\000"
 1246 0645 0A       		.byte	0xa
 1247 0646 1501     		.2byte	0x115
 1248 0648 CA050000 		.4byte	0x5ca
 1249 064c 14       		.byte	0x14
 1250 064d 07       		.uleb128 0x7
 1251 064e 72313000 		.ascii	"r10\000"
 1252 0652 0A       		.byte	0xa
 1253 0653 1601     		.2byte	0x116
 1254 0655 CA050000 		.4byte	0x5ca
 1255 0659 18       		.byte	0x18
 1256 065a 07       		.uleb128 0x7
 1257 065b 72313100 		.ascii	"r11\000"
 1258 065f 0A       		.byte	0xa
 1259 0660 1701     		.2byte	0x117
 1260 0662 CA050000 		.4byte	0x5ca
 1261 0666 1C       		.byte	0x1c
 1262 0667 07       		.uleb128 0x7
 1263 0668 6C7200   		.ascii	"lr\000"
 1264 066b 0A       		.byte	0xa
 1265 066c 1801     		.2byte	0x118
 1266 066e CA050000 		.4byte	0x5ca
 1267 0672 20       		.byte	0x20
 1268 0673 00       		.byte	0
 1269 0674 09       		.uleb128 0x9
 1270 0675 04       		.byte	0x4
 1271 0676 F9050000 		.4byte	0x5f9
 1272 067a 05       		.uleb128 0x5
 1273 067b B6020000 		.4byte	.LASF98
 1274 067f 20       		.byte	0x20
 1275 0680 0A       		.byte	0xa
 1276 0681 DE       		.byte	0xde
 1277 0682 E2060000 		.4byte	0x6e2
 1278 0686 15       		.uleb128 0x15
 1279 0687 723000   		.ascii	"r0\000"
 1280 068a 0A       		.byte	0xa
 1281 068b DF       		.byte	0xdf
 1282 068c CA050000 		.4byte	0x5ca
 1283 0690 00       		.byte	0
 1284 0691 15       		.uleb128 0x15
 1285 0692 723100   		.ascii	"r1\000"
 1286 0695 0A       		.byte	0xa
 1287 0696 E0       		.byte	0xe0
 1288 0697 CA050000 		.4byte	0x5ca
 1289 069b 04       		.byte	0x4
 1290 069c 15       		.uleb128 0x15
 1291 069d 723200   		.ascii	"r2\000"
 1292 06a0 0A       		.byte	0xa
 1293 06a1 E1       		.byte	0xe1
 1294 06a2 CA050000 		.4byte	0x5ca
ARM GAS  /tmp/ccNzjLd8.s 			page 41


 1295 06a6 08       		.byte	0x8
 1296 06a7 15       		.uleb128 0x15
 1297 06a8 723300   		.ascii	"r3\000"
 1298 06ab 0A       		.byte	0xa
 1299 06ac E2       		.byte	0xe2
 1300 06ad CA050000 		.4byte	0x5ca
 1301 06b1 0C       		.byte	0xc
 1302 06b2 15       		.uleb128 0x15
 1303 06b3 72313200 		.ascii	"r12\000"
 1304 06b7 0A       		.byte	0xa
 1305 06b8 E3       		.byte	0xe3
 1306 06b9 CA050000 		.4byte	0x5ca
 1307 06bd 10       		.byte	0x10
 1308 06be 06       		.uleb128 0x6
 1309 06bf B6030000 		.4byte	.LASF99
 1310 06c3 0A       		.byte	0xa
 1311 06c4 E4       		.byte	0xe4
 1312 06c5 CA050000 		.4byte	0x5ca
 1313 06c9 14       		.byte	0x14
 1314 06ca 15       		.uleb128 0x15
 1315 06cb 706300   		.ascii	"pc\000"
 1316 06ce 0A       		.byte	0xa
 1317 06cf E5       		.byte	0xe5
 1318 06d0 CA050000 		.4byte	0x5ca
 1319 06d4 18       		.byte	0x18
 1320 06d5 06       		.uleb128 0x6
 1321 06d6 81030000 		.4byte	.LASF100
 1322 06da 0A       		.byte	0xa
 1323 06db E6       		.byte	0xe6
 1324 06dc CA050000 		.4byte	0x5ca
 1325 06e0 1C       		.byte	0x1c
 1326 06e1 00       		.byte	0
 1327 06e2 16       		.uleb128 0x16
 1328 06e3 04       		.byte	0x4
 1329 06e4 0B       		.byte	0xb
 1330 06e5 38       		.byte	0x38
 1331 06e6 F7060000 		.4byte	0x6f7
 1332 06ea 06       		.uleb128 0x6
 1333 06eb C2040000 		.4byte	.LASF101
 1334 06ef 0B       		.byte	0xb
 1335 06f0 3C       		.byte	0x3c
 1336 06f1 C3000000 		.4byte	0xc3
 1337 06f5 00       		.byte	0
 1338 06f6 00       		.byte	0
 1339 06f7 04       		.uleb128 0x4
 1340 06f8 C2020000 		.4byte	.LASF102
 1341 06fc 0B       		.byte	0xb
 1342 06fd 3D       		.byte	0x3d
 1343 06fe E2060000 		.4byte	0x6e2
 1344 0702 17       		.uleb128 0x17
 1345 0703 04       		.byte	0x4
 1346 0704 07       		.byte	0x7
 1347 0705 FA       		.byte	0xfa
 1348 0706 6B070000 		.4byte	0x76b
 1349 070a 18       		.uleb128 0x18
 1350 070b 13000000 		.4byte	.LASF103
 1351 070f 07       		.byte	0x7
ARM GAS  /tmp/ccNzjLd8.s 			page 42


 1352 0710 0101     		.2byte	0x101
 1353 0712 FA000000 		.4byte	0xfa
 1354 0716 18       		.uleb128 0x18
 1355 0717 69000000 		.4byte	.LASF104
 1356 071b 07       		.byte	0x7
 1357 071c 0801     		.2byte	0x108
 1358 071e FA000000 		.4byte	0xfa
 1359 0722 18       		.uleb128 0x18
 1360 0723 6C060000 		.4byte	.LASF105
 1361 0727 07       		.byte	0x7
 1362 0728 0F01     		.2byte	0x10f
 1363 072a F9020000 		.4byte	0x2f9
 1364 072e 18       		.uleb128 0x18
 1365 072f 0D000000 		.4byte	.LASF106
 1366 0733 07       		.byte	0x7
 1367 0734 1601     		.2byte	0x116
 1368 0736 6B070000 		.4byte	0x76b
 1369 073a 18       		.uleb128 0x18
 1370 073b 7D000000 		.4byte	.LASF107
 1371 073f 07       		.byte	0x7
 1372 0740 1B01     		.2byte	0x11b
 1373 0742 FA000000 		.4byte	0xfa
 1374 0746 18       		.uleb128 0x18
 1375 0747 AF010000 		.4byte	.LASF108
 1376 074b 07       		.byte	0x7
 1377 074c 2401     		.2byte	0x124
 1378 074e 96070000 		.4byte	0x796
 1379 0752 18       		.uleb128 0x18
 1380 0753 FB030000 		.4byte	.LASF109
 1381 0757 07       		.byte	0x7
 1382 0758 2D01     		.2byte	0x12d
 1383 075a CD070000 		.4byte	0x7cd
 1384 075e 18       		.uleb128 0x18
 1385 075f 8D030000 		.4byte	.LASF110
 1386 0763 07       		.byte	0x7
 1387 0764 3501     		.2byte	0x135
 1388 0766 05010000 		.4byte	0x105
 1389 076a 00       		.byte	0
 1390 076b 09       		.uleb128 0x9
 1391 076c 04       		.byte	0x4
 1392 076d 11020000 		.4byte	0x211
 1393 0771 05       		.uleb128 0x5
 1394 0772 DA030000 		.4byte	.LASF111
 1395 0776 0C       		.byte	0xc
 1396 0777 0C       		.byte	0xc
 1397 0778 34       		.byte	0x34
 1398 0779 96070000 		.4byte	0x796
 1399 077d 06       		.uleb128 0x6
 1400 077e 39010000 		.4byte	.LASF112
 1401 0782 0C       		.byte	0xc
 1402 0783 35       		.byte	0x35
 1403 0784 46020000 		.4byte	0x246
 1404 0788 00       		.byte	0
 1405 0789 06       		.uleb128 0x6
 1406 078a C6010000 		.4byte	.LASF113
 1407 078e 0C       		.byte	0xc
 1408 078f 37       		.byte	0x37
ARM GAS  /tmp/ccNzjLd8.s 			page 43


 1409 0790 10010000 		.4byte	0x110
 1410 0794 08       		.byte	0x8
 1411 0795 00       		.byte	0
 1412 0796 09       		.uleb128 0x9
 1413 0797 04       		.byte	0x4
 1414 0798 71070000 		.4byte	0x771
 1415 079c 05       		.uleb128 0x5
 1416 079d 60050000 		.4byte	.LASF114
 1417 07a1 10       		.byte	0x10
 1418 07a2 0D       		.byte	0xd
 1419 07a3 39       		.byte	0x39
 1420 07a4 CD070000 		.4byte	0x7cd
 1421 07a8 06       		.uleb128 0x6
 1422 07a9 E0000000 		.4byte	.LASF115
 1423 07ad 0D       		.byte	0xd
 1424 07ae 3A       		.byte	0x3a
 1425 07af 46020000 		.4byte	0x246
 1426 07b3 00       		.byte	0
 1427 07b4 06       		.uleb128 0x6
 1428 07b5 85060000 		.4byte	.LASF116
 1429 07b9 0D       		.byte	0xd
 1430 07ba 3C       		.byte	0x3c
 1431 07bb 1C020000 		.4byte	0x21c
 1432 07bf 08       		.byte	0x8
 1433 07c0 06       		.uleb128 0x6
 1434 07c1 7A040000 		.4byte	.LASF117
 1435 07c5 0D       		.byte	0xd
 1436 07c6 3E       		.byte	0x3e
 1437 07c7 0B080000 		.4byte	0x80b
 1438 07cb 0C       		.byte	0xc
 1439 07cc 00       		.byte	0
 1440 07cd 09       		.uleb128 0x9
 1441 07ce 04       		.byte	0x4
 1442 07cf 9C070000 		.4byte	0x79c
 1443 07d3 09       		.uleb128 0x9
 1444 07d4 04       		.byte	0x4
 1445 07d5 D9070000 		.4byte	0x7d9
 1446 07d9 11       		.uleb128 0x11
 1447 07da DE070000 		.4byte	0x7de
 1448 07de 03       		.uleb128 0x3
 1449 07df 01       		.byte	0x1
 1450 07e0 08       		.byte	0x8
 1451 07e1 35040000 		.4byte	.LASF118
 1452 07e5 09       		.uleb128 0x9
 1453 07e6 04       		.byte	0x4
 1454 07e7 FB020000 		.4byte	0x2fb
 1455 07eb 0F       		.uleb128 0xf
 1456 07ec D3070000 		.4byte	0x7d3
 1457 07f0 12       		.uleb128 0x12
 1458 07f1 D5050000 		.4byte	0x5d5
 1459 07f5 00080000 		.4byte	0x800
 1460 07f9 13       		.uleb128 0x13
 1461 07fa 2F040000 		.4byte	0x42f
 1462 07fe 1A       		.byte	0x1a
 1463 07ff 00       		.byte	0
 1464 0800 04       		.uleb128 0x4
 1465 0801 6D010000 		.4byte	.LASF119
ARM GAS  /tmp/ccNzjLd8.s 			page 44


 1466 0805 0D       		.byte	0xd
 1467 0806 34       		.byte	0x34
 1468 0807 9C070000 		.4byte	0x79c
 1469 080b 09       		.uleb128 0x9
 1470 080c 04       		.byte	0x4
 1471 080d 00080000 		.4byte	0x800
 1472 0811 19       		.uleb128 0x19
 1473 0812 AA040000 		.4byte	.LASF122
 1474 0816 02       		.byte	0x2
 1475 0817 2202     		.2byte	0x222
 1476 0819 03       		.byte	0x3
 1477 081a 2B080000 		.4byte	0x82b
 1478 081e 1A       		.uleb128 0x1a
 1479 081f 75010000 		.4byte	.LASF124
 1480 0823 02       		.byte	0x2
 1481 0824 2202     		.2byte	0x222
 1482 0826 AD000000 		.4byte	0xad
 1483 082a 00       		.byte	0
 1484 082b 1B       		.uleb128 0x1b
 1485 082c 48000000 		.4byte	.LASF120
 1486 0830 0A       		.byte	0xa
 1487 0831 C801     		.2byte	0x1c8
 1488 0833 03       		.byte	0x3
 1489 0834 1B       		.uleb128 0x1b
 1490 0835 EF000000 		.4byte	.LASF121
 1491 0839 0A       		.byte	0xa
 1492 083a E001     		.2byte	0x1e0
 1493 083c 03       		.byte	0x3
 1494 083d 1C       		.uleb128 0x1c
 1495 083e F8040000 		.4byte	.LASF135
 1496 0842 02       		.byte	0x2
 1497 0843 AA01     		.2byte	0x1aa
 1498 0845 AD000000 		.4byte	0xad
 1499 0849 03       		.byte	0x3
 1500 084a 5B080000 		.4byte	0x85b
 1501 084e 1D       		.uleb128 0x1d
 1502 084f 8D060000 		.4byte	.LASF128
 1503 0853 02       		.byte	0x2
 1504 0854 AC01     		.2byte	0x1ac
 1505 0856 AD000000 		.4byte	0xad
 1506 085a 00       		.byte	0
 1507 085b 19       		.uleb128 0x19
 1508 085c 9D010000 		.4byte	.LASF123
 1509 0860 02       		.byte	0x2
 1510 0861 B901     		.2byte	0x1b9
 1511 0863 03       		.byte	0x3
 1512 0864 75080000 		.4byte	0x875
 1513 0868 1A       		.uleb128 0x1a
 1514 0869 27020000 		.4byte	.LASF125
 1515 086d 02       		.byte	0x2
 1516 086e B901     		.2byte	0x1b9
 1517 0870 AD000000 		.4byte	0xad
 1518 0874 00       		.byte	0
 1519 0875 1B       		.uleb128 0x1b
 1520 0876 3A040000 		.4byte	.LASF126
 1521 087a 0A       		.byte	0xa
 1522 087b FA01     		.2byte	0x1fa
ARM GAS  /tmp/ccNzjLd8.s 			page 45


 1523 087d 03       		.byte	0x3
 1524 087e 1B       		.uleb128 0x1b
 1525 087f E5040000 		.4byte	.LASF127
 1526 0883 0A       		.byte	0xa
 1527 0884 EF01     		.2byte	0x1ef
 1528 0886 03       		.byte	0x3
 1529 0887 1E       		.uleb128 0x1e
 1530 0888 F2010000 		.4byte	.LASF136
 1531 088c 01       		.byte	0x1
 1532 088d 7A       		.byte	0x7a
 1533 088e 01       		.byte	0x1
 1534 088f A1080000 		.4byte	0x8a1
 1535 0893 1F       		.uleb128 0x1f
 1536 0894 20       		.uleb128 0x20
 1537 0895 02030000 		.4byte	.LASF129
 1538 0899 01       		.byte	0x1
 1539 089a 7E       		.byte	0x7e
 1540 089b A1080000 		.4byte	0x8a1
 1541 089f 00       		.byte	0
 1542 08a0 00       		.byte	0
 1543 08a1 09       		.uleb128 0x9
 1544 08a2 04       		.byte	0x4
 1545 08a3 7A060000 		.4byte	0x67a
 1546 08a7 21       		.uleb128 0x21
 1547 08a8 BD030000 		.4byte	.LASF137
 1548 08ac 01       		.byte	0x1
 1549 08ad 3E       		.byte	0x3e
 1550 08ae 00000000 		.4byte	.LFB241
 1551 08b2 12000000 		.4byte	.LFE241-.LFB241
 1552 08b6 01       		.uleb128 0x1
 1553 08b7 9C       		.byte	0x9c
 1554 08b8 48090000 		.4byte	0x948
 1555 08bc 22       		.uleb128 0x22
 1556 08bd 02030000 		.4byte	.LASF129
 1557 08c1 01       		.byte	0x1
 1558 08c2 40       		.byte	0x40
 1559 08c3 A1080000 		.4byte	0x8a1
 1560 08c7 00000000 		.4byte	.LLST0
 1561 08cb 23       		.uleb128 0x23
 1562 08cc 3D080000 		.4byte	0x83d
 1563 08d0 00000000 		.4byte	.LBB51
 1564 08d4 04000000 		.4byte	.LBE51-.LBB51
 1565 08d8 01       		.byte	0x1
 1566 08d9 48       		.byte	0x48
 1567 08da F2080000 		.4byte	0x8f2
 1568 08de 24       		.uleb128 0x24
 1569 08df 00000000 		.4byte	.LBB52
 1570 08e3 04000000 		.4byte	.LBE52-.LBB52
 1571 08e7 25       		.uleb128 0x25
 1572 08e8 4E080000 		.4byte	0x84e
 1573 08ec 20000000 		.4byte	.LLST1
 1574 08f0 00       		.byte	0
 1575 08f1 00       		.byte	0
 1576 08f2 23       		.uleb128 0x23
 1577 08f3 5B080000 		.4byte	0x85b
 1578 08f7 06000000 		.4byte	.LBB53
 1579 08fb 04000000 		.4byte	.LBE53-.LBB53
ARM GAS  /tmp/ccNzjLd8.s 			page 46


 1580 08ff 01       		.byte	0x1
 1581 0900 4F       		.byte	0x4f
 1582 0901 0F090000 		.4byte	0x90f
 1583 0905 26       		.uleb128 0x26
 1584 0906 68080000 		.4byte	0x868
 1585 090a 00000000 		.4byte	.LLST0
 1586 090e 00       		.byte	0
 1587 090f 27       		.uleb128 0x27
 1588 0910 75080000 		.4byte	0x875
 1589 0914 0A000000 		.4byte	.LBB55
 1590 0918 08000000 		.4byte	.LBE55-.LBB55
 1591 091c 01       		.byte	0x1
 1592 091d 52       		.byte	0x52
 1593 091e 28       		.uleb128 0x28
 1594 091f 34080000 		.4byte	0x834
 1595 0923 0A000000 		.4byte	.LBB56
 1596 0927 08000000 		.4byte	.LBE56-.LBB56
 1597 092b 0A       		.byte	0xa
 1598 092c FC01     		.2byte	0x1fc
 1599 092e 28       		.uleb128 0x28
 1600 092f 11080000 		.4byte	0x811
 1601 0933 0A000000 		.4byte	.LBB57
 1602 0937 08000000 		.4byte	.LBE57-.LBB57
 1603 093b 0A       		.byte	0xa
 1604 093c E301     		.2byte	0x1e3
 1605 093e 29       		.uleb128 0x29
 1606 093f 1E080000 		.4byte	0x81e
 1607 0943 00       		.byte	0
 1608 0944 00       		.byte	0
 1609 0945 00       		.byte	0
 1610 0946 00       		.byte	0
 1611 0947 00       		.byte	0
 1612 0948 2A       		.uleb128 0x2a
 1613 0949 87080000 		.4byte	0x887
 1614 094d 00000000 		.4byte	.LFB242
 1615 0951 50000000 		.4byte	.LFE242-.LFB242
 1616 0955 01       		.uleb128 0x1
 1617 0956 9C       		.byte	0x9c
 1618 0957 370A0000 		.4byte	0xa37
 1619 095b 23       		.uleb128 0x23
 1620 095c 7E080000 		.4byte	0x87e
 1621 0960 02000000 		.4byte	.LBB83
 1622 0964 06000000 		.4byte	.LBE83-.LBB83
 1623 0968 01       		.byte	0x1
 1624 0969 7C       		.byte	0x7c
 1625 096a 97090000 		.4byte	0x997
 1626 096e 28       		.uleb128 0x28
 1627 096f 2B080000 		.4byte	0x82b
 1628 0973 02000000 		.4byte	.LBB84
 1629 0977 06000000 		.4byte	.LBE84-.LBB84
 1630 097b 0A       		.byte	0xa
 1631 097c F101     		.2byte	0x1f1
 1632 097e 28       		.uleb128 0x28
 1633 097f 11080000 		.4byte	0x811
 1634 0983 02000000 		.4byte	.LBB85
 1635 0987 06000000 		.4byte	.LBE85-.LBB85
 1636 098b 0A       		.byte	0xa
ARM GAS  /tmp/ccNzjLd8.s 			page 47


 1637 098c D001     		.2byte	0x1d0
 1638 098e 29       		.uleb128 0x29
 1639 098f 1E080000 		.4byte	0x81e
 1640 0993 20       		.byte	0x20
 1641 0994 00       		.byte	0
 1642 0995 00       		.byte	0
 1643 0996 00       		.byte	0
 1644 0997 23       		.uleb128 0x23
 1645 0998 75080000 		.4byte	0x875
 1646 099c 12000000 		.4byte	.LBB87
 1647 09a0 06000000 		.4byte	.LBE87-.LBB87
 1648 09a4 01       		.byte	0x1
 1649 09a5 A5       		.byte	0xa5
 1650 09a6 D6090000 		.4byte	0x9d6
 1651 09aa 28       		.uleb128 0x28
 1652 09ab 34080000 		.4byte	0x834
 1653 09af 12000000 		.4byte	.LBB88
 1654 09b3 06000000 		.4byte	.LBE88-.LBB88
 1655 09b7 0A       		.byte	0xa
 1656 09b8 FC01     		.2byte	0x1fc
 1657 09ba 28       		.uleb128 0x28
 1658 09bb 11080000 		.4byte	0x811
 1659 09bf 12000000 		.4byte	.LBB89
 1660 09c3 06000000 		.4byte	.LBE89-.LBB89
 1661 09c7 0A       		.byte	0xa
 1662 09c8 E301     		.2byte	0x1e3
 1663 09ca 26       		.uleb128 0x26
 1664 09cb 1E080000 		.4byte	0x81e
 1665 09cf 40000000 		.4byte	.LLST3
 1666 09d3 00       		.byte	0
 1667 09d4 00       		.byte	0
 1668 09d5 00       		.byte	0
 1669 09d6 24       		.uleb128 0x24
 1670 09d7 18000000 		.4byte	.LBB92
 1671 09db 38000000 		.4byte	.LBE92-.LBB92
 1672 09df 25       		.uleb128 0x25
 1673 09e0 94080000 		.4byte	0x894
 1674 09e4 54000000 		.4byte	.LLST4
 1675 09e8 23       		.uleb128 0x23
 1676 09e9 3D080000 		.4byte	0x83d
 1677 09ed 18000000 		.4byte	.LBB93
 1678 09f1 04000000 		.4byte	.LBE93-.LBB93
 1679 09f5 01       		.byte	0x1
 1680 09f6 86       		.byte	0x86
 1681 09f7 0F0A0000 		.4byte	0xa0f
 1682 09fb 24       		.uleb128 0x24
 1683 09fc 18000000 		.4byte	.LBB94
 1684 0a00 04000000 		.4byte	.LBE94-.LBB94
 1685 0a04 25       		.uleb128 0x25
 1686 0a05 4E080000 		.4byte	0x84e
 1687 0a09 81000000 		.4byte	.LLST5
 1688 0a0d 00       		.byte	0
 1689 0a0e 00       		.byte	0
 1690 0a0f 23       		.uleb128 0x23
 1691 0a10 5B080000 		.4byte	0x85b
 1692 0a14 28000000 		.4byte	.LBB95
 1693 0a18 04000000 		.4byte	.LBE95-.LBB95
ARM GAS  /tmp/ccNzjLd8.s 			page 48


 1694 0a1c 01       		.byte	0x1
 1695 0a1d 93       		.byte	0x93
 1696 0a1e 2C0A0000 		.4byte	0xa2c
 1697 0a22 26       		.uleb128 0x26
 1698 0a23 68080000 		.4byte	0x868
 1699 0a27 94000000 		.4byte	.LLST6
 1700 0a2b 00       		.byte	0
 1701 0a2c 2B       		.uleb128 0x2b
 1702 0a2d 30000000 		.4byte	.LVL10
 1703 0a31 530A0000 		.4byte	0xa53
 1704 0a35 00       		.byte	0
 1705 0a36 00       		.byte	0
 1706 0a37 2C       		.uleb128 0x2c
 1707 0a38 58030000 		.4byte	.LASF130
 1708 0a3c 08       		.byte	0x8
 1709 0a3d FA06     		.2byte	0x6fa
 1710 0a3f 430A0000 		.4byte	0xa43
 1711 0a43 0F       		.uleb128 0xf
 1712 0a44 A2000000 		.4byte	0xa2
 1713 0a48 2D       		.uleb128 0x2d
 1714 0a49 636800   		.ascii	"ch\000"
 1715 0a4c 07       		.byte	0x7
 1716 0a4d 0B02     		.2byte	0x20b
 1717 0a4f C8030000 		.4byte	0x3c8
 1718 0a53 2E       		.uleb128 0x2e
 1719 0a54 17010000 		.4byte	.LASF138
 1720 0a58 07       		.byte	0x7
 1721 0a59 1A02     		.2byte	0x21a
 1722 0a5b 5F0A0000 		.4byte	0xa5f
 1723 0a5f 03       		.uleb128 0x3
 1724 0a60 01       		.byte	0x1
 1725 0a61 02       		.byte	0x2
 1726 0a62 36030000 		.4byte	.LASF131
 1727 0a66 00       		.byte	0
 1728              		.section	.debug_abbrev,"",%progbits
 1729              	.Ldebug_abbrev0:
 1730 0000 01       		.uleb128 0x1
 1731 0001 11       		.uleb128 0x11
 1732 0002 01       		.byte	0x1
 1733 0003 25       		.uleb128 0x25
 1734 0004 0E       		.uleb128 0xe
 1735 0005 13       		.uleb128 0x13
 1736 0006 0B       		.uleb128 0xb
 1737 0007 03       		.uleb128 0x3
 1738 0008 0E       		.uleb128 0xe
 1739 0009 1B       		.uleb128 0x1b
 1740 000a 0E       		.uleb128 0xe
 1741 000b 55       		.uleb128 0x55
 1742 000c 17       		.uleb128 0x17
 1743 000d 11       		.uleb128 0x11
 1744 000e 01       		.uleb128 0x1
 1745 000f 10       		.uleb128 0x10
 1746 0010 17       		.uleb128 0x17
 1747 0011 00       		.byte	0
 1748 0012 00       		.byte	0
 1749 0013 02       		.uleb128 0x2
 1750 0014 24       		.uleb128 0x24
ARM GAS  /tmp/ccNzjLd8.s 			page 49


 1751 0015 00       		.byte	0
 1752 0016 0B       		.uleb128 0xb
 1753 0017 0B       		.uleb128 0xb
 1754 0018 3E       		.uleb128 0x3e
 1755 0019 0B       		.uleb128 0xb
 1756 001a 03       		.uleb128 0x3
 1757 001b 08       		.uleb128 0x8
 1758 001c 00       		.byte	0
 1759 001d 00       		.byte	0
 1760 001e 03       		.uleb128 0x3
 1761 001f 24       		.uleb128 0x24
 1762 0020 00       		.byte	0
 1763 0021 0B       		.uleb128 0xb
 1764 0022 0B       		.uleb128 0xb
 1765 0023 3E       		.uleb128 0x3e
 1766 0024 0B       		.uleb128 0xb
 1767 0025 03       		.uleb128 0x3
 1768 0026 0E       		.uleb128 0xe
 1769 0027 00       		.byte	0
 1770 0028 00       		.byte	0
 1771 0029 04       		.uleb128 0x4
 1772 002a 16       		.uleb128 0x16
 1773 002b 00       		.byte	0
 1774 002c 03       		.uleb128 0x3
 1775 002d 0E       		.uleb128 0xe
 1776 002e 3A       		.uleb128 0x3a
 1777 002f 0B       		.uleb128 0xb
 1778 0030 3B       		.uleb128 0x3b
 1779 0031 0B       		.uleb128 0xb
 1780 0032 49       		.uleb128 0x49
 1781 0033 13       		.uleb128 0x13
 1782 0034 00       		.byte	0
 1783 0035 00       		.byte	0
 1784 0036 05       		.uleb128 0x5
 1785 0037 13       		.uleb128 0x13
 1786 0038 01       		.byte	0x1
 1787 0039 03       		.uleb128 0x3
 1788 003a 0E       		.uleb128 0xe
 1789 003b 0B       		.uleb128 0xb
 1790 003c 0B       		.uleb128 0xb
 1791 003d 3A       		.uleb128 0x3a
 1792 003e 0B       		.uleb128 0xb
 1793 003f 3B       		.uleb128 0x3b
 1794 0040 0B       		.uleb128 0xb
 1795 0041 01       		.uleb128 0x1
 1796 0042 13       		.uleb128 0x13
 1797 0043 00       		.byte	0
 1798 0044 00       		.byte	0
 1799 0045 06       		.uleb128 0x6
 1800 0046 0D       		.uleb128 0xd
 1801 0047 00       		.byte	0
 1802 0048 03       		.uleb128 0x3
 1803 0049 0E       		.uleb128 0xe
 1804 004a 3A       		.uleb128 0x3a
 1805 004b 0B       		.uleb128 0xb
 1806 004c 3B       		.uleb128 0x3b
 1807 004d 0B       		.uleb128 0xb
ARM GAS  /tmp/ccNzjLd8.s 			page 50


 1808 004e 49       		.uleb128 0x49
 1809 004f 13       		.uleb128 0x13
 1810 0050 38       		.uleb128 0x38
 1811 0051 0B       		.uleb128 0xb
 1812 0052 00       		.byte	0
 1813 0053 00       		.byte	0
 1814 0054 07       		.uleb128 0x7
 1815 0055 0D       		.uleb128 0xd
 1816 0056 00       		.byte	0
 1817 0057 03       		.uleb128 0x3
 1818 0058 08       		.uleb128 0x8
 1819 0059 3A       		.uleb128 0x3a
 1820 005a 0B       		.uleb128 0xb
 1821 005b 3B       		.uleb128 0x3b
 1822 005c 05       		.uleb128 0x5
 1823 005d 49       		.uleb128 0x49
 1824 005e 13       		.uleb128 0x13
 1825 005f 38       		.uleb128 0x38
 1826 0060 0B       		.uleb128 0xb
 1827 0061 00       		.byte	0
 1828 0062 00       		.byte	0
 1829 0063 08       		.uleb128 0x8
 1830 0064 0D       		.uleb128 0xd
 1831 0065 00       		.byte	0
 1832 0066 03       		.uleb128 0x3
 1833 0067 0E       		.uleb128 0xe
 1834 0068 3A       		.uleb128 0x3a
 1835 0069 0B       		.uleb128 0xb
 1836 006a 3B       		.uleb128 0x3b
 1837 006b 05       		.uleb128 0x5
 1838 006c 49       		.uleb128 0x49
 1839 006d 13       		.uleb128 0x13
 1840 006e 38       		.uleb128 0x38
 1841 006f 0B       		.uleb128 0xb
 1842 0070 00       		.byte	0
 1843 0071 00       		.byte	0
 1844 0072 09       		.uleb128 0x9
 1845 0073 0F       		.uleb128 0xf
 1846 0074 00       		.byte	0
 1847 0075 0B       		.uleb128 0xb
 1848 0076 0B       		.uleb128 0xb
 1849 0077 49       		.uleb128 0x49
 1850 0078 13       		.uleb128 0x13
 1851 0079 00       		.byte	0
 1852 007a 00       		.byte	0
 1853 007b 0A       		.uleb128 0xa
 1854 007c 13       		.uleb128 0x13
 1855 007d 01       		.byte	0x1
 1856 007e 03       		.uleb128 0x3
 1857 007f 0E       		.uleb128 0xe
 1858 0080 0B       		.uleb128 0xb
 1859 0081 0B       		.uleb128 0xb
 1860 0082 3A       		.uleb128 0x3a
 1861 0083 0B       		.uleb128 0xb
 1862 0084 3B       		.uleb128 0x3b
 1863 0085 05       		.uleb128 0x5
 1864 0086 01       		.uleb128 0x1
ARM GAS  /tmp/ccNzjLd8.s 			page 51


 1865 0087 13       		.uleb128 0x13
 1866 0088 00       		.byte	0
 1867 0089 00       		.byte	0
 1868 008a 0B       		.uleb128 0xb
 1869 008b 15       		.uleb128 0x15
 1870 008c 01       		.byte	0x1
 1871 008d 27       		.uleb128 0x27
 1872 008e 19       		.uleb128 0x19
 1873 008f 01       		.uleb128 0x1
 1874 0090 13       		.uleb128 0x13
 1875 0091 00       		.byte	0
 1876 0092 00       		.byte	0
 1877 0093 0C       		.uleb128 0xc
 1878 0094 05       		.uleb128 0x5
 1879 0095 00       		.byte	0
 1880 0096 49       		.uleb128 0x49
 1881 0097 13       		.uleb128 0x13
 1882 0098 00       		.byte	0
 1883 0099 00       		.byte	0
 1884 009a 0D       		.uleb128 0xd
 1885 009b 0F       		.uleb128 0xf
 1886 009c 00       		.byte	0
 1887 009d 0B       		.uleb128 0xb
 1888 009e 0B       		.uleb128 0xb
 1889 009f 00       		.byte	0
 1890 00a0 00       		.byte	0
 1891 00a1 0E       		.uleb128 0xe
 1892 00a2 13       		.uleb128 0x13
 1893 00a3 01       		.byte	0x1
 1894 00a4 03       		.uleb128 0x3
 1895 00a5 0E       		.uleb128 0xe
 1896 00a6 0B       		.uleb128 0xb
 1897 00a7 05       		.uleb128 0x5
 1898 00a8 3A       		.uleb128 0x3a
 1899 00a9 0B       		.uleb128 0xb
 1900 00aa 3B       		.uleb128 0x3b
 1901 00ab 05       		.uleb128 0x5
 1902 00ac 01       		.uleb128 0x1
 1903 00ad 13       		.uleb128 0x13
 1904 00ae 00       		.byte	0
 1905 00af 00       		.byte	0
 1906 00b0 0F       		.uleb128 0xf
 1907 00b1 35       		.uleb128 0x35
 1908 00b2 00       		.byte	0
 1909 00b3 49       		.uleb128 0x49
 1910 00b4 13       		.uleb128 0x13
 1911 00b5 00       		.byte	0
 1912 00b6 00       		.byte	0
 1913 00b7 10       		.uleb128 0x10
 1914 00b8 13       		.uleb128 0x13
 1915 00b9 01       		.byte	0x1
 1916 00ba 0B       		.uleb128 0xb
 1917 00bb 0B       		.uleb128 0xb
 1918 00bc 3A       		.uleb128 0x3a
 1919 00bd 0B       		.uleb128 0xb
 1920 00be 3B       		.uleb128 0x3b
 1921 00bf 05       		.uleb128 0x5
ARM GAS  /tmp/ccNzjLd8.s 			page 52


 1922 00c0 01       		.uleb128 0x1
 1923 00c1 13       		.uleb128 0x13
 1924 00c2 00       		.byte	0
 1925 00c3 00       		.byte	0
 1926 00c4 11       		.uleb128 0x11
 1927 00c5 26       		.uleb128 0x26
 1928 00c6 00       		.byte	0
 1929 00c7 49       		.uleb128 0x49
 1930 00c8 13       		.uleb128 0x13
 1931 00c9 00       		.byte	0
 1932 00ca 00       		.byte	0
 1933 00cb 12       		.uleb128 0x12
 1934 00cc 01       		.uleb128 0x1
 1935 00cd 01       		.byte	0x1
 1936 00ce 49       		.uleb128 0x49
 1937 00cf 13       		.uleb128 0x13
 1938 00d0 01       		.uleb128 0x1
 1939 00d1 13       		.uleb128 0x13
 1940 00d2 00       		.byte	0
 1941 00d3 00       		.byte	0
 1942 00d4 13       		.uleb128 0x13
 1943 00d5 21       		.uleb128 0x21
 1944 00d6 00       		.byte	0
 1945 00d7 49       		.uleb128 0x49
 1946 00d8 13       		.uleb128 0x13
 1947 00d9 2F       		.uleb128 0x2f
 1948 00da 0B       		.uleb128 0xb
 1949 00db 00       		.byte	0
 1950 00dc 00       		.byte	0
 1951 00dd 14       		.uleb128 0x14
 1952 00de 16       		.uleb128 0x16
 1953 00df 00       		.byte	0
 1954 00e0 03       		.uleb128 0x3
 1955 00e1 0E       		.uleb128 0xe
 1956 00e2 3A       		.uleb128 0x3a
 1957 00e3 0B       		.uleb128 0xb
 1958 00e4 3B       		.uleb128 0x3b
 1959 00e5 05       		.uleb128 0x5
 1960 00e6 49       		.uleb128 0x49
 1961 00e7 13       		.uleb128 0x13
 1962 00e8 00       		.byte	0
 1963 00e9 00       		.byte	0
 1964 00ea 15       		.uleb128 0x15
 1965 00eb 0D       		.uleb128 0xd
 1966 00ec 00       		.byte	0
 1967 00ed 03       		.uleb128 0x3
 1968 00ee 08       		.uleb128 0x8
 1969 00ef 3A       		.uleb128 0x3a
 1970 00f0 0B       		.uleb128 0xb
 1971 00f1 3B       		.uleb128 0x3b
 1972 00f2 0B       		.uleb128 0xb
 1973 00f3 49       		.uleb128 0x49
 1974 00f4 13       		.uleb128 0x13
 1975 00f5 38       		.uleb128 0x38
 1976 00f6 0B       		.uleb128 0xb
 1977 00f7 00       		.byte	0
 1978 00f8 00       		.byte	0
ARM GAS  /tmp/ccNzjLd8.s 			page 53


 1979 00f9 16       		.uleb128 0x16
 1980 00fa 13       		.uleb128 0x13
 1981 00fb 01       		.byte	0x1
 1982 00fc 0B       		.uleb128 0xb
 1983 00fd 0B       		.uleb128 0xb
 1984 00fe 3A       		.uleb128 0x3a
 1985 00ff 0B       		.uleb128 0xb
 1986 0100 3B       		.uleb128 0x3b
 1987 0101 0B       		.uleb128 0xb
 1988 0102 01       		.uleb128 0x1
 1989 0103 13       		.uleb128 0x13
 1990 0104 00       		.byte	0
 1991 0105 00       		.byte	0
 1992 0106 17       		.uleb128 0x17
 1993 0107 17       		.uleb128 0x17
 1994 0108 01       		.byte	0x1
 1995 0109 0B       		.uleb128 0xb
 1996 010a 0B       		.uleb128 0xb
 1997 010b 3A       		.uleb128 0x3a
 1998 010c 0B       		.uleb128 0xb
 1999 010d 3B       		.uleb128 0x3b
 2000 010e 0B       		.uleb128 0xb
 2001 010f 01       		.uleb128 0x1
 2002 0110 13       		.uleb128 0x13
 2003 0111 00       		.byte	0
 2004 0112 00       		.byte	0
 2005 0113 18       		.uleb128 0x18
 2006 0114 0D       		.uleb128 0xd
 2007 0115 00       		.byte	0
 2008 0116 03       		.uleb128 0x3
 2009 0117 0E       		.uleb128 0xe
 2010 0118 3A       		.uleb128 0x3a
 2011 0119 0B       		.uleb128 0xb
 2012 011a 3B       		.uleb128 0x3b
 2013 011b 05       		.uleb128 0x5
 2014 011c 49       		.uleb128 0x49
 2015 011d 13       		.uleb128 0x13
 2016 011e 00       		.byte	0
 2017 011f 00       		.byte	0
 2018 0120 19       		.uleb128 0x19
 2019 0121 2E       		.uleb128 0x2e
 2020 0122 01       		.byte	0x1
 2021 0123 03       		.uleb128 0x3
 2022 0124 0E       		.uleb128 0xe
 2023 0125 3A       		.uleb128 0x3a
 2024 0126 0B       		.uleb128 0xb
 2025 0127 3B       		.uleb128 0x3b
 2026 0128 05       		.uleb128 0x5
 2027 0129 27       		.uleb128 0x27
 2028 012a 19       		.uleb128 0x19
 2029 012b 20       		.uleb128 0x20
 2030 012c 0B       		.uleb128 0xb
 2031 012d 01       		.uleb128 0x1
 2032 012e 13       		.uleb128 0x13
 2033 012f 00       		.byte	0
 2034 0130 00       		.byte	0
 2035 0131 1A       		.uleb128 0x1a
ARM GAS  /tmp/ccNzjLd8.s 			page 54


 2036 0132 05       		.uleb128 0x5
 2037 0133 00       		.byte	0
 2038 0134 03       		.uleb128 0x3
 2039 0135 0E       		.uleb128 0xe
 2040 0136 3A       		.uleb128 0x3a
 2041 0137 0B       		.uleb128 0xb
 2042 0138 3B       		.uleb128 0x3b
 2043 0139 05       		.uleb128 0x5
 2044 013a 49       		.uleb128 0x49
 2045 013b 13       		.uleb128 0x13
 2046 013c 00       		.byte	0
 2047 013d 00       		.byte	0
 2048 013e 1B       		.uleb128 0x1b
 2049 013f 2E       		.uleb128 0x2e
 2050 0140 00       		.byte	0
 2051 0141 03       		.uleb128 0x3
 2052 0142 0E       		.uleb128 0xe
 2053 0143 3A       		.uleb128 0x3a
 2054 0144 0B       		.uleb128 0xb
 2055 0145 3B       		.uleb128 0x3b
 2056 0146 05       		.uleb128 0x5
 2057 0147 27       		.uleb128 0x27
 2058 0148 19       		.uleb128 0x19
 2059 0149 20       		.uleb128 0x20
 2060 014a 0B       		.uleb128 0xb
 2061 014b 00       		.byte	0
 2062 014c 00       		.byte	0
 2063 014d 1C       		.uleb128 0x1c
 2064 014e 2E       		.uleb128 0x2e
 2065 014f 01       		.byte	0x1
 2066 0150 03       		.uleb128 0x3
 2067 0151 0E       		.uleb128 0xe
 2068 0152 3A       		.uleb128 0x3a
 2069 0153 0B       		.uleb128 0xb
 2070 0154 3B       		.uleb128 0x3b
 2071 0155 05       		.uleb128 0x5
 2072 0156 27       		.uleb128 0x27
 2073 0157 19       		.uleb128 0x19
 2074 0158 49       		.uleb128 0x49
 2075 0159 13       		.uleb128 0x13
 2076 015a 20       		.uleb128 0x20
 2077 015b 0B       		.uleb128 0xb
 2078 015c 01       		.uleb128 0x1
 2079 015d 13       		.uleb128 0x13
 2080 015e 00       		.byte	0
 2081 015f 00       		.byte	0
 2082 0160 1D       		.uleb128 0x1d
 2083 0161 34       		.uleb128 0x34
 2084 0162 00       		.byte	0
 2085 0163 03       		.uleb128 0x3
 2086 0164 0E       		.uleb128 0xe
 2087 0165 3A       		.uleb128 0x3a
 2088 0166 0B       		.uleb128 0xb
 2089 0167 3B       		.uleb128 0x3b
 2090 0168 05       		.uleb128 0x5
 2091 0169 49       		.uleb128 0x49
 2092 016a 13       		.uleb128 0x13
ARM GAS  /tmp/ccNzjLd8.s 			page 55


 2093 016b 00       		.byte	0
 2094 016c 00       		.byte	0
 2095 016d 1E       		.uleb128 0x1e
 2096 016e 2E       		.uleb128 0x2e
 2097 016f 01       		.byte	0x1
 2098 0170 3F       		.uleb128 0x3f
 2099 0171 19       		.uleb128 0x19
 2100 0172 03       		.uleb128 0x3
 2101 0173 0E       		.uleb128 0xe
 2102 0174 3A       		.uleb128 0x3a
 2103 0175 0B       		.uleb128 0xb
 2104 0176 3B       		.uleb128 0x3b
 2105 0177 0B       		.uleb128 0xb
 2106 0178 27       		.uleb128 0x27
 2107 0179 19       		.uleb128 0x19
 2108 017a 20       		.uleb128 0x20
 2109 017b 0B       		.uleb128 0xb
 2110 017c 01       		.uleb128 0x1
 2111 017d 13       		.uleb128 0x13
 2112 017e 00       		.byte	0
 2113 017f 00       		.byte	0
 2114 0180 1F       		.uleb128 0x1f
 2115 0181 0B       		.uleb128 0xb
 2116 0182 01       		.byte	0x1
 2117 0183 00       		.byte	0
 2118 0184 00       		.byte	0
 2119 0185 20       		.uleb128 0x20
 2120 0186 34       		.uleb128 0x34
 2121 0187 00       		.byte	0
 2122 0188 03       		.uleb128 0x3
 2123 0189 0E       		.uleb128 0xe
 2124 018a 3A       		.uleb128 0x3a
 2125 018b 0B       		.uleb128 0xb
 2126 018c 3B       		.uleb128 0x3b
 2127 018d 0B       		.uleb128 0xb
 2128 018e 49       		.uleb128 0x49
 2129 018f 13       		.uleb128 0x13
 2130 0190 00       		.byte	0
 2131 0191 00       		.byte	0
 2132 0192 21       		.uleb128 0x21
 2133 0193 2E       		.uleb128 0x2e
 2134 0194 01       		.byte	0x1
 2135 0195 3F       		.uleb128 0x3f
 2136 0196 19       		.uleb128 0x19
 2137 0197 03       		.uleb128 0x3
 2138 0198 0E       		.uleb128 0xe
 2139 0199 3A       		.uleb128 0x3a
 2140 019a 0B       		.uleb128 0xb
 2141 019b 3B       		.uleb128 0x3b
 2142 019c 0B       		.uleb128 0xb
 2143 019d 27       		.uleb128 0x27
 2144 019e 19       		.uleb128 0x19
 2145 019f 11       		.uleb128 0x11
 2146 01a0 01       		.uleb128 0x1
 2147 01a1 12       		.uleb128 0x12
 2148 01a2 06       		.uleb128 0x6
 2149 01a3 40       		.uleb128 0x40
ARM GAS  /tmp/ccNzjLd8.s 			page 56


 2150 01a4 18       		.uleb128 0x18
 2151 01a5 9742     		.uleb128 0x2117
 2152 01a7 19       		.uleb128 0x19
 2153 01a8 01       		.uleb128 0x1
 2154 01a9 13       		.uleb128 0x13
 2155 01aa 00       		.byte	0
 2156 01ab 00       		.byte	0
 2157 01ac 22       		.uleb128 0x22
 2158 01ad 34       		.uleb128 0x34
 2159 01ae 00       		.byte	0
 2160 01af 03       		.uleb128 0x3
 2161 01b0 0E       		.uleb128 0xe
 2162 01b1 3A       		.uleb128 0x3a
 2163 01b2 0B       		.uleb128 0xb
 2164 01b3 3B       		.uleb128 0x3b
 2165 01b4 0B       		.uleb128 0xb
 2166 01b5 49       		.uleb128 0x49
 2167 01b6 13       		.uleb128 0x13
 2168 01b7 02       		.uleb128 0x2
 2169 01b8 17       		.uleb128 0x17
 2170 01b9 00       		.byte	0
 2171 01ba 00       		.byte	0
 2172 01bb 23       		.uleb128 0x23
 2173 01bc 1D       		.uleb128 0x1d
 2174 01bd 01       		.byte	0x1
 2175 01be 31       		.uleb128 0x31
 2176 01bf 13       		.uleb128 0x13
 2177 01c0 11       		.uleb128 0x11
 2178 01c1 01       		.uleb128 0x1
 2179 01c2 12       		.uleb128 0x12
 2180 01c3 06       		.uleb128 0x6
 2181 01c4 58       		.uleb128 0x58
 2182 01c5 0B       		.uleb128 0xb
 2183 01c6 59       		.uleb128 0x59
 2184 01c7 0B       		.uleb128 0xb
 2185 01c8 01       		.uleb128 0x1
 2186 01c9 13       		.uleb128 0x13
 2187 01ca 00       		.byte	0
 2188 01cb 00       		.byte	0
 2189 01cc 24       		.uleb128 0x24
 2190 01cd 0B       		.uleb128 0xb
 2191 01ce 01       		.byte	0x1
 2192 01cf 11       		.uleb128 0x11
 2193 01d0 01       		.uleb128 0x1
 2194 01d1 12       		.uleb128 0x12
 2195 01d2 06       		.uleb128 0x6
 2196 01d3 00       		.byte	0
 2197 01d4 00       		.byte	0
 2198 01d5 25       		.uleb128 0x25
 2199 01d6 34       		.uleb128 0x34
 2200 01d7 00       		.byte	0
 2201 01d8 31       		.uleb128 0x31
 2202 01d9 13       		.uleb128 0x13
 2203 01da 02       		.uleb128 0x2
 2204 01db 17       		.uleb128 0x17
 2205 01dc 00       		.byte	0
 2206 01dd 00       		.byte	0
ARM GAS  /tmp/ccNzjLd8.s 			page 57


 2207 01de 26       		.uleb128 0x26
 2208 01df 05       		.uleb128 0x5
 2209 01e0 00       		.byte	0
 2210 01e1 31       		.uleb128 0x31
 2211 01e2 13       		.uleb128 0x13
 2212 01e3 02       		.uleb128 0x2
 2213 01e4 17       		.uleb128 0x17
 2214 01e5 00       		.byte	0
 2215 01e6 00       		.byte	0
 2216 01e7 27       		.uleb128 0x27
 2217 01e8 1D       		.uleb128 0x1d
 2218 01e9 01       		.byte	0x1
 2219 01ea 31       		.uleb128 0x31
 2220 01eb 13       		.uleb128 0x13
 2221 01ec 11       		.uleb128 0x11
 2222 01ed 01       		.uleb128 0x1
 2223 01ee 12       		.uleb128 0x12
 2224 01ef 06       		.uleb128 0x6
 2225 01f0 58       		.uleb128 0x58
 2226 01f1 0B       		.uleb128 0xb
 2227 01f2 59       		.uleb128 0x59
 2228 01f3 0B       		.uleb128 0xb
 2229 01f4 00       		.byte	0
 2230 01f5 00       		.byte	0
 2231 01f6 28       		.uleb128 0x28
 2232 01f7 1D       		.uleb128 0x1d
 2233 01f8 01       		.byte	0x1
 2234 01f9 31       		.uleb128 0x31
 2235 01fa 13       		.uleb128 0x13
 2236 01fb 11       		.uleb128 0x11
 2237 01fc 01       		.uleb128 0x1
 2238 01fd 12       		.uleb128 0x12
 2239 01fe 06       		.uleb128 0x6
 2240 01ff 58       		.uleb128 0x58
 2241 0200 0B       		.uleb128 0xb
 2242 0201 59       		.uleb128 0x59
 2243 0202 05       		.uleb128 0x5
 2244 0203 00       		.byte	0
 2245 0204 00       		.byte	0
 2246 0205 29       		.uleb128 0x29
 2247 0206 05       		.uleb128 0x5
 2248 0207 00       		.byte	0
 2249 0208 31       		.uleb128 0x31
 2250 0209 13       		.uleb128 0x13
 2251 020a 1C       		.uleb128 0x1c
 2252 020b 0B       		.uleb128 0xb
 2253 020c 00       		.byte	0
 2254 020d 00       		.byte	0
 2255 020e 2A       		.uleb128 0x2a
 2256 020f 2E       		.uleb128 0x2e
 2257 0210 01       		.byte	0x1
 2258 0211 31       		.uleb128 0x31
 2259 0212 13       		.uleb128 0x13
 2260 0213 11       		.uleb128 0x11
 2261 0214 01       		.uleb128 0x1
 2262 0215 12       		.uleb128 0x12
 2263 0216 06       		.uleb128 0x6
ARM GAS  /tmp/ccNzjLd8.s 			page 58


 2264 0217 40       		.uleb128 0x40
 2265 0218 18       		.uleb128 0x18
 2266 0219 9742     		.uleb128 0x2117
 2267 021b 19       		.uleb128 0x19
 2268 021c 01       		.uleb128 0x1
 2269 021d 13       		.uleb128 0x13
 2270 021e 00       		.byte	0
 2271 021f 00       		.byte	0
 2272 0220 2B       		.uleb128 0x2b
 2273 0221 898201   		.uleb128 0x4109
 2274 0224 00       		.byte	0
 2275 0225 11       		.uleb128 0x11
 2276 0226 01       		.uleb128 0x1
 2277 0227 31       		.uleb128 0x31
 2278 0228 13       		.uleb128 0x13
 2279 0229 00       		.byte	0
 2280 022a 00       		.byte	0
 2281 022b 2C       		.uleb128 0x2c
 2282 022c 34       		.uleb128 0x34
 2283 022d 00       		.byte	0
 2284 022e 03       		.uleb128 0x3
 2285 022f 0E       		.uleb128 0xe
 2286 0230 3A       		.uleb128 0x3a
 2287 0231 0B       		.uleb128 0xb
 2288 0232 3B       		.uleb128 0x3b
 2289 0233 05       		.uleb128 0x5
 2290 0234 49       		.uleb128 0x49
 2291 0235 13       		.uleb128 0x13
 2292 0236 3F       		.uleb128 0x3f
 2293 0237 19       		.uleb128 0x19
 2294 0238 3C       		.uleb128 0x3c
 2295 0239 19       		.uleb128 0x19
 2296 023a 00       		.byte	0
 2297 023b 00       		.byte	0
 2298 023c 2D       		.uleb128 0x2d
 2299 023d 34       		.uleb128 0x34
 2300 023e 00       		.byte	0
 2301 023f 03       		.uleb128 0x3
 2302 0240 08       		.uleb128 0x8
 2303 0241 3A       		.uleb128 0x3a
 2304 0242 0B       		.uleb128 0xb
 2305 0243 3B       		.uleb128 0x3b
 2306 0244 05       		.uleb128 0x5
 2307 0245 49       		.uleb128 0x49
 2308 0246 13       		.uleb128 0x13
 2309 0247 3F       		.uleb128 0x3f
 2310 0248 19       		.uleb128 0x19
 2311 0249 3C       		.uleb128 0x3c
 2312 024a 19       		.uleb128 0x19
 2313 024b 00       		.byte	0
 2314 024c 00       		.byte	0
 2315 024d 2E       		.uleb128 0x2e
 2316 024e 2E       		.uleb128 0x2e
 2317 024f 00       		.byte	0
 2318 0250 3F       		.uleb128 0x3f
 2319 0251 19       		.uleb128 0x19
 2320 0252 03       		.uleb128 0x3
ARM GAS  /tmp/ccNzjLd8.s 			page 59


 2321 0253 0E       		.uleb128 0xe
 2322 0254 3A       		.uleb128 0x3a
 2323 0255 0B       		.uleb128 0xb
 2324 0256 3B       		.uleb128 0x3b
 2325 0257 05       		.uleb128 0x5
 2326 0258 27       		.uleb128 0x27
 2327 0259 19       		.uleb128 0x19
 2328 025a 49       		.uleb128 0x49
 2329 025b 13       		.uleb128 0x13
 2330 025c 3C       		.uleb128 0x3c
 2331 025d 19       		.uleb128 0x19
 2332 025e 00       		.byte	0
 2333 025f 00       		.byte	0
 2334 0260 00       		.byte	0
 2335              		.section	.debug_loc,"",%progbits
 2336              	.Ldebug_loc0:
 2337              	.LLST0:
 2338 0000 04000000 		.4byte	.LVL0
 2339 0004 06000000 		.4byte	.LVL1
 2340 0008 0300     		.2byte	0x3
 2341 000a 73       		.byte	0x73
 2342 000b 20       		.sleb128 32
 2343 000c 9F       		.byte	0x9f
 2344 000d 06000000 		.4byte	.LVL1
 2345 0011 0C000000 		.4byte	.LVL3
 2346 0015 0100     		.2byte	0x1
 2347 0017 53       		.byte	0x53
 2348 0018 00000000 		.4byte	0
 2349 001c 00000000 		.4byte	0
 2350              	.LLST1:
 2351 0020 04000000 		.4byte	.LVL0
 2352 0024 06000000 		.4byte	.LVL1
 2353 0028 0100     		.2byte	0x1
 2354 002a 53       		.byte	0x53
 2355 002b 06000000 		.4byte	.LVL1
 2356 002f 0C000000 		.4byte	.LVL3
 2357 0033 0300     		.2byte	0x3
 2358 0035 73       		.byte	0x73
 2359 0036 60       		.sleb128 -32
 2360 0037 9F       		.byte	0x9f
 2361 0038 00000000 		.4byte	0
 2362 003c 00000000 		.4byte	0
 2363              	.LLST3:
 2364 0040 12000000 		.4byte	.LVL5
 2365 0044 18000000 		.4byte	.LVL6
 2366 0048 0200     		.2byte	0x2
 2367 004a 30       		.byte	0x30
 2368 004b 9F       		.byte	0x9f
 2369 004c 00000000 		.4byte	0
 2370 0050 00000000 		.4byte	0
 2371              	.LLST4:
 2372 0054 1C000000 		.4byte	.LVL7
 2373 0058 28000000 		.4byte	.LVL9
 2374 005c 0300     		.2byte	0x3
 2375 005e 74       		.byte	0x74
 2376 005f 60       		.sleb128 -32
 2377 0060 9F       		.byte	0x9f
ARM GAS  /tmp/ccNzjLd8.s 			page 60


 2378 0061 28000000 		.4byte	.LVL9
 2379 0065 2F000000 		.4byte	.LVL10-1
 2380 0069 0100     		.2byte	0x1
 2381 006b 53       		.byte	0x53
 2382 006c 2F000000 		.4byte	.LVL10-1
 2383 0070 42000000 		.4byte	.LVL12
 2384 0074 0300     		.2byte	0x3
 2385 0076 74       		.byte	0x74
 2386 0077 60       		.sleb128 -32
 2387 0078 9F       		.byte	0x9f
 2388 0079 00000000 		.4byte	0
 2389 007d 00000000 		.4byte	0
 2390              	.LLST5:
 2391 0081 1C000000 		.4byte	.LVL7
 2392 0085 42000000 		.4byte	.LVL12
 2393 0089 0100     		.2byte	0x1
 2394 008b 54       		.byte	0x54
 2395 008c 00000000 		.4byte	0
 2396 0090 00000000 		.4byte	0
 2397              	.LLST6:
 2398 0094 24000000 		.4byte	.LVL8
 2399 0098 28000000 		.4byte	.LVL9
 2400 009c 0300     		.2byte	0x3
 2401 009e 74       		.byte	0x74
 2402 009f 60       		.sleb128 -32
 2403 00a0 9F       		.byte	0x9f
 2404 00a1 28000000 		.4byte	.LVL9
 2405 00a5 2F000000 		.4byte	.LVL10-1
 2406 00a9 0100     		.2byte	0x1
 2407 00ab 53       		.byte	0x53
 2408 00ac 2F000000 		.4byte	.LVL10-1
 2409 00b0 42000000 		.4byte	.LVL12
 2410 00b4 0300     		.2byte	0x3
 2411 00b6 74       		.byte	0x74
 2412 00b7 60       		.sleb128 -32
 2413 00b8 9F       		.byte	0x9f
 2414 00b9 00000000 		.4byte	0
 2415 00bd 00000000 		.4byte	0
 2416              		.section	.debug_aranges,"",%progbits
 2417 0000 24000000 		.4byte	0x24
 2418 0004 0200     		.2byte	0x2
 2419 0006 00000000 		.4byte	.Ldebug_info0
 2420 000a 04       		.byte	0x4
 2421 000b 00       		.byte	0
 2422 000c 0000     		.2byte	0
 2423 000e 0000     		.2byte	0
 2424 0010 00000000 		.4byte	.LFB241
 2425 0014 12000000 		.4byte	.LFE241-.LFB241
 2426 0018 00000000 		.4byte	.LFB242
 2427 001c 50000000 		.4byte	.LFE242-.LFB242
 2428 0020 00000000 		.4byte	0
 2429 0024 00000000 		.4byte	0
 2430              		.section	.debug_ranges,"",%progbits
 2431              	.Ldebug_ranges0:
 2432 0000 00000000 		.4byte	.LFB241
 2433 0004 12000000 		.4byte	.LFE241
 2434 0008 00000000 		.4byte	.LFB242
ARM GAS  /tmp/ccNzjLd8.s 			page 61


 2435 000c 50000000 		.4byte	.LFE242
 2436 0010 00000000 		.4byte	0
 2437 0014 00000000 		.4byte	0
 2438              		.section	.debug_line,"",%progbits
 2439              	.Ldebug_line0:
 2440 0000 8C020000 		.section	.debug_str,"MS",%progbits,1
 2440      02002602 
 2440      00000201 
 2440      FB0E0D00 
 2440      01010101 
 2441              	.LASF49:
 2442 0000 72656164 		.ascii	"ready_list_t\000"
 2442      795F6C69 
 2442      73745F74 
 2442      00
 2443              	.LASF106:
 2444 000d 77747472 		.ascii	"wttrp\000"
 2444      7000
 2445              	.LASF103:
 2446 0013 7264796D 		.ascii	"rdymsg\000"
 2446      736700
 2447              	.LASF16:
 2448 001a 75696E74 		.ascii	"uint64_t\000"
 2448      36345F74 
 2448      00
 2449              	.LASF5:
 2450 0023 5F5F7569 		.ascii	"__uint8_t\000"
 2450      6E74385F 
 2450      7400
 2451              	.LASF97:
 2452 002d 706F7274 		.ascii	"port_intctx\000"
 2452      5F696E74 
 2452      63747800 
 2453              	.LASF68:
 2454 0039 73797374 		.ascii	"system_debug_t\000"
 2454      656D5F64 
 2454      65627567 
 2454      5F7400
 2455              	.LASF120:
 2456 0048 706F7274 		.ascii	"port_lock\000"
 2456      5F6C6F63 
 2456      6B00
 2457              	.LASF12:
 2458 0052 6C6F6E67 		.ascii	"long long unsigned int\000"
 2458      206C6F6E 
 2458      6720756E 
 2458      7369676E 
 2458      65642069 
 2459              	.LASF104:
 2460 0069 65786974 		.ascii	"exitcode\000"
 2460      636F6465 
 2460      00
 2461              	.LASF75:
 2462 0072 6D61696E 		.ascii	"mainthread\000"
 2462      74687265 
 2462      616400
 2463              	.LASF107:
ARM GAS  /tmp/ccNzjLd8.s 			page 62


 2464 007d 73656E74 		.ascii	"sentmsg\000"
 2464      6D736700 
 2465              	.LASF65:
 2466 0085 76697274 		.ascii	"virtual_timers_list_t\000"
 2466      75616C5F 
 2466      74696D65 
 2466      72735F6C 
 2466      6973745F 
 2467              	.LASF78:
 2468 009b 43505549 		.ascii	"CPUID\000"
 2468      4400
 2469              	.LASF48:
 2470 00a1 63685F74 		.ascii	"ch_threads_queue\000"
 2470      68726561 
 2470      64735F71 
 2470      75657565 
 2470      00
 2471              	.LASF29:
 2472 00b2 705F7072 		.ascii	"p_prio\000"
 2472      696F00
 2473              	.LASF90:
 2474 00b9 49534152 		.ascii	"ISAR\000"
 2474      00
 2475              	.LASF10:
 2476 00be 6C6F6E67 		.ascii	"long long int\000"
 2476      206C6F6E 
 2476      6720696E 
 2476      7400
 2477              	.LASF1:
 2478 00cc 7369676E 		.ascii	"signed char\000"
 2478      65642063 
 2478      68617200 
 2479              	.LASF42:
 2480 00d8 705F6D70 		.ascii	"p_mpool\000"
 2480      6F6F6C00 
 2481              	.LASF115:
 2482 00e0 6D5F7175 		.ascii	"m_queue\000"
 2482      65756500 
 2483              	.LASF74:
 2484 00e8 76746C69 		.ascii	"vtlist\000"
 2484      737400
 2485              	.LASF121:
 2486 00ef 706F7274 		.ascii	"port_unlock\000"
 2486      5F756E6C 
 2486      6F636B00 
 2487              	.LASF72:
 2488 00fb 63685F73 		.ascii	"ch_system\000"
 2488      79737465 
 2488      6D00
 2489              	.LASF7:
 2490 0105 6C6F6E67 		.ascii	"long int\000"
 2490      20696E74 
 2490      00
 2491              	.LASF19:
 2492 010e 74737461 		.ascii	"tstate_t\000"
 2492      74655F74 
 2492      00
ARM GAS  /tmp/ccNzjLd8.s 			page 63


 2493              	.LASF138:
 2494 0117 63685363 		.ascii	"chSchIsPreemptionRequired\000"
 2494      68497350 
 2494      7265656D 
 2494      7074696F 
 2494      6E526571 
 2495              	.LASF31:
 2496 0131 705F6E65 		.ascii	"p_newer\000"
 2496      77657200 
 2497              	.LASF112:
 2498 0139 735F7175 		.ascii	"s_queue\000"
 2498      65756500 
 2499              	.LASF87:
 2500 0141 42464152 		.ascii	"BFAR\000"
 2500      00
 2501              	.LASF88:
 2502 0146 41465352 		.ascii	"AFSR\000"
 2502      00
 2503              	.LASF54:
 2504 014b 725F6E65 		.ascii	"r_newer\000"
 2504      77657200 
 2505              	.LASF94:
 2506 0153 72656761 		.ascii	"regarm_t\000"
 2506      726D5F74 
 2506      00
 2507              	.LASF61:
 2508 015c 76745F70 		.ascii	"vt_prev\000"
 2508      72657600 
 2509              	.LASF93:
 2510 0164 5343425F 		.ascii	"SCB_Type\000"
 2510      54797065 
 2510      00
 2511              	.LASF119:
 2512 016d 6D757465 		.ascii	"mutex_t\000"
 2512      785F7400 
 2513              	.LASF124:
 2514 0175 76616C75 		.ascii	"value\000"
 2514      6500
 2515              	.LASF76:
 2516 017b 69646C65 		.ascii	"idle_thread_wa\000"
 2516      5F746872 
 2516      6561645F 
 2516      776100
 2517              	.LASF24:
 2518 018a 636E745F 		.ascii	"cnt_t\000"
 2518      7400
 2519              	.LASF0:
 2520 0190 756E7369 		.ascii	"unsigned int\000"
 2520      676E6564 
 2520      20696E74 
 2520      00
 2521              	.LASF123:
 2522 019d 5F5F7365 		.ascii	"__set_PSP\000"
 2522      745F5053 
 2522      5000
 2523              	.LASF60:
 2524 01a7 76745F6E 		.ascii	"vt_next\000"
ARM GAS  /tmp/ccNzjLd8.s 			page 64


 2524      65787400 
 2525              	.LASF108:
 2526 01af 77747365 		.ascii	"wtsemp\000"
 2526      6D7000
 2527              	.LASF38:
 2528 01b6 705F6D73 		.ascii	"p_msgqueue\000"
 2528      67717565 
 2528      756500
 2529              	.LASF80:
 2530 01c1 56544F52 		.ascii	"VTOR\000"
 2530      00
 2531              	.LASF113:
 2532 01c6 735F636E 		.ascii	"s_cnt\000"
 2532      7400
 2533              	.LASF45:
 2534 01cc 63685F74 		.ascii	"ch_thread\000"
 2534      68726561 
 2534      6400
 2535              	.LASF79:
 2536 01d6 49435352 		.ascii	"ICSR\000"
 2536      00
 2537              	.LASF22:
 2538 01db 6D73675F 		.ascii	"msg_t\000"
 2538      7400
 2539              	.LASF81:
 2540 01e1 41495243 		.ascii	"AIRCR\000"
 2540      5200
 2541              	.LASF85:
 2542 01e7 44465352 		.ascii	"DFSR\000"
 2542      00
 2543              	.LASF86:
 2544 01ec 4D4D4641 		.ascii	"MMFAR\000"
 2544      5200
 2545              	.LASF136:
 2546 01f2 5F706F72 		.ascii	"_port_irq_epilogue\000"
 2546      745F6972 
 2546      715F6570 
 2546      696C6F67 
 2546      756500
 2547              	.LASF18:
 2548 0205 746D6F64 		.ascii	"tmode_t\000"
 2548      655F7400 
 2549              	.LASF50:
 2550 020d 63685F72 		.ascii	"ch_ready_list\000"
 2550      65616479 
 2550      5F6C6973 
 2550      7400
 2551              	.LASF23:
 2552 021b 6576656E 		.ascii	"eventmask_t\000"
 2552      746D6173 
 2552      6B5F7400 
 2553              	.LASF125:
 2554 0227 746F704F 		.ascii	"topOfProcStack\000"
 2554      6650726F 
 2554      63537461 
 2554      636B00
 2555              	.LASF6:
ARM GAS  /tmp/ccNzjLd8.s 			page 65


 2556 0236 5F5F696E 		.ascii	"__int32_t\000"
 2556      7433325F 
 2556      7400
 2557              	.LASF95:
 2558 0240 73746B61 		.ascii	"stkalign_t\000"
 2558      6C69676E 
 2558      5F7400
 2559              	.LASF44:
 2560 024b 74687265 		.ascii	"threads_list_t\000"
 2560      6164735F 
 2560      6C697374 
 2560      5F7400
 2561              	.LASF37:
 2562 025a 705F7761 		.ascii	"p_waiting\000"
 2562      6974696E 
 2562      6700
 2563              	.LASF77:
 2564 0264 73697A65 		.ascii	"sizetype\000"
 2564      74797065 
 2564      00
 2565              	.LASF43:
 2566 026d 74687265 		.ascii	"thread_reference_t\000"
 2566      61645F72 
 2566      65666572 
 2566      656E6365 
 2566      5F7400
 2567              	.LASF66:
 2568 0280 63685F76 		.ascii	"ch_virtual_timers_list\000"
 2568      69727475 
 2568      616C5F74 
 2568      696D6572 
 2568      735F6C69 
 2569              	.LASF83:
 2570 0297 43465352 		.ascii	"CFSR\000"
 2570      00
 2571              	.LASF67:
 2572 029c 76745F6C 		.ascii	"vt_lasttime\000"
 2572      61737474 
 2572      696D6500 
 2573              	.LASF32:
 2574 02a8 705F6F6C 		.ascii	"p_older\000"
 2574      64657200 
 2575              	.LASF53:
 2576 02b0 725F6374 		.ascii	"r_ctx\000"
 2576      7800
 2577              	.LASF98:
 2578 02b6 706F7274 		.ascii	"port_extctx\000"
 2578      5F657874 
 2578      63747800 
 2579              	.LASF102:
 2580 02c2 746D5F63 		.ascii	"tm_calibration_t\000"
 2580      616C6962 
 2580      72617469 
 2580      6F6E5F74 
 2580      00
 2581              	.LASF56:
 2582 02d3 725F6375 		.ascii	"r_current\000"
ARM GAS  /tmp/ccNzjLd8.s 			page 66


 2582      7272656E 
 2582      7400
 2583              	.LASF55:
 2584 02dd 725F6F6C 		.ascii	"r_older\000"
 2584      64657200 
 2585              	.LASF11:
 2586 02e5 5F5F7569 		.ascii	"__uint64_t\000"
 2586      6E743634 
 2586      5F7400
 2587              	.LASF20:
 2588 02f0 74726566 		.ascii	"trefs_t\000"
 2588      735F7400 
 2589              	.LASF91:
 2590 02f8 52455345 		.ascii	"RESERVED0\000"
 2590      52564544 
 2590      3000
 2591              	.LASF129:
 2592 0302 63747870 		.ascii	"ctxp\000"
 2592      00
 2593              	.LASF58:
 2594 0307 76697274 		.ascii	"virtual_timer_t\000"
 2594      75616C5F 
 2594      74696D65 
 2594      725F7400 
 2595              	.LASF28:
 2596 0317 705F7072 		.ascii	"p_prev\000"
 2596      657600
 2597              	.LASF21:
 2598 031e 74707269 		.ascii	"tprio_t\000"
 2598      6F5F7400 
 2599              	.LASF69:
 2600 0326 63685F73 		.ascii	"ch_system_debug\000"
 2600      79737465 
 2600      6D5F6465 
 2600      62756700 
 2601              	.LASF131:
 2602 0336 5F426F6F 		.ascii	"_Bool\000"
 2602      6C00
 2603              	.LASF14:
 2604 033c 696E7433 		.ascii	"int32_t\000"
 2604      325F7400 
 2605              	.LASF2:
 2606 0344 756E7369 		.ascii	"unsigned char\000"
 2606      676E6564 
 2606      20636861 
 2606      7200
 2607              	.LASF82:
 2608 0352 53484353 		.ascii	"SHCSR\000"
 2608      5200
 2609              	.LASF130:
 2610 0358 49544D5F 		.ascii	"ITM_RxBuffer\000"
 2610      52784275 
 2610      66666572 
 2610      00
 2611              	.LASF40:
 2612 0365 705F6D74 		.ascii	"p_mtxlist\000"
 2612      786C6973 
ARM GAS  /tmp/ccNzjLd8.s 			page 67


 2612      7400
 2613              	.LASF3:
 2614 036f 73686F72 		.ascii	"short int\000"
 2614      7420696E 
 2614      7400
 2615              	.LASF34:
 2616 0379 705F7374 		.ascii	"p_state\000"
 2616      61746500 
 2617              	.LASF100:
 2618 0381 78707372 		.ascii	"xpsr\000"
 2618      00
 2619              	.LASF52:
 2620 0386 725F7072 		.ascii	"r_prio\000"
 2620      696F00
 2621              	.LASF110:
 2622 038d 65776D61 		.ascii	"ewmask\000"
 2622      736B00
 2623              	.LASF27:
 2624 0394 705F6E65 		.ascii	"p_next\000"
 2624      787400
 2625              	.LASF35:
 2626 039b 705F666C 		.ascii	"p_flags\000"
 2626      61677300 
 2627              	.LASF4:
 2628 03a3 73686F72 		.ascii	"short unsigned int\000"
 2628      7420756E 
 2628      7369676E 
 2628      65642069 
 2628      6E7400
 2629              	.LASF99:
 2630 03b6 6C725F74 		.ascii	"lr_thd\000"
 2630      686400
 2631              	.LASF137:
 2632 03bd 5356435F 		.ascii	"SVC_Handler\000"
 2632      48616E64 
 2632      6C657200 
 2633              	.LASF59:
 2634 03c9 63685F76 		.ascii	"ch_virtual_timer\000"
 2634      69727475 
 2634      616C5F74 
 2634      696D6572 
 2634      00
 2635              	.LASF111:
 2636 03da 63685F73 		.ascii	"ch_semaphore\000"
 2636      656D6170 
 2636      686F7265 
 2636      00
 2637              	.LASF39:
 2638 03e7 705F6570 		.ascii	"p_epending\000"
 2638      656E6469 
 2638      6E6700
 2639              	.LASF15:
 2640 03f2 75696E74 		.ascii	"uint32_t\000"
 2640      33325F74 
 2640      00
 2641              	.LASF109:
 2642 03fb 77746D74 		.ascii	"wtmtxp\000"
ARM GAS  /tmp/ccNzjLd8.s 			page 68


 2642      787000
 2643              	.LASF51:
 2644 0402 725F7175 		.ascii	"r_queue\000"
 2644      65756500 
 2645              	.LASF62:
 2646 040a 76745F64 		.ascii	"vt_delta\000"
 2646      656C7461 
 2646      00
 2647              	.LASF46:
 2648 0413 63685F74 		.ascii	"ch_threads_list\000"
 2648      68726561 
 2648      64735F6C 
 2648      69737400 
 2649              	.LASF9:
 2650 0423 6C6F6E67 		.ascii	"long unsigned int\000"
 2650      20756E73 
 2650      69676E65 
 2650      6420696E 
 2650      7400
 2651              	.LASF118:
 2652 0435 63686172 		.ascii	"char\000"
 2652      00
 2653              	.LASF126:
 2654 043a 706F7274 		.ascii	"port_unlock_from_isr\000"
 2654      5F756E6C 
 2654      6F636B5F 
 2654      66726F6D 
 2654      5F697372 
 2655              	.LASF133:
 2656 044f 2E2E2F43 		.ascii	"../ChibiOS/os/rt/ports/ARMCMx/chcore_v7m.c\000"
 2656      68696269 
 2656      4F532F6F 
 2656      732F7274 
 2656      2F706F72 
 2657              	.LASF117:
 2658 047a 6D5F6E65 		.ascii	"m_next\000"
 2658      787400
 2659              	.LASF25:
 2660 0481 73797374 		.ascii	"systime_t\000"
 2660      696D655F 
 2660      7400
 2661              	.LASF41:
 2662 048b 705F7265 		.ascii	"p_realprio\000"
 2662      616C7072 
 2662      696F00
 2663              	.LASF57:
 2664 0496 76746675 		.ascii	"vtfunc_t\000"
 2664      6E635F74 
 2664      00
 2665              	.LASF8:
 2666 049f 5F5F7569 		.ascii	"__uint32_t\000"
 2666      6E743332 
 2666      5F7400
 2667              	.LASF122:
 2668 04aa 5F5F7365 		.ascii	"__set_BASEPRI\000"
 2668      745F4241 
 2668      53455052 
ARM GAS  /tmp/ccNzjLd8.s 			page 69


 2668      4900
 2669              	.LASF70:
 2670 04b8 70616E69 		.ascii	"panic_msg\000"
 2670      635F6D73 
 2670      6700
 2671              	.LASF101:
 2672 04c2 6F666673 		.ascii	"offset\000"
 2672      657400
 2673              	.LASF96:
 2674 04c9 636F6E74 		.ascii	"context\000"
 2674      65787400 
 2675              	.LASF71:
 2676 04d1 63685F73 		.ascii	"ch_system_t\000"
 2676      79737465 
 2676      6D5F7400 
 2677              	.LASF17:
 2678 04dd 7274636E 		.ascii	"rtcnt_t\000"
 2678      745F7400 
 2679              	.LASF127:
 2680 04e5 706F7274 		.ascii	"port_lock_from_isr\000"
 2680      5F6C6F63 
 2680      6B5F6672 
 2680      6F6D5F69 
 2680      737200
 2681              	.LASF135:
 2682 04f8 5F5F6765 		.ascii	"__get_PSP\000"
 2682      745F5053 
 2682      5000
 2683              	.LASF64:
 2684 0502 76745F70 		.ascii	"vt_par\000"
 2684      617200
 2685              	.LASF134:
 2686 0509 2F6E6673 		.ascii	"/nfs/nfs4/home/galexeev/classes/P442WifiTrailCounte"
 2686      2F6E6673 
 2686      342F686F 
 2686      6D652F67 
 2686      616C6578 
 2687 053c 7250726F 		.ascii	"rProject/milestone1\000"
 2687      6A656374 
 2687      2F6D696C 
 2687      6573746F 
 2687      6E653100 
 2688              	.LASF47:
 2689 0550 74687265 		.ascii	"threads_queue_t\000"
 2689      6164735F 
 2689      71756575 
 2689      655F7400 
 2690              	.LASF114:
 2691 0560 63685F6D 		.ascii	"ch_mutex\000"
 2691      75746578 
 2691      00
 2692              	.LASF36:
 2693 0569 705F7265 		.ascii	"p_refs\000"
 2693      667300
 2694              	.LASF26:
 2695 0570 74687265 		.ascii	"thread_t\000"
 2695      61645F74 
ARM GAS  /tmp/ccNzjLd8.s 			page 70


 2695      00
 2696              	.LASF89:
 2697 0579 4D4D4652 		.ascii	"MMFR\000"
 2697      00
 2698              	.LASF73:
 2699 057e 726C6973 		.ascii	"rlist\000"
 2699      7400
 2700              	.LASF13:
 2701 0584 75696E74 		.ascii	"uint8_t\000"
 2701      385F7400 
 2702              	.LASF132:
 2703 058c 474E5520 		.ascii	"GNU C 4.8.4 20140526 (release) [ARM/embedded-4_8-br"
 2703      4320342E 
 2703      382E3420 
 2703      32303134 
 2703      30353236 
 2704 05bf 616E6368 		.ascii	"anch revision 211358] -mcpu=cortex-m4 -mno-thumb-in"
 2704      20726576 
 2704      6973696F 
 2704      6E203231 
 2704      31333538 
 2705 05f2 74657277 		.ascii	"terwork -mthumb -ggdb -O2 -fomit-frame-pointer -fal"
 2705      6F726B20 
 2705      2D6D7468 
 2705      756D6220 
 2705      2D676764 
 2706 0625 69676E2D 		.ascii	"ign-functions=16 -ffunction-sections -fdata-section"
 2706      66756E63 
 2706      74696F6E 
 2706      733D3136 
 2706      202D6666 
 2707 0658 73202D66 		.ascii	"s -fno-common -flto\000"
 2707      6E6F2D63 
 2707      6F6D6D6F 
 2707      6E202D66 
 2707      6C746F00 
 2708              	.LASF105:
 2709 066c 77746F62 		.ascii	"wtobjp\000"
 2709      6A7000
 2710              	.LASF33:
 2711 0673 705F6E61 		.ascii	"p_name\000"
 2711      6D6500
 2712              	.LASF92:
 2713 067a 43504143 		.ascii	"CPACR\000"
 2713      5200
 2714              	.LASF84:
 2715 0680 48465352 		.ascii	"HFSR\000"
 2715      00
 2716              	.LASF116:
 2717 0685 6D5F6F77 		.ascii	"m_owner\000"
 2717      6E657200 
 2718              	.LASF128:
 2719 068d 72657375 		.ascii	"result\000"
 2719      6C7400
 2720              	.LASF30:
 2721 0694 705F6374 		.ascii	"p_ctx\000"
 2721      7800
ARM GAS  /tmp/ccNzjLd8.s 			page 71


 2722              	.LASF63:
 2723 069a 76745F66 		.ascii	"vt_func\000"
 2723      756E6300 
 2724              		.comm	__gnu_lto_v1,1,1
 2725              		.ident	"GCC: (GNU Tools for ARM Embedded Processors) 4.8.4 20140526 (release) [ARM/embedded-4_8-br
ARM GAS  /tmp/ccNzjLd8.s 			page 72


DEFINED SYMBOLS
                            *ABS*:00000000 chcore_v7m.c
     /tmp/ccNzjLd8.s:306    .text.SVC_Handler:00000000 $t
     /tmp/ccNzjLd8.s:312    .text.SVC_Handler:00000000 SVC_Handler
     /tmp/ccNzjLd8.s:366    .text._port_irq_epilogue:00000000 $t
     /tmp/ccNzjLd8.s:372    .text._port_irq_epilogue:00000000 _port_irq_epilogue
     /tmp/ccNzjLd8.s:467    .text._port_irq_epilogue:00000044 $d
                            *COM*:00000001 __gnu_lto_v1
                     .debug_frame:00000010 $d

UNDEFINED SYMBOLS
chSchIsPreemptionRequired
_port_switch_from_isr
_port_exit_from_isr
