ARM GAS  /tmp/ccoJMWJm.s 			page 1


   1              		.syntax unified
   2              		.cpu cortex-m4
   3              		.fpu softvfp
   4              		.eabi_attribute 20, 1
   5              		.eabi_attribute 21, 1
   6              		.eabi_attribute 23, 3
   7              		.eabi_attribute 24, 1
   8              		.eabi_attribute 25, 1
   9              		.eabi_attribute 26, 1
  10              		.eabi_attribute 30, 2
  11              		.eabi_attribute 34, 1
  12              		.eabi_attribute 18, 4
  13              		.thumb
  14              		.file	"chdynamic.c"
  15              		.text
  16              	.Ltext0:
  17              		.section	.gnu.lto_.jmpfuncs.183f89403f5c7557,"",%progbits
  18 0000 789C758C 		.ascii	"x\234u\214\313\015\2000\014\305\342\327rf\204\256\305"
  18      CB0D8030 
  18      0CC5E2D7 
  18      726684AE 
  18      C5
  19 0011 0A2CD059 		.ascii	"\012,\320Y\030\2211x\375 \201\004\2718\211,+\024_sL"
  19      18913178 
  19      FD208104 
  19      B938892C 
  19      2B145F73 
  20 0026 2E8185E4 		.ascii	".\201\205\344\255F\200\300\360\243\310\327\311\306\216"
  20      AD4680C0 
  20      F0A3C8D7 
  20      C9C68E
  21 0035 6F35D2F5 		.ascii	"o5\322\365\346R;4\220\006\262\241\036\342v\362\372\250"
  21      E6523B34 
  21      9006B2A1 
  21      1EE276F2 
  21      FAA8
  22 0047 E855F9E9 		.ascii	"\350U\371\3510\003q\001h\027\013#"
  22      30037101 
  22      68170B23 
  23              		.text
  24              		.section	.gnu.lto_.inline.183f89403f5c7557,"",%progbits
  25 0000 789C6362 		.ascii	"x\234cb`b\300\006\336BiV\006\006\036\021Ff\006F\006"
  25      6062C006 
  25      DE426956 
  25      06061E11 
  25      46660646 
  26 0015 06E6058C 		.ascii	"\006\346\005\214`\252\001B=`\346`\355Pg`\357Pgb`|\301"
  26      60AA0142 
  26      3D60E660 
  26      ED506760 
  26      EF506762 
  27 002c CE022141 		.ascii	"\316\002!A\004\007\230\311\001\"\004\300L\001\220I\314"
  27      040798C9 
  27      012204C0 
  27      4C019049 
  27      CC
  28 003d 3C0C0C4C 		.ascii	"<\014\014L\023\374&\37012p\260320q\034\260c\340\370"
ARM GAS  /tmp/ccoJMWJm.s 			page 2


  28      13FC26F8 
  28      313270B0 
  28      33323071 
  28      1CB063E0 
  29 0052 A007B69E 		.ascii	"\240\007\266\236\211A\216\017(\244\276\242\215\221\201"
  29      89418E0F 
  29      28A4BEA2 
  29      8D9181
  30 0061 778E3944 		.ascii	"w\2169D\214\233\201\201q\202\037\224bf\020\323\007\252"
  30      8C9B8181 
  30      71821F94 
  30      626610D3 
  30      07AA
  31 0073 E0FAE3CD 		.ascii	"\340\372\343\315\300\266@\236\011\311@\006\220\361\254"
  31      C0B6409E 
  31      09C94006 
  31      90F1AC
  32 0082 20832190 		.ascii	" \203!\220\205\027j\017\013\2038H\013\357\252$\006\366"
  32      85176A0F 
  32      0B833848 
  32      0BEFAA24 
  32      06F6
  33 0094 5B6AF8B4 		.ascii	"[j\370\264\200\204\201v0\000\000\337}%\036"
  33      80848176 
  33      300000DF 
  33      7D251E
  34              		.text
  35              		.section	.gnu.lto_.pureconst.183f89403f5c7557,"",%progbits
  36 0000 789C6362 		.ascii	"x\234cb`b\340f\200\000V\006)F+&+f+\026+\000\006)\001"
  36      6062E066 
  36      80005606 
  36      29462B26 
  36      2B662B16 
  37 0019 21       		.ascii	"!"
  38              		.text
  39              		.section	.gnu.lto_chThdRelease.part.0.183f89403f5c7557,"",%progbits
  40 0000 789CAD92 		.ascii	"x\234\255\222\277J\003A\020\306\347\333\335\323`\345"
  40      BF4A0341 
  40      10C6E7DB 
  40      DDD360E5 
  41 0010 2368B450 		.ascii	"#h\264P\003\271\326^\020\254,L@\355\222\215^\266\210"
  41      03B9D65E 
  41      10AC2C4C 
  41      40ED928D 
  41      5EB688
  42 0023 42622316 		.ascii	"Bb#\026\331\023\003\226\301F\321\306\340\003\370\012"
  42      D9130396 
  42      C146D1C6 
  42      E003F80A 
  43 0033 E945C52E 		.ascii	"\351E\305.X\335\033Xk\204s\366\216\213\177\202\330\270"
  43      58DD1B58 
  43      6B8473F6 
  43      8E8B7F82 
  43      D8B8
  44 0045 70333BC3 		.ascii	"p3;\303\374\346\233\335[A\202~\256\002\177\253\234^"
  44      FCE69BDD 
  44      5B41827E 
ARM GAS  /tmp/ccoJMWJm.s 			page 3


  44      AE027FAB 
  44      9C5E
  45 0057 600F8FA0 		.ascii	"`\017\217\240\272\017\274Q\020\211\027\220\316\2079"
  45      BA0FBC51 
  45      10891790 
  45      CE8739
  46 0066 09B80D81 		.ascii	"\011\270\015\201\332JH\264\267\340`\321\000\345\251"
  46      DA4A48B4 
  46      B7E060D1 
  46      00E5A9
  47 0075 67ED59D4 		.ascii	"g\355Y\324y\031\340\334\366\303k\373\036\307\200\001"
  47      7919E0DC 
  47      F6C36BFB 
  47      1EC78001 
  48 0085 6BCD8334 		.ascii	"k\315\2034h\223\003\344\022'\360]\374V\330(\216_\343"
  48      689303E4 
  48      1227F05D 
  48      FC56D828 
  48      8E5FE3
  49 0098 DC14D000 		.ascii	"\334\024\320\000\004\031H\351\214r\306c\243\270\312"
  49      041948E9 
  49      8C72C663 
  49      A3B8CA
  50 00a7 A3136BBB 		.ascii	"\243\023k\2733\025\364\220\347P'MJl\335D%.a/\313L;\177"
  50      3315F490 
  50      E750274D 
  50      4A6CDD44 
  50      252E612F 
  51 00bf C7C35670 		.ascii	"\307\303Vp\303G\251q\206\356\351\370\371b\270\234f\002"
  51      C347A971 
  51      86EEE9F8 
  51      F962B89C 
  51      6602
  52 00d1 88022D71 		.ascii	"\210\002-q\347+\272\014\255\2356\360\002\300\015&\223"
  52      E72BBA0C 
  52      AD9D36F0 
  52      02C00D26 
  52      93
  53 00e2 71AAA3F1 		.ascii	"q\252\243\361\030\333\316\030\371\007\203Of-e\306\001"
  53      18DBCE18 
  53      F907834F 
  53      662D65C6 
  53      01
  54 00f3 310E042E 		.ascii	"1\016\004.\376\252\243\376AG\215\037&\310\256a0\214"
  54      FEAAA3FE 
  54      41478D1F 
  54      26C8AE61 
  54      308C
  55 0105 44A6E525 		.ascii	"D\246\345%\250\372U+{'\217\324\351/\246\020\321\021"
  55      A8FA552B 
  55      7B278FD4 
  55      E92FA610 
  55      D111
  56 0117 BDD95357 		.ascii	"\275\331SW=\241Ggp\240\301dZ]f>\373\007\304\367\317"
  56      3DA14767 
  56      70A0C164 
  56      5A5D663E 
ARM GAS  /tmp/ccoJMWJm.s 			page 4


  56      FB07C4F7 
  57 012c DD9E288C 		.ascii	"\335\236(\214\342\271\254C\272JLs\231\323\230-\026\375"
  57      E2B9AC43 
  57      BA4A4C73 
  57      99D3982D 
  57      16FD
  58 013e 95BAA99A 		.ascii	"\225\272\251\232\365\015\177\277\3457\017\374VS\373"
  58      F50D7FBF 
  58      E5370FFC 
  58      5653FB
  59 014d BA5E3BDC 		.ascii	"\272^;\334\2534\214.jR\315\235\335\326\007z]\203O"
  59      AB348C2E 
  59      6A52CD9D 
  59      DDD6077A 
  59      5D834F
  60              		.text
  61              		.section	.gnu.lto_chThdAddRef.183f89403f5c7557,"",%progbits
  62 0000 789C8552 		.ascii	"x\234\205RMh\023A\024~o&\333\006s\351U\220\260\026\004"
  62      4D681341 
  62      147E6F26 
  62      DB0673E9 
  62      5590B016 
  63 0015 3165D79B 		.ascii	"1e\327\233W% \364\020\224\246\202\236d3]\222\201nRv"
  63      572520F4 
  63      1094A682 
  63      9E64335D 
  63      92816E52 
  64 002a 93D09CBA 		.ascii	"\223\320\234\272MzP\360P\304Cb\021\214\202\342\017\025"
  64      4D7A50F0 
  64      50C44362 
  64      118C82E2 
  64      0F15
  65 003c E941C122 		.ascii	"\351A\301\"\241\007\245\320\026\274\366\024/^<y\225"
  65      A107A5D0 
  65      16BCF614 
  65      2F5E3C79 
  65      95
  66 004d 427CB3DB 		.ascii	"B|\263\333]\335\024\354\300\314\274y\363}\357}\3631"
  66      5DDD14EC 
  66      C0CCBC79 
  66      F37DEF7D 
  66      F331
  67 005f 0C188C8F 		.ascii	"\014\030\214\217\2634\337Pz\207v\344\200l\375\000`5"
  67      B334DF50 
  67      7A8776E4 
  67      806CFD00 
  67      6035
  68 0071 CD105500 		.ascii	"\315\020U\000\010+\014W\356`\200}\307\006\303\321h\263"
  68      082B0C57 
  68      EE60807D 
  68      C706C3D1 
  68      68B3
  69 0083 FBE5C51E 		.ascii	"\373\345\305\036\366\330\031\216\016B\012$\202\246\026"
  69      F6D8198E 
  69      0E420A24 
  69      82A616
  70 0092 1A1AACF9 		.ascii	"\032\032\254\371\376\272\356 \235D\220\231\247U\025"
ARM GAS  /tmp/ccoJMWJm.s 			page 5


  70      FEBAEE20 
  70      9D449099 
  70      A75515
  71 00a1 BA854CED 		.ascii	"\272\205L\355|\027\332i\200i\350\373\376\303a\357\373"
  71      7C17DA69 
  71      8069E8FB 
  71      FEC361EF 
  71      FB
  72 00b2 F64CCF1F 		.ascii	"\366L\317\037\254=\365\217F#D\211\004\272\211\212y\233"
  72      AC3DF58F 
  72      46234489 
  72      04BA898A 
  72      799B
  73 00c4 0E4C0F36 		.ascii	"\016L\0176\236J\012V9\324)8\200\366\257\315\316\326"
  73      9E4A0A56 
  73      39D42938 
  73      80F6AFCD 
  73      CED6
  74 00d6 037EDC35 		.ascii	"\003~\3345j?\330\332\371=\305,|\206\323\261\244\301"
  74      6A3FD8DA 
  74      F93DC52C 
  74      7C86D3B1 
  74      A4C1
  75 00e8 8747DB99 		.ascii	"\207G\333\231s\361\351\376W\222ea\0375j\246\0322\232"
  75      73F1E9FE 
  75      57926561 
  75      1F356AA6 
  75      1A329A
  76 00fb 1C82F722 		.ascii	"\034\202\367\"\274\244\220\034\341\241[Y\370\210O\374"
  76      BCA4901C 
  76      E1A15B59 
  76      F8884FFC 
  77 010b EE5589A9 		.ascii	"\356U\211\251D\373\277\367\237\216\357\265P\340>\264"
  77      44FBBFF7 
  77      9F8EEFB5 
  77      50E03EB4 
  78 011b 0FBB3F2E 		.ascii	"\017\273?.\206\345\313\230\312\301%\211\023\033\360"
  78      86E5CB98 
  78      CAC12589 
  78      131BF0
  79 012a 98989365 		.ascii	"\230\230\223e\344\252B:@\2260z\324>t\356u\232\021E#"
  79      E4AA423A 
  79      4096307A 
  79      D43E74EE 
  79      759A1145 
  80 013f 96424D60 		.ascii	"\226BM`Xn6\274\310\301k\237F\346\224je%$\351s\377\363"
  80      586E36BC 
  80      C8C16B9F 
  80      46E6946A 
  80      652524E9 
  81 0156 98CF163E 		.ascii	"\230\317\026>\017\336|\252\321\360_\243\017\217\224"
  81      0FDE7CAA 
  81      D1F05FA3 
  81      0F8F94
  82 0165 D1EF9346 		.ascii	"\321\357\223F\377\314d\343\237\020\247w\367\376q<h$"
  82      FFCC64E3 
  82      9F10A777 
ARM GAS  /tmp/ccoJMWJm.s 			page 6


  82      F7FE713C 
  82      6824
  83 0177 8270DC74 		.ascii	"\202p\334t\013_Q\020\267\216L\266\360-fCY\337`u\270"
  83      0B5F5110 
  83      B78E4CB6 
  83      F02D6643 
  83      59DF6075 
  84 018c 2122AB78 		.ascii	"!\"\253x\230\234'8}/\205=o\030f\276\"K\362F\321\254"
  84      989C2738 
  84      7D2F853D 
  84      6F1866BE 
  84      224BF246 
  85 01a2 79A65B37 		.ascii	"y\246[7=W\230\242\262\320\252Z\216\024\206\200\334\011"
  85      3D5798A2 
  85      B2D0AA5A 
  85      8E148680 
  85      DC09
  86 01b4 C452CDAD 		.ascii	"\304R\315\255{\346\265\271B\276\260LPQs\355\273\315"
  86      7BE6B5B9 
  86      42BEB04C 
  86      505173ED 
  86      BBCD
  87 01c6 2B8E5101 		.ascii	"+\216Q\001\255i-6l#\311\260\227\353f\276P\234-\232\262"
  87      AD692D36 
  87      6C23C9B0 
  87      97EB66BE 
  87      509C2D9A 
  88 01db 2A161B0B 		.ascii	"*\026\033\013\266\0310\204s\275Q\025D:)!\306U\274\226"
  88      B6193084 
  88      73BD5115 
  88      443A2921 
  88      C655BC96 
  89 01ef 4788A942 		.ascii	"G\210\251BqN/Y\236\275\344\312\031\375\302e`.L:\266"
  89      714E2F59 
  89      9EBDE4CA 
  89      19FDC265 
  89      602E4C3A 
  90 0204 53735BF0 		.ascii	"Ss[\360\007\373\216\326\303"
  90      07FB8ED6 
  90      C3
  91              		.text
  92              		.section	.gnu.lto_chThdRelease.183f89403f5c7557,"",%progbits
  93 0000 789CA554 		.ascii	"x\234\245TMh\023A\024~of7\273M\254\026Q\004\321\022"
  93      4D681341 
  93      147E6F66 
  93      37BB4DAC 
  93      165104D1 
  94 0015 FF40AC64 		.ascii	"\377@\254d\275\351Q)\010\036\212`\025\324\213l\267\261"
  94      BDE95129 
  94      081E8A60 
  94      15D48B6C 
  94      B7B1
  95 0027 5D30AD24 		.ascii	"]0\255$m\261xp\322DTP(\342\241*\242\365\347\242\242"
  95      6DB17870 
  95      D2445450 
  95      28E2A12A 
  95      A2F5E7A2 
ARM GAS  /tmp/ccoJMWJm.s 			page 7


  96 003c 877AB34A 		.ascii	"\207z\263J\024\251\377U\241'\017\032\021\365\340I\017"
  96      14A9FF55 
  96      A1270F1A 
  96      11F5E049 
  96      0F
  97 004d FE518C6F 		.ascii	"\376Q\214of\262\333nS\364\340@\336\374\274\367}\357"
  97      66B2DB6E 
  97      53F4E040 
  97      DEFCBCF7 
  97      7DEF
  98 005f CDFB36C3 		.ascii	"\315\3736\303\200\301\314\261\207~\357M\200\2074\243"
  98      80C1CCB1 
  98      877EEF4D 
  98      808734A3 
  99 006f 0DC806C7 		.ascii	"\015\310\006\307\001\3626c|\302\001\021\267F\033A\314"
  99      01F23663 
  99      7CC20111 
  99      B7461B41 
  99      CC
 100 0080 E1CC185B 		.ascii	"\341\314\030[*wO\326\321\316\340\326\341\305 lS\331"
 100      2A774FD6 
 100      D1CEE0D6 
 100      E1C5206C 
 100      53D9
 101 0092 985EA3A5 		.ascii	"\230^\243\245\2011\275@\013Q\316\200p\210q\303\214Y"
 101      8131BD40 
 101      0B51CE80 
 101      708871C3 
 101      8C59
 102 00a4 786817AA 		.ascii	"xh\027\252\2147Y\251\\\251\334\3706vy\022\317\263\205"
 102      8C3759A9 
 102      5CA9DCF8 
 102      36767912 
 102      CFB385
 103 00b7 1C330806 		.ascii	"\0343\010\006\370\010\2464\2664u\322\304\311`B\232z"
 103      F808A634 
 103      B63475D2 
 103      C4C96042 
 103      9A7A
 104 00c9 6916C833 		.ascii	"i\026\3103\032&\024\205\030L.\207a!N\226~\216\235X$"
 104      1A261485 
 104      184C2E87 
 104      61214E96 
 104      7E8E9D58 
 105 00de CA6250FC 		.ascii	"\312bP\374\256T\320G\306`%\202\207\260\2236\334V\223"
 105      AE54D047 
 105      C6602582 
 105      87B09336 
 105      DC5693
 106 00f1 81D11B67 		.ascii	"\201\321\033g\220\016<u\270\235\254\254r\00729\363\307"
 106      900E3C75 
 106      B89DACAC 
 106      72073239 
 106      F3C7
 107 0103 30600368 		.ascii	"0`\003h\352\362\310\273\321\265\247E\251xAL\0227\021"
 107      EAF2C8BB 
 107      D1B5A745 
ARM GAS  /tmp/ccoJMWJm.s 			page 8


 107      A978414C 
 107      123711
 108 0116 998C0243 		.ascii	"\231\214\002C\362\244&7\242\344\362\314L\322b\034\006"
 108      F2A42637 
 108      A2E4F2CC 
 108      4CD2621C 
 108      06
 109 0127 BEDC2E8C 		.ascii	"\276\334.\214\034\347\325z\203\302K\237\356\377j`.^"
 109      1CE7D57A 
 109      83C24B9F 
 109      EEFF6A60 
 109      2E5E
 110 0139 C6E5E165 		.ascii	"\306\345\341eJ\237O\215&\226\204\273co\251,\027\207"
 110      4A9F4F8D 
 110      269684BB 
 110      636FA92C 
 110      1787
 111 014b D1A46432 		.ascii	"\321\244d2!\243\037\007\325L\204\353\264$\031\271\326"
 111      21A31F07 
 111      D54C84EB 
 111      B42419B9 
 111      D6
 112 015c B211EEE0 		.ascii	"\262\021\356\34091\264\321\307X$\375\224\277T\365[\272"
 112      3931B4D1 
 112      C75824FD 
 112      94BF54F5 
 112      5BBA
 113 016e C0E730F0 		.ascii	"\300\3470\360z\350\353jM\337\201F\023\254\241\266\235"
 113      7AE8EB6A 
 113      4DDF8146 
 113      13ACA1B6 
 113      9D
 114 017f 853384B4 		.ascii	"\2053\204\264;\220K\006\335\260\266\260o\317\241p\264"
 114      3B904B06 
 114      DDB0B6B0 
 114      6FCFA170 
 114      B4
 115 0190 D017404C 		.ascii	"\320\027@LB\311(VA\315\267E{\232\340\252\240\221\370"
 115      42C92856 
 115      41CDB745 
 115      7B9AE0AA 
 115      A091F8
 116 01a3 071D1100 		.ascii	"\007\035\021\000P\243\313\217\0131\015t\361\"5#8\237"
 116      50A3CB8F 
 116      0B310D74 
 116      F1223523 
 116      389F
 117 01b5 26C0F0DD 		.ascii	"&\300\360\335\031\002\270xE5\343\237\012\300_\025x="
 117      1902B878 
 117      4535E39F 
 117      0AC05F15 
 117      783D
 118 01c7 29151889 		.ascii	")\025\030\211*\3609\321\030~\\SR|\230&\205J\344\251"
 118      2AF039D1 
 118      187E5C53 
 118      527C9826 
 118      854AE4A9 
ARM GAS  /tmp/ccoJMWJm.s 			page 9


 119 01db E54C355C 		.ascii	"\345L5\\\274F\2130u\320}\027o`\243.\353\021<\370t\357"
 119      BC468B30 
 119      75D07D17 
 119      6F60A32E 
 119      EB113CF8 
 120 01f1 FC111E76 		.ascii	"\374\021\036vQ\006G\012\337A\014\023\016\227\002\275"
 120      5106470A 
 120      DF410C13 
 120      0E9702BD 
 121 0201 9C1F84D9 		.ascii	"\234\037\204\331J\237\272\331\033\032\340%w\276?\204"
 121      4A9FBAD9 
 121      1B1AE025 
 121      77BE3F84 
 122 0211 28E67911 		.ascii	"(\346y\021f\003\012\363\025\363\320\267\037\030\004"
 122      66030AF3 
 122      15F3D0B7 
 122      1F1804
 123 0220 D629EEF8 		.ascii	"\326)\356\370\354\334\301KA\332\337.|\0141\013\010\246"
 123      ECDCC14B 
 123      41DADF2E 
 123      7C0C310B 
 123      08A6
 124 0232 F865079E 		.ascii	"\370e\007\236A\261d\206\236\023p<_\024\245\257\226O"
 124      41B16486 
 124      9E13703C 
 124      5F14A5AF 
 124      964F
 125 0244 FF5A1AED 		.ascii	"\377Z\032\355U\216\352\371-y\256\240\250\234|\272s\""
 125      558EEAF9 
 125      2D79AEA0 
 125      A89C7CBA 
 125      7322
 126 0256 7432E534 		.ascii	"t2\3454\"\325\233\220\217\361\247\364\270\350\\\012"
 126      22D59B90 
 126      8FF1A7F4 
 126      B8E85C0A 
 127 0266 AB2EF37D 		.ascii	"\253.\363}C\220=\256\356\202\263\337\205\207w\031\330"
 127      43903DAE 
 127      EE82B3DF 
 127      85877719 
 127      D8
 128 0277 1D00127F 		.ascii	"\035\000\022\177\003\030S\200\360\343\216D\307k\243"
 128      03185380 
 128      F0E38E44 
 128      C76BA3
 129 0286 3BE4ADA7 		.ascii	";\344\255\247g\250\377\257\014\365\265\027\240\264\000"
 129      67A8FFAF 
 129      0CF5B517 
 129      A0B400
 130 0295 2FA0587E 		.ascii	"/\240X~s)\2561\000\007\341\2278*\032|\234\343\351\027"
 130      7329AE31 
 130      0007E197 
 130      382A1A7C 
 130      9CE3E917 
 131 02a9 80A2B84F 		.ascii	"\200\242\270O/f\265u\261\231\2553\024\205]\203\237\353"
 131      2F66B575 
 131      B199AD33 
ARM GAS  /tmp/ccoJMWJm.s 			page 10


 131      14855D83 
 131      9FEB
 132 02bb 555F0885 		.ascii	"U_\010\205\237\027\340-\365.J\202\252\240\257 _\256"
 132      9F17E02D 
 132      F52E4A82 
 132      AAA0AF20 
 132      5FAE
 133 02cd AC08E07A 		.ascii	"\254\010\340zl\247B)LJ\267,\225r\232;\3756\177k\253"
 133      6CA74229 
 133      4C4AB72C 
 133      95729A3B 
 133      FD367F6B 
 134 02e2 D39D73B2 		.ascii	"\323\235s\262=N.\3539^g{\177\227\233\361\275\224\007"
 134      3D4E2EEB 
 134      395E677B 
 134      7F979BF1 
 134      BD9407
 135 02f5 4636BD37 		.ascii	"F6\2757\327T\023\266\277;\333\223s6mkin9@\361^w6\275"
 135      D75413B6 
 135      BF3BDB93 
 135      73366D6B 
 135      696E3940 
 136 030e A76F7D26 		.ascii	"\247o}&\325\011f\237\273\2577\235\212\"\322\007z\234"
 136      D509669F 
 136      BBAF379D 
 136      8A22D207 
 136      7A9C
 137 0320 E696D62D 		.ascii	"\346\226\326-\255\216\337\345\355\353mO;\012\341e6\367"
 137      AD8EDFE5 
 137      EDEB6D4F 
 137      3B0AE165 
 137      36F7
 138 0332 767904AA 		.ascii	"vy\004\252\255#\214\353\314\365\347(\242\241\245u[\262"
 138      AD238CEB 
 138      CCF5E728 
 138      A2A1A575 
 138      5BB2
 139 0344 CDCDA5F7 		.ascii	"\315\315\245\367g\375\265\311U\353\200e\301\312\244"
 139      67FDB5C9 
 139      55EB8065 
 139      C1CAA4
 140 0353 33DDD97E 		.ascii	"3\335\331~\370\003\223\262|\370"
 140      F80393B2 
 140      7CF8
 141              		.text
 142              		.section	.gnu.lto_chThdCreateFromHeap.183f89403f5c7557,"",%progbits
 143 0000 789C8553 		.ascii	"x\234\205S_H\223Q\024?\347~\337\234n\256\006\365P\020"
 143      5F489351 
 143      143FE77E 
 143      DF9C6EAE 
 143      06F55010 
 144 0014 B2A42050 		.ascii	"\262\244 P\366\005=\364Z\010A\017#pI\365\024\237\327"
 144      F6053DF4 
 144      5A08410F 
 144      237049F5 
 144      149FD7
 145 0027 B17DE0DC 		.ascii	"\261}\340\334\3307M\351\301\333R\210\220\220\350\301"
ARM GAS  /tmp/ccoJMWJm.s 			page 11


 145      D8374DE9 
 145      C1DB5288 
 145      9090E8C1 
 146 0037 CA409128 		.ascii	"\312@\221(\"\254\010\322\007\255%\025MJ\351I*\212\365"
 146      22AC08D2 
 146      07AD2515 
 146      4D4AE949 
 146      2A8AF5
 147 004a 203D4448 		.ascii	" =DH\364\020\211\265\316\275\33767\205\274c\367\317"
 147      F41089B5 
 147      CEBDDF36 
 147      3785BC63 
 147      F7CF
 148 005c B9E79CFB 		.ascii	"\271\347\234\373;\277\337\371\0300\3308\016\321\237"
 148      3BBFDFF9 
 148      1830D838 
 148      0ED19F
 149 006b E900395A 		.ascii	"\351\0009Z\321\005\310\206\027\000.\3242\246\317k <"
 149      D105C886 
 149      17002ED4 
 149      32A6CF6B 
 149      203C
 150 007d DAAB7900 		.ascii	"\332\253y\000Q\257\241\356\330uD\271\001\204~\246\351"
 150      51AFA1EE 
 150      D87544B9 
 150      01847EA6 
 150      E9
 151 008e D87F0665 		.ascii	"\330\177\006e\022\326\010\343B\\\315\277\234\314\341"
 151      12D608E3 
 151      425CCDBF 
 151      9CCCE1
 152 009d 75911D18 		.ascii	"u\221\035\030\023k\205\002\242\205\364\340>\004\216"
 152      136B8502 
 152      A285F4E0 
 152      3E048E
 153 00ac 709A0E18 		.ascii	"p\232\016\030P\213|\255r8\261\331_\363Wv\213\261\314"
 153      508B7CAD 
 153      7238B1D9 
 153      5FF35776 
 153      8BB1CC
 154 00bf B0F84BA1 		.ascii	"\260\370K\241\026j\014\016l\025\371\200e\363\205\302"
 154      166A0C0E 
 154      6C15F980 
 154      65F385C2 
 155 00cf E8D2C3A1 		.ascii	"\350\322\303\241\3738\311v P\230\216q\004\027M\350\006"
 155      FB38C976 
 155      2050988E 
 155      7104174D 
 155      E806
 156 00e1 13C7B111 		.ascii	"\023\307\261\021\352\350\300<4i^\232t\037\231'\310L"
 156      EAE8C03C 
 156      34695E9A 
 156      741F9927 
 156      C84C
 157 00f3 C3050342 		.ascii	"\303\005\003B\014\007\034\267\222\225\253\212N\322,"
 157      0C071CB7 
 157      9295AB8A 
ARM GAS  /tmp/ccoJMWJm.s 			page 12


 157      4ED22C
 158 0102 0B6D4326 		.ascii	"\013mC&Wm\021\006\363\263\313h\342m\")\212\356\363\260"
 158      576D1106 
 158      F3B3CB68 
 158      E26D2229 
 158      8AEEF3B0 
 159 0116 2A2E09BF 		.ascii	"*.\011\277\205:G\025@F=\212.\213\256\211K\3468:\231"
 159      853A4715 
 159      40463D8A 
 159      2E8BAE89 
 159      4BE6383A 
 160 012b C91DE035 		.ascii	"\311\035\3405\274\370\372\374\317e\255\234A\026TUM\033"
 160      BCF8FAFC 
 160      CF65AD9C 
 160      41165455 
 160      4D1B
 161 013d 6A406C6B 		.ascii	"j@lk9\310\324\226X\311O}\231i\256b\264\206\301\251\255"
 161      39C8D496 
 161      58C94F7D 
 161      9969AE62 
 161      B486C1A9 
 162 0152 7891B69A 		.ascii	"x\221\266\232\000m\026 \363c\366\342\343!\255Xi\251"
 162      006D1620 
 162      F363F6E2 
 162      E321AD58 
 162      69A9
 163 0164 E4ECCADC 		.ascii	"\344\354\312\334\252\2370\336Q\025\027m?\257\315x\367"
 163      AA9F30DE 
 163      5115176D 
 163      3FAFCD78 
 163      F7
 164 0175 944FB9EF 		.ascii	"\224O\271\357\324+\016XN\034p\002\307Q\275\203\364\233"
 164      D42B0E58 
 164      4E1C7002 
 164      C751BD83 
 164      F49B
 165 0187 A423DD6B 		.ascii	"\244#\335kNC5\3003\274%F\216X\262\320\212\347\327\357"
 165      4E4335C0 
 165      33BC2546 
 165      8E58B2D0 
 165      8AE7D7EF 
 166 019b E78AF7B5 		.ascii	"\347\212\367\265\016\300E\030\021o>\356*q\341+\263Y"
 166      0EC04518 
 166      116F3EEE 
 166      2A71E12B 
 166      B359
 167 01ad C7257F8A 		.ascii	"\307%\177\212M7\261\031\305\272(z\242\350\265\320SE"
 167      4D37B119 
 167      C5BA287A 
 167      A2E8B5D0 
 167      5345
 168 01bf EB84A2D5 		.ascii	"\353\204\242\325\007\360\0262\323\323S\277\213\3024"
 168      07F01632 
 168      D3D353BF 
 168      8BC234
 169 01ce C13D4183 		.ascii	"\301=A\203\334\2757\341\006\301\250''\011GSI\333q\235"
 169      DCBD37E1 
ARM GAS  /tmp/ccoJMWJm.s 			page 13


 169      06C1A827 
 169      27094753 
 169      49DB719D 
 170 01e2 1F1F2A1C 		.ascii	"\037\037*\034\203\371\317\313n'\030\240\014c\033\307"
 170      83F9CFCB 
 170      6E2718A0 
 170      0C631BC7 
 171 01f2 9A220C15 		.ascii	"\232\"\014\025\276\035\250\265\374\022A\2454\343O7H"
 171      BE1DA8B5 
 171      FC1241A5 
 171      34E34F37 
 171      48
 172 0203 63E25D45 		.ascii	"c\342]E\325\226\332\300\177\265\371\260&\265yR\255\315"
 172      D596DAC0 
 172      7FB5F9B0 
 172      26B57952 
 172      ADCD
 173 0215 376F43B9 		.ascii	"7oC\271a\327EZ\251\020Iq\317\211\342\315:\231(7\345"
 173      61D7455A 
 173      A9104971 
 173      CF89E2CD 
 173      3A992837 
 174 022a A74BBA98 		.ascii	"\247K\272\230\370\010\033*\033PW\275\376\216\276sY\272"
 174      F8081B2A 
 174      1B5057BD 
 174      FE8EBE73 
 174      59BA
 175 023c 62EB3D60 		.ascii	"b\353=`\221@\266\266\264\223\370\320F?\325\313\357\003"
 175      9140B6B6 
 175      B493F8D0 
 175      463FD5CB 
 175      EF03
 176 024e A5AF4CB3 		.ascii	"\245\257L\2637\0304ZbV\273u\"l$l#\2256\354\0247x\254"
 176      3718345A 
 176      6256BB75 
 176      226C246C 
 176      239536EC 
 177 0266 A3AFCB8C 		.ascii	"\243\257\313\214[<\310A;g'Y:\331\264\3111\231H\245m"
 177      5B3CC841 
 177      3B672759 
 177      3AD9B4C9 
 177      319948A5 
 178 027b E3686BA8 		.ascii	"\343hk\250%\324K\021<\221\212\234\3559\034\017\306\300"
 178      25D44B11 
 178      3C918A9C 
 178      ED391C0F 
 178      C6C0
 179 028d D5637676 		.ascii	"\325cvvG\202\325\021\221\336\264\321\022\012\037\017"
 179      4782D511 
 179      91DEB4D1 
 179      120A1F0F 
 180 029d 1B5617EF 		.ascii	"\033V\027\357\354\356\210\030*\202\307\217uwq\012\332"
 180      ECEE8818 
 180      2A82C78F 
 180      7577710A 
 180      DA
 181 02ae 8CA4EC17 		.ascii	"\214\244\354\027\263\373l\362\360\207\302\255\201v\323"
ARM GAS  /tmp/ccoJMWJm.s 			page 14


 181      B3FB6CF2 
 181      F087C2AD 
 181      8176D3
 182 02bd 8E245356 		.ascii	"\216$SVs`\377A`)p\307#\361D\252\017\376\001\341\247"
 182      7360FF41 
 182      602970C7 
 182      23F144AA 
 182      0FFE01E1 
 183 02d2 2C06     		.ascii	",\006"
 184              		.text
 185              		.section	.gnu.lto_chThdCreateFromMemoryPool.183f89403f5c7557,"",%progbits
 186 0000 789C8554 		.ascii	"x\234\205TMh\023A\024~ov\363\323\244\321\250\275\010"
 186      4D681341 
 186      147E6F76 
 186      F3D3A4D1 
 186      A8BD08
 187 0013 52625110 		.ascii	"RbQ\020[\262\202\007\257JA\360\020\204\306\242\236$"
 187      5BB28207 
 187      AF4A41F0 
 187      1084C6A2 
 187      9E24
 188 0025 9D8664A1 		.ascii	"\235\206d\241iB\222\326\006\017\235\306\012\012\245"
 188      694292D6 
 188      060F9DC6 
 188      0A0AA5
 189 0034 14F15015 		.ascii	"\024\361P\025\241\245\210\242\240\210\007E\252\215E"
 189      A1A588A2 
 189      A0880745 
 189      AA8D45
 190 0043 C554DAE2 		.ascii	"\305T\332\342\315\226\036R\024r\360\240\266\010Z\213"
 190      CD961E52 
 190      1472F0A0 
 190      B6085A8B 
 191 0053 F1CD6EB2 		.ascii	"\361\315n\2626\215\330\015\231\231}\363\276y\357}\357"
 191      368DD80D 
 191      99997DF3 
 191      BE79EF7D 
 191      EF
 192 0064 9B65C060 		.ascii	"\233e\300`\363s\230\376I\025 O3\332\000\331\310\034"
 192      F37398FE 
 192      4915204F 
 192      33DA00D9 
 192      C81C
 193 0076 C0809331 		.ascii	"\300\200\2231uF\001\341R\336\314\000\210z\005U\323\256"
 193      754601E1 
 193      52DECC00 
 193      887A0555 
 193      D3AE
 194 0088 22CA0520 		.ascii	"\"\312\005 \3643E\305\376\263(\017aM0.\304\325\302\353"
 194      F43345C5 
 194      FEB3280F 
 194      614D302E 
 194      C4D5C2EB 
 195 009c 621EAF8B 		.ascii	"b\036\257\213\334\340\230X/\225\020u\244\200\373\020"
 195      DCE09858 
 195      2F951075 
 195      A480FB10 
ARM GAS  /tmp/ccoJMWJm.s 			page 15


 196 00ac 38C2197A 		.ascii	"8\302\031zA\23711\265:\003\023\233\233\232\033\336-"
 196      419F3131 
 196      B53A0313 
 196      9B9B9A1B 
 196      DE2D
 197 00be C6B223E2 		.ascii	"\306\262#\3427AuT\030\034\330\012\371\220\345\012\245"
 197      37417554 
 197      181CD80A 
 197      F990E50A 
 197      A5
 198 00cf D2D2EAD7 		.ascii	"\322\322\352\327\217\013\270\253\001\201P*\306\020\354"
 198      8F0BB8AB 
 198      0181502A 
 198      C610EC
 199 00de 10C2716C 		.ascii	"\020\302ql\002'Y\324:\262\240\213\006\346\246A\361\320"
 199      022759D4 
 199      3AB2A08B 
 199      06E6A641 
 199      F1D0
 200 00f0 DE04EDD1 		.ascii	"\336\004\355\321c\203A!F|\246\257i\215!\205\340FM\247"
 200      63834121 
 200      467CA6AF 
 200      698D2185 
 200      E0464DA7 
 201 0104 6894A5B6 		.ascii	"h\224\245\266#\223\2632\017\203\205\373E\014\341m\242"
 201      2393B332 
 201      0F8385FB 
 201      450CE16D 
 201      A2
 202 0115 2982F60B 		.ascii	")\202\366\013\260&.\013\257\2166\216\006\200\214\252"
 202      B0262E0B 
 202      AF8E368E 
 202      06808CAA 
 203 0125 8E764925 		.ascii	"\216vI%3\275\314\223#\322\366\026^\025_.\014+\026\\"
 203      33BDCC93 
 203      23D2F616 
 203      5E155F2E 
 203      0C2B165C 
 204 0139 D653554C 		.ascii	"\326SUL;*@d+y\310:+\244\024\236,O\266T\021\352`pz+Z"
 204      3B2A4064 
 204      2B79C83A 
 204      2BA4149E 
 204      2C4FB654 
 205 0154 A4CDE1A3 		.ascii	"\244\315\341\243\305\034d\277=\277\370xH)WZ)9\367ez"
 205      C51C64BF 
 205      3DBFF878 
 205      4829575A 
 205      2939F765 
 206 0169 CD4B39DE 		.ascii	"\315K9\3361x(\333V\257M\272\367Xo\371O\012\200\231,"
 206      317828DB 
 206      56AF4DBA 
 206      F7586FF9 
 206      4F0A8099 
 207 017e 27023825 		.ascii	"'\0028%\307\321\210\203\364{@\257$%\305\324S#L\341-"
 207      C7D18883 
 207      F47B40AF 
 207      2425C5D4 
ARM GAS  /tmp/ccoJMWJm.s 			page 16


 207      53234CE1 
 208 0193 317A5447 		.ascii	"1zTGgU\370\277\373\323\345\375:3\301Y\310.~XYf\0252"
 208      6755F8BF 
 208      FBD3E5FD 
 208      3A33C159 
 208      C82E7E58 
 209 01ab 9CCD7050 		.ascii	"\234\315pPG\327M\2701 \204\310\350\350&*\3451\365\206"
 209      47D74DB8 
 209      312084C8 
 209      E8E8262A 
 209      E531F586 
 210 01bf 7B8745D4 		.ascii	"{\207E\324<\214\212h\005\345\261:\340\341d0;`\247\323"
 210      3C8C8A68 
 210      05E5B13A 
 210      E0E16430 
 210      3B60A7D3 
 211 01d3 22581741 		.ascii	"\"X\027AW\004\335:n\253\352\306\204\321\015\217\221"
 211      5704DD3A 
 211      6EABEAC6 
 211      84D10D8F 
 211      91
 212 01e4 C0D31F2B 		.ascii	"\300\323\037+?\313\315l\206{\024V\220\373vJ\201\302"
 212      3FCBCD6C 
 212      867B1456 
 212      90FB764A 
 212      81C2
 213 01f6 7AC94986 		.ascii	"z\311I\206W\312\341\321\242u\0073\323\1777\272Z\213"
 213      57CAE1D1 
 213      A2750733 
 213      D37F37BA 
 213      5A8B
 214 0208 867FA359 		.ascii	"\206\177\243YE\0342\377K\205\331\242\303\004\002X\005"
 214      451C32FF 
 214      4B85D9A2 
 214      C3040258 
 214      05
 215 0219 ECE45223 		.ascii	"\354\344R#\206\227\001\335\005\244\334\006\231\373F"
 215      869701DD 
 215      05A4DC06 
 215      99FB46
 216 0228 2D8CBFD8 		.ascii	"-\214\277\330\244\205\020\3365z\263\245\030\340\277"
 216      A48510DE 
 216      357AB3A5 
 216      18E0BF
 217 0237 62585C97 		.ascii	"bX\\\227bxV-\206\317\356F\353\206X\346+\305\015\252"
 217      6278562D 
 217      86CFEE46 
 217      EB8658E6 
 217      2BC50DAA 
 218 024b 304EE5D4 		.ascii	"0N\345\324\363Za\204P.\254\320\025!\204\360\0216nT\274"
 218      F35A6184 
 218      502EACD0 
 218      152184F0 
 218      11366E54 
 219 0260 6ADCACF7 		.ascii	"j\334\254\367\364]\221\245\0334/\000\226\311cK\337\033"
 219      F45D91A5 
 219      1B342F00 
ARM GAS  /tmp/ccoJMWJm.s 			page 17


 219      96C9634B 
 219      DF1B
 220 0272 880F65E8 		.ascii	"\210\017e\350W\275\274\215(}\3451{\375~\2555\252w\350"
 220      57BDBC8D 
 220      287DE531 
 220      7BFD7EAD 
 220      35AA77E8 
 221 0286 27835A3C 		.ascii	"'\203Z<\245%\323Z*\3115\036\355\314t\207b:\367sP\316"
 221      A525D35A 
 221      2AC9351E 
 221      EDCC7487 
 221      623AF773 
 222 029c A7122C9D 		.ascii	"\247\022,\235h\256qL\304\223\351\224v\254-\320\032\350"
 222      68AE714C 
 222      C493E994 
 222      76AC2DD0 
 222      1AE8
 223 02ae 23048F27 		.ascii	"#\004\217'\303\347z\217\304\374Q\260\365\206\272z\302"
 223      C3E77A8F 
 223      C4FC51B0 
 223      F586BA7A 
 223      C2
 224 02bf FE6A44B8 		.ascii	"\376jD\270/\255\265\006\202'\202\232\336\315\273z:\303"
 224      2FADB506 
 224      8227829A 
 224      DECDBB7A 
 224      3AC3
 225 02d1 9A81E0B1 		.ascii	"\232\201\340\261\343=\335\234@\265\231X~\321T&E\036"
 225      E33DDD9C 
 225      40B59958 
 225      7ED15426 
 225      451E
 226 02e3 DE40B0CD 		.ascii	"\336@\260\315\327\021J\205\023I\275\305\267\377\020"
 226      D7114A85 
 226      1349BDC5 
 226      B7FF10
 227 02f2 B0243862 		.ascii	"\260$8b\341X<\231\201?\2118Ea"
 227      E1583C99 
 227      813F8938 
 227      4561
 228              		.text
 229              		.section	.gnu.lto_.symbol_nodes.183f89403f5c7557,"",%progbits
 230 0000 789C4DC8 		.ascii	"x\234M\310M\012\3020\030\204\341\231/i\223\366\020^"
 230      4D0AC230 
 230      1884E199 
 230      2F6993F6 
 230      105E
 231 0012 F52B4444 		.ascii	"\365+DDp\343\005t\343M\354\276gP\\u\351\017T\324\212"
 231      70E30574 
 231      E34DECBE 
 231      67505C75 
 231      E90F54D4 
 232 0027 292DA6B3 		.ascii	")-\246\263\031\236W h1M\226\242\300\266\001Twk\312\225"
 232      199E5720 
 232      68314D96 
 232      A2C0B601 
 232      54776BCA 
ARM GAS  /tmp/ccoJMWJm.s 			page 18


 233 003c CA89FBC8 		.ascii	"\312\211\373\310\033Uf\274S\315\214\017\252M\344\223"
 233      1B5566BC 
 233      53CD8C0F 
 233      AA4DE493 
 234 004c 9A8DAC2A 		.ascii	"\232\215\254*\262\243\346I\037\252KzS}\322\213Z$\365"
 234      B2A3E649 
 234      1FAA4B7A 
 234      537DD28B 
 234      5A24F5
 235 005f D4F22F83 		.ascii	"\324\362/\203\014\227\363\227Fr\204M\023\0378\016o\012"
 235      0C97F397 
 235      4672844D 
 235      131F380E 
 235      6F0A
 236 0071 8453ECC6 		.ascii	"\204S\354\306\343\320v\361\035\302\252_\030[\216\335"
 236      E3D076F1 
 236      1DC2AA5F 
 236      185B8EDD 
 237 0081 7AD443B7 		.ascii	"z\324C\267\016u\354\370\001@dIC"
 237      0E75ECF8 
 237      01406449 
 237      43
 238              		.text
 239              		.section	.gnu.lto_.refs.183f89403f5c7557,"",%progbits
 240 0000 789C6362 		.ascii	"x\234cb`b`d\200\002\000\000F\000\006"
 240      60626064 
 240      80020000 
 240      460006
 241              		.text
 242              		.section	.gnu.lto_.decls.183f89403f5c7557,"",%progbits
 243 0000 789CBD5B 		.ascii	"x\234\275[\013p\024U\272\356\3233\223\311$\303C\275"
 243      0B701455 
 243      BAEED333 
 243      93C924C3 
 243      43BD
 244 0012 BAC172D7 		.ascii	"\272\301r\327qKw\255\365\222DD\027\267\352.\272\324"
 244      714B77AD 
 244      F5924444 
 244      17B7EA2E 
 244      BAD4
 245 0024 75F1DE75 		.ascii	"u\361\336u\327\225\265\366V\355\27556\223&3\227y9\323"
 245      D795B5F6 
 245      56EDBD35 
 245      36932633 
 245      977939D3 
 246 0038 21646BAB 		.ascii	"!dk\253\354\004I\002*\006\242!A\220d\005]\221\015FA"
 246      EC044902 
 246      2A06A221 
 246      41906405 
 246      5D910D46 
 247 004d B474CD60 		.ascii	"\264t\315`AxI$b\000\311\002\003\341\261\262+\022\"`"
 247      41784924 
 247      6200C902 
 247      03E1B1B2 
 247      2B122260 
 248 0061 0A65EE7F 		.ascii	"\012e\356\177Nw\317t\237\351\356\351\031\256\333U\247"
 248      4E77CF74 
ARM GAS  /tmp/ccoJMWJm.s 			page 19


 248      9FE9EEE9 
 248      19AEDB55 
 248      A7
 249 0072 A71FE77C 		.ascii	"\247\037\347|\377\363\374\377\177N',\3032\267\332\030"
 249      FFF3FCFF 
 249      7F4E272C 
 249      C332B7DA 
 249      18
 250 0083 260587ED 		.ascii	"&\005\207\355'\014s\310\3110E\014\303\374\024\032\013"
 250      270C73C8 
 250      C930450C 
 250      C3FC141A 
 250      0B
 251 0094 0D31D23D 		.ascii	"\0151\322=>J\241uA\373-<\374\037h>h\335\320\366@\373"
 251      3E4AA175 
 251      41FB2D3C 
 251      FC1F683E 
 251      68DDD0F6 
 252 00aa 18DA27D0 		.ascii	"\030\332'\320>\205v\014\332)\304d\035xl1\264K\320\306"
 252      3E85760C 
 252      DA29C464 
 252      1D786C31 
 252      B44BD0C6 
 253 00be 4373435B 		.ascii	"CsC[\003m:\264\265\320\316\300\230~h\300\016s\030\332"
 253      036D3AB4 
 253      B5D0CEC0 
 253      987E68C0 
 253      0E7318DA 
 254 00d2 10B45F23 		.ascii	"\020\264_#\211\017<\026\323\261\303\357\337\341\367"
 254      890F3C16 
 254      D3B1C3EF 
 254      DFE1F7
 255 00e1 37D046A0 		.ascii	"7\320F\240\235\247\350`\336\\2\337\033UtF\341\301\005"
 255      9DA7E860 
 255      DE5C32DF 
 255      1B557446 
 255      E1C105
 256 00f4 24D15E2B 		.ascii	"$\321^+\323\305}.\312\362\341q\227\240]\206v\005\232"
 256      D3C57D2E 
 256      CAF2E171 
 256      97A05D86 
 256      76059A
 257 0107 138896B0 		.ascii	"\023\210\226\260\022\355\337\301\3758VK\007\313?Q\306"
 257      12EDDFC1 
 257      FD38564B 
 257      07CB3F51 
 257      C6
 258 0118 5843C9B4 		.ascii	"XC\311\264QE\017\323:\015\355\274\254\323.x\266\012"
 258      51450FD3 
 258      3A0DEDBC 
 258      ACD32E78 
 258      B60A
 259 012a DAB580F7 		.ascii	"\332\265\200\367G\270w\310<\234\2026\242\222\273X\246"
 259      47B877C8 
 259      3C9C8236 
 259      A292BB58 
 259      A6
ARM GAS  /tmp/ccoJMWJm.s 			page 20


 260 013b A1C713D6 		.ascii	"\241\307\023\326u\227<\226C\222>\256\203\347\377\002"
 260      75973C96 
 260      43923EAE 
 260      83E7FF02 
 261 014b ED7A8A4F 		.ascii	"\355z\212Ol\243kd\035\253u~\003\364;\216\264\274~\007"
 261      6CA36B64 
 261      1DAB757E 
 261      03F43B8E 
 261      B4BC7E07 
 262 015f 9E1D4212 		.ascii	"\236\035B\022\257ke\331\312XI?\203H\272\307<\272d\334"
 262      AF6B65D9 
 262      CA58493F 
 262      8348BAC7 
 262      3CBA64DC 
 263 0173 63147F9F 		.ascii	"c\024\177\237\312>\240\360\211\371[\003\367/C{\005\332"
 263      CA3EA0F0 
 263      89F95B03 
 263      F72F437B 
 263      05DA
 264 0185 ABD05EA3 		.ascii	"\253\320^\243\354\205\375\347z\035\376\360\330I\200"
 264      EC85FDE7 
 264      7A1DFEF0 
 264      D84980
 265 0194 719AE2F1 		.ascii	"q\232\342\361qho@\353\261\300/\366\243^$\361\374k\331"
 265      71686F40 
 265      EBB1C02F 
 265      F6A35E24 
 265      F1FC6BD9 
 266 01a8 2FBA65DF 		.ascii	"/\272e\337\314\305\367v\270\337\011m\027\264\335\320"
 266      CCC5F776 
 266      B8DF096D 
 266      17B4DDD0 
 267 01b8 6EA4F47A 		.ascii	"n\244\364z3\363\242\230H&O\236}}RsgC\"\225\232\316\334"
 267      33F3A298 
 267      48264F9E 
 267      7D7D5273 
 267      67432295 
 268 01cf C03C2FC2 		.ascii	"\300</\302\321\331(\212H\340\320O\257g\376\013qh\274"
 268      D1D9288A 
 268      48E0D04F 
 268      AF67FE0B 
 268      7168BC
 269 01e2 8BF1900B 		.ascii	"\213\361\220\013\267\2138/6\331\037\321\015\344\312"
 269      B78B382F 
 269      36D91FD1 
 269      0DE4CA
 270 01f1 46DC0BE6 		.ascii	"F\334\013\346\325bQl\300\003g\356\030\177-\263\024\243"
 270      D562516C 
 270      C00367EE 
 270      187F2DB3 
 270      14A3
 271 0203 78768036 		.ascii	"xv\2006\344\361\242]\001\270\017z\337\306\254\021\305"
 271      E4F1A25D 
 271      01B80F7A 
 271      DFC6AC11 
 271      C5
 272 0214 9664C737 		.ascii	"\226d\3077\373l\242X\314\241\265\350Z\200\371O\304\374"
ARM GAS  /tmp/ccoJMWJm.s 			page 21


 272      FB6CA258 
 272      CCA1B5E8 
 272      5A80F94F 
 272      C4FC
 273 0226 88791506 		.ascii	"\210y\025\006\266\000\324\035:\223\217\311\011\314b"
 273      B600D41D 
 273      3A938FC9 
 273      09CC62
 274 0235 47E7D0AB 		.ascii	"G\347\320\253\200\307\241?\241\037I\224\304\344\013"
 274      80C7A13F 
 274      A11F4994 
 274      C4E40B
 275 0244 4DDB16A0 		.ascii	"M\333\026\240z\020Jz\307\310ou\216[\230N\240\236X\276"
 275      7A104A7A 
 275      C7C86F75 
 275      8E5B984E 
 275      A09E58BE 
 276 0258 64D524B1 		.ascii	"d\325$\261\363\003\350\277\006\225\002l3Rp\365\024\""
 276      F303E8BF 
 276      0695026C 
 276      335270F5 
 276      1422
 277 026a 5F4A87DC 		.ascii	"_J\207\334A\213\267\242\337\335\302)`\317\346\015\346"
 277      418BB7A2 
 277      DFDDC229 
 277      60CFE60D 
 277      E6
 278 027b D180ADEE 		.ascii	"\321\200\255\356_I\230s1\315\031\2453\272`\262\246\017"
 278      5F499873 
 278      31CD19A5 
 278      33BA60B2 
 278      A60F
 279 028d 2FDE3A80 		.ascii	"/\336:\200\026\020\371{`\030\013q\010it`\035jh\311\266"
 279      1610F97B 
 279      60180B71 
 279      08697460 
 279      1D6A68C9 
 280 02a2 2DA88140 		.ascii	"-\250\201@m$P;\331B\241\006\333\336\273\227\330\177"
 280      6D24503B 
 280      D942A106 
 280      DBDEBB97 
 280      D87F
 281 02b4 33013A60 		.ascii	"3\001:`\323\002q\310\231Vc\372^\351\200\321\310k\371"
 281      D30271C8 
 281      995663FA 
 281      5EE980D1 
 281      C86BF9
 282 02c7 0207FF09 		.ascii	"\002\007\377\011\314\267\334\235e\216\333,\230\256\330"
 282      CCB7DC9D 
 282      658EDB2C 
 282      98AED8
 283 02d6 C80FC4E4 		.ascii	"\310\017\304\344\212\246\017m\035b\342I\233\354\312"
 283      8AA60F6D 
 283      1D62E249 
 283      9BECCA
 284 02e5 9D45463A 		.ascii	"\235EF:b\231\317\010\255\367h_\336w\364\303\006\331"
 284      6299CF08 
ARM GAS  /tmp/ccoJMWJm.s 			page 22


 284      ADF7685F 
 284      DE77F4C3 
 284      06D9
 285 02f7 97DFB3E4 		.ascii	"\227\337\263\344\313\233v-'\356\222k\216v\262\012\375"
 285      CB9B762D 
 285      27EE926B 
 285      8E76B20A 
 285      FD
 286 0308 5B09FD0E 		.ascii	"[\011\375\016;\246\277%k.\015\377mz\273(N\224^\345&"
 286      3BA6BF25 
 286      6B2E0DFF 
 286      6D7ABB28 
 286      4E945EE5 
 287 031d 3FF0F173 		.ascii	"?\360\361s\331\344\015c\213\354\032\373\216\236\032"
 287      D9E40D63 
 287      8BEC1AFB 
 287      8E9E1A
 288 032c 9185DC46 		.ascii	"\221\205\334F\346\314\200\235v\216\351\245Z\363\301"
 288      E6CC809D 
 288      768EE9A5 
 288      5AF3C1
 289 033b BDAA03CB 		.ascii	"\275\252\003\313\034J\263_\320\224\0059w\374\307\253"
 289      1C4AB35F 
 289      D0940539 
 289      77FCC7AB 
 290 034b 6F88E2A2 		.ascii	"o\210\342\242\"\205\207\303y#z4\232\370\344c\022\004"
 290      228587C3 
 290      79237A34 
 290      9AF8E463 
 290      1204
 291 035d 24B0A415 		.ascii	"$\260\244\0250COjH\354W\203\015\347\015\246\345\354"
 291      30434F6A 
 291      48EC5783 
 291      0DE70DA6 
 291      E5EC
 292 036f A01AEC94 		.ascii	"\240\032\354\224\025\260\211\306\234\035R\203}\2267"
 292      15B089C6 
 292      9C1D5283 
 292      7D9637
 293 037e 9896B3BF 		.ascii	"\230\226\263\277\252\301\376a\005\254\314\230\263#j"
 293      AAC1FE61 
 293      05ACCC98 
 293      B3236A
 294 038d B0737983 		.ascii	"\260sy\203i9;\247\006\373\322\012\230G\207\263\364a"
 294      69393BA7 
 294      06FBD20A 
 294      984787B3 
 294      F461
 295 039f 94681328 		.ascii	"\224h\023(\355\347,s\311\256\204\204<}\232\311`\\\266"
 295      EDE72C73 
 295      C9AE8484 
 295      3C7D9AC9 
 295      605CB6
 296 03b2 E71BC234 		.ascii	"\347\033\3024rC.\335\363\022j] \356\250T\362Y\275\303"
 296      72432EDD 
 296      F3126A5D 
 296      20EEA854 
ARM GAS  /tmp/ccoJMWJm.s 			page 23


 296      F259BDC3 
 297 03c6 02A289C3 		.ascii	"\002\242\211\303\274\245N\216\213\362\006\323\232\345"
 297      BCA54E8E 
 297      8BF206D3 
 297      9AE5
 298 03d4 130CA689 		.ascii	"\023\014\246\2115rBJ\256M\224\265g\242]\261\202\205"
 298      3572424A 
 298      AE4D94B5 
 298      67A25DB1 
 298      8285
 299 03e6 0B0D29B4 		.ascii	"\013\015)\264A\335\301\246;\213ee\372}9t\034\335\006"
 299      41DDC1A6 
 299      3B8B6565 
 299      FA7D3974 
 299      1CDD06
 300 03f9 E761E44A 		.ascii	"\347a\344Js!]+W)R\360/u\350\2250\004\300|\250\221'$"
 300      73215D2B 
 300      572952F0 
 300      2F75E895 
 300      3004C07C 
 301 0411 D59ED066 		.ascii	"\325\236\320fEM&S\341r\377\312\357\210\311\004R\311"
 301      454D2653 
 301      E172FFCA 
 301      EF88C904 
 301      52C9
 302 0423 6BAA1CA8 		.ascii	"k\252\034\250!v\275\377o$[\237&\331z\225C7\355[\000"
 302      2176BDFF 
 302      6F245B9F 
 302      26D97A95 
 302      4337ED5B 
 303 0438 1A5AF2E7 		.ascii	"\032Z\362\347;\010\320\031\002\364r\301@\203m/N#@\237"
 303      3B08D019 
 303      02F472C1 
 303      40836D2F 
 303      4E23409F 
 304 044c 13A06E07 		.ascii	"\023\240n\007\235\"\020U? m\206Ok^V\374\267\325\227"
 304      9D221055 
 304      3F206D86 
 304      4F6B5E56 
 304      FCB7D597 
 305 0460 65DEA6AD 		.ascii	"e\336\246\255\245\021'g\254I\276\260\375D+\032m\020"
 305      A5112767 
 305      AC49BEB0 
 305      FD442B1A 
 305      6D10
 306 0472 DB2BF3B0 		.ascii	"\333+\363\260\327b\331^\347\211v\022Y\3329\223\247z"
 306      D762D95E 
 306      E7897612 
 306      59DA3993 
 306      A77A
 307 0484 586647DE 		.ascii	"XfG\336b\334\256\025\243\351t\001b\364Jb\\\"b\354\375"
 307      62DCAE15 
 307      A3E97401 
 307      62F44A62 
 307      5C2262EC 
 308 0499 7F10E360 		.ascii	"\177\020\343`\336bT\252\304\200\012h\373\245\347\244"
 308      DE6254AA 
ARM GAS  /tmp/ccoJMWJm.s 			page 24


 308      C4800A68 
 308      FBA5E7A4 
 309 04a9 08781DB3 		.ascii	"\010x\035\263\314\274\212\303\374|\215\256\323TP\211"
 309      CCBC8AC3 
 309      FC7C8DAE 
 309      D3545089 
 310 04b9 0B1F218F 		.ascii	"\013\037!\217\3648W\365$&Z?V\325\372\242\245Z\177W\272"
 310      F43857F5 
 310      24265A3F 
 310      56D5FAA2 
 310      A55A7F57 
 311 04ce D64F1195 		.ascii	"\326O\021\225\035\325\233`V\240:\207\372\257\027\355"
 311      1DD59B60 
 311      56A03A87 
 311      FAAF17ED 
 312 04de 1C6A6031 		.ascii	"\034j`1\314\311Ba\222\203\3737K\363t!\001\372<\313\204"
 312      CCC94261 
 312      9283FB37 
 312      4BF37421 
 312      01FA3CCB 
 313 04f3 4594058B 		.ascii	"E\224\005\213\264\026\204[L\351+\\\205\243'\344'\370"
 313      B416845B 
 313      4CE92B5C 
 313      85A327E4 
 313      27F8
 314 0505 C6C9FCD3 		.ascii	"\306\311\374\323\307A\016&\354c\353\025RW\342\265\350"
 314      C7410E26 
 314      EC63EB15 
 314      5257E2B5 
 314      E8
 315 0516 87CF29F9 		.ascii	"\207\317)\371S2\320\225\253BlH\364.S\026\253\323q\006"
 315      5332D095 
 315      AB426C48 
 315      F42E5316 
 315      ABD37106 
 316 052a 6D2ABA3A 		.ascii	"m*\272:8Rri2(U\272\2575\310:\312\262\276\347\351\177"
 316      38527269 
 316      322855BA 
 316      AF35C83A 
 316      CAB2BEE7 
 317 0540 25E67E96 		.ascii	"%\346~\226\305\354,)\242\315\275\006Q\245;~\240\352"
 317      C5EC2C29 
 317      A2CDBD06 
 317      51A53B7E 
 317      A0EA
 318 0552 62349196 		.ascii	"b4\221\226\260\252\004\330uUR\342I|\2302\303+W\251\267"
 318      B0AA04D8 
 318      755552E2 
 318      497C9832 
 318      C32B57A9 
 319 0567 8ED65596 		.ascii	"\216\326U\226\326Y\217)Xn\"\310\006Bv9K-\263\306F\223"
 319      D6598F29 
 319      586E22C8 
 319      06427639 
 319      4B2DB3C6 
 320 057d 8DF23A1B 		.ascii	"\215\362:\033\277\313\035)\206N\272\304en\035z\367\251"
 320      BFCB1D29 
ARM GAS  /tmp/ccoJMWJm.s 			page 25


 320      864EBAC4 
 320      656E1D7A 
 320      F7A9
 321 058f 8B3AC546 		.ascii	"\213:\305F]\317<Hl\364\002\213\267^\216P6RV\247\367"
 321      5DCF3C48 
 321      6CF4028B 
 321      B75E8E50 
 321      365256A7 
 322 05a4 19C1B0CC 		.ascii	"\031\301\260\314Y2\344E\232m\210\215\312\352\364E\013"
 322      5932E445 
 322      9A6D888D 
 322      CAEAF445 
 322      0B
 323 05b5 6C372446 		.ascii	"l7$F\236R\357\264p\350\317\210\225q\013\263\302\371"
 323      9E52EFB4 
 323      70E8CF88 
 323      95710BB3 
 323      C2F9
 324 05c7 DDE96292 		.ascii	"\335\351b\222C\033\362\006\363\350\261\252\370iFZ\016"
 324      431BF206 
 324      F3E8B1AA 
 324      F869465A 
 324      0E
 325 05d8 75B2B808 		.ascii	"u\262\270\010\354bo\301\233apN\037,\223J[TOu\271]sl"
 325      EC626FC1 
 325      9B61704E 
 325      1F2C934A 
 325      5B544F75 
 326 05f0 F4AB36C9 		.ascii	"\364\2536\3115\363\211\372}J\324_K\242l\223\223\236"
 326      35F389FA 
 326      7D4AD45F 
 326      4BA26C93 
 326      939E
 327 0602 76388C6B 		.ascii	"v8\214k\304\311+\354=\343\244\204\262\272^M\037F\323"
 327      C4C92BEC 
 327      3DE3A484 
 327      B2BA5E4D 
 327      1F46D3
 328 0615 BA4D3DAD 		.ascii	"\272M=\255[\235W5\011\301\377\316\256\221t\227sK\022"
 328      5B9D5735 
 328      09C1FFCE 
 328      AE917497 
 328      734B12
 329 0628 A957132C 		.ascii	"\251W\023,\263\202P^O;\364\362\313;\232d\207^oi\036"
 329      B382505E 
 329      4F3BF4F2 
 329      CB3B9A64 
 329      875E6F69 
 330 063d 5E20F350 		.ascii	"^ \363P\231Y\333\322\250\205\370BCb\354\263\235\210"
 330      9959DBD2 
 330      A885F842 
 330      4362ECB3 
 330      9D88
 331 064f C049ABA3 		.ascii	"\300I\253\243=4\\\236\273\006_\363\371*F\362\257\304"
 331      3D345C9E 
 331      BB065FF3 
 331      F92A46F2 
ARM GAS  /tmp/ccoJMWJm.s 			page 26


 331      AFC4
 332 0661 A72771CD 		.ascii	"\247'q\315\262\211\3104\230\345Z\222fT\256\265^5S\272"
 332      B289C834 
 332      98E55A92 
 332      6654AEB5 
 332      5E3553BA 
 333 0675 C94CD940 		.ascii	"\311L\331@fJ\0179\277\251\236/Fn\261Q\355\026\207\363"
 333      664A0F39 
 333      BFA99E2F 
 333      466EB151 
 333      ED1687F3 
 334 0689 96DB63D1 		.ascii	"\226\333c\321\373^S\2239q\225\336\267b\373E;\331\336"
 334      FB5E5393 
 334      397195DE 
 334      B762FB45 
 334      3BD9DE
 335 069c CB636B76 		.ascii	"\313ckv\3276e\342\276K&\356\337\263\264\273\221\256"
 335      D73665E2 
 335      BE4B26EE 
 335      DFB3B4BB 
 335      91AE
 336 06ae 70ADEC54 		.ascii	"p\255\354T^*T\224\364\001\205\211\323\302\"\323c\244"
 336      5E2A5494 
 336      F4018589 
 336      D3C222D3 
 336      63A4
 337 06c0 0E5CEA5C 		.ascii	"\016\\\352\\\221sl\316\355N%/\235|z&\311K[\210\2475"
 337      91736CCE 
 337      ED4E252F 
 337      9D7C7A26 
 337      C94B5B88 
 338 06d6 14EBE725 		.ascii	"\024\353\347%\223]\323\245d\310\326\254\274\324\364"
 338      935DD3A5 
 338      64C8D6AC 
 338      BCD4F4
 339 06e5 A59297B6 		.ascii	"\245\222\227\266Z\312K\373t\363\322\326\374\363\222"
 339      5ACA4BFB 
 339      74F3D2D6 
 339      FCF392
 340 06f4 DEA16690 		.ascii	"\336\241f\220C}d\202l\327&\221\256\342|u\357Q\353>\361"
 340      437D6482 
 340      6CD72691 
 340      AEE27C75 
 340      EF51EB3E 
 341 0709 FCFE9548 		.ascii	"\374\376\225H\342_\012D\257\321xz\201\350v#[6$^\337"
 341      E25F0A44 
 341      AFD1787A 
 341      81E87623 
 341      5B36245E 
 342 071e 4FF2AAE4 		.ascii	"O\362\252\344\243oYa\256\322\030\254\267MQ\356k\244"
 342      A36F5961 
 342      AED218AC 
 342      B74D51EE 
 342      6BA4
 343 0730 46DC9237 		.ascii	"F\334\2227\236G\203w`\377J\031O\372\274\261\333\012"
 343      9E478377 
 343      60FF4A19 
ARM GAS  /tmp/ccoJMWJm.s 			page 27


 343      4FFABCB1 
 343      DB0A
 344 0742 DE3463FE 		.ascii	"\3364c\376.\264i*\352\375y\303y\314l\237\371<\005\362"
 344      2EB4692A 
 344      EAFD79C3 
 344      79CC6C9F 
 344      F93C05F2 
 345 0756 93BDA4F5 		.ascii	"\223\275\244\365\010\207\305nr~\235\234\337%\347!r>"
 345      0887C56E 
 345      727E9D9C 
 345      DF25E721 
 345      723E
 346 0768 4CCE47C9 		.ascii	"L\316G\311\371\0249\217\220\363Er\276L\316\011\022X"
 346      F914398F 
 346      90F34572 
 346      BE4CCE09 
 346      1258
 347 077a 7792F36E 		.ascii	"w\222\363nr\336C\316\037\221\363\200\225\200KU\341\034"
 347      72DE43CE 
 347      1F91F380 
 347      95804B55 
 347      E11C
 348 078c 7AD4A6F2 		.ascii	"z\324\246\362\307#\324T\274\225yI\024\227%O\236\375"
 348      C723D454 
 348      BC957949 
 348      1497254F 
 348      9EFD
 349 079e 1BFEA061 		.ascii	"\033\376\240aW\022\324y\322\255\013\335\254K&]\373\377"
 349      5712D479 
 349      D2AD0BDD 
 349      AC4B265D 
 349      FBFF
 350 07b0 80598BF7 		.ascii	"\200Y\213\367\333\236\021\027ND\344[\000#\217\322(j"
 350      DB9E1117 
 350      4E44E45B 
 350      00238FD2 
 350      286A
 351 07c2 1FABF964 		.ascii	"\037\253\371d\211?Xv&\023\035}\317\200"
 351      893F5876 
 351      26131D7D 
 351      CF80
 352 07d0 71743F58 		.ascii	"qt?Xbt#\361\016\262\232/\226\212\274\032!/\350\012)"
 352      627423F1 
 352      0EB29A2F 
 352      968ABC1A 
 352      212FE80A 
 353 07e5 B6F23395 		.ascii	"\266\3623\225\356\203,\016\003\007X+\3625\210\233O<"
 353      EE832C0E 
 353      0307582B 
 353      F235889B 
 353      4F3C
 354 07f7 3C537966 		.ascii	"<Syf<Jf\360\220\256\264\227\032wC\001 ~\235J-(\316\343"
 354      3C4A66F0 
 354      90AEB497 
 354      1A774301 
 354      207E9D4A 
 355 080f FBEC110B 		.ascii	"\373\354\021\013\322\326\273t\245\275\\EI{\330\222\264"
ARM GAS  /tmp/ccoJMWJm.s 			page 28


 355      D2D6BB74 
 355      A5BD5C45 
 355      497BD892 
 355      B4
 356 0820 22654D3C 		.ascii	"\"eM<Jc\315\244\256|#\273\012\262\346\0116\367\367\347"
 356      4A63CDA4 
 356      AE7C23BB 
 356      0AB2E609 
 356      36F7F7E7 
 357 0834 E6E1CC6E 		.ascii	"\346\341\314n\252\230\376\270\345a\322\331\346/\353"
 357      AA98FEB8 
 357      E561D2D9 
 357      E62FEB
 358 0843 8E6D9773 		.ascii	"\216m\227s\357i\022${\\\272\371\306\004\211ez\311\230"
 358      EF691224 
 358      7B5CBAF9 
 358      C6048965 
 358      7AC998
 359 0856 3354C249 		.ascii	"3T\302I\3646\272\361\336\311\031K\311f\240oe\366\322"
 359      F436BAF1 
 359      DEC9194B 
 359      C966A06F 
 359      65F6D2
 360 0869 91D2C674 		.ascii	"\221\322\306tce|\241U\206\365\342cs\367\261\237l \337"
 360      63657CA1 
 360      5586F5E2 
 360      6373F7B1 
 360      9F6C20DF 
 361 087d F246485C 		.ascii	"\362FH\\\357/\241k\017\007Uz8\264\245\207\303\225\271"
 361      EF2FA16B 
 361      0F07557A 
 361      38B4A587 
 361      C395B9
 362 0890 904B0F8D 		.ascii	"\220K\017\215\223\231\320\036zk\244M^\340\236%I\340"
 362      9399D01E 
 362      7A6BA44D 
 362      5EE09E25 
 362      49E0
 363 08a2 32459CDA 		.ascii	"2E\234\332u\300B\032)\340\"[j\240\343\254w,\323\\\252"
 363      75C0421A 
 363      29E0225B 
 363      6AA0E3AC 
 363      772CD35C 
 364 08b7 18AC9022 		.ascii	"\030\254\220\"O\004\257\031\270\361\235\215\242\330"
 364      4F04AF19 
 364      B8F19D8D 
 364      A2D8
 365 08c5 F398BCFD 		.ascii	"\363\230\274\375\227(R\373\007\265Nn%\324\306Xj\017"
 365      972852FB 
 365      07B54E6E 
 365      25D4C658 
 365      6A0F
 366 08d7 B0B5CFE6 		.ascii	"\260\265\317\346\221\036\347\366\216\347\033\237\275"
 366      911EE7F6 
 366      8EE71B9F 
 366      BD
 367 08e4 51EC7CBA 		.ascii	"Q\354|\272L\266k\242QlF\365=7\231.\360\367\035=\333"
ARM GAS  /tmp/ccoJMWJm.s 			page 29


 367      4CB66BA2 
 367      516C46F5 
 367      3D37992E 
 367      F0F71D3D 
 368 08f9 256BF71B 		.ascii	"%k\367\033b\332\325\245\272\333\354\226\300\206\226"
 368      62DAD5A5 
 368      BADBEC96 
 368      C08696
 369 0908 7CA47CF3 		.ascii	"|\244|\363\027m\030l]\341`\235\203\373o\302\023c\001"
 369      176D186C 
 369      5DE1609D 
 369      83FB6FC2 
 369      136301
 370 091b 017AB394 		.ascii	"\001z\263\224v8\027\345p.\255\303\271\\\231\213\224"
 370      763817E5 
 370      702EADC3 
 370      B95C998B 
 370      94
 371 092c 72D0FBF1 		.ascii	"r\320\373\361\337\342\030\226y?m\320BVt\330}vN\202\211"
 371      DFE21896 
 371      793F6DD0 
 371      425674D8 
 371      7D764E82 
 372 0941 9DA9890D 		.ascii	"\235\251\211\0157Y0[\3156*\256,\357\303\0131\3748\367"
 372      3759305B 
 372      CD362AAE 
 372      2CEFC30B 
 372      31FC38F7 
 373 0955 5274751F 		.ascii	"Rtu\037\316\035nK\273\324O\331(\017\355\350c=\322\343"
 373      CE1D6E4B 
 373      BBD44FD9 
 373      280FEDE8 
 373      633DD2E3 
 374 0969 DC1EFA42 		.ascii	"\334\036\372B\243\316\326\227FIY\364\226\330T\353\256"
 374      A3CED697 
 374      464959F4 
 374      96D854EB 
 374      AE
 375 097a AD44A798 		.ascii	"\255D\247\230VA\353\256\304\312>R\234\236\"qdg\241`"
 375      5641EBAE 
 375      C4CA3E52 
 375      9C9E2271 
 375      6467A160 
 376 098e E9030221 		.ascii	"\351\003\002!\301\300Z.\214\241\236>\245 \225\002\353"
 376      C1C05A2E 
 376      8CA19E3E 
 376      A5209502 
 376      EB
 377 099f DEBCF13C 		.ascii	"\336\274\361<Y<\015\026\352x*\214\003t\354\323\3030"
 377      593C0D16 
 377      EA782A8C 
 377      0374ECD3 
 377      C330
 378 09b1 FEFB95C4 		.ascii	"\376\373\225\304\301\007\260\236\245m\200#4\226v\343"
 378      C107B09E 
 378      A56D8023 
 378      349676E3 
ARM GAS  /tmp/ccoJMWJm.s 			page 30


 379 09c1 4075696D 		.ascii	"@uimItF\265$\372\007Y\022}N\212\327\257\310y\271\315"
 379      497446B5 
 379      24FA0759 
 379      127D4E8A 
 379      D7AFC879 
 380 09d7 42097B2A 		.ascii	"B\011{*\263\230O\027>#\322\266W\372\276\007\251\357"
 380      B3984F17 
 380      3E23D2B6 
 380      57FABE07 
 380      A9EF
 381 09e9 CD32AE49 		.ascii	"\3152\256Iy\265\312F\225W\323\251\352\312l\215\333{"
 381      79B5CA46 
 381      9557D3A9 
 381      EACA6C8D 
 381      DB7B
 382 09fb 4CD9D95D 		.ascii	"L\331\331]i\303\016\273\330m\232\3700-#>\272l\306\211"
 382      69C30EBB 
 382      D86D9AF8 
 382      302D233E 
 382      BA6CC689 
 383 0a0f 2FFB9D9A 		.ascii	"/\373\235\232[&\253\302_\346\326\255\360\027v\2178\244"
 383      5B26ABC2 
 383      5FE6D6AD 
 383      F017768F 
 383      38A4
 384 0a21 0A5F9A5E 		.ascii	"\012_\232^/\223n\303\2065!\261\201\\J\216\341\302\031"
 384      2F936EC3 
 384      863521B1 
 384      815C4A8E 
 384      E1C219
 385 0a34 1B8043CF 		.ascii	"\033\200C\317\331X\323a\304L\322\260\304\350\256W`\366"
 385      D958D361 
 385      C44CD2B0 
 385      C4E8AE57 
 385      60F6
 386 0a46 B0CA6A6E 		.ascii	"\260\312jn}\016\212\304\2422\305!LQRkO\216a\270\227"
 386      7D0E8AC4 
 386      A232C521 
 386      4C51526B 
 386      4F8E61B8 
 387 0a5b 322C8587 		.ascii	"2,\205\207\221\265\336\306\034\243\246\253\352{R\274"
 387      91B5DEC6 
 387      1CA3A6AB 
 387      EA7B52BC 
 388 0a6b 2EC68C2A 		.ascii	".\306\214*%\276\3218\331$/\331\364J\340\267\373\335"
 388      25BED138 
 388      D9242FD9 
 388      F44AE0B7 
 388      FBDD
 389 0a7d 2DF5C954 		.ascii	"-\365\311T\352\346<\352\337\015\266\274\376\376\362"
 389      EAE63CEA 
 389      DF0DB6BC 
 389      FEFEF2
 390 0a8c 3165BC3B 		.ascii	"1e\274;\343\207#\303#eR\361\373\206\015\317\347\243"
 390      E38723C3 
 390      236552F1 
 390      FB860DCF 
ARM GAS  /tmp/ccoJMWJm.s 			page 31


 390      E7A3
 391 0a9e 6EFDE2D7 		.ascii	"n\375\342\327\010\006\263\261\211NOK\373H\331\273\311"
 391      0806B3B1 
 391      894E4F4B 
 391      FB48D9BB 
 391      C9
 392 0aaf 427E6A48 		.ascii	"B~jH\264\352\245\015\013{<\237\023N\337\241i\217p\036"
 392      B4EAA50D 
 392      0B7B3C9F 
 392      134EDFA1 
 392      698F701E 
 393 0ac3 E9696ECA 		.ascii	"\351in\312\243\312\266\352\333\304U\306\322\200\205"
 393      A3CAB6EA 
 393      DBC455C6 
 393      D28085
 394 0ad2 A60C233B 		.ascii	"\246\014#;\275\255Ns\365\343\220\254\263\302\262\312"
 394      BDAD4E73 
 394      F5E390AC 
 394      B3C2B2CA 
 395 0ae2 F3545659 		.ascii	"\363TVY\2247\236G\203\327.\245M\251\374n\267\002f\272"
 395      94379E47 
 395      83D72EA5 
 395      4DA9FC6E 
 395      B70266BA 
 396 0af6 C1AF3AD4 		.ascii	"\301\257:\324\236\301\241\267l8\232o\266\3418\336K\316"
 396      9EC1A1B7 
 396      6C389A6F 
 396      B6E138DE 
 396      4BCE
 397 0b08 5BAC44F3 		.ascii	"[\254D\363\036[v4\327Foy\022\347\212lk\306\351G\266"
 397      1E5B7634 
 397      D7466F79 
 397      12E78A6C 
 397      6BC6E947 
 398 0b1d D3C78AA4 		.ascii	"\323\307\212\244\310\326C\274\340}\322\255\333f\030"
 398      C8D643BC 
 398      E07DD2AD 
 398      DB6618
 399 0b2c 67540103 		.ascii	"gT\001\003\374\274\005I\354\0002\211m&\0033\001*\361"
 399      FCBC0549 
 399      EC003289 
 399      6D260333 
 399      012AF1
 400 0b3f 6E7FB714 		.ascii	"n\177\267\024\333V\222\360\274.\307Pu\220:*\007)\016"
 400      DB5692F0 
 400      BC2EC750 
 400      75903A2A 
 400      07290E
 401 0b52 ADCF314A 		.ascii	"\255\3171J\023\244\336\351\247\202\224\3218Y\355}\331"
 401      13A4DEE9 
 401      A78294D1 
 401      3859ED7D 
 401      D9
 402 0b63 412A89A3 		.ascii	"A*\211\243\305\316\357\265\277!>\271H\274\222z\002Y"
 402      C5CEEFB5 
 402      BF213EB9 
 402      48BC927A 
ARM GAS  /tmp/ccoJMWJm.s 			page 32


 402      0259
 403 0b75 CF94FD74 		.ascii	"\317\224\375t\246\304Z47\327\026\312\\\012c\003\272"
 403      A6C45A34 
 403      37D716CA 
 403      5C0A6303 
 403      BA
 404 0b86 8CBDB76E 		.ascii	"\214\275\267n\313w;\304\017\236\024S\251'\344\314\314"
 404      CB773BC4 
 404      0F9E1453 
 404      A927E4CC 
 404      CC
 405 0b97 321F1A40 		.ascii	"2\037\032@\354\323\205X\321\364\327\2624\204u\321\006"
 405      ECD38558 
 405      D1F4D7B2 
 405      348475D1 
 405      06
 406 0ba8 69D1B082 		.ascii	"i\321\260\202\3237)\311S)\331\016\0300vP\227\261\216"
 406      D33729C9 
 406      5329D90E 
 406      18307650 
 406      97B18E
 407 0bbb DEB1DB57 		.ascii	"\336\261\333W\031)\335,=\034\322\251O,VD\026\347\324"
 407      1929DD2C 
 407      3D1CD2A9 
 407      4F2C5644 
 407      16E7D4
 408 0bce 09034192 		.ascii	"\011\003A\222\272\202\374e\335\330M\035F\202\230\354"
 408      BA82FC65 
 408      DDD84D1D 
 408      468298EC 
 409 0bde 6C1CA7E5 		.ascii	"l\034\247\345\300\325\005-\010\305\331\210\001g'u9;"
 409      C0D5052D 
 409      08C5D988 
 409      01672775 
 409      393B
 410 0bf0 373CF65D 		.ascii	"7<\366]#\333\2330vZ\317\255)F\2761`\3443-#T\271\327"
 410      23DB9B30 
 410      765ACFAD 
 410      2946BE31 
 410      60E4332D 
 411 0c08 6F52EE9D 		.ascii	"oR\356\235\311D\304\3573]\342\336\275\311\223_\264\243"
 411      C944C4EF 
 411      335DE2DE 
 411      BDC9935F 
 411      B4A3
 412 0c1a E6A4D802 		.ascii	"\346\244\330\002zM\241k\230\026\222\261\333\001\346"
 412      7A4DA16B 
 412      981692B1 
 412      DB01E6
 413 0c29 18185586 		.ascii	"\030\030U\206\361+0\343\310Hu\257a\303^P}\333\256!W"
 413      F12B30E3 
 413      C84875AF 
 413      61C35E50 
 413      7DDBAE21 
 414 0c3e 9A8FD0A4 		.ascii	"\232\217\320\244\207\021{gm\231\277kt\2732\027n\215"
 414      87117B67 
 414      6D99BF6B 
ARM GAS  /tmp/ccoJMWJm.s 			page 33


 414      74BB3217 
 414      6E8D
 415 0c50 F84A2F9C 		.ascii	"\370J/\234\300\306c\015\251\366\027)&\240(\035\217\344"
 415      C0C6630D 
 415      A9F61729 
 415      26A0281D 
 415      8FE4
 416 0c62 612570E1 		.ascii	"a%p\341aV\343\217\221\203\333\033:\361*Xo\337X\352\322"
 416      6156E38F 
 416      9183DB1B 
 416      3AF12A58 
 416      6FDF58EA 
 417 0c77 222E64F5 		.ascii	"\".d\365\337\313\322w\336G\211?Q\241\314\312\364F\363"
 417      DFCBD277 
 417      DE47893F 
 417      51A1CCCA 
 417      F446F3
 418 0c8a 16FF4B03 		.ascii	"\026\377K\003\361\221\2264\255\370iJ?\247\214s!o\312"
 418      F1919634 
 418      ADF8694A 
 418      3FA78C73 
 418      216FCA
 419 0c9d 170D282B 		.ascii	"\027\015(+\377\366F\376\325\347\\r\351\350\300\357\326"
 419      FFF646FE 
 419      D5E75C72 
 419      E9E8C0EF 
 419      D6
 420 0cae E33F69C7 		.ascii	"\343?i\307\263\260\376\311<\242\370W\262\273g<\234e"
 420      B3B0FEC9 
 420      3CA2F857 
 420      B2BB673C 
 420      9C65
 421 0cc0 3E184FBB 		.ascii	">\030O\273\267\274\017,\376I\264\245\225\177\311Fm\003"
 421      B7BC0F2C 
 421      FE49B4A5 
 421      957FC946 
 421      6D03
 422 0cd2 8F654F43 		.ascii	"\217eOC`m\305p\242\016\1779\305\323\360\026\211\036"
 422      606DC570 
 422      A20E7F39 
 422      C5D3F016 
 422      891E
 423 0ce4 44714B14 		.ascii	"DqK\024.\323\024\276\326\245p\370\342\300\323h\351\206"
 423      2ED314BE 
 423      D6A570F8 
 423      E2C0D368 
 423      E986
 424 0cf6 4611D7DA 		.ascii	"F\021\327\332O\254N\264\330\255\213\237\242g\373F\222"
 424      4FAC4EB4 
 424      D8AD8B9F 
 424      A267FB46 
 424      92
 425 0d07 F735B37D 		.ascii	"\3675\263}\341\0045\263\244'\313\264N\220\215/\247\360"
 425      E10435B3 
 425      A427CBB4 
 425      4E908D2F 
 425      A7F0
ARM GAS  /tmp/ccoJMWJm.s 			page 34


 426 0d19 01A96C90 		.ascii	"\001\251l\220\376s\246\213\214\270b\230\305\345\357"
 426      FE73A68B 
 426      8CB86298 
 426      C5E5EF
 427 0d28 BEB2CCA3 		.ascii	"\276\262\314\243\365\017\227\245e\276B\313\\o\327\223"
 427      F50F97A5 
 427      65BE42CB 
 427      5C6FD793 
 428 0d38 79E9E8C8 		.ascii	"y\351\350\310\177\253\015\256(\366\225\011V\024\333"
 428      7FAB0DAE 
 428      28F69509 
 428      5614DB
 429 0d47 64A78834 		.ascii	"d\247\2104\353\022\001\323\375!\313toZ\242\260\230\246"
 429      EB1201D3 
 429      FD21CB74 
 429      6F5AA2B0 
 429      98A6
 430 0d59 F0949682 		.ascii	"\360\224\226\202\022\344\206s\0079jib0\327\262\0260"
 430      12E48673 
 430      07396A69 
 430      6230D7B2 
 430      1630
 431 0d6b CFDAF39D 		.ascii	"\317\332\363\235k-v\375\271\246\376\233\266L/\270\374"
 431      6B2D76FD 
 431      B9A6FE9B 
 431      B64C2FB8 
 431      FC
 432 0d7c C2467D32 		.ascii	"\302F}2\242\230`\231\336\011\352 G\345\003\374\237v"
 432      A2986099 
 432      DE09EA20 
 432      47E503FC 
 432      9F76
 433 0d8e 46BC2CB3 		.ascii	"F\274,\263\247\251\352\304=\315\027\0309tn\322\206N"
 433      A7A9EAC4 
 433      3DCD1718 
 433      39746ED2 
 433      864E
 434 0da0 BD2E9F34 		.ascii	"\275.\2374\211%\006 \024k\307MRU[\2065j\324!\223Q\313"
 434      89250620 
 434      146BC74D 
 434      52555B86 
 434      356AD421 
 435 0db7 0D470D9A 		.ascii	"\015G\015\232\214j7\034u\332dT\207\235J\246\211}\375"
 435      8C6A371C 
 435      75DA6454 
 435      879D4AA6 
 435      897DFD
 436 0dca 8B442436 		.ascii	"\213D$6\212\365\347R\251\011\006~\2667\275\311u\243"
 436      8AF5E752 
 436      A909067E 
 436      B637BDC9 
 436      75A3
 437 0ddc 99A3D1DD 		.ascii	"\231\243\321\335\240\252\312\333\323V\031x\332$\215"
 437      A0AACADB 
 437      D3561978 
 437      DA248D
 438 0deb A7ADA23D 		.ascii	"\247\255\242=MU\336\323\\\260\314\036\215\2531\267\224"
ARM GAS  /tmp/ccoJMWJm.s 			page 35


 438      4D55DED3 
 438      5CB0CC1E 
 438      8DAB31B7 
 438      94
 439 0dfc 9757CCF0 		.ascii	"\227W\314\360\007f\007~5\253\"\022\257\210\011\025\361"
 439      0766077E 
 439      35AB2212 
 439      AF880915 
 439      F1
 440 0e0d 98AFC2E7 		.ascii	"\230\257\302\347\257\252\013s\241\200\257\334\307\374"
 440      AFAA0B73 
 440      A180AFDC 
 440      C7FC
 441 0e1b 20AB4720 		.ascii	" \253G \354\013\326T\361\320+^\027\027\352\242|\274"
 441      EC0BD654 
 441      F1D02B5E 
 441      1717EAA2 
 441      7CBC
 442 0e2d DCCF140B 		.ascii	"\334\317\024\013\376\030\317Uy\205\242\237\377\362Q"
 442      FE18CF55 
 442      7985A29F 
 442      FFF251
 443 0e3c CF0CC6E5 		.ascii	"\317\014\306\345\363{\245G\3377\003\000J0\270(\352\015"
 443      F37BA547 
 443      DF370300 
 443      4A30B828 
 443      EA0D
 444 0e4e F3F305F8 		.ascii	"\363\363\005\370\211\306\370y\367d\015\210FbB\274\342"
 444      89C6F879 
 444      F7640D88 
 444      466242BC 
 444      E2
 445 0e5f FE471E9A 		.ascii	"\376G\036\232\361\320\374\012_$\024\015\004\371X\274"
 445      F1D0FC0A 
 445      5F24140D 
 445      04F958BC 
 446 0e6f E2E73366 		.ascii	"\342\3473f\000\206\302\201S\210\306\002\021/t\014\317"
 446      0086C281 
 446      5388C602 
 446      112F740C 
 446      CF
 447 0e80 21EDEE0A 		.ascii	"!\355\356\012\177$\304W\304\3708\317\305|\376\012?\027"
 447      7F24C457 
 447      C4F838CF 
 447      C57CFE0A 
 447      3F17
 448 0e92 ABAAE562 		.ascii	"\253\252\345b|\005\027\013M\251\250\366\371&\303\305"
 448      7C05170B 
 448      4DA9A8F6 
 448      F926C3C5 
 449 0ea2 643E349B 		.ascii	"d>4\233\257\252\342\253\322\017\302\2210?\231\347f\007"
 449      AFAAE2AB 
 449      D20FC291 
 449      303F99E7 
 449      6607
 450 0eb4 264FF54E 		.ascii	"&O\365N\233<\245\362\316\251\217O\251\320\274H\013\020"
 450      9B3CA5F2 
ARM GAS  /tmp/ccoJMWJm.s 			page 36


 450      CEA98F4F 
 450      A9D0BC48 
 450      0B10
 451 0ec6 17AA0261 		.ascii	"\027\252\002a\001K_\003\277wM\361\012\013\320?\217z"
 451      014B5F03 
 451      BF774DF1 
 451      0A0BD03F 
 451      8F7A
 452 0ed8 88F3F903 		.ascii	"\210\363\371\003a\276\302[\305\317\341j\202\202W\321"
 452      61BEC25B 
 452      C5CFE16A 
 452      828257D1 
 453 0ee8 4489D7AB 		.ascii	"D\211\327\253\360CT\032\2108}\221\260\000\032\376a\016"
 453      F043541A 
 453      88387D91 
 453      B0001AFE 
 453      610E
 454 0efa D5FA7D91 		.ascii	"\325\372}\221\030\017\010\245\370\261\0270|\302\374"
 454      180F08A5 
 454      F8B11730 
 454      7CC2FC
 455 0f09 3BAC8CF1 		.ascii	";\254\214\361\316\373q\010\353!\306W\003\263^\201\215"
 455      CEFB7108 
 455      EB21C657 
 455      03B35E81 
 455      8D
 456 0f1a 4D656377 		.ascii	"Mecw\263\261{\330\330\217\331\33046v\257-vg%\264;\331"
 456      B3B17BD8 
 456      D88FD9D8 
 456      343676AF 
 456      2D766725 
 457 0f31 600C7EEE 		.ascii	"`\014~\356rD\275\200\355\304\206\257\345c\360\033\011"
 457      7244BD80 
 457      EDC486AF 
 457      E563F01B 
 457      09
 458 0f42 56F131BB 		.ascii	"V\3611\273\017\324\204\275\201\013\361\305B\\\340\004"
 458      0FD484BD 
 458      810BF1C5 
 458      425CE004 
 459 0f52 DE2B38B1 		.ascii	"\336+8\2610\323\274\202K\022\013\256\240;y\347\024B"
 459      30D3BC82 
 459      4B120BAE 
 459      A03B79E7 
 459      1442
 460 0f64 912A9EDC 		.ascii	"\221*\236\334\317\011r\325q\247\020\343\347\304\211"
 460      CF0972D5 
 460      71A710E3 
 460      E7C489
 461 0f73 D4F8C211 		.ascii	"\324\370\302\021\212W\303KY\0250\\QJ\254\252\016^\025"
 461      8A57C34B 
 461      5915305C 
 461      514AACAA 
 461      0E5E15
 462 0f86 F3F30382 		.ascii	"\363\363\003\202\017\000\212j\205\310\354\377\215^+"
 462      0F008A6A 
 462      85C8ECFF 
ARM GAS  /tmp/ccoJMWJm.s 			page 37


 462      8D5E2B
 463 0f95 BB300CE5 		.ascii	"\2730\014\345c|\330\007\300\216Z"
 463      637CD807 
 463      C08E5A
 464 0fa0 4188459D 		.ascii	"A\210E\235q>,\300\0007\370t\234\017qQ?H\234=sTn\315"
 464      713E2CC0 
 464      0037F874 
 464      9C0F7151 
 464      3F489C3D 
 465 0fb8 63654C90 		.ascii	"ceL\220\360\342\336\307k\370\032\000\233\230\236\022"
 465      F0E2DEC7 
 465      6BF81A00 
 465      9B989E12 
 466 0fc8 F223A7FC 		.ascii	"\362#\247\374\353\360\205\301x\216\270\027~\201\027"
 466      EBF085C1 
 466      788EB817 
 466      7E8117
 467 0fd7 181D2D86 		.ascii	"\030\035-\206\276\241\0320\231\031\231\2200\037\373"
 467      BEA11A30 
 467      99199990 
 467      301FFB
 468 0fe6 7D48460B 		.ascii	"}HF\013y#\265a\320%\031\007R\206\244IU+@\277h)?\017"
 468      7923B561 
 468      D0251907 
 468      5286A449 
 468      552B40BF 
 469 0ffe 0BC1     		.ascii	"\013\301"
 470 1000 C5E7C21B 		.ascii	"\305\347\302\033\276\026_\330\242\336\232\361\012C\301"
 470      BE165FD8 
 470      A2DE9AF1 
 470      0A43C1
 471 100f 401C7898 		.ascii	"@\034x\230\240b\021?qE\275\265\\@\010\204\253K\242^"
 471      A062113F 
 471      7145BDB5 
 471      5C400884 
 471      AB4BA25E 
 472 1023 D0002104 		.ascii	"\320\000!\004\227|\224\017\203\353W\303{\000\307=K\260"
 472      977C940F 
 472      83EB57C3 
 472      7B00C73D 
 472      4BB0
 473 1035 CAB92071 		.ascii	"\312\271 q6x\030\215D\202\327\371\374\277\361W=\302"
 473      3678188D 
 473      4482D7F9 
 473      FCBFF157 
 473      3DC2
 474 1047 07792ECE 		.ascii	"\007y.\316\227G\271\230P^\311\012\321R\362\370\376*"
 474      9747B998 
 474      505EC90A 
 474      D152F2F8 
 474      FE2A
 475 1059 7833C7AD 		.ascii	"x3\307\255\356b\026(\374<\027\005Y\307\205\370P$V\347"
 475      EE621628 
 475      FC3C1705 
 475      59C785F8 
 475      502456E7 
 476 106d C5B75EA1 		.ascii	"\305\267^\241TuW\377\255L\274``6\356@M\300\251\345\323"
ARM GAS  /tmp/ccoJMWJm.s 			page 38


 476      547557FF 
 476      AD4CBC60 
 476      6036EE40 
 476      4DC0A9E5 
 477 1082 CAA7AA83 		.ascii	"\312\247\252\203\000L@\034\305\342\201\337\203\231o"
 477      004C401C 
 477      C5E281DF 
 477      83996F
 478 1091 33B3181F 		.ascii	"3\263\030\037\222g\230\033.\253yaNM\330\347\025J\374"
 478      9267981B 
 478      2EAB7961 
 478      4E4DD8E7 
 478      154AFC
 479 10a4 304B23F3 		.ascii	"0K#\363\0020\003J\211hp\202\353\222\2700\227\013\006"
 479      0230034A 
 479      89687082 
 479      EB92B830 
 479      970B06
 480 10b7 AAC35E81 		.ascii	"\252\303^\201\004\230{\246BWi\022\340K\007yg\307F\266"
 480      04987BA6 
 480      42576912 
 480      E04B0779 
 480      67C746B6 
 481 10cb E351A8C6 		.ascii	"\343Q\250\306\2169@\376\"\277wN\214\347\035~l\0343v"
 481      8E3940FE 
 481      22BF774E 
 481      8CE71D7E 
 481      6C1C3376 
 482 10df 645393E0 		.ascii	"dS\223\340)q\"\331l\006<\026\370\007b\221\320L\300u"
 482      297122D9 
 482      6C063C16 
 482      F8076291 
 482      D04CC075 
 483 10f3 60F0A81D 		.ascii	"`\360\250\035\233\226\215\316\261q\261j\263\234\000"
 483      9B968DCE 
 483      B171B16A 
 483      B39C00
 484 1102 7261E3C7 		.ascii	"ra\343\307U\326\302\367`-\362#I\346\214\372\211s:CR"
 484      55D6C2F7 
 484      602DF223 
 484      49E68CFA 
 484      89733A43 
 485 1117 E41F0FBF 		.ascii	"\344\037\017\2770\005y\237\340\305\"\224\206\242i\205"
 485      3005799F 
 485      E0C52294 
 485      86A26985 
 486 1127 4CA2387A 		.ascii	"L\2428z\210`>\014Xl(Z\342\363\343\253\007@Z\270\304"
 486      88603E0C 
 486      586C285A 
 486      E2F3E3AB 
 486      07405AB8 
 487 113c CCE24BF0 		.ascii	"\314\342K\360\252Y>\377o\271\271|Mt\226[5\376\301R\251"
 487      AA593EFF 
 487      6FB9B97C 
 487      4D74965B 
 487      35FEC152 
 488 1151 D3FDC160 		.ascii	"\323\375\301`\304W*\215%\327\305^/\221\337;N\271(\277"
ARM GAS  /tmp/ccoJMWJm.s 			page 39


 488      C4572A8D 
 488      25D7C55E 
 488      2F91DF3B 
 488      4EB928BF 
 489 1165 676A65A5 		.ascii	"gje\245\351\034\257\303\"B\232\233U\027\377E\3047\327"
 489      E91CAFC3 
 489      22429A9B 
 489      5517FF45 
 489      C437D7
 490 1178 45422660 		.ascii	"EB&`\315-\327\216\002\361*f<4\353\301Y\231\3018`\372"
 490      CD2DD78E 
 490      02F12A66 
 490      3C34EBC1 
 490      5999C138 
 491 118e 420F0021 		.ascii	"B\017\000!\254%/\004\025\301\373\263\373g\375\373\303"
 491      AC252F04 
 491      15C1FBB3 
 491      FB67FDFB 
 491      C3
 492 119f 8F3C388E 		.ascii	"\217<8\216\013\326ruq\010UA\210\355\216y\\\260\206/"
 492      0BD67275 
 492      71085541 
 492      88ED8E79 
 492      5CB0862F 
 493 11b3 25441E0D 		.ascii	"%D\036\015cp)2\327\220k\025\263w\335{\267\232\365)S"
 493      63702932 
 493      D7906B15 
 493      B377DD7B 
 493      B79AF529 
 494 11c8 FE0F47D8 		.ascii	"\376\017G\330\274\341"
 494      BCE1
 495              		.text
 496              		.section	.gnu.lto_.symtab.183f89403f5c7557,"",%progbits
 497 0000 63685468 		.ascii	"chThdAddRef\000\000\000\000\000\000\000\000\000\000"
 497      64416464 
 497      52656600 
 497      00000000 
 497      00000000 
 498 0015 00005701 		.ascii	"\000\000W\001\000\000chThdRelease\000\000\000\000\000"
 498      00006368 
 498      54686452 
 498      656C6561 
 498      73650000 
 499 002c 00000000 		.ascii	"\000\000\000\000\000\000\000]\001\000\000chThdCreat"
 499      0000005D 
 499      01000063 
 499      68546864 
 499      43726561 
 500 0041 6546726F 		.ascii	"eFromHeap\000\000\000\000\000\000\000\000\000\000\000"
 500      6D486561 
 500      70000000 
 500      00000000 
 500      00000000 
 501 0055 00630100 		.ascii	"\000c\001\000\000chThdCreateFromMemoryPool\000\000\000"
 501      00636854 
 501      68644372 
 501      65617465 
ARM GAS  /tmp/ccoJMWJm.s 			page 40


 501      46726F6D 
 502 0076 00000000 		.ascii	"\000\000\000\000\000\000\000\000\000\256\001\000\000"
 502      00000000 
 502      00AE0100 
 502      00
 503 0083 6368506F 		.ascii	"chPoolFree\000\000\002\000\000\000\000\000\000\000\000"
 503      6F6C4672 
 503      65650000 
 503      02000000 
 503      00000000 
 504 0098 00CD0100 		.ascii	"\000\315\001\000\000chHeapFree\000\000\002\000\000\000"
 504      00636848 
 504      65617046 
 504      72656500 
 504      00020000 
 505 00ad 00000000 		.ascii	"\000\000\000\000\000\000\322\001\000\000chSchWakeup"
 505      0000D201 
 505      00006368 
 505      53636857 
 505      616B6575 
 506 00c2 53000002 		.ascii	"S\000\000\002\000\000\000\000\000\000\000\000\000\324"
 506      00000000 
 506      00000000 
 506      00D4
 507 00d0 01000063 		.ascii	"\001\000\000chThdCreateI\000\000\002\000\000\000\000"
 507      68546864 
 507      43726561 
 507      74654900 
 507      00020000 
 508 00e6 00000000 		.ascii	"\000\000\000\000\000\331\001\000\000chHeapAlloc\000"
 508      00D90100 
 508      00636848 
 508      65617041 
 508      6C6C6F63 
 509 00fb 00020000 		.ascii	"\000\002\000\000\000\000\000\000\000\000\000\341\001"
 509      00000000 
 509      000000E1 
 509      01
 510 0108 00006368 		.ascii	"\000\000chPoolAlloc\000\000\002\000\000\000\000\000"
 510      506F6F6C 
 510      416C6C6F 
 510      63000002 
 510      00000000 
 511 011d 00000000 		.ascii	"\000\000\000\000\346\001\000\000"
 511      E6010000 
 512              		.text
 513              		.section	.gnu.lto_.opts,"",%progbits
 514 0000 272D6D63 		.ascii	"'-mcpu=cortex-m4' '-mno-thumb-interwork' '-mthumb' "
 514      70753D63 
 514      6F727465 
 514      782D6D34 
 514      2720272D 
 515 0033 272D6767 		.ascii	"'-ggdb' '-O2' '-fomit-frame-pointer' '-falign-funct"
 515      64622720 
 515      272D4F32 
 515      2720272D 
 515      666F6D69 
ARM GAS  /tmp/ccoJMWJm.s 			page 41


 516 0066 696F6E73 		.ascii	"ions=16' '-ffunction-sections' '-fdata-sections' '-"
 516      3D313627 
 516      20272D66 
 516      66756E63 
 516      74696F6E 
 517 0099 666E6F2D 		.ascii	"fno-common' '-flto'\000"
 517      636F6D6D 
 517      6F6E2720 
 517      272D666C 
 517      746F2700 
 518              		.text
 519              		.cfi_sections	.debug_frame
 520              		.section	.text.chThdAddRef,"ax",%progbits
 521              		.align	2
 522              		.p2align 4,,15
 523              		.global	chThdAddRef
 524              		.thumb
 525              		.thumb_func
 526              		.type	chThdAddRef, %function
 527              	chThdAddRef:
 528              	.LFB241:
 529              		.file 1 "../ChibiOS/os/rt/src/chdynamic.c"
 530              		.loc 1 68 0
 531              		.cfi_startproc
 532              		@ args = 0, pretend = 0, frame = 0
 533              		@ frame_needed = 0, uses_anonymous_args = 0
 534              		@ link register save eliminated.
 535              	.LVL0:
 536              	.LBB63:
 537              	.LBB64:
 538              	.LBB65:
 539              	.LBB66:
 540              		.file 2 "../ChibiOS/os/ext/CMSIS/include/core_cmFunc.h"
 541              		.loc 2 548 0
 542 0000 2022     		movs	r2, #32
 543              	@ 548 "../ChibiOS/os/ext/CMSIS/include/core_cmFunc.h" 1
 544 0002 82F31188 		MSR basepri, r2
 545              	@ 0 "" 2
 546              		.thumb
 547              	.LBE66:
 548              	.LBE65:
 549              	.LBE64:
 550              	.LBE63:
 551              		.loc 1 72 0
 552 0006 827F     		ldrb	r2, [r0, #30]	@ zero_extendqisi2
 553 0008 0132     		adds	r2, r2, #1
 554 000a 8277     		strb	r2, [r0, #30]
 555              	.LVL1:
 556              	.LBB67:
 557              	.LBB68:
 558              	.LBB69:
 559              	.LBB70:
 560              	.LBB71:
 561              		.loc 2 548 0
 562 000c 0023     		movs	r3, #0
 563              	@ 548 "../ChibiOS/os/ext/CMSIS/include/core_cmFunc.h" 1
 564 000e 83F31188 		MSR basepri, r3
ARM GAS  /tmp/ccoJMWJm.s 			page 42


 565              	@ 0 "" 2
 566              		.thumb
 567              	.LBE71:
 568              	.LBE70:
 569              	.LBE69:
 570              	.LBE68:
 571              	.LBE67:
 572              		.loc 1 76 0
 573 0012 7047     		bx	lr
 574              		.cfi_endproc
 575              	.LFE241:
 576              		.size	chThdAddRef, .-chThdAddRef
 577 0014 AFF30080 		.section	.text.chThdRelease,"ax",%progbits
 577      AFF30080 
 577      AFF30080 
 578              		.align	2
 579              		.p2align 4,,15
 580              		.global	chThdRelease
 581              		.thumb
 582              		.thumb_func
 583              		.type	chThdRelease, %function
 584              	chThdRelease:
 585              	.LFB242:
 586              		.loc 1 91 0
 587              		.cfi_startproc
 588              		@ args = 0, pretend = 0, frame = 0
 589              		@ frame_needed = 0, uses_anonymous_args = 0
 590              		@ link register save eliminated.
 591              	.LVL2:
 592              		.loc 1 91 0
 593 0000 0146     		mov	r1, r0
 594              	.LBB92:
 595              	.LBB93:
 596              	.LBB94:
 597              	.LBB95:
 598              		.loc 2 548 0
 599 0002 2023     		movs	r3, #32
 600              	@ 548 "../ChibiOS/os/ext/CMSIS/include/core_cmFunc.h" 1
 601 0004 83F31188 		MSR basepri, r3
 602              	@ 0 "" 2
 603              		.thumb
 604              	.LBE95:
 605              	.LBE94:
 606              	.LBE93:
 607              	.LBE92:
 608              		.loc 1 96 0
 609 0008 837F     		ldrb	r3, [r0, #30]	@ zero_extendqisi2
 610 000a 013B     		subs	r3, r3, #1
 611 000c DBB2     		uxtb	r3, r3
 612 000e 8377     		strb	r3, [r0, #30]
 613              	.LVL3:
 614              	.LBB96:
 615              	.LBB97:
 616              	.LBB98:
 617              	.LBB99:
 618              	.LBB100:
 619              		.loc 2 548 0
ARM GAS  /tmp/ccoJMWJm.s 			page 43


 620 0010 0022     		movs	r2, #0
 621              	@ 548 "../ChibiOS/os/ext/CMSIS/include/core_cmFunc.h" 1
 622 0012 82F31188 		MSR basepri, r2
 623              	@ 0 "" 2
 624              		.thumb
 625              	.LBE100:
 626              	.LBE99:
 627              	.LBE98:
 628              	.LBE97:
 629              	.LBE96:
 630              		.loc 1 103 0
 631 0016 13B9     		cbnz	r3, .L2
 632              		.loc 1 103 0 is_stmt 0 discriminator 1
 633 0018 037F     		ldrb	r3, [r0, #28]	@ zero_extendqisi2
 634              	.LVL4:
 635 001a 0F2B     		cmp	r3, #15
 636 001c 00D0     		beq	.L7
 637              	.L2:
 638 001e 7047     		bx	lr
 639              	.L7:
 640              		.loc 1 104 0 is_stmt 1
 641 0020 437F     		ldrb	r3, [r0, #29]	@ zero_extendqisi2
 642 0022 03F00303 		and	r3, r3, #3
 643 0026 012B     		cmp	r3, #1
 644 0028 02D0     		beq	.L4
 645 002a 022B     		cmp	r3, #2
 646 002c 07D0     		beq	.L5
 647 002e 7047     		bx	lr
 648              	.L4:
 649              		.loc 1 108 0
 650 0030 4369     		ldr	r3, [r0, #20]
 651 0032 0269     		ldr	r2, [r0, #16]
 652 0034 1A61     		str	r2, [r3, #16]
 653 0036 0269     		ldr	r2, [r0, #16]
 654 0038 5361     		str	r3, [r2, #20]
 655              		.loc 1 110 0
 656 003a FFF7FEBF 		b	chHeapFree
 657              	.LVL5:
 658              	.L5:
 659              	.LBB101:
 660              	.LBB102:
 661              		.loc 1 116 0
 662 003e 4369     		ldr	r3, [r0, #20]
 663 0040 0269     		ldr	r2, [r0, #16]
 664 0042 1A61     		str	r2, [r3, #16]
 665 0044 0269     		ldr	r2, [r0, #16]
 666              		.loc 1 118 0
 667 0046 C06B     		ldr	r0, [r0, #60]
 668              	.LVL6:
 669              		.loc 1 116 0
 670 0048 5361     		str	r3, [r2, #20]
 671              		.loc 1 118 0
 672 004a FFF7FEBF 		b	chPoolFree
 673              	.LVL7:
 674              	.LBE102:
 675              	.LBE101:
 676              		.cfi_endproc
ARM GAS  /tmp/ccoJMWJm.s 			page 44


 677              	.LFE242:
 678              		.size	chThdRelease, .-chThdRelease
 679 004e 00BF     		.section	.text.chThdCreateFromHeap,"ax",%progbits
 680              		.align	2
 681              		.p2align 4,,15
 682              		.global	chThdCreateFromHeap
 683              		.thumb
 684              		.thumb_func
 685              		.type	chThdCreateFromHeap, %function
 686              	chThdCreateFromHeap:
 687              	.LFB243:
 688              		.loc 1 153 0
 689              		.cfi_startproc
 690              		@ args = 4, pretend = 0, frame = 0
 691              		@ frame_needed = 0, uses_anonymous_args = 0
 692              	.LVL8:
 693 0000 F0B5     		push	{r4, r5, r6, r7, lr}
 694              		.cfi_def_cfa_offset 20
 695              		.cfi_offset 4, -20
 696              		.cfi_offset 5, -16
 697              		.cfi_offset 6, -12
 698              		.cfi_offset 7, -8
 699              		.cfi_offset 14, -4
 700 0002 83B0     		sub	sp, sp, #12
 701              		.cfi_def_cfa_offset 32
 702              		.loc 1 153 0
 703 0004 1746     		mov	r7, r2
 704 0006 1E46     		mov	r6, r3
 705 0008 0D46     		mov	r5, r1
 706              		.loc 1 157 0
 707 000a FFF7FEFF 		bl	chHeapAlloc
 708              	.LVL9:
 709              		.loc 1 158 0
 710 000e 98B1     		cbz	r0, .L9
 711              	.LVL10:
 712              	.LBB103:
 713              	.LBB104:
 714              	.LBB105:
 715              	.LBB106:
 716              		.loc 2 548 0
 717 0010 2023     		movs	r3, #32
 718              	@ 548 "../ChibiOS/os/ext/CMSIS/include/core_cmFunc.h" 1
 719 0012 83F31188 		MSR basepri, r3
 720              	@ 0 "" 2
 721              		.thumb
 722              	.LBE106:
 723              	.LBE105:
 724              	.LBE104:
 725              	.LBE103:
 726              		.loc 1 172 0
 727 0016 089B     		ldr	r3, [sp, #32]
 728 0018 0093     		str	r3, [sp]
 729 001a 2946     		mov	r1, r5
 730 001c 3A46     		mov	r2, r7
 731 001e 3346     		mov	r3, r6
 732 0020 FFF7FEFF 		bl	chThdCreateI
 733              	.LVL11:
ARM GAS  /tmp/ccoJMWJm.s 			page 45


 734              		.loc 1 173 0
 735 0024 0123     		movs	r3, #1
 736 0026 4377     		strb	r3, [r0, #29]
 737              		.loc 1 174 0
 738 0028 0021     		movs	r1, #0
 739              		.loc 1 172 0
 740 002a 0446     		mov	r4, r0
 741              	.LVL12:
 742              		.loc 1 174 0
 743 002c FFF7FEFF 		bl	chSchWakeupS
 744              	.LVL13:
 745              	.LBB107:
 746              	.LBB108:
 747              	.LBB109:
 748              	.LBB110:
 749              	.LBB111:
 750              		.loc 2 548 0
 751 0030 0023     		movs	r3, #0
 752              	@ 548 "../ChibiOS/os/ext/CMSIS/include/core_cmFunc.h" 1
 753 0032 83F31188 		MSR basepri, r3
 754              	@ 0 "" 2
 755              		.thumb
 756              	.LBE111:
 757              	.LBE110:
 758              	.LBE109:
 759              	.LBE108:
 760              	.LBE107:
 761              		.loc 1 177 0
 762 0036 2046     		mov	r0, r4
 763              	.LVL14:
 764              	.L9:
 765              		.loc 1 178 0
 766 0038 03B0     		add	sp, sp, #12
 767              		@ sp needed
 768 003a F0BD     		pop	{r4, r5, r6, r7, pc}
 769              		.cfi_endproc
 770              	.LFE243:
 771              		.size	chThdCreateFromHeap, .-chThdCreateFromHeap
 772 003c AFF30080 		.section	.text.chThdCreateFromMemoryPool,"ax",%progbits
 773              		.align	2
 774              		.p2align 4,,15
 775              		.global	chThdCreateFromMemoryPool
 776              		.thumb
 777              		.thumb_func
 778              		.type	chThdCreateFromMemoryPool, %function
 779              	chThdCreateFromMemoryPool:
 780              	.LFB244:
 781              		.loc 1 205 0
 782              		.cfi_startproc
 783              		@ args = 0, pretend = 0, frame = 0
 784              		@ frame_needed = 0, uses_anonymous_args = 0
 785              	.LVL15:
 786 0000 F0B5     		push	{r4, r5, r6, r7, lr}
 787              		.cfi_def_cfa_offset 20
 788              		.cfi_offset 4, -20
 789              		.cfi_offset 5, -16
 790              		.cfi_offset 6, -12
ARM GAS  /tmp/ccoJMWJm.s 			page 46


 791              		.cfi_offset 7, -8
 792              		.cfi_offset 14, -4
 793 0002 83B0     		sub	sp, sp, #12
 794              		.cfi_def_cfa_offset 32
 795              		.loc 1 205 0
 796 0004 0F46     		mov	r7, r1
 797 0006 1646     		mov	r6, r2
 798 0008 1C46     		mov	r4, r3
 799 000a 0546     		mov	r5, r0
 800              		.loc 1 211 0
 801 000c FFF7FEFF 		bl	chPoolAlloc
 802              	.LVL16:
 803              		.loc 1 212 0
 804 0010 98B1     		cbz	r0, .L12
 805              	.LVL17:
 806              	.LBB112:
 807              	.LBB113:
 808              	.LBB114:
 809              	.LBB115:
 810              		.loc 2 548 0
 811 0012 2023     		movs	r3, #32
 812              	@ 548 "../ChibiOS/os/ext/CMSIS/include/core_cmFunc.h" 1
 813 0014 83F31188 		MSR basepri, r3
 814              	@ 0 "" 2
 815              		.thumb
 816              	.LBE115:
 817              	.LBE114:
 818              	.LBE113:
 819              	.LBE112:
 820              		.loc 1 226 0
 821 0018 6968     		ldr	r1, [r5, #4]
 822 001a 0094     		str	r4, [sp]
 823 001c 3A46     		mov	r2, r7
 824 001e 3346     		mov	r3, r6
 825 0020 FFF7FEFF 		bl	chThdCreateI
 826              	.LVL18:
 827              		.loc 1 227 0
 828 0024 0223     		movs	r3, #2
 829 0026 4377     		strb	r3, [r0, #29]
 830              		.loc 1 228 0
 831 0028 C563     		str	r5, [r0, #60]
 832              		.loc 1 229 0
 833 002a 0021     		movs	r1, #0
 834              		.loc 1 226 0
 835 002c 0446     		mov	r4, r0
 836              	.LVL19:
 837              		.loc 1 229 0
 838 002e FFF7FEFF 		bl	chSchWakeupS
 839              	.LVL20:
 840              	.LBB116:
 841              	.LBB117:
 842              	.LBB118:
 843              	.LBB119:
 844              	.LBB120:
 845              		.loc 2 548 0
 846 0032 0023     		movs	r3, #0
 847              	@ 548 "../ChibiOS/os/ext/CMSIS/include/core_cmFunc.h" 1
ARM GAS  /tmp/ccoJMWJm.s 			page 47


 848 0034 83F31188 		MSR basepri, r3
 849              	@ 0 "" 2
 850              		.thumb
 851              	.LBE120:
 852              	.LBE119:
 853              	.LBE118:
 854              	.LBE117:
 855              	.LBE116:
 856              		.loc 1 232 0
 857 0038 2046     		mov	r0, r4
 858              	.LVL21:
 859              	.L12:
 860              		.loc 1 233 0
 861 003a 03B0     		add	sp, sp, #12
 862              		@ sp needed
 863 003c F0BD     		pop	{r4, r5, r6, r7, pc}
 864              		.cfi_endproc
 865              	.LFE244:
 866              		.size	chThdCreateFromMemoryPool, .-chThdCreateFromMemoryPool
 867 003e 00BF     		.text
 868              	.Letext0:
 869              		.file 3 "/nfs/nfs5/home/research/hardware/arm2/gcc-arm-embedded/gcc-arm-none-eabi-4_8-2014q2/lib/g
 870              		.file 4 "/nfs/nfs5/home/research/hardware/arm2/gcc-arm-embedded/gcc-arm-none-eabi-4_8-2014q2/arm-n
 871              		.file 5 "/nfs/nfs5/home/research/hardware/arm2/gcc-arm-embedded/gcc-arm-none-eabi-4_8-2014q2/arm-n
 872              		.file 6 "../ChibiOS/os/rt/ports/ARMCMx/compilers/GCC/chtypes.h"
 873              		.file 7 "../ChibiOS/os/rt/include/chsystypes.h"
 874              		.file 8 "../ChibiOS/os/rt/include/chschd.h"
 875              		.file 9 "../ChibiOS/os/rt/ports/ARMCMx/chcore.h"
 876              		.file 10 "../ChibiOS/os/rt/ports/ARMCMx/chcore_v7m.h"
 877              		.file 11 "../ChibiOS/os/rt/include/chtm.h"
 878              		.file 12 "../ChibiOS/os/rt/include/chsem.h"
 879              		.file 13 "../ChibiOS/os/rt/include/chmtx.h"
 880              		.file 14 "../ChibiOS/os/rt/include/chthreads.h"
 881              		.file 15 "../ChibiOS/os/rt/include/chmemcore.h"
 882              		.file 16 "../ChibiOS/os/rt/include/chheap.h"
 883              		.file 17 "../ChibiOS/os/rt/include/chmempools.h"
 884              		.file 18 "../ChibiOS/os/rt/include/chsys.h"
 885              		.file 19 "../ChibiOS/os/ext/CMSIS/include/core_cm4.h"