ARM GAS  /tmp/ccLwYPKd.s 			page 1


   1              		.syntax unified
   2              		.cpu cortex-m4
   3              		.fpu softvfp
   4              		.eabi_attribute 20, 1
   5              		.eabi_attribute 21, 1
   6              		.eabi_attribute 23, 3
   7              		.eabi_attribute 24, 1
   8              		.eabi_attribute 25, 1
   9              		.eabi_attribute 26, 1
  10              		.eabi_attribute 30, 2
  11              		.eabi_attribute 34, 1
  12              		.eabi_attribute 18, 4
  13              		.thumb
  14              		.file	"chmempools.c"
  15              		.text
  16              	.Ltext0:
  17              		.section	.gnu.lto_.jmpfuncs.3bcfa1fa686a46b9,"",%progbits
  18 0000 789C6362 		.ascii	"x\234cb`b\300\006\244\2414\033\003;#;\023##\220y\200"
  18      6062C006 
  18      A4A1341B 
  18      033B233B 
  18      13232390 
  19 0016 818D19C4 		.ascii	"\201\215\031\304\250g``afef\000\000\027\362\001\222"
  19      A8676060 
  19      61666566 
  19      000017F2 
  19      0192
  20              		.text
  21              		.section	.gnu.lto_.inline.3bcfa1fa686a46b9,"",%progbits
  22 0000 789C6D4F 		.ascii	"x\234mO!\016\302@\020\234\335\273\366\332\006\002-\002"
  22      210EC240 
  22      109CDDBB 
  22      F6DA0602 
  22      2D02
  23 0012 090E4750 		.ascii	"\011\016GP\325}\001\032\215\001~Q\211 )\022C\202E`I"
  23      D57D011A 
  23      8D017E51 
  23      89202912 
  23      43824560 
  24 0027 9F81AC42 		.ascii	"\237\201\254B\203\343\011\354\335\0015\\.\2673;s\231"
  24      83E309EC 
  24      DD01355C 
  24      2EB7333B 
  24      7399
  25 0039 5D06E3DF 		.ascii	"]\006\343\337I\311\327Pn@`U\017\0217\2713\023\272O\020"
  25      49C9D750 
  25      6E406055 
  25      0F1137B9 
  25      3313BA4F 
  26 004e B1B5705A 		.ascii	"\261\265pZ\335\023\304\307\0353\264\345H\0232X/hce\005"
  26      DD13C4C7 
  26      1D33B4E5 
  26      48133258 
  26      2F686365 
  27 0063 AC5AE8BA 		.ascii	"\254Z\350\272\202U\341\273\036\222\323Z<Nl\356i\304"
  27      8255E1BB 
  27      1E92D35A 
ARM GAS  /tmp/ccLwYPKd.s 			page 2


  27      3C4E6CEE 
  27      69C4
  28 0075 A0872918 		.ascii	"\240\207)\030\301v\"BC%EB\352H*\350L%\367\205\177\000"
  28      C1762242 
  28      43254542 
  28      EA482AE8 
  28      4C25F785 
  29 008b D425D3A0 		.ascii	"\324%\323\240*\324n\302 \205\364h?W\030td\372\354\272"
  29      2AD46EC2 
  29      2085F468 
  29      3F571874 
  29      64FAECBA 
  30 009f 4472987D 		.ascii	"Dr\230}5\253h\273\027\371p\315\267\036\242\327\324%"
  30      35AB68BB 
  30      17F970CD 
  30      B71EA2D7 
  30      D425
  31 00b1 6AFF3A2B 		.ascii	"j\377:+\"#\277M\223\377v\307\033\257\224\037\255"
  31      2223BF4D 
  31      93FF76C7 
  31      1BAF941F 
  31      AD
  32              		.text
  33              		.section	.gnu.lto_.pureconst.3bcfa1fa686a46b9,"",%progbits
  34 0000 789C6362 		.ascii	"x\234cb`b\340e\200\0006\006)F+&)f+\026)V+\000\007\246"
  34      6062E065 
  34      80003606 
  34      29462B26 
  34      29662B16 
  35 001a 0123     		.ascii	"\001#"
  36              		.text
  37              		.section	.gnu.lto_chPoolObjectInit.3bcfa1fa686a46b9,"",%progbits
  38 0000 789C6362 		.ascii	"x\234cb`b@\007\222@,\305\310\300\240\002\244\031\231"
  38      60624007 
  38      92402CC5 
  38      C8C0A002 
  38      A41999
  39 0013 19189926 		.ascii	"\031\030\231&\234c`h\344`bd\0041\030\030\031\352\231"
  39      9C636068 
  39      E4606264 
  39      04311818 
  39      19EA99
  40 0026 18EB2319 		.ascii	"\030\353#\031\301j\3273\035x\360\377\377\272mm\347\017"
  40      C16AD733 
  40      1D78F0FF 
  40      FFBA6D6D 
  40      E70F
  41 0038 32AE5206 		.ascii	"2\256R\006\252\311ed`\001\022\214l@\002d4+CKC\303\004"
  41      AAC96564 
  41      6001128C 
  41      6C400264 
  41      342B434B 
  42 004f 855CA041 		.ascii	"\205\\\240A\014\311`=!@\022dP(P\036H3\237eh\332\361"
  42      0CC9603D 
  42      21401264 
  42      5028501E 
  42      48339F65 
ARM GAS  /tmp/ccLwYPKd.s 			page 3


  43 0066 E3F90FC6 		.ascii	"\343\371\017\306D\306\205\214\254\014\332\014\253\032"
  43      44C6858C 
  43      AC0CDA0C 
  43      AB1A
  44 0074 80803B93 		.ascii	"\200\200;\223\221a6\303,\306LF\306tF\246\010 \015qg"
  44      916136C3 
  44      2CC64C46 
  44      C67446A6 
  44      08200D71 
  45 0089 12C45A06 		.ascii	"\022\304Z\006\220\010\230\001\324}z\306\253\017L\350"
  45      90089801 
  45      D47D7AC6 
  45      AB0F4CE8 
  46 0099 BA99B1EB 		.ascii	"\272\231\261\353\206hJgd\201\350\334\361\352\006\206"
  46      86684A67 
  46      6481E8DC 
  46      F1EA0686 
  47 00a9 4E16EC3A 		.ascii	"N\026\354:\231\240:\331\030\030.24>X\245\014\321\007"
  47      99A03AD9 
  47      18182E32 
  47      343E58A5 
  47      0CD107
  48 00bc 032140A3 		.ascii	"\003!@\243\201\276\001\251R\322\323\323w\316\310L\312"
  48      81BE01A9 
  48      52D2D3D3 
  48      77CEC84C 
  48      CA
  49 00cd F40FD6CF 		.ascii	"\364\017\326\317/\326/*\321/.J\326O\316\310M\315-\310"
  49      2FD62F2A 
  49      D12F2E4A 
  49      D64FCEC8 
  49      4DCD2DC8 
  50 00e1 CFCF29D6 		.ascii	"\317\317)\326Kf\000\000\373'M:"
  50      4B660000 
  50      FB274D3A 
  51              		.text
  52              		.section	.gnu.lto_chPoolLoadArray.3bcfa1fa686a46b9,"",%progbits
  53 0000 789CBD54 		.ascii	"x\234\275T]h\023[\020\2369g7i\223H\365\355\"\022cE\021"
  53      5D68135B 
  53      109E3967 
  53      37699348 
  53      F5ED2212 
  54 0017 2B8D6F3E 		.ascii	"+\215o>\011W\012\202\017E\264\026\364I\266kHW\232&$"
  54      09570A82 
  54      0F45B416 
  54      F449B66B 
  54      48579A26 
  55 002c ADE893A7 		.ascii	"\255\350\223\247m\374\001k)U\360\247\012\376\377!\212"
  55      6DFC016B 
  55      2955F0A7 
  55      0AFEFF21 
  55      8A
  56 003d D63FAA68 		.ascii	"\326?\252hT\356m\213Z\360I[|\210\240(\364>\334\313\005"
  56      54EE6D8B 
  56      5AF0495B 
  56      7C88A028 
  56      F43EDCCB 
ARM GAS  /tmp/ccLwYPKd.s 			page 4


  57 0052 4110E29C 		.ascii	"A\020\342\234s\262\233\304\252y\020<\260\273\347\234"
  57      73B29BC4 
  57      AA79103C 
  57      B0BBE79C 
  58 0062 99F966E6 		.ascii	"\231\371f\346\233\331a\300\340\333\265\232\236m>\200"
  58      9BD961C0 
  58      E0DBB59A 
  58      9E6D3E80 
  59 0072 4FF4451F 		.ascii	"O\364E\037 \033\234\004\350\251ah\350\015\327\233\307"
  59      201B9C04 
  59      E8A96168 
  59      E80DD79B 
  59      C7
  60 0083 3506E3FD 		.ascii	"5\006\343\375c\000\"`f\375 B&\242\274\007\204\335\214"
  60      63002260 
  60      66FD2042 
  60      26A2BC07 
  60      84DD8C
  61 0096 1B26EEDE 		.ascii	"\033&\356\336\202\012\357:\313\345\013\205kC\373\036"
  61      820AEF3A 
  61      CBE50B85 
  61      6B43FB1E 
  62 00a6 3EC7936C 		.ascii	">\307\223l\036B\002\311k\002\321@\332\231\364B?\275"
  62      1E4202C9 
  62      6B02D140 
  62      DA99F442 
  62      3FBD
  63 00b8 582D3808 		.ascii	"X-8\010\001)\015Ji\210\216\022\300\204\254\020\203\221"
  63      01290D4A 
  63      69888E12 
  63      C084AC10 
  63      8391
  64 00ca 0472005B 		.ascii	"\004r\000[!n\2427ylEF\037>\001Oj\200\014\014\202\320"
  64      216EA237 
  64      796C4546 
  64      1F3E014F 
  64      6A800C0C 
  65 00e0 09B4922A 		.ascii	"\011\264\222*\005F\222\336\374\344S\277\205\247\321"
  65      054692DE 
  65      FCE453BF 
  65      85A7D1
  66 00ef 24059374 		.ascii	"$\005\223t\000&\200\351\213z8-\304P\356\320\276g(\206"
  66      002680E9 
  66      8B7A382D 
  66      C450EED0 
  66      BE672886 
  67 0103 44CFBF85 		.ascii	"D\317\277\205B\235\203\214\301\022\224n6\243\203<\242"
  67      429D838C 
  67      C112946E 
  67      36A3833C 
  67      A2
  68 0114 3E8651C9 		.ascii	">\206Q\311O\\\206E\330\312\253\217p\335\223F\314\337"
  68      4F5C8645 
  68      D8CAAB8F 
  68      70DD9346 
  68      CCDF
  69 0126 7E7F78C5 		.ascii	"~\177x\3051\221\313\236\022_\012\005$\000\223\301\206"
ARM GAS  /tmp/ccLwYPKd.s 			page 5


  69      3191CB9E 
  69      125F0A05 
  69      240093C1 
  69      86
  70 0137 6AA08454 		.ascii	"j\240\204T\011#n\012Q\253 8!Xx\236\262\373\025\010\312"
  70      09236E0A 
  70      51AB2038 
  70      2158789E 
  70      B2FB1508 
  71 014c FA6C5588 		.ascii	"\372lU\210\262\324\212\311\274\336\373\334_\221\214"
  71      B2D48AC9 
  71      BCDEFBDC 
  71      5F918C
  72 015b 8F81C06A 		.ascii	"\217\201\300j\331\310;_\2046\223\320\373\337\300\236"
  72      D9C83B5F 
  72      843693D0 
  72      FBDFC09E 
  73 016b 917E5EAC 		.ascii	"\221~^\254\242[\316\334\310\301Ku\313,\274\204\365^"
  73      A25BCEDC 
  73      C8C14B75 
  73      CB2CBC84 
  73      F55E
  74 017d 8973778F 		.ascii	"\211sw\217<\010.\360N\023\177qo?3}y>Zx\221\264-\274"
  74      3C082EF0 
  74      4E137F71 
  74      6F3F337D 
  74      793E5A78 
  75 0195 506E73E0 		.ascii	"Pns\340\303[n\3419%8\243\004\272\272\266\212Q\346\313"
  75      C35B6EE1 
  75      392538A3 
  75      04BABAB6 
  75      8A51E6CB 
  76 01a9 E931E831 		.ascii	"\3511\3501A\365&\302+\272\242N\341\272\365\303\360\021"
  76      41F526C2 
  76      2BBAA24E 
  76      E1BAF5C3 
  76      F011
  77 01bb 4F8AA37F 		.ascii	"O\212\243\177:\350\257\210\274$\237)\312ktn\345\364"
  77      3AE8AF88 
  77      BC249F29 
  77      CA6B746E 
  77      E5F4
  78 01cd E40E0D94 		.ascii	"\344\016\015\224w\317\357.S\376\315\373`\221\330\357"
  78      77CFEF2E 
  78      53FECDFB 
  78      6091D8EF 
  79 01dd 4011CCFF 		.ascii	"@\021\314\377U+\345\022)FN\204-\274\243x\274]\344\361"
  79      552BE512 
  79      29464E84 
  79      2DBCA378 
  79      BC5DE4F1 
  80 01f1 9AE2D107 		.ascii	"\232\342\321\007\352p\217.\225\337\027\320;}o\364-\005"
  80      EA708F2E 
  80      95DF17D0 
  80      3B7D6FF4 
  80      2D05
  81 0203 7A97E471 		.ascii	"z\227\344q\014\015\303\361\036!\346\222\3038\372\245"
ARM GAS  /tmp/ccLwYPKd.s 			page 6


  81      0C0DC3F1 
  81      1E21E692 
  81      C338FAA5 
  82 0213 8FDA2232 		.ascii	"\217\332\"2iN\014\006\264^\003\\\021\264\346\220\226"
  82      694E0C06 
  82      B45E035C 
  82      11B4E690 
  82      96
  83 0224 A71F203C 		.ascii	"\247\037 <\251\257\307D\033*?\243\262P\204\252\315_"
  83      A9AFC744 
  83      1B2A3FA3 
  83      B25084AA 
  83      CD5F
  84 0236 8F7E460D 		.ascii	"\217~F\015\360\003/\263;vj\357\2731\034\352\023\343"
  84      F0032FB3 
  84      3B766AEF 
  84      BB311CEA 
  84      13E3
  85 0248 229BA396 		.ascii	"\"\233\243\226]H\365\264\360rUNU\341\341\347-\373L\266"
  85      5D48F5B4 
  85      F072554E 
  85      55E1E1E7 
  85      2DFB4CB6 
  86 025c ECA3CA96 		.ascii	"\354\243\312\226\235\011\206\275\031U\352\335\277y\211"
  86      9D0986BD 
  86      1955EADD 
  86      BF7989
  87 026b 40D55736 		.ascii	"@\325W6\265\317\354\036\264\360\006m<\327n\317Yx\013"
  87      B5CFEC1E 
  87      B4F0066D 
  87      3CD76ECF 
  87      59780B
  88 027e C31E87D3 		.ascii	"\303\036\207\323G?\215\033\272\253\343X\333\000\313"
  88      473F8D1B 
  88      BAABE358 
  88      DB00CB
  89 028d 1D0C6A36 		.ascii	"\035\014j6\3040Y\206\212|\230E\026\321c\277\357@_\330"
  89      C4305986 
  89      8A7C9845 
  89      16D163BF 
  89      EF405FD8 
  90 02a1 B5935CC7 		.ascii	"\265\223\\\307%g\336\374\2439K\327Jo\177\337\314\200"
  90      2567DEFC 
  90      A3394BD7 
  90      4A6F7FDF 
  90      CC80
  91 02b3 CFD50CC6 		.ascii	"\317\325\014\306\221I\274`\201V\035TX\020DP\243\267"
  91      9149BC60 
  91      81561D54 
  91      58104450 
  91      A3B7
  92 02c5 D23F45D3 		.ascii	"\322?E\323\236\273s\220$\2544\025uY\306!\373\317\343"
  92      9EBB7390 
  92      24AC3415 
  92      7559C621 
  92      FBCFE3
  93 02d8 E1B1908B 		.ascii	"\341\261\220\213\254aK\224O\001Y\031\214^\001\336\177"
ARM GAS  /tmp/ccLwYPKd.s 			page 7


  93      AC614B94 
  93      4F015919 
  93      8C5E01DE 
  93      7F
  94 02e9 7FC114B0 		.ascii	"\177\301\024\2608\315J\351\203_\275\377\207\364a\312"
  94      38CD4AE9 
  94      835FBDFF 
  94      87F461CA 
  95 02f9 01FF127A 		.ascii	"\001\377\022z\362o\026k\020wm\"\374\254_\222U\337\330"
  95      F26F166B 
  95      10776D22 
  95      FCAC5F92 
  95      55DFD8
  96 030c 186D6A77 		.ascii	"\030mjw\332\234\365-\321d&\232\356\212f\322v\324nO\304"
  96      DA9CF52D 
  96      D164269A 
  96      EE8A66D2 
  96      76D46E4F 
  97 0321 12A964B2 		.ascii	"\022\251d\262#\323h\203\221l\333\236Z:K\317\351\264"
  97      23D36883 
  97      916CDB9E 
  97      5A3A4BCF 
  97      E9B4
  98 0333 3BBAB7C5 		.ascii	";\272\267\305\312u\333\201%R\015\2634S\311tW&\272fc"
  98      CA75DB81 
  98      25520DB3 
  98      3453C974 
  98      5726BA66 
  99 0348 7353F34E 		.ascii	"sS\363NR\267\223\351\330\326\035\253\022\244n\356\260"
  99      52B793E9 
  99      D8D61DAB 
  99      12A46EEE 
  99      B0
 100 0359 3ABA638D 		.ascii	":\272c\215\225\026\261\235]\321\246\346\226u-%\027\322"
 100      9516B19D 
 100      5DD1A6E6 
 100      96752D25 
 100      17D2
 101 036b C24EACED 		.ascii	"\302N\254\355\356\264\311h\321OB\311\354\222Q\314mn"
 101      EEB4C968 
 101      D14F42C9 
 101      EC9251CC 
 101      6D6E
 102 037d D91869B3 		.ascii	"\331\030i\2632\261T\332Y\021Y\262\022X\032\374\024e"
 102      32B154DA 
 102      591159B2 
 102      12581AFC 
 102      1465
 103 038f 32BD0B78 		.ascii	"2\275\013x\252=\365\025\352\274\301k"
 103      AA3DF515 
 103      EABCC16B 
 104              		.text
 105              		.section	.gnu.lto_chPoolAllocI.3bcfa1fa686a46b9,"",%progbits
 106 0000 789C8552 		.ascii	"x\234\205R=L\024A\024~\337\374,\267w\030\211\225\241"
 106      3D4C1441 
 106      147EDFFC 
 106      2CB77718 
ARM GAS  /tmp/ccLwYPKd.s 			page 8


 106      8995A1
 107 0013 2224144A 		.ascii	"\"$\024Jr[\032\013*K\012\013%\321NnC\2705^\216p\266"
 107      725B1A0B 
 107      2A4B0A0B 
 107      25D14E6E 
 107      43B8355E 
 108 002a 86397295 		.ascii	"\2069r\225\261\000*\220\020\005bc\203%\205\011k\007"
 108      B1002A90 
 108      10056263 
 108      83258509 
 108      6B07
 109 003c 893FA103 		.ascii	"\211?\241\003\253\2135\015!&\026\204\365\315\354\316"
 109      AB8B350D 
 109      21261684 
 109      F5CDECCE 
 110 004c 26A7264E 		.ascii	"&\247&N\262\363v\336\314\367\363\336\214 A\177\216i"
 110      B2F376DE 
 110      CCF7F3DE 
 110      8C20417F 
 110      8E69
 111 005e FEF6387D 		.ascii	"\376\3668}\213#\206\010b\345+Q\267\"\204\334\232\"S"
 111      8B238608 
 111      62E52B51 
 111      B72284DC 
 111      9A2253
 112 0071 55172364 		.ascii	"U\027#d\206%\202<\255\204\336\264\351\340\247Mk\237"
 112      8625823C 
 112      AD84DEB4 
 112      E9E0A74D 
 112      6B9F
 113 0083 0E00FB43 		.ascii	"\016\000\373C\240%!\225\016\260\364\030\226\034\343"
 113      A0252195 
 113      0EB0F418 
 113      961CE3
 114 0092 B46DCC5A 		.ascii	"\264m\314Z\377\335\325!6L\332{k.\263\014H\300F&@1\350"
 114      FFDDD521 
 114      364CDA7B 
 114      6B2EB30C 
 114      48C04626 
 115 00a9 112F30E6 		.ascii	"\021/0\346\202P\203\316\366D\332\317\262W\007\037\177"
 115      825083CE 
 115      F644DACF 
 115      B257071F 
 115      7F
 116 00ba 6CE0C630 		.ascii	"l\340\3060h\026\333\314\247\320\002\351b\021P\002Y\341"
 116      6816DBCC 
 116      A7D002E9 
 116      62115002 
 116      59E1
 117 00cc 49853CE9 		.ascii	"I\205<\351Z\221\346\241\251g\314\312X\276n\201\335\304"
 117      5A91E6A1 
 117      A967CCCA 
 117      58BE6E81 
 117      DDC4
 118 00de CED1439E 		.ascii	"\316\321C\236\255\325\031\010\033\345\027Z\376~\222"
 118      ADD51908 
 118      1BE5175A 
ARM GAS  /tmp/ccLwYPKd.s 			page 9


 118      FE7E92
 119 00ed A598C52E 		.ascii	"\245\230\305.4\315CO\322{\303\343.\023o\322k\266\025"
 119      34CD434F 
 119      D27BC3E3 
 119      2E136FD2 
 119      6BB615
 120 0100 CC43597B 		.ascii	"\314CY{C\316T\003\336\336\021-\2477sX\256\302`\242C"
 120      43CE5403 
 120      DEDE112D 
 120      A7377358 
 120      AEC260A2 
 121 0115 EA9D7D5A 		.ascii	"\352\235}Z})K>\013\035(k\006\222\266\246\234\360\376"
 121      7D294B3E 
 121      0B1D286B 
 121      0692B6A6 
 121      9CF0FE
 122 0128 CE797930 		.ascii	"\316yy0\230\244\333\245f\245\000\312B\32330\350\350"
 122      98A4DBA5 
 122      66A500CA 
 122      42D33330 
 122      E8E8
 123 013a 43358714 		.ascii	"C5\207\024F\257\377\307(3{]E\027#N\367\327\316yYp\305"
 123      46AFFFC7 
 123      28337B5D 
 123      4517234E 
 123      F7D7CE79 
 124 0151 E986FFA6 		.ascii	"\351\206\377\246\360\317\305V\325\275SB\354\221p\260"
 124      F0CFC556 
 124      D5BD5342 
 124      EC9170B0 
 125 0161 264D6FAE 		.ascii	"&Mo\2569\356\365\335\323\262\246\320qW\231\273\313N"
 125      39EEF5DD 
 125      D3B2A6D0 
 125      715799BB 
 125      CB4E
 126 0173 5FFCCD2F 		.ascii	"_\374\315/\013\3747\352\245\243\036Uc\005\353;LP\263"
 126      0BFC37EA 
 126      A5A31E55 
 126      6305EB3B 
 126      4C50B3
 127 0186 6D16834D 		.ascii	"m\026\203M\256y\311\300] _\003\237\366\233\\\3641u\373"
 127      AE79C9C0 
 127      5D205F03 
 127      9FF69B5C 
 127      F43175FB 
 128 019a EB739ECC 		.ascii	"\353s\236\314u\341\224\300\015\225g\007O8(\313\241?"
 128      75E194C0 
 128      0D956707 
 128      4F3828CB 
 128      A13F
 129 01ac 1F37ED63 		.ascii	"\0377\355c\200\345\260U\216\327\353\321\275f\322H\356"
 129      80E5B055 
 129      8ED7EBD1 
 129      BD66D248 
 129      EE
 130 01bd 3F88DA9D 		.ascii	"?\210\332\235h\361y\324Y\214\243\270\331\232k-\264\333"
 130      68F179D4 
ARM GAS  /tmp/ccLwYPKd.s 			page 10


 130      598CA3B8 
 130      D99A6B2D 
 130      B4DB
 131 01cf CF3AF598 		.ascii	"\317:\365\230T\273\361t\3417=\016\246\273"
 131      54BBF174 
 131      E1373D0E 
 131      A6BB
 132              		.text
 133              		.section	.gnu.lto_chPoolAlloc.3bcfa1fa686a46b9,"",%progbits
 134 0000 789C8D54 		.ascii	"x\234\215T]H\024Q\024>\347\316\217\373c\272\365T\021"
 134      5D481451 
 134      143EE7CE 
 134      8FFB63BA 
 134      F55411
 135 0013 B205BE64 		.ascii	"\262\005\276d\354\364\326\223P\010A\204\004\232QO5N"
 135      ECF4D693 
 135      50084184 
 135      049A514F 
 135      354E
 136 0025 4B3BE1B6 		.ascii	"K;\341\266\313\256\206>y\327\214(|0)\260D\362\247^\222"
 136      CBAE863E 
 136      79D78C28 
 136      7C3029B0 
 136      44F2A75E 
 137 003a B292A0C0 		.ascii	"\262\222\240\300l\015\242\354\027\037\202\354\007\254"
 137      6C0DA2EC 
 137      171F82EC 
 137      07AC
 138 0048 971E0C4A 		.ascii	"\227\036\014J$\210\260\266s\357\314l\273\211\331\014"
 138      2488B0B6 
 138      73EFCC6C 
 138      BB89D90C 
 139 0058 33F7DE73 		.ascii	"3\367\336s\357\371\276\357\2343g\0300\370\373\332MO"
 139      EFF9BEEF 
 139      9C336718 
 139      30F8FBDA 
 139      4D4F
 140 006a 8D06F094 		.ascii	"\215\006\360\224F,\001d\335/\0002>\306\224\376j\340"
 140      462C0164 
 140      DD2F0032 
 140      3EC694FE 
 140      6AE0
 141 007c 01752104 		.ascii	"\001u!\004\274TA\3351\253L\353\023f\375\2330k\236YG"
 141      BC5441DD 
 141      31AB4CEB 
 141      1366FD9B 
 141      306B9E59 
 142 0091 14134068 		.ascii	"\024\023@hg\212\252\351\330~\000\0058n\202A\316{f\037"
 142      678AAAE9 
 142      D87E0005 
 142      386E8241 
 142      CE7B661F 
 143 00a5 8E4CE105 		.ascii	"\216L\341\005\236\355\034\340\213\271\034\242\215$\244"
 143      9EED1CE0 
 143      8BB91CA2 
 143      8D24A4
 144 00b4 12C142D8 		.ascii	"\022\301B\330O\013\014\313\201\251\305\312FYv6\227{"
ARM GAS  /tmp/ccLwYPKd.s 			page 11


 144      4F0B0CCB 
 144      81A9C5CA 
 144      46597636 
 144      977B
 145 00c6 F7EACEC7 		.ascii	"\367\352\316\307{\270f\265\202q\004\035L\034$\320\022"
 145      7BB866B5 
 145      8271041D 
 145      4C1C24D0 
 145      12
 146 00d7 B051F1D1 		.ascii	"\260Q\361\321K\365\323K\013\270\346\240;\322\245A'\347"
 146      4BF5D34B 
 146      0BB8E6A0 
 146      3BD2A541 
 146      27E7
 147 00e9 DD616F6D 		.ascii	"\335aomI9{\351-t6 \023\2432\005\035>\000W\343\355\017"
 147      49397BE9 
 147      2D743620 
 147      13A33205 
 147      1D3E0057 
 148 0100 E35B8A34 		.ascii	"\343[\2124\352\014\366\255\244Q\330\3640M^@\307\374"
 148      EA0CF6AD 
 148      A451D8F4 
 148      304D5E40 
 148      C7FC
 149 0112 F889B12E 		.ascii	"\370\211\261.\305%\366\024d\347\036\374\0101\023/K\031"
 149      C525F614 
 149      64E71EFC 
 149      0831132F 
 149      4B19
 150 0124 AEEDCBB9 		.ascii	"\256\355\313\271\361\340\206\374\352\364;\252\212\211"
 150      F1E086FC 
 150      EAF43BAA 
 150      8A89
 151 0132 C3A81199 		.ascii	"\303\250\021\231 d\364(2}t_\243)\355+N\351*`\002\373"
 151      2064F428 
 151      327D745F 
 151      A329ED2B 
 151      4EE92A60 
 152 0148 79EF769B 		.ascii	"y\357v\233JUH\377g\177\322\335\3679\002\013C\314\276"
 152      4A5548FF 
 152      677FD2DD 
 152      F739020B 
 152      43CCBE
 153 015b 7DF21479 		.ascii	"}\362\024y\017\317|\315\345\312m\3643\230\302\225\002"
 153      0FCF7CCD 
 153      E5CA6DF4 
 153      3398C295 
 153      02
 154 016c 3C22943C 		.ascii	"<\"\224<\207\2167\257sYtcs\321\026\036u\255\343\003"
 154      878E37AF 
 154      73597463 
 154      73D1161E 
 154      75ADE303 
 155 0180 1DDDFC17 		.ascii	"\035\335\374\027\345\213Jj\342\220\224\376/8/h\376\351"
 155      E58B4A6A 
 155      E29094FE 
 155      2F382F68 
ARM GAS  /tmp/ccLwYPKd.s 			page 12


 155      FEE9
 156 0192 FC5A1347 		.ascii	"\374Z\023GeR\274\320U\207O\257\202\253\234\363\354\317"
 156      6552BCD0 
 156      55874FAF 
 156      82AB9CF3 
 156      ECCF
 157 01a4 536554E4 		.ascii	"SeT\344>\270\230\341<dc\200\224\010D\277DiD\3518F\216"
 157      3EB898E1 
 157      3C646380 
 157      940844BF 
 157      446944E9 
 158 01bb 4E905982 		.ascii	"N\220Y\202\273I+\023o\021(\241\000<\206\316\317\223"
 158      BB492B13 
 158      6F1128A1 
 158      003C86CE 
 158      CF93
 159 01cd 67CF28CE 		.ascii	"g\317(\316\006\231\204{\221\226\006\012\256\277Z\021"
 159      0699847B 
 159      9196060A 
 159      AEBF5A11 
 160 01dd E1DD199A 		.ascii	"\341\335\031\232\317\037,\251\202\315\205\324A\327W"
 160      CF1F2CA9 
 160      82CD85D4 
 160      41D757
 161 01ec 71A9B180 		.ascii	"q\251\261\200\232|\247n\004\034OG8/\377?\331G\234\022"
 161      9A7CA76E 
 161      041C4F47 
 161      382FFF3F 
 161      D9479C12 
 162 0200 0A152A2C 		.ascii	"\012\025*,\204\244\212\357C\363\350\251\360I\025\245"
 162      84A48AEF 
 162      43F3E8A9 
 162      F04915A5 
 163 0210 CB22B102 		.ascii	"\313\"\261\002\025\"\324\314\266\274\2478VZ\034\250"
 163      1522D4CC 
 163      B6BCA738 
 163      565A1CA8 
 164 0220 06975649 		.ascii	"\006\227VI\212\336\341\231|\240~I\261jY\012\245\200"
 164      8ADEE199 
 164      7CA07E49 
 164      B16A590A 
 164      A580
 165 0232 E2257466 		.ascii	"\342%tf\327{\216t\320'\"\360\333X&\322\317\212\223\037"
 165      D77B8E74 
 165      D02722F0 
 165      DB5826D2 
 165      CF8A931F 
 166 0246 F058F582 		.ascii	"\360X\365\2026\3636\203\262^\263wO\352N\341\363-\013"
 166      36F33683 
 166      B25EB377 
 166      4FEA4EE1 
 166      F32D0B
 167 0259 C5ED3838 		.ascii	"\305\35588\361W;\232xe\305\357K6\004\374\263\037\337"
 167      F1573B9A 
 167      7865C5EF 
 167      4B3604FC 
 167      B31FDF
ARM GAS  /tmp/ccLwYPKd.s 			page 13


 168 026c 2C8A7E9C 		.ascii	",\212~\234(\356\307\271`E\376\237\361\2471\337\0274"
 168      28EEC7B9 
 168      6045FE9F 
 168      F1A731DF 
 168      1734
 169 027e A64C8245 		.ascii	"\246L\202E\340K{\323\304\021\232\344\251\275^4\361:"
 169      E04B7BD3 
 169      C4119AE4 
 169      A9BD5E34 
 169      F13A
 170 0290 5638B2A6 		.ascii	"V8\262\246!3;\036u\240d\006\000f@|V\312\347\373\207"
 170      21333B1E 
 170      75A06406 
 170      0066407C 
 170      56CAE7FB 
 171 02a5 685045D2 		.ascii	"hPE\322\264g\3231\361\217B\2214\201\260)\0221jbv\243"
 171      B467D331 
 171      F18F4291 
 171      3481B029 
 171      12316A62 
 172 02bb BDA7DE48 		.ascii	"\275\247\336H\244\215T\263\221NY\206\025\213G\343\311"
 172      A48D54B3 
 172      914E5986 
 172      158B47E3 
 172      C9
 173 02cc 44A2291D 		.ascii	"D\242)\035\261@M4\036MV-9\227L\244\232\323\306\216\272"
 173      B1404D34 
 173      1E4D562D 
 173      39974CA4 
 173      9AD3C68E 
 174 02e1 DA9ADA56 		.ascii	"\332\232\332Vr\260\022\251\350\301\343\333\342\221\030"
 174      72B012A9 
 174      E8C1E3DB 
 174      E29118
 175 02f0 68C7CDA6 		.ascii	"h\307\315\246\226h\244\330#\332\332l\324\324\326\357"
 175      9668A4D8 
 175      23DADA6C 
 175      D4D4D6EF 
 176 0300 AA37EC63 		.ascii	"\2527\354cVS\313\341\250!=\254\370\316\226c\0269m\\"
 176      5653CBE1 
 176      A8213DAC 
 176      F8CE9663 
 176      16396D5C 
 177 0314 42903F17 		.ascii	"B\220?\027K\267\245\351D\250\266\276.\334h\246\243\311"
 177      4BB7A5E9 
 177      44A8B6BE 
 177      2EDC68A6 
 177      A3C9
 178 0326 94BD255C 		.ascii	"\224\275%\\\271\025X\012JHg\"\325\006,\236\374\015\377"
 178      B915580A 
 178      4A486722 
 178      D5062C9E 
 178      FC0DFF
 179 0339 34791D   		.ascii	"4y\035"
 180              		.text
 181              		.section	.gnu.lto_chPoolFreeI.3bcfa1fa686a46b9,"",%progbits
 182 0000 789C8551 		.ascii	"x\234\205Q\275J\003A\020\376\276\335\004E\361\001\322"
ARM GAS  /tmp/ccLwYPKd.s 			page 14


 182      BD4A0341 
 182      10FEBEDD 
 182      0445F101 
 182      D2
 183 0011 85838018 		.ascii	"\205\203\200\030\310=\204\017`a\004-,\222C\356\002\036"
 183      C83D840F 
 183      6061042D 
 183      2C9243EE 
 183      021E
 184 0023 7724F6D9 		.ascii	"w$\366\331\004\037\340\260\021\2641\226\026\261\021"
 184      041FE0B0 
 184      11B43196 
 184      16B111
 185 0032 D1609136 		.ascii	"\321`\2216\004\005;\261\212\265O`\3439{\227\010\261"
 185      04053BB1 
 185      8AB54F60 
 185      E3397B97 
 185      08B1
 186 0044 71607766 		.ascii	"q`wfw\346\373YVA\341o\224d\035\022\330\224L\015\252"
 186      77E6FB59 
 186      5641E16F 
 186      94641D12 
 186      D8944C0D 
 187 0059 E405E8AD 		.ascii	"\344\005\350\255*\322\026 \272\212\335\003f\263\267"
 187      2AD21620 
 187      BA8ADD03 
 187      66B3B7
 188 0068 6A3C4BD3 		.ascii	"j<K\323\341\375\364\356\211C\265B\206\204\226\215\005"
 188      E1FDF4EE 
 188      8943B542 
 188      8684968D 
 188      05
 189 0079 B4B28922 		.ascii	"\264\262\211\"N\215I\312\016\006\306\234\215\037\247"
 189      4E8D49CA 
 189      0E06C69C 
 189      8D1FA7
 190 0088 E72573D5 		.ascii	"\347%s\325O\314w\232R\006\024*\204G\354\313\201\345"
 190      4FCC779A 
 190      5206142A 
 190      8447ECCB 
 190      81E5
 191 009a 2CA9C2B2 		.ascii	",\251\302\262\233\220\342\320\313\270\352\262[\013{"
 191      9B90E2D0 
 191      CBB8EAB2 
 191      5B0B7B
 192 00a9 7225594F 		.ascii	"r%YO\240\032\034\260\210\006\257\351\300\247\364\237"
 192      A01A1CB0 
 192      8806AFE9 
 192      C0A7F49F 
 193 00b9 D17F7F18 		.ascii	"\321\177\177\030}\314\033>\013Ul\211\320%.\204[\373"
 193      7DCC1B3E 
 193      0B556C89 
 193      D0252E84 
 193      5BFB
 194 00cb D4562397 		.ascii	"\324V#\227hr\241!\240I\262\226C\252\2701\022\033\277"
 194      6872A121 
 194      A049B296 
ARM GAS  /tmp/ccLwYPKd.s 			page 15


 194      43AAB831 
 194      121BBF
 195 00de A0A2F05A 		.ascii	"\240\242\360Z\020\346\240\274\360-\211\305\275\215\276"
 195      10E6A0BC 
 195      F02D89C5 
 195      BD8DBE
 196 00ed B8845CFF 		.ascii	"\270\204\\\377G.\263\371\212\336\354\263\222\343\026"
 196      472EB3F9 
 196      8ADEECB3 
 196      92E316
 197 00fc 5197863C 		.ascii	"Q\227\206<\313~\210S\253\271\333A\253\331\332\331u\243"
 197      CB7E8853 
 197      ABB9DB41 
 197      ABD9DAD9 
 197      75A3
 198 010e 8EDB3E71 		.ascii	"\216\333>q;m\317\365\202\360(\214\243\350\270S\363\240"
 198      3B6DCFF5 
 198      82F0288C 
 198      A3E8B853 
 198      F3A0
 199 0120 E320FE01 		.ascii	"\343 \376\001\214\244Z\367"
 199      8CA45AF7 
 200              		.text
 201              		.section	.gnu.lto_chPoolFree.3bcfa1fa686a46b9,"",%progbits
 202 0000 789C8D53 		.ascii	"x\234\215SMh\023A\024~o6iR\243\230\253 !\006D0%\353"
 202      4D681341 
 202      147E6F36 
 202      6952A398 
 202      AB202106 
 203 0018 CDAB1210 		.ascii	"\315\253\022\020<\004\261\251\240'\331\254\241YI\272"
 203      3C04B1A9 
 203      A027D9AC 
 203      A15949BA 
 204 0028 CB6E52DA 		.ascii	"\313nR\332S'\261G\011!zP\253`\364\242\242\006\333\202"
 204      5327B147 
 204      09217A50 
 204      AB60F4A2 
 204      A206DB82 
 205 003c B50D12C4 		.ascii	"\265\015\022\304\037\202Z\361&E$=x\322\203\036\225B"
 205      1F825AF1 
 205      2645243D 
 205      78D2831E 
 205      9542
 206 004e 7C3B9BC4 		.ascii	"|;\233\304\244\021\323\201\335\231\331y\337\373\336"
 206      A411D381 
 206      DD99D979 
 206      DFFBDE
 207 005d FBF61B06 		.ascii	"\373\366\033\006\014\266\217}\364|\221\000>\320\214"
 207      0CB68F7D 
 207      F47C9100 
 207      3ED08C
 208 006c 12202BAD 		.ascii	"\022 +\255\003\344\275\014\321^\000\302\034\303\271"
 208      03E4BD0C 
 208      D15E00C2 
 208      1CC3B9
 209 007b 732862AB 		.ascii	"s(b\253\254\336l\265\036\227\213\313\337q\205\355\226"
 209      ACDE6CB5 
ARM GAS  /tmp/ccLwYPKd.s 			page 16


 209      1E978BCB 
 209      DF7185ED 
 209      96
 210 008c 3083E0A2 		.ascii	"0\203\340\242\027z@\023\021n\230\347\274\024\004P\305"
 210      177A4013 
 210      116E98E7 
 210      BC140450 
 210      C5
 211 009d 7682DE76 		.ascii	"v\202\336v\2263\310\354Yj@\301\013\020\202\012\347\345"
 211      9633C8EC 
 211      596A40C1 
 211      0B10820A 
 211      E7E5
 212 00af E6C2666D 		.ascii	"\346\302fm\354:\257\317\337\346[\255\026\242\206\024"
 212      EC3AAFCF 
 212      DFE65BAD 
 212      16A28614 
 213 00bf 741A6DE4 		.ascii	"t\032m\344Y\332\260\240\230$W\177\265\3667\244\374\260"
 213      59DAB0A0 
 213      9824577F 
 213      B5F637A4 
 213      FCB0
 214 00d1 0E859FD5 		.ascii	"\016\205\237\325KK\227\245.\245\263\250?}\361\333\317"
 214      4B4B97A5 
 214      2EA5B3A8 
 214      3F7DF1DB 
 214      CF
 215 00e2 14BC83A1 		.ascii	"\024\274\203\241n=\365\265\2535\337\376\356\256\361"
 215      6E3DF5B5 
 215      AB35DFFE 
 215      EEAEF1
 216 00f1 8ADA55B0 		.ascii	"\212\332U\260\202n\"\263\011\031=\022\210f\021\356\321"
 216      826E22B3 
 216      09193D12 
 216      886611EE 
 216      D1
 217 0102 9254921C 		.ascii	"\222T\222\034\251\002\360\014o\361k\3074t\365\321\377"
 217      A902F00C 
 217      6FF16BC7 
 217      3474F5D1 
 217      FF
 218 0113 3DAFB5CF 		.ascii	"=\257\265\317\335N\201\275-\326\257\024\337\"/\363\374"
 218      DD4E81BD 
 218      2DD6AF14 
 218      DF222FF3 
 218      FC
 219 0124 8F566BAF 		.ascii	"\217Vk\257\206#\014^\342\260\006'\355Jz\223\360E\316"
 219      86230C5E 
 219      E2B00627 
 219      ED4A7A93 
 219      F045CE
 220 0137 47854692 		.ascii	"G\205F\222\206\036\006ov\220\302%R4?\177\365\265\325"
 220      861E066F 
 220      7690C225 
 220      52343F7F 
 220      F5B5D5
 221 014a F9472AAA 		.ascii	"\371G*\252\377\335\320T\035\315\370\322\315\200\202"
ARM GAS  /tmp/ccLwYPKd.s 			page 17


 221      FFDDD054 
 221      1DCDF8D2 
 221      CD8082
 222 0159 55D254C1 		.ascii	"U\322T\301GB\331\216~\002\240\340\"}\024\274\357\241"
 222      4742D98E 
 222      7E02A0E0 
 222      227D14BC 
 222      EFA1
 223 016b B0B1B2BA 		.ascii	"\260\261\262\272I\177\340\011\235O\242'\014\207\211"
 223      497FE009 
 223      9D4FA227 
 223      0C8789
 224 017a 6C016EE4 		.ascii	"l\001n\3449\367k\350\245\006m\246\021\221=\201\002\275"
 224      39F76BE8 
 224      A5066DA6 
 224      11913D81 
 224      02BD
 225 018c ECA847D8 		.ascii	"\354\250G\330Fi\227\203\014\303\003NcO/v\224\030l,\264"
 225      46699783 
 225      0CC3034E 
 225      634F2F76 
 225      94186C2C 
 226 01a1 B1D8C512 		.ascii	"\261\330\305\022\217\003\377\264\372\013\373\022\370"
 226      8F03FFB4 
 226      FA0BFB12 
 226      F8
 227 01ae 7646DED1 		.ascii	"vF\336\321\254\307\236\225\347\333\354\251\340]a\225"
 227      ACC79E95 
 227      E7DBECA9 
 227      E05D6195 
 228 01be A1FE84FF 		.ascii	"\241\376\204\377\372sc\313\366\347Z\277?\277\371\002"
 228      FA7363CB 
 228      F6E75ABF 
 228      3FBFF902 
 229 01ce 3DB7A763 		.ascii	"=\267\247c\324\327=F\025\012\251T\372\240W\025\274O"
 229      D4D73D46 
 229      150AA954 
 229      FAA05715 
 229      BC4F
 230 01e0 8B2E75C7 		.ascii	"\213.u\307\233\012>\304\200S\326G\3107\213\207\234T"
 230      9B0A3EC4 
 230      8053D647 
 230      C8378B87 
 230      9C54
 231 01f2 9D3141D1 		.ascii	"\2351A\321t)\355\320P$\"GSZB;\025\227uK6\263\262e\252"
 231      7429EDD0 
 231      50242247 
 231      535A423B 
 231      1597754B 
 232 020b B29ACA24 		.ascii	"\262\232\312$3\206\256\247\255\210\012\341\201\020C"
 232      3386AEA7 
 232      AD880AE1 
 232      811043
 233 021a 37B3967C 		.ascii	"7\263\226||<\026\215\315P\254\252\233\311\363\323G3"
 233      7C3C168D 
 233      CD50ACAA 
 233      9BC9F3D3 
ARM GAS  /tmp/ccLwYPKd.s 			page 18


 233      4733
 234 022c 9114B8A7 		.ascii	"\221\024\270\247\225t.\031\351G$g\262r4\026?\031\227"
 234      95742E19 
 234      E9472467 
 234      B2723416 
 234      3F1997
 235 023f B529359D 		.ascii	"\265)5\235\273\220\224\005B\315\234\310M\251\004:0@"
 235      BB909405 
 235      42CD9CC8 
 235      4DA9043A 
 235      3040
 236 0251 D08D4B59 		.ascii	"\320\215KY\263\026E\370c\361\361`B\261\222\206\251\215"
 236      B31645F8 
 236      63F1F160 
 236      42B19286 
 236      A98D
 237 0263 050F1E01 		.ascii	"\005\017\036\001f\202\207J\324\315Y`\031\303\245'.\032"
 237      6682874A 
 237      D4CD5960 
 237      19C3A527 
 237      2E1A
 238 0275 929132FE 		.ascii	"\222\2212\376\000\200\261$e"
 238      0080B124 
 238      65
 239              		.text
 240              		.section	.gnu.lto_.symbol_nodes.3bcfa1fa686a46b9,"",%progbits
 241 0000 789C4DC7 		.ascii	"x\234M\307\261\015\2000\020CQ\3339\226e\011\267\224"
 241      B10D8030 
 241      104351DB 
 241      39966509 
 241      B794
 242 0012 48F48C43 		.ascii	"H\364\214C\311$4\020\222\032\012$\3567_O\020F|\351\244"
 242      C9243410 
 242      921A0A24 
 242      EE375F4F 
 242      10467CE9 
 243 0027 817907EC 		.ascii	"\201y\007\354u\242.\232\211\225V\342M\227\304FGb\247"
 243      75A22E9A 
 243      899556E2 
 243      4D97C446 
 243      4762A7
 244 003a 879F212C 		.ascii	"\207\237!,\333\241(\250\357\360\000[ #L"
 244      DBA128A8 
 244      EFF0005B 
 244      20234C
 245              		.text
 246              		.section	.gnu.lto_.refs.3bcfa1fa686a46b9,"",%progbits
 247 0000 789C6362 		.ascii	"x\234cb`b`d\200\002\000\000F\000\006"
 247      60626064 
 247      80020000 
 247      460006
 248              		.text
 249              		.section	.gnu.lto_.decls.3bcfa1fa686a46b9,"",%progbits
 250 0000 789CB558 		.ascii	"x\234\265X\177l\033\325\035\177\357\234\304v\355\244"
 250      7F6C1BD5 
 250      1D7FEF9C 
 250      C476EDA4 
ARM GAS  /tmp/ccLwYPKd.s 			page 19


 251 0010 01892AD3 		.ascii	"\001\211*\323\2445e\264h\240\344H\232\215\356\037BW"
 251      A43565B4 
 251      68A0E448 
 251      9A8DEE1F 
 251      4257
 252 0022 8D351285 		.ascii	"\2155\022\205\212\250\322\244M\272]\354+\366\360\257"
 252      8AA8D2A4 
 252      4DBA5DEC 
 252      2BF6F0AF 
 253 0032 D94E21D3 		.ascii	"\331N!\323\244>7m\326\026P\335\260\212T\320\342\260"
 253      A43E376D 
 253      D61650DD 
 253      B08A54D0 
 253      E2B0
 254 0044 C268610D 		.ascii	"\302ha\015J\177\211\037\012^\2676\245\205\022\204HE"
 254      4A7F891F 
 254      0A5EB736 
 254      A5851284 
 254      4845
 255 0056 C7989146 		.ascii	"\307\230\221FQ\306\004)\335X\253M\365\276\357\335;\373"
 255      51C60429 
 255      DD58AB4D 
 255      F5BEEFDD 
 255      3BFB
 256 0068 EEF9CEB1 		.ascii	"\356\371\316\261'q\322\327~\347\373\376\370|?\337\357"
 256      2771D2D7 
 256      7EE7FBFE 
 256      F87C3FDF 
 256      EF
 257 0079 7DEF9D25 		.ascii	"}\357\235%$\241y\011\241\"\034+oB\350S\027Bn\204\320"
 257      24A17909 
 257      A1221C2B 
 257      6F42E853 
 257      17426E84 
 258 008e 5D20F033 		.ascii	"] \3603\352\005\031G\372\321\004\362\"\310Y\220Y\220"
 258      EA051947 
 258      FAD104F2 
 258      22C85990 
 258      5990
 259 00a0 0F410A20 		.ascii	"\017A\012 s\250\362\240z\215 \307@&@\016\203\034\340"
 259      73A8F2A0 
 259      7A8D20C7 
 259      4026400E 
 259      831CE0
 260 00b3 BE20043A 		.ascii	"\276 \004:\012\362:\310\024\010\346\372\015 \177\004"
 260      0AF23AC8 
 260      1408E6FA 
 260      0D207F04 
 261 00c3 3905320D 		.ascii	"9\0052\015\362\271\340\223\306m6\371\245\330Z@\374\334"
 261      F2B9E093 
 261      C66D36F9 
 261      A5D85A40 
 261      FCDC
 262 00d5 FF5590EB 		.ascii	"\377U\220\353Hw(\201\034\3471'x.\257\360\230^\356\313"
 262      48772881 
 262      1CE73127 
 262      782EAFF0 
ARM GAS  /tmp/ccLwYPKd.s 			page 20


 262      985EEECB 
 263 00e9 8575EC1E 		.ascii	"\205u\354\036\370\366\203,\306z>m\360\375M\254\363\360"
 263      F8F6832C 
 263      C67A3E6D 
 263      F0FD4DAC 
 263      F3F0
 264 00fb 2EC87B20 		.ascii	".\310{ 3 \337\202\337\276\015r\013\310rl\3056\313q\230"
 264      3320DF82 
 264      DFBE0D72 
 264      0BC8726C 
 264      C536CB71 
 265 0110 31518C87 		.ascii	"1Q\214\2078^\203\203\343\234\003\212\353Y\236\363Q\216"
 265      385E8383 
 265      E39C038A 
 265      EB599EF3 
 265      518E
 266 0122 6D8AE3C3 		.ascii	"m\212\343\303\334\037\305|\021d\205\020\213\362\276"
 266      DC1FC57C 
 266      11648510 
 266      8BF2BE
 267 0131 B84A2C33 		.ascii	"\270J,3\017\207y\354Z\342\272\271o3\037\263&>(\214\217"
 267      0F8779EC 
 267      5AE2BAB9 
 267      6F331FB3 
 267      263E288C 
 268 0146 849A50BE 		.ascii	"\204\232P\276\232x|\003\2139W\311\024\007s}Z\377K \237"
 268      9A787C03 
 268      8B3957C9 
 268      1407737D 
 268      5AFF4B20 
 269 015b 80DC2EE4 		.ascii	"\200\334.\344F\353\261\210\373\273j\362i\316\247\327"
 269      46EBB188 
 269      FBBB6AF2 
 269      69CEA7D7 
 270 016b 9493D9BF 		.ascii	"\224\223\331\277\033U\257'\325\375\014\344\037B\016"
 270      1B55AF27 
 270      D5FD0CE4 
 270      1F420E
 271 017a 3EB49390 		.ascii	">\264\223\220-$7B\326\236iY\202\366\0208\340\204\340"
 271      2D243742 
 271      D69E6959 
 271      82F61038 
 271      E084E0
 272 018d B48A7B7D 		.ascii	"\264\212{}\350\307X\305-^\324\316\026~/\243\016!\025"
 272      E8C758C5 
 272      2D5ED4CE 
 272      167E2FA3 
 272      0E2115
 273 01a0 3F8B97B0 		.ascii	"?\213\227\260\225\2139\206\256\332^\366\202l\255\226"
 273      958B3986 
 273      AEDA5EF6 
 273      826CAD96 
 274 01b0 A3038464 		.ascii	"\243\003\204d\013\333>\273&\021\342Q\361\001\354\005"
 274      0BDB3EBB 
 274      2611E251 
 274      F101EC05 
 275 01c0 DB6D18A3 		.ascii	"\333m\030\243\333\320A\010\232\005\007\267J\250\362"
ARM GAS  /tmp/ccLwYPKd.s 			page 21


 275      DBD04108 
 275      9A0507B7 
 275      4AA8F2
 276 01cf 5071A3B7 		.ascii	"Pq\243\267\342\\\305\277\303\267!=\022\273\314\027\364"
 276      E25CC5BF 
 276      C3B7213D 
 276      12BBCC17 
 276      F4
 277 01e0 565E4C75 		.ascii	"V^Lu6\270J\006U\320\\\330y\342;\014\3158\366\001\232"
 277      36B84A06 
 277      55D05CD8 
 277      79E23B0C 
 277      CD38F601 
 278 01f5 57008DE1 		.ascii	"W\000\215\341\271\202\034=i'B\016\201\003\263\251\031"
 278      B9821C3D 
 278      6927420E 
 278      8103B3A9 
 278      19
 279 0206 AF706D29 		.ascii	"\257pm)\332Or\205\302\276\363o\253{I~+)\0267#\201\371"
 279      DA4F7285 
 279      C2BEF36F 
 279      AB7B497E 
 279      2B291637 
 280 021d BB6E720C 		.ascii	"\273nr\014\364\222\225y\013\304\033\321n\352\245\335"
 280      F4929579 
 280      0BC41BD1 
 280      6EEAA5DD 
 281 022d 54839F19 		.ascii	"T\203\237\031\366\376r\326GvMw\261\254'\360\215\340"
 281      F6FE72D6 
 281      47764D77 
 281      B1AC27F0 
 281      8DE0
 282 023f 252B59B3 		.ascii	"%+Y\263^\310\013E1\011\226\272\015\363I\362\273O\373"
 282      5EC80B45 
 282      310996BA 
 282      0DF349F2 
 282      BB4FFB
 283 0252 4983FE3B 		.ascii	"I\203\376;r \002\216e(\007h\363O\214\354\373\006\311"
 283      7220028E 
 283      65280768 
 283      F34F8CEC 
 283      FB06C9
 284 0265 9DC476E0 		.ascii	"\235\304v\340sMN\035$\241\375\014\351q1\366e\265]\377"
 284      734D4E1D 
 284      24A1FD0C 
 284      E97131F6 
 284      65B55DFF 
 285 0279 75E1C857 		.ascii	"u\341\310W\346\336\304d\324\257\342c\254\340\207J\016"
 285      E6DEC464 
 285      D4AFE263 
 285      ACE0874A 
 285      0E
 286 028a ED02F2A5 		.ascii	"\355\002\362\245\245\213\304\303\251L\324??$4\311\302"
 286      A58BC4C3 
 286      A94CD43F 
 286      3F2434C9 
 286      C2
ARM GAS  /tmp/ccLwYPKd.s 			page 22


 287 029b 4CD61F86 		.ascii	"L\326\037\206\243\336s\372i\306\227q\327\274Z\267\277"
 287      A3DE73FA 
 287      69C69771 
 287      D7BC5AB7 
 287      BF
 288 02ac 768BBFB1 		.ascii	"v\213\277\261\323\376\254j4\375\233\2658\363T\343\300"
 288      D3FEAC6A 
 288      34FD9BB5 
 288      38F354E3 
 288      C0
 289 02bd 74983B43 		.ascii	"t\230;C\305G\360r\370<\212\227\301\347\353\354s\012"
 289      C547F072 
 289      F83C8A97 
 289      C1E7EBEC 
 289      730A
 290 02cf 3E17E4EE 		.ascii	">\027\344\356p\231;\336\345z\342\346\363q]\307r\243"
 290      70993BDE 
 290      E57AE2E6 
 290      F3715DC7 
 290      72A3
 291 02e1 4BE87DA1 		.ascii	"K\350}\241\225oA\277%d\224\336j\037\343\337\014\223"
 291      956F41BF 
 291      256494DE 
 291      6A1FE3DF 
 291      0C93
 292 02f3 B5BA6F09 		.ascii	"\265\272o\011]bz/\342\245\266\0308\002\335\230\274\247"
 292      5D627A2F 
 292      E2A5B618 
 292      3802DD98 
 292      BCA7
 293 0305 AD35789F 		.ascii	"\2555x\237[\300\214\201\344f{\201clp\374\371\002\206"
 293      5BC08C81 
 293      E4667B81 
 293      636C70FC 
 293      F90286
 294 0318 3C9B15E8 		.ascii	"<\233\025\3509z\013<N\266\265b6\004\020\267\2620|\022"
 294      397A0B3C 
 294      4EB6B562 
 294      360410B7 
 294      B2307C12 
 295 032c 5BC6A43E 		.ascii	"[\306\244>N\362\243\323\376l\246P,.\255}\224\234\263"
 295      4EF2A3D3 
 295      FE6CA650 
 295      2C2EAD7D 
 295      949CB3
 296 033f 8E123DED 		.ascii	"\216\022=\355\322I\257\317\256\000\002\341\377\266%"
 296      D249AFCF 
 296      AE0002E1 
 296      FFB625
 297 034e 9C3CA571 		.ascii	"\234<\245q\252U\374'@\253\342\2635Q\375\0065\353\245"
 297      AA55FC27 
 297      40ABE2B3 
 297      3551FD06 
 297      35EBA5
 298 0361 84FDDA85 		.ascii	"\204\375\332\205\253Z\365\226\215\256\224\353\263c\001"
 298      AB5AF596 
 298      8DAE94EB 
ARM GAS  /tmp/ccLwYPKd.s 			page 23


 298      B36301
 299 0370 2B9E832D 		.ascii	"+\236\203-\315gE\232\337\251\244\2710\237\277<}\016"
 299      CD67459A 
 299      DFA9A4B9 
 299      309FBF3C 
 299      7D0E
 300 0382 0608F96F 		.ascii	"\006\010\371o\2618\354\021\247v\225\347\345\005;\252"
 300      B138EC11 
 300      A77695E7 
 300      E5053BAA 
 301 0392 052E1F75 		.ascii	"\005.\037u\331r\371\244\310\345lu.y~[\310\304\310\266"
 301      D972F9A4 
 301      C8E56C75 
 301      2E797E5B 
 301      C8C4C8B6 
 302 03a6 D6065E47 		.ascii	"\326\006^Gg+\016\360\003\333\246\272x\2267\225\236\201"
 302      672B0EF0 
 302      03DBA6BA 
 302      78963795 
 302      9E81
 303 03b8 84C6EC31 		.ascii	"\204\306\3541\356\0211~\370\177at\262\342\030\377b["
 303      EE11317E 
 303      F87F6174 
 303      B2E218FF 
 303      625B
 304 03ca 91138F3A 		.ascii	"\221\023\217:W\244J\363\177\\C\363\013\005:`\237\374"
 304      57A44AF3 
 304      7F5C43F3 
 304      0B053A60 
 304      9FFC
 305 03dc 1362F285 		.ascii	"\023b\362\205\232\232\375D\251\331_f~\235\255z\235\207"
 305      9A9AFD44 
 305      A9D95F66 
 305      7E9DAD7A 
 305      9D87
 306 03ee 4341ECDA 		.ascii	"CA\354\332\277\331r4z^\257\3433w\353\211K\350\230}."
 306      BFD97234 
 306      7A5EAFE3 
 306      3377EB89 
 306      4BE8987D 
 307 0403 BBC55CE6 		.ascii	"\273\305\\\346j\312\345\030\317E\305\237.`U%\22791\227"
 307      6ACAE518 
 307      CF45C59F 
 307      2E605525 
 307      97393197 
 308 0417 BF5B73B9 		.ascii	"\277[s\271\031\215\223\231\231\374k\247w\020LFHf\036"
 308      198D9399 
 308      99FC6BA7 
 308      77104C46 
 308      48661E
 309 042a B67A37A0 		.ascii	"\266z7\240,\333\253\214\265\360-h\341\271|\333Xy\003"
 309      2CDBAB8C 
 309      B5F02D68 
 309      E1B97CDB 
 309      587903
 310 043d E131A2D3 		.ascii	"\3411\242\323\255\266\276]\000\003\251\244L\332\332"
 310      ADB6BE5D 
ARM GAS  /tmp/ccLwYPKd.s 			page 24


 310      0003A9A4 
 310      4CDADA
 311 044c EC75557C 		.ascii	"\354uU|\231=\274\276\324G\006\273\244\257\215U\221\355"
 311      993DBCBE 
 311      D44706BB 
 311      A4AF8D55 
 311      91ED
 312 045e AAF32E61 		.ascii	"\252\363.a\023_\206_\335\224\007\335\216\215\25070\345"
 312      135F865F 
 312      DD9407DD 
 312      8E8DA837 
 312      30E5
 313 0470 7242BAAA 		.ascii	"rB\272\252\203\232\212\377\211\365\025K\205\224\366"
 313      839A8AFF 
 313      89F5154B 
 313      8594F6
 314 047f A87EAF63 		.ascii	"\250~\257c\307\377\313\204\307\357-/Z-\250\015-\310"
 314      C7FFCB84 
 314      C7EF2D2F 
 314      5A2DA80D 
 314      2DC8
 315 0491 ED944B78 		.ascii	"\355\224Kxj\211($t\236\247\257\342E\270\236\327\200"
 315      6A892824 
 315      749EA7AF 
 315      E245B89E 
 315      D780
 316 04a3 6BFB4FFD 		.ascii	"k\373O\375\001o\201\233T\305W\331\350\236i\260\366c"
 316      016F819B 
 316      54C557D9 
 316      E89E69B0 
 316      F663
 317 04b5 EDAEAE5C 		.ascii	"\355\256\256\\\312?\211\207\231\253\3770W\0375Z]\251"
 317      CA3F8987 
 317      99ABFF30 
 317      571F355A 
 317      5DA9
 318 04c7 D82DBC40 		.ascii	"\330-\274@\270\255/\020noy\301_ \352T\347U\313\335-"
 318      B8AD2F10 
 318      6E6F79C1 
 318      5F20EA54 
 318      E755CBDD 
 319 04dc 94ADD5C0 		.ascii	"\224\255\325\300+qW\327\353\256Z\321\241jF\33394\314"
 319      2B7157D7 
 319      EBAE5AD1 
 319      A16A46DB 
 319      3934CC
 320 04ef 2A43CFCD 		.ascii	"*C\317\315\375\020\251\336\310\031\311>r\023\217,\274"
 320      FD10A9DE 
 320      C819C93E 
 320      72138F2C 
 320      BC
 321 0500 1DD11DAF 		.ascii	"\035\321\035\257\223\253-RiGG'R~\246p\344\235\267N\342"
 321      93AB2D52 
 321      69474727 
 321      527EA670 
 321      E49DB74E 
 322 0515 D1617286 		.ascii	"\321ar\206\320\3338\3471\346\322\\\243\355\\zM\234K"
ARM GAS  /tmp/ccLwYPKd.s 			page 25


 322      D0DB38E7 
 322      31E6D25C 
 322      A3ED5C7A 
 322      4D9C4B
 323 0528 C3522D73 		.ascii	"\303R-s\351\257\302\\r\266\262\314\245\017\310\372\266"
 323      E9AFC25C 
 323      72B6B2CC 
 323      A50FC8FA 
 323      B6
 324 0539 D258A236 		.ascii	"\322X\2426\226v\330*U\214\330\374|a\366\213\231\237"
 324      9676D82A 
 324      558CD8FC 
 324      7C61F68B 
 324      999F
 325 054b 18AF73CB 		.ascii	"\030\257s\313j\177\014\355\220\226\360\225\361\250\221"
 325      6A7F0CED 
 325      9096F095 
 325      F1A891
 326 055a D09E262B 		.ascii	"\320\236&+\007%\\\344\005\342*\341\332.\342\332i\213"
 326      07255CE4 
 326      05E22AE1 
 326      DA2EE2DA 
 326      698B
 327 056c EBFA97F9 		.ascii	"\353\372\227\371\241\022.=\236\204\316\325\024\3411"
 327      A1122E3D 
 327      9E84CED5 
 327      14E131
 328 057b 31C2E3B6 		.ascii	"1\302\343\266\021\376\374\325\314cx\367\304\010\241"
 328      11FEFCD5 
 328      CC6378F7 
 328      C408A1
 329 058a 8F98CDCF 		.ascii	"\217\230\315\317\344\263\015\265\247\237\225\204\247"
 329      E4B30DB5 
 329      A79F9584 
 329      A7
 330 0597 309D06C2 		.ascii	"0\235\006\302cw\253\333\014\226iJh\324\215-\015\362"
 330      6377ABDB 
 330      0C96694A 
 330      68D48D2D 
 330      0DF2
 331 05a9 AEBEDDD6 		.ascii	"\256\276\335\326\207I\216Y\354r,\366U\313>\360J\306"
 331      87498E59 
 331      EC722CF6 
 331      55CB3EF0 
 331      4AC6
 332 05bb 54ED5D62 		.ascii	"T\355]b\316\243\2669_\370b\376\247/M\022\262\203\\/"
 332      CEA3B639 
 332      5FF862FE 
 332      A72F4D12 
 332      B2835C2F 
 333 05cf 6ECE6CC5 		.ascii	"n\316l\305\006\261\317\273k!vL\014\262\327\251t\277"
 333      06B1CFBB 
 333      6B21764C 
 333      0CB2D7A9 
 333      74BF
 334 05e1 AA28DD64 		.ascii	"\252(\335dM\021\236\022#<-\331<K\341\305\350\223\256"
 334      4D119E12 
ARM GAS  /tmp/ccLwYPKd.s 			page 26


 334      233C2DD9 
 334      3C4BE1C5 
 334      E893AE
 335 05f4 4C369FC9 		.ascii	"L6\237\311\321\355\023\306\346Y2_\236%\2444\366\365"
 335      D1ED13C6 
 335      E659325F 
 335      9E25A434 
 335      F6F5
 336 0606 4785C3C8 		.ascii	"G\205\303\310\021\325T\234\253{\346\214;\314\034\363"
 336      11D5549C 
 336      AB7BE68C 
 336      3BCC1CF3 
 337 0616 482E6BC1 		.ascii	"H.k\301\362+\361\365BD!\241)\267\371\031u+z\236\376"
 337      F22BF1F5 
 337      424421A1 
 337      29B7F919 
 337      752B7A9E 
 338 062b 67B0EFFC 		.ascii	"g\260\357\374\231\014n\267\274k\352\207~\235L\346Z\353"
 338      990C6EB7 
 338      BC6BEA87 
 338      7E9D4CE6 
 338      5AEB
 339 063d BDC8F727 		.ascii	"\275\310\367'\327\246m\367'\026FC\006\306\346j\204\012"
 339      D7A66DF7 
 339      27164643 
 339      06C6E66A 
 339      840A
 340 064f 5A2A7EA1 		.ascii	"Z*~\241n>\017:\360\351\267\360yP\344\323\364\262 \200"
 340      6E3E0F3A 
 340      F0E9B7F0 
 340      7950E4D3 
 340      F4B22080 
 341 0663 90D05B16 		.ascii	"\220\320[\026:y\322S\347\210\347e\262\235v\252C\312"
 341      3A79D253 
 341      E788E765 
 341      B29D76AA 
 341      43CA
 342 0675 C25F480E 		.ascii	"\302_H\016)W\374\321\364\373\272S>\354\220\262\271Z"
 342      2957FCD1 
 342      F4FBBA53 
 342      3EEC90B2 
 342      B95A
 343 0687 65AD52CA 		.ascii	"e\255R\312\246\355\267\000BB\027-)\243\014\226c\033"
 343      A6EDB700 
 343      4242172D 
 343      29A30C96 
 343      631B
 344 0699 5354BE2B 		.ascii	"ST\276+\207\342QMNj)MM\006BrHM\006\037V\223\232\254"
 344      87E2514D 
 344      4E6A294D 
 344      4D064272 
 344      484D061F 
 345 06b1 26A3DDF2 		.ascii	"&\243\335\362\203\201@\007,:\264\350\200\026\014j\301"
 345      83814007 
 345      2C3AB4E8 
 345      80160C6A 
 345      C1
ARM GAS  /tmp/ccLwYPKd.s 			page 27


 346 06c2 D20FB178 		.ascii	"\322\017\261xL\353\320\324\201pG\217\262\252\243\373"
 346      4CEBD0D4 
 346      8170478F 
 346      B2AAA3FB 
 347 06d2 8EAE9E5F 		.ascii	"\216\256\236_t\313\221\360\000U\220-\012rO\347\252\316"
 347      74CB91F0 
 347      0055902D 
 347      0A724FE7 
 347      AACE
 348 06e4 1E391C0B 		.ascii	"\0369\034\013D\006\203\232\234J\203\237\215\235!\324"
 348      4406839A 
 348      9C4A839F 
 348      8D9D21D4 
 349 06f4 940AFF52 		.ascii	"\224\012\377RS\322M?\272oC\373\032\264\274\263S^\023"
 349      53D24D3F 
 349      BA6F43FB 
 349      1AB4BCB3 
 349      535E13
 350 0707 0A0F84EF 		.ascii	"\012\017\204\357\357\227\343)9\231.\031\004BQ-\032\210"
 350      EF97E329 
 350      39992E19 
 350      0442512D 
 350      1A88
 351 0719 2735B0F1 		.ascii	"'5\260\361\303\362A-\275q0\026P\3227W\230\244\222\001"
 351      C3F2412D 
 351      BD713016 
 351      50D23757 
 351      98A49201 
 352 072d 5D3D118F 		.ascii	"]=\021\217GR\235\001\264\242\272W]-\204\232a\035O\016"
 352      47529D01 
 352      B4A2BA57 
 352      5D2D849A 
 352      611D4F0E 
 353 0741 29F45C49 		.ascii	")\364\\I\373\330WHS\203Z\322\235\010)1\355\221\264;"
 353      FBD85748 
 353      53835AD2 
 353      9D082931 
 353      ED91B43B 
 354 0755 9A60DF2D 		.ascii	"\232`\337-\360\035\037\370\271\026H+\024\276\017N\023"
 354      F01D1FF8 
 354      B916482B 
 354      14BE0F4E 
 354      13
 355 0766 C9F8A630 		.ascii	"\311\370\2460\250\266\006B\353\301\360~v\265/\026NK"
 355      A8B60642 
 355      EBC1F07E 
 355      76B52F16 
 355      4E4B
 356 0778 D1440355 		.ascii	"\321D\003U\362\030\032\213u\215{\343jpu2\251\016\341"
 356      F2181A8B 
 356      758D7BE3 
 356      6A707532 
 356      A90EE1
 357 078b 048EF9F5 		.ascii	"\004\216\371\365\337VG\"\361@\237\317t\302\327\367$"
 357      DF564722 
 357      F1409FCF 
 357      74C2D7F7 
ARM GAS  /tmp/ccLwYPKd.s 			page 28


 357      24
 358 079c 35ADAF01 		.ascii	"5\255\257\001B&\026\225\177h\010@\225<\212\302xP\232"
 358      42261695 
 358      7F680840 
 358      953C8AC2 
 358      78509A
 359 07af 8D45E7F7 		.ascii	"\215E\347\367V~\377\316\324\327QXkAM\245\014\307\322"
 359      567EFFCE 
 359      D4D75158 
 359      6B414DA5 
 359      0CC7D2
 360 07c2 C09F6710 		.ascii	"\300\237g\020\276Wv+\351\341\257\245\255\354"
 360      BE57762B 
 360      E9E1AFA5 
 360      ADEC
 361 07d0 A347D540 		.ascii	"\243G\325@(\034\323d\005\332I\035\214\244\225\364PB"
 361      281CD364 
 361      05DA491D 
 361      8CA495F4 
 361      5042
 362 07e2 A3D55CA4 		.ascii	"\243\325\\\244(\006\036/'4\030\\V\245\023RC\324\014"
 362      28061E2F 
 362      2734185C 
 362      56A51352 
 362      43D40C
 363 07f5 74FB8752 		.ascii	"t\373\207R\367\306\003\017\335^\241\233\210'\323)y\365"
 363      F7C6030F 
 363      DD5EA19B 
 363      8827D329 
 363      79F5
 364 0807 03EBD6AC 		.ascii	"\003\353\326\254{\004\014h7*\233\356\214R+zI\201z=\324"
 364      7B040C68 
 364      372A9BEE 
 364      8C522B7A 
 364      49817A3D 
 365 081c 69B58266 		.ascii	"i\265\202f\221\327\254\353\357\353/\007\242V\201\350"
 365      91D7ACEB 
 365      EFEB2F07 
 365      A25681E8 
 366 082c 3D502BDA 		.ascii	"=P+\332s\212\222\322\322\312\017V\367\377p\375\003}"
 366      738A92D2 
 366      D2CA0F56 
 366      F7FF70FD 
 366      037D
 367 083e CD6AE461 		.ascii	"\315j\344au(\245\204c\021\310\251q\223\032\031\324|"
 367      7528A584 
 367      6311C8A9 
 367      71931A19 
 367      D47C
 368 0850 0CD08618 		.ascii	"\014\320\206\030u\356ca\006\331\332T\357\236;V\232\317"
 368      75EE6361 
 368      06D9DA54 
 368      EF9E3B56 
 368      9ACF
 369 0862 BABACC67 		.ascii	"\272\272\314g\335]\377\003\217$\224|"
 369      DD5DFF03 
 369      8F24947C 
ARM GAS  /tmp/ccLwYPKd.s 			page 29


 370              		.text
 371              		.section	.gnu.lto_.symtab.3bcfa1fa686a46b9,"",%progbits
 372 0000 6368506F 		.ascii	"chPoolObjectInit\000\000\000\000\000\000\000\000\000"
 372      6F6C4F62 
 372      6A656374 
 372      496E6974 
 372      00000000 
 373 0019 000000AB 		.ascii	"\000\000\000\253\000\000\000chPoolLoadArray\000\000"
 373      00000063 
 373      68506F6F 
 373      6C4C6F61 
 373      64417272 
 374 0031 00000000 		.ascii	"\000\000\000\000\000\000\000\000\000\000\312\000\000"
 374      00000000 
 374      0000CA00 
 374      00
 375 003e 00636850 		.ascii	"\000chPoolAllocI\000\000\000\000\000\000\000\000\000"
 375      6F6F6C41 
 375      6C6C6F63 
 375      49000000 
 375      00000000 
 376 0054 000000D6 		.ascii	"\000\000\000\326\000\000\000chPoolAlloc\000\000\000"
 376      00000063 
 376      68506F6F 
 376      6C416C6C 
 376      6F630000 
 377 0069 00000000 		.ascii	"\000\000\000\000\000\000\000\000\000\334\000\000\000"
 377      00000000 
 377      00DC0000 
 377      00
 378 0076 6368506F 		.ascii	"chPoolFreeI\000\000\000\000\000\000\000\000\000\000"
 378      6F6C4672 
 378      65654900 
 378      00000000 
 378      00000000 
 379 008b 0000E000 		.ascii	"\000\000\340\000\000\000chPoolFree\000\000\000\000\000"
 379      00006368 
 379      506F6F6C 
 379      46726565 
 379      00000000 
 380 00a0 00000000 		.ascii	"\000\000\000\000\000\000\000\351\000\000\000"
 380      000000E9 
 380      000000
 381              		.text
 382              		.section	.gnu.lto_.opts,"",%progbits
 383 0000 272D6D63 		.ascii	"'-mcpu=cortex-m4' '-mno-thumb-interwork' '-mthumb' "
 383      70753D63 
 383      6F727465 
 383      782D6D34 
 383      2720272D 
 384 0033 272D6767 		.ascii	"'-ggdb' '-O2' '-fomit-frame-pointer' '-falign-funct"
 384      64622720 
 384      272D4F32 
 384      2720272D 
 384      666F6D69 
 385 0066 696F6E73 		.ascii	"ions=16' '-ffunction-sections' '-fdata-sections' '-"
 385      3D313627 
ARM GAS  /tmp/ccLwYPKd.s 			page 30


 385      20272D66 
 385      66756E63 
 385      74696F6E 
 386 0099 666E6F2D 		.ascii	"fno-common' '-flto'\000"
 386      636F6D6D 
 386      6F6E2720 
 386      272D666C 
 386      746F2700 
 387              		.text
 388              		.cfi_sections	.debug_frame
 389              		.section	.text.chPoolObjectInit,"ax",%progbits
 390              		.align	2
 391              		.p2align 4,,15
 392              		.global	chPoolObjectInit
 393              		.thumb
 394              		.thumb_func
 395              		.type	chPoolObjectInit, %function
 396              	chPoolObjectInit:
 397              	.LFB241:
 398              		.file 1 "../ChibiOS/os/rt/src/chmempools.c"
 399              		.loc 1 75 0
 400              		.cfi_startproc
 401              		@ args = 0, pretend = 0, frame = 0
 402              		@ frame_needed = 0, uses_anonymous_args = 0
 403              		@ link register save eliminated.
 404              	.LVL0:
 405              		.loc 1 79 0
 406 0000 0023     		movs	r3, #0
 407              		.loc 1 80 0
 408 0002 4160     		str	r1, [r0, #4]
 409              		.loc 1 81 0
 410 0004 8260     		str	r2, [r0, #8]
 411              		.loc 1 79 0
 412 0006 0360     		str	r3, [r0]
 413 0008 7047     		bx	lr
 414              		.cfi_endproc
 415              	.LFE241:
 416              		.size	chPoolObjectInit, .-chPoolObjectInit
 417 000a 00BFAFF3 		.section	.text.chPoolLoadArray,"ax",%progbits
 417      0080
 418              		.align	2
 419              		.p2align 4,,15
 420              		.global	chPoolLoadArray
 421              		.thumb
 422              		.thumb_func
 423              		.type	chPoolLoadArray, %function
 424              	chPoolLoadArray:
 425              	.LFB242:
 426              		.loc 1 97 0
 427              		.cfi_startproc
 428              		@ args = 0, pretend = 0, frame = 0
 429              		@ frame_needed = 0, uses_anonymous_args = 0
 430              		@ link register save eliminated.
 431              	.LVL1:
 432 0000 30B4     		push	{r4, r5}
 433              		.cfi_def_cfa_offset 8
 434              		.cfi_offset 4, -8
ARM GAS  /tmp/ccLwYPKd.s 			page 31


 435              		.cfi_offset 5, -4
 436              		.loc 1 101 0
 437 0002 62B1     		cbz	r2, .L2
 438              	.LBB77:
 439              	.LBB78:
 440              	.LBB79:
 441              	.LBB80:
 442              	.LBB81:
 443              	.LBB82:
 444              		.file 2 "../ChibiOS/os/ext/CMSIS/include/core_cmFunc.h"
 445              		.loc 2 548 0
 446 0004 2025     		movs	r5, #32
 447              	.LBE82:
 448              	.LBE81:
 449              	.LBE80:
 450              	.LBE79:
 451              	.LBB86:
 452              	.LBB87:
 453              	.LBB88:
 454              	.LBB89:
 455              	.LBB90:
 456 0006 0024     		movs	r4, #0
 457              	.LVL2:
 458              	.L5:
 459              	.LBE90:
 460              	.LBE89:
 461              	.LBE88:
 462              	.LBE87:
 463              	.LBE86:
 464              	.LBB95:
 465              	.LBB85:
 466              	.LBB84:
 467              	.LBB83:
 468              	@ 548 "../ChibiOS/os/ext/CMSIS/include/core_cmFunc.h" 1
 469 0008 85F31188 		MSR basepri, r5
 470              	@ 0 "" 2
 471              	.LVL3:
 472              		.thumb
 473              	.LBE83:
 474              	.LBE84:
 475              	.LBE85:
 476              	.LBE95:
 477              	.LBB96:
 478              	.LBB97:
 479              		.loc 1 177 0
 480 000c 0368     		ldr	r3, [r0]
 481 000e 0B60     		str	r3, [r1]
 482              		.loc 1 178 0
 483 0010 0160     		str	r1, [r0]
 484              	.LVL4:
 485              	.LBE97:
 486              	.LBE96:
 487              	.LBB98:
 488              	.LBB94:
 489              	.LBB93:
 490              	.LBB92:
 491              	.LBB91:
ARM GAS  /tmp/ccLwYPKd.s 			page 32


 492              		.loc 2 548 0
 493              	@ 548 "../ChibiOS/os/ext/CMSIS/include/core_cmFunc.h" 1
 494 0012 84F31188 		MSR basepri, r4
 495              	@ 0 "" 2
 496              		.thumb
 497              	.LBE91:
 498              	.LBE92:
 499              	.LBE93:
 500              	.LBE94:
 501              	.LBE98:
 502              	.LBE78:
 503              	.LBE77:
 504              		.loc 1 104 0
 505 0016 4368     		ldr	r3, [r0, #4]
 506              		.loc 1 101 0
 507 0018 013A     		subs	r2, r2, #1
 508              	.LVL5:
 509              		.loc 1 104 0
 510 001a 1944     		add	r1, r1, r3
 511              	.LVL6:
 512              		.loc 1 101 0
 513 001c F4D1     		bne	.L5
 514              	.LVL7:
 515              	.L2:
 516              		.loc 1 108 0
 517 001e 30BC     		pop	{r4, r5}
 518 0020 7047     		bx	lr
 519              		.cfi_endproc
 520              	.LFE242:
 521              		.size	chPoolLoadArray, .-chPoolLoadArray
 522 0022 00BFAFF3 		.section	.text.chPoolAllocI,"ax",%progbits
 522      0080AFF3 
 522      0080AFF3 
 522      0080
 523              		.align	2
 524              		.p2align 4,,15
 525              		.global	chPoolAllocI
 526              		.thumb
 527              		.thumb_func
 528              		.type	chPoolAllocI, %function
 529              	chPoolAllocI:
 530              	.LFB243:
 531              		.loc 1 120 0
 532              		.cfi_startproc
 533              		@ args = 0, pretend = 0, frame = 0
 534              		@ frame_needed = 0, uses_anonymous_args = 0
 535              	.LVL8:
 536 0000 08B5     		push	{r3, lr}
 537              		.cfi_def_cfa_offset 8
 538              		.cfi_offset 3, -8
 539              		.cfi_offset 14, -4
 540              		.loc 1 120 0
 541 0002 0346     		mov	r3, r0
 542              		.loc 1 126 0
 543 0004 0068     		ldr	r0, [r0]
 544              	.LVL9:
 545              		.loc 1 128 0
ARM GAS  /tmp/ccLwYPKd.s 			page 33


 546 0006 10B1     		cbz	r0, .L12
 547              		.loc 1 129 0
 548 0008 0268     		ldr	r2, [r0]
 549 000a 1A60     		str	r2, [r3]
 550 000c 08BD     		pop	{r3, pc}
 551              	.LVL10:
 552              	.L12:
 553              		.loc 1 131 0
 554 000e 9A68     		ldr	r2, [r3, #8]
 555 0010 0AB1     		cbz	r2, .L13
 556              		.loc 1 132 0
 557 0012 5868     		ldr	r0, [r3, #4]
 558              	.LVL11:
 559 0014 9047     		blx	r2
 560              	.LVL12:
 561              	.L13:
 562              		.loc 1 137 0
 563 0016 08BD     		pop	{r3, pc}
 564              		.cfi_endproc
 565              	.LFE243:
 566              		.size	chPoolAllocI, .-chPoolAllocI
 567 0018 AFF30080 		.section	.text.chPoolAlloc,"ax",%progbits
 567      AFF30080 
 568              		.align	2
 569              		.p2align 4,,15
 570              		.global	chPoolAlloc
 571              		.thumb
 572              		.thumb_func
 573              		.type	chPoolAlloc, %function
 574              	chPoolAlloc:
 575              	.LFB244:
 576              		.loc 1 149 0
 577              		.cfi_startproc
 578              		@ args = 0, pretend = 0, frame = 0
 579              		@ frame_needed = 0, uses_anonymous_args = 0
 580              	.LVL13:
 581 0000 08B5     		push	{r3, lr}
 582              		.cfi_def_cfa_offset 8
 583              		.cfi_offset 3, -8
 584              		.cfi_offset 14, -4
 585              	.LBB99:
 586              	.LBB100:
 587              	.LBB101:
 588              	.LBB102:
 589              		.loc 2 548 0
 590 0002 2022     		movs	r2, #32
 591              	.LBE102:
 592              	.LBE101:
 593              	.LBE100:
 594              	.LBE99:
 595              		.loc 1 149 0
 596 0004 0346     		mov	r3, r0
 597              	.LBB106:
 598              	.LBB105:
 599              	.LBB104:
 600              	.LBB103:
 601              		.loc 2 548 0
ARM GAS  /tmp/ccLwYPKd.s 			page 34


 602              	@ 548 "../ChibiOS/os/ext/CMSIS/include/core_cmFunc.h" 1
 603 0006 82F31188 		MSR basepri, r2
 604              	@ 0 "" 2
 605              	.LVL14:
 606              		.thumb
 607              	.LBE103:
 608              	.LBE104:
 609              	.LBE105:
 610              	.LBE106:
 611              	.LBB107:
 612              	.LBB108:
 613              		.loc 1 126 0
 614 000a 0068     		ldr	r0, [r0]
 615              	.LVL15:
 616              		.loc 1 128 0
 617 000c 28B1     		cbz	r0, .L18
 618              		.loc 1 129 0
 619 000e 0268     		ldr	r2, [r0]
 620 0010 1A60     		str	r2, [r3]
 621              	.L19:
 622              	.LVL16:
 623              	.LBE108:
 624              	.LBE107:
 625              	.LBB110:
 626              	.LBB111:
 627              	.LBB112:
 628              	.LBB113:
 629              	.LBB114:
 630              		.loc 2 548 0
 631 0012 0023     		movs	r3, #0
 632              	.LVL17:
 633              	@ 548 "../ChibiOS/os/ext/CMSIS/include/core_cmFunc.h" 1
 634 0014 83F31188 		MSR basepri, r3
 635              	@ 0 "" 2
 636              		.thumb
 637              	.LBE114:
 638              	.LBE113:
 639              	.LBE112:
 640              	.LBE111:
 641              	.LBE110:
 642              		.loc 1 157 0
 643 0018 08BD     		pop	{r3, pc}
 644              	.LVL18:
 645              	.L18:
 646              	.LBB119:
 647              	.LBB109:
 648              		.loc 1 131 0
 649 001a 9A68     		ldr	r2, [r3, #8]
 650 001c 002A     		cmp	r2, #0
 651 001e F8D0     		beq	.L19
 652              		.loc 1 132 0
 653 0020 5868     		ldr	r0, [r3, #4]
 654              	.LVL19:
 655 0022 9047     		blx	r2
 656              	.LVL20:
 657              	.LBE109:
 658              	.LBE119:
ARM GAS  /tmp/ccLwYPKd.s 			page 35


 659              	.LBB120:
 660              	.LBB118:
 661              	.LBB117:
 662              	.LBB116:
 663              	.LBB115:
 664              		.loc 2 548 0
 665 0024 0023     		movs	r3, #0
 666              	@ 548 "../ChibiOS/os/ext/CMSIS/include/core_cmFunc.h" 1
 667 0026 83F31188 		MSR basepri, r3
 668              	@ 0 "" 2
 669              		.thumb
 670              	.LBE115:
 671              	.LBE116:
 672              	.LBE117:
 673              	.LBE118:
 674              	.LBE120:
 675              		.loc 1 157 0
 676 002a 08BD     		pop	{r3, pc}
 677              		.cfi_endproc
 678              	.LFE244:
 679              		.size	chPoolAlloc, .-chPoolAlloc
 680 002c AFF30080 		.section	.text.chPoolFreeI,"ax",%progbits
 681              		.align	2
 682              		.p2align 4,,15
 683              		.global	chPoolFreeI
 684              		.thumb
 685              		.thumb_func
 686              		.type	chPoolFreeI, %function
 687              	chPoolFreeI:
 688              	.LFB245:
 689              		.loc 1 171 0
 690              		.cfi_startproc
 691              		@ args = 0, pretend = 0, frame = 0
 692              		@ frame_needed = 0, uses_anonymous_args = 0
 693              		@ link register save eliminated.
 694              	.LVL21:
 695              		.loc 1 177 0
 696 0000 0368     		ldr	r3, [r0]
 697 0002 0B60     		str	r3, [r1]
 698              		.loc 1 178 0
 699 0004 0160     		str	r1, [r0]
 700 0006 7047     		bx	lr
 701              		.cfi_endproc
 702              	.LFE245:
 703              		.size	chPoolFreeI, .-chPoolFreeI
 704 0008 AFF30080 		.section	.text.chPoolFree,"ax",%progbits
 704      AFF30080 
 705              		.align	2
 706              		.p2align 4,,15
 707              		.global	chPoolFree
 708              		.thumb
 709              		.thumb_func
 710              		.type	chPoolFree, %function
 711              	chPoolFree:
 712              	.LFB246:
 713              		.loc 1 193 0
 714              		.cfi_startproc
ARM GAS  /tmp/ccLwYPKd.s 			page 36


 715              		@ args = 0, pretend = 0, frame = 0
 716              		@ frame_needed = 0, uses_anonymous_args = 0
 717              		@ link register save eliminated.
 718              	.LVL22:
 719              	.LBB121:
 720              	.LBB122:
 721              	.LBB123:
 722              	.LBB124:
 723              		.loc 2 548 0
 724 0000 2023     		movs	r3, #32
 725              	@ 548 "../ChibiOS/os/ext/CMSIS/include/core_cmFunc.h" 1
 726 0002 83F31188 		MSR basepri, r3
 727              	@ 0 "" 2
 728              	.LVL23:
 729              		.thumb
 730              	.LBE124:
 731              	.LBE123:
 732              	.LBE122:
 733              	.LBE121:
 734              	.LBB125:
 735              	.LBB126:
 736              		.loc 1 177 0
 737 0006 0368     		ldr	r3, [r0]
 738 0008 0B60     		str	r3, [r1]
 739              	.LBE126:
 740              	.LBE125:
 741              	.LBB128:
 742              	.LBB129:
 743              	.LBB130:
 744              	.LBB131:
 745              	.LBB132:
 746              		.loc 2 548 0
 747 000a 0023     		movs	r3, #0
 748              	.LBE132:
 749              	.LBE131:
 750              	.LBE130:
 751              	.LBE129:
 752              	.LBE128:
 753              	.LBB137:
 754              	.LBB127:
 755              		.loc 1 178 0
 756 000c 0160     		str	r1, [r0]
 757              	.LVL24:
 758              	.LBE127:
 759              	.LBE137:
 760              	.LBB138:
 761              	.LBB136:
 762              	.LBB135:
 763              	.LBB134:
 764              	.LBB133:
 765              		.loc 2 548 0
 766              	@ 548 "../ChibiOS/os/ext/CMSIS/include/core_cmFunc.h" 1
 767 000e 83F31188 		MSR basepri, r3
 768              	@ 0 "" 2
 769              		.thumb
 770 0012 7047     		bx	lr
 771              	.LBE133:
ARM GAS  /tmp/ccLwYPKd.s 			page 37


 772              	.LBE134:
 773              	.LBE135:
 774              	.LBE136:
 775              	.LBE138:
 776              		.cfi_endproc
 777              	.LFE246:
 778              		.size	chPoolFree, .-chPoolFree
 779 0014 AFF30080 		.text
 779      AFF30080 
 779      AFF30080 
 780              	.Letext0:
 781              		.file 3 "/nfs/nfs5/home/research/hardware/arm2/gcc-arm-embedded/gcc-arm-none-eabi-4_8-2014q2/lib/g
 782              		.file 4 "/nfs/nfs5/home/research/hardware/arm2/gcc-arm-embedded/gcc-arm-none-eabi-4_8-2014q2/arm-n
 783              		.file 5 "/nfs/nfs5/home/research/hardware/arm2/gcc-arm-embedded/gcc-arm-none-eabi-4_8-2014q2/arm-n
 784              		.file 6 "../ChibiOS/os/rt/ports/ARMCMx/compilers/GCC/chtypes.h"
 785              		.file 7 "../ChibiOS/os/rt/include/chsystypes.h"
 786              		.file 8 "../ChibiOS/os/rt/include/chschd.h"
 787              		.file 9 "../ChibiOS/os/rt/ports/ARMCMx/chcore.h"
 788              		.file 10 "../ChibiOS/os/rt/ports/ARMCMx/chcore_v7m.h"
 789              		.file 11 "../ChibiOS/os/rt/include/chtm.h"
 790              		.file 12 "../ChibiOS/os/rt/include/chsem.h"
 791              		.file 13 "../ChibiOS/os/rt/include/chmtx.h"
 792              		.file 14 "../ChibiOS/os/rt/include/chmemcore.h"
 793              		.file 15 "../ChibiOS/os/rt/include/chmempools.h"
 794              		.file 16 "../ChibiOS/os/rt/include/chsys.h"
 795              		.file 17 "../ChibiOS/os/ext/CMSIS/include/core_cm4.h"
 796              		.section	.debug_info,"",%progbits
 797              	.Ldebug_info0:
 798 0000 B70B0000 		.4byte	0xbb7
 799 0004 0400     		.2byte	0x4
 800 0006 00000000 		.4byte	.Ldebug_abbrev0
 801 000a 04       		.byte	0x4
 802 000b 01       		.uleb128 0x1
 803 000c 74050000 		.4byte	.LASF130
 804 0010 01       		.byte	0x1
 805 0011 8C030000 		.4byte	.LASF131
 806 0015 E5040000 		.4byte	.LASF132
 807 0019 A8000000 		.4byte	.Ldebug_ranges0+0xa8
 808 001d 00000000 		.4byte	0
 809 0021 00000000 		.4byte	.Ldebug_line0
 810 0025 02       		.uleb128 0x2
 811 0026 04       		.byte	0x4
 812 0027 05       		.byte	0x5
 813 0028 696E7400 		.ascii	"int\000"
 814 002c 03       		.uleb128 0x3
 815 002d 0D000000 		.4byte	.LASF2
 816 0031 03       		.byte	0x3
 817 0032 D4       		.byte	0xd4
 818 0033 37000000 		.4byte	0x37
 819 0037 04       		.uleb128 0x4
 820 0038 04       		.byte	0x4
 821 0039 07       		.byte	0x7
 822 003a B7010000 		.4byte	.LASF0
 823 003e 04       		.uleb128 0x4
 824 003f 01       		.byte	0x1
 825 0040 06       		.byte	0x6
 826 0041 F8000000 		.4byte	.LASF1
ARM GAS  /tmp/ccLwYPKd.s 			page 38


 827 0045 03       		.uleb128 0x3
 828 0046 24000000 		.4byte	.LASF3
 829 004a 04       		.byte	0x4
 830 004b 1C       		.byte	0x1c
 831 004c 50000000 		.4byte	0x50
 832 0050 04       		.uleb128 0x4
 833 0051 01       		.byte	0x1
 834 0052 08       		.byte	0x8
 835 0053 7E030000 		.4byte	.LASF4
 836 0057 04       		.uleb128 0x4
 837 0058 02       		.byte	0x2
 838 0059 05       		.byte	0x5
 839 005a B8030000 		.4byte	.LASF5
 840 005e 04       		.uleb128 0x4
 841 005f 02       		.byte	0x2
 842 0060 07       		.byte	0x7
 843 0061 D7000000 		.4byte	.LASF6
 844 0065 03       		.uleb128 0x3
 845 0066 59020000 		.4byte	.LASF7
 846 006a 04       		.byte	0x4
 847 006b 37       		.byte	0x37
 848 006c 70000000 		.4byte	0x70
 849 0070 04       		.uleb128 0x4
 850 0071 04       		.byte	0x4
 851 0072 05       		.byte	0x5
 852 0073 37010000 		.4byte	.LASF8
 853 0077 03       		.uleb128 0x3
 854 0078 8D040000 		.4byte	.LASF9
 855 007c 04       		.byte	0x4
 856 007d 38       		.byte	0x38
 857 007e 82000000 		.4byte	0x82
 858 0082 04       		.uleb128 0x4
 859 0083 04       		.byte	0x4
 860 0084 07       		.byte	0x7
 861 0085 48040000 		.4byte	.LASF10
 862 0089 04       		.uleb128 0x4
 863 008a 08       		.byte	0x8
 864 008b 05       		.byte	0x5
 865 008c EA000000 		.4byte	.LASF11
 866 0090 03       		.uleb128 0x3
 867 0091 1E030000 		.4byte	.LASF12
 868 0095 04       		.byte	0x4
 869 0096 4E       		.byte	0x4e
 870 0097 9B000000 		.4byte	0x9b
 871 009b 04       		.uleb128 0x4
 872 009c 08       		.byte	0x8
 873 009d 07       		.byte	0x7
 874 009e 69000000 		.4byte	.LASF13
 875 00a2 03       		.uleb128 0x3
 876 00a3 55050000 		.4byte	.LASF14
 877 00a7 05       		.byte	0x5
 878 00a8 2A       		.byte	0x2a
 879 00a9 45000000 		.4byte	0x45
 880 00ad 03       		.uleb128 0x3
 881 00ae 76030000 		.4byte	.LASF15
 882 00b2 05       		.byte	0x5
 883 00b3 41       		.byte	0x41
ARM GAS  /tmp/ccLwYPKd.s 			page 39


 884 00b4 65000000 		.4byte	0x65
 885 00b8 03       		.uleb128 0x3
 886 00b9 17040000 		.4byte	.LASF16
 887 00bd 05       		.byte	0x5
 888 00be 42       		.byte	0x42
 889 00bf 77000000 		.4byte	0x77
 890 00c3 03       		.uleb128 0x3
 891 00c4 1B000000 		.4byte	.LASF17
 892 00c8 05       		.byte	0x5
 893 00c9 4E       		.byte	0x4e
 894 00ca 90000000 		.4byte	0x90
 895 00ce 03       		.uleb128 0x3
 896 00cf D6040000 		.4byte	.LASF18
 897 00d3 06       		.byte	0x6
 898 00d4 39       		.byte	0x39
 899 00d5 B8000000 		.4byte	0xb8
 900 00d9 03       		.uleb128 0x3
 901 00da 26020000 		.4byte	.LASF19
 902 00de 06       		.byte	0x6
 903 00df 3C       		.byte	0x3c
 904 00e0 A2000000 		.4byte	0xa2
 905 00e4 03       		.uleb128 0x3
 906 00e5 40010000 		.4byte	.LASF20
 907 00e9 06       		.byte	0x6
 908 00ea 3D       		.byte	0x3d
 909 00eb A2000000 		.4byte	0xa2
 910 00ef 03       		.uleb128 0x3
 911 00f0 31030000 		.4byte	.LASF21
 912 00f4 06       		.byte	0x6
 913 00f5 3E       		.byte	0x3e
 914 00f6 A2000000 		.4byte	0xa2
 915 00fa 03       		.uleb128 0x3
 916 00fb 50030000 		.4byte	.LASF22
 917 00ff 06       		.byte	0x6
 918 0100 40       		.byte	0x40
 919 0101 B8000000 		.4byte	0xb8
 920 0105 03       		.uleb128 0x3
 921 0106 0A020000 		.4byte	.LASF23
 922 010a 06       		.byte	0x6
 923 010b 41       		.byte	0x41
 924 010c AD000000 		.4byte	0xad
 925 0110 03       		.uleb128 0x3
 926 0111 4D020000 		.4byte	.LASF24
 927 0115 06       		.byte	0x6
 928 0116 43       		.byte	0x43
 929 0117 B8000000 		.4byte	0xb8
 930 011b 03       		.uleb128 0x3
 931 011c B1010000 		.4byte	.LASF25
 932 0120 06       		.byte	0x6
 933 0121 45       		.byte	0x45
 934 0122 AD000000 		.4byte	0xad
 935 0126 03       		.uleb128 0x3
 936 0127 6F040000 		.4byte	.LASF26
 937 012b 07       		.byte	0x7
 938 012c 33       		.byte	0x33
 939 012d B8000000 		.4byte	0xb8
 940 0131 03       		.uleb128 0x3
ARM GAS  /tmp/ccLwYPKd.s 			page 40


 941 0132 5F040000 		.4byte	.LASF27
 942 0136 07       		.byte	0x7
 943 0137 3F       		.byte	0x3f
 944 0138 3C010000 		.4byte	0x13c
 945 013c 05       		.uleb128 0x5
 946 013d 00020000 		.4byte	.LASF46
 947 0141 40       		.byte	0x40
 948 0142 08       		.byte	0x8
 949 0143 C2       		.byte	0xc2
 950 0144 1C020000 		.4byte	0x21c
 951 0148 06       		.uleb128 0x6
 952 0149 D8030000 		.4byte	.LASF28
 953 014d 08       		.byte	0x8
 954 014e C3       		.byte	0xc3
 955 014f 27020000 		.4byte	0x227
 956 0153 00       		.byte	0
 957 0154 06       		.uleb128 0x6
 958 0155 49030000 		.4byte	.LASF29
 959 0159 08       		.byte	0x8
 960 015a C5       		.byte	0xc5
 961 015b 27020000 		.4byte	0x227
 962 015f 04       		.byte	0x4
 963 0160 06       		.uleb128 0x6
 964 0161 D0000000 		.4byte	.LASF30
 965 0165 08       		.byte	0x8
 966 0166 C7       		.byte	0xc7
 967 0167 FA000000 		.4byte	0xfa
 968 016b 08       		.byte	0x8
 969 016c 06       		.uleb128 0x6
 970 016d A2060000 		.4byte	.LASF31
 971 0171 08       		.byte	0x8
 972 0172 C8       		.byte	0xc8
 973 0173 57040000 		.4byte	0x457
 974 0177 0C       		.byte	0xc
 975 0178 06       		.uleb128 0x6
 976 0179 51010000 		.4byte	.LASF32
 977 017d 08       		.byte	0x8
 978 017e CA       		.byte	0xca
 979 017f 27020000 		.4byte	0x227
 980 0183 10       		.byte	0x10
 981 0184 06       		.uleb128 0x6
 982 0185 DE020000 		.4byte	.LASF33
 983 0189 08       		.byte	0x8
 984 018a CB       		.byte	0xcb
 985 018b 27020000 		.4byte	0x227
 986 018f 14       		.byte	0x14
 987 0190 06       		.uleb128 0x6
 988 0191 5B060000 		.4byte	.LASF34
 989 0195 08       		.byte	0x8
 990 0196 D2       		.byte	0xd2
 991 0197 E2050000 		.4byte	0x5e2
 992 019b 18       		.byte	0x18
 993 019c 06       		.uleb128 0x6
 994 019d C2030000 		.4byte	.LASF35
 995 01a1 08       		.byte	0x8
 996 01a2 DD       		.byte	0xdd
 997 01a3 E4000000 		.4byte	0xe4
ARM GAS  /tmp/ccLwYPKd.s 			page 41


 998 01a7 1C       		.byte	0x1c
 999 01a8 06       		.uleb128 0x6
 1000 01a9 76060000 		.4byte	.LASF36
 1001 01ad 08       		.byte	0x8
 1002 01ae E1       		.byte	0xe1
 1003 01af D9000000 		.4byte	0xd9
 1004 01b3 1D       		.byte	0x1d
 1005 01b4 06       		.uleb128 0x6
 1006 01b5 48050000 		.4byte	.LASF37
 1007 01b9 08       		.byte	0x8
 1008 01ba E6       		.byte	0xe6
 1009 01bb EF000000 		.4byte	0xef
 1010 01bf 1E       		.byte	0x1e
 1011 01c0 07       		.uleb128 0x7
 1012 01c1 705F7500 		.ascii	"p_u\000"
 1013 01c5 08       		.byte	0x8
 1014 01c6 3701     		.2byte	0x137
 1015 01c8 11050000 		.4byte	0x511
 1016 01cc 20       		.byte	0x20
 1017 01cd 08       		.uleb128 0x8
 1018 01ce 6E020000 		.4byte	.LASF38
 1019 01d2 08       		.byte	0x8
 1020 01d3 3C01     		.2byte	0x13c
 1021 01d5 2D020000 		.4byte	0x22d
 1022 01d9 24       		.byte	0x24
 1023 01da 08       		.uleb128 0x8
 1024 01db D3010000 		.4byte	.LASF39
 1025 01df 08       		.byte	0x8
 1026 01e0 4201     		.2byte	0x142
 1027 01e2 51020000 		.4byte	0x251
 1028 01e6 28       		.byte	0x28
 1029 01e7 08       		.uleb128 0x8
 1030 01e8 0C040000 		.4byte	.LASF40
 1031 01ec 08       		.byte	0x8
 1032 01ed 4801     		.2byte	0x148
 1033 01ef 10010000 		.4byte	0x110
 1034 01f3 30       		.byte	0x30
 1035 01f4 08       		.uleb128 0x8
 1036 01f5 AE030000 		.4byte	.LASF41
 1037 01f9 08       		.byte	0x8
 1038 01fa 4F01     		.2byte	0x14f
 1039 01fc DC050000 		.4byte	0x5dc
 1040 0200 34       		.byte	0x34
 1041 0201 08       		.uleb128 0x8
 1042 0202 79040000 		.4byte	.LASF42
 1043 0206 08       		.byte	0x8
 1044 0207 5301     		.2byte	0x153
 1045 0209 FA000000 		.4byte	0xfa
 1046 020d 38       		.byte	0x38
 1047 020e 08       		.uleb128 0x8
 1048 020f 04010000 		.4byte	.LASF43
 1049 0213 08       		.byte	0x8
 1050 0214 5A01     		.2byte	0x15a
 1051 0216 04030000 		.4byte	0x304
 1052 021a 3C       		.byte	0x3c
 1053 021b 00       		.byte	0
 1054 021c 03       		.uleb128 0x3
ARM GAS  /tmp/ccLwYPKd.s 			page 42


 1055 021d 81020000 		.4byte	.LASF44
 1056 0221 07       		.byte	0x7
 1057 0222 44       		.byte	0x44
 1058 0223 27020000 		.4byte	0x227
 1059 0227 09       		.uleb128 0x9
 1060 0228 04       		.byte	0x4
 1061 0229 31010000 		.4byte	0x131
 1062 022d 03       		.uleb128 0x3
 1063 022e 67060000 		.4byte	.LASF45
 1064 0232 07       		.byte	0x7
 1065 0233 49       		.byte	0x49
 1066 0234 38020000 		.4byte	0x238
 1067 0238 05       		.uleb128 0x5
 1068 0239 38040000 		.4byte	.LASF47
 1069 023d 04       		.byte	0x4
 1070 023e 08       		.byte	0x8
 1071 023f B0       		.byte	0xb0
 1072 0240 51020000 		.4byte	0x251
 1073 0244 06       		.uleb128 0x6
 1074 0245 D8030000 		.4byte	.LASF28
 1075 0249 08       		.byte	0x8
 1076 024a B1       		.byte	0xb1
 1077 024b 27020000 		.4byte	0x227
 1078 024f 00       		.byte	0
 1079 0250 00       		.byte	0
 1080 0251 03       		.uleb128 0x3
 1081 0252 2C050000 		.4byte	.LASF48
 1082 0256 07       		.byte	0x7
 1083 0257 50       		.byte	0x50
 1084 0258 5C020000 		.4byte	0x25c
 1085 025c 05       		.uleb128 0x5
 1086 025d BF000000 		.4byte	.LASF49
 1087 0261 08       		.byte	0x8
 1088 0262 08       		.byte	0x8
 1089 0263 B7       		.byte	0xb7
 1090 0264 81020000 		.4byte	0x281
 1091 0268 06       		.uleb128 0x6
 1092 0269 D8030000 		.4byte	.LASF28
 1093 026d 08       		.byte	0x8
 1094 026e B8       		.byte	0xb8
 1095 026f 27020000 		.4byte	0x227
 1096 0273 00       		.byte	0
 1097 0274 06       		.uleb128 0x6
 1098 0275 49030000 		.4byte	.LASF29
 1099 0279 08       		.byte	0x8
 1100 027a B9       		.byte	0xb9
 1101 027b 27020000 		.4byte	0x227
 1102 027f 04       		.byte	0x4
 1103 0280 00       		.byte	0
 1104 0281 03       		.uleb128 0x3
 1105 0282 00000000 		.4byte	.LASF50
 1106 0286 07       		.byte	0x7
 1107 0287 57       		.byte	0x57
 1108 0288 8C020000 		.4byte	0x28c
 1109 028c 0A       		.uleb128 0xa
 1110 028d 3F020000 		.4byte	.LASF51
 1111 0291 1C       		.byte	0x1c
ARM GAS  /tmp/ccLwYPKd.s 			page 43


 1112 0292 08       		.byte	0x8
 1113 0293 9201     		.2byte	0x192
 1114 0295 E8020000 		.4byte	0x2e8
 1115 0299 08       		.uleb128 0x8
 1116 029a 27040000 		.4byte	.LASF52
 1117 029e 08       		.byte	0x8
 1118 029f 9301     		.2byte	0x193
 1119 02a1 51020000 		.4byte	0x251
 1120 02a5 00       		.byte	0
 1121 02a6 08       		.uleb128 0x8
 1122 02a7 CA030000 		.4byte	.LASF53
 1123 02ab 08       		.byte	0x8
 1124 02ac 9401     		.2byte	0x194
 1125 02ae FA000000 		.4byte	0xfa
 1126 02b2 08       		.byte	0x8
 1127 02b3 08       		.uleb128 0x8
 1128 02b4 E6020000 		.4byte	.LASF54
 1129 02b8 08       		.byte	0x8
 1130 02b9 9601     		.2byte	0x196
 1131 02bb 57040000 		.4byte	0x457
 1132 02bf 0C       		.byte	0xc
 1133 02c0 08       		.uleb128 0x8
 1134 02c1 6F010000 		.4byte	.LASF55
 1135 02c5 08       		.byte	0x8
 1136 02c6 9901     		.2byte	0x199
 1137 02c8 27020000 		.4byte	0x227
 1138 02cc 10       		.byte	0x10
 1139 02cd 08       		.uleb128 0x8
 1140 02ce 16030000 		.4byte	.LASF56
 1141 02d2 08       		.byte	0x8
 1142 02d3 9A01     		.2byte	0x19a
 1143 02d5 27020000 		.4byte	0x227
 1144 02d9 14       		.byte	0x14
 1145 02da 08       		.uleb128 0x8
 1146 02db 0C030000 		.4byte	.LASF57
 1147 02df 08       		.byte	0x8
 1148 02e0 9D01     		.2byte	0x19d
 1149 02e2 27020000 		.4byte	0x227
 1150 02e6 18       		.byte	0x18
 1151 02e7 00       		.byte	0
 1152 02e8 03       		.uleb128 0x3
 1153 02e9 84040000 		.4byte	.LASF58
 1154 02ed 07       		.byte	0x7
 1155 02ee 5C       		.byte	0x5c
 1156 02ef F3020000 		.4byte	0x2f3
 1157 02f3 09       		.uleb128 0x9
 1158 02f4 04       		.byte	0x4
 1159 02f5 F9020000 		.4byte	0x2f9
 1160 02f9 0B       		.uleb128 0xb
 1161 02fa 04030000 		.4byte	0x304
 1162 02fe 0C       		.uleb128 0xc
 1163 02ff 04030000 		.4byte	0x304
 1164 0303 00       		.byte	0
 1165 0304 0D       		.uleb128 0xd
 1166 0305 04       		.byte	0x4
 1167 0306 03       		.uleb128 0x3
 1168 0307 39030000 		.4byte	.LASF59
ARM GAS  /tmp/ccLwYPKd.s 			page 44


 1169 030b 07       		.byte	0x7
 1170 030c 61       		.byte	0x61
 1171 030d 11030000 		.4byte	0x311
 1172 0311 0A       		.uleb128 0xa
 1173 0312 EE030000 		.4byte	.LASF60
 1174 0316 14       		.byte	0x14
 1175 0317 08       		.byte	0x8
 1176 0318 6D01     		.2byte	0x16d
 1177 031a 60030000 		.4byte	0x360
 1178 031e 08       		.uleb128 0x8
 1179 031f C4010000 		.4byte	.LASF61
 1180 0323 08       		.byte	0x8
 1181 0324 6E01     		.2byte	0x16e
 1182 0326 F4050000 		.4byte	0x5f4
 1183 032a 00       		.byte	0
 1184 032b 08       		.uleb128 0x8
 1185 032c 8C010000 		.4byte	.LASF62
 1186 0330 08       		.byte	0x8
 1187 0331 6F01     		.2byte	0x16f
 1188 0333 F4050000 		.4byte	0x5f4
 1189 0337 04       		.byte	0x4
 1190 0338 08       		.uleb128 0x8
 1191 0339 2F040000 		.4byte	.LASF63
 1192 033d 08       		.byte	0x8
 1193 033e 7001     		.2byte	0x170
 1194 0340 26010000 		.4byte	0x126
 1195 0344 08       		.byte	0x8
 1196 0345 08       		.uleb128 0x8
 1197 0346 A8060000 		.4byte	.LASF64
 1198 034a 08       		.byte	0x8
 1199 034b 7101     		.2byte	0x171
 1200 034d E8020000 		.4byte	0x2e8
 1201 0351 0C       		.byte	0xc
 1202 0352 08       		.uleb128 0x8
 1203 0353 DE040000 		.4byte	.LASF65
 1204 0357 08       		.byte	0x8
 1205 0358 7301     		.2byte	0x173
 1206 035a 04030000 		.4byte	0x304
 1207 035e 10       		.byte	0x10
 1208 035f 00       		.byte	0
 1209 0360 03       		.uleb128 0x3
 1210 0361 9C000000 		.4byte	.LASF66
 1211 0365 07       		.byte	0x7
 1212 0366 66       		.byte	0x66
 1213 0367 6B030000 		.4byte	0x36b
 1214 036b 0A       		.uleb128 0xa
 1215 036c 94020000 		.4byte	.LASF67
 1216 0370 10       		.byte	0x10
 1217 0371 08       		.byte	0x8
 1218 0372 7D01     		.2byte	0x17d
 1219 0374 AD030000 		.4byte	0x3ad
 1220 0378 08       		.uleb128 0x8
 1221 0379 C4010000 		.4byte	.LASF61
 1222 037d 08       		.byte	0x8
 1223 037e 7E01     		.2byte	0x17e
 1224 0380 F4050000 		.4byte	0x5f4
 1225 0384 00       		.byte	0
ARM GAS  /tmp/ccLwYPKd.s 			page 45


 1226 0385 08       		.uleb128 0x8
 1227 0386 8C010000 		.4byte	.LASF62
 1228 038a 08       		.byte	0x8
 1229 038b 8001     		.2byte	0x180
 1230 038d F4050000 		.4byte	0x5f4
 1231 0391 04       		.byte	0x4
 1232 0392 08       		.uleb128 0x8
 1233 0393 2F040000 		.4byte	.LASF63
 1234 0397 08       		.byte	0x8
 1235 0398 8201     		.2byte	0x182
 1236 039a 26010000 		.4byte	0x126
 1237 039e 08       		.byte	0x8
 1238 039f 08       		.uleb128 0x8
 1239 03a0 D2020000 		.4byte	.LASF68
 1240 03a4 08       		.byte	0x8
 1241 03a5 8A01     		.2byte	0x18a
 1242 03a7 26010000 		.4byte	0x126
 1243 03ab 0C       		.byte	0xc
 1244 03ac 00       		.byte	0
 1245 03ad 03       		.uleb128 0x3
 1246 03ae 3A000000 		.4byte	.LASF69
 1247 03b2 07       		.byte	0x7
 1248 03b3 6B       		.byte	0x6b
 1249 03b4 B8030000 		.4byte	0x3b8
 1250 03b8 0A       		.uleb128 0xa
 1251 03b9 66030000 		.4byte	.LASF70
 1252 03bd 04       		.byte	0x4
 1253 03be 08       		.byte	0x8
 1254 03bf A401     		.2byte	0x1a4
 1255 03c1 D3030000 		.4byte	0x3d3
 1256 03c5 08       		.uleb128 0x8
 1257 03c6 A6040000 		.4byte	.LASF71
 1258 03ca 08       		.byte	0x8
 1259 03cb AC01     		.2byte	0x1ac
 1260 03cd FA050000 		.4byte	0x5fa
 1261 03d1 00       		.byte	0
 1262 03d2 00       		.byte	0
 1263 03d3 03       		.uleb128 0x3
 1264 03d4 10020000 		.4byte	.LASF72
 1265 03d8 07       		.byte	0x7
 1266 03d9 70       		.byte	0x70
 1267 03da DE030000 		.4byte	0x3de
 1268 03de 0E       		.uleb128 0xe
 1269 03df 2D010000 		.4byte	.LASF73
 1270 03e3 5001     		.2byte	0x150
 1271 03e5 08       		.byte	0x8
 1272 03e6 C401     		.2byte	0x1c4
 1273 03e8 3A040000 		.4byte	0x43a
 1274 03ec 08       		.uleb128 0x8
 1275 03ed 4F050000 		.4byte	.LASF74
 1276 03f1 08       		.byte	0x8
 1277 03f2 C801     		.2byte	0x1c8
 1278 03f4 81020000 		.4byte	0x281
 1279 03f8 00       		.byte	0
 1280 03f9 08       		.uleb128 0x8
 1281 03fa 14010000 		.4byte	.LASF75
 1282 03fe 08       		.byte	0x8
ARM GAS  /tmp/ccLwYPKd.s 			page 46


 1283 03ff CC01     		.2byte	0x1cc
 1284 0401 60030000 		.4byte	0x360
 1285 0405 1C       		.byte	0x1c
 1286 0406 07       		.uleb128 0x7
 1287 0407 64626700 		.ascii	"dbg\000"
 1288 040b 08       		.byte	0x8
 1289 040c D001     		.2byte	0x1d0
 1290 040e AD030000 		.4byte	0x3ad
 1291 0412 2C       		.byte	0x2c
 1292 0413 08       		.uleb128 0x8
 1293 0414 89000000 		.4byte	.LASF76
 1294 0418 08       		.byte	0x8
 1295 0419 D401     		.2byte	0x1d4
 1296 041b 31010000 		.4byte	0x131
 1297 041f 30       		.byte	0x30
 1298 0420 07       		.uleb128 0x7
 1299 0421 746D00   		.ascii	"tm\000"
 1300 0424 08       		.byte	0x8
 1301 0425 D901     		.2byte	0x1d9
 1302 0427 06050000 		.4byte	0x506
 1303 042b 70       		.byte	0x70
 1304 042c 08       		.uleb128 0x8
 1305 042d A2010000 		.4byte	.LASF77
 1306 0431 08       		.byte	0x8
 1307 0432 E501     		.2byte	0x1e5
 1308 0434 FF050000 		.4byte	0x5ff
 1309 0438 78       		.byte	0x78
 1310 0439 00       		.byte	0
 1311 043a 04       		.uleb128 0x4
 1312 043b 04       		.byte	0x4
 1313 043c 07       		.byte	0x7
 1314 043d 78020000 		.4byte	.LASF78
 1315 0441 03       		.uleb128 0x3
 1316 0442 83010000 		.4byte	.LASF79
 1317 0446 09       		.byte	0x9
 1318 0447 65       		.byte	0x65
 1319 0448 04030000 		.4byte	0x304
 1320 044c 03       		.uleb128 0x3
 1321 044d 63020000 		.4byte	.LASF80
 1322 0451 09       		.byte	0x9
 1323 0452 6D       		.byte	0x6d
 1324 0453 C3000000 		.4byte	0xc3
 1325 0457 05       		.uleb128 0x5
 1326 0458 CE040000 		.4byte	.LASF81
 1327 045c 04       		.byte	0x4
 1328 045d 09       		.byte	0x9
 1329 045e 89       		.byte	0x89
 1330 045f 70040000 		.4byte	0x470
 1331 0463 0F       		.uleb128 0xf
 1332 0464 72313300 		.ascii	"r13\000"
 1333 0468 09       		.byte	0x9
 1334 0469 8A       		.byte	0x8a
 1335 046a EB040000 		.4byte	0x4eb
 1336 046e 00       		.byte	0
 1337 046f 00       		.byte	0
 1338 0470 05       		.uleb128 0x5
 1339 0471 2E000000 		.4byte	.LASF82
ARM GAS  /tmp/ccLwYPKd.s 			page 47


 1340 0475 24       		.byte	0x24
 1341 0476 0A       		.byte	0xa
 1342 0477 FD       		.byte	0xfd
 1343 0478 EB040000 		.4byte	0x4eb
 1344 047c 07       		.uleb128 0x7
 1345 047d 723400   		.ascii	"r4\000"
 1346 0480 0A       		.byte	0xa
 1347 0481 1001     		.2byte	0x110
 1348 0483 41040000 		.4byte	0x441
 1349 0487 00       		.byte	0
 1350 0488 07       		.uleb128 0x7
 1351 0489 723500   		.ascii	"r5\000"
 1352 048c 0A       		.byte	0xa
 1353 048d 1101     		.2byte	0x111
 1354 048f 41040000 		.4byte	0x441
 1355 0493 04       		.byte	0x4
 1356 0494 07       		.uleb128 0x7
 1357 0495 723600   		.ascii	"r6\000"
 1358 0498 0A       		.byte	0xa
 1359 0499 1201     		.2byte	0x112
 1360 049b 41040000 		.4byte	0x441
 1361 049f 08       		.byte	0x8
 1362 04a0 07       		.uleb128 0x7
 1363 04a1 723700   		.ascii	"r7\000"
 1364 04a4 0A       		.byte	0xa
 1365 04a5 1301     		.2byte	0x113
 1366 04a7 41040000 		.4byte	0x441
 1367 04ab 0C       		.byte	0xc
 1368 04ac 07       		.uleb128 0x7
 1369 04ad 723800   		.ascii	"r8\000"
 1370 04b0 0A       		.byte	0xa
 1371 04b1 1401     		.2byte	0x114
 1372 04b3 41040000 		.4byte	0x441
 1373 04b7 10       		.byte	0x10
 1374 04b8 07       		.uleb128 0x7
 1375 04b9 723900   		.ascii	"r9\000"
 1376 04bc 0A       		.byte	0xa
 1377 04bd 1501     		.2byte	0x115
 1378 04bf 41040000 		.4byte	0x441
 1379 04c3 14       		.byte	0x14
 1380 04c4 07       		.uleb128 0x7
 1381 04c5 72313000 		.ascii	"r10\000"
 1382 04c9 0A       		.byte	0xa
 1383 04ca 1601     		.2byte	0x116
 1384 04cc 41040000 		.4byte	0x441
 1385 04d0 18       		.byte	0x18
 1386 04d1 07       		.uleb128 0x7
 1387 04d2 72313100 		.ascii	"r11\000"
 1388 04d6 0A       		.byte	0xa
 1389 04d7 1701     		.2byte	0x117
 1390 04d9 41040000 		.4byte	0x441
 1391 04dd 1C       		.byte	0x1c
 1392 04de 07       		.uleb128 0x7
 1393 04df 6C7200   		.ascii	"lr\000"
 1394 04e2 0A       		.byte	0xa
 1395 04e3 1801     		.2byte	0x118
 1396 04e5 41040000 		.4byte	0x441
ARM GAS  /tmp/ccLwYPKd.s 			page 48


 1397 04e9 20       		.byte	0x20
 1398 04ea 00       		.byte	0
 1399 04eb 09       		.uleb128 0x9
 1400 04ec 04       		.byte	0x4
 1401 04ed 70040000 		.4byte	0x470
 1402 04f1 10       		.uleb128 0x10
 1403 04f2 04       		.byte	0x4
 1404 04f3 0B       		.byte	0xb
 1405 04f4 38       		.byte	0x38
 1406 04f5 06050000 		.4byte	0x506
 1407 04f9 06       		.uleb128 0x6
 1408 04fa B0040000 		.4byte	.LASF83
 1409 04fe 0B       		.byte	0xb
 1410 04ff 3C       		.byte	0x3c
 1411 0500 CE000000 		.4byte	0xce
 1412 0504 00       		.byte	0
 1413 0505 00       		.byte	0
 1414 0506 03       		.uleb128 0x3
 1415 0507 FB020000 		.4byte	.LASF84
 1416 050b 0B       		.byte	0xb
 1417 050c 3D       		.byte	0x3d
 1418 050d F1040000 		.4byte	0x4f1
 1419 0511 11       		.uleb128 0x11
 1420 0512 04       		.byte	0x4
 1421 0513 08       		.byte	0x8
 1422 0514 FA       		.byte	0xfa
 1423 0515 7A050000 		.4byte	0x57a
 1424 0519 12       		.uleb128 0x12
 1425 051a 14000000 		.4byte	.LASF85
 1426 051e 08       		.byte	0x8
 1427 051f 0101     		.2byte	0x101
 1428 0521 05010000 		.4byte	0x105
 1429 0525 12       		.uleb128 0x12
 1430 0526 80000000 		.4byte	.LASF86
 1431 052a 08       		.byte	0x8
 1432 052b 0801     		.2byte	0x108
 1433 052d 05010000 		.4byte	0x105
 1434 0531 12       		.uleb128 0x12
 1435 0532 54060000 		.4byte	.LASF87
 1436 0536 08       		.byte	0x8
 1437 0537 0F01     		.2byte	0x10f
 1438 0539 04030000 		.4byte	0x304
 1439 053d 12       		.uleb128 0x12
 1440 053e 27010000 		.4byte	.LASF88
 1441 0542 08       		.byte	0x8
 1442 0543 1601     		.2byte	0x116
 1443 0545 7A050000 		.4byte	0x57a
 1444 0549 12       		.uleb128 0x12
 1445 054a 94000000 		.4byte	.LASF89
 1446 054e 08       		.byte	0x8
 1447 054f 1B01     		.2byte	0x11b
 1448 0551 05010000 		.4byte	0x105
 1449 0555 12       		.uleb128 0x12
 1450 0556 CC010000 		.4byte	.LASF90
 1451 055a 08       		.byte	0x8
 1452 055b 2401     		.2byte	0x124
 1453 055d A5050000 		.4byte	0x5a5
ARM GAS  /tmp/ccLwYPKd.s 			page 49


 1454 0561 12       		.uleb128 0x12
 1455 0562 20040000 		.4byte	.LASF91
 1456 0566 08       		.byte	0x8
 1457 0567 2D01     		.2byte	0x12d
 1458 0569 DC050000 		.4byte	0x5dc
 1459 056d 12       		.uleb128 0x12
 1460 056e D1030000 		.4byte	.LASF92
 1461 0572 08       		.byte	0x8
 1462 0573 3501     		.2byte	0x135
 1463 0575 10010000 		.4byte	0x110
 1464 0579 00       		.byte	0
 1465 057a 09       		.uleb128 0x9
 1466 057b 04       		.byte	0x4
 1467 057c 1C020000 		.4byte	0x21c
 1468 0580 05       		.uleb128 0x5
 1469 0581 FF030000 		.4byte	.LASF93
 1470 0585 0C       		.byte	0xc
 1471 0586 0C       		.byte	0xc
 1472 0587 34       		.byte	0x34
 1473 0588 A5050000 		.4byte	0x5a5
 1474 058c 06       		.uleb128 0x6
 1475 058d 59010000 		.4byte	.LASF94
 1476 0591 0C       		.byte	0xc
 1477 0592 35       		.byte	0x35
 1478 0593 51020000 		.4byte	0x251
 1479 0597 00       		.byte	0
 1480 0598 06       		.uleb128 0x6
 1481 0599 EC010000 		.4byte	.LASF95
 1482 059d 0C       		.byte	0xc
 1483 059e 37       		.byte	0x37
 1484 059f 1B010000 		.4byte	0x11b
 1485 05a3 08       		.byte	0x8
 1486 05a4 00       		.byte	0
 1487 05a5 09       		.uleb128 0x9
 1488 05a6 04       		.byte	0x4
 1489 05a7 80050000 		.4byte	0x580
 1490 05ab 05       		.uleb128 0x5
 1491 05ac B7040000 		.4byte	.LASF96
 1492 05b0 10       		.byte	0x10
 1493 05b1 0D       		.byte	0xd
 1494 05b2 39       		.byte	0x39
 1495 05b3 DC050000 		.4byte	0x5dc
 1496 05b7 06       		.uleb128 0x6
 1497 05b8 0C010000 		.4byte	.LASF97
 1498 05bc 0D       		.byte	0xd
 1499 05bd 3A       		.byte	0x3a
 1500 05be 51020000 		.4byte	0x251
 1501 05c2 00       		.byte	0
 1502 05c3 06       		.uleb128 0x6
 1503 05c4 9A060000 		.4byte	.LASF98
 1504 05c8 0D       		.byte	0xd
 1505 05c9 3C       		.byte	0x3c
 1506 05ca 27020000 		.4byte	0x227
 1507 05ce 08       		.byte	0x8
 1508 05cf 06       		.uleb128 0x6
 1509 05d0 68040000 		.4byte	.LASF99
 1510 05d4 0D       		.byte	0xd
ARM GAS  /tmp/ccLwYPKd.s 			page 50


 1511 05d5 3E       		.byte	0x3e
 1512 05d6 1A060000 		.4byte	0x61a
 1513 05da 0C       		.byte	0xc
 1514 05db 00       		.byte	0
 1515 05dc 09       		.uleb128 0x9
 1516 05dd 04       		.byte	0x4
 1517 05de AB050000 		.4byte	0x5ab
 1518 05e2 09       		.uleb128 0x9
 1519 05e3 04       		.byte	0x4
 1520 05e4 E8050000 		.4byte	0x5e8
 1521 05e8 13       		.uleb128 0x13
 1522 05e9 ED050000 		.4byte	0x5ed
 1523 05ed 04       		.uleb128 0x4
 1524 05ee 01       		.byte	0x1
 1525 05ef 08       		.byte	0x8
 1526 05f0 5A040000 		.4byte	.LASF100
 1527 05f4 09       		.uleb128 0x9
 1528 05f5 04       		.byte	0x4
 1529 05f6 06030000 		.4byte	0x306
 1530 05fa 14       		.uleb128 0x14
 1531 05fb E2050000 		.4byte	0x5e2
 1532 05ff 15       		.uleb128 0x15
 1533 0600 4C040000 		.4byte	0x44c
 1534 0604 0F060000 		.4byte	0x60f
 1535 0608 16       		.uleb128 0x16
 1536 0609 3A040000 		.4byte	0x43a
 1537 060d 1A       		.byte	0x1a
 1538 060e 00       		.byte	0
 1539 060f 03       		.uleb128 0x3
 1540 0610 94010000 		.4byte	.LASF101
 1541 0614 0D       		.byte	0xd
 1542 0615 34       		.byte	0x34
 1543 0616 AB050000 		.4byte	0x5ab
 1544 061a 09       		.uleb128 0x9
 1545 061b 04       		.byte	0x4
 1546 061c 0F060000 		.4byte	0x60f
 1547 0620 03       		.uleb128 0x3
 1548 0621 5C000000 		.4byte	.LASF102
 1549 0625 0E       		.byte	0xe
 1550 0626 36       		.byte	0x36
 1551 0627 2B060000 		.4byte	0x62b
 1552 062b 09       		.uleb128 0x9
 1553 062c 04       		.byte	0x4
 1554 062d 31060000 		.4byte	0x631
 1555 0631 17       		.uleb128 0x17
 1556 0632 04030000 		.4byte	0x304
 1557 0636 40060000 		.4byte	0x640
 1558 063a 0C       		.uleb128 0xc
 1559 063b 2C000000 		.4byte	0x2c
 1560 063f 00       		.byte	0
 1561 0640 05       		.uleb128 0x5
 1562 0641 3C050000 		.4byte	.LASF103
 1563 0645 04       		.byte	0x4
 1564 0646 0F       		.byte	0xf
 1565 0647 38       		.byte	0x38
 1566 0648 59060000 		.4byte	0x659
 1567 064c 06       		.uleb128 0x6
ARM GAS  /tmp/ccLwYPKd.s 			page 51


 1568 064d 29030000 		.4byte	.LASF104
 1569 0651 0F       		.byte	0xf
 1570 0652 39       		.byte	0x39
 1571 0653 59060000 		.4byte	0x659
 1572 0657 00       		.byte	0
 1573 0658 00       		.byte	0
 1574 0659 09       		.uleb128 0x9
 1575 065a 04       		.byte	0x4
 1576 065b 40060000 		.4byte	0x640
 1577 065f 10       		.uleb128 0x10
 1578 0660 0C       		.byte	0xc
 1579 0661 0F       		.byte	0xf
 1580 0662 40       		.byte	0x40
 1581 0663 8C060000 		.4byte	0x68c
 1582 0667 06       		.uleb128 0x6
 1583 0668 49010000 		.4byte	.LASF105
 1584 066c 0F       		.byte	0xf
 1585 066d 41       		.byte	0x41
 1586 066e 59060000 		.4byte	0x659
 1587 0672 00       		.byte	0
 1588 0673 06       		.uleb128 0x6
 1589 0674 EC020000 		.4byte	.LASF106
 1590 0678 0F       		.byte	0xf
 1591 0679 42       		.byte	0x42
 1592 067a 2C000000 		.4byte	0x2c
 1593 067e 04       		.byte	0x4
 1594 067f 06       		.uleb128 0x6
 1595 0680 77010000 		.4byte	.LASF107
 1596 0684 0F       		.byte	0xf
 1597 0685 44       		.byte	0x44
 1598 0686 20060000 		.4byte	0x620
 1599 068a 08       		.byte	0x8
 1600 068b 00       		.byte	0
 1601 068c 03       		.uleb128 0x3
 1602 068d DE010000 		.4byte	.LASF108
 1603 0691 0F       		.byte	0xf
 1604 0692 46       		.byte	0x46
 1605 0693 5F060000 		.4byte	0x65f
 1606 0697 18       		.uleb128 0x18
 1607 0698 98040000 		.4byte	.LASF115
 1608 069c 02       		.byte	0x2
 1609 069d 2202     		.2byte	0x222
 1610 069f 03       		.byte	0x3
 1611 06a0 B1060000 		.4byte	0x6b1
 1612 06a4 19       		.uleb128 0x19
 1613 06a5 9C010000 		.4byte	.LASF112
 1614 06a9 02       		.byte	0x2
 1615 06aa 2202     		.2byte	0x222
 1616 06ac B8000000 		.4byte	0xb8
 1617 06b0 00       		.byte	0
 1618 06b1 1A       		.uleb128 0x1a
 1619 06b2 52000000 		.4byte	.LASF109
 1620 06b6 0A       		.byte	0xa
 1621 06b7 C801     		.2byte	0x1c8
 1622 06b9 03       		.byte	0x3
 1623 06ba 1A       		.uleb128 0x1a
 1624 06bb 1B010000 		.4byte	.LASF110
ARM GAS  /tmp/ccLwYPKd.s 			page 52


 1625 06bf 0A       		.byte	0xa
 1626 06c0 E001     		.2byte	0x1e0
 1627 06c2 03       		.byte	0x3
 1628 06c3 1A       		.uleb128 0x1a
 1629 06c4 DF030000 		.4byte	.LASF111
 1630 06c8 10       		.byte	0x10
 1631 06c9 5A01     		.2byte	0x15a
 1632 06cb 03       		.byte	0x3
 1633 06cc 1B       		.uleb128 0x1b
 1634 06cd B9020000 		.4byte	.LASF118
 1635 06d1 01       		.byte	0x1
 1636 06d2 78       		.byte	0x78
 1637 06d3 04030000 		.4byte	0x304
 1638 06d7 01       		.byte	0x1
 1639 06d8 FF060000 		.4byte	0x6ff
 1640 06dc 1C       		.uleb128 0x1c
 1641 06dd 6D7000   		.ascii	"mp\000"
 1642 06e0 01       		.byte	0x1
 1643 06e1 78       		.byte	0x78
 1644 06e2 FF060000 		.4byte	0x6ff
 1645 06e6 1D       		.uleb128 0x1d
 1646 06e7 E9030000 		.4byte	.LASF113
 1647 06eb 01       		.byte	0x1
 1648 06ec 79       		.byte	0x79
 1649 06ed 04030000 		.4byte	0x304
 1650 06f1 1E       		.uleb128 0x1e
 1651 06f2 F2010000 		.4byte	.LASF114
 1652 06f6 15070000 		.4byte	0x715
 1653 06fa B9020000 		.4byte	.LASF118
 1654 06fe 00       		.byte	0
 1655 06ff 09       		.uleb128 0x9
 1656 0700 04       		.byte	0x4
 1657 0701 8C060000 		.4byte	0x68c
 1658 0705 15       		.uleb128 0x15
 1659 0706 ED050000 		.4byte	0x5ed
 1660 070a 15070000 		.4byte	0x715
 1661 070e 16       		.uleb128 0x16
 1662 070f 3A040000 		.4byte	0x43a
 1663 0713 0C       		.byte	0xc
 1664 0714 00       		.byte	0
 1665 0715 13       		.uleb128 0x13
 1666 0716 05070000 		.4byte	0x705
 1667 071a 18       		.uleb128 0x18
 1668 071b 7E060000 		.4byte	.LASF116
 1669 071f 10       		.byte	0x10
 1670 0720 6601     		.2byte	0x166
 1671 0722 03       		.byte	0x3
 1672 0723 35070000 		.4byte	0x735
 1673 0727 1E       		.uleb128 0x1e
 1674 0728 C0040000 		.4byte	.LASF117
 1675 072c 45070000 		.4byte	0x745
 1676 0730 7E060000 		.4byte	.LASF116
 1677 0734 00       		.byte	0
 1678 0735 15       		.uleb128 0x15
 1679 0736 ED050000 		.4byte	0x5ed
 1680 073a 45070000 		.4byte	0x745
 1681 073e 16       		.uleb128 0x16
ARM GAS  /tmp/ccLwYPKd.s 			page 53


 1682 073f 3A040000 		.4byte	0x43a
 1683 0743 0B       		.byte	0xb
 1684 0744 00       		.byte	0
 1685 0745 13       		.uleb128 0x13
 1686 0746 35070000 		.4byte	0x735
 1687 074a 1F       		.uleb128 0x1f
 1688 074b C6020000 		.4byte	.LASF120
 1689 074f 01       		.byte	0x1
 1690 0750 AB       		.byte	0xab
 1691 0751 01       		.byte	0x1
 1692 0752 84070000 		.4byte	0x784
 1693 0756 1C       		.uleb128 0x1c
 1694 0757 6D7000   		.ascii	"mp\000"
 1695 075a 01       		.byte	0x1
 1696 075b AB       		.byte	0xab
 1697 075c FF060000 		.4byte	0x6ff
 1698 0760 20       		.uleb128 0x20
 1699 0761 E9030000 		.4byte	.LASF113
 1700 0765 01       		.byte	0x1
 1701 0766 AB       		.byte	0xab
 1702 0767 04030000 		.4byte	0x304
 1703 076b 21       		.uleb128 0x21
 1704 076c 70687000 		.ascii	"php\000"
 1705 0770 01       		.byte	0x1
 1706 0771 AC       		.byte	0xac
 1707 0772 59060000 		.4byte	0x659
 1708 0776 1E       		.uleb128 0x1e
 1709 0777 AB020000 		.4byte	.LASF119
 1710 077b 84070000 		.4byte	0x784
 1711 077f C6020000 		.4byte	.LASF120
 1712 0783 00       		.byte	0
 1713 0784 13       		.uleb128 0x13
 1714 0785 35070000 		.4byte	0x735
 1715 0789 1F       		.uleb128 0x1f
 1716 078a 69050000 		.4byte	.LASF121
 1717 078e 01       		.byte	0x1
 1718 078f C1       		.byte	0xc1
 1719 0790 01       		.byte	0x1
 1720 0791 AB070000 		.4byte	0x7ab
 1721 0795 1C       		.uleb128 0x1c
 1722 0796 6D7000   		.ascii	"mp\000"
 1723 0799 01       		.byte	0x1
 1724 079a C1       		.byte	0xc1
 1725 079b FF060000 		.4byte	0x6ff
 1726 079f 20       		.uleb128 0x20
 1727 07a0 E9030000 		.4byte	.LASF113
 1728 07a4 01       		.byte	0x1
 1729 07a5 C1       		.byte	0xc1
 1730 07a6 04030000 		.4byte	0x304
 1731 07aa 00       		.byte	0
 1732 07ab 22       		.uleb128 0x22
 1733 07ac 1C020000 		.4byte	.LASF122
 1734 07b0 0F       		.byte	0xf
 1735 07b1 89       		.byte	0x89
 1736 07b2 03       		.byte	0x3
 1737 07b3 CD070000 		.4byte	0x7cd
 1738 07b7 1C       		.uleb128 0x1c
ARM GAS  /tmp/ccLwYPKd.s 			page 54


 1739 07b8 6D7000   		.ascii	"mp\000"
 1740 07bb 0F       		.byte	0xf
 1741 07bc 89       		.byte	0x89
 1742 07bd FF060000 		.4byte	0x6ff
 1743 07c1 20       		.uleb128 0x20
 1744 07c2 E9030000 		.4byte	.LASF113
 1745 07c6 0F       		.byte	0xf
 1746 07c7 89       		.byte	0x89
 1747 07c8 04030000 		.4byte	0x304
 1748 07cc 00       		.byte	0
 1749 07cd 23       		.uleb128 0x23
 1750 07ce 2E020000 		.4byte	.LASF125
 1751 07d2 01       		.byte	0x1
 1752 07d3 4B       		.byte	0x4b
 1753 07d4 00000000 		.4byte	.LFB241
 1754 07d8 0A000000 		.4byte	.LFE241-.LFB241
 1755 07dc 01       		.uleb128 0x1
 1756 07dd 9C       		.byte	0x9c
 1757 07de 12080000 		.4byte	0x812
 1758 07e2 24       		.uleb128 0x24
 1759 07e3 6D7000   		.ascii	"mp\000"
 1760 07e6 01       		.byte	0x1
 1761 07e7 4B       		.byte	0x4b
 1762 07e8 FF060000 		.4byte	0x6ff
 1763 07ec 01       		.uleb128 0x1
 1764 07ed 50       		.byte	0x50
 1765 07ee 25       		.uleb128 0x25
 1766 07ef 62060000 		.4byte	.LASF123
 1767 07f3 01       		.byte	0x1
 1768 07f4 4B       		.byte	0x4b
 1769 07f5 2C000000 		.4byte	0x2c
 1770 07f9 01       		.uleb128 0x1
 1771 07fa 51       		.byte	0x51
 1772 07fb 25       		.uleb128 0x25
 1773 07fc 49000000 		.4byte	.LASF124
 1774 0800 01       		.byte	0x1
 1775 0801 4B       		.byte	0x4b
 1776 0802 20060000 		.4byte	0x620
 1777 0806 01       		.uleb128 0x1
 1778 0807 52       		.byte	0x52
 1779 0808 26       		.uleb128 0x26
 1780 0809 58030000 		.4byte	.LASF127
 1781 080d 22080000 		.4byte	0x822
 1782 0811 00       		.byte	0
 1783 0812 15       		.uleb128 0x15
 1784 0813 ED050000 		.4byte	0x5ed
 1785 0817 22080000 		.4byte	0x822
 1786 081b 16       		.uleb128 0x16
 1787 081c 3A040000 		.4byte	0x43a
 1788 0820 10       		.byte	0x10
 1789 0821 00       		.byte	0
 1790 0822 13       		.uleb128 0x13
 1791 0823 12080000 		.4byte	0x812
 1792 0827 23       		.uleb128 0x23
 1793 0828 8A060000 		.4byte	.LASF126
 1794 082c 01       		.byte	0x1
 1795 082d 61       		.byte	0x61
ARM GAS  /tmp/ccLwYPKd.s 			page 55


 1796 082e 00000000 		.4byte	.LFB242
 1797 0832 22000000 		.4byte	.LFE242-.LFB242
 1798 0836 01       		.uleb128 0x1
 1799 0837 9C       		.byte	0x9c
 1800 0838 73090000 		.4byte	0x973
 1801 083c 24       		.uleb128 0x24
 1802 083d 6D7000   		.ascii	"mp\000"
 1803 0840 01       		.byte	0x1
 1804 0841 61       		.byte	0x61
 1805 0842 FF060000 		.4byte	0x6ff
 1806 0846 01       		.uleb128 0x1
 1807 0847 50       		.byte	0x50
 1808 0848 27       		.uleb128 0x27
 1809 0849 7000     		.ascii	"p\000"
 1810 084b 01       		.byte	0x1
 1811 084c 61       		.byte	0x61
 1812 084d 04030000 		.4byte	0x304
 1813 0851 00000000 		.4byte	.LLST0
 1814 0855 27       		.uleb128 0x27
 1815 0856 6E00     		.ascii	"n\000"
 1816 0858 01       		.byte	0x1
 1817 0859 61       		.byte	0x61
 1818 085a 2C000000 		.4byte	0x2c
 1819 085e 1E000000 		.4byte	.LLST1
 1820 0862 26       		.uleb128 0x26
 1821 0863 61010000 		.4byte	.LASF128
 1822 0867 83090000 		.4byte	0x983
 1823 086b 28       		.uleb128 0x28
 1824 086c AB070000 		.4byte	0x7ab
 1825 0870 04000000 		.4byte	.LBB77
 1826 0874 12000000 		.4byte	.LBE77-.LBB77
 1827 0878 01       		.byte	0x1
 1828 0879 66       		.byte	0x66
 1829 087a 29       		.uleb128 0x29
 1830 087b B7070000 		.4byte	0x7b7
 1831 087f 49000000 		.4byte	.LLST2
 1832 0883 29       		.uleb128 0x29
 1833 0884 C1070000 		.4byte	0x7c1
 1834 0888 5C000000 		.4byte	.LLST3
 1835 088c 28       		.uleb128 0x28
 1836 088d 89070000 		.4byte	0x789
 1837 0891 04000000 		.4byte	.LBB78
 1838 0895 12000000 		.4byte	.LBE78-.LBB78
 1839 0899 0F       		.byte	0xf
 1840 089a 8B       		.byte	0x8b
 1841 089b 29       		.uleb128 0x29
 1842 089c 9F070000 		.4byte	0x79f
 1843 08a0 5C000000 		.4byte	.LLST3
 1844 08a4 29       		.uleb128 0x29
 1845 08a5 95070000 		.4byte	0x795
 1846 08a9 49000000 		.4byte	.LLST2
 1847 08ad 2A       		.uleb128 0x2a
 1848 08ae C3060000 		.4byte	0x6c3
 1849 08b2 04000000 		.4byte	.LBB79
 1850 08b6 00000000 		.4byte	.Ldebug_ranges0+0
 1851 08ba 01       		.byte	0x1
 1852 08bb C3       		.byte	0xc3
ARM GAS  /tmp/ccLwYPKd.s 			page 56


 1853 08bc EC080000 		.4byte	0x8ec
 1854 08c0 2B       		.uleb128 0x2b
 1855 08c1 B1060000 		.4byte	0x6b1
 1856 08c5 04000000 		.4byte	.LBB80
 1857 08c9 00000000 		.4byte	.Ldebug_ranges0+0
 1858 08cd 10       		.byte	0x10
 1859 08ce 5C01     		.2byte	0x15c
 1860 08d0 2B       		.uleb128 0x2b
 1861 08d1 97060000 		.4byte	0x697
 1862 08d5 04000000 		.4byte	.LBB81
 1863 08d9 00000000 		.4byte	.Ldebug_ranges0+0
 1864 08dd 0A       		.byte	0xa
 1865 08de D001     		.2byte	0x1d0
 1866 08e0 29       		.uleb128 0x29
 1867 08e1 A4060000 		.4byte	0x6a4
 1868 08e5 7B000000 		.4byte	.LLST6
 1869 08e9 00       		.byte	0
 1870 08ea 00       		.byte	0
 1871 08eb 00       		.byte	0
 1872 08ec 2A       		.uleb128 0x2a
 1873 08ed 1A070000 		.4byte	0x71a
 1874 08f1 06000000 		.4byte	.LBB86
 1875 08f5 18000000 		.4byte	.Ldebug_ranges0+0x18
 1876 08f9 01       		.byte	0x1
 1877 08fa C5       		.byte	0xc5
 1878 08fb 36090000 		.4byte	0x936
 1879 08ff 2C       		.uleb128 0x2c
 1880 0900 18000000 		.4byte	.Ldebug_ranges0+0x18
 1881 0904 2D       		.uleb128 0x2d
 1882 0905 27070000 		.4byte	0x727
 1883 0909 2B       		.uleb128 0x2b
 1884 090a BA060000 		.4byte	0x6ba
 1885 090e 06000000 		.4byte	.LBB88
 1886 0912 18000000 		.4byte	.Ldebug_ranges0+0x18
 1887 0916 10       		.byte	0x10
 1888 0917 7301     		.2byte	0x173
 1889 0919 2B       		.uleb128 0x2b
 1890 091a 97060000 		.4byte	0x697
 1891 091e 06000000 		.4byte	.LBB89
 1892 0922 18000000 		.4byte	.Ldebug_ranges0+0x18
 1893 0926 0A       		.byte	0xa
 1894 0927 E301     		.2byte	0x1e3
 1895 0929 29       		.uleb128 0x29
 1896 092a A4060000 		.4byte	0x6a4
 1897 092e 90000000 		.4byte	.LLST7
 1898 0932 00       		.byte	0
 1899 0933 00       		.byte	0
 1900 0934 00       		.byte	0
 1901 0935 00       		.byte	0
 1902 0936 28       		.uleb128 0x28
 1903 0937 4A070000 		.4byte	0x74a
 1904 093b 0C000000 		.4byte	.LBB96
 1905 093f 06000000 		.4byte	.LBE96-.LBB96
 1906 0943 01       		.byte	0x1
 1907 0944 C4       		.byte	0xc4
 1908 0945 29       		.uleb128 0x29
 1909 0946 60070000 		.4byte	0x760
ARM GAS  /tmp/ccLwYPKd.s 			page 57


 1910 094a A4000000 		.4byte	.LLST8
 1911 094e 29       		.uleb128 0x29
 1912 094f 56070000 		.4byte	0x756
 1913 0953 C3000000 		.4byte	.LLST9
 1914 0957 2E       		.uleb128 0x2e
 1915 0958 0C000000 		.4byte	.LBB97
 1916 095c 06000000 		.4byte	.LBE97-.LBB97
 1917 0960 2F       		.uleb128 0x2f
 1918 0961 6B070000 		.4byte	0x76b
 1919 0965 A4000000 		.4byte	.LLST8
 1920 0969 2D       		.uleb128 0x2d
 1921 096a 76070000 		.4byte	0x776
 1922 096e 00       		.byte	0
 1923 096f 00       		.byte	0
 1924 0970 00       		.byte	0
 1925 0971 00       		.byte	0
 1926 0972 00       		.byte	0
 1927 0973 15       		.uleb128 0x15
 1928 0974 ED050000 		.4byte	0x5ed
 1929 0978 83090000 		.4byte	0x983
 1930 097c 16       		.uleb128 0x16
 1931 097d 3A040000 		.4byte	0x43a
 1932 0981 0F       		.byte	0xf
 1933 0982 00       		.byte	0
 1934 0983 13       		.uleb128 0x13
 1935 0984 73090000 		.4byte	0x973
 1936 0988 30       		.uleb128 0x30
 1937 0989 CC060000 		.4byte	0x6cc
 1938 098d 00000000 		.4byte	.LFB243
 1939 0991 18000000 		.4byte	.LFE243-.LFB243
 1940 0995 01       		.uleb128 0x1
 1941 0996 9C       		.byte	0x9c
 1942 0997 B3090000 		.4byte	0x9b3
 1943 099b 29       		.uleb128 0x29
 1944 099c DC060000 		.4byte	0x6dc
 1945 09a0 D6000000 		.4byte	.LLST11
 1946 09a4 2F       		.uleb128 0x2f
 1947 09a5 E6060000 		.4byte	0x6e6
 1948 09a9 02010000 		.4byte	.LLST12
 1949 09ad 2D       		.uleb128 0x2d
 1950 09ae F1060000 		.4byte	0x6f1
 1951 09b2 00       		.byte	0
 1952 09b3 31       		.uleb128 0x31
 1953 09b4 5D050000 		.4byte	.LASF133
 1954 09b8 01       		.byte	0x1
 1955 09b9 95       		.byte	0x95
 1956 09ba 04030000 		.4byte	0x304
 1957 09be 00000000 		.4byte	.LFB244
 1958 09c2 2C000000 		.4byte	.LFE244-.LFB244
 1959 09c6 01       		.uleb128 0x1
 1960 09c7 9C       		.byte	0x9c
 1961 09c8 9B0A0000 		.4byte	0xa9b
 1962 09cc 27       		.uleb128 0x27
 1963 09cd 6D7000   		.ascii	"mp\000"
 1964 09d0 01       		.byte	0x1
 1965 09d1 95       		.byte	0x95
 1966 09d2 FF060000 		.4byte	0x6ff
ARM GAS  /tmp/ccLwYPKd.s 			page 58


 1967 09d6 2C010000 		.4byte	.LLST13
 1968 09da 32       		.uleb128 0x32
 1969 09db E9030000 		.4byte	.LASF113
 1970 09df 01       		.byte	0x1
 1971 09e0 96       		.byte	0x96
 1972 09e1 04030000 		.4byte	0x304
 1973 09e5 01       		.uleb128 0x1
 1974 09e6 50       		.byte	0x50
 1975 09e7 2A       		.uleb128 0x2a
 1976 09e8 C3060000 		.4byte	0x6c3
 1977 09ec 02000000 		.4byte	.LBB99
 1978 09f0 30000000 		.4byte	.Ldebug_ranges0+0x30
 1979 09f4 01       		.byte	0x1
 1980 09f5 98       		.byte	0x98
 1981 09f6 230A0000 		.4byte	0xa23
 1982 09fa 2B       		.uleb128 0x2b
 1983 09fb B1060000 		.4byte	0x6b1
 1984 09ff 02000000 		.4byte	.LBB100
 1985 0a03 30000000 		.4byte	.Ldebug_ranges0+0x30
 1986 0a07 10       		.byte	0x10
 1987 0a08 5C01     		.2byte	0x15c
 1988 0a0a 2B       		.uleb128 0x2b
 1989 0a0b 97060000 		.4byte	0x697
 1990 0a0f 02000000 		.4byte	.LBB101
 1991 0a13 30000000 		.4byte	.Ldebug_ranges0+0x30
 1992 0a17 0A       		.byte	0xa
 1993 0a18 D001     		.2byte	0x1d0
 1994 0a1a 33       		.uleb128 0x33
 1995 0a1b A4060000 		.4byte	0x6a4
 1996 0a1f 20       		.byte	0x20
 1997 0a20 00       		.byte	0
 1998 0a21 00       		.byte	0
 1999 0a22 00       		.byte	0
 2000 0a23 2A       		.uleb128 0x2a
 2001 0a24 CC060000 		.4byte	0x6cc
 2002 0a28 0A000000 		.4byte	.LBB107
 2003 0a2c 48000000 		.4byte	.Ldebug_ranges0+0x48
 2004 0a30 01       		.byte	0x1
 2005 0a31 99       		.byte	0x99
 2006 0a32 540A0000 		.4byte	0xa54
 2007 0a36 29       		.uleb128 0x29
 2008 0a37 DC060000 		.4byte	0x6dc
 2009 0a3b 71010000 		.4byte	.LLST14
 2010 0a3f 2C       		.uleb128 0x2c
 2011 0a40 48000000 		.4byte	.Ldebug_ranges0+0x48
 2012 0a44 2F       		.uleb128 0x2f
 2013 0a45 E6060000 		.4byte	0x6e6
 2014 0a49 B6010000 		.4byte	.LLST15
 2015 0a4d 2D       		.uleb128 0x2d
 2016 0a4e F1060000 		.4byte	0x6f1
 2017 0a52 00       		.byte	0
 2018 0a53 00       		.byte	0
 2019 0a54 34       		.uleb128 0x34
 2020 0a55 1A070000 		.4byte	0x71a
 2021 0a59 12000000 		.4byte	.LBB110
 2022 0a5d 60000000 		.4byte	.Ldebug_ranges0+0x60
 2023 0a61 01       		.byte	0x1
ARM GAS  /tmp/ccLwYPKd.s 			page 59


 2024 0a62 9A       		.byte	0x9a
 2025 0a63 2C       		.uleb128 0x2c
 2026 0a64 60000000 		.4byte	.Ldebug_ranges0+0x60
 2027 0a68 2D       		.uleb128 0x2d
 2028 0a69 27070000 		.4byte	0x727
 2029 0a6d 2B       		.uleb128 0x2b
 2030 0a6e BA060000 		.4byte	0x6ba
 2031 0a72 12000000 		.4byte	.LBB112
 2032 0a76 60000000 		.4byte	.Ldebug_ranges0+0x60
 2033 0a7a 10       		.byte	0x10
 2034 0a7b 7301     		.2byte	0x173
 2035 0a7d 2B       		.uleb128 0x2b
 2036 0a7e 97060000 		.4byte	0x697
 2037 0a82 12000000 		.4byte	.LBB113
 2038 0a86 60000000 		.4byte	.Ldebug_ranges0+0x60
 2039 0a8a 0A       		.byte	0xa
 2040 0a8b E301     		.2byte	0x1e3
 2041 0a8d 29       		.uleb128 0x29
 2042 0a8e A4060000 		.4byte	0x6a4
 2043 0a92 E0010000 		.4byte	.LLST16
 2044 0a96 00       		.byte	0
 2045 0a97 00       		.byte	0
 2046 0a98 00       		.byte	0
 2047 0a99 00       		.byte	0
 2048 0a9a 00       		.byte	0
 2049 0a9b 35       		.uleb128 0x35
 2050 0a9c 4A070000 		.4byte	0x74a
 2051 0aa0 00000000 		.4byte	.LFB245
 2052 0aa4 08000000 		.4byte	.LFE245-.LFB245
 2053 0aa8 01       		.uleb128 0x1
 2054 0aa9 9C       		.byte	0x9c
 2055 0aaa C90A0000 		.4byte	0xac9
 2056 0aae 36       		.uleb128 0x36
 2057 0aaf 56070000 		.4byte	0x756
 2058 0ab3 01       		.uleb128 0x1
 2059 0ab4 50       		.byte	0x50
 2060 0ab5 36       		.uleb128 0x36
 2061 0ab6 60070000 		.4byte	0x760
 2062 0aba 01       		.uleb128 0x1
 2063 0abb 51       		.byte	0x51
 2064 0abc 37       		.uleb128 0x37
 2065 0abd 6B070000 		.4byte	0x76b
 2066 0ac1 01       		.uleb128 0x1
 2067 0ac2 51       		.byte	0x51
 2068 0ac3 2D       		.uleb128 0x2d
 2069 0ac4 76070000 		.4byte	0x776
 2070 0ac8 00       		.byte	0
 2071 0ac9 35       		.uleb128 0x35
 2072 0aca 89070000 		.4byte	0x789
 2073 0ace 00000000 		.4byte	.LFB246
 2074 0ad2 14000000 		.4byte	.LFE246-.LFB246
 2075 0ad6 01       		.uleb128 0x1
 2076 0ad7 9C       		.byte	0x9c
 2077 0ad8 9E0B0000 		.4byte	0xb9e
 2078 0adc 36       		.uleb128 0x36
 2079 0add 95070000 		.4byte	0x795
 2080 0ae1 01       		.uleb128 0x1
ARM GAS  /tmp/ccLwYPKd.s 			page 60


 2081 0ae2 50       		.byte	0x50
 2082 0ae3 36       		.uleb128 0x36
 2083 0ae4 9F070000 		.4byte	0x79f
 2084 0ae8 01       		.uleb128 0x1
 2085 0ae9 51       		.byte	0x51
 2086 0aea 38       		.uleb128 0x38
 2087 0aeb C3060000 		.4byte	0x6c3
 2088 0aef 00000000 		.4byte	.LBB121
 2089 0af3 06000000 		.4byte	.LBE121-.LBB121
 2090 0af7 01       		.byte	0x1
 2091 0af8 C3       		.byte	0xc3
 2092 0af9 260B0000 		.4byte	0xb26
 2093 0afd 39       		.uleb128 0x39
 2094 0afe B1060000 		.4byte	0x6b1
 2095 0b02 00000000 		.4byte	.LBB122
 2096 0b06 06000000 		.4byte	.LBE122-.LBB122
 2097 0b0a 10       		.byte	0x10
 2098 0b0b 5C01     		.2byte	0x15c
 2099 0b0d 39       		.uleb128 0x39
 2100 0b0e 97060000 		.4byte	0x697
 2101 0b12 00000000 		.4byte	.LBB123
 2102 0b16 06000000 		.4byte	.LBE123-.LBB123
 2103 0b1a 0A       		.byte	0xa
 2104 0b1b D001     		.2byte	0x1d0
 2105 0b1d 33       		.uleb128 0x33
 2106 0b1e A4060000 		.4byte	0x6a4
 2107 0b22 20       		.byte	0x20
 2108 0b23 00       		.byte	0
 2109 0b24 00       		.byte	0
 2110 0b25 00       		.byte	0
 2111 0b26 2A       		.uleb128 0x2a
 2112 0b27 4A070000 		.4byte	0x74a
 2113 0b2b 06000000 		.4byte	.LBB125
 2114 0b2f 78000000 		.4byte	.Ldebug_ranges0+0x78
 2115 0b33 01       		.byte	0x1
 2116 0b34 C4       		.byte	0xc4
 2117 0b35 5A0B0000 		.4byte	0xb5a
 2118 0b39 36       		.uleb128 0x36
 2119 0b3a 60070000 		.4byte	0x760
 2120 0b3e 01       		.uleb128 0x1
 2121 0b3f 51       		.byte	0x51
 2122 0b40 36       		.uleb128 0x36
 2123 0b41 56070000 		.4byte	0x756
 2124 0b45 01       		.uleb128 0x1
 2125 0b46 50       		.byte	0x50
 2126 0b47 2C       		.uleb128 0x2c
 2127 0b48 78000000 		.4byte	.Ldebug_ranges0+0x78
 2128 0b4c 37       		.uleb128 0x37
 2129 0b4d 6B070000 		.4byte	0x76b
 2130 0b51 01       		.uleb128 0x1
 2131 0b52 51       		.byte	0x51
 2132 0b53 2D       		.uleb128 0x2d
 2133 0b54 76070000 		.4byte	0x776
 2134 0b58 00       		.byte	0
 2135 0b59 00       		.byte	0
 2136 0b5a 34       		.uleb128 0x34
 2137 0b5b 1A070000 		.4byte	0x71a
ARM GAS  /tmp/ccLwYPKd.s 			page 61


 2138 0b5f 0A000000 		.4byte	.LBB128
 2139 0b63 90000000 		.4byte	.Ldebug_ranges0+0x90
 2140 0b67 01       		.byte	0x1
 2141 0b68 C5       		.byte	0xc5
 2142 0b69 2C       		.uleb128 0x2c
 2143 0b6a 90000000 		.4byte	.Ldebug_ranges0+0x90
 2144 0b6e 2D       		.uleb128 0x2d
 2145 0b6f 27070000 		.4byte	0x727
 2146 0b73 2B       		.uleb128 0x2b
 2147 0b74 BA060000 		.4byte	0x6ba
 2148 0b78 0A000000 		.4byte	.LBB130
 2149 0b7c 90000000 		.4byte	.Ldebug_ranges0+0x90
 2150 0b80 10       		.byte	0x10
 2151 0b81 7301     		.2byte	0x173
 2152 0b83 2B       		.uleb128 0x2b
 2153 0b84 97060000 		.4byte	0x697
 2154 0b88 0A000000 		.4byte	.LBB131
 2155 0b8c 90000000 		.4byte	.Ldebug_ranges0+0x90
 2156 0b90 0A       		.byte	0xa
 2157 0b91 E301     		.2byte	0x1e3
 2158 0b93 33       		.uleb128 0x33
 2159 0b94 A4060000 		.4byte	0x6a4
 2160 0b98 00       		.byte	0
 2161 0b99 00       		.byte	0
 2162 0b9a 00       		.byte	0
 2163 0b9b 00       		.byte	0
 2164 0b9c 00       		.byte	0
 2165 0b9d 00       		.byte	0
 2166 0b9e 3A       		.uleb128 0x3a
 2167 0b9f B2000000 		.4byte	.LASF129
 2168 0ba3 11       		.byte	0x11
 2169 0ba4 FA06     		.2byte	0x6fa
 2170 0ba6 AA0B0000 		.4byte	0xbaa
 2171 0baa 14       		.uleb128 0x14
 2172 0bab AD000000 		.4byte	0xad
 2173 0baf 3B       		.uleb128 0x3b
 2174 0bb0 636800   		.ascii	"ch\000"
 2175 0bb3 08       		.byte	0x8
 2176 0bb4 0B02     		.2byte	0x20b
 2177 0bb6 D3030000 		.4byte	0x3d3
 2178 0bba 00       		.byte	0
 2179              		.section	.debug_abbrev,"",%progbits
 2180              	.Ldebug_abbrev0:
 2181 0000 01       		.uleb128 0x1
 2182 0001 11       		.uleb128 0x11
 2183 0002 01       		.byte	0x1
 2184 0003 25       		.uleb128 0x25
 2185 0004 0E       		.uleb128 0xe
 2186 0005 13       		.uleb128 0x13
 2187 0006 0B       		.uleb128 0xb
 2188 0007 03       		.uleb128 0x3
 2189 0008 0E       		.uleb128 0xe
 2190 0009 1B       		.uleb128 0x1b
 2191 000a 0E       		.uleb128 0xe
 2192 000b 55       		.uleb128 0x55
 2193 000c 17       		.uleb128 0x17
 2194 000d 11       		.uleb128 0x11
ARM GAS  /tmp/ccLwYPKd.s 			page 62


 2195 000e 01       		.uleb128 0x1
 2196 000f 10       		.uleb128 0x10
 2197 0010 17       		.uleb128 0x17
 2198 0011 00       		.byte	0
 2199 0012 00       		.byte	0
 2200 0013 02       		.uleb128 0x2
 2201 0014 24       		.uleb128 0x24
 2202 0015 00       		.byte	0
 2203 0016 0B       		.uleb128 0xb
 2204 0017 0B       		.uleb128 0xb
 2205 0018 3E       		.uleb128 0x3e
 2206 0019 0B       		.uleb128 0xb
 2207 001a 03       		.uleb128 0x3
 2208 001b 08       		.uleb128 0x8
 2209 001c 00       		.byte	0
 2210 001d 00       		.byte	0
 2211 001e 03       		.uleb128 0x3
 2212 001f 16       		.uleb128 0x16
 2213 0020 00       		.byte	0
 2214 0021 03       		.uleb128 0x3
 2215 0022 0E       		.uleb128 0xe
 2216 0023 3A       		.uleb128 0x3a
 2217 0024 0B       		.uleb128 0xb
 2218 0025 3B       		.uleb128 0x3b
 2219 0026 0B       		.uleb128 0xb
 2220 0027 49       		.uleb128 0x49
 2221 0028 13       		.uleb128 0x13
 2222 0029 00       		.byte	0
 2223 002a 00       		.byte	0
 2224 002b 04       		.uleb128 0x4
 2225 002c 24       		.uleb128 0x24
 2226 002d 00       		.byte	0
 2227 002e 0B       		.uleb128 0xb
 2228 002f 0B       		.uleb128 0xb
 2229 0030 3E       		.uleb128 0x3e
 2230 0031 0B       		.uleb128 0xb
 2231 0032 03       		.uleb128 0x3
 2232 0033 0E       		.uleb128 0xe
 2233 0034 00       		.byte	0
 2234 0035 00       		.byte	0
 2235 0036 05       		.uleb128 0x5
 2236 0037 13       		.uleb128 0x13
 2237 0038 01       		.byte	0x1
 2238 0039 03       		.uleb128 0x3
 2239 003a 0E       		.uleb128 0xe
 2240 003b 0B       		.uleb128 0xb
 2241 003c 0B       		.uleb128 0xb
 2242 003d 3A       		.uleb128 0x3a
 2243 003e 0B       		.uleb128 0xb
 2244 003f 3B       		.uleb128 0x3b
 2245 0040 0B       		.uleb128 0xb
 2246 0041 01       		.uleb128 0x1
 2247 0042 13       		.uleb128 0x13
 2248 0043 00       		.byte	0
 2249 0044 00       		.byte	0
 2250 0045 06       		.uleb128 0x6
 2251 0046 0D       		.uleb128 0xd
ARM GAS  /tmp/ccLwYPKd.s 			page 63


 2252 0047 00       		.byte	0
 2253 0048 03       		.uleb128 0x3
 2254 0049 0E       		.uleb128 0xe
 2255 004a 3A       		.uleb128 0x3a
 2256 004b 0B       		.uleb128 0xb
 2257 004c 3B       		.uleb128 0x3b
 2258 004d 0B       		.uleb128 0xb
 2259 004e 49       		.uleb128 0x49
 2260 004f 13       		.uleb128 0x13
 2261 0050 38       		.uleb128 0x38
 2262 0051 0B       		.uleb128 0xb
 2263 0052 00       		.byte	0
 2264 0053 00       		.byte	0
 2265 0054 07       		.uleb128 0x7
 2266 0055 0D       		.uleb128 0xd
 2267 0056 00       		.byte	0
 2268 0057 03       		.uleb128 0x3
 2269 0058 08       		.uleb128 0x8
 2270 0059 3A       		.uleb128 0x3a
 2271 005a 0B       		.uleb128 0xb
 2272 005b 3B       		.uleb128 0x3b
 2273 005c 05       		.uleb128 0x5
 2274 005d 49       		.uleb128 0x49
 2275 005e 13       		.uleb128 0x13
 2276 005f 38       		.uleb128 0x38
 2277 0060 0B       		.uleb128 0xb
 2278 0061 00       		.byte	0
 2279 0062 00       		.byte	0
 2280 0063 08       		.uleb128 0x8
 2281 0064 0D       		.uleb128 0xd
 2282 0065 00       		.byte	0
 2283 0066 03       		.uleb128 0x3
 2284 0067 0E       		.uleb128 0xe
 2285 0068 3A       		.uleb128 0x3a
 2286 0069 0B       		.uleb128 0xb
 2287 006a 3B       		.uleb128 0x3b
 2288 006b 05       		.uleb128 0x5
 2289 006c 49       		.uleb128 0x49
 2290 006d 13       		.uleb128 0x13
 2291 006e 38       		.uleb128 0x38
 2292 006f 0B       		.uleb128 0xb
 2293 0070 00       		.byte	0
 2294 0071 00       		.byte	0
 2295 0072 09       		.uleb128 0x9
 2296 0073 0F       		.uleb128 0xf
 2297 0074 00       		.byte	0
 2298 0075 0B       		.uleb128 0xb
 2299 0076 0B       		.uleb128 0xb
 2300 0077 49       		.uleb128 0x49
 2301 0078 13       		.uleb128 0x13
 2302 0079 00       		.byte	0
 2303 007a 00       		.byte	0
 2304 007b 0A       		.uleb128 0xa
 2305 007c 13       		.uleb128 0x13
 2306 007d 01       		.byte	0x1
 2307 007e 03       		.uleb128 0x3
 2308 007f 0E       		.uleb128 0xe
ARM GAS  /tmp/ccLwYPKd.s 			page 64


 2309 0080 0B       		.uleb128 0xb
 2310 0081 0B       		.uleb128 0xb
 2311 0082 3A       		.uleb128 0x3a
 2312 0083 0B       		.uleb128 0xb
 2313 0084 3B       		.uleb128 0x3b
 2314 0085 05       		.uleb128 0x5
 2315 0086 01       		.uleb128 0x1
 2316 0087 13       		.uleb128 0x13
 2317 0088 00       		.byte	0
 2318 0089 00       		.byte	0
 2319 008a 0B       		.uleb128 0xb
 2320 008b 15       		.uleb128 0x15
 2321 008c 01       		.byte	0x1
 2322 008d 27       		.uleb128 0x27
 2323 008e 19       		.uleb128 0x19
 2324 008f 01       		.uleb128 0x1
 2325 0090 13       		.uleb128 0x13
 2326 0091 00       		.byte	0
 2327 0092 00       		.byte	0
 2328 0093 0C       		.uleb128 0xc
 2329 0094 05       		.uleb128 0x5
 2330 0095 00       		.byte	0
 2331 0096 49       		.uleb128 0x49
 2332 0097 13       		.uleb128 0x13
 2333 0098 00       		.byte	0
 2334 0099 00       		.byte	0
 2335 009a 0D       		.uleb128 0xd
 2336 009b 0F       		.uleb128 0xf
 2337 009c 00       		.byte	0
 2338 009d 0B       		.uleb128 0xb
 2339 009e 0B       		.uleb128 0xb
 2340 009f 00       		.byte	0
 2341 00a0 00       		.byte	0
 2342 00a1 0E       		.uleb128 0xe
 2343 00a2 13       		.uleb128 0x13
 2344 00a3 01       		.byte	0x1
 2345 00a4 03       		.uleb128 0x3
 2346 00a5 0E       		.uleb128 0xe
 2347 00a6 0B       		.uleb128 0xb
 2348 00a7 05       		.uleb128 0x5
 2349 00a8 3A       		.uleb128 0x3a
 2350 00a9 0B       		.uleb128 0xb
 2351 00aa 3B       		.uleb128 0x3b
 2352 00ab 05       		.uleb128 0x5
 2353 00ac 01       		.uleb128 0x1
 2354 00ad 13       		.uleb128 0x13
 2355 00ae 00       		.byte	0
 2356 00af 00       		.byte	0
 2357 00b0 0F       		.uleb128 0xf
 2358 00b1 0D       		.uleb128 0xd
 2359 00b2 00       		.byte	0
 2360 00b3 03       		.uleb128 0x3
 2361 00b4 08       		.uleb128 0x8
 2362 00b5 3A       		.uleb128 0x3a
 2363 00b6 0B       		.uleb128 0xb
 2364 00b7 3B       		.uleb128 0x3b
 2365 00b8 0B       		.uleb128 0xb
ARM GAS  /tmp/ccLwYPKd.s 			page 65


 2366 00b9 49       		.uleb128 0x49
 2367 00ba 13       		.uleb128 0x13
 2368 00bb 38       		.uleb128 0x38
 2369 00bc 0B       		.uleb128 0xb
 2370 00bd 00       		.byte	0
 2371 00be 00       		.byte	0
 2372 00bf 10       		.uleb128 0x10
 2373 00c0 13       		.uleb128 0x13
 2374 00c1 01       		.byte	0x1
 2375 00c2 0B       		.uleb128 0xb
 2376 00c3 0B       		.uleb128 0xb
 2377 00c4 3A       		.uleb128 0x3a
 2378 00c5 0B       		.uleb128 0xb
 2379 00c6 3B       		.uleb128 0x3b
 2380 00c7 0B       		.uleb128 0xb
 2381 00c8 01       		.uleb128 0x1
 2382 00c9 13       		.uleb128 0x13
 2383 00ca 00       		.byte	0
 2384 00cb 00       		.byte	0
 2385 00cc 11       		.uleb128 0x11
 2386 00cd 17       		.uleb128 0x17
 2387 00ce 01       		.byte	0x1
 2388 00cf 0B       		.uleb128 0xb
 2389 00d0 0B       		.uleb128 0xb
 2390 00d1 3A       		.uleb128 0x3a
 2391 00d2 0B       		.uleb128 0xb
 2392 00d3 3B       		.uleb128 0x3b
 2393 00d4 0B       		.uleb128 0xb
 2394 00d5 01       		.uleb128 0x1
 2395 00d6 13       		.uleb128 0x13
 2396 00d7 00       		.byte	0
 2397 00d8 00       		.byte	0
 2398 00d9 12       		.uleb128 0x12
 2399 00da 0D       		.uleb128 0xd
 2400 00db 00       		.byte	0
 2401 00dc 03       		.uleb128 0x3
 2402 00dd 0E       		.uleb128 0xe
 2403 00de 3A       		.uleb128 0x3a
 2404 00df 0B       		.uleb128 0xb
 2405 00e0 3B       		.uleb128 0x3b
 2406 00e1 05       		.uleb128 0x5
 2407 00e2 49       		.uleb128 0x49
 2408 00e3 13       		.uleb128 0x13
 2409 00e4 00       		.byte	0
 2410 00e5 00       		.byte	0
 2411 00e6 13       		.uleb128 0x13
 2412 00e7 26       		.uleb128 0x26
 2413 00e8 00       		.byte	0
 2414 00e9 49       		.uleb128 0x49
 2415 00ea 13       		.uleb128 0x13
 2416 00eb 00       		.byte	0
 2417 00ec 00       		.byte	0
 2418 00ed 14       		.uleb128 0x14
 2419 00ee 35       		.uleb128 0x35
 2420 00ef 00       		.byte	0
 2421 00f0 49       		.uleb128 0x49
 2422 00f1 13       		.uleb128 0x13
ARM GAS  /tmp/ccLwYPKd.s 			page 66


 2423 00f2 00       		.byte	0
 2424 00f3 00       		.byte	0
 2425 00f4 15       		.uleb128 0x15
 2426 00f5 01       		.uleb128 0x1
 2427 00f6 01       		.byte	0x1
 2428 00f7 49       		.uleb128 0x49
 2429 00f8 13       		.uleb128 0x13
 2430 00f9 01       		.uleb128 0x1
 2431 00fa 13       		.uleb128 0x13
 2432 00fb 00       		.byte	0
 2433 00fc 00       		.byte	0
 2434 00fd 16       		.uleb128 0x16
 2435 00fe 21       		.uleb128 0x21
 2436 00ff 00       		.byte	0
 2437 0100 49       		.uleb128 0x49
 2438 0101 13       		.uleb128 0x13
 2439 0102 2F       		.uleb128 0x2f
 2440 0103 0B       		.uleb128 0xb
 2441 0104 00       		.byte	0
 2442 0105 00       		.byte	0
 2443 0106 17       		.uleb128 0x17
 2444 0107 15       		.uleb128 0x15
 2445 0108 01       		.byte	0x1
 2446 0109 27       		.uleb128 0x27
 2447 010a 19       		.uleb128 0x19
 2448 010b 49       		.uleb128 0x49
 2449 010c 13       		.uleb128 0x13
 2450 010d 01       		.uleb128 0x1
 2451 010e 13       		.uleb128 0x13
 2452 010f 00       		.byte	0
 2453 0110 00       		.byte	0
 2454 0111 18       		.uleb128 0x18
 2455 0112 2E       		.uleb128 0x2e
 2456 0113 01       		.byte	0x1
 2457 0114 03       		.uleb128 0x3
 2458 0115 0E       		.uleb128 0xe
 2459 0116 3A       		.uleb128 0x3a
 2460 0117 0B       		.uleb128 0xb
 2461 0118 3B       		.uleb128 0x3b
 2462 0119 05       		.uleb128 0x5
 2463 011a 27       		.uleb128 0x27
 2464 011b 19       		.uleb128 0x19
 2465 011c 20       		.uleb128 0x20
 2466 011d 0B       		.uleb128 0xb
 2467 011e 01       		.uleb128 0x1
 2468 011f 13       		.uleb128 0x13
 2469 0120 00       		.byte	0
 2470 0121 00       		.byte	0
 2471 0122 19       		.uleb128 0x19
 2472 0123 05       		.uleb128 0x5
 2473 0124 00       		.byte	0
 2474 0125 03       		.uleb128 0x3
 2475 0126 0E       		.uleb128 0xe
 2476 0127 3A       		.uleb128 0x3a
 2477 0128 0B       		.uleb128 0xb
 2478 0129 3B       		.uleb128 0x3b
 2479 012a 05       		.uleb128 0x5
ARM GAS  /tmp/ccLwYPKd.s 			page 67


 2480 012b 49       		.uleb128 0x49
 2481 012c 13       		.uleb128 0x13
 2482 012d 00       		.byte	0
 2483 012e 00       		.byte	0
 2484 012f 1A       		.uleb128 0x1a
 2485 0130 2E       		.uleb128 0x2e
 2486 0131 00       		.byte	0
 2487 0132 03       		.uleb128 0x3
 2488 0133 0E       		.uleb128 0xe
 2489 0134 3A       		.uleb128 0x3a
 2490 0135 0B       		.uleb128 0xb
 2491 0136 3B       		.uleb128 0x3b
 2492 0137 05       		.uleb128 0x5
 2493 0138 27       		.uleb128 0x27
 2494 0139 19       		.uleb128 0x19
 2495 013a 20       		.uleb128 0x20
 2496 013b 0B       		.uleb128 0xb
 2497 013c 00       		.byte	0
 2498 013d 00       		.byte	0
 2499 013e 1B       		.uleb128 0x1b
 2500 013f 2E       		.uleb128 0x2e
 2501 0140 01       		.byte	0x1
 2502 0141 3F       		.uleb128 0x3f
 2503 0142 19       		.uleb128 0x19
 2504 0143 03       		.uleb128 0x3
 2505 0144 0E       		.uleb128 0xe
 2506 0145 3A       		.uleb128 0x3a
 2507 0146 0B       		.uleb128 0xb
 2508 0147 3B       		.uleb128 0x3b
 2509 0148 0B       		.uleb128 0xb
 2510 0149 27       		.uleb128 0x27
 2511 014a 19       		.uleb128 0x19
 2512 014b 49       		.uleb128 0x49
 2513 014c 13       		.uleb128 0x13
 2514 014d 20       		.uleb128 0x20
 2515 014e 0B       		.uleb128 0xb
 2516 014f 01       		.uleb128 0x1
 2517 0150 13       		.uleb128 0x13
 2518 0151 00       		.byte	0
 2519 0152 00       		.byte	0
 2520 0153 1C       		.uleb128 0x1c
 2521 0154 05       		.uleb128 0x5
 2522 0155 00       		.byte	0
 2523 0156 03       		.uleb128 0x3
 2524 0157 08       		.uleb128 0x8
 2525 0158 3A       		.uleb128 0x3a
 2526 0159 0B       		.uleb128 0xb
 2527 015a 3B       		.uleb128 0x3b
 2528 015b 0B       		.uleb128 0xb
 2529 015c 49       		.uleb128 0x49
 2530 015d 13       		.uleb128 0x13
 2531 015e 00       		.byte	0
 2532 015f 00       		.byte	0
 2533 0160 1D       		.uleb128 0x1d
 2534 0161 34       		.uleb128 0x34
 2535 0162 00       		.byte	0
 2536 0163 03       		.uleb128 0x3
ARM GAS  /tmp/ccLwYPKd.s 			page 68


 2537 0164 0E       		.uleb128 0xe
 2538 0165 3A       		.uleb128 0x3a
 2539 0166 0B       		.uleb128 0xb
 2540 0167 3B       		.uleb128 0x3b
 2541 0168 0B       		.uleb128 0xb
 2542 0169 49       		.uleb128 0x49
 2543 016a 13       		.uleb128 0x13
 2544 016b 00       		.byte	0
 2545 016c 00       		.byte	0
 2546 016d 1E       		.uleb128 0x1e
 2547 016e 34       		.uleb128 0x34
 2548 016f 00       		.byte	0
 2549 0170 03       		.uleb128 0x3
 2550 0171 0E       		.uleb128 0xe
 2551 0172 49       		.uleb128 0x49
 2552 0173 13       		.uleb128 0x13
 2553 0174 34       		.uleb128 0x34
 2554 0175 19       		.uleb128 0x19
 2555 0176 1C       		.uleb128 0x1c
 2556 0177 0E       		.uleb128 0xe
 2557 0178 00       		.byte	0
 2558 0179 00       		.byte	0
 2559 017a 1F       		.uleb128 0x1f
 2560 017b 2E       		.uleb128 0x2e
 2561 017c 01       		.byte	0x1
 2562 017d 3F       		.uleb128 0x3f
 2563 017e 19       		.uleb128 0x19
 2564 017f 03       		.uleb128 0x3
 2565 0180 0E       		.uleb128 0xe
 2566 0181 3A       		.uleb128 0x3a
 2567 0182 0B       		.uleb128 0xb
 2568 0183 3B       		.uleb128 0x3b
 2569 0184 0B       		.uleb128 0xb
 2570 0185 27       		.uleb128 0x27
 2571 0186 19       		.uleb128 0x19
 2572 0187 20       		.uleb128 0x20
 2573 0188 0B       		.uleb128 0xb
 2574 0189 01       		.uleb128 0x1
 2575 018a 13       		.uleb128 0x13
 2576 018b 00       		.byte	0
 2577 018c 00       		.byte	0
 2578 018d 20       		.uleb128 0x20
 2579 018e 05       		.uleb128 0x5
 2580 018f 00       		.byte	0
 2581 0190 03       		.uleb128 0x3
 2582 0191 0E       		.uleb128 0xe
 2583 0192 3A       		.uleb128 0x3a
 2584 0193 0B       		.uleb128 0xb
 2585 0194 3B       		.uleb128 0x3b
 2586 0195 0B       		.uleb128 0xb
 2587 0196 49       		.uleb128 0x49
 2588 0197 13       		.uleb128 0x13
 2589 0198 00       		.byte	0
 2590 0199 00       		.byte	0
 2591 019a 21       		.uleb128 0x21
 2592 019b 34       		.uleb128 0x34
 2593 019c 00       		.byte	0
ARM GAS  /tmp/ccLwYPKd.s 			page 69


 2594 019d 03       		.uleb128 0x3
 2595 019e 08       		.uleb128 0x8
 2596 019f 3A       		.uleb128 0x3a
 2597 01a0 0B       		.uleb128 0xb
 2598 01a1 3B       		.uleb128 0x3b
 2599 01a2 0B       		.uleb128 0xb
 2600 01a3 49       		.uleb128 0x49
 2601 01a4 13       		.uleb128 0x13
 2602 01a5 00       		.byte	0
 2603 01a6 00       		.byte	0
 2604 01a7 22       		.uleb128 0x22
 2605 01a8 2E       		.uleb128 0x2e
 2606 01a9 01       		.byte	0x1
 2607 01aa 03       		.uleb128 0x3
 2608 01ab 0E       		.uleb128 0xe
 2609 01ac 3A       		.uleb128 0x3a
 2610 01ad 0B       		.uleb128 0xb
 2611 01ae 3B       		.uleb128 0x3b
 2612 01af 0B       		.uleb128 0xb
 2613 01b0 27       		.uleb128 0x27
 2614 01b1 19       		.uleb128 0x19
 2615 01b2 20       		.uleb128 0x20
 2616 01b3 0B       		.uleb128 0xb
 2617 01b4 01       		.uleb128 0x1
 2618 01b5 13       		.uleb128 0x13
 2619 01b6 00       		.byte	0
 2620 01b7 00       		.byte	0
 2621 01b8 23       		.uleb128 0x23
 2622 01b9 2E       		.uleb128 0x2e
 2623 01ba 01       		.byte	0x1
 2624 01bb 3F       		.uleb128 0x3f
 2625 01bc 19       		.uleb128 0x19
 2626 01bd 03       		.uleb128 0x3
 2627 01be 0E       		.uleb128 0xe
 2628 01bf 3A       		.uleb128 0x3a
 2629 01c0 0B       		.uleb128 0xb
 2630 01c1 3B       		.uleb128 0x3b
 2631 01c2 0B       		.uleb128 0xb
 2632 01c3 27       		.uleb128 0x27
 2633 01c4 19       		.uleb128 0x19
 2634 01c5 11       		.uleb128 0x11
 2635 01c6 01       		.uleb128 0x1
 2636 01c7 12       		.uleb128 0x12
 2637 01c8 06       		.uleb128 0x6
 2638 01c9 40       		.uleb128 0x40
 2639 01ca 18       		.uleb128 0x18
 2640 01cb 9742     		.uleb128 0x2117
 2641 01cd 19       		.uleb128 0x19
 2642 01ce 01       		.uleb128 0x1
 2643 01cf 13       		.uleb128 0x13
 2644 01d0 00       		.byte	0
 2645 01d1 00       		.byte	0
 2646 01d2 24       		.uleb128 0x24
 2647 01d3 05       		.uleb128 0x5
 2648 01d4 00       		.byte	0
 2649 01d5 03       		.uleb128 0x3
 2650 01d6 08       		.uleb128 0x8
ARM GAS  /tmp/ccLwYPKd.s 			page 70


 2651 01d7 3A       		.uleb128 0x3a
 2652 01d8 0B       		.uleb128 0xb
 2653 01d9 3B       		.uleb128 0x3b
 2654 01da 0B       		.uleb128 0xb
 2655 01db 49       		.uleb128 0x49
 2656 01dc 13       		.uleb128 0x13
 2657 01dd 02       		.uleb128 0x2
 2658 01de 18       		.uleb128 0x18
 2659 01df 00       		.byte	0
 2660 01e0 00       		.byte	0
 2661 01e1 25       		.uleb128 0x25
 2662 01e2 05       		.uleb128 0x5
 2663 01e3 00       		.byte	0
 2664 01e4 03       		.uleb128 0x3
 2665 01e5 0E       		.uleb128 0xe
 2666 01e6 3A       		.uleb128 0x3a
 2667 01e7 0B       		.uleb128 0xb
 2668 01e8 3B       		.uleb128 0x3b
 2669 01e9 0B       		.uleb128 0xb
 2670 01ea 49       		.uleb128 0x49
 2671 01eb 13       		.uleb128 0x13
 2672 01ec 02       		.uleb128 0x2
 2673 01ed 18       		.uleb128 0x18
 2674 01ee 00       		.byte	0
 2675 01ef 00       		.byte	0
 2676 01f0 26       		.uleb128 0x26
 2677 01f1 34       		.uleb128 0x34
 2678 01f2 00       		.byte	0
 2679 01f3 03       		.uleb128 0x3
 2680 01f4 0E       		.uleb128 0xe
 2681 01f5 49       		.uleb128 0x49
 2682 01f6 13       		.uleb128 0x13
 2683 01f7 34       		.uleb128 0x34
 2684 01f8 19       		.uleb128 0x19
 2685 01f9 00       		.byte	0
 2686 01fa 00       		.byte	0
 2687 01fb 27       		.uleb128 0x27
 2688 01fc 05       		.uleb128 0x5
 2689 01fd 00       		.byte	0
 2690 01fe 03       		.uleb128 0x3
 2691 01ff 08       		.uleb128 0x8
 2692 0200 3A       		.uleb128 0x3a
 2693 0201 0B       		.uleb128 0xb
 2694 0202 3B       		.uleb128 0x3b
 2695 0203 0B       		.uleb128 0xb
 2696 0204 49       		.uleb128 0x49
 2697 0205 13       		.uleb128 0x13
 2698 0206 02       		.uleb128 0x2
 2699 0207 17       		.uleb128 0x17
 2700 0208 00       		.byte	0
 2701 0209 00       		.byte	0
 2702 020a 28       		.uleb128 0x28
 2703 020b 1D       		.uleb128 0x1d
 2704 020c 01       		.byte	0x1
 2705 020d 31       		.uleb128 0x31
 2706 020e 13       		.uleb128 0x13
 2707 020f 11       		.uleb128 0x11
ARM GAS  /tmp/ccLwYPKd.s 			page 71


 2708 0210 01       		.uleb128 0x1
 2709 0211 12       		.uleb128 0x12
 2710 0212 06       		.uleb128 0x6
 2711 0213 58       		.uleb128 0x58
 2712 0214 0B       		.uleb128 0xb
 2713 0215 59       		.uleb128 0x59
 2714 0216 0B       		.uleb128 0xb
 2715 0217 00       		.byte	0
 2716 0218 00       		.byte	0
 2717 0219 29       		.uleb128 0x29
 2718 021a 05       		.uleb128 0x5
 2719 021b 00       		.byte	0
 2720 021c 31       		.uleb128 0x31
 2721 021d 13       		.uleb128 0x13
 2722 021e 02       		.uleb128 0x2
 2723 021f 17       		.uleb128 0x17
 2724 0220 00       		.byte	0
 2725 0221 00       		.byte	0
 2726 0222 2A       		.uleb128 0x2a
 2727 0223 1D       		.uleb128 0x1d
 2728 0224 01       		.byte	0x1
 2729 0225 31       		.uleb128 0x31
 2730 0226 13       		.uleb128 0x13
 2731 0227 52       		.uleb128 0x52
 2732 0228 01       		.uleb128 0x1
 2733 0229 55       		.uleb128 0x55
 2734 022a 17       		.uleb128 0x17
 2735 022b 58       		.uleb128 0x58
 2736 022c 0B       		.uleb128 0xb
 2737 022d 59       		.uleb128 0x59
 2738 022e 0B       		.uleb128 0xb
 2739 022f 01       		.uleb128 0x1
 2740 0230 13       		.uleb128 0x13
 2741 0231 00       		.byte	0
 2742 0232 00       		.byte	0
 2743 0233 2B       		.uleb128 0x2b
 2744 0234 1D       		.uleb128 0x1d
 2745 0235 01       		.byte	0x1
 2746 0236 31       		.uleb128 0x31
 2747 0237 13       		.uleb128 0x13
 2748 0238 52       		.uleb128 0x52
 2749 0239 01       		.uleb128 0x1
 2750 023a 55       		.uleb128 0x55
 2751 023b 17       		.uleb128 0x17
 2752 023c 58       		.uleb128 0x58
 2753 023d 0B       		.uleb128 0xb
 2754 023e 59       		.uleb128 0x59
 2755 023f 05       		.uleb128 0x5
 2756 0240 00       		.byte	0
 2757 0241 00       		.byte	0
 2758 0242 2C       		.uleb128 0x2c
 2759 0243 0B       		.uleb128 0xb
 2760 0244 01       		.byte	0x1
 2761 0245 55       		.uleb128 0x55
 2762 0246 17       		.uleb128 0x17
 2763 0247 00       		.byte	0
 2764 0248 00       		.byte	0
ARM GAS  /tmp/ccLwYPKd.s 			page 72


 2765 0249 2D       		.uleb128 0x2d
 2766 024a 34       		.uleb128 0x34
 2767 024b 00       		.byte	0
 2768 024c 31       		.uleb128 0x31
 2769 024d 13       		.uleb128 0x13
 2770 024e 00       		.byte	0
 2771 024f 00       		.byte	0
 2772 0250 2E       		.uleb128 0x2e
 2773 0251 0B       		.uleb128 0xb
 2774 0252 01       		.byte	0x1
 2775 0253 11       		.uleb128 0x11
 2776 0254 01       		.uleb128 0x1
 2777 0255 12       		.uleb128 0x12
 2778 0256 06       		.uleb128 0x6
 2779 0257 00       		.byte	0
 2780 0258 00       		.byte	0
 2781 0259 2F       		.uleb128 0x2f
 2782 025a 34       		.uleb128 0x34
 2783 025b 00       		.byte	0
 2784 025c 31       		.uleb128 0x31
 2785 025d 13       		.uleb128 0x13
 2786 025e 02       		.uleb128 0x2
 2787 025f 17       		.uleb128 0x17
 2788 0260 00       		.byte	0
 2789 0261 00       		.byte	0
 2790 0262 30       		.uleb128 0x30
 2791 0263 2E       		.uleb128 0x2e
 2792 0264 01       		.byte	0x1
 2793 0265 31       		.uleb128 0x31
 2794 0266 13       		.uleb128 0x13
 2795 0267 11       		.uleb128 0x11
 2796 0268 01       		.uleb128 0x1
 2797 0269 12       		.uleb128 0x12
 2798 026a 06       		.uleb128 0x6
 2799 026b 40       		.uleb128 0x40
 2800 026c 18       		.uleb128 0x18
 2801 026d 9642     		.uleb128 0x2116
 2802 026f 19       		.uleb128 0x19
 2803 0270 01       		.uleb128 0x1
 2804 0271 13       		.uleb128 0x13
 2805 0272 00       		.byte	0
 2806 0273 00       		.byte	0
 2807 0274 31       		.uleb128 0x31
 2808 0275 2E       		.uleb128 0x2e
 2809 0276 01       		.byte	0x1
 2810 0277 3F       		.uleb128 0x3f
 2811 0278 19       		.uleb128 0x19
 2812 0279 03       		.uleb128 0x3
 2813 027a 0E       		.uleb128 0xe
 2814 027b 3A       		.uleb128 0x3a
 2815 027c 0B       		.uleb128 0xb
 2816 027d 3B       		.uleb128 0x3b
 2817 027e 0B       		.uleb128 0xb
 2818 027f 27       		.uleb128 0x27
 2819 0280 19       		.uleb128 0x19
 2820 0281 49       		.uleb128 0x49
 2821 0282 13       		.uleb128 0x13
ARM GAS  /tmp/ccLwYPKd.s 			page 73


 2822 0283 11       		.uleb128 0x11
 2823 0284 01       		.uleb128 0x1
 2824 0285 12       		.uleb128 0x12
 2825 0286 06       		.uleb128 0x6
 2826 0287 40       		.uleb128 0x40
 2827 0288 18       		.uleb128 0x18
 2828 0289 9642     		.uleb128 0x2116
 2829 028b 19       		.uleb128 0x19
 2830 028c 01       		.uleb128 0x1
 2831 028d 13       		.uleb128 0x13
 2832 028e 00       		.byte	0
 2833 028f 00       		.byte	0
 2834 0290 32       		.uleb128 0x32
 2835 0291 34       		.uleb128 0x34
 2836 0292 00       		.byte	0
 2837 0293 03       		.uleb128 0x3
 2838 0294 0E       		.uleb128 0xe
 2839 0295 3A       		.uleb128 0x3a
 2840 0296 0B       		.uleb128 0xb
 2841 0297 3B       		.uleb128 0x3b
 2842 0298 0B       		.uleb128 0xb
 2843 0299 49       		.uleb128 0x49
 2844 029a 13       		.uleb128 0x13
 2845 029b 02       		.uleb128 0x2
 2846 029c 18       		.uleb128 0x18
 2847 029d 00       		.byte	0
 2848 029e 00       		.byte	0
 2849 029f 33       		.uleb128 0x33
 2850 02a0 05       		.uleb128 0x5
 2851 02a1 00       		.byte	0
 2852 02a2 31       		.uleb128 0x31
 2853 02a3 13       		.uleb128 0x13
 2854 02a4 1C       		.uleb128 0x1c
 2855 02a5 0B       		.uleb128 0xb
 2856 02a6 00       		.byte	0
 2857 02a7 00       		.byte	0
 2858 02a8 34       		.uleb128 0x34
 2859 02a9 1D       		.uleb128 0x1d
 2860 02aa 01       		.byte	0x1
 2861 02ab 31       		.uleb128 0x31
 2862 02ac 13       		.uleb128 0x13
 2863 02ad 52       		.uleb128 0x52
 2864 02ae 01       		.uleb128 0x1
 2865 02af 55       		.uleb128 0x55
 2866 02b0 17       		.uleb128 0x17
 2867 02b1 58       		.uleb128 0x58
 2868 02b2 0B       		.uleb128 0xb
 2869 02b3 59       		.uleb128 0x59
 2870 02b4 0B       		.uleb128 0xb
 2871 02b5 00       		.byte	0
 2872 02b6 00       		.byte	0
 2873 02b7 35       		.uleb128 0x35
 2874 02b8 2E       		.uleb128 0x2e
 2875 02b9 01       		.byte	0x1
 2876 02ba 31       		.uleb128 0x31
 2877 02bb 13       		.uleb128 0x13
 2878 02bc 11       		.uleb128 0x11
ARM GAS  /tmp/ccLwYPKd.s 			page 74


 2879 02bd 01       		.uleb128 0x1
 2880 02be 12       		.uleb128 0x12
 2881 02bf 06       		.uleb128 0x6
 2882 02c0 40       		.uleb128 0x40
 2883 02c1 18       		.uleb128 0x18
 2884 02c2 9742     		.uleb128 0x2117
 2885 02c4 19       		.uleb128 0x19
 2886 02c5 01       		.uleb128 0x1
 2887 02c6 13       		.uleb128 0x13
 2888 02c7 00       		.byte	0
 2889 02c8 00       		.byte	0
 2890 02c9 36       		.uleb128 0x36
 2891 02ca 05       		.uleb128 0x5
 2892 02cb 00       		.byte	0
 2893 02cc 31       		.uleb128 0x31
 2894 02cd 13       		.uleb128 0x13
 2895 02ce 02       		.uleb128 0x2
 2896 02cf 18       		.uleb128 0x18
 2897 02d0 00       		.byte	0
 2898 02d1 00       		.byte	0
 2899 02d2 37       		.uleb128 0x37
 2900 02d3 34       		.uleb128 0x34
 2901 02d4 00       		.byte	0
 2902 02d5 31       		.uleb128 0x31
 2903 02d6 13       		.uleb128 0x13
 2904 02d7 02       		.uleb128 0x2
 2905 02d8 18       		.uleb128 0x18
 2906 02d9 00       		.byte	0
 2907 02da 00       		.byte	0
 2908 02db 38       		.uleb128 0x38
 2909 02dc 1D       		.uleb128 0x1d
 2910 02dd 01       		.byte	0x1
 2911 02de 31       		.uleb128 0x31
 2912 02df 13       		.uleb128 0x13
 2913 02e0 11       		.uleb128 0x11
 2914 02e1 01       		.uleb128 0x1
 2915 02e2 12       		.uleb128 0x12
 2916 02e3 06       		.uleb128 0x6
 2917 02e4 58       		.uleb128 0x58
 2918 02e5 0B       		.uleb128 0xb
 2919 02e6 59       		.uleb128 0x59
 2920 02e7 0B       		.uleb128 0xb
 2921 02e8 01       		.uleb128 0x1
 2922 02e9 13       		.uleb128 0x13
 2923 02ea 00       		.byte	0
 2924 02eb 00       		.byte	0
 2925 02ec 39       		.uleb128 0x39
 2926 02ed 1D       		.uleb128 0x1d
 2927 02ee 01       		.byte	0x1
 2928 02ef 31       		.uleb128 0x31
 2929 02f0 13       		.uleb128 0x13
 2930 02f1 11       		.uleb128 0x11
 2931 02f2 01       		.uleb128 0x1
 2932 02f3 12       		.uleb128 0x12
 2933 02f4 06       		.uleb128 0x6
 2934 02f5 58       		.uleb128 0x58
 2935 02f6 0B       		.uleb128 0xb
ARM GAS  /tmp/ccLwYPKd.s 			page 75


 2936 02f7 59       		.uleb128 0x59
 2937 02f8 05       		.uleb128 0x5
 2938 02f9 00       		.byte	0
 2939 02fa 00       		.byte	0
 2940 02fb 3A       		.uleb128 0x3a
 2941 02fc 34       		.uleb128 0x34
 2942 02fd 00       		.byte	0
 2943 02fe 03       		.uleb128 0x3
 2944 02ff 0E       		.uleb128 0xe
 2945 0300 3A       		.uleb128 0x3a
 2946 0301 0B       		.uleb128 0xb
 2947 0302 3B       		.uleb128 0x3b
 2948 0303 05       		.uleb128 0x5
 2949 0304 49       		.uleb128 0x49
 2950 0305 13       		.uleb128 0x13
 2951 0306 3F       		.uleb128 0x3f
 2952 0307 19       		.uleb128 0x19
 2953 0308 3C       		.uleb128 0x3c
 2954 0309 19       		.uleb128 0x19
 2955 030a 00       		.byte	0
 2956 030b 00       		.byte	0
 2957 030c 3B       		.uleb128 0x3b
 2958 030d 34       		.uleb128 0x34
 2959 030e 00       		.byte	0
 2960 030f 03       		.uleb128 0x3
 2961 0310 08       		.uleb128 0x8
 2962 0311 3A       		.uleb128 0x3a
 2963 0312 0B       		.uleb128 0xb
 2964 0313 3B       		.uleb128 0x3b
 2965 0314 05       		.uleb128 0x5
 2966 0315 49       		.uleb128 0x49
 2967 0316 13       		.uleb128 0x13
 2968 0317 3F       		.uleb128 0x3f
 2969 0318 19       		.uleb128 0x19
 2970 0319 3C       		.uleb128 0x3c
 2971 031a 19       		.uleb128 0x19
 2972 031b 00       		.byte	0
 2973 031c 00       		.byte	0
 2974 031d 00       		.byte	0
 2975              		.section	.debug_loc,"",%progbits
 2976              	.Ldebug_loc0:
 2977              	.LLST0:
 2978 0000 00000000 		.4byte	.LVL1
 2979 0004 1C000000 		.4byte	.LVL6
 2980 0008 0100     		.2byte	0x1
 2981 000a 51       		.byte	0x51
 2982 000b 1C000000 		.4byte	.LVL6
 2983 000f 22000000 		.4byte	.LFE242
 2984 0013 0100     		.2byte	0x1
 2985 0015 51       		.byte	0x51
 2986 0016 00000000 		.4byte	0
 2987 001a 00000000 		.4byte	0
 2988              	.LLST1:
 2989 001e 00000000 		.4byte	.LVL1
 2990 0022 08000000 		.4byte	.LVL2
 2991 0026 0100     		.2byte	0x1
 2992 0028 52       		.byte	0x52
ARM GAS  /tmp/ccLwYPKd.s 			page 76


 2993 0029 08000000 		.4byte	.LVL2
 2994 002d 1A000000 		.4byte	.LVL5
 2995 0031 0100     		.2byte	0x1
 2996 0033 52       		.byte	0x52
 2997 0034 1A000000 		.4byte	.LVL5
 2998 0038 1C000000 		.4byte	.LVL6
 2999 003c 0300     		.2byte	0x3
 3000 003e 72       		.byte	0x72
 3001 003f 01       		.sleb128 1
 3002 0040 9F       		.byte	0x9f
 3003 0041 00000000 		.4byte	0
 3004 0045 00000000 		.4byte	0
 3005              	.LLST2:
 3006 0049 08000000 		.4byte	.LVL2
 3007 004d 1E000000 		.4byte	.LVL7
 3008 0051 0100     		.2byte	0x1
 3009 0053 50       		.byte	0x50
 3010 0054 00000000 		.4byte	0
 3011 0058 00000000 		.4byte	0
 3012              	.LLST3:
 3013 005c 08000000 		.4byte	.LVL2
 3014 0060 1C000000 		.4byte	.LVL6
 3015 0064 0100     		.2byte	0x1
 3016 0066 51       		.byte	0x51
 3017 0067 1C000000 		.4byte	.LVL6
 3018 006b 1E000000 		.4byte	.LVL7
 3019 006f 0200     		.2byte	0x2
 3020 0071 70       		.byte	0x70
 3021 0072 00       		.sleb128 0
 3022 0073 00000000 		.4byte	0
 3023 0077 00000000 		.4byte	0
 3024              	.LLST6:
 3025 007b 08000000 		.4byte	.LVL2
 3026 007f 1E000000 		.4byte	.LVL7
 3027 0083 0300     		.2byte	0x3
 3028 0085 08       		.byte	0x8
 3029 0086 20       		.byte	0x20
 3030 0087 9F       		.byte	0x9f
 3031 0088 00000000 		.4byte	0
 3032 008c 00000000 		.4byte	0
 3033              	.LLST7:
 3034 0090 12000000 		.4byte	.LVL4
 3035 0094 1E000000 		.4byte	.LVL7
 3036 0098 0200     		.2byte	0x2
 3037 009a 30       		.byte	0x30
 3038 009b 9F       		.byte	0x9f
 3039 009c 00000000 		.4byte	0
 3040 00a0 00000000 		.4byte	0
 3041              	.LLST8:
 3042 00a4 0C000000 		.4byte	.LVL3
 3043 00a8 1C000000 		.4byte	.LVL6
 3044 00ac 0100     		.2byte	0x1
 3045 00ae 51       		.byte	0x51
 3046 00af 1C000000 		.4byte	.LVL6
 3047 00b3 1E000000 		.4byte	.LVL7
 3048 00b7 0200     		.2byte	0x2
 3049 00b9 70       		.byte	0x70
ARM GAS  /tmp/ccLwYPKd.s 			page 77


 3050 00ba 00       		.sleb128 0
 3051 00bb 00000000 		.4byte	0
 3052 00bf 00000000 		.4byte	0
 3053              	.LLST9:
 3054 00c3 0C000000 		.4byte	.LVL3
 3055 00c7 1E000000 		.4byte	.LVL7
 3056 00cb 0100     		.2byte	0x1
 3057 00cd 50       		.byte	0x50
 3058 00ce 00000000 		.4byte	0
 3059 00d2 00000000 		.4byte	0
 3060              	.LLST11:
 3061 00d6 00000000 		.4byte	.LVL8
 3062 00da 06000000 		.4byte	.LVL9
 3063 00de 0100     		.2byte	0x1
 3064 00e0 50       		.byte	0x50
 3065 00e1 06000000 		.4byte	.LVL9
 3066 00e5 15000000 		.4byte	.LVL12-1
 3067 00e9 0100     		.2byte	0x1
 3068 00eb 53       		.byte	0x53
 3069 00ec 15000000 		.4byte	.LVL12-1
 3070 00f0 18000000 		.4byte	.LFE243
 3071 00f4 0400     		.2byte	0x4
 3072 00f6 F3       		.byte	0xf3
 3073 00f7 01       		.uleb128 0x1
 3074 00f8 50       		.byte	0x50
 3075 00f9 9F       		.byte	0x9f
 3076 00fa 00000000 		.4byte	0
 3077 00fe 00000000 		.4byte	0
 3078              	.LLST12:
 3079 0102 06000000 		.4byte	.LVL9
 3080 0106 14000000 		.4byte	.LVL11
 3081 010a 0100     		.2byte	0x1
 3082 010c 50       		.byte	0x50
 3083 010d 14000000 		.4byte	.LVL11
 3084 0111 15000000 		.4byte	.LVL12-1
 3085 0115 0200     		.2byte	0x2
 3086 0117 73       		.byte	0x73
 3087 0118 00       		.sleb128 0
 3088 0119 16000000 		.4byte	.LVL12
 3089 011d 18000000 		.4byte	.LFE243
 3090 0121 0100     		.2byte	0x1
 3091 0123 50       		.byte	0x50
 3092 0124 00000000 		.4byte	0
 3093 0128 00000000 		.4byte	0
 3094              	.LLST13:
 3095 012c 00000000 		.4byte	.LVL13
 3096 0130 0C000000 		.4byte	.LVL15
 3097 0134 0100     		.2byte	0x1
 3098 0136 50       		.byte	0x50
 3099 0137 0C000000 		.4byte	.LVL15
 3100 013b 14000000 		.4byte	.LVL17
 3101 013f 0100     		.2byte	0x1
 3102 0141 53       		.byte	0x53
 3103 0142 14000000 		.4byte	.LVL17
 3104 0146 1A000000 		.4byte	.LVL18
 3105 014a 0400     		.2byte	0x4
 3106 014c F3       		.byte	0xf3
ARM GAS  /tmp/ccLwYPKd.s 			page 78


 3107 014d 01       		.uleb128 0x1
 3108 014e 50       		.byte	0x50
 3109 014f 9F       		.byte	0x9f
 3110 0150 1A000000 		.4byte	.LVL18
 3111 0154 23000000 		.4byte	.LVL20-1
 3112 0158 0100     		.2byte	0x1
 3113 015a 53       		.byte	0x53
 3114 015b 23000000 		.4byte	.LVL20-1
 3115 015f 2C000000 		.4byte	.LFE244
 3116 0163 0400     		.2byte	0x4
 3117 0165 F3       		.byte	0xf3
 3118 0166 01       		.uleb128 0x1
 3119 0167 50       		.byte	0x50
 3120 0168 9F       		.byte	0x9f
 3121 0169 00000000 		.4byte	0
 3122 016d 00000000 		.4byte	0
 3123              	.LLST14:
 3124 0171 0A000000 		.4byte	.LVL14
 3125 0175 0C000000 		.4byte	.LVL15
 3126 0179 0100     		.2byte	0x1
 3127 017b 50       		.byte	0x50
 3128 017c 0C000000 		.4byte	.LVL15
 3129 0180 14000000 		.4byte	.LVL17
 3130 0184 0100     		.2byte	0x1
 3131 0186 53       		.byte	0x53
 3132 0187 14000000 		.4byte	.LVL17
 3133 018b 1A000000 		.4byte	.LVL18
 3134 018f 0400     		.2byte	0x4
 3135 0191 F3       		.byte	0xf3
 3136 0192 01       		.uleb128 0x1
 3137 0193 50       		.byte	0x50
 3138 0194 9F       		.byte	0x9f
 3139 0195 1A000000 		.4byte	.LVL18
 3140 0199 23000000 		.4byte	.LVL20-1
 3141 019d 0100     		.2byte	0x1
 3142 019f 53       		.byte	0x53
 3143 01a0 23000000 		.4byte	.LVL20-1
 3144 01a4 2C000000 		.4byte	.LFE244
 3145 01a8 0400     		.2byte	0x4
 3146 01aa F3       		.byte	0xf3
 3147 01ab 01       		.uleb128 0x1
 3148 01ac 50       		.byte	0x50
 3149 01ad 9F       		.byte	0x9f
 3150 01ae 00000000 		.4byte	0
 3151 01b2 00000000 		.4byte	0
 3152              	.LLST15:
 3153 01b6 0C000000 		.4byte	.LVL15
 3154 01ba 22000000 		.4byte	.LVL19
 3155 01be 0100     		.2byte	0x1
 3156 01c0 50       		.byte	0x50
 3157 01c1 22000000 		.4byte	.LVL19
 3158 01c5 23000000 		.4byte	.LVL20-1
 3159 01c9 0200     		.2byte	0x2
 3160 01cb 73       		.byte	0x73
 3161 01cc 00       		.sleb128 0
 3162 01cd 24000000 		.4byte	.LVL20
 3163 01d1 2C000000 		.4byte	.LFE244
ARM GAS  /tmp/ccLwYPKd.s 			page 79


 3164 01d5 0100     		.2byte	0x1
 3165 01d7 50       		.byte	0x50
 3166 01d8 00000000 		.4byte	0
 3167 01dc 00000000 		.4byte	0
 3168              	.LLST16:
 3169 01e0 12000000 		.4byte	.LVL16
 3170 01e4 1A000000 		.4byte	.LVL18
 3171 01e8 0200     		.2byte	0x2
 3172 01ea 30       		.byte	0x30
 3173 01eb 9F       		.byte	0x9f
 3174 01ec 24000000 		.4byte	.LVL20
 3175 01f0 2C000000 		.4byte	.LFE244
 3176 01f4 0200     		.2byte	0x2
 3177 01f6 30       		.byte	0x30
 3178 01f7 9F       		.byte	0x9f
 3179 01f8 00000000 		.4byte	0
 3180 01fc 00000000 		.4byte	0
 3181              		.section	.debug_aranges,"",%progbits
 3182 0000 44000000 		.4byte	0x44
 3183 0004 0200     		.2byte	0x2
 3184 0006 00000000 		.4byte	.Ldebug_info0
 3185 000a 04       		.byte	0x4
 3186 000b 00       		.byte	0
 3187 000c 0000     		.2byte	0
 3188 000e 0000     		.2byte	0
 3189 0010 00000000 		.4byte	.LFB241
 3190 0014 0A000000 		.4byte	.LFE241-.LFB241
 3191 0018 00000000 		.4byte	.LFB242
 3192 001c 22000000 		.4byte	.LFE242-.LFB242
 3193 0020 00000000 		.4byte	.LFB243
 3194 0024 18000000 		.4byte	.LFE243-.LFB243
 3195 0028 00000000 		.4byte	.LFB244
 3196 002c 2C000000 		.4byte	.LFE244-.LFB244
 3197 0030 00000000 		.4byte	.LFB245
 3198 0034 08000000 		.4byte	.LFE245-.LFB245
 3199 0038 00000000 		.4byte	.LFB246
 3200 003c 14000000 		.4byte	.LFE246-.LFB246
 3201 0040 00000000 		.4byte	0
 3202 0044 00000000 		.4byte	0
 3203              		.section	.debug_ranges,"",%progbits
 3204              	.Ldebug_ranges0:
 3205 0000 04000000 		.4byte	.LBB79
 3206 0004 06000000 		.4byte	.LBE79
 3207 0008 08000000 		.4byte	.LBB95
 3208 000c 0C000000 		.4byte	.LBE95
 3209 0010 00000000 		.4byte	0
 3210 0014 00000000 		.4byte	0
 3211 0018 06000000 		.4byte	.LBB86
 3212 001c 08000000 		.4byte	.LBE86
 3213 0020 12000000 		.4byte	.LBB98
 3214 0024 16000000 		.4byte	.LBE98
 3215 0028 00000000 		.4byte	0
 3216 002c 00000000 		.4byte	0
 3217 0030 02000000 		.4byte	.LBB99
 3218 0034 04000000 		.4byte	.LBE99
 3219 0038 06000000 		.4byte	.LBB106
 3220 003c 0A000000 		.4byte	.LBE106
ARM GAS  /tmp/ccLwYPKd.s 			page 80


 3221 0040 00000000 		.4byte	0
 3222 0044 00000000 		.4byte	0
 3223 0048 0A000000 		.4byte	.LBB107
 3224 004c 12000000 		.4byte	.LBE107
 3225 0050 1A000000 		.4byte	.LBB119
 3226 0054 24000000 		.4byte	.LBE119
 3227 0058 00000000 		.4byte	0
 3228 005c 00000000 		.4byte	0
 3229 0060 12000000 		.4byte	.LBB110
 3230 0064 18000000 		.4byte	.LBE110
 3231 0068 24000000 		.4byte	.LBB120
 3232 006c 2A000000 		.4byte	.LBE120
 3233 0070 00000000 		.4byte	0
 3234 0074 00000000 		.4byte	0
 3235 0078 06000000 		.4byte	.LBB125
 3236 007c 0A000000 		.4byte	.LBE125
 3237 0080 0C000000 		.4byte	.LBB137
 3238 0084 0E000000 		.4byte	.LBE137
 3239 0088 00000000 		.4byte	0
 3240 008c 00000000 		.4byte	0
 3241 0090 0A000000 		.4byte	.LBB128
 3242 0094 0C000000 		.4byte	.LBE128
 3243 0098 0E000000 		.4byte	.LBB138
 3244 009c 14000000 		.4byte	.LBE138
 3245 00a0 00000000 		.4byte	0
 3246 00a4 00000000 		.4byte	0
 3247 00a8 00000000 		.4byte	.LFB241
 3248 00ac 0A000000 		.4byte	.LFE241
 3249 00b0 00000000 		.4byte	.LFB242
 3250 00b4 22000000 		.4byte	.LFE242
 3251 00b8 00000000 		.4byte	.LFB243
 3252 00bc 18000000 		.4byte	.LFE243
 3253 00c0 00000000 		.4byte	.LFB244
 3254 00c4 2C000000 		.4byte	.LFE244
 3255 00c8 00000000 		.4byte	.LFB245
 3256 00cc 08000000 		.4byte	.LFE245
 3257 00d0 00000000 		.4byte	.LFB246
 3258 00d4 14000000 		.4byte	.LFE246
 3259 00d8 00000000 		.4byte	0
 3260 00dc 00000000 		.4byte	0
 3261              		.section	.debug_line,"",%progbits
 3262              	.Ldebug_line0:
 3263 0000 CE030000 		.section	.debug_str,"MS",%progbits,1
 3263      0200E902 
 3263      00000201 
 3263      FB0E0D00 
 3263      01010101 
 3264              	.LASF50:
 3265 0000 72656164 		.ascii	"ready_list_t\000"
 3265      795F6C69 
 3265      73745F74 
 3265      00
 3266              	.LASF2:
 3267 000d 73697A65 		.ascii	"size_t\000"
 3267      5F7400
 3268              	.LASF85:
 3269 0014 7264796D 		.ascii	"rdymsg\000"
ARM GAS  /tmp/ccLwYPKd.s 			page 81


 3269      736700
 3270              	.LASF17:
 3271 001b 75696E74 		.ascii	"uint64_t\000"
 3271      36345F74 
 3271      00
 3272              	.LASF3:
 3273 0024 5F5F7569 		.ascii	"__uint8_t\000"
 3273      6E74385F 
 3273      7400
 3274              	.LASF82:
 3275 002e 706F7274 		.ascii	"port_intctx\000"
 3275      5F696E74 
 3275      63747800 
 3276              	.LASF69:
 3277 003a 73797374 		.ascii	"system_debug_t\000"
 3277      656D5F64 
 3277      65627567 
 3277      5F7400
 3278              	.LASF124:
 3279 0049 70726F76 		.ascii	"provider\000"
 3279      69646572 
 3279      00
 3280              	.LASF109:
 3281 0052 706F7274 		.ascii	"port_lock\000"
 3281      5F6C6F63 
 3281      6B00
 3282              	.LASF102:
 3283 005c 6D656D67 		.ascii	"memgetfunc_t\000"
 3283      65746675 
 3283      6E635F74 
 3283      00
 3284              	.LASF13:
 3285 0069 6C6F6E67 		.ascii	"long long unsigned int\000"
 3285      206C6F6E 
 3285      6720756E 
 3285      7369676E 
 3285      65642069 
 3286              	.LASF86:
 3287 0080 65786974 		.ascii	"exitcode\000"
 3287      636F6465 
 3287      00
 3288              	.LASF76:
 3289 0089 6D61696E 		.ascii	"mainthread\000"
 3289      74687265 
 3289      616400
 3290              	.LASF89:
 3291 0094 73656E74 		.ascii	"sentmsg\000"
 3291      6D736700 
 3292              	.LASF66:
 3293 009c 76697274 		.ascii	"virtual_timers_list_t\000"
 3293      75616C5F 
 3293      74696D65 
 3293      72735F6C 
 3293      6973745F 
 3294              	.LASF129:
 3295 00b2 49544D5F 		.ascii	"ITM_RxBuffer\000"
 3295      52784275 
ARM GAS  /tmp/ccLwYPKd.s 			page 82


 3295      66666572 
 3295      00
 3296              	.LASF49:
 3297 00bf 63685F74 		.ascii	"ch_threads_queue\000"
 3297      68726561 
 3297      64735F71 
 3297      75657565 
 3297      00
 3298              	.LASF30:
 3299 00d0 705F7072 		.ascii	"p_prio\000"
 3299      696F00
 3300              	.LASF6:
 3301 00d7 73686F72 		.ascii	"short unsigned int\000"
 3301      7420756E 
 3301      7369676E 
 3301      65642069 
 3301      6E7400
 3302              	.LASF11:
 3303 00ea 6C6F6E67 		.ascii	"long long int\000"
 3303      206C6F6E 
 3303      6720696E 
 3303      7400
 3304              	.LASF1:
 3305 00f8 7369676E 		.ascii	"signed char\000"
 3305      65642063 
 3305      68617200 
 3306              	.LASF43:
 3307 0104 705F6D70 		.ascii	"p_mpool\000"
 3307      6F6F6C00 
 3308              	.LASF97:
 3309 010c 6D5F7175 		.ascii	"m_queue\000"
 3309      65756500 
 3310              	.LASF75:
 3311 0114 76746C69 		.ascii	"vtlist\000"
 3311      737400
 3312              	.LASF110:
 3313 011b 706F7274 		.ascii	"port_unlock\000"
 3313      5F756E6C 
 3313      6F636B00 
 3314              	.LASF88:
 3315 0127 77747472 		.ascii	"wttrp\000"
 3315      7000
 3316              	.LASF73:
 3317 012d 63685F73 		.ascii	"ch_system\000"
 3317      79737465 
 3317      6D00
 3318              	.LASF8:
 3319 0137 6C6F6E67 		.ascii	"long int\000"
 3319      20696E74 
 3319      00
 3320              	.LASF20:
 3321 0140 74737461 		.ascii	"tstate_t\000"
 3321      74655F74 
 3321      00
 3322              	.LASF105:
 3323 0149 6D705F6E 		.ascii	"mp_next\000"
 3323      65787400 
ARM GAS  /tmp/ccLwYPKd.s 			page 83


 3324              	.LASF32:
 3325 0151 705F6E65 		.ascii	"p_newer\000"
 3325      77657200 
 3326              	.LASF94:
 3327 0159 735F7175 		.ascii	"s_queue\000"
 3327      65756500 
 3328              	.LASF128:
 3329 0161 5F5F6675 		.ascii	"__func__.6403\000"
 3329      6E635F5F 
 3329      2E363430 
 3329      3300
 3330              	.LASF55:
 3331 016f 725F6E65 		.ascii	"r_newer\000"
 3331      77657200 
 3332              	.LASF107:
 3333 0177 6D705F70 		.ascii	"mp_provider\000"
 3333      726F7669 
 3333      64657200 
 3334              	.LASF79:
 3335 0183 72656761 		.ascii	"regarm_t\000"
 3335      726D5F74 
 3335      00
 3336              	.LASF62:
 3337 018c 76745F70 		.ascii	"vt_prev\000"
 3337      72657600 
 3338              	.LASF101:
 3339 0194 6D757465 		.ascii	"mutex_t\000"
 3339      785F7400 
 3340              	.LASF112:
 3341 019c 76616C75 		.ascii	"value\000"
 3341      6500
 3342              	.LASF77:
 3343 01a2 69646C65 		.ascii	"idle_thread_wa\000"
 3343      5F746872 
 3343      6561645F 
 3343      776100
 3344              	.LASF25:
 3345 01b1 636E745F 		.ascii	"cnt_t\000"
 3345      7400
 3346              	.LASF0:
 3347 01b7 756E7369 		.ascii	"unsigned int\000"
 3347      676E6564 
 3347      20696E74 
 3347      00
 3348              	.LASF61:
 3349 01c4 76745F6E 		.ascii	"vt_next\000"
 3349      65787400 
 3350              	.LASF90:
 3351 01cc 77747365 		.ascii	"wtsemp\000"
 3351      6D7000
 3352              	.LASF39:
 3353 01d3 705F6D73 		.ascii	"p_msgqueue\000"
 3353      67717565 
 3353      756500
 3354              	.LASF108:
 3355 01de 6D656D6F 		.ascii	"memory_pool_t\000"
 3355      72795F70 
ARM GAS  /tmp/ccLwYPKd.s 			page 84


 3355      6F6F6C5F 
 3355      7400
 3356              	.LASF95:
 3357 01ec 735F636E 		.ascii	"s_cnt\000"
 3357      7400
 3358              	.LASF114:
 3359 01f2 5F5F6675 		.ascii	"__func__.6411\000"
 3359      6E635F5F 
 3359      2E363431 
 3359      3100
 3360              	.LASF46:
 3361 0200 63685F74 		.ascii	"ch_thread\000"
 3361      68726561 
 3361      6400
 3362              	.LASF23:
 3363 020a 6D73675F 		.ascii	"msg_t\000"
 3363      7400
 3364              	.LASF72:
 3365 0210 63685F73 		.ascii	"ch_system_t\000"
 3365      79737465 
 3365      6D5F7400 
 3366              	.LASF122:
 3367 021c 6368506F 		.ascii	"chPoolAdd\000"
 3367      6F6C4164 
 3367      6400
 3368              	.LASF19:
 3369 0226 746D6F64 		.ascii	"tmode_t\000"
 3369      655F7400 
 3370              	.LASF125:
 3371 022e 6368506F 		.ascii	"chPoolObjectInit\000"
 3371      6F6C4F62 
 3371      6A656374 
 3371      496E6974 
 3371      00
 3372              	.LASF51:
 3373 023f 63685F72 		.ascii	"ch_ready_list\000"
 3373      65616479 
 3373      5F6C6973 
 3373      7400
 3374              	.LASF24:
 3375 024d 6576656E 		.ascii	"eventmask_t\000"
 3375      746D6173 
 3375      6B5F7400 
 3376              	.LASF7:
 3377 0259 5F5F696E 		.ascii	"__int32_t\000"
 3377      7433325F 
 3377      7400
 3378              	.LASF80:
 3379 0263 73746B61 		.ascii	"stkalign_t\000"
 3379      6C69676E 
 3379      5F7400
 3380              	.LASF38:
 3381 026e 705F7761 		.ascii	"p_waiting\000"
 3381      6974696E 
 3381      6700
 3382              	.LASF78:
 3383 0278 73697A65 		.ascii	"sizetype\000"
ARM GAS  /tmp/ccLwYPKd.s 			page 85


 3383      74797065 
 3383      00
 3384              	.LASF44:
 3385 0281 74687265 		.ascii	"thread_reference_t\000"
 3385      61645F72 
 3385      65666572 
 3385      656E6365 
 3385      5F7400
 3386              	.LASF67:
 3387 0294 63685F76 		.ascii	"ch_virtual_timers_list\000"
 3387      69727475 
 3387      616C5F74 
 3387      696D6572 
 3387      735F6C69 
 3388              	.LASF119:
 3389 02ab 5F5F6675 		.ascii	"__func__.6421\000"
 3389      6E635F5F 
 3389      2E363432 
 3389      3100
 3390              	.LASF118:
 3391 02b9 6368506F 		.ascii	"chPoolAllocI\000"
 3391      6F6C416C 
 3391      6C6F6349 
 3391      00
 3392              	.LASF120:
 3393 02c6 6368506F 		.ascii	"chPoolFreeI\000"
 3393      6F6C4672 
 3393      65654900 
 3394              	.LASF68:
 3395 02d2 76745F6C 		.ascii	"vt_lasttime\000"
 3395      61737474 
 3395      696D6500 
 3396              	.LASF33:
 3397 02de 705F6F6C 		.ascii	"p_older\000"
 3397      64657200 
 3398              	.LASF54:
 3399 02e6 725F6374 		.ascii	"r_ctx\000"
 3399      7800
 3400              	.LASF106:
 3401 02ec 6D705F6F 		.ascii	"mp_object_size\000"
 3401      626A6563 
 3401      745F7369 
 3401      7A6500
 3402              	.LASF84:
 3403 02fb 746D5F63 		.ascii	"tm_calibration_t\000"
 3403      616C6962 
 3403      72617469 
 3403      6F6E5F74 
 3403      00
 3404              	.LASF57:
 3405 030c 725F6375 		.ascii	"r_current\000"
 3405      7272656E 
 3405      7400
 3406              	.LASF56:
 3407 0316 725F6F6C 		.ascii	"r_older\000"
 3407      64657200 
 3408              	.LASF12:
ARM GAS  /tmp/ccLwYPKd.s 			page 86


 3409 031e 5F5F7569 		.ascii	"__uint64_t\000"
 3409      6E743634 
 3409      5F7400
 3410              	.LASF104:
 3411 0329 70685F6E 		.ascii	"ph_next\000"
 3411      65787400 
 3412              	.LASF21:
 3413 0331 74726566 		.ascii	"trefs_t\000"
 3413      735F7400 
 3414              	.LASF59:
 3415 0339 76697274 		.ascii	"virtual_timer_t\000"
 3415      75616C5F 
 3415      74696D65 
 3415      725F7400 
 3416              	.LASF29:
 3417 0349 705F7072 		.ascii	"p_prev\000"
 3417      657600
 3418              	.LASF22:
 3419 0350 74707269 		.ascii	"tprio_t\000"
 3419      6F5F7400 
 3420              	.LASF127:
 3421 0358 5F5F6675 		.ascii	"__func__.6397\000"
 3421      6E635F5F 
 3421      2E363339 
 3421      3700
 3422              	.LASF70:
 3423 0366 63685F73 		.ascii	"ch_system_debug\000"
 3423      79737465 
 3423      6D5F6465 
 3423      62756700 
 3424              	.LASF15:
 3425 0376 696E7433 		.ascii	"int32_t\000"
 3425      325F7400 
 3426              	.LASF4:
 3427 037e 756E7369 		.ascii	"unsigned char\000"
 3427      676E6564 
 3427      20636861 
 3427      7200
 3428              	.LASF131:
 3429 038c 2E2E2F43 		.ascii	"../ChibiOS/os/rt/src/chmempools.c\000"
 3429      68696269 
 3429      4F532F6F 
 3429      732F7274 
 3429      2F737263 
 3430              	.LASF41:
 3431 03ae 705F6D74 		.ascii	"p_mtxlist\000"
 3431      786C6973 
 3431      7400
 3432              	.LASF5:
 3433 03b8 73686F72 		.ascii	"short int\000"
 3433      7420696E 
 3433      7400
 3434              	.LASF35:
 3435 03c2 705F7374 		.ascii	"p_state\000"
 3435      61746500 
 3436              	.LASF53:
 3437 03ca 725F7072 		.ascii	"r_prio\000"
ARM GAS  /tmp/ccLwYPKd.s 			page 87


 3437      696F00
 3438              	.LASF92:
 3439 03d1 65776D61 		.ascii	"ewmask\000"
 3439      736B00
 3440              	.LASF28:
 3441 03d8 705F6E65 		.ascii	"p_next\000"
 3441      787400
 3442              	.LASF111:
 3443 03df 63685379 		.ascii	"chSysLock\000"
 3443      734C6F63 
 3443      6B00
 3444              	.LASF113:
 3445 03e9 6F626A70 		.ascii	"objp\000"
 3445      00
 3446              	.LASF60:
 3447 03ee 63685F76 		.ascii	"ch_virtual_timer\000"
 3447      69727475 
 3447      616C5F74 
 3447      696D6572 
 3447      00
 3448              	.LASF93:
 3449 03ff 63685F73 		.ascii	"ch_semaphore\000"
 3449      656D6170 
 3449      686F7265 
 3449      00
 3450              	.LASF40:
 3451 040c 705F6570 		.ascii	"p_epending\000"
 3451      656E6469 
 3451      6E6700
 3452              	.LASF16:
 3453 0417 75696E74 		.ascii	"uint32_t\000"
 3453      33325F74 
 3453      00
 3454              	.LASF91:
 3455 0420 77746D74 		.ascii	"wtmtxp\000"
 3455      787000
 3456              	.LASF52:
 3457 0427 725F7175 		.ascii	"r_queue\000"
 3457      65756500 
 3458              	.LASF63:
 3459 042f 76745F64 		.ascii	"vt_delta\000"
 3459      656C7461 
 3459      00
 3460              	.LASF47:
 3461 0438 63685F74 		.ascii	"ch_threads_list\000"
 3461      68726561 
 3461      64735F6C 
 3461      69737400 
 3462              	.LASF10:
 3463 0448 6C6F6E67 		.ascii	"long unsigned int\000"
 3463      20756E73 
 3463      69676E65 
 3463      6420696E 
 3463      7400
 3464              	.LASF100:
 3465 045a 63686172 		.ascii	"char\000"
 3465      00
ARM GAS  /tmp/ccLwYPKd.s 			page 88


 3466              	.LASF27:
 3467 045f 74687265 		.ascii	"thread_t\000"
 3467      61645F74 
 3467      00
 3468              	.LASF99:
 3469 0468 6D5F6E65 		.ascii	"m_next\000"
 3469      787400
 3470              	.LASF26:
 3471 046f 73797374 		.ascii	"systime_t\000"
 3471      696D655F 
 3471      7400
 3472              	.LASF42:
 3473 0479 705F7265 		.ascii	"p_realprio\000"
 3473      616C7072 
 3473      696F00
 3474              	.LASF58:
 3475 0484 76746675 		.ascii	"vtfunc_t\000"
 3475      6E635F74 
 3475      00
 3476              	.LASF9:
 3477 048d 5F5F7569 		.ascii	"__uint32_t\000"
 3477      6E743332 
 3477      5F7400
 3478              	.LASF115:
 3479 0498 5F5F7365 		.ascii	"__set_BASEPRI\000"
 3479      745F4241 
 3479      53455052 
 3479      4900
 3480              	.LASF71:
 3481 04a6 70616E69 		.ascii	"panic_msg\000"
 3481      635F6D73 
 3481      6700
 3482              	.LASF83:
 3483 04b0 6F666673 		.ascii	"offset\000"
 3483      657400
 3484              	.LASF96:
 3485 04b7 63685F6D 		.ascii	"ch_mutex\000"
 3485      75746578 
 3485      00
 3486              	.LASF117:
 3487 04c0 5F5F6675 		.ascii	"__func__.5700\000"
 3487      6E635F5F 
 3487      2E353730 
 3487      3000
 3488              	.LASF81:
 3489 04ce 636F6E74 		.ascii	"context\000"
 3489      65787400 
 3490              	.LASF18:
 3491 04d6 7274636E 		.ascii	"rtcnt_t\000"
 3491      745F7400 
 3492              	.LASF65:
 3493 04de 76745F70 		.ascii	"vt_par\000"
 3493      617200
 3494              	.LASF132:
 3495 04e5 2F6E6673 		.ascii	"/nfs/nfs4/home/galexeev/classes/P442WifiTrailCounte"
 3495      2F6E6673 
 3495      342F686F 
ARM GAS  /tmp/ccLwYPKd.s 			page 89


 3495      6D652F67 
 3495      616C6578 
 3496 0518 7250726F 		.ascii	"rProject/milestone1\000"
 3496      6A656374 
 3496      2F6D696C 
 3496      6573746F 
 3496      6E653100 
 3497              	.LASF48:
 3498 052c 74687265 		.ascii	"threads_queue_t\000"
 3498      6164735F 
 3498      71756575 
 3498      655F7400 
 3499              	.LASF103:
 3500 053c 706F6F6C 		.ascii	"pool_header\000"
 3500      5F686561 
 3500      64657200 
 3501              	.LASF37:
 3502 0548 705F7265 		.ascii	"p_refs\000"
 3502      667300
 3503              	.LASF74:
 3504 054f 726C6973 		.ascii	"rlist\000"
 3504      7400
 3505              	.LASF14:
 3506 0555 75696E74 		.ascii	"uint8_t\000"
 3506      385F7400 
 3507              	.LASF133:
 3508 055d 6368506F 		.ascii	"chPoolAlloc\000"
 3508      6F6C416C 
 3508      6C6F6300 
 3509              	.LASF121:
 3510 0569 6368506F 		.ascii	"chPoolFree\000"
 3510      6F6C4672 
 3510      656500
 3511              	.LASF130:
 3512 0574 474E5520 		.ascii	"GNU C 4.8.4 20140526 (release) [ARM/embedded-4_8-br"
 3512      4320342E 
 3512      382E3420 
 3512      32303134 
 3512      30353236 
 3513 05a7 616E6368 		.ascii	"anch revision 211358] -mcpu=cortex-m4 -mno-thumb-in"
 3513      20726576 
 3513      6973696F 
 3513      6E203231 
 3513      31333538 
 3514 05da 74657277 		.ascii	"terwork -mthumb -ggdb -O2 -fomit-frame-pointer -fal"
 3514      6F726B20 
 3514      2D6D7468 
 3514      756D6220 
 3514      2D676764 
 3515 060d 69676E2D 		.ascii	"ign-functions=16 -ffunction-sections -fdata-section"
 3515      66756E63 
 3515      74696F6E 
 3515      733D3136 
 3515      202D6666 
 3516 0640 73202D66 		.ascii	"s -fno-common -flto\000"
 3516      6E6F2D63 
 3516      6F6D6D6F 
ARM GAS  /tmp/ccLwYPKd.s 			page 90


 3516      6E202D66 
 3516      6C746F00 
 3517              	.LASF87:
 3518 0654 77746F62 		.ascii	"wtobjp\000"
 3518      6A7000
 3519              	.LASF34:
 3520 065b 705F6E61 		.ascii	"p_name\000"
 3520      6D6500
 3521              	.LASF123:
 3522 0662 73697A65 		.ascii	"size\000"
 3522      00
 3523              	.LASF45:
 3524 0667 74687265 		.ascii	"threads_list_t\000"
 3524      6164735F 
 3524      6C697374 
 3524      5F7400
 3525              	.LASF36:
 3526 0676 705F666C 		.ascii	"p_flags\000"
 3526      61677300 
 3527              	.LASF116:
 3528 067e 63685379 		.ascii	"chSysUnlock\000"
 3528      73556E6C 
 3528      6F636B00 
 3529              	.LASF126:
 3530 068a 6368506F 		.ascii	"chPoolLoadArray\000"
 3530      6F6C4C6F 
 3530      61644172 
 3530      72617900 
 3531              	.LASF98:
 3532 069a 6D5F6F77 		.ascii	"m_owner\000"
 3532      6E657200 
 3533              	.LASF31:
 3534 06a2 705F6374 		.ascii	"p_ctx\000"
 3534      7800
 3535              	.LASF64:
 3536 06a8 76745F66 		.ascii	"vt_func\000"
 3536      756E6300 
 3537              		.comm	__gnu_lto_v1,1,1
 3538              		.ident	"GCC: (GNU Tools for ARM Embedded Processors) 4.8.4 20140526 (release) [ARM/embedded-4_8-br
ARM GAS  /tmp/ccLwYPKd.s 			page 91


DEFINED SYMBOLS
                            *ABS*:00000000 chmempools.c
     /tmp/ccLwYPKd.s:390    .text.chPoolObjectInit:00000000 $t
     /tmp/ccLwYPKd.s:396    .text.chPoolObjectInit:00000000 chPoolObjectInit
     /tmp/ccLwYPKd.s:418    .text.chPoolLoadArray:00000000 $t
     /tmp/ccLwYPKd.s:424    .text.chPoolLoadArray:00000000 chPoolLoadArray
     /tmp/ccLwYPKd.s:523    .text.chPoolAllocI:00000000 $t
     /tmp/ccLwYPKd.s:529    .text.chPoolAllocI:00000000 chPoolAllocI
     /tmp/ccLwYPKd.s:568    .text.chPoolAlloc:00000000 $t
     /tmp/ccLwYPKd.s:574    .text.chPoolAlloc:00000000 chPoolAlloc
     /tmp/ccLwYPKd.s:681    .text.chPoolFreeI:00000000 $t
     /tmp/ccLwYPKd.s:687    .text.chPoolFreeI:00000000 chPoolFreeI
     /tmp/ccLwYPKd.s:705    .text.chPoolFree:00000000 $t
     /tmp/ccLwYPKd.s:711    .text.chPoolFree:00000000 chPoolFree
                            *COM*:00000001 __gnu_lto_v1
                     .debug_frame:00000010 $d

NO UNDEFINED SYMBOLS
