ARM GAS  /tmp/ccLwYPKd.s 			page 1


   1              		.syntax unified
   2              		.cpu cortex-m4
   3              		.fpu softvfp
   4              		.eabi_attribute 20, 1
   5              		.eabi_attribute 21, 1
   6              		.eabi_attribute 23, 3
   7              		.eabi_attribute 24, 1
   8              		.eabi_attribute 25, 1
   9              		.eabi_attribute 26, 1
  10              		.eabi_attribute 30, 2
  11              		.eabi_attribute 34, 1
  12              		.eabi_attribute 18, 4
  13              		.thumb
  14              		.file	"chmempools.c"
  15              		.text
  16              	.Ltext0:
  17              		.section	.gnu.lto_.jmpfuncs.3bcfa1fa686a46b9,"",%progbits
  18 0000 789C6362 		.ascii	"x\234cb`b\300\006\244\2414\033\003;#;\023##\220y\200"
  18      6062C006 
  18      A4A1341B 
  18      033B233B 
  18      13232390 
  19 0016 818D19C4 		.ascii	"\201\215\031\304\250g``afef\000\000\027\362\001\222"
  19      A8676060 
  19      61666566 
  19      000017F2 
  19      0192
  20              		.text
  21              		.section	.gnu.lto_.inline.3bcfa1fa686a46b9,"",%progbits
  22 0000 789C6D4F 		.ascii	"x\234mO!\016\302@\020\234\335\273\366\332\006\002-\002"
  22      210EC240 
  22      109CDDBB 
  22      F6DA0602 
  22      2D02
  23 0012 090E4750 		.ascii	"\011\016GP\325}\001\032\215\001~Q\211 )\022C\202E`I"
  23      D57D011A 
  23      8D017E51 
  23      89202912 
  23      43824560 
  24 0027 9F81AC42 		.ascii	"\237\201\254B\203\343\011\354\335\0015\\.\2673;s\231"
  24      83E309EC 
  24      DD01355C 
  24      2EB7333B 
  24      7399
  25 0039 5D06E3DF 		.ascii	"]\006\343\337I\311\327Pn@`U\017\0217\2713\023\272O\020"
  25      49C9D750 
  25      6E406055 
  25      0F1137B9 
  25      3313BA4F 
  26 004e B1B5705A 		.ascii	"\261\265pZ\335\023\304\307\0353\264\345H\0232X/hce\005"
  26      DD13C4C7 
  26      1D33B4E5 
  26      48133258 
  26      2F686365 
  27 0063 AC5AE8BA 		.ascii	"\254Z\350\272\202U\341\273\036\222\323Z<Nl\356i\304"
  27      8255E1BB 
  27      1E92D35A 
ARM GAS  /tmp/ccLwYPKd.s 			page 2


  27      3C4E6CEE 
  27      69C4
  28 0075 A0872918 		.ascii	"\240\207)\030\301v\"BC%EB\352H*\350L%\367\205\177\000"
  28      C1762242 
  28      43254542 
  28      EA482AE8 
  28      4C25F785 
  29 008b D425D3A0 		.ascii	"\324%\323\240*\324n\302 \205\364h?W\030td\372\354\272"
  29      2AD46EC2 
  29      2085F468 
  29      3F571874 
  29      64FAECBA 
  30 009f 4472987D 		.ascii	"Dr\230}5\253h\273\027\371p\315\267\036\242\327\324%"
  30      35AB68BB 
  30      17F970CD 
  30      B71EA2D7 
  30      D425
  31 00b1 6AFF3A2B 		.ascii	"j\377:+\"#\277M\223\377v\307\033\257\224\037\255"
  31      2223BF4D 
  31      93FF76C7 
  31      1BAF941F 
  31      AD
  32              		.text
  33              		.section	.gnu.lto_.pureconst.3bcfa1fa686a46b9,"",%progbits
  34 0000 789C6362 		.ascii	"x\234cb`b\340e\200\0006\006)F+&)f+\026)V+\000\007\246"
  34      6062E065 
  34      80003606 
  34      29462B26 
  34      29662B16 
  35 001a 0123     		.ascii	"\001#"
  36              		.text
  37              		.section	.gnu.lto_chPoolObjectInit.3bcfa1fa686a46b9,"",%progbits
  38 0000 789C6362 		.ascii	"x\234cb`b@\007\222@,\305\310\300\240\002\244\031\231"
  38      60624007 
  38      92402CC5 
  38      C8C0A002 
  38      A41999
  39 0013 19189926 		.ascii	"\031\030\231&\234c`h\344`bd\0041\030\030\031\352\231"
  39      9C636068 
  39      E4606264 
  39      04311818 
  39      19EA99
  40 0026 18EB2319 		.ascii	"\030\353#\031\301j\3273\035x\360\377\377\272mm\347\017"
  40      C16AD733 
  40      1D78F0FF 
  40      FFBA6D6D 
  40      E70F
  41 0038 32AE5206 		.ascii	"2\256R\006\252\311ed`\001\022\214l@\002d4+CKC\303\004"
  41      AAC96564 
  41      6001128C 
  41      6C400264 
  41      342B434B 
  42 004f 855CA041 		.ascii	"\205\\\240A\014\311`=!@\022dP(P\036H3\237eh\332\361"
  42      0CC9603D 
  42      21401264 
  42      5028501E 
  42      48339F65 
ARM GAS  /tmp/ccLwYPKd.s 			page 3


  43 0066 E3F90FC6 		.ascii	"\343\371\017\306D\306\205\214\254\014\332\014\253\032"
  43      44C6858C 
  43      AC0CDA0C 
  43      AB1A
  44 0074 80803B93 		.ascii	"\200\200;\223\221a6\303,\306LF\306tF\246\010 \015qg"
  44      916136C3 
  44      2CC64C46 
  44      C67446A6 
  44      08200D71 
  45 0089 12C45A06 		.ascii	"\022\304Z\006\220\010\230\001\324}z\306\253\017L\350"
  45      90089801 
  45      D47D7AC6 
  45      AB0F4CE8 
  46 0099 BA99B1EB 		.ascii	"\272\231\261\353\206hJgd\201\350\334\361\352\006\206"
  46      86684A67 
  46      6481E8DC 
  46      F1EA0686 
  47 00a9 4E16EC3A 		.ascii	"N\026\354:\231\240:\331\030\030.24>X\245\014\321\007"
  47      99A03AD9 
  47      18182E32 
  47      343E58A5 
  47      0CD107
  48 00bc 032140A3 		.ascii	"\003!@\243\201\276\001\251R\322\323\323w\316\310L\312"
  48      81BE01A9 
  48      52D2D3D3 
  48      77CEC84C 
  48      CA
  49 00cd F40FD6CF 		.ascii	"\364\017\326\317/\326/*\321/.J\326O\316\310M\315-\310"
  49      2FD62F2A 
  49      D12F2E4A 
  49      D64FCEC8 
  49      4DCD2DC8 
  50 00e1 CFCF29D6 		.ascii	"\317\317)\326Kf\000\000\373'M:"
  50      4B660000 
  50      FB274D3A 
  51              		.text
  52              		.section	.gnu.lto_chPoolLoadArray.3bcfa1fa686a46b9,"",%progbits
  53 0000 789CBD54 		.ascii	"x\234\275T]h\023[\020\2369g7i\223H\365\355\"\022cE\021"
  53      5D68135B 
  53      109E3967 
  53      37699348 
  53      F5ED2212 
  54 0017 2B8D6F3E 		.ascii	"+\215o>\011W\012\202\017E\264\026\364I\266kHW\232&$"
  54      09570A82 
  54      0F45B416 
  54      F449B66B 
  54      48579A26 
  55 002c ADE893A7 		.ascii	"\255\350\223\247m\374\001k)U\360\247\012\376\377!\212"
  55      6DFC016B 
  55      2955F0A7 
  55      0AFEFF21 
  55      8A
  56 003d D63FAA68 		.ascii	"\326?\252hT\356m\213Z\360I[|\210\240(\364>\334\313\005"
  56      54EE6D8B 
  56      5AF0495B 
  56      7C88A028 
  56      F43EDCCB 
ARM GAS  /tmp/ccLwYPKd.s 			page 4


  57 0052 4110E29C 		.ascii	"A\020\342\234s\262\233\304\252y\020<\260\273\347\234"
  57      73B29BC4 
  57      AA79103C 
  57      B0BBE79C 
  58 0062 99F966E6 		.ascii	"\231\371f\346\233\331a\300\340\333\265\232\236m>\200"
  58      9BD961C0 
  58      E0DBB59A 
  58      9E6D3E80 
  59 0072 4FF4451F 		.ascii	"O\364E\037 \033\234\004\350\251ah\350\015\327\233\307"
  59      201B9C04 
  59      E8A96168 
  59      E80DD79B 
  59      C7
  60 0083 3506E3FD 		.ascii	"5\006\343\375c\000\"`f\375 B&\242\274\007\204\335\214"
  60      63002260 
  60      66FD2042 
  60      26A2BC07 
  60      84DD8C
  61 0096 1B26EEDE 		.ascii	"\033&\356\336\202\012\357:\313\345\013\205kC\373\036"
  61      820AEF3A 
  61      CBE50B85 
  61      6B43FB1E 
  62 00a6 3EC7936C 		.ascii	">\307\223l\036B\002\311k\002\321@\332\231\364B?\275"
  62      1E4202C9 
  62      6B02D140 
  62      DA99F442 
  62      3FBD
  63 00b8 582D3808 		.ascii	"X-8\010\001)\015Ji\210\216\022\300\204\254\020\203\221"
  63      01290D4A 
  63      69888E12 
  63      C084AC10 
  63      8391
  64 00ca 0472005B 		.ascii	"\004r\000[!n\2427ylEF\037>\001Oj\200\014\014\202\320"
  64      216EA237 
  64      796C4546 
  64      1F3E014F 
  64      6A800C0C 
  65 00e0 09B4922A 		.ascii	"\011\264\222*\005F\222\336\374\344S\277\205\247\321"
  65      054692DE 
  65      FCE453BF 
  65      85A7D1
  66 00ef 24059374 		.ascii	"$\005\223t\000&\200\351\213z8-\304P\356\320\276g(\206"
  66      002680E9 
  66      8B7A382D 
  66      C450EED0 
  66      BE672886 
  67 0103 44CFBF85 		.ascii	"D\317\277\205B\235\203\214\301\022\224n6\243\203<\242"
  67      429D838C 
  67      C112946E 
  67      36A3833C 
  67      A2
  68 0114 3E8651C9 		.ascii	">\206Q\311O\\\206E\330\312\253\217p\335\223F\314\337"
  68      4F5C8645 
  68      D8CAAB8F 
  68      70DD9346 
  68      CCDF
  69 0126 7E7F78C5 		.ascii	"~\177x\3051\221\313\236\022_\012\005$\000\223\301\206"
ARM GAS  /tmp/ccLwYPKd.s 			page 5


  69      3191CB9E 
  69      125F0A05 
  69      240093C1 
  69      86
  70 0137 6AA08454 		.ascii	"j\240\204T\011#n\012Q\253 8!Xx\236\262\373\025\010\312"
  70      09236E0A 
  70      51AB2038 
  70      2158789E 
  70      B2FB1508 
  71 014c FA6C5588 		.ascii	"\372lU\210\262\324\212\311\274\336\373\334_\221\214"
  71      B2D48AC9 
  71      BCDEFBDC 
  71      5F918C
  72 015b 8F81C06A 		.ascii	"\217\201\300j\331\310;_\2046\223\320\373\337\300\236"
  72      D9C83B5F 
  72      843693D0 
  72      FBDFC09E 
  73 016b 917E5EAC 		.ascii	"\221~^\254\242[\316\334\310\301Ku\313,\274\204\365^"
  73      A25BCEDC 
  73      C8C14B75 
  73      CB2CBC84 
  73      F55E
  74 017d 8973778F 		.ascii	"\211sw\217<\010.\360N\023\177qo?3}y>Zx\221\264-\274"
  74      3C082EF0 
  74      4E137F71 
  74      6F3F337D 
  74      793E5A78 
  75 0195 506E73E0 		.ascii	"Pns\340\303[n\3419%8\243\004\272\272\266\212Q\346\313"
  75      C35B6EE1 
  75      392538A3 
  75      04BABAB6 
  75      8A51E6CB 
  76 01a9 E931E831 		.ascii	"\3511\3501A\365&\302+\272\242N\341\272\365\303\360\021"
  76      41F526C2 
  76      2BBAA24E 
  76      E1BAF5C3 
  76      F011
  77 01bb 4F8AA37F 		.ascii	"O\212\243\177:\350\257\210\274$\237)\312ktn\345\364"
  77      3AE8AF88 
  77      BC249F29 
  77      CA6B746E 
  77      E5F4
  78 01cd E40E0D94 		.ascii	"\344\016\015\224w\317\357.S\376\315\373`\221\330\357"
  78      77CFEF2E 
  78      53FECDFB 
  78      6091D8EF 
  79 01dd 4011CCFF 		.ascii	"@\021\314\377U+\345\022)FN\204-\274\243x\274]\344\361"
  79      552BE512 
  79      29464E84 
  79      2DBCA378 
  79      BC5DE4F1 
  80 01f1 9AE2D107 		.ascii	"\232\342\321\007\352p\217.\225\337\027\320;}o\364-\005"
  80      EA708F2E 
  80      95DF17D0 
  80      3B7D6FF4 
  80      2D05
  81 0203 7A97E471 		.ascii	"z\227\344q\014\015\303\361\036!\346\222\3038\372\245"
ARM GAS  /tmp/ccLwYPKd.s 			page 6


  81      0C0DC3F1 
  81      1E21E692 
  81      C338FAA5 
  82 0213 8FDA2232 		.ascii	"\217\332\"2iN\014\006\264^\003\\\021\264\346\220\226"
  82      694E0C06 
  82      B45E035C 
  82      11B4E690 
  82      96
  83 0224 A71F203C 		.ascii	"\247\037 <\251\257\307D\033*?\243\262P\204\252\315_"
  83      A9AFC744 
  83      1B2A3FA3 
  83      B25084AA 
  83      CD5F
  84 0236 8F7E460D 		.ascii	"\217~F\015\360\003/\263;vj\357\2731\034\352\023\343"
  84      F0032FB3 
  84      3B766AEF 
  84      BB311CEA 
  84      13E3
  85 0248 229BA396 		.ascii	"\"\233\243\226]H\365\264\360rUNU\341\341\347-\373L\266"
  85      5D48F5B4 
  85      F072554E 
  85      55E1E1E7 
  85      2DFB4CB6 
  86 025c ECA3CA96 		.ascii	"\354\243\312\226\235\011\206\275\031U\352\335\277y\211"
  86      9D0986BD 
  86      1955EADD 
  86      BF7989
  87 026b 40D55736 		.ascii	"@\325W6\265\317\354\036\264\360\006m<\327n\317Yx\013"
  87      B5CFEC1E 
  87      B4F0066D 
  87      3CD76ECF 
  87      59780B
  88 027e C31E87D3 		.ascii	"\303\036\207\323G?\215\033\272\253\343X\333\000\313"
  88      473F8D1B 
  88      BAABE358 
  88      DB00CB
  89 028d 1D0C6A36 		.ascii	"\035\014j6\3040Y\206\212|\230E\026\321c\277\357@_\330"
  89      C4305986 
  89      8A7C9845 
  89      16D163BF 
  89      EF405FD8 
  90 02a1 B5935CC7 		.ascii	"\265\223\\\307%g\336\374\2439K\327Jo\177\337\314\200"
  90      2567DEFC 
  90      A3394BD7 
  90      4A6F7FDF 
  90      CC80
  91 02b3 CFD50CC6 		.ascii	"\317\325\014\306\221I\274`\201V\035TX\020DP\243\267"
  91      9149BC60 
  91      81561D54 
  91      58104450 
  91      A3B7
  92 02c5 D23F45D3 		.ascii	"\322?E\323\236\273s\220$\2544\025uY\306!\373\317\343"
  92      9EBB7390 
  92      24AC3415 
  92      7559C621 
  92      FBCFE3
  93 02d8 E1B1908B 		.ascii	"\341\261\220\213\254aK\224O\001Y\031\214^\001\336\177"
ARM GAS  /tmp/ccLwYPKd.s 			page 7


  93      AC614B94 
  93      4F015919 
  93      8C5E01DE 
  93      7F
  94 02e9 7FC114B0 		.ascii	"\177\301\024\2608\315J\351\203_\275\377\207\364a\312"
  94      38CD4AE9 
  94      835FBDFF 
  94      87F461CA 
  95 02f9 01FF127A 		.ascii	"\001\377\022z\362o\026k\020wm\"\374\254_\222U\337\330"
  95      F26F166B 
  95      10776D22 
  95      FCAC5F92 
  95      55DFD8
  96 030c 186D6A77 		.ascii	"\030mjw\332\234\365-\321d&\232\356\212f\322v\324nO\304"
  96      DA9CF52D 
  96      D164269A 
  96      EE8A66D2 
  96      76D46E4F 
  97 0321 12A964B2 		.ascii	"\022\251d\262#\323h\203\221l\333\236Z:K\317\351\264"
  97      23D36883 
  97      916CDB9E 
  97      5A3A4BCF 
  97      E9B4
  98 0333 3BBAB7C5 		.ascii	";\272\267\305\312u\333\201%R\015\2634S\311tW&\272fc"
  98      CA75DB81 
  98      25520DB3 
  98      3453C974 
  98      5726BA66 
  99 0348 7353F34E 		.ascii	"sS\363NR\267\223\351\330\326\035\253\022\244n\356\260"
  99      52B793E9 
  99      D8D61DAB 
  99      12A46EEE 
  99      B0
 100 0359 3ABA638D 		.ascii	":\272c\215\225\026\261\235]\321\246\346\226u-%\027\322"
 100      9516B19D 
 100      5DD1A6E6 
 100      96752D25 
 100      17D2
 101 036b C24EACED 		.ascii	"\302N\254\355\356\264\311h\321OB\311\354\222Q\314mn"
 101      EEB4C968 
 101      D14F42C9 
 101      EC9251CC 
 101      6D6E
 102 037d D91869B3 		.ascii	"\331\030i\2632\261T\332Y\021Y\262\022X\032\374\024e"
 102      32B154DA 
 102      591159B2 
 102      12581AFC 
 102      1465
 103 038f 32BD0B78 		.ascii	"2\275\013x\252=\365\025\352\274\301k"
 103      AA3DF515 
 103      EABCC16B 
 104              		.text
 105              		.section	.gnu.lto_chPoolAllocI.3bcfa1fa686a46b9,"",%progbits
 106 0000 789C8552 		.ascii	"x\234\205R=L\024A\024~\337\374,\267w\030\211\225\241"
 106      3D4C1441 
 106      147EDFFC 
 106      2CB77718 
ARM GAS  /tmp/ccLwYPKd.s 			page 8


 106      8995A1
 107 0013 2224144A 		.ascii	"\"$\024Jr[\032\013*K\012\013%\321NnC\2705^\216p\266"
 107      725B1A0B 
 107      2A4B0A0B 
 107      25D14E6E 
 107      43B8355E 
 108 002a 86397295 		.ascii	"\2069r\225\261\000*\220\020\005bc\203%\205\011k\007"
 108      B1002A90 
 108      10056263 
 108      83258509 
 108      6B07
 109 003c 893FA103 		.ascii	"\211?\241\003\253\2135\015!&\026\204\365\315\354\316"
 109      AB8B350D 
 109      21261684 
 109      F5CDECCE 
 110 004c 26A7264E 		.ascii	"&\247&N\262\363v\336\314\367\363\336\214 A\177\216i"
 110      B2F376DE 
 110      CCF7F3DE 
 110      8C20417F 
 110      8E69
 111 005e FEF6387D 		.ascii	"\376\3668}\213#\206\010b\345+Q\267\"\204\334\232\"S"
 111      8B238608 
 111      62E52B51 
 111      B72284DC 
 111      9A2253
 112 0071 55172364 		.ascii	"U\027#d\206%\202<\255\204\336\264\351\340\247Mk\237"
 112      8625823C 
 112      AD84DEB4 
 112      E9E0A74D 
 112      6B9F
 113 0083 0E00FB43 		.ascii	"\016\000\373C\240%!\225\016\260\364\030\226\034\343"
 113      A0252195 
 113      0EB0F418 
 113      961CE3
 114 0092 B46DCC5A 		.ascii	"\264m\314Z\377\335\325!6L\332{k.\263\014H\300F&@1\350"
 114      FFDDD521 
 114      364CDA7B 
 114      6B2EB30C 
 114      48C04626 
 115 00a9 112F30E6 		.ascii	"\021/0\346\202P\203\316\366D\332\317\262W\007\037\177"
 115      825083CE 
 115      F644DACF 
 115      B257071F 
 115      7F
 116 00ba 6CE0C630 		.ascii	"l\340\3060h\026\333\314\247\320\002\351b\021P\002Y\341"
 116      6816DBCC 
 116      A7D002E9 
 116      62115002 
 116      59E1
 117 00cc 49853CE9 		.ascii	"I\205<\351Z\221\346\241\251g\314\312X\276n\201\335\304"
 117      5A91E6A1 
 117      A967CCCA 
 117      58BE6E81 
 117      DDC4
 118 00de CED1439E 		.ascii	"\316\321C\236\255\325\031\010\033\345\027Z\376~\222"
 118      ADD51908 
 118      1BE5175A 
ARM GAS  /tmp/ccLwYPKd.s 			page 9


 118      FE7E92
 119 00ed A598C52E 		.ascii	"\245\230\305.4\315CO\322{\303\343.\023o\322k\266\025"
 119      34CD434F 
 119      D27BC3E3 
 119      2E136FD2 
 119      6BB615
 120 0100 CC43597B 		.ascii	"\314CY{C\316T\003\336\336\021-\2477sX\256\302`\242C"
 120      43CE5403 
 120      DEDE112D 
 120      A7377358 
 120      AEC260A2 
 121 0115 EA9D7D5A 		.ascii	"\352\235}Z})K>\013\035(k\006\222\266\246\234\360\376"
 121      7D294B3E 
 121      0B1D286B 
 121      0692B6A6 
 121      9CF0FE
 122 0128 CE797930 		.ascii	"\316yy0\230\244\333\245f\245\000\312B\32330\350\350"
 122      98A4DBA5 
 122      66A500CA 
 122      42D33330 
 122      E8E8
 123 013a 43358714 		.ascii	"C5\207\024F\257\377\307(3{]E\027#N\367\327\316yYp\305"
 123      46AFFFC7 
 123      28337B5D 
 123      4517234E 
 123      F7D7CE79 
 124 0151 E986FFA6 		.ascii	"\351\206\377\246\360\317\305V\325\275SB\354\221p\260"
 124      F0CFC556 
 124      D5BD5342 
 124      EC9170B0 
 125 0161 264D6FAE 		.ascii	"&Mo\2569\356\365\335\323\262\246\320qW\231\273\313N"
 125      39EEF5DD 
 125      D3B2A6D0 
 125      715799BB 
 125      CB4E
 126 0173 5FFCCD2F 		.ascii	"_\374\315/\013\3747\352\245\243\036Uc\005\353;LP\263"
 126      0BFC37EA 
 126      A5A31E55 
 126      6305EB3B 
 126      4C50B3
 127 0186 6D16834D 		.ascii	"m\026\203M\256y\311\300] _\003\237\366\233\\\3641u\373"
 127      AE79C9C0 
 127      5D205F03 
 127      9FF69B5C 
 127      F43175FB 
 128 019a EB739ECC 		.ascii	"\353s\236\314u\341\224\300\015\225g\007O8(\313\241?"
 128      75E194C0 
 128      0D956707 
 128      4F3828CB 
 128      A13F
 129 01ac 1F37ED63 		.ascii	"\0377\355c\200\345\260U\216\327\353\321\275f\322H\356"
 129      80E5B055 
 129      8ED7EBD1 
 129      BD66D248 
 129      EE
 130 01bd 3F88DA9D 		.ascii	"?\210\332\235h\361y\324Y\214\243\270\331\232k-\264\333"
 130      68F179D4 
ARM GAS  /tmp/ccLwYPKd.s 			page 10


 130      598CA3B8 
 130      D99A6B2D 
 130      B4DB
 131 01cf CF3AF598 		.ascii	"\317:\365\230T\273\361t\3417=\016\246\273"
 131      54BBF174 
 131      E1373D0E 
 131      A6BB
 132              		.text
 133              		.section	.gnu.lto_chPoolAlloc.3bcfa1fa686a46b9,"",%progbits
 134 0000 789C8D54 		.ascii	"x\234\215T]H\024Q\024>\347\316\217\373c\272\365T\021"
 134      5D481451 
 134      143EE7CE 
 134      8FFB63BA 
 134      F55411
 135 0013 B205BE64 		.ascii	"\262\005\276d\354\364\326\223P\010A\204\004\232QO5N"
 135      ECF4D693 
 135      50084184 
 135      049A514F 
 135      354E
 136 0025 4B3BE1B6 		.ascii	"K;\341\266\313\256\206>y\327\214(|0)\260D\362\247^\222"
 136      CBAE863E 
 136      79D78C28 
 136      7C3029B0 
 136      44F2A75E 
 137 003a B292A0C0 		.ascii	"\262\222\240\300l\015\242\354\027\037\202\354\007\254"
 137      6C0DA2EC 
 137      171F82EC 
 137      07AC
 138 0048 971E0C4A 		.ascii	"\227\036\014J$\210\260\266s\357\314l\273\211\331\014"
 138      2488B0B6 
 138      73EFCC6C 
 138      BB89D90C 
 139 0058 33F7DE73 		.ascii	"3\367\336s\357\371\276\357\2343g\0300\370\373\332MO"
 139      EFF9BEEF 
 139      9C336718 
 139      30F8FBDA 
 139      4D4F
 140 006a 8D06F094 		.ascii	"\215\006\360\224F,\001d\335/\0002>\306\224\376j\340"
 140      462C0164 
 140      DD2F0032 
 140      3EC694FE 
 140      6AE0
 141 007c 01752104 		.ascii	"\001u!\004\274TA\3351\253L\353\023f\375\2330k\236YG"
 141      BC5441DD 
 141      31AB4CEB 
 141      1366FD9B 
 141      306B9E59 
 142 0091 14134068 		.ascii	"\024\023@hg\212\252\351\330~\000\0058n\202A\316{f\037"
 142      678AAAE9 
 142      D87E0005 
 142      386E8241 
 142      CE7B661F 
 143 00a5 8E4CE105 		.ascii	"\216L\341\005\236\355\034\340\213\271\034\242\215$\244"
 143      9EED1CE0 
 143      8BB91CA2 
 143      8D24A4
 144 00b4 12C142D8 		.ascii	"\022\301B\330O\013\014\313\201\251\305\312FYv6\227{"
ARM GAS  /tmp/ccLwYPKd.s 			page 11


 144      4F0B0CCB 
 144      81A9C5CA 
 144      46597636 
 144      977B
 145 00c6 F7EACEC7 		.ascii	"\367\352\316\307{\270f\265\202q\004\035L\034$\320\022"
 145      7BB866B5 
 145      8271041D 
 145      4C1C24D0 
 145      12
 146 00d7 B051F1D1 		.ascii	"\260Q\361\321K\365\323K\013\270\346\240;\322\245A'\347"
 146      4BF5D34B 
 146      0BB8E6A0 
 146      3BD2A541 
 146      27E7
 147 00e9 DD616F6D 		.ascii	"\335aomI9{\351-t6 \023\2432\005\035>\000W\343\355\017"
 147      49397BE9 
 147      2D743620 
 147      13A33205 
 147      1D3E0057 
 148 0100 E35B8A34 		.ascii	"\343[\2124\352\014\366\255\244Q\330\3640M^@\307\374"
 148      EA0CF6AD 
 148      A451D8F4 
 148      304D5E40 
 148      C7FC
 149 0112 F889B12E 		.ascii	"\370\211\261.\305%\366\024d\347\036\374\0101\023/K\031"
 149      C525F614 
 149      64E71EFC 
 149      0831132F 
 149      4B19
 150 0124 AEEDCBB9 		.ascii	"\256\355\313\271\361\340\206\374\352\364;\252\212\211"
 150      F1E086FC 
 150      EAF43BAA 
 150      8A89
 151 0132 C3A81199 		.ascii	"\303\250\021\231 d\364(2}t_\243)\355+N\351*`\002\373"
 151      2064F428 
 151      327D745F 
 151      A329ED2B 
 151      4EE92A60 
 152 0148 79EF769B 		.ascii	"y\357v\233JUH\377g\177\322\335\3679\002\013C\314\276"
 152      4A5548FF 
 152      677FD2DD 
 152      F739020B 
 152      43CCBE
 153 015b 7DF21479 		.ascii	"}\362\024y\017\317|\315\345\312m\3643\230\302\225\002"
 153      0FCF7CCD 
 153      E5CA6DF4 
 153      3398C295 
 153      02
 154 016c 3C22943C 		.ascii	"<\"\224<\207\2167\257sYtcs\321\026\036u\255\343\003"
 154      878E37AF 
 154      73597463 
 154      73D1161E 
 154      75ADE303 
 155 0180 1DDDFC17 		.ascii	"\035\335\374\027\345\213Jj\342\220\224\376/8/h\376\351"
 155      E58B4A6A 
 155      E29094FE 
 155      2F382F68 
ARM GAS  /tmp/ccLwYPKd.s 			page 12


 155      FEE9
 156 0192 FC5A1347 		.ascii	"\374Z\023GeR\274\320U\207O\257\202\253\234\363\354\317"
 156      6552BCD0 
 156      55874FAF 
 156      82AB9CF3 
 156      ECCF
 157 01a4 536554E4 		.ascii	"SeT\344>\270\230\341<dc\200\224\010D\277DiD\3518F\216"
 157      3EB898E1 
 157      3C646380 
 157      940844BF 
 157      446944E9 
 158 01bb 4E905982 		.ascii	"N\220Y\202\273I+\023o\021(\241\000<\206\316\317\223"
 158      BB492B13 
 158      6F1128A1 
 158      003C86CE 
 158      CF93
 159 01cd 67CF28CE 		.ascii	"g\317(\316\006\231\204{\221\226\006\012\256\277Z\021"
 159      0699847B 
 159      9196060A 
 159      AEBF5A11 
 160 01dd E1DD199A 		.ascii	"\341\335\031\232\317\037,\251\202\315\205\324A\327W"
 160      CF1F2CA9 
 160      82CD85D4 
 160      41D757
 161 01ec 71A9B180 		.ascii	"q\251\261\200\232|\247n\004\034OG8/\377?\331G\234\022"
 161      9A7CA76E 
 161      041C4F47 
 161      382FFF3F 
 161      D9479C12 
 162 0200 0A152A2C 		.ascii	"\012\025*,\204\244\212\357C\363\350\251\360I\025\245"
 162      84A48AEF 
 162      43F3E8A9 
 162      F04915A5 
 163 0210 CB22B102 		.ascii	"\313\"\261\002\025\"\324\314\266\274\2478VZ\034\250"
 163      1522D4CC 
 163      B6BCA738 
 163      565A1CA8 
 164 0220 06975649 		.ascii	"\006\227VI\212\336\341\231|\240~I\261jY\012\245\200"
 164      8ADEE199 
 164      7CA07E49 
 164      B16A590A 
 164      A580
 165 0232 E2257466 		.ascii	"\342%tf\327{\216t\320'\"\360\333X&\322\317\212\223\037"
 165      D77B8E74 
 165      D02722F0 
 165      DB5826D2 
 165      CF8A931F 
 166 0246 F058F582 		.ascii	"\360X\365\2026\3636\203\262^\263wO\352N\341\363-\013"
 166      36F33683 
 166      B25EB377 
 166      4FEA4EE1 
 166      F32D0B
 167 0259 C5ED3838 		.ascii	"\305\35588\361W;\232xe\305\357K6\004\374\263\037\337"
 167      F1573B9A 
 167      7865C5EF 
 167      4B3604FC 
 167      B31FDF
ARM GAS  /tmp/ccLwYPKd.s 			page 13


 168 026c 2C8A7E9C 		.ascii	",\212~\234(\356\307\271`E\376\237\361\2471\337\0274"
 168      28EEC7B9 
 168      6045FE9F 
 168      F1A731DF 
 168      1734
 169 027e A64C8245 		.ascii	"\246L\202E\340K{\323\304\021\232\344\251\275^4\361:"
 169      E04B7BD3 
 169      C4119AE4 
 169      A9BD5E34 
 169      F13A
 170 0290 5638B2A6 		.ascii	"V8\262\246!3;\036u\240d\006\000f@|V\312\347\373\207"
 170      21333B1E 
 170      75A06406 
 170      0066407C 
 170      56CAE7FB 
 171 02a5 685045D2 		.ascii	"hPE\322\264g\3231\361\217B\2214\201\260)\0221jbv\243"
 171      B467D331 
 171      F18F4291 
 171      3481B029 
 171      12316A62 
 172 02bb BDA7DE48 		.ascii	"\275\247\336H\244\215T\263\221NY\206\025\213G\343\311"
 172      A48D54B3 
 172      914E5986 
 172      158B47E3 
 172      C9
 173 02cc 44A2291D 		.ascii	"D\242)\035\261@M4\036MV-9\227L\244\232\323\306\216\272"
 173      B1404D34 
 173      1E4D562D 
 173      39974CA4 
 173      9AD3C68E 
 174 02e1 DA9ADA56 		.ascii	"\332\232\332Vr\260\022\251\350\301\343\333\342\221\030"
 174      72B012A9 
 174      E8C1E3DB 
 174      E29118
 175 02f0 68C7CDA6 		.ascii	"h\307\315\246\226h\244\330#\332\332l\324\324\326\357"
 175      9668A4D8 
 175      23DADA6C 
 175      D4D4D6EF 
 176 0300 AA37EC63 		.ascii	"\2527\354cVS\313\341\250!=\254\370\316\226c\0269m\\"
 176      5653CBE1 
 176      A8213DAC 
 176      F8CE9663 
 176      16396D5C 
 177 0314 42903F17 		.ascii	"B\220?\027K\267\245\351D\250\266\276.\334h\246\243\311"
 177      4BB7A5E9 
 177      44A8B6BE 
 177      2EDC68A6 
 177      A3C9
 178 0326 94BD255C 		.ascii	"\224\275%\\\271\025X\012JHg\"\325\006,\236\374\015\377"
 178      B915580A 
 178      4A486722 
 178      D5062C9E 
 178      FC0DFF
 179 0339 34791D   		.ascii	"4y\035"
 180              		.text
 181              		.section	.gnu.lto_chPoolFreeI.3bcfa1fa686a46b9,"",%progbits
 182 0000 789C8551 		.ascii	"x\234\205Q\275J\003A\020\376\276\335\004E\361\001\322"
ARM GAS  /tmp/ccLwYPKd.s 			page 14


 182      BD4A0341 
 182      10FEBEDD 
 182      0445F101 
 182      D2
 183 0011 85838018 		.ascii	"\205\203\200\030\310=\204\017`a\004-,\222C\356\002\036"
 183      C83D840F 
 183      6061042D 
 183      2C9243EE 
 183      021E
 184 0023 7724F6D9 		.ascii	"w$\366\331\004\037\340\260\021\2641\226\026\261\021"
 184      041FE0B0 
 184      11B43196 
 184      16B111
 185 0032 D1609136 		.ascii	"\321`\2216\004\005;\261\212\265O`\3439{\227\010\261"
 185      04053BB1 
 185      8AB54F60 
 185      E3397B97 
 185      08B1
 186 0044 71607766 		.ascii	"q`wfw\346\373YVA\341o\224d\035\022\330\224L\015\252"
 186      77E6FB59 
 186      5641E16F 
 186      94641D12 
 186      D8944C0D 
 187 0059 E405E8AD 		.ascii	"\344\005\350\255*\322\026 \272\212\335\003f\263\267"
 187      2AD21620 
 187      BA8ADD03 
 187      66B3B7
 188 0068 6A3C4BD3 		.ascii	"j<K\323\341\375\364\356\211C\265B\206\204\226\215\005"
 188      E1FDF4EE 
 188      8943B542 
 188      8684968D 
 188      05
 189 0079 B4B28922 		.ascii	"\264\262\211\"N\215I\312\016\006\306\234\215\037\247"
 189      4E8D49CA 
 189      0E06C69C 
 189      8D1FA7
 190 0088 E72573D5 		.ascii	"\347%s\325O\314w\232R\006\024*\204G\354\313\201\345"
 190      4FCC779A 
 190      5206142A 
 190      8447ECCB 
 190      81E5
 191 009a 2CA9C2B2 		.ascii	",\251\302\262\233\220\342\320\313\270\352\262[\013{"
 191      9B90E2D0 
 191      CBB8EAB2 
 191      5B0B7B
 192 00a9 7225594F 		.ascii	"r%YO\240\032\034\260\210\006\257\351\300\247\364\237"
 192      A01A1CB0 
 192      8806AFE9 
 192      C0A7F49F 
 193 00b9 D17F7F18 		.ascii	"\321\177\177\030}\314\033>\013Ul\211\320%.\204[\373"
 193      7DCC1B3E 
 193      0B556C89 
 193      D0252E84 
 193      5BFB
 194 00cb D4562397 		.ascii	"\324V#\227hr\241!\240I\262\226C\252\2701\022\033\277"
 194      6872A121 
 194      A049B296 
ARM GAS  /tmp/ccLwYPKd.s 			page 15


 194      43AAB831 
 194      121BBF
 195 00de A0A2F05A 		.ascii	"\240\242\360Z\020\346\240\274\360-\211\305\275\215\276"
 195      10E6A0BC 
 195      F02D89C5 
 195      BD8DBE
 196 00ed B8845CFF 		.ascii	"\270\204\\\377G.\263\371\212\336\354\263\222\343\026"
 196      472EB3F9 
 196      8ADEECB3 
 196      92E316
 197 00fc 5197863C 		.ascii	"Q\227\206<\313~\210S\253\271\333A\253\331\332\331u\243"
 197      CB7E8853 
 197      ABB9DB41 
 197      ABD9DAD9 
 197      75A3
 198 010e 8EDB3E71 		.ascii	"\216\333>q;m\317\365\202\360(\214\243\350\270S\363\240"
 198      3B6DCFF5 
 198      82F0288C 
 198      A3E8B853 
 198      F3A0
 199 0120 E320FE01 		.ascii	"\343 \376\001\214\244Z\367"
 199      8CA45AF7 
 200              		.text
 201              		.section	.gnu.lto_chPoolFree.3bcfa1fa686a46b9,"",%progbits
 202 0000 789C8D53 		.ascii	"x\234\215SMh\023A\024~o6iR\243\230\253 !\006D0%\353"
 202      4D681341 
 202      147E6F36 
 202      6952A398 
 202      AB202106 
 203 0018 CDAB1210 		.ascii	"\315\253\022\020<\004\261\251\240'\331\254\241YI\272"
 203      3C04B1A9 
 203      A027D9AC 
 203      A15949BA 
 204 0028 CB6E52DA 		.ascii	"\313nR\332S'\261G\011!zP\253`\364\242\242\006\333\202"
 204      5327B147 
 204      09217A50 
 204      AB60F4A2 
 204      A206DB82 
 205 003c B50D12C4 		.ascii	"\265\015\022\304\037\202Z\361&E$=x\322\203\036\225B"
 205      1F825AF1 
 205      2645243D 
 205      78D2831E 
 205      9542
 206 004e 7C3B9BC4 		.ascii	"|;\233\304\244\021\323\201\335\231\331y\337\373\336"
 206      A411D381 
 206      DD99D979 
 206      DFFBDE
 207 005d FBF61B06 		.ascii	"\373\366\033\006\014\266\217}\364|\221\000>\320\214"
 207      0CB68F7D 
 207      F47C9100 
 207      3ED08C
 208 006c 12202BAD 		.ascii	"\022 +\255\003\344\275\014\321^\000\302\034\303\271"
 208      03E4BD0C 
 208      D15E00C2 
 208      1CC3B9
 209 007b 732862AB 		.ascii	"s(b\253\254\336l\265\036\227\213\313\337q\205\355\226"
 209      ACDE6CB5 
ARM GAS  /tmp/ccLwYPKd.s 			page 16


 209      1E978BCB 
 209      DF7185ED 
 209      96
 210 008c 3083E0A2 		.ascii	"0\203\340\242\027z@\023\021n\230\347\274\024\004P\305"
 210      177A4013 
 210      116E98E7 
 210      BC140450 
 210      C5
 211 009d 7682DE76 		.ascii	"v\202\336v\2263\310\354Yj@\301\013\020\202\012\347\345"
 211      9633C8EC 
 211      596A40C1 
 211      0B10820A 
 211      E7E5
 212 00af E6C2666D 		.ascii	"\346\302fm\354:\257\317\337\346[\255\026\242\206\024"
 212      EC3AAFCF 
 212      DFE65BAD 
 212      16A28614 
 213 00bf 741A6DE4 		.ascii	"t\032m\344Y\332\260\240\230$W\177\265\3667\244\374\260"
 213      59DAB0A0 
 213      9824577F 
 213      B5F637A4 
 213      FCB0
 214 00d1 0E859FD5 		.ascii	"\016\205\237\325KK\227\245.\245\263\250?}\361\333\317"
 214      4B4B97A5 
 214      2EA5B3A8 
 214      3F7DF1DB 
 214      CF
 215 00e2 14BC83A1 		.ascii	"\024\274\203\241n=\365\265\2535\337\376\356\256\361"
 215      6E3DF5B5 
 215      AB35DFFE 
 215      EEAEF1
 216 00f1 8ADA55B0 		.ascii	"\212\332U\260\202n\"\263\011\031=\022\210f\021\356\321"
 216      826E22B3 
 216      09193D12 
 216      886611EE 
 216      D1
 217 0102 9254921C 		.ascii	"\222T\222\034\251\002\360\014o\361k\3074t\365\321\377"
 217      A902F00C 
 217      6FF16BC7 
 217      3474F5D1 
 217      FF
 218 0113 3DAFB5CF 		.ascii	"=\257\265\317\335N\201\275-\326\257\024\337\"/\363\374"
 218      DD4E81BD 
 218      2DD6AF14 
 218      DF222FF3 
 218      FC
 219 0124 8F566BAF 		.ascii	"\217Vk\257\206#\014^\342\260\006'\355Jz\223\360E\316"
 219      86230C5E 
 219      E2B00627 
 219      ED4A7A93 
 219      F045CE
 220 0137 47854692 		.ascii	"G\205F\222\206\036\006ov\220\302%R4?\177\365\265\325"
 220      861E066F 
 220      7690C225 
 220      52343F7F 
 220      F5B5D5
 221 014a F9472AAA 		.ascii	"\371G*\252\377\335\320T\035\315\370\322\315\200\202"
ARM GAS  /tmp/ccLwYPKd.s 			page 17


 221      FFDDD054 
 221      1DCDF8D2 
 221      CD8082
 222 0159 55D254C1 		.ascii	"U\322T\301GB\331\216~\002\240\340\"}\024\274\357\241"
 222      4742D98E 
 222      7E02A0E0 
 222      227D14BC 
 222      EFA1
 223 016b B0B1B2BA 		.ascii	"\260\261\262\272I\177\340\011\235O\242'\014\207\211"
 223      497FE009 
 223      9D4FA227 
 223      0C8789
 224 017a 6C016EE4 		.ascii	"l\001n\3449\367k\350\245\006m\246\021\221=\201\002\275"
 224      39F76BE8 
 224      A5066DA6 
 224      11913D81 
 224      02BD
 225 018c ECA847D8 		.ascii	"\354\250G\330Fi\227\203\014\303\003NcO/v\224\030l,\264"
 225      46699783 
 225      0CC3034E 
 225      634F2F76 
 225      94186C2C 
 226 01a1 B1D8C512 		.ascii	"\261\330\305\022\217\003\377\264\372\013\373\022\370"
 226      8F03FFB4 
 226      FA0BFB12 
 226      F8
 227 01ae 7646DED1 		.ascii	"vF\336\321\254\307\236\225\347\333\354\251\340]a\225"
 227      ACC79E95 
 227      E7DBECA9 
 227      E05D6195 
 228 01be A1FE84FF 		.ascii	"\241\376\204\377\372sc\313\366\347Z\277?\277\371\002"
 228      FA7363CB 
 228      F6E75ABF 
 228      3FBFF902 
 229 01ce 3DB7A763 		.ascii	"=\267\247c\324\327=F\025\012\251T\372\240W\025\274O"
 229      D4D73D46 
 229      150AA954 
 229      FAA05715 
 229      BC4F
 230 01e0 8B2E75C7 		.ascii	"\213.u\307\233\012>\304\200S\326G\3107\213\207\234T"
 230      9B0A3EC4 
 230      8053D647 
 230      C8378B87 
 230      9C54
 231 01f2 9D3141D1 		.ascii	"\2351A\321t)\355\320P$\"GSZB;\025\227uK6\263\262e\252"
 231      7429EDD0 
 231      50242247 
 231      535A423B 
 231      1597754B 
 232 020b B29ACA24 		.ascii	"\262\232\312$3\206\256\247\255\210\012\341\201\020C"
 232      3386AEA7 
 232      AD880AE1 
 232      811043
 233 021a 37B3967C 		.ascii	"7\263\226||<\026\215\315P\254\252\233\311\363\323G3"
 233      7C3C168D 
 233      CD50ACAA 
 233      9BC9F3D3 
ARM GAS  /tmp/ccLwYPKd.s 			page 18


 233      4733
 234 022c 9114B8A7 		.ascii	"\221\024\270\247\225t.\031\351G$g\262r4\026?\031\227"
 234      95742E19 
 234      E9472467 
 234      B2723416 
 234      3F1997
 235 023f B529359D 		.ascii	"\265)5\235\273\220\224\005B\315\234\310M\251\004:0@"
 235      BB909405 
 235      42CD9CC8 
 235      4DA9043A 
 235      3040
 236 0251 D08D4B59 		.ascii	"\320\215KY\263\026E\370c\361\361`B\261\222\206\251\215"
 236      B31645F8 
 236      63F1F160 
 236      42B19286 
 236      A98D
 237 0263 050F1E01 		.ascii	"\005\017\036\001f\202\207J\324\315Y`\031\303\245'.\032"
 237      6682874A 
 237      D4CD5960 
 237      19C3A527 
 237      2E1A
 238 0275 929132FE 		.ascii	"\222\2212\376\000\200\261$e"
 238      0080B124 
 238      65
 239              		.text
 240              		.section	.gnu.lto_.symbol_nodes.3bcfa1fa686a46b9,"",%progbits
 241 0000 789C4DC7 		.ascii	"x\234M\307\261\015\2000\020CQ\3339\226e\011\267\224"
 241      B10D8030 
 241      104351DB 
 241      39966509 
 241      B794
 242 0012 48F48C43 		.ascii	"H\364\214C\311$4\020\222\032\012$\3567_O\020F|\351\244"
 242      C9243410 
 242      921A0A24 
 242      EE375F4F 
 242      10467CE9 
 243 0027 817907EC 		.ascii	"\201y\007\354u\242.\232\211\225V\342M\227\304FGb\247"
 243      75A22E9A 
 243      899556E2 
 243      4D97C446 
 243      4762A7
 244 003a 879F212C 		.ascii	"\207\237!,\333\241(\250\357\360\000[ #L"
 244      DBA128A8 
 244      EFF0005B 
 244      20234C
 245              		.text
 246              		.section	.gnu.lto_.refs.3bcfa1fa686a46b9,"",%progbits
 247 0000 789C6362 		.ascii	"x\234cb`b`d\200\002\000\000F\000\006"
 247      60626064 
 247      80020000 
 247      460006
 248              		.text
 249              		.section	.gnu.lto_.decls.3bcfa1fa686a46b9,"",%progbits
 250 0000 789CB558 		.ascii	"x\234\265X\177l\033\325\035\177\357\234\304v\355\244"
 250      7F6C1BD5 
 250      1D7FEF9C 
 250      C476EDA4 
ARM GAS  /tmp/ccLwYPKd.s 			page 19


 251 0010 01892AD3 		.ascii	"\001\211*\323\2445e\264h\240\344H\232\215\356\037BW"
 251      A43565B4 
 251      68A0E448 
 251      9A8DEE1F 
 251      4257
 252 0022 8D351285 		.ascii	"\2155\022\205\212\250\322\244M\272]\354+\366\360\257"
 252      8AA8D2A4 
 252      4DBA5DEC 
 252      2BF6F0AF 
 253 0032 D94E21D3 		.ascii	"\331N!\323\244>7m\326\026P\335\260\212T\320\342\260"
 253      A43E376D 
 253      D61650DD 
 253      B08A54D0 
 253      E2B0
 254 0044 C268610D 		.ascii	"\302ha\015J\177\211\037\012^\2676\245\205\022\204HE"
 254      4A7F891F 
 254      0A5EB736 
 254      A5851284 
 254      4845
 255 0056 C7989146 		.ascii	"\307\230\221FQ\306\004)\335X\253M\365\276\357\335;\373"
 255      51C60429 
 255      DD58AB4D 
 255      F5BEEFDD 
 255      3BFB
 256 0068 EEF9CEB1 		.ascii	"\356\371\316\261'q\322\327~\347\373\376\370|?\337\357"
 256      2771D2D7 
 256      7EE7FBFE 
 256      F87C3FDF 
 256      EF
 257 0079 7DEF9D25 		.ascii	"}\357\235%$\241y\011\241\"\034+oB\350S\027Bn\204\320"
 257      24A17909 
 257      A1221C2B 
 257      6F42E853 
 257      17426E84 
 258 008e 5D20F033 		.ascii	"] \3603\352\005\031G\372\321\004\362\"\310Y\220Y\220"
 258      EA051947 
 258      FAD104F2 
 258      22C85990 
 258      5990
 259 00a0 0F410A20 		.ascii	"\017A\012 s\250\362\240z\215 \307@&@\016\203\034\340"
 259      73A8F2A0 
 259      7A8D20C7 
 259      4026400E 
 259      831CE0
 260 00b3 BE20043A 		.ascii	"\276 \004:\012\362:\310\024\010\346\372\015 \177\004"
 260      0AF23AC8 
 260      1408E6FA 
 260      0D207F04 
 261 00c3 3905320D 		.ascii	"9\0052\015\362\271\340\223\306m6\371\245\330Z@\374\334"
 261      F2B9E093 
 261      C66D36F9 
 261      A5D85A40 
 261      FCDC
 262 00d5 FF5590EB 		.ascii	"\377U\220\353Hw(\201\034\3471'x.\257\360\230^\356\313"
 262      48772881 
 262      1CE73127 
 262      782EAFF0 
ARM GAS  /tmp/ccLwYPKd.s 			page 20


 262      985EEECB 
 263 00e9 8575EC1E 		.ascii	"\205u\354\036\370\366\203,\306z>m\360\375M\254\363\360"
 263      F8F6832C 
 263      C67A3E6D 
 263      F0FD4DAC 
 263      F3F0
 264 00fb 2EC87B20 		.ascii	".\310{ 3 \337\202\337\276\015r\013\310rl\3056\313q\230"
 264      3320DF82 
 264      DFBE0D72 
 264      0BC8726C 
 264      C536CB71 
 265 0110 31518C87 		.ascii	"1Q\214\2078^\203\203\343\234\003\212\353Y\236\363Q\216"
 265      385E8383 
 265      E39C038A 
 265      EB599EF3 
 265      518E
 266 0122 6D8AE3C3 		.ascii	"m\212\343\303\334\037\305|\021d\205\020\213\362\276"
 266      DC1FC57C 
 266      11648510 
 266      8BF2BE
 267 0131 B84A2C33 		.ascii	"\270J,3\017\207y\354Z\342\272\271o3\037\263&>(\214\217"
 267      0F8779EC 
 267      5AE2BAB9 
 267      6F331FB3 
 267      263E288C 
 268 0146 849A50BE 		.ascii	"\204\232P\276\232x|\003\2139W\311\024\007s}Z\377K \237"
 268      9A787C03 
 268      8B3957C9 
 268      1407737D 
 268      5AFF4B20 
 269 015b 80DC2EE4 		.ascii	"\200\334.\344F\353\261\210\373\273j\362i\316\247\327"
 269      46EBB188 
 269      FBBB6AF2 
 269      69CEA7D7 
 270 016b 9493D9BF 		.ascii	"\224\223\331\277\033U\257'\325\375\014\344\037B\016"
 270      1B55AF27 
 270      D5FD0CE4 
 270      1F420E
 271 017a 3EB49390 		.ascii	">\264\223\220-$7B\326\236iY\202\366\0208\340\204\340"
 271      2D243742 
 271      D69E6959 
 271      82F61038 
 271      E084E0
 272 018d B48A7B7D 		.ascii	"\264\212{}\350\307X\305-^\324\316\026~/\243\016!\025"
 272      E8C758C5 
 272      2D5ED4CE 
 272      167E2FA3 
 272      0E2115
 273 01a0 3F8B97B0 		.ascii	"?\213\227\260\225\2139\206\256\332^\366\202l\255\226"
 273      958B3986 
 273      AEDA5EF6 
 273      826CAD96 
 274 01b0 A3038464 		.ascii	"\243\003\204d\013\333>\273&\021\342Q\361\001\354\005"
 274      0BDB3EBB 
 274      2611E251 
 274      F101EC05 
 275 01c0 DB6D18A3 		.ascii	"\333m\030\243\333\320A\010\232\005\007\267J\250\362"
ARM GAS  /tmp/ccLwYPKd.s 			page 21


 275      DBD04108 
 275      9A0507B7 
 275      4AA8F2
 276 01cf 5071A3B7 		.ascii	"Pq\243\267\342\\\305\277\303\267!=\022\273\314\027\364"
 276      E25CC5BF 
 276      C3B7213D 
 276      12BBCC17 
 276      F4
 277 01e0 565E4C75 		.ascii	"V^Lu6\270J\006U\320\\\330y\342;\014\3158\366\001\232"
 277      36B84A06 
 277      55D05CD8 
 277      79E23B0C 
 277      CD38F601 
 278 01f5 57008DE1 		.ascii	"W\000\215\341\271\202\034=i'B\016\201\003\263\251\031"
 278      B9821C3D 
 278      6927420E 
 278      8103B3A9 
 278      19
 279 0206 AF706D29 		.ascii	"\257pm)\332Or\205\302\276\363o\253{I~+)\0267#\201\371"
 279      DA4F7285 
 279      C2BEF36F 
 279      AB7B497E 
 279      2B291637 
 280 021d BB6E720C 		.ascii	"\273nr\014\364\222\225y\013\304\033\321n\352\245\335"
 280      F4929579 
 280      0BC41BD1 
 280      6EEAA5DD 
 281 022d 54839F19 		.ascii	"T\203\237\031\366\376r\326GvMw\261\254'\360\215\340"
 281      F6FE72D6 
 281      47764D77 
 281      B1AC27F0 
 281      8DE0
 282 023f 252B59B3 		.ascii	"%+Y\263^\310\013E1\011\226\272\015\363I\362\273O\373"
 282      5EC80B45 
 282      310996BA 
 282      0DF349F2 
 282      BB4FFB
 283 0252 4983FE3B 		.ascii	"I\203\376;r \002\216e(\007h\363O\214\354\373\006\311"
 283      7220028E 
 283      65280768 
 283      F34F8CEC 
 283      FB06C9
 284 0265 9DC476E0 		.ascii	"\235\304v\340sMN\035$\241\375\014\351q1\366e\265]\377"
 284      734D4E1D 
 284      24A1FD0C 
 284      E97131F6 
 284      65B55DFF 
 285 0279 75E1C857 		.ascii	"u\341\310W\346\336\304d\324\257\342c\254\340\207J\016"
 285      E6DEC464 
 285      D4AFE263 
 285      ACE0874A 
 285      0E
 286 028a ED02F2A5 		.ascii	"\355\002\362\245\245\213\304\303\251L\324??$4\311\302"
 286      A58BC4C3 
 286      A94CD43F 
 286      3F2434C9 
 286      C2
ARM GAS  /tmp/ccLwYPKd.s 			page 22


 287 029b 4CD61F86 		.ascii	"L\326\037\206\243\336s\372i\306\227q\327\274Z\267\277"
 287      A3DE73FA 
 287      69C69771 
 287      D7BC5AB7 
 287      BF
 288 02ac 768BBFB1 		.ascii	"v\213\277\261\323\376\254j4\375\233\2658\363T\343\300"
 288      D3FEAC6A 
 288      34FD9BB5 
 288      38F354E3 
 288      C0
 289 02bd 74983B43 		.ascii	"t\230;C\305G\360r\370<\212\227\301\347\353\354s\012"
 289      C547F072 
 289      F83C8A97 
 289      C1E7EBEC 
 289      730A
 290 02cf 3E17E4EE 		.ascii	">\027\344\356p\231;\336\345z\342\346\363q]\307r\243"
 290      70993BDE 
 290      E57AE2E6 
 290      F3715DC7 
 290      72A3
 291 02e1 4BE87DA1 		.ascii	"K\350}\241\225oA\277%d\224\336j\037\343\337\014\223"
 291      956F41BF 
 291      256494DE 
 291      6A1FE3DF 
 291      0C93
 292 02f3 B5BA6F09 		.ascii	"\265\272o\011]bz/\342\245\266\0308\002\335\230\274\247"
 292      5D627A2F 
 292      E2A5B618 
 292      3802DD98 
 292      BCA7
 293 0305 AD35789F 		.ascii	"\2555x\237[\300\214\201\344f{\201clp\374\371\002\206"
 293      5BC08C81 
 293      E4667B81 
 293      636C70FC 
 293      F90286
 294 0318 3C9B15E8 		.ascii	"<\233\025\3509z\013<N\266\265b6\004\020\267\2620|\022"
 294      397A0B3C 
 294      4EB6B562 
 294      360410B7 
 294      B2307C12 
 295 032c 5BC6A43E 		.ascii	"[\306\244>N\362\243\323\376l\246P,.\255}\224\234\263"
 295      4EF2A3D3 
 295      FE6CA650 
 295      2C2EAD7D 
 295      949CB3
 296 033f 8E123DED 		.ascii	"\216\022=\355\322I\257\317\256\000\002\341\377\266%"
 296      D249AFCF 
 296      AE0002E1 
 296      FFB625
 297 034e 9C3CA571 		.ascii	"\234<\245q\252U\374'@\253\342\2635Q\375\0065\353\245"
 297      AA55FC27 
 297      40ABE2B3 
 297      3551FD06 
 297      35EBA5
 298 0361 84FDDA85 		.ascii	"\204\375\332\205\253Z\365\226\215\256\224\353\263c\001"
 298      AB5AF596 
 298      8DAE94EB 
ARM GAS  /tmp/ccLwYPKd.s 			page 23


 298      B36301
 299 0370 2B9E832D 		.ascii	"+\236\203-\315gE\232\337\251\244\2710\237\277<}\016"
 299      CD67459A 
 299      DFA9A4B9 
 299      309FBF3C 
 299      7D0E
 300 0382 0608F96F 		.ascii	"\006\010\371o\2618\354\021\247v\225\347\345\005;\252"
 300      B138EC11 
 300      A77695E7 
 300      E5053BAA 
 301 0392 052E1F75 		.ascii	"\005.\037u\331r\371\244\310\345lu.y~[\310\304\310\266"
 301      D972F9A4 
 301      C8E56C75 
 301      2E797E5B 
 301      C8C4C8B6 
 302 03a6 D6065E47 		.ascii	"\326\006^Gg+\016\360\003\333\246\272x\2267\225\236\201"
 302      672B0EF0 
 302      03DBA6BA 
 302      78963795 
 302      9E81
 303 03b8 84C6EC31 		.ascii	"\204\306\3541\356\0211~\370\177at\262\342\030\377b["
 303      EE11317E 
 303      F87F6174 
 303      B2E218FF 
 303      625B
 304 03ca 91138F3A 		.ascii	"\221\023\217:W\244J\363\177\\C\363\013\005:`\237\374"
 304      57A44AF3 
 304      7F5C43F3 
 304      0B053A60 
 304      9FFC
 305 03dc 1362F285 		.ascii	"\023b\362\205\232\232\375D\251\331_f~\235\255z\235\207"
 305      9A9AFD44 
 305      A9D95F66 
 305      7E9DAD7A 
 305      9D87
 306 03ee 4341ECDA 		.ascii	"CA\354\332\277\331r4z^\257\3433w\353\211K\350\230}."
 306      BFD97234 
 306      7A5EAFE3 
 306      3377EB89 
 306      4BE8987D 
 307 0403 BBC55CE6 		.ascii	"\273\305\\\346j\312\345\030\317E\305\237.`U%\22791\227"
 307      6ACAE518 
 307      CF45C59F 
 307      2E605525 
 307      97393197 
 308 0417 BF5B73B9 		.ascii	"\277[s\271\031\215\223\231\231\374k\247w\020LFHf\036"
 308      198D9399 
 308      99FC6BA7 
 308      77104C46 
 308      48661E
 309 042a B67A37A0 		.ascii	"\266z7\240,\333\253\214\265\360-h\341\271|\333Xy\003"
 309      2CDBAB8C 
 309      B5F02D68 
 309      E1B97CDB 
 309      587903
 310 043d E131A2D3 		.ascii	"\3411\242\323\255\266\276]\000\003\251\244L\332\332"
 310      ADB6BE5D 
ARM GAS  /tmp/ccLwYPKd.s 			page 24


 310      0003A9A4 
 310      4CDADA
 311 044c EC75557C 		.ascii	"\354uU|\231=\274\276\324G\006\273\244\257\215U\221\355"
 311      993DBCBE 
 311      D44706BB 
 311      A4AF8D55 
 311      91ED
 312 045e AAF32E61 		.ascii	"\252\363.a\023_\206_\335\224\007\335\216\215\25070\345"
 312      135F865F 
 312      DD9407DD 
 312      8E8DA837 
 312      30E5
 313 0470 7242BAAA 		.ascii	"rB\272\252\203\232\212\377\211\365\025K\205\224\366"
 313      839A8AFF 
 313      89F5154B 
 313      8594F6
 314 047f A87EAF63 		.ascii	"\250~\257c\307\377\313\204\307\357-/Z-\250\015-\310"
 314      C7FFCB84 
 314      C7EF2D2F 
 314      5A2DA80D 
 314      2DC8
 315 0491 ED944B78 		.ascii	"\355\224Kxj\211($t\236\247\257\342E\270\236\327\200"
 315      6A892824 
 315      749EA7AF 
 315      E245B89E 
 315      D780
 316 04a3 6BFB4FFD 		.ascii	"k\373O\375\001o\201\233T\305W\331\350\236i\260\366c"
 316      016F819B 
 316      54C557D9 
 316      E89E69B0 
 316      F663
 317 04b5 EDAEAE5C 		.ascii	"\355\256\256\\\312?\211\207\231\253\3770W\0375Z]\251"
 317      CA3F8987 
 317      99ABFF30 
 317      571F355A 
 317      5DA9
 318 04c7 D82DBC40 		.ascii	"\330-\274@\270\255/\020noy\301_ \352T\347U\313\335-"
 318      B8AD2F10 
 318      6E6F79C1 
 318      5F20EA54 
 318      E755CBDD 
 319 04dc 94ADD5C0 		.ascii	"\224\255\325\300+qW\327\353\256Z\321\241jF\33394\314"
 319      2B7157D7 
 319      EBAE5AD1 
 319      A16A46DB 
 319      3934CC
 320 04ef 2A43CFCD 		.ascii	"*C\317\315\375\020\251\336\310\031\311>r\023\217,\274"
 320      FD10A9DE 
 320      C819C93E 
 320      72138F2C 
 320      BC
 321 0500 1DD11DAF 		.ascii	"\035\321\035\257\223\253-RiGG'R~\246p\344\235\267N\342"
 321      93AB2D52 
 321      69474727 
 321      527EA670 
 321      E49DB74E 
 322 0515 D1617286 		.ascii	"\321ar\206\320\3338\3471\346\322\\\243\355\\zM\234K"
ARM GAS  /tmp/ccLwYPKd.s 			page 25


 322      D0DB38E7 
 322      31E6D25C 
 322      A3ED5C7A 
 322      4D9C4B
 323 0528 C3522D73 		.ascii	"\303R-s\351\257\302\\r\266\262\314\245\017\310\372\266"
 323      E9AFC25C 
 323      72B6B2CC 
 323      A50FC8FA 
 323      B6
 324 0539 D258A236 		.ascii	"\322X\2426\226v\330*U\214\330\374|a\366\213\231\237"
 324      9676D82A 
 324      558CD8FC 
 324      7C61F68B 
 324      999F
 325 054b 18AF73CB 		.ascii	"\030\257s\313j\177\014\355\220\226\360\225\361\250\221"
 325      6A7F0CED 
 325      9096F095 
 325      F1A891
 326 055a D09E262B 		.ascii	"\320\236&+\007%\\\344\005\342*\341\332.\342\332i\213"
 326      07255CE4 
 326      05E22AE1 
 326      DA2EE2DA 
 326      698B
 327 056c EBFA97F9 		.ascii	"\353\372\227\371\241\022.=\236\204\316\325\024\3411"
 327      A1122E3D 
 327      9E84CED5 
 327      14E131
 328 057b 31C2E3B6 		.ascii	"1\302\343\266\021\376\374\325\314cx\367\304\010\241"
 328      11FEFCD5 
 328      CC6378F7 
 328      C408A1
 329 058a 8F98CDCF 		.ascii	"\217\230\315\317\344\263\015\265\247\237\225\204\247"
 329      E4B30DB5 
 329      A79F9584 
 329      A7
 330 0597 309D06C2 		.ascii	"0\235\006\302cw\253\333\014\226iJh\324\215-\015\362"
 330      6377ABDB 
 330      0C96694A 
 330      68D48D2D 
 330      0DF2
 331 05a9 AEBEDDD6 		.ascii	"\256\276\335\326\207I\216Y\354r,\366U\313>\360J\306"
 331      87498E59 
 331      EC722CF6 
 331      55CB3EF0 
 331      4AC6
 332 05bb 54ED5D62 		.ascii	"T\355]b\316\243\2669_\370b\376\247/M\022\262\203\\/"
 332      CEA3B639 
 332      5FF862FE 
 332      A72F4D12 
 332      B2835C2F 
 333 05cf 6ECE6CC5 		.ascii	"n\316l\305\006\261\317\273k!vL\014\262\327\251t\277"
 333      06B1CFBB 
 333      6B21764C 
 333      0CB2D7A9 
 333      74BF
 334 05e1 AA28DD64 		.ascii	"\252(\335dM\021\236\022#<-\331<K\341\305\350\223\256"
 334      4D119E12 
ARM GAS  /tmp/ccLwYPKd.s 			page 26


 334      233C2DD9 
 334      3C4BE1C5 
 334      E893AE
 335 05f4 4C369FC9 		.ascii	"L6\237\311\321\355\023\306\346Y2_\236%\2444\366\365"
 335      D1ED13C6 
 335      E659325F 
 335      9E25A434 
 335      F6F5
 336 0606 4785C3C8 		.ascii	"G\205\303\310\021\325T\234\253{\346\214;\314\034\363"
 336      11D5549C 
 336      AB7BE68C 
 336      3BCC1CF3 
 337 0616 482E6BC1 		.ascii	"H.k\301\362+\361\365BD!\241)\267\371\031u+z\236\376"
 337      F22BF1F5 
 337      424421A1 
 337      29B7F919 
 337      752B7A9E 
 338 062b 67B0EFFC 		.ascii	"g\260\357\374\231\014n\267\274k\352\207~\235L\346Z\353"
 338      990C6EB7 
 338      BC6BEA87 
 338      7E9D4CE6 
 338      5AEB
 339 063d BDC8F727 		.ascii	"\275\310\367'\327\246m\367'\026FC\006\306\346j\204\012"
 339      D7A66DF7 
 339      27164643 
 339      06C6E66A 
 339      840A
 340 064f 5A2A7EA1 		.ascii	"Z*~\241n>\017:\360\351\267\360yP\344\323\364\262 \200"
 340      6E3E0F3A 
 340      F0E9B7F0 
 340      7950E4D3 
 340      F4B22080 
 341 0663 90D05B16 		.ascii	"\220\320[\026:y\322S\347\210\347e\262\235v\252C\312"
 341      3A79D253 
 341      E788E765 
 341      B29D76AA 
 341      43CA
 342 0675 C25F480E 		.ascii	"\302_H\016)W\374\321\364\373\272S>\354\220\262\271Z"
 342      2957FCD1 
 342      F4FBBA53 
 342      3EEC90B2 
 342      B95A
 343 0687 65AD52CA 		.ascii	"e\255R\312\246\355\267\000BB\027-)\243\014\226c\033"
 343      A6EDB700 
 343      4242172D 
 343      29A30C96 
 343      631B
 344 0699 5354BE2B 		.ascii	"ST\276+\207\342QMNj)MM\006BrHM\006\037V\223\232\254"
 344      87E2514D 
 344      4E6A294D 
 344      4D064272 
 344      484D061F 
 345 06b1 26A3DDF2 		.ascii	"&\243\335\362\203\201@\007,:\264\350\200\026\014j\301"
 345      83814007 
 345      2C3AB4E8 
 345      80160C6A 
 345      C1
ARM GAS  /tmp/ccLwYPKd.s 			page 27


 346 06c2 D20FB178 		.ascii	"\322\017\261xL\353\320\324\201pG\217\262\252\243\373"
 346      4CEBD0D4 
 346      8170478F 
 346      B2AAA3FB 
 347 06d2 8EAE9E5F 		.ascii	"\216\256\236_t\313\221\360\000U\220-\012rO\347\252\316"
 347      74CB91F0 
 347      0055902D 
 347      0A724FE7 
 347      AACE
 348 06e4 1E391C0B 		.ascii	"\0369\034\013D\006\203\232\234J\203\237\215\235!\324"
 348      4406839A 
 348      9C4A839F 
 348      8D9D21D4 
 349 06f4 940AFF52 		.ascii	"\224\012\377RS\322M?\272oC\373\032\264\274\263S^\023"
 349      53D24D3F 
 349      BA6F43FB 
 349      1AB4BCB3 
 349      535E13
 350 0707 0A0F84EF 		.ascii	"\012\017\204\357\357\227\343)9\231.\031\004BQ-\032\210"
 350      EF97E329 
 350      39992E19 
 350      0442512D 
 350      1A88
 351 0719 2735B0F1 		.ascii	"'5\260\361\303\362A-\275q0\026P\3227W\230\244\222\001"
 351      C3F2412D 
 351      BD713016 
 351      50D23757 
 351      98A49201 
 352 072d 5D3D118F 		.ascii	"]=\021\217GR\235\001\264\242\272W]-\204\232a\035O\016"
 352      47529D01 
 352      B4A2BA57 
 352      5D2D849A 
 352      611D4F0E 
 353 0741 29F45C49 		.ascii	")\364\\I\373\330WHS\203Z\322\235\010)1\355\221\264;"
 353      FBD85748 
 353      53835AD2 
 353      9D082931 
 353      ED91B43B 
 354 0755 9A60DF2D 		.ascii	"\232`\337-\360\035\037\370\271\026H+\024\276\017N\023"
 354      F01D1FF8 
 354      B916482B 
 354      14BE0F4E 
 354      13
 355 0766 C9F8A630 		.ascii	"\311\370\2460\250\266\006B\353\301\360~v\265/\026NK"
 355      A8B60642 
 355      EBC1F07E 
 355      76B52F16 
 355      4E4B
 356 0778 D1440355 		.ascii	"\321D\003U\362\030\032\213u\215{\343jpu2\251\016\341"
 356      F2181A8B 
 356      758D7BE3 
 356      6A707532 
 356      A90EE1
 357 078b 048EF9F5 		.ascii	"\004\216\371\365\337VG\"\361@\237\317t\302\327\367$"
 357      DF564722 
 357      F1409FCF 
 357      74C2D7F7 
ARM GAS  /tmp/ccLwYPKd.s 			page 28


 357      24
 358 079c 35ADAF01 		.ascii	"5\255\257\001B&\026\225\177h\010@\225<\212\302xP\232"
 358      42261695 
 358      7F680840 
 358      953C8AC2 
 358      78509A
 359 07af 8D45E7F7 		.ascii	"\215E\347\367V~\377\316\324\327QXkAM\245\014\307\322"
 359      567EFFCE 
 359      D4D75158 
 359      6B414DA5 
 359      0CC7D2
 360 07c2 C09F6710 		.ascii	"\300\237g\020\276Wv+\351\341\257\245\255\354"
 360      BE57762B 
 360      E9E1AFA5 
 360      ADEC
 361 07d0 A347D540 		.ascii	"\243G\325@(\034\323d\005\332I\035\214\244\225\364PB"
 361      281CD364 
 361      05DA491D 
 361      8CA495F4 
 361      5042
 362 07e2 A3D55CA4 		.ascii	"\243\325\\\244(\006\036/'4\030\\V\245\023RC\324\014"
 362      28061E2F 
 362      2734185C 
 362      56A51352 
 362      43D40C
 363 07f5 74FB8752 		.ascii	"t\373\207R\367\306\003\017\335^\241\233\210'\323)y\365"
 363      F7C6030F 
 363      DD5EA19B 
 363      8827D329 
 363      79F5
 364 0807 03EBD6AC 		.ascii	"\003\353\326\254{\004\014h7*\233\356\214R+zI\201z=\324"
 364      7B040C68 
 364      372A9BEE 
 364      8C522B7A 
 364      49817A3D 
 365 081c 69B58266 		.ascii	"i\265\202f\221\327\254\353\357\353/\007\242V\201\350"
 365      91D7ACEB 
 365      EFEB2F07 
 365      A25681E8 
 366 082c 3D502BDA 		.ascii	"=P+\332s\212\222\322\322\312\017V\367\377p\375\003}"
 366      738A92D2 
 366      D2CA0F56 
 366      F7FF70FD 
 366      037D
 367 083e CD6AE461 		.ascii	"\315j\344au(\245\204c\021\310\251q\223\032\031\324|"
 367      7528A584 
 367      6311C8A9 
 367      71931A19 
 367      D47C
 368 0850 0CD08618 		.ascii	"\014\320\206\030u\356ca\006\331\332T\357\236;V\232\317"
 368      75EE6361 
 368      06D9DA54 
 368      EF9E3B56 
 368      9ACF
 369 0862 BABACC67 		.ascii	"\272\272\314g\335]\377\003\217$\224|"
 369      DD5DFF03 
 369      8F24947C 
ARM GAS  /tmp/ccLwYPKd.s 			page 29


 370              		.text
 371              		.section	.gnu.lto_.symtab.3bcfa1fa686a46b9,"",%progbits
 372 0000 6368506F 		.ascii	"chPoolObjectInit\000\000\000\000\000\000\000\000\000"
 372      6F6C4F62 
 372      6A656374 
 372      496E6974 
 372      00000000 
 373 0019 000000AB 		.ascii	"\000\000\000\253\000\000\000chPoolLoadArray\000\000"
 373      00000063 
 373      68506F6F 
 373      6C4C6F61 
 373      64417272 
 374 0031 00000000 		.ascii	"\000\000\000\000\000\000\000\000\000\000\312\000\000"
 374      00000000 
 374      0000CA00 
 374      00
 375 003e 00636850 		.ascii	"\000chPoolAllocI\000\000\000\000\000\000\000\000\000"
 375      6F6F6C41 
 375      6C6C6F63 
 375      49000000 
 375      00000000 
 376 0054 000000D6 		.ascii	"\000\000\000\326\000\000\000chPoolAlloc\000\000\000"
 376      00000063 
 376      68506F6F 
 376      6C416C6C 
 376      6F630000 
 377 0069 00000000 		.ascii	"\000\000\000\000\000\000\000\000\000\334\000\000\000"
 377      00000000 
 377      00DC0000 
 377      00
 378 0076 6368506F 		.ascii	"chPoolFreeI\000\000\000\000\000\000\000\000\000\000"
 378      6F6C4672 
 378      65654900 
 378      00000000 
 378      00000000 
 379 008b 0000E000 		.ascii	"\000\000\340\000\000\000chPoolFree\000\000\000\000\000"
 379      00006368 
 379      506F6F6C 
 379      46726565 
 379      00000000 
 380 00a0 00000000 		.ascii	"\000\000\000\000\000\000\000\351\000\000\000"
 380      000000E9 
 380      000000
 381              		.text
 382              		.section	.gnu.lto_.opts,"",%progbits
 383 0000 272D6D63 		.ascii	"'-mcpu=cortex-m4' '-mno-thumb-interwork' '-mthumb' "
 383      70753D63 
 383      6F727465 
 383      782D6D34 
 383      2720272D 
 384 0033 272D6767 		.ascii	"'-ggdb' '-O2' '-fomit-frame-pointer' '-falign-funct"
 384      64622720 
 384      272D4F32 
 384      2720272D 
 384      666F6D69 
 385 0066 696F6E73 		.ascii	"ions=16' '-ffunction-sections' '-fdata-sections' '-"
 385      3D313627 
ARM GAS  /tmp/ccLwYPKd.s 			page 30


 385      20272D66 
 385      66756E63 
 385      74696F6E 
 386 0099 666E6F2D 		.ascii	"fno-common' '-flto'\000"
 386      636F6D6D 
 386      6F6E2720 
 386      272D666C 
 386      746F2700 
 387              		.text
 388              		.cfi_sections	.debug_frame
 389              		.section	.text.chPoolObjectInit,"ax",%progbits
 390              		.align	2
 391              		.p2align 4,,15
 392              		.global	chPoolObjectInit
 393              		.thumb
 394              		.thumb_func
 395              		.type	chPoolObjectInit, %function
 396              	chPoolObjectInit:
 397              	.LFB241:
 398              		.file 1 "../ChibiOS/os/rt/src/chmempools.c"
 399              		.loc 1 75 0
 400              		.cfi_startproc
 401              		@ args = 0, pretend = 0, frame = 0
 402              		@ frame_needed = 0, uses_anonymous_args = 0
 403              		@ link register save eliminated.
 404              	.LVL0:
 405              		.loc 1 79 0
 406 0000 0023     		movs	r3, #0
 407              		.loc 1 80 0
 408 0002 4160     		str	r1, [r0, #4]
 409              		.loc 1 81 0
 410 0004 8260     		str	r2, [r0, #8]
 411              		.loc 1 79 0
 412 0006 0360     		str	r3, [r0]
 413 0008 7047     		bx	lr
 414              		.cfi_endproc
 415              	.LFE241:
 416              		.size	chPoolObjectInit, .-chPoolObjectInit
 417 000a 00BFAFF3 		.section	.text.chPoolLoadArray,"ax",%progbits
 417      0080
 418              		.align	2
 419              		.p2align 4,,15
 420              		.global	chPoolLoadArray
 421              		.thumb
 422              		.thumb_func
 423              		.type	chPoolLoadArray, %function
 424              	chPoolLoadArray:
 425              	.LFB242:
 426              		.loc 1 97 0
 427              		.cfi_startproc
 428              		@ args = 0, pretend = 0, frame = 0
 429              		@ frame_needed = 0, uses_anonymous_args = 0
 430              		@ link register save eliminated.
 431              	.LVL1:
 432 0000 30B4     		push	{r4, r5}
 433              		.cfi_def_cfa_offset 8
 434              		.cfi_offset 4, -8
ARM GAS  /tmp/ccLwYPKd.s 			page 31


 435              		.cfi_offset 5, -4
 436              		.loc 1 101 0
 437 0002 62B1     		cbz	r2, .L2
 438              	.LBB77:
 439              	.LBB78:
 440              	.LBB79:
 441              	.LBB80:
 442              	.LBB81:
 443              	.LBB82:
 444              		.file 2 "../ChibiOS/os/ext/CMSIS/include/core_cmFunc.h"
 445              		.loc 2 548 0
 446 0004 2025     		movs	r5, #32
 447              	.LBE82:
 448              	.LBE81:
 449              	.LBE80:
 450              	.LBE79:
 451              	.LBB86:
 452              	.LBB87:
 453              	.LBB88:
 454              	.LBB89:
 455              	.LBB90:
 456 0006 0024     		movs	r4, #0
 457              	.LVL2:
 458              	.L5:
 459              	.LBE90:
 460              	.LBE89:
 461              	.LBE88:
 462              	.LBE87:
 463              	.LBE86:
 464              	.LBB95:
 465              	.LBB85:
 466              	.LBB84:
 467              	.LBB83:
 468              	@ 548 "../ChibiOS/os/ext/CMSIS/include/core_cmFunc.h" 1
 469 0008 85F31188 		MSR basepri, r5
 470              	@ 0 "" 2
 471              	.LVL3:
 472              		.thumb
 473              	.LBE83:
 474              	.LBE84:
 475              	.LBE85:
 476              	.LBE95:
 477              	.LBB96:
 478              	.LBB97:
 479              		.loc 1 177 0
 480 000c 0368     		ldr	r3, [r0]
 481 000e 0B60     		str	r3, [r1]
 482              		.loc 1 178 0
 483 0010 0160     		str	r1, [r0]
 484              	.LVL4:
 485              	.LBE97:
 486              	.LBE96:
 487              	.LBB98:
 488              	.LBB94:
 489              	.LBB93:
 490              	.LBB92:
 491              	.LBB91:
ARM GAS  /tmp/ccLwYPKd.s 			page 32


 492              		.loc 2 548 0
 493              	@ 548 "../ChibiOS/os/ext/CMSIS/include/core_cmFunc.h" 1
 494 0012 84F31188 		MSR basepri, r4
 495              	@ 0 "" 2
 496              		.thumb
 497              	.LBE91:
 498              	.LBE92:
 499              	.LBE93:
 500              	.LBE94:
 501              	.LBE98:
 502              	.LBE78:
 503              	.LBE77:
 504              		.loc 1 104 0
 505 0016 4368     		ldr	r3, [r0, #4]
 506              		.loc 1 101 0
 507 0018 013A     		subs	r2, r2, #1
 508              	.LVL5:
 509              		.loc 1 104 0
 510 001a 1944     		add	r1, r1, r3
 511              	.LVL6:
 512              		.loc 1 101 0
 513 001c F4D1     		bne	.L5
 514              	.LVL7:
 515              	.L2:
 516              		.loc 1 108 0
 517 001e 30BC     		pop	{r4, r5}
 518 0020 7047     		bx	lr
 519              		.cfi_endproc
 520              	.LFE242:
 521              		.size	chPoolLoadArray, .-chPoolLoadArray
 522 0022 00BFAFF3 		.section	.text.chPoolAllocI,"ax",%progbits
 522      0080AFF3 
 522      0080AFF3 
 522      0080
 523              		.align	2
 524              		.p2align 4,,15
 525              		.global	chPoolAllocI
 526              		.thumb
 527              		.thumb_func
 528              		.type	chPoolAllocI, %function
 529              	chPoolAllocI:
 530              	.LFB243:
 531              		.loc 1 120 0
 532              		.cfi_startproc
 533              		@ args = 0, pretend = 0, frame = 0
 534              		@ frame_needed = 0, uses_anonymous_args = 0
 535              	.LVL8:
 536 0000 08B5     		push	{r3, lr}
 537              		.cfi_def_cfa_offset 8
 538              		.cfi_offset 3, -8
 539              		.cfi_offset 14, -4
 540              		.loc 1 120 0
 541 0002 0346     		mov	r3, r0
 542              		.loc 1 126 0
 543 0004 0068     		ldr	r0, [r0]
 544              	.LVL9:
 545              		.loc 1 128 0
ARM GAS  /tmp/ccLwYPKd.s 			page 33


 546 0006 10B1     		cbz	r0, .L12
 547              		.loc 1 129 0
 548 0008 0268     		ldr	r2, [r0]
 549 000a 1A60     		str	r2, [r3]
 550 000c 08BD     		pop	{r3, pc}
 551              	.LVL10:
 552              	.L12:
 553              		.loc 1 131 0
 554 000e 9A68     		ldr	r2, [r3, #8]
 555 0010 0AB1     		cbz	r2, .L13
 556              		.loc 1 132 0
 557 0012 5868     		ldr	r0, [r3, #4]
 558              	.LVL11:
 559 0014 9047     		blx	r2
 560              	.LVL12:
 561              	.L13:
 562              		.loc 1 137 0
 563 0016 08BD     		pop	{r3, pc}
 564              		.cfi_endproc
 565              	.LFE243:
 566              		.size	chPoolAllocI, .-chPoolAllocI
 567 0018 AFF30080 		.section	.text.chPoolAlloc,"ax",%progbits
 567      AFF30080 
 568              		.align	2
 569              		.p2align 4,,15
 570              		.global	chPoolAlloc
 571              		.thumb
 572              		.thumb_func
 573              		.type	chPoolAlloc, %function
 574              	chPoolAlloc:
 575              	.LFB244:
 576              		.loc 1 149 0
 577              		.cfi_startproc
 578              		@ args = 0, pretend = 0, frame = 0
 579              		@ frame_needed = 0, uses_anonymous_args = 0
 580              	.LVL13:
 581 0000 08B5     		push	{r3, lr}
 582              		.cfi_def_cfa_offset 8
 583              		.cfi_offset 3, -8
 584              		.cfi_offset 14, -4
 585              	.LBB99:
 586              	.LBB100:
 587              	.LBB101:
 588              	.LBB102:
 589              		.loc 2 548 0
 590 0002 2022     		movs	r2, #32
 591              	.LBE102:
 592              	.LBE101:
 593              	.LBE100:
 594              	.LBE99:
 595              		.loc 1 149 0
 596 0004 0346     		mov	r3, r0
 597              	.LBB106:
 598              	.LBB105:
 599              	.LBB104:
 600              	.LBB103:
 601              		.loc 2 548 0
ARM GAS  /tmp/ccLwYPKd.s 			page 34


 602              	@ 548 "../ChibiOS/os/ext/CMSIS/include/core_cmFunc.h" 1
 603 0006 82F31188 		MSR basepri, r2
 604              	@ 0 "" 2
 605              	.LVL14:
 606              		.thumb
 607              	.LBE103:
 608              	.LBE104:
 609              	.LBE105:
 610              	.LBE106:
 611              	.LBB107:
 612              	.LBB108:
 613              		.loc 1 126 0
 614 000a 0068     		ldr	r0, [r0]
 615              	.LVL15:
 616              		.loc 1 128 0
 617 000c 28B1     		cbz	r0, .L18
 618              		.loc 1 129 0
 619 000e 0268     		ldr	r2, [r0]
 620 0010 1A60     		str	r2, [r3]
 621              	.L19:
 622              	.LVL16:
 623              	.LBE108:
 624              	.LBE107:
 625              	.LBB110:
 626              	.LBB111:
 627              	.LBB112:
 628              	.LBB113:
 629              	.LBB114:
 630              		.loc 2 548 0
 631 0012 0023     		movs	r3, #0
 632              	.LVL17:
 633              	@ 548 "../ChibiOS/os/ext/CMSIS/include/core_cmFunc.h" 1
 634 0014 83F31188 		MSR basepri, r3
 635              	@ 0 "" 2
 636              		.thumb
 637              	.LBE114:
 638              	.LBE113:
 639              	.LBE112:
 640              	.LBE111:
 641              	.LBE110:
 642              		.loc 1 157 0
 643 0018 08BD     		pop	{r3, pc}
 644              	.LVL18:
 645              	.L18:
 646              	.LBB119:
 647              	.LBB109:
 648              		.loc 1 131 0
 649 001a 9A68     		ldr	r2, [r3, #8]
 650 001c 002A     		cmp	r2, #0
 651 001e F8D0     		beq	.L19
 652              		.loc 1 132 0
 653 0020 5868     		ldr	r0, [r3, #4]
 654              	.LVL19:
 655 0022 9047     		blx	r2
 656              	.LVL20:
 657              	.LBE109:
 658              	.LBE119:
ARM GAS  /tmp/ccLwYPKd.s 			page 35


 659              	.LBB120:
 660              	.LBB118:
 661              	.LBB117:
 662              	.LBB116:
 663              	.LBB115:
 664              		.loc 2 548 0
 665 0024 0023     		movs	r3, #0
 666              	@ 548 "../ChibiOS/os/ext/CMSIS/include/core_cmFunc.h" 1
 667 0026 83F31188 		MSR basepri, r3
 668              	@ 0 "" 2
 669              		.thumb
 670              	.LBE115:
 671              	.LBE116:
 672              	.LBE117:
 673              	.LBE118:
 674              	.LBE120:
 675              		.loc 1 157 0
 676 002a 08BD     		pop	{r3, pc}
 677              		.cfi_endproc
 678              	.LFE244:
 679              		.size	chPoolAlloc, .-chPoolAlloc
 680 002c AFF30080 		.section	.text.chPoolFreeI,"ax",%progbits
 681              		.align	2
 682              		.p2align 4,,15
 683              		.global	chPoolFreeI
 684              		.thumb
 685              		.thumb_func
 686              		.type	chPoolFreeI, %function
 687              	chPoolFreeI:
 688              	.LFB245:
 689              		.loc 1 171 0
 690              		.cfi_startproc
 691              		@ args = 0, pretend = 0, frame = 0
 692              		@ frame_needed = 0, uses_anonymous_args = 0
 693              		@ link register save eliminated.
 694              	.LVL21:
 695              		.loc 1 177 0
 696 0000 0368     		ldr	r3, [r0]
 697 0002 0B60     		str	r3, [r1]
 698              		.loc 1 178 0
 699 0004 0160     		str	r1, [r0]
 700 0006 7047     		bx	lr
 701              		.cfi_endproc
 702              	.LFE245:
 703              		.size	chPoolFreeI, .-chPoolFreeI
 704 0008 AFF30080 		.section	.text.chPoolFree,"ax",%progbits
 704      AFF30080 
 705              		.align	2
 706              		.p2align 4,,15
 707              		.global	chPoolFree
 708              		.thumb
 709              		.thumb_func
 710              		.type	chPoolFree, %function
 711              	chPoolFree:
 712              	.LFB246:
 713              		.loc 1 193 0
 714              		.cfi_startproc
ARM GAS  /tmp/ccLwYPKd.s 			page 36


 715              		@ args = 0, pretend = 0, frame = 0
 716              		@ frame_needed = 0, uses_anonymous_args = 0
 717              		@ link register save eliminated.
 718              	.LVL22:
 719              	.LBB121:
 720              	.LBB122:
 721              	.LBB123:
 722              	.LBB124:
 723              		.loc 2 548 0
 724 0000 2023     		movs	r3, #32
 725              	@ 548 "../ChibiOS/os/ext/CMSIS/include/core_cmFunc.h" 1
 726 0002 83F31188 		MSR basepri, r3
 727              	@ 0 "" 2
 728              	.LVL23:
 729              		.thumb
 730              	.LBE124:
 731              	.LBE123:
 732              	.LBE122:
 733              	.LBE121:
 734              	.LBB125:
 735              	.LBB126:
 736              		.loc 1 177 0
 737 0006 0368     		ldr	r3, [r0]
 738 0008 0B60     		str	r3, [r1]
 739              	.LBE126:
 740              	.LBE125:
 741              	.LBB128:
 742              	.LBB129:
 743              	.LBB130:
 744              	.LBB131:
 745              	.LBB132:
 746              		.loc 2 548 0
 747 000a 0023     		movs	r3, #0
 748              	.LBE132:
 749              	.LBE131:
 750              	.LBE130:
 751              	.LBE129:
 752              	.LBE128:
 753              	.LBB137:
 754              	.LBB127:
 755              		.loc 1 178 0
 756 000c 0160     		str	r1, [r0]
 757              	.LVL24:
 758              	.LBE127:
 759              	.LBE137:
 760              	.LBB138:
 761              	.LBB136:
 762              	.LBB135:
 763              	.LBB134:
 764              	.LBB133:
 765              		.loc 2 548 0
 766              	@ 548 "../ChibiOS/os/ext/CMSIS/include/core_cmFunc.h" 1
 767 000e 83F31188 		MSR basepri, r3
 768              	@ 0 "" 2
 769              		.thumb
 770 0012 7047     		bx	lr
 771              	.LBE133:
ARM GAS  /tmp/ccLwYPKd.s 			page 37


 772              	.LBE134:
 773              	.LBE135:
 774              	.LBE136:
 775              	.LBE138:
 776              		.cfi_endproc
 777              	.LFE246:
 778              		.size	chPoolFree, .-chPoolFree
 779 0014 AFF30080 		.text
 779      AFF30080 
 779      AFF30080 
 780              	.Letext0:
 781              		.file 3 "/nfs/nfs5/home/research/hardware/arm2/gcc-arm-embedded/gcc-arm-none-eabi-4_8-2014q2/lib/g
 782              		.file 4 "/nfs/nfs5/home/research/hardware/arm2/gcc-arm-embedded/gcc-arm-none-eabi-4_8-2014q2/arm-n
 783              		.file 5 "/nfs/nfs5/home/research/hardware/arm2/gcc-arm-embedded/gcc-arm-none-eabi-4_8-2014q2/arm-n
 784              		.file 6 "../ChibiOS/os/rt/ports/ARMCMx/compilers/GCC/chtypes.h"
 785              		.file 7 "../ChibiOS/os/rt/include/chsystypes.h"
 786              		.file 8 "../ChibiOS/os/rt/include/chschd.h"
 787              		.file 9 "../ChibiOS/os/rt/ports/ARMCMx/chcore.h"
 788              		.file 10 "../ChibiOS/os/rt/ports/ARMCMx/chcore_v7m.h"
 789              		.file 11 "../ChibiOS/os/rt/include/chtm.h"
 790              		.file 12 "../ChibiOS/os/rt/include/chsem.h"
 791              		.file 13 "../ChibiOS/os/rt/include/chmtx.h"
 792              		.file 14 "../ChibiOS/os/rt/include/chmemcore.h"
 793              		.file 15 "../ChibiOS/os/rt/include/chmempools.h"
 794              		.file 16 "../ChibiOS/os/rt/include/chsys.h"
 795              		.file 17 "../ChibiOS/os/ext/CMSIS/include/core_cm4.h"