ARM GAS  /tmp/ccvyhaQg.s 			page 1


   1              		.syntax unified
   2              		.cpu cortex-m4
   3              		.fpu softvfp
   4              		.eabi_attribute 20, 1
   5              		.eabi_attribute 21, 1
   6              		.eabi_attribute 23, 3
   7              		.eabi_attribute 24, 1
   8              		.eabi_attribute 25, 1
   9              		.eabi_attribute 26, 1
  10              		.eabi_attribute 30, 2
  11              		.eabi_attribute 34, 1
  12              		.eabi_attribute 18, 4
  13              		.thumb
  14              		.file	"chprintf.c"
  15              		.text
  16              	.Ltext0:
  17              		.section	.gnu.lto_.jmpfuncs.dd3d4b7064490f47,"",%progbits
  18 0000 789C6362 		.ascii	"x\234cb`b\300\006\016Ai\026\006~Fv\026\010\233)\202"
  18      6062C006 
  18      0E416916 
  18      067E4676 
  18      16089B29 
  19 0015 31931122 		.ascii	"1\223\021\"\010\3431r!\01131\003\2112\020\253\236\\"
  19      08E33172 
  19      21093331 
  19      03893210 
  19      AB9E5C
  20 0028 0ED01C66 		.ascii	"\016\320\034f\250\010\220b\004K0A\255\0009\224\231\235"
  20      A8089062 
  20      044B3041 
  20      AD003994 
  20      999D
  21 003a 112C0344 		.ascii	"\021,\003DL\030\222,`q\2062F\230\353@<\006\000(\334"
  21      4C18922C 
  21      60718632 
  21      4698EB40 
  21      3C060028 
  22 004f 0C83     		.ascii	"\014\203"
  23              		.text
  24              		.section	.gnu.lto_.inline.dd3d4b7064490f47,"",%progbits
  25 0000 789C6362 		.ascii	"x\234cb`b\300\006\344\030!4\013\003\203\344\027fF\026"
  25      6062C006 
  25      E4182134 
  25      0B0383E4 
  25      17664616 
  26 0014 E6F408C6 		.ascii	"\346\364\010\306L\260\030s\006\234\005&A\004\213\332"
  26      4CB01873 
  26      069C0526 
  26      41048BDA 
  27 0024 BCBD360C 		.ascii	"\274\2756\014l\013\344\231\030X\026\310\01300]\340W"
  27      6C0BE499 
  27      185816C8 
  27      0B30305D 
  27      E057
  28 0036 00CBF19C 		.ascii	"\000\313\361\234a\\\251\314\310\300\264\233\351\306"
  28      615CA9CC 
  28      C8C0B49B 
ARM GAS  /tmp/ccvyhaQg.s 			page 2


  28      E9C6
  29 0044 ADB94C0C 		.ascii	"\255\271L\014\302\207\356q\203\355c\343g\004\032=\301"
  29      C287EE71 
  29      83ED63E3 
  29      67041A3D 
  29      C1
  30 0055 6F821F84 		.ascii	"o\202\037\204\011f1\260\012210\235`\274\313\016eL\360"
  30      096631B0 
  30      0A323130 
  30      9D60BCCB 
  30      0E654CF0 
  31 0069 033316B1 		.ascii	"\0033\026\261\266J\261\012\002M\001\251\0023Z\370'\370"
  31      B64AB10A 
  31      024D01A9 
  31      02335AF8 
  31      27F8
  32 007b 31B170CB 		.ascii	"1\261p\3130\200]\017\266\027\012\030\031X\371\200.\003"
  32      30805D0F 
  32      B6170A18 
  32      1958F980 
  32      2E03
  33 008d A99CE0C7 		.ascii	"\251\234\340\307\314\003V\300,!a\010t,\330\335\314 "
  33      CC0356C0 
  33      2C216108 
  33      742CD8DD 
  33      CC20
  34 009f 35E97016 		.ascii	"5\351p\026\330\361\\?\034\221\335\376\202]\200\005\315"
  34      D8F15C3F 
  34      1C91DDFE 
  34      825D8005 
  34      CD
  35 00b0 380624D3 		.ascii	"8\006$\323@\002P\2473\000\000Yt(~"
  35      400250A7 
  35      33000059 
  35      74287E
  36              		.text
  37              		.section	.gnu.lto_.pureconst.dd3d4b7064490f47,"",%progbits
  38 0000 789C6362 		.ascii	"x\234cb`b\340d\200\000\026\006)F)&\011f)\000\002\320"
  38      6062E064 
  38      80001606 
  38      29462926 
  38      09662900 
  39 0016 007E     		.ascii	"\000~"
  40              		.text
  41              		.section	.gnu.lto_long_to_string_with_divisor.dd3d4b7064490f47,"",%progbits
  42 0000 789C8D56 		.ascii	"x\234\215VMlTU\024>\347\276\337\316{S~\332\016\266\364"
  42      4D6C5455 
  42      143EE7BE 
  42      DFCE7B53 
  42      7EDA0EB6 
  43 0015 673ACD48 		.ascii	"g:\315H\214f\206\352\202\030\211\200\262a\345B\232\350"
  43      8C6686EA 
  43      82188980 
  43      B261E542 
  43      9AE8
  44 0027 7228389D 		.ascii	"r(8\235d@iY\0307}\323\031\223j\307X\011\033\221\020"
  44      64406959 
ARM GAS  /tmp/ccvyhaQg.s 			page 3


  44      18377DD3 
  44      19936AC7 
  44      58091B91 
  45 003c 1A621A02 		.ascii	"\032b\032\002\322\2001$*IQ\011m\370\323\270\232(I]\000"
  45      D2803124 
  45      2A495109 
  45      6DF8D3B8 
  45      9A28495D 
  46 0051 21A0685C 		.ascii	"!\240h\\\031\321\347\271\177\2573u\022\372\222\271g"
  46      19D1E7B9 
  46      7FAF3375 
  46      12FA92B9 
  46      67
  47 0062 DE77BE73 		.ascii	"\336w\276s\356\271\347;\267\035\006\014V>\037\321\347"
  47      EEB9E73B 
  47      B71D060C 
  47      563E1FD1 
  47      E7
  48 0073 B603B093 		.ascii	"\266\003\260\223,\306\001\331\364\015\200\222\313\230"
  48      2CC601D9 
  48      F40D8092 
  48      CB98
  49 0081 39B90982 		.ascii	"9\271\011\202\230\301W\337@S\302&Z\362\213\305l\341"
  49      98C157DF 
  49      4053C226 
  49      5AF28BC5 
  49      6CE1
  50 0093 7784DF46 		.ascii	"w\204\337FG\302\016\363\253W\200p\267\342\020\356K\372"
  50      47C20EF3 
  50      AB578070 
  50      B7E210EE 
  50      4BFA
  51 00a5 0E175BA4 		.ascii	"\016\027[\244\277\205y\322\037\023~O\342;b\210\334\002"
  51      BF8579D2 
  51      1F137E4F 
  51      E23B6288 
  51      DC02
  52 00b7 C238334C 		.ascii	"\30283L\313v|\267\305\213\341\370\353\310K\264R0\023"
  52      CB767CB7 
  52      C58BE1F8 
  52      EBC84BB4 
  52      523013
  53 00ca 0487972E 		.ascii	"\004\207\227.\377t\244\363\375\023\023\323\301\277a"
  53      FF74A4F3 
  53      FD1313D3 
  53      C1BF61
  54 00d9 8805A4C3 		.ascii	"\210\005\244\303<\2030\214\360\032\275`R\030f6\236N"
  54      3C83308C 
  54      F01ABD60 
  54      52186636 
  54      9E4E
  55 00eb 46CEFF35 		.ascii	"F\316\3775\2638\203\301\341\240\364{\030\256\021\221"
  55      B33883C1 
  55      E1A0F47B 
  55      18AE1191 
  56 00fb 83AB8A9C 		.ascii	"\203\253\212\234\236\377\347V56]\232\014\302p\274\200"
  56      9EFFE756 
ARM GAS  /tmp/ccvyhaQg.s 			page 4


  56      35365D9A 
  56      0CC270BC 
  56      80
  57 010c 06832DAB 		.ascii	"\006\203-\253\214;\277o!\250\314\207\3416\021\265u\225"
  57      8C3BBF6F 
  57      21A8CC87 
  57      E13611B5 
  57      7595
  58 011e 757E717B 		.ascii	"u~q{\241\256L\223\301\213\217\013\234c\363KaX\235:~"
  58      A1AE4C93 
  58      C18B8F0B 
  58      9C63F34B 
  58      61589D3A 
  59 0133 E7097C12 		.ascii	"\347\011|\022a??[\016g1\005\206\262&\331Sd-em\"\241"
  59      613F3F5B 
  59      0E673105 
  59      86B226D9 
  59      53642D65 
  60 014a C317972F 		.ascii	"\303\027\227/\036\322\342\323\302\342\264@\253b\255"
  60      1ED2E2D3 
  60      C2E2B440 
  60      AB62AD
  61 0159 253B4376 		.ascii	"%;Cv\035\201\306z\240\236\265\251|\355\312v(\233P\021"
  61      1D81C67A 
  61      A09EB5A9 
  61      7CEDCA76 
  61      289B5011 
  62 016d 1B886475 		.ascii	"\033\210durf\027\317\273\221\340\223\004ws\244\207#"
  62      726617CF 
  62      BB91E093 
  62      047773A4 
  62      8723
  63 017f BDF4CDE8 		.ascii	"\275\364\315\350#\370S\202\223*\272\237\227\234R)\006"
  63      23F85382 
  63      932ABA9F 
  63      979C5229 
  63      06
  64 0190 788AB4F2 		.ascii	"x\212\264\362p\341\241B\275L\312wIQ\355\275\360K}\243"
  64      70E1A142 
  64      BD4CCA77 
  64      4951EDBD 
  64      F04B7DA3 
  65 01a4 6C06DB57 		.ascii	"l\006\333W\247Kpao\244\013E\275\364\270(\340~zv\323"
  65      A74B7061 
  65      6FA40B45 
  65      BDF4B828 
  65      E07E7A76 
  66 01b9 4A133B84 		.ascii	"J\023;\204\214\214\261\010\023K\267b9<\215\274\251g"
  66      8C8CB108 
  66      134BB762 
  66      393C8DBC 
  66      A967
  67 01cb A8AC3C7A 		.ascii	"\250\254<z\000\013\360\335\335K\027;%\236G\237'\264"
  67      000BF0DD 
  67      DD4B173B 
  67      259E479F 
  67      27B4
ARM GAS  /tmp/ccvyhaQg.s 			page 5


  68 01dd EB730DA1 		.ascii	"\353s\015\241\001\337\030\"\374\336f\035~V\204\373\232"
  68      01DF1822 
  68      FCDE661D 
  68      7E5684FB 
  68      9A
  69 01ee 61AA0D5C 		.ascii	"a\252\015\\\210|t;\257Cy\252\374\371\323:uk\036\343"
  69      887C743B 
  69      AF4379AA 
  69      FCF9D33A 
  69      756B1EE3 
  70 0202 A25CDA15 		.ascii	"\242\\\332\025\026\201\351\\\247\004\277\225g\252\201"
  70      1681E95C 
  70      A704BF95 
  70      67AA81
  71 0211 4345B147 		.ascii	"CE\261GS6%7\216\304yn\013\350\226\255H\356\362\004\022"
  71      53362537 
  71      8EC4796E 
  71      0BE896AD 
  71      48EEF204 
  72 0226 9007B197 		.ascii	"\220\007\261\227\001\231\316\344\333O\374V\376\352*"
  72      0199CEE4 
  72      DB4FFC56 
  72      FEEA2A
  73 0235 D3FBAF15 		.ascii	"\323\373\257\0254*\352cCC\353\005\272Nq{5\334F\236\206"
  73      342AEA63 
  73      4343EB05 
  73      BA4E717B 
  73      35DC469E 
  74 024a 126745CE 		.ascii	"\022gE\3166\021=Y\276\030\305\267\023\310\217dl\206"
  74      36113D59 
  74      BE18C5B7 
  74      13C88F64 
  74      6C86
  75 025c 26FC76D1 		.ascii	"&\374v\321\335;\227\376\310E|A~>\352m\015L:\271y\355"
  75      DD3B97FE 
  75      C8457C41 
  75      7E3EEA6D 
  75      0D4C3AB9 
  76 0272 33CC63C2 		.ascii	"3\314c\302?s\323\256\001\235\3343\177>M@\227\377\365"
  76      3F73D3AE 
  76      019DDC33 
  76      7F3E4D40 
  76      97FFF5
  77 0285 43AC814B 		.ascii	"C\254\201K\2754\351\265\307\277\366a\2147\304\206\311"
  77      BD34E9B5 
  77      C7BFF661 
  77      8C37C486 
  77      C9
  78 0296 4D8628E4 		.ascii	"M\206(\344\356U\324\231;t%[\232U\322\241\205r\032\232"
  78      EE55D499 
  78      3B74255B 
  78      9A55D2A1 
  78      85721A9A 
  79 02aa 299D4C29 		.ascii	")\235L)u\377\307([\202\032(\244\012\351Y\323L\256\204"
  79      75FFC728 
  79      5B821A28 
  79      A40AE959 
ARM GAS  /tmp/ccvyhaQg.s 			page 6


  79      D34CAE84 
  80 02be E8D9FDA8 		.ascii	"\350\331\375\250\023\033T\236\211]\022\371\004\216\226"
  80      131B549E 
  80      895D12F9 
  80      048E96
  81 02cd 8220F0E8 		.ascii	"\202 \360\350n\020\231\347\222CJL\261\335\007\345\207"
  81      6E1099E7 
  81      92434A4C 
  81      B1DD07E5 
  81      87
  82 02de 2FE8D8CE 		.ascii	"/\350\330\316z\025\242\214]\344h\330X*\335\245\304\372"
  82      7A15A28C 
  82      5DE468D8 
  82      582ADDA5 
  82      C4FA
  83 02f0 F3DB48D8 		.ascii	"\363\333H\330\215b x\322(\270[\240+S\366\220\243!\245"
  83      8D622078 
  83      D228B85B 
  83      A02B53F6 
  83      90A321A5 
  84 0304 9CA61EAE 		.ascii	"\234\246\036\256S\345A\311\211x+.A\015\030ig=\372\225"
  84      53E541C9 
  84      89782B2E 
  84      410D1869 
  84      673DFA95 
  85 0318 64E8B08F 		.ascii	"d\350\260\217\315\331\374n\371@\377\024p\210\266\246"
  85      CDD9FC6E 
  85      F940FF14 
  85      7088B6A6 
  86 0328 D9E7BD28 		.ascii	"\331\347\275(\377\035\235\250W\314sC\203\372T\317\312"
  86      FF1D9DA8 
  86      57CC7343 
  86      83FA54CF 
  86      CA
  87 0339 EF95131A 		.ascii	"\357\225\023\032K\012f_\023\301\222Z\260\226\006\301"
  87      4B0A665F 
  87      13C1925A 
  87      B09606C1 
  88 0349 64EFADE5 		.ascii	"d\357\255\345a\227lC\003\364g)\217\250\364<Y\215\016"
  88      61976C43 
  88      03F46729 
  88      8FA8F43C 
  88      598D0E
  89 035c D44FA8D0 		.ascii	"\324O\250\320\023\353\265\024\354~\305~GsS\264\301\377"
  89      13EBB514 
  89      EC7EC57E 
  89      477353B4 
  89      C1FF
  90 036e B97AEF94 		.ascii	"\271z\357\2248\326\227\357\216j\372\000)\215BekYeAZ"
  90      38D697EF 
  90      8E6AFA00 
  90      298D4265 
  90      6B596541 
  91 0383 FCDE6E32 		.ascii	"\374\336n2\013X?\013\003\352F\315V\243>\245\3518b\220"
  91      0B583F0B 
  91      03EA46CD 
  91      56A33EA5 
ARM GAS  /tmp/ccvyhaQg.s 			page 7


  91      E9386290 
  92 0397 43FDE078 		.ascii	"C\375\340x\223\006\245\245f\321\304\246EL\275d\244U"
  92      9306A5A5 
  92      66D1C4A6 
  92      454CBD64 
  92      A455
  93 03a9 DCA5A5DF 		.ascii	"\334\245\245\337\253\236\353\256\201AMu\037\314\021"
  93      AB9EEBAE 
  93      81414D75 
  93      1FCC11
  94 03b8 90F68E9D 		.ascii	"\220\366\216\235\363k\300\347\322\245+Gg\"\306\333\\"
  94      F36BC0E7 
  94      D2A52B47 
  94      6722C6DB 
  94      5C
  95 03c9 524F491A 		.ascii	"ROI\032\343\222\376\000\245\245\251\341\250\2032\355"
  95      E392FE00 
  95      A5A5A9E1 
  95      A88332ED 
  96 03d9 6EEA6EC5 		.ascii	"n\352n\305\341?H\236\312d\262/\217\024\366\024^y5\373"
  96      E13F489E 
  96      CA64B22F 
  96      8F14F614 
  96      5E7935FB 
  97 03ed E6587624 		.ascii	"\346Xv$W\314\026\013{\262c\207F\367\345\366\217e\207"
  97      57CC160B 
  97      7BB26387 
  97      46F7E5F6 
  97      8F6587
  98 0400 47DE1A2D 		.ascii	"G\336\032-\0348\364Ff\030\314bfp\320*\322\372\254y0"
  98      1C38F446 
  98      6618CC62 
  98      6670D02A 
  98      D2FAAC79 
  99 0415 33F81C15 		.ascii	"3\370\034\025z\020\213\254X\374\017\313\333\333\226"
  99      7A108BAC 
  99      58FC0FCB 
  99      DBDB96
 100              		.text
 101              		.section	.gnu.lto_chvprintf.dd3d4b7064490f47,"",%progbits
 102 0000 789CAD3A 		.ascii	"x\234\255:y|T\325\271\347\273\223\311L&\223\225,d\337"
 102      797C54D5 
 102      B9E7BB93 
 102      C94C2693 
 102      952C64DF 
 103 0014 C906097B 		.ascii	"\311\006\011{B\302b\010j\365'\242V,\213H\3036\3143\204"
 103      42C26208 
 103      6AF527A2 
 103      562C8B48 
 103      C336CC33 
 104 0029 2DD8BCF2 		.ascii	"-\330\274\362\220\011\011\032h\312\"\253%H\200\000\262"
 104      9009091A 
 104      68CA22AB 
 104      25488000 
 104      B2
 105 003a 0BC80F44 		.ascii	"\013\310\017DZ\022\324\242\210\264\326\347\217\227\206"
 105      5A12D4A2 
ARM GAS  /tmp/ccvyhaQg.s 			page 8


 105      88B4D6E7 
 105      8F9786
 106 0049 B6F4A10F 		.ascii	"\266\364\241\017\227\374\252>\333W\0054\357;\353\275"
 106      97FCAA3E 
 106      DB570534 
 106      EF3BEBBD 
 107 0059 736782A3 		.ascii	"sg\202\243\277\316\037\347\334\373\235\357\373\316\267"
 107      BFCE1FE7 
 107      DCFB9DEF 
 107      FBCEB7
 108 0068 9F73EE19 		.ascii	"\237s\356\031\215h\304\374\233l!\244k\000!+\360\031"
 108      8D68C4FC 
 108      9B6C21A4 
 108      6B00212B 
 108      F019
 109 007a C611D0D6 		.ascii	"\306\021\320\326]&\244\336\256A\020\177\260\360\207"
 109      5D26A4DE 
 109      AE41107F 
 109      B0F087
 110 0089 8A20CDDA 		.ascii	"\212 \315\332h#\036Gp\363\005B<N+\000\005\223`\315\326"
 110      68231E47 
 110      70F30542 
 110      3C4E2B00 
 110      059360CD 
 111 009e 908760FB 		.ascii	"\220\207`\373/\373!\324\006\026Ne\327B>\217E\260\243"
 111      2FFB21D4 
 111      06164E65 
 111      D7423E8F 
 111      45B0A3
 112 00b1 B514C121 		.ascii	"\265\024\301!\340\340`\207\026\312\300N\006\016\005"
 112      E0E06087 
 112      16CAC04E 
 112      060E05
 113 00c0 27073B21 		.ascii	"'\007;!\214?\204i\221M\2718\036N[g\270\026\301&sD\321"
 113      8C3F8469 
 113      914DB938 
 113      1E4E5B67 
 113      B816C126 
 114 00d7 999D1110 		.ascii	"\231\235\021\020\311\261\"9z\207=J\213f\354\342\031"
 114      C9B12239 
 114      7A873D4A 
 114      8B66ECE2 
 114      19
 115 00e8 BB68E843 		.ascii	"\273h\350C\301\320G\213cLb\030\223\030-\2263\211gLb"
 115      C1D0478B 
 115      634C6218 
 115      93182D96 
 115      3389674C 
 116 00fd 218E3389 		.ascii	"!\2163\211\343\330\035\366x-\2011\351\313\230\364\025"
 116      E3D81DF6 
 116      782D8131 
 116      E9CB98F4 
 116      15
 117 010e 6F49EC2D 		.ascii	"oI\354-AKd\254\222\031\253DH\346\264I\362!\3316xS(\361"
 117      414B64AC 
 117      9219AB44 
 117      48E6B449 
ARM GAS  /tmp/ccvyhaQg.s 			page 9


 117      F221D936 
 118 0126 D8FBB176 		.ascii	"\330\373\261v\000k\373\263\266\210\265)\254M\345\317"
 118      006BFBB3 
 118      B688B529 
 118      AC4DE5CF 
 119 0136 308413A5 		.ascii	"0\204\023\245jiW\021\340H\177\371<\265d\032\244sx\272"
 119      6A695711 
 119      E0487FF9 
 119      3CB5641A 
 119      A47378BA 
 120 014a 96C126CB 		.ascii	"\226\301&\313d\223e@&\007gB6\177\310\342\017\035\366"
 120      64936540 
 120      26076742 
 120      367FC8E2 
 120      0F1DF6
 121 015d 6C2DE7F2 		.ascii	"l-\347\362E\252\322\220\363\026\304\314\321\262\214"
 121      45AAD290 
 121      F316C4CC 
 121      D1B28C
 122 016c AFFDB45C 		.ascii	"\257\375\264\\\306&\217\261\311\205|N\235'\037\362\265"
 122      C6268FB1 
 122      C9857C4E 
 122      9D271FF2 
 122      B5
 123 017d 8266AA61 		.ascii	"\202f\252aa\343\010\034/\200B\016.\224\342\365\207\""
 123      61E3081C 
 123      2F80420E 
 123      2E94E2F5 
 123      8722
 124 018f FE30403E 		.ascii	"\3760@>\024i\305\214\343@\306\261\030\006q\360@\371"
 124      1469C58C 
 124      E340C6B1 
 124      180671F0 
 124      40F9
 125 01a1 3048920E 		.ascii	"0H\222\016\226\017C\264\241l\216al\216\2410\214\203"
 125      960F43B4 
 125      A16C8E61 
 125      6C8EA130 
 125      8C83
 126 01b3 8769C319 		.ascii	"\207i\303\031\213\022\306n8\224pp\211V\312\260G1\354"
 126      8B12C66E 
 126      38947070 
 126      8956CAB0 
 126      4731EC
 127 01c6 526D04F3 		.ascii	"Rm\004\363@9\363\300\010\255\254\313A\337N\276F\215"
 127      4039F3C0 
 127      08ADACCB 
 127      41DF4EBE 
 127      468D
 128 01d8 5506E59C 		.ascii	"U\006\345\234\246\034F2g\217\324*\271{G1\367\276F8\274"
 128      A61C4632 
 128      678FD42A 
 128      B97B4731 
 128      F7BE4638 
 129 01ed 62148C61 		.ascii	"b\024\214a\343\243y\337a\037\243\215\346\210w1\304v"
 129      E3A379DF 
 129      611FA38D 
ARM GAS  /tmp/ccvyhaQg.s 			page 10


 129      E6887731 
 129      C476
 130 01ff 02631942 		.ascii	"\002c\031B\207x\350\260\237'Z\005G\2610\024 \3135K\220"
 130      8778E8B0 
 130      9F275A05 
 130      47B13014 
 130      20CB354B 
 131 0214 35D8660F 		.ascii	"5\330f\017q\204:\303\302#\"\243\242\373\304\304\306"
 131      71843AC3 
 131      C22322A3 
 131      A2FBC4C4 
 131      C6
 132 0225 C5F74D48 		.ascii	"\305\367MHLJNIMK\317\310\314\312\316\351\227\233\227"
 132      4C4A4E49 
 132      4D4BCFC8 
 132      CCCACEE9 
 132      979B97
 133 0238 5F50D87F 		.ascii	"_P\330\177@Q\361\300A\203\207\014\0356\274\244tDY\371"
 133      4051F1C0 
 133      4183870C 
 133      1D36BCA4 
 133      744459F9 
 134 024c C8D7C8A8 		.ascii	"\310\327\310\250\321c\332I\0079O`\371d\240\251\026\236"
 134      D163DA49 
 134      07394F60 
 134      F964A0A9 
 134      169E
 135 025e 49767A3C 		.ascii	"Ivz<\353\256\275\361\355[\360\374\306\366\306V\317\355"
 135      EBAEBDF1 
 135      ED5BF0FC 
 135      C6F6C656 
 135      CFED
 136 0270 9E1E0037 		.ascii	"\236\036\0007`Z\366\0072\023\310$|\201t\326iA\336y\312"
 136      605AF607 
 136      3213C824 
 136      7C8174D6 
 136      6941DE79 
 137 0285 693DC75F 		.ascii	"i=\307_\364\2040:\013#\033\030\020\331s\355\177\277"
 137      F484303A 
 137      0B231B18 
 137      10D973ED 
 137      7FBF
 138 0297 E05C57DF 		.ascii	"\340\\W\337\344\351\351Y\356\006\213F\206\006F\346y"
 138      E4E9E959 
 138      EE068B46 
 138      860646E6 
 138      79
 139 02a8 75D69B9E 		.ascii	"u\326\233\236\306\366\236\2361\214jx\200T\357>\276U"
 139      C6F69E9E 
 139      318C6A78 
 139      8054EF3E 
 139      BE55
 140 02ba 520569A4 		.ascii	"R\005i\244T\247\262s*\360Ku\305\213\252, \252u\355\377"
 140      54A7B273 
 140      2AF04B75 
 140      C58BAA2C 
 140      20AA75ED 
ARM GAS  /tmp/ccvyhaQg.s 			page 11


 141 02cf BCF03620 		.ascii	"\274\3606 q\375\347==\021\314\"\025\001\032\362\244"
 141      71FDE73D 
 141      3D11CC22 
 141      15011AF2 
 141      A4
 142 02e0 AE1A5255 		.ascii	"\256\032RU\006H\325\345E5>0\252\366\257\315B\3768@\267"
 142      0648D5E5 
 142      45353E30 
 142      AAF6AFCD 
 142      42FE3840 
 143 02f5 DD7AB639 		.ascii	"\335z\2669\336s\015\347\375\026\003\305\015V\215L\014"
 143      DE730DE7 
 143      FD1603C5 
 143      0D568D4C 
 143      0C
 144 0306 D09AEFE9 		.ascii	"\320\232\357\351\326D\252i\001Z\363\233g\233\023<\255"
 144      D644AA69 
 144      015AF39B 
 144      679B133C 
 144      AD
 145 0317 2BE47CC1 		.ascii	"+\344|\301\032\231\033\210\244\355\353\3327\337\257"
 145      1A991B88 
 145      A4EDEBDA 
 145      37DFAF
 146 0326 E2CBA691 		.ascii	"\342\313\246\221\177\323\251~\312\251\234\336TG\265"
 146      7FD3A97E 
 146      CAA99CDE 
 146      5447B5
 147 0335 F66B3D3D 		.ascii	"\366k==-\347\3166_\205\213\332)\0002\217\332\005\033"
 147      2DE7CE36 
 147      5F858BDA 
 147      2900328F 
 147      DA051B
 148 0348 0B6D8268 		.ascii	"\013m\202hc\245M0ml\264\261\223*\330\007\231$\004\373"
 148      63A54D30 
 148      6D6CB4B1 
 148      932AD807 
 148      992404FB 
 149 035c 3DD83BC4 		.ascii	"=\330;\304{\250\350\235\242\017\023}\270\350#\260\337"
 149      7BA8E89D 
 149      A20F137D 
 149      B8E823B0 
 149      DF
 150 036d 8F7DA4E8 		.ascii	"\217}\244\350\243D\037-\372>\242\217\301\376 \366\261"
 150      A3441F2D 
 150      FA3EA28F 
 150      C1FE20F6 
 150      B1
 151 037e A28FC3FE 		.ascii	"\242\217\303\3760\366\361\242\357\213\375Q\354\023D"
 151      30F6F1A2 
 151      EF8BFD51 
 151      EC1344
 152 038d 9F28FA24 		.ascii	"\237(\372$\321'c\177\014\373\024\321\247\212>M\364\351"
 152      D127637F 
 152      0CFB14D1 
 152      A78A3E4D 
 152      F4E9
ARM GAS  /tmp/ccvyhaQg.s 			page 12


 153 039f A2CF107D 		.ascii	"\242\317\020}&\366'\260\317\022}\266\350sD\337\017\373"
 153      26F627B0 
 153      CF127DB6 
 153      E87344DF 
 153      0FFB
 154 03b1 93D8E762 		.ascii	"\223\330\347b\177\012\373<\354_\301>_\364\005\242/\005"
 154      7F0AFB3C 
 154      EC5FC13E 
 154      5FF405A2 
 154      2F05
 155 03c3 344E19B5 		.ascii	"4N\031\265P\271\320d\024B`4q\203}\0146!\025\202\341"
 155      50B9D064 
 155      14426034 
 155      71837D0C 
 155      36211582 
 156 03d8 587C09AA 		.ascii	"X|\011\252\244\210\343\350\323\335\364\351\036\332\334"
 156      A488E3E8 
 156      D3DDF4E9 
 156      1EDADC
 157 03e7 2BE87E44 		.ascii	"+\350~D\301\367a\343\270\2376\017`C\306\213\261\007"
 157      C1F761E3 
 157      B89F360F 
 157      6043C68B 
 157      B107
 158 03f9 29E204F1 		.ascii	")\342\004\361\362\020E|\230\342<B\233G)\342D1\366\230"
 158      F210457C 
 158      98E23C42 
 158      9B4729E2 
 158      4431F698 
 159 040d 30C74F28 		.ascii	"0\307O(p\222x\231L\011\246\010\205\246\322\227\307\305"
 159      70927899 
 159      4C09A608 
 159      85A6D297 
 159      C7C5
 160 041f C834CAF7 		.ascii	"\3104\312\367\011\332L\027bVQ\2263h3\213\262\230M\261"
 160      09DA4C17 
 160      62565196 
 160      3368338B 
 160      B2984DB1 
 161 0433 5DC26673 		.ascii	"]\302fs)\330M\233'\205w\253\205w\346\211\367\032\212"
 161      29D84D9B 
 161      278577AB 
 161      8577E689 
 161      F71A8A
 162 0446 3E5F305F 		.ascii	">_0_ \200\013)\305\"\332\324\012\243-\241/O\321\246"
 162      20800B29 
 162      C522DAD4 
 162      0AA32DA1 
 162      2F4FD1A6 
 163 045a 4E40968A 		.ascii	"N@\226\212~\231\230\352i\301x\271\340\341\001\212]\317"
 163      7E9998EA 
 163      69C178B9 
 163      E0E1018A 
 163      5DCF
 164 046c DA06DA86 		.ascii	"\332\006\332\2066\202 Y\311\200\317\260\266\211\266"
 164      36822059 
 164      C980CFB0 
ARM GAS  /tmp/ccvyhaQg.s 			page 13


 164      B689B6
 165 047b CE557268 		.ascii	"\316Urh5{m\006\241\333\032\372\260\023\037\326\322\207"
 165      357B6D06 
 165      A1DB1AFA 
 165      B0131FD6 
 165      D287
 166 048d DDF8B00E 		.ascii	"\335\370\260\016\304<\353AL\374\234|\330 \0376R&A\233"
 166      C43CEB41 
 166      4CFC9C7C 
 166      D8201F36 
 166      5226419B 
 167 04a1 686BDF4C 		.ascii	"hk\337L\333\220-\222\341V\020\342m\223\220\026\311p"
 167      DB902D92 
 167      E15610E2 
 167      6D939016 
 167      C970
 168 04b3 3BC37F81 		.ascii	";\303\177\201\341\267\312\321\235\222\347.\211\266\233"
 168      E1B7CAD1 
 168      9D92E72E 
 168      89B69B
 169 04c2 A1B531B4 		.ascii	"\241\2651\264=,\015\367J\236\373\330\274\373%\355\001"
 169      3D2C0DF7 
 169      4A9EFBD8 
 169      BCFB25ED 
 169      01
 170 04d3 86799061 		.ascii	"\206y\220a\036\226\300#\222\341Q\012'/\261\366\230\004"
 170      1E96C023 
 170      92E1510A 
 170      272FB1F6 
 170      9804
 171 04e5 1EA7AF96 		.ascii	"\036\247\257\226\023\254=)I\360g%\215Xn\322y\"\363\311"
 171      13AC3D29 
 171      49F06725 
 171      8D586ED2 
 171      7922F3C9 
 172 04f9 78F4F0D4 		.ascii	"x\364\360\324\343\222q\037rF\"4X\374\360t\340\366\255"
 172      E392711F 
 172      72462234 
 172      58FCF074 
 172      E0F6AD
 173 050c 8257B19D 		.ascii	"\202W\261\235\005\270\257\235\311J\332\243\330v\021"
 173      05B8AF9D 
 173      C94ADAA3 
 173      D87611
 174 051b 2C931A76 		.ascii	",\223\032v\226\267\310\212k\267\257C\025\374\032\254"
 174      96B7C88A 
 174      6BB7AF43 
 174      15FC1AAC 
 175 052b 8207AD46 		.ascii	"\202\007\255F\252\014M\004\013\331f\303\035p'\331\003"
 175      AA0C4D04 
 175      0BD966C3 
 175      1D7027D9 
 175      03
 176 053c 2E28B3DD 		.ascii	".(\263\335~\267\326\005\266\261\320I\266\340{\205\355"
 176      7EB7D605 
 176      B6B1D049 
 176      B6E07B85 
ARM GAS  /tmp/ccvyhaQg.s 			page 14


 176      ED
 177 054d D27B3F75 		.ascii	"\322{?uA\316X\240\250A\344\377l\200\034\355D\260rQe"
 177      41CE58A0 
 177      A841E4FF 
 177      6C801CED 
 177      44B07251 
 178 0562 3800CDE6 		.ascii	"8\000\315\346\302\"F\336!\015\277h8\2671\205\317\210"
 178      C22246DE 
 178      210DBF68 
 178      38B73185 
 178      CF88
 179 0574 1C11AAEA 		.ascii	"\034\021\252\352\355[D\343p\206]F\261W\234Y\231*q\313"
 179      ED5B44E3 
 179      70865D46 
 179      B1579C59 
 179      992A71CB 
 180 0588 B7915FD5 		.ascii	"\267\221_\325{<\236!n\010\023d\341BN\234\244\335&\265"
 180      7B3C9E21 
 180      6E081364 
 180      E1424E9C 
 180      A4DD26B5 
 181 059c D8CFA62E 		.ascii	"\330\317\246.'\344M\362\372\215\216c\253\235\212\001"
 181      27E44DF2 
 181      FA8D8E63 
 181      AB9D8A01 
 182 05ac 2589D08B 		.ascii	"%\211\320\213l'A\035\366\200\005\333R\015U\312t\301"
 182      6C27411D 
 182      F68005DB 
 182      520D55CA 
 182      74C1
 183 05be 167C1316 		.ascii	"\026|\023\026\320.\235K\246jY\251\241\336!\347?\325"
 183      D02E9D4B 
 183      A66A59A9 
 183      A1DE21E7 
 183      3FD5
 184 05d0 E404D4A4 		.ascii	"\344\004\324\244C\311\011O\023\"\332\020\363]R\337\372"
 184      43C9094F 
 184      1322DA10 
 184      F35D52DF 
 184      FA
 185 05e1 BC55CE92 		.ascii	"\274U\316\222)M\027LM\367&i\354\3568i\226!\307P\352"
 185      294D174C 
 185      4DF72669 
 185      ECEE3869 
 185      9621C750 
 186 05f6 27228F4E 		.ascii	"'\"\217N\013\316\260\342\217_\355\035!\361F\027\222"
 186      0BCEB0E2 
 186      8F5FED1D 
 186      21F14617 
 186      92
 187 0607 028C2654 		.ascii	"\002\214&T\031\361#]0\212\322E1\202\031\312?H3E\022"
 187      19F1235D 
 187      308AD245 
 187      318219CA 
 187      3F483345 
 188 061c 8C292407 		.ascii	"\214)$\007<\221n\210\346$}\220\005%\261\013\022I\363"
 188      3C916E88 
ARM GAS  /tmp/ccvyhaQg.s 			page 15


 188      E6247D90 
 188      0525B10B 
 188      1249F3
 189 062f 3B220425 		.ascii	";\"\004%\224\2066\243P(7\3040\33745|\271\261\257\344"
 189      948636A3 
 189      502837C4 
 189      30DF3435 
 189      7CB9B1AF 
 190 0644 5881BA30 		.ascii	"X\201\2720[x\371F\272\266\202\220O\210\247\371\352{"
 190      5B78F946 
 190      BAB68290 
 190      4F88A7F9 
 190      EA7B
 191 0656 C9921F57 		.ascii	"\311\222\037W\306N\316[h\\\265\356\260J\202=\254|\334"
 191      C64ECE5B 
 191      685CB5EE 
 191      B04A823D 
 191      AC7CDC
 192 0669 F470DFC5 		.ascii	"\364p\337\305r\003J\277]{\361C\025\177\373\356\210\270"
 192      72034ABF 
 192      5D7BF143 
 192      157FFBEE 
 192      88B8
 193 067b 7FA54322 		.ascii	"\177\245C\"\236\022\201j\025V8\263\362\340&\025'c\271"
 193      9E12816A 
 193      155638B3 
 193      F2E02615 
 193      2763B9
 194 068e 05548C08 		.ascii	"\005T\214\010\325i4\324\017RH\314\017\003\274\374\020"
 194      D56934D4 
 194      0F5248CC 
 194      0F03BCFC 
 194      10
 195 069f 42BEA59E 		.ascii	"B\276\245\236^q\263\341\350\246D\211X\311\005B\313\206"
 195      5E71B3E1 
 195      E8A64489 
 195      58C90542 
 195      CB86
 196 06b1 F3F88BD4 		.ascii	"\363\370\213\324Y;\364\343\242w\354Vr\211\017\275\341"
 196      593BF4E3 
 196      A277EC56 
 196      72890FBD 
 196      E1
 197 06c2 2B31A8E9 		.ascii	"+1\250\351\034\302R,_N1\243\346z\345\213\306\271\034"
 197      1CC2522C 
 197      5F4E31A3 
 197      E67AE58B 
 197      C6B91C
 198 06d5 59A942FB 		.ascii	"Y\251B\373\240\340\022\224.\365>\247\353=N\351\255\031"
 198      A0E01294 
 198      2EF53EA7 
 198      EB3D4EE9 
 198      AD19
 199 06e7 73C35BEF 		.ascii	"s\303[\357qL\357\201\206\034\3200\325\354,\257+C\316"
 199      714CEF81 
 199      861CD030 
 199      D5EC2CAF 
ARM GAS  /tmp/ccvyhaQg.s 			page 16


 199      2B43CE
 200 06fa BE3FB793 		.ascii	"\276?\267\223\344\012\313\332[\336o\005!s\310\245\367"
 200      E40ACBDA 
 200      5BDE6F05 
 200      2173C8A5 
 200      F7
 201 070b 5F64491E 		.ascii	"_dI\036\312m\204Y|]\267\321\335bJ?Y|7\327\341\2257|"
 201      CA6D8459 
 201      7C5DB7D1 
 201      DD624A3F 
 201      597C37D7 
 202 0723 7518A82C 		.ascii	"u\030\250,\3414Z\342 \263D\214\227%,\234\313\253\037"
 202      E1345AE2 
 202      20B3448C 
 202      97252C9C 
 202      CBAB1F
 203 0736 064B2EC7 		.ascii	"\006K.\307\274KU'\261\240\014\016\314\344\273C\233\257"
 203      BC4B5527 
 203      B1A00C0E 
 203      CCE4BB43 
 203      9BAF
 204 0748 A01231C2 		.ascii	"\240\0221\302L\216\356\367\027\210\331B[\256\324\321"
 204      4C8EEEF7 
 204      1788D942 
 204      5BAED4D1 
 205 0758 D9C2089E 		.ascii	"\331\302\010\236g\324t\307\330t\311^\323\005\211B\365"
 205      67D474C7 
 205      D874C95E 
 205      D3058942 
 205      F5
 206 0769 CF4D6952 		.ascii	"\317MiR\305{\020\332\213\212\367\010W\314\221\270\367"
 206      C57B10DA 
 206      8B8AF708 
 206      57CC91B8 
 206      F7
 207 077a 8A4255C2 		.ascii	"\212BU\302\234\021d.T\011\336\205\352^\221y\2676\365"
 207      9C11642E 
 207      5409DE85 
 207      EA5E9179 
 207      B736F5
 208 078d 970C7E84 		.ascii	"\227\014~\204P&\364\357\2019\260\361\177\352\207\251"
 208      5026F4EF 
 208      8139B0F1 
 208      7FEA87A9 
 209 079d 31361062 		.ascii	"16\020bp`\020\332\307\211\232\337\023y\365\312\177t"
 209      706010DA 
 209      C7899ADF 
 209      1379F5CA 
 209      7F74
 210 07af 92646116 		.ascii	"\222da\026\347\331+\325.T/\362Rg-U;\2344\345ZXI\\\377"
 210      E7D92BD5 
 210      2E542FF2 
 210      52672D55 
 210      3B9C34E5 
 211 07c8 76841295 		.ascii	"v\204\022\225\205C\201W"
 211      85438157 
 212 07d0 1A4490DF 		.ascii	"\032D\220\337f\261rt\372\370\307 \021\357\243\345\205"
ARM GAS  /tmp/ccvyhaQg.s 			page 17


 212      66B17274 
 212      FAF8C720 
 212      11EFA3E5 
 212      85
 213 07e1 05BF631E 		.ascii	"\005\277c\036Xf\200\214|j'\213D\272\037\361\324\036"
 213      5866808C 
 213      7C6A278B 
 213      44BA1FF1 
 213      D41E
 214 07f3 1839DCC7 		.ascii	"\0309\334\307\007\374\222\"6\267\233*\234\017\250\374"
 214      07FC9222 
 214      36B79B2A 
 214      9C0FA8FC 
 215 0803 22824F9C 		.ascii	"\"\202O\234^\347>m\250\221x\343\021\325\253 q;\216\227"
 215      5EE73E6D 
 215      A89178E3 
 215      11D5AB20 
 215      713B8E97 
 216 0817 F247123C 		.ascii	"\362G\022<\356+\377\362\301\010&\351\352\206\023\233"
 216      EE2BFFF2 
 216      C10826E9 
 216      EA86139B 
 217 0827 07483647 		.ascii	"\007H6G\321d\334V\016>\305\337\032>Q\352\276\004\222"
 217      D164DC56 
 217      0E3EC5DF 
 217      1A3E51EA 
 217      BE0492
 218 083a A6A9E129 		.ascii	"\246\251\341)\011<\006\234\012\027q\343\364<\202\216"
 218      093C069C 
 218      0A1771E3 
 218      F43C828E 
 219 084a 01F74604 		.ascii	"\001\367F\004\272(\35465\375\370\210\215\223\251<Q\""
 219      BA28EC36 
 219      35FDF888 
 219      8D93A93C 
 219      5122
 220 085c BAAF5DFE 		.ascii	"\272\257]\376P%\301Qc\3702\247\354\370\205\323\333)"
 220      5025C151 
 220      63F832A7 
 220      ECF885D3 
 220      DB29
 221 086e 455E4E89 		.ascii	"E^N\211\246yG\371?\201\216\216b\216~\\0\210\372\200"
 221      A67947F9 
 221      3F818E8E 
 221      628E7E5C 
 221      3088FA80 
 222 0882 4DD3877C 		.ascii	"M\323\207|\036\253\226\337\243L\246\276^Qm\025Q}cs\276"
 222      1EAB96DF 
 222      A34CA6BE 
 222      5E516D15 
 222      517D6373 
 223 0897 9CE94184 		.ascii	"\234\351A\204\366\022\325\017\212\250Vf\237 \242\272"
 223      F612D50F 
 223      8AA85666 
 223      9F20A2BA 
 224 08a7 9C45B5D5 		.ascii	"\234E\265\325\034\325I\336\336\230 \214\367\351\346"
 224      1CD549DE 
ARM GAS  /tmp/ccvyhaQg.s 			page 18


 224      DE98208C 
 224      F7E9E6
 225 08b6 22C9E021 		.ascii	"\"\311\340!\204\232\242Z-w\017\371D\265\325\005OD\243"
 225      849AA25A 
 225      2D770FF9 
 225      44B5D505 
 225      4F44A3
 226 08c9 B11F8C6B 		.ascii	"\261\037\214k\351j\303\305\271\257\013\036\247\357\223"
 226      E96AC3C5 
 226      B9AF0B1E 
 226      A7EF93
 227 08d8 E25AFE74 		.ascii	"\342Z\376t\210\225\242\030\362\225\203\007\364+o\307"
 227      8895A218 
 227      F2958307 
 227      F42B6FC7 
 228 08e8 2829FD04 		.ascii	"()\375\004t,\271\031\302\003\372\324\327\312\303\017"
 228      742CB919 
 228      C203FAD4 
 228      D7CAC30F 
 229 08f8 0712D08F 		.ascii	"\007\022\320\217 ^\340\001\375\210)\240\0375\006\364"
 229      205EE001 
 229      FD8829A0 
 229      1F3506F4 
 230 0908 C33E01AD 		.ascii	"\303>\001\255\342j\"\242\372\011\350\211R\3768\362\277"
 230      E26A22A2 
 230      FA09E889 
 230      52FE38F2 
 230      BF
 231 0919 31A6788E 		.ascii	"1\246x\216\024\361\274{K\241\344\362\030\372[\205\263"
 231      14F1BC7B 
 231      4BA1E4F2 
 231      18FA5B85 
 231      B3
 232 092a 81190F85 		.ascii	"\201\031\017\205\307D\210\357\211\227\370?\221\\\232"
 232      C74488EF 
 232      8997F83F 
 232      915C9A
 233 0939 94BA9318 		.ascii	"\224\272\223\030\3641?\344\223\270Sp#\362P\237\263]"
 233      F4313FE4 
 233      93B85370 
 233      23F2509F 
 233      B35D
 234 094b B8564C8C 		.ascii	"\270VL\214\375\317\251T\266xc\351\346\270\0112\352\244"
 234      FDCFA954 
 234      B67863E9 
 234      E6B80932 
 234      EAA4
 235 095d B0515E61 		.ascii	"\260Q^a\030,\002\276K\017\370(\346\264j\203\367\203"
 235      182C02BE 
 235      4B0FF828 
 235      E6B46A83 
 235      F783
 236 096f 4594A3FF 		.ascii	"E\224\243\377c\270\377\2430/\0202\013]\214\220\352N"
 236      63B8FFA3 
 236      302F1032 
 236      0B5D8C90 
 236      EA4E
ARM GAS  /tmp/ccvyhaQg.s 			page 19


 237 0981 9220C3BF 		.ascii	"\222 \303\277\273\023\321\372\306\260\230\350K^\327"
 237      BB13D1FA 
 237      C6B098E8 
 237      4B5ED7
 238 0990 2C827DAC 		.ascii	",\202}\2547\373\007\274b\"\201t\002K\312\277\351Iy\322"
 238      37FB07BC 
 238      62228174 
 238      024BCABF 
 238      E94979D2 
 239 09a4 B846F3D5 		.ascii	"\270F\363\325uK\222d2U\255\256\301\336\253kc\267^\234"
 239      754B9264 
 239      3255ADAE 
 239      C1DEAB6B 
 239      63B75E9C 
 240 09b8 A79A7698 		.ascii	"\247\232v\230t\246D\322-W\314-*\361\246\0116~\022o\232"
 240      74A644D2 
 240      2D57CC2D 
 240      2AF1A609 
 240      367E126F 
 241 09cd DF7C9A2A 		.ascii	"\337|\232*\331%\221\217\301\302R\353\263-#%\273\311"
 241      D925918F 
 241      C1C252EB 
 241      B32D2325 
 241      BBC9
 242 09df 42C9A073 		.ascii	"B\311\240s\\\364\206K\015O\313\261)8\314\306\022\274"
 242      5CF4864B 
 242      0D4FCBB1 
 242      2938CCC6 
 242      12BC
 243 09f1 E3E224E3 		.ascii	"\343\342$\343;E\362M6:\222\217\3653;2\332\313\221\270"
 243      3B45F24D 
 243      363A928F 
 243      F5333B32 
 243      DACB91B8 
 244 0a05 F5BD445E 		.ascii	"\365\275D^\360t\377E%_\364/Is}\243\247\375j\204\033"
 244      F074FF45 
 244      255FF42F 
 244      49737DA3 
 244      A7FD6A84 
 245 0a1a 03037FB3 		.ascii	"\003\003\177\263\200\177\015\021\360\323\341\010g\262"
 245      807F0D11 
 245      F0D3E108 
 245      67B2
 246 0a28 8C638356 		.ascii	"\214c\203V\343\340Y5x\237\357\340\351\01098\201\015"
 246      E3E05935 
 246      789FEFE0 
 246      E9083938 
 246      810D
 247 0a3a 061B075F 		.ascii	"\006\033\007_R\203\023\331\240\3158\270U\015Nb\203\232"
 247      528313D9 
 247      A0CD38B8 
 247      550D4E62 
 247      839A
 248 0a4c 71F0DB50 		.ascii	"q\360\333P98\223\015\332\215\203g\224@\263|\005\372"
 248      3938930D 
 248      DA8D8367 
 248      9440B37C 
ARM GAS  /tmp/ccvyhaQg.s 			page 20


 248      05FA
 249 0a5e 8D1A74FB 		.ascii	"\215\032t\373\016\236Qs\316\367\225v\263\242\\\314\006"
 249      0E9E5173 
 249      CEF79576 
 249      B3A25CCC 
 249      06
 250 0a6f 438C83C7 		.ascii	"C\214\203\307\025\345\022_U~\245\006\353\014\252\360"
 250      15E5125F 
 250      557EA506 
 250      EB0CAAF0 
 251 0a7f 84B161E0 		.ascii	"\204\261a\340$6\377\245\015+dp\022m\0220g\2421n\022"
 251      2436FFA5 
 251      0D2B6470 
 251      126D1230 
 251      67A2316E 
 252 0a94 4FE3CE28 		.ascii	"O\343\316(\212\202\242(\250\237\010\360\304\356?a\326"
 252      8A82A228 
 252      A89F08F0 
 252      C4EE3F61 
 252      D6
 253 0aa5 4C497A79 		.ascii	"LIzy\272\000$|0\215\206A\012i'\226\267I\275\235\373"
 253      BA00247C 
 253      308D8641 
 253      0A692796 
 253      B749BD9D 
 254 0aba 949984A6 		.ascii	"\224\231\204\246I\323\005\377\233P:\266j\237\332\226"
 254      49D305FF 
 254      9B503AB6 
 254      6A9FDA96 
 255 0aca F1ADFECF 		.ascii	"\361\255\376\317q\363\256j\237\215o\240\333\177\343"
 255      71F3AE6A 
 255      9F8D6FA0 
 255      DB7FE3
 256 0ad9 306EE9D9 		.ascii	"0n\351\331\366\231-\177\352\370\300*\364\177\177\241"
 256      F6992D7F 
 256      EAF8C02A 
 256      F47F7FA1 
 257 0ae9 2A745520 		.ascii	"*tU \025z\006\342\005^\241g\230*\364,c\205\256\362\251"
 257      157A06E2 
 257      055EA167 
 257      982AF42C 
 257      6385AEF2 
 258 0afe D08B24DE 		.ascii	"\320\213$\336lD5\262\027K!\372#Hhw\356\242\323\254\236"
 258      6C4435B2 
 258      174B21FA 
 258      23486877 
 258      EEA2D3AC 
 259 0b13 454C3A5B 		.ascii	"EL:[\246X\252\331\266!\334~\315\275\330\226\031\344"
 259      A658AAD9 
 259      B621DC7E 
 259      CDBDD896 
 259      19E4
 260 0b25 7A8726A5 		.ascii	"z\207&\245\230\033\210A\334\210\027\270A\334\242\320"
 260      981B8841 
 260      DC8817B8 
 260      41DCA2D0 
 261 0b35 FD5C923F 		.ascii	"\375\\\222?\251,b\021\214\372\212Y\014\245c\037\253"
ARM GAS  /tmp/ccvyhaQg.s 			page 21


 261      A92C6211 
 261      8CFA8A59 
 261      0CA5631F 
 261      AB
 262 0b46 064F8AB3 		.ascii	"\006O\212\263\205\252~O\352Z\253\352\227F\034\254\314"
 262      85AA7E4F 
 262      EA5AABEA 
 262      97461CAC 
 262      CC
 263 0b57 AEB9116C 		.ascii	"\256\271\021l\244\246V\333\312\366\022\011\251d\341"
 263      A4A656DB 
 263      CAF61209 
 263      A964E1
 264 0b66 76CFD6BB 		.ascii	"v\317\326\273\334X(\015t\351\324V\262\372\360\371B\345"
 264      DC58280D 
 264      74E9D456 
 264      B2FAF0F9 
 264      42E5
 265 0b78 4E694D98 		.ascii	"NiM\230\234Q\256\001z\036\204\242\030\251W\277\250\343"
 265      9C51AE01 
 265      7A1E84A2 
 265      18A957BF 
 265      A8E3
 266 0b8a 13B46FBF 		.ascii	"\023\264o\277\214\331\206\033\356n4>\376\322N[(\363"
 266      8CD9861B 
 266      EE6E343E 
 266      FED24E5B 
 266      28F3
 267 0b9c 0C92CE84 		.ascii	"\014\222\316\204\332zC\235\317\324\206\254\247G?\241"
 267      DA7A439D 
 267      CFD486AC 
 267      A7473FA1 
 268 0bac 651A85E0 		.ascii	"e\032\205\340\213[\"w\331\363\272\313\366H\341\350\364"
 268      8B5B2277 
 268      D9F3BACB 
 268      F648E1E8 
 268      F4
 269 0bbd 8928533A 		.ascii	"\211(S:(F\031\315_\362\275J\026\331f\345\213\300\215"
 269      284619CD 
 269      5FF2BD4A 
 269      16D966E5 
 269      8BC08D
 270 0bd0 9627A4F4 		.ascii	"\226'\244\364\013\\`\367]\004$\307\005R\212l\322e5I"
 270      0B5C60F7 
 270      5D0424C7 
 270      05528A6C 
 270      D2653549 
 271 0be4 91A45766 		.ascii	"\221\244Wf\216l\027~<\242\262\247\206\257WAb\016\351"
 271      8E6C177E 
 271      3CA2B2A7 
 271      86AF5741 
 271      620EE9
 272 0bf7 16B65EA9 		.ascii	"\026\266^\251\355\177\215\317\027\021;\252\222\371\021"
 272      ED7F8DCF 
 272      17113BAA 
 272      92F911
 273 0c06 FA7E41D6 		.ascii	"\372~A\326G\241\235$\0115\316\304\3321?\353#+\225%\207"
ARM GAS  /tmp/ccvyhaQg.s 			page 22


 273      47A19D24 
 273      0935CEC4 
 273      DA313FEB 
 273      232B9525 
 274 0c1b 9C617AE8 		.ascii	"\234az\350{\206\371(\215\320W\374`\271\237\015\304|"
 274      7B86F928 
 274      8DD057FC 
 274      60B99F0D 
 274      C47C
 275 0c2d 36F50D25 		.ascii	"6\365\015%\336|\223\347(\363~\346\374\260ry;\336\325"
 275      DE7C93E7 
 275      28F37EE6 
 275      FCB07279 
 275      3BDED5
 276 0c40 3DDE4F1D 		.ascii	"=\336O\035\373u\272\\t'\313\225O\364\363\312\302@re"
 276      FB75BA5C 
 276      7427CB95 
 276      4FF4F3CA 
 276      C2407265 
 277 0c54 11E2059E 		.ascii	"\021\342\005\236+\213\314;\342Z\225+\301\202Q\222o\256"
 277      2B8BCC3B 
 277      E25A952B 
 277      C1825192 
 277      6FAE
 278 0c66 BCC2D4AF 		.ascii	"\274\302\324\257\225\262\346\011Y?\322\317\032K\002"
 278      95B2E609 
 278      593FD2CF 
 278      1A4B02
 279 0c75 11F529C4 		.ascii	"\021\365)\304\013\\\324\247Lu\256\316X\347\226\030\353"
 279      0B5CD4A7 
 279      4C75AECE 
 279      58E79618 
 279      EB
 280 0c86 9C8FA475 		.ascii	"\234\217\244uR\322|c\360\363\261<\226\201\037vt\352"
 280      52D27C63 
 280      F0F3B13C 
 280      96811F76 
 280      74EA
 281 0c98 FEC8A3CC 		.ascii	"\376\310\243\314\202\215\021\224\207\332\346\266\374"
 281      828D1194 
 281      87DAE6B6 
 281      FC
 282 0ca5 030F4075 		.ascii	"\003\017@uy//\241\234\012H\024\373\"t\330+gzY&\374\024"
 282      792F2FA1 
 282      9C0A4814 
 282      FB2274D8 
 282      2B677A59 
 283 0cbc 52DF75E2 		.ascii	"R\337u\342\364\351O\345:\241\177\024\014\352u\241\341"
 283      F4E94FE5 
 283      3AA17F14 
 283      0CEA75A1 
 283      E1
 284 0ccd C1CFEAEA 		.ascii	"\301\317\352\352\000\316`\177\303\253\333\325\326n)"
 284      00CE607F 
 284      C3ABDBD5 
 284      D66E29
 285 0cdc D3CCC712 		.ascii	"\323\314\307\022K\245%\012}-\221oN\300\020\011\0207"
ARM GAS  /tmp/ccvyhaQg.s 			page 23


 285      4BA5250A 
 285      7D2D916F 
 285      4EC01009 
 285      1037
 286 0cee 535F5EB8 		.ascii	"S_^\270h\270\322B7\356E\347\334\371\246\310\314d\235"
 286      68B8D242 
 286      37EE45E7 
 286      DCF9A6C8 
 286      CC649D
 287 0d01 E7B847BF 		.ascii	"\347\270G\277\314\014\326\310\277\177\327]\223A.q\315"
 287      CC0CD6C8 
 287      BF7FD75D 
 287      93412E71 
 287      CD
 288 0d12 65E4E0D4 		.ascii	"e\344\340\324\310\262\357\342@aNz\200\370\035y\366\332"
 288      C8B2EFE2 
 288      40614E7A 
 288      80F81D79 
 288      F6DA
 289 0d24 D699E23B 		.ascii	"\326\231\342;\264\374 \355\271\276\035k\3517\354\273"
 289      B4FC20ED 
 289      B9BE1D6B 
 289      E937ECBB 
 290 0d34 F22DD6DE 		.ascii	"\362-\326\336dF\346v\233\311?2\272\3408PO4Q\257&\317"
 290      6446E676 
 290      9BC93F32 
 290      BAE03850 
 290      4F3451AF 
 291 0d4a 04B4AA47 		.ascii	"\004\264\252G\263\012\005QB1\205\210\0337\3568\314\265"
 291      B30A0551 
 291      42318588 
 291      1B37EE38 
 291      CCB5
 292 0d5c 4F465288 		.ascii	"OFR\210_\207\346\327\011p\327\345\260\037\022@\005W"
 292      5F87E6D7 
 292      0970D7E5 
 292      B01F1240 
 292      0557
 293 0d6e FF81A787 		.ascii	"\377\201\247\207|\364y>\026\266\245\005\037\260\030"
 293      7CF4793E 
 293      16B6A505 
 293      1FB018
 294 0d7d ED6FAE3D 		.ascii	"\355o\256=6^\350\377\250\357m\366\313\265\331\241*\317"
 294      365EE8FF 
 294      A8EF6DF6 
 294      CBB5D9A1 
 294      2ACF
 295 0d8f 00335530 		.ascii	"\0003U0\243j\375\263\315\207\310\256\210\212H\007x\021"
 295      A36AFDB3 
 295      CD87C8AE 
 295      888A4807 
 295      7811
 296 0da1 69E67D76 		.ascii	"i\346}v\037Y\367\326\366Z\367:I\037\3066\222$w\177="
 296      1F59F7D6 
 296      F65AF73A 
 296      491FC636 
 296      9224777F 
ARM GAS  /tmp/ccvyhaQg.s 			page 24


 297 0db6 4B88D5BF 		.ascii	"K\210\325\277m\251\230k\300\007K\351T\305\344\032\341"
 297      6DA9986B 
 297      C0074BE9 
 297      54C5E41A 
 297      E1
 298 0dc7 A5F1A65E 		.ascii	"\245\361\246^\032=\020H\301\251\007\212\031x\311\251"
 298      1A3D1048 
 298      C1A9078A 
 298      1978C9A9 
 299 0dd7 0753CD69 		.ascii	"\007S\315i\000\345\232P\311*U\315\204GQUG\033\201b\373"
 299      00E59A50 
 299      C92A55CD 
 299      84475155 
 299      471B8162 
 300 0dec C9C04690 		.ascii	"\311\300F\2206\033(\025\371\312\240\310\312\200\024"
 300      361B2815 
 300      F9CAA0C8 
 300      CA8014
 301 0dfb 79062866 		.ascii	"y\006(f\340\212<cV\244IW\304)Y\245\371Ud\025Pl?\212"
 301      E08A3C63 
 301      56A44957 
 301      C42959A5 
 301      F9556415 
 302 0e13 AC528A0C 		.ascii	"\254R\212\014\242\316\367\256%\005\202\315\211\035\005"
 302      A2CEF7AE 
 302      250582CD 
 302      891D05
 303 0e22 92D16A60 		.ascii	"\222\321j`A\240\370\374\360\242\342?)xlw_p\030\330\257"
 303      41A0F8FC 
 303      F0A2E23F 
 303      29786C77 
 303      5F7018D8 
 304 0e37 33B1C7B8 		.ascii	"3\261\307\270\277\035@\315*\360\307\313,*\236\364\277"
 304      BF1D40CD 
 304      2AF0C7CB 
 304      2C2A9EF4 
 304      BF
 305 0e48 0D80D76A 		.ascii	"\015\200\327j\350\255\360\234\330\201\205g\255FK\316"
 305      E8ADF09C 
 305      D8818567 
 305      AD464BCE 
 306 0e58 1AD6366B 		.ascii	"\032\3266k~\012\317\011s\341Y\317\013\217\337:\202\242"
 306      7E0ACF09 
 306      73E159CF 
 306      0B8FDF3A 
 306      82A2
 307 0e6a D319BDEB 		.ascii	"\323\031\275\353\320\212\326n\233\277RT@\203\261\270"
 307      D08AD66E 
 307      9BBF5254 
 307      4083B1B8 
 308 0e7a E59B6AEA 		.ascii	"\345\233j\352\313\201//\243\256\034lN\376 n\212\317"
 308      CB812F2F 
 308      A3AE1C6C 
 308      4EFE206E 
 308      8ACF
 309 0e8c FE65C7A1 		.ascii	"\376e\307\241\267\276\272\365W\357e.\260\023G\264\214"
 309      B7BEBAF5 
ARM GAS  /tmp/ccvyhaQg.s 			page 25


 309      57EF652E 
 309      B01347B4 
 309      8C
 310 0e9d B621BE1F 		.ascii	"\266!\276\037\326c\365b\303\267\325N\363R\346\020\247"
 310      D663F562 
 310      C3B7D54E 
 310      F352E610 
 310      A7
 311 0eae 9F8FD5C7 		.ascii	"\237\217\325\307\3575\240\240*\255\326\002#\305T[\325"
 311      EF35A0A0 
 311      2AADD602 
 311      23C5545B 
 311      D5
 312 0ebf A0AE20D6 		.ascii	"\240\256 \326\001G^\353\235\004\207\031\337u \320?\333"
 312      01475EEB 
 312      9D048719 
 312      DF7520D0 
 312      3FDB
 313 0ed1 912709D6 		.ascii	"\221'\011\326\323\217\260|\310\347\213\352z\340\333"
 313      D38FB07C 
 313      C8E78BEA 
 313      7AE0DB
 314 0ee0 0DFDF262 		.ascii	"\015\375\362b\275\274\233\323\253\240CXc\303e\347\017"
 314      BDBC9BD3 
 314      ABA04358 
 314      63C365E7 
 314      0F
 315 0ef1 B072CAC6 		.ascii	"\260r\312\306\205\270?\316\001\272f\0256\376\214F\320"
 315      85B83FCE 
 315      01BA6615 
 315      36FE8C46 
 315      D0
 316 0f02 A0D79709 		.ascii	"\240\327\227\011\332?G\374\000\216\203\377\276\0149"
 316      DA3F47FC 
 316      008E83FF 
 316      BE0C39
 317 0f11 66E349DB 		.ascii	"f\343I\333)\010~\357E\220R\207\033\354\034\360w\313"
 317      29087EEF 
 317      45905287 
 317      1BEC1CF0 
 317      77CB
 318 0f23 5558E70F 		.ascii	"UX\347\017:\310/t0eCg\211\025\247\305\224\346/\352\304"
 318      3AC82F74 
 318      30654367 
 318      8915A7C5 
 318      94E62FEA 
 319 0f38 63CEEBA8 		.ascii	"c\316\353\250TL!*\0253\2106\203A\014d\263\230\030Jn"
 319      544C212A 
 319      15338836 
 319      83410C64 
 319      B398184A 
 320 0f4d 8A8BDF7D 		.ascii	"\212\213\337}6\243\301M\027\277\303\214\241\303\035"
 320      36A3C14D 
 320      17BFC38C 
 320      A1C31D
 321 0f5c 922296A5 		.ascii	"\222\"\226\245[k\325\227\273\\\237e)\205\272i\310\331"
 321      5B6BD597 
ARM GAS  /tmp/ccvyhaQg.s 			page 26


 321      BB5C9F65 
 321      2985BA69 
 321      C8D9
 322 0f6e 9E56E9AB 		.ascii	"\236V\351\253\241\227z\330\375\303p\362W\372\341\012"
 322      A1977AD8 
 322      FDC370F2 
 322      57FAE10A 
 323 0f7e B75E5FAB 		.ascii	"\267^_\253\300\332\000.\323\372\317g\332\240\352e\211"
 323      C0DA002E 
 323      D3FACF67 
 323      DAA0EA65 
 323      89
 324 0f8f AF18A962 		.ascii	"\257\030\251b\027\332\243\213\221\352\023\027\251\310"
 324      17DAA38B 
 324      91EA1317 
 324      A9C8
 325 0f9d 781850   		.ascii	"x\030P"
 326 0fa0 4EC3BBF9 		.ascii	"N\303\273\371\374\245To\266\201\337\335\246\002v#\250"
 326      FCA5546F 
 326      B681DFDD 
 326      A6027623 
 326      A8
 327 0fb1 6392D3FB 		.ascii	"c\222\323\373\230d<\330n\004?\267\205#H&\373\322X?U"
 327      98643CD8 
 327      6E043FB7 
 327      85234826 
 327      FBD2583F 
 328 0fc6 A2C59AEE 		.ascii	"\242\305\232\356\326(V\031\261\362\005x\327E\265nm\202"
 328      D6285619 
 328      B1F20578 
 328      D745B56E 
 328      6D82
 329 0fd8 EF7BB9BB 		.ascii	"\357{\271\273\031|nw71\231\314\327\273^+\337V\020Z\231"
 329      197C6E77 
 329      373199CC 
 329      D7BB5E2B 
 329      DF56105A 
 330 0fed 0F983CF1 		.ascii	"\017\230<\361\267\202\351:x3\210\373\340\215\240_\010"
 330      B782E93A 
 330      783388FB 
 330      E08DA05F 
 330      08
 331 0ffe 1F6C     		.ascii	"\037l"
 332 1000 53D77CDB 		.ascii	"S\327|\333\340\2167\302\333@\220\034\316\226\024-@s"
 332      E08E37C2 
 332      DB40901C 
 332      CE96142D 
 332      4073
 333 1012 FB8EC743 		.ascii	"\373\216\307C^\033Z\224\303\313\251\233\250\007\347"
 333      5E1B5A94 
 333      C3CBA99B 
 333      A807E7
 334 1021 A1F0A554 		.ascii	"\241\360\245T\203\021@e-kY?\273\223TS~\245\207zX\315"
 334      83114065 
 334      2D6B593F 
 334      BB935453 
 334      7EA5877A 
ARM GAS  /tmp/ccvyhaQg.s 			page 27


 335 1037 18C108CB 		.ascii	"\030\301\010\313\316\256ww\022\027\006\001\305N\245"
 335      CEAE7777 
 335      12170601 
 335      C54EA5
 336 1046 D8A96598 		.ascii	"\330\251e\230\031\323QX\012\311\244\220mP\326\266\236"
 336      19D35158 
 336      0AC9A490 
 336      6D50D6B6 
 336      9E
 337 1057 9DC44792 		.ascii	"\235\304G\222\337:L\377R\310\322+ \217\2604\035\300"
 337      DF3A4CFF 
 337      52C8D22B 
 337      208FB034 
 337      1DC0
 338 1069 C58B3317 		.ascii	"\305\2133\027\3150\376u\346\277v\353^\335\376\275\275"
 338      CD30FE75 
 338      E6BF76EB 
 338      5EDDFEBD 
 338      BD
 339 107a FA82AF57 		.ascii	"\372\202\257W\267\373\365\252\227\227^\220^\212\325"
 339      B7FBF5AA 
 339      97975E90 
 339      5E8AD5
 340 1089 9D744E77 		.ascii	"\235tNwR+j\233\325\273\223Z\245\223\256\267\331$\311"
 340      522B6A9B 
 340      D5BB935A 
 340      A593AEB7 
 340      D924C9
 341 109c 4E2449F3 		.ascii	"N$I\363G\302\255\261\023x\336\203\216\357\223na.\230"
 341      47C2ADB1 
 341      1378DE83 
 341      8EEF936E 
 341      612E98
 342 10af 578E6CC2 		.ascii	"W\216l\302*\321\362q.\250\246/q\364%\315\005.\372\262"
 342      2AD1F271 
 342      2EA8A62F 
 342      71F425CD 
 342      052EFAB2 
 343 10c3 132A112F 		.ascii	"\023*\021/\313\005\323\351[+T\336^\357\246\177G\251"
 343      CB05D3E9 
 343      5B2B54DE 
 343      5EEFA67F 
 343      47A9
 344 10d5 24EF84C0 		.ascii	"$\357\204\300D\030E\363\234rZ\216LFR\267\227 \361\323"
 344      441845F3 
 344      9C725A8E 
 344      4C4652B7 
 344      9720F1D3 
 345 10e9 C864248B 		.ascii	"\310d$\213\241\022\364y'YF\371\214l\244e#\225\216\237"
 345      A112F479 
 345      275946F9 
 345      8C6CA465 
 345      23958E9F 
 346 10fd 64AC4622 		.ascii	"d\254F\"+\364s\011\363\357hr!K\374\231\242L\012\274"
 346      2BF47309 
 346      F3EF6872 
 346      214BFC99 
ARM GAS  /tmp/ccvyhaQg.s 			page 28


 346      A24C0ABC 
 347 1111 FB7BBBA6 		.ascii	"\373{\273\246\315\3275\273\277;\341\366\2428\341\275"
 347      CDD735BB 
 347      BF3BE1F6 
 347      A238E1BD 
 348 1121 27DC5EF3 		.ascii	"'\334^\363\316r\237^}\302\215\325\307\313\337m\322\337"
 348      CE729F5E 
 348      7DC28DD5 
 348      C7CBDF6D 
 348      D2DF
 349 1133 FB0C59F9 		.ascii	"\373\014Y\371e\233\372\233\306~\2344\273w\207\357W\231"
 349      659BFA9B 
 349      C67E9C34 
 349      BB7787EF 
 349      5799
 350 1145 3586ACCA 		.ascii	"5\206\254\3125E~\2669\362\323\315\221\037o\216\374p"
 350      35457EB6 
 350      39F2D3CD 
 350      911F6F8E 
 350      FC70
 351 1157 79B1D7A6 		.ascii	"y\261\327\246\316\317\273P\202\370\000\222|\027\230"
 351      CECFBB50 
 351      82F80092 
 351      7C1798
 352 1166 3E02EDF2 		.ascii	">\002\355\362\015\244p\027,\037\005\324V\243\317nH\351"
 352      0DA47017 
 352      2C1F05D4 
 352      56A3CF6E 
 352      48E9
 353 1178 24F12E78 		.ascii	"$\361.x\232\276\357\202\321\2076\314\353$\351.XF\337"
 353      9ABEEF82 
 353      D18736CC 
 353      EB24E92E 
 353      5846DF
 354 118b D347A3FB 		.ascii	"\323G\243\373\263]p\022\350\333~\030}iC\025U\362.\031"
 354      B35D7012 
 354      E8DB7E18 
 354      7D694315 
 354      55F22E19 
 355 119f 47CF51A4 		.ascii	"G\317Q\2441\210\324L\3553\206\305F\205\214\215\255\007"
 355      3188D44C 
 355      ED3386C5 
 355      46858C8D 
 355      AD07
 356 11b1 546C1CF8 		.ascii	"Tl\034\370\336\261q\32076\016|w\332\036\364\223\266"
 356      DEB171D0 
 356      37360E7C 
 356      77DA1EF4 
 356      93B6
 357 11c3 FBF6282F 		.ascii	"\373\366(/\036F)sz\367\342a\231\266\007\367$K\222#H"
 357      1E462973 
 357      7AF7E261 
 357      99B607F7 
 357      244B9223 
 358 11d8 927147B3 		.ascii	"\222qG\263s\237\036Q\0210\3267\002r\314\021\220!\026"
 358      739F1E51 
 358      1130D637 
ARM GAS  /tmp/ccvyhaQg.s 			page 29


 358      0272CC11 
 358      902116
 359 11eb F9737F50 		.ascii	"\371s\177Pg\317\014\037/e\270\3409\270\013(\357\212"
 359      67CF0C1F 
 359      2F65B8E0 
 359      39B80B28 
 359      EF8A
 360 11fd 439B1676 		.ascii	"C\233\026v\222\034\02743\300a\250h\331TE\023\033H\027"
 360      921C1734 
 360      33C061A8 
 360      68D95445 
 360      131B4817 
 361 1211 A167AAFC 		.ascii	"\241g\252\374\242\242\342\312\271\356\031\356\011?."
 361      A2A2E2CA 
 361      B9EE19EE 
 361      093F2E
 362 1220 9EBFB878 		.ascii	"\236\277\270xnUuq\265{F\361\342\332E\263\253\346-.\236"
 362      6E557571 
 362      B57B46F1 
 362      E2DA45B3 
 362      ABE62D2E 
 363 1235 3977C122 		.ascii	"9w\301\"wM\355\234\242\231\304\262\240\250\304\262\270"
 363      774DED9C 
 363      A299C4B2 
 363      A0A8C4B2 
 363      B8
 364 1246 A81416C0 		.ascii	"\250\024\026\300b\230\031<\307]]={\021\270C\026,\232"
 364      6298193C 
 364      C75D5D3D 
 364      7B11B843 
 364      162C9A
 365 1259 3DD3BDD8 		.ascii	"=\323\275\330=\277\306\3723\367\254\332\271Pcs/\236"
 365      3DBFC6FA 
 365      33F7ACDA 
 365      B9506373 
 365      2F9E
 366 126b 5E3DBFC6 		.ascii	"^=\277\306\345\250\236=\247vzU\265\333U\003\325\301"
 366      E5A89E3D 
 366      A7767A55 
 366      B5DB5503 
 366      D5C1
 367 127d B5F316CC 		.ascii	"\265\363\026\314X2\307\226W\263\244\272:\237Xj\226\314"
 367      5832C796 
 367      57B3A4BA 
 367      3A9F586A 
 367      96CC
 368 128f B32EAA9A 		.ascii	"\263.\252\232\345\256\373\177\366j\030F"
 368      E5AEFB7F 
 368      F66A1846 
 369              		.text
 370              		.section	.gnu.lto_chprintf.dd3d4b7064490f47,"",%progbits
 371 0000 789C8551 		.ascii	"x\234\205Q=K\003A\020\235\267w\211I\232X\330\330\205"
 371      3D4B0341 
 371      109DB777 
 371      89499A58 
 371      D8D885
 372 0013 7482E41A 		.ascii	"t\202\344\032k\033\177\200\205\021\264\222\313\231\\"
ARM GAS  /tmp/ccvyhaQg.s 			page 30


 372      6B1B7F80 
 372      8511B492 
 372      CB995C
 373 0022 16121372 		.ascii	"\026\022\023r\327\250E6\020%e\260\023\033\203X[X\330"
 373      D7A84536 
 373      102565B0 
 373      131B8358 
 373      5B58D8
 374 0035 06B111D1 		.ascii	"\006\261\021\321\020\354\254\016\305B\023\324Z\224s"
 374      10ECAC0E 
 374      C54213D4 
 374      5A9473
 375 0044 F78E04FC 		.ascii	"\367\216\004\374\000\007vgg\347\315\2337\273\214\030"
 375      00077667 
 375      67E7CD9B 
 375      37BB8C18 
 376 0054 FDB469B9 		.ascii	"\375\264i\271.@4/=4\002k\337\0205b\014P\007\002\325"
 376      2E40342F 
 376      3D34026B 
 376      DF103562 
 376      0C500702 
 377 0069 19EAAB50 		.ascii	"\031\352\253PP\226\246\216\350\266\275\307\263;\354"
 377      5096A68E 
 377      E8B6BDC7 
 377      B33BEC
 378 0078 8B6EF350 		.ascii	"\213n\363P|\370>\300!igA\026hE\006H\005\216\351\337"
 378      7CF83EC0 
 378      21696741 
 378      16684506 
 378      48058EE9 
 379 008d FBA85AD1 		.ascii	"\373\250Z\321\356\366o\257 \366D\343\315\367\223\034"
 379      EEF66FAF 
 379      20F644E3 
 379      CDF7931C 
 380 009d 1A23E3BF 		.ascii	"\032#\343\277\302\023\326\275\367\375\341\301\347\303"
 380      C213D6BD 
 380      F7FDE1C1 
 380      E7C3
 381 00ab 2BA6E21A 		.ascii	"+\246\342\032\312 ]n\210\222\211#\244\025$BM\311\235"
 381      CA205D6E 
 381      88928923 
 381      A4152442 
 381      4DC99D
 382 00be 32D191F1 		.ascii	"2\321\221\361\350\326\0124g\345\256\006Y\006S^\353\321"
 382      E8D60A34 
 382      67E5AE06 
 382      5906535E 
 382      EBD1
 383 00d0 8EF7CC4D 		.ascii	"\216\367\314M\034#\"\263\333\364.Zb\222C\267\020\300"
 383      1C2322B3 
 383      DBF42E5A 
 383      629243B7 
 383      10C0
 384 00e2 E5CD1647 		.ascii	"\345\315\026Gd\304\024\240\224(\215\210\313\216\324"
 384      64C414A0 
 384      94288D88 
 384      CB8ED4
ARM GAS  /tmp/ccvyhaQg.s 			page 31


 385 00f1 A35D6FF0 		.ascii	"\243]o\360\224\01036\242c\202\011\013\341\333\332\320"
 385      94083336 
 385      A2638209 
 385      0BE1DBDA 
 385      D0
 386 0102 6CE82101 		.ascii	"l\350!\001G\214\350\222X\010\017\205\331!M\323\033\376"
 386      478CE892 
 386      58080F85 
 386      D9214DD3 
 386      1BFE
 387 0114 5611B754 		.ascii	"V\021\267T\243\277Up$\210\256\351|0fS\3119:\025-\365"
 387      A3BF5570 
 387      2488AEE9 
 387      7C306653 
 387      C9393A15 
 388 012a 03D2FAD4 		.ascii	"\003\322\372\3248|\211\217\245\205\257\227\225s\311"
 388      387C898F 
 388      A585AF97 
 388      9573C9
 389 0139 B995B699 		.ascii	"\271\225\266\231L\306X(\362\034_\\2*\216Q4KF\211\347"
 389      4CC65828 
 389      F21C5F5C 
 389      322A8E51 
 389      344B4689 
 390 014e 0CC7ADE5 		.ascii	"\014\307\255\345\315\262cX\305j\215o\270\205\214%\005"
 390      CDB26358 
 390      C56A8D6F 
 390      B8858C25 
 390      05
 391 015f 5793854A 		.ascii	"W\223\205J\255l\272n~}-\267\351\346\235/\021'\201\023"
 391      AD6CBA6E 
 391      7E7D2DB7 
 391      E9E69D2F 
 391      11278113 
 392              		.text
 393              		.section	.gnu.lto_chsnprintf.dd3d4b7064490f47,"",%progbits
 394 0000 789C8D54 		.ascii	"x\234\215TMHTQ\024>\347\276\237Q\307Q\323Z\324\"\304"
 394      4D485451 
 394      143EE7BE 
 394      9F51C751 
 394      D35AD422 
 395 0015 8D58E283 		.ascii	"\215X\342\203\250m\233\010\202\026-R\250\225<\007\033"
 395      A86D9B08 
 395      82162D52 
 395      A8953C07 
 395      1B
 396 0026 2F8E3F38 		.ascii	"/\216?8V`\013\357\214S\015D0HH\277\240\210DA\265\220"
 396      56600BEF 
 396      8C530D44 
 396      304848BF 
 396      A0884441 
 397 003c B0458B29 		.ascii	"\260E\213)\0124\321!\020K\021z\024A1-\214\0121\242\327"
 397      0A34D121 
 397      104B117A 
 397      1441312D 
 397      8C0A31A2 
 398 0051 B9EFCE1B 		.ascii	"\271\357\316\033\307\014\354\300\334{\337\271\347|\337"
ARM GAS  /tmp/ccvyhaQg.s 			page 32


 398      C70CECC0 
 398      DC7BDFB9 
 398      E77CDF
 399 0060 77CEB90C 		.ascii	"w\316\271\014\003\006\177\333q\372\365\350\000\307h"
 399      03067FDB 
 399      71FAF5E8 
 399      00C768
 400 006f C700204B 		.ascii	"\307\000 K\317\003\304K\030\323R\365 \312t\271\226k"
 400      CF03C44B 
 400      18D352F5 
 400      20CA74B9 
 400      966B
 401 0081 A82BB7CE 		.ascii	"\250+\267\316\214\005\213\334\346\323\275\3446\320T"
 401      8C058BDC 
 401      E6D3BDE4 
 401      36D054
 402 0090 6E13511E 		.ascii	"n\023Q\036\000a\220i\272a\342\340i\224\340z\035\214"
 402      00619069 
 402      BA61E2E0 
 402      6994E07A 
 402      1D8C
 403 00a2 894CDA79 		.ascii	"\211L\332y\231[\306\033\"\223\034\025\277\\\027\221"
 403      995BC61B 
 403      22931C15 
 403      BF5C1791 
 404 00b2 23096944 		.ascii	"#\011iD\010#\234\242\017\254\3656\246oV\246r3\357F\256"
 404      08239CA2 
 404      0FACF536 
 404      A66F56A6 
 404      7233EF46 
 405 00c7 A1184DA4 		.ascii	"\241\030M\244\305oJ\345\2501\26062G\325\316vnM\025\303"
 405      C56F4AE5 
 405      A831B036 
 405      3247D5CE 
 405      766E4D15 
 406 00dc 996F2357 		.ascii	"\231o#Ww\027\245\352\014\016\374\017\251Hg~,\316\242"
 406      7717A5EA 
 406      0C0EFC0F 
 406      A948677E 
 406      2CCEA2
 407 00ef 1816F155 		.ascii	"\030\026\361U\327\255\344h08\274]\342#\226y\357\272"
 407      D7ADE468 
 407      3038BC5D 
 407      E2239679 
 407      EFBA
 408 0101 2B8FD73F 		.ascii	"+\217\327?|\306]\325\0106N`\035h\330\205\240\347?L\372"
 408      7CC65DD5 
 408      08364E60 
 408      1D68D885 
 408      A0E73F4C 
 409 0116 C0525A58 		.ascii	"\300RZX\220<w\311\023\002\216f\005-\001B0 I\324\265"
 409      903C77C9 
 409      13028E66 
 409      052D0142 
 409      302049D4 
 410 012b 368ED18D 		.ascii	"6\216\321\215\215\343\264\346\353\370\272x\273\270\216"
 410      8DE3B4E6 
ARM GAS  /tmp/ccvyhaQg.s 			page 33


 410      EBF8BA78 
 410      BBB88E
 411 013a 120647B7 		.ascii	"\022\006G\267\223\243\030\025\013\310X\262fZ\345\230"
 411      93A31815 
 411      0BC858B2 
 411      665AE598 
 412 014a 5A90C95D 		.ascii	"Z\220\311]\233\206\344\227g\353#\232\215\367\320\200"
 412      9B86E497 
 412      67EB239A 
 412      8DF7D080 
 413 015a 086A1268 		.ascii	"\010j\022h\023N\013j\220\252\327\346`(5\264\366\240"
 413      134E0B6A 
 413      90AAD7E6 
 413      602835B4 
 413      F6A0
 414 016c C10FD4FD 		.ascii	"\301\017\324\375X\227\254\222\342f\200\251;E\033\361"
 414      5897AC92 
 414      E26680A9 
 414      3B451BF1 
 415 017c 515AE820 		.ascii	"QZ\350 \231f Q\002\205K\222\221\205\313\316l.\240\222"
 415      99662051 
 415      02854B92 
 415      9185CBCE 
 415      6C2EA092 
 416 0190 002EC04F 		.ascii	"\000.\300O\221\022U\034K\303\350I%\317\000\3072\325"
 416      9112551C 
 416      4BC3E849 
 416      25CF00C7 
 416      32D5
 417 01a2 857C5404 		.ascii	"\205|T\004M\312\315k\344\030\224\264\011g>\207>\365"
 417      4DCACD6B 
 417      E41894B4 
 417      09673E87 
 417      3EF5
 418 01b4 7D8A9548 		.ascii	"}\212\225Hd\223X\310\366,\013\027\235l\347\026\272\362"
 418      649358C8 
 418      F62C0B17 
 418      9D6CE716 
 418      BAF2
 419 01c6 30B20DBA 		.ascii	"0\262\015\272\220\337z/J\022\031\222\250B\246_r\336"
 419      90DF7A2F 
 419      4A121992 
 419      A842A65F 
 419      72DE
 420 01d8 CE9A7EFD 		.ascii	"\316\232~\375\301\002@e\230:\004yH!2w\3364\026\023G"
 420      C1024065 
 420      983A0479 
 420      48213277 
 420      DE341613 
 421 01ed B0546172 		.ascii	"\260Tar\254Rr\013(j4\021YF\026\222\316\322Vq;\302\371"
 421      AC52720B 
 421      286A3411 
 421      59461692 
 421      CED25671 
 422 0204 36FE431C 		.ascii	"6\376C\034\307j\2009H,__{\205\276\254\320~\330G\315"
 422      C76A8039 
 422      482C5F5F 
ARM GAS  /tmp/ccvyhaQg.s 			page 34


 422      7B85BEAC 
 422      D07ED847 
 423 0219 51EC6DE8 		.ascii	"Q\354m\350\017q\032^|\214\207\012A\221\274b\262%@\032"
 423      0F711A5E 
 423      7C8C870A 
 423      4191BC62 
 423      B225401A 
 424 022d 95B63235 		.ascii	"\225\26625\341\267\225}\237B96\003\026,9\366+Ck\017"
 424      E1B7957D 
 424      9F423936 
 424      03162C39 
 424      F62B436B 
 425 0242 F7F8A915 		.ascii	"\367\370\251\025\336\004B\036\361\223\3252\345\276\005"
 425      DE04421E 
 425      F193D532 
 425      E5BE05
 426 0251 37E354F9 		.ascii	"7\343T\371!\2165\024!a\002\036\266<\325l\274#\323{\007"
 426      218E3514 
 426      2161021E 
 426      B63CD56C 
 426      BC23D37B 
 427 0266 73F03C57 		.ascii	"s\360<Wx)\262\234\2030)R\362\377\000$j\321\345x\321"
 427      7829B29C 
 427      83302952 
 427      F2FF0024 
 427      6AD1E578 
 428 027b A5D4FB1A 		.ascii	"\245\324\373\032\342\316\247\316\302\000\024l3=\026"
 428      E2CEA7CE 
 428      C200146C 
 428      333D16
 429 028a 8295236C 		.ascii	"\202\225#lhj\262\216t\3606~\342\244\325\023\263:\354"
 429      686AB28E 
 429      74F0367E 
 429      E2A4D513 
 429      B33AEC
 430 029d A815E56D 		.ascii	"\250\025\345mV\254\277\257\335\356\212Y\341\216\336"
 430      56ACBFAF 
 430      DDEE8A59 
 430      E18EDE
 431 02ac 3EDEDD7F 		.ascii	">\336\335\177\246)L/\265\227u\305\2021>\320\336z\276"
 431      A6294C2F 
 431      B59775C5 
 431      82313ED0 
 431      DE7ABE
 432 02bf A7B5FB6C 		.ascii	"\247\265\373l\324\354k\357?gG5\012\372\003L\246+\310"
 432      D4EC6BEF 
 432      3F674735 
 432      0AFA034C 
 432      A62BC8
 433              		.text
 434              		.section	.gnu.lto_.symbol_nodes.dd3d4b7064490f47,"",%progbits
 435 0000 789C45C8 		.ascii	"x\234E\310\275\016\301`\024\306\361\347\234\363\266"
 435      BD0EC160 
 435      14C6F1E7 
 435      9CF3B6
 436 000f E22A5C9B 		.ascii	"\342*\\\233\3130\235F\023\351$\215\372\210\201\201\311"
 436      CB309D46 
ARM GAS  /tmp/ccvyhaQg.s 			page 35


 436      13E9248D 
 436      FA888181 
 436      C9
 437 0020 C260B361 		.ascii	"\302`\263a\2605\021\223t\3611XD\"\235\030\032}\253\341"
 437      B0351193 
 437      74F13158 
 437      44229D18 
 437      1A7DABE1 
 438 0034 2CBFE77F 		.ascii	",\277\347\177\030\214\004\345q\310\012\2041\240:\012"
 438      188C04E5 
 438      71C80A84 
 438      31A03A0A 
 439 0044 EADC61A5 		.ascii	"\352\334a\2452\307\001q\304\312e\266\363\354\262\312"
 439      32C70171 
 439      C4CA65B6 
 439      F3ECB2CA 
 440 0054 3FA9CF6A 		.ascii	"?\251\317j\276\351yD=V\347_\003V\367WB@s\376Z\210\035"
 440      BEE97944 
 440      3D56E75F 
 440      0356F757 
 440      424073FE 
 441 006b 9BD57A58 		.ascii	"\233\325zX5\204\345.\236Inz{\2729\207\3071k\330w\272"
 441      3584E52E 
 441      9E496E7A 
 441      7BBA3987 
 441      C7316BD8 
 442 0081 4FA28A1D 		.ascii	"O\242\212\035o;\204\035\370\247\214\204\011\223B\203"
 442      6F3B841D 
 442      F8A78C84 
 442      09934283 
 443 0091 AB555CF8 		.ascii	"\253U\\\370g\253\203m!\341Rh0m\335k\370\000\207\217"
 443      67AB836D 
 443      21E15268 
 443      306DDD6B 
 443      F800878F 
 444 00a5 48E9     		.ascii	"H\351"
 445              		.text
 446              		.section	.gnu.lto_.refs.dd3d4b7064490f47,"",%progbits
 447 0000 789C6362 		.ascii	"x\234cb`b`d\200\002\000\000F\000\006"
 447      60626064 
 447      80020000 
 447      460006
 448              		.text
 449              		.section	.gnu.lto_.decls.dd3d4b7064490f47,"",%progbits
 450 0000 789CC559 		.ascii	"x\234\305Y}\220\024G\025\357\236\375\272\345\326\343"
 450      7D901447 
 450      15EF9EFD 
 450      BAE5D6E3 
 451 0010 42258898 		.ascii	"B%\210\230\217%%Z&u\267\202\247u\177P\244\302)G\264"
 451      8F25255A 
 451      2675B782 
 451      A7757F50 
 451      A4C22947 
 452 0025 909488F1 		.ascii	"\220\224\210\361{\235\333\235\273\035k?\216\3359 \376"
 452      7B9DDB9D 
 452      BB1D6B3F 
 452      8EDD3920 
ARM GAS  /tmp/ccvyhaQg.s 			page 36


 452      FE
 453 0036 43F36912 		.ascii	"C\363i\022,\263\200$GQ\341\3564\007$\221\004\216|\201"
 453      2CB38024 
 453      4751E1EE 
 453      34072491 
 453      048E7C81 
 454 004a 47657321 		.ascii	"Ges!\307A\214\200V\210Q \013\022\214\246b\320\210\036"
 454      C7418C80 
 454      56885120 
 454      0B128CA6 
 454      62D0881E 
 455 005e 12585FF7 		.ascii	"\022X_\367\364\354\356\314M\357\316\235\025\235\252"
 455      F4ECEECC 
 455      4DEFCE9D 
 455      159DAA
 456 006d 37D3D3D3 		.ascii	"7\323\323\323\357\365\353\337{\375\346\275\031\011I"
 456      EFF5EBDF 
 456      7BFDE6BD 
 456      190949
 457 007c 68858450 		.ascii	"h\205\204P\001\216?\335\204\320t7B\036\204\320\\ h\""
 457      018E3FDD 
 457      84D07437 
 457      421E84D0 
 457      5C206822 
 458 0090 2FD2EF69 		.ascii	"/\322\357i\273\017\351\207\017\250\037h?P\015F\250\036"
 458      BB0FE987 
 458      0FA81F68 
 458      3F500D46 
 458      A81E
 459 00a2 E846A09B 		.ascii	"\350F\240\233\200n\306h\314\321\317y(\325\001\005\270"
 459      806EC668 
 459      CCD1CF79 
 459      28D50105 
 459      B8
 460 00b3 BC9D40BB 		.ascii	"\274\235@\273\370\034\364\300|,}\266\007h\000\350Y\240"
 460      F81CF4C0 
 460      7C2C7DB6 
 460      076800E8 
 460      59A0
 461 00c5 A72DF2E8 		.ascii	"\247-\362\350\274A>\316\220g\310\232\203uyw\300\365"
 461      BC413ECE 
 461      9067C89A 
 461      83757977 
 461      C0F5
 462 00d7 25B8E669 		.ascii	"%\270\346i\233\317M\327\361O\240K|\256\203@\203@w\302"
 462      9BCF4DD7 
 462      F14FA04B 
 462      7CAE8340 
 462      834077C2 
 463 00eb CD21B89E 		.ascii	"\315!\270\236\005\232\007\3559|\375-\320\376\002\320"
 463      059A07ED 
 463      397CFD2D 
 463      D0FE02D0 
 464 00fb 17815A81 		.ascii	"\027\201Z\201\026\000\355\200\376\273\340\372% \027"
 464      1600ED80 
 464      FEBBE0FA 
 464      252017
ARM GAS  /tmp/ccvyhaQg.s 			page 37


 465 010a B48780DE 		.ascii	"\264\207\200\336\004jE\372=\325\355\313X_\307$\332\007"
 465      046A45FA 
 465      3DD5EDCB 
 465      585FC724 
 465      DA07
 466 011c 6D0CB404 		.ascii	"m\014\264\004\310\003t\017\3207\200\276\011\364-\240"
 466      C803740F 
 466      D03780BE 
 466      09F42DA0 
 467 012c 6F037DC7 		.ascii	"o\003}\307\202\031\305\264\026\256\243\026\274\276\013"
 467      8219C5B4 
 467      16AEA316 
 467      BCBE0B
 468 013b FD32D0F7 		.ascii	"\3752\320\367\200\332\200\016@_\004\256Q\316\357\346"
 468      80DA800E 
 468      405F04AE 
 468      51CEEFE6 
 469 014b BCD40E54 		.ascii	"\274\324\016T\017j\0230-\372\010\\\353,sP\233]o\231"
 469      0F6A1330 
 469      2DFA085C 
 469      EB2C7350 
 469      9B5D6F99 
 470 015f E356ACDB 		.ascii	"\343V\254\333\330\315\261\332\311\361i\207\376\031@"
 470      D8CDB1DA 
 470      C9F16987 
 470      FE1940
 471 016e B7E0CA3A 		.ascii	"\267\340\312:\354\342\2706a\235\277\236\373C\271>\024"
 471      ECE2B836 
 471      619DBF9E 
 471      FB43B93E 
 471      14
 472 017f A369709D 		.ascii	"\243ip\235\0124\335\242\223\037\335G\310j\322\273\236"
 472      0A34DDA2 
 472      931FDD47 
 472      C86AD2BB 
 472      9E
 473 0190 2C18A9A3 		.ascii	",\030\251\2430\311\270\316\017\226\246\215\200\237\251"
 473      30C9B8CE 
 473      0F96A68D 
 473      809FA9
 474 019f 35133D4A 		.ascii	"5\023=JH6\277\356\235\313\022!52\356\303~X\342:@\370"
 474      4836BFEE 
 474      9DCB1221 
 474      3532EEC3 
 474      7E58E23A 
 475 01b5 36F41881 		.ascii	"6\364\030\201G \340S\022\032{\310\330\343\037s/\343"
 475      4720E053 
 475      121A7BC8 
 475      D8E31F73 
 475      2FE3
 476 01c7 47F16D48 		.ascii	"G\361mH\237\211=\346\015\272\031&\303z\321v\222\273"
 476      9F893DE6 
 476      0DBA1926 
 476      C37AD176 
 476      92BB
 477 01d9 987FFDE8 		.ascii	"\230\177\375\350\216\233\267\222\334ZR(\254DS\321\026"
 477      8E9BB792 
ARM GAS  /tmp/ccvyhaQg.s 			page 38


 477      DC5A5228 
 477      AC4453D1 
 477      16
 478 01ea 9886EA48 		.ascii	"\230\206\352H\260V\213\036()\314\265\317\367\223i\323"
 478      B0568B1E 
 478      2829CCB5 
 478      CFF79369 
 478      D3
 479 01fb 8ACAD718 		.ascii	"\212\312\327\030\312cCy\252\242$\343]L\361\203\330f"
 479      CA634379 
 479      AAA224E3 
 479      5D4CF183 
 479      D866
 480 020d BBE8EAD1 		.ascii	"\273\350\352\321\001\210\253\244\267\215V\001\333cC"
 480      0188ABA4 
 480      B78D5601 
 480      DB6343
 481 021c B976E25A 		.ascii	"\271v\342ZC\204h\310\016<\225\265\\\31478O\361\306\353"
 481      438468C8 
 481      0E3C95B5 
 481      5CCC3738 
 481      4FF1C6EB 
 482 0230 373DF398 		.ascii	"7=\363\230o\365\2472^\342*j*\241!X\204\201$=>\201~N"
 482      6FF5A732 
 482      5EE22A6A 
 482      2AA12158 
 482      8481243D 
 483 0248 C8267242 		.ascii	"\310&rBY\240\313\226\320\0316\242\037\337b\253\024\327"
 483      59A0CB96 
 483      D01936A2 
 483      1FDF62AB 
 483      14D7
 484 025a 9AB16573 		.ascii	"\232\261es\217\\=\212\311\0246\225\204\362U\030\251"
 484      8F5C3D8A 
 484      C9143695 
 484      84F25518 
 484      A9
 485 026b 3EFA74B9 		.ascii	">\372t\271\236\335\2570>\017\345;_\205\317\343/\316"
 485      9EDDAF30 
 485      3E0FE53B 
 485      5F85CFE3 
 485      2FCE
 486 027d B7B77CBE 		.ascii	"\267\267|\276\2778\230\017\241O\242~\260tn\333\345\221"
 486      BF38980F 
 486      A14FA27E 
 486      B0746EDB 
 486      E591
 487 028f 3EC6AA83 		.ascii	">\306\252\203.\346\343\300?\205M\216I\275+\1771\367"
 487      2EE6E3C0 
 487      3F854D8E 
 487      49BD2B7F 
 487      31F7
 488 02a1 FE61987F 		.ascii	"\376a\230\177\023\371\240Pp\231\235K\306n\277\320\210"
 488      13F9A050 
 488      70999D4B 
 488      C66EBFD0 
 488      88
ARM GAS  /tmp/ccvyhaQg.s 			page 39


 489 02b2 07CC4634 		.ascii	"\007\314F49\342\024\264\221I\361V\331D\257\035\373\365"
 489      39E214B4 
 489      9149F156 
 489      D944AF1D 
 489      FBF5
 490 02c4 2CB6890E 		.ascii	",\266\211\016\342) \246[2\233\261\252\030\252G\016X"
 490      E22920A6 
 490      5B329BB1 
 490      AA18AA47 
 490      0E58
 491 02d6 7526DDB9 		.ascii	"u&\335\271s\373\206\003\304\255\367#\2238\3231\003\365"
 491      73FB8603 
 491      C4ADF723 
 491      9338D331 
 491      03F5
 492 02e8 52049F1B 		.ascii	"R\004\237\033\376\305\307H\357\020\266U\0370(\233\231"
 492      FEC5C748 
 492      EF10B655 
 492      1F30289B 
 492      99
 493 02f9 6063EA7A 		.ascii	"`c\352z\346t\273A[>2(\034&\343\227\001s\031\017[\265"
 493      E674BB41 
 493      5B3E3228 
 493      1C26E397 
 493      0173190F 
 494 030f DCB89E69 		.ascii	"\334\270\236i9\354H\313\315\303G\300B\001\223\222\026"
 494      39EC48CB 
 494      CDC347C0 
 494      42019392 
 494      16
 495 0320 4BD13024 		.ascii	"K\3210$\202\350\250u\277\335Qkk\266b\374\310M\353\256"
 495      82E8A875 
 495      BFDD516B 
 495      6BB662FC 
 495      C84DEBAE 
 496 0334 AB1040B2 		.ascii	"\253\020@\262\371m\017\355\276\035\014W\026pD\0142>"
 496      F96D0FED 
 496      BE1D0C57 
 496      1670440C 
 496      323E
 497 0346 8667C219 		.ascii	"\206g\302\031\233c]1\234\360h\"\241\375.\263\361\035"
 497      9B635D31 
 497      9CF06822 
 497      A1FD2EB3 
 497      F11D
 498 0358 C8E6CA6C 		.ascii	"\310\346\312l\336\276\275\231y\321oXD\033v\233\005\361"
 498      DEBEBD99 
 498      79D16F58 
 498      441B769B 
 498      05F1
 499 036a C98A4755 		.ascii	"\311\212GU]\3063V\004\371\253\245(X\016|\037\036\033"
 499      5DC63356 
 499      04F9ABA5 
 499      28580E7C 
 499      1F1E1B
 500 037d BE44228E 		.ascii	"\276D\"\216\224DH\3508[\024\365\026\273\341\274i\222"
 500      944448E8 
ARM GAS  /tmp/ccvyhaQg.s 			page 40


 500      385B14F5 
 500      16BBE1BC 
 500      6992
 501 038f 67F220D8 		.ascii	"g\362 \330i\207f\3217\210k\242>\364\206C\037\222\361"
 501      698766D1 
 501      37886BA2 
 501      3EF48643 
 501      1F92F1
 502 03a2 F10A524E 		.ascii	"\361\012RN\375\367\260\374\256\034\226\223\343\206%"
 502      FDF7B0FC 
 502      AE1C9693 
 502      E38625
 503 03b1 580E0B19 		.ascii	"X\016\013\031 \304\357\025C\302|\2208H\007z\377u\341"
 503      20C4EF15 
 503      43C27C90 
 503      3848077A 
 503      FF75E1
 504 03c4 6D17F3C1 		.ascii	"m\027\363\301s\314\0077yl\234\331\221\240m'o\240q\341"
 504      73CC0737 
 504      796C9CD9 
 504      91A06D27 
 504      6FA071E1 
 505 03d8 2D26A67B 		.ascii	"-&\246{\242b\362\233\317<\247\357\211\267\231\240^\217"
 505      A262F29B 
 505      CF3CA7EF 
 505      89B799A0 
 505      5E8F
 506 03ea 754F782D 		.ascii	"uOx-{\302k\366s\270\2453\215\322<\004\257\344=\364\306"
 506      7BC26BF6 
 506      73B8A533 
 506      8DD23C04 
 506      AFE43DF4 
 507 03ff 87FEE77C 		.ascii	"\207\376\347|\"O8+vI\335\013\235\272T\276\334\245\036"
 507      224F382B 
 507      7649DD0B 
 507      9DBA54BE 
 507      DCA51E
 508 0412 F73870A9 		.ascii	"\3678p\251\232ry\250\334\245\234\355\264s\025\366\310"
 508      9A7279A8 
 508      DCA59CED 
 508      B47315F6 
 508      C8
 509 0423 459B6539 		.ascii	"E\233e9Z\306{\345\313xr\334\313\010\"\363a\230G\306"
 509      5AC67BE5 
 509      CB7872DC 
 509      CB0822F3 
 509      619847C6 
 510 0437 2378069C 		.ascii	"#x\006\234_g\3477\331\371\257p\256\252\317K\345\372"
 510      5F67E737 
 510      D9F9AF70 
 510      AEAACF4B 
 510      E5FA
 511 0449 0C307D72 		.ascii	"\0140}r\343\017`vG\371[_\306/\262\027\314\220\023\225"
 511      E30F6076 
 511      47F95B5F 
 511      C62FB217 
 511      CC901395 
ARM GAS  /tmp/ccvyhaQg.s 			page 41


 512 045d 064B2A4D 		.ascii	"\006K*M\360\005(\343\307\330t\023K\216/\331\305?\247"
 512      F00528E3 
 512      C7D87413 
 512      4B8E2FD9 
 512      C53FA7
 513 0470 D9D2E977 		.ascii	"\331\322\351w\216\337\370<!\3652\036e\351\322~\3578"
 513      8EDFF83C 
 513      21F5321E 
 513      65E9D27E 
 513      EF38
 514 0482 D3255D4E 		.ascii	"\323%]Nn\357\2738(\343+L\306\213^k`\230?\305\214\364"
 514      6EEFBB38 
 514      28E32B4C 
 514      C68B5E6B 
 514      60983FC5 
 515 0498 7C73E292 		.ascii	"|s\342\222?\261\214dkX\267\204Ny\205\305C\353\014\301"
 515      3FB18C64 
 515      6B58B784 
 515      4E7985C5 
 515      43EB0CC1 
 516 04ac 83F925C3 		.ascii	"\203\371%\303]cHZFZR\373\013^\273\324\036*\242\017N"
 516      5D63485A 
 516      465A52FB 
 516      0B5EBBD4 
 516      1E2AA20F 
 517 04c1 E09FAE21 		.ascii	"\340\237\256!\013t\233J\350\"\033\267_\2307\017\026"
 517      0B749B4A 
 517      E8221BB7 
 517      5F98370F 
 517      16
 518 04d2 13FC4DE4 		.ascii	"\023\374M\3444\255\013.1\266\177Ta\273T\252\013\310"
 518      34AD0B2E 
 518      31B67F54 
 518      61BB54AA 
 518      0BC8
 519 04e4 C3C3812C 		.ascii	"\303\303\201,6\300\037\255\3028\312\022;=Q'\344\211"
 519      36C01FAD 
 519      C238CA12 
 519      3B3D5127 
 519      E489
 520 04f6 F5EBEADD 		.ascii	"\365\353\352\335,\235F\025\270\370\372\2114&K\357\315"
 520      2C9D4615 
 520      B8F8FA89 
 520      34264BEF 
 520      CD
 521 0507 E7067F1B 		.ascii	"\347\006\177\033\310\256\312\027\012=A\3479\372\375"
 521      C8AECA17 
 521      0A3D41E7 
 521      39FAFD
 522 0516 9225940C 		.ascii	"\222%\224\014\226\027Zfg\204\336+\266X\223\255\012G"
 522      96175A66 
 522      6784DE2B 
 522      B65893AD 
 522      0A47
 523 0528 59C6AB25 		.ascii	"Y\306\253%\232\314\336'9A\371\017\006\3122^[\205\215"
 523      9ACCDE27 
 523      3941F90F 
ARM GAS  /tmp/ccvyhaQg.s 			page 42


 523      06CA325E 
 523      5B858D
 524 053b 6B620B96 		.ascii	"kb\013\226\210\213/\361\307\266`\375\376\344\370\301"
 524      888B2FF1 
 524      C7B660FD 
 524      FEE4F8C1 
 525 054b DA6805CB 		.ascii	"\332h\005\313T\225\362\024E\014\336Z\237-x\247\243\305"
 525      5495F214 
 525      450CDE5A 
 525      9F2D78A7 
 525      A3C5
 526 055d 1AF44136 		.ascii	"\032\364A6\"+Dag\031x[(x\372\247\205\315U\330\230f\234"
 526      222B4461 
 526      6719785B 
 526      2878FAA7 
 526      85CD55D8 
 527 0574 ED0D2BE6 		.ascii	"\355\015+\346b\266J\230\213\2708R[\314\230\337\203]"
 527      62B64A98 
 527      8BB83852 
 527      5BCC98DF 
 527      835D
 528 0586 0FBBE9B9 		.ascii	"\017\273\351\271\333\255\227\224\331\374\337\376=:\275"
 528      DBAD9794 
 528      D9FCDFFE 
 528      3D3ABD
 529 0595 7B80ACBD 		.ascii	"{\200\254\275\237\\+\254\304\026\033\314\275Ah\203\036"
 529      9F5C2BAC 
 529      C4161BCC 
 529      BD416883 
 529      1E
 530 05a6 A96A5159 		.ascii	"\251jQY^k\365\026k-\372!\211\207\267g\206ix\373\231"
 530      5E6BF516 
 530      6B2DFA21 
 530      8987B767 
 530      866978FB 
 531 05bb 4477E921 		.ascii	"Dw\351!\237m\210\024\313`E\264d\251\325\036\321+J\332"
 531      9F6D8814 
 531      CB6045B4 
 531      64A9D51E 
 531      D12B4ADA 
 532 05cf 5FBD56DB 		.ascii	"_\275V\333\273\276g\242\025\345\011\237\243\212\362"
 532      BBBE67A2 
 532      15E5099F 
 532      A38AF2
 533 05de 7166D927 		.ascii	"qf\331'\254Z^\221\203zou\035\257\276\032\310\312z\205"
 533      AC5A5E91 
 533      837A6F75 
 533      1DAFBE1A 
 533      C8CA7A85 
 534 05f2 21E393D8 		.ascii	"!\343\223\330\0207\241\322B\317\241\365\274\\\306g\306"
 534      1037A1D2 
 534      42CFA1F5 
 534      BC5CC667 
 534      C6
 535 0603 2D2C6827 		.ascii	"-,h',\317\204\275\353D\2308\0253\204\275\307\204\375"
 535      2CCF84BD 
 535      EB449838 
ARM GAS  /tmp/ccvyhaQg.s 			page 43


 535      153384BD 
 535      C784FD
 536 0616 7DDCC282 		.ascii	"}\334\302\202\026\360J\011\321n\211&AO\262\363S\354"
 536      16F04A09 
 536      D16E8926 
 536      414FB2F3 
 536      53EC
 537 0628 BC477290 		.ascii	"\274Gr\220}\354\222jK\262\336g\372\364O\024\366\334"
 537      7DEC926A 
 537      4BB2DE67 
 537      FAF44F14 
 537      F6DC
 538 063a C030B3E1 		.ascii	"\3000\263\341)\375\363\026\363\363\361\010\263\205\275"
 538      29FDF316 
 538      F3F3F108 
 538      B385BD
 539 0649 8F55BB5B 		.ascii	"\217U\273[%\007\232U\207]\217^o9\321\314\016v;a\177"
 539      25079A55 
 539      875D8F5E 
 539      6F39D1CC 
 539      0E763B61 
 540 065e 7622ACDE 		.ascii	"v\"\254\336F3\273\243|\243\313x\207Ds\221\235\314\230"
 540      4633BBA3 
 540      7CA3CB78 
 540      87447391 
 540      9DCC98
 541 0671 7BD9791F 		.ascii	"{\331y\037;?\315\316\317:1o\237dM.\213\005\257\3605"
 541      3B3FCDCE 
 541      CF3A316F 
 541      9F644D2E 
 541      8B05AFF0 
 542 0686 6257F942 		.ascii	"bW\371B2c\011[\206\302\2774\007\336\032\364#\226\256"
 542      3263095B 
 542      86C2BF34 
 542      07DE1AF4 
 542      2396AE
 543 0699 AE23ABF0 		.ascii	"\256#\253\360\322\012\237H\370\007\337A\251\006d_\365"
 543      D20A9F48 
 543      F807DF41 
 543      A906645F 
 543      F5
 544 06aa 0973363A 		.ascii	"\011s6:\300X\240\3366Z\300r\035\312\262\300\324]\247"
 544      C058A0DE 
 544      365AC072 
 544      1DCAB2C0 
 544      D45DA7
 545 06bd A7B97CB6 		.ascii	"\247\271|\266\357\033\263\005\270\220\027\244\353X\313"
 545      EF1BB305 
 545      B89017A4 
 545      EB58CB
 546 06cc 54ABB211 		.ascii	"T\253\262\021\"\334rR)\225\016\370K\015\003\315b$\315"
 546      22DC7252 
 546      29950EF8 
 546      4B0D03CD 
 546      6224CD
 547 06df 3149B4EC 		.ascii	"1I\264\354sP\311Y\276JP\265D\\C\222\210\213\276\222"
 547      7350C959 
ARM GAS  /tmp/ccvyhaQg.s 			page 44


 547      BE4A50B5 
 547      445C4392 
 547      888BBE92 
 548 06f3 85E58D80 		.ascii	"\205\345\215\200K\000T\263\301\357\343\374/\217\033"
 548      4B0054B3 
 548      C1EFE3FC 
 548      2F8F1B
 549 0702 A8610150 		.ascii	"\250a\001P\306\337+\021\337!\341\372\274\342\311\016"
 549      C6DF2B11 
 549      DF21E1FA 
 549      BCE2C90E 
 550 0712 0B997654 		.ascii	"\013\231vT0\300\210\220\313'\236\352\210\220\311S\341"
 550      30C08890 
 550      CB279EEA 
 550      8890C953 
 550      E1
 551 0723 A36689C9 		.ascii	"\243f\211\311\370K\362\300\341\263x\343\0322B.\026\012"
 551      F84BF2C0 
 551      E1B378E3 
 551      1A32422E 
 551      160A
 552 0735 93AD995F 		.ascii	"\223\255\231_%S\376\252b\352g\373C\302\262c\327\324"
 552      2553FEAA 
 552      62EA67FB 
 552      43C2B263 
 552      D7D4
 553 0747 D8667F97 		.ascii	"\330f\177\227\215\354\017\202\012\213\367\2578\310\376"
 553      8DEC0F82 
 553      0A8BF7AF 
 553      38C8FE
 554 0756 B27AC6CD 		.ascii	"\262z\306\315\276\220\354\253\302U\372\375@^\243L\354"
 554      BE90ECAB 
 554      C255FAFD 
 554      405EA34C 
 554      EC
 555 0767 97D23355 		.ascii	"\227\3223U\230<e\377\020\310\301\363w/(\375@\0201q\240"
 555      983C65FF 
 555      10C8C1F3 
 555      772F28FD 
 555      40103171 
 556 077c 8E9B0350 		.ascii	"\216\233\003P\020\365\320\214\353\205EA\226\325IhC\215"
 556      10F5D08C 
 556      EB854541 
 556      96D54968 
 556      438D
 557 078e 5115191C 		.ascii	"Q\025\031\034\223pq\330\351c\253{\261>\022\231F\225"
 557      937071D8 
 557      E963AB7B 
 557      B13E1299 
 557      4695
 558 07a0 243DFF13 		.ascii	"$=\377\0232I\252<\342\301j#\366T\035qmC\265\021\017"
 558      3249AA3C 
 558      E2C16A23 
 558      F6541D71 
 558      6D43B511 
 559 07b5 89F5A8F4 		.ascii	"\211\365\250\364Y\247Bf{\306\354b\001\264\241\334\317"
 559      59A74266 
ARM GAS  /tmp/ccvyhaQg.s 			page 45


 559      7BC6EC62 
 559      01B4A1DC 
 559      CF
 560 07c6 E7DBBFD1 		.ascii	"\347\333\277\321XH\223\002\310r"
 560      58489302 
 560      C872
 561 07d0 88869E16 		.ascii	"\210\206\236\026\356\243Q\301w\027\366\031M\310u\240"
 561      EEA351C1 
 561      7717F619 
 561      4DC875A0 
 562 07e0 C2463F27 		.ascii	"\302F?'\340r\216\310y\353\246\243+u\364\241\353\217"
 562      E0728EC8 
 562      79EBA6A3 
 562      2B75F4A1 
 562      EB8F
 563 07f2 428D69FD 		.ascii	"B\215i\375 \342\272P\342B\253p(\331\236\241\364\271"
 563      20E2BA50 
 563      E242AB70 
 563      28D99EA1 
 563      F4B9
 564 0804 502C9550 		.ascii	"P,\225PBi%\243\310\351H,\024\223\323\321\345rZ\011\311"
 564      426925A3 
 564      C8E9482C 
 564      1493D3D1 
 564      E5725A09 
 565 0819 E9C4EC50 		.ascii	"\351\304\354PG$\322\000\215\006%\321\246D\243J\264\330"
 565      4724D200 
 565      8D0625D1 
 565      A644A34A 
 565      B4D8
 566 082b 914C2595 		.ascii	"\221L%\225\006EnS\033\232\302\315\015\263?3\253i\351"
 566      06456E53 
 566      1B9AC2CD 
 566      0DB33F33 
 566      AB69E9
 567 083e EC505C6D 		.ascii	"\354P\\m\243\003B\246\001\241\246\306\346\306\246\220"
 567      A30342A6 
 567      01A1A6C6 
 567      E6C6A690 
 568 084e 9A8CC4BB 		.ascii	"\232\214\304\273\242J(\243\201\234\366\306\030\362f"
 568      A24A28A3 
 568      819CF6C6 
 568      18F266
 569 085d D41F2A61 		.ascii	"\324\037*a\315\333\372\225%\301\026\364\351\306\306"
 569      CDDBFA95 
 569      25C116F4 
 569      E9C6C6
 570 086c 504B4C6D 		.ascii	"PKLmS\027-\016\2452\240E\234I\313hiENdB\221XgZMj\355"
 570      53172D0E 
 570      A532A045 
 570      9C49CB68 
 570      69454E64 
 571 0888 8D11E48E 		.ascii	"\215\021\344\216\200\212\037\217\247\222\035a-\025\206"
 571      808A1F8F 
 571      A7921D61 
 571      2D1586
 572 0897 012AB496 		.ascii	"\001*\264\226\253Z,\034U\227\251\231T\032w\272\222]"
ARM GAS  /tmp/ccvyhaQg.s 			page 46


 572      AB5A2C1C 
 572      5597A999 
 572      541A77BA 
 572      925D
 573 08a9 094F5A8E 		.ascii	"\011OZ\216\252+|\274o\246Y|Z+\352\023\211\3619@\245"
 573      AA2B7CBC 
 573      6FA6597C 
 573      5A2BEA13 
 573      89F13940 
 574 08be EBE7C919 		.ascii	"\353\347\311\031e\261\262\264KIj\252\034_\314\036|\324"
 574      65B1B2B4 
 574      4B496AAA 
 574      1C5FCC1E 
 574      7CD4
 575 08d0 AEF3EB0B 		.ascii	"\256\363\353\013\277\226\3710\0204#W\206\031,\036\024"
 575      BF96F930 
 575      10342357 
 575      86192C1E 
 575      14
 576 08e1 F475C1B5 		.ascii	"\364u\301\2659\254\255\371P\314g?yB\216\304\324\244"
 576      39ACADF9 
 576      50CC673F 
 576      79428EC4 
 576      D4A4
 577 08f3 120A83D9 		.ascii	"\022\012\203\331\344\256\270\026\326\356\355T(Z\376"
 577      E4AEB816 
 577      D6EEED54 
 577      285AFE
 578 0902 7098ABE3 		.ascii	"p\230\253\343Y\236V5\305\015\300D??\006\350\316TZ\313"
 578      599E5635 
 578      C50DC044 
 578      3F3F06E8 
 578      CE545ACB 
 579 0916 84EEFCEA 		.ascii	"\204\356\374\352\302\226\205+B\221T\242S\215+\351L\250"
 579      C296852B 
 579      429154A2 
 579      538D2BE9 
 579      4CA8
 580 0928 B5A505B0 		.ascii	"\265\245\005\2607dy\022\0310\247\017\304}vvX\003\311"
 580      37647912 
 580      1930A70F 
 580      C47D7676 
 580      5803C9
 581 093b BCE5EAEC 		.ascii	"\274\345\352\354\322\\\035\212\346Z\226\320\376\257"
 581      D25C1D8A 
 581      E65A96D0 
 581      FEAF
 582 0949 3E2BA73B 		.ascii	">+\247;(\376\313\344p\\\315hu\341pG\262+\022\346\267"
 582      28FECBE4 
 582      705CCD68 
 582      75E17047 
 582      B22B12E6 
 583 095e B573DABA 		.ascii	"\265s\332\272\324\270\326\240&\347RTx\257?\022[\246"
 583      D4B8D6A0 
 583      26E75254 
 583      78AF3F12 
 583      5BA6
ARM GAS  /tmp/ccvyhaQg.s 			page 47


 584 0970 7BAD0BDC 		.ascii	"{\255\013\334\327\325\236\320$\271\263\306\360\344I"
 584      D7D59ED0 
 584      24B9B3C6 
 584      F0E449
 585 097f E07849FE 		.ascii	"\340xI\376\030<\320Mw\303\355\2257ABI\224|5\260PI\244"
 585      183CD04D 
 585      77C3ED95 
 585      37414249 
 585      947C35B0 
 586 0996 D2F7EAEE 		.ascii	"\322\367\352\356Ho\212\216\351m\353joW\322.%\225\361"
 586      486F8A8E 
 586      E96DEB6A 
 586      6F57D22E 
 586      2595F1
 587 09a9 A6DADB33 		.ascii	"\246\332\3333\212\026Hd\026\265\375@\211hw%U\315\023"
 587      8A164864 
 587      16B5FD40 
 587      89687725 
 587      55CD13
 588 09bc 9E974AC5 		.ascii	"\236\227J\305}\221X8\256\245\344\311]\311\214\332\221"
 588      7D915838 
 588      AEA5E4C9 
 588      5DC98CDA 
 588      91
 589 09cd 54A26130 		.ascii	"T\242a0M\"\225\374\017\320\324\302\307"
 589      4D2295FC 
 589      0FD0D4C2 
 589      C7
 590              		.text
 591              		.section	.gnu.lto_.symtab.dd3d4b7064490f47,"",%progbits
 592 0000 63687670 		.ascii	"chvprintf\000\000\000\000\000\000\000\000\000\000\000"
 592      72696E74 
 592      66000000 
 592      00000000 
 592      00000000 
 593 0014 00B90000 		.ascii	"\000\271\000\000\000chprintf\000\000\000\000\000\000"
 593      00636870 
 593      72696E74 
 593      66000000 
 593      000000
 594 0027 00000000 		.ascii	"\000\000\000\000\000\000\010\001\000\000chsnprintf\000"
 594      00000801 
 594      00006368 
 594      736E7072 
 594      696E7466 
 595 003c 00000000 		.ascii	"\000\000\000\000\000\000\000\000\000\000\000\020\001"
 595      00000000 
 595      00000010 
 595      01
 596 0049 00006D73 		.ascii	"\000\000msObjectInit\000\000\002\000\000\000\000\000"
 596      4F626A65 
 596      6374496E 
 596      69740000 
 596      02000000 
 597 005f 00000000 		.ascii	"\000\000\000\000\036\001\000\000"
 597      1E010000 
 598              		.text
ARM GAS  /tmp/ccvyhaQg.s 			page 48


 599              		.section	.gnu.lto_.opts,"",%progbits
 600 0000 272D6D63 		.ascii	"'-mcpu=cortex-m4' '-mno-thumb-interwork' '-mthumb' "
 600      70753D63 
 600      6F727465 
 600      782D6D34 
 600      2720272D 
 601 0033 272D6767 		.ascii	"'-ggdb' '-O2' '-fomit-frame-pointer' '-falign-funct"
 601      64622720 
 601      272D4F32 
 601      2720272D 
 601      666F6D69 
 602 0066 696F6E73 		.ascii	"ions=16' '-ffunction-sections' '-fdata-sections' '-"
 602      3D313627 
 602      20272D66 
 602      66756E63 
 602      74696F6E 
 603 0099 666E6F2D 		.ascii	"fno-common' '-flto'\000"
 603      636F6D6D 
 603      6F6E2720 
 603      272D666C 
 603      746F2700 
 604              		.text
 605              		.cfi_sections	.debug_frame
 606              		.section	.text.long_to_string_with_divisor.constprop.0,"ax",%progbits
 607              		.align	2
 608              		.p2align 4,,15
 609              		.thumb
 610              		.thumb_func
 611              		.type	long_to_string_with_divisor.constprop.0, %function
 612              	long_to_string_with_divisor.constprop.0:
 613              	.LFB277:
 614              		.file 1 "../ChibiOS/os/hal/lib/streams/chprintf.c"
 615              		.loc 1 37 0
 616              		.cfi_startproc
 617              		@ args = 0, pretend = 0, frame = 0
 618              		@ frame_needed = 0, uses_anonymous_args = 0
 619              		@ link register save eliminated.
 620              	.LVL0:
 621 0000 F0B4     		push	{r4, r5, r6, r7}
 622              		.cfi_def_cfa_offset 16
 623              		.cfi_offset 4, -16
 624              		.cfi_offset 5, -12
 625              		.cfi_offset 6, -8
 626              		.cfi_offset 7, -4
 627              		.loc 1 52 0
 628 0002 00F10B07 		add	r7, r0, #11
 629              	.LVL1:
 630 0006 00F10A05 		add	r5, r0, #10
 631 000a 0C46     		mov	r4, r1
 632              	.LVL2:
 633              	.L4:
 634              		.loc 1 54 0
 635 000c B1FBF2F6 		udiv	r6, r1, r2
 636 0010 02FB1611 		mls	r1, r2, r6, r1
 637              	.LVL3:
 638              		.loc 1 55 0
 639 0014 01F13003 		add	r3, r1, #48
ARM GAS  /tmp/ccvyhaQg.s 			page 49


 640              	.LVL4:
 641              		.loc 1 56 0
 642 0018 392B     		cmp	r3, #57
 643              		.loc 1 57 0
 644 001a C8BF     		it	gt
 645 001c 01F13703 		addgt	r3, r1, #55
 646              	.LVL5:
 647              		.loc 1 58 0
 648 0020 DBB2     		uxtb	r3, r3
 649              	.LVL6:
 650              		.loc 1 60 0
 651 0022 B4FBF2F4 		udiv	r4, r4, r2
 652              	.LVL7:
 653              		.loc 1 59 0
 654 0026 3146     		mov	r1, r6
 655              	.LVL8:
 656              		.loc 1 58 0
 657 0028 2E46     		mov	r6, r5
 658              	.LVL9:
 659 002a 05F80139 		strb	r3, [r5], #-1
 660              	.LVL10:
 661              		.loc 1 60 0
 662 002e 002C     		cmp	r4, #0
 663 0030 ECD1     		bne	.L4
 664              	.LVL11:
 665              		.loc 1 62 0
 666 0032 B91B     		subs	r1, r7, r6
 667              	.LVL12:
 668 0034 3246     		mov	r2, r6
 669              	.LVL13:
 670 0036 0144     		add	r1, r1, r0
 671 0038 01E0     		b	.L6
 672              	.LVL14:
 673              	.L9:
 674 003a 12F8013F 		ldrb	r3, [r2, #1]!	@ zero_extendqisi2
 675              	.LVL15:
 676              	.L6:
 677              		.loc 1 64 0
 678 003e 00F8013B 		strb	r3, [r0], #1
 679              	.LVL16:
 680              		.loc 1 65 0
 681 0042 8842     		cmp	r0, r1
 682 0044 F9D1     		bne	.L9
 683              		.loc 1 68 0
 684 0046 F0BC     		pop	{r4, r5, r6, r7}
 685              	.LVL17:
 686 0048 7047     		bx	lr
 687              		.cfi_endproc
 688              	.LFE277:
 689              		.size	long_to_string_with_divisor.constprop.0, .-long_to_string_with_divisor.constprop.0
 690 004a 00BFAFF3 		.section	.text.chvprintf,"ax",%progbits
 690      0080
 691              		.align	2
 692              		.p2align 4,,15
 693              		.global	chvprintf
 694              		.thumb
 695              		.thumb_func
ARM GAS  /tmp/ccvyhaQg.s 			page 50


 696              		.type	chvprintf, %function
 697              	chvprintf:
 698              	.LFB274:
 699              		.loc 1 121 0
 700              		.cfi_startproc
 701              		@ args = 0, pretend = 0, frame = 32
 702              		@ frame_needed = 0, uses_anonymous_args = 0
 703              	.LVL18:
 704 0000 2DE9F04F 		push	{r4, r5, r6, r7, r8, r9, r10, fp, lr}
 705              		.cfi_def_cfa_offset 36
 706              		.cfi_offset 4, -36
 707              		.cfi_offset 5, -32
 708              		.cfi_offset 6, -28
 709              		.cfi_offset 7, -24
 710              		.cfi_offset 8, -20
 711              		.cfi_offset 9, -16
 712              		.cfi_offset 10, -12
 713              		.cfi_offset 11, -8
 714              		.cfi_offset 14, -4
 715 0004 89B0     		sub	sp, sp, #36
 716              		.cfi_def_cfa_offset 72
 717 0006 05AB     		add	r3, sp, #20
 718 0008 0DF1150C 		add	ip, sp, #21
 719 000c 0193     		str	r3, [sp, #4]
 720 000e C3EB0C03 		rsb	r3, r3, ip
 721 0012 CDF800C0 		str	ip, [sp]
 722              		.loc 1 121 0
 723 0016 8346     		mov	fp, r0
 724 0018 0C46     		mov	r4, r1
 725 001a 1546     		mov	r5, r2
 726              	.LVL19:
 727 001c 0393     		str	r3, [sp, #12]
 728              		.loc 1 124 0
 729 001e 4FF00008 		mov	r8, #0
 730              	.LVL20:
 731              	.L11:
 732              		.loc 1 135 0
 733 0022 2178     		ldrb	r1, [r4]	@ zero_extendqisi2
 734 0024 631C     		adds	r3, r4, #1
 735              	.LVL21:
 736              		.loc 1 136 0
 737 0026 69B1     		cbz	r1, .L68
 738              	.LVL22:
 739              	.L72:
 740              		.loc 1 138 0
 741 0028 2529     		cmp	r1, #37
 742 002a 0FD0     		beq	.L13
 743              		.loc 1 139 0
 744 002c DBF80020 		ldr	r2, [fp]
 745              	.LVL23:
 746              		.loc 1 135 0
 747 0030 1C46     		mov	r4, r3
 748              		.loc 1 139 0
 749 0032 9268     		ldr	r2, [r2, #8]
 750 0034 5846     		mov	r0, fp
 751 0036 9047     		blx	r2
 752              	.LVL24:
ARM GAS  /tmp/ccvyhaQg.s 			page 51


 753              		.loc 1 135 0
 754 0038 2178     		ldrb	r1, [r4]	@ zero_extendqisi2
 755              		.loc 1 140 0
 756 003a 08F10108 		add	r8, r8, #1
 757              	.LVL25:
 758              		.loc 1 135 0
 759 003e 631C     		adds	r3, r4, #1
 760              	.LVL26:
 761              		.loc 1 136 0
 762 0040 0029     		cmp	r1, #0
 763 0042 F1D1     		bne	.L72
 764              	.LVL27:
 765              	.L68:
 766              		.loc 1 277 0
 767 0044 4046     		mov	r0, r8
 768 0046 09B0     		add	sp, sp, #36
 769              		@ sp needed
 770 0048 BDE8F08F 		pop	{r4, r5, r6, r7, r8, r9, r10, fp, pc}
 771              	.LVL28:
 772              	.L13:
 773              		.loc 1 146 0
 774 004c 6278     		ldrb	r2, [r4, #1]	@ zero_extendqisi2
 775              	.LVL29:
 776 004e 2D2A     		cmp	r2, #45
 777 0050 03BF     		ittte	eq
 778 0052 A278     		ldrbeq	r2, [r4, #2]	@ zero_extendqisi2
 779              		.loc 1 147 0
 780 0054 A31C     		addeq	r3, r4, #2
 781              	.LVL30:
 782              		.loc 1 148 0
 783 0056 4FF0010A 		moveq	r10, #1
 784              		.loc 1 145 0
 785 005a 4FF0000A 		movne	r10, #0
 786              	.LVL31:
 787              		.loc 1 151 0
 788 005e 302A     		cmp	r2, #48
 789 0060 03BF     		ittte	eq
 790 0062 5A78     		ldrbeq	r2, [r3, #1]	@ zero_extendqisi2
 791              		.loc 1 152 0
 792 0064 0133     		addeq	r3, r3, #1
 793              	.LVL32:
 794              		.loc 1 153 0
 795 0066 3026     		moveq	r6, #48
 796              		.loc 1 150 0
 797 0068 2026     		movne	r6, #32
 798              	.LVL33:
 799              		.loc 1 153 0
 800 006a 1C46     		mov	r4, r3
 801              		.loc 1 155 0
 802 006c 0027     		movs	r7, #0
 803 006e 06E0     		b	.L19
 804              	.LVL34:
 805              	.L73:
 806              		.loc 1 161 0
 807 0070 2B78     		ldrb	r3, [r5]	@ zero_extendqisi2
 808              	.LVL35:
 809 0072 0435     		adds	r5, r5, #4
ARM GAS  /tmp/ccvyhaQg.s 			page 52


 810              	.LVL36:
 811              	.L17:
 812              		.loc 1 164 0
 813 0074 07EB8707 		add	r7, r7, r7, lsl #2
 814              	.LVL37:
 815 0078 2278     		ldrb	r2, [r4]	@ zero_extendqisi2
 816 007a 03EB4707 		add	r7, r3, r7, lsl #1
 817              	.LVL38:
 818              	.L19:
 819              		.loc 1 158 0
 820 007e A2F13003 		sub	r3, r2, #48
 821 0082 DBB2     		uxtb	r3, r3
 822 0084 092B     		cmp	r3, #9
 823              		.loc 1 157 0
 824 0086 04F10104 		add	r4, r4, #1
 825              	.LVL39:
 826              		.loc 1 158 0
 827 008a F3D9     		bls	.L17
 828              		.loc 1 160 0
 829 008c 2A2A     		cmp	r2, #42
 830 008e EFD0     		beq	.L73
 831              	.LVL40:
 832              		.loc 1 167 0
 833 0090 2E2A     		cmp	r2, #46
 834 0092 4FF00001 		mov	r1, #0
 835 0096 2BD0     		beq	.L22
 836              	.LVL41:
 837              		.loc 1 181 0
 838 0098 02F0DF03 		and	r3, r2, #223
 839 009c 4C2B     		cmp	r3, #76
 840 009e 34D0     		beq	.L74
 841              	.LVL42:
 842              	.L24:
 843              		.loc 1 190 0
 844 00a0 A2F14403 		sub	r3, r2, #68
 845 00a4 342B     		cmp	r3, #52
 846 00a6 00F2B680 		bhi	.L25
 847 00aa DFE803F0 		tbb	[pc, r3]
 848              	.L27:
 849 00ae AC       		.byte	(.L26-.L27)/2
 850 00af B4       		.byte	(.L25-.L27)/2
 851 00b0 B4       		.byte	(.L25-.L27)/2
 852 00b1 B4       		.byte	(.L25-.L27)/2
 853 00b2 B4       		.byte	(.L25-.L27)/2
 854 00b3 AC       		.byte	(.L26-.L27)/2
 855 00b4 B4       		.byte	(.L25-.L27)/2
 856 00b5 B4       		.byte	(.L25-.L27)/2
 857 00b6 B4       		.byte	(.L25-.L27)/2
 858 00b7 B4       		.byte	(.L25-.L27)/2
 859 00b8 B4       		.byte	(.L25-.L27)/2
 860 00b9 AA       		.byte	(.L28-.L27)/2
 861 00ba B4       		.byte	(.L25-.L27)/2
 862 00bb B4       		.byte	(.L25-.L27)/2
 863 00bc B4       		.byte	(.L25-.L27)/2
 864 00bd B4       		.byte	(.L25-.L27)/2
 865 00be B4       		.byte	(.L25-.L27)/2
 866 00bf 34       		.byte	(.L57-.L27)/2
ARM GAS  /tmp/ccvyhaQg.s 			page 53


 867 00c0 B4       		.byte	(.L25-.L27)/2
 868 00c1 B4       		.byte	(.L25-.L27)/2
 869 00c2 7D       		.byte	(.L30-.L27)/2
 870 00c3 B4       		.byte	(.L25-.L27)/2
 871 00c4 B4       		.byte	(.L25-.L27)/2
 872 00c5 B4       		.byte	(.L25-.L27)/2
 873 00c6 B4       		.byte	(.L25-.L27)/2
 874 00c7 B4       		.byte	(.L25-.L27)/2
 875 00c8 B4       		.byte	(.L25-.L27)/2
 876 00c9 B4       		.byte	(.L25-.L27)/2
 877 00ca B4       		.byte	(.L25-.L27)/2
 878 00cb B4       		.byte	(.L25-.L27)/2
 879 00cc B4       		.byte	(.L25-.L27)/2
 880 00cd 9F       		.byte	(.L31-.L27)/2
 881 00ce AC       		.byte	(.L26-.L27)/2
 882 00cf B4       		.byte	(.L25-.L27)/2
 883 00d0 B4       		.byte	(.L25-.L27)/2
 884 00d1 B4       		.byte	(.L25-.L27)/2
 885 00d2 B4       		.byte	(.L25-.L27)/2
 886 00d3 AC       		.byte	(.L26-.L27)/2
 887 00d4 B4       		.byte	(.L25-.L27)/2
 888 00d5 B4       		.byte	(.L25-.L27)/2
 889 00d6 B4       		.byte	(.L25-.L27)/2
 890 00d7 B4       		.byte	(.L25-.L27)/2
 891 00d8 B4       		.byte	(.L25-.L27)/2
 892 00d9 AA       		.byte	(.L28-.L27)/2
 893 00da B4       		.byte	(.L25-.L27)/2
 894 00db B4       		.byte	(.L25-.L27)/2
 895 00dc B4       		.byte	(.L25-.L27)/2
 896 00dd 7F       		.byte	(.L32-.L27)/2
 897 00de B4       		.byte	(.L25-.L27)/2
 898 00df 34       		.byte	(.L57-.L27)/2
 899 00e0 B4       		.byte	(.L25-.L27)/2
 900 00e1 B4       		.byte	(.L25-.L27)/2
 901 00e2 7D       		.byte	(.L30-.L27)/2
 902              	.LVL43:
 903 00e3 00       		.p2align 1
 904              	.L75:
 905              		.loc 1 173 0
 906 00e4 2B78     		ldrb	r3, [r5]	@ zero_extendqisi2
 907              	.LVL44:
 908 00e6 0435     		adds	r5, r5, #4
 909              	.LVL45:
 910              	.L21:
 911              		.loc 1 176 0
 912 00e8 01EB8101 		add	r1, r1, r1, lsl #2
 913              	.LVL46:
 914              		.loc 1 177 0
 915 00ec 03EB4101 		add	r1, r3, r1, lsl #1
 916              	.LVL47:
 917              	.L22:
 918              		.loc 1 169 0
 919 00f0 14F8012B 		ldrb	r2, [r4], #1	@ zero_extendqisi2
 920              	.LVL48:
 921              		.loc 1 170 0
 922 00f4 A2F13003 		sub	r3, r2, #48
 923 00f8 DBB2     		uxtb	r3, r3
ARM GAS  /tmp/ccvyhaQg.s 			page 54


 924 00fa 092B     		cmp	r3, #9
 925 00fc F4D9     		bls	.L21
 926              		.loc 1 172 0
 927 00fe 2A2A     		cmp	r2, #42
 928 0100 F0D0     		beq	.L75
 929              	.LVL49:
 930              		.loc 1 181 0
 931 0102 02F0DF03 		and	r3, r2, #223
 932 0106 4C2B     		cmp	r3, #76
 933 0108 CAD1     		bne	.L24
 934              	.LVL50:
 935              	.L74:
 936              		.loc 1 183 0
 937 010a 2378     		ldrb	r3, [r4]	@ zero_extendqisi2
 938 010c 002B     		cmp	r3, #0
 939 010e C7D0     		beq	.L24
 940              		.loc 1 184 0
 941 0110 0134     		adds	r4, r4, #1
 942              	.LVL51:
 943 0112 1A46     		mov	r2, r3
 944 0114 C4E7     		b	.L24
 945              	.LVL52:
 946              	.L57:
 947              		.loc 1 190 0
 948 0116 0A22     		movs	r2, #10
 949              	.LVL53:
 950              	.L29:
 951              		.loc 1 241 0
 952 0118 2968     		ldr	r1, [r5]
 953              	.LVL54:
 954              	.LBB6:
 955              	.LBB7:
 956              		.loc 1 72 0
 957 011a 05A8     		add	r0, sp, #20
 958              	.LBE7:
 959              	.LBE6:
 960              		.loc 1 241 0
 961 011c 0435     		adds	r5, r5, #4
 962              	.LVL55:
 963              	.L70:
 964              	.LBB9:
 965              	.LBB8:
 966              		.loc 1 72 0
 967 011e FFF7FEFF 		bl	long_to_string_with_divisor.constprop.0
 968              	.LVL56:
 969 0122 019B     		ldr	r3, [sp, #4]
 970 0124 C01A     		subs	r0, r0, r3
 971 0126 00F1FF3C 		add	ip, r0, #-1
 972 012a CDF808C0 		str	ip, [sp, #8]
 973              	.LBE8:
 974              	.LBE9:
 975              		.loc 1 144 0
 976 012e 0DF11409 		add	r9, sp, #20
 977              	.LVL57:
 978              	.L33:
 979              		.loc 1 251 0
 980 0132 3F1A     		subs	r7, r7, r0
ARM GAS  /tmp/ccvyhaQg.s 			page 55


 981              	.LVL58:
 982 0134 27EAE777 		bic	r7, r7, r7, asr #31
 983              	.LVL59:
 984              		.loc 1 253 0
 985 0138 BAF1000F 		cmp	r10, #0
 986 013c 12D1     		bne	.L44
 987              		.loc 1 254 0
 988 013e 7F42     		negs	r7, r7
 989              	.LVL60:
 990              		.loc 1 255 0
 991 0140 87B1     		cbz	r7, .L44
 992              		.loc 1 256 0
 993 0142 99F80010 		ldrb	r1, [r9]	@ zero_extendqisi2
 994 0146 2D29     		cmp	r1, #45
 995 0148 6DD0     		beq	.L76
 996              	.LVL61:
 997              	.L45:
 998              		.loc 1 196 0 discriminator 1
 999 014a BA46     		mov	r10, r7
 1000              	.LVL62:
 1001              	.L47:
 1002              		.loc 1 262 0 discriminator 1
 1003 014c DBF80030 		ldr	r3, [fp]
 1004 0150 5846     		mov	r0, fp
 1005 0152 9B68     		ldr	r3, [r3, #8]
 1006 0154 3146     		mov	r1, r6
 1007 0156 9847     		blx	r3
 1008              	.LVL63:
 1009              		.loc 1 264 0 discriminator 1
 1010 0158 1AF1010A 		adds	r10, r10, #1
 1011              	.LVL64:
 1012 015c F6D1     		bne	.L47
 1013 015e C7EB0808 		rsb	r8, r7, r8
 1014              		.loc 1 264 0 is_stmt 0
 1015 0162 5746     		mov	r7, r10
 1016              	.LVL65:
 1017              	.L44:
 1018              		.loc 1 266 0 is_stmt 1 discriminator 1
 1019 0164 029A     		ldr	r2, [sp, #8]
 1020 0166 002A     		cmp	r2, #0
 1021 0168 0FDB     		blt	.L48
 1022 016a 09F1FF3A 		add	r10, r9, #-1
 1023 016e 9144     		add	r9, r9, r2
 1024              	.LVL66:
 1025              	.L50:
 1026              		.loc 1 267 0
 1027 0170 DBF80030 		ldr	r3, [fp]
 1028 0174 1AF8011F 		ldrb	r1, [r10, #1]!	@ zero_extendqisi2
 1029              	.LVL67:
 1030 0178 9B68     		ldr	r3, [r3, #8]
 1031 017a 5846     		mov	r0, fp
 1032 017c 9847     		blx	r3
 1033              	.LVL68:
 1034              		.loc 1 266 0
 1035 017e CA45     		cmp	r10, r9
 1036 0180 F6D1     		bne	.L50
 1037 0182 029B     		ldr	r3, [sp, #8]
ARM GAS  /tmp/ccvyhaQg.s 			page 56


 1038 0184 08F10108 		add	r8, r8, #1
 1039 0188 9844     		add	r8, r8, r3
 1040              	.LVL69:
 1041              	.L48:
 1042              		.loc 1 271 0 discriminator 1
 1043 018a 002F     		cmp	r7, #0
 1044 018c 3FF449AF 		beq	.L11
 1045              		.loc 1 271 0 is_stmt 0
 1046 0190 B946     		mov	r9, r7
 1047              	.LVL70:
 1048              	.L52:
 1049              		.loc 1 272 0 is_stmt 1
 1050 0192 DBF80030 		ldr	r3, [fp]
 1051 0196 5846     		mov	r0, fp
 1052 0198 9B68     		ldr	r3, [r3, #8]
 1053 019a 3146     		mov	r1, r6
 1054 019c 9847     		blx	r3
 1055              	.LVL71:
 1056              		.loc 1 271 0
 1057 019e B9F10109 		subs	r9, r9, #1
 1058              	.LVL72:
 1059 01a2 F6D1     		bne	.L52
 1060 01a4 B844     		add	r8, r8, r7
 1061 01a6 3CE7     		b	.L11
 1062              	.LVL73:
 1063              	.L30:
 1064              		.loc 1 190 0
 1065 01a8 1022     		movs	r2, #16
 1066              	.LVL74:
 1067 01aa B5E7     		b	.L29
 1068              	.LVL75:
 1069              	.L32:
 1070              		.loc 1 197 0
 1071 01ac D5F80090 		ldr	r9, [r5]
 1072              		.loc 1 198 0
 1073 01b0 304B     		ldr	r3, .L79
 1074 01b2 B9F1000F 		cmp	r9, #0
 1075 01b6 08BF     		it	eq
 1076 01b8 9946     		moveq	r9, r3
 1077              		.loc 1 200 0
 1078 01ba 47F6FF73 		movw	r3, #32767
 1079              		.loc 1 201 0
 1080 01be 99F80000 		ldrb	r0, [r9]	@ zero_extendqisi2
 1081              		.loc 1 197 0
 1082 01c2 0435     		adds	r5, r5, #4
 1083              	.LVL76:
 1084              		.loc 1 200 0
 1085 01c4 0029     		cmp	r1, #0
 1086 01c6 08BF     		it	eq
 1087 01c8 1946     		moveq	r1, r3
 1088              	.LVL77:
 1089              		.loc 1 201 0
 1090 01ca 0028     		cmp	r0, #0
 1091 01cc 4CD0     		beq	.L60
 1092 01ce 4944     		add	r1, r1, r9
 1093 01d0 4B46     		mov	r3, r9
 1094 01d2 01E0     		b	.L38
ARM GAS  /tmp/ccvyhaQg.s 			page 57


 1095              	.LVL78:
 1096              	.L36:
 1097              		.loc 1 201 0 is_stmt 0 discriminator 2
 1098 01d4 9942     		cmp	r1, r3
 1099 01d6 38D0     		beq	.L77
 1100              	.LVL79:
 1101              	.L38:
 1102              		.loc 1 201 0 discriminator 1
 1103 01d8 5A78     		ldrb	r2, [r3, #1]	@ zero_extendqisi2
 1104 01da 0133     		adds	r3, r3, #1
 1105              	.LVL80:
 1106 01dc 002A     		cmp	r2, #0
 1107 01de F9D1     		bne	.L36
 1108 01e0 C9EB0300 		rsb	r0, r9, r3
 1109 01e4 431E     		subs	r3, r0, #1
 1110              	.LVL81:
 1111 01e6 0293     		str	r3, [sp, #8]
 1112              		.loc 1 196 0 is_stmt 1
 1113 01e8 2026     		movs	r6, #32
 1114 01ea A2E7     		b	.L33
 1115              	.LVL82:
 1116              	.L31:
 1117 01ec 0398     		ldr	r0, [sp, #12]
 1118              		.loc 1 193 0
 1119 01ee 2B68     		ldr	r3, [r5]
 1120 01f0 8DF81430 		strb	r3, [sp, #20]
 1121 01f4 421E     		subs	r2, r0, #1
 1122              	.LVL83:
 1123 01f6 0435     		adds	r5, r5, #4
 1124              	.LVL84:
 1125 01f8 0292     		str	r2, [sp, #8]
 1126              		.loc 1 192 0
 1127 01fa 2026     		movs	r6, #32
 1128              		.loc 1 144 0
 1129 01fc 0DF11409 		add	r9, sp, #20
 1130              		.loc 1 194 0
 1131 0200 97E7     		b	.L33
 1132              	.LVL85:
 1133              	.L28:
 1134 0202 0822     		movs	r2, #8
 1135 0204 88E7     		b	.L29
 1136              	.LVL86:
 1137              	.L26:
 1138              		.loc 1 209 0
 1139 0206 2968     		ldr	r1, [r5]
 1140              	.LVL87:
 1141              		.loc 1 212 0
 1142 0208 0029     		cmp	r1, #0
 1143              		.loc 1 209 0
 1144 020a 05F10405 		add	r5, r5, #4
 1145              	.LVL88:
 1146              		.loc 1 212 0
 1147 020e 24DB     		blt	.L78
 1148              		.loc 1 143 0
 1149 0210 05A8     		add	r0, sp, #20
 1150              	.LVL89:
 1151              	.L41:
ARM GAS  /tmp/ccvyhaQg.s 			page 58


 1152              	.LBB10:
 1153              	.LBB11:
 1154              		.loc 1 72 0
 1155 0212 0A22     		movs	r2, #10
 1156              	.LVL90:
 1157 0214 83E7     		b	.L70
 1158              	.LVL91:
 1159              	.L25:
 1160 0216 0398     		ldr	r0, [sp, #12]
 1161              	.LBE11:
 1162              	.LBE10:
 1163              		.loc 1 247 0
 1164 0218 8DF81420 		strb	r2, [sp, #20]
 1165 021c 421E     		subs	r2, r0, #1
 1166              	.LVL92:
 1167 021e 0292     		str	r2, [sp, #8]
 1168              		.loc 1 144 0
 1169 0220 0DF11409 		add	r9, sp, #20
 1170              		.loc 1 248 0
 1171 0224 85E7     		b	.L33
 1172              	.LVL93:
 1173              	.L76:
 1174              		.loc 1 256 0 discriminator 1
 1175 0226 302E     		cmp	r6, #48
 1176 0228 8FD1     		bne	.L45
 1177              	.LVL94:
 1178              		.loc 1 257 0
 1179 022a DBF80030 		ldr	r3, [fp]
 1180 022e 5846     		mov	r0, fp
 1181              	.LVL95:
 1182 0230 9B68     		ldr	r3, [r3, #8]
 1183 0232 9847     		blx	r3
 1184              	.LVL96:
 1185 0234 DDF808C0 		ldr	ip, [sp, #8]
 1186 0238 0CF1FF3C 		add	ip, ip, #-1
 1187 023c 09F10109 		add	r9, r9, #1
 1188              	.LVL97:
 1189              		.loc 1 258 0
 1190 0240 08F10108 		add	r8, r8, #1
 1191              	.LVL98:
 1192 0244 CDF808C0 		str	ip, [sp, #8]
 1193              	.LVL99:
 1194 0248 7FE7     		b	.L45
 1195              	.LVL100:
 1196              	.L77:
 1197 024a C9EB0100 		rsb	r0, r9, r1
 1198 024e 00F1FF3C 		add	ip, r0, #-1
 1199 0252 CDF808C0 		str	ip, [sp, #8]
 1200              		.loc 1 196 0
 1201 0256 2026     		movs	r6, #32
 1202 0258 6BE7     		b	.L33
 1203              	.LVL101:
 1204              	.L78:
 1205              		.loc 1 213 0
 1206 025a 2D23     		movs	r3, #45
 1207              		.loc 1 214 0
 1208 025c 4942     		negs	r1, r1
ARM GAS  /tmp/ccvyhaQg.s 			page 59


 1209              	.LVL102:
 1210              		.loc 1 213 0
 1211 025e 8DF81430 		strb	r3, [sp, #20]
 1212 0262 0DF11500 		add	r0, sp, #21
 1213 0266 D4E7     		b	.L41
 1214              	.LVL103:
 1215              	.L60:
 1216              		.loc 1 201 0
 1217 0268 4FF0FF33 		mov	r3, #-1
 1218 026c 0293     		str	r3, [sp, #8]
 1219              		.loc 1 196 0
 1220 026e 2026     		movs	r6, #32
 1221 0270 5FE7     		b	.L33
 1222              	.L80:
 1223 0272 00BF     		.align	2
 1224              	.L79:
 1225 0274 00000000 		.word	.LC0
 1226              		.cfi_endproc
 1227              	.LFE274:
 1228              		.size	chvprintf, .-chvprintf
 1229 0278 AFF30080 		.section	.text.chprintf,"ax",%progbits
 1229      AFF30080 
 1230              		.align	2
 1231              		.p2align 4,,15
 1232              		.global	chprintf
 1233              		.thumb
 1234              		.thumb_func
 1235              		.type	chprintf, %function
 1236              	chprintf:
 1237              	.LFB275:
 1238              		.loc 1 302 0
 1239              		.cfi_startproc
 1240              		@ args = 4, pretend = 12, frame = 8
 1241              		@ frame_needed = 0, uses_anonymous_args = 1
 1242              	.LVL104:
 1243 0000 0EB4     		push	{r1, r2, r3}
 1244              		.cfi_def_cfa_offset 12
 1245              		.cfi_offset 1, -12
 1246              		.cfi_offset 2, -8
 1247              		.cfi_offset 3, -4
 1248 0002 00B5     		push	{lr}
 1249              		.cfi_def_cfa_offset 16
 1250              		.cfi_offset 14, -16
 1251 0004 82B0     		sub	sp, sp, #8
 1252              		.cfi_def_cfa_offset 24
 1253              		.loc 1 302 0
 1254 0006 03AA     		add	r2, sp, #12
 1255 0008 52F8041B 		ldr	r1, [r2], #4
 1256              		.loc 1 306 0
 1257 000c 0192     		str	r2, [sp, #4]
 1258              		.loc 1 307 0
 1259 000e FFF7FEFF 		bl	chvprintf
 1260              	.LVL105:
 1261              		.loc 1 311 0
 1262 0012 02B0     		add	sp, sp, #8
 1263              		@ sp needed
 1264 0014 5DF804EB 		ldr	lr, [sp], #4
ARM GAS  /tmp/ccvyhaQg.s 			page 60


 1265 0018 03B0     		add	sp, sp, #12
 1266 001a 7047     		bx	lr
 1267              		.cfi_endproc
 1268              	.LFE275:
 1269              		.size	chprintf, .-chprintf
 1270 001c AFF30080 		.section	.text.chsnprintf,"ax",%progbits
 1271              		.align	2
 1272              		.p2align 4,,15
 1273              		.global	chsnprintf
 1274              		.thumb
 1275              		.thumb_func
 1276              		.type	chsnprintf, %function
 1277              	chsnprintf:
 1278              	.LFB276:
 1279              		.loc 1 341 0
 1280              		.cfi_startproc
 1281              		@ args = 4, pretend = 8, frame = 24
 1282              		@ frame_needed = 0, uses_anonymous_args = 1
 1283              	.LVL106:
 1284 0000 0CB4     		push	{r2, r3}
 1285              		.cfi_def_cfa_offset 8
 1286              		.cfi_offset 2, -8
 1287              		.cfi_offset 3, -4
 1288 0002 70B5     		push	{r4, r5, r6, lr}
 1289              		.cfi_def_cfa_offset 24
 1290              		.cfi_offset 4, -24
 1291              		.cfi_offset 5, -20
 1292              		.cfi_offset 6, -16
 1293              		.cfi_offset 14, -12
 1294 0004 86B0     		sub	sp, sp, #24
 1295              		.cfi_def_cfa_offset 48
 1296              		.loc 1 348 0
 1297 0006 0C46     		mov	r4, r1
 1298              		.loc 1 341 0
 1299 0008 0546     		mov	r5, r0
 1300 000a 0A9E     		ldr	r6, [sp, #40]
 1301              		.loc 1 348 0
 1302 000c B1B1     		cbz	r1, .L83
 1303              	.LVL107:
 1304              		.loc 1 355 0
 1305 000e 01A8     		add	r0, sp, #4
 1306              	.LVL108:
 1307 0010 2946     		mov	r1, r5
 1308              	.LVL109:
 1309 0012 621E     		subs	r2, r4, #1
 1310              	.LVL110:
 1311 0014 0023     		movs	r3, #0
 1312 0016 FFF7FEFF 		bl	msObjectInit
 1313              	.LVL111:
 1314              		.loc 1 359 0
 1315 001a 0BAB     		add	r3, sp, #44
 1316              		.loc 1 360 0
 1317 001c 1A46     		mov	r2, r3
 1318 001e 01A8     		add	r0, sp, #4
 1319              	.LVL112:
 1320 0020 3146     		mov	r1, r6
 1321              		.loc 1 359 0
ARM GAS  /tmp/ccvyhaQg.s 			page 61


 1322 0022 0093     		str	r3, [sp]
 1323              		.loc 1 360 0
 1324 0024 FFF7FEFF 		bl	chvprintf
 1325              	.LVL113:
 1326              		.loc 1 364 0
 1327 0028 049B     		ldr	r3, [sp, #16]
 1328 002a 9C42     		cmp	r4, r3
 1329 002c 01D9     		bls	.L85
 1330              		.loc 1 365 0
 1331 002e 0022     		movs	r2, #0
 1332 0030 EA54     		strb	r2, [r5, r3]
 1333              	.L85:
 1334              		.loc 1 369 0
 1335 0032 06B0     		add	sp, sp, #24
 1336              		@ sp needed
 1337 0034 BDE87040 		pop	{r4, r5, r6, lr}
 1338              	.LVL114:
 1339 0038 02B0     		add	sp, sp, #8
 1340 003a 7047     		bx	lr
 1341              	.LVL115:
 1342              	.L83:
 1343              		.loc 1 355 0
 1344 003c 0A46     		mov	r2, r1
 1345 003e 2346     		mov	r3, r4
 1346 0040 0146     		mov	r1, r0
 1347              	.LVL116:
 1348 0042 01A8     		add	r0, sp, #4
 1349              	.LVL117:
 1350 0044 FFF7FEFF 		bl	msObjectInit
 1351              	.LVL118:
 1352              		.loc 1 359 0
 1353 0048 0BAB     		add	r3, sp, #44
 1354              		.loc 1 360 0
 1355 004a 01A8     		add	r0, sp, #4
 1356              	.LVL119:
 1357 004c 3146     		mov	r1, r6
 1358 004e 1A46     		mov	r2, r3
 1359              		.loc 1 359 0
 1360 0050 0093     		str	r3, [sp]
 1361              		.loc 1 360 0
 1362 0052 FFF7FEFF 		bl	chvprintf
 1363              	.LVL120:
 1364              		.loc 1 369 0
 1365 0056 06B0     		add	sp, sp, #24
 1366              		@ sp needed
 1367 0058 BDE87040 		pop	{r4, r5, r6, lr}
 1368              	.LVL121:
 1369 005c 02B0     		add	sp, sp, #8
 1370 005e 7047     		bx	lr
 1371              		.cfi_endproc
 1372              	.LFE276:
 1373              		.size	chsnprintf, .-chsnprintf
 1374              		.section	.rodata.str1.4,"aMS",%progbits,1
 1375              		.align	2
 1376              	.LC0:
 1377 0000 286E756C 		.ascii	"(null)\000"
 1377      6C2900
ARM GAS  /tmp/ccvyhaQg.s 			page 62


 1378 0007 00       		.text
 1379              	.Letext0:
 1380              		.file 2 "/nfs/nfs5/home/research/hardware/arm2/gcc-arm-embedded/gcc-arm-none-eabi-4_8-2014q2/lib/g
 1381              		.file 3 "/nfs/nfs5/home/research/hardware/arm2/gcc-arm-embedded/gcc-arm-none-eabi-4_8-2014q2/arm-n
 1382              		.file 4 "/nfs/nfs5/home/research/hardware/arm2/gcc-arm-embedded/gcc-arm-none-eabi-4_8-2014q2/arm-n
 1383              		.file 5 "../ChibiOS/os/rt/ports/ARMCMx/compilers/GCC/chtypes.h"
 1384              		.file 6 "../ChibiOS/os/rt/include/chsystypes.h"
 1385              		.file 7 "../ChibiOS/os/rt/include/chschd.h"
 1386              		.file 8 "../ChibiOS/os/rt/ports/ARMCMx/chcore.h"
 1387              		.file 9 "../ChibiOS/os/rt/ports/ARMCMx/chcore_v7m.h"
 1388              		.file 10 "../ChibiOS/os/rt/include/chtm.h"
 1389              		.file 11 "../ChibiOS/os/rt/include/chsem.h"
 1390              		.file 12 "../ChibiOS/os/rt/include/chmtx.h"
 1391              		.file 13 "../ChibiOS/os/rt/include/chstreams.h"
 1392              		.file 14 "/nfs/nfs5/home/research/hardware/arm2/gcc-arm-embedded/gcc-arm-none-eabi-4_8-2014q2/lib/
 1393              		.file 15 "<built-in>"
 1394              		.file 16 "../ChibiOS/os/hal/lib/streams/memstreams.h"
 1395              		.file 17 "../ChibiOS/os/ext/CMSIS/include/core_cm4.h"