ARM GAS  /tmp/ccJeoyMt.s 			page 1


   1              		.syntax unified
   2              		.cpu cortex-m4
   3              		.fpu softvfp
   4              		.eabi_attribute 20, 1
   5              		.eabi_attribute 21, 1
   6              		.eabi_attribute 23, 3
   7              		.eabi_attribute 24, 1
   8              		.eabi_attribute 25, 1
   9              		.eabi_attribute 26, 1
  10              		.eabi_attribute 30, 2
  11              		.eabi_attribute 34, 1
  12              		.eabi_attribute 18, 4
  13              		.thumb
  14              		.file	"ext.c"
  15              		.text
  16              	.Ltext0:
  17              		.section	.gnu.lto_.jmpfuncs.de01d084cb22d8be,"",%progbits
  18 0000 789C6362 		.ascii	"x\234cb`b\300\006L\2414;\020322132003\002\011\026f\240"
  18      6062C006 
  18      4CA1343B 
  18      10333232 
  18      31333230 
  19 001b 7A66A058 		.ascii	"zf\240X\031\003\003+\022\233\215\035\301f\000\000+\366"
  19      1903032B 
  19      129B8D1D 
  19      C1660000 
  19      2BF6
  20 002d 01DE     		.ascii	"\001\336"
  21              		.text
  22              		.section	.gnu.lto_.inline.de01d084cb22d8be,"",%progbits
  23 0000 789C6362 		.ascii	"x\234cb`b\300\006\216Biv\006\006\026\036F\260\"\266"
  23      6062C006 
  23      8E426976 
  23      0606161E 
  23      46B022B6 
  24 0014 05F260B5 		.ascii	"\005\362`\265\214\\ \202\201\225\005(\314t\201\237\201"
  24      8C5C2082 
  24      81950528 
  24      CC74819F 
  24      81
  25 0025 E3831E58 		.ascii	"\343\203\036X\234\211\201S\020(\304\366A\017!\304\015"
  25      9C898153 
  25      1028C4F6 
  25      410F21C4 
  25      0D
  26 0036 5439C18F 		.ascii	"T9\301\217\231\201C\000(\303\332\241\316\300\336\241"
  26      99814300 
  26      28C3DAA1 
  26      CEC0DEA1 
  27 0046 8E2CC302 		.ascii	"\216,\303\002\221aY \0177\236\231\007(;\301o\202\037"
  27      91615920 
  27      0F379E99 
  27      07283BC1 
  27      6F821F
  28 0059 2B1E3936 		.ascii	"+\03696\006naFF\240+\030\230\025X8\016\330AT0\276`g"
  28      066E6146 
  28      46A02B18 
ARM GAS  /tmp/ccJeoyMt.s 			page 2


  28      98155838 
  28      0ED84154 
  29 0071 8190288A 		.ascii	"\201\220(\212\031\000\341\306\026X"
  29      1900E1C6 
  29      1658
  30              		.text
  31              		.section	.gnu.lto_.pureconst.de01d084cb22d8be,"",%progbits
  32 0000 789C6362 		.ascii	"x\234cb`b\340g\200\000v\006\011F)&+f+\026+V+6)\000\012"
  32      6062E067 
  32      80007606 
  32      09462926 
  32      2B662B16 
  33 001b 950164   		.ascii	"\225\001d"
  34              		.text
  35              		.section	.gnu.lto_extInit.de01d084cb22d8be,"",%progbits
  36 0000 789C6362 		.ascii	"x\234cb`b@\007\222@\\\011\304r@\314\310\314\300\310"
  36      60624007 
  36      92405C09 
  36      C47240CC 
  36      C8CCC0C8 
  37 0014 34E11C03 		.ascii	"4\341\034\003C#\007\023##\210\301\300\310P\317\304X"
  37      43230713 
  37      232388C1 
  37      C0C850CF 
  37      C458
  38 0026 1FC90856 		.ascii	"\037\311\010V\273\236\351\300\203\377\377\327}\330\370"
  38      BB9EE9C0 
  38      83FFFFD7 
  38      7DD8F8
  39 0035 B01AA894 		.ascii	"\260\032\250\224\201\201\225\241\245\241a\202\002\003"
  39      818195A1 
  39      A5A16182 
  39      0203
  40 0043 4332583E 		.ascii	"C2X>\004H\2024\20522\201h\346\363\014\315\017~\331%"
  40      04488234 
  40      85323281 
  40      68E6F30C 
  40      CD0F7ED9 
  41 0058 322E6464 		.ascii	"2.dd\005\312V3\374j\350h\020\310d\004\252\206\030\227"
  41      05CA5633 
  41      FC6AE868 
  41      10C86404 
  41      AA861897 
  42 006c 09A22F32 		.ascii	"\011\242/24>\370\315\004S\004\001!@\011\240\001 \307"
  42      343EF8CD 
  42      04530401 
  42      214009A0 
  42      0120C7
  43 007f CAE8E9E9 		.ascii	"\312\350\351\351;gd&e\372\007\353\347\027\353g$\346"
  43      3B676426 
  43      65FA07EB 
  43      E717EB67 
  43      24E6
  44 0091 E8171725 		.ascii	"\350\027\027%\353\247V\224\350%3\000\000\024\275+5"
  44      EBA75694 
  44      E8253300 
  44      0014BD2B 
ARM GAS  /tmp/ccJeoyMt.s 			page 3


  44      35
  45              		.text
  46              		.section	.gnu.lto_extObjectInit.de01d084cb22d8be,"",%progbits
  47 0000 789C6362 		.ascii	"x\234cb`b@\007\222@|\035\210\345\200\230\221\231\201"
  47      60624007 
  47      92407C1D 
  47      88E58098 
  47      919981
  48 0013 9169C239 		.ascii	"\221i\3029\006\206F\016&FF\020\203\201\221\241\236\211"
  48      0686460E 
  48      26464610 
  48      838191A1 
  48      9E89
  49 0025 B13E9211 		.ascii	"\261>\222\021\254v=\323\201\007\377\377\257\233qlY\017"
  49      AC763DD3 
  49      8107FFFF 
  49      AF9B716C 
  49      590F
  50 0037 E34C2656 		.ascii	"\343L&V&\306\\\2608+CKC\303\004\005\006\206d07\004H"
  50      26C65CB0 
  50      382B434B 
  50      43C30405 
  50      06866430 
  51 004e 82F48632 		.ascii	"\202\364\20622\201h\346\263\014M;n<>\300\224\310\270"
  51      328168E6 
  51      B30C4D3B 
  51      6E3C3EC0 
  51      94C8B8
  52 0061 90919541 		.ascii	"\220\221\225A\233aU\003\020\360g22\314f\230\305\230"
  52      9B615503 
  52      10F06732 
  52      32CC6698 
  52      C598
  53 0073 C9C898CE 		.ascii	"\311\310\230\316\310\024\001\244!NK\202\330\304\000"
  53      C81401A4 
  53      214E4B82 
  53      D8C400
  54 0082 126100B1 		.ascii	"\022a\000\261A\272\177`\321\315\214]7#\\73\210q\221"
  54      41BA7F60 
  54      D1CD8C5D 
  54      37235C37 
  54      33887191 
  55 0096 A1F1C10C 		.ascii	"\241\361\301\014e\210^\030\010\001*\002\272\013\244"
  55      65885E18 
  55      08012A02 
  55      BA0BA4
  56 00a5 43464F4F 		.ascii	"CFOO\3379#3)\323?X?\277X?#1G\277\270(Y?\265\242D/\231"
  56      DF392333 
  56      29D33F58 
  56      3FBF583F 
  56      233147BF 
  57 00c2 01009B74 		.ascii	"\001\000\233t=\002"
  57      3D02
  58              		.text
  59              		.section	.gnu.lto_extStart.de01d084cb22d8be,"",%progbits
  60 0000 789C8552 		.ascii	"x\234\205RAh\023A\024\375\177\266icrh\256B\011k\305"
  60      41681341 
ARM GAS  /tmp/ccJeoyMt.s 			page 4


  60      14FD7FB6 
  60      69637268 
  60      AE42096B 
  61 0015 534BC69B 		.ascii	"SK\306\233W% \210\004\241\251\240'\331\254K\263\220"
  61      57252088 
  61      04A1A9A0 
  61      27D9AC4B 
  61      B390
  62 0027 6DCA6E52 		.ascii	"m\312nRZ<t\223\346 \350\241\210\210Z\204\326\236ZP\017"
  62      5A3C7493 
  62      E620E8A1 
  62      88885A84 
  62      D69E5A50 
  63 003c BDF41074 		.ascii	"\275\364\020t\005\021D\254x\020*(]\017\236\004\305["
  63      051144AC 
  63      78102A28 
  63      5D0F9E04 
  63      C55B
  64 004e 2881F5CF 		.ascii	"(\201\365\317l\262M\322\242\263\314\374\371\177\336"
  64      6CB24DD2 
  64      A2B3CCFC 
  64      F97FDE
  65 005d 9FF7F7BF 		.ascii	"\237\367\367\277a\300`p\234\244\371\203\302\373dQ\001"
  65      61C06070 
  65      9CA4F983 
  65      C2FB6451 
  65      01
  66 006e 642BBB00 		.ascii	"d+\273\000\2658C\024\033@Xb\270t\035%\366\005\363\374"
  66      B5384314 
  66      1B405862 
  66      B8741D25 
  66      F605F3FC 
  67 0082 2078BEF7 		.ascii	" x\276\367\266\331\306U\226T\320B\030\242E\234\306\240"
  67      B6D9C655 
  67      9654D042 
  67      18A2459C 
  67      C6A0
  68 0094 E1BA2BAA 		.ascii	"\341\272+\252\205t\227.\341\323\264\212;\256R\210\254"
  68      8574972E 
  68      E1D3B48A 
  68      3BAE5288 
  68      AC
  69 00a5 F20EEA71 		.ascii	"\362\016\352q\200qXw\335{~\3407'\037\271^c\315m\007"
  69      80715877 
  69      DD7B7EE0 
  69      37271FB9 
  69      5E63CD6D 
  70 00ba 01A28954 		.ascii	"\001\242\211T\332e\024\231\327\310AU\0326\324_\253\210"
  70      DA651499 
  70      D7C84155 
  70      1A36D45F 
  70      AB88
  71 00cc 814A9B5D 		.ascii	"\201J\233]\250\377\331\\\336\276\253tX\273\364^\360"
  71      A8FFD95C 
  71      DEBEAB74 
  71      58BBF45E 
  71      F0
ARM GAS  /tmp/ccJeoyMt.s 			page 5


  72 00dd FA20C534 		.ascii	"\372 \3054|\212\343QI\336\306\375fr,\3626\037|\033\215"
  72      7C8AE351 
  72      49DEC6FD 
  72      66722CF2 
  72      361F7C1B 
  73 00f2 9C3B5FBF 		.ascii	"\234;_\277+\000\032\256c\214\250\005=\243\251\320\224"
  73      2B001AAE 
  73      638CA805 
  73      3DA3A9D0 
  73      94
  74 0103 CC48DF1B 		.ascii	"\314H\337\033r\351\227\224\260ui\370\214O\334\207\347"
  74      72E99794 
  74      B07569F8 
  74      8C4FDC87 
  74      E7
  75 0114 4D8AF616 		.ascii	"M\212\366\026tx\276\3279\357\224\376\001\352\357[\277"
  75      7478BED7 
  75      39EF94FE 
  75      01EAEF5B 
  75      BF
  76 0125 3C16724C 		.ascii	"<\026rL\300\226Kc\324\304\330*<\246\344\341\031T\304"
  76      C0964B63 
  76      D4C4D82A 
  76      3CA6E4E1 
  76      1954C4
  77 0138 2523125C 		.ascii	"%#\022\\\010\333\0143\"\373#4\374\346r\"L\004\270\005"
  77      08DB0C33 
  77      22FB2334 
  77      FCE67222 
  77      4C04B805 
  78 014c 07EE6D37 		.ascii	"\007\356m7eb\\\227\276@)&\236\220\024;;\277[8H\2218"
  78      65625C97 
  78      BE402926 
  78      9E90143B 
  78      3BBF5B38 
  79 0163 9E02A356 		.ascii	"\236\002\243V&D\311\375\252\254\275\034PE\303\015\331"
  79      2644C9FD 
  79      AAACBD1C 
  79      5045C30D 
  79      D9
  80 0174 93FFCA02 		.ascii	"\223\377\312\002\377\224\345K[\310\262\335/\313\317"
  80      FF94E54B 
  80      5BC8B2DD 
  80      2FCBCF
  81 0183 643A7A37 		.ascii	"d:z7=\372\264z\364\331\257\305\016\365\031\246)\377"
  81      3DFAB47A 
  81      F4D9AFC5 
  81      0EF519A6 
  81      29FF
  82 0195 42C7F831 		.ascii	"B\307\3701\022i\270E\233\250\230\256$\032>\303t\030"
  82      1269B845 
  82      9BA898AE 
  82      241A3EC3 
  82      7418
  83 01a7 F90435FF 		.ascii	"\371\0045\377\325\351nG\3031M\015\241\327)\240c\231"
  83      D5E96E47 
  83      C3314D0D 
ARM GAS  /tmp/ccJeoyMt.s 			page 6


  83      A1D729A0 
  83      6399
  84 01b9 0CCF16CD 		.ascii	"\014\317\026\315\202y%\317\313\016/j%\356\330:7\026"
  84      827925CF 
  84      CB0E2F6A 
  84      25EED83A 
  84      3716
  85 01cb 2A191D26 		.ascii	"*\031\035&\372\017\355\012\237+\333\025\207_\230\312"
  85      FA0FED0A 
  85      9F2BDB15 
  85      875F98CA 
  86 01db 65730B5C 		.ascii	"es\013\\/\352e\333\2701\177\316\312\024!6\257\225\252"
  86      2FEA65DB 
  86      B8317FCE 
  86      CA142136 
  86      AF95AA
  87 01ee 46A63F83 		.ascii	"F\246?\203\256\341\331\\\376R\236\233\263z\251z\323"
  87      AEE1D95C 
  87      FE529E9B 
  87      B37AA97A 
  87      D3
  88 01ff E03243B7 		.ascii	"\3402C\267.VguJ:u\204 \302\025\235E\347(B\324Wvh!\250"
  88      2E566775 
  88      4A3A7584 
  88      20C2159D 
  88      45E72842 
  89 0219 B08448E5 		.ascii	"\260\204H\345\362SjAs\2149\333\234T\317\234\005f\303"
  89      F2536A41 
  89      738C39DB 
  89      9C54CF9C 
  89      0566C3
  90 022c 88655865 		.ascii	"\210eXe{\021\376\002\237\323\370R"
  90      7B11FE02 
  90      9FD3F852 
  91              		.text
  92              		.section	.gnu.lto_extStop.de01d084cb22d8be,"",%progbits
  93 0000 789C8552 		.ascii	"x\234\205RMh\324@\024~ob\232-=t\257BYb\305SK\306\233"
  93      4D68D440 
  93      147E6F62 
  93      9A2D3D74 
  93      AF425962 
  94 0019 57654110 		.ascii	"WeA\020Y\204n\005=I6\006\023\3304%\331-\255=4\273\356"
  94      59846E05 
  94      3D493606 
  94      13D83425 
  94      D92DAD3D 
  95 0030 A1A08722 		.ascii	"\241\240\207\"\"\376\240\266\326K\213\277x\361Pd\005"
  95      22FEA0B6 
  95      D64B8BBF 
  95      78F15064 
  95      05
  96 0041 4144AC78 		.ascii	"AD\254x\020\364 \215xS\020\004\017R\012\361M\262\233"
  96      10F4208D 
  96      78531004 
  96      0F520AF1 
  96      4DB29B
  97 0054 6D5AD109 		.ascii	"mZ\321\011o\336\317|/\337\3137a\300`\347\332Kv\217\312"
ARM GAS  /tmp/ccJeoyMt.s 			page 7


  97      6FDECF7C 
  97      2FDFCB37 
  97      61C060E7 
  97      DA4B768F 
  98 0069 1BE45102 		.ascii	"\033\344Q\002d\013\353\000\215\034C\024\001 \3141\234"
  98      640BEB00 
  98      8D1C4314 
  98      0120CC31 
  98      9C
  99 007a 3B8D31F6 		.ascii	";\2151\366\021k\207Q\364\360\361\253;\367\3616\353\227"
  99      116B8751 
  99      F4F0F1AB 
  99      3BF7F136 
  99      EB97
 100 008c D089EB32 		.ascii	"\320\211\3532\264\202`Au\2202#\256\214\323.\332O\"\023"
 100      B4826041 
 100      75903223 
 100      AE8CD32E 
 100      DA4F2213 
 101 00a0 5E7A0DCD 		.ascii	"^z\015\315\034\3000,\005\301\3450\012\327F\257\007\355"
 101      1CC0302C 
 101      05C1E530 
 101      0AD746AF 
 101      07ED
 102 00b2 D662B015 		.ascii	"\326b\260\025E\2106\322T\307Qt\236\242\004\325\330\261"
 102      458836D2 
 102      54C75174 
 102      9EA204D5 
 102      D8B1
 103 00c4 3DD93145 		.ascii	"=\3311E\015T\012\326\241\371s\345\302\323KR\207\265"
 103      0D540AD6 
 103      A1F973E5 
 103      C2D34B52 
 103      87B5
 104 00d6 4BDF8E5E 		.ascii	"K\337\216^l\346\231\216wq8\035\251\275|em`(\315V\256"
 104      6CE6998E 
 104      7771381D 
 104      A9BD7C65 
 104      6D6028CD 
 105 00ec 7E1E4C93 		.ascii	"~\036L\223\213?\276H\000:.\241L\324\202\236\221Id13"
 105      8B3FBE48 
 105      003A2EA1 
 105      4CD4829E 
 105      91496431 
 106 0101 D2F39252 		.ascii	"\322\363\222RRFJT+\300\007\274\025\\;lSu\373@\275\363"
 106      52464A54 
 106      2BC007BC 
 106      155C3B6C 
 106      5375FB40 
 107 0117 8F9DF3CE 		.ascii	"\217\235\363\316\350\357\240\025n|U\022\012\200Y\330"
 107      E8EFA015 
 107      6E7C5512 
 107      0A8059D8 
 108 0127 0CE683BC 		.ascii	"\014\346\203\274\215\262\021\347\000\347P\262\261\017"
 108      8DB211E7 
 108      00E750B2 
 108      B10F
ARM GAS  /tmp/ccJeoyMt.s 			page 8


 109 0135 E02D349F 		.ascii	"\340-4\237\315\237Op#\260\032\320\032\264Q\271\0117"
 109      CD9F4F70 
 109      23B01AD0 
 109      1AB451B9 
 109      0937
 110 0147 88234728 		.ascii	"\210#G(\301\325\037\267T\260'\207\"\342\254\262\213"
 110      C1D51FB7 
 110      54B02787 
 110      22E2ACB2 
 110      8B
 111 0158 CF7728AB 		.ascii	"\317w(\253\343r\374]\377\225\026\376)\355\247-!\355"
 111      E372FC5D 
 111      FF9516FE 
 111      29EDA72D 
 111      21ED
 112 016a 93ACB4DF 		.ascii	"\223\254\264\337\007\012\351\335o\323\370wO\3437\277"
 112      070AE9DD 
 112      6FD3F877 
 112      4FE337BF 
 113 017a 1A724FE3 		.ascii	"\032rO\343>2E\360\030\230\373\213\314:\256R\220\016"
 113      3E3245F0 
 113      1898FB8B 
 113      CC3AAE52 
 113      900E
 114 018c D39555C7 		.ascii	"\323\225U\307\007XH*\357\241\021~\333\337\3253Y\343"
 114      0758482A 
 114      EFA1117E 
 114      DBDFD533 
 114      59E3
 115 019e 7475F487 		.ascii	"tu\364\207\011\350\220\246\361\242eW\354\023e\356\372"
 115      09E890A6 
 115      F1A26557 
 115      EC1365EE 
 115      FA
 116 01af DCD2ABDC 		.ascii	"\334\322\253\334\367\014nN\3274\003F\262\207^\215O\272"
 116      F70C6E4E 
 116      D7340346 
 116      B2875E8D 
 116      4FBA
 117 01c1 5ECDE747 		.ascii	"^\315\347G\306J\305\32247,\303\365\3143S\207\034\315"
 117      C64AC5D2 
 117      34372CC3 
 117      F5CC3353 
 117      871CCD
 118 01d4 02794AAF 		.ascii	"\002yJ\257\326M-\333A\257\341\305R\371X\231\333\023"
 118      D64D2DDB 
 118      41AFE1C5 
 118      52F95899 
 118      DB13
 119 01e6 46B57ED6 		.ascii	"F\265~\326\344q\207\341\034\255O\030\324\264o\027A\212"
 119      E47187E1 
 119      1CAD4F18 
 119      D4B46F17 
 119      418A
 120 01f8 B3FC197F 		.ascii	"\263\374\031\1777B\314\347\372\264\021TxB\344K\3451"
 120      3742CCE7 
 120      FAB41154 
ARM GAS  /tmp/ccJeoyMt.s 			page 9


 120      7842E44B 
 120      E531
 121 020a B5A2FBE6 		.ascii	"\265\242\373\346\244g\217\252\007\016\002\363@qL\307"
 121      A4678FAA 
 121      070E02F3 
 121      40714CC7 
 122 021a F566E00F 		.ascii	"\365f\340\017\262\254\351\251"
 122      B2ACE9A9 
 123              		.text
 124              		.section	.gnu.lto_extChannelEnable.de01d084cb22d8be,"",%progbits
 125 0000 789C8552 		.ascii	"x\234\205RMh\324@\024~o\262iWzp\257BYb\241'K\306\233"
 125      4D68D440 
 125      147E6FB2 
 125      69577A70 
 125      AF425962 
 126 0019 57654110 		.ascii	"WeA\020Y\204n\205\366$\351\030\232\300\246)\311ni\361"
 126      59846E85 
 126      F624E918 
 126      9AC0A629 
 126      C96E69F1 
 127 002d D0E95AB1 		.ascii	"\320\351Z\261\207R\212\210\324C\241?\247\025\264\007"
 127      87528A88 
 127      D443A13F 
 127      A715B407 
 128 003d AF455728 		.ascii	"\257EW(\210\010\025\017\202\036\304\340\325\2237Y\012"
 128      8808150F 
 128      821EC4E0 
 128      D5933759 
 128      0A
 129 004e F14D7637 		.ascii	"\361Mv7\335\264E\023\336\274y\177\363}\371&\014\030"
 129      DDB44513 
 129      DEBC797F 
 129      F37DF926 
 129      0C18
 130 0060 9C7E2E91 		.ascii	"\234~.\221\371\224\376A\0365@\266q\004\260\234g\210"
 130      F994FE41 
 130      1E3540B6 
 130      7104B09C 
 130      6788
 131 0072 6A03084B 		.ascii	"j\003\010K\014\227\2460\351\335g\255(\216_\265\037\277"
 131      0C97A630 
 131      E9DD67AD 
 131      288E5FB5 
 131      1FBF
 132 0084 5DC326BB 		.ascii	"]\303&\273\240\241\207\220\243EUuX\221r\303\360\220"
 132      A0A18790 
 132      A3455575 
 132      589172C3 
 132      F090
 133 0096 CE1249FB 		.ascii	"\316\022I\373\004\255\352\214\273\224\"\257}\200F\036"
 133      04ADEA8C 
 133      BB9422AF 
 133      7D80461E 
 134 00a6 600476A4 		.ascii	"`\004v\244|\022\305\321\301\330s\331Z\331\226\307q\214"
 134      7C12C5D1 
 134      C1D873D9 
 134      5AD996C7 
ARM GAS  /tmp/ccJeoyMt.s 			page 10


 134      718C
 135 00b8 E82251BB 		.ascii	"\350\"Q\273\215jr\222\0024\022\307rY\256*\007\006m\216"
 135      8D6A7292 
 135      023412C7 
 135      7259AE2A 
 135      07066D8E 
 136 00cc A0F1BBF9 		.ascii	"\240\361\273\371\360\365\232\326E\355\301\267\342w\355"
 136      F0F59AD6 
 136      45EDC1B7 
 136      E277ED
 137 00db 02B37017 		.ascii	"\002\263p\027GRJ\255\275\247\007C\303i\324|\366\375"
 137      47524AAD 
 137      BDA70743 
 137      C369D47C 
 137      F6FD
 138 00ed 621A7C3C 		.ascii	"b\032|<\374\251\001X\270\203:A+xF\246\221%\310H\357"
 138      FCA90158 
 138      B8833A41 
 138      2B7846A6 
 138      9125C848 
 139 0102 2185F449 		.ascii	"!\205\364IZG\272\"|\301-\271y\335\245l?\241\223\372"
 139      5A47BA22 
 139      7CC12DB9 
 139      79DDA56C 
 139      3FA193FA 
 140 0116 D76EBD4B 		.ascii	"\327n\275K\375\023<\212\326\355\016\002\300\003h\313"
 140      FD133C8A 
 140      D6ED0E02 
 140      C00368CB 
 141 0126 55597051 		.ascii	"UYpQ\027I\0140\203\332\014\346\\\034\000\310\352\263"
 141      17490C30 
 141      83DA0CE6 
 141      5C1C00C8 
 141      EAB3
 142 0138 FDE6943E 		.ascii	"\375\346\224>\026\356%\354\376+\020\374S\240o\307J\240"
 142      16EE25EC 
 142      FE2B10FC 
 142      53A06FC7 
 142      4AA0
 143 014a FDAC40BF 		.ascii	"\375\254@\277\206\212\351\015\366)\365\247O\251\367"
 143      868AE90D 
 143      F629F5A7 
 143      4FA9F7
 144 0159 0DFD44A9 		.ascii	"\015\375D\251\001\262A\205#0\177\216X\026\276\240MJ"
 144      01B24185 
 144      23307F8E 
 144      5816BEA0 
 144      4D4A
 145 016b A6278E85 		.ascii	"\246'\216\205/\261\330\311|\206\345hs\264'K\347\231"
 145      2FB1D8C9 
 145      7C86E568 
 145      73B4274B 
 145      E799
 146 017d A00BA0FF 		.ascii	"\240\013\240\377D\265\016\233&/9\356\264{\247\302\375"
 146      44B50E9B 
 146      262F39EE 
 146      B47BA7C2 
ARM GAS  /tmp/ccJeoyMt.s 			page 11


 146      FD
 147 018e 903B5695 		.ascii	"\220;V\225\207\201\340\366B\315\024p%[\014j|\316\017"
 147      8781E0F6 
 147      42CD1470 
 147      255B0C6A 
 147      7CCE0F
 148 01a1 6A21BF31 		.ascii	"j!\2771^.\225\027\270p\204\037\330\367\346\257y\246"
 148      5E2E9517 
 148      B870841F 
 148      D8F7E6AF 
 148      79A6
 149 01b3 03FABC55 		.ascii	"\003\372\274U\255\333fv\202\216\341\245r\345V\205\273"
 149      ADDB6676 
 149      828EE1A5 
 149      72E55685 
 149      BB
 150 01c4 B3A25ABF 		.ascii	"\263\242Z\277o\363dBx7\353\263\202\206.\237\001H\373"
 150      6FF36442 
 150      7837EBB3 
 150      82862E9F 
 150      0148FB
 151 01d7 9C70313C 		.ascii	"\234p1<\333\241\370\371!-\324\252<u\024\312\225qc\332"
 151      DBA1F8F9 
 151      212DD4AA 
 151      3C7514CA 
 151      957163DA 
 152 01eb 0AEDB9C0 		.ascii	"\012\355\271\300\0353F\257\002\013`\320\263=?X\204\277"
 152      1D3346AF 
 152      020B60D0 
 152      B33D3F58 
 152      84BF
 153 01fd F1A2DDBA 		.ascii	"\361\242\335\272"
 154              		.text
 155              		.section	.gnu.lto_extChannelDisable.de01d084cb22d8be,"",%progbits
 156 0000 789C8552 		.ascii	"x\234\205RMh\324@\024~o\262iWzp\257BYb\241'K\306\233"
 156      4D68D440 
 156      147E6FB2 
 156      69577A70 
 156      AF425962 
 157 0019 57654128 		.ascii	"WeA(e)t+\350I\32214\201MS\222\335\322\322C\247k\013"
 157      6529742B 
 157      E849D231 
 157      34814D53 
 157      92DDD2D2 
 158 0031 3DF45044 		.ascii	"=\364PDD\017BkOU\264\007\257K]\301\213\012\025\017\376"
 158      440F426B 
 158      4F55B407 
 158      AF4B5DC1 
 158      8B0A150F 
 159 0046 1DD4E055 		.ascii	"\035\324\340U/\336\244\024\342\233\354n\272i\245&\274"
 159      2FDEA414 
 159      E29BEC6E 
 159      BA69A526 
 159      BC
 160 0057 79F3FEE6 		.ascii	"y\363\376\346\373\362M\03008\376\234#\363)\375\235<"
 160      FBF24D18 
 160      3038FE9C 
ARM GAS  /tmp/ccJeoyMt.s 			page 12


 160      23F329FD 
 160      9D3C
 161 0069 6A806C63 		.ascii	"j\200lc\037`9\317\020\325\006\020\226\030.\335\300\244"
 161      1F6039CF 
 161      10D50610 
 161      96182EDD 
 161      C0A4
 162 007b 7797B5A2 		.ascii	"w\227\265\2428~\366\361\315\213_\370\204\235\321\320"
 162      387EF6F1 
 162      CD8B5FF8 
 162      849DD1D0 
 163 008b 43C8D1A2 		.ascii	"C\310\321\242\252:\254H\271axHg\211\244}\222Vu\3065"
 163      AA3AAC48 
 163      B9617848 
 163      6789A47D 
 163      925675C6 
 164 00a0 4A91D75E 		.ascii	"J\221\327^C#\0170\004[R\336\211\342\2509\362@\266V6"
 164      43230F30 
 164      045B52DE 
 164      89E2A839 
 164      F240B656 
 165 00b5 E5611C23 		.ascii	"\345a\034#\272H\324\306PM^\247\000\215\304\261\\\226"
 165      BA48D4C6 
 165      504D5EA7 
 165      008DC4B1 
 165      5C96
 166 00c7 ABCA8141 		.ascii	"\253\312\201A\233}h\374\336\271\375|]\353\240v\341["
 166      9B7D68FC 
 166      DEB9FD7C 
 166      5DEBA076 
 166      E15B
 167 00d9 F1CB8302 		.ascii	"\361\313\203\002\263\360\021\016\245\224Z\333w\233\003"
 167      B3F0110E 
 167      A5945ADB 
 167      779B03
 168 00e8 8369B473 		.ascii	"\203i\264s\357\353\3314x\373\351\207\006`\341\026\352"
 168      EFEBD934 
 168      78FBE987 
 168      0660E116 
 168      EA
 169 00f9 04ADE019 		.ascii	"\004\255\340\031\231F\226 #\275\257(\244O\322\332\322"
 169      99469620 
 169      23BDAF28 
 169      A44FD2DA 
 169      D2
 170 010a 15E1033E 		.ascii	"\025\341\003>\224\367/\273\224\355%tT\377\334\251w\250"
 170      94F72FBB 
 170      94ED2574 
 170      54FFDCA9 
 170      77A8
 171 011c BF83D5A8 		.ascii	"\277\203\325\250i\267\021\000\026\341@\256\311\202\213"
 171      69B71100 
 171      16E140AE 
 171      C9828B
 172 012b BA486280 		.ascii	"\272Hb\200i\324\2461\347b\037@V\237\315\275c\372X\270"
 172      69D4A631 
 172      E7621F40 
ARM GAS  /tmp/ccJeoyMt.s 			page 13


 172      569FCDBD 
 172      63FA58B8 
 173 013f 9DB0FBAF 		.ascii	"\235\260\373\257@p\252@_\016\225@\273Y\201~\016\024"
 173      4070AA40 
 173      5F0E9540 
 173      BB59817E 
 173      0E14
 174 0151 D31BEC51 		.ascii	"\323\033\354Q\352O\217R\337\032\372\221R}d\375\012G"
 174      EA4F8F52 
 174      DF1AFA91 
 174      527D64FD 
 174      0A47
 175 0163 60FE1F62 		.ascii	"`\376\037bY\370\2306)\231\2568\026>\305b;\363\036\226"
 175      59F89836 
 175      2999AE38 
 175      163EC562 
 175      3BF31E96 
 176 0177 A3BDE1AE 		.ascii	"\243\275\341\256,\355g\222.\200\376\023\325:h\232\274"
 176      2CED6792 
 176      2E80FE13 
 176      D53A689A 
 176      BC
 177 0188 E4B853EE 		.ascii	"\344\270S\356x\205\373!w\254*\017\003\301\355\371\232"
 177      7885FB21 
 177      77AC2A0F 
 177      03C1EDF9 
 177      9A
 178 0199 29E042B6 		.ascii	")\340B\266\030\324\370\254\037\324B~e\242\\*\317s\341"
 178      18D4F8AC 
 178      1FD4427E 
 178      65A25C2A 
 178      CF73E1
 179 01ac 083FB06F 		.ascii	"\010?\260o\316]\362L\007\3649\253Z\267\315\354\004\035"
 179      CE5DF24C 
 179      07F439AB 
 179      5AB7CDEC 
 179      041D
 180 01be C34BE5CA 		.ascii	"\303K\345\312h\205\2733\242Z\277e\363dBxW\3533\202\206"
 180      6885BB33 
 180      A25ABF65 
 180      F3644278 
 180      57EB3382 
 181 01d3 CE9F0048 		.ascii	"\316\237\000H\373\234p!<\331\241\370\371!-\324\252<"
 181      FB9C7021 
 181      3CD9A1F8 
 181      F9212DD4 
 181      AA3C
 182 01e5 7514CA95 		.ascii	"u\024\312\225\011c\312\012\355\331\300\0351\206/\002"
 182      0963CA0A 
 182      EDD9C01D 
 182      31862F02 
 183 01f5 0BA0DFB3 		.ascii	"\013\240\337\263=?X\200\277c\344\336\271"
 183      3D3F5880 
 183      BF63E4DE 
 183      B9
 184              		.text
 185              		.section	.gnu.lto_extSetChannelModeI.de01d084cb22d8be,"",%progbits
ARM GAS  /tmp/ccJeoyMt.s 			page 14


 186 0000 789C7591 		.ascii	"x\234u\221?K\303P\024\305\317}IjU(\256\025\301R\004"
 186      3F4BC350 
 186      14C5CF7D 
 186      496A5528 
 186      AE15C152 
 187 0015 C16233FA 		.ascii	"\301b3\372\001\374\000\016*\350\330FI\003-\025\353 "
 187      01FC000E 
 187      2AE8D846 
 187      49032D15 
 187      EB20
 188 0027 38F4B558 		.ascii	"8\364\265X\020\212R\034\004\377\014\326E\020\321\301"
 188      108A521C 
 188      04FF0CD6 
 188      4510D1C1 
 189 0037 454530AB 		.ascii	"EE0\253\210\212\213\240 \324\311\305\017 \016\306\373"
 189      888A8BA0 
 189      20D4C9C5 
 189      0F200EC6 
 189      FB
 190 0048 9AA650C5 		.ascii	"\232\246P\305\007y\367\206w\356\357\234\274\010\010"
 190      0779F786 
 190      77EEEF9C 
 190      BC0808
 191 0057 FC5E517E 		.ascii	"\374^Q~\336\011\030\342J\032H\324\356\201RX\020\251"
 191      DE0918E2 
 191      4A1A48D4 
 191      EE815258 
 191      10A9
 192 0069 0684A2A0 		.ascii	"\006\204\242\240\342,5\265\247\302mx\336\311S\365\352"
 192      E22C35B5 
 192      A7C26D78 
 192      DEC953F5 
 192      EA
 193 007a 83CE056B 		.ascii	"\203\316\005kr\004\015\016A\347\216\014\336\024\337"
 193      72040D0E 
 193      41E78E0C 
 193      DE14DF
 194 0089 C0AA94B5 		.ascii	"\300\252\224\265X\034u)7\335\347\333\255\250\334/\327"
 194      581C7529 
 194      37DDE7DB 
 194      ADA8DC2F 
 194      D7
 195 009a E4B7E791 		.ascii	"\344\267\347\221C\254\030$X\204\031~\021\261f\321\364"
 195      43AC1824 
 195      5884197E 
 195      11B166D1 
 195      F4
 196 00ab CE4839CE 		.ascii	"\316H9\316\241$\274\246xW9\246y\216\253v\207\362\313"
 196      A124BCA6 
 196      785739A6 
 196      798EAB76 
 196      87F2CB
 197 00be E7F59B9E 		.ascii	"\347\365\233\236\242:\031\260IK`\204\375w\261\303\034"
 197      A23A19B0 
 197      494B6084 
 197      FD77B1C3 
 197      1C
ARM GAS  /tmp/ccJeoyMt.s 			page 15


 198 00cf DD26A178 		.ascii	"\335&\241xF\223\222\246\200w\203\262\033\365'r\244\257"
 198      469392A6 
 198      807783B2 
 198      1BF52772 
 198      A4AF
 199 00e1 E04BF639 		.ascii	"\340K\3669\024\032\305\261\254I\371\312\003]\011\034"
 199      141AC5B1 
 199      AC49F9CA 
 199      035D091C 
 200 00f1 A9FE82FB 		.ascii	"\251\376\202\373\260\317\352f\266b\241\305\362\033\233"
 200      B0CFEA66 
 200      B662A1C5 
 200      F21B9B
 201 0100 82A83EAE 		.ascii	"\202\250>\256\023\236\242\003\212+\013\200s^V\316\366"
 201      139EA203 
 201      8A2B0B80 
 201      735E56CE 
 201      F6
 202 0111 FAFD03DF 		.ascii	"\372\375\003\337\312\365\252c\177\275JR\245\011\354"
 202      CAF5AA63 
 202      7FBD4A52 
 202      A509EC
 203 0120 E81F3B5F 		.ascii	"\350\037;_\350noD\230`\223\241\264\241\326\331\003*"
 203      E86E6F44 
 203      986093A1 
 203      B4A1D6D9 
 203      032A
 204 0132 8DF5C348 		.ascii	"\215\365\303H\220H}\337\232b\366Xm\214`\222C\275\300"
 204      90487DDF 
 204      9A62F658 
 204      6D8C6092 
 204      43BDC0
 205 0145 234A8D8D 		.ascii	"#J\215\215\341vx\370wL\352n\325\257\033H&\315\361\214"
 205      E17678F8 
 205      774CEA6E 
 205      D5AF1B48 
 205      26CDF18C 
 206 0159 93762626 		.ascii	"\223v&&\315|\301\314\244\262fa\3212\347\227\227\222"
 206      CD7CC1CC 
 206      A4B26661 
 206      D132E797 
 206      9792
 207 016b 168C7C76 		.ascii	"\026\214|v\316Z\370\001\206\271{$"
 207      CE5AF801 
 207      86B97B24 
 208              		.text
 209              		.section	.gnu.lto_.symbol_nodes.de01d084cb22d8be,"",%progbits
 210 0000 789C4DC7 		.ascii	"x\234M\307K\012\302@\024D\321z\325\371v\026]\201L\034"
 210      4B0AC240 
 210      1444D17A 
 210      D5F97616 
 210      5D814C1C 
 211 0014 464D5410 		.ascii	"FMT\020u1\316]\203\301}\004\011-\366\273\223\313!\210"
 211      7531CE5D 
 211      83C17D04 
 211      092DF6BB 
 211      93CB2188 
ARM GAS  /tmp/ccJeoyMt.s 			page 16


 212 0028 05BF3852 		.ascii	"\005\2778R\300\370\002\244\373\316\270\247\314\361@"
 212      C0F802A4 
 212      FBCEB8A7 
 212      CCF140
 213 0037 D1F14805 		.ascii	"\321\361H\005\307\211*\034g\252t<QU\246\235\251:\261"
 213      C7892A1C 
 213      67AA743C 
 213      5155A69D 
 213      A93AB1
 214 004a EFCD2E54 		.ascii	"\357\315.T\223u\245\332\254\033\025\263\036T\367W@\215"
 214      9375A5DA 
 214      AC1B15B3 
 214      1E54F757 
 214      408D
 215 005c E1BD5A60 		.ascii	"\341\275Z`\203\317\366\320\342\271\275\210\351e\227"
 215      83CFF6D0 
 215      E2B9BD88 
 215      E96597
 216 006b 5E450CCB 		.ascii	"^E\014\313j\370\002u\017E\007"
 216      6AF80275 
 216      0F4507
 217              		.text
 218              		.section	.gnu.lto_.refs.de01d084cb22d8be,"",%progbits
 219 0000 789C6362 		.ascii	"x\234cb`b`d\200\002\000\000F\000\006"
 219      60626064 
 219      80020000 
 219      460006
 220              		.text
 221              		.section	.gnu.lto_.decls.de01d084cb22d8be,"",%progbits
 222 0000 789CBD59 		.ascii	"x\234\275Y\177p\024W\035\177o\363\343\356\310\017\223"
 222      7F701457 
 222      1D7F6FF3 
 222      E3EEC80F 
 222      93
 223 0011 B450D43A 		.ascii	"\264P\324:\004[\352L\235p\020\350@\375\243\202\001%"
 223      045BEA4C 
 223      9D7010E8 
 223      40FDA382 
 223      0125
 224 0023 33049826 		.ascii	"3\004\230&q:\2433;\233\273\2459{\271\213w\027 3*\033"
 224      713AA333 
 224      3B9BBBA5 
 224      397BB98B 
 224      77172033 
 225 0039 02110534 		.ascii	"\002\021\0054\264B\203P<~44\025$\226T\246\232\264\007"
 225      B4428350 
 225      3C7E3434 
 225      15249654 
 225      A69AB407 
 226 004d 9524928A 		.ascii	"\225$\222\212\021\250t,\325\003:t\306\326\310\020\321"
 226      11A8742C 
 226      D5033A74 
 226      C6D6C810 
 226      D1
 227 005e 404DCEEF 		.ascii	"@M\316\357{\373\366v\367\335\356\345\256\316\2703\337"
 227      7BFBF676 
 227      F7DDEEE5 
ARM GAS  /tmp/ccJeoyMt.s 			page 17


 227      AECEB833 
 227      DF
 228 006f DBB7BBDF 		.ascii	"\333\267\273\337\357\367\363\375|\277\357\275}oO@\002"
 228      EFF7F3FD 
 228      7CBFEFBD 
 228      7D6F4F40 
 228      02
 229 0080 2ACC4128 		.ascii	"*\314A(\001\307\306\317\"\2640\027!'B\350\011\244\037"
 229      01C7C6CF 
 229      22B43017 
 229      212742E8 
 229      09A41F
 230 0093 85208740 		.ascii	"\205 \207@\272An\202\214\201\334\006\231\000\231\004"
 230      BA416E82 
 230      8C81DC06 
 230      99009904 
 231 00a3 99814107 		.ascii	"\231\201A\007\244\030\244\004\244\014\243\224\203\330"
 231      A418A404 
 231      A40CA394 
 231      83D8
 232 00b1 0B20F7C3 		.ascii	"\013 \367\303\263\303\354\236\300\356\317\260\320'X"
 232      B3C3EC9E 
 232      C0EECFB0 
 232      D02758
 233 00c0 100AEA05 		.ascii	"\020\012\352\005y\031\244\007d\200\331\234\004\351\007"
 233      7919A407 
 233      6480D99C 
 233      04E907
 234 00cf C14C8F9C 		.ascii	"\301L\217\234op\366$\316\002\220\021\220b\306a&(~\006"
 234      6F70F624 
 234      CE029011 
 234      9062C661 
 234      26287E06 
 235 00e3 AB7E349F 		.ascii	"\253~4\237\017\302\3651\206#0\277\304\277\213\371\370"
 235      0FC2F531 
 235      862330BF 
 235      C4BF8BF9 
 235      F8
 236 00f4 1C3C2F07 		.ascii	"\034</\007y\010\344\021\306\323\015R\011\362\030\010"
 236      7908E411 
 236      C6D30D52 
 236      09F21808 
 237 0104 A40E7D08 		.ascii	"\244\016}\010\362\021\310R\216\007\311\323\014\233\030"
 237      F211C852 
 237      8E07C9D3 
 237      0C9B18
 238 0113 8CB85A2C 		.ascii	"\214\270Z,\330\200=f\201]\314a\223xo\201|\231\303%\265"
 238      D8803D66 
 238      815DCC61 
 238      93786F81 
 238      7C99C325 
 239 0128 71D8E05E 		.ascii	"q\330\340^\205\366e\246\347b\272<N\211\005\307\177\202"
 239      85F665A6 
 239      E762BA3C 
 239      4E8905C7 
 239      7F82
 240 013a DC0159C1 		.ascii	"\334\001Y\301aMd\2015a\201Uf\201u\017\344c\220j\016"
ARM GAS  /tmp/ccJeoyMt.s 			page 18


 240      614D6481 
 240      35618155 
 240      6681750F 
 240      E463906A 
 241 014f 6B92F927 		.ascii	"k\222\371'\365[\203u<-\177\002\261\007Y\013\362:\322"
 241      F55B8375 
 241      3C2D7F02 
 241      B107590B 
 241      F23AD2
 242 0162 F1B5BABE 		.ascii	"\361\265\272\276\311\332\304\017\341\230\007\347<8\347"
 242      C9DAC40F 
 242      E19807E7 
 242      3C38E7
 243 0171 833840D6 		.ascii	"\2038@\326\201\324s\230s\320A%\032\217o;8\202\225g\225"
 243      81D47398 
 243      73D04125 
 243      1A8F6F3B 
 243      38829567 
 244 0186 FF241239 		.ascii	"\377$\0229h\026\332\243\300\021\355P\024\034\221\360"
 244      6816DAA3 
 244      C011ED50 
 244      141C91F0 
 245 0196 1333D153 		.ascii	"\0233\321SX\302\305.TN\033\205.\332q\021\222\360a<\213"
 245      58C2C52E 
 245      544E1B85 
 245      2EDA7111 
 245      92F0613C 
 246 01ab B5EA7354 		.ascii	"\265\352sTw\002\232\203\321\243\250\007\354;\025\345"
 246      77029A83 
 246      D1A3A807 
 246      EC3B15E5 
 247 01bb FA7DC8EA 		.ascii	"\372}\310\352x\004\275H\000\224\227\224\034\352\236"
 247      7804BD48 
 247      00949794 
 247      1CEA9E
 248 01ca 383884E7 		.ascii	"88\204\347\030U$|\004\013\251q\306\272\006\013;\333"
 248      1855247C 
 248      040BA971 
 248      C6BA060B 
 248      3BDB
 249 01dc E289C49C 		.ascii	"\342\211\304\234\314\203<\306\202\314\241\271\201A\363"
 249      CC833CC6 
 249      82CCA1B9 
 249      8141F3
 250 01eb 4345D942 		.ascii	"CE\331B\014W\015\027\227\241\335\304K\3710\244\232\331"
 250      0C570D17 
 250      97A1DDC4 
 250      4BF930A4 
 250      9AD9
 251 01fd 2FD3ECC9 		.ascii	"/\323\354\311,1\017\035\005\"\361\201k;\277\244(N\011"
 251      2C310F1D 
 251      0522F181 
 251      6B3BBFA4 
 251      284E09
 252 0210 BF8CCBC0 		.ascii	"\277\214\313\300\013\344_\302G\361\243,4\346$\272\314"
 252      0BE45FC2 
 252      47F1A32C 
ARM GAS  /tmp/ccJeoyMt.s 			page 19


 252      34E624BA 
 252      CC
 253 0221 CE8B848F 		.ascii	"\316\213\204\217\003\031\011\237\000k\325\220\372U\342"
 253      0319099F 
 253      006BD590 
 253      FA55E2
 254 0230 E38377DA 		.ascii	"\343\203w\332p\0330P\237!\223[\3231\027E!\352\330_\207"
 254      701B3050 
 254      9F21935B 
 254      D3311745 
 254      21EAD85F 
 255 0245 0E3EA0C4 		.ascii	"\016>\240\304c\330\201:\010\211\370\266-\263\273tP\247"
 255      63D8813A 
 255      0889F8B6 
 255      2DB3BB74 
 255      50A7
 256 0257 068A0DA1 		.ascii	"\006\212\015\241\237\330\231CC\357\005#\001\355\302"
 256      9FD89943 
 256      43EF0523 
 256      01EDC2
 257 0266 E6D83370 		.ascii	"\346\3303pD\242:\005\306\306\310c\211\326r\365n\232"
 257      44A23A05 
 257      C6C6C863 
 257      89D672F5 
 257      6E9A
 258 0278 9869C205 		.ascii	"\230i\302\005\324\005\220\304]\256K\277wD\277\207\015"
 258      D40590C4 
 258      5DAE4BBF 
 258      7744BF87 
 258      0D
 259 0289 AAC7F5DB 		.ascii	"\252\307\365\333Z\361\311%v\351\215\204\271\377\032"
 259      5AF1C925 
 259      76E98D84 
 259      B9FF1A
 260 0298 4393701F 		.ascii	"C\223p\037\236\007\277\257\342\034K3\001\235\246\354"
 260      9E07BFAF 
 260      E21C4B33 
 260      019DA6EC 
 261 02a8 49AAAD88 		.ascii	"I\252\255\210\262\246\216[\254]\260\364C\275&\257\341"
 261      B2A68E5B 
 261      AC5DB0F4 
 261      43BD26AF 
 261      E1
 262 02b9 E7DA95E1 		.ascii	"\347\332\225\341\005V\275\010T\260\241\013(\245\232"
 262      0556BD08 
 262      54B0A10B 
 262      28A59A
 263 02c8 C74E2159 		.ascii	"\307N!Y\217\330\300\020.\267\350u\234\262\204\337\000"
 263      8FD8C010 
 263      2EB7E875 
 263      9CB284DF 
 263      00
 264 02d9 2AD3EB11 		.ascii	"*\323\353\021\3153\\\257\212\375r\250P\311U\357O\327"
 264      CD335CAF 
 264      8AFD72A8 
 264      50C955EF 
 264      4FD7
ARM GAS  /tmp/ccJeoyMt.s 			page 20


 265 02eb A394D86B 		.ascii	"\243\224\330kC\007\260\022=\213KQ'\303\232\266;3&{\200"
 265      4307B012 
 265      3D8B4B51 
 265      27C39AB6 
 265      3B33267B 
 266 0300 8984CFD1 		.ascii	"\211\204\317\321\0211\200\263\034\022$\260a>\360\367"
 266      113180B3 
 266      1C1224B0 
 266      613EF0F7 
 267 0310 0669E0C3 		.ascii	"\006i\340\303\031\015\205;\203\007>M\002w\241\355z%"
 267      190D853B 
 267      83073E4D 
 267      0277A1ED 
 267      7A25
 268 0322 90E52CA0 		.ascii	"\220\345,\240\015\205\037\235;\203\267\320\3216\202"
 268      0D851F9D 
 268      3B83B7D0 
 268      D13682
 269 0331 490F3B2B 		.ascii	"I\017;+\230\243\316\334\325\351\275\375\217\323Qu\201"
 269      98A3CEDC 
 269      D5E9BDFD 
 269      8FD35175 
 269      81
 270 0342 3A1ACD31 		.ascii	":\032\3151;\222\260\303e\014\231^k\012\304\233\303\245"
 270      3B92B0C3 
 270      650C995E 
 270      6B0AC49B 
 270      C3A5
 271 0354 37C8CAE4 		.ascii	"7\310\312\344S([u\001\275KA\207\365\316l\012t\372\316"
 271      53285B75 
 271      01BD4B41 
 271      87F5CE6C 
 271      0A74FACE 
 272 0368 7C7BF07D 		.ascii	"|{\360}\274O\211m\3151\365\345\314\347\325\313\346y"
 272      BC4F896D 
 272      CD31F5E5 
 272      CCE7D5CB 
 272      E679
 273 037a 55C23DB8 		.ascii	"U\302=\270@\273\3108\223\261S\0353I\315\257\320<\306"
 273      40BBC838 
 273      93B1531D 
 273      3349CDAF 
 273      D03CC6
 274 038d 53F23882 		.ascii	"S\3628\202?I\"\365\367\021J\013~\251\343~\002~\011\002"
 274      3F4922F5 
 274      F7114A0B 
 274      7EA9E37E 
 274      027E0902 
 275 03a1 17D0DF39 		.ascii	"\027\320\3379pSZT\272v\251\270\012\016\254\373k\312"
 275      70535A54 
 275      BA76A9B8 
 275      0A0EACFB 
 275      6BCA
 276 03b3 33017D9C 		.ascii	"3\001}\234u\335\312S\334\032\374\353\243H\302\277\243"
 276      75DDCA53 
 276      DC1AFCEB 
 276      A348C2BF 
ARM GAS  /tmp/ccJeoyMt.s 			page 21


 276      A3
 277 03c4 F3DF793C 		.ascii	"\363\337y<\027~/\302/\237\003\213\331\343\2670\362\223"
 277      177E2FC2 
 277      2F9F038B 
 277      D9E3B730 
 277      F293
 278 03d6 1553926C 		.ascii	"\025S\222lA\305\216\354_XI\222\221\262\206\006'\240"
 278      41C58EEC 
 278      5F584992 
 278      91B28606 
 278      27A0
 279 03e8 29CAF08C 		.ascii	")\312\360\214\316\220\303M\3237\015\304TJg)\2457\215"
 279      CE90C34D 
 279      D3370DC4 
 279      544A6729 
 279      A5378D
 280 03fb 6404F4FD 		.ascii	"d\004\364\375\\\276\237\250\223\235\301Z\237\025\021"
 280      5CBE9FA8 
 280      939DC15A 
 280      9F1511
 281 040a 6F6F476C 		.ascii	"ooGl\000\027\350\020\273s\271W\305\377V\245\023\206"
 281      0017E810 
 281      BB73B957 
 281      C5FF56A5 
 281      1386
 282 041c 2AFD8252 		.ascii	"*\375\202R:I\253\324\237I`=z`\246\236\015\357V.\021"
 282      3A49ABD4 
 282      9F49603D 
 282      7A60A69E 
 282      0DEF562E 
 283 0431 0FA3238A 		.ascii	"\017\243#\212\362l|\333\215\211\034\030\332\271\252"
 283      F26C7CDB 
 283      8D891C18 
 283      DAB9AA
 284 0440 A980BAA9 		.ascii	"\251\200\272\251Z7,\261\254 \222\000l]\266K\331V\202"
 284      5A372CB1 
 284      AC209200 
 284      6C5DB64B 
 284      D95682
 285 0453 930BB36E 		.ascii	"\223\013\263n~av\335ra\366N\366\013\263\017\322L \311"
 285      7E6176DD 
 285      7261F64E 
 285      F60BB30F 
 285      D24C20C9 
 286 0467 6A70847F 		.ascii	"jp\204\177nIX\271\343]\245\232K\370}\272\324\272\231"
 286      6E4958B9 
 286      E35DA59A 
 286      4BF87DBA 
 286      D4BA99
 287 047a 9E2B33BB 		.ascii	"\236+3\273$\257R\201$|m\032\263\2014)\272\311\247\350"
 287      24AF5281 
 287      247C6D1A 
 287      B3813429 
 287      BAC9A7E8 
 288 048e 6F9629EA 		.ascii	"o\226)\352\035b)R\327\244\002\352\263&3\316\223\031"
 288      1D622952 
 288      D7A402EA 
ARM GAS  /tmp/ccJeoyMt.s 			page 22


 288      B32633CE 
 288      9319
 289 04a0 FB44851B 		.ascii	"\373D\205\033\343\243\372\207eT\367\364\250.\323\250"
 289      E3A3FA87 
 289      6554F7F4 
 289      A82ED3A8 
 290 04b0 FAADA3DA 		.ascii	"\372\255\243\332#sQ\335\316(\305\357\0223uv\377=ulo"
 290      237351DD 
 290      CE28C5EF 
 290      12337576 
 290      FF3D756C 
 291 04c5 76459D58 		.ascii	"vE\235X,\311\334\346\311\214[\222\371\323y\216\314\333"
 291      2CC9DCE6 
 291      C98C5B92 
 291      F9D3798E 
 291      CCDB
 292 04d7 D6649EE7 		.ascii	"\326d\236\347\311LdD\346=\215\214\204\3775\215Y:2\023"
 292      C94C6444 
 292      E63D8D8C 
 292      84FF358D 
 292      593A3213 
 293 04eb 3C99BB96 		.ascii	"<\231\273\226d.\216d=\244\246\322\016)\026S\232\215"
 293      642E8E64 
 293      3DA4A6D2 
 293      0E291653 
 293      9A8D
 294 04fd 5034665A 		.ascii	"P4fZ\302r\273\230A:q\015\233fV\373\227MJp[\204\002]"
 294      C272BB98 
 294      413A710D 
 294      9B6656FB 
 294      974D4A70 
 295 0515 891FD81F 		.ascii	"\211\037\330\037X\027j\037_\250\311L\012\025{{\3071"
 295      58176A1F 
 295      5FA8C94C 
 295      0A157B7B 
 295      C731
 296 0527 581C0AE6 		.ascii	"X\034\012\346b\331\233\322\3040\323+#}\252)\011W@\367"
 296      62D99BD2 
 296      C430D32B 
 296      237DAA29 
 296      095740F7 
 297 053b 685CF6A6 		.ascii	"h\\\366\246\214\224Z\347\330\245\035\355Q\254\344'+"
 297      8C945AE7 
 297      D8A51DED 
 297      51ACE427 
 297      2B
 298 054c 3DC9577A 		.ascii	"=\311Wz\253\220R\351xg|\274\343\017[\360\356\366\350"
 298      AB9052E9 
 298      78677CBC 
 298      E30F5BF0 
 298      EEF6E8
 299 055f B0728B2C 		.ascii	"\260r\213,a\324\215\265\200\224<sN4';\254\234\304^?"
 299      61D48DB5 
 299      80943C73 
 299      4E34273B 
 299      AC9CC45E 
 300 0574 BF53C1E6 		.ascii	"\277S\301\346\011f\227\215\203]\226\016FS\035\354\267"
ARM GAS  /tmp/ccJeoyMt.s 			page 23


 300      0966978D 
 300      835D960E 
 300      46531DEC 
 300      B7
 301 0585 71F0634B 		.ascii	"q\360cK\007\027\215\016\324\361\367\222\215\203\335"
 301      07178D0E 
 301      D4F1F792 
 301      8D83DD
 302 0594 960E2EA7 		.ascii	"\226\016.\247:x\303\306\301sf\007\334b\355p\232\305"
 302      3A78C3C6 
 302      C1736607 
 302      DC62ED70 
 302      9AC5
 303 05a6 DA4FF46E 		.ascii	"\332O\364n\3106=\321e]\305l\305\032\177Q\231=;\315\206"
 303      C8363DD1 
 303      655DC56C 
 303      C51A7F51 
 303      993D3BCD 
 304 05bb 9A7CD580 		.ascii	"\232|\325\200\276\261W \023\332\225<\213\017{*\010Q"
 304      BEB15720 
 304      13DA953C 
 304      8B0F7B2A 
 304      0851
 305 05cd 2007B157 		.ascii	" \007\261W\333Z\213\354D\231\373\022\315\275\266\030"
 305      DB5A8BEC 
 305      4499FB12 
 305      CDBDB618 
 306 05dd DB2364BB 		.ascii	"\333#d\273\030\333'X/\306\264\300\264m]W\261\212\316"
 306      18DB2758 
 306      2FC6B4C0 
 306      B46D5D57 
 306      B18ACE
 307 05f0 FC2CD5F4 		.ascii	"\374,\325\364\034\314\317O\263F\336o\203\234o]\221c"
 307      1CCCCF4F 
 307      B346DE6F 
 307      839C6F5D 
 307      9163
 308 0602 692A7240 		.ascii	"i*r@\257\010\351\010\261[\361\273c\357|\367\370+\212"
 308      AF08E908 
 308      B15BF1BB 
 308      63EF7CF7 
 308      F82B8A
 309 0615 F203652A 		.ascii	"\362\003e*\261\271m+\326F\304TJo\260\372\226\364\202"
 309      B1B96D2B 
 309      D646C454 
 309      4A6FB0FA 
 309      96F482
 310 0628 C08DBA83 		.ascii	"\300\215\272\203\251\275\015@\372n\217~\203l\200\224"
 310      A9BD0D40 
 310      FA6E8F7E 
 310      836C8094 
 311 0638 4462F35C 		.ascii	"Db\363\\\015\341x~&\010Q\036\341\220%\302\325\361Xk"
 311      0DE1787E 
 311      2608511E 
 311      E19025C2 
 311      D5F1586B 
 312 064c 0AC2F58C 		.ascii	"\012\302\365\214\020\216\360\010G-\021^\373\367\350"
ARM GAS  /tmp/ccJeoyMt.s 			page 24


 312      108EF008 
 312      472D115E 
 312      FBF7E8
 313 065b 4EBCFB64 		.ascii	"N\274\373d\207BF\315\346\237\305:s\263\3700&p/\213\021"
 313      874246CD 
 313      E69FC53A 
 313      73B3F830 
 313      26702F8B 
 314 0670 3A599AA6 		.ascii	":Y\232\246\345\375\016c\260\3543M\217\203u/6I\377\021"
 314      E5FD0E63 
 314      B0EC334D 
 314      8F83752F 
 314      3649FF11 
 315 0684 D67EC94D 		.ascii	"\326~\311M\365ij\321-\330M\230#\246\027\343x\333\272"
 315      F5696AD1 
 315      2DD84D98 
 315      23A617E3 
 315      78DBBA
 316 0697 D9FA5293 		.ascii	"\331\372R\223\347\334c\311\371\356\330\255\357Yu\216"
 316      E7DC63C9 
 316      F9EED8AD 
 316      EF59758E 
 317 06a7 01472689 		.ascii	"\001G&\211=\311\203\364\332t\216[\337L)\335HF\010\257"
 317      3DC983F4 
 317      DA748E5B 
 317      DF4C29DD 
 317      484608AF 
 318 06bb F008A7EC 		.ascii	"\360\010\247\354:\307wR\020\256d\204\360*\217\360+3"
 318      3AC77752 
 318      10AE6484 
 318      F02A8FF0 
 318      2B33
 319 06cd C2E7D121 		.ascii	"\302\347\321!et4~\356\303.\274=\016S\326T\"\201\365"
 319      6574347E 
 319      EEC32EBC 
 319      3D0E53D6 
 319      542281F5 
 320 06e1 992039D5 		.ascii	"\231 9\325\305l\277\371I\370ya^\246\323\330*\315R\325"
 320      C56CBFF9 
 320      49F87961 
 320      5EA6D3D8 
 320      2ACD52D5 
 321 06f5 B5997238 		.ascii	"\265\231r8-\011\377&\353)\247\337f\312q\232r\241iA6"
 321      2D09FF26 
 321      EB29A7DF 
 321      66CA719A 
 321      72A16941 
 322 070a 6FD06C1A 		.ascii	"o\320l\032\026\365\\\020\002\372\310\241}\342$\177\322"
 322      16F55C10 
 322      02FAC8A1 
 322      7DE2247F 
 322      D2
 323 071b A8798BF5 		.ascii	"\250y\213\365\015)\316^e;)\214\341\015!\341_\353l\270"
 323      0D29CE5E 
 323      653B298C 
 323      E10D21E1 
 323      5FEB6CB8 
ARM GAS  /tmp/ccJeoyMt.s 			page 25


 324 072f 8F5926B5 		.ascii	"\217Y&\265\275\266j\260-\315\232\364Y\033\322\016\023"
 324      BDB66AB0 
 324      2DCD9AF4 
 324      591BD20E 
 324      13
 325 0740 694D8BEC 		.ascii	"iM\213\354T\004n\317\300\005\001k\032+\322S)\244\313"
 325      54046ECF 
 325      C005016B 
 325      1A2BD253 
 325      29A4CB
 326 0753 39CEDBB1 		.ascii	"9\316\333\261\346\2504]\241y5X7fMz\310\206t\211\211"
 326      E6A8345D 
 326      A1793558 
 326      37664D7A 
 326      C8867489 
 327 0768 F4104FDA 		.ascii	"\364\020O\332\260\267\340\243\020\320v\247\005\353?"
 327      B0B7E0A3 
 327      10D076A7 
 327      05EB3F
 328 0777 9F9F8E75 		.ascii	"\237\237\216ug\322QY:\326\274\032LtY\263~\313\206u\251"
 328      67D25159 
 328      3AD6BC1A 
 328      4C7459B3 
 328      7ECB8675 
 329 078c 89F55B3C 		.ascii	"\211\365[<k\303&\204\217B@{M\254\271\227\3629\233\317"
 329      6BC32684 
 329      8F42407B 
 329      4DACB997 
 329      F2399BCF 
 330 07a0 1B44FD42 		.ascii	"\033D\375B\3122\251\234\230\264\013v_u\214_\223\364"
 330      CA32A99C 
 330      98B40B76 
 330      5F758C5F 
 330      93F4
 331 07b2 AF445AA2 		.ascii	"\257DZ\242\257\216L\227\350\256d\354\367\245K4\257\006"
 331      AF8E4C97 
 331      E8AE64EC 
 331      F7A54B34 
 331      AF06
 332 07c4 9B8FAC13 		.ascii	"\233\217\254\023}\311&\321\306oH\272"
 332      7DC926D1 
 332      C66F48BA 
 333 07d0 5632D186 		.ascii	"V2\321\206]\000\037\205\200\216\232\022\375\005\324"
 333      5D001F85 
 333      808E9A12 
 333      FD05D4
 334 07df 4DF6032F 		.ascii	"M\366\003/\\\030n#_\311\315[\037r<8\177\276\273\252"
 334      5C186E23 
 334      5FC9CD5B 
 334      1F723C38 
 334      7FBEBBAA 
 335 07f3 D1D7E05B 		.ascii	"\321\327\340[[\353\016\206\335\215\222\337\035\016y"
 335      5BEB0E86 
 335      DD8D92DF 
 335      1D0E79
 336 0802 DCF2A6C8 		.ascii	"\334\362\246\310|\017r\300\251:\340\213\344\177mM}y"
 336      7C0F72C0 
ARM GAS  /tmp/ccJeoyMt.s 			page 26


 336      A93AE08B 
 336      E47F6D4D 
 336      7D79
 337 0814 152A4FD5 		.ascii	"\025*O\325\365\005<\376\026\257L\365\033\221k\345Su"
 337      F5053CFE 
 337      16AF4CF5 
 337      1B916BE5 
 337      5375
 338 0826 2B42BE0D 		.ascii	"+B\276\015rhQ\252js0\024\011\273k\353j\026U\272W\257"
 338      726851AA 
 338      6A733014 
 338      09BB6BEB 
 338      6A1655BA 
 339 083c 5EE106DD 		.ascii	"^\341\006\335\352\015\013\211\245\350\367{\301z\006"
 339      EA0D0B89 
 339      A5E8F77B 
 339      C17A06
 340 084b 34C31129 		.ascii	"4\303\021)\"\213\221\031\360P\254_S\275\246\272\316"
 340      228B9119 
 340      F050AC5F 
 340      53BDA6BA 
 340      CE
 341 085c 499AB575 		.ascii	"I\232\265uk\327\321{\313\253\352\252\277\2762\217\252"
 341      6BD7D17B 
 341      CBABEAAA 
 341      BFBE328F 
 341      AA
 342 086d 95C08DAA 		.ascii	"\225\300\215\252F)\020\220\375U\301\300z\337\323aw`"
 342      46291090 
 342      FD55C1C0 
 342      7ADFD361 
 342      7760
 343 087f 3D95C7DC 		.ascii	"=\225\307\334\215\301&\331\035\222\303\262\024\3624"
 343      8DC126D9 
 343      1D92C3B2 
 343      14F234
 344 088e 027CC8BB 		.ascii	"\002|\310\273Q\012\311n)\324T\351~\332\343\251\200F"
 344      510AC96E 
 344      29D454E9 
 344      7EDAE3A9 
 344      8046
 345 08a0 85DCD420 		.ascii	"\205\334\324 {\275\2627y#\020\014\310\025\262\324\340"
 345      7BBDB237 
 345      7923100C 
 345      C815B2D4 
 345      E0
 346 08b1 AB582C2E 		.ascii	"\253X,.\255\250\\\260p\361\267+\335\246\007I\276\341"
 346      ADA85CB0 
 346      70F1B72B 
 346      DDA60749 
 346      BEE1
 347 08c3 88D71720 		.ascii	"\210\327\027 \224\235-p^T)F\332\361\377\017\275I\362"
 347      949D2D70 
 347      5E542946 
 347      DAF1FF0F 
 347      BD49F2
 348 08d6 34FA02B2 		.ascii	"4\372\002\262[\364\312\353\245\026\177D\214\2646\313"
ARM GAS  /tmp/ccJeoyMt.s 			page 27


 348      5BF4CAEB 
 348      A5167F44 
 348      8CB436CB 
 349 08e6 61924251 		.ascii	"a\222BQ\324\342\311m\012z\345ByS\263GM\221\030)\202"
 349      D4E2C96D 
 349      0A7AE542 
 349      7953B347 
 349      4D911829 
 350 08fb FC7A24BF 		.ascii	"\374z$\277\277A\362<#F\004O\203\223=\012\223\272\251"
 350      BF41F23C 
 350      2346044F 
 350      83933D0A 
 350      93BAA9
 351 090e 29CCF7D0 		.ascii	")\314\367\320\023Q]\333\360-\331C\313\237\013W\315N"
 351      13515DDB 
 351      F02DD943 
 351      CB9F0B57 
 351      CD4E
 352 0920 F8A98D48 		.ascii	"\370\251\215H\241\210\2036\202\315%pf\351_\031\220\032"
 352      A1888336 
 352      82CD2570 
 352      66E95F19 
 352      901A
 353 0932 FCB283B9 		.ascii	"\374\262\203\271+\325\037\254\360\205\311\2232b\"k7"
 353      2BD51FAC 
 353      F085C993 
 353      3262226B 
 353      37
 354 0943 6B20B0EA 		.ascii	"k \260\352<\022Ls!\253\276\350\003\230\"\355\"L`\012"
 354      3C124C73 
 354      21ABBEE8 
 354      039822ED 
 354      224C600A 
 355 0957 F5AB60F3 		.ascii	"\365\253`\363,\355B##S\304\007\370\333^\025/\027\256"
 355      2CED4223 
 355      2353C407 
 355      F8DB5E15 
 355      2F17AE
 356 096a 437353BB 		.ascii	"CsS\273`0\014?\241\010=C\266\012\310\271\2665\274:\350"
 356      60300C3F 
 356      A1083D43 
 356      B60AC8B9 
 356      B635BC3A 
 357 097f 7986D306 		.ascii	"y\206\323\006%-\331\236\306p+\311\255\313\323\310t\277"
 357      252DD99E 
 357      C6702BC9 
 357      ADCBD3C8 
 357      74BF
 358 0991 98A2ABF6 		.ascii	"\230\242\253\366\355\345O\326T\325l\002\003O0$\213\033"
 358      EDE54FD6 
 358      54D56C02 
 358      034F3024 
 358      8B1B
 359 09a3 9634112B 		.ascii	"\2264\021+\362H\364\203\325|\263\025\204\356\256\252"
 359      F248F483 
 359      D57CB315 
 359      84EEAEAA 
ARM GAS  /tmp/ccJeoyMt.s 			page 28


 360 09b3 A9ADAED5 		.ascii	"\251\255\256\325\201\210\225\247\351\253-\001\017\030"
 360      818895A7 
 360      E9AB2D01 
 360      0F18
 361 09c1 16896258 		.ascii	"\026\211bX\216\210_Y^\273r\335\223\325E\222\177\243"
 361      8E885F59 
 361      5EBB72DD 
 361      93D54592 
 361      7FA3
 362 09d3 D41A863C 		.ascii	"\324\032\206<\371\241\360y\033$\177\213\\\304\302\257"
 362      F9A1F079 
 362      1B247F8B 
 362      5CC4C2AF 
 363 09e3 0F10F705 		.ascii	"\017\020\367\0054<\326\246\240-\264\355\024\305\365"
 363      343CD6A6 
 363      A02DB4ED 
 363      14C5F5
 364 09f2 E051148B 		.ascii	"\340Q\024\213\264\306\374%\013\226.2]-1^=^i\2722>[\270"
 364      B4C6FC25 
 364      0B962E32 
 364      5D2D315E 
 364      3D5E69BA 
 365 0a0a 60F17F01 		.ascii	"`\361\177\001$\210\316M"
 365      2488CE4D 
 366              		.text
 367              		.section	.gnu.lto_.symtab.de01d084cb22d8be,"",%progbits
 368 0000 65787449 		.ascii	"extInit\000\000\000\000\000\000\000\000\000\000\000"
 368      6E697400 
 368      00000000 
 368      00000000 
 368      0000
 369 0012 00A10000 		.ascii	"\000\241\000\000\000extObjectInit\000\000\000\000\000"
 369      00657874 
 369      4F626A65 
 369      6374496E 
 369      69740000 
 370 0029 00000000 		.ascii	"\000\000\000\000\000\000\000\246\000\000\000extStar"
 370      000000A6 
 370      00000065 
 370      78745374 
 370      6172
 371 003b 74000000 		.ascii	"t\000\000\000\000\000\000\000\000\000\000\000\000\346"
 371      00000000 
 371      00000000 
 371      00E6
 372 0049 00000065 		.ascii	"\000\000\000extStop\000\000\000\000\000\000\000\000"
 372      78745374 
 372      6F700000 
 372      00000000 
 372      0000
 373 005b 00000000 		.ascii	"\000\000\000\000\356\000\000\000extChannelEnable\000"
 373      EE000000 
 373      65787443 
 373      68616E6E 
 373      656C456E 
 374 0074 00000000 		.ascii	"\000\000\000\000\000\000\000\000\000\000\000\362\000"
 374      00000000 
ARM GAS  /tmp/ccJeoyMt.s 			page 29


 374      000000F2 
 374      00
 375 0081 00006578 		.ascii	"\000\000extChannelDisable\000\000\000\000\000\000\000"
 375      74436861 
 375      6E6E656C 
 375      44697361 
 375      626C6500 
 376 009b 00000000 		.ascii	"\000\000\000\000\000\370\000\000\000extSetChannelMo"
 376      00F80000 
 376      00657874 
 376      53657443 
 376      68616E6E 
 377 00b3 64654900 		.ascii	"deI\000\000\000\000\000\000\000\000\000\000\000\000"
 377      00000000 
 377      00000000 
 377      000000
 378 00c2 FD000000 		.ascii	"\375\000\000\000ext_lld_init\000\000\002\000\000\000"
 378      6578745F 
 378      6C6C645F 
 378      696E6974 
 378      00000200 
 379 00d8 00000000 		.ascii	"\000\000\000\000\000\000\012\001\000\000ext_lld_sta"
 379      00000A01 
 379      00006578 
 379      745F6C6C 
 379      645F7374 
 380 00ed 72740000 		.ascii	"rt\000\000\002\000\000\000\000\000\000\000\000\000\014"
 380      02000000 
 380      00000000 
 380      00000C
 381 00fc 01000065 		.ascii	"\001\000\000ext_lld_stop\000\000\002\000\000\000\000"
 381      78745F6C 
 381      6C645F73 
 381      746F7000 
 381      00020000 
 382 0112 00000000 		.ascii	"\000\000\000\000\000\016\001\000\000ext_lld_channel"
 382      000E0100 
 382      00657874 
 382      5F6C6C64 
 382      5F636861 
 383 012a 5F656E61 		.ascii	"_enable\000\000\002\000\000\000\000\000\000\000\000"
 383      626C6500 
 383      00020000 
 383      00000000 
 383      0000
 384 013c 00100100 		.ascii	"\000\020\001\000\000ext_lld_channel_disable\000\000"
 384      00657874 
 384      5F6C6C64 
 384      5F636861 
 384      6E6E656C 
 385 015a 02000000 		.ascii	"\002\000\000\000\000\000\000\000\000\000\022\001\000"
 385      00000000 
 385      00001201 
 385      00
 386 0167 00       		.ascii	"\000"
 387              		.text
 388              		.section	.gnu.lto_.opts,"",%progbits
ARM GAS  /tmp/ccJeoyMt.s 			page 30


 389 0000 272D6D63 		.ascii	"'-mcpu=cortex-m4' '-mno-thumb-interwork' '-mthumb' "
 389      70753D63 
 389      6F727465 
 389      782D6D34 
 389      2720272D 
 390 0033 272D6767 		.ascii	"'-ggdb' '-O2' '-fomit-frame-pointer' '-falign-funct"
 390      64622720 
 390      272D4F32 
 390      2720272D 
 390      666F6D69 
 391 0066 696F6E73 		.ascii	"ions=16' '-ffunction-sections' '-fdata-sections' '-"
 391      3D313627 
 391      20272D66 
 391      66756E63 
 391      74696F6E 
 392 0099 666E6F2D 		.ascii	"fno-common' '-flto'\000"
 392      636F6D6D 
 392      6F6E2720 
 392      272D666C 
 392      746F2700 
 393              		.text
 394              		.cfi_sections	.debug_frame
 395              		.section	.text.extInit,"ax",%progbits
 396              		.align	2
 397              		.p2align 4,,15
 398              		.global	extInit
 399              		.thumb
 400              		.thumb_func
 401              		.type	extInit, %function
 402              	extInit:
 403              	.LFB272:
 404              		.file 1 "../ChibiOS/os/hal/src/ext.c"
 405              		.loc 1 56 0
 406              		.cfi_startproc
 407              		@ args = 0, pretend = 0, frame = 0
 408              		@ frame_needed = 0, uses_anonymous_args = 0
 409              		@ link register save eliminated.
 410              		.loc 1 58 0
 411 0000 FFF7FEBF 		b	ext_lld_init
 412              	.LVL0:
 413              		.cfi_endproc
 414              	.LFE272:
 415              		.size	extInit, .-extInit
 416 0004 AFF30080 		.section	.text.extObjectInit,"ax",%progbits
 416      AFF30080 
 416      AFF30080 
 417              		.align	2
 418              		.p2align 4,,15
 419              		.global	extObjectInit
 420              		.thumb
 421              		.thumb_func
 422              		.type	extObjectInit, %function
 423              	extObjectInit:
 424              	.LFB273:
 425              		.loc 1 68 0
 426              		.cfi_startproc
 427              		@ args = 0, pretend = 0, frame = 0
ARM GAS  /tmp/ccJeoyMt.s 			page 31


 428              		@ frame_needed = 0, uses_anonymous_args = 0
 429              		@ link register save eliminated.
 430              	.LVL1:
 431              		.loc 1 70 0
 432 0000 0122     		movs	r2, #1
 433              		.loc 1 71 0
 434 0002 0023     		movs	r3, #0
 435              		.loc 1 70 0
 436 0004 0270     		strb	r2, [r0]
 437              		.loc 1 71 0
 438 0006 4360     		str	r3, [r0, #4]
 439 0008 7047     		bx	lr
 440              		.cfi_endproc
 441              	.LFE273:
 442              		.size	extObjectInit, .-extObjectInit
 443 000a 00BFAFF3 		.section	.text.extStart,"ax",%progbits
 443      0080
 444              		.align	2
 445              		.p2align 4,,15
 446              		.global	extStart
 447              		.thumb
 448              		.thumb_func
 449              		.type	extStart, %function
 450              	extStart:
 451              	.LFB274:
 452              		.loc 1 84 0
 453              		.cfi_startproc
 454              		@ args = 0, pretend = 0, frame = 0
 455              		@ frame_needed = 0, uses_anonymous_args = 0
 456              	.LVL2:
 457 0000 10B5     		push	{r4, lr}
 458              		.cfi_def_cfa_offset 8
 459              		.cfi_offset 4, -8
 460              		.cfi_offset 14, -4
 461              	.LBB76:
 462              	.LBB77:
 463              	.LBB78:
 464              	.LBB79:
 465              	.LBB80:
 466              		.file 2 "../ChibiOS/os/ext/CMSIS/include/core_cmFunc.h"
 467              		.loc 2 548 0
 468 0002 2023     		movs	r3, #32
 469              	.LBE80:
 470              	.LBE79:
 471              	.LBE78:
 472              	.LBE77:
 473              	.LBE76:
 474              		.loc 1 84 0
 475 0004 0446     		mov	r4, r0
 476              	.LBB85:
 477              	.LBB84:
 478              	.LBB83:
 479              	.LBB82:
 480              	.LBB81:
 481              		.loc 2 548 0
 482              	@ 548 "../ChibiOS/os/ext/CMSIS/include/core_cmFunc.h" 1
 483 0006 83F31188 		MSR basepri, r3
ARM GAS  /tmp/ccJeoyMt.s 			page 32


 484              	@ 0 "" 2
 485              		.thumb
 486              	.LBE81:
 487              	.LBE82:
 488              	.LBE83:
 489              	.LBE84:
 490              	.LBE85:
 491              		.loc 1 91 0
 492 000a 4160     		str	r1, [r0, #4]
 493              		.loc 1 92 0
 494 000c FFF7FEFF 		bl	ext_lld_start
 495              	.LVL3:
 496              		.loc 1 93 0
 497 0010 0223     		movs	r3, #2
 498 0012 2370     		strb	r3, [r4]
 499              	.LVL4:
 500              	.LBB86:
 501              	.LBB87:
 502              	.LBB88:
 503              	.LBB89:
 504              	.LBB90:
 505              	.LBB91:
 506              		.loc 2 548 0
 507 0014 0023     		movs	r3, #0
 508              	@ 548 "../ChibiOS/os/ext/CMSIS/include/core_cmFunc.h" 1
 509 0016 83F31188 		MSR basepri, r3
 510              	@ 0 "" 2
 511              		.thumb
 512 001a 10BD     		pop	{r4, pc}
 513              	.LBE91:
 514              	.LBE90:
 515              	.LBE89:
 516              	.LBE88:
 517              	.LBE87:
 518              	.LBE86:
 519              		.cfi_endproc
 520              	.LFE274:
 521              		.size	extStart, .-extStart
 522 001c AFF30080 		.section	.text.extStop,"ax",%progbits
 523              		.align	2
 524              		.p2align 4,,15
 525              		.global	extStop
 526              		.thumb
 527              		.thumb_func
 528              		.type	extStop, %function
 529              	extStop:
 530              	.LFB275:
 531              		.loc 1 104 0
 532              		.cfi_startproc
 533              		@ args = 0, pretend = 0, frame = 0
 534              		@ frame_needed = 0, uses_anonymous_args = 0
 535              	.LVL5:
 536 0000 10B5     		push	{r4, lr}
 537              		.cfi_def_cfa_offset 8
 538              		.cfi_offset 4, -8
 539              		.cfi_offset 14, -4
 540              	.LBB92:
ARM GAS  /tmp/ccJeoyMt.s 			page 33


 541              	.LBB93:
 542              	.LBB94:
 543              	.LBB95:
 544              	.LBB96:
 545              		.loc 2 548 0
 546 0002 2023     		movs	r3, #32
 547              	.LBE96:
 548              	.LBE95:
 549              	.LBE94:
 550              	.LBE93:
 551              	.LBE92:
 552              		.loc 1 104 0
 553 0004 0446     		mov	r4, r0
 554              	.LBB101:
 555              	.LBB100:
 556              	.LBB99:
 557              	.LBB98:
 558              	.LBB97:
 559              		.loc 2 548 0
 560              	@ 548 "../ChibiOS/os/ext/CMSIS/include/core_cmFunc.h" 1
 561 0006 83F31188 		MSR basepri, r3
 562              	@ 0 "" 2
 563              		.thumb
 564              	.LBE97:
 565              	.LBE98:
 566              	.LBE99:
 567              	.LBE100:
 568              	.LBE101:
 569              		.loc 1 111 0
 570 000a FFF7FEFF 		bl	ext_lld_stop
 571              	.LVL6:
 572              		.loc 1 112 0
 573 000e 0123     		movs	r3, #1
 574 0010 2370     		strb	r3, [r4]
 575              	.LVL7:
 576              	.LBB102:
 577              	.LBB103:
 578              	.LBB104:
 579              	.LBB105:
 580              	.LBB106:
 581              	.LBB107:
 582              		.loc 2 548 0
 583 0012 0023     		movs	r3, #0
 584              	@ 548 "../ChibiOS/os/ext/CMSIS/include/core_cmFunc.h" 1
 585 0014 83F31188 		MSR basepri, r3
 586              	@ 0 "" 2
 587              		.thumb
 588 0018 10BD     		pop	{r4, pc}
 589              	.LBE107:
 590              	.LBE106:
 591              	.LBE105:
 592              	.LBE104:
 593              	.LBE103:
 594              	.LBE102:
 595              		.cfi_endproc
 596              	.LFE275:
 597              		.size	extStop, .-extStop
ARM GAS  /tmp/ccJeoyMt.s 			page 34


 598 001a 00BFAFF3 		.section	.text.extChannelEnable,"ax",%progbits
 598      0080
 599              		.align	2
 600              		.p2align 4,,15
 601              		.global	extChannelEnable
 602              		.thumb
 603              		.thumb_func
 604              		.type	extChannelEnable, %function
 605              	extChannelEnable:
 606              	.LFB276:
 607              		.loc 1 125 0
 608              		.cfi_startproc
 609              		@ args = 0, pretend = 0, frame = 0
 610              		@ frame_needed = 0, uses_anonymous_args = 0
 611              	.LVL8:
 612 0000 08B5     		push	{r3, lr}
 613              		.cfi_def_cfa_offset 8
 614              		.cfi_offset 3, -8
 615              		.cfi_offset 14, -4
 616              	.LBB108:
 617              	.LBB109:
 618              	.LBB110:
 619              	.LBB111:
 620              	.LBB112:
 621              		.loc 2 548 0
 622 0002 2023     		movs	r3, #32
 623              	@ 548 "../ChibiOS/os/ext/CMSIS/include/core_cmFunc.h" 1
 624 0004 83F31188 		MSR basepri, r3
 625              	@ 0 "" 2
 626              		.thumb
 627              	.LBE112:
 628              	.LBE111:
 629              	.LBE110:
 630              	.LBE109:
 631              	.LBE108:
 632              		.loc 1 134 0
 633 0008 FFF7FEFF 		bl	ext_lld_channel_enable
 634              	.LVL9:
 635              	.LBB113:
 636              	.LBB114:
 637              	.LBB115:
 638              	.LBB116:
 639              	.LBB117:
 640              	.LBB118:
 641              		.loc 2 548 0
 642 000c 0023     		movs	r3, #0
 643              	@ 548 "../ChibiOS/os/ext/CMSIS/include/core_cmFunc.h" 1
 644 000e 83F31188 		MSR basepri, r3
 645              	@ 0 "" 2
 646              		.thumb
 647 0012 08BD     		pop	{r3, pc}
 648              	.LBE118:
 649              	.LBE117:
 650              	.LBE116:
 651              	.LBE115:
 652              	.LBE114:
 653              	.LBE113:
ARM GAS  /tmp/ccJeoyMt.s 			page 35


 654              		.cfi_endproc
 655              	.LFE276:
 656              		.size	extChannelEnable, .-extChannelEnable
 657 0014 AFF30080 		.section	.text.extChannelDisable,"ax",%progbits
 657      AFF30080 
 657      AFF30080 
 658              		.align	2
 659              		.p2align 4,,15
 660              		.global	extChannelDisable
 661              		.thumb
 662              		.thumb_func
 663              		.type	extChannelDisable, %function
 664              	extChannelDisable:
 665              	.LFB277:
 666              		.loc 1 147 0
 667              		.cfi_startproc
 668              		@ args = 0, pretend = 0, frame = 0
 669              		@ frame_needed = 0, uses_anonymous_args = 0
 670              	.LVL10:
 671 0000 08B5     		push	{r3, lr}
 672              		.cfi_def_cfa_offset 8
 673              		.cfi_offset 3, -8
 674              		.cfi_offset 14, -4
 675              	.LBB119:
 676              	.LBB120:
 677              	.LBB121:
 678              	.LBB122:
 679              	.LBB123:
 680              		.loc 2 548 0
 681 0002 2023     		movs	r3, #32
 682              	@ 548 "../ChibiOS/os/ext/CMSIS/include/core_cmFunc.h" 1
 683 0004 83F31188 		MSR basepri, r3
 684              	@ 0 "" 2
 685              		.thumb
 686              	.LBE123:
 687              	.LBE122:
 688              	.LBE121:
 689              	.LBE120:
 690              	.LBE119:
 691              		.loc 1 156 0
 692 0008 FFF7FEFF 		bl	ext_lld_channel_disable
 693              	.LVL11:
 694              	.LBB124:
 695              	.LBB125:
 696              	.LBB126:
 697              	.LBB127:
 698              	.LBB128:
 699              	.LBB129:
 700              		.loc 2 548 0
 701 000c 0023     		movs	r3, #0
 702              	@ 548 "../ChibiOS/os/ext/CMSIS/include/core_cmFunc.h" 1
 703 000e 83F31188 		MSR basepri, r3
 704              	@ 0 "" 2
 705              		.thumb
 706 0012 08BD     		pop	{r3, pc}
 707              	.LBE129:
 708              	.LBE128:
ARM GAS  /tmp/ccJeoyMt.s 			page 36


 709              	.LBE127:
 710              	.LBE126:
 711              	.LBE125:
 712              	.LBE124:
 713              		.cfi_endproc
 714              	.LFE277:
 715              		.size	extChannelDisable, .-extChannelDisable
 716 0014 AFF30080 		.section	.text.extSetChannelModeI,"ax",%progbits
 716      AFF30080 
 716      AFF30080 
 717              		.align	2
 718              		.p2align 4,,15
 719              		.global	extSetChannelModeI
 720              		.thumb
 721              		.thumb_func
 722              		.type	extSetChannelModeI, %function
 723              	extSetChannelModeI:
 724              	.LFB278:
 725              		.loc 1 179 0
 726              		.cfi_startproc
 727              		@ args = 0, pretend = 0, frame = 0
 728              		@ frame_needed = 0, uses_anonymous_args = 0
 729              		@ link register save eliminated.
 730              	.LVL12:
 731 0000 30B4     		push	{r4, r5}
 732              		.cfi_def_cfa_offset 8
 733              		.cfi_offset 4, -8
 734              		.cfi_offset 5, -4
 735              		.loc 1 179 0
 736 0002 0B46     		mov	r3, r1
 737              	.LVL13:
 738              		.loc 1 196 0
 739 0004 4568     		ldr	r5, [r0, #4]
 740              		.loc 1 179 0
 741 0006 0446     		mov	r4, r0
 742              		.loc 1 196 0
 743 0008 92E80300 		ldmia	r2, {r0, r1}
 744              	.LVL14:
 745 000c 05EBC302 		add	r2, r5, r3, lsl #3
 746              	.LVL15:
 747 0010 82E80300 		stmia	r2, {r0, r1}
 748              		.loc 1 197 0
 749 0014 2046     		mov	r0, r4
 750 0016 1946     		mov	r1, r3
 751              		.loc 1 198 0
 752 0018 30BC     		pop	{r4, r5}
 753              	.LVL16:
 754              		.loc 1 197 0
 755 001a FFF7FEBF 		b	ext_lld_channel_enable
 756              	.LVL17:
 757              		.cfi_endproc
 758              	.LFE278:
 759              		.size	extSetChannelModeI, .-extSetChannelModeI
 760 001e 00BF     		.text
 761              	.Letext0:
 762              		.file 3 "/nfs/nfs5/home/research/hardware/arm2/gcc-arm-embedded/gcc-arm-none-eabi-4_8-2014q2/arm-n
 763              		.file 4 "/nfs/nfs5/home/research/hardware/arm2/gcc-arm-embedded/gcc-arm-none-eabi-4_8-2014q2/arm-n
ARM GAS  /tmp/ccJeoyMt.s 			page 37


 764              		.file 5 "../ChibiOS/os/rt/ports/ARMCMx/compilers/GCC/chtypes.h"
 765              		.file 6 "../ChibiOS/os/rt/include/chsystypes.h"
 766              		.file 7 "../ChibiOS/os/rt/include/chschd.h"
 767              		.file 8 "../ChibiOS/os/rt/ports/ARMCMx/chcore.h"
 768              		.file 9 "../ChibiOS/os/rt/ports/ARMCMx/chcore_v7m.h"
 769              		.file 10 "../ChibiOS/os/rt/include/chtm.h"
 770              		.file 11 "../ChibiOS/os/rt/include/chsem.h"
 771              		.file 12 "../ChibiOS/os/rt/include/chmtx.h"
 772              		.file 13 "../ChibiOS/os/hal/include/ext.h"
 773              		.file 14 "../ChibiOS/os/hal/ports/STM32/LLD/EXTIv1/ext_lld.h"
 774              		.file 15 "../ChibiOS/os/rt/include/chsys.h"
 775              		.file 16 "../ChibiOS/os/hal/osal/rt/osal.h"
 776              		.file 17 "../ChibiOS/os/ext/CMSIS/include/core_cm4.h"