ARM GAS  /tmp/ccJeoyMt.s 			page 1


   1              		.syntax unified
   2              		.cpu cortex-m4
   3              		.fpu softvfp
   4              		.eabi_attribute 20, 1
   5              		.eabi_attribute 21, 1
   6              		.eabi_attribute 23, 3
   7              		.eabi_attribute 24, 1
   8              		.eabi_attribute 25, 1
   9              		.eabi_attribute 26, 1
  10              		.eabi_attribute 30, 2
  11              		.eabi_attribute 34, 1
  12              		.eabi_attribute 18, 4
  13              		.thumb
  14              		.file	"ext.c"
  15              		.text
  16              	.Ltext0:
  17              		.section	.gnu.lto_.jmpfuncs.de01d084cb22d8be,"",%progbits
  18 0000 789C6362 		.ascii	"x\234cb`b\300\006L\2414;\020322132003\002\011\026f\240"
  18      6062C006 
  18      4CA1343B 
  18      10333232 
  18      31333230 
  19 001b 7A66A058 		.ascii	"zf\240X\031\003\003+\022\233\215\035\301f\000\000+\366"
  19      1903032B 
  19      129B8D1D 
  19      C1660000 
  19      2BF6
  20 002d 01DE     		.ascii	"\001\336"
  21              		.text
  22              		.section	.gnu.lto_.inline.de01d084cb22d8be,"",%progbits
  23 0000 789C6362 		.ascii	"x\234cb`b\300\006\216Biv\006\006\026\036F\260\"\266"
  23      6062C006 
  23      8E426976 
  23      0606161E 
  23      46B022B6 
  24 0014 05F260B5 		.ascii	"\005\362`\265\214\\ \202\201\225\005(\314t\201\237\201"
  24      8C5C2082 
  24      81950528 
  24      CC74819F 
  24      81
  25 0025 E3831E58 		.ascii	"\343\203\036X\234\211\201S\020(\304\366A\017!\304\015"
  25      9C898153 
  25      1028C4F6 
  25      410F21C4 
  25      0D
  26 0036 5439C18F 		.ascii	"T9\301\217\231\201C\000(\303\332\241\316\300\336\241"
  26      99814300 
  26      28C3DAA1 
  26      CEC0DEA1 
  27 0046 8E2CC302 		.ascii	"\216,\303\002\221aY \0177\236\231\007(;\301o\202\037"
  27      91615920 
  27      0F379E99 
  27      07283BC1 
  27      6F821F
  28 0059 2B1E3936 		.ascii	"+\03696\006naFF\240+\030\230\025X8\016\330AT0\276`g"
  28      066E6146 
  28      46A02B18 
ARM GAS  /tmp/ccJeoyMt.s 			page 2


  28      98155838 
  28      0ED84154 
  29 0071 8190288A 		.ascii	"\201\220(\212\031\000\341\306\026X"
  29      1900E1C6 
  29      1658
  30              		.text
  31              		.section	.gnu.lto_.pureconst.de01d084cb22d8be,"",%progbits
  32 0000 789C6362 		.ascii	"x\234cb`b\340g\200\000v\006\011F)&+f+\026+V+6)\000\012"
  32      6062E067 
  32      80007606 
  32      09462926 
  32      2B662B16 
  33 001b 950164   		.ascii	"\225\001d"
  34              		.text
  35              		.section	.gnu.lto_extInit.de01d084cb22d8be,"",%progbits
  36 0000 789C6362 		.ascii	"x\234cb`b@\007\222@\\\011\304r@\314\310\314\300\310"
  36      60624007 
  36      92405C09 
  36      C47240CC 
  36      C8CCC0C8 
  37 0014 34E11C03 		.ascii	"4\341\034\003C#\007\023##\210\301\300\310P\317\304X"
  37      43230713 
  37      232388C1 
  37      C0C850CF 
  37      C458
  38 0026 1FC90856 		.ascii	"\037\311\010V\273\236\351\300\203\377\377\327}\330\370"
  38      BB9EE9C0 
  38      83FFFFD7 
  38      7DD8F8
  39 0035 B01AA894 		.ascii	"\260\032\250\224\201\201\225\241\245\241a\202\002\003"
  39      818195A1 
  39      A5A16182 
  39      0203
  40 0043 4332583E 		.ascii	"C2X>\004H\2024\20522\201h\346\363\014\315\017~\331%"
  40      04488234 
  40      85323281 
  40      68E6F30C 
  40      CD0F7ED9 
  41 0058 322E6464 		.ascii	"2.dd\005\312V3\374j\350h\020\310d\004\252\206\030\227"
  41      05CA5633 
  41      FC6AE868 
  41      10C86404 
  41      AA861897 
  42 006c 09A22F32 		.ascii	"\011\242/24>\370\315\004S\004\001!@\011\240\001 \307"
  42      343EF8CD 
  42      04530401 
  42      214009A0 
  42      0120C7
  43 007f CAE8E9E9 		.ascii	"\312\350\351\351;gd&e\372\007\353\347\027\353g$\346"
  43      3B676426 
  43      65FA07EB 
  43      E717EB67 
  43      24E6
  44 0091 E8171725 		.ascii	"\350\027\027%\353\247V\224\350%3\000\000\024\275+5"
  44      EBA75694 
  44      E8253300 
  44      0014BD2B 
ARM GAS  /tmp/ccJeoyMt.s 			page 3


  44      35
  45              		.text
  46              		.section	.gnu.lto_extObjectInit.de01d084cb22d8be,"",%progbits
  47 0000 789C6362 		.ascii	"x\234cb`b@\007\222@|\035\210\345\200\230\221\231\201"
  47      60624007 
  47      92407C1D 
  47      88E58098 
  47      919981
  48 0013 9169C239 		.ascii	"\221i\3029\006\206F\016&FF\020\203\201\221\241\236\211"
  48      0686460E 
  48      26464610 
  48      838191A1 
  48      9E89
  49 0025 B13E9211 		.ascii	"\261>\222\021\254v=\323\201\007\377\377\257\233qlY\017"
  49      AC763DD3 
  49      8107FFFF 
  49      AF9B716C 
  49      590F
  50 0037 E34C2656 		.ascii	"\343L&V&\306\\\2608+CKC\303\004\005\006\206d07\004H"
  50      26C65CB0 
  50      382B434B 
  50      43C30405 
  50      06866430 
  51 004e 82F48632 		.ascii	"\202\364\20622\201h\346\263\014M;n<>\300\224\310\270"
  51      328168E6 
  51      B30C4D3B 
  51      6E3C3EC0 
  51      94C8B8
  52 0061 90919541 		.ascii	"\220\221\225A\233aU\003\020\360g22\314f\230\305\230"
  52      9B615503 
  52      10F06732 
  52      32CC6698 
  52      C598
  53 0073 C9C898CE 		.ascii	"\311\310\230\316\310\024\001\244!NK\202\330\304\000"
  53      C81401A4 
  53      214E4B82 
  53      D8C400
  54 0082 126100B1 		.ascii	"\022a\000\261A\272\177`\321\315\214]7#\\73\210q\221"
  54      41BA7F60 
  54      D1CD8C5D 
  54      37235C37 
  54      33887191 
  55 0096 A1F1C10C 		.ascii	"\241\361\301\014e\210^\030\010\001*\002\272\013\244"
  55      65885E18 
  55      08012A02 
  55      BA0BA4
  56 00a5 43464F4F 		.ascii	"CFOO\3379#3)\323?X?\277X?#1G\277\270(Y?\265\242D/\231"
  56      DF392333 
  56      29D33F58 
  56      3FBF583F 
  56      233147BF 
  57 00c2 01009B74 		.ascii	"\001\000\233t=\002"
  57      3D02
  58              		.text
  59              		.section	.gnu.lto_extStart.de01d084cb22d8be,"",%progbits
  60 0000 789C8552 		.ascii	"x\234\205RAh\023A\024\375\177\266icrh\256B\011k\305"
  60      41681341 
ARM GAS  /tmp/ccJeoyMt.s 			page 4


  60      14FD7FB6 
  60      69637268 
  60      AE42096B 
  61 0015 534BC69B 		.ascii	"SK\306\233W% \210\004\241\251\240'\331\254K\263\220"
  61      57252088 
  61      04A1A9A0 
  61      27D9AC4B 
  61      B390
  62 0027 6DCA6E52 		.ascii	"m\312nRZ<t\223\346 \350\241\210\210Z\204\326\236ZP\017"
  62      5A3C7493 
  62      E620E8A1 
  62      88885A84 
  62      D69E5A50 
  63 003c BDF41074 		.ascii	"\275\364\020t\005\021D\254x\020*(]\017\236\004\305["
  63      051144AC 
  63      78102A28 
  63      5D0F9E04 
  63      C55B
  64 004e 2881F5CF 		.ascii	"(\201\365\317l\262M\322\242\263\314\374\371\177\336"
  64      6CB24DD2 
  64      A2B3CCFC 
  64      F97FDE
  65 005d 9FF7F7BF 		.ascii	"\237\367\367\277a\300`p\234\244\371\203\302\373dQ\001"
  65      61C06070 
  65      9CA4F983 
  65      C2FB6451 
  65      01
  66 006e 642BBB00 		.ascii	"d+\273\000\2658C\024\033@Xb\270t\035%\366\005\363\374"
  66      B5384314 
  66      1B405862 
  66      B8741D25 
  66      F605F3FC 
  67 0082 2078BEF7 		.ascii	" x\276\367\266\331\306U\226T\320B\030\242E\234\306\240"
  67      B6D9C655 
  67      9654D042 
  67      18A2459C 
  67      C6A0
  68 0094 E1BA2BAA 		.ascii	"\341\272+\252\205t\227.\341\323\264\212;\256R\210\254"
  68      8574972E 
  68      E1D3B48A 
  68      3BAE5288 
  68      AC
  69 00a5 F20EEA71 		.ascii	"\362\016\352q\200qXw\335{~\3407'\037\271^c\315m\007"
  69      80715877 
  69      DD7B7EE0 
  69      37271FB9 
  69      5E63CD6D 
  70 00ba 01A28954 		.ascii	"\001\242\211T\332e\024\231\327\310AU\0326\324_\253\210"
  70      DA651499 
  70      D7C84155 
  70      1A36D45F 
  70      AB88
  71 00cc 814A9B5D 		.ascii	"\201J\233]\250\377\331\\\336\276\253tX\273\364^\360"
  71      A8FFD95C 
  71      DEBEAB74 
  71      58BBF45E 
  71      F0
ARM GAS  /tmp/ccJeoyMt.s 			page 5


  72 00dd FA20C534 		.ascii	"\372 \3054|\212\343QI\336\306\375fr,\3626\037|\033\215"
  72      7C8AE351 
  72      49DEC6FD 
  72      66722CF2 
  72      361F7C1B 
  73 00f2 9C3B5FBF 		.ascii	"\234;_\277+\000\032\256c\214\250\005=\243\251\320\224"
  73      2B001AAE 
  73      638CA805 
  73      3DA3A9D0 
  73      94
  74 0103 CC48DF1B 		.ascii	"\314H\337\033r\351\227\224\260ui\370\214O\334\207\347"
  74      72E99794 
  74      B07569F8 
  74      8C4FDC87 
  74      E7
  75 0114 4D8AF616 		.ascii	"M\212\366\026tx\276\3279\357\224\376\001\352\357[\277"
  75      7478BED7 
  75      39EF94FE 
  75      01EAEF5B 
  75      BF
  76 0125 3C16724C 		.ascii	"<\026rL\300\226Kc\324\304\330*<\246\344\341\031T\304"
  76      C0964B63 
  76      D4C4D82A 
  76      3CA6E4E1 
  76      1954C4
  77 0138 2523125C 		.ascii	"%#\022\\\010\333\0143\"\373#4\374\346r\"L\004\270\005"
  77      08DB0C33 
  77      22FB2334 
  77      FCE67222 
  77      4C04B805 
  78 014c 07EE6D37 		.ascii	"\007\356m7eb\\\227\276@)&\236\220\024;;\277[8H\2218"
  78      65625C97 
  78      BE402926 
  78      9E90143B 
  78      3BBF5B38 
  79 0163 9E02A356 		.ascii	"\236\002\243V&D\311\375\252\254\275\034PE\303\015\331"
  79      2644C9FD 
  79      AAACBD1C 
  79      5045C30D 
  79      D9
  80 0174 93FFCA02 		.ascii	"\223\377\312\002\377\224\345K[\310\262\335/\313\317"
  80      FF94E54B 
  80      5BC8B2DD 
  80      2FCBCF
  81 0183 643A7A37 		.ascii	"d:z7=\372\264z\364\331\257\305\016\365\031\246)\377"
  81      3DFAB47A 
  81      F4D9AFC5 
  81      0EF519A6 
  81      29FF
  82 0195 42C7F831 		.ascii	"B\307\3701\022i\270E\233\250\230\256$\032>\303t\030"
  82      1269B845 
  82      9BA898AE 
  82      241A3EC3 
  82      7418
  83 01a7 F90435FF 		.ascii	"\371\0045\377\325\351nG\3031M\015\241\327)\240c\231"
  83      D5E96E47 
  83      C3314D0D 
ARM GAS  /tmp/ccJeoyMt.s 			page 6


  83      A1D729A0 
  83      6399
  84 01b9 0CCF16CD 		.ascii	"\014\317\026\315\202y%\317\313\016/j%\356\330:7\026"
  84      827925CF 
  84      CB0E2F6A 
  84      25EED83A 
  84      3716
  85 01cb 2A191D26 		.ascii	"*\031\035&\372\017\355\012\237+\333\025\207_\230\312"
  85      FA0FED0A 
  85      9F2BDB15 
  85      875F98CA 
  86 01db 65730B5C 		.ascii	"es\013\\/\352e\333\2701\177\316\312\024!6\257\225\252"
  86      2FEA65DB 
  86      B8317FCE 
  86      CA142136 
  86      AF95AA
  87 01ee 46A63F83 		.ascii	"F\246?\203\256\341\331\\\376R\236\233\263z\251z\323"
  87      AEE1D95C 
  87      FE529E9B 
  87      B37AA97A 
  87      D3
  88 01ff E03243B7 		.ascii	"\3402C\267.VguJ:u\204 \302\025\235E\347(B\324Wvh!\250"
  88      2E566775 
  88      4A3A7584 
  88      20C2159D 
  88      45E72842 
  89 0219 B08448E5 		.ascii	"\260\204H\345\362SjAs\2149\333\234T\317\234\005f\303"
  89      F2536A41 
  89      738C39DB 
  89      9C54CF9C 
  89      0566C3
  90 022c 88655865 		.ascii	"\210eXe{\021\376\002\237\323\370R"
  90      7B11FE02 
  90      9FD3F852 
  91              		.text
  92              		.section	.gnu.lto_extStop.de01d084cb22d8be,"",%progbits
  93 0000 789C8552 		.ascii	"x\234\205RMh\324@\024~ob\232-=t\257BYb\305SK\306\233"
  93      4D68D440 
  93      147E6F62 
  93      9A2D3D74 
  93      AF425962 
  94 0019 57654110 		.ascii	"WeA\020Y\204n\005=I6\006\023\3304%\331-\255=4\273\356"
  94      59846E05 
  94      3D493606 
  94      13D83425 
  94      D92DAD3D 
  95 0030 A1A08722 		.ascii	"\241\240\207\"\"\376\240\266\326K\213\277x\361Pd\005"
  95      22FEA0B6 
  95      D64B8BBF 
  95      78F15064 
  95      05
  96 0041 4144AC78 		.ascii	"AD\254x\020\364 \215xS\020\004\017R\012\361M\262\233"
  96      10F4208D 
  96      78531004 
  96      0F520AF1 
  96      4DB29B
  97 0054 6D5AD109 		.ascii	"mZ\321\011o\336\317|/\337\3137a\300`\347\332Kv\217\312"
ARM GAS  /tmp/ccJeoyMt.s 			page 7


  97      6FDECF7C 
  97      2FDFCB37 
  97      61C060E7 
  97      DA4B768F 
  98 0069 1BE45102 		.ascii	"\033\344Q\002d\013\353\000\215\034C\024\001 \3141\234"
  98      640BEB00 
  98      8D1C4314 
  98      0120CC31 
  98      9C
  99 007a 3B8D31F6 		.ascii	";\2151\366\021k\207Q\364\360\361\253;\367\3616\353\227"
  99      116B8751 
  99      F4F0F1AB 
  99      3BF7F136 
  99      EB97
 100 008c D089EB32 		.ascii	"\320\211\3532\264\202`Au\2202#\256\214\323.\332O\"\023"
 100      B4826041 
 100      75903223 
 100      AE8CD32E 
 100      DA4F2213 
 101 00a0 5E7A0DCD 		.ascii	"^z\015\315\034\3000,\005\301\3450\012\327F\257\007\355"
 101      1CC0302C 
 101      05C1E530 
 101      0AD746AF 
 101      07ED
 102 00b2 D662B015 		.ascii	"\326b\260\025E\2106\322T\307Qt\236\242\004\325\330\261"
 102      458836D2 
 102      54C75174 
 102      9EA204D5 
 102      D8B1
 103 00c4 3DD93145 		.ascii	"=\3311E\015T\012\326\241\371s\345\302\323KR\207\265"
 103      0D540AD6 
 103      A1F973E5 
 103      C2D34B52 
 103      87B5
 104 00d6 4BDF8E5E 		.ascii	"K\337\216^l\346\231\216wq8\035\251\275|em`(\315V\256"
 104      6CE6998E 
 104      7771381D 
 104      A9BD7C65 
 104      6D6028CD 
 105 00ec 7E1E4C93 		.ascii	"~\036L\223\213?\276H\000:.\241L\324\202\236\221Id13"
 105      8B3FBE48 
 105      003A2EA1 
 105      4CD4829E 
 105      91496431 
 106 0101 D2F39252 		.ascii	"\322\363\222RRFJT+\300\007\274\025\\;lSu\373@\275\363"
 106      52464A54 
 106      2BC007BC 
 106      155C3B6C 
 106      5375FB40 
 107 0117 8F9DF3CE 		.ascii	"\217\235\363\316\350\357\240\025n|U\022\012\200Y\330"
 107      E8EFA015 
 107      6E7C5512 
 107      0A8059D8 
 108 0127 0CE683BC 		.ascii	"\014\346\203\274\215\262\021\347\000\347P\262\261\017"
 108      8DB211E7 
 108      00E750B2 
 108      B10F
ARM GAS  /tmp/ccJeoyMt.s 			page 8


 109 0135 E02D349F 		.ascii	"\340-4\237\315\237Op#\260\032\320\032\264Q\271\0117"
 109      CD9F4F70 
 109      23B01AD0 
 109      1AB451B9 
 109      0937
 110 0147 88234728 		.ascii	"\210#G(\301\325\037\267T\260'\207\"\342\254\262\213"
 110      C1D51FB7 
 110      54B02787 
 110      22E2ACB2 
 110      8B
 111 0158 CF7728AB 		.ascii	"\317w(\253\343r\374]\377\225\026\376)\355\247-!\355"
 111      E372FC5D 
 111      FF9516FE 
 111      29EDA72D 
 111      21ED
 112 016a 93ACB4DF 		.ascii	"\223\254\264\337\007\012\351\335o\323\370wO\3437\277"
 112      070AE9DD 
 112      6FD3F877 
 112      4FE337BF 
 113 017a 1A724FE3 		.ascii	"\032rO\343>2E\360\030\230\373\213\314:\256R\220\016"
 113      3E3245F0 
 113      1898FB8B 
 113      CC3AAE52 
 113      900E
 114 018c D39555C7 		.ascii	"\323\225U\307\007XH*\357\241\021~\333\337\3253Y\343"
 114      0758482A 
 114      EFA1117E 
 114      DBDFD533 
 114      59E3
 115 019e 7475F487 		.ascii	"tu\364\207\011\350\220\246\361\242eW\354\023e\356\372"
 115      09E890A6 
 115      F1A26557 
 115      EC1365EE 
 115      FA
 116 01af DCD2ABDC 		.ascii	"\334\322\253\334\367\014nN\3274\003F\262\207^\215O\272"
 116      F70C6E4E 
 116      D7340346 
 116      B2875E8D 
 116      4FBA
 117 01c1 5ECDE747 		.ascii	"^\315\347G\306J\305\32247,\303\365\3143S\207\034\315"
 117      C64AC5D2 
 117      34372CC3 
 117      F5CC3353 
 117      871CCD
 118 01d4 02794AAF 		.ascii	"\002yJ\257\326M-\333A\257\341\305R\371X\231\333\023"
 118      D64D2DDB 
 118      41AFE1C5 
 118      52F95899 
 118      DB13
 119 01e6 46B57ED6 		.ascii	"F\265~\326\344q\207\341\034\255O\030\324\264o\027A\212"
 119      E47187E1 
 119      1CAD4F18 
 119      D4B46F17 
 119      418A
 120 01f8 B3FC197F 		.ascii	"\263\374\031\1777B\314\347\372\264\021TxB\344K\3451"
 120      3742CCE7 
 120      FAB41154 
ARM GAS  /tmp/ccJeoyMt.s 			page 9


 120      7842E44B 
 120      E531
 121 020a B5A2FBE6 		.ascii	"\265\242\373\346\244g\217\252\007\016\002\363@qL\307"
 121      A4678FAA 
 121      070E02F3 
 121      40714CC7 
 122 021a F566E00F 		.ascii	"\365f\340\017\262\254\351\251"
 122      B2ACE9A9 
 123              		.text
 124              		.section	.gnu.lto_extChannelEnable.de01d084cb22d8be,"",%progbits
 125 0000 789C8552 		.ascii	"x\234\205RMh\324@\024~o\262iWzp\257BYb\241'K\306\233"
 125      4D68D440 
 125      147E6FB2 
 125      69577A70 
 125      AF425962 
 126 0019 57654110 		.ascii	"WeA\020Y\204n\205\366$\351\030\232\300\246)\311ni\361"
 126      59846E85 
 126      F624E918 
 126      9AC0A629 
 126      C96E69F1 
 127 002d D0E95AB1 		.ascii	"\320\351Z\261\207R\212\210\324C\241?\247\025\264\007"
 127      87528A88 
 127      D443A13F 
 127      A715B407 
 128 003d AF455728 		.ascii	"\257EW(\210\010\025\017\202\036\304\340\325\2237Y\012"
 128      8808150F 
 128      821EC4E0 
 128      D5933759 
 128      0A
 129 004e F14D7637 		.ascii	"\361Mv7\335\264E\023\336\274y\177\363}\371&\014\030"
 129      DDB44513 
 129      DEBC797F 
 129      F37DF926 
 129      0C18
 130 0060 9C7E2E91 		.ascii	"\234~.\221\371\224\376A\0365@\266q\004\260\234g\210"
 130      F994FE41 
 130      1E3540B6 
 130      7104B09C 
 130      6788
 131 0072 6A03084B 		.ascii	"j\003\010K\014\227\2460\351\335g\255(\216_\265\037\277"
 131      0C97A630 
 131      E9DD67AD 
 131      288E5FB5 
 131      1FBF
 132 0084 5DC326BB 		.ascii	"]\303&\273\240\241\207\220\243EUuX\221r\303\360\220"
 132      A0A18790 
 132      A3455575 
 132      589172C3 
 132      F090
 133 0096 CE1249FB 		.ascii	"\316\022I\373\004\255\352\214\273\224\"\257}\200F\036"
 133      04ADEA8C 
 133      BB9422AF 
 133      7D80461E 
 134 00a6 600476A4 		.ascii	"`\004v\244|\022\305\321\301\330s\331Z\331\226\307q\214"
 134      7C12C5D1 
 134      C1D873D9 
 134      5AD996C7 
ARM GAS  /tmp/ccJeoyMt.s 			page 10


 134      718C
 135 00b8 E82251BB 		.ascii	"\350\"Q\273\215jr\222\0024\022\307rY\256*\007\006m\216"
 135      8D6A7292 
 135      023412C7 
 135      7259AE2A 
 135      07066D8E 
 136 00cc A0F1BBF9 		.ascii	"\240\361\273\371\360\365\232\326E\355\301\267\342w\355"
 136      F0F59AD6 
 136      45EDC1B7 
 136      E277ED
 137 00db 02B37017 		.ascii	"\002\263p\027GRJ\255\275\247\007C\303i\324|\366\375"
 137      47524AAD 
 137      BDA70743 
 137      C369D47C 
 137      F6FD
 138 00ed 621A7C3C 		.ascii	"b\032|<\374\251\001X\270\203:A+xF\246\221%\310H\357"
 138      FCA90158 
 138      B8833A41 
 138      2B7846A6 
 138      9125C848 
 139 0102 2185F449 		.ascii	"!\205\364IZG\272\"|\301-\271y\335\245l?\241\223\372"
 139      5A47BA22 
 139      7CC12DB9 
 139      79DDA56C 
 139      3FA193FA 
 140 0116 D76EBD4B 		.ascii	"\327n\275K\375\023<\212\326\355\016\002\300\003h\313"
 140      FD133C8A 
 140      D6ED0E02 
 140      C00368CB 
 141 0126 55597051 		.ascii	"UYpQ\027I\0140\203\332\014\346\\\034\000\310\352\263"
 141      17490C30 
 141      83DA0CE6 
 141      5C1C00C8 
 141      EAB3
 142 0138 FDE6943E 		.ascii	"\375\346\224>\026\356%\354\376+\020\374S\240o\307J\240"
 142      16EE25EC 
 142      FE2B10FC 
 142      53A06FC7 
 142      4AA0
 143 014a FDAC40BF 		.ascii	"\375\254@\277\206\212\351\015\366)\365\247O\251\367"
 143      868AE90D 
 143      F629F5A7 
 143      4FA9F7
 144 0159 0DFD44A9 		.ascii	"\015\375D\251\001\262A\205#0\177\216X\026\276\240MJ"
 144      01B24185 
 144      23307F8E 
 144      5816BEA0 
 144      4D4A
 145 016b A6278E85 		.ascii	"\246'\216\205/\261\330\311|\206\345hs\264'K\347\231"
 145      2FB1D8C9 
 145      7C86E568 
 145      73B4274B 
 145      E799
 146 017d A00BA0FF 		.ascii	"\240\013\240\377D\265\016\233&/9\356\264{\247\302\375"
 146      44B50E9B 
 146      262F39EE 
 146      B47BA7C2 
ARM GAS  /tmp/ccJeoyMt.s 			page 11


 146      FD
 147 018e 903B5695 		.ascii	"\220;V\225\207\201\340\366B\315\024p%[\014j|\316\017"
 147      8781E0F6 
 147      42CD1470 
 147      255B0C6A 
 147      7CCE0F
 148 01a1 6A21BF31 		.ascii	"j!\2771^.\225\027\270p\204\037\330\367\346\257y\246"
 148      5E2E9517 
 148      B870841F 
 148      D8F7E6AF 
 148      79A6
 149 01b3 03FABC55 		.ascii	"\003\372\274U\255\333fv\202\216\341\245r\345V\205\273"
 149      ADDB6676 
 149      828EE1A5 
 149      72E55685 
 149      BB
 150 01c4 B3A25ABF 		.ascii	"\263\242Z\277o\363dBx7\353\263\202\206.\237\001H\373"
 150      6FF36442 
 150      7837EBB3 
 150      82862E9F 
 150      0148FB
 151 01d7 9C70313C 		.ascii	"\234p1<\333\241\370\371!-\324\252<u\024\312\225qc\332"
 151      DBA1F8F9 
 151      212DD4AA 
 151      3C7514CA 
 151      957163DA 
 152 01eb 0AEDB9C0 		.ascii	"\012\355\271\300\0353F\257\002\013`\320\263=?X\204\277"
 152      1D3346AF 
 152      020B60D0 
 152      B33D3F58 
 152      84BF
 153 01fd F1A2DDBA 		.ascii	"\361\242\335\272"
 154              		.text
 155              		.section	.gnu.lto_extChannelDisable.de01d084cb22d8be,"",%progbits
 156 0000 789C8552 		.ascii	"x\234\205RMh\324@\024~o\262iWzp\257BYb\241'K\306\233"
 156      4D68D440 
 156      147E6FB2 
 156      69577A70 
 156      AF425962 
 157 0019 57654128 		.ascii	"WeA(e)t+\350I\32214\201MS\222\335\322\322C\247k\013"
 157      6529742B 
 157      E849D231 
 157      34814D53 
 157      92DDD2D2 
 158 0031 3DF45044 		.ascii	"=\364PDD\017BkOU\264\007\257K]\301\213\012\025\017\376"
 158      440F426B 
 158      4F55B407 
 158      AF4B5DC1 
 158      8B0A150F 
 159 0046 1DD4E055 		.ascii	"\035\324\340U/\336\244\024\342\233\354n\272i\245&\274"
 159      2FDEA414 
 159      E29BEC6E 
 159      BA69A526 
 159      BC
 160 0057 79F3FEE6 		.ascii	"y\363\376\346\373\362M\03008\376\234#\363)\375\235<"
 160      FBF24D18 
 160      3038FE9C 
ARM GAS  /tmp/ccJeoyMt.s 			page 12


 160      23F329FD 
 160      9D3C
 161 0069 6A806C63 		.ascii	"j\200lc\037`9\317\020\325\006\020\226\030.\335\300\244"
 161      1F6039CF 
 161      10D50610 
 161      96182EDD 
 161      C0A4
 162 007b 7797B5A2 		.ascii	"w\227\265\2428~\366\361\315\213_\370\204\235\321\320"
 162      387EF6F1 
 162      CD8B5FF8 
 162      849DD1D0 
 163 008b 43C8D1A2 		.ascii	"C\310\321\242\252:\254H\271axHg\211\244}\222Vu\3065"
 163      AA3AAC48 
 163      B9617848 
 163      6789A47D 
 163      925675C6 
 164 00a0 4A91D75E 		.ascii	"J\221\327^C#\0170\004[R\336\211\342\2509\362@\266V6"
 164      43230F30 
 164      045B52DE 
 164      89E2A839 
 164      F240B656 
 165 00b5 E5611C23 		.ascii	"\345a\034#\272H\324\306PM^\247\000\215\304\261\\\226"
 165      BA48D4C6 
 165      504D5EA7 
 165      008DC4B1 
 165      5C96
 166 00c7 ABCA8141 		.ascii	"\253\312\201A\233}h\374\336\271\375|]\353\240v\341["
 166      9B7D68FC 
 166      DEB9FD7C 
 166      5DEBA076 
 166      E15B
 167 00d9 F1CB8302 		.ascii	"\361\313\203\002\263\360\021\016\245\224Z\333w\233\003"
 167      B3F0110E 
 167      A5945ADB 
 167      779B03
 168 00e8 8369B473 		.ascii	"\203i\264s\357\353\3314x\373\351\207\006`\341\026\352"
 168      EFEBD934 
 168      78FBE987 
 168      0660E116 
 168      EA
 169 00f9 04ADE019 		.ascii	"\004\255\340\031\231F\226 #\275\257(\244O\322\332\322"
 169      99469620 
 169      23BDAF28 
 169      A44FD2DA 
 169      D2
 170 010a 15E1033E 		.ascii	"\025\341\003>\224\367/\273\224\355%tT\377\334\251w\250"
 170      94F72FBB 
 170      94ED2574 
 170      54FFDCA9 
 170      77A8
 171 011c BF83D5A8 		.ascii	"\277\203\325\250i\267\021\000\026\341@\256\311\202\213"
 171      69B71100 
 171      16E140AE 
 171      C9828B
 172 012b BA486280 		.ascii	"\272Hb\200i\324\2461\347b\037@V\237\315\275c\372X\270"
 172      69D4A631 
 172      E7621F40 
ARM GAS  /tmp/ccJeoyMt.s 			page 13


 172      569FCDBD 
 172      63FA58B8 
 173 013f 9DB0FBAF 		.ascii	"\235\260\373\257@p\252@_\016\225@\273Y\201~\016\024"
 173      4070AA40 
 173      5F0E9540 
 173      BB59817E 
 173      0E14
 174 0151 D31BEC51 		.ascii	"\323\033\354Q\352O\217R\337\032\372\221R}d\375\012G"
 174      EA4F8F52 
 174      DF1AFA91 
 174      527D64FD 
 174      0A47
 175 0163 60FE1F62 		.ascii	"`\376\037bY\370\2306)\231\2568\026>\305b;\363\036\226"
 175      59F89836 
 175      2999AE38 
 175      163EC562 
 175      3BF31E96 
 176 0177 A3BDE1AE 		.ascii	"\243\275\341\256,\355g\222.\200\376\023\325:h\232\274"
 176      2CED6792 
 176      2E80FE13 
 176      D53A689A 
 176      BC
 177 0188 E4B853EE 		.ascii	"\344\270S\356x\205\373!w\254*\017\003\301\355\371\232"
 177      7885FB21 
 177      77AC2A0F 
 177      03C1EDF9 
 177      9A
 178 0199 29E042B6 		.ascii	")\340B\266\030\324\370\254\037\324B~e\242\\*\317s\341"
 178      18D4F8AC 
 178      1FD4427E 
 178      65A25C2A 
 178      CF73E1
 179 01ac 083FB06F 		.ascii	"\010?\260o\316]\362L\007\3649\253Z\267\315\354\004\035"
 179      CE5DF24C 
 179      07F439AB 
 179      5AB7CDEC 
 179      041D
 180 01be C34BE5CA 		.ascii	"\303K\345\312h\205\2733\242Z\277e\363dBxW\3533\202\206"
 180      6885BB33 
 180      A25ABF65 
 180      F3644278 
 180      57EB3382 
 181 01d3 CE9F0048 		.ascii	"\316\237\000H\373\234p!<\331\241\370\371!-\324\252<"
 181      FB9C7021 
 181      3CD9A1F8 
 181      F9212DD4 
 181      AA3C
 182 01e5 7514CA95 		.ascii	"u\024\312\225\011c\312\012\355\331\300\0351\206/\002"
 182      0963CA0A 
 182      EDD9C01D 
 182      31862F02 
 183 01f5 0BA0DFB3 		.ascii	"\013\240\337\263=?X\200\277c\344\336\271"
 183      3D3F5880 
 183      BF63E4DE 
 183      B9
 184              		.text
 185              		.section	.gnu.lto_extSetChannelModeI.de01d084cb22d8be,"",%progbits
ARM GAS  /tmp/ccJeoyMt.s 			page 14


 186 0000 789C7591 		.ascii	"x\234u\221?K\303P\024\305\317}IjU(\256\025\301R\004"
 186      3F4BC350 
 186      14C5CF7D 
 186      496A5528 
 186      AE15C152 
 187 0015 C16233FA 		.ascii	"\301b3\372\001\374\000\016*\350\330FI\003-\025\353 "
 187      01FC000E 
 187      2AE8D846 
 187      49032D15 
 187      EB20
 188 0027 38F4B558 		.ascii	"8\364\265X\020\212R\034\004\377\014\326E\020\321\301"
 188      108A521C 
 188      04FF0CD6 
 188      4510D1C1 
 189 0037 454530AB 		.ascii	"EE0\253\210\212\213\240 \324\311\305\017 \016\306\373"
 189      888A8BA0 
 189      20D4C9C5 
 189      0F200EC6 
 189      FB
 190 0048 9AA650C5 		.ascii	"\232\246P\305\007y\367\206w\356\357\234\274\010\010"
 190      0779F786 
 190      77EEEF9C 
 190      BC0808
 191 0057 FC5E517E 		.ascii	"\374^Q~\336\011\030\342J\032H\324\356\201RX\020\251"
 191      DE0918E2 
 191      4A1A48D4 
 191      EE815258 
 191      10A9
 192 0069 0684A2A0 		.ascii	"\006\204\242\240\342,5\265\247\302mx\336\311S\365\352"
 192      E22C35B5 
 192      A7C26D78 
 192      DEC953F5 
 192      EA
 193 007a 83CE056B 		.ascii	"\203\316\005kr\004\015\016A\347\216\014\336\024\337"
 193      72040D0E 
 193      41E78E0C 
 193      DE14DF
 194 0089 C0AA94B5 		.ascii	"\300\252\224\265X\034u)7\335\347\333\255\250\334/\327"
 194      581C7529 
 194      37DDE7DB 
 194      ADA8DC2F 
 194      D7
 195 009a E4B7E791 		.ascii	"\344\267\347\221C\254\030$X\204\031~\021\261f\321\364"
 195      43AC1824 
 195      5884197E 
 195      11B166D1 
 195      F4
 196 00ab CE4839CE 		.ascii	"\316H9\316\241$\274\246xW9\246y\216\253v\207\362\313"
 196      A124BCA6 
 196      785739A6 
 196      798EAB76 
 196      87F2CB
 197 00be E7F59B9E 		.ascii	"\347\365\233\236\242:\031\260IK`\204\375w\261\303\034"
 197      A23A19B0 
 197      494B6084 
 197      FD77B1C3 
 197      1C
ARM GAS  /tmp/ccJeoyMt.s 			page 15


 198 00cf DD26A178 		.ascii	"\335&\241xF\223\222\246\200w\203\262\033\365'r\244\257"
 198      469392A6 
 198      807783B2 
 198      1BF52772 
 198      A4AF
 199 00e1 E04BF639 		.ascii	"\340K\3669\024\032\305\261\254I\371\312\003]\011\034"
 199      141AC5B1 
 199      AC49F9CA 
 199      035D091C 
 200 00f1 A9FE82FB 		.ascii	"\251\376\202\373\260\317\352f\266b\241\305\362\033\233"
 200      B0CFEA66 
 200      B662A1C5 
 200      F21B9B
 201 0100 82A83EAE 		.ascii	"\202\250>\256\023\236\242\003\212+\013\200s^V\316\366"
 201      139EA203 
 201      8A2B0B80 
 201      735E56CE 
 201      F6
 202 0111 FAFD03DF 		.ascii	"\372\375\003\337\312\365\252c\177\275JR\245\011\354"
 202      CAF5AA63 
 202      7FBD4A52 
 202      A509EC
 203 0120 E81F3B5F 		.ascii	"\350\037;_\350noD\230`\223\241\264\241\326\331\003*"
 203      E86E6F44 
 203      986093A1 
 203      B4A1D6D9 
 203      032A
 204 0132 8DF5C348 		.ascii	"\215\365\303H\220H}\337\232b\366Xm\214`\222C\275\300"
 204      90487DDF 
 204      9A62F658 
 204      6D8C6092 
 204      43BDC0
 205 0145 234A8D8D 		.ascii	"#J\215\215\341vx\370wL\352n\325\257\033H&\315\361\214"
 205      E17678F8 
 205      774CEA6E 
 205      D5AF1B48 
 205      26CDF18C 
 206 0159 93762626 		.ascii	"\223v&&\315|\301\314\244\262fa\3212\347\227\227\222"
 206      CD7CC1CC 
 206      A4B26661 
 206      D132E797 
 206      9792
 207 016b 168C7C76 		.ascii	"\026\214|v\316Z\370\001\206\271{$"
 207      CE5AF801 
 207      86B97B24 
 208              		.text
 209              		.section	.gnu.lto_.symbol_nodes.de01d084cb22d8be,"",%progbits
 210 0000 789C4DC7 		.ascii	"x\234M\307K\012\302@\024D\321z\325\371v\026]\201L\034"
 210      4B0AC240 
 210      1444D17A 
 210      D5F97616 
 210      5D814C1C 
 211 0014 464D5410 		.ascii	"FMT\020u1\316]\203\301}\004\011-\366\273\223\313!\210"
 211      7531CE5D 
 211      83C17D04 
 211      092DF6BB 
 211      93CB2188 
ARM GAS  /tmp/ccJeoyMt.s 			page 16


 212 0028 05BF3852 		.ascii	"\005\2778R\300\370\002\244\373\316\270\247\314\361@"
 212      C0F802A4 
 212      FBCEB8A7 
 212      CCF140
 213 0037 D1F14805 		.ascii	"\321\361H\005\307\211*\034g\252t<QU\246\235\251:\261"
 213      C7892A1C 
 213      67AA743C 
 213      5155A69D 
 213      A93AB1
 214 004a EFCD2E54 		.ascii	"\357\315.T\223u\245\332\254\033\025\263\036T\367W@\215"
 214      9375A5DA 
 214      AC1B15B3 
 214      1E54F757 
 214      408D
 215 005c E1BD5A60 		.ascii	"\341\275Z`\203\317\366\320\342\271\275\210\351e\227"
 215      83CFF6D0 
 215      E2B9BD88 
 215      E96597
 216 006b 5E450CCB 		.ascii	"^E\014\313j\370\002u\017E\007"
 216      6AF80275 
 216      0F4507
 217              		.text
 218              		.section	.gnu.lto_.refs.de01d084cb22d8be,"",%progbits
 219 0000 789C6362 		.ascii	"x\234cb`b`d\200\002\000\000F\000\006"
 219      60626064 
 219      80020000 
 219      460006
 220              		.text
 221              		.section	.gnu.lto_.decls.de01d084cb22d8be,"",%progbits
 222 0000 789CBD59 		.ascii	"x\234\275Y\177p\024W\035\177o\363\343\356\310\017\223"
 222      7F701457 
 222      1D7F6FF3 
 222      E3EEC80F 
 222      93
 223 0011 B450D43A 		.ascii	"\264P\324:\004[\352L\235p\020\350@\375\243\202\001%"
 223      045BEA4C 
 223      9D7010E8 
 223      40FDA382 
 223      0125
 224 0023 33049826 		.ascii	"3\004\230&q:\2433;\233\273\2459{\271\213w\027 3*\033"
 224      713AA333 
 224      3B9BBBA5 
 224      397BB98B 
 224      77172033 
 225 0039 02110534 		.ascii	"\002\021\0054\264B\203P<~44\025$\226T\246\232\264\007"
 225      B4428350 
 225      3C7E3434 
 225      15249654 
 225      A69AB407 
 226 004d 9524928A 		.ascii	"\225$\222\212\021\250t,\325\003:t\306\326\310\020\321"
 226      11A8742C 
 226      D5033A74 
 226      C6D6C810 
 226      D1
 227 005e 404DCEEF 		.ascii	"@M\316\357{\373\366v\367\335\356\345\256\316\2703\337"
 227      7BFBF676 
 227      F7DDEEE5 
ARM GAS  /tmp/ccJeoyMt.s 			page 17


 227      AECEB833 
 227      DF
 228 006f DBB7BBDF 		.ascii	"\333\267\273\337\357\367\363\375|\277\357\275}oO@\002"
 228      EFF7F3FD 
 228      7CBFEFBD 
 228      7D6F4F40 
 228      02
 229 0080 2ACC4128 		.ascii	"*\314A(\001\307\306\317\"\2640\027!'B\350\011\244\037"
 229      01C7C6CF 
 229      22B43017 
 229      212742E8 
 229      09A41F
 230 0093 85208740 		.ascii	"\205 \207@\272An\202\214\201\334\006\231\000\231\004"
 230      BA416E82 
 230      8C81DC06 
 230      99009904 
 231 00a3 99814107 		.ascii	"\231\201A\007\244\030\244\004\244\014\243\224\203\330"
 231      A418A404 
 231      A40CA394 
 231      83D8
 232 00b1 0B20F7C3 		.ascii	"\013 \367\303\263\303\354\236\300\356\317\260\320'X"
 232      B3C3EC9E 
 232      C0EECFB0 
 232      D02758
 233 00c0 100AEA05 		.ascii	"\020\012\352\005y\031\244\007d\200\331\234\004\351\007"
 233      7919A407 
 233      6480D99C 
 233      04E907
 234 00cf C14C8F9C 		.ascii	"\301L\217\234op\366$\316\002\220\021\220b\306a&(~\006"
 234      6F70F624 
 234      CE029011 
 234      9062C661 
 234      26287E06 
 235 00e3 AB7E349F 		.ascii	"\253~4\237\017\302\3651\206#0\277\304\277\213\371\370"
 235      0FC2F531 
 235      862330BF 
 235      C4BF8BF9 
 235      F8
 236 00f4 1C3C2F07 		.ascii	"\034</\007y\010\344\021\306\323\015R\011\362\030\010"
 236      7908E411 
 236      C6D30D52 
 236      09F21808 
 237 0104 A40E7D08 		.ascii	"\244\016}\010\362\021\310R\216\007\311\323\014\233\030"
 237      F211C852 
 237      8E07C9D3 
 237      0C9B18
 238 0113 8CB85A2C 		.ascii	"\214\270Z,\330\200=f\201]\314a\223xo\201|\231\303%\265"
 238      D8803D66 
 238      815DCC61 
 238      93786F81 
 238      7C99C325 
 239 0128 71D8E05E 		.ascii	"q\330\340^\205\366e\246\347b\272<N\211\005\307\177\202"
 239      85F665A6 
 239      E762BA3C 
 239      4E8905C7 
 239      7F82
 240 013a DC0159C1 		.ascii	"\334\001Y\301aMd\2015a\201Uf\201u\017\344c\220j\016"
ARM GAS  /tmp/ccJeoyMt.s 			page 18


 240      614D6481 
 240      35618155 
 240      6681750F 
 240      E463906A 
 241 014f 6B92F927 		.ascii	"k\222\371'\365[\203u<-\177\002\261\007Y\013\362:\322"
 241      F55B8375 
 241      3C2D7F02 
 241      B107590B 
 241      F23AD2
 242 0162 F1B5BABE 		.ascii	"\361\265\272\276\311\332\304\017\341\230\007\347<8\347"
 242      C9DAC40F 
 242      E19807E7 
 242      3C38E7
 243 0171 833840D6 		.ascii	"\2038@\326\201\324s\230s\320A%\032\217o;8\202\225g\225"
 243      81D47398 
 243      73D04125 
 243      1A8F6F3B 
 243      38829567 
 244 0186 FF241239 		.ascii	"\377$\0229h\026\332\243\300\021\355P\024\034\221\360"
 244      6816DAA3 
 244      C011ED50 
 244      141C91F0 
 245 0196 1333D153 		.ascii	"\0233\321SX\302\305.TN\033\205.\332q\021\222\360a<\213"
 245      58C2C52E 
 245      544E1B85 
 245      2EDA7111 
 245      92F0613C 
 246 01ab B5EA7354 		.ascii	"\265\352sTw\002\232\203\321\243\250\007\354;\025\345"
 246      77029A83 
 246      D1A3A807 
 246      EC3B15E5 
 247 01bb FA7DC8EA 		.ascii	"\372}\310\352x\004\275H\000\224\227\224\034\352\236"
 247      7804BD48 
 247      00949794 
 247      1CEA9E
 248 01ca 383884E7 		.ascii	"88\204\347\030U$|\004\013\251q\306\272\006\013;\333"
 248      1855247C 
 248      040BA971 
 248      C6BA060B 
 248      3BDB
 249 01dc E289C49C 		.ascii	"\342\211\304\234\314\203<\306\202\314\241\271\201A\363"
 249      CC833CC6 
 249      82CCA1B9 
 249      8141F3
 250 01eb 4345D942 		.ascii	"CE\331B\014W\015\027\227\241\335\304K\3710\244\232\331"
 250      0C570D17 
 250      97A1DDC4 
 250      4BF930A4 
 250      9AD9
 251 01fd 2FD3ECC9 		.ascii	"/\323\354\311,1\017\035\005\"\361\201k;\277\244(N\011"
 251      2C310F1D 
 251      0522F181 
 251      6B3BBFA4 
 251      284E09
 252 0210 BF8CCBC0 		.ascii	"\277\214\313\300\013\344_\302G\361\243,4\346$\272\314"
 252      0BE45FC2 
 252      47F1A32C 
ARM GAS  /tmp/ccJeoyMt.s 			page 19


 252      34E624BA 
 252      CC
 253 0221 CE8B848F 		.ascii	"\316\213\204\217\003\031\011\237\000k\325\220\372U\342"
 253      0319099F 
 253      006BD590 
 253      FA55E2
 254 0230 E38377DA 		.ascii	"\343\203w\332p\0330P\237!\223[\3231\027E!\352\330_\207"
 254      701B3050 
 254      9F21935B 
 254      D3311745 
 254      21EAD85F 
 255 0245 0E3EA0C4 		.ascii	"\016>\240\304c\330\201:\010\211\370\266-\263\273tP\247"
 255      63D8813A 
 255      0889F8B6 
 255      2DB3BB74 
 255      50A7
 256 0257 068A0DA1 		.ascii	"\006\212\015\241\237\330\231CC\357\005#\001\355\302"
 256      9FD89943 
 256      43EF0523 
 256      01EDC2
 257 0266 E6D83370 		.ascii	"\346\3303pD\242:\005\306\306\310c\211\326r\365n\232"
 257      44A23A05 
 257      C6C6C863 
 257      89D672F5 
 257      6E9A
 258 0278 9869C205 		.ascii	"\230i\302\005\324\005\220\304]\256K\277wD\277\207\015"
 258      D40590C4 
 258      5DAE4BBF 
 258      7744BF87 
 258      0D
 259 0289 AAC7F5DB 		.ascii	"\252\307\365\333Z\361\311%v\351\215\204\271\377\032"
 259      5AF1C925 
 259      76E98D84 
 259      B9FF1A
 260 0298 4393701F 		.ascii	"C\223p\037\236\007\277\257\342\034K3\001\235\246\354"
 260      9E07BFAF 
 260      E21C4B33 
 260      019DA6EC 
 261 02a8 49AAAD88 		.ascii	"I\252\255\210\262\246\216[\254]\260\364C\275&\257\341"
 261      B2A68E5B 
 261      AC5DB0F4 
 261      43BD26AF 
 261      E1
 262 02b9 E7DA95E1 		.ascii	"\347\332\225\341\005V\275\010T\260\241\013(\245\232"
 262      0556BD08 
 262      54B0A10B 
 262      28A59A
 263 02c8 C74E2159 		.ascii	"\307N!Y\217\330\300\020.\267\350u\234\262\204\337\000"
 263      8FD8C010 
 263      2EB7E875 
 263      9CB284DF 
 263      00
 264 02d9 2AD3EB11 		.ascii	"*\323\353\021\3153\\\257\212\375r\250P\311U\357O\327"
 264      CD335CAF 
 264      8AFD72A8 
 264      50C955EF 
 264      4FD7
ARM GAS  /tmp/ccJeoyMt.s 			page 20


 265 02eb A394D86B 		.ascii	"\243\224\330kC\007\260\022=\213KQ'\303\232\266;3&{\200"
 265      4307B012 
 265      3D8B4B51 
 265      27C39AB6 
 265      3B33267B 
 266 0300 8984CFD1 		.ascii	"\211\204\317\321\0211\200\263\034\022$\260a>\360\367"
 266      113180B3 
 266      1C1224B0 
 266      613EF0F7 
 267 0310 0669E0C3 		.ascii	"\006i\340\303\031\015\205;\203\007>M\002w\241\355z%"
 267      190D853B 
 267      83073E4D 
 267      0277A1ED 
 267      7A25
 268 0322 90E52CA0 		.ascii	"\220\345,\240\015\205\037\235;\203\267\320\3216\202"
 268      0D851F9D 
 268      3B83B7D0 
 268      D13682
 269 0331 490F3B2B 		.ascii	"I\017;+\230\243\316\334\325\351\275\375\217\323Qu\201"
 269      98A3CEDC 
 269      D5E9BDFD 
 269      8FD35175 
 269      81
 270 0342 3A1ACD31 		.ascii	":\032\3151;\222\260\303e\014\231^k\012\304\233\303\245"
 270      3B92B0C3 
 270      650C995E 
 270      6B0AC49B 
 270      C3A5
 271 0354 37C8CAE4 		.ascii	"7\310\312\344S([u\001\275KA\207\365\316l\012t\372\316"
 271      53285B75 
 271      01BD4B41 
 271      87F5CE6C 
 271      0A74FACE 
 272 0368 7C7BF07D 		.ascii	"|{\360}\274O\211m\3151\365\345\314\347\325\313\346y"
 272      BC4F896D 
 272      CD31F5E5 
 272      CCE7D5CB 
 272      E679
 273 037a 55C23DB8 		.ascii	"U\302=\270@\273\3108\223\261S\0353I\315\257\320<\306"
 273      40BBC838 
 273      93B1531D 
 273      3349CDAF 
 273      D03CC6
 274 038d 53F23882 		.ascii	"S\3628\202?I\"\365\367\021J\013~\251\343~\002~\011\002"
 274      3F4922F5 
 274      F7114A0B 
 274      7EA9E37E 
 274      027E0902 
 275 03a1 17D0DF39 		.ascii	"\027\320\3379pSZT\272v\251\270\012\016\254\373k\312"
 275      70535A54 
 275      BA76A9B8 
 275      0A0EACFB 
 275      6BCA
 276 03b3 33017D9C 		.ascii	"3\001}\234u\335\312S\334\032\374\353\243H\302\277\243"
 276      75DDCA53 
 276      DC1AFCEB 
 276      A348C2BF 
ARM GAS  /tmp/ccJeoyMt.s 			page 21


 276      A3
 277 03c4 F3DF793C 		.ascii	"\363\337y<\027~/\302/\237\003\213\331\343\2670\362\223"
 277      177E2FC2 
 277      2F9F038B 
 277      D9E3B730 
 277      F293
 278 03d6 1553926C 		.ascii	"\025S\222lA\305\216\354_XI\222\221\262\206\006'\240"
 278      41C58EEC 
 278      5F584992 
 278      91B28606 
 278      27A0
 279 03e8 29CAF08C 		.ascii	")\312\360\214\316\220\303M\3237\015\304TJg)\2457\215"
 279      CE90C34D 
 279      D3370DC4 
 279      544A6729 
 279      A5378D
 280 03fb 6404F4FD 		.ascii	"d\004\364\375\\\276\237\250\223\235\301Z\237\025\021"
 280      5CBE9FA8 
 280      939DC15A 
 280      9F1511
 281 040a 6F6F476C 		.ascii	"ooGl\000\027\350\020\273s\271W\305\377V\245\023\206"
 281      0017E810 
 281      BB73B957 
 281      C5FF56A5 
 281      1386
 282 041c 2AFD8252 		.ascii	"*\375\202R:I\253\324\237I`=z`\246\236\015\357V.\021"
 282      3A49ABD4 
 282      9F49603D 
 282      7A60A69E 
 282      0DEF562E 
 283 0431 0FA3238A 		.ascii	"\017\243#\212\362l|\333\215\211\034\030\332\271\252"
 283      F26C7CDB 
 283      8D891C18 
 283      DAB9AA
 284 0440 A980BAA9 		.ascii	"\251\200\272\251Z7,\261\254 \222\000l]\266K\331V\202"
 284      5A372CB1 
 284      AC209200 
 284      6C5DB64B 
 284      D95682
 285 0453 930BB36E 		.ascii	"\223\013\263n~av\335ra\366N\366\013\263\017\322L \311"
 285      7E6176DD 
 285      7261F64E 
 285      F60BB30F 
 285      D24C20C9 
 286 0467 6A70847F 		.ascii	"jp\204\177nIX\271\343]\245\232K\370}\272\324\272\231"
 286      6E4958B9 
 286      E35DA59A 
 286      4BF87DBA 
 286      D4BA99
 287 047a 9E2B33BB 		.ascii	"\236+3\273$\257R\201$|m\032\263\2014)\272\311\247\350"
 287      24AF5281 
 287      247C6D1A 
 287      B3813429 
 287      BAC9A7E8 
 288 048e 6F9629EA 		.ascii	"o\226)\352\035b)R\327\244\002\352\263&3\316\223\031"
 288      1D622952 
 288      D7A402EA 
ARM GAS  /tmp/ccJeoyMt.s 			page 22


 288      B32633CE 
 288      9319
 289 04a0 FB44851B 		.ascii	"\373D\205\033\343\243\372\207eT\367\364\250.\323\250"
 289      E3A3FA87 
 289      6554F7F4 
 289      A82ED3A8 
 290 04b0 FAADA3DA 		.ascii	"\372\255\243\332#sQ\335\316(\305\357\0223uv\377=ulo"
 290      237351DD 
 290      CE28C5EF 
 290      12337576 
 290      FF3D756C 
 291 04c5 76459D58 		.ascii	"vE\235X,\311\334\346\311\214[\222\371\323y\216\314\333"
 291      2CC9DCE6 
 291      C98C5B92 
 291      F9D3798E 
 291      CCDB
 292 04d7 D6649EE7 		.ascii	"\326d\236\347\311LdD\346=\215\214\204\3775\215Y:2\023"
 292      C94C6444 
 292      E63D8D8C 
 292      84FF358D 
 292      593A3213 
 293 04eb 3C99BB96 		.ascii	"<\231\273\226d.\216d=\244\246\322\016)\026S\232\215"
 293      642E8E64 
 293      3DA4A6D2 
 293      0E291653 
 293      9A8D
 294 04fd 5034665A 		.ascii	"P4fZ\302r\273\230A:q\015\233fV\373\227MJp[\204\002]"
 294      C272BB98 
 294      413A710D 
 294      9B6656FB 
 294      974D4A70 
 295 0515 891FD81F 		.ascii	"\211\037\330\037X\027j\037_\250\311L\012\025{{\3071"
 295      58176A1F 
 295      5FA8C94C 
 295      0A157B7B 
 295      C731
 296 0527 581C0AE6 		.ascii	"X\034\012\346b\331\233\322\3040\323+#}\252)\011W@\367"
 296      62D99BD2 
 296      C430D32B 
 296      237DAA29 
 296      095740F7 
 297 053b 685CF6A6 		.ascii	"h\\\366\246\214\224Z\347\330\245\035\355Q\254\344'+"
 297      8C945AE7 
 297      D8A51DED 
 297      51ACE427 
 297      2B
 298 054c 3DC9577A 		.ascii	"=\311Wz\253\220R\351xg|\274\343\017[\360\356\366\350"
 298      AB9052E9 
 298      78677CBC 
 298      E30F5BF0 
 298      EEF6E8
 299 055f B0728B2C 		.ascii	"\260r\213,a\324\215\265\200\224<sN4';\254\234\304^?"
 299      61D48DB5 
 299      80943C73 
 299      4E34273B 
 299      AC9CC45E 
 300 0574 BF53C1E6 		.ascii	"\277S\301\346\011f\227\215\203]\226\016FS\035\354\267"
ARM GAS  /tmp/ccJeoyMt.s 			page 23


 300      0966978D 
 300      835D960E 
 300      46531DEC 
 300      B7
 301 0585 71F0634B 		.ascii	"q\360cK\007\027\215\016\324\361\367\222\215\203\335"
 301      07178D0E 
 301      D4F1F792 
 301      8D83DD
 302 0594 960E2EA7 		.ascii	"\226\016.\247:x\303\306\301sf\007\334b\355p\232\305"
 302      3A78C3C6 
 302      C1736607 
 302      DC62ED70 
 302      9AC5
 303 05a6 DA4FF46E 		.ascii	"\332O\364n\3106=\321e]\305l\305\032\177Q\231=;\315\206"
 303      C8363DD1 
 303      655DC56C 
 303      C51A7F51 
 303      993D3BCD 
 304 05bb 9A7CD580 		.ascii	"\232|\325\200\276\261W \023\332\225<\213\017{*\010Q"
 304      BEB15720 
 304      13DA953C 
 304      8B0F7B2A 
 304      0851
 305 05cd 2007B157 		.ascii	" \007\261W\333Z\213\354D\231\373\022\315\275\266\030"
 305      DB5A8BEC 
 305      4499FB12 
 305      CDBDB618 
 306 05dd DB2364BB 		.ascii	"\333#d\273\030\333'X/\306\264\300\264m]W\261\212\316"
 306      18DB2758 
 306      2FC6B4C0 
 306      B46D5D57 
 306      B18ACE
 307 05f0 FC2CD5F4 		.ascii	"\374,\325\364\034\314\317O\263F\336o\203\234o]\221c"
 307      1CCCCF4F 
 307      B346DE6F 
 307      839C6F5D 
 307      9163
 308 0602 692A7240 		.ascii	"i*r@\257\010\351\010\261[\361\273c\357|\367\370+\212"
 308      AF08E908 
 308      B15BF1BB 
 308      63EF7CF7 
 308      F82B8A
 309 0615 F203652A 		.ascii	"\362\003e*\261\271m+\326F\304TJo\260\372\226\364\202"
 309      B1B96D2B 
 309      D646C454 
 309      4A6FB0FA 
 309      96F482
 310 0628 C08DBA83 		.ascii	"\300\215\272\203\251\275\015@\372n\217~\203l\200\224"
 310      A9BD0D40 
 310      FA6E8F7E 
 310      836C8094 
 311 0638 4462F35C 		.ascii	"Db\363\\\015\341x~&\010Q\036\341\220%\302\325\361Xk"
 311      0DE1787E 
 311      2608511E 
 311      E19025C2 
 311      D5F1586B 
 312 064c 0AC2F58C 		.ascii	"\012\302\365\214\020\216\360\010G-\021^\373\367\350"
ARM GAS  /tmp/ccJeoyMt.s 			page 24


 312      108EF008 
 312      472D115E 
 312      FBF7E8
 313 065b 4EBCFB64 		.ascii	"N\274\373d\207BF\315\346\237\305:s\263\3700&p/\213\021"
 313      874246CD 
 313      E69FC53A 
 313      73B3F830 
 313      26702F8B 
 314 0670 3A599AA6 		.ascii	":Y\232\246\345\375\016c\260\3543M\217\203u/6I\377\021"
 314      E5FD0E63 
 314      B0EC334D 
 314      8F83752F 
 314      3649FF11 
 315 0684 D67EC94D 		.ascii	"\326~\311M\365ij\321-\330M\230#\246\027\343x\333\272"
 315      F5696AD1 
 315      2DD84D98 
 315      23A617E3 
 315      78DBBA
 316 0697 D9FA5293 		.ascii	"\331\372R\223\347\334c\311\371\356\330\255\357Yu\216"
 316      E7DC63C9 
 316      F9EED8AD 
 316      EF59758E 
 317 06a7 01472689 		.ascii	"\001G&\211=\311\203\364\332t\216[\337L)\335HF\010\257"
 317      3DC983F4 
 317      DA748E5B 
 317      DF4C29DD 
 317      484608AF 
 318 06bb F008A7EC 		.ascii	"\360\010\247\354:\307wR\020\256d\204\360*\217\360+3"
 318      3AC77752 
 318      10AE6484 
 318      F02A8FF0 
 318      2B33
 319 06cd C2E7D121 		.ascii	"\302\347\321!et4~\356\303.\274=\016S\326T\"\201\365"
 319      6574347E 
 319      EEC32EBC 
 319      3D0E53D6 
 319      542281F5 
 320 06e1 992039D5 		.ascii	"\231 9\325\305l\277\371I\370ya^\246\323\330*\315R\325"
 320      C56CBFF9 
 320      49F87961 
 320      5EA6D3D8 
 320      2ACD52D5 
 321 06f5 B5997238 		.ascii	"\265\231r8-\011\377&\353)\247\337f\312q\232r\241iA6"
 321      2D09FF26 
 321      EB29A7DF 
 321      66CA719A 
 321      72A16941 
 322 070a 6FD06C1A 		.ascii	"o\320l\032\026\365\\\020\002\372\310\241}\342$\177\322"
 322      16F55C10 
 322      02FAC8A1 
 322      7DE2247F 
 322      D2
 323 071b A8798BF5 		.ascii	"\250y\213\365\015)\316^e;)\214\341\015!\341_\353l\270"
 323      0D29CE5E 
 323      653B298C 
 323      E10D21E1 
 323      5FEB6CB8 
ARM GAS  /tmp/ccJeoyMt.s 			page 25


 324 072f 8F5926B5 		.ascii	"\217Y&\265\275\266j\260-\315\232\364Y\033\322\016\023"
 324      BDB66AB0 
 324      2DCD9AF4 
 324      591BD20E 
 324      13
 325 0740 694D8BEC 		.ascii	"iM\213\354T\004n\317\300\005\001k\032+\322S)\244\313"
 325      54046ECF 
 325      C005016B 
 325      1A2BD253 
 325      29A4CB
 326 0753 39CEDBB1 		.ascii	"9\316\333\261\346\2504]\241y5X7fMz\310\206t\211\211"
 326      E6A8345D 
 326      A1793558 
 326      37664D7A 
 326      C8867489 
 327 0768 F4104FDA 		.ascii	"\364\020O\332\260\267\340\243\020\320v\247\005\353?"
 327      B0B7E0A3 
 327      10D076A7 
 327      05EB3F
 328 0777 9F9F8E75 		.ascii	"\237\237\216ug\322QY:\326\274\032LtY\263~\313\206u\251"
 328      67D25159 
 328      3AD6BC1A 
 328      4C7459B3 
 328      7ECB8675 
 329 078c 89F55B3C 		.ascii	"\211\365[<k\303&\204\217B@{M\254\271\227\3629\233\317"
 329      6BC32684 
 329      8F42407B 
 329      4DACB997 
 329      F2399BCF 
 330 07a0 1B44FD42 		.ascii	"\033D\375B\3122\251\234\230\264\013v_u\214_\223\364"
 330      CA32A99C 
 330      98B40B76 
 330      5F758C5F 
 330      93F4
 331 07b2 AF445AA2 		.ascii	"\257DZ\242\257\216L\227\350\256d\354\367\245K4\257\006"
 331      AF8E4C97 
 331      E8AE64EC 
 331      F7A54B34 
 331      AF06
 332 07c4 9B8FAC13 		.ascii	"\233\217\254\023}\311&\321\306oH\272"
 332      7DC926D1 
 332      C66F48BA 
 333 07d0 5632D186 		.ascii	"V2\321\206]\000\037\205\200\216\232\022\375\005\324"
 333      5D001F85 
 333      808E9A12 
 333      FD05D4
 334 07df 4DF6032F 		.ascii	"M\366\003/\\\030n#_\311\315[\037r<8\177\276\273\252"
 334      5C186E23 
 334      5FC9CD5B 
 334      1F723C38 
 334      7FBEBBAA 
 335 07f3 D1D7E05B 		.ascii	"\321\327\340[[\353\016\206\335\215\222\337\035\016y"
 335      5BEB0E86 
 335      DD8D92DF 
 335      1D0E79
 336 0802 DCF2A6C8 		.ascii	"\334\362\246\310|\017r\300\251:\340\213\344\177mM}y"
 336      7C0F72C0 
ARM GAS  /tmp/ccJeoyMt.s 			page 26


 336      A93AE08B 
 336      E47F6D4D 
 336      7D79
 337 0814 152A4FD5 		.ascii	"\025*O\325\365\005<\376\026\257L\365\033\221k\345Su"
 337      F5053CFE 
 337      16AF4CF5 
 337      1B916BE5 
 337      5375
 338 0826 2B42BE0D 		.ascii	"+B\276\015rhQ\252js0\024\011\273k\353j\026U\272W\257"
 338      726851AA 
 338      6A733014 
 338      09BB6BEB 
 338      6A1655BA 
 339 083c 5EE106DD 		.ascii	"^\341\006\335\352\015\013\211\245\350\367{\301z\006"
 339      EA0D0B89 
 339      A5E8F77B 
 339      C17A06
 340 084b 34C31129 		.ascii	"4\303\021)\"\213\221\031\360P\254_S\275\246\272\316"
 340      228B9119 
 340      F050AC5F 
 340      53BDA6BA 
 340      CE
 341 085c 499AB575 		.ascii	"I\232\265uk\327\321{\313\253\352\252\277\2762\217\252"
 341      6BD7D17B 
 341      CBABEAAA 
 341      BFBE328F 
 341      AA
 342 086d 95C08DAA 		.ascii	"\225\300\215\252F)\020\220\375U\301\300z\337\323aw`"
 342      46291090 
 342      FD55C1C0 
 342      7ADFD361 
 342      7760
 343 087f 3D95C7DC 		.ascii	"=\225\307\334\215\301&\331\035\222\303\262\024\3624"
 343      8DC126D9 
 343      1D92C3B2 
 343      14F234
 344 088e 027CC8BB 		.ascii	"\002|\310\273Q\012\311n)\324T\351~\332\343\251\200F"
 344      510AC96E 
 344      29D454E9 
 344      7EDAE3A9 
 344      8046
 345 08a0 85DCD420 		.ascii	"\205\334\324 {\275\2627y#\020\014\310\025\262\324\340"
 345      7BBDB237 
 345      7923100C 
 345      C815B2D4 
 345      E0
 346 08b1 AB582C2E 		.ascii	"\253X,.\255\250\\\260p\361\267+\335\246\007I\276\341"
 346      ADA85CB0 
 346      70F1B72B 
 346      DDA60749 
 346      BEE1
 347 08c3 88D71720 		.ascii	"\210\327\027 \224\235-p^T)F\332\361\377\017\275I\362"
 347      949D2D70 
 347      5E542946 
 347      DAF1FF0F 
 347      BD49F2
 348 08d6 34FA02B2 		.ascii	"4\372\002\262[\364\312\353\245\026\177D\214\2646\313"
ARM GAS  /tmp/ccJeoyMt.s 			page 27


 348      5BF4CAEB 
 348      A5167F44 
 348      8CB436CB 
 349 08e6 61924251 		.ascii	"a\222BQ\324\342\311m\012z\345ByS\263GM\221\030)\202"
 349      D4E2C96D 
 349      0A7AE542 
 349      7953B347 
 349      4D911829 
 350 08fb FC7A24BF 		.ascii	"\374z$\277\277A\362<#F\004O\203\223=\012\223\272\251"
 350      BF41F23C 
 350      2346044F 
 350      83933D0A 
 350      93BAA9
 351 090e 29CCF7D0 		.ascii	")\314\367\320\023Q]\333\360-\331C\313\237\013W\315N"
 351      13515DDB 
 351      F02DD943 
 351      CB9F0B57 
 351      CD4E
 352 0920 F8A98D48 		.ascii	"\370\251\215H\241\210\2036\202\315%pf\351_\031\220\032"
 352      A1888336 
 352      82CD2570 
 352      66E95F19 
 352      901A
 353 0932 FCB283B9 		.ascii	"\374\262\203\271+\325\037\254\360\205\311\2232b\"k7"
 353      2BD51FAC 
 353      F085C993 
 353      3262226B 
 353      37
 354 0943 6B20B0EA 		.ascii	"k \260\352<\022Ls!\253\276\350\003\230\"\355\"L`\012"
 354      3C124C73 
 354      21ABBEE8 
 354      039822ED 
 354      224C600A 
 355 0957 F5AB60F3 		.ascii	"\365\253`\363,\355B##S\304\007\370\333^\025/\027\256"
 355      2CED4223 
 355      2353C407 
 355      F8DB5E15 
 355      2F17AE
 356 096a 437353BB 		.ascii	"CsS\273`0\014?\241\010=C\266\012\310\271\2665\274:\350"
 356      60300C3F 
 356      A1083D43 
 356      B60AC8B9 
 356      B635BC3A 
 357 097f 7986D306 		.ascii	"y\206\323\006%-\331\236\306p+\311\255\313\323\310t\277"
 357      252DD99E 
 357      C6702BC9 
 357      ADCBD3C8 
 357      74BF
 358 0991 98A2ABF6 		.ascii	"\230\242\253\366\355\345O\326T\325l\002\003O0$\213\033"
 358      EDE54FD6 
 358      54D56C02 
 358      034F3024 
 358      8B1B
 359 09a3 9634112B 		.ascii	"\2264\021+\362H\364\203\325|\263\025\204\356\256\252"
 359      F248F483 
 359      D57CB315 
 359      84EEAEAA 
ARM GAS  /tmp/ccJeoyMt.s 			page 28


 360 09b3 A9ADAED5 		.ascii	"\251\255\256\325\201\210\225\247\351\253-\001\017\030"
 360      818895A7 
 360      E9AB2D01 
 360      0F18
 361 09c1 16896258 		.ascii	"\026\211bX\216\210_Y^\273r\335\223\325E\222\177\243"
 361      8E885F59 
 361      5EBB72DD 
 361      93D54592 
 361      7FA3
 362 09d3 D41A863C 		.ascii	"\324\032\206<\371\241\360y\033$\177\213\\\304\302\257"
 362      F9A1F079 
 362      1B247F8B 
 362      5CC4C2AF 
 363 09e3 0F10F705 		.ascii	"\017\020\367\0054<\326\246\240-\264\355\024\305\365"
 363      343CD6A6 
 363      A02DB4ED 
 363      14C5F5
 364 09f2 E051148B 		.ascii	"\340Q\024\213\264\306\374%\013\226.2]-1^=^i\2722>[\270"
 364      B4C6FC25 
 364      0B962E32 
 364      5D2D315E 
 364      3D5E69BA 
 365 0a0a 60F17F01 		.ascii	"`\361\177\001$\210\316M"
 365      2488CE4D 
 366              		.text
 367              		.section	.gnu.lto_.symtab.de01d084cb22d8be,"",%progbits
 368 0000 65787449 		.ascii	"extInit\000\000\000\000\000\000\000\000\000\000\000"
 368      6E697400 
 368      00000000 
 368      00000000 
 368      0000
 369 0012 00A10000 		.ascii	"\000\241\000\000\000extObjectInit\000\000\000\000\000"
 369      00657874 
 369      4F626A65 
 369      6374496E 
 369      69740000 
 370 0029 00000000 		.ascii	"\000\000\000\000\000\000\000\246\000\000\000extStar"
 370      000000A6 
 370      00000065 
 370      78745374 
 370      6172
 371 003b 74000000 		.ascii	"t\000\000\000\000\000\000\000\000\000\000\000\000\346"
 371      00000000 
 371      00000000 
 371      00E6
 372 0049 00000065 		.ascii	"\000\000\000extStop\000\000\000\000\000\000\000\000"
 372      78745374 
 372      6F700000 
 372      00000000 
 372      0000
 373 005b 00000000 		.ascii	"\000\000\000\000\356\000\000\000extChannelEnable\000"
 373      EE000000 
 373      65787443 
 373      68616E6E 
 373      656C456E 
 374 0074 00000000 		.ascii	"\000\000\000\000\000\000\000\000\000\000\000\362\000"
 374      00000000 
ARM GAS  /tmp/ccJeoyMt.s 			page 29


 374      000000F2 
 374      00
 375 0081 00006578 		.ascii	"\000\000extChannelDisable\000\000\000\000\000\000\000"
 375      74436861 
 375      6E6E656C 
 375      44697361 
 375      626C6500 
 376 009b 00000000 		.ascii	"\000\000\000\000\000\370\000\000\000extSetChannelMo"
 376      00F80000 
 376      00657874 
 376      53657443 
 376      68616E6E 
 377 00b3 64654900 		.ascii	"deI\000\000\000\000\000\000\000\000\000\000\000\000"
 377      00000000 
 377      00000000 
 377      000000
 378 00c2 FD000000 		.ascii	"\375\000\000\000ext_lld_init\000\000\002\000\000\000"
 378      6578745F 
 378      6C6C645F 
 378      696E6974 
 378      00000200 
 379 00d8 00000000 		.ascii	"\000\000\000\000\000\000\012\001\000\000ext_lld_sta"
 379      00000A01 
 379      00006578 
 379      745F6C6C 
 379      645F7374 
 380 00ed 72740000 		.ascii	"rt\000\000\002\000\000\000\000\000\000\000\000\000\014"
 380      02000000 
 380      00000000 
 380      00000C
 381 00fc 01000065 		.ascii	"\001\000\000ext_lld_stop\000\000\002\000\000\000\000"
 381      78745F6C 
 381      6C645F73 
 381      746F7000 
 381      00020000 
 382 0112 00000000 		.ascii	"\000\000\000\000\000\016\001\000\000ext_lld_channel"
 382      000E0100 
 382      00657874 
 382      5F6C6C64 
 382      5F636861 
 383 012a 5F656E61 		.ascii	"_enable\000\000\002\000\000\000\000\000\000\000\000"
 383      626C6500 
 383      00020000 
 383      00000000 
 383      0000
 384 013c 00100100 		.ascii	"\000\020\001\000\000ext_lld_channel_disable\000\000"
 384      00657874 
 384      5F6C6C64 
 384      5F636861 
 384      6E6E656C 
 385 015a 02000000 		.ascii	"\002\000\000\000\000\000\000\000\000\000\022\001\000"
 385      00000000 
 385      00001201 
 385      00
 386 0167 00       		.ascii	"\000"
 387              		.text
 388              		.section	.gnu.lto_.opts,"",%progbits
ARM GAS  /tmp/ccJeoyMt.s 			page 30


 389 0000 272D6D63 		.ascii	"'-mcpu=cortex-m4' '-mno-thumb-interwork' '-mthumb' "
 389      70753D63 
 389      6F727465 
 389      782D6D34 
 389      2720272D 
 390 0033 272D6767 		.ascii	"'-ggdb' '-O2' '-fomit-frame-pointer' '-falign-funct"
 390      64622720 
 390      272D4F32 
 390      2720272D 
 390      666F6D69 
 391 0066 696F6E73 		.ascii	"ions=16' '-ffunction-sections' '-fdata-sections' '-"
 391      3D313627 
 391      20272D66 
 391      66756E63 
 391      74696F6E 
 392 0099 666E6F2D 		.ascii	"fno-common' '-flto'\000"
 392      636F6D6D 
 392      6F6E2720 
 392      272D666C 
 392      746F2700 
 393              		.text
 394              		.cfi_sections	.debug_frame
 395              		.section	.text.extInit,"ax",%progbits
 396              		.align	2
 397              		.p2align 4,,15
 398              		.global	extInit
 399              		.thumb
 400              		.thumb_func
 401              		.type	extInit, %function
 402              	extInit:
 403              	.LFB272:
 404              		.file 1 "../ChibiOS/os/hal/src/ext.c"
 405              		.loc 1 56 0
 406              		.cfi_startproc
 407              		@ args = 0, pretend = 0, frame = 0
 408              		@ frame_needed = 0, uses_anonymous_args = 0
 409              		@ link register save eliminated.
 410              		.loc 1 58 0
 411 0000 FFF7FEBF 		b	ext_lld_init
 412              	.LVL0:
 413              		.cfi_endproc
 414              	.LFE272:
 415              		.size	extInit, .-extInit
 416 0004 AFF30080 		.section	.text.extObjectInit,"ax",%progbits
 416      AFF30080 
 416      AFF30080 
 417              		.align	2
 418              		.p2align 4,,15
 419              		.global	extObjectInit
 420              		.thumb
 421              		.thumb_func
 422              		.type	extObjectInit, %function
 423              	extObjectInit:
 424              	.LFB273:
 425              		.loc 1 68 0
 426              		.cfi_startproc
 427              		@ args = 0, pretend = 0, frame = 0
ARM GAS  /tmp/ccJeoyMt.s 			page 31


 428              		@ frame_needed = 0, uses_anonymous_args = 0
 429              		@ link register save eliminated.
 430              	.LVL1:
 431              		.loc 1 70 0
 432 0000 0122     		movs	r2, #1
 433              		.loc 1 71 0
 434 0002 0023     		movs	r3, #0
 435              		.loc 1 70 0
 436 0004 0270     		strb	r2, [r0]
 437              		.loc 1 71 0
 438 0006 4360     		str	r3, [r0, #4]
 439 0008 7047     		bx	lr
 440              		.cfi_endproc
 441              	.LFE273:
 442              		.size	extObjectInit, .-extObjectInit
 443 000a 00BFAFF3 		.section	.text.extStart,"ax",%progbits
 443      0080
 444              		.align	2
 445              		.p2align 4,,15
 446              		.global	extStart
 447              		.thumb
 448              		.thumb_func
 449              		.type	extStart, %function
 450              	extStart:
 451              	.LFB274:
 452              		.loc 1 84 0
 453              		.cfi_startproc
 454              		@ args = 0, pretend = 0, frame = 0
 455              		@ frame_needed = 0, uses_anonymous_args = 0
 456              	.LVL2:
 457 0000 10B5     		push	{r4, lr}
 458              		.cfi_def_cfa_offset 8
 459              		.cfi_offset 4, -8
 460              		.cfi_offset 14, -4
 461              	.LBB76:
 462              	.LBB77:
 463              	.LBB78:
 464              	.LBB79:
 465              	.LBB80:
 466              		.file 2 "../ChibiOS/os/ext/CMSIS/include/core_cmFunc.h"
 467              		.loc 2 548 0
 468 0002 2023     		movs	r3, #32
 469              	.LBE80:
 470              	.LBE79:
 471              	.LBE78:
 472              	.LBE77:
 473              	.LBE76:
 474              		.loc 1 84 0
 475 0004 0446     		mov	r4, r0
 476              	.LBB85:
 477              	.LBB84:
 478              	.LBB83:
 479              	.LBB82:
 480              	.LBB81:
 481              		.loc 2 548 0
 482              	@ 548 "../ChibiOS/os/ext/CMSIS/include/core_cmFunc.h" 1
 483 0006 83F31188 		MSR basepri, r3
ARM GAS  /tmp/ccJeoyMt.s 			page 32


 484              	@ 0 "" 2
 485              		.thumb
 486              	.LBE81:
 487              	.LBE82:
 488              	.LBE83:
 489              	.LBE84:
 490              	.LBE85:
 491              		.loc 1 91 0
 492 000a 4160     		str	r1, [r0, #4]
 493              		.loc 1 92 0
 494 000c FFF7FEFF 		bl	ext_lld_start
 495              	.LVL3:
 496              		.loc 1 93 0
 497 0010 0223     		movs	r3, #2
 498 0012 2370     		strb	r3, [r4]
 499              	.LVL4:
 500              	.LBB86:
 501              	.LBB87:
 502              	.LBB88:
 503              	.LBB89:
 504              	.LBB90:
 505              	.LBB91:
 506              		.loc 2 548 0
 507 0014 0023     		movs	r3, #0
 508              	@ 548 "../ChibiOS/os/ext/CMSIS/include/core_cmFunc.h" 1
 509 0016 83F31188 		MSR basepri, r3
 510              	@ 0 "" 2
 511              		.thumb
 512 001a 10BD     		pop	{r4, pc}
 513              	.LBE91:
 514              	.LBE90:
 515              	.LBE89:
 516              	.LBE88:
 517              	.LBE87:
 518              	.LBE86:
 519              		.cfi_endproc
 520              	.LFE274:
 521              		.size	extStart, .-extStart
 522 001c AFF30080 		.section	.text.extStop,"ax",%progbits
 523              		.align	2
 524              		.p2align 4,,15
 525              		.global	extStop
 526              		.thumb
 527              		.thumb_func
 528              		.type	extStop, %function
 529              	extStop:
 530              	.LFB275:
 531              		.loc 1 104 0
 532              		.cfi_startproc
 533              		@ args = 0, pretend = 0, frame = 0
 534              		@ frame_needed = 0, uses_anonymous_args = 0
 535              	.LVL5:
 536 0000 10B5     		push	{r4, lr}
 537              		.cfi_def_cfa_offset 8
 538              		.cfi_offset 4, -8
 539              		.cfi_offset 14, -4
 540              	.LBB92:
ARM GAS  /tmp/ccJeoyMt.s 			page 33


 541              	.LBB93:
 542              	.LBB94:
 543              	.LBB95:
 544              	.LBB96:
 545              		.loc 2 548 0
 546 0002 2023     		movs	r3, #32
 547              	.LBE96:
 548              	.LBE95:
 549              	.LBE94:
 550              	.LBE93:
 551              	.LBE92:
 552              		.loc 1 104 0
 553 0004 0446     		mov	r4, r0
 554              	.LBB101:
 555              	.LBB100:
 556              	.LBB99:
 557              	.LBB98:
 558              	.LBB97:
 559              		.loc 2 548 0
 560              	@ 548 "../ChibiOS/os/ext/CMSIS/include/core_cmFunc.h" 1
 561 0006 83F31188 		MSR basepri, r3
 562              	@ 0 "" 2
 563              		.thumb
 564              	.LBE97:
 565              	.LBE98:
 566              	.LBE99:
 567              	.LBE100:
 568              	.LBE101:
 569              		.loc 1 111 0
 570 000a FFF7FEFF 		bl	ext_lld_stop
 571              	.LVL6:
 572              		.loc 1 112 0
 573 000e 0123     		movs	r3, #1
 574 0010 2370     		strb	r3, [r4]
 575              	.LVL7:
 576              	.LBB102:
 577              	.LBB103:
 578              	.LBB104:
 579              	.LBB105:
 580              	.LBB106:
 581              	.LBB107:
 582              		.loc 2 548 0
 583 0012 0023     		movs	r3, #0
 584              	@ 548 "../ChibiOS/os/ext/CMSIS/include/core_cmFunc.h" 1
 585 0014 83F31188 		MSR basepri, r3
 586              	@ 0 "" 2
 587              		.thumb
 588 0018 10BD     		pop	{r4, pc}
 589              	.LBE107:
 590              	.LBE106:
 591              	.LBE105:
 592              	.LBE104:
 593              	.LBE103:
 594              	.LBE102:
 595              		.cfi_endproc
 596              	.LFE275:
 597              		.size	extStop, .-extStop
ARM GAS  /tmp/ccJeoyMt.s 			page 34


 598 001a 00BFAFF3 		.section	.text.extChannelEnable,"ax",%progbits
 598      0080
 599              		.align	2
 600              		.p2align 4,,15
 601              		.global	extChannelEnable
 602              		.thumb
 603              		.thumb_func
 604              		.type	extChannelEnable, %function
 605              	extChannelEnable:
 606              	.LFB276:
 607              		.loc 1 125 0
 608              		.cfi_startproc
 609              		@ args = 0, pretend = 0, frame = 0
 610              		@ frame_needed = 0, uses_anonymous_args = 0
 611              	.LVL8:
 612 0000 08B5     		push	{r3, lr}
 613              		.cfi_def_cfa_offset 8
 614              		.cfi_offset 3, -8
 615              		.cfi_offset 14, -4
 616              	.LBB108:
 617              	.LBB109:
 618              	.LBB110:
 619              	.LBB111:
 620              	.LBB112:
 621              		.loc 2 548 0
 622 0002 2023     		movs	r3, #32
 623              	@ 548 "../ChibiOS/os/ext/CMSIS/include/core_cmFunc.h" 1
 624 0004 83F31188 		MSR basepri, r3
 625              	@ 0 "" 2
 626              		.thumb
 627              	.LBE112:
 628              	.LBE111:
 629              	.LBE110:
 630              	.LBE109:
 631              	.LBE108:
 632              		.loc 1 134 0
 633 0008 FFF7FEFF 		bl	ext_lld_channel_enable
 634              	.LVL9:
 635              	.LBB113:
 636              	.LBB114:
 637              	.LBB115:
 638              	.LBB116:
 639              	.LBB117:
 640              	.LBB118:
 641              		.loc 2 548 0
 642 000c 0023     		movs	r3, #0
 643              	@ 548 "../ChibiOS/os/ext/CMSIS/include/core_cmFunc.h" 1
 644 000e 83F31188 		MSR basepri, r3
 645              	@ 0 "" 2
 646              		.thumb
 647 0012 08BD     		pop	{r3, pc}
 648              	.LBE118:
 649              	.LBE117:
 650              	.LBE116:
 651              	.LBE115:
 652              	.LBE114:
 653              	.LBE113:
ARM GAS  /tmp/ccJeoyMt.s 			page 35


 654              		.cfi_endproc
 655              	.LFE276:
 656              		.size	extChannelEnable, .-extChannelEnable
 657 0014 AFF30080 		.section	.text.extChannelDisable,"ax",%progbits
 657      AFF30080 
 657      AFF30080 
 658              		.align	2
 659              		.p2align 4,,15
 660              		.global	extChannelDisable
 661              		.thumb
 662              		.thumb_func
 663              		.type	extChannelDisable, %function
 664              	extChannelDisable:
 665              	.LFB277:
 666              		.loc 1 147 0
 667              		.cfi_startproc
 668              		@ args = 0, pretend = 0, frame = 0
 669              		@ frame_needed = 0, uses_anonymous_args = 0
 670              	.LVL10:
 671 0000 08B5     		push	{r3, lr}
 672              		.cfi_def_cfa_offset 8
 673              		.cfi_offset 3, -8
 674              		.cfi_offset 14, -4
 675              	.LBB119:
 676              	.LBB120:
 677              	.LBB121:
 678              	.LBB122:
 679              	.LBB123:
 680              		.loc 2 548 0
 681 0002 2023     		movs	r3, #32
 682              	@ 548 "../ChibiOS/os/ext/CMSIS/include/core_cmFunc.h" 1
 683 0004 83F31188 		MSR basepri, r3
 684              	@ 0 "" 2
 685              		.thumb
 686              	.LBE123:
 687              	.LBE122:
 688              	.LBE121:
 689              	.LBE120:
 690              	.LBE119:
 691              		.loc 1 156 0
 692 0008 FFF7FEFF 		bl	ext_lld_channel_disable
 693              	.LVL11:
 694              	.LBB124:
 695              	.LBB125:
 696              	.LBB126:
 697              	.LBB127:
 698              	.LBB128:
 699              	.LBB129:
 700              		.loc 2 548 0
 701 000c 0023     		movs	r3, #0
 702              	@ 548 "../ChibiOS/os/ext/CMSIS/include/core_cmFunc.h" 1
 703 000e 83F31188 		MSR basepri, r3
 704              	@ 0 "" 2
 705              		.thumb
 706 0012 08BD     		pop	{r3, pc}
 707              	.LBE129:
 708              	.LBE128:
ARM GAS  /tmp/ccJeoyMt.s 			page 36


 709              	.LBE127:
 710              	.LBE126:
 711              	.LBE125:
 712              	.LBE124:
 713              		.cfi_endproc
 714              	.LFE277:
 715              		.size	extChannelDisable, .-extChannelDisable
 716 0014 AFF30080 		.section	.text.extSetChannelModeI,"ax",%progbits
 716      AFF30080 
 716      AFF30080 
 717              		.align	2
 718              		.p2align 4,,15
 719              		.global	extSetChannelModeI
 720              		.thumb
 721              		.thumb_func
 722              		.type	extSetChannelModeI, %function
 723              	extSetChannelModeI:
 724              	.LFB278:
 725              		.loc 1 179 0
 726              		.cfi_startproc
 727              		@ args = 0, pretend = 0, frame = 0
 728              		@ frame_needed = 0, uses_anonymous_args = 0
 729              		@ link register save eliminated.
 730              	.LVL12:
 731 0000 30B4     		push	{r4, r5}
 732              		.cfi_def_cfa_offset 8
 733              		.cfi_offset 4, -8
 734              		.cfi_offset 5, -4
 735              		.loc 1 179 0
 736 0002 0B46     		mov	r3, r1
 737              	.LVL13:
 738              		.loc 1 196 0
 739 0004 4568     		ldr	r5, [r0, #4]
 740              		.loc 1 179 0
 741 0006 0446     		mov	r4, r0
 742              		.loc 1 196 0
 743 0008 92E80300 		ldmia	r2, {r0, r1}
 744              	.LVL14:
 745 000c 05EBC302 		add	r2, r5, r3, lsl #3
 746              	.LVL15:
 747 0010 82E80300 		stmia	r2, {r0, r1}
 748              		.loc 1 197 0
 749 0014 2046     		mov	r0, r4
 750 0016 1946     		mov	r1, r3
 751              		.loc 1 198 0
 752 0018 30BC     		pop	{r4, r5}
 753              	.LVL16:
 754              		.loc 1 197 0
 755 001a FFF7FEBF 		b	ext_lld_channel_enable
 756              	.LVL17:
 757              		.cfi_endproc
 758              	.LFE278:
 759              		.size	extSetChannelModeI, .-extSetChannelModeI
 760 001e 00BF     		.text
 761              	.Letext0:
 762              		.file 3 "/nfs/nfs5/home/research/hardware/arm2/gcc-arm-embedded/gcc-arm-none-eabi-4_8-2014q2/arm-n
 763              		.file 4 "/nfs/nfs5/home/research/hardware/arm2/gcc-arm-embedded/gcc-arm-none-eabi-4_8-2014q2/arm-n
ARM GAS  /tmp/ccJeoyMt.s 			page 37


 764              		.file 5 "../ChibiOS/os/rt/ports/ARMCMx/compilers/GCC/chtypes.h"
 765              		.file 6 "../ChibiOS/os/rt/include/chsystypes.h"
 766              		.file 7 "../ChibiOS/os/rt/include/chschd.h"
 767              		.file 8 "../ChibiOS/os/rt/ports/ARMCMx/chcore.h"
 768              		.file 9 "../ChibiOS/os/rt/ports/ARMCMx/chcore_v7m.h"
 769              		.file 10 "../ChibiOS/os/rt/include/chtm.h"
 770              		.file 11 "../ChibiOS/os/rt/include/chsem.h"
 771              		.file 12 "../ChibiOS/os/rt/include/chmtx.h"
 772              		.file 13 "../ChibiOS/os/hal/include/ext.h"
 773              		.file 14 "../ChibiOS/os/hal/ports/STM32/LLD/EXTIv1/ext_lld.h"
 774              		.file 15 "../ChibiOS/os/rt/include/chsys.h"
 775              		.file 16 "../ChibiOS/os/hal/osal/rt/osal.h"
 776              		.file 17 "../ChibiOS/os/ext/CMSIS/include/core_cm4.h"
 777              		.section	.debug_info,"",%progbits
 778              	.Ldebug_info0:
 779 0000 F40C0000 		.4byte	0xcf4
 780 0004 0400     		.2byte	0x4
 781 0006 00000000 		.4byte	.Ldebug_abbrev0
 782 000a 04       		.byte	0x4
 783 000b 01       		.uleb128 0x1
 784 000c 27060000 		.4byte	.LASF141
 785 0010 01       		.byte	0x1
 786 0011 AD050000 		.4byte	.LASF142
 787 0015 83020000 		.4byte	.LASF143
 788 0019 30000000 		.4byte	.Ldebug_ranges0+0x30
 789 001d 00000000 		.4byte	0
 790 0021 00000000 		.4byte	.Ldebug_line0
 791 0025 02       		.uleb128 0x2
 792 0026 04       		.byte	0x4
 793 0027 05       		.byte	0x5
 794 0028 696E7400 		.ascii	"int\000"
 795 002c 03       		.uleb128 0x3
 796 002d 04       		.byte	0x4
 797 002e 07       		.byte	0x7
 798 002f 11020000 		.4byte	.LASF0
 799 0033 03       		.uleb128 0x3
 800 0034 01       		.byte	0x1
 801 0035 06       		.byte	0x6
 802 0036 23000000 		.4byte	.LASF1
 803 003a 04       		.uleb128 0x4
 804 003b 2F000000 		.4byte	.LASF5
 805 003f 03       		.byte	0x3
 806 0040 1C       		.byte	0x1c
 807 0041 45000000 		.4byte	0x45
 808 0045 03       		.uleb128 0x3
 809 0046 01       		.byte	0x1
 810 0047 08       		.byte	0x8
 811 0048 24040000 		.4byte	.LASF2
 812 004c 03       		.uleb128 0x3
 813 004d 02       		.byte	0x2
 814 004e 05       		.byte	0x5
 815 004f 44040000 		.4byte	.LASF3
 816 0053 03       		.uleb128 0x3
 817 0054 02       		.byte	0x2
 818 0055 07       		.byte	0x7
 819 0056 5C020000 		.4byte	.LASF4
 820 005a 04       		.uleb128 0x4
ARM GAS  /tmp/ccJeoyMt.s 			page 38


 821 005b EF020000 		.4byte	.LASF6
 822 005f 03       		.byte	0x3
 823 0060 37       		.byte	0x37
 824 0061 65000000 		.4byte	0x65
 825 0065 03       		.uleb128 0x3
 826 0066 04       		.byte	0x4
 827 0067 05       		.byte	0x5
 828 0068 96010000 		.4byte	.LASF7
 829 006c 04       		.uleb128 0x4
 830 006d 6D050000 		.4byte	.LASF8
 831 0071 03       		.byte	0x3
 832 0072 38       		.byte	0x38
 833 0073 77000000 		.4byte	0x77
 834 0077 03       		.uleb128 0x3
 835 0078 04       		.byte	0x4
 836 0079 07       		.byte	0x7
 837 007a 05050000 		.4byte	.LASF9
 838 007e 03       		.uleb128 0x3
 839 007f 08       		.byte	0x8
 840 0080 05       		.byte	0x5
 841 0081 36010000 		.4byte	.LASF10
 842 0085 04       		.uleb128 0x4
 843 0086 CE030000 		.4byte	.LASF11
 844 008a 03       		.byte	0x3
 845 008b 4E       		.byte	0x4e
 846 008c 90000000 		.4byte	0x90
 847 0090 03       		.uleb128 0x3
 848 0091 08       		.byte	0x8
 849 0092 07       		.byte	0x7
 850 0093 9A000000 		.4byte	.LASF12
 851 0097 04       		.uleb128 0x4
 852 0098 11060000 		.4byte	.LASF13
 853 009c 04       		.byte	0x4
 854 009d 2A       		.byte	0x2a
 855 009e 3A000000 		.4byte	0x3a
 856 00a2 04       		.uleb128 0x4
 857 00a3 1C040000 		.4byte	.LASF14
 858 00a7 04       		.byte	0x4
 859 00a8 41       		.byte	0x41
 860 00a9 5A000000 		.4byte	0x5a
 861 00ad 04       		.uleb128 0x4
 862 00ae D4040000 		.4byte	.LASF15
 863 00b2 04       		.byte	0x4
 864 00b3 42       		.byte	0x42
 865 00b4 6C000000 		.4byte	0x6c
 866 00b8 04       		.uleb128 0x4
 867 00b9 1A000000 		.4byte	.LASF16
 868 00bd 04       		.byte	0x4
 869 00be 4E       		.byte	0x4e
 870 00bf 85000000 		.4byte	0x85
 871 00c3 04       		.uleb128 0x4
 872 00c4 A5050000 		.4byte	.LASF17
 873 00c8 05       		.byte	0x5
 874 00c9 39       		.byte	0x39
 875 00ca AD000000 		.4byte	0xad
 876 00ce 04       		.uleb128 0x4
 877 00cf CD020000 		.4byte	.LASF18
ARM GAS  /tmp/ccJeoyMt.s 			page 39


 878 00d3 05       		.byte	0x5
 879 00d4 3C       		.byte	0x3c
 880 00d5 97000000 		.4byte	0x97
 881 00d9 04       		.uleb128 0x4
 882 00da 9F010000 		.4byte	.LASF19
 883 00de 05       		.byte	0x5
 884 00df 3D       		.byte	0x3d
 885 00e0 97000000 		.4byte	0x97
 886 00e4 04       		.uleb128 0x4
 887 00e5 D9030000 		.4byte	.LASF20
 888 00e9 05       		.byte	0x5
 889 00ea 3E       		.byte	0x3e
 890 00eb 97000000 		.4byte	0x97
 891 00ef 04       		.uleb128 0x4
 892 00f0 FE030000 		.4byte	.LASF21
 893 00f4 05       		.byte	0x5
 894 00f5 40       		.byte	0x40
 895 00f6 AD000000 		.4byte	0xad
 896 00fa 04       		.uleb128 0x4
 897 00fb F8030000 		.4byte	.LASF22
 898 00ff 05       		.byte	0x5
 899 0100 41       		.byte	0x41
 900 0101 A2000000 		.4byte	0xa2
 901 0105 04       		.uleb128 0x4
 902 0106 E3020000 		.4byte	.LASF23
 903 010a 05       		.byte	0x5
 904 010b 43       		.byte	0x43
 905 010c AD000000 		.4byte	0xad
 906 0110 04       		.uleb128 0x4
 907 0111 0B020000 		.4byte	.LASF24
 908 0115 05       		.byte	0x5
 909 0116 45       		.byte	0x45
 910 0117 A2000000 		.4byte	0xa2
 911 011b 04       		.uleb128 0x4
 912 011c 4F050000 		.4byte	.LASF25
 913 0120 06       		.byte	0x6
 914 0121 33       		.byte	0x33
 915 0122 AD000000 		.4byte	0xad
 916 0126 04       		.uleb128 0x4
 917 0127 3F050000 		.4byte	.LASF26
 918 012b 06       		.byte	0x6
 919 012c 3F       		.byte	0x3f
 920 012d 31010000 		.4byte	0x131
 921 0131 05       		.uleb128 0x5
 922 0132 6F020000 		.4byte	.LASF45
 923 0136 40       		.byte	0x40
 924 0137 07       		.byte	0x7
 925 0138 C2       		.byte	0xc2
 926 0139 11020000 		.4byte	0x211
 927 013d 06       		.uleb128 0x6
 928 013e 64040000 		.4byte	.LASF27
 929 0142 07       		.byte	0x7
 930 0143 C3       		.byte	0xc3
 931 0144 1C020000 		.4byte	0x21c
 932 0148 00       		.byte	0
 933 0149 06       		.uleb128 0x6
 934 014a F1030000 		.4byte	.LASF28
ARM GAS  /tmp/ccJeoyMt.s 			page 40


 935 014e 07       		.byte	0x7
 936 014f C5       		.byte	0xc5
 937 0150 1C020000 		.4byte	0x21c
 938 0154 04       		.byte	0x4
 939 0155 06       		.uleb128 0x6
 940 0156 26010000 		.4byte	.LASF29
 941 015a 07       		.byte	0x7
 942 015b C7       		.byte	0xc7
 943 015c EF000000 		.4byte	0xef
 944 0160 08       		.byte	0x8
 945 0161 06       		.uleb128 0x6
 946 0162 46070000 		.4byte	.LASF30
 947 0166 07       		.byte	0x7
 948 0167 C8       		.byte	0xc8
 949 0168 4C040000 		.4byte	0x44c
 950 016c 0C       		.byte	0xc
 951 016d 06       		.uleb128 0x6
 952 016e A8010000 		.4byte	.LASF31
 953 0172 07       		.byte	0x7
 954 0173 CA       		.byte	0xca
 955 0174 1C020000 		.4byte	0x21c
 956 0178 10       		.byte	0x10
 957 0179 06       		.uleb128 0x6
 958 017a 7B030000 		.4byte	.LASF32
 959 017e 07       		.byte	0x7
 960 017f CB       		.byte	0xcb
 961 0180 1C020000 		.4byte	0x21c
 962 0184 14       		.byte	0x14
 963 0185 06       		.uleb128 0x6
 964 0186 0E070000 		.4byte	.LASF33
 965 018a 07       		.byte	0x7
 966 018b D2       		.byte	0xd2
 967 018c D7050000 		.4byte	0x5d7
 968 0190 18       		.byte	0x18
 969 0191 06       		.uleb128 0x6
 970 0192 4E040000 		.4byte	.LASF34
 971 0196 07       		.byte	0x7
 972 0197 DD       		.byte	0xdd
 973 0198 D9000000 		.4byte	0xd9
 974 019c 1C       		.byte	0x1c
 975 019d 06       		.uleb128 0x6
 976 019e 6B040000 		.4byte	.LASF35
 977 01a2 07       		.byte	0x7
 978 01a3 E1       		.byte	0xe1
 979 01a4 CE000000 		.4byte	0xce
 980 01a8 1D       		.byte	0x1d
 981 01a9 06       		.uleb128 0x6
 982 01aa 04060000 		.4byte	.LASF36
 983 01ae 07       		.byte	0x7
 984 01af E6       		.byte	0xe6
 985 01b0 E4000000 		.4byte	0xe4
 986 01b4 1E       		.byte	0x1e
 987 01b5 07       		.uleb128 0x7
 988 01b6 705F7500 		.ascii	"p_u\000"
 989 01ba 07       		.byte	0x7
 990 01bb 3701     		.2byte	0x137
 991 01bd 06050000 		.4byte	0x506
ARM GAS  /tmp/ccJeoyMt.s 			page 41


 992 01c1 20       		.byte	0x20
 993 01c2 08       		.uleb128 0x8
 994 01c3 0F030000 		.4byte	.LASF37
 995 01c7 07       		.byte	0x7
 996 01c8 3C01     		.2byte	0x13c
 997 01ca 22020000 		.4byte	0x222
 998 01ce 24       		.byte	0x24
 999 01cf 08       		.uleb128 0x8
 1000 01d0 2D020000 		.4byte	.LASF38
 1001 01d4 07       		.byte	0x7
 1002 01d5 4201     		.2byte	0x142
 1003 01d7 46020000 		.4byte	0x246
 1004 01db 28       		.byte	0x28
 1005 01dc 08       		.uleb128 0x8
 1006 01dd C9040000 		.4byte	.LASF39
 1007 01e1 07       		.byte	0x7
 1008 01e2 4801     		.2byte	0x148
 1009 01e4 05010000 		.4byte	0x105
 1010 01e8 30       		.byte	0x30
 1011 01e9 08       		.uleb128 0x8
 1012 01ea 3A040000 		.4byte	.LASF40
 1013 01ee 07       		.byte	0x7
 1014 01ef 4F01     		.2byte	0x14f
 1015 01f1 D1050000 		.4byte	0x5d1
 1016 01f5 34       		.byte	0x34
 1017 01f6 08       		.uleb128 0x8
 1018 01f7 59050000 		.4byte	.LASF41
 1019 01fb 07       		.byte	0x7
 1020 01fc 5301     		.2byte	0x153
 1021 01fe EF000000 		.4byte	0xef
 1022 0202 38       		.byte	0x38
 1023 0203 08       		.uleb128 0x8
 1024 0204 57010000 		.4byte	.LASF42
 1025 0208 07       		.byte	0x7
 1026 0209 5A01     		.2byte	0x15a
 1027 020b F9020000 		.4byte	0x2f9
 1028 020f 3C       		.byte	0x3c
 1029 0210 00       		.byte	0
 1030 0211 04       		.uleb128 0x4
 1031 0212 28030000 		.4byte	.LASF43
 1032 0216 06       		.byte	0x6
 1033 0217 44       		.byte	0x44
 1034 0218 1C020000 		.4byte	0x21c
 1035 021c 09       		.uleb128 0x9
 1036 021d 04       		.byte	0x4
 1037 021e 26010000 		.4byte	0x126
 1038 0222 04       		.uleb128 0x4
 1039 0223 23070000 		.4byte	.LASF44
 1040 0227 06       		.byte	0x6
 1041 0228 49       		.byte	0x49
 1042 0229 2D020000 		.4byte	0x22d
 1043 022d 05       		.uleb128 0x5
 1044 022e F5040000 		.4byte	.LASF46
 1045 0232 04       		.byte	0x4
 1046 0233 07       		.byte	0x7
 1047 0234 B0       		.byte	0xb0
 1048 0235 46020000 		.4byte	0x246
ARM GAS  /tmp/ccJeoyMt.s 			page 42


 1049 0239 06       		.uleb128 0x6
 1050 023a 64040000 		.4byte	.LASF27
 1051 023e 07       		.byte	0x7
 1052 023f B1       		.byte	0xb1
 1053 0240 1C020000 		.4byte	0x21c
 1054 0244 00       		.byte	0
 1055 0245 00       		.byte	0
 1056 0246 04       		.uleb128 0x4
 1057 0247 EB050000 		.4byte	.LASF47
 1058 024b 06       		.byte	0x6
 1059 024c 50       		.byte	0x50
 1060 024d 51020000 		.4byte	0x251
 1061 0251 05       		.uleb128 0x5
 1062 0252 FD000000 		.4byte	.LASF48
 1063 0256 08       		.byte	0x8
 1064 0257 07       		.byte	0x7
 1065 0258 B7       		.byte	0xb7
 1066 0259 76020000 		.4byte	0x276
 1067 025d 06       		.uleb128 0x6
 1068 025e 64040000 		.4byte	.LASF27
 1069 0262 07       		.byte	0x7
 1070 0263 B8       		.byte	0xb8
 1071 0264 1C020000 		.4byte	0x21c
 1072 0268 00       		.byte	0
 1073 0269 06       		.uleb128 0x6
 1074 026a F1030000 		.4byte	.LASF28
 1075 026e 07       		.byte	0x7
 1076 026f B9       		.byte	0xb9
 1077 0270 1C020000 		.4byte	0x21c
 1078 0274 04       		.byte	0x4
 1079 0275 00       		.byte	0
 1080 0276 04       		.uleb128 0x4
 1081 0277 00000000 		.4byte	.LASF49
 1082 027b 06       		.byte	0x6
 1083 027c 57       		.byte	0x57
 1084 027d 81020000 		.4byte	0x281
 1085 0281 0A       		.uleb128 0xa
 1086 0282 D5020000 		.4byte	.LASF50
 1087 0286 1C       		.byte	0x1c
 1088 0287 07       		.byte	0x7
 1089 0288 9201     		.2byte	0x192
 1090 028a DD020000 		.4byte	0x2dd
 1091 028e 08       		.uleb128 0x8
 1092 028f E4040000 		.4byte	.LASF51
 1093 0293 07       		.byte	0x7
 1094 0294 9301     		.2byte	0x193
 1095 0296 46020000 		.4byte	0x246
 1096 029a 00       		.byte	0
 1097 029b 08       		.uleb128 0x8
 1098 029c 56040000 		.4byte	.LASF52
 1099 02a0 07       		.byte	0x7
 1100 02a1 9401     		.2byte	0x194
 1101 02a3 EF000000 		.4byte	0xef
 1102 02a7 08       		.byte	0x8
 1103 02a8 08       		.uleb128 0x8
 1104 02a9 83030000 		.4byte	.LASF53
 1105 02ad 07       		.byte	0x7
ARM GAS  /tmp/ccJeoyMt.s 			page 43


 1106 02ae 9601     		.2byte	0x196
 1107 02b0 4C040000 		.4byte	0x44c
 1108 02b4 0C       		.byte	0xc
 1109 02b5 08       		.uleb128 0x8
 1110 02b6 C9010000 		.4byte	.LASF54
 1111 02ba 07       		.byte	0x7
 1112 02bb 9901     		.2byte	0x199
 1113 02bd 1C020000 		.4byte	0x21c
 1114 02c1 10       		.byte	0x10
 1115 02c2 08       		.uleb128 0x8
 1116 02c3 C6030000 		.4byte	.LASF55
 1117 02c7 07       		.byte	0x7
 1118 02c8 9A01     		.2byte	0x19a
 1119 02ca 1C020000 		.4byte	0x21c
 1120 02ce 14       		.byte	0x14
 1121 02cf 08       		.uleb128 0x8
 1122 02d0 BC030000 		.4byte	.LASF56
 1123 02d4 07       		.byte	0x7
 1124 02d5 9D01     		.2byte	0x19d
 1125 02d7 1C020000 		.4byte	0x21c
 1126 02db 18       		.byte	0x18
 1127 02dc 00       		.byte	0
 1128 02dd 04       		.uleb128 0x4
 1129 02de 64050000 		.4byte	.LASF57
 1130 02e2 06       		.byte	0x6
 1131 02e3 5C       		.byte	0x5c
 1132 02e4 E8020000 		.4byte	0x2e8
 1133 02e8 09       		.uleb128 0x9
 1134 02e9 04       		.byte	0x4
 1135 02ea EE020000 		.4byte	0x2ee
 1136 02ee 0B       		.uleb128 0xb
 1137 02ef F9020000 		.4byte	0x2f9
 1138 02f3 0C       		.uleb128 0xc
 1139 02f4 F9020000 		.4byte	0x2f9
 1140 02f8 00       		.byte	0
 1141 02f9 0D       		.uleb128 0xd
 1142 02fa 04       		.byte	0x4
 1143 02fb 04       		.uleb128 0x4
 1144 02fc E1030000 		.4byte	.LASF58
 1145 0300 06       		.byte	0x6
 1146 0301 61       		.byte	0x61
 1147 0302 06030000 		.4byte	0x306
 1148 0306 0A       		.uleb128 0xa
 1149 0307 AB040000 		.4byte	.LASF59
 1150 030b 14       		.byte	0x14
 1151 030c 07       		.byte	0x7
 1152 030d 6D01     		.2byte	0x16d
 1153 030f 55030000 		.4byte	0x355
 1154 0313 08       		.uleb128 0x8
 1155 0314 1E020000 		.4byte	.LASF60
 1156 0318 07       		.byte	0x7
 1157 0319 6E01     		.2byte	0x16e
 1158 031b E9050000 		.4byte	0x5e9
 1159 031f 00       		.byte	0
 1160 0320 08       		.uleb128 0x8
 1161 0321 DA010000 		.4byte	.LASF61
 1162 0325 07       		.byte	0x7
ARM GAS  /tmp/ccJeoyMt.s 			page 44


 1163 0326 6F01     		.2byte	0x16f
 1164 0328 E9050000 		.4byte	0x5e9
 1165 032c 04       		.byte	0x4
 1166 032d 08       		.uleb128 0x8
 1167 032e EC040000 		.4byte	.LASF62
 1168 0332 07       		.byte	0x7
 1169 0333 7001     		.2byte	0x170
 1170 0335 1B010000 		.4byte	0x11b
 1171 0339 08       		.byte	0x8
 1172 033a 08       		.uleb128 0x8
 1173 033b 4C070000 		.4byte	.LASF63
 1174 033f 07       		.byte	0x7
 1175 0340 7101     		.2byte	0x171
 1176 0342 DD020000 		.4byte	0x2dd
 1177 0346 0C       		.byte	0xc
 1178 0347 08       		.uleb128 0x8
 1179 0348 C9050000 		.4byte	.LASF64
 1180 034c 07       		.byte	0x7
 1181 034d 7301     		.2byte	0x173
 1182 034f F9020000 		.4byte	0x2f9
 1183 0353 10       		.byte	0x10
 1184 0354 00       		.byte	0
 1185 0355 04       		.uleb128 0x4
 1186 0356 DA000000 		.4byte	.LASF65
 1187 035a 06       		.byte	0x6
 1188 035b 66       		.byte	0x66
 1189 035c 60030000 		.4byte	0x360
 1190 0360 0A       		.uleb128 0xa
 1191 0361 46030000 		.4byte	.LASF66
 1192 0365 10       		.byte	0x10
 1193 0366 07       		.byte	0x7
 1194 0367 7D01     		.2byte	0x17d
 1195 0369 A2030000 		.4byte	0x3a2
 1196 036d 08       		.uleb128 0x8
 1197 036e 1E020000 		.4byte	.LASF60
 1198 0372 07       		.byte	0x7
 1199 0373 7E01     		.2byte	0x17e
 1200 0375 E9050000 		.4byte	0x5e9
 1201 0379 00       		.byte	0
 1202 037a 08       		.uleb128 0x8
 1203 037b DA010000 		.4byte	.LASF61
 1204 037f 07       		.byte	0x7
 1205 0380 8001     		.2byte	0x180
 1206 0382 E9050000 		.4byte	0x5e9
 1207 0386 04       		.byte	0x4
 1208 0387 08       		.uleb128 0x8
 1209 0388 EC040000 		.4byte	.LASF62
 1210 038c 07       		.byte	0x7
 1211 038d 8201     		.2byte	0x182
 1212 038f 1B010000 		.4byte	0x11b
 1213 0393 08       		.byte	0x8
 1214 0394 08       		.uleb128 0x8
 1215 0395 6F030000 		.4byte	.LASF67
 1216 0399 07       		.byte	0x7
 1217 039a 8A01     		.2byte	0x18a
 1218 039c 1B010000 		.4byte	0x11b
 1219 03a0 0C       		.byte	0xc
ARM GAS  /tmp/ccJeoyMt.s 			page 45


 1220 03a1 00       		.byte	0
 1221 03a2 04       		.uleb128 0x4
 1222 03a3 60000000 		.4byte	.LASF68
 1223 03a7 06       		.byte	0x6
 1224 03a8 6B       		.byte	0x6b
 1225 03a9 AD030000 		.4byte	0x3ad
 1226 03ad 0A       		.uleb128 0xa
 1227 03ae 06040000 		.4byte	.LASF69
 1228 03b2 04       		.byte	0x4
 1229 03b3 07       		.byte	0x7
 1230 03b4 A401     		.2byte	0x1a4
 1231 03b6 C8030000 		.4byte	0x3c8
 1232 03ba 08       		.uleb128 0x8
 1233 03bb 86050000 		.4byte	.LASF70
 1234 03bf 07       		.byte	0x7
 1235 03c0 AC01     		.2byte	0x1ac
 1236 03c2 EF050000 		.4byte	0x5ef
 1237 03c6 00       		.byte	0
 1238 03c7 00       		.byte	0
 1239 03c8 04       		.uleb128 0x4
 1240 03c9 C1020000 		.4byte	.LASF71
 1241 03cd 06       		.byte	0x6
 1242 03ce 70       		.byte	0x70
 1243 03cf D3030000 		.4byte	0x3d3
 1244 03d3 0E       		.uleb128 0xe
 1245 03d4 8B040000 		.4byte	.LASF72
 1246 03d8 5001     		.2byte	0x150
 1247 03da 07       		.byte	0x7
 1248 03db C401     		.2byte	0x1c4
 1249 03dd 2F040000 		.4byte	0x42f
 1250 03e1 08       		.uleb128 0x8
 1251 03e2 0B060000 		.4byte	.LASF73
 1252 03e6 07       		.byte	0x7
 1253 03e7 C801     		.2byte	0x1c8
 1254 03e9 76020000 		.4byte	0x276
 1255 03ed 00       		.byte	0
 1256 03ee 08       		.uleb128 0x8
 1257 03ef 67010000 		.4byte	.LASF74
 1258 03f3 07       		.byte	0x7
 1259 03f4 CC01     		.2byte	0x1cc
 1260 03f6 55030000 		.4byte	0x355
 1261 03fa 1C       		.byte	0x1c
 1262 03fb 07       		.uleb128 0x7
 1263 03fc 64626700 		.ascii	"dbg\000"
 1264 0400 07       		.byte	0x7
 1265 0401 D001     		.2byte	0x1d0
 1266 0403 A2030000 		.4byte	0x3a2
 1267 0407 2C       		.byte	0x2c
 1268 0408 08       		.uleb128 0x8
 1269 0409 C7000000 		.4byte	.LASF75
 1270 040d 07       		.byte	0x7
 1271 040e D401     		.2byte	0x1d4
 1272 0410 26010000 		.4byte	0x126
 1273 0414 30       		.byte	0x30
 1274 0415 07       		.uleb128 0x7
 1275 0416 746D00   		.ascii	"tm\000"
 1276 0419 07       		.byte	0x7
ARM GAS  /tmp/ccJeoyMt.s 			page 46


 1277 041a D901     		.2byte	0x1d9
 1278 041c FB040000 		.4byte	0x4fb
 1279 0420 70       		.byte	0x70
 1280 0421 08       		.uleb128 0x8
 1281 0422 FC010000 		.4byte	.LASF76
 1282 0426 07       		.byte	0x7
 1283 0427 E501     		.2byte	0x1e5
 1284 0429 F4050000 		.4byte	0x5f4
 1285 042d 78       		.byte	0x78
 1286 042e 00       		.byte	0
 1287 042f 03       		.uleb128 0x3
 1288 0430 04       		.byte	0x4
 1289 0431 07       		.byte	0x7
 1290 0432 1F030000 		.4byte	.LASF77
 1291 0436 04       		.uleb128 0x4
 1292 0437 D1010000 		.4byte	.LASF78
 1293 043b 08       		.byte	0x8
 1294 043c 65       		.byte	0x65
 1295 043d F9020000 		.4byte	0x2f9
 1296 0441 04       		.uleb128 0x4
 1297 0442 F9020000 		.4byte	.LASF79
 1298 0446 08       		.byte	0x8
 1299 0447 6D       		.byte	0x6d
 1300 0448 B8000000 		.4byte	0xb8
 1301 044c 05       		.uleb128 0x5
 1302 044d 54020000 		.4byte	.LASF80
 1303 0451 04       		.byte	0x4
 1304 0452 08       		.byte	0x8
 1305 0453 89       		.byte	0x89
 1306 0454 65040000 		.4byte	0x465
 1307 0458 0F       		.uleb128 0xf
 1308 0459 72313300 		.ascii	"r13\000"
 1309 045d 08       		.byte	0x8
 1310 045e 8A       		.byte	0x8a
 1311 045f E0040000 		.4byte	0x4e0
 1312 0463 00       		.byte	0
 1313 0464 00       		.byte	0
 1314 0465 05       		.uleb128 0x5
 1315 0466 54000000 		.4byte	.LASF81
 1316 046a 24       		.byte	0x24
 1317 046b 09       		.byte	0x9
 1318 046c FD       		.byte	0xfd
 1319 046d E0040000 		.4byte	0x4e0
 1320 0471 07       		.uleb128 0x7
 1321 0472 723400   		.ascii	"r4\000"
 1322 0475 09       		.byte	0x9
 1323 0476 1001     		.2byte	0x110
 1324 0478 36040000 		.4byte	0x436
 1325 047c 00       		.byte	0
 1326 047d 07       		.uleb128 0x7
 1327 047e 723500   		.ascii	"r5\000"
 1328 0481 09       		.byte	0x9
 1329 0482 1101     		.2byte	0x111
 1330 0484 36040000 		.4byte	0x436
 1331 0488 04       		.byte	0x4
 1332 0489 07       		.uleb128 0x7
 1333 048a 723600   		.ascii	"r6\000"
ARM GAS  /tmp/ccJeoyMt.s 			page 47


 1334 048d 09       		.byte	0x9
 1335 048e 1201     		.2byte	0x112
 1336 0490 36040000 		.4byte	0x436
 1337 0494 08       		.byte	0x8
 1338 0495 07       		.uleb128 0x7
 1339 0496 723700   		.ascii	"r7\000"
 1340 0499 09       		.byte	0x9
 1341 049a 1301     		.2byte	0x113
 1342 049c 36040000 		.4byte	0x436
 1343 04a0 0C       		.byte	0xc
 1344 04a1 07       		.uleb128 0x7
 1345 04a2 723800   		.ascii	"r8\000"
 1346 04a5 09       		.byte	0x9
 1347 04a6 1401     		.2byte	0x114
 1348 04a8 36040000 		.4byte	0x436
 1349 04ac 10       		.byte	0x10
 1350 04ad 07       		.uleb128 0x7
 1351 04ae 723900   		.ascii	"r9\000"
 1352 04b1 09       		.byte	0x9
 1353 04b2 1501     		.2byte	0x115
 1354 04b4 36040000 		.4byte	0x436
 1355 04b8 14       		.byte	0x14
 1356 04b9 07       		.uleb128 0x7
 1357 04ba 72313000 		.ascii	"r10\000"
 1358 04be 09       		.byte	0x9
 1359 04bf 1601     		.2byte	0x116
 1360 04c1 36040000 		.4byte	0x436
 1361 04c5 18       		.byte	0x18
 1362 04c6 07       		.uleb128 0x7
 1363 04c7 72313100 		.ascii	"r11\000"
 1364 04cb 09       		.byte	0x9
 1365 04cc 1701     		.2byte	0x117
 1366 04ce 36040000 		.4byte	0x436
 1367 04d2 1C       		.byte	0x1c
 1368 04d3 07       		.uleb128 0x7
 1369 04d4 6C7200   		.ascii	"lr\000"
 1370 04d7 09       		.byte	0x9
 1371 04d8 1801     		.2byte	0x118
 1372 04da 36040000 		.4byte	0x436
 1373 04de 20       		.byte	0x20
 1374 04df 00       		.byte	0
 1375 04e0 09       		.uleb128 0x9
 1376 04e1 04       		.byte	0x4
 1377 04e2 65040000 		.4byte	0x465
 1378 04e6 10       		.uleb128 0x10
 1379 04e7 04       		.byte	0x4
 1380 04e8 0A       		.byte	0xa
 1381 04e9 38       		.byte	0x38
 1382 04ea FB040000 		.4byte	0x4fb
 1383 04ee 06       		.uleb128 0x6
 1384 04ef 90050000 		.4byte	.LASF82
 1385 04f3 0A       		.byte	0xa
 1386 04f4 3C       		.byte	0x3c
 1387 04f5 C3000000 		.4byte	0xc3
 1388 04f9 00       		.byte	0
 1389 04fa 00       		.byte	0
 1390 04fb 04       		.uleb128 0x4
ARM GAS  /tmp/ccJeoyMt.s 			page 48


 1391 04fc A0030000 		.4byte	.LASF83
 1392 0500 0A       		.byte	0xa
 1393 0501 3D       		.byte	0x3d
 1394 0502 E6040000 		.4byte	0x4e6
 1395 0506 11       		.uleb128 0x11
 1396 0507 04       		.byte	0x4
 1397 0508 07       		.byte	0x7
 1398 0509 FA       		.byte	0xfa
 1399 050a 6F050000 		.4byte	0x56f
 1400 050e 12       		.uleb128 0x12
 1401 050f 13000000 		.4byte	.LASF84
 1402 0513 07       		.byte	0x7
 1403 0514 0101     		.2byte	0x101
 1404 0516 FA000000 		.4byte	0xfa
 1405 051a 12       		.uleb128 0x12
 1406 051b BE000000 		.4byte	.LASF85
 1407 051f 07       		.byte	0x7
 1408 0520 0801     		.2byte	0x108
 1409 0522 FA000000 		.4byte	0xfa
 1410 0526 12       		.uleb128 0x12
 1411 0527 07070000 		.4byte	.LASF86
 1412 052b 07       		.byte	0x7
 1413 052c 0F01     		.2byte	0x10f
 1414 052e F9020000 		.4byte	0x2f9
 1415 0532 12       		.uleb128 0x12
 1416 0533 0D000000 		.4byte	.LASF87
 1417 0537 07       		.byte	0x7
 1418 0538 1601     		.2byte	0x116
 1419 053a 6F050000 		.4byte	0x56f
 1420 053e 12       		.uleb128 0x12
 1421 053f D2000000 		.4byte	.LASF88
 1422 0543 07       		.byte	0x7
 1423 0544 1B01     		.2byte	0x11b
 1424 0546 FA000000 		.4byte	0xfa
 1425 054a 12       		.uleb128 0x12
 1426 054b 26020000 		.4byte	.LASF89
 1427 054f 07       		.byte	0x7
 1428 0550 2401     		.2byte	0x124
 1429 0552 9A050000 		.4byte	0x59a
 1430 0556 12       		.uleb128 0x12
 1431 0557 DD040000 		.4byte	.LASF90
 1432 055b 07       		.byte	0x7
 1433 055c 2D01     		.2byte	0x12d
 1434 055e D1050000 		.4byte	0x5d1
 1435 0562 12       		.uleb128 0x12
 1436 0563 5D040000 		.4byte	.LASF91
 1437 0567 07       		.byte	0x7
 1438 0568 3501     		.2byte	0x135
 1439 056a 05010000 		.4byte	0x105
 1440 056e 00       		.byte	0
 1441 056f 09       		.uleb128 0x9
 1442 0570 04       		.byte	0x4
 1443 0571 11020000 		.4byte	0x211
 1444 0575 05       		.uleb128 0x5
 1445 0576 BC040000 		.4byte	.LASF92
 1446 057a 0C       		.byte	0xc
 1447 057b 0B       		.byte	0xb
ARM GAS  /tmp/ccJeoyMt.s 			page 49


 1448 057c 34       		.byte	0x34
 1449 057d 9A050000 		.4byte	0x59a
 1450 0581 06       		.uleb128 0x6
 1451 0582 B0010000 		.4byte	.LASF93
 1452 0586 0B       		.byte	0xb
 1453 0587 35       		.byte	0x35
 1454 0588 46020000 		.4byte	0x246
 1455 058c 00       		.byte	0
 1456 058d 06       		.uleb128 0x6
 1457 058e 4E020000 		.4byte	.LASF94
 1458 0592 0B       		.byte	0xb
 1459 0593 37       		.byte	0x37
 1460 0594 10010000 		.4byte	0x110
 1461 0598 08       		.byte	0x8
 1462 0599 00       		.byte	0
 1463 059a 09       		.uleb128 0x9
 1464 059b 04       		.byte	0x4
 1465 059c 75050000 		.4byte	0x575
 1466 05a0 05       		.uleb128 0x5
 1467 05a1 FB050000 		.4byte	.LASF95
 1468 05a5 10       		.byte	0x10
 1469 05a6 0C       		.byte	0xc
 1470 05a7 39       		.byte	0x39
 1471 05a8 D1050000 		.4byte	0x5d1
 1472 05ac 06       		.uleb128 0x6
 1473 05ad 5F010000 		.4byte	.LASF96
 1474 05b1 0C       		.byte	0xc
 1475 05b2 3A       		.byte	0x3a
 1476 05b3 46020000 		.4byte	0x246
 1477 05b7 00       		.byte	0
 1478 05b8 06       		.uleb128 0x6
 1479 05b9 3E070000 		.4byte	.LASF97
 1480 05bd 0C       		.byte	0xc
 1481 05be 3C       		.byte	0x3c
 1482 05bf 1C020000 		.4byte	0x21c
 1483 05c3 08       		.byte	0x8
 1484 05c4 06       		.uleb128 0x6
 1485 05c5 48050000 		.4byte	.LASF98
 1486 05c9 0C       		.byte	0xc
 1487 05ca 3E       		.byte	0x3e
 1488 05cb 0F060000 		.4byte	0x60f
 1489 05cf 0C       		.byte	0xc
 1490 05d0 00       		.byte	0
 1491 05d1 09       		.uleb128 0x9
 1492 05d2 04       		.byte	0x4
 1493 05d3 A0050000 		.4byte	0x5a0
 1494 05d7 09       		.uleb128 0x9
 1495 05d8 04       		.byte	0x4
 1496 05d9 DD050000 		.4byte	0x5dd
 1497 05dd 13       		.uleb128 0x13
 1498 05de E2050000 		.4byte	0x5e2
 1499 05e2 03       		.uleb128 0x3
 1500 05e3 01       		.byte	0x1
 1501 05e4 08       		.byte	0x8
 1502 05e5 20050000 		.4byte	.LASF99
 1503 05e9 09       		.uleb128 0x9
 1504 05ea 04       		.byte	0x4
ARM GAS  /tmp/ccJeoyMt.s 			page 50


 1505 05eb FB020000 		.4byte	0x2fb
 1506 05ef 14       		.uleb128 0x14
 1507 05f0 D7050000 		.4byte	0x5d7
 1508 05f4 15       		.uleb128 0x15
 1509 05f5 41040000 		.4byte	0x441
 1510 05f9 04060000 		.4byte	0x604
 1511 05fd 16       		.uleb128 0x16
 1512 05fe 2F040000 		.4byte	0x42f
 1513 0602 1A       		.byte	0x1a
 1514 0603 00       		.byte	0
 1515 0604 04       		.uleb128 0x4
 1516 0605 EE010000 		.4byte	.LASF100
 1517 0609 0C       		.byte	0xc
 1518 060a 34       		.byte	0x34
 1519 060b A0050000 		.4byte	0x5a0
 1520 060f 09       		.uleb128 0x9
 1521 0610 04       		.byte	0x4
 1522 0611 04060000 		.4byte	0x604
 1523 0615 03       		.uleb128 0x3
 1524 0616 01       		.byte	0x1
 1525 0617 02       		.byte	0x2
 1526 0618 16040000 		.4byte	.LASF101
 1527 061c 17       		.uleb128 0x17
 1528 061d 01       		.byte	0x1
 1529 061e 0D       		.byte	0xd
 1530 061f 3F       		.byte	0x3f
 1531 0620 37060000 		.4byte	0x637
 1532 0624 18       		.uleb128 0x18
 1533 0625 B1030000 		.4byte	.LASF102
 1534 0629 00       		.sleb128 0
 1535 062a 18       		.uleb128 0x18
 1536 062b 17050000 		.4byte	.LASF103
 1537 062f 01       		.sleb128 1
 1538 0630 18       		.uleb128 0x18
 1539 0631 04030000 		.4byte	.LASF104
 1540 0635 02       		.sleb128 2
 1541 0636 00       		.byte	0
 1542 0637 04       		.uleb128 0x4
 1543 0638 3B030000 		.4byte	.LASF105
 1544 063c 0D       		.byte	0xd
 1545 063d 43       		.byte	0x43
 1546 063e 1C060000 		.4byte	0x61c
 1547 0642 04       		.uleb128 0x4
 1548 0643 E1050000 		.4byte	.LASF106
 1549 0647 0D       		.byte	0xd
 1550 0648 48       		.byte	0x48
 1551 0649 4D060000 		.4byte	0x64d
 1552 064d 05       		.uleb128 0x5
 1553 064e E1050000 		.4byte	.LASF106
 1554 0652 08       		.byte	0x8
 1555 0653 0E       		.byte	0xe
 1556 0654 73       		.byte	0x73
 1557 0655 72060000 		.4byte	0x672
 1558 0659 06       		.uleb128 0x6
 1559 065a 87010000 		.4byte	.LASF107
 1560 065e 0E       		.byte	0xe
 1561 065f 77       		.byte	0x77
ARM GAS  /tmp/ccJeoyMt.s 			page 51


 1562 0660 37060000 		.4byte	0x637
 1563 0664 00       		.byte	0
 1564 0665 06       		.uleb128 0x6
 1565 0666 2A050000 		.4byte	.LASF108
 1566 066a 0E       		.byte	0xe
 1567 066b 7B       		.byte	0x7b
 1568 066c 00070000 		.4byte	0x700
 1569 0670 04       		.byte	0x4
 1570 0671 00       		.byte	0
 1571 0672 04       		.uleb128 0x4
 1572 0673 39000000 		.4byte	.LASF109
 1573 0677 0E       		.byte	0xe
 1574 0678 49       		.byte	0x49
 1575 0679 AD000000 		.4byte	0xad
 1576 067d 04       		.uleb128 0x4
 1577 067e 31050000 		.4byte	.LASF110
 1578 0682 0E       		.byte	0xe
 1579 0683 51       		.byte	0x51
 1580 0684 88060000 		.4byte	0x688
 1581 0688 09       		.uleb128 0x9
 1582 0689 04       		.byte	0x4
 1583 068a 8E060000 		.4byte	0x68e
 1584 068e 0B       		.uleb128 0xb
 1585 068f 9E060000 		.4byte	0x69e
 1586 0693 0C       		.uleb128 0xc
 1587 0694 9E060000 		.4byte	0x69e
 1588 0698 0C       		.uleb128 0xc
 1589 0699 72060000 		.4byte	0x672
 1590 069d 00       		.byte	0
 1591 069e 09       		.uleb128 0x9
 1592 069f 04       		.byte	0x4
 1593 06a0 42060000 		.4byte	0x642
 1594 06a4 10       		.uleb128 0x10
 1595 06a5 08       		.byte	0x8
 1596 06a6 0E       		.byte	0xe
 1597 06a7 56       		.byte	0x56
 1598 06a8 C4060000 		.4byte	0x6c4
 1599 06ac 06       		.uleb128 0x6
 1600 06ad 25050000 		.4byte	.LASF111
 1601 06b1 0E       		.byte	0xe
 1602 06b2 5A       		.byte	0x5a
 1603 06b3 AD000000 		.4byte	0xad
 1604 06b7 00       		.byte	0
 1605 06b8 0F       		.uleb128 0xf
 1606 06b9 636200   		.ascii	"cb\000"
 1607 06bc 0E       		.byte	0xe
 1608 06bd 61       		.byte	0x61
 1609 06be 7D060000 		.4byte	0x67d
 1610 06c2 04       		.byte	0x4
 1611 06c3 00       		.byte	0
 1612 06c4 04       		.uleb128 0x4
 1613 06c5 B8010000 		.4byte	.LASF112
 1614 06c9 0E       		.byte	0xe
 1615 06ca 62       		.byte	0x62
 1616 06cb A4060000 		.4byte	0x6a4
 1617 06cf 19       		.uleb128 0x19
 1618 06d0 1001     		.2byte	0x110
ARM GAS  /tmp/ccJeoyMt.s 			page 52


 1619 06d2 0E       		.byte	0xe
 1620 06d3 68       		.byte	0x68
 1621 06d4 E5060000 		.4byte	0x6e5
 1622 06d8 06       		.uleb128 0x6
 1623 06d9 8D010000 		.4byte	.LASF113
 1624 06dd 0E       		.byte	0xe
 1625 06de 6C       		.byte	0x6c
 1626 06df E5060000 		.4byte	0x6e5
 1627 06e3 00       		.byte	0
 1628 06e4 00       		.byte	0
 1629 06e5 15       		.uleb128 0x15
 1630 06e6 C4060000 		.4byte	0x6c4
 1631 06ea F5060000 		.4byte	0x6f5
 1632 06ee 16       		.uleb128 0x16
 1633 06ef 2F040000 		.4byte	0x42f
 1634 06f3 21       		.byte	0x21
 1635 06f4 00       		.byte	0
 1636 06f5 04       		.uleb128 0x4
 1637 06f6 79020000 		.4byte	.LASF114
 1638 06fa 0E       		.byte	0xe
 1639 06fb 6E       		.byte	0x6e
 1640 06fc CF060000 		.4byte	0x6cf
 1641 0700 09       		.uleb128 0x9
 1642 0701 04       		.byte	0x4
 1643 0702 06070000 		.4byte	0x706
 1644 0706 13       		.uleb128 0x13
 1645 0707 F5060000 		.4byte	0x6f5
 1646 070b 1A       		.uleb128 0x1a
 1647 070c 78050000 		.4byte	.LASF118
 1648 0710 02       		.byte	0x2
 1649 0711 2202     		.2byte	0x222
 1650 0713 03       		.byte	0x3
 1651 0714 25070000 		.4byte	0x725
 1652 0718 1B       		.uleb128 0x1b
 1653 0719 F6010000 		.4byte	.LASF144
 1654 071d 02       		.byte	0x2
 1655 071e 2202     		.2byte	0x222
 1656 0720 AD000000 		.4byte	0xad
 1657 0724 00       		.byte	0
 1658 0725 1C       		.uleb128 0x1c
 1659 0726 7D000000 		.4byte	.LASF115
 1660 072a 09       		.byte	0x9
 1661 072b C801     		.2byte	0x1c8
 1662 072d 03       		.byte	0x3
 1663 072e 1C       		.uleb128 0x1c
 1664 072f 6E010000 		.4byte	.LASF116
 1665 0733 09       		.byte	0x9
 1666 0734 E001     		.2byte	0x1e0
 1667 0736 03       		.byte	0x3
 1668 0737 1C       		.uleb128 0x1c
 1669 0738 81040000 		.4byte	.LASF117
 1670 073c 0F       		.byte	0xf
 1671 073d 5A01     		.2byte	0x15a
 1672 073f 03       		.byte	0x3
 1673 0740 1A       		.uleb128 0x1a
 1674 0741 32070000 		.4byte	.LASF119
 1675 0745 0F       		.byte	0xf
ARM GAS  /tmp/ccJeoyMt.s 			page 53


 1676 0746 6601     		.2byte	0x166
 1677 0748 03       		.byte	0x3
 1678 0749 5B070000 		.4byte	0x75b
 1679 074d 1D       		.uleb128 0x1d
 1680 074e 97050000 		.4byte	.LASF145
 1681 0752 6B070000 		.4byte	0x76b
 1682 0756 32070000 		.4byte	.LASF119
 1683 075a 00       		.byte	0
 1684 075b 15       		.uleb128 0x15
 1685 075c E2050000 		.4byte	0x5e2
 1686 0760 6B070000 		.4byte	0x76b
 1687 0764 16       		.uleb128 0x16
 1688 0765 2F040000 		.4byte	0x42f
 1689 0769 0B       		.byte	0xb
 1690 076a 00       		.byte	0
 1691 076b 13       		.uleb128 0x13
 1692 076c 5B070000 		.4byte	0x75b
 1693 0770 1C       		.uleb128 0x1c
 1694 0771 E2010000 		.4byte	.LASF120
 1695 0775 10       		.byte	0x10
 1696 0776 EB01     		.2byte	0x1eb
 1697 0778 03       		.byte	0x3
 1698 0779 1C       		.uleb128 0x1c
 1699 077a 95040000 		.4byte	.LASF121
 1700 077e 10       		.byte	0x10
 1701 077f F601     		.2byte	0x1f6
 1702 0781 03       		.byte	0x3
 1703 0782 1E       		.uleb128 0x1e
 1704 0783 32040000 		.4byte	.LASF122
 1705 0787 01       		.byte	0x1
 1706 0788 38       		.byte	0x38
 1707 0789 00000000 		.4byte	.LFB272
 1708 078d 04000000 		.4byte	.LFE272-.LFB272
 1709 0791 01       		.uleb128 0x1
 1710 0792 9C       		.byte	0x9c
 1711 0793 A1070000 		.4byte	0x7a1
 1712 0797 1F       		.uleb128 0x1f
 1713 0798 04000000 		.4byte	.LVL0
 1714 079c A60C0000 		.4byte	0xca6
 1715 07a0 00       		.byte	0
 1716 07a1 1E       		.uleb128 0x1e
 1717 07a2 49010000 		.4byte	.LASF123
 1718 07a6 01       		.byte	0x1
 1719 07a7 44       		.byte	0x44
 1720 07a8 00000000 		.4byte	.LFB273
 1721 07ac 0A000000 		.4byte	.LFE273-.LFB273
 1722 07b0 01       		.uleb128 0x1
 1723 07b1 9C       		.byte	0x9c
 1724 07b2 C4070000 		.4byte	0x7c4
 1725 07b6 20       		.uleb128 0x20
 1726 07b7 44010000 		.4byte	.LASF125
 1727 07bb 01       		.byte	0x1
 1728 07bc 44       		.byte	0x44
 1729 07bd 9E060000 		.4byte	0x69e
 1730 07c1 01       		.uleb128 0x1
 1731 07c2 50       		.byte	0x50
 1732 07c3 00       		.byte	0
ARM GAS  /tmp/ccJeoyMt.s 			page 54


 1733 07c4 1E       		.uleb128 0x1e
 1734 07c5 2D010000 		.4byte	.LASF124
 1735 07c9 01       		.byte	0x1
 1736 07ca 54       		.byte	0x54
 1737 07cb 00000000 		.4byte	.LFB274
 1738 07cf 1C000000 		.4byte	.LFE274-.LFB274
 1739 07d3 01       		.uleb128 0x1
 1740 07d4 9C       		.byte	0x9c
 1741 07d5 BA080000 		.4byte	0x8ba
 1742 07d9 21       		.uleb128 0x21
 1743 07da 44010000 		.4byte	.LASF125
 1744 07de 01       		.byte	0x1
 1745 07df 54       		.byte	0x54
 1746 07e0 9E060000 		.4byte	0x69e
 1747 07e4 00000000 		.4byte	.LLST0
 1748 07e8 21       		.uleb128 0x21
 1749 07e9 2A050000 		.4byte	.LASF108
 1750 07ed 01       		.byte	0x1
 1751 07ee 54       		.byte	0x54
 1752 07ef 00070000 		.4byte	0x700
 1753 07f3 1E000000 		.4byte	.LLST1
 1754 07f7 22       		.uleb128 0x22
 1755 07f8 19060000 		.4byte	.LASF127
 1756 07fc CA080000 		.4byte	0x8ca
 1757 0800 23       		.uleb128 0x23
 1758 0801 70070000 		.4byte	0x770
 1759 0805 02000000 		.4byte	.LBB76
 1760 0809 00000000 		.4byte	.Ldebug_ranges0+0
 1761 080d 01       		.byte	0x1
 1762 080e 58       		.byte	0x58
 1763 080f 4D080000 		.4byte	0x84d
 1764 0813 24       		.uleb128 0x24
 1765 0814 37070000 		.4byte	0x737
 1766 0818 02000000 		.4byte	.LBB77
 1767 081c 00000000 		.4byte	.Ldebug_ranges0+0
 1768 0820 10       		.byte	0x10
 1769 0821 ED01     		.2byte	0x1ed
 1770 0823 24       		.uleb128 0x24
 1771 0824 25070000 		.4byte	0x725
 1772 0828 02000000 		.4byte	.LBB78
 1773 082c 00000000 		.4byte	.Ldebug_ranges0+0
 1774 0830 0F       		.byte	0xf
 1775 0831 5C01     		.2byte	0x15c
 1776 0833 24       		.uleb128 0x24
 1777 0834 0B070000 		.4byte	0x70b
 1778 0838 02000000 		.4byte	.LBB79
 1779 083c 00000000 		.4byte	.Ldebug_ranges0+0
 1780 0840 09       		.byte	0x9
 1781 0841 D001     		.2byte	0x1d0
 1782 0843 25       		.uleb128 0x25
 1783 0844 18070000 		.4byte	0x718
 1784 0848 20       		.byte	0x20
 1785 0849 00       		.byte	0
 1786 084a 00       		.byte	0
 1787 084b 00       		.byte	0
 1788 084c 00       		.byte	0
 1789 084d 26       		.uleb128 0x26
ARM GAS  /tmp/ccJeoyMt.s 			page 55


 1790 084e 79070000 		.4byte	0x779
 1791 0852 14000000 		.4byte	.LBB86
 1792 0856 08000000 		.4byte	.LBE86-.LBB86
 1793 085a 01       		.byte	0x1
 1794 085b 5E       		.byte	0x5e
 1795 085c A9080000 		.4byte	0x8a9
 1796 0860 27       		.uleb128 0x27
 1797 0861 40070000 		.4byte	0x740
 1798 0865 14000000 		.4byte	.LBB87
 1799 0869 08000000 		.4byte	.LBE87-.LBB87
 1800 086d 10       		.byte	0x10
 1801 086e F801     		.2byte	0x1f8
 1802 0870 28       		.uleb128 0x28
 1803 0871 14000000 		.4byte	.LBB88
 1804 0875 08000000 		.4byte	.LBE88-.LBB88
 1805 0879 29       		.uleb128 0x29
 1806 087a 4D070000 		.4byte	0x74d
 1807 087e 27       		.uleb128 0x27
 1808 087f 2E070000 		.4byte	0x72e
 1809 0883 14000000 		.4byte	.LBB89
 1810 0887 08000000 		.4byte	.LBE89-.LBB89
 1811 088b 0F       		.byte	0xf
 1812 088c 7301     		.2byte	0x173
 1813 088e 27       		.uleb128 0x27
 1814 088f 0B070000 		.4byte	0x70b
 1815 0893 14000000 		.4byte	.LBB90
 1816 0897 08000000 		.4byte	.LBE90-.LBB90
 1817 089b 09       		.byte	0x9
 1818 089c E301     		.2byte	0x1e3
 1819 089e 25       		.uleb128 0x25
 1820 089f 18070000 		.4byte	0x718
 1821 08a3 00       		.byte	0
 1822 08a4 00       		.byte	0
 1823 08a5 00       		.byte	0
 1824 08a6 00       		.byte	0
 1825 08a7 00       		.byte	0
 1826 08a8 00       		.byte	0
 1827 08a9 2A       		.uleb128 0x2a
 1828 08aa 10000000 		.4byte	.LVL3
 1829 08ae AD0C0000 		.4byte	0xcad
 1830 08b2 2B       		.uleb128 0x2b
 1831 08b3 01       		.uleb128 0x1
 1832 08b4 50       		.byte	0x50
 1833 08b5 02       		.uleb128 0x2
 1834 08b6 74       		.byte	0x74
 1835 08b7 00       		.sleb128 0
 1836 08b8 00       		.byte	0
 1837 08b9 00       		.byte	0
 1838 08ba 15       		.uleb128 0x15
 1839 08bb E2050000 		.4byte	0x5e2
 1840 08bf CA080000 		.4byte	0x8ca
 1841 08c3 16       		.uleb128 0x16
 1842 08c4 2F040000 		.4byte	0x42f
 1843 08c8 08       		.byte	0x8
 1844 08c9 00       		.byte	0
 1845 08ca 13       		.uleb128 0x13
 1846 08cb BA080000 		.4byte	0x8ba
ARM GAS  /tmp/ccJeoyMt.s 			page 56


 1847 08cf 1E       		.uleb128 0x1e
 1848 08d0 38020000 		.4byte	.LASF126
 1849 08d4 01       		.byte	0x1
 1850 08d5 68       		.byte	0x68
 1851 08d6 00000000 		.4byte	.LFB275
 1852 08da 1A000000 		.4byte	.LFE275-.LFB275
 1853 08de 01       		.uleb128 0x1
 1854 08df 9C       		.byte	0x9c
 1855 08e0 B6090000 		.4byte	0x9b6
 1856 08e4 21       		.uleb128 0x21
 1857 08e5 44010000 		.4byte	.LASF125
 1858 08e9 01       		.byte	0x1
 1859 08ea 68       		.byte	0x68
 1860 08eb 9E060000 		.4byte	0x69e
 1861 08ef 3F000000 		.4byte	.LLST2
 1862 08f3 22       		.uleb128 0x22
 1863 08f4 15070000 		.4byte	.LASF128
 1864 08f8 C6090000 		.4byte	0x9c6
 1865 08fc 23       		.uleb128 0x23
 1866 08fd 70070000 		.4byte	0x770
 1867 0901 02000000 		.4byte	.LBB92
 1868 0905 18000000 		.4byte	.Ldebug_ranges0+0x18
 1869 0909 01       		.byte	0x1
 1870 090a 6C       		.byte	0x6c
 1871 090b 49090000 		.4byte	0x949
 1872 090f 24       		.uleb128 0x24
 1873 0910 37070000 		.4byte	0x737
 1874 0914 02000000 		.4byte	.LBB93
 1875 0918 18000000 		.4byte	.Ldebug_ranges0+0x18
 1876 091c 10       		.byte	0x10
 1877 091d ED01     		.2byte	0x1ed
 1878 091f 24       		.uleb128 0x24
 1879 0920 25070000 		.4byte	0x725
 1880 0924 02000000 		.4byte	.LBB94
 1881 0928 18000000 		.4byte	.Ldebug_ranges0+0x18
 1882 092c 0F       		.byte	0xf
 1883 092d 5C01     		.2byte	0x15c
 1884 092f 24       		.uleb128 0x24
 1885 0930 0B070000 		.4byte	0x70b
 1886 0934 02000000 		.4byte	.LBB95
 1887 0938 18000000 		.4byte	.Ldebug_ranges0+0x18
 1888 093c 09       		.byte	0x9
 1889 093d D001     		.2byte	0x1d0
 1890 093f 25       		.uleb128 0x25
 1891 0940 18070000 		.4byte	0x718
 1892 0944 20       		.byte	0x20
 1893 0945 00       		.byte	0
 1894 0946 00       		.byte	0
 1895 0947 00       		.byte	0
 1896 0948 00       		.byte	0
 1897 0949 26       		.uleb128 0x26
 1898 094a 79070000 		.4byte	0x779
 1899 094e 12000000 		.4byte	.LBB102
 1900 0952 08000000 		.4byte	.LBE102-.LBB102
 1901 0956 01       		.byte	0x1
 1902 0957 71       		.byte	0x71
 1903 0958 A5090000 		.4byte	0x9a5
ARM GAS  /tmp/ccJeoyMt.s 			page 57


 1904 095c 27       		.uleb128 0x27
 1905 095d 40070000 		.4byte	0x740
 1906 0961 12000000 		.4byte	.LBB103
 1907 0965 08000000 		.4byte	.LBE103-.LBB103
 1908 0969 10       		.byte	0x10
 1909 096a F801     		.2byte	0x1f8
 1910 096c 28       		.uleb128 0x28
 1911 096d 12000000 		.4byte	.LBB104
 1912 0971 08000000 		.4byte	.LBE104-.LBB104
 1913 0975 29       		.uleb128 0x29
 1914 0976 4D070000 		.4byte	0x74d
 1915 097a 27       		.uleb128 0x27
 1916 097b 2E070000 		.4byte	0x72e
 1917 097f 12000000 		.4byte	.LBB105
 1918 0983 08000000 		.4byte	.LBE105-.LBB105
 1919 0987 0F       		.byte	0xf
 1920 0988 7301     		.2byte	0x173
 1921 098a 27       		.uleb128 0x27
 1922 098b 0B070000 		.4byte	0x70b
 1923 098f 12000000 		.4byte	.LBB106
 1924 0993 08000000 		.4byte	.LBE106-.LBB106
 1925 0997 09       		.byte	0x9
 1926 0998 E301     		.2byte	0x1e3
 1927 099a 25       		.uleb128 0x25
 1928 099b 18070000 		.4byte	0x718
 1929 099f 00       		.byte	0
 1930 09a0 00       		.byte	0
 1931 09a1 00       		.byte	0
 1932 09a2 00       		.byte	0
 1933 09a3 00       		.byte	0
 1934 09a4 00       		.byte	0
 1935 09a5 2A       		.uleb128 0x2a
 1936 09a6 0E000000 		.4byte	.LVL6
 1937 09aa BE0C0000 		.4byte	0xcbe
 1938 09ae 2B       		.uleb128 0x2b
 1939 09af 01       		.uleb128 0x1
 1940 09b0 50       		.byte	0x50
 1941 09b1 02       		.uleb128 0x2
 1942 09b2 74       		.byte	0x74
 1943 09b3 00       		.sleb128 0
 1944 09b4 00       		.byte	0
 1945 09b5 00       		.byte	0
 1946 09b6 15       		.uleb128 0x15
 1947 09b7 E2050000 		.4byte	0x5e2
 1948 09bb C6090000 		.4byte	0x9c6
 1949 09bf 16       		.uleb128 0x16
 1950 09c0 2F040000 		.4byte	0x42f
 1951 09c4 07       		.byte	0x7
 1952 09c5 00       		.byte	0
 1953 09c6 13       		.uleb128 0x13
 1954 09c7 B6090000 		.4byte	0x9b6
 1955 09cb 1E       		.uleb128 0x1e
 1956 09cc D0050000 		.4byte	.LASF129
 1957 09d0 01       		.byte	0x1
 1958 09d1 7D       		.byte	0x7d
 1959 09d2 00000000 		.4byte	.LFB276
 1960 09d6 14000000 		.4byte	.LFE276-.LFB276
ARM GAS  /tmp/ccJeoyMt.s 			page 58


 1961 09da 01       		.uleb128 0x1
 1962 09db 9C       		.byte	0x9c
 1963 09dc C90A0000 		.4byte	0xac9
 1964 09e0 21       		.uleb128 0x21
 1965 09e1 44010000 		.4byte	.LASF125
 1966 09e5 01       		.byte	0x1
 1967 09e6 7D       		.byte	0x7d
 1968 09e7 9E060000 		.4byte	0x69e
 1969 09eb 5D000000 		.4byte	.LLST3
 1970 09ef 21       		.uleb128 0x21
 1971 09f0 A3040000 		.4byte	.LASF130
 1972 09f4 01       		.byte	0x1
 1973 09f5 7D       		.byte	0x7d
 1974 09f6 72060000 		.4byte	0x672
 1975 09fa 7E000000 		.4byte	.LLST4
 1976 09fe 22       		.uleb128 0x22
 1977 09ff 46000000 		.4byte	.LASF131
 1978 0a03 D90A0000 		.4byte	0xad9
 1979 0a07 26       		.uleb128 0x26
 1980 0a08 70070000 		.4byte	0x770
 1981 0a0c 02000000 		.4byte	.LBB108
 1982 0a10 06000000 		.4byte	.LBE108-.LBB108
 1983 0a14 01       		.byte	0x1
 1984 0a15 81       		.byte	0x81
 1985 0a16 540A0000 		.4byte	0xa54
 1986 0a1a 27       		.uleb128 0x27
 1987 0a1b 37070000 		.4byte	0x737
 1988 0a1f 02000000 		.4byte	.LBB109
 1989 0a23 06000000 		.4byte	.LBE109-.LBB109
 1990 0a27 10       		.byte	0x10
 1991 0a28 ED01     		.2byte	0x1ed
 1992 0a2a 27       		.uleb128 0x27
 1993 0a2b 25070000 		.4byte	0x725
 1994 0a2f 02000000 		.4byte	.LBB110
 1995 0a33 06000000 		.4byte	.LBE110-.LBB110
 1996 0a37 0F       		.byte	0xf
 1997 0a38 5C01     		.2byte	0x15c
 1998 0a3a 27       		.uleb128 0x27
 1999 0a3b 0B070000 		.4byte	0x70b
 2000 0a3f 02000000 		.4byte	.LBB111
 2001 0a43 06000000 		.4byte	.LBE111-.LBB111
 2002 0a47 09       		.byte	0x9
 2003 0a48 D001     		.2byte	0x1d0
 2004 0a4a 25       		.uleb128 0x25
 2005 0a4b 18070000 		.4byte	0x718
 2006 0a4f 20       		.byte	0x20
 2007 0a50 00       		.byte	0
 2008 0a51 00       		.byte	0
 2009 0a52 00       		.byte	0
 2010 0a53 00       		.byte	0
 2011 0a54 26       		.uleb128 0x26
 2012 0a55 79070000 		.4byte	0x779
 2013 0a59 0C000000 		.4byte	.LBB113
 2014 0a5d 08000000 		.4byte	.LBE113-.LBB113
 2015 0a61 01       		.byte	0x1
 2016 0a62 87       		.byte	0x87
 2017 0a63 B00A0000 		.4byte	0xab0
ARM GAS  /tmp/ccJeoyMt.s 			page 59


 2018 0a67 27       		.uleb128 0x27
 2019 0a68 40070000 		.4byte	0x740
 2020 0a6c 0C000000 		.4byte	.LBB114
 2021 0a70 08000000 		.4byte	.LBE114-.LBB114
 2022 0a74 10       		.byte	0x10
 2023 0a75 F801     		.2byte	0x1f8
 2024 0a77 28       		.uleb128 0x28
 2025 0a78 0C000000 		.4byte	.LBB115
 2026 0a7c 08000000 		.4byte	.LBE115-.LBB115
 2027 0a80 29       		.uleb128 0x29
 2028 0a81 4D070000 		.4byte	0x74d
 2029 0a85 27       		.uleb128 0x27
 2030 0a86 2E070000 		.4byte	0x72e
 2031 0a8a 0C000000 		.4byte	.LBB116
 2032 0a8e 08000000 		.4byte	.LBE116-.LBB116
 2033 0a92 0F       		.byte	0xf
 2034 0a93 7301     		.2byte	0x173
 2035 0a95 27       		.uleb128 0x27
 2036 0a96 0B070000 		.4byte	0x70b
 2037 0a9a 0C000000 		.4byte	.LBB117
 2038 0a9e 08000000 		.4byte	.LBE117-.LBB117
 2039 0aa2 09       		.byte	0x9
 2040 0aa3 E301     		.2byte	0x1e3
 2041 0aa5 25       		.uleb128 0x25
 2042 0aa6 18070000 		.4byte	0x718
 2043 0aaa 00       		.byte	0
 2044 0aab 00       		.byte	0
 2045 0aac 00       		.byte	0
 2046 0aad 00       		.byte	0
 2047 0aae 00       		.byte	0
 2048 0aaf 00       		.byte	0
 2049 0ab0 2A       		.uleb128 0x2a
 2050 0ab1 0C000000 		.4byte	.LVL9
 2051 0ab5 CF0C0000 		.4byte	0xccf
 2052 0ab9 2B       		.uleb128 0x2b
 2053 0aba 01       		.uleb128 0x1
 2054 0abb 51       		.byte	0x51
 2055 0abc 03       		.uleb128 0x3
 2056 0abd F3       		.byte	0xf3
 2057 0abe 01       		.uleb128 0x1
 2058 0abf 51       		.byte	0x51
 2059 0ac0 2B       		.uleb128 0x2b
 2060 0ac1 01       		.uleb128 0x1
 2061 0ac2 50       		.byte	0x50
 2062 0ac3 03       		.uleb128 0x3
 2063 0ac4 F3       		.byte	0xf3
 2064 0ac5 01       		.uleb128 0x1
 2065 0ac6 50       		.byte	0x50
 2066 0ac7 00       		.byte	0
 2067 0ac8 00       		.byte	0
 2068 0ac9 15       		.uleb128 0x15
 2069 0aca E2050000 		.4byte	0x5e2
 2070 0ace D90A0000 		.4byte	0xad9
 2071 0ad2 16       		.uleb128 0x16
 2072 0ad3 2F040000 		.4byte	0x42f
 2073 0ad7 10       		.byte	0x10
 2074 0ad8 00       		.byte	0
ARM GAS  /tmp/ccJeoyMt.s 			page 60


 2075 0ad9 13       		.uleb128 0x13
 2076 0ada C90A0000 		.4byte	0xac9
 2077 0ade 1E       		.uleb128 0x1e
 2078 0adf 5D030000 		.4byte	.LASF132
 2079 0ae3 01       		.byte	0x1
 2080 0ae4 93       		.byte	0x93
 2081 0ae5 00000000 		.4byte	.LFB277
 2082 0ae9 14000000 		.4byte	.LFE277-.LFB277
 2083 0aed 01       		.uleb128 0x1
 2084 0aee 9C       		.byte	0x9c
 2085 0aef DC0B0000 		.4byte	0xbdc
 2086 0af3 21       		.uleb128 0x21
 2087 0af4 44010000 		.4byte	.LASF125
 2088 0af8 01       		.byte	0x1
 2089 0af9 93       		.byte	0x93
 2090 0afa 9E060000 		.4byte	0x69e
 2091 0afe 9F000000 		.4byte	.LLST5
 2092 0b02 21       		.uleb128 0x21
 2093 0b03 A3040000 		.4byte	.LASF130
 2094 0b07 01       		.byte	0x1
 2095 0b08 93       		.byte	0x93
 2096 0b09 72060000 		.4byte	0x672
 2097 0b0d C0000000 		.4byte	.LLST6
 2098 0b11 22       		.uleb128 0x22
 2099 0b12 6F000000 		.4byte	.LASF133
 2100 0b16 EC0B0000 		.4byte	0xbec
 2101 0b1a 26       		.uleb128 0x26
 2102 0b1b 70070000 		.4byte	0x770
 2103 0b1f 02000000 		.4byte	.LBB119
 2104 0b23 06000000 		.4byte	.LBE119-.LBB119
 2105 0b27 01       		.byte	0x1
 2106 0b28 97       		.byte	0x97
 2107 0b29 670B0000 		.4byte	0xb67
 2108 0b2d 27       		.uleb128 0x27
 2109 0b2e 37070000 		.4byte	0x737
 2110 0b32 02000000 		.4byte	.LBB120
 2111 0b36 06000000 		.4byte	.LBE120-.LBB120
 2112 0b3a 10       		.byte	0x10
 2113 0b3b ED01     		.2byte	0x1ed
 2114 0b3d 27       		.uleb128 0x27
 2115 0b3e 25070000 		.4byte	0x725
 2116 0b42 02000000 		.4byte	.LBB121
 2117 0b46 06000000 		.4byte	.LBE121-.LBB121
 2118 0b4a 0F       		.byte	0xf
 2119 0b4b 5C01     		.2byte	0x15c
 2120 0b4d 27       		.uleb128 0x27
 2121 0b4e 0B070000 		.4byte	0x70b
 2122 0b52 02000000 		.4byte	.LBB122
 2123 0b56 06000000 		.4byte	.LBE122-.LBB122
 2124 0b5a 09       		.byte	0x9
 2125 0b5b D001     		.2byte	0x1d0
 2126 0b5d 25       		.uleb128 0x25
 2127 0b5e 18070000 		.4byte	0x718
 2128 0b62 20       		.byte	0x20
 2129 0b63 00       		.byte	0
 2130 0b64 00       		.byte	0
 2131 0b65 00       		.byte	0
ARM GAS  /tmp/ccJeoyMt.s 			page 61


 2132 0b66 00       		.byte	0
 2133 0b67 26       		.uleb128 0x26
 2134 0b68 79070000 		.4byte	0x779
 2135 0b6c 0C000000 		.4byte	.LBB124
 2136 0b70 08000000 		.4byte	.LBE124-.LBB124
 2137 0b74 01       		.byte	0x1
 2138 0b75 9D       		.byte	0x9d
 2139 0b76 C30B0000 		.4byte	0xbc3
 2140 0b7a 27       		.uleb128 0x27
 2141 0b7b 40070000 		.4byte	0x740
 2142 0b7f 0C000000 		.4byte	.LBB125
 2143 0b83 08000000 		.4byte	.LBE125-.LBB125
 2144 0b87 10       		.byte	0x10
 2145 0b88 F801     		.2byte	0x1f8
 2146 0b8a 28       		.uleb128 0x28
 2147 0b8b 0C000000 		.4byte	.LBB126
 2148 0b8f 08000000 		.4byte	.LBE126-.LBB126
 2149 0b93 29       		.uleb128 0x29
 2150 0b94 4D070000 		.4byte	0x74d
 2151 0b98 27       		.uleb128 0x27
 2152 0b99 2E070000 		.4byte	0x72e
 2153 0b9d 0C000000 		.4byte	.LBB127
 2154 0ba1 08000000 		.4byte	.LBE127-.LBB127
 2155 0ba5 0F       		.byte	0xf
 2156 0ba6 7301     		.2byte	0x173
 2157 0ba8 27       		.uleb128 0x27
 2158 0ba9 0B070000 		.4byte	0x70b
 2159 0bad 0C000000 		.4byte	.LBB128
 2160 0bb1 08000000 		.4byte	.LBE128-.LBB128
 2161 0bb5 09       		.byte	0x9
 2162 0bb6 E301     		.2byte	0x1e3
 2163 0bb8 25       		.uleb128 0x25
 2164 0bb9 18070000 		.4byte	0x718
 2165 0bbd 00       		.byte	0
 2166 0bbe 00       		.byte	0
 2167 0bbf 00       		.byte	0
 2168 0bc0 00       		.byte	0
 2169 0bc1 00       		.byte	0
 2170 0bc2 00       		.byte	0
 2171 0bc3 2A       		.uleb128 0x2a
 2172 0bc4 0C000000 		.4byte	.LVL11
 2173 0bc8 E50C0000 		.4byte	0xce5
 2174 0bcc 2B       		.uleb128 0x2b
 2175 0bcd 01       		.uleb128 0x1
 2176 0bce 51       		.byte	0x51
 2177 0bcf 03       		.uleb128 0x3
 2178 0bd0 F3       		.byte	0xf3
 2179 0bd1 01       		.uleb128 0x1
 2180 0bd2 51       		.byte	0x51
 2181 0bd3 2B       		.uleb128 0x2b
 2182 0bd4 01       		.uleb128 0x1
 2183 0bd5 50       		.byte	0x50
 2184 0bd6 03       		.uleb128 0x3
 2185 0bd7 F3       		.byte	0xf3
 2186 0bd8 01       		.uleb128 0x1
 2187 0bd9 50       		.byte	0x50
 2188 0bda 00       		.byte	0
ARM GAS  /tmp/ccJeoyMt.s 			page 62


 2189 0bdb 00       		.byte	0
 2190 0bdc 15       		.uleb128 0x15
 2191 0bdd E2050000 		.4byte	0x5e2
 2192 0be1 EC0B0000 		.4byte	0xbec
 2193 0be5 16       		.uleb128 0x16
 2194 0be6 2F040000 		.4byte	0x42f
 2195 0bea 11       		.byte	0x11
 2196 0beb 00       		.byte	0
 2197 0bec 13       		.uleb128 0x13
 2198 0bed DC0B0000 		.4byte	0xbdc
 2199 0bf1 1E       		.uleb128 0x1e
 2200 0bf2 87000000 		.4byte	.LASF134
 2201 0bf6 01       		.byte	0x1
 2202 0bf7 B1       		.byte	0xb1
 2203 0bf8 00000000 		.4byte	.LFB278
 2204 0bfc 1E000000 		.4byte	.LFE278-.LFB278
 2205 0c00 01       		.uleb128 0x1
 2206 0c01 9C       		.byte	0x9c
 2207 0c02 640C0000 		.4byte	0xc64
 2208 0c06 21       		.uleb128 0x21
 2209 0c07 44010000 		.4byte	.LASF125
 2210 0c0b 01       		.byte	0x1
 2211 0c0c B1       		.byte	0xb1
 2212 0c0d 9E060000 		.4byte	0x69e
 2213 0c11 E1000000 		.4byte	.LLST7
 2214 0c15 21       		.uleb128 0x21
 2215 0c16 A3040000 		.4byte	.LASF130
 2216 0c1a 01       		.byte	0x1
 2217 0c1b B2       		.byte	0xb2
 2218 0c1c 72060000 		.4byte	0x672
 2219 0c20 18010000 		.4byte	.LLST8
 2220 0c24 21       		.uleb128 0x21
 2221 0c25 54070000 		.4byte	.LASF135
 2222 0c29 01       		.byte	0x1
 2223 0c2a B3       		.byte	0xb3
 2224 0c2b 640C0000 		.4byte	0xc64
 2225 0c2f 44010000 		.4byte	.LLST9
 2226 0c33 2C       		.uleb128 0x2c
 2227 0c34 19030000 		.4byte	.LASF146
 2228 0c38 01       		.byte	0x1
 2229 0c39 B4       		.byte	0xb4
 2230 0c3a 6F0C0000 		.4byte	0xc6f
 2231 0c3e 65010000 		.4byte	.LLST10
 2232 0c42 22       		.uleb128 0x22
 2233 0c43 73040000 		.4byte	.LASF136
 2234 0c47 850C0000 		.4byte	0xc85
 2235 0c4b 2D       		.uleb128 0x2d
 2236 0c4c 1E000000 		.4byte	.LVL17
 2237 0c50 CF0C0000 		.4byte	0xccf
 2238 0c54 2B       		.uleb128 0x2b
 2239 0c55 01       		.uleb128 0x1
 2240 0c56 51       		.byte	0x51
 2241 0c57 03       		.uleb128 0x3
 2242 0c58 F3       		.byte	0xf3
 2243 0c59 01       		.uleb128 0x1
 2244 0c5a 51       		.byte	0x51
 2245 0c5b 2B       		.uleb128 0x2b
ARM GAS  /tmp/ccJeoyMt.s 			page 63


 2246 0c5c 01       		.uleb128 0x1
 2247 0c5d 50       		.byte	0x50
 2248 0c5e 03       		.uleb128 0x3
 2249 0c5f F3       		.byte	0xf3
 2250 0c60 01       		.uleb128 0x1
 2251 0c61 50       		.byte	0x50
 2252 0c62 00       		.byte	0
 2253 0c63 00       		.byte	0
 2254 0c64 09       		.uleb128 0x9
 2255 0c65 04       		.byte	0x4
 2256 0c66 6A0C0000 		.4byte	0xc6a
 2257 0c6a 13       		.uleb128 0x13
 2258 0c6b C4060000 		.4byte	0x6c4
 2259 0c6f 09       		.uleb128 0x9
 2260 0c70 04       		.byte	0x4
 2261 0c71 C4060000 		.4byte	0x6c4
 2262 0c75 15       		.uleb128 0x15
 2263 0c76 E2050000 		.4byte	0x5e2
 2264 0c7a 850C0000 		.4byte	0xc85
 2265 0c7e 16       		.uleb128 0x16
 2266 0c7f 2F040000 		.4byte	0x42f
 2267 0c83 12       		.byte	0x12
 2268 0c84 00       		.byte	0
 2269 0c85 13       		.uleb128 0x13
 2270 0c86 750C0000 		.4byte	0xc75
 2271 0c8a 2E       		.uleb128 0x2e
 2272 0c8b F0000000 		.4byte	.LASF137
 2273 0c8f 11       		.byte	0x11
 2274 0c90 FA06     		.2byte	0x6fa
 2275 0c92 960C0000 		.4byte	0xc96
 2276 0c96 14       		.uleb128 0x14
 2277 0c97 A2000000 		.4byte	0xa2
 2278 0c9b 2F       		.uleb128 0x2f
 2279 0c9c 636800   		.ascii	"ch\000"
 2280 0c9f 07       		.byte	0x7
 2281 0ca0 0B02     		.2byte	0x20b
 2282 0ca2 C8030000 		.4byte	0x3c8
 2283 0ca6 30       		.uleb128 0x30
 2284 0ca7 7A010000 		.4byte	.LASF147
 2285 0cab 0E       		.byte	0xe
 2286 0cac 8E       		.byte	0x8e
 2287 0cad 31       		.uleb128 0x31
 2288 0cae 40020000 		.4byte	.LASF138
 2289 0cb2 0E       		.byte	0xe
 2290 0cb3 8F       		.byte	0x8f
 2291 0cb4 BE0C0000 		.4byte	0xcbe
 2292 0cb8 0C       		.uleb128 0xc
 2293 0cb9 9E060000 		.4byte	0x69e
 2294 0cbd 00       		.byte	0
 2295 0cbe 31       		.uleb128 0x31
 2296 0cbf B1000000 		.4byte	.LASF139
 2297 0cc3 0E       		.byte	0xe
 2298 0cc4 90       		.byte	0x90
 2299 0cc5 CF0C0000 		.4byte	0xccf
 2300 0cc9 0C       		.uleb128 0xc
 2301 0cca 9E060000 		.4byte	0x69e
 2302 0cce 00       		.byte	0
ARM GAS  /tmp/ccJeoyMt.s 			page 64


 2303 0ccf 31       		.uleb128 0x31
 2304 0cd0 89030000 		.4byte	.LASF140
 2305 0cd4 0E       		.byte	0xe
 2306 0cd5 91       		.byte	0x91
 2307 0cd6 E50C0000 		.4byte	0xce5
 2308 0cda 0C       		.uleb128 0xc
 2309 0cdb 9E060000 		.4byte	0x69e
 2310 0cdf 0C       		.uleb128 0xc
 2311 0ce0 72060000 		.4byte	0x672
 2312 0ce4 00       		.byte	0
 2313 0ce5 32       		.uleb128 0x32
 2314 0ce6 0E010000 		.4byte	.LASF148
 2315 0cea 0E       		.byte	0xe
 2316 0ceb 92       		.byte	0x92
 2317 0cec 0C       		.uleb128 0xc
 2318 0ced 9E060000 		.4byte	0x69e
 2319 0cf1 0C       		.uleb128 0xc
 2320 0cf2 72060000 		.4byte	0x672
 2321 0cf6 00       		.byte	0
 2322 0cf7 00       		.byte	0
 2323              		.section	.debug_abbrev,"",%progbits
 2324              	.Ldebug_abbrev0:
 2325 0000 01       		.uleb128 0x1
 2326 0001 11       		.uleb128 0x11
 2327 0002 01       		.byte	0x1
 2328 0003 25       		.uleb128 0x25
 2329 0004 0E       		.uleb128 0xe
 2330 0005 13       		.uleb128 0x13
 2331 0006 0B       		.uleb128 0xb
 2332 0007 03       		.uleb128 0x3
 2333 0008 0E       		.uleb128 0xe
 2334 0009 1B       		.uleb128 0x1b
 2335 000a 0E       		.uleb128 0xe
 2336 000b 55       		.uleb128 0x55
 2337 000c 17       		.uleb128 0x17
 2338 000d 11       		.uleb128 0x11
 2339 000e 01       		.uleb128 0x1
 2340 000f 10       		.uleb128 0x10
 2341 0010 17       		.uleb128 0x17
 2342 0011 00       		.byte	0
 2343 0012 00       		.byte	0
 2344 0013 02       		.uleb128 0x2
 2345 0014 24       		.uleb128 0x24
 2346 0015 00       		.byte	0
 2347 0016 0B       		.uleb128 0xb
 2348 0017 0B       		.uleb128 0xb
 2349 0018 3E       		.uleb128 0x3e
 2350 0019 0B       		.uleb128 0xb
 2351 001a 03       		.uleb128 0x3
 2352 001b 08       		.uleb128 0x8
 2353 001c 00       		.byte	0
 2354 001d 00       		.byte	0
 2355 001e 03       		.uleb128 0x3
 2356 001f 24       		.uleb128 0x24
 2357 0020 00       		.byte	0
 2358 0021 0B       		.uleb128 0xb
 2359 0022 0B       		.uleb128 0xb
ARM GAS  /tmp/ccJeoyMt.s 			page 65


 2360 0023 3E       		.uleb128 0x3e
 2361 0024 0B       		.uleb128 0xb
 2362 0025 03       		.uleb128 0x3
 2363 0026 0E       		.uleb128 0xe
 2364 0027 00       		.byte	0
 2365 0028 00       		.byte	0
 2366 0029 04       		.uleb128 0x4
 2367 002a 16       		.uleb128 0x16
 2368 002b 00       		.byte	0
 2369 002c 03       		.uleb128 0x3
 2370 002d 0E       		.uleb128 0xe
 2371 002e 3A       		.uleb128 0x3a
 2372 002f 0B       		.uleb128 0xb
 2373 0030 3B       		.uleb128 0x3b
 2374 0031 0B       		.uleb128 0xb
 2375 0032 49       		.uleb128 0x49
 2376 0033 13       		.uleb128 0x13
 2377 0034 00       		.byte	0
 2378 0035 00       		.byte	0
 2379 0036 05       		.uleb128 0x5
 2380 0037 13       		.uleb128 0x13
 2381 0038 01       		.byte	0x1
 2382 0039 03       		.uleb128 0x3
 2383 003a 0E       		.uleb128 0xe
 2384 003b 0B       		.uleb128 0xb
 2385 003c 0B       		.uleb128 0xb
 2386 003d 3A       		.uleb128 0x3a
 2387 003e 0B       		.uleb128 0xb
 2388 003f 3B       		.uleb128 0x3b
 2389 0040 0B       		.uleb128 0xb
 2390 0041 01       		.uleb128 0x1
 2391 0042 13       		.uleb128 0x13
 2392 0043 00       		.byte	0
 2393 0044 00       		.byte	0
 2394 0045 06       		.uleb128 0x6
 2395 0046 0D       		.uleb128 0xd
 2396 0047 00       		.byte	0
 2397 0048 03       		.uleb128 0x3
 2398 0049 0E       		.uleb128 0xe
 2399 004a 3A       		.uleb128 0x3a
 2400 004b 0B       		.uleb128 0xb
 2401 004c 3B       		.uleb128 0x3b
 2402 004d 0B       		.uleb128 0xb
 2403 004e 49       		.uleb128 0x49
 2404 004f 13       		.uleb128 0x13
 2405 0050 38       		.uleb128 0x38
 2406 0051 0B       		.uleb128 0xb
 2407 0052 00       		.byte	0
 2408 0053 00       		.byte	0
 2409 0054 07       		.uleb128 0x7
 2410 0055 0D       		.uleb128 0xd
 2411 0056 00       		.byte	0
 2412 0057 03       		.uleb128 0x3
 2413 0058 08       		.uleb128 0x8
 2414 0059 3A       		.uleb128 0x3a
 2415 005a 0B       		.uleb128 0xb
 2416 005b 3B       		.uleb128 0x3b
ARM GAS  /tmp/ccJeoyMt.s 			page 66


 2417 005c 05       		.uleb128 0x5
 2418 005d 49       		.uleb128 0x49
 2419 005e 13       		.uleb128 0x13
 2420 005f 38       		.uleb128 0x38
 2421 0060 0B       		.uleb128 0xb
 2422 0061 00       		.byte	0
 2423 0062 00       		.byte	0
 2424 0063 08       		.uleb128 0x8
 2425 0064 0D       		.uleb128 0xd
 2426 0065 00       		.byte	0
 2427 0066 03       		.uleb128 0x3
 2428 0067 0E       		.uleb128 0xe
 2429 0068 3A       		.uleb128 0x3a
 2430 0069 0B       		.uleb128 0xb
 2431 006a 3B       		.uleb128 0x3b
 2432 006b 05       		.uleb128 0x5
 2433 006c 49       		.uleb128 0x49
 2434 006d 13       		.uleb128 0x13
 2435 006e 38       		.uleb128 0x38
 2436 006f 0B       		.uleb128 0xb
 2437 0070 00       		.byte	0
 2438 0071 00       		.byte	0
 2439 0072 09       		.uleb128 0x9
 2440 0073 0F       		.uleb128 0xf
 2441 0074 00       		.byte	0
 2442 0075 0B       		.uleb128 0xb
 2443 0076 0B       		.uleb128 0xb
 2444 0077 49       		.uleb128 0x49
 2445 0078 13       		.uleb128 0x13
 2446 0079 00       		.byte	0
 2447 007a 00       		.byte	0
 2448 007b 0A       		.uleb128 0xa
 2449 007c 13       		.uleb128 0x13
 2450 007d 01       		.byte	0x1
 2451 007e 03       		.uleb128 0x3
 2452 007f 0E       		.uleb128 0xe
 2453 0080 0B       		.uleb128 0xb
 2454 0081 0B       		.uleb128 0xb
 2455 0082 3A       		.uleb128 0x3a
 2456 0083 0B       		.uleb128 0xb
 2457 0084 3B       		.uleb128 0x3b
 2458 0085 05       		.uleb128 0x5
 2459 0086 01       		.uleb128 0x1
 2460 0087 13       		.uleb128 0x13
 2461 0088 00       		.byte	0
 2462 0089 00       		.byte	0
 2463 008a 0B       		.uleb128 0xb
 2464 008b 15       		.uleb128 0x15
 2465 008c 01       		.byte	0x1
 2466 008d 27       		.uleb128 0x27
 2467 008e 19       		.uleb128 0x19
 2468 008f 01       		.uleb128 0x1
 2469 0090 13       		.uleb128 0x13
 2470 0091 00       		.byte	0
 2471 0092 00       		.byte	0
 2472 0093 0C       		.uleb128 0xc
 2473 0094 05       		.uleb128 0x5
ARM GAS  /tmp/ccJeoyMt.s 			page 67


 2474 0095 00       		.byte	0
 2475 0096 49       		.uleb128 0x49
 2476 0097 13       		.uleb128 0x13
 2477 0098 00       		.byte	0
 2478 0099 00       		.byte	0
 2479 009a 0D       		.uleb128 0xd
 2480 009b 0F       		.uleb128 0xf
 2481 009c 00       		.byte	0
 2482 009d 0B       		.uleb128 0xb
 2483 009e 0B       		.uleb128 0xb
 2484 009f 00       		.byte	0
 2485 00a0 00       		.byte	0
 2486 00a1 0E       		.uleb128 0xe
 2487 00a2 13       		.uleb128 0x13
 2488 00a3 01       		.byte	0x1
 2489 00a4 03       		.uleb128 0x3
 2490 00a5 0E       		.uleb128 0xe
 2491 00a6 0B       		.uleb128 0xb
 2492 00a7 05       		.uleb128 0x5
 2493 00a8 3A       		.uleb128 0x3a
 2494 00a9 0B       		.uleb128 0xb
 2495 00aa 3B       		.uleb128 0x3b
 2496 00ab 05       		.uleb128 0x5
 2497 00ac 01       		.uleb128 0x1
 2498 00ad 13       		.uleb128 0x13
 2499 00ae 00       		.byte	0
 2500 00af 00       		.byte	0
 2501 00b0 0F       		.uleb128 0xf
 2502 00b1 0D       		.uleb128 0xd
 2503 00b2 00       		.byte	0
 2504 00b3 03       		.uleb128 0x3
 2505 00b4 08       		.uleb128 0x8
 2506 00b5 3A       		.uleb128 0x3a
 2507 00b6 0B       		.uleb128 0xb
 2508 00b7 3B       		.uleb128 0x3b
 2509 00b8 0B       		.uleb128 0xb
 2510 00b9 49       		.uleb128 0x49
 2511 00ba 13       		.uleb128 0x13
 2512 00bb 38       		.uleb128 0x38
 2513 00bc 0B       		.uleb128 0xb
 2514 00bd 00       		.byte	0
 2515 00be 00       		.byte	0
 2516 00bf 10       		.uleb128 0x10
 2517 00c0 13       		.uleb128 0x13
 2518 00c1 01       		.byte	0x1
 2519 00c2 0B       		.uleb128 0xb
 2520 00c3 0B       		.uleb128 0xb
 2521 00c4 3A       		.uleb128 0x3a
 2522 00c5 0B       		.uleb128 0xb
 2523 00c6 3B       		.uleb128 0x3b
 2524 00c7 0B       		.uleb128 0xb
 2525 00c8 01       		.uleb128 0x1
 2526 00c9 13       		.uleb128 0x13
 2527 00ca 00       		.byte	0
 2528 00cb 00       		.byte	0
 2529 00cc 11       		.uleb128 0x11
 2530 00cd 17       		.uleb128 0x17
ARM GAS  /tmp/ccJeoyMt.s 			page 68


 2531 00ce 01       		.byte	0x1
 2532 00cf 0B       		.uleb128 0xb
 2533 00d0 0B       		.uleb128 0xb
 2534 00d1 3A       		.uleb128 0x3a
 2535 00d2 0B       		.uleb128 0xb
 2536 00d3 3B       		.uleb128 0x3b
 2537 00d4 0B       		.uleb128 0xb
 2538 00d5 01       		.uleb128 0x1
 2539 00d6 13       		.uleb128 0x13
 2540 00d7 00       		.byte	0
 2541 00d8 00       		.byte	0
 2542 00d9 12       		.uleb128 0x12
 2543 00da 0D       		.uleb128 0xd
 2544 00db 00       		.byte	0
 2545 00dc 03       		.uleb128 0x3
 2546 00dd 0E       		.uleb128 0xe
 2547 00de 3A       		.uleb128 0x3a
 2548 00df 0B       		.uleb128 0xb
 2549 00e0 3B       		.uleb128 0x3b
 2550 00e1 05       		.uleb128 0x5
 2551 00e2 49       		.uleb128 0x49
 2552 00e3 13       		.uleb128 0x13
 2553 00e4 00       		.byte	0
 2554 00e5 00       		.byte	0
 2555 00e6 13       		.uleb128 0x13
 2556 00e7 26       		.uleb128 0x26
 2557 00e8 00       		.byte	0
 2558 00e9 49       		.uleb128 0x49
 2559 00ea 13       		.uleb128 0x13
 2560 00eb 00       		.byte	0
 2561 00ec 00       		.byte	0
 2562 00ed 14       		.uleb128 0x14
 2563 00ee 35       		.uleb128 0x35
 2564 00ef 00       		.byte	0
 2565 00f0 49       		.uleb128 0x49
 2566 00f1 13       		.uleb128 0x13
 2567 00f2 00       		.byte	0
 2568 00f3 00       		.byte	0
 2569 00f4 15       		.uleb128 0x15
 2570 00f5 01       		.uleb128 0x1
 2571 00f6 01       		.byte	0x1
 2572 00f7 49       		.uleb128 0x49
 2573 00f8 13       		.uleb128 0x13
 2574 00f9 01       		.uleb128 0x1
 2575 00fa 13       		.uleb128 0x13
 2576 00fb 00       		.byte	0
 2577 00fc 00       		.byte	0
 2578 00fd 16       		.uleb128 0x16
 2579 00fe 21       		.uleb128 0x21
 2580 00ff 00       		.byte	0
 2581 0100 49       		.uleb128 0x49
 2582 0101 13       		.uleb128 0x13
 2583 0102 2F       		.uleb128 0x2f
 2584 0103 0B       		.uleb128 0xb
 2585 0104 00       		.byte	0
 2586 0105 00       		.byte	0
 2587 0106 17       		.uleb128 0x17
ARM GAS  /tmp/ccJeoyMt.s 			page 69


 2588 0107 04       		.uleb128 0x4
 2589 0108 01       		.byte	0x1
 2590 0109 0B       		.uleb128 0xb
 2591 010a 0B       		.uleb128 0xb
 2592 010b 3A       		.uleb128 0x3a
 2593 010c 0B       		.uleb128 0xb
 2594 010d 3B       		.uleb128 0x3b
 2595 010e 0B       		.uleb128 0xb
 2596 010f 01       		.uleb128 0x1
 2597 0110 13       		.uleb128 0x13
 2598 0111 00       		.byte	0
 2599 0112 00       		.byte	0
 2600 0113 18       		.uleb128 0x18
 2601 0114 28       		.uleb128 0x28
 2602 0115 00       		.byte	0
 2603 0116 03       		.uleb128 0x3
 2604 0117 0E       		.uleb128 0xe
 2605 0118 1C       		.uleb128 0x1c
 2606 0119 0D       		.uleb128 0xd
 2607 011a 00       		.byte	0
 2608 011b 00       		.byte	0
 2609 011c 19       		.uleb128 0x19
 2610 011d 13       		.uleb128 0x13
 2611 011e 01       		.byte	0x1
 2612 011f 0B       		.uleb128 0xb
 2613 0120 05       		.uleb128 0x5
 2614 0121 3A       		.uleb128 0x3a
 2615 0122 0B       		.uleb128 0xb
 2616 0123 3B       		.uleb128 0x3b
 2617 0124 0B       		.uleb128 0xb
 2618 0125 01       		.uleb128 0x1
 2619 0126 13       		.uleb128 0x13
 2620 0127 00       		.byte	0
 2621 0128 00       		.byte	0
 2622 0129 1A       		.uleb128 0x1a
 2623 012a 2E       		.uleb128 0x2e
 2624 012b 01       		.byte	0x1
 2625 012c 03       		.uleb128 0x3
 2626 012d 0E       		.uleb128 0xe
 2627 012e 3A       		.uleb128 0x3a
 2628 012f 0B       		.uleb128 0xb
 2629 0130 3B       		.uleb128 0x3b
 2630 0131 05       		.uleb128 0x5
 2631 0132 27       		.uleb128 0x27
 2632 0133 19       		.uleb128 0x19
 2633 0134 20       		.uleb128 0x20
 2634 0135 0B       		.uleb128 0xb
 2635 0136 01       		.uleb128 0x1
 2636 0137 13       		.uleb128 0x13
 2637 0138 00       		.byte	0
 2638 0139 00       		.byte	0
 2639 013a 1B       		.uleb128 0x1b
 2640 013b 05       		.uleb128 0x5
 2641 013c 00       		.byte	0
 2642 013d 03       		.uleb128 0x3
 2643 013e 0E       		.uleb128 0xe
 2644 013f 3A       		.uleb128 0x3a
ARM GAS  /tmp/ccJeoyMt.s 			page 70


 2645 0140 0B       		.uleb128 0xb
 2646 0141 3B       		.uleb128 0x3b
 2647 0142 05       		.uleb128 0x5
 2648 0143 49       		.uleb128 0x49
 2649 0144 13       		.uleb128 0x13
 2650 0145 00       		.byte	0
 2651 0146 00       		.byte	0
 2652 0147 1C       		.uleb128 0x1c
 2653 0148 2E       		.uleb128 0x2e
 2654 0149 00       		.byte	0
 2655 014a 03       		.uleb128 0x3
 2656 014b 0E       		.uleb128 0xe
 2657 014c 3A       		.uleb128 0x3a
 2658 014d 0B       		.uleb128 0xb
 2659 014e 3B       		.uleb128 0x3b
 2660 014f 05       		.uleb128 0x5
 2661 0150 27       		.uleb128 0x27
 2662 0151 19       		.uleb128 0x19
 2663 0152 20       		.uleb128 0x20
 2664 0153 0B       		.uleb128 0xb
 2665 0154 00       		.byte	0
 2666 0155 00       		.byte	0
 2667 0156 1D       		.uleb128 0x1d
 2668 0157 34       		.uleb128 0x34
 2669 0158 00       		.byte	0
 2670 0159 03       		.uleb128 0x3
 2671 015a 0E       		.uleb128 0xe
 2672 015b 49       		.uleb128 0x49
 2673 015c 13       		.uleb128 0x13
 2674 015d 34       		.uleb128 0x34
 2675 015e 19       		.uleb128 0x19
 2676 015f 1C       		.uleb128 0x1c
 2677 0160 0E       		.uleb128 0xe
 2678 0161 00       		.byte	0
 2679 0162 00       		.byte	0
 2680 0163 1E       		.uleb128 0x1e
 2681 0164 2E       		.uleb128 0x2e
 2682 0165 01       		.byte	0x1
 2683 0166 3F       		.uleb128 0x3f
 2684 0167 19       		.uleb128 0x19
 2685 0168 03       		.uleb128 0x3
 2686 0169 0E       		.uleb128 0xe
 2687 016a 3A       		.uleb128 0x3a
 2688 016b 0B       		.uleb128 0xb
 2689 016c 3B       		.uleb128 0x3b
 2690 016d 0B       		.uleb128 0xb
 2691 016e 27       		.uleb128 0x27
 2692 016f 19       		.uleb128 0x19
 2693 0170 11       		.uleb128 0x11
 2694 0171 01       		.uleb128 0x1
 2695 0172 12       		.uleb128 0x12
 2696 0173 06       		.uleb128 0x6
 2697 0174 40       		.uleb128 0x40
 2698 0175 18       		.uleb128 0x18
 2699 0176 9742     		.uleb128 0x2117
 2700 0178 19       		.uleb128 0x19
 2701 0179 01       		.uleb128 0x1
ARM GAS  /tmp/ccJeoyMt.s 			page 71


 2702 017a 13       		.uleb128 0x13
 2703 017b 00       		.byte	0
 2704 017c 00       		.byte	0
 2705 017d 1F       		.uleb128 0x1f
 2706 017e 898201   		.uleb128 0x4109
 2707 0181 00       		.byte	0
 2708 0182 11       		.uleb128 0x11
 2709 0183 01       		.uleb128 0x1
 2710 0184 9542     		.uleb128 0x2115
 2711 0186 19       		.uleb128 0x19
 2712 0187 31       		.uleb128 0x31
 2713 0188 13       		.uleb128 0x13
 2714 0189 00       		.byte	0
 2715 018a 00       		.byte	0
 2716 018b 20       		.uleb128 0x20
 2717 018c 05       		.uleb128 0x5
 2718 018d 00       		.byte	0
 2719 018e 03       		.uleb128 0x3
 2720 018f 0E       		.uleb128 0xe
 2721 0190 3A       		.uleb128 0x3a
 2722 0191 0B       		.uleb128 0xb
 2723 0192 3B       		.uleb128 0x3b
 2724 0193 0B       		.uleb128 0xb
 2725 0194 49       		.uleb128 0x49
 2726 0195 13       		.uleb128 0x13
 2727 0196 02       		.uleb128 0x2
 2728 0197 18       		.uleb128 0x18
 2729 0198 00       		.byte	0
 2730 0199 00       		.byte	0
 2731 019a 21       		.uleb128 0x21
 2732 019b 05       		.uleb128 0x5
 2733 019c 00       		.byte	0
 2734 019d 03       		.uleb128 0x3
 2735 019e 0E       		.uleb128 0xe
 2736 019f 3A       		.uleb128 0x3a
 2737 01a0 0B       		.uleb128 0xb
 2738 01a1 3B       		.uleb128 0x3b
 2739 01a2 0B       		.uleb128 0xb
 2740 01a3 49       		.uleb128 0x49
 2741 01a4 13       		.uleb128 0x13
 2742 01a5 02       		.uleb128 0x2
 2743 01a6 17       		.uleb128 0x17
 2744 01a7 00       		.byte	0
 2745 01a8 00       		.byte	0
 2746 01a9 22       		.uleb128 0x22
 2747 01aa 34       		.uleb128 0x34
 2748 01ab 00       		.byte	0
 2749 01ac 03       		.uleb128 0x3
 2750 01ad 0E       		.uleb128 0xe
 2751 01ae 49       		.uleb128 0x49
 2752 01af 13       		.uleb128 0x13
 2753 01b0 34       		.uleb128 0x34
 2754 01b1 19       		.uleb128 0x19
 2755 01b2 00       		.byte	0
 2756 01b3 00       		.byte	0
 2757 01b4 23       		.uleb128 0x23
 2758 01b5 1D       		.uleb128 0x1d
ARM GAS  /tmp/ccJeoyMt.s 			page 72


 2759 01b6 01       		.byte	0x1
 2760 01b7 31       		.uleb128 0x31
 2761 01b8 13       		.uleb128 0x13
 2762 01b9 52       		.uleb128 0x52
 2763 01ba 01       		.uleb128 0x1
 2764 01bb 55       		.uleb128 0x55
 2765 01bc 17       		.uleb128 0x17
 2766 01bd 58       		.uleb128 0x58
 2767 01be 0B       		.uleb128 0xb
 2768 01bf 59       		.uleb128 0x59
 2769 01c0 0B       		.uleb128 0xb
 2770 01c1 01       		.uleb128 0x1
 2771 01c2 13       		.uleb128 0x13
 2772 01c3 00       		.byte	0
 2773 01c4 00       		.byte	0
 2774 01c5 24       		.uleb128 0x24
 2775 01c6 1D       		.uleb128 0x1d
 2776 01c7 01       		.byte	0x1
 2777 01c8 31       		.uleb128 0x31
 2778 01c9 13       		.uleb128 0x13
 2779 01ca 52       		.uleb128 0x52
 2780 01cb 01       		.uleb128 0x1
 2781 01cc 55       		.uleb128 0x55
 2782 01cd 17       		.uleb128 0x17
 2783 01ce 58       		.uleb128 0x58
 2784 01cf 0B       		.uleb128 0xb
 2785 01d0 59       		.uleb128 0x59
 2786 01d1 05       		.uleb128 0x5
 2787 01d2 00       		.byte	0
 2788 01d3 00       		.byte	0
 2789 01d4 25       		.uleb128 0x25
 2790 01d5 05       		.uleb128 0x5
 2791 01d6 00       		.byte	0
 2792 01d7 31       		.uleb128 0x31
 2793 01d8 13       		.uleb128 0x13
 2794 01d9 1C       		.uleb128 0x1c
 2795 01da 0B       		.uleb128 0xb
 2796 01db 00       		.byte	0
 2797 01dc 00       		.byte	0
 2798 01dd 26       		.uleb128 0x26
 2799 01de 1D       		.uleb128 0x1d
 2800 01df 01       		.byte	0x1
 2801 01e0 31       		.uleb128 0x31
 2802 01e1 13       		.uleb128 0x13
 2803 01e2 11       		.uleb128 0x11
 2804 01e3 01       		.uleb128 0x1
 2805 01e4 12       		.uleb128 0x12
 2806 01e5 06       		.uleb128 0x6
 2807 01e6 58       		.uleb128 0x58
 2808 01e7 0B       		.uleb128 0xb
 2809 01e8 59       		.uleb128 0x59
 2810 01e9 0B       		.uleb128 0xb
 2811 01ea 01       		.uleb128 0x1
 2812 01eb 13       		.uleb128 0x13
 2813 01ec 00       		.byte	0
 2814 01ed 00       		.byte	0
 2815 01ee 27       		.uleb128 0x27
ARM GAS  /tmp/ccJeoyMt.s 			page 73


 2816 01ef 1D       		.uleb128 0x1d
 2817 01f0 01       		.byte	0x1
 2818 01f1 31       		.uleb128 0x31
 2819 01f2 13       		.uleb128 0x13
 2820 01f3 11       		.uleb128 0x11
 2821 01f4 01       		.uleb128 0x1
 2822 01f5 12       		.uleb128 0x12
 2823 01f6 06       		.uleb128 0x6
 2824 01f7 58       		.uleb128 0x58
 2825 01f8 0B       		.uleb128 0xb
 2826 01f9 59       		.uleb128 0x59
 2827 01fa 05       		.uleb128 0x5
 2828 01fb 00       		.byte	0
 2829 01fc 00       		.byte	0
 2830 01fd 28       		.uleb128 0x28
 2831 01fe 0B       		.uleb128 0xb
 2832 01ff 01       		.byte	0x1
 2833 0200 11       		.uleb128 0x11
 2834 0201 01       		.uleb128 0x1
 2835 0202 12       		.uleb128 0x12
 2836 0203 06       		.uleb128 0x6
 2837 0204 00       		.byte	0
 2838 0205 00       		.byte	0
 2839 0206 29       		.uleb128 0x29
 2840 0207 34       		.uleb128 0x34
 2841 0208 00       		.byte	0
 2842 0209 31       		.uleb128 0x31
 2843 020a 13       		.uleb128 0x13
 2844 020b 00       		.byte	0
 2845 020c 00       		.byte	0
 2846 020d 2A       		.uleb128 0x2a
 2847 020e 898201   		.uleb128 0x4109
 2848 0211 01       		.byte	0x1
 2849 0212 11       		.uleb128 0x11
 2850 0213 01       		.uleb128 0x1
 2851 0214 31       		.uleb128 0x31
 2852 0215 13       		.uleb128 0x13
 2853 0216 00       		.byte	0
 2854 0217 00       		.byte	0
 2855 0218 2B       		.uleb128 0x2b
 2856 0219 8A8201   		.uleb128 0x410a
 2857 021c 00       		.byte	0
 2858 021d 02       		.uleb128 0x2
 2859 021e 18       		.uleb128 0x18
 2860 021f 9142     		.uleb128 0x2111
 2861 0221 18       		.uleb128 0x18
 2862 0222 00       		.byte	0
 2863 0223 00       		.byte	0
 2864 0224 2C       		.uleb128 0x2c
 2865 0225 34       		.uleb128 0x34
 2866 0226 00       		.byte	0
 2867 0227 03       		.uleb128 0x3
 2868 0228 0E       		.uleb128 0xe
 2869 0229 3A       		.uleb128 0x3a
 2870 022a 0B       		.uleb128 0xb
 2871 022b 3B       		.uleb128 0x3b
 2872 022c 0B       		.uleb128 0xb
ARM GAS  /tmp/ccJeoyMt.s 			page 74


 2873 022d 49       		.uleb128 0x49
 2874 022e 13       		.uleb128 0x13
 2875 022f 02       		.uleb128 0x2
 2876 0230 17       		.uleb128 0x17
 2877 0231 00       		.byte	0
 2878 0232 00       		.byte	0
 2879 0233 2D       		.uleb128 0x2d
 2880 0234 898201   		.uleb128 0x4109
 2881 0237 01       		.byte	0x1
 2882 0238 11       		.uleb128 0x11
 2883 0239 01       		.uleb128 0x1
 2884 023a 9542     		.uleb128 0x2115
 2885 023c 19       		.uleb128 0x19
 2886 023d 31       		.uleb128 0x31
 2887 023e 13       		.uleb128 0x13
 2888 023f 00       		.byte	0
 2889 0240 00       		.byte	0
 2890 0241 2E       		.uleb128 0x2e
 2891 0242 34       		.uleb128 0x34
 2892 0243 00       		.byte	0
 2893 0244 03       		.uleb128 0x3
 2894 0245 0E       		.uleb128 0xe
 2895 0246 3A       		.uleb128 0x3a
 2896 0247 0B       		.uleb128 0xb
 2897 0248 3B       		.uleb128 0x3b
 2898 0249 05       		.uleb128 0x5
 2899 024a 49       		.uleb128 0x49
 2900 024b 13       		.uleb128 0x13
 2901 024c 3F       		.uleb128 0x3f
 2902 024d 19       		.uleb128 0x19
 2903 024e 3C       		.uleb128 0x3c
 2904 024f 19       		.uleb128 0x19
 2905 0250 00       		.byte	0
 2906 0251 00       		.byte	0
 2907 0252 2F       		.uleb128 0x2f
 2908 0253 34       		.uleb128 0x34
 2909 0254 00       		.byte	0
 2910 0255 03       		.uleb128 0x3
 2911 0256 08       		.uleb128 0x8
 2912 0257 3A       		.uleb128 0x3a
 2913 0258 0B       		.uleb128 0xb
 2914 0259 3B       		.uleb128 0x3b
 2915 025a 05       		.uleb128 0x5
 2916 025b 49       		.uleb128 0x49
 2917 025c 13       		.uleb128 0x13
 2918 025d 3F       		.uleb128 0x3f
 2919 025e 19       		.uleb128 0x19
 2920 025f 3C       		.uleb128 0x3c
 2921 0260 19       		.uleb128 0x19
 2922 0261 00       		.byte	0
 2923 0262 00       		.byte	0
 2924 0263 30       		.uleb128 0x30
 2925 0264 2E       		.uleb128 0x2e
 2926 0265 00       		.byte	0
 2927 0266 3F       		.uleb128 0x3f
 2928 0267 19       		.uleb128 0x19
 2929 0268 03       		.uleb128 0x3
ARM GAS  /tmp/ccJeoyMt.s 			page 75


 2930 0269 0E       		.uleb128 0xe
 2931 026a 3A       		.uleb128 0x3a
 2932 026b 0B       		.uleb128 0xb
 2933 026c 3B       		.uleb128 0x3b
 2934 026d 0B       		.uleb128 0xb
 2935 026e 27       		.uleb128 0x27
 2936 026f 19       		.uleb128 0x19
 2937 0270 3C       		.uleb128 0x3c
 2938 0271 19       		.uleb128 0x19
 2939 0272 00       		.byte	0
 2940 0273 00       		.byte	0
 2941 0274 31       		.uleb128 0x31
 2942 0275 2E       		.uleb128 0x2e
 2943 0276 01       		.byte	0x1
 2944 0277 3F       		.uleb128 0x3f
 2945 0278 19       		.uleb128 0x19
 2946 0279 03       		.uleb128 0x3
 2947 027a 0E       		.uleb128 0xe
 2948 027b 3A       		.uleb128 0x3a
 2949 027c 0B       		.uleb128 0xb
 2950 027d 3B       		.uleb128 0x3b
 2951 027e 0B       		.uleb128 0xb
 2952 027f 27       		.uleb128 0x27
 2953 0280 19       		.uleb128 0x19
 2954 0281 3C       		.uleb128 0x3c
 2955 0282 19       		.uleb128 0x19
 2956 0283 01       		.uleb128 0x1
 2957 0284 13       		.uleb128 0x13
 2958 0285 00       		.byte	0
 2959 0286 00       		.byte	0
 2960 0287 32       		.uleb128 0x32
 2961 0288 2E       		.uleb128 0x2e
 2962 0289 01       		.byte	0x1
 2963 028a 3F       		.uleb128 0x3f
 2964 028b 19       		.uleb128 0x19
 2965 028c 03       		.uleb128 0x3
 2966 028d 0E       		.uleb128 0xe
 2967 028e 3A       		.uleb128 0x3a
 2968 028f 0B       		.uleb128 0xb
 2969 0290 3B       		.uleb128 0x3b
 2970 0291 0B       		.uleb128 0xb
 2971 0292 27       		.uleb128 0x27
 2972 0293 19       		.uleb128 0x19
 2973 0294 3C       		.uleb128 0x3c
 2974 0295 19       		.uleb128 0x19
 2975 0296 00       		.byte	0
 2976 0297 00       		.byte	0
 2977 0298 00       		.byte	0
 2978              		.section	.debug_loc,"",%progbits
 2979              	.Ldebug_loc0:
 2980              	.LLST0:
 2981 0000 00000000 		.4byte	.LVL2
 2982 0004 0F000000 		.4byte	.LVL3-1
 2983 0008 0100     		.2byte	0x1
 2984 000a 50       		.byte	0x50
 2985 000b 0F000000 		.4byte	.LVL3-1
 2986 000f 1C000000 		.4byte	.LFE274
ARM GAS  /tmp/ccJeoyMt.s 			page 76


 2987 0013 0100     		.2byte	0x1
 2988 0015 54       		.byte	0x54
 2989 0016 00000000 		.4byte	0
 2990 001a 00000000 		.4byte	0
 2991              	.LLST1:
 2992 001e 00000000 		.4byte	.LVL2
 2993 0022 0F000000 		.4byte	.LVL3-1
 2994 0026 0100     		.2byte	0x1
 2995 0028 51       		.byte	0x51
 2996 0029 0F000000 		.4byte	.LVL3-1
 2997 002d 1C000000 		.4byte	.LFE274
 2998 0031 0400     		.2byte	0x4
 2999 0033 F3       		.byte	0xf3
 3000 0034 01       		.uleb128 0x1
 3001 0035 51       		.byte	0x51
 3002 0036 9F       		.byte	0x9f
 3003 0037 00000000 		.4byte	0
 3004 003b 00000000 		.4byte	0
 3005              	.LLST2:
 3006 003f 00000000 		.4byte	.LVL5
 3007 0043 0D000000 		.4byte	.LVL6-1
 3008 0047 0100     		.2byte	0x1
 3009 0049 50       		.byte	0x50
 3010 004a 0D000000 		.4byte	.LVL6-1
 3011 004e 1A000000 		.4byte	.LFE275
 3012 0052 0100     		.2byte	0x1
 3013 0054 54       		.byte	0x54
 3014 0055 00000000 		.4byte	0
 3015 0059 00000000 		.4byte	0
 3016              	.LLST3:
 3017 005d 00000000 		.4byte	.LVL8
 3018 0061 0B000000 		.4byte	.LVL9-1
 3019 0065 0100     		.2byte	0x1
 3020 0067 50       		.byte	0x50
 3021 0068 0B000000 		.4byte	.LVL9-1
 3022 006c 14000000 		.4byte	.LFE276
 3023 0070 0400     		.2byte	0x4
 3024 0072 F3       		.byte	0xf3
 3025 0073 01       		.uleb128 0x1
 3026 0074 50       		.byte	0x50
 3027 0075 9F       		.byte	0x9f
 3028 0076 00000000 		.4byte	0
 3029 007a 00000000 		.4byte	0
 3030              	.LLST4:
 3031 007e 00000000 		.4byte	.LVL8
 3032 0082 0B000000 		.4byte	.LVL9-1
 3033 0086 0100     		.2byte	0x1
 3034 0088 51       		.byte	0x51
 3035 0089 0B000000 		.4byte	.LVL9-1
 3036 008d 14000000 		.4byte	.LFE276
 3037 0091 0400     		.2byte	0x4
 3038 0093 F3       		.byte	0xf3
 3039 0094 01       		.uleb128 0x1
 3040 0095 51       		.byte	0x51
 3041 0096 9F       		.byte	0x9f
 3042 0097 00000000 		.4byte	0
 3043 009b 00000000 		.4byte	0
ARM GAS  /tmp/ccJeoyMt.s 			page 77


 3044              	.LLST5:
 3045 009f 00000000 		.4byte	.LVL10
 3046 00a3 0B000000 		.4byte	.LVL11-1
 3047 00a7 0100     		.2byte	0x1
 3048 00a9 50       		.byte	0x50
 3049 00aa 0B000000 		.4byte	.LVL11-1
 3050 00ae 14000000 		.4byte	.LFE277
 3051 00b2 0400     		.2byte	0x4
 3052 00b4 F3       		.byte	0xf3
 3053 00b5 01       		.uleb128 0x1
 3054 00b6 50       		.byte	0x50
 3055 00b7 9F       		.byte	0x9f
 3056 00b8 00000000 		.4byte	0
 3057 00bc 00000000 		.4byte	0
 3058              	.LLST6:
 3059 00c0 00000000 		.4byte	.LVL10
 3060 00c4 0B000000 		.4byte	.LVL11-1
 3061 00c8 0100     		.2byte	0x1
 3062 00ca 51       		.byte	0x51
 3063 00cb 0B000000 		.4byte	.LVL11-1
 3064 00cf 14000000 		.4byte	.LFE277
 3065 00d3 0400     		.2byte	0x4
 3066 00d5 F3       		.byte	0xf3
 3067 00d6 01       		.uleb128 0x1
 3068 00d7 51       		.byte	0x51
 3069 00d8 9F       		.byte	0x9f
 3070 00d9 00000000 		.4byte	0
 3071 00dd 00000000 		.4byte	0
 3072              	.LLST7:
 3073 00e1 00000000 		.4byte	.LVL12
 3074 00e5 0C000000 		.4byte	.LVL14
 3075 00e9 0100     		.2byte	0x1
 3076 00eb 50       		.byte	0x50
 3077 00ec 0C000000 		.4byte	.LVL14
 3078 00f0 1A000000 		.4byte	.LVL16
 3079 00f4 0100     		.2byte	0x1
 3080 00f6 54       		.byte	0x54
 3081 00f7 1A000000 		.4byte	.LVL16
 3082 00fb 1D000000 		.4byte	.LVL17-1
 3083 00ff 0100     		.2byte	0x1
 3084 0101 50       		.byte	0x50
 3085 0102 1D000000 		.4byte	.LVL17-1
 3086 0106 1E000000 		.4byte	.LFE278
 3087 010a 0400     		.2byte	0x4
 3088 010c F3       		.byte	0xf3
 3089 010d 01       		.uleb128 0x1
 3090 010e 50       		.byte	0x50
 3091 010f 9F       		.byte	0x9f
 3092 0110 00000000 		.4byte	0
 3093 0114 00000000 		.4byte	0
 3094              	.LLST8:
 3095 0118 00000000 		.4byte	.LVL12
 3096 011c 0C000000 		.4byte	.LVL14
 3097 0120 0100     		.2byte	0x1
 3098 0122 51       		.byte	0x51
 3099 0123 0C000000 		.4byte	.LVL14
 3100 0127 1D000000 		.4byte	.LVL17-1
ARM GAS  /tmp/ccJeoyMt.s 			page 78


 3101 012b 0100     		.2byte	0x1
 3102 012d 53       		.byte	0x53
 3103 012e 1D000000 		.4byte	.LVL17-1
 3104 0132 1E000000 		.4byte	.LFE278
 3105 0136 0400     		.2byte	0x4
 3106 0138 F3       		.byte	0xf3
 3107 0139 01       		.uleb128 0x1
 3108 013a 51       		.byte	0x51
 3109 013b 9F       		.byte	0x9f
 3110 013c 00000000 		.4byte	0
 3111 0140 00000000 		.4byte	0
 3112              	.LLST9:
 3113 0144 00000000 		.4byte	.LVL12
 3114 0148 10000000 		.4byte	.LVL15
 3115 014c 0100     		.2byte	0x1
 3116 014e 52       		.byte	0x52
 3117 014f 10000000 		.4byte	.LVL15
 3118 0153 1E000000 		.4byte	.LFE278
 3119 0157 0400     		.2byte	0x4
 3120 0159 F3       		.byte	0xf3
 3121 015a 01       		.uleb128 0x1
 3122 015b 52       		.byte	0x52
 3123 015c 9F       		.byte	0x9f
 3124 015d 00000000 		.4byte	0
 3125 0161 00000000 		.4byte	0
 3126              	.LLST10:
 3127 0165 04000000 		.4byte	.LVL13
 3128 0169 0C000000 		.4byte	.LVL14
 3129 016d 0900     		.2byte	0x9
 3130 016f 71       		.byte	0x71
 3131 0170 00       		.sleb128 0
 3132 0171 33       		.byte	0x33
 3133 0172 24       		.byte	0x24
 3134 0173 70       		.byte	0x70
 3135 0174 04       		.sleb128 4
 3136 0175 06       		.byte	0x6
 3137 0176 22       		.byte	0x22
 3138 0177 9F       		.byte	0x9f
 3139 0178 0C000000 		.4byte	.LVL14
 3140 017c 1A000000 		.4byte	.LVL16
 3141 0180 0800     		.2byte	0x8
 3142 0182 73       		.byte	0x73
 3143 0183 00       		.sleb128 0
 3144 0184 33       		.byte	0x33
 3145 0185 24       		.byte	0x24
 3146 0186 75       		.byte	0x75
 3147 0187 00       		.sleb128 0
 3148 0188 22       		.byte	0x22
 3149 0189 9F       		.byte	0x9f
 3150 018a 00000000 		.4byte	0
 3151 018e 00000000 		.4byte	0
 3152              		.section	.debug_aranges,"",%progbits
 3153 0000 4C000000 		.4byte	0x4c
 3154 0004 0200     		.2byte	0x2
 3155 0006 00000000 		.4byte	.Ldebug_info0
 3156 000a 04       		.byte	0x4
 3157 000b 00       		.byte	0
ARM GAS  /tmp/ccJeoyMt.s 			page 79


 3158 000c 0000     		.2byte	0
 3159 000e 0000     		.2byte	0
 3160 0010 00000000 		.4byte	.LFB272
 3161 0014 04000000 		.4byte	.LFE272-.LFB272
 3162 0018 00000000 		.4byte	.LFB273
 3163 001c 0A000000 		.4byte	.LFE273-.LFB273
 3164 0020 00000000 		.4byte	.LFB274
 3165 0024 1C000000 		.4byte	.LFE274-.LFB274
 3166 0028 00000000 		.4byte	.LFB275
 3167 002c 1A000000 		.4byte	.LFE275-.LFB275
 3168 0030 00000000 		.4byte	.LFB276
 3169 0034 14000000 		.4byte	.LFE276-.LFB276
 3170 0038 00000000 		.4byte	.LFB277
 3171 003c 14000000 		.4byte	.LFE277-.LFB277
 3172 0040 00000000 		.4byte	.LFB278
 3173 0044 1E000000 		.4byte	.LFE278-.LFB278
 3174 0048 00000000 		.4byte	0
 3175 004c 00000000 		.4byte	0
 3176              		.section	.debug_ranges,"",%progbits
 3177              	.Ldebug_ranges0:
 3178 0000 02000000 		.4byte	.LBB76
 3179 0004 04000000 		.4byte	.LBE76
 3180 0008 06000000 		.4byte	.LBB85
 3181 000c 0A000000 		.4byte	.LBE85
 3182 0010 00000000 		.4byte	0
 3183 0014 00000000 		.4byte	0
 3184 0018 02000000 		.4byte	.LBB92
 3185 001c 04000000 		.4byte	.LBE92
 3186 0020 06000000 		.4byte	.LBB101
 3187 0024 0A000000 		.4byte	.LBE101
 3188 0028 00000000 		.4byte	0
 3189 002c 00000000 		.4byte	0
 3190 0030 00000000 		.4byte	.LFB272
 3191 0034 04000000 		.4byte	.LFE272
 3192 0038 00000000 		.4byte	.LFB273
 3193 003c 0A000000 		.4byte	.LFE273
 3194 0040 00000000 		.4byte	.LFB274
 3195 0044 1C000000 		.4byte	.LFE274
 3196 0048 00000000 		.4byte	.LFB275
 3197 004c 1A000000 		.4byte	.LFE275
 3198 0050 00000000 		.4byte	.LFB276
 3199 0054 14000000 		.4byte	.LFE276
 3200 0058 00000000 		.4byte	.LFB277
 3201 005c 14000000 		.4byte	.LFE277
 3202 0060 00000000 		.4byte	.LFB278
 3203 0064 1E000000 		.4byte	.LFE278
 3204 0068 00000000 		.4byte	0
 3205 006c 00000000 		.4byte	0
 3206              		.section	.debug_line,"",%progbits
 3207              	.Ldebug_line0:
 3208 0000 A7030000 		.section	.debug_str,"MS",%progbits,1
 3208      0200BD02 
 3208      00000201 
 3208      FB0E0D00 
 3208      01010101 
 3209              	.LASF49:
 3210 0000 72656164 		.ascii	"ready_list_t\000"
ARM GAS  /tmp/ccJeoyMt.s 			page 80


 3210      795F6C69 
 3210      73745F74 
 3210      00
 3211              	.LASF87:
 3212 000d 77747472 		.ascii	"wttrp\000"
 3212      7000
 3213              	.LASF84:
 3214 0013 7264796D 		.ascii	"rdymsg\000"
 3214      736700
 3215              	.LASF16:
 3216 001a 75696E74 		.ascii	"uint64_t\000"
 3216      36345F74 
 3216      00
 3217              	.LASF1:
 3218 0023 7369676E 		.ascii	"signed char\000"
 3218      65642063 
 3218      68617200 
 3219              	.LASF5:
 3220 002f 5F5F7569 		.ascii	"__uint8_t\000"
 3220      6E74385F 
 3220      7400
 3221              	.LASF109:
 3222 0039 65787063 		.ascii	"expchannel_t\000"
 3222      68616E6E 
 3222      656C5F74 
 3222      00
 3223              	.LASF131:
 3224 0046 5F5F6675 		.ascii	"__func__.7092\000"
 3224      6E635F5F 
 3224      2E373039 
 3224      3200
 3225              	.LASF81:
 3226 0054 706F7274 		.ascii	"port_intctx\000"
 3226      5F696E74 
 3226      63747800 
 3227              	.LASF68:
 3228 0060 73797374 		.ascii	"system_debug_t\000"
 3228      656D5F64 
 3228      65627567 
 3228      5F7400
 3229              	.LASF133:
 3230 006f 5F5F6675 		.ascii	"__func__.7097\000"
 3230      6E635F5F 
 3230      2E373039 
 3230      3700
 3231              	.LASF115:
 3232 007d 706F7274 		.ascii	"port_lock\000"
 3232      5F6C6F63 
 3232      6B00
 3233              	.LASF134:
 3234 0087 65787453 		.ascii	"extSetChannelModeI\000"
 3234      65744368 
 3234      616E6E65 
 3234      6C4D6F64 
 3234      654900
 3235              	.LASF12:
 3236 009a 6C6F6E67 		.ascii	"long long unsigned int\000"
ARM GAS  /tmp/ccJeoyMt.s 			page 81


 3236      206C6F6E 
 3236      6720756E 
 3236      7369676E 
 3236      65642069 
 3237              	.LASF139:
 3238 00b1 6578745F 		.ascii	"ext_lld_stop\000"
 3238      6C6C645F 
 3238      73746F70 
 3238      00
 3239              	.LASF85:
 3240 00be 65786974 		.ascii	"exitcode\000"
 3240      636F6465 
 3240      00
 3241              	.LASF75:
 3242 00c7 6D61696E 		.ascii	"mainthread\000"
 3242      74687265 
 3242      616400
 3243              	.LASF88:
 3244 00d2 73656E74 		.ascii	"sentmsg\000"
 3244      6D736700 
 3245              	.LASF65:
 3246 00da 76697274 		.ascii	"virtual_timers_list_t\000"
 3246      75616C5F 
 3246      74696D65 
 3246      72735F6C 
 3246      6973745F 
 3247              	.LASF137:
 3248 00f0 49544D5F 		.ascii	"ITM_RxBuffer\000"
 3248      52784275 
 3248      66666572 
 3248      00
 3249              	.LASF48:
 3250 00fd 63685F74 		.ascii	"ch_threads_queue\000"
 3250      68726561 
 3250      64735F71 
 3250      75657565 
 3250      00
 3251              	.LASF148:
 3252 010e 6578745F 		.ascii	"ext_lld_channel_disable\000"
 3252      6C6C645F 
 3252      6368616E 
 3252      6E656C5F 
 3252      64697361 
 3253              	.LASF29:
 3254 0126 705F7072 		.ascii	"p_prio\000"
 3254      696F00
 3255              	.LASF124:
 3256 012d 65787453 		.ascii	"extStart\000"
 3256      74617274 
 3256      00
 3257              	.LASF10:
 3258 0136 6C6F6E67 		.ascii	"long long int\000"
 3258      206C6F6E 
 3258      6720696E 
 3258      7400
 3259              	.LASF125:
 3260 0144 65787470 		.ascii	"extp\000"
ARM GAS  /tmp/ccJeoyMt.s 			page 82


 3260      00
 3261              	.LASF123:
 3262 0149 6578744F 		.ascii	"extObjectInit\000"
 3262      626A6563 
 3262      74496E69 
 3262      7400
 3263              	.LASF42:
 3264 0157 705F6D70 		.ascii	"p_mpool\000"
 3264      6F6F6C00 
 3265              	.LASF96:
 3266 015f 6D5F7175 		.ascii	"m_queue\000"
 3266      65756500 
 3267              	.LASF74:
 3268 0167 76746C69 		.ascii	"vtlist\000"
 3268      737400
 3269              	.LASF116:
 3270 016e 706F7274 		.ascii	"port_unlock\000"
 3270      5F756E6C 
 3270      6F636B00 
 3271              	.LASF147:
 3272 017a 6578745F 		.ascii	"ext_lld_init\000"
 3272      6C6C645F 
 3272      696E6974 
 3272      00
 3273              	.LASF107:
 3274 0187 73746174 		.ascii	"state\000"
 3274      6500
 3275              	.LASF113:
 3276 018d 6368616E 		.ascii	"channels\000"
 3276      6E656C73 
 3276      00
 3277              	.LASF7:
 3278 0196 6C6F6E67 		.ascii	"long int\000"
 3278      20696E74 
 3278      00
 3279              	.LASF19:
 3280 019f 74737461 		.ascii	"tstate_t\000"
 3280      74655F74 
 3280      00
 3281              	.LASF31:
 3282 01a8 705F6E65 		.ascii	"p_newer\000"
 3282      77657200 
 3283              	.LASF93:
 3284 01b0 735F7175 		.ascii	"s_queue\000"
 3284      65756500 
 3285              	.LASF112:
 3286 01b8 45585443 		.ascii	"EXTChannelConfig\000"
 3286      68616E6E 
 3286      656C436F 
 3286      6E666967 
 3286      00
 3287              	.LASF54:
 3288 01c9 725F6E65 		.ascii	"r_newer\000"
 3288      77657200 
 3289              	.LASF78:
 3290 01d1 72656761 		.ascii	"regarm_t\000"
 3290      726D5F74 
ARM GAS  /tmp/ccJeoyMt.s 			page 83


 3290      00
 3291              	.LASF61:
 3292 01da 76745F70 		.ascii	"vt_prev\000"
 3292      72657600 
 3293              	.LASF120:
 3294 01e2 6F73616C 		.ascii	"osalSysLock\000"
 3294      5379734C 
 3294      6F636B00 
 3295              	.LASF100:
 3296 01ee 6D757465 		.ascii	"mutex_t\000"
 3296      785F7400 
 3297              	.LASF144:
 3298 01f6 76616C75 		.ascii	"value\000"
 3298      6500
 3299              	.LASF76:
 3300 01fc 69646C65 		.ascii	"idle_thread_wa\000"
 3300      5F746872 
 3300      6561645F 
 3300      776100
 3301              	.LASF24:
 3302 020b 636E745F 		.ascii	"cnt_t\000"
 3302      7400
 3303              	.LASF0:
 3304 0211 756E7369 		.ascii	"unsigned int\000"
 3304      676E6564 
 3304      20696E74 
 3304      00
 3305              	.LASF60:
 3306 021e 76745F6E 		.ascii	"vt_next\000"
 3306      65787400 
 3307              	.LASF89:
 3308 0226 77747365 		.ascii	"wtsemp\000"
 3308      6D7000
 3309              	.LASF38:
 3310 022d 705F6D73 		.ascii	"p_msgqueue\000"
 3310      67717565 
 3310      756500
 3311              	.LASF126:
 3312 0238 65787453 		.ascii	"extStop\000"
 3312      746F7000 
 3313              	.LASF138:
 3314 0240 6578745F 		.ascii	"ext_lld_start\000"
 3314      6C6C645F 
 3314      73746172 
 3314      7400
 3315              	.LASF94:
 3316 024e 735F636E 		.ascii	"s_cnt\000"
 3316      7400
 3317              	.LASF80:
 3318 0254 636F6E74 		.ascii	"context\000"
 3318      65787400 
 3319              	.LASF4:
 3320 025c 73686F72 		.ascii	"short unsigned int\000"
 3320      7420756E 
 3320      7369676E 
 3320      65642069 
 3320      6E7400
ARM GAS  /tmp/ccJeoyMt.s 			page 84


 3321              	.LASF45:
 3322 026f 63685F74 		.ascii	"ch_thread\000"
 3322      68726561 
 3322      6400
 3323              	.LASF114:
 3324 0279 45585443 		.ascii	"EXTConfig\000"
 3324      6F6E6669 
 3324      6700
 3325              	.LASF143:
 3326 0283 2F6E6673 		.ascii	"/nfs/nfs4/home/jvgaeta/P442WifiTrailCounterProject/"
 3326      2F6E6673 
 3326      342F686F 
 3326      6D652F6A 
 3326      76676165 
 3327 02b6 6D696C65 		.ascii	"milestone1\000"
 3327      73746F6E 
 3327      653100
 3328              	.LASF71:
 3329 02c1 63685F73 		.ascii	"ch_system_t\000"
 3329      79737465 
 3329      6D5F7400 
 3330              	.LASF18:
 3331 02cd 746D6F64 		.ascii	"tmode_t\000"
 3331      655F7400 
 3332              	.LASF50:
 3333 02d5 63685F72 		.ascii	"ch_ready_list\000"
 3333      65616479 
 3333      5F6C6973 
 3333      7400
 3334              	.LASF23:
 3335 02e3 6576656E 		.ascii	"eventmask_t\000"
 3335      746D6173 
 3335      6B5F7400 
 3336              	.LASF6:
 3337 02ef 5F5F696E 		.ascii	"__int32_t\000"
 3337      7433325F 
 3337      7400
 3338              	.LASF79:
 3339 02f9 73746B61 		.ascii	"stkalign_t\000"
 3339      6C69676E 
 3339      5F7400
 3340              	.LASF104:
 3341 0304 4558545F 		.ascii	"EXT_ACTIVE\000"
 3341      41435449 
 3341      564500
 3342              	.LASF37:
 3343 030f 705F7761 		.ascii	"p_waiting\000"
 3343      6974696E 
 3343      6700
 3344              	.LASF146:
 3345 0319 6F6C6463 		.ascii	"oldcp\000"
 3345      7000
 3346              	.LASF77:
 3347 031f 73697A65 		.ascii	"sizetype\000"
 3347      74797065 
 3347      00
 3348              	.LASF43:
ARM GAS  /tmp/ccJeoyMt.s 			page 85


 3349 0328 74687265 		.ascii	"thread_reference_t\000"
 3349      61645F72 
 3349      65666572 
 3349      656E6365 
 3349      5F7400
 3350              	.LASF105:
 3351 033b 65787473 		.ascii	"extstate_t\000"
 3351      74617465 
 3351      5F7400
 3352              	.LASF66:
 3353 0346 63685F76 		.ascii	"ch_virtual_timers_list\000"
 3353      69727475 
 3353      616C5F74 
 3353      696D6572 
 3353      735F6C69 
 3354              	.LASF132:
 3355 035d 65787443 		.ascii	"extChannelDisable\000"
 3355      68616E6E 
 3355      656C4469 
 3355      7361626C 
 3355      6500
 3356              	.LASF67:
 3357 036f 76745F6C 		.ascii	"vt_lasttime\000"
 3357      61737474 
 3357      696D6500 
 3358              	.LASF32:
 3359 037b 705F6F6C 		.ascii	"p_older\000"
 3359      64657200 
 3360              	.LASF53:
 3361 0383 725F6374 		.ascii	"r_ctx\000"
 3361      7800
 3362              	.LASF140:
 3363 0389 6578745F 		.ascii	"ext_lld_channel_enable\000"
 3363      6C6C645F 
 3363      6368616E 
 3363      6E656C5F 
 3363      656E6162 
 3364              	.LASF83:
 3365 03a0 746D5F63 		.ascii	"tm_calibration_t\000"
 3365      616C6962 
 3365      72617469 
 3365      6F6E5F74 
 3365      00
 3366              	.LASF102:
 3367 03b1 4558545F 		.ascii	"EXT_UNINIT\000"
 3367      554E494E 
 3367      495400
 3368              	.LASF56:
 3369 03bc 725F6375 		.ascii	"r_current\000"
 3369      7272656E 
 3369      7400
 3370              	.LASF55:
 3371 03c6 725F6F6C 		.ascii	"r_older\000"
 3371      64657200 
 3372              	.LASF11:
 3373 03ce 5F5F7569 		.ascii	"__uint64_t\000"
 3373      6E743634 
ARM GAS  /tmp/ccJeoyMt.s 			page 86


 3373      5F7400
 3374              	.LASF20:
 3375 03d9 74726566 		.ascii	"trefs_t\000"
 3375      735F7400 
 3376              	.LASF58:
 3377 03e1 76697274 		.ascii	"virtual_timer_t\000"
 3377      75616C5F 
 3377      74696D65 
 3377      725F7400 
 3378              	.LASF28:
 3379 03f1 705F7072 		.ascii	"p_prev\000"
 3379      657600
 3380              	.LASF22:
 3381 03f8 6D73675F 		.ascii	"msg_t\000"
 3381      7400
 3382              	.LASF21:
 3383 03fe 74707269 		.ascii	"tprio_t\000"
 3383      6F5F7400 
 3384              	.LASF69:
 3385 0406 63685F73 		.ascii	"ch_system_debug\000"
 3385      79737465 
 3385      6D5F6465 
 3385      62756700 
 3386              	.LASF101:
 3387 0416 5F426F6F 		.ascii	"_Bool\000"
 3387      6C00
 3388              	.LASF14:
 3389 041c 696E7433 		.ascii	"int32_t\000"
 3389      325F7400 
 3390              	.LASF2:
 3391 0424 756E7369 		.ascii	"unsigned char\000"
 3391      676E6564 
 3391      20636861 
 3391      7200
 3392              	.LASF122:
 3393 0432 65787449 		.ascii	"extInit\000"
 3393      6E697400 
 3394              	.LASF40:
 3395 043a 705F6D74 		.ascii	"p_mtxlist\000"
 3395      786C6973 
 3395      7400
 3396              	.LASF3:
 3397 0444 73686F72 		.ascii	"short int\000"
 3397      7420696E 
 3397      7400
 3398              	.LASF34:
 3399 044e 705F7374 		.ascii	"p_state\000"
 3399      61746500 
 3400              	.LASF52:
 3401 0456 725F7072 		.ascii	"r_prio\000"
 3401      696F00
 3402              	.LASF91:
 3403 045d 65776D61 		.ascii	"ewmask\000"
 3403      736B00
 3404              	.LASF27:
 3405 0464 705F6E65 		.ascii	"p_next\000"
 3405      787400
ARM GAS  /tmp/ccJeoyMt.s 			page 87


 3406              	.LASF35:
 3407 046b 705F666C 		.ascii	"p_flags\000"
 3407      61677300 
 3408              	.LASF136:
 3409 0473 5F5F6675 		.ascii	"__func__.7104\000"
 3409      6E635F5F 
 3409      2E373130 
 3409      3400
 3410              	.LASF117:
 3411 0481 63685379 		.ascii	"chSysLock\000"
 3411      734C6F63 
 3411      6B00
 3412              	.LASF72:
 3413 048b 63685F73 		.ascii	"ch_system\000"
 3413      79737465 
 3413      6D00
 3414              	.LASF121:
 3415 0495 6F73616C 		.ascii	"osalSysUnlock\000"
 3415      53797355 
 3415      6E6C6F63 
 3415      6B00
 3416              	.LASF130:
 3417 04a3 6368616E 		.ascii	"channel\000"
 3417      6E656C00 
 3418              	.LASF59:
 3419 04ab 63685F76 		.ascii	"ch_virtual_timer\000"
 3419      69727475 
 3419      616C5F74 
 3419      696D6572 
 3419      00
 3420              	.LASF92:
 3421 04bc 63685F73 		.ascii	"ch_semaphore\000"
 3421      656D6170 
 3421      686F7265 
 3421      00
 3422              	.LASF39:
 3423 04c9 705F6570 		.ascii	"p_epending\000"
 3423      656E6469 
 3423      6E6700
 3424              	.LASF15:
 3425 04d4 75696E74 		.ascii	"uint32_t\000"
 3425      33325F74 
 3425      00
 3426              	.LASF90:
 3427 04dd 77746D74 		.ascii	"wtmtxp\000"
 3427      787000
 3428              	.LASF51:
 3429 04e4 725F7175 		.ascii	"r_queue\000"
 3429      65756500 
 3430              	.LASF62:
 3431 04ec 76745F64 		.ascii	"vt_delta\000"
 3431      656C7461 
 3431      00
 3432              	.LASF46:
 3433 04f5 63685F74 		.ascii	"ch_threads_list\000"
 3433      68726561 
 3433      64735F6C 
ARM GAS  /tmp/ccJeoyMt.s 			page 88


 3433      69737400 
 3434              	.LASF9:
 3435 0505 6C6F6E67 		.ascii	"long unsigned int\000"
 3435      20756E73 
 3435      69676E65 
 3435      6420696E 
 3435      7400
 3436              	.LASF103:
 3437 0517 4558545F 		.ascii	"EXT_STOP\000"
 3437      53544F50 
 3437      00
 3438              	.LASF99:
 3439 0520 63686172 		.ascii	"char\000"
 3439      00
 3440              	.LASF111:
 3441 0525 6D6F6465 		.ascii	"mode\000"
 3441      00
 3442              	.LASF108:
 3443 052a 636F6E66 		.ascii	"config\000"
 3443      696700
 3444              	.LASF110:
 3445 0531 65787463 		.ascii	"extcallback_t\000"
 3445      616C6C62 
 3445      61636B5F 
 3445      7400
 3446              	.LASF26:
 3447 053f 74687265 		.ascii	"thread_t\000"
 3447      61645F74 
 3447      00
 3448              	.LASF98:
 3449 0548 6D5F6E65 		.ascii	"m_next\000"
 3449      787400
 3450              	.LASF25:
 3451 054f 73797374 		.ascii	"systime_t\000"
 3451      696D655F 
 3451      7400
 3452              	.LASF41:
 3453 0559 705F7265 		.ascii	"p_realprio\000"
 3453      616C7072 
 3453      696F00
 3454              	.LASF57:
 3455 0564 76746675 		.ascii	"vtfunc_t\000"
 3455      6E635F74 
 3455      00
 3456              	.LASF8:
 3457 056d 5F5F7569 		.ascii	"__uint32_t\000"
 3457      6E743332 
 3457      5F7400
 3458              	.LASF118:
 3459 0578 5F5F7365 		.ascii	"__set_BASEPRI\000"
 3459      745F4241 
 3459      53455052 
 3459      4900
 3460              	.LASF70:
 3461 0586 70616E69 		.ascii	"panic_msg\000"
 3461      635F6D73 
 3461      6700
ARM GAS  /tmp/ccJeoyMt.s 			page 89


 3462              	.LASF82:
 3463 0590 6F666673 		.ascii	"offset\000"
 3463      657400
 3464              	.LASF145:
 3465 0597 5F5F6675 		.ascii	"__func__.5700\000"
 3465      6E635F5F 
 3465      2E353730 
 3465      3000
 3466              	.LASF17:
 3467 05a5 7274636E 		.ascii	"rtcnt_t\000"
 3467      745F7400 
 3468              	.LASF142:
 3469 05ad 2E2E2F43 		.ascii	"../ChibiOS/os/hal/src/ext.c\000"
 3469      68696269 
 3469      4F532F6F 
 3469      732F6861 
 3469      6C2F7372 
 3470              	.LASF64:
 3471 05c9 76745F70 		.ascii	"vt_par\000"
 3471      617200
 3472              	.LASF129:
 3473 05d0 65787443 		.ascii	"extChannelEnable\000"
 3473      68616E6E 
 3473      656C456E 
 3473      61626C65 
 3473      00
 3474              	.LASF106:
 3475 05e1 45585444 		.ascii	"EXTDriver\000"
 3475      72697665 
 3475      7200
 3476              	.LASF47:
 3477 05eb 74687265 		.ascii	"threads_queue_t\000"
 3477      6164735F 
 3477      71756575 
 3477      655F7400 
 3478              	.LASF95:
 3479 05fb 63685F6D 		.ascii	"ch_mutex\000"
 3479      75746578 
 3479      00
 3480              	.LASF36:
 3481 0604 705F7265 		.ascii	"p_refs\000"
 3481      667300
 3482              	.LASF73:
 3483 060b 726C6973 		.ascii	"rlist\000"
 3483      7400
 3484              	.LASF13:
 3485 0611 75696E74 		.ascii	"uint8_t\000"
 3485      385F7400 
 3486              	.LASF127:
 3487 0619 5F5F6675 		.ascii	"__func__.7083\000"
 3487      6E635F5F 
 3487      2E373038 
 3487      3300
 3488              	.LASF141:
 3489 0627 474E5520 		.ascii	"GNU C 4.8.4 20140526 (release) [ARM/embedded-4_8-br"
 3489      4320342E 
 3489      382E3420 
ARM GAS  /tmp/ccJeoyMt.s 			page 90


 3489      32303134 
 3489      30353236 
 3490 065a 616E6368 		.ascii	"anch revision 211358] -mcpu=cortex-m4 -mno-thumb-in"
 3490      20726576 
 3490      6973696F 
 3490      6E203231 
 3490      31333538 
 3491 068d 74657277 		.ascii	"terwork -mthumb -ggdb -O2 -fomit-frame-pointer -fal"
 3491      6F726B20 
 3491      2D6D7468 
 3491      756D6220 
 3491      2D676764 
 3492 06c0 69676E2D 		.ascii	"ign-functions=16 -ffunction-sections -fdata-section"
 3492      66756E63 
 3492      74696F6E 
 3492      733D3136 
 3492      202D6666 
 3493 06f3 73202D66 		.ascii	"s -fno-common -flto\000"
 3493      6E6F2D63 
 3493      6F6D6D6F 
 3493      6E202D66 
 3493      6C746F00 
 3494              	.LASF86:
 3495 0707 77746F62 		.ascii	"wtobjp\000"
 3495      6A7000
 3496              	.LASF33:
 3497 070e 705F6E61 		.ascii	"p_name\000"
 3497      6D6500
 3498              	.LASF128:
 3499 0715 5F5F6675 		.ascii	"__func__.7087\000"
 3499      6E635F5F 
 3499      2E373038 
 3499      3700
 3500              	.LASF44:
 3501 0723 74687265 		.ascii	"threads_list_t\000"
 3501      6164735F 
 3501      6C697374 
 3501      5F7400
 3502              	.LASF119:
 3503 0732 63685379 		.ascii	"chSysUnlock\000"
 3503      73556E6C 
 3503      6F636B00 
 3504              	.LASF97:
 3505 073e 6D5F6F77 		.ascii	"m_owner\000"
 3505      6E657200 
 3506              	.LASF30:
 3507 0746 705F6374 		.ascii	"p_ctx\000"
 3507      7800
 3508              	.LASF63:
 3509 074c 76745F66 		.ascii	"vt_func\000"
 3509      756E6300 
 3510              	.LASF135:
 3511 0754 65787463 		.ascii	"extcp\000"
 3511      7000
 3512              		.comm	__gnu_lto_v1,1,1
 3513              		.ident	"GCC: (GNU Tools for ARM Embedded Processors) 4.8.4 20140526 (release) [ARM/embedded-4_8-br
ARM GAS  /tmp/ccJeoyMt.s 			page 91


DEFINED SYMBOLS
                            *ABS*:00000000 ext.c
     /tmp/ccJeoyMt.s:396    .text.extInit:00000000 $t
     /tmp/ccJeoyMt.s:402    .text.extInit:00000000 extInit
     /tmp/ccJeoyMt.s:417    .text.extObjectInit:00000000 $t
     /tmp/ccJeoyMt.s:423    .text.extObjectInit:00000000 extObjectInit
     /tmp/ccJeoyMt.s:444    .text.extStart:00000000 $t
     /tmp/ccJeoyMt.s:450    .text.extStart:00000000 extStart
     /tmp/ccJeoyMt.s:523    .text.extStop:00000000 $t
     /tmp/ccJeoyMt.s:529    .text.extStop:00000000 extStop
     /tmp/ccJeoyMt.s:599    .text.extChannelEnable:00000000 $t
     /tmp/ccJeoyMt.s:605    .text.extChannelEnable:00000000 extChannelEnable
     /tmp/ccJeoyMt.s:658    .text.extChannelDisable:00000000 $t
     /tmp/ccJeoyMt.s:664    .text.extChannelDisable:00000000 extChannelDisable
     /tmp/ccJeoyMt.s:717    .text.extSetChannelModeI:00000000 $t
     /tmp/ccJeoyMt.s:723    .text.extSetChannelModeI:00000000 extSetChannelModeI
                            *COM*:00000001 __gnu_lto_v1
                     .debug_frame:00000010 $d

UNDEFINED SYMBOLS
ext_lld_init
ext_lld_start
ext_lld_stop
ext_lld_channel_enable
ext_lld_channel_disable
