ARM GAS  /tmp/cctsBWOj.s 			page 1


   1              		.syntax unified
   2              		.cpu cortex-m4
   3              		.fpu softvfp
   4              		.eabi_attribute 20, 1
   5              		.eabi_attribute 21, 1
   6              		.eabi_attribute 23, 3
   7              		.eabi_attribute 24, 1
   8              		.eabi_attribute 25, 1
   9              		.eabi_attribute 26, 1
  10              		.eabi_attribute 30, 2
  11              		.eabi_attribute 34, 1
  12              		.eabi_attribute 18, 4
  13              		.thumb
  14              		.file	"memstreams.c"
  15              		.text
  16              	.Ltext0:
  17              		.section	.gnu.lto_.jmpfuncs.a9a3eb057f3645f8,"",%progbits
  18 0000 789C6362 		.ascii	"x\234cb`b\300\006T\2404+\0033##\023;33\003\003c\031"
  18      6062C006 
  18      54A0342B 
  18      03332323 
  18      133B3333 
  19 0018 23588899 		.ascii	"#X\210\231\035\310\201\363Y\370\031\000\032\264\001"
  19      1DC881F3 
  19      59F81900 
  19      1AB401
  20 0027 55       		.ascii	"U"
  21              		.text
  22              		.section	.gnu.lto_.inline.a9a3eb057f3645f8,"",%progbits
  23 0000 789C6362 		.ascii	"x\234cb`b\300\006\032\031!4+\003\003/\017#3\003\220"
  23      6062C006 
  23      1A192134 
  23      2B03032F 
  23      0F233303 
  24 0015 CBEC0026 		.ascii	"\313\354\000&\023\300\244\002\027\333\004=\006\216\013"
  24      13C0A402 
  24      17DB043D 
  24      068E0B
  25 0024 7A4C0C8C 		.ascii	"zL\014\214/\330Y $\210\340\00039\030X\026\310\36300"
  25      2FD85920 
  25      2488E000 
  25      33391858 
  25      16C8F330 
  26 0039 DE601760 		.ascii	"\336`\027`\002\223\014L\033\370%@\00622\360pC\315\203"
  26      02930C4C 
  26      1BF82540 
  26      063232F0 
  26      7043CD83 
  27 004d 98D4C008 		.ascii	"\230\324\300\0105\220\271C\234\201\375\207\032\026\003"
  27      3590B943 
  27      9C81FD87 
  27      1A1603
  28 005c 996788E3 		.ascii	"\231g\210\3436\220\211AP\222\221\005\305@&F\210M@S\271"
  28      36908941 
  28      50929105 
  28      C5402646 
  28      884D4053 
ARM GAS  /tmp/cctsBWOj.s 			page 2


  29 0071 81DA1838 		.ascii	"\201\332\0308>\340t&\323\005~\036\220\3212 \256\002"
  29      3EE07426 
  29      D3057E1E 
  29      90D13220 
  29      AE02
  30 0083 58500124 		.ascii	"XP\001$\250\0012\201\205\027h\304\004?\020dF\330\002"
  30      A8013281 
  30      851768C4 
  30      043F1064 
  30      46D802
  31 0096 0D061A58 		.ascii	"\015\006\032X\302\302\300\301\316\310\300\304\332\241"
  31      C2C2C0C1 
  31      CEC8C0C4 
  31      DAA1
  32 00a4 CEC0BDC2 		.ascii	"\316\300\275\302\015\0221\000-\3633\312"
  32      0D123100 
  32      2DF333CA 
  33              		.text
  34              		.section	.gnu.lto_.pureconst.a9a3eb057f3645f8,"",%progbits
  35 0000 789C6362 		.ascii	"x\234cb`b\340f\200\000V\006)F)&)f)\026)\000\004)\000"
  35      6062E066 
  35      80005606 
  35      29462926 
  35      29662916 
  36 0019 A1       		.ascii	"\241"
  37              		.text
  38              		.section	.gnu.lto_put.a9a3eb057f3645f8,"",%progbits
  39 0000 789C8D92 		.ascii	"x\234\215\222\317K\033A\024\307\337wfw\223\230X{\360"
  39      CF4B1B41 
  39      14C7DF77 
  39      66779398 
  39      587BF0
  40 0013 D25BF068 		.ascii	"\322[\360h \213\364O\350\251\247\036j\300\036\223 q"
  40      208BF44F 
  40      E8A9A71E 
  40      6AC01E93 
  40      2071
  41 0025 C14531BD 		.ascii	"\301E1\275g\242\036\012\275\204\022\260UA\355\241\202"
  41      67A21E0A 
  41      BD8412B0 
  41      5541EDA1 
  41      82
  42 0036 94DAD28B 		.ascii	"\224\332\322\213\307\034$(\375A<\352)\020\320\213\027"
  42      C71C2428 
  42      FD413CEA 
  42      2910D08B 
  42      17
  43 0047 6F3D19DF 		.ascii	"o=\031\337\233u\267\020J\333\201}3\373\336\373|\347"
  43      9B75B710 
  43      4ADB817D 
  43      33FBDEFB 
  43      7CE7
  44 0059 BD9951A4 		.ascii	"\275\231Q\244ht<\346o\235\3353<\303%\250\326O\242fZ"
  44      68743CE6 
  44      6F9DDD33 
  44      3CC325A8 
  44      D64FA266 
ARM GAS  /tmp/cctsBWOj.s 			page 3


  45 006e 29670764 		.ascii	")g\007d\306\364\315w\"\223\323p\"\277\003\310\202@\015"
  45      C6F4CD77 
  45      2293D370 
  45      22BF03C8 
  45      82400D
  46 0081 A51D345E 		.ascii	"\245\0354^\300\252\034\252N\1778\374\324\356\356\177"
  46      C0AA1CAA 
  46      4E7F38FC 
  46      D4EEEE7F 
  47 0091 C43BF500 		.ascii	"\304;\365\000\024\2004B\220\313+xbRlTZL\206\003\310"
  47      14803442 
  47      90CB2B78 
  47      62526C54 
  47      5A4C8603 
  48 00a6 8A2F2786 		.ascii	"\212/'\206q\227\326\215i\345\247h\317\2307\235\215n"
  48      7197D68D 
  48      69E5A768 
  48      CF98379D 
  48      8D6E
  49 00b8 FB91D95D 		.ascii	"\373\221\331]m\231\333\341\020\001\264\242\"\250\012"
  49      6D99DBE1 
  49      1001B4A2 
  49      22A80A
  50 00c7 9AE31F27 		.ascii	"\232\343\037'o'\327\031\355\243j\013\231e+\365\225\240"
  50      6F27D719 
  50      EDA36A0B 
  50      99652BF5 
  50      95A0
  51 00d9 64D6A7A4 		.ascii	"d\326\247\244\312\330\343\276\312x\217)\252A\023\375"
  51      CAD8E3BE 
  51      CA788F29 
  51      AA4113FD 
  52 00e9 A0D58BA3 		.ascii	"\240\325\213\243A\017Q\240\006\267@\323\001\274-\332"
  52      410F51A0 
  52      06B740D3 
  52      01BC2DDA 
  53 00f9 64E114A7 		.ascii	"d\341\024\247\310\006\332\212V\020\313\013\324\313\306"
  53      C806DA8A 
  53      5610CB0B 
  53      D4CBC6
  54 0108 88F73724 		.ascii	"\210\3677$fN\350\370\2529\236\354\302\324\357jK\234"
  54      664EE8F8 
  54      AA399EEC 
  54      C2D4EF6A 
  54      4B9C
  55 011a CD27AB45 		.ascii	"\315'\253E\366\327\240\223\324\222\262\302\352\317\302"
  55      F6D7A093 
  55      D492B2C2 
  55      EACFC2
  56 0129 2AA965ED 		.ascii	"*\251e\355\365\332\207\204I\327$\323\2635~\373<\021"
  56      F5DA8784 
  56      49D724D3 
  56      B3357EFB 
  56      3C11
  57 013b B959A169 		.ascii	"\271Y\241i\214I\005\022N\213JD\327\220\211\232y{\331"
  57      8C490512 
  57      4E8B4A44 
ARM GAS  /tmp/cctsBWOj.s 			page 4


  57      D790899A 
  57      797BD9
  58 014e 4F14B205 		.ascii	"O\024\262\005:\340\344\207\377l\211w~\245c*\307\240"
  58      3AE0E487 
  58      FF6C8977 
  58      7EA5632A 
  58      C7A0
  59 0160 247988CE 		.ascii	"$y\210\316\347i\024\370?-\306\343\223p\354M\235\361"
  59      E76914F8 
  59      3F2DC6E3 
  59      9370EC4D 
  59      9DF1
  60 0172 E312B70D 		.ascii	"\343\022\267\015\237\023\004!~\000\321@C]\177\231\264"
  60      9F130421 
  60      7E00D140 
  60      435D7F99 
  60      B4
  61 0183 3E22BDFD 		.ascii	">\"\275\3755'W\015\001\245\255B\261\350?Y\010*\301\263"
  61      3527570D 
  61      01A5AD42 
  61      B1E83F59 
  61      082AC1B3 
  62 0197 E7FE52DD 		.ascii	"\347\376R\335_(/\372\213A\305\257\277\\\231/\207u?\234"
  62      5F282FFA 
  62      8B41C5AF 
  62      BF5C992F 
  62      87753F9C 
  63 01ab 0FEF97C5 		.ascii	"\017\357\227\305*\351\260\276|\007\2402\2372"
  63      2AE9B0BE 
  63      7C07A032 
  63      9F32
  64              		.text
  65              		.section	.gnu.lto_get.a9a3eb057f3645f8,"",%progbits
  66 0000 789C8592 		.ascii	"x\234\205\222\317k\023A\024\307\337wf7\233\304\024+"
  66      CF6B1341 
  66      14C7DF77 
  66      66379BC4 
  66      142B
  67 0012 94424F16 		.ascii	"\224BO\026\217\006\262\202\177\202'O\036\264\320\036"
  67      8F06B282 
  67      7F82274F 
  67      1EB4D01E 
  68 0022 37A1A40B 		.ascii	"7\241\244\013]*\306{&\211\202 \205 \202b\005\033\252"
  68      5D2AC67B 
  68      26898220 
  68      85208262 
  68      051BAA
  69 0035 974269A1 		.ascii	"\227Bi\241\264\207\202\220\203\210\205(\366V=\305S\241"
  69      B4878290 
  69      83888528 
  69      F6563DC5 
  69      53A1
  70 0047 07D1BB18 		.ascii	"\007\321\273\030\337\233\311\256XD\007\362f2\363\276"
  70      DF9BC9AE 
  70      584407F2 
  70      6632F3BE 
  71 0057 9FF76B15 		.ascii	"\237\367k\025):\273\256\362\357@\271\035>Au?\020\265"
ARM GAS  /tmp/cctsBWOj.s 			page 5


  71      293ABBAE 
  71      F2EF40B9 
  71      1D3E4175 
  71      3F10B5
  72 006a F24A792F 		.ascii	"\362Jy/@\246\250\277\017\210LI\303s\367\036 \007\002"
  72      40A6A8BF 
  72      0F884C49 
  72      C373F71E 
  72      200702
  73 007d 3595F6D0 		.ascii	"5\225\366\320\\\200@p\211z\306<\032\276:9\306\023\323"
  73      5C804070 
  73      897AC63C 
  73      1ABE3A39 
  73      C613D3
  74 0090 6FAD9B1F 		.ascii	"o\255\233\037\243\021\020\203\003V@5\320<\377A\336n"
  74      A3111083 
  74      03564035 
  74      D03CFF41 
  74      DE6E
  75 00a2 0A7F66B0 		.ascii	"\012\177f\260\255\372\303\321h\260\373\355\313\026."
  75      ADFAC3D1 
  75      68B0FBED 
  75      CB162E
  76 00b1 4C806268 		.ascii	"L\200bh\215\004\344\363\311\313\211\011\330\370y1\005"
  76      8D04E4F3 
  76      C9CB8909 
  76      D8F87931 
  76      05
  77 00c2 8AD0E368 		.ascii	"\212\320\343hE\271.\211+\003|\272gLw\326\275\270L\372"
  77      45B92E89 
  77      2B037CBA 
  77      674C77D6 
  77      BDB84CFA 
  78 00d6 AFDF3E9E 		.ascii	"\257\337>\2361\353\355\256\371\311\211\304\310)\272"
  78      31EBEDAE 
  78      F9C989C4 
  78      C829BA
  79 00e5 F23B8F59 		.ascii	"\362;\217Y\227\207w\266\0275\233\331-\266R\343\034\224"
  79      978777B6 
  79      17359BD9 
  79      2DB652E3 
  79      1C94
  80 00f7 ECFA9054 		.ascii	"\354\372\220T\204\015\356M\204\227\034\240.1\337S\373"
  80      840DEE4D 
  80      84971CA0 
  80      2E31DF53 
  80      FB
  81 0108 F3D3D38F 		.ascii	"\363\323\323\217p\017u\370e\272\034#X\243g\014\316\263"
  81      700F75F8 
  81      65BA1C23 
  81      58A3670C 
  81      CEB3
  82 011a 8B04C859 		.ascii	"\213\004\310Yh5+WD;\347RI\356_\222T\363\216\336\234"
  82      68352B57 
  82      443BE752 
  82      49EE5F92 
  82      54F38EDE 
ARM GAS  /tmp/cctsBWOj.s 			page 6


  83 012f B426B228 		.ascii	"\264&\262(\365\261\203]s\234\010OG\013\366\370t\230"
  83      F5B1835D 
  83      739C084F 
  83      470BF6F8 
  83      7498
  84 0141 E51258B0 		.ascii	"\345\022X\260\377w\260\312r\351<\354\354g\032v\013,"
  84      FF77B0CA 
  84      72E93CEC 
  84      EC671A76 
  84      0B2C
  85 0153 9C6107F7 		.ascii	"\234a\007\367\247\323\353\002CZ\306\230\363<Iv\022\220"
  85      A7D3EB02 
  85      435AC698 
  85      F33C4976 
  85      1290
  86 0165 3F061C52 		.ascii	"?\006\034R\273\357\247}\351\331\276\024,\366Ag{\365"
  86      BBEFA77D 
  86      E9D9BE14 
  86      2CF64167 
  86      7BF5
  87 0177 620A2832 		.ascii	"b\012(2TT\001\\\375\327\335C\2316\231:\371\237\362Y"
  87      5454015C 
  87      FDD7DD43 
  87      9936993A 
  87      F99FF259 
  88 018b 6E455F3B 		.ascii	"nE_;\273\253:%\226l\034W\277g\347s\304\237\2458[\321"
  88      BBAB3A25 
  88      966C1C57 
  88      BF67E773 
  88      C49FA538 
  89 01a1 27828034 		.ascii	"'\202\2004\217\335-4\325\363\275)\326\351\301^I\206"
  89      8FDD2D34 
  89      D5F3BD29 
  89      D6E9C15E 
  89      4986
  90 01b3 0B11491B 		.ascii	"\013\021I\033\312\225Jxm)\256\3067n\206+\215p)Z\016"
  90      CA954A78 
  90      6D29AEC6 
  90      376E862B 
  90      8D70295A 
  91 01c8 97E36AD8 		.ascii	"\227\343j\330\270{g1J\032a\262\230\214\217\225\032\241"
  91      B87B6731 
  91      4A1A61B2 
  91      988C8F95 
  91      1AA1
  92 01da AA93C6ED 		.ascii	"\252\223\306\355_c\206\260k"
  92      5F6386B0 
  92      6B
  93              		.text
  94              		.section	.gnu.lto_reads.a9a3eb057f3645f8,"",%progbits
  95 0000 789C8D52 		.ascii	"x\234\215R\277k\024A\030}ofvo\357\274\363\"XKH\351\301"
  95      BF6B1441 
  95      187D6F66 
  95      766FEFBC 
  95      F322584B 
  96 0017 2DFA2F58 		.ascii	"-\372/XYYh \226wG\274,dQ<;\213\314\335Y\234\330\204"
  96      59596820 
ARM GAS  /tmp/cctsBWOj.s 			page 7


  96      967747BC 
  96      2C64513C 
  96      3B8BCCDD 
  97 002f 94118404 		.ascii	"\224\021\204\004\322\244H\304J!E\212\024\006\374\201"
  97      D2A448C4 
  97      4A21458A 
  97      1406FC81 
  98 003f 90426D72 		.ascii	"\220Bmr \326\006lD\204\365\233\335\033#!\030\007\366"
  98      20D6066C 
  98      4484F59B 
  98      DD1B2321 
  98      1807F6
  99 0052 9BD9F77D 		.ascii	"\233\331\367}\357\315\373>FA\341\344\272*\337\013\201"
  99      EFCDFB3E 
  99      4641E1E4 
  99      BA2ADF0B 
  99      81
 100 0063 AFC8CE00 		.ascii	"\257\310\316\000T\313\357\200~\244\224>\210a+f\347\022"
 100      54CBEF80 
 100      7EA4943E 
 100      88612B66 
 100      E712
 101 0075 6C55D314 		.ascii	"lU\323\024\260!\335\001\304\222\322\206K\267\231\213"
 101      B021DD01 
 101      C492D286 
 101      4BB7998B 
 102 0085 6CABDD71 		.ascii	"l\253\335q\226m\035\275\3722\342\205:\221\022\212)i"
 102      966D1DBD 
 102      FA32E285 
 102      3A91128A 
 102      2969
 103 0097 9010810B 		.ascii	"\220\020\201\013\241\013%\301\020\311\211e\011\252\""
 103      A10B25C1 
 103      10C98965 
 103      09AA22
 104 00a6 BFAAEA12 		.ascii	"\277\252\352\0225\027d\005xd\355\362\364\014\326\254"
 104      35176405 
 104      7864EDF2 
 104      F40CD6AC 
 105 00b6 5DD9FDBE 		.ascii	"]\331\375\276\261O\273b\373GYVO\250\025\232D\207\230"
 105      B14FBB62 
 105      FB475956 
 105      4FA8159A 
 105      448798
 106 00c9 6342339D 		.ascii	"cB3\235o\2019\331N'\327\271%\321\371\234\245r\273\336"
 106      6F8139D9 
 106      4E27D7B9 
 106      25D1F99C 
 106      A572BBDE 
 107 00dd 876A714D 		.ascii	"\207jqM\332kq\2353\350\012\214\267\030|\376\361\254"
 107      DA6B719D 
 107      33E80A8C 
 107      B7187CFE 
 107      F1AC
 108 00ef 56E05D9A 		.ascii	"V\340]\232\006.'\014\237bUtKR\341\364u\256\331\246W"
 108      062E270C 
 108      9F625574 
ARM GAS  /tmp/cctsBWOj.s 			page 8


 108      4B52E1F4 
 108      75AED9A6 
 109 0104 779CE7E7 		.ascii	"w\234\347\347<%\370\027\205\177(\303\307\303uzN(7\011"
 109      3C25F817 
 109      857F28C3 
 109      C7C3757A 
 109      4E283709 
 110 0118 13788DBD 		.ascii	"\023x\215\275\257\375\332_p\351\270\211YQ9\210\305\365"
 110      AFFDDA5F 
 110      70E9B889 
 110      59513988 
 110      C5F5
 111 012a 60FCEB7C 		.ascii	"`\374\353|Q\"\203\223*\2376\223\256\006\021\212\014"
 111      51228393 
 111      2A9F3693 
 111      AE06118A 
 111      0C
 112 013b 0B6F2F0F 		.ascii	"\013o/\017/z\305(7\307\323\315\251csO\206w<\245,\254"
 112      2F7AC528 
 112      37C7D3CD 
 112      A963734F 
 112      86773CA5 
 113 0151 DCDB7B84 		.ascii	"\334\333{\204\005\006<\304O;\262S\011\243\316\244\245"
 113      05063CC4 
 113      4F3BB253 
 113      09A3CEA4 
 113      A5
 114 0162 2E2B79A9 		.ascii	".+y\251\310\225\213[?\036\326\275D\265\201Mk]\375\331"
 114      C8958B5B 
 114      3F1ED6BD 
 114      44B5814D 
 114      6B5DFDD9 
 115 0176 631969CF 		.ascii	"c\031i\317\252\011\321\367p\275\000\377OG\250\300\007"
 115      AA09D1F7 
 115      70BD00FF 
 115      4F47A8C0 
 115      07
 116 0187 F4C759E8 		.ascii	"\364\307Y\350\265\362\304'P\006\252$\204\372\3157\272"
 116      B5F2C427 
 116      5006AA24 
 116      84FACD37 
 116      BA
 117 0198 07413732 		.ascii	"\007A72\327w\243\331\214\257-$\355\344\306\315\370n"
 117      D777A3D9 
 117      8CAF2D24 
 117      EDE4C6CD 
 117      F86E
 118 01aa 2F5E682D 		.ascii	"/^h-\306\213I;\356=\270?\337J{q:\237N\216\315\016t\332"
 118      C68B493B 
 118      EE3DB83F 
 118      DF4A7B71 
 118      3A9F4E8E 
 119 01c2 BBF71BC3 		.ascii	"\273\367\033\303\313\235\342"
 119      CB9DE2
 120              		.text
 121              		.section	.gnu.lto_writes.a9a3eb057f3645f8,"",%progbits
 122 0000 789C8D52 		.ascii	"x\234\215R=kTA\024=gf\336\333\227u7\361\027HH\351\302"
ARM GAS  /tmp/cctsBWOj.s 			page 9


 122      3D6B5441 
 122      143D6766 
 122      DEDB9775 
 122      37F11748 
 123 0017 3EF42F58 		.ascii	">\364/XYYh@\313\335%\037\003y*\256\235Efw-\"6!\225$"
 123      59596840 
 123      CBDD251F 
 123      03792AAE 
 123      9D456677 
 124 0031 55025A88 		.ascii	"U\002Z\210(v\026\201\244H\221\024~A\032S-\210\215\020"
 124      28761681 
 124      A4489114 
 124      7E411A53 
 124      2D888D10 
 125 0045 B011C466 		.ascii	"\260\021\304f\2753o'\221 \352\300\273w\336\271\367\234"
 125      BD336F27 
 125      9120EAC0 
 125      BB77DEB9 
 125      F79C
 126 0057 FBF19E82 		.ascii	"\373\361\236\202\302\331sY\236\327\002_\022\317\004"
 126      C2D97359 
 126      9ED7025F 
 126      12CF04
 127 0066 54ABEF80 		.ascii	"T\253\357\200^\246\224>\314\341\252f\373\002\\M\323"
 127      5EA6943E 
 127      CCE1AA66 
 127      FB025C4D 
 127      D3
 128 0077 94B021FD 		.ascii	"\224\260!\375\005\304\262\322\206\313\267\030D^\251"
 128      05C4B2D2 
 128      86CBB718 
 128      445EA9
 129 0086 DDE168F4 		.ascii	"\335\341h\364r\373\373\347\333\234\"\012B\261 \015,"
 129      72FBFBE7 
 129      DB9C220A 
 129      42B1200D 
 129      2C
 130 0097 9178937A 		.ascii	"\221x\223zS\021\014\231\3348!FU\345U\325|\240\356\215"
 130      53110C99 
 130      DC382146 
 130      55E555D5 
 130      7CA0EE8D 
 131 00ab 9C040F9D 		.ascii	"\234\004\017\235[\235\236\301\246sk\273;O\017\350\326"
 131      5B9D9EC1 
 131      A6736BBB 
 131      3B4F0FE8 
 131      D6
 132 00bc 5CEFDB68 		.ascii	"\\\357\333h4e\251\025\232D\207\270IK3\035\\b\316N\323"
 132      3465A915 
 132      9A4487B8 
 132      494B331D 
 132      5C62CE4E 
 133 00d1 093A37C4 		.ascii	"\011:7\304\3726g\251\274\327\007P-n\312t-nq\006\013"
 133      FA3667A9 
 133      BCD70750 
 133      2D6ECA74 
 133      2D6E7106 
ARM GAS  /tmp/cctsBWOj.s 			page 10


 134 00e6 02E32DFA 		.ascii	"\002\343-\372Go\326\353%\276@\323\300E\313t\003\353"
 134      476FD6EB 
 134      25BE40D3 
 134      C045CB74 
 134      03EB
 135 00f8 A25B910C 		.ascii	"\242[\221\014\257\257\203f\233Q\335s>\234\213\224\344"
 135      AFAF8366 
 135      9B51DD73 
 135      3E9C8B94 
 135      E4
 136 0109 6F149E50 		.ascii	"o\024\236P\006\217\006\317\0309\251T\022&\260\217\275"
 136      068F06CF 
 136      1839A954 
 136      1226B08F 
 136      BD
 137 011a 2FBDFA6F 		.ascii	"/\275\372op\345t\210YQ9\314\245\353\376\360\353d\231"
 137      70E57488 
 137      595139CC 
 137      A5EBFEF0 
 137      EB6499
 138 012d 228B93AC 		.ascii	"\"\213\223\254\0306\343\251\372\031\312\010\313\336"
 138      1836E3A9 
 138      FA19CA08 
 138      CBDE
 139 013b 7E1C4D46 		.ascii	"~\034MF\305,4\307?7\247N\233{<\230\217\224\011a\205"
 139      C52C34C7 
 139      3F37A74E 
 139      9B7B3C98 
 139      8F940961 
 140 0150 DEDE232D 		.ascii	"\336\336#-1\340\001~\272\025w\3362\353\214G\012yU)i"
 140      31E0017E 
 140      BA1577DE 
 140      32EB8C47 
 140      0A795529 
 141 0165 E52B86AA 		.ascii	"\345+\206\252O6N\252\326\032x\356\234\317\377\367ZV"
 141      4F364EAA 
 141      D61A78EE 
 141      9CCFFFF7 
 141      5A56
 142 0177 7464D585 		.ascii	"td\325\205\030g\270Z\202\377\247#T\340#z\303\3434j\205"
 142      1867B85A 
 142      82FFA723 
 142      54E0237A 
 142      C3E3346A 
 143 018c C0275016 		.ascii	"\300'P\026\252\304\244\372\3051\375\017A\2772?w\243"
 143      AAC4A4FA 
 143      C531FD0F 
 143      41BF323F 
 143      77A3
 144 019e D9CCAF2C 		.ascii	"\331\314\257,\332\266\275v=\277\323\315\027[K\371\222"
 144      DAB6BD76 
 144      3DBFD3CD 
 144      175B4BF9 
 144      92
 145 01af 6DE7DDFB 		.ascii	"m\347\335\373\367\346ZE7/\346\212\361\265\331\201.\272"
 145      F7E65A45 
 145      372FE68A 
ARM GAS  /tmp/cctsBWOj.s 			page 11


 145      F1B5D981 
 145      2EBA
 146 01c1 777F0124 		.ascii	"w\177\001$\256\234\324"
 146      AE9CD4
 147              		.text
 148              		.section	.gnu.lto_msObjectInit.a9a3eb057f3645f8,"",%progbits
 149 0000 789C8D90 		.ascii	"x\234\215\2201K\003A\020\205\337\233\273\204\003\361"
 149      314B0341 
 149      1085DF9B 
 149      BB8403F1 
 150 0010 07582958 		.ascii	"\007X)X\006o\177\204?\300\"\021\264\274\204\220\034"
 150      066F7F84 
 150      3FC02211 
 150      B4BC8490 
 150      1C
 151 0021 E4103C3B 		.ascii	"\344\020<;\213\\T\260\223\224AQ\260\265\210\226)\355"
 151      8B5C54B0 
 151      93944151 
 151      B0B58896 
 151      29ED
 152 0033 45219D9D 		.ascii	"E!\235\235\351\3555\004!\316\336\236ML\221\201}3\014"
 152      E9ED3504 
 152      21CEDE9E 
 152      4D4C9181 
 152      7D330C
 153 0046 F3BDDD59 		.ascii	"\363\275\335Y\201`16\364\334\021\330\321L\017\224\376"
 153      81603136 
 153      F4DC11D8 
 153      D14C0F94 
 153      FE
 154 0057 1BD00B84 		.ascii	"\033\320\013\204\264\005\210\256\260{\310|\366Q\236"
 154      B40588AE 
 154      B07BC87C 
 154      F6519E
 155 0066 27F3F9F0 		.ascii	"'\363\371\360\351r\370\303[Y\023&\204\257\302\262\212"
 155      E972F8C3 
 155      5B591326 
 155      84AFC2B2 
 155      8A
 156 0077 042A9E4E 		.ascii	"\004*\236N\225p\221e\375-\240\221S5Uk\265O\261\331{"
 156      95709165 
 156      FD2DA091 
 156      5335556B 
 156      B54FB1D9 
 157 008c C5D9ECFC 		.ascii	"\305\331\354\374\363j3\342=K\250\340!\323X\217\211\033"
 157      F36A33E2 
 157      3D4BA8E0 
 157      21D3588F 
 157      891B
 158 009e 5C33265B 		.ascii	"\\3&[\224\003\315\356\245uw1N1\313\006YV\325\261\204"
 158      9403CDEE 
 158      A5757731 
 158      4E31CB06 
 158      5956D5B1 
 159 00b3 7EDE529F 		.ascii	"~\336R\237\227\351\327\224\213>\336r\037g\324\262\260"
 159      97E9D794 
 159      8B3EDE72 
ARM GAS  /tmp/cctsBWOj.s 			page 12


 159      1F67D4B2 
 159      B0
 160 00c4 2507DFFF 		.ascii	"%\007\337\377I\1779)\005Yv\344hu\322+\310 'G\357\253"
 160      497F3929 
 160      055976E4 
 160      6875D22B 
 160      C8202747 
 161 00da 936E45DB 		.ascii	"\223nE\333\311\2531z\223\217m\307\376EMW\322\377\264"
 161      C9AB317A 
 161      938F6DC7 
 161      FE454D57 
 161      D2FFB4
 162 00ed 44250CCD 		.ascii	"D%\014\315n;\256\307{Us\224\232v\3241\235\270n\322\223"
 162      6E3BAEC7 
 162      7B557394 
 162      9A76D431 
 162      9DB86ED2 
 163 0102 E36694A4 		.ascii	"\343f\224\244&i&E\0316\360\0139\336oU"
 163      26692645 
 163      1936F00B 
 163      39DE6F55 
 164              		.text
 165              		.section	.gnu.lto_.symbol_nodes.a9a3eb057f3645f8,"",%progbits
 166 0000 789C4DC8 		.ascii	"x\234M\310\271\021\2000\020CQ\255\326\246\015j\243\005"
 166      B9118030 
 166      104351AD 
 166      D6A60D6A 
 166      A305
 167 0012 1A902306 		.ascii	"\032\220#\0062sF\014\011\375P\011E\020\230\300J\376"
 167      3273460C 
 167      09FD5009 
 167      451098C0 
 167      4AFE
 168 0024 3C11448F 		.ascii	"<\021D\217\177\\( ?\200tN\035W\312*\316\024+f\312+\356"
 168      7F5C2820 
 168      3F80744E 
 168      1D57CA2A 
 168      CE142B66 
 169 003b 54F8798D 		.ascii	"T\370y\215\0267\"\310\355\240byS2g\203{x[\367R|\027"
 169      163722C8 
 169      EDA06279 
 169      53326783 
 169      7B785BF7 
 170 0052 192291   		.ascii	"\031\"\221"
 171              		.text
 172              		.section	.gnu.lto_.refs.a9a3eb057f3645f8,"",%progbits
 173 0000 789C6362 		.ascii	"x\234cb`b\340g\200\000F\026&V\026V&f&&&\006&F\006\000"
 173      6062E067 
 173      80004616 
 173      26561656 
 173      26662626 
 174 001a 032D0037 		.ascii	"\003-\0007"
 175              		.text
 176              		.section	.gnu.lto_.decls.a9a3eb057f3645f8,"",%progbits
 177 0000 789CBD58 		.ascii	"x\234\275X]l\024U\024\276w\366\247]h\020\211\020x\261"
 177      5D6C1455 
 177      14BE77F6 
ARM GAS  /tmp/cctsBWOj.s 			page 13


 177      A75D6810 
 177      891078B1 
 178 0014 C5800F90 		.ascii	"\305\200\017\220v\244V\322\027A\322\007\352C\321\210"
 178      76A456D2 
 178      1741D207 
 178      EA43D188 
 179 0024 185FCC66 		.ascii	"\030_\314fvw\332]\263\177\356LE\364\201K\313\237DC\301"
 179      7677DA5D 
 179      B37FEE4C 
 179      45F4814B 
 179      CB9F4443 
 180 0039 9F8049E9 		.ascii	"\237\200I\351\362k0\032(D\301\224\302\322*6 R4\365\007"
 180      F26B301A 
 180      2844C194 
 180      C2D22A36 
 180      205234F5 
 181 004e 0259B080 		.ascii	"\002Y\260\200\212\206\226\202PJ\255g\356\334\331\235"
 181      8A869682 
 181      504AAD67 
 181      EEDCD99D 
 182 005e 99CE74B7 		.ascii	"\231\316t\267&r\3233\2753\367\236\357\234{\276s\357"
 182      2672D333 
 182      BD33F79E 
 182      EF9C7BBE 
 182      73EF
 183 0070 B92D8738 		.ascii	"\271-\20784\213Ch\004\332\271\207\021Z\342@\310\215"
 183      348B4368 
 183      04DAB987 
 183      115AE240 
 183      C88D
 184 0082 105A80B2 		.ascii	"\020Z\200\262My\337\016\322\006r\034\344,\310\005\020"
 184      4D79DF0E 
 184      D206721C 
 184      E42CC805 
 184      10
 185 0093 0F46087E 		.ascii	"\017F\010~\320\014\214\014M\231\353\001\331\011\342"
 185      D00C8C0C 
 185      4D99EB01 
 185      D909E2
 186 00a2 02E90249 		.ascii	"\002\351\002I\203L\002)\002\351\004\271\004\262\017"
 186      834C0229 
 186      02E904B9 
 186      04B20F
 187 00b1 04CCA141 		.ascii	"\004\314\241A\220!\220;H\305S\364\301%\364\005\310a"
 187      9021903B 
 187      48C553F4 
 187      C125F405 
 187      C861
 188 00c3 2334F5C1 		.ascii	"#4\365\301\303t5<\263\035\015\337\301p\207u\330m\354"
 188      C374353C 
 188      B31D0DDF 
 188      C1708775 
 188      D86DEC
 189 00d6 F73113AE 		.ascii	"\3671\023\256\262\256\011:\234E6>\027\203\362\004<\032"
 189      B2AE093A 
 189      9C45363E 
 189      1783F204 
ARM GAS  /tmp/cctsBWOj.s 			page 14


 189      3C1A
 190 00e8 9B63181E 		.ascii	"\233c\030\0366\366\035\310)\220oMv\316\232\354,\314"
 190      36F61DC8 
 190      29906F4D 
 190      76CE9AEC 
 190      2CCC
 191 00fa C38E3E3E 		.ascii	"\303\216>>\034\303\320\354\234\007\371\005\344\234\311"
 191      1CC3D0EC 
 191      9C07F905 
 191      E49CC9
 192 0109 CE0566E3 		.ascii	"\316\005f\343\032\303K3{\235\354\373U\206\247a\017\263"
 192      1AC34B33 
 192      7B9DECFB 
 192      5586A761 
 192      0FB3
 193 011b B8687A0E 		.ascii	"\270hz\016xq\201\270A\012\360h\216\213\3216\222\352"
 193      787181B8 
 193      410AF068 
 193      8E8BD136 
 193      92EA
 194 012d 4B7F7DB9 		.ascii	"K\177}\271\017o%\251\325ddd%\232\206> \320\222k\011"
 194      0F6F25A9 
 194      D5646464 
 194      259A863E 
 194      20D0926B 
 195 0142 C1B207AD 		.ascii	"\301\262\007\255g/\325]\260\270\227\261\200'yP\011\355"
 195      672FD55D 
 195      B0B897B1 
 195      80277950 
 195      09ED
 196 0154 14799013 		.ascii	"\024y\220\0230f\243]\2044\245\333w\277\3634!\205\002"
 196      3066A35D 
 196      8434A5DB 
 196      77BFF334 
 196      218502
 197 0167 DE893DB0 		.ascii	"\336\211=\260>\021\2439h/\2506\021ry\276\311,myC'{\276"
 197      3E11A339 
 197      682FA836 
 197      117279BE 
 197      C92C6D79 
 198 017f 994A9C02 		.ascii	"\231J\234\002\376\230\002_\305\030\011x\017\2363^\230"
 198      FE98025F 
 198      C5180978 
 198      0F9E335E 
 198      98
 199 0190 74FB9943 		.ascii	"t\373\231C\225\324\303O(\320\000g\004\022\260\333\243"
 199      95D4C34F 
 199      28D00067 
 199      0412B0DB 
 199      A3
 200 01a1 F78FBE6B 		.ascii	"\367\217\276k\023\0244xU,\335U6\031^\311\276(/\005\350"
 200      13143478 
 200      552CDD55 
 200      36195EC9 
 200      BE282F05 
 201 01b6 81EB592D 		.ascii	"\201\353Y-S\201\330\201\247\321\236\203\246\030|X8Q"
 201      5381D881 
ARM GAS  /tmp/cctsBWOj.s 			page 15


 201      A7D19E83 
 201      A6187C58 
 201      3851
 202 01c8 EBD34035 		.ascii	"\353\323@5\220\364n2}K6P\205\032\002\316\006\252g\335"
 202      90F46E32 
 202      7D4B3650 
 202      851A02CE 
 202      06AA67DD 
 203 01dc 677369A0 		.ascii	"gsi\240\366\321@\015s\026\021\317\013\250}\34365\342"
 203      F6D1400D 
 203      731611CF 
 203      0BA87DE3 
 203      3635E2
 204 01ef 0728D01A 		.ascii	"\007(\320\032\2079\342\330\024ql\214\000\035f\235\021"
 204      8739E2D8 
 204      14716C8C 
 204      001D669D 
 204      11
 205 0200 630EE533 		.ascii	"c\016\3453W\300\313\034\031\005\016m4\231\237\205v\022"
 205      57C0CB1C 
 205      19050E6D 
 205      34999F85 
 205      7612
 206 0212 B239FDD5 		.ascii	"\2629\375\325\345.L\246\320Hq\350=:g;.\266\2140\235"
 206      E52E4CA6 
 206      D04871E8 
 206      3D3A673B 
 206      2EB68C30 
 207 0227 C4F4C8D6 		.ascii	"\304\364\310\326W\246k\021\372\320\254e\010\206:\013"
 207      57A66B11 
 207      FAD0AC65 
 207      08863A0B 
 208 0237 DAE368B7 		.ascii	"\332\343h\267Bh{\357\363\325\3526Ac\330b+\370\034s\372"
 208      42687BEF 
 208      F3D5EA36 
 208      4163D862 
 208      2BF81C73 
 209 024c 65AB1B36 		.ascii	"e\253\0336u\370DQ\323\252\364\310H\261a\263\252\240"
 209      75F84451 
 209      D3AAF4C8 
 209      48B161B3 
 209      AAA0
 210 025e 76A971C4 		.ascii	"v\251q\304\"5L\021\332b\031!\322\037\250f\263\017\201"
 210      22354C11 
 210      DA621921 
 210      D21FA866 
 210      B30F81
 211 0271 37026E1B 		.ascii	"7\002n\0333<6\353\264Sb\336\035\265\\g\3770p\263\231"
 211      333C36EB 
 211      B45362DE 
 211      1DB55C67 
 211      FF3070B3 
 212 0286 DC1F1971 		.ascii	"\334\037\031qX\234K\015\371\354\372\301\217~\034\300"
 212      589C4B0D 
 212      F9ECFAC1 
 212      8F7E1CC0 
 213 0296 0DA023E0 		.ascii	"\015\240#\340NJV\213\323\234\205.S\026\272\214\231\345"
ARM GAS  /tmp/cctsBWOj.s 			page 16


 213      4E4A568B 
 213      D39C852E 
 213      5316BA8C 
 213      99E5
 214 02a8 F2643BCA 		.ascii	"\362d;\312\366{\310~\373u\330o\277\211hC\326c5%\354"
 214      F67BC87E 
 214      FB75D86F 
 214      BF896843 
 214      D6633525 
 215 02bd 50BAF044 		.ascii	"P\272\360D\235?\031\254N5\213L\234\355qZf\365\232\213"
 215      9D3F19AC 
 215      4E358B4C 
 215      9CED715A 
 215      66F59A8B 
 216 02d1 CD334892 		.ascii	"\3153H\2223\360v<\237\264n\025\253U\0178\364)\205\266"
 216      33F0763C 
 216      9FB46E15 
 216      AB550F38 
 216      F42985B6 
 217 02e5 D7A27E32 		.ascii	"\327\242~2\265\237\02455\300\373r\250u\352vC\0039F\263"
 217      B59F1435 
 217      35C0FB72 
 217      A875EA76 
 217      43033946 
 218 02fa A4936589 		.ascii	"\244\223e\211\235\026\213\314I\313,9\"v\221>\340\305"
 218      9D168BCC 
 218      49CB2C39 
 218      2276913E 
 218      E0C5
 219 030c B4193AC7 		.ascii	"\264\031:\307\010\361\367y\022\2259\353R\266g\235\200"
 219      08F1F779 
 219      129539EB 
 219      52B6679D 
 219      80
 220 031d F7E3D9B9 		.ascii	"\367\343\331\271\317#;Oz\306Cv\253%\331d\320\264A\317"
 220      CF233B4F 
 220      7AC64376 
 220      AB25D964 
 220      D0B441CF 
 221 0331 E643F431 		.ascii	"\346C\3641\2051\305\272\200O\347\320\352\321\021}[#"
 221      8531C5BA 
 221      804FE7D0 
 221      EAD1117D 
 221      5B23
 222 0343 5AC06772 		.ascii	"Z\300gr\250\215E\264\235\026\213\312\317\243\211N\246"
 222      A88D45B4 
 222      9D168BCA 
 222      CFA3894E 
 222      A6
 223 0354 532DEB4E 		.ascii	"S-\353NY\037\007\002^0\3256\302\027\215\\\033\370\235"
 223      591F0702 
 223      5E30D536 
 223      C2178D5C 
 223      1BF89D
 224 0367 82362928 		.ascii	"\2026)(%\272C$\2115\200GP\346\024\351\377\265{F#=D."
 224      25BA4324 
 224      89358047 
ARM GAS  /tmp/cctsBWOj.s 			page 17


 224      50E614E9 
 224      FFB57B46 
 225 037f E12980D3 		.ascii	"\341)\200\323k\"\"'\216\342H/\250\252J\024\225\244\232"
 225      6B222227 
 225      8EE2482F 
 225      A8AA4A14 
 225      95A49A
 226 0392 4F142917 		.ascii	"O\024)\027\033\345;2\300\031\332L\224\004\207S\255k"
 226      1BE53B32 
 226      C019DA4C 
 226      94048753 
 226      AD6B
 227 03a4 5B604777 		.ascii	"[`Gw`+\377a\002\326\231&\031\323\223i\332\364\203\267"
 227      602BFF61 
 227      02D69926 
 227      19D39369 
 227      DAF483B7 
 228 03b8 161E1AA7 		.ascii	"\026\036\032\247\011\370w\312\347\037f/\207\204\022"
 228      09F877CA 
 228      E71F662F 
 228      878412
 229 03c7 F56B6E1F 		.ascii	"\365kn\037\207O\0275\011\246\223N\331jv\324\374\225"
 229      874F1735 
 229      09A6934E 
 229      D96A76D4 
 229      FC95
 230 03d9 4D7E0EFD 		.ascii	"M~\016\375Cc\252\030\262\232\316\272jc\023\014\306\311"
 230      4363AA18 
 230      B29ACEBA 
 230      6A63130C 
 230      C6C9
 231 03eb 01423C6E 		.ascii	"\001B<n\223\361\2161\214\367\351\215\257v\215\327xI"
 231      93F18E31 
 231      8CF7E98D 
 231      AF768DD7 
 231      7849
 232 03fd 4EE33BC6 		.ascii	"N\343;\3060>\2205\256\026\371\234\306\013\307\267\362"
 232      303E9035 
 232      AE16F99C 
 232      C60BC7B7 
 232      F2
 233 040e 236318BF 		.ascii	"#c\030\277\2557~t\334\306KL\344kY!\340?\361Lx\336\240"
 233      AD377E74 
 233      DCC64B4C 
 233      E46B5921 
 233      E03FF14C 
 234 0425 CF9BF479 		.ascii	"\317\233\364y\013\236\231f\347\3175=\023oS&z\377k\032"
 234      0B9E9966 
 234      E7CF353D 
 234      136F5326 
 234      7AFF6B1A 
 235 0439 A40EC0DD 		.ascii	"\244\016\300\335H\320J\330\273\343\006\263\240U+l\357"
 235      48D04AD8 
 235      BBE306B3 
 235      A0552B6C 
 235      EF
 236 044a E703968B 		.ascii	"\347\003\226\213&\015l\353\270\301\306\360\2549\037"
ARM GAS  /tmp/cctsBWOj.s 			page 18


 236      260D6CEB 
 236      B8C1C6F0 
 236      AC391F
 237 0459 B0C9169E 		.ascii	"\260\311\026\236Y5\375A%\340+\264\270]\245d\336\241"
 237      5935FD41 
 237      25E02BB4 
 237      B85DA564 
 237      DEA1
 238 046b CF41FA1C 		.ascii	"\317A\372\034\242\317\341|\350Mg\351\315\3247v\3071"
 238      A2CFE17C 
 238      E84D67E9 
 238      CDD43776 
 238      C731
 239 047d D7BB1CF5 		.ascii	"\327\273\034\365o\227\313\362\262se\240\313\011\177"
 239      6F97CBF2 
 239      B27365A0 
 239      CB097F
 240 048c BF3A5553 		.ascii	"\277:USP&\351\264\013\266\205)\215Me\260\213\226\301"
 240      5026E9B4 
 240      0BB68529 
 240      8D4D65B0 
 240      8B96C1
 241 049f BB7427D8 		.ascii	"\273t'\330\253\351\356;\251\326u\354~\245\226\302{9"
 241      ABE9EE3B 
 241      A9D675EC 
 241      7EA596C2 
 241      7B39
 242 04b1 54E97298 		.ascii	"T\351r\230\305\226l\005\275\237\217\232v\241\206\362"
 242      C5966C05 
 242      BD9F8F9A 
 242      76A186F2 
 243 04c1 D798C4C4 		.ascii	"\327\230\304\304M\213\035bz\006\336\032\270QU3\275?"
 243      4D8B1D62 
 243      7A06DE1A 
 243      B8515533 
 243      BD3F
 244 04d3 7DFEFADD 		.ascii	"}\376\372\335\006\274\2511\251^\222\032Ir\256\251v\302"
 244      06BCA931 
 244      A95E921A 
 244      4972AEA9 
 244      76C2
 245 04e5 A560B479 		.ascii	"\245`\264y\312\004\207\366*\377:\320^Z\341\2051\364"
 245      CA0487F6 
 245      2AFF3AD0 
 245      5E5AE185 
 245      31F4
 246 04f7 28FAD2DD 		.ascii	"(\372\322\335L\012\315\231\263\201\263\275W\011x\221"
 246      4C0ACD99 
 246      B381B3BD 
 246      57097891 
 247 0507 25E5268A 		.ascii	"%\345&\212\333\334z\212\231\341\016\275\027'\335V\377"
 247      DBDC7A8A 
 247      99E10EBD 
 247      1727DD56 
 247      FF
 248 0518 4EC8B4C7 		.ascii	"N\310\264\307\320v\322\335\235\276r\275\333\271J\371"
 248      D076D2DD 
ARM GAS  /tmp/cctsBWOj.s 			page 19


 248      9DBE72BD 
 248      DBB94AF9 
 249 0528 9F86725D 		.ascii	"\237\206r]\300\260\252\337hR\377M#\256\300[\026A\304"
 249      C0B0AADF 
 249      6852FF4D 
 249      23AEC05B 
 249      1641C4
 250 053b A628AD02 		.ascii	"\246(\255\002\035$\353S\317h\232\312\331\366\026\272"
 250      1D24EB53 
 250      CF689ACA 
 250      D9F616BA 
 251 054b 47E04278 		.ascii	"G\340Bx\020\253\245K\275\306P\245\033\331\321\037\260"
 251      10ABA54B 
 251      BDC650A5 
 251      1BD9D11F 
 251      B0
 252 055c 5A5BD4DB 		.ascii	"Z[\324\333,\035\275\231\035\355\307\352\341\257\376"
 252      2C1DBD99 
 252      1DEDC7EA 
 252      E1AFFE
 253 056b E547476F 		.ascii	"\345GGoeG\207\260z:\253\177/\321f:\327\225\010\333m"
 253      654787B0 
 253      7A3AAB7F 
 253      2FD1663A 
 253      D79508DB 
 254 0580 B4162E7B 		.ascii	"\264\026.{\227\234[V\306W\005C\276\320sK\371\230\304"
 254      979C5B56 
 254      C6570543 
 254      BED0734B 
 254      F998C4
 255 0593 0785301F 		.ascii	"\007\2050\037\016\371xIN\210BD\342#b\204u\313\374h\276"
 255      0EF97849 
 255      4E884244 
 255      E2236284 
 255      75CBFC68 
 256 05a8 716E42E6 		.ascii	"qnB\346\343\261\204,\361\213^\250\251\252y\203\367\307"
 256      E3B1842C 
 256      F18B5EA8 
 256      A9AA7983 
 256      F7C7
 257 05ba 22F15058 		.ascii	"\"\361PXLH\374\342\252*\336\037\224W\304E\251,\210\\"
 257      4C48FCE2 
 257      AA2ADE1F 
 257      9457C445 
 257      A92C885C 
 258 05ce 11A9CE2B 		.ascii	"\021\251\316+\273\027/YVR\205$>ZK\345)>\030\213\210"
 258      BB172F59 
 258      56528524 
 258      3E5A4BE5 
 258      293E188B 
 259 05e3 7C429444 		.ascii	"|B\224D!\341\017\202\345D`\271\220\020y!\021)\347\353"
 259      21E10F82 
 259      E54460B9 
 259      90107921 
 259      1129E7EB 
 260 05f7 FCFE52E8 		.ascii	"\374\376R\350\224\212\021\237\030\010\210\201\314\207"
 260      948A119F 
ARM GAS  /tmp/cctsBWOj.s 			page 20


 260      18088881 
 260      CC87
 261 0605 682C2A96 		.ascii	"h,*\226\212\202/TZ\341\255,-\177b^\305k\345\274a\200"
 261      8A822F54 
 261      5AE1AD2C 
 261      2D7F625E 
 261      C56BE5BC 
 262 061b 0F45FDE1 		.ascii	"\017E\375\341\372\200\010k\010\204\24228P\000\277\236"
 262      FA80086B 
 262      0884A232 
 262      385000BF 
 262      9E
 263 062c 2CF7CA8D 		.ascii	",\367\312\215\370\301\031\217\010\376`(*\362\336\200"
 263      F8C1198F 
 263      08FE6028 
 263      2AF2DE80 
 264 063c 582BD487 		.ascii	"X+\324\207e\257\026\015\217\327\313\334)\250\207N\245"
 264      65AF160D 
 264      8FD7CBDC 
 264      29A8874E 
 264      A5
 265 064d 57862FAC 		.ascii	"W\206/\254\347\210\327\313\\(\216}\216:Q^\365\277x\253"
 265      E788D7CB 
 265      5C288E7D 
 265      8E3A515E 
 265      F5BF78AB 
 266 0661 900B134C 		.ascii	"\220\013\023L^W\224U\226U\350\003\007^\203\257n)\364"
 266      5E579455 
 266      9655E803 
 266      075E83AF 
 266      6E29F4
 267 0674 A6E8955D 		.ascii	"\246\350\225]\220\000\001\211\363\305q\324\275<\021"
 267      90000189 
 267      F3C571D4 
 267      BD3C11
 268 0683 924529FF 		.ascii	"\222E)\377\254\011\242\242\0321\022K\254XJ?(/j\357\245"
 268      AC09A2A2 
 268      1A31124B 
 268      AC584A3F 
 268      282F6AEF 
 269 0698 9A175D14 		.ascii	"\232\027]\024\314\251\240;^\217\310n_}m\255\230p*F\035"
 269      CCA9A03B 
 269      5E8FC86E 
 269      5F7D6DAD 
 269      98702A46 
 270 06ad 624C72C7 		.ascii	"bLr\307jk%Q.\212H\317\371^\025\375\362\263\321\220\354"
 270      6A6B2551 
 270      2E8A48CF 
 270      F95E15FD 
 270      F2B3D190 
 271 06c2 8848F107 		.ascii	"\210H\361\007\232B\211P\264NI!\030\213\326\207\303\005"
 271      9A428950 
 271      B44E4921 
 271      188BD687 
 271      C305
 272 06d4 B5D11229 		.ascii	"\265\321\022).\372\361<7,\322\037_\001\003r0\021[\356"
 272      2EFAF13C 
ARM GAS  /tmp/cctsBWOj.s 			page 21


 272      372CD21F 
 272      5F010372 
 272      30115BEE 
 273 06e8 0C8B42ED 		.ascii	"\014\213B\355\277\221\006\253\354"
 273      BF9106AB 
 273      EC
 274              		.text
 275              		.section	.gnu.lto_.symtab.a9a3eb057f3645f8,"",%progbits
 276 0000 6D734F62 		.ascii	"msObjectInit\000\000\000\000\000\000\000\000\000\000"
 276      6A656374 
 276      496E6974 
 276      00000000 
 276      00000000 
 277 0016 0000DD00 		.ascii	"\000\000\335\000\000\000"
 277      0000
 278              		.text
 279              		.section	.gnu.lto_.opts,"",%progbits
 280 0000 272D6D63 		.ascii	"'-mcpu=cortex-m4' '-mno-thumb-interwork' '-mthumb' "
 280      70753D63 
 280      6F727465 
 280      782D6D34 
 280      2720272D 
 281 0033 272D6767 		.ascii	"'-ggdb' '-O2' '-fomit-frame-pointer' '-falign-funct"
 281      64622720 
 281      272D4F32 
 281      2720272D 
 281      666F6D69 
 282 0066 696F6E73 		.ascii	"ions=16' '-ffunction-sections' '-fdata-sections' '-"
 282      3D313627 
 282      20272D66 
 282      66756E63 
 282      74696F6E 
 283 0099 666E6F2D 		.ascii	"fno-common' '-flto'\000"
 283      636F6D6D 
 283      6F6E2720 
 283      272D666C 
 283      746F2700 
 284              		.text
 285              		.cfi_sections	.debug_frame
 286              		.section	.text.put,"ax",%progbits
 287              		.align	2
 288              		.p2align 4,,15
 289              		.thumb
 290              		.thumb_func
 291              		.type	put, %function
 292              	put:
 293              	.LFB274:
 294              		.file 1 "../ChibiOS/os/hal/lib/streams/memstreams.c"
 295              		.loc 1 66 0
 296              		.cfi_startproc
 297              		@ args = 0, pretend = 0, frame = 0
 298              		@ frame_needed = 0, uses_anonymous_args = 0
 299              		@ link register save eliminated.
 300              	.LVL0:
 301              		.loc 1 69 0
 302 0000 C368     		ldr	r3, [r0, #12]
 303 0002 8268     		ldr	r2, [r0, #8]
ARM GAS  /tmp/cctsBWOj.s 			page 22


 304 0004 9A42     		cmp	r2, r3
 305 0006 06D0     		beq	.L3
 306              		.loc 1 71 0
 307 0008 4268     		ldr	r2, [r0, #4]
 308 000a D154     		strb	r1, [r2, r3]
 309              		.loc 1 72 0
 310 000c C368     		ldr	r3, [r0, #12]
 311 000e 0133     		adds	r3, r3, #1
 312 0010 C360     		str	r3, [r0, #12]
 313              		.loc 1 73 0
 314 0012 0020     		movs	r0, #0
 315              	.LVL1:
 316 0014 7047     		bx	lr
 317              	.LVL2:
 318              	.L3:
 319              		.loc 1 70 0
 320 0016 6FF00100 		mvn	r0, #1
 321              	.LVL3:
 322              		.loc 1 74 0
 323 001a 7047     		bx	lr
 324              		.cfi_endproc
 325              	.LFE274:
 326              		.size	put, .-put
 327 001c AFF30080 		.section	.text.get,"ax",%progbits
 328              		.align	2
 329              		.p2align 4,,15
 330              		.thumb
 331              		.thumb_func
 332              		.type	get, %function
 333              	get:
 334              	.LFB275:
 335              		.loc 1 76 0
 336              		.cfi_startproc
 337              		@ args = 0, pretend = 0, frame = 0
 338              		@ frame_needed = 0, uses_anonymous_args = 0
 339              		@ link register save eliminated.
 340              	.LVL4:
 341              		.loc 1 80 0
 342 0000 0269     		ldr	r2, [r0, #16]
 343 0002 C168     		ldr	r1, [r0, #12]
 344 0004 9142     		cmp	r1, r2
 345              		.loc 1 76 0
 346 0006 0346     		mov	r3, r0
 347              	.LVL5:
 348              		.loc 1 80 0
 349 0008 04D0     		beq	.L7
 350              		.loc 1 82 0
 351 000a 4168     		ldr	r1, [r0, #4]
 352 000c 885C     		ldrb	r0, [r1, r2]	@ zero_extendqisi2
 353              	.LVL6:
 354              		.loc 1 83 0
 355 000e 0132     		adds	r2, r2, #1
 356              	.LVL7:
 357 0010 1A61     		str	r2, [r3, #16]
 358              	.LVL8:
 359              		.loc 1 84 0
 360 0012 7047     		bx	lr
ARM GAS  /tmp/cctsBWOj.s 			page 23


 361              	.LVL9:
 362              	.L7:
 363              		.loc 1 81 0
 364 0014 6FF00100 		mvn	r0, #1
 365              	.LVL10:
 366              		.loc 1 85 0
 367 0018 7047     		bx	lr
 368              		.cfi_endproc
 369              	.LFE275:
 370              		.size	get, .-get
 371 001a 00BFAFF3 		.section	.text.reads,"ax",%progbits
 371      0080
 372              		.align	2
 373              		.p2align 4,,15
 374              		.thumb
 375              		.thumb_func
 376              		.type	reads, %function
 377              	reads:
 378              	.LFB273:
 379              		.loc 1 56 0
 380              		.cfi_startproc
 381              		@ args = 0, pretend = 0, frame = 0
 382              		@ frame_needed = 0, uses_anonymous_args = 0
 383              	.LVL11:
 384 0000 38B5     		push	{r3, r4, r5, lr}
 385              		.cfi_def_cfa_offset 16
 386              		.cfi_offset 3, -16
 387              		.cfi_offset 4, -12
 388              		.cfi_offset 5, -8
 389              		.cfi_offset 14, -4
 390              		.loc 1 56 0
 391 0002 0446     		mov	r4, r0
 392              	.LVL12:
 393              		.loc 1 61 0
 394 0004 0846     		mov	r0, r1
 395              	.LVL13:
 396              		.loc 1 59 0
 397 0006 2369     		ldr	r3, [r4, #16]
 398 0008 E568     		ldr	r5, [r4, #12]
 399              		.loc 1 61 0
 400 000a 6168     		ldr	r1, [r4, #4]
 401              	.LVL14:
 402              		.loc 1 59 0
 403 000c ED1A     		subs	r5, r5, r3
 404 000e AA42     		cmp	r2, r5
 405 0010 38BF     		it	cc
 406 0012 1546     		movcc	r5, r2
 407              	.LVL15:
 408              		.loc 1 61 0
 409 0014 1944     		add	r1, r1, r3
 410 0016 2A46     		mov	r2, r5
 411 0018 FFF7FEFF 		bl	memcpy
 412              	.LVL16:
 413              		.loc 1 62 0
 414 001c 2369     		ldr	r3, [r4, #16]
 415 001e 2B44     		add	r3, r3, r5
 416 0020 2361     		str	r3, [r4, #16]
ARM GAS  /tmp/cctsBWOj.s 			page 24


 417              		.loc 1 64 0
 418 0022 2846     		mov	r0, r5
 419 0024 38BD     		pop	{r3, r4, r5, pc}
 420              		.cfi_endproc
 421              	.LFE273:
 422              		.size	reads, .-reads
 423 0026 00BFAFF3 		.section	.text.writes,"ax",%progbits
 423      0080AFF3 
 423      0080
 424              		.align	2
 425              		.p2align 4,,15
 426              		.thumb
 427              		.thumb_func
 428              		.type	writes, %function
 429              	writes:
 430              	.LFB272:
 431              		.loc 1 46 0
 432              		.cfi_startproc
 433              		@ args = 0, pretend = 0, frame = 0
 434              		@ frame_needed = 0, uses_anonymous_args = 0
 435              	.LVL17:
 436 0000 38B5     		push	{r3, r4, r5, lr}
 437              		.cfi_def_cfa_offset 16
 438              		.cfi_offset 3, -16
 439              		.cfi_offset 4, -12
 440              		.cfi_offset 5, -8
 441              		.cfi_offset 14, -4
 442              		.loc 1 49 0
 443 0002 C368     		ldr	r3, [r0, #12]
 444 0004 8568     		ldr	r5, [r0, #8]
 445              		.loc 1 46 0
 446 0006 0446     		mov	r4, r0
 447              	.LVL18:
 448              		.loc 1 49 0
 449 0008 ED1A     		subs	r5, r5, r3
 450              		.loc 1 51 0
 451 000a 4068     		ldr	r0, [r0, #4]
 452              	.LVL19:
 453 000c AA42     		cmp	r2, r5
 454 000e 38BF     		it	cc
 455 0010 1546     		movcc	r5, r2
 456              	.LVL20:
 457 0012 1844     		add	r0, r0, r3
 458 0014 2A46     		mov	r2, r5
 459 0016 FFF7FEFF 		bl	memcpy
 460              	.LVL21:
 461              		.loc 1 52 0
 462 001a E368     		ldr	r3, [r4, #12]
 463 001c 2B44     		add	r3, r3, r5
 464 001e E360     		str	r3, [r4, #12]
 465              		.loc 1 54 0
 466 0020 2846     		mov	r0, r5
 467 0022 38BD     		pop	{r3, r4, r5, pc}
 468              		.cfi_endproc
 469              	.LFE272:
 470              		.size	writes, .-writes
 471 0024 AFF30080 		.section	.text.msObjectInit,"ax",%progbits
ARM GAS  /tmp/cctsBWOj.s 			page 25


 471      AFF30080 
 471      AFF30080 
 472              		.align	2
 473              		.p2align 4,,15
 474              		.global	msObjectInit
 475              		.thumb
 476              		.thumb_func
 477              		.type	msObjectInit, %function
 478              	msObjectInit:
 479              	.LFB276:
 480              		.loc 1 104 0
 481              		.cfi_startproc
 482              		@ args = 0, pretend = 0, frame = 0
 483              		@ frame_needed = 0, uses_anonymous_args = 0
 484              		@ link register save eliminated.
 485              	.LVL22:
 486 0000 10B4     		push	{r4}
 487              		.cfi_def_cfa_offset 4
 488              		.cfi_offset 4, -4
 489              		.loc 1 107 0
 490 0002 4160     		str	r1, [r0, #4]
 491              		.loc 1 106 0
 492 0004 044C     		ldr	r4, .L11
 493 0006 0460     		str	r4, [r0]
 494              		.loc 1 110 0
 495 0008 0021     		movs	r1, #0
 496              	.LVL23:
 497              		.loc 1 108 0
 498 000a 8260     		str	r2, [r0, #8]
 499              		.loc 1 109 0
 500 000c C360     		str	r3, [r0, #12]
 501              		.loc 1 110 0
 502 000e 0161     		str	r1, [r0, #16]
 503              		.loc 1 111 0
 504 0010 5DF8044B 		ldr	r4, [sp], #4
 505 0014 7047     		bx	lr
 506              	.L12:
 507 0016 00BF     		.align	2
 508              	.L11:
 509 0018 00000000 		.word	.LANCHOR0
 510              		.cfi_endproc
 511              	.LFE276:
 512              		.size	msObjectInit, .-msObjectInit
 513 001c AFF30080 		.section	.rodata.vmt,"a",%progbits
 514              		.align	2
 515              		.set	.LANCHOR0,. + 0
 516              		.type	vmt, %object
 517              		.size	vmt, 16
 518              	vmt:
 519 0000 00000000 		.word	writes
 520 0004 00000000 		.word	reads
 521 0008 00000000 		.word	put
 522 000c 00000000 		.word	get
 523              		.text
 524              	.Letext0:
 525              		.file 2 "/nfs/nfs5/home/research/hardware/arm2/gcc-arm-embedded/gcc-arm-none-eabi-4_8-2014q2/lib/g
 526              		.file 3 "/nfs/nfs5/home/research/hardware/arm2/gcc-arm-embedded/gcc-arm-none-eabi-4_8-2014q2/arm-n
ARM GAS  /tmp/cctsBWOj.s 			page 26


 527              		.file 4 "/nfs/nfs5/home/research/hardware/arm2/gcc-arm-embedded/gcc-arm-none-eabi-4_8-2014q2/arm-n
 528              		.file 5 "../ChibiOS/os/rt/ports/ARMCMx/compilers/GCC/chtypes.h"
 529              		.file 6 "../ChibiOS/os/rt/include/chsystypes.h"
 530              		.file 7 "../ChibiOS/os/rt/include/chschd.h"
 531              		.file 8 "../ChibiOS/os/rt/ports/ARMCMx/chcore.h"
 532              		.file 9 "../ChibiOS/os/rt/ports/ARMCMx/chcore_v7m.h"
 533              		.file 10 "../ChibiOS/os/rt/include/chtm.h"
 534              		.file 11 "../ChibiOS/os/rt/include/chsem.h"
 535              		.file 12 "../ChibiOS/os/rt/include/chmtx.h"
 536              		.file 13 "../ChibiOS/os/hal/lib/streams/memstreams.h"
 537              		.file 14 "../ChibiOS/os/ext/CMSIS/include/core_cm4.h"
 538              		.section	.debug_info,"",%progbits
 539              	.Ldebug_info0:
 540 0000 35090000 		.4byte	0x935
 541 0004 0400     		.2byte	0x4
 542 0006 00000000 		.4byte	.Ldebug_abbrev0
 543 000a 04       		.byte	0x4
 544 000b 01       		.uleb128 0x1
 545 000c AC040000 		.4byte	.LASF112
 546 0010 01       		.byte	0x1
 547 0011 03030000 		.4byte	.LASF113
 548 0015 D7010000 		.4byte	.LASF114
 549 0019 00000000 		.4byte	.Ldebug_ranges0+0
 550 001d 00000000 		.4byte	0
 551 0021 00000000 		.4byte	.Ldebug_line0
 552 0025 02       		.uleb128 0x2
 553 0026 04       		.byte	0x4
 554 0027 05       		.byte	0x5
 555 0028 696E7400 		.ascii	"int\000"
 556 002c 03       		.uleb128 0x3
 557 002d 15000000 		.4byte	.LASF2
 558 0031 02       		.byte	0x2
 559 0032 D4       		.byte	0xd4
 560 0033 37000000 		.4byte	0x37
 561 0037 04       		.uleb128 0x4
 562 0038 04       		.byte	0x4
 563 0039 07       		.byte	0x7
 564 003a 6C010000 		.4byte	.LASF0
 565 003e 04       		.uleb128 0x4
 566 003f 01       		.byte	0x1
 567 0040 06       		.byte	0x6
 568 0041 D3000000 		.4byte	.LASF1
 569 0045 03       		.uleb128 0x3
 570 0046 2C000000 		.4byte	.LASF3
 571 004a 03       		.byte	0x3
 572 004b 1C       		.byte	0x1c
 573 004c 50000000 		.4byte	0x50
 574 0050 04       		.uleb128 0x4
 575 0051 01       		.byte	0x1
 576 0052 08       		.byte	0x8
 577 0053 59030000 		.4byte	.LASF4
 578 0057 04       		.uleb128 0x4
 579 0058 02       		.byte	0x2
 580 0059 05       		.byte	0x5
 581 005a 79030000 		.4byte	.LASF5
 582 005e 04       		.uleb128 0x4
 583 005f 02       		.byte	0x2
ARM GAS  /tmp/cctsBWOj.s 			page 27


 584 0060 07       		.byte	0x7
 585 0061 99010000 		.4byte	.LASF6
 586 0065 03       		.uleb128 0x3
 587 0066 2C020000 		.4byte	.LASF7
 588 006a 03       		.byte	0x3
 589 006b 37       		.byte	0x37
 590 006c 70000000 		.4byte	0x70
 591 0070 04       		.uleb128 0x4
 592 0071 04       		.byte	0x4
 593 0072 05       		.byte	0x5
 594 0073 06010000 		.4byte	.LASF8
 595 0077 03       		.uleb128 0x3
 596 0078 4B040000 		.4byte	.LASF9
 597 007c 03       		.byte	0x3
 598 007d 38       		.byte	0x38
 599 007e 82000000 		.4byte	0x82
 600 0082 04       		.uleb128 0x4
 601 0083 04       		.byte	0x4
 602 0084 07       		.byte	0x7
 603 0085 01040000 		.4byte	.LASF10
 604 0089 04       		.uleb128 0x4
 605 008a 08       		.byte	0x8
 606 008b 05       		.byte	0x5
 607 008c C5000000 		.4byte	.LASF11
 608 0090 03       		.uleb128 0x3
 609 0091 D9020000 		.4byte	.LASF12
 610 0095 03       		.byte	0x3
 611 0096 4E       		.byte	0x4e
 612 0097 9B000000 		.4byte	0x9b
 613 009b 04       		.uleb128 0x4
 614 009c 08       		.byte	0x8
 615 009d 07       		.byte	0x7
 616 009e 51000000 		.4byte	.LASF13
 617 00a2 04       		.uleb128 0x4
 618 00a3 04       		.byte	0x4
 619 00a4 07       		.byte	0x7
 620 00a5 54020000 		.4byte	.LASF14
 621 00a9 05       		.uleb128 0x5
 622 00aa 04       		.byte	0x4
 623 00ab 04       		.uleb128 0x4
 624 00ac 01       		.byte	0x1
 625 00ad 08       		.byte	0x8
 626 00ae 18040000 		.4byte	.LASF15
 627 00b2 06       		.uleb128 0x6
 628 00b3 04       		.byte	0x4
 629 00b4 B8000000 		.4byte	0xb8
 630 00b8 07       		.uleb128 0x7
 631 00b9 AB000000 		.4byte	0xab
 632 00bd 03       		.uleb128 0x3
 633 00be A4040000 		.4byte	.LASF16
 634 00c2 04       		.byte	0x4
 635 00c3 2A       		.byte	0x2a
 636 00c4 45000000 		.4byte	0x45
 637 00c8 03       		.uleb128 0x3
 638 00c9 51030000 		.4byte	.LASF17
 639 00cd 04       		.byte	0x4
 640 00ce 41       		.byte	0x41
ARM GAS  /tmp/cctsBWOj.s 			page 28


 641 00cf 65000000 		.4byte	0x65
 642 00d3 03       		.uleb128 0x3
 643 00d4 D0030000 		.4byte	.LASF18
 644 00d8 04       		.byte	0x4
 645 00d9 42       		.byte	0x42
 646 00da 77000000 		.4byte	0x77
 647 00de 03       		.uleb128 0x3
 648 00df 23000000 		.4byte	.LASF19
 649 00e3 04       		.byte	0x4
 650 00e4 4E       		.byte	0x4e
 651 00e5 90000000 		.4byte	0x90
 652 00e9 03       		.uleb128 0x3
 653 00ea 6F040000 		.4byte	.LASF20
 654 00ee 05       		.byte	0x5
 655 00ef 39       		.byte	0x39
 656 00f0 D3000000 		.4byte	0xd3
 657 00f4 03       		.uleb128 0x3
 658 00f5 CF010000 		.4byte	.LASF21
 659 00f9 05       		.byte	0x5
 660 00fa 3C       		.byte	0x3c
 661 00fb BD000000 		.4byte	0xbd
 662 00ff 03       		.uleb128 0x3
 663 0100 0F010000 		.4byte	.LASF22
 664 0104 05       		.byte	0x5
 665 0105 3D       		.byte	0x3d
 666 0106 BD000000 		.4byte	0xbd
 667 010a 03       		.uleb128 0x3
 668 010b 00000000 		.4byte	.LASF23
 669 010f 05       		.byte	0x5
 670 0110 3E       		.byte	0x3e
 671 0111 BD000000 		.4byte	0xbd
 672 0115 03       		.uleb128 0x3
 673 0116 FB020000 		.4byte	.LASF24
 674 011a 05       		.byte	0x5
 675 011b 40       		.byte	0x40
 676 011c D3000000 		.4byte	0xd3
 677 0120 03       		.uleb128 0x3
 678 0121 B6010000 		.4byte	.LASF25
 679 0125 05       		.byte	0x5
 680 0126 41       		.byte	0x41
 681 0127 C8000000 		.4byte	0xc8
 682 012b 03       		.uleb128 0x3
 683 012c 20020000 		.4byte	.LASF26
 684 0130 05       		.byte	0x5
 685 0131 43       		.byte	0x43
 686 0132 D3000000 		.4byte	0xd3
 687 0136 03       		.uleb128 0x3
 688 0137 66010000 		.4byte	.LASF27
 689 013b 05       		.byte	0x5
 690 013c 45       		.byte	0x45
 691 013d C8000000 		.4byte	0xc8
 692 0141 03       		.uleb128 0x3
 693 0142 2D040000 		.4byte	.LASF28
 694 0146 06       		.byte	0x6
 695 0147 33       		.byte	0x33
 696 0148 D3000000 		.4byte	0xd3
 697 014c 03       		.uleb128 0x3
ARM GAS  /tmp/cctsBWOj.s 			page 29


 698 014d 1D040000 		.4byte	.LASF29
 699 0151 06       		.byte	0x6
 700 0152 3F       		.byte	0x3f
 701 0153 57010000 		.4byte	0x157
 702 0157 08       		.uleb128 0x8
 703 0158 AC010000 		.4byte	.LASF48
 704 015c 40       		.byte	0x40
 705 015d 07       		.byte	0x7
 706 015e C2       		.byte	0xc2
 707 015f 37020000 		.4byte	0x237
 708 0163 09       		.uleb128 0x9
 709 0164 91030000 		.4byte	.LASF30
 710 0168 07       		.byte	0x7
 711 0169 C3       		.byte	0xc3
 712 016a 42020000 		.4byte	0x242
 713 016e 00       		.byte	0
 714 016f 09       		.uleb128 0x9
 715 0170 F4020000 		.4byte	.LASF31
 716 0174 07       		.byte	0x7
 717 0175 C5       		.byte	0xc5
 718 0176 42020000 		.4byte	0x242
 719 017a 04       		.byte	0x4
 720 017b 09       		.uleb128 0x9
 721 017c B8000000 		.4byte	.LASF32
 722 0180 07       		.byte	0x7
 723 0181 C7       		.byte	0xc7
 724 0182 15010000 		.4byte	0x115
 725 0186 08       		.byte	0x8
 726 0187 09       		.uleb128 0x9
 727 0188 AF050000 		.4byte	.LASF33
 728 018c 07       		.byte	0x7
 729 018d C8       		.byte	0xc8
 730 018e 69040000 		.4byte	0x469
 731 0192 0C       		.byte	0xc
 732 0193 09       		.uleb128 0x9
 733 0194 26010000 		.4byte	.LASF34
 734 0198 07       		.byte	0x7
 735 0199 CA       		.byte	0xca
 736 019a 42020000 		.4byte	0x242
 737 019e 10       		.byte	0x10
 738 019f 09       		.uleb128 0x9
 739 01a0 9B020000 		.4byte	.LASF35
 740 01a4 07       		.byte	0x7
 741 01a5 CB       		.byte	0xcb
 742 01a6 42020000 		.4byte	0x242
 743 01aa 14       		.byte	0x14
 744 01ab 09       		.uleb128 0x9
 745 01ac A0030000 		.4byte	.LASF36
 746 01b0 07       		.byte	0x7
 747 01b1 D2       		.byte	0xd2
 748 01b2 B2000000 		.4byte	0xb2
 749 01b6 18       		.byte	0x18
 750 01b7 09       		.uleb128 0x9
 751 01b8 67030000 		.4byte	.LASF37
 752 01bc 07       		.byte	0x7
 753 01bd DD       		.byte	0xdd
 754 01be FF000000 		.4byte	0xff
ARM GAS  /tmp/cctsBWOj.s 			page 30


 755 01c2 1C       		.byte	0x1c
 756 01c3 09       		.uleb128 0x9
 757 01c4 98030000 		.4byte	.LASF38
 758 01c8 07       		.byte	0x7
 759 01c9 E1       		.byte	0xe1
 760 01ca F4000000 		.4byte	0xf4
 761 01ce 1D       		.byte	0x1d
 762 01cf 09       		.uleb128 0x9
 763 01d0 97040000 		.4byte	.LASF39
 764 01d4 07       		.byte	0x7
 765 01d5 E6       		.byte	0xe6
 766 01d6 0A010000 		.4byte	0x10a
 767 01da 1E       		.byte	0x1e
 768 01db 0A       		.uleb128 0xa
 769 01dc 705F7500 		.ascii	"p_u\000"
 770 01e0 07       		.byte	0x7
 771 01e1 3701     		.2byte	0x137
 772 01e3 23050000 		.4byte	0x523
 773 01e7 20       		.byte	0x20
 774 01e8 0B       		.uleb128 0xb
 775 01e9 B5050000 		.4byte	.LASF40
 776 01ed 07       		.byte	0x7
 777 01ee 3C01     		.2byte	0x13c
 778 01f0 48020000 		.4byte	0x248
 779 01f4 24       		.byte	0x24
 780 01f5 0B       		.uleb128 0xb
 781 01f6 88010000 		.4byte	.LASF41
 782 01fa 07       		.byte	0x7
 783 01fb 4201     		.2byte	0x142
 784 01fd 6C020000 		.4byte	0x26c
 785 0201 28       		.byte	0x28
 786 0202 0B       		.uleb128 0xb
 787 0203 C5030000 		.4byte	.LASF42
 788 0207 07       		.byte	0x7
 789 0208 4801     		.2byte	0x148
 790 020a 2B010000 		.4byte	0x12b
 791 020e 30       		.byte	0x30
 792 020f 0B       		.uleb128 0xb
 793 0210 6F030000 		.4byte	.LASF43
 794 0214 07       		.byte	0x7
 795 0215 4F01     		.2byte	0x14f
 796 0217 EE050000 		.4byte	0x5ee
 797 021b 34       		.byte	0x34
 798 021c 0B       		.uleb128 0xb
 799 021d 37040000 		.4byte	.LASF44
 800 0221 07       		.byte	0x7
 801 0222 5301     		.2byte	0x153
 802 0224 15010000 		.4byte	0x115
 803 0228 38       		.byte	0x38
 804 0229 0B       		.uleb128 0xb
 805 022a DF000000 		.4byte	.LASF45
 806 022e 07       		.byte	0x7
 807 022f 5A01     		.2byte	0x15a
 808 0231 A9000000 		.4byte	0xa9
 809 0235 3C       		.byte	0x3c
 810 0236 00       		.byte	0
 811 0237 03       		.uleb128 0x3
ARM GAS  /tmp/cctsBWOj.s 			page 31


 812 0238 5D020000 		.4byte	.LASF46
 813 023c 06       		.byte	0x6
 814 023d 44       		.byte	0x44
 815 023e 42020000 		.4byte	0x242
 816 0242 06       		.uleb128 0x6
 817 0243 04       		.byte	0x4
 818 0244 4C010000 		.4byte	0x14c
 819 0248 03       		.uleb128 0x3
 820 0249 98050000 		.4byte	.LASF47
 821 024d 06       		.byte	0x6
 822 024e 49       		.byte	0x49
 823 024f 53020000 		.4byte	0x253
 824 0253 08       		.uleb128 0x8
 825 0254 F1030000 		.4byte	.LASF49
 826 0258 04       		.byte	0x4
 827 0259 07       		.byte	0x7
 828 025a B0       		.byte	0xb0
 829 025b 6C020000 		.4byte	0x26c
 830 025f 09       		.uleb128 0x9
 831 0260 91030000 		.4byte	.LASF30
 832 0264 07       		.byte	0x7
 833 0265 B1       		.byte	0xb1
 834 0266 42020000 		.4byte	0x242
 835 026a 00       		.byte	0
 836 026b 00       		.byte	0
 837 026c 03       		.uleb128 0x3
 838 026d 7E040000 		.4byte	.LASF50
 839 0271 06       		.byte	0x6
 840 0272 50       		.byte	0x50
 841 0273 77020000 		.4byte	0x277
 842 0277 08       		.uleb128 0x8
 843 0278 A7000000 		.4byte	.LASF51
 844 027c 08       		.byte	0x8
 845 027d 07       		.byte	0x7
 846 027e B7       		.byte	0xb7
 847 027f 9C020000 		.4byte	0x29c
 848 0283 09       		.uleb128 0x9
 849 0284 91030000 		.4byte	.LASF30
 850 0288 07       		.byte	0x7
 851 0289 B8       		.byte	0xb8
 852 028a 42020000 		.4byte	0x242
 853 028e 00       		.byte	0
 854 028f 09       		.uleb128 0x9
 855 0290 F4020000 		.4byte	.LASF31
 856 0294 07       		.byte	0x7
 857 0295 B9       		.byte	0xb9
 858 0296 42020000 		.4byte	0x242
 859 029a 04       		.byte	0x4
 860 029b 00       		.byte	0
 861 029c 03       		.uleb128 0x3
 862 029d 08000000 		.4byte	.LASF52
 863 02a1 06       		.byte	0x6
 864 02a2 57       		.byte	0x57
 865 02a3 A7020000 		.4byte	0x2a7
 866 02a7 0C       		.uleb128 0xc
 867 02a8 12020000 		.4byte	.LASF53
 868 02ac 1C       		.byte	0x1c
ARM GAS  /tmp/cctsBWOj.s 			page 32


 869 02ad 07       		.byte	0x7
 870 02ae 9201     		.2byte	0x192
 871 02b0 03030000 		.4byte	0x303
 872 02b4 0B       		.uleb128 0xb
 873 02b5 E0030000 		.4byte	.LASF54
 874 02b9 07       		.byte	0x7
 875 02ba 9301     		.2byte	0x193
 876 02bc 6C020000 		.4byte	0x26c
 877 02c0 00       		.byte	0
 878 02c1 0B       		.uleb128 0xb
 879 02c2 83030000 		.4byte	.LASF55
 880 02c6 07       		.byte	0x7
 881 02c7 9401     		.2byte	0x194
 882 02c9 15010000 		.4byte	0x115
 883 02cd 08       		.byte	0x8
 884 02ce 0B       		.uleb128 0xb
 885 02cf A3020000 		.4byte	.LASF56
 886 02d3 07       		.byte	0x7
 887 02d4 9601     		.2byte	0x196
 888 02d6 69040000 		.4byte	0x469
 889 02da 0C       		.byte	0xc
 890 02db 0B       		.uleb128 0xb
 891 02dc 36010000 		.4byte	.LASF57
 892 02e0 07       		.byte	0x7
 893 02e1 9901     		.2byte	0x199
 894 02e3 42020000 		.4byte	0x242
 895 02e7 10       		.byte	0x10
 896 02e8 0B       		.uleb128 0xb
 897 02e9 C4020000 		.4byte	.LASF58
 898 02ed 07       		.byte	0x7
 899 02ee 9A01     		.2byte	0x19a
 900 02f0 42020000 		.4byte	0x242
 901 02f4 14       		.byte	0x14
 902 02f5 0B       		.uleb128 0xb
 903 02f6 BA020000 		.4byte	.LASF59
 904 02fa 07       		.byte	0x7
 905 02fb 9D01     		.2byte	0x19d
 906 02fd 42020000 		.4byte	0x242
 907 0301 18       		.byte	0x18
 908 0302 00       		.byte	0
 909 0303 03       		.uleb128 0x3
 910 0304 42040000 		.4byte	.LASF60
 911 0308 06       		.byte	0x6
 912 0309 5C       		.byte	0x5c
 913 030a 0E030000 		.4byte	0x30e
 914 030e 06       		.uleb128 0x6
 915 030f 04       		.byte	0x4
 916 0310 14030000 		.4byte	0x314
 917 0314 0D       		.uleb128 0xd
 918 0315 1F030000 		.4byte	0x31f
 919 0319 0E       		.uleb128 0xe
 920 031a A9000000 		.4byte	0xa9
 921 031e 00       		.byte	0
 922 031f 03       		.uleb128 0x3
 923 0320 E4020000 		.4byte	.LASF61
 924 0324 06       		.byte	0x6
 925 0325 61       		.byte	0x61
ARM GAS  /tmp/cctsBWOj.s 			page 33


 926 0326 2A030000 		.4byte	0x32a
 927 032a 0C       		.uleb128 0xc
 928 032b A7030000 		.4byte	.LASF62
 929 032f 14       		.byte	0x14
 930 0330 07       		.byte	0x7
 931 0331 6D01     		.2byte	0x16d
 932 0333 79030000 		.4byte	0x379
 933 0337 0B       		.uleb128 0xb
 934 0338 79010000 		.4byte	.LASF63
 935 033c 07       		.byte	0x7
 936 033d 6E01     		.2byte	0x16e
 937 033f F4050000 		.4byte	0x5f4
 938 0343 00       		.byte	0
 939 0344 0B       		.uleb128 0xb
 940 0345 47010000 		.4byte	.LASF64
 941 0349 07       		.byte	0x7
 942 034a 6F01     		.2byte	0x16f
 943 034c F4050000 		.4byte	0x5f4
 944 0350 04       		.byte	0x4
 945 0351 0B       		.uleb128 0xb
 946 0352 E8030000 		.4byte	.LASF65
 947 0356 07       		.byte	0x7
 948 0357 7001     		.2byte	0x170
 949 0359 41010000 		.4byte	0x141
 950 035d 08       		.byte	0x8
 951 035e 0B       		.uleb128 0xb
 952 035f 87020000 		.4byte	.LASF66
 953 0363 07       		.byte	0x7
 954 0364 7101     		.2byte	0x171
 955 0366 03030000 		.4byte	0x303
 956 036a 0C       		.byte	0xc
 957 036b 0B       		.uleb128 0xb
 958 036c 77040000 		.4byte	.LASF67
 959 0370 07       		.byte	0x7
 960 0371 7301     		.2byte	0x173
 961 0373 A9000000 		.4byte	0xa9
 962 0377 10       		.byte	0x10
 963 0378 00       		.byte	0
 964 0379 03       		.uleb128 0x3
 965 037a 84000000 		.4byte	.LASF68
 966 037e 06       		.byte	0x6
 967 037f 66       		.byte	0x66
 968 0380 84030000 		.4byte	0x384
 969 0384 0C       		.uleb128 0xc
 970 0385 70020000 		.4byte	.LASF69
 971 0389 10       		.byte	0x10
 972 038a 07       		.byte	0x7
 973 038b 7D01     		.2byte	0x17d
 974 038d C6030000 		.4byte	0x3c6
 975 0391 0B       		.uleb128 0xb
 976 0392 79010000 		.4byte	.LASF63
 977 0396 07       		.byte	0x7
 978 0397 7E01     		.2byte	0x17e
 979 0399 F4050000 		.4byte	0x5f4
 980 039d 00       		.byte	0
 981 039e 0B       		.uleb128 0xb
 982 039f 47010000 		.4byte	.LASF64
ARM GAS  /tmp/cctsBWOj.s 			page 34


 983 03a3 07       		.byte	0x7
 984 03a4 8001     		.2byte	0x180
 985 03a6 F4050000 		.4byte	0x5f4
 986 03aa 04       		.byte	0x4
 987 03ab 0B       		.uleb128 0xb
 988 03ac E8030000 		.4byte	.LASF65
 989 03b0 07       		.byte	0x7
 990 03b1 8201     		.2byte	0x182
 991 03b3 41010000 		.4byte	0x141
 992 03b7 08       		.byte	0x8
 993 03b8 0B       		.uleb128 0xb
 994 03b9 8F020000 		.4byte	.LASF70
 995 03bd 07       		.byte	0x7
 996 03be 8A01     		.2byte	0x18a
 997 03c0 41010000 		.4byte	0x141
 998 03c4 0C       		.byte	0xc
 999 03c5 00       		.byte	0
 1000 03c6 03       		.uleb128 0x3
 1001 03c7 42000000 		.4byte	.LASF71
 1002 03cb 06       		.byte	0x6
 1003 03cc 6B       		.byte	0x6b
 1004 03cd D1030000 		.4byte	0x3d1
 1005 03d1 0C       		.uleb128 0xc
 1006 03d2 3B030000 		.4byte	.LASF72
 1007 03d6 04       		.byte	0x4
 1008 03d7 07       		.byte	0x7
 1009 03d8 A401     		.2byte	0x1a4
 1010 03da EC030000 		.4byte	0x3ec
 1011 03de 0B       		.uleb128 0xb
 1012 03df 56040000 		.4byte	.LASF73
 1013 03e3 07       		.byte	0x7
 1014 03e4 AC01     		.2byte	0x1ac
 1015 03e6 FA050000 		.4byte	0x5fa
 1016 03ea 00       		.byte	0
 1017 03eb 00       		.byte	0
 1018 03ec 03       		.uleb128 0x3
 1019 03ed BC010000 		.4byte	.LASF74
 1020 03f1 06       		.byte	0x6
 1021 03f2 70       		.byte	0x70
 1022 03f3 F7030000 		.4byte	0x3f7
 1023 03f7 0F       		.uleb128 0xf
 1024 03f8 FC000000 		.4byte	.LASF75
 1025 03fc 5001     		.2byte	0x150
 1026 03fe 07       		.byte	0x7
 1027 03ff C401     		.2byte	0x1c4
 1028 0401 53040000 		.4byte	0x453
 1029 0405 0B       		.uleb128 0xb
 1030 0406 9E040000 		.4byte	.LASF76
 1031 040a 07       		.byte	0x7
 1032 040b C801     		.2byte	0x1c8
 1033 040d 9C020000 		.4byte	0x29c
 1034 0411 00       		.byte	0
 1035 0412 0B       		.uleb128 0xb
 1036 0413 EF000000 		.4byte	.LASF77
 1037 0417 07       		.byte	0x7
 1038 0418 CC01     		.2byte	0x1cc
 1039 041a 79030000 		.4byte	0x379
ARM GAS  /tmp/cctsBWOj.s 			page 35


 1040 041e 1C       		.byte	0x1c
 1041 041f 0A       		.uleb128 0xa
 1042 0420 64626700 		.ascii	"dbg\000"
 1043 0424 07       		.byte	0x7
 1044 0425 D001     		.2byte	0x1d0
 1045 0427 C6030000 		.4byte	0x3c6
 1046 042b 2C       		.byte	0x2c
 1047 042c 0B       		.uleb128 0xb
 1048 042d 71000000 		.4byte	.LASF78
 1049 0431 07       		.byte	0x7
 1050 0432 D401     		.2byte	0x1d4
 1051 0434 4C010000 		.4byte	0x14c
 1052 0438 30       		.byte	0x30
 1053 0439 0A       		.uleb128 0xa
 1054 043a 746D00   		.ascii	"tm\000"
 1055 043d 07       		.byte	0x7
 1056 043e D901     		.2byte	0x1d9
 1057 0440 18050000 		.4byte	0x518
 1058 0444 70       		.byte	0x70
 1059 0445 0B       		.uleb128 0xb
 1060 0446 57010000 		.4byte	.LASF79
 1061 044a 07       		.byte	0x7
 1062 044b E501     		.2byte	0x1e5
 1063 044d FF050000 		.4byte	0x5ff
 1064 0451 78       		.byte	0x78
 1065 0452 00       		.byte	0
 1066 0453 03       		.uleb128 0x3
 1067 0454 3E010000 		.4byte	.LASF80
 1068 0458 08       		.byte	0x8
 1069 0459 65       		.byte	0x65
 1070 045a A9000000 		.4byte	0xa9
 1071 045e 03       		.uleb128 0x3
 1072 045f 36020000 		.4byte	.LASF81
 1073 0463 08       		.byte	0x8
 1074 0464 6D       		.byte	0x6d
 1075 0465 DE000000 		.4byte	0xde
 1076 0469 08       		.uleb128 0x8
 1077 046a 67040000 		.4byte	.LASF82
 1078 046e 04       		.byte	0x4
 1079 046f 08       		.byte	0x8
 1080 0470 89       		.byte	0x89
 1081 0471 82040000 		.4byte	0x482
 1082 0475 10       		.uleb128 0x10
 1083 0476 72313300 		.ascii	"r13\000"
 1084 047a 08       		.byte	0x8
 1085 047b 8A       		.byte	0x8a
 1086 047c FD040000 		.4byte	0x4fd
 1087 0480 00       		.byte	0
 1088 0481 00       		.byte	0
 1089 0482 08       		.uleb128 0x8
 1090 0483 36000000 		.4byte	.LASF83
 1091 0487 24       		.byte	0x24
 1092 0488 09       		.byte	0x9
 1093 0489 FD       		.byte	0xfd
 1094 048a FD040000 		.4byte	0x4fd
 1095 048e 0A       		.uleb128 0xa
 1096 048f 723400   		.ascii	"r4\000"
ARM GAS  /tmp/cctsBWOj.s 			page 36


 1097 0492 09       		.byte	0x9
 1098 0493 1001     		.2byte	0x110
 1099 0495 53040000 		.4byte	0x453
 1100 0499 00       		.byte	0
 1101 049a 0A       		.uleb128 0xa
 1102 049b 723500   		.ascii	"r5\000"
 1103 049e 09       		.byte	0x9
 1104 049f 1101     		.2byte	0x111
 1105 04a1 53040000 		.4byte	0x453
 1106 04a5 04       		.byte	0x4
 1107 04a6 0A       		.uleb128 0xa
 1108 04a7 723600   		.ascii	"r6\000"
 1109 04aa 09       		.byte	0x9
 1110 04ab 1201     		.2byte	0x112
 1111 04ad 53040000 		.4byte	0x453
 1112 04b1 08       		.byte	0x8
 1113 04b2 0A       		.uleb128 0xa
 1114 04b3 723700   		.ascii	"r7\000"
 1115 04b6 09       		.byte	0x9
 1116 04b7 1301     		.2byte	0x113
 1117 04b9 53040000 		.4byte	0x453
 1118 04bd 0C       		.byte	0xc
 1119 04be 0A       		.uleb128 0xa
 1120 04bf 723800   		.ascii	"r8\000"
 1121 04c2 09       		.byte	0x9
 1122 04c3 1401     		.2byte	0x114
 1123 04c5 53040000 		.4byte	0x453
 1124 04c9 10       		.byte	0x10
 1125 04ca 0A       		.uleb128 0xa
 1126 04cb 723900   		.ascii	"r9\000"
 1127 04ce 09       		.byte	0x9
 1128 04cf 1501     		.2byte	0x115
 1129 04d1 53040000 		.4byte	0x453
 1130 04d5 14       		.byte	0x14
 1131 04d6 0A       		.uleb128 0xa
 1132 04d7 72313000 		.ascii	"r10\000"
 1133 04db 09       		.byte	0x9
 1134 04dc 1601     		.2byte	0x116
 1135 04de 53040000 		.4byte	0x453
 1136 04e2 18       		.byte	0x18
 1137 04e3 0A       		.uleb128 0xa
 1138 04e4 72313100 		.ascii	"r11\000"
 1139 04e8 09       		.byte	0x9
 1140 04e9 1701     		.2byte	0x117
 1141 04eb 53040000 		.4byte	0x453
 1142 04ef 1C       		.byte	0x1c
 1143 04f0 0A       		.uleb128 0xa
 1144 04f1 6C7200   		.ascii	"lr\000"
 1145 04f4 09       		.byte	0x9
 1146 04f5 1801     		.2byte	0x118
 1147 04f7 53040000 		.4byte	0x453
 1148 04fb 20       		.byte	0x20
 1149 04fc 00       		.byte	0
 1150 04fd 06       		.uleb128 0x6
 1151 04fe 04       		.byte	0x4
 1152 04ff 82040000 		.4byte	0x482
 1153 0503 11       		.uleb128 0x11
ARM GAS  /tmp/cctsBWOj.s 			page 37


 1154 0504 04       		.byte	0x4
 1155 0505 0A       		.byte	0xa
 1156 0506 38       		.byte	0x38
 1157 0507 18050000 		.4byte	0x518
 1158 050b 09       		.uleb128 0x9
 1159 050c 60040000 		.4byte	.LASF84
 1160 0510 0A       		.byte	0xa
 1161 0511 3C       		.byte	0x3c
 1162 0512 E9000000 		.4byte	0xe9
 1163 0516 00       		.byte	0
 1164 0517 00       		.byte	0
 1165 0518 03       		.uleb128 0x3
 1166 0519 A9020000 		.4byte	.LASF85
 1167 051d 0A       		.byte	0xa
 1168 051e 3D       		.byte	0x3d
 1169 051f 03050000 		.4byte	0x503
 1170 0523 12       		.uleb128 0x12
 1171 0524 04       		.byte	0x4
 1172 0525 07       		.byte	0x7
 1173 0526 FA       		.byte	0xfa
 1174 0527 8C050000 		.4byte	0x58c
 1175 052b 13       		.uleb128 0x13
 1176 052c 1C000000 		.4byte	.LASF86
 1177 0530 07       		.byte	0x7
 1178 0531 0101     		.2byte	0x101
 1179 0533 20010000 		.4byte	0x120
 1180 0537 13       		.uleb128 0x13
 1181 0538 68000000 		.4byte	.LASF87
 1182 053c 07       		.byte	0x7
 1183 053d 0801     		.2byte	0x108
 1184 053f 20010000 		.4byte	0x120
 1185 0543 13       		.uleb128 0x13
 1186 0544 8C050000 		.4byte	.LASF88
 1187 0548 07       		.byte	0x7
 1188 0549 0F01     		.2byte	0x10f
 1189 054b A9000000 		.4byte	0xa9
 1190 054f 13       		.uleb128 0x13
 1191 0550 F6000000 		.4byte	.LASF89
 1192 0554 07       		.byte	0x7
 1193 0555 1601     		.2byte	0x116
 1194 0557 8C050000 		.4byte	0x58c
 1195 055b 13       		.uleb128 0x13
 1196 055c 7C000000 		.4byte	.LASF90
 1197 0560 07       		.byte	0x7
 1198 0561 1B01     		.2byte	0x11b
 1199 0563 20010000 		.4byte	0x120
 1200 0567 13       		.uleb128 0x13
 1201 0568 81010000 		.4byte	.LASF91
 1202 056c 07       		.byte	0x7
 1203 056d 2401     		.2byte	0x124
 1204 056f B7050000 		.4byte	0x5b7
 1205 0573 13       		.uleb128 0x13
 1206 0574 D9030000 		.4byte	.LASF92
 1207 0578 07       		.byte	0x7
 1208 0579 2D01     		.2byte	0x12d
 1209 057b EE050000 		.4byte	0x5ee
 1210 057f 13       		.uleb128 0x13
ARM GAS  /tmp/cctsBWOj.s 			page 38


 1211 0580 8A030000 		.4byte	.LASF93
 1212 0584 07       		.byte	0x7
 1213 0585 3501     		.2byte	0x135
 1214 0587 2B010000 		.4byte	0x12b
 1215 058b 00       		.byte	0
 1216 058c 06       		.uleb128 0x6
 1217 058d 04       		.byte	0x4
 1218 058e 37020000 		.4byte	0x237
 1219 0592 08       		.uleb128 0x8
 1220 0593 B8030000 		.4byte	.LASF94
 1221 0597 0C       		.byte	0xc
 1222 0598 0B       		.byte	0xb
 1223 0599 34       		.byte	0x34
 1224 059a B7050000 		.4byte	0x5b7
 1225 059e 09       		.uleb128 0x9
 1226 059f 2E010000 		.4byte	.LASF95
 1227 05a3 0B       		.byte	0xb
 1228 05a4 35       		.byte	0x35
 1229 05a5 6C020000 		.4byte	0x26c
 1230 05a9 00       		.byte	0
 1231 05aa 09       		.uleb128 0x9
 1232 05ab 93010000 		.4byte	.LASF96
 1233 05af 0B       		.byte	0xb
 1234 05b0 37       		.byte	0x37
 1235 05b1 36010000 		.4byte	0x136
 1236 05b5 08       		.byte	0x8
 1237 05b6 00       		.byte	0
 1238 05b7 06       		.uleb128 0x6
 1239 05b8 04       		.byte	0x4
 1240 05b9 92050000 		.4byte	0x592
 1241 05bd 08       		.uleb128 0x8
 1242 05be 8E040000 		.4byte	.LASF97
 1243 05c2 10       		.byte	0x10
 1244 05c3 0C       		.byte	0xc
 1245 05c4 39       		.byte	0x39
 1246 05c5 EE050000 		.4byte	0x5ee
 1247 05c9 09       		.uleb128 0x9
 1248 05ca E7000000 		.4byte	.LASF98
 1249 05ce 0C       		.byte	0xc
 1250 05cf 3A       		.byte	0x3a
 1251 05d0 6C020000 		.4byte	0x26c
 1252 05d4 00       		.byte	0
 1253 05d5 09       		.uleb128 0x9
 1254 05d6 A7050000 		.4byte	.LASF99
 1255 05da 0C       		.byte	0xc
 1256 05db 3C       		.byte	0x3c
 1257 05dc 42020000 		.4byte	0x242
 1258 05e0 08       		.byte	0x8
 1259 05e1 09       		.uleb128 0x9
 1260 05e2 26040000 		.4byte	.LASF100
 1261 05e6 0C       		.byte	0xc
 1262 05e7 3E       		.byte	0x3e
 1263 05e8 1A060000 		.4byte	0x61a
 1264 05ec 0C       		.byte	0xc
 1265 05ed 00       		.byte	0
 1266 05ee 06       		.uleb128 0x6
 1267 05ef 04       		.byte	0x4
ARM GAS  /tmp/cctsBWOj.s 			page 39


 1268 05f0 BD050000 		.4byte	0x5bd
 1269 05f4 06       		.uleb128 0x6
 1270 05f5 04       		.byte	0x4
 1271 05f6 1F030000 		.4byte	0x31f
 1272 05fa 14       		.uleb128 0x14
 1273 05fb B2000000 		.4byte	0xb2
 1274 05ff 15       		.uleb128 0x15
 1275 0600 5E040000 		.4byte	0x45e
 1276 0604 0F060000 		.4byte	0x60f
 1277 0608 16       		.uleb128 0x16
 1278 0609 A2000000 		.4byte	0xa2
 1279 060d 1A       		.byte	0x1a
 1280 060e 00       		.byte	0
 1281 060f 03       		.uleb128 0x3
 1282 0610 4F010000 		.4byte	.LASF101
 1283 0614 0C       		.byte	0xc
 1284 0615 34       		.byte	0x34
 1285 0616 BD050000 		.4byte	0x5bd
 1286 061a 06       		.uleb128 0x6
 1287 061b 04       		.byte	0x4
 1288 061c 0F060000 		.4byte	0x60f
 1289 0620 06       		.uleb128 0x6
 1290 0621 04       		.byte	0x4
 1291 0622 BD000000 		.4byte	0xbd
 1292 0626 17       		.uleb128 0x17
 1293 0627 2C000000 		.4byte	0x2c
 1294 062b 3F060000 		.4byte	0x63f
 1295 062f 0E       		.uleb128 0xe
 1296 0630 A9000000 		.4byte	0xa9
 1297 0634 0E       		.uleb128 0xe
 1298 0635 3F060000 		.4byte	0x63f
 1299 0639 0E       		.uleb128 0xe
 1300 063a 2C000000 		.4byte	0x2c
 1301 063e 00       		.byte	0
 1302 063f 06       		.uleb128 0x6
 1303 0640 04       		.byte	0x4
 1304 0641 45060000 		.4byte	0x645
 1305 0645 07       		.uleb128 0x7
 1306 0646 BD000000 		.4byte	0xbd
 1307 064a 06       		.uleb128 0x6
 1308 064b 04       		.byte	0x4
 1309 064c 26060000 		.4byte	0x626
 1310 0650 17       		.uleb128 0x17
 1311 0651 2C000000 		.4byte	0x2c
 1312 0655 69060000 		.4byte	0x669
 1313 0659 0E       		.uleb128 0xe
 1314 065a A9000000 		.4byte	0xa9
 1315 065e 0E       		.uleb128 0xe
 1316 065f 20060000 		.4byte	0x620
 1317 0663 0E       		.uleb128 0xe
 1318 0664 2C000000 		.4byte	0x2c
 1319 0668 00       		.byte	0
 1320 0669 06       		.uleb128 0x6
 1321 066a 04       		.byte	0x4
 1322 066b 50060000 		.4byte	0x650
 1323 066f 17       		.uleb128 0x17
 1324 0670 20010000 		.4byte	0x120
ARM GAS  /tmp/cctsBWOj.s 			page 40


 1325 0674 83060000 		.4byte	0x683
 1326 0678 0E       		.uleb128 0xe
 1327 0679 A9000000 		.4byte	0xa9
 1328 067d 0E       		.uleb128 0xe
 1329 067e BD000000 		.4byte	0xbd
 1330 0682 00       		.byte	0
 1331 0683 06       		.uleb128 0x6
 1332 0684 04       		.byte	0x4
 1333 0685 6F060000 		.4byte	0x66f
 1334 0689 17       		.uleb128 0x17
 1335 068a 20010000 		.4byte	0x120
 1336 068e 98060000 		.4byte	0x698
 1337 0692 0E       		.uleb128 0xe
 1338 0693 A9000000 		.4byte	0xa9
 1339 0697 00       		.byte	0
 1340 0698 06       		.uleb128 0x6
 1341 0699 04       		.byte	0x4
 1342 069a 89060000 		.4byte	0x689
 1343 069e 04       		.uleb128 0x4
 1344 069f 01       		.byte	0x1
 1345 06a0 02       		.byte	0x2
 1346 06a1 4B030000 		.4byte	.LASF102
 1347 06a5 08       		.uleb128 0x8
 1348 06a6 CC020000 		.4byte	.LASF103
 1349 06aa 10       		.byte	0x10
 1350 06ab 0D       		.byte	0xd
 1351 06ac 3D       		.byte	0x3d
 1352 06ad E2060000 		.4byte	0x6e2
 1353 06b1 09       		.uleb128 0x9
 1354 06b2 4E020000 		.4byte	.LASF104
 1355 06b6 0D       		.byte	0xd
 1356 06b7 3E       		.byte	0x3e
 1357 06b8 4A060000 		.4byte	0x64a
 1358 06bc 00       		.byte	0
 1359 06bd 09       		.uleb128 0x9
 1360 06be 13040000 		.4byte	.LASF105
 1361 06c2 0D       		.byte	0xd
 1362 06c3 3E       		.byte	0x3e
 1363 06c4 69060000 		.4byte	0x669
 1364 06c8 04       		.byte	0x4
 1365 06c9 10       		.uleb128 0x10
 1366 06ca 70757400 		.ascii	"put\000"
 1367 06ce 0D       		.byte	0xd
 1368 06cf 3E       		.byte	0x3e
 1369 06d0 83060000 		.4byte	0x683
 1370 06d4 08       		.byte	0x8
 1371 06d5 10       		.uleb128 0x10
 1372 06d6 67657400 		.ascii	"get\000"
 1373 06da 0D       		.byte	0xd
 1374 06db 3E       		.byte	0x3e
 1375 06dc 98060000 		.4byte	0x698
 1376 06e0 0C       		.byte	0xc
 1377 06e1 00       		.byte	0
 1378 06e2 11       		.uleb128 0x11
 1379 06e3 14       		.byte	0x14
 1380 06e4 0D       		.byte	0xd
 1381 06e5 46       		.byte	0x46
ARM GAS  /tmp/cctsBWOj.s 			page 41


 1382 06e6 27070000 		.4byte	0x727
 1383 06ea 10       		.uleb128 0x10
 1384 06eb 766D7400 		.ascii	"vmt\000"
 1385 06ef 0D       		.byte	0xd
 1386 06f0 48       		.byte	0x48
 1387 06f1 27070000 		.4byte	0x727
 1388 06f5 00       		.byte	0
 1389 06f6 09       		.uleb128 0x9
 1390 06f7 1F010000 		.4byte	.LASF106
 1391 06fb 0D       		.byte	0xd
 1392 06fc 49       		.byte	0x49
 1393 06fd 20060000 		.4byte	0x620
 1394 0701 04       		.byte	0x4
 1395 0702 09       		.uleb128 0x9
 1396 0703 93050000 		.4byte	.LASF107
 1397 0707 0D       		.byte	0xd
 1398 0708 49       		.byte	0x49
 1399 0709 2C000000 		.4byte	0x2c
 1400 070d 08       		.byte	0x8
 1401 070e 10       		.uleb128 0x10
 1402 070f 656F7300 		.ascii	"eos\000"
 1403 0713 0D       		.byte	0xd
 1404 0714 49       		.byte	0x49
 1405 0715 2C000000 		.4byte	0x2c
 1406 0719 0C       		.byte	0xc
 1407 071a 09       		.uleb128 0x9
 1408 071b 60040000 		.4byte	.LASF84
 1409 071f 0D       		.byte	0xd
 1410 0720 49       		.byte	0x49
 1411 0721 2C000000 		.4byte	0x2c
 1412 0725 10       		.byte	0x10
 1413 0726 00       		.byte	0
 1414 0727 06       		.uleb128 0x6
 1415 0728 04       		.byte	0x4
 1416 0729 2D070000 		.4byte	0x72d
 1417 072d 07       		.uleb128 0x7
 1418 072e A5060000 		.4byte	0x6a5
 1419 0732 03       		.uleb128 0x3
 1420 0733 2E030000 		.4byte	.LASF108
 1421 0737 0D       		.byte	0xd
 1422 0738 4A       		.byte	0x4a
 1423 0739 E2060000 		.4byte	0x6e2
 1424 073d 18       		.uleb128 0x18
 1425 073e 70757400 		.ascii	"put\000"
 1426 0742 01       		.byte	0x1
 1427 0743 42       		.byte	0x42
 1428 0744 20010000 		.4byte	0x120
 1429 0748 00000000 		.4byte	.LFB274
 1430 074c 1C000000 		.4byte	.LFE274-.LFB274
 1431 0750 01       		.uleb128 0x1
 1432 0751 9C       		.byte	0x9c
 1433 0752 7F070000 		.4byte	0x77f
 1434 0756 19       		.uleb128 0x19
 1435 0757 697000   		.ascii	"ip\000"
 1436 075a 01       		.byte	0x1
 1437 075b 42       		.byte	0x42
 1438 075c A9000000 		.4byte	0xa9
ARM GAS  /tmp/cctsBWOj.s 			page 42


 1439 0760 00000000 		.4byte	.LLST0
 1440 0764 1A       		.uleb128 0x1a
 1441 0765 6200     		.ascii	"b\000"
 1442 0767 01       		.byte	0x1
 1443 0768 42       		.byte	0x42
 1444 0769 BD000000 		.4byte	0xbd
 1445 076d 01       		.uleb128 0x1
 1446 076e 51       		.byte	0x51
 1447 076f 1B       		.uleb128 0x1b
 1448 0770 6D737000 		.ascii	"msp\000"
 1449 0774 01       		.byte	0x1
 1450 0775 43       		.byte	0x43
 1451 0776 7F070000 		.4byte	0x77f
 1452 077a 00000000 		.4byte	.LLST0
 1453 077e 00       		.byte	0
 1454 077f 06       		.uleb128 0x6
 1455 0780 04       		.byte	0x4
 1456 0781 32070000 		.4byte	0x732
 1457 0785 18       		.uleb128 0x18
 1458 0786 67657400 		.ascii	"get\000"
 1459 078a 01       		.byte	0x1
 1460 078b 4C       		.byte	0x4c
 1461 078c 20010000 		.4byte	0x120
 1462 0790 00000000 		.4byte	.LFB275
 1463 0794 1A000000 		.4byte	.LFE275-.LFB275
 1464 0798 01       		.uleb128 0x1
 1465 0799 9C       		.byte	0x9c
 1466 079a C9070000 		.4byte	0x7c9
 1467 079e 19       		.uleb128 0x19
 1468 079f 697000   		.ascii	"ip\000"
 1469 07a2 01       		.byte	0x1
 1470 07a3 4C       		.byte	0x4c
 1471 07a4 A9000000 		.4byte	0xa9
 1472 07a8 3A000000 		.4byte	.LLST2
 1473 07ac 1B       		.uleb128 0x1b
 1474 07ad 6200     		.ascii	"b\000"
 1475 07af 01       		.byte	0x1
 1476 07b0 4D       		.byte	0x4d
 1477 07b1 BD000000 		.4byte	0xbd
 1478 07b5 6E000000 		.4byte	.LLST3
 1479 07b9 1B       		.uleb128 0x1b
 1480 07ba 6D737000 		.ascii	"msp\000"
 1481 07be 01       		.byte	0x1
 1482 07bf 4E       		.byte	0x4e
 1483 07c0 7F070000 		.4byte	0x77f
 1484 07c4 A0000000 		.4byte	.LLST4
 1485 07c8 00       		.byte	0
 1486 07c9 1C       		.uleb128 0x1c
 1487 07ca BF000000 		.4byte	.LASF109
 1488 07ce 01       		.byte	0x1
 1489 07cf 38       		.byte	0x38
 1490 07d0 2C000000 		.4byte	0x2c
 1491 07d4 00000000 		.4byte	.LFB273
 1492 07d8 26000000 		.4byte	.LFE273-.LFB273
 1493 07dc 01       		.uleb128 0x1
 1494 07dd 9C       		.byte	0x9c
 1495 07de 32080000 		.4byte	0x832
ARM GAS  /tmp/cctsBWOj.s 			page 43


 1496 07e2 19       		.uleb128 0x19
 1497 07e3 697000   		.ascii	"ip\000"
 1498 07e6 01       		.byte	0x1
 1499 07e7 38       		.byte	0x38
 1500 07e8 A9000000 		.4byte	0xa9
 1501 07ec D4000000 		.4byte	.LLST5
 1502 07f0 19       		.uleb128 0x19
 1503 07f1 627000   		.ascii	"bp\000"
 1504 07f4 01       		.byte	0x1
 1505 07f5 38       		.byte	0x38
 1506 07f6 20060000 		.4byte	0x620
 1507 07fa F2000000 		.4byte	.LLST6
 1508 07fe 19       		.uleb128 0x19
 1509 07ff 6E00     		.ascii	"n\000"
 1510 0801 01       		.byte	0x1
 1511 0802 38       		.byte	0x38
 1512 0803 2C000000 		.4byte	0x2c
 1513 0807 1E010000 		.4byte	.LLST7
 1514 080b 1B       		.uleb128 0x1b
 1515 080c 6D737000 		.ascii	"msp\000"
 1516 0810 01       		.byte	0x1
 1517 0811 39       		.byte	0x39
 1518 0812 7F070000 		.4byte	0x77f
 1519 0816 3C010000 		.4byte	.LLST8
 1520 081a 1D       		.uleb128 0x1d
 1521 081b 1C000000 		.4byte	.LVL16
 1522 081f 14090000 		.4byte	0x914
 1523 0823 1E       		.uleb128 0x1e
 1524 0824 01       		.uleb128 0x1
 1525 0825 52       		.byte	0x52
 1526 0826 02       		.uleb128 0x2
 1527 0827 75       		.byte	0x75
 1528 0828 00       		.sleb128 0
 1529 0829 1E       		.uleb128 0x1e
 1530 082a 01       		.uleb128 0x1
 1531 082b 50       		.byte	0x50
 1532 082c 03       		.uleb128 0x3
 1533 082d F3       		.byte	0xf3
 1534 082e 01       		.uleb128 0x1
 1535 082f 51       		.byte	0x51
 1536 0830 00       		.byte	0
 1537 0831 00       		.byte	0
 1538 0832 1C       		.uleb128 0x1c
 1539 0833 C8010000 		.4byte	.LASF110
 1540 0837 01       		.byte	0x1
 1541 0838 2E       		.byte	0x2e
 1542 0839 2C000000 		.4byte	0x2c
 1543 083d 00000000 		.4byte	.LFB272
 1544 0841 24000000 		.4byte	.LFE272-.LFB272
 1545 0845 01       		.uleb128 0x1
 1546 0846 9C       		.byte	0x9c
 1547 0847 9B080000 		.4byte	0x89b
 1548 084b 19       		.uleb128 0x19
 1549 084c 697000   		.ascii	"ip\000"
 1550 084f 01       		.byte	0x1
 1551 0850 2E       		.byte	0x2e
 1552 0851 A9000000 		.4byte	0xa9
ARM GAS  /tmp/cctsBWOj.s 			page 44


 1553 0855 5A010000 		.4byte	.LLST9
 1554 0859 19       		.uleb128 0x19
 1555 085a 627000   		.ascii	"bp\000"
 1556 085d 01       		.byte	0x1
 1557 085e 2E       		.byte	0x2e
 1558 085f 3F060000 		.4byte	0x63f
 1559 0863 78010000 		.4byte	.LLST10
 1560 0867 19       		.uleb128 0x19
 1561 0868 6E00     		.ascii	"n\000"
 1562 086a 01       		.byte	0x1
 1563 086b 2E       		.byte	0x2e
 1564 086c 2C000000 		.4byte	0x2c
 1565 0870 99010000 		.4byte	.LLST11
 1566 0874 1B       		.uleb128 0x1b
 1567 0875 6D737000 		.ascii	"msp\000"
 1568 0879 01       		.byte	0x1
 1569 087a 2F       		.byte	0x2f
 1570 087b 7F070000 		.4byte	0x77f
 1571 087f B7010000 		.4byte	.LLST12
 1572 0883 1D       		.uleb128 0x1d
 1573 0884 1A000000 		.4byte	.LVL21
 1574 0888 14090000 		.4byte	0x914
 1575 088c 1E       		.uleb128 0x1e
 1576 088d 01       		.uleb128 0x1
 1577 088e 52       		.byte	0x52
 1578 088f 02       		.uleb128 0x2
 1579 0890 75       		.byte	0x75
 1580 0891 00       		.sleb128 0
 1581 0892 1E       		.uleb128 0x1e
 1582 0893 01       		.uleb128 0x1
 1583 0894 51       		.byte	0x51
 1584 0895 03       		.uleb128 0x3
 1585 0896 F3       		.byte	0xf3
 1586 0897 01       		.uleb128 0x1
 1587 0898 51       		.byte	0x51
 1588 0899 00       		.byte	0
 1589 089a 00       		.byte	0
 1590 089b 1F       		.uleb128 0x1f
 1591 089c 41020000 		.4byte	.LASF115
 1592 08a0 01       		.byte	0x1
 1593 08a1 67       		.byte	0x67
 1594 08a2 00000000 		.4byte	.LFB276
 1595 08a6 1C000000 		.4byte	.LFE276-.LFB276
 1596 08aa 01       		.uleb128 0x1
 1597 08ab 9C       		.byte	0x9c
 1598 08ac E7080000 		.4byte	0x8e7
 1599 08b0 1A       		.uleb128 0x1a
 1600 08b1 6D737000 		.ascii	"msp\000"
 1601 08b5 01       		.byte	0x1
 1602 08b6 67       		.byte	0x67
 1603 08b7 7F070000 		.4byte	0x77f
 1604 08bb 01       		.uleb128 0x1
 1605 08bc 50       		.byte	0x50
 1606 08bd 20       		.uleb128 0x20
 1607 08be 1F010000 		.4byte	.LASF106
 1608 08c2 01       		.byte	0x1
 1609 08c3 67       		.byte	0x67
ARM GAS  /tmp/cctsBWOj.s 			page 45


 1610 08c4 20060000 		.4byte	0x620
 1611 08c8 D5010000 		.4byte	.LLST13
 1612 08cc 21       		.uleb128 0x21
 1613 08cd 93050000 		.4byte	.LASF107
 1614 08d1 01       		.byte	0x1
 1615 08d2 68       		.byte	0x68
 1616 08d3 2C000000 		.4byte	0x2c
 1617 08d7 01       		.uleb128 0x1
 1618 08d8 52       		.byte	0x52
 1619 08d9 1A       		.uleb128 0x1a
 1620 08da 656F7300 		.ascii	"eos\000"
 1621 08de 01       		.byte	0x1
 1622 08df 68       		.byte	0x68
 1623 08e0 2C000000 		.4byte	0x2c
 1624 08e4 01       		.uleb128 0x1
 1625 08e5 53       		.byte	0x53
 1626 08e6 00       		.byte	0
 1627 08e7 22       		.uleb128 0x22
 1628 08e8 766D7400 		.ascii	"vmt\000"
 1629 08ec 01       		.byte	0x1
 1630 08ed 57       		.byte	0x57
 1631 08ee 2D070000 		.4byte	0x72d
 1632 08f2 05       		.uleb128 0x5
 1633 08f3 03       		.byte	0x3
 1634 08f4 00000000 		.4byte	vmt
 1635 08f8 23       		.uleb128 0x23
 1636 08f9 9A000000 		.4byte	.LASF111
 1637 08fd 0E       		.byte	0xe
 1638 08fe FA06     		.2byte	0x6fa
 1639 0900 04090000 		.4byte	0x904
 1640 0904 14       		.uleb128 0x14
 1641 0905 C8000000 		.4byte	0xc8
 1642 0909 24       		.uleb128 0x24
 1643 090a 636800   		.ascii	"ch\000"
 1644 090d 07       		.byte	0x7
 1645 090e 0B02     		.2byte	0x20b
 1646 0910 EC030000 		.4byte	0x3ec
 1647 0914 25       		.uleb128 0x25
 1648 0915 18010000 		.4byte	.LASF116
 1649 0919 A9000000 		.4byte	0xa9
 1650 091d 31090000 		.4byte	0x931
 1651 0921 0E       		.uleb128 0xe
 1652 0922 A9000000 		.4byte	0xa9
 1653 0926 0E       		.uleb128 0xe
 1654 0927 31090000 		.4byte	0x931
 1655 092b 0E       		.uleb128 0xe
 1656 092c A2000000 		.4byte	0xa2
 1657 0930 00       		.byte	0
 1658 0931 06       		.uleb128 0x6
 1659 0932 04       		.byte	0x4
 1660 0933 37090000 		.4byte	0x937
 1661 0937 26       		.uleb128 0x26
 1662 0938 00       		.byte	0
 1663              		.section	.debug_abbrev,"",%progbits
 1664              	.Ldebug_abbrev0:
 1665 0000 01       		.uleb128 0x1
 1666 0001 11       		.uleb128 0x11
ARM GAS  /tmp/cctsBWOj.s 			page 46


 1667 0002 01       		.byte	0x1
 1668 0003 25       		.uleb128 0x25
 1669 0004 0E       		.uleb128 0xe
 1670 0005 13       		.uleb128 0x13
 1671 0006 0B       		.uleb128 0xb
 1672 0007 03       		.uleb128 0x3
 1673 0008 0E       		.uleb128 0xe
 1674 0009 1B       		.uleb128 0x1b
 1675 000a 0E       		.uleb128 0xe
 1676 000b 55       		.uleb128 0x55
 1677 000c 17       		.uleb128 0x17
 1678 000d 11       		.uleb128 0x11
 1679 000e 01       		.uleb128 0x1
 1680 000f 10       		.uleb128 0x10
 1681 0010 17       		.uleb128 0x17
 1682 0011 00       		.byte	0
 1683 0012 00       		.byte	0
 1684 0013 02       		.uleb128 0x2
 1685 0014 24       		.uleb128 0x24
 1686 0015 00       		.byte	0
 1687 0016 0B       		.uleb128 0xb
 1688 0017 0B       		.uleb128 0xb
 1689 0018 3E       		.uleb128 0x3e
 1690 0019 0B       		.uleb128 0xb
 1691 001a 03       		.uleb128 0x3
 1692 001b 08       		.uleb128 0x8
 1693 001c 00       		.byte	0
 1694 001d 00       		.byte	0
 1695 001e 03       		.uleb128 0x3
 1696 001f 16       		.uleb128 0x16
 1697 0020 00       		.byte	0
 1698 0021 03       		.uleb128 0x3
 1699 0022 0E       		.uleb128 0xe
 1700 0023 3A       		.uleb128 0x3a
 1701 0024 0B       		.uleb128 0xb
 1702 0025 3B       		.uleb128 0x3b
 1703 0026 0B       		.uleb128 0xb
 1704 0027 49       		.uleb128 0x49
 1705 0028 13       		.uleb128 0x13
 1706 0029 00       		.byte	0
 1707 002a 00       		.byte	0
 1708 002b 04       		.uleb128 0x4
 1709 002c 24       		.uleb128 0x24
 1710 002d 00       		.byte	0
 1711 002e 0B       		.uleb128 0xb
 1712 002f 0B       		.uleb128 0xb
 1713 0030 3E       		.uleb128 0x3e
 1714 0031 0B       		.uleb128 0xb
 1715 0032 03       		.uleb128 0x3
 1716 0033 0E       		.uleb128 0xe
 1717 0034 00       		.byte	0
 1718 0035 00       		.byte	0
 1719 0036 05       		.uleb128 0x5
 1720 0037 0F       		.uleb128 0xf
 1721 0038 00       		.byte	0
 1722 0039 0B       		.uleb128 0xb
 1723 003a 0B       		.uleb128 0xb
ARM GAS  /tmp/cctsBWOj.s 			page 47


 1724 003b 00       		.byte	0
 1725 003c 00       		.byte	0
 1726 003d 06       		.uleb128 0x6
 1727 003e 0F       		.uleb128 0xf
 1728 003f 00       		.byte	0
 1729 0040 0B       		.uleb128 0xb
 1730 0041 0B       		.uleb128 0xb
 1731 0042 49       		.uleb128 0x49
 1732 0043 13       		.uleb128 0x13
 1733 0044 00       		.byte	0
 1734 0045 00       		.byte	0
 1735 0046 07       		.uleb128 0x7
 1736 0047 26       		.uleb128 0x26
 1737 0048 00       		.byte	0
 1738 0049 49       		.uleb128 0x49
 1739 004a 13       		.uleb128 0x13
 1740 004b 00       		.byte	0
 1741 004c 00       		.byte	0
 1742 004d 08       		.uleb128 0x8
 1743 004e 13       		.uleb128 0x13
 1744 004f 01       		.byte	0x1
 1745 0050 03       		.uleb128 0x3
 1746 0051 0E       		.uleb128 0xe
 1747 0052 0B       		.uleb128 0xb
 1748 0053 0B       		.uleb128 0xb
 1749 0054 3A       		.uleb128 0x3a
 1750 0055 0B       		.uleb128 0xb
 1751 0056 3B       		.uleb128 0x3b
 1752 0057 0B       		.uleb128 0xb
 1753 0058 01       		.uleb128 0x1
 1754 0059 13       		.uleb128 0x13
 1755 005a 00       		.byte	0
 1756 005b 00       		.byte	0
 1757 005c 09       		.uleb128 0x9
 1758 005d 0D       		.uleb128 0xd
 1759 005e 00       		.byte	0
 1760 005f 03       		.uleb128 0x3
 1761 0060 0E       		.uleb128 0xe
 1762 0061 3A       		.uleb128 0x3a
 1763 0062 0B       		.uleb128 0xb
 1764 0063 3B       		.uleb128 0x3b
 1765 0064 0B       		.uleb128 0xb
 1766 0065 49       		.uleb128 0x49
 1767 0066 13       		.uleb128 0x13
 1768 0067 38       		.uleb128 0x38
 1769 0068 0B       		.uleb128 0xb
 1770 0069 00       		.byte	0
 1771 006a 00       		.byte	0
 1772 006b 0A       		.uleb128 0xa
 1773 006c 0D       		.uleb128 0xd
 1774 006d 00       		.byte	0
 1775 006e 03       		.uleb128 0x3
 1776 006f 08       		.uleb128 0x8
 1777 0070 3A       		.uleb128 0x3a
 1778 0071 0B       		.uleb128 0xb
 1779 0072 3B       		.uleb128 0x3b
 1780 0073 05       		.uleb128 0x5
ARM GAS  /tmp/cctsBWOj.s 			page 48


 1781 0074 49       		.uleb128 0x49
 1782 0075 13       		.uleb128 0x13
 1783 0076 38       		.uleb128 0x38
 1784 0077 0B       		.uleb128 0xb
 1785 0078 00       		.byte	0
 1786 0079 00       		.byte	0
 1787 007a 0B       		.uleb128 0xb
 1788 007b 0D       		.uleb128 0xd
 1789 007c 00       		.byte	0
 1790 007d 03       		.uleb128 0x3
 1791 007e 0E       		.uleb128 0xe
 1792 007f 3A       		.uleb128 0x3a
 1793 0080 0B       		.uleb128 0xb
 1794 0081 3B       		.uleb128 0x3b
 1795 0082 05       		.uleb128 0x5
 1796 0083 49       		.uleb128 0x49
 1797 0084 13       		.uleb128 0x13
 1798 0085 38       		.uleb128 0x38
 1799 0086 0B       		.uleb128 0xb
 1800 0087 00       		.byte	0
 1801 0088 00       		.byte	0
 1802 0089 0C       		.uleb128 0xc
 1803 008a 13       		.uleb128 0x13
 1804 008b 01       		.byte	0x1
 1805 008c 03       		.uleb128 0x3
 1806 008d 0E       		.uleb128 0xe
 1807 008e 0B       		.uleb128 0xb
 1808 008f 0B       		.uleb128 0xb
 1809 0090 3A       		.uleb128 0x3a
 1810 0091 0B       		.uleb128 0xb
 1811 0092 3B       		.uleb128 0x3b
 1812 0093 05       		.uleb128 0x5
 1813 0094 01       		.uleb128 0x1
 1814 0095 13       		.uleb128 0x13
 1815 0096 00       		.byte	0
 1816 0097 00       		.byte	0
 1817 0098 0D       		.uleb128 0xd
 1818 0099 15       		.uleb128 0x15
 1819 009a 01       		.byte	0x1
 1820 009b 27       		.uleb128 0x27
 1821 009c 19       		.uleb128 0x19
 1822 009d 01       		.uleb128 0x1
 1823 009e 13       		.uleb128 0x13
 1824 009f 00       		.byte	0
 1825 00a0 00       		.byte	0
 1826 00a1 0E       		.uleb128 0xe
 1827 00a2 05       		.uleb128 0x5
 1828 00a3 00       		.byte	0
 1829 00a4 49       		.uleb128 0x49
 1830 00a5 13       		.uleb128 0x13
 1831 00a6 00       		.byte	0
 1832 00a7 00       		.byte	0
 1833 00a8 0F       		.uleb128 0xf
 1834 00a9 13       		.uleb128 0x13
 1835 00aa 01       		.byte	0x1
 1836 00ab 03       		.uleb128 0x3
 1837 00ac 0E       		.uleb128 0xe
ARM GAS  /tmp/cctsBWOj.s 			page 49


 1838 00ad 0B       		.uleb128 0xb
 1839 00ae 05       		.uleb128 0x5
 1840 00af 3A       		.uleb128 0x3a
 1841 00b0 0B       		.uleb128 0xb
 1842 00b1 3B       		.uleb128 0x3b
 1843 00b2 05       		.uleb128 0x5
 1844 00b3 01       		.uleb128 0x1
 1845 00b4 13       		.uleb128 0x13
 1846 00b5 00       		.byte	0
 1847 00b6 00       		.byte	0
 1848 00b7 10       		.uleb128 0x10
 1849 00b8 0D       		.uleb128 0xd
 1850 00b9 00       		.byte	0
 1851 00ba 03       		.uleb128 0x3
 1852 00bb 08       		.uleb128 0x8
 1853 00bc 3A       		.uleb128 0x3a
 1854 00bd 0B       		.uleb128 0xb
 1855 00be 3B       		.uleb128 0x3b
 1856 00bf 0B       		.uleb128 0xb
 1857 00c0 49       		.uleb128 0x49
 1858 00c1 13       		.uleb128 0x13
 1859 00c2 38       		.uleb128 0x38
 1860 00c3 0B       		.uleb128 0xb
 1861 00c4 00       		.byte	0
 1862 00c5 00       		.byte	0
 1863 00c6 11       		.uleb128 0x11
 1864 00c7 13       		.uleb128 0x13
 1865 00c8 01       		.byte	0x1
 1866 00c9 0B       		.uleb128 0xb
 1867 00ca 0B       		.uleb128 0xb
 1868 00cb 3A       		.uleb128 0x3a
 1869 00cc 0B       		.uleb128 0xb
 1870 00cd 3B       		.uleb128 0x3b
 1871 00ce 0B       		.uleb128 0xb
 1872 00cf 01       		.uleb128 0x1
 1873 00d0 13       		.uleb128 0x13
 1874 00d1 00       		.byte	0
 1875 00d2 00       		.byte	0
 1876 00d3 12       		.uleb128 0x12
 1877 00d4 17       		.uleb128 0x17
 1878 00d5 01       		.byte	0x1
 1879 00d6 0B       		.uleb128 0xb
 1880 00d7 0B       		.uleb128 0xb
 1881 00d8 3A       		.uleb128 0x3a
 1882 00d9 0B       		.uleb128 0xb
 1883 00da 3B       		.uleb128 0x3b
 1884 00db 0B       		.uleb128 0xb
 1885 00dc 01       		.uleb128 0x1
 1886 00dd 13       		.uleb128 0x13
 1887 00de 00       		.byte	0
 1888 00df 00       		.byte	0
 1889 00e0 13       		.uleb128 0x13
 1890 00e1 0D       		.uleb128 0xd
 1891 00e2 00       		.byte	0
 1892 00e3 03       		.uleb128 0x3
 1893 00e4 0E       		.uleb128 0xe
 1894 00e5 3A       		.uleb128 0x3a
ARM GAS  /tmp/cctsBWOj.s 			page 50


 1895 00e6 0B       		.uleb128 0xb
 1896 00e7 3B       		.uleb128 0x3b
 1897 00e8 05       		.uleb128 0x5
 1898 00e9 49       		.uleb128 0x49
 1899 00ea 13       		.uleb128 0x13
 1900 00eb 00       		.byte	0
 1901 00ec 00       		.byte	0
 1902 00ed 14       		.uleb128 0x14
 1903 00ee 35       		.uleb128 0x35
 1904 00ef 00       		.byte	0
 1905 00f0 49       		.uleb128 0x49
 1906 00f1 13       		.uleb128 0x13
 1907 00f2 00       		.byte	0
 1908 00f3 00       		.byte	0
 1909 00f4 15       		.uleb128 0x15
 1910 00f5 01       		.uleb128 0x1
 1911 00f6 01       		.byte	0x1
 1912 00f7 49       		.uleb128 0x49
 1913 00f8 13       		.uleb128 0x13
 1914 00f9 01       		.uleb128 0x1
 1915 00fa 13       		.uleb128 0x13
 1916 00fb 00       		.byte	0
 1917 00fc 00       		.byte	0
 1918 00fd 16       		.uleb128 0x16
 1919 00fe 21       		.uleb128 0x21
 1920 00ff 00       		.byte	0
 1921 0100 49       		.uleb128 0x49
 1922 0101 13       		.uleb128 0x13
 1923 0102 2F       		.uleb128 0x2f
 1924 0103 0B       		.uleb128 0xb
 1925 0104 00       		.byte	0
 1926 0105 00       		.byte	0
 1927 0106 17       		.uleb128 0x17
 1928 0107 15       		.uleb128 0x15
 1929 0108 01       		.byte	0x1
 1930 0109 27       		.uleb128 0x27
 1931 010a 19       		.uleb128 0x19
 1932 010b 49       		.uleb128 0x49
 1933 010c 13       		.uleb128 0x13
 1934 010d 01       		.uleb128 0x1
 1935 010e 13       		.uleb128 0x13
 1936 010f 00       		.byte	0
 1937 0110 00       		.byte	0
 1938 0111 18       		.uleb128 0x18
 1939 0112 2E       		.uleb128 0x2e
 1940 0113 01       		.byte	0x1
 1941 0114 03       		.uleb128 0x3
 1942 0115 08       		.uleb128 0x8
 1943 0116 3A       		.uleb128 0x3a
 1944 0117 0B       		.uleb128 0xb
 1945 0118 3B       		.uleb128 0x3b
 1946 0119 0B       		.uleb128 0xb
 1947 011a 27       		.uleb128 0x27
 1948 011b 19       		.uleb128 0x19
 1949 011c 49       		.uleb128 0x49
 1950 011d 13       		.uleb128 0x13
 1951 011e 11       		.uleb128 0x11
ARM GAS  /tmp/cctsBWOj.s 			page 51


 1952 011f 01       		.uleb128 0x1
 1953 0120 12       		.uleb128 0x12
 1954 0121 06       		.uleb128 0x6
 1955 0122 40       		.uleb128 0x40
 1956 0123 18       		.uleb128 0x18
 1957 0124 9742     		.uleb128 0x2117
 1958 0126 19       		.uleb128 0x19
 1959 0127 01       		.uleb128 0x1
 1960 0128 13       		.uleb128 0x13
 1961 0129 00       		.byte	0
 1962 012a 00       		.byte	0
 1963 012b 19       		.uleb128 0x19
 1964 012c 05       		.uleb128 0x5
 1965 012d 00       		.byte	0
 1966 012e 03       		.uleb128 0x3
 1967 012f 08       		.uleb128 0x8
 1968 0130 3A       		.uleb128 0x3a
 1969 0131 0B       		.uleb128 0xb
 1970 0132 3B       		.uleb128 0x3b
 1971 0133 0B       		.uleb128 0xb
 1972 0134 49       		.uleb128 0x49
 1973 0135 13       		.uleb128 0x13
 1974 0136 02       		.uleb128 0x2
 1975 0137 17       		.uleb128 0x17
 1976 0138 00       		.byte	0
 1977 0139 00       		.byte	0
 1978 013a 1A       		.uleb128 0x1a
 1979 013b 05       		.uleb128 0x5
 1980 013c 00       		.byte	0
 1981 013d 03       		.uleb128 0x3
 1982 013e 08       		.uleb128 0x8
 1983 013f 3A       		.uleb128 0x3a
 1984 0140 0B       		.uleb128 0xb
 1985 0141 3B       		.uleb128 0x3b
 1986 0142 0B       		.uleb128 0xb
 1987 0143 49       		.uleb128 0x49
 1988 0144 13       		.uleb128 0x13
 1989 0145 02       		.uleb128 0x2
 1990 0146 18       		.uleb128 0x18
 1991 0147 00       		.byte	0
 1992 0148 00       		.byte	0
 1993 0149 1B       		.uleb128 0x1b
 1994 014a 34       		.uleb128 0x34
 1995 014b 00       		.byte	0
 1996 014c 03       		.uleb128 0x3
 1997 014d 08       		.uleb128 0x8
 1998 014e 3A       		.uleb128 0x3a
 1999 014f 0B       		.uleb128 0xb
 2000 0150 3B       		.uleb128 0x3b
 2001 0151 0B       		.uleb128 0xb
 2002 0152 49       		.uleb128 0x49
 2003 0153 13       		.uleb128 0x13
 2004 0154 02       		.uleb128 0x2
 2005 0155 17       		.uleb128 0x17
 2006 0156 00       		.byte	0
 2007 0157 00       		.byte	0
 2008 0158 1C       		.uleb128 0x1c
ARM GAS  /tmp/cctsBWOj.s 			page 52


 2009 0159 2E       		.uleb128 0x2e
 2010 015a 01       		.byte	0x1
 2011 015b 03       		.uleb128 0x3
 2012 015c 0E       		.uleb128 0xe
 2013 015d 3A       		.uleb128 0x3a
 2014 015e 0B       		.uleb128 0xb
 2015 015f 3B       		.uleb128 0x3b
 2016 0160 0B       		.uleb128 0xb
 2017 0161 27       		.uleb128 0x27
 2018 0162 19       		.uleb128 0x19
 2019 0163 49       		.uleb128 0x49
 2020 0164 13       		.uleb128 0x13
 2021 0165 11       		.uleb128 0x11
 2022 0166 01       		.uleb128 0x1
 2023 0167 12       		.uleb128 0x12
 2024 0168 06       		.uleb128 0x6
 2025 0169 40       		.uleb128 0x40
 2026 016a 18       		.uleb128 0x18
 2027 016b 9742     		.uleb128 0x2117
 2028 016d 19       		.uleb128 0x19
 2029 016e 01       		.uleb128 0x1
 2030 016f 13       		.uleb128 0x13
 2031 0170 00       		.byte	0
 2032 0171 00       		.byte	0
 2033 0172 1D       		.uleb128 0x1d
 2034 0173 898201   		.uleb128 0x4109
 2035 0176 01       		.byte	0x1
 2036 0177 11       		.uleb128 0x11
 2037 0178 01       		.uleb128 0x1
 2038 0179 31       		.uleb128 0x31
 2039 017a 13       		.uleb128 0x13
 2040 017b 00       		.byte	0
 2041 017c 00       		.byte	0
 2042 017d 1E       		.uleb128 0x1e
 2043 017e 8A8201   		.uleb128 0x410a
 2044 0181 00       		.byte	0
 2045 0182 02       		.uleb128 0x2
 2046 0183 18       		.uleb128 0x18
 2047 0184 9142     		.uleb128 0x2111
 2048 0186 18       		.uleb128 0x18
 2049 0187 00       		.byte	0
 2050 0188 00       		.byte	0
 2051 0189 1F       		.uleb128 0x1f
 2052 018a 2E       		.uleb128 0x2e
 2053 018b 01       		.byte	0x1
 2054 018c 3F       		.uleb128 0x3f
 2055 018d 19       		.uleb128 0x19
 2056 018e 03       		.uleb128 0x3
 2057 018f 0E       		.uleb128 0xe
 2058 0190 3A       		.uleb128 0x3a
 2059 0191 0B       		.uleb128 0xb
 2060 0192 3B       		.uleb128 0x3b
 2061 0193 0B       		.uleb128 0xb
 2062 0194 27       		.uleb128 0x27
 2063 0195 19       		.uleb128 0x19
 2064 0196 11       		.uleb128 0x11
 2065 0197 01       		.uleb128 0x1
ARM GAS  /tmp/cctsBWOj.s 			page 53


 2066 0198 12       		.uleb128 0x12
 2067 0199 06       		.uleb128 0x6
 2068 019a 40       		.uleb128 0x40
 2069 019b 18       		.uleb128 0x18
 2070 019c 9742     		.uleb128 0x2117
 2071 019e 19       		.uleb128 0x19
 2072 019f 01       		.uleb128 0x1
 2073 01a0 13       		.uleb128 0x13
 2074 01a1 00       		.byte	0
 2075 01a2 00       		.byte	0
 2076 01a3 20       		.uleb128 0x20
 2077 01a4 05       		.uleb128 0x5
 2078 01a5 00       		.byte	0
 2079 01a6 03       		.uleb128 0x3
 2080 01a7 0E       		.uleb128 0xe
 2081 01a8 3A       		.uleb128 0x3a
 2082 01a9 0B       		.uleb128 0xb
 2083 01aa 3B       		.uleb128 0x3b
 2084 01ab 0B       		.uleb128 0xb
 2085 01ac 49       		.uleb128 0x49
 2086 01ad 13       		.uleb128 0x13
 2087 01ae 02       		.uleb128 0x2
 2088 01af 17       		.uleb128 0x17
 2089 01b0 00       		.byte	0
 2090 01b1 00       		.byte	0
 2091 01b2 21       		.uleb128 0x21
 2092 01b3 05       		.uleb128 0x5
 2093 01b4 00       		.byte	0
 2094 01b5 03       		.uleb128 0x3
 2095 01b6 0E       		.uleb128 0xe
 2096 01b7 3A       		.uleb128 0x3a
 2097 01b8 0B       		.uleb128 0xb
 2098 01b9 3B       		.uleb128 0x3b
 2099 01ba 0B       		.uleb128 0xb
 2100 01bb 49       		.uleb128 0x49
 2101 01bc 13       		.uleb128 0x13
 2102 01bd 02       		.uleb128 0x2
 2103 01be 18       		.uleb128 0x18
 2104 01bf 00       		.byte	0
 2105 01c0 00       		.byte	0
 2106 01c1 22       		.uleb128 0x22
 2107 01c2 34       		.uleb128 0x34
 2108 01c3 00       		.byte	0
 2109 01c4 03       		.uleb128 0x3
 2110 01c5 08       		.uleb128 0x8
 2111 01c6 3A       		.uleb128 0x3a
 2112 01c7 0B       		.uleb128 0xb
 2113 01c8 3B       		.uleb128 0x3b
 2114 01c9 0B       		.uleb128 0xb
 2115 01ca 49       		.uleb128 0x49
 2116 01cb 13       		.uleb128 0x13
 2117 01cc 02       		.uleb128 0x2
 2118 01cd 18       		.uleb128 0x18
 2119 01ce 00       		.byte	0
 2120 01cf 00       		.byte	0
 2121 01d0 23       		.uleb128 0x23
 2122 01d1 34       		.uleb128 0x34
ARM GAS  /tmp/cctsBWOj.s 			page 54


 2123 01d2 00       		.byte	0
 2124 01d3 03       		.uleb128 0x3
 2125 01d4 0E       		.uleb128 0xe
 2126 01d5 3A       		.uleb128 0x3a
 2127 01d6 0B       		.uleb128 0xb
 2128 01d7 3B       		.uleb128 0x3b
 2129 01d8 05       		.uleb128 0x5
 2130 01d9 49       		.uleb128 0x49
 2131 01da 13       		.uleb128 0x13
 2132 01db 3F       		.uleb128 0x3f
 2133 01dc 19       		.uleb128 0x19
 2134 01dd 3C       		.uleb128 0x3c
 2135 01de 19       		.uleb128 0x19
 2136 01df 00       		.byte	0
 2137 01e0 00       		.byte	0
 2138 01e1 24       		.uleb128 0x24
 2139 01e2 34       		.uleb128 0x34
 2140 01e3 00       		.byte	0
 2141 01e4 03       		.uleb128 0x3
 2142 01e5 08       		.uleb128 0x8
 2143 01e6 3A       		.uleb128 0x3a
 2144 01e7 0B       		.uleb128 0xb
 2145 01e8 3B       		.uleb128 0x3b
 2146 01e9 05       		.uleb128 0x5
 2147 01ea 49       		.uleb128 0x49
 2148 01eb 13       		.uleb128 0x13
 2149 01ec 3F       		.uleb128 0x3f
 2150 01ed 19       		.uleb128 0x19
 2151 01ee 3C       		.uleb128 0x3c
 2152 01ef 19       		.uleb128 0x19
 2153 01f0 00       		.byte	0
 2154 01f1 00       		.byte	0
 2155 01f2 25       		.uleb128 0x25
 2156 01f3 2E       		.uleb128 0x2e
 2157 01f4 01       		.byte	0x1
 2158 01f5 3F       		.uleb128 0x3f
 2159 01f6 19       		.uleb128 0x19
 2160 01f7 03       		.uleb128 0x3
 2161 01f8 0E       		.uleb128 0xe
 2162 01f9 27       		.uleb128 0x27
 2163 01fa 19       		.uleb128 0x19
 2164 01fb 49       		.uleb128 0x49
 2165 01fc 13       		.uleb128 0x13
 2166 01fd 34       		.uleb128 0x34
 2167 01fe 19       		.uleb128 0x19
 2168 01ff 3C       		.uleb128 0x3c
 2169 0200 19       		.uleb128 0x19
 2170 0201 01       		.uleb128 0x1
 2171 0202 13       		.uleb128 0x13
 2172 0203 00       		.byte	0
 2173 0204 00       		.byte	0
 2174 0205 26       		.uleb128 0x26
 2175 0206 26       		.uleb128 0x26
 2176 0207 00       		.byte	0
 2177 0208 00       		.byte	0
 2178 0209 00       		.byte	0
 2179 020a 00       		.byte	0
ARM GAS  /tmp/cctsBWOj.s 			page 55


 2180              		.section	.debug_loc,"",%progbits
 2181              	.Ldebug_loc0:
 2182              	.LLST0:
 2183 0000 00000000 		.4byte	.LVL0
 2184 0004 14000000 		.4byte	.LVL1
 2185 0008 0100     		.2byte	0x1
 2186 000a 50       		.byte	0x50
 2187 000b 14000000 		.4byte	.LVL1
 2188 000f 16000000 		.4byte	.LVL2
 2189 0013 0400     		.2byte	0x4
 2190 0015 F3       		.byte	0xf3
 2191 0016 01       		.uleb128 0x1
 2192 0017 50       		.byte	0x50
 2193 0018 9F       		.byte	0x9f
 2194 0019 16000000 		.4byte	.LVL2
 2195 001d 1A000000 		.4byte	.LVL3
 2196 0021 0100     		.2byte	0x1
 2197 0023 50       		.byte	0x50
 2198 0024 1A000000 		.4byte	.LVL3
 2199 0028 1C000000 		.4byte	.LFE274
 2200 002c 0400     		.2byte	0x4
 2201 002e F3       		.byte	0xf3
 2202 002f 01       		.uleb128 0x1
 2203 0030 50       		.byte	0x50
 2204 0031 9F       		.byte	0x9f
 2205 0032 00000000 		.4byte	0
 2206 0036 00000000 		.4byte	0
 2207              	.LLST2:
 2208 003a 00000000 		.4byte	.LVL4
 2209 003e 0E000000 		.4byte	.LVL6
 2210 0042 0100     		.2byte	0x1
 2211 0044 50       		.byte	0x50
 2212 0045 0E000000 		.4byte	.LVL6
 2213 0049 14000000 		.4byte	.LVL9
 2214 004d 0100     		.2byte	0x1
 2215 004f 53       		.byte	0x53
 2216 0050 14000000 		.4byte	.LVL9
 2217 0054 18000000 		.4byte	.LVL10
 2218 0058 0100     		.2byte	0x1
 2219 005a 50       		.byte	0x50
 2220 005b 18000000 		.4byte	.LVL10
 2221 005f 1A000000 		.4byte	.LFE275
 2222 0063 0100     		.2byte	0x1
 2223 0065 53       		.byte	0x53
 2224 0066 00000000 		.4byte	0
 2225 006a 00000000 		.4byte	0
 2226              	.LLST3:
 2227 006e 0E000000 		.4byte	.LVL6
 2228 0072 10000000 		.4byte	.LVL7
 2229 0076 0500     		.2byte	0x5
 2230 0078 71       		.byte	0x71
 2231 0079 00       		.sleb128 0
 2232 007a 72       		.byte	0x72
 2233 007b 00       		.sleb128 0
 2234 007c 22       		.byte	0x22
 2235 007d 10000000 		.4byte	.LVL7
 2236 0081 12000000 		.4byte	.LVL8
ARM GAS  /tmp/cctsBWOj.s 			page 56


 2237 0085 0600     		.2byte	0x6
 2238 0087 71       		.byte	0x71
 2239 0088 00       		.sleb128 0
 2240 0089 73       		.byte	0x73
 2241 008a 10       		.sleb128 16
 2242 008b 06       		.byte	0x6
 2243 008c 22       		.byte	0x22
 2244 008d 12000000 		.4byte	.LVL8
 2245 0091 14000000 		.4byte	.LVL9
 2246 0095 0100     		.2byte	0x1
 2247 0097 50       		.byte	0x50
 2248 0098 00000000 		.4byte	0
 2249 009c 00000000 		.4byte	0
 2250              	.LLST4:
 2251 00a0 08000000 		.4byte	.LVL5
 2252 00a4 0E000000 		.4byte	.LVL6
 2253 00a8 0100     		.2byte	0x1
 2254 00aa 50       		.byte	0x50
 2255 00ab 0E000000 		.4byte	.LVL6
 2256 00af 14000000 		.4byte	.LVL9
 2257 00b3 0100     		.2byte	0x1
 2258 00b5 53       		.byte	0x53
 2259 00b6 14000000 		.4byte	.LVL9
 2260 00ba 18000000 		.4byte	.LVL10
 2261 00be 0100     		.2byte	0x1
 2262 00c0 50       		.byte	0x50
 2263 00c1 18000000 		.4byte	.LVL10
 2264 00c5 1A000000 		.4byte	.LFE275
 2265 00c9 0100     		.2byte	0x1
 2266 00cb 53       		.byte	0x53
 2267 00cc 00000000 		.4byte	0
 2268 00d0 00000000 		.4byte	0
 2269              	.LLST5:
 2270 00d4 00000000 		.4byte	.LVL11
 2271 00d8 06000000 		.4byte	.LVL13
 2272 00dc 0100     		.2byte	0x1
 2273 00de 50       		.byte	0x50
 2274 00df 06000000 		.4byte	.LVL13
 2275 00e3 26000000 		.4byte	.LFE273
 2276 00e7 0100     		.2byte	0x1
 2277 00e9 54       		.byte	0x54
 2278 00ea 00000000 		.4byte	0
 2279 00ee 00000000 		.4byte	0
 2280              	.LLST6:
 2281 00f2 00000000 		.4byte	.LVL11
 2282 00f6 0C000000 		.4byte	.LVL14
 2283 00fa 0100     		.2byte	0x1
 2284 00fc 51       		.byte	0x51
 2285 00fd 0C000000 		.4byte	.LVL14
 2286 0101 1B000000 		.4byte	.LVL16-1
 2287 0105 0100     		.2byte	0x1
 2288 0107 50       		.byte	0x50
 2289 0108 1B000000 		.4byte	.LVL16-1
 2290 010c 26000000 		.4byte	.LFE273
 2291 0110 0400     		.2byte	0x4
 2292 0112 F3       		.byte	0xf3
 2293 0113 01       		.uleb128 0x1
ARM GAS  /tmp/cctsBWOj.s 			page 57


 2294 0114 51       		.byte	0x51
 2295 0115 9F       		.byte	0x9f
 2296 0116 00000000 		.4byte	0
 2297 011a 00000000 		.4byte	0
 2298              	.LLST7:
 2299 011e 00000000 		.4byte	.LVL11
 2300 0122 14000000 		.4byte	.LVL15
 2301 0126 0100     		.2byte	0x1
 2302 0128 52       		.byte	0x52
 2303 0129 14000000 		.4byte	.LVL15
 2304 012d 26000000 		.4byte	.LFE273
 2305 0131 0100     		.2byte	0x1
 2306 0133 55       		.byte	0x55
 2307 0134 00000000 		.4byte	0
 2308 0138 00000000 		.4byte	0
 2309              	.LLST8:
 2310 013c 04000000 		.4byte	.LVL12
 2311 0140 06000000 		.4byte	.LVL13
 2312 0144 0100     		.2byte	0x1
 2313 0146 50       		.byte	0x50
 2314 0147 06000000 		.4byte	.LVL13
 2315 014b 26000000 		.4byte	.LFE273
 2316 014f 0100     		.2byte	0x1
 2317 0151 54       		.byte	0x54
 2318 0152 00000000 		.4byte	0
 2319 0156 00000000 		.4byte	0
 2320              	.LLST9:
 2321 015a 00000000 		.4byte	.LVL17
 2322 015e 0C000000 		.4byte	.LVL19
 2323 0162 0100     		.2byte	0x1
 2324 0164 50       		.byte	0x50
 2325 0165 0C000000 		.4byte	.LVL19
 2326 0169 24000000 		.4byte	.LFE272
 2327 016d 0100     		.2byte	0x1
 2328 016f 54       		.byte	0x54
 2329 0170 00000000 		.4byte	0
 2330 0174 00000000 		.4byte	0
 2331              	.LLST10:
 2332 0178 00000000 		.4byte	.LVL17
 2333 017c 19000000 		.4byte	.LVL21-1
 2334 0180 0100     		.2byte	0x1
 2335 0182 51       		.byte	0x51
 2336 0183 19000000 		.4byte	.LVL21-1
 2337 0187 24000000 		.4byte	.LFE272
 2338 018b 0400     		.2byte	0x4
 2339 018d F3       		.byte	0xf3
 2340 018e 01       		.uleb128 0x1
 2341 018f 51       		.byte	0x51
 2342 0190 9F       		.byte	0x9f
 2343 0191 00000000 		.4byte	0
 2344 0195 00000000 		.4byte	0
 2345              	.LLST11:
 2346 0199 00000000 		.4byte	.LVL17
 2347 019d 12000000 		.4byte	.LVL20
 2348 01a1 0100     		.2byte	0x1
 2349 01a3 52       		.byte	0x52
 2350 01a4 12000000 		.4byte	.LVL20
ARM GAS  /tmp/cctsBWOj.s 			page 58


 2351 01a8 24000000 		.4byte	.LFE272
 2352 01ac 0100     		.2byte	0x1
 2353 01ae 55       		.byte	0x55
 2354 01af 00000000 		.4byte	0
 2355 01b3 00000000 		.4byte	0
 2356              	.LLST12:
 2357 01b7 08000000 		.4byte	.LVL18
 2358 01bb 0C000000 		.4byte	.LVL19
 2359 01bf 0100     		.2byte	0x1
 2360 01c1 50       		.byte	0x50
 2361 01c2 0C000000 		.4byte	.LVL19
 2362 01c6 24000000 		.4byte	.LFE272
 2363 01ca 0100     		.2byte	0x1
 2364 01cc 54       		.byte	0x54
 2365 01cd 00000000 		.4byte	0
 2366 01d1 00000000 		.4byte	0
 2367              	.LLST13:
 2368 01d5 00000000 		.4byte	.LVL22
 2369 01d9 0A000000 		.4byte	.LVL23
 2370 01dd 0100     		.2byte	0x1
 2371 01df 51       		.byte	0x51
 2372 01e0 0A000000 		.4byte	.LVL23
 2373 01e4 1C000000 		.4byte	.LFE276
 2374 01e8 0200     		.2byte	0x2
 2375 01ea 70       		.byte	0x70
 2376 01eb 04       		.sleb128 4
 2377 01ec 00000000 		.4byte	0
 2378 01f0 00000000 		.4byte	0
 2379              		.section	.debug_aranges,"",%progbits
 2380 0000 3C000000 		.4byte	0x3c
 2381 0004 0200     		.2byte	0x2
 2382 0006 00000000 		.4byte	.Ldebug_info0
 2383 000a 04       		.byte	0x4
 2384 000b 00       		.byte	0
 2385 000c 0000     		.2byte	0
 2386 000e 0000     		.2byte	0
 2387 0010 00000000 		.4byte	.LFB274
 2388 0014 1C000000 		.4byte	.LFE274-.LFB274
 2389 0018 00000000 		.4byte	.LFB275
 2390 001c 1A000000 		.4byte	.LFE275-.LFB275
 2391 0020 00000000 		.4byte	.LFB273
 2392 0024 26000000 		.4byte	.LFE273-.LFB273
 2393 0028 00000000 		.4byte	.LFB272
 2394 002c 24000000 		.4byte	.LFE272-.LFB272
 2395 0030 00000000 		.4byte	.LFB276
 2396 0034 1C000000 		.4byte	.LFE276-.LFB276
 2397 0038 00000000 		.4byte	0
 2398 003c 00000000 		.4byte	0
 2399              		.section	.debug_ranges,"",%progbits
 2400              	.Ldebug_ranges0:
 2401 0000 00000000 		.4byte	.LFB274
 2402 0004 1C000000 		.4byte	.LFE274
 2403 0008 00000000 		.4byte	.LFB275
 2404 000c 1A000000 		.4byte	.LFE275
 2405 0010 00000000 		.4byte	.LFB273
 2406 0014 26000000 		.4byte	.LFE273
 2407 0018 00000000 		.4byte	.LFB272
ARM GAS  /tmp/cctsBWOj.s 			page 59


 2408 001c 24000000 		.4byte	.LFE272
 2409 0020 00000000 		.4byte	.LFB276
 2410 0024 1C000000 		.4byte	.LFE276
 2411 0028 00000000 		.4byte	0
 2412 002c 00000000 		.4byte	0
 2413              		.section	.debug_line,"",%progbits
 2414              	.Ldebug_line0:
 2415 0000 3E030000 		.section	.debug_str,"MS",%progbits,1
 2415      0200C702 
 2415      00000201 
 2415      FB0E0D00 
 2415      01010101 
 2416              	.LASF23:
 2417 0000 74726566 		.ascii	"trefs_t\000"
 2417      735F7400 
 2418              	.LASF52:
 2419 0008 72656164 		.ascii	"ready_list_t\000"
 2419      795F6C69 
 2419      73745F74 
 2419      00
 2420              	.LASF2:
 2421 0015 73697A65 		.ascii	"size_t\000"
 2421      5F7400
 2422              	.LASF86:
 2423 001c 7264796D 		.ascii	"rdymsg\000"
 2423      736700
 2424              	.LASF19:
 2425 0023 75696E74 		.ascii	"uint64_t\000"
 2425      36345F74 
 2425      00
 2426              	.LASF3:
 2427 002c 5F5F7569 		.ascii	"__uint8_t\000"
 2427      6E74385F 
 2427      7400
 2428              	.LASF83:
 2429 0036 706F7274 		.ascii	"port_intctx\000"
 2429      5F696E74 
 2429      63747800 
 2430              	.LASF71:
 2431 0042 73797374 		.ascii	"system_debug_t\000"
 2431      656D5F64 
 2431      65627567 
 2431      5F7400
 2432              	.LASF13:
 2433 0051 6C6F6E67 		.ascii	"long long unsigned int\000"
 2433      206C6F6E 
 2433      6720756E 
 2433      7369676E 
 2433      65642069 
 2434              	.LASF87:
 2435 0068 65786974 		.ascii	"exitcode\000"
 2435      636F6465 
 2435      00
 2436              	.LASF78:
 2437 0071 6D61696E 		.ascii	"mainthread\000"
 2437      74687265 
 2437      616400
ARM GAS  /tmp/cctsBWOj.s 			page 60


 2438              	.LASF90:
 2439 007c 73656E74 		.ascii	"sentmsg\000"
 2439      6D736700 
 2440              	.LASF68:
 2441 0084 76697274 		.ascii	"virtual_timers_list_t\000"
 2441      75616C5F 
 2441      74696D65 
 2441      72735F6C 
 2441      6973745F 
 2442              	.LASF111:
 2443 009a 49544D5F 		.ascii	"ITM_RxBuffer\000"
 2443      52784275 
 2443      66666572 
 2443      00
 2444              	.LASF51:
 2445 00a7 63685F74 		.ascii	"ch_threads_queue\000"
 2445      68726561 
 2445      64735F71 
 2445      75657565 
 2445      00
 2446              	.LASF32:
 2447 00b8 705F7072 		.ascii	"p_prio\000"
 2447      696F00
 2448              	.LASF109:
 2449 00bf 72656164 		.ascii	"reads\000"
 2449      7300
 2450              	.LASF11:
 2451 00c5 6C6F6E67 		.ascii	"long long int\000"
 2451      206C6F6E 
 2451      6720696E 
 2451      7400
 2452              	.LASF1:
 2453 00d3 7369676E 		.ascii	"signed char\000"
 2453      65642063 
 2453      68617200 
 2454              	.LASF45:
 2455 00df 705F6D70 		.ascii	"p_mpool\000"
 2455      6F6F6C00 
 2456              	.LASF98:
 2457 00e7 6D5F7175 		.ascii	"m_queue\000"
 2457      65756500 
 2458              	.LASF77:
 2459 00ef 76746C69 		.ascii	"vtlist\000"
 2459      737400
 2460              	.LASF89:
 2461 00f6 77747472 		.ascii	"wttrp\000"
 2461      7000
 2462              	.LASF75:
 2463 00fc 63685F73 		.ascii	"ch_system\000"
 2463      79737465 
 2463      6D00
 2464              	.LASF8:
 2465 0106 6C6F6E67 		.ascii	"long int\000"
 2465      20696E74 
 2465      00
 2466              	.LASF22:
 2467 010f 74737461 		.ascii	"tstate_t\000"
ARM GAS  /tmp/cctsBWOj.s 			page 61


 2467      74655F74 
 2467      00
 2468              	.LASF116:
 2469 0118 6D656D63 		.ascii	"memcpy\000"
 2469      707900
 2470              	.LASF106:
 2471 011f 62756666 		.ascii	"buffer\000"
 2471      657200
 2472              	.LASF34:
 2473 0126 705F6E65 		.ascii	"p_newer\000"
 2473      77657200 
 2474              	.LASF95:
 2475 012e 735F7175 		.ascii	"s_queue\000"
 2475      65756500 
 2476              	.LASF57:
 2477 0136 725F6E65 		.ascii	"r_newer\000"
 2477      77657200 
 2478              	.LASF80:
 2479 013e 72656761 		.ascii	"regarm_t\000"
 2479      726D5F74 
 2479      00
 2480              	.LASF64:
 2481 0147 76745F70 		.ascii	"vt_prev\000"
 2481      72657600 
 2482              	.LASF101:
 2483 014f 6D757465 		.ascii	"mutex_t\000"
 2483      785F7400 
 2484              	.LASF79:
 2485 0157 69646C65 		.ascii	"idle_thread_wa\000"
 2485      5F746872 
 2485      6561645F 
 2485      776100
 2486              	.LASF27:
 2487 0166 636E745F 		.ascii	"cnt_t\000"
 2487      7400
 2488              	.LASF0:
 2489 016c 756E7369 		.ascii	"unsigned int\000"
 2489      676E6564 
 2489      20696E74 
 2489      00
 2490              	.LASF63:
 2491 0179 76745F6E 		.ascii	"vt_next\000"
 2491      65787400 
 2492              	.LASF91:
 2493 0181 77747365 		.ascii	"wtsemp\000"
 2493      6D7000
 2494              	.LASF41:
 2495 0188 705F6D73 		.ascii	"p_msgqueue\000"
 2495      67717565 
 2495      756500
 2496              	.LASF96:
 2497 0193 735F636E 		.ascii	"s_cnt\000"
 2497      7400
 2498              	.LASF6:
 2499 0199 73686F72 		.ascii	"short unsigned int\000"
 2499      7420756E 
 2499      7369676E 
ARM GAS  /tmp/cctsBWOj.s 			page 62


 2499      65642069 
 2499      6E7400
 2500              	.LASF48:
 2501 01ac 63685F74 		.ascii	"ch_thread\000"
 2501      68726561 
 2501      6400
 2502              	.LASF25:
 2503 01b6 6D73675F 		.ascii	"msg_t\000"
 2503      7400
 2504              	.LASF74:
 2505 01bc 63685F73 		.ascii	"ch_system_t\000"
 2505      79737465 
 2505      6D5F7400 
 2506              	.LASF110:
 2507 01c8 77726974 		.ascii	"writes\000"
 2507      657300
 2508              	.LASF21:
 2509 01cf 746D6F64 		.ascii	"tmode_t\000"
 2509      655F7400 
 2510              	.LASF114:
 2511 01d7 2F752F67 		.ascii	"/u/galexeev/classes/P442WifiTrailCounterProject/mil"
 2511      616C6578 
 2511      6565762F 
 2511      636C6173 
 2511      7365732F 
 2512 020a 6573746F 		.ascii	"estone1\000"
 2512      6E653100 
 2513              	.LASF53:
 2514 0212 63685F72 		.ascii	"ch_ready_list\000"
 2514      65616479 
 2514      5F6C6973 
 2514      7400
 2515              	.LASF26:
 2516 0220 6576656E 		.ascii	"eventmask_t\000"
 2516      746D6173 
 2516      6B5F7400 
 2517              	.LASF7:
 2518 022c 5F5F696E 		.ascii	"__int32_t\000"
 2518      7433325F 
 2518      7400
 2519              	.LASF81:
 2520 0236 73746B61 		.ascii	"stkalign_t\000"
 2520      6C69676E 
 2520      5F7400
 2521              	.LASF115:
 2522 0241 6D734F62 		.ascii	"msObjectInit\000"
 2522      6A656374 
 2522      496E6974 
 2522      00
 2523              	.LASF104:
 2524 024e 77726974 		.ascii	"write\000"
 2524      6500
 2525              	.LASF14:
 2526 0254 73697A65 		.ascii	"sizetype\000"
 2526      74797065 
 2526      00
 2527              	.LASF46:
ARM GAS  /tmp/cctsBWOj.s 			page 63


 2528 025d 74687265 		.ascii	"thread_reference_t\000"
 2528      61645F72 
 2528      65666572 
 2528      656E6365 
 2528      5F7400
 2529              	.LASF69:
 2530 0270 63685F76 		.ascii	"ch_virtual_timers_list\000"
 2530      69727475 
 2530      616C5F74 
 2530      696D6572 
 2530      735F6C69 
 2531              	.LASF66:
 2532 0287 76745F66 		.ascii	"vt_func\000"
 2532      756E6300 
 2533              	.LASF70:
 2534 028f 76745F6C 		.ascii	"vt_lasttime\000"
 2534      61737474 
 2534      696D6500 
 2535              	.LASF35:
 2536 029b 705F6F6C 		.ascii	"p_older\000"
 2536      64657200 
 2537              	.LASF56:
 2538 02a3 725F6374 		.ascii	"r_ctx\000"
 2538      7800
 2539              	.LASF85:
 2540 02a9 746D5F63 		.ascii	"tm_calibration_t\000"
 2540      616C6962 
 2540      72617469 
 2540      6F6E5F74 
 2540      00
 2541              	.LASF59:
 2542 02ba 725F6375 		.ascii	"r_current\000"
 2542      7272656E 
 2542      7400
 2543              	.LASF58:
 2544 02c4 725F6F6C 		.ascii	"r_older\000"
 2544      64657200 
 2545              	.LASF103:
 2546 02cc 4D656D53 		.ascii	"MemStreamVMT\000"
 2546      74726561 
 2546      6D564D54 
 2546      00
 2547              	.LASF12:
 2548 02d9 5F5F7569 		.ascii	"__uint64_t\000"
 2548      6E743634 
 2548      5F7400
 2549              	.LASF61:
 2550 02e4 76697274 		.ascii	"virtual_timer_t\000"
 2550      75616C5F 
 2550      74696D65 
 2550      725F7400 
 2551              	.LASF31:
 2552 02f4 705F7072 		.ascii	"p_prev\000"
 2552      657600
 2553              	.LASF24:
 2554 02fb 74707269 		.ascii	"tprio_t\000"
 2554      6F5F7400 
ARM GAS  /tmp/cctsBWOj.s 			page 64


 2555              	.LASF113:
 2556 0303 2E2E2F43 		.ascii	"../ChibiOS/os/hal/lib/streams/memstreams.c\000"
 2556      68696269 
 2556      4F532F6F 
 2556      732F6861 
 2556      6C2F6C69 
 2557              	.LASF108:
 2558 032e 4D656D6F 		.ascii	"MemoryStream\000"
 2558      72795374 
 2558      7265616D 
 2558      00
 2559              	.LASF72:
 2560 033b 63685F73 		.ascii	"ch_system_debug\000"
 2560      79737465 
 2560      6D5F6465 
 2560      62756700 
 2561              	.LASF102:
 2562 034b 5F426F6F 		.ascii	"_Bool\000"
 2562      6C00
 2563              	.LASF17:
 2564 0351 696E7433 		.ascii	"int32_t\000"
 2564      325F7400 
 2565              	.LASF4:
 2566 0359 756E7369 		.ascii	"unsigned char\000"
 2566      676E6564 
 2566      20636861 
 2566      7200
 2567              	.LASF37:
 2568 0367 705F7374 		.ascii	"p_state\000"
 2568      61746500 
 2569              	.LASF43:
 2570 036f 705F6D74 		.ascii	"p_mtxlist\000"
 2570      786C6973 
 2570      7400
 2571              	.LASF5:
 2572 0379 73686F72 		.ascii	"short int\000"
 2572      7420696E 
 2572      7400
 2573              	.LASF55:
 2574 0383 725F7072 		.ascii	"r_prio\000"
 2574      696F00
 2575              	.LASF93:
 2576 038a 65776D61 		.ascii	"ewmask\000"
 2576      736B00
 2577              	.LASF30:
 2578 0391 705F6E65 		.ascii	"p_next\000"
 2578      787400
 2579              	.LASF38:
 2580 0398 705F666C 		.ascii	"p_flags\000"
 2580      61677300 
 2581              	.LASF36:
 2582 03a0 705F6E61 		.ascii	"p_name\000"
 2582      6D6500
 2583              	.LASF62:
 2584 03a7 63685F76 		.ascii	"ch_virtual_timer\000"
 2584      69727475 
 2584      616C5F74 
ARM GAS  /tmp/cctsBWOj.s 			page 65


 2584      696D6572 
 2584      00
 2585              	.LASF94:
 2586 03b8 63685F73 		.ascii	"ch_semaphore\000"
 2586      656D6170 
 2586      686F7265 
 2586      00
 2587              	.LASF42:
 2588 03c5 705F6570 		.ascii	"p_epending\000"
 2588      656E6469 
 2588      6E6700
 2589              	.LASF18:
 2590 03d0 75696E74 		.ascii	"uint32_t\000"
 2590      33325F74 
 2590      00
 2591              	.LASF92:
 2592 03d9 77746D74 		.ascii	"wtmtxp\000"
 2592      787000
 2593              	.LASF54:
 2594 03e0 725F7175 		.ascii	"r_queue\000"
 2594      65756500 
 2595              	.LASF65:
 2596 03e8 76745F64 		.ascii	"vt_delta\000"
 2596      656C7461 
 2596      00
 2597              	.LASF49:
 2598 03f1 63685F74 		.ascii	"ch_threads_list\000"
 2598      68726561 
 2598      64735F6C 
 2598      69737400 
 2599              	.LASF10:
 2600 0401 6C6F6E67 		.ascii	"long unsigned int\000"
 2600      20756E73 
 2600      69676E65 
 2600      6420696E 
 2600      7400
 2601              	.LASF105:
 2602 0413 72656164 		.ascii	"read\000"
 2602      00
 2603              	.LASF15:
 2604 0418 63686172 		.ascii	"char\000"
 2604      00
 2605              	.LASF29:
 2606 041d 74687265 		.ascii	"thread_t\000"
 2606      61645F74 
 2606      00
 2607              	.LASF100:
 2608 0426 6D5F6E65 		.ascii	"m_next\000"
 2608      787400
 2609              	.LASF28:
 2610 042d 73797374 		.ascii	"systime_t\000"
 2610      696D655F 
 2610      7400
 2611              	.LASF44:
 2612 0437 705F7265 		.ascii	"p_realprio\000"
 2612      616C7072 
 2612      696F00
ARM GAS  /tmp/cctsBWOj.s 			page 66


 2613              	.LASF60:
 2614 0442 76746675 		.ascii	"vtfunc_t\000"
 2614      6E635F74 
 2614      00
 2615              	.LASF9:
 2616 044b 5F5F7569 		.ascii	"__uint32_t\000"
 2616      6E743332 
 2616      5F7400
 2617              	.LASF73:
 2618 0456 70616E69 		.ascii	"panic_msg\000"
 2618      635F6D73 
 2618      6700
 2619              	.LASF84:
 2620 0460 6F666673 		.ascii	"offset\000"
 2620      657400
 2621              	.LASF82:
 2622 0467 636F6E74 		.ascii	"context\000"
 2622      65787400 
 2623              	.LASF20:
 2624 046f 7274636E 		.ascii	"rtcnt_t\000"
 2624      745F7400 
 2625              	.LASF67:
 2626 0477 76745F70 		.ascii	"vt_par\000"
 2626      617200
 2627              	.LASF50:
 2628 047e 74687265 		.ascii	"threads_queue_t\000"
 2628      6164735F 
 2628      71756575 
 2628      655F7400 
 2629              	.LASF97:
 2630 048e 63685F6D 		.ascii	"ch_mutex\000"
 2630      75746578 
 2630      00
 2631              	.LASF39:
 2632 0497 705F7265 		.ascii	"p_refs\000"
 2632      667300
 2633              	.LASF76:
 2634 049e 726C6973 		.ascii	"rlist\000"
 2634      7400
 2635              	.LASF16:
 2636 04a4 75696E74 		.ascii	"uint8_t\000"
 2636      385F7400 
 2637              	.LASF112:
 2638 04ac 474E5520 		.ascii	"GNU C 4.8.4 20140526 (release) [ARM/embedded-4_8-br"
 2638      4320342E 
 2638      382E3420 
 2638      32303134 
 2638      30353236 
 2639 04df 616E6368 		.ascii	"anch revision 211358] -mcpu=cortex-m4 -mno-thumb-in"
 2639      20726576 
 2639      6973696F 
 2639      6E203231 
 2639      31333538 
 2640 0512 74657277 		.ascii	"terwork -mthumb -ggdb -O2 -fomit-frame-pointer -fal"
 2640      6F726B20 
 2640      2D6D7468 
 2640      756D6220 
ARM GAS  /tmp/cctsBWOj.s 			page 67


 2640      2D676764 
 2641 0545 69676E2D 		.ascii	"ign-functions=16 -ffunction-sections -fdata-section"
 2641      66756E63 
 2641      74696F6E 
 2641      733D3136 
 2641      202D6666 
 2642 0578 73202D66 		.ascii	"s -fno-common -flto\000"
 2642      6E6F2D63 
 2642      6F6D6D6F 
 2642      6E202D66 
 2642      6C746F00 
 2643              	.LASF88:
 2644 058c 77746F62 		.ascii	"wtobjp\000"
 2644      6A7000
 2645              	.LASF107:
 2646 0593 73697A65 		.ascii	"size\000"
 2646      00
 2647              	.LASF47:
 2648 0598 74687265 		.ascii	"threads_list_t\000"
 2648      6164735F 
 2648      6C697374 
 2648      5F7400
 2649              	.LASF99:
 2650 05a7 6D5F6F77 		.ascii	"m_owner\000"
 2650      6E657200 
 2651              	.LASF33:
 2652 05af 705F6374 		.ascii	"p_ctx\000"
 2652      7800
 2653              	.LASF40:
 2654 05b5 705F7761 		.ascii	"p_waiting\000"
 2654      6974696E 
 2654      6700
 2655              		.comm	__gnu_lto_v1,1,1
 2656              		.ident	"GCC: (GNU Tools for ARM Embedded Processors) 4.8.4 20140526 (release) [ARM/embedded-4_8-br
ARM GAS  /tmp/cctsBWOj.s 			page 68


DEFINED SYMBOLS
                            *ABS*:00000000 memstreams.c
     /tmp/cctsBWOj.s:287    .text.put:00000000 $t
     /tmp/cctsBWOj.s:292    .text.put:00000000 put
     /tmp/cctsBWOj.s:328    .text.get:00000000 $t
     /tmp/cctsBWOj.s:333    .text.get:00000000 get
     /tmp/cctsBWOj.s:372    .text.reads:00000000 $t
     /tmp/cctsBWOj.s:377    .text.reads:00000000 reads
     /tmp/cctsBWOj.s:424    .text.writes:00000000 $t
     /tmp/cctsBWOj.s:429    .text.writes:00000000 writes
     /tmp/cctsBWOj.s:472    .text.msObjectInit:00000000 $t
     /tmp/cctsBWOj.s:478    .text.msObjectInit:00000000 msObjectInit
     /tmp/cctsBWOj.s:509    .text.msObjectInit:00000018 $d
     /tmp/cctsBWOj.s:514    .rodata.vmt:00000000 $d
     /tmp/cctsBWOj.s:518    .rodata.vmt:00000000 vmt
                            *COM*:00000001 __gnu_lto_v1
                     .debug_frame:00000010 $d
     /tmp/cctsBWOj.s:513    .text.msObjectInit:0000001c $t

UNDEFINED SYMBOLS
memcpy
