ARM GAS  /tmp/cctsBWOj.s 			page 1


   1              		.syntax unified
   2              		.cpu cortex-m4
   3              		.fpu softvfp
   4              		.eabi_attribute 20, 1
   5              		.eabi_attribute 21, 1
   6              		.eabi_attribute 23, 3
   7              		.eabi_attribute 24, 1
   8              		.eabi_attribute 25, 1
   9              		.eabi_attribute 26, 1
  10              		.eabi_attribute 30, 2
  11              		.eabi_attribute 34, 1
  12              		.eabi_attribute 18, 4
  13              		.thumb
  14              		.file	"memstreams.c"
  15              		.text
  16              	.Ltext0:
  17              		.section	.gnu.lto_.jmpfuncs.a9a3eb057f3645f8,"",%progbits
  18 0000 789C6362 		.ascii	"x\234cb`b\300\006T\2404+\0033##\023;33\003\003c\031"
  18      6062C006 
  18      54A0342B 
  18      03332323 
  18      133B3333 
  19 0018 23588899 		.ascii	"#X\210\231\035\310\201\363Y\370\031\000\032\264\001"
  19      1DC881F3 
  19      59F81900 
  19      1AB401
  20 0027 55       		.ascii	"U"
  21              		.text
  22              		.section	.gnu.lto_.inline.a9a3eb057f3645f8,"",%progbits
  23 0000 789C6362 		.ascii	"x\234cb`b\300\006\032\031!4+\003\003/\017#3\003\220"
  23      6062C006 
  23      1A192134 
  23      2B03032F 
  23      0F233303 
  24 0015 CBEC0026 		.ascii	"\313\354\000&\023\300\244\002\027\333\004=\006\216\013"
  24      13C0A402 
  24      17DB043D 
  24      068E0B
  25 0024 7A4C0C8C 		.ascii	"zL\014\214/\330Y $\210\340\00039\030X\026\310\36300"
  25      2FD85920 
  25      2488E000 
  25      33391858 
  25      16C8F330 
  26 0039 DE601760 		.ascii	"\336`\027`\002\223\014L\033\370%@\00622\360pC\315\203"
  26      02930C4C 
  26      1BF82540 
  26      063232F0 
  26      7043CD83 
  27 004d 98D4C008 		.ascii	"\230\324\300\0105\220\271C\234\201\375\207\032\026\003"
  27      3590B943 
  27      9C81FD87 
  27      1A1603
  28 005c 996788E3 		.ascii	"\231g\210\3436\220\211AP\222\221\005\305@&F\210M@S\271"
  28      36908941 
  28      50929105 
  28      C5402646 
  28      884D4053 
ARM GAS  /tmp/cctsBWOj.s 			page 2


  29 0071 81DA1838 		.ascii	"\201\332\0308>\340t&\323\005~\036\220\3212 \256\002"
  29      3EE07426 
  29      D3057E1E 
  29      90D13220 
  29      AE02
  30 0083 58500124 		.ascii	"XP\001$\250\0012\201\205\027h\304\004?\020dF\330\002"
  30      A8013281 
  30      851768C4 
  30      043F1064 
  30      46D802
  31 0096 0D061A58 		.ascii	"\015\006\032X\302\302\300\301\316\310\300\304\332\241"
  31      C2C2C0C1 
  31      CEC8C0C4 
  31      DAA1
  32 00a4 CEC0BDC2 		.ascii	"\316\300\275\302\015\0221\000-\3633\312"
  32      0D123100 
  32      2DF333CA 
  33              		.text
  34              		.section	.gnu.lto_.pureconst.a9a3eb057f3645f8,"",%progbits
  35 0000 789C6362 		.ascii	"x\234cb`b\340f\200\000V\006)F)&)f)\026)\000\004)\000"
  35      6062E066 
  35      80005606 
  35      29462926 
  35      29662916 
  36 0019 A1       		.ascii	"\241"
  37              		.text
  38              		.section	.gnu.lto_put.a9a3eb057f3645f8,"",%progbits
  39 0000 789C8D92 		.ascii	"x\234\215\222\317K\033A\024\307\337wfw\223\230X{\360"
  39      CF4B1B41 
  39      14C7DF77 
  39      66779398 
  39      587BF0
  40 0013 D25BF068 		.ascii	"\322[\360h \213\364O\350\251\247\036j\300\036\223 q"
  40      208BF44F 
  40      E8A9A71E 
  40      6AC01E93 
  40      2071
  41 0025 C14531BD 		.ascii	"\301E1\275g\242\036\012\275\204\022\260UA\355\241\202"
  41      67A21E0A 
  41      BD8412B0 
  41      5541EDA1 
  41      82
  42 0036 94DAD28B 		.ascii	"\224\332\322\213\307\034$(\375A<\352)\020\320\213\027"
  42      C71C2428 
  42      FD413CEA 
  42      2910D08B 
  42      17
  43 0047 6F3D19DF 		.ascii	"o=\031\337\233u\267\020J\333\201}3\373\336\373|\347"
  43      9B75B710 
  43      4ADB817D 
  43      33FBDEFB 
  43      7CE7
  44 0059 BD9951A4 		.ascii	"\275\231Q\244ht<\346o\235\3353<\303%\250\326O\242fZ"
  44      68743CE6 
  44      6F9DDD33 
  44      3CC325A8 
  44      D64FA266 
ARM GAS  /tmp/cctsBWOj.s 			page 3


  45 006e 29670764 		.ascii	")g\007d\306\364\315w\"\223\323p\"\277\003\310\202@\015"
  45      C6F4CD77 
  45      2293D370 
  45      22BF03C8 
  45      82400D
  46 0081 A51D345E 		.ascii	"\245\0354^\300\252\034\252N\1778\374\324\356\356\177"
  46      C0AA1CAA 
  46      4E7F38FC 
  46      D4EEEE7F 
  47 0091 C43BF500 		.ascii	"\304;\365\000\024\2004B\220\313+xbRlTZL\206\003\310"
  47      14803442 
  47      90CB2B78 
  47      62526C54 
  47      5A4C8603 
  48 00a6 8A2F2786 		.ascii	"\212/'\206q\227\326\215i\345\247h\317\2307\235\215n"
  48      7197D68D 
  48      69E5A768 
  48      CF98379D 
  48      8D6E
  49 00b8 FB91D95D 		.ascii	"\373\221\331]m\231\333\341\020\001\264\242\"\250\012"
  49      6D99DBE1 
  49      1001B4A2 
  49      22A80A
  50 00c7 9AE31F27 		.ascii	"\232\343\037'o'\327\031\355\243j\013\231e+\365\225\240"
  50      6F27D719 
  50      EDA36A0B 
  50      99652BF5 
  50      95A0
  51 00d9 64D6A7A4 		.ascii	"d\326\247\244\312\330\343\276\312x\217)\252A\023\375"
  51      CAD8E3BE 
  51      CA788F29 
  51      AA4113FD 
  52 00e9 A0D58BA3 		.ascii	"\240\325\213\243A\017Q\240\006\267@\323\001\274-\332"
  52      410F51A0 
  52      06B740D3 
  52      01BC2DDA 
  53 00f9 64E114A7 		.ascii	"d\341\024\247\310\006\332\212V\020\313\013\324\313\306"
  53      C806DA8A 
  53      5610CB0B 
  53      D4CBC6
  54 0108 88F73724 		.ascii	"\210\3677$fN\350\370\2529\236\354\302\324\357jK\234"
  54      664EE8F8 
  54      AA399EEC 
  54      C2D4EF6A 
  54      4B9C
  55 011a CD27AB45 		.ascii	"\315'\253E\366\327\240\223\324\222\262\302\352\317\302"
  55      F6D7A093 
  55      D492B2C2 
  55      EACFC2
  56 0129 2AA965ED 		.ascii	"*\251e\355\365\332\207\204I\327$\323\2635~\373<\021"
  56      F5DA8784 
  56      49D724D3 
  56      B3357EFB 
  56      3C11
  57 013b B959A169 		.ascii	"\271Y\241i\214I\005\022N\213JD\327\220\211\232y{\331"
  57      8C490512 
  57      4E8B4A44 
ARM GAS  /tmp/cctsBWOj.s 			page 4


  57      D790899A 
  57      797BD9
  58 014e 4F14B205 		.ascii	"O\024\262\005:\340\344\207\377l\211w~\245c*\307\240"
  58      3AE0E487 
  58      FF6C8977 
  58      7EA5632A 
  58      C7A0
  59 0160 247988CE 		.ascii	"$y\210\316\347i\024\370?-\306\343\223p\354M\235\361"
  59      E76914F8 
  59      3F2DC6E3 
  59      9370EC4D 
  59      9DF1
  60 0172 E312B70D 		.ascii	"\343\022\267\015\237\023\004!~\000\321@C]\177\231\264"
  60      9F130421 
  60      7E00D140 
  60      435D7F99 
  60      B4
  61 0183 3E22BDFD 		.ascii	">\"\275\3755'W\015\001\245\255B\261\350?Y\010*\301\263"
  61      3527570D 
  61      01A5AD42 
  61      B1E83F59 
  61      082AC1B3 
  62 0197 E7FE52DD 		.ascii	"\347\376R\335_(/\372\213A\305\257\277\\\231/\207u?\234"
  62      5F282FFA 
  62      8B41C5AF 
  62      BF5C992F 
  62      87753F9C 
  63 01ab 0FEF97C5 		.ascii	"\017\357\227\305*\351\260\276|\007\2402\2372"
  63      2AE9B0BE 
  63      7C07A032 
  63      9F32
  64              		.text
  65              		.section	.gnu.lto_get.a9a3eb057f3645f8,"",%progbits
  66 0000 789C8592 		.ascii	"x\234\205\222\317k\023A\024\307\337wf7\233\304\024+"
  66      CF6B1341 
  66      14C7DF77 
  66      66379BC4 
  66      142B
  67 0012 94424F16 		.ascii	"\224BO\026\217\006\262\202\177\202'O\036\264\320\036"
  67      8F06B282 
  67      7F82274F 
  67      1EB4D01E 
  68 0022 37A1A40B 		.ascii	"7\241\244\013]*\306{&\211\202 \205 \202b\005\033\252"
  68      5D2AC67B 
  68      26898220 
  68      85208262 
  68      051BAA
  69 0035 974269A1 		.ascii	"\227Bi\241\264\207\202\220\203\210\205(\366V=\305S\241"
  69      B4878290 
  69      83888528 
  69      F6563DC5 
  69      53A1
  70 0047 07D1BB18 		.ascii	"\007\321\273\030\337\233\311\256XD\007\362f2\363\276"
  70      DF9BC9AE 
  70      584407F2 
  70      6632F3BE 
  71 0057 9FF76B15 		.ascii	"\237\367k\025):\273\256\362\357@\271\035>Au?\020\265"
ARM GAS  /tmp/cctsBWOj.s 			page 5


  71      293ABBAE 
  71      F2EF40B9 
  71      1D3E4175 
  71      3F10B5
  72 006a F24A792F 		.ascii	"\362Jy/@\246\250\277\017\210LI\303s\367\036 \007\002"
  72      40A6A8BF 
  72      0F884C49 
  72      C373F71E 
  72      200702
  73 007d 3595F6D0 		.ascii	"5\225\366\320\\\200@p\211z\306<\032\276:9\306\023\323"
  73      5C804070 
  73      897AC63C 
  73      1ABE3A39 
  73      C613D3
  74 0090 6FAD9B1F 		.ascii	"o\255\233\037\243\021\020\203\003V@5\320<\377A\336n"
  74      A3111083 
  74      03564035 
  74      D03CFF41 
  74      DE6E
  75 00a2 0A7F66B0 		.ascii	"\012\177f\260\255\372\303\321h\260\373\355\313\026."
  75      ADFAC3D1 
  75      68B0FBED 
  75      CB162E
  76 00b1 4C806268 		.ascii	"L\200bh\215\004\344\363\311\313\211\011\330\370y1\005"
  76      8D04E4F3 
  76      C9CB8909 
  76      D8F87931 
  76      05
  77 00c2 8AD0E368 		.ascii	"\212\320\343hE\271.\211+\003|\272gLw\326\275\270L\372"
  77      45B92E89 
  77      2B037CBA 
  77      674C77D6 
  77      BDB84CFA 
  78 00d6 AFDF3E9E 		.ascii	"\257\337>\2361\353\355\256\371\311\211\304\310)\272"
  78      31EBEDAE 
  78      F9C989C4 
  78      C829BA
  79 00e5 F23B8F59 		.ascii	"\362;\217Y\227\207w\266\0275\233\331-\266R\343\034\224"
  79      978777B6 
  79      17359BD9 
  79      2DB652E3 
  79      1C94
  80 00f7 ECFA9054 		.ascii	"\354\372\220T\204\015\356M\204\227\034\240.1\337S\373"
  80      840DEE4D 
  80      84971CA0 
  80      2E31DF53 
  80      FB
  81 0108 F3D3D38F 		.ascii	"\363\323\323\217p\017u\370e\272\034#X\243g\014\316\263"
  81      700F75F8 
  81      65BA1C23 
  81      58A3670C 
  81      CEB3
  82 011a 8B04C859 		.ascii	"\213\004\310Yh5+WD;\347RI\356_\222T\363\216\336\234"
  82      68352B57 
  82      443BE752 
  82      49EE5F92 
  82      54F38EDE 
ARM GAS  /tmp/cctsBWOj.s 			page 6


  83 012f B426B228 		.ascii	"\264&\262(\365\261\203]s\234\010OG\013\366\370t\230"
  83      F5B1835D 
  83      739C084F 
  83      470BF6F8 
  83      7498
  84 0141 E51258B0 		.ascii	"\345\022X\260\377w\260\312r\351<\354\354g\032v\013,"
  84      FF77B0CA 
  84      72E93CEC 
  84      EC671A76 
  84      0B2C
  85 0153 9C6107F7 		.ascii	"\234a\007\367\247\323\353\002CZ\306\230\363<Iv\022\220"
  85      A7D3EB02 
  85      435AC698 
  85      F33C4976 
  85      1290
  86 0165 3F061C52 		.ascii	"?\006\034R\273\357\247}\351\331\276\024,\366Ag{\365"
  86      BBEFA77D 
  86      E9D9BE14 
  86      2CF64167 
  86      7BF5
  87 0177 620A2832 		.ascii	"b\012(2TT\001\\\375\327\335C\2316\231:\371\237\362Y"
  87      5454015C 
  87      FDD7DD43 
  87      9936993A 
  87      F99FF259 
  88 018b 6E455F3B 		.ascii	"nE_;\273\253:%\226l\034W\277g\347s\304\237\2458[\321"
  88      BBAB3A25 
  88      966C1C57 
  88      BF67E773 
  88      C49FA538 
  89 01a1 27828034 		.ascii	"'\202\2004\217\335-4\325\363\275)\326\351\301^I\206"
  89      8FDD2D34 
  89      D5F3BD29 
  89      D6E9C15E 
  89      4986
  90 01b3 0B11491B 		.ascii	"\013\021I\033\312\225Jxm)\256\3067n\206+\215p)Z\016"
  90      CA954A78 
  90      6D29AEC6 
  90      376E862B 
  90      8D70295A 
  91 01c8 97E36AD8 		.ascii	"\227\343j\330\270{g1J\032a\262\230\214\217\225\032\241"
  91      B87B6731 
  91      4A1A61B2 
  91      988C8F95 
  91      1AA1
  92 01da AA93C6ED 		.ascii	"\252\223\306\355_c\206\260k"
  92      5F6386B0 
  92      6B
  93              		.text
  94              		.section	.gnu.lto_reads.a9a3eb057f3645f8,"",%progbits
  95 0000 789C8D52 		.ascii	"x\234\215R\277k\024A\030}ofvo\357\274\363\"XKH\351\301"
  95      BF6B1441 
  95      187D6F66 
  95      766FEFBC 
  95      F322584B 
  96 0017 2DFA2F58 		.ascii	"-\372/XYYh \226wG\274,dQ<;\213\314\335Y\234\330\204"
  96      59596820 
ARM GAS  /tmp/cctsBWOj.s 			page 7


  96      967747BC 
  96      2C64513C 
  96      3B8BCCDD 
  97 002f 94118404 		.ascii	"\224\021\204\004\322\244H\304J!E\212\024\006\374\201"
  97      D2A448C4 
  97      4A21458A 
  97      1406FC81 
  98 003f 90426D72 		.ascii	"\220Bmr \326\006lD\204\365\233\335\033#!\030\007\366"
  98      20D6066C 
  98      4484F59B 
  98      DD1B2321 
  98      1807F6
  99 0052 9BD9F77D 		.ascii	"\233\331\367}\357\315\373>FA\341\344\272*\337\013\201"
  99      EFCDFB3E 
  99      4641E1E4 
  99      BA2ADF0B 
  99      81
 100 0063 AFC8CE00 		.ascii	"\257\310\316\000T\313\357\200~\244\224>\210a+f\347\022"
 100      54CBEF80 
 100      7EA4943E 
 100      88612B66 
 100      E712
 101 0075 6C55D314 		.ascii	"lU\323\024\260!\335\001\304\222\322\206K\267\231\213"
 101      B021DD01 
 101      C492D286 
 101      4BB7998B 
 102 0085 6CABDD71 		.ascii	"l\253\335q\226m\035\275\3722\342\205:\221\022\212)i"
 102      966D1DBD 
 102      FA32E285 
 102      3A91128A 
 102      2969
 103 0097 9010810B 		.ascii	"\220\020\201\013\241\013%\301\020\311\211e\011\252\""
 103      A10B25C1 
 103      10C98965 
 103      09AA22
 104 00a6 BFAAEA12 		.ascii	"\277\252\352\0225\027d\005xd\355\362\364\014\326\254"
 104      35176405 
 104      7864EDF2 
 104      F40CD6AC 
 105 00b6 5DD9FDBE 		.ascii	"]\331\375\276\261O\273b\373GYVO\250\025\232D\207\230"
 105      B14FBB62 
 105      FB475956 
 105      4FA8159A 
 105      448798
 106 00c9 6342339D 		.ascii	"cB3\235o\2019\331N'\327\271%\321\371\234\245r\273\336"
 106      6F8139D9 
 106      4E27D7B9 
 106      25D1F99C 
 106      A572BBDE 
 107 00dd 876A714D 		.ascii	"\207jqM\332kq\2353\350\012\214\267\030|\376\361\254"
 107      DA6B719D 
 107      33E80A8C 
 107      B7187CFE 
 107      F1AC
 108 00ef 56E05D9A 		.ascii	"V\340]\232\006.'\014\237bUtKR\341\364u\256\331\246W"
 108      062E270C 
 108      9F625574 
ARM GAS  /tmp/cctsBWOj.s 			page 8


 108      4B52E1F4 
 108      75AED9A6 
 109 0104 779CE7E7 		.ascii	"w\234\347\347<%\370\027\205\177(\303\307\303uzN(7\011"
 109      3C25F817 
 109      857F28C3 
 109      C7C3757A 
 109      4E283709 
 110 0118 13788DBD 		.ascii	"\023x\215\275\257\375\332_p\351\270\211YQ9\210\305\365"
 110      AFFDDA5F 
 110      70E9B889 
 110      59513988 
 110      C5F5
 111 012a 60FCEB7C 		.ascii	"`\374\353|Q\"\203\223*\2376\223\256\006\021\212\014"
 111      51228393 
 111      2A9F3693 
 111      AE06118A 
 111      0C
 112 013b 0B6F2F0F 		.ascii	"\013o/\017/z\305(7\307\323\315\251csO\206w<\245,\254"
 112      2F7AC528 
 112      37C7D3CD 
 112      A963734F 
 112      86773CA5 
 113 0151 DCDB7B84 		.ascii	"\334\333{\204\005\006<\304O;\262S\011\243\316\244\245"
 113      05063CC4 
 113      4F3BB253 
 113      09A3CEA4 
 113      A5
 114 0162 2E2B79A9 		.ascii	".+y\251\310\225\213[?\036\326\275D\265\201Mk]\375\331"
 114      C8958B5B 
 114      3F1ED6BD 
 114      44B5814D 
 114      6B5DFDD9 
 115 0176 631969CF 		.ascii	"c\031i\317\252\011\321\367p\275\000\377OG\250\300\007"
 115      AA09D1F7 
 115      70BD00FF 
 115      4F47A8C0 
 115      07
 116 0187 F4C759E8 		.ascii	"\364\307Y\350\265\362\304'P\006\252$\204\372\3157\272"
 116      B5F2C427 
 116      5006AA24 
 116      84FACD37 
 116      BA
 117 0198 07413732 		.ascii	"\007A72\327w\243\331\214\257-$\355\344\306\315\370n"
 117      D777A3D9 
 117      8CAF2D24 
 117      EDE4C6CD 
 117      F86E
 118 01aa 2F5E682D 		.ascii	"/^h-\306\213I;\356=\270?\337J{q:\237N\216\315\016t\332"
 118      C68B493B 
 118      EE3DB83F 
 118      DF4A7B71 
 118      3A9F4E8E 
 119 01c2 BBF71BC3 		.ascii	"\273\367\033\303\313\235\342"
 119      CB9DE2
 120              		.text
 121              		.section	.gnu.lto_writes.a9a3eb057f3645f8,"",%progbits
 122 0000 789C8D52 		.ascii	"x\234\215R=kTA\024=gf\336\333\227u7\361\027HH\351\302"
ARM GAS  /tmp/cctsBWOj.s 			page 9


 122      3D6B5441 
 122      143D6766 
 122      DEDB9775 
 122      37F11748 
 123 0017 3EF42F58 		.ascii	">\364/XYYh@\313\335%\037\003y*\256\235Efw-\"6!\225$"
 123      59596840 
 123      CBDD251F 
 123      03792AAE 
 123      9D456677 
 124 0031 55025A88 		.ascii	"U\002Z\210(v\026\201\244H\221\024~A\032S-\210\215\020"
 124      28761681 
 124      A4489114 
 124      7E411A53 
 124      2D888D10 
 125 0045 B011C466 		.ascii	"\260\021\304f\2753o'\221 \352\300\273w\336\271\367\234"
 125      BD336F27 
 125      9120EAC0 
 125      BB77DEB9 
 125      F79C
 126 0057 FBF19E82 		.ascii	"\373\361\236\202\302\331sY\236\327\002_\022\317\004"
 126      C2D97359 
 126      9ED7025F 
 126      12CF04
 127 0066 54ABEF80 		.ascii	"T\253\357\200^\246\224>\314\341\252f\373\002\\M\323"
 127      5EA6943E 
 127      CCE1AA66 
 127      FB025C4D 
 127      D3
 128 0077 94B021FD 		.ascii	"\224\260!\375\005\304\262\322\206\313\267\030D^\251"
 128      05C4B2D2 
 128      86CBB718 
 128      445EA9
 129 0086 DDE168F4 		.ascii	"\335\341h\364r\373\373\347\333\234\"\012B\261 \015,"
 129      72FBFBE7 
 129      DB9C220A 
 129      42B1200D 
 129      2C
 130 0097 9178937A 		.ascii	"\221x\223zS\021\014\231\3348!FU\345U\325|\240\356\215"
 130      53110C99 
 130      DC382146 
 130      55E555D5 
 130      7CA0EE8D 
 131 00ab 9C040F9D 		.ascii	"\234\004\017\235[\235\236\301\246sk\273;O\017\350\326"
 131      5B9D9EC1 
 131      A6736BBB 
 131      3B4F0FE8 
 131      D6
 132 00bc 5CEFDB68 		.ascii	"\\\357\333h4e\251\025\232D\207\270IK3\035\\b\316N\323"
 132      3465A915 
 132      9A4487B8 
 132      494B331D 
 132      5C62CE4E 
 133 00d1 093A37C4 		.ascii	"\011:7\304\3726g\251\274\327\007P-n\312t-nq\006\013"
 133      FA3667A9 
 133      BCD70750 
 133      2D6ECA74 
 133      2D6E7106 
ARM GAS  /tmp/cctsBWOj.s 			page 10


 134 00e6 02E32DFA 		.ascii	"\002\343-\372Go\326\353%\276@\323\300E\313t\003\353"
 134      476FD6EB 
 134      25BE40D3 
 134      C045CB74 
 134      03EB
 135 00f8 A25B910C 		.ascii	"\242[\221\014\257\257\203f\233Q\335s>\234\213\224\344"
 135      AFAF8366 
 135      9B51DD73 
 135      3E9C8B94 
 135      E4
 136 0109 6F149E50 		.ascii	"o\024\236P\006\217\006\317\0309\251T\022&\260\217\275"
 136      068F06CF 
 136      1839A954 
 136      1226B08F 
 136      BD
 137 011a 2FBDFA6F 		.ascii	"/\275\372op\345t\210YQ9\314\245\353\376\360\353d\231"
 137      70E57488 
 137      595139CC 
 137      A5EBFEF0 
 137      EB6499
 138 012d 228B93AC 		.ascii	"\"\213\223\254\0306\343\251\372\031\312\010\313\336"
 138      1836E3A9 
 138      FA19CA08 
 138      CBDE
 139 013b 7E1C4D46 		.ascii	"~\034MF\305,4\307?7\247N\233{<\230\217\224\011a\205"
 139      C52C34C7 
 139      3F37A74E 
 139      9B7B3C98 
 139      8F940961 
 140 0150 DEDE232D 		.ascii	"\336\336#-1\340\001~\272\025w\3362\353\214G\012yU)i"
 140      31E0017E 
 140      BA1577DE 
 140      32EB8C47 
 140      0A795529 
 141 0165 E52B86AA 		.ascii	"\345+\206\252O6N\252\326\032x\356\234\317\377\367ZV"
 141      4F364EAA 
 141      D61A78EE 
 141      9CCFFFF7 
 141      5A56
 142 0177 7464D585 		.ascii	"td\325\205\030g\270Z\202\377\247#T\340#z\303\3434j\205"
 142      1867B85A 
 142      82FFA723 
 142      54E0237A 
 142      C3E3346A 
 143 018c C0275016 		.ascii	"\300'P\026\252\304\244\372\3051\375\017A\2772?w\243"
 143      AAC4A4FA 
 143      C531FD0F 
 143      41BF323F 
 143      77A3
 144 019e D9CCAF2C 		.ascii	"\331\314\257,\332\266\275v=\277\323\315\027[K\371\222"
 144      DAB6BD76 
 144      3DBFD3CD 
 144      175B4BF9 
 144      92
 145 01af 6DE7DDFB 		.ascii	"m\347\335\373\367\346ZE7/\346\212\361\265\331\201.\272"
 145      F7E65A45 
 145      372FE68A 
ARM GAS  /tmp/cctsBWOj.s 			page 11


 145      F1B5D981 
 145      2EBA
 146 01c1 777F0124 		.ascii	"w\177\001$\256\234\324"
 146      AE9CD4
 147              		.text
 148              		.section	.gnu.lto_msObjectInit.a9a3eb057f3645f8,"",%progbits
 149 0000 789C8D90 		.ascii	"x\234\215\2201K\003A\020\205\337\233\273\204\003\361"
 149      314B0341 
 149      1085DF9B 
 149      BB8403F1 
 150 0010 07582958 		.ascii	"\007X)X\006o\177\204?\300\"\021\264\274\204\220\034"
 150      066F7F84 
 150      3FC02211 
 150      B4BC8490 
 150      1C
 151 0021 E4103C3B 		.ascii	"\344\020<;\213\\T\260\223\224AQ\260\265\210\226)\355"
 151      8B5C54B0 
 151      93944151 
 151      B0B58896 
 151      29ED
 152 0033 45219D9D 		.ascii	"E!\235\235\351\3555\004!\316\336\236ML\221\201}3\014"
 152      E9ED3504 
 152      21CEDE9E 
 152      4D4C9181 
 152      7D330C
 153 0046 F3BDDD59 		.ascii	"\363\275\335Y\201`16\364\334\021\330\321L\017\224\376"
 153      81603136 
 153      F4DC11D8 
 153      D14C0F94 
 153      FE
 154 0057 1BD00B84 		.ascii	"\033\320\013\204\264\005\210\256\260{\310|\366Q\236"
 154      B40588AE 
 154      B07BC87C 
 154      F6519E
 155 0066 27F3F9F0 		.ascii	"'\363\371\360\351r\370\303[Y\023&\204\257\302\262\212"
 155      E972F8C3 
 155      5B591326 
 155      84AFC2B2 
 155      8A
 156 0077 042A9E4E 		.ascii	"\004*\236N\225p\221e\375-\240\221S5Uk\265O\261\331{"
 156      95709165 
 156      FD2DA091 
 156      5335556B 
 156      B54FB1D9 
 157 008c C5D9ECFC 		.ascii	"\305\331\354\374\363j3\342=K\250\340!\323X\217\211\033"
 157      F36A33E2 
 157      3D4BA8E0 
 157      21D3588F 
 157      891B
 158 009e 5C33265B 		.ascii	"\\3&[\224\003\315\356\245uw1N1\313\006YV\325\261\204"
 158      9403CDEE 
 158      A5757731 
 158      4E31CB06 
 158      5956D5B1 
 159 00b3 7EDE529F 		.ascii	"~\336R\237\227\351\327\224\213>\336r\037g\324\262\260"
 159      97E9D794 
 159      8B3EDE72 
ARM GAS  /tmp/cctsBWOj.s 			page 12


 159      1F67D4B2 
 159      B0
 160 00c4 2507DFFF 		.ascii	"%\007\337\377I\1779)\005Yv\344hu\322+\310 'G\357\253"
 160      497F3929 
 160      055976E4 
 160      6875D22B 
 160      C8202747 
 161 00da 936E45DB 		.ascii	"\223nE\333\311\2531z\223\217m\307\376EMW\322\377\264"
 161      C9AB317A 
 161      938F6DC7 
 161      FE454D57 
 161      D2FFB4
 162 00ed 44250CCD 		.ascii	"D%\014\315n;\256\307{Us\224\232v\3241\235\270n\322\223"
 162      6E3BAEC7 
 162      7B557394 
 162      9A76D431 
 162      9DB86ED2 
 163 0102 E36694A4 		.ascii	"\343f\224\244&i&E\0316\360\0139\336oU"
 163      26692645 
 163      1936F00B 
 163      39DE6F55 
 164              		.text
 165              		.section	.gnu.lto_.symbol_nodes.a9a3eb057f3645f8,"",%progbits
 166 0000 789C4DC8 		.ascii	"x\234M\310\271\021\2000\020CQ\255\326\246\015j\243\005"
 166      B9118030 
 166      104351AD 
 166      D6A60D6A 
 166      A305
 167 0012 1A902306 		.ascii	"\032\220#\0062sF\014\011\375P\011E\020\230\300J\376"
 167      3273460C 
 167      09FD5009 
 167      451098C0 
 167      4AFE
 168 0024 3C11448F 		.ascii	"<\021D\217\177\\( ?\200tN\035W\312*\316\024+f\312+\356"
 168      7F5C2820 
 168      3F80744E 
 168      1D57CA2A 
 168      CE142B66 
 169 003b 54F8798D 		.ascii	"T\370y\215\0267\"\310\355\240byS2g\203{x[\367R|\027"
 169      163722C8 
 169      EDA06279 
 169      53326783 
 169      7B785BF7 
 170 0052 192291   		.ascii	"\031\"\221"
 171              		.text
 172              		.section	.gnu.lto_.refs.a9a3eb057f3645f8,"",%progbits
 173 0000 789C6362 		.ascii	"x\234cb`b\340g\200\000F\026&V\026V&f&&&\006&F\006\000"
 173      6062E067 
 173      80004616 
 173      26561656 
 173      26662626 
 174 001a 032D0037 		.ascii	"\003-\0007"
 175              		.text
 176              		.section	.gnu.lto_.decls.a9a3eb057f3645f8,"",%progbits
 177 0000 789CBD58 		.ascii	"x\234\275X]l\024U\024\276w\366\247]h\020\211\020x\261"
 177      5D6C1455 
 177      14BE77F6 
ARM GAS  /tmp/cctsBWOj.s 			page 13


 177      A75D6810 
 177      891078B1 
 178 0014 C5800F90 		.ascii	"\305\200\017\220v\244V\322\027A\322\007\352C\321\210"
 178      76A456D2 
 178      1741D207 
 178      EA43D188 
 179 0024 185FCC66 		.ascii	"\030_\314fvw\332]\263\177\356LE\364\201K\313\237DC\301"
 179      7677DA5D 
 179      B37FEE4C 
 179      45F4814B 
 179      CB9F4443 
 180 0039 9F8049E9 		.ascii	"\237\200I\351\362k0\032(D\301\224\302\322*6 R4\365\007"
 180      F26B301A 
 180      2844C194 
 180      C2D22A36 
 180      205234F5 
 181 004e 0259B080 		.ascii	"\002Y\260\200\212\206\226\202PJ\255g\356\334\331\235"
 181      8A869682 
 181      504AAD67 
 181      EEDCD99D 
 182 005e 99CE74B7 		.ascii	"\231\316t\267&r\3233\2753\367\236\357\234{\276s\357"
 182      2672D333 
 182      BD33F79E 
 182      EF9C7BBE 
 182      73EF
 183 0070 B92D8738 		.ascii	"\271-\20784\213Ch\004\332\271\207\021Z\342@\310\215"
 183      348B4368 
 183      04DAB987 
 183      115AE240 
 183      C88D
 184 0082 105A80B2 		.ascii	"\020Z\200\262My\337\016\322\006r\034\344,\310\005\020"
 184      4D79DF0E 
 184      D206721C 
 184      E42CC805 
 184      10
 185 0093 0F46087E 		.ascii	"\017F\010~\320\014\214\014M\231\353\001\331\011\342"
 185      D00C8C0C 
 185      4D99EB01 
 185      D909E2
 186 00a2 02E90249 		.ascii	"\002\351\002I\203L\002)\002\351\004\271\004\262\017"
 186      834C0229 
 186      02E904B9 
 186      04B20F
 187 00b1 04CCA141 		.ascii	"\004\314\241A\220!\220;H\305S\364\301%\364\005\310a"
 187      9021903B 
 187      48C553F4 
 187      C125F405 
 187      C861
 188 00c3 2334F5C1 		.ascii	"#4\365\301\303t5<\263\035\015\337\301p\207u\330m\354"
 188      C374353C 
 188      B31D0DDF 
 188      C1708775 
 188      D86DEC
 189 00d6 F73113AE 		.ascii	"\3671\023\256\262\256\011:\234E6>\027\203\362\004<\032"
 189      B2AE093A 
 189      9C45363E 
 189      1783F204 
ARM GAS  /tmp/cctsBWOj.s 			page 14


 189      3C1A
 190 00e8 9B63181E 		.ascii	"\233c\030\0366\366\035\310)\220oMv\316\232\354,\314"
 190      36F61DC8 
 190      29906F4D 
 190      76CE9AEC 
 190      2CCC
 191 00fa C38E3E3E 		.ascii	"\303\216>>\034\303\320\354\234\007\371\005\344\234\311"
 191      1CC3D0EC 
 191      9C07F905 
 191      E49CC9
 192 0109 CE0566E3 		.ascii	"\316\005f\343\032\303K3{\235\354\373U\206\247a\017\263"
 192      1AC34B33 
 192      7B9DECFB 
 192      5586A761 
 192      0FB3
 193 011b B8687A0E 		.ascii	"\270hz\016xq\201\270A\012\360h\216\213\3216\222\352"
 193      787181B8 
 193      410AF068 
 193      8E8BD136 
 193      92EA
 194 012d 4B7F7DB9 		.ascii	"K\177}\271\017o%\251\325ddd%\232\206> \320\222k\011"
 194      0F6F25A9 
 194      D5646464 
 194      259A863E 
 194      20D0926B 
 195 0142 C1B207AD 		.ascii	"\301\262\007\255g/\325]\260\270\227\261\200'yP\011\355"
 195      672FD55D 
 195      B0B897B1 
 195      80277950 
 195      09ED
 196 0154 14799013 		.ascii	"\024y\220\0230f\243]\2044\245\333w\277\3634!\205\002"
 196      3066A35D 
 196      8434A5DB 
 196      77BFF334 
 196      218502
 197 0167 DE893DB0 		.ascii	"\336\211=\260>\021\2439h/\2506\021ry\276\311,myC'{\276"
 197      3E11A339 
 197      682FA836 
 197      117279BE 
 197      C92C6D79 
 198 017f 994A9C02 		.ascii	"\231J\234\002\376\230\002_\305\030\011x\017\2363^\230"
 198      FE98025F 
 198      C5180978 
 198      0F9E335E 
 198      98
 199 0190 74FB9943 		.ascii	"t\373\231C\225\324\303O(\320\000g\004\022\260\333\243"
 199      95D4C34F 
 199      28D00067 
 199      0412B0DB 
 199      A3
 200 01a1 F78FBE6B 		.ascii	"\367\217\276k\023\0244xU,\335U6\031^\311\276(/\005\350"
 200      13143478 
 200      552CDD55 
 200      36195EC9 
 200      BE282F05 
 201 01b6 81EB592D 		.ascii	"\201\353Y-S\201\330\201\247\321\236\203\246\030|X8Q"
 201      5381D881 
ARM GAS  /tmp/cctsBWOj.s 			page 15


 201      A7D19E83 
 201      A6187C58 
 201      3851
 202 01c8 EBD34035 		.ascii	"\353\323@5\220\364n2}K6P\205\032\002\316\006\252g\335"
 202      90F46E32 
 202      7D4B3650 
 202      851A02CE 
 202      06AA67DD 
 203 01dc 677369A0 		.ascii	"gsi\240\366\321@\015s\026\021\317\013\250}\34365\342"
 203      F6D1400D 
 203      731611CF 
 203      0BA87DE3 
 203      3635E2
 204 01ef 0728D01A 		.ascii	"\007(\320\032\2079\342\330\024ql\214\000\035f\235\021"
 204      8739E2D8 
 204      14716C8C 
 204      001D669D 
 204      11
 205 0200 630EE533 		.ascii	"c\016\3453W\300\313\034\031\005\016m4\231\237\205v\022"
 205      57C0CB1C 
 205      19050E6D 
 205      34999F85 
 205      7612
 206 0212 B239FDD5 		.ascii	"\2629\375\325\345.L\246\320Hq\350=:g;.\266\2140\235"
 206      E52E4CA6 
 206      D04871E8 
 206      3D3A673B 
 206      2EB68C30 
 207 0227 C4F4C8D6 		.ascii	"\304\364\310\326W\246k\021\372\320\254e\010\206:\013"
 207      57A66B11 
 207      FAD0AC65 
 207      08863A0B 
 208 0237 DAE368B7 		.ascii	"\332\343h\267Bh{\357\363\325\3526Ac\330b+\370\034s\372"
 208      42687BEF 
 208      F3D5EA36 
 208      4163D862 
 208      2BF81C73 
 209 024c 65AB1B36 		.ascii	"e\253\0336u\370DQ\323\252\364\310H\261a\263\252\240"
 209      75F84451 
 209      D3AAF4C8 
 209      48B161B3 
 209      AAA0
 210 025e 76A971C4 		.ascii	"v\251q\304\"5L\021\332b\031!\322\037\250f\263\017\201"
 210      22354C11 
 210      DA621921 
 210      D21FA866 
 210      B30F81
 211 0271 37026E1B 		.ascii	"7\002n\0333<6\353\264Sb\336\035\265\\g\3770p\263\231"
 211      333C36EB 
 211      B45362DE 
 211      1DB55C67 
 211      FF3070B3 
 212 0286 DC1F1971 		.ascii	"\334\037\031qX\234K\015\371\354\372\301\217~\034\300"
 212      589C4B0D 
 212      F9ECFAC1 
 212      8F7E1CC0 
 213 0296 0DA023E0 		.ascii	"\015\240#\340NJV\213\323\234\205.S\026\272\214\231\345"
ARM GAS  /tmp/cctsBWOj.s 			page 16


 213      4E4A568B 
 213      D39C852E 
 213      5316BA8C 
 213      99E5
 214 02a8 F2643BCA 		.ascii	"\362d;\312\366{\310~\373u\330o\277\211hC\326c5%\354"
 214      F67BC87E 
 214      FB75D86F 
 214      BF896843 
 214      D6633525 
 215 02bd 50BAF044 		.ascii	"P\272\360D\235?\031\254N5\213L\234\355qZf\365\232\213"
 215      9D3F19AC 
 215      4E358B4C 
 215      9CED715A 
 215      66F59A8B 
 216 02d1 CD334892 		.ascii	"\3153H\2223\360v<\237\264n\025\253U\0178\364)\205\266"
 216      33F0763C 
 216      9FB46E15 
 216      AB550F38 
 216      F42985B6 
 217 02e5 D7A27E32 		.ascii	"\327\242~2\265\237\02455\300\373r\250u\352vC\0039F\263"
 217      B59F1435 
 217      35C0FB72 
 217      A875EA76 
 217      43033946 
 218 02fa A4936589 		.ascii	"\244\223e\211\235\026\213\314I\313,9\"v\221>\340\305"
 218      9D168BCC 
 218      49CB2C39 
 218      2276913E 
 218      E0C5
 219 030c B4193AC7 		.ascii	"\264\031:\307\010\361\367y\022\2259\353R\266g\235\200"
 219      08F1F779 
 219      129539EB 
 219      52B6679D 
 219      80
 220 031d F7E3D9B9 		.ascii	"\367\343\331\271\317#;Oz\306Cv\253%\331d\320\264A\317"
 220      CF233B4F 
 220      7AC64376 
 220      AB25D964 
 220      D0B441CF 
 221 0331 E643F431 		.ascii	"\346C\3641\2051\305\272\200O\347\320\352\321\021}[#"
 221      8531C5BA 
 221      804FE7D0 
 221      EAD1117D 
 221      5B23
 222 0343 5AC06772 		.ascii	"Z\300gr\250\215E\264\235\026\213\312\317\243\211N\246"
 222      A88D45B4 
 222      9D168BCA 
 222      CFA3894E 
 222      A6
 223 0354 532DEB4E 		.ascii	"S-\353NY\037\007\002^0\3256\302\027\215\\\033\370\235"
 223      591F0702 
 223      5E30D536 
 223      C2178D5C 
 223      1BF89D
 224 0367 82362928 		.ascii	"\2026)(%\272C$\2115\200GP\346\024\351\377\265{F#=D."
 224      25BA4324 
 224      89358047 
ARM GAS  /tmp/cctsBWOj.s 			page 17


 224      50E614E9 
 224      FFB57B46 
 225 037f E12980D3 		.ascii	"\341)\200\323k\"\"'\216\342H/\250\252J\024\225\244\232"
 225      6B222227 
 225      8EE2482F 
 225      A8AA4A14 
 225      95A49A
 226 0392 4F142917 		.ascii	"O\024)\027\033\345;2\300\031\332L\224\004\207S\255k"
 226      1BE53B32 
 226      C019DA4C 
 226      94048753 
 226      AD6B
 227 03a4 5B604777 		.ascii	"[`Gw`+\377a\002\326\231&\031\323\223i\332\364\203\267"
 227      602BFF61 
 227      02D69926 
 227      19D39369 
 227      DAF483B7 
 228 03b8 161E1AA7 		.ascii	"\026\036\032\247\011\370w\312\347\037f/\207\204\022"
 228      09F877CA 
 228      E71F662F 
 228      878412
 229 03c7 F56B6E1F 		.ascii	"\365kn\037\207O\0275\011\246\223N\331jv\324\374\225"
 229      874F1735 
 229      09A6934E 
 229      D96A76D4 
 229      FC95
 230 03d9 4D7E0EFD 		.ascii	"M~\016\375Cc\252\030\262\232\316\272jc\023\014\306\311"
 230      4363AA18 
 230      B29ACEBA 
 230      6A63130C 
 230      C6C9
 231 03eb 01423C6E 		.ascii	"\001B<n\223\361\2161\214\367\351\215\257v\215\327xI"
 231      93F18E31 
 231      8CF7E98D 
 231      AF768DD7 
 231      7849
 232 03fd 4EE33BC6 		.ascii	"N\343;\3060>\2205\256\026\371\234\306\013\307\267\362"
 232      303E9035 
 232      AE16F99C 
 232      C60BC7B7 
 232      F2
 233 040e 236318BF 		.ascii	"#c\030\277\2557~t\334\306KL\344kY!\340?\361Lx\336\240"
 233      AD377E74 
 233      DCC64B4C 
 233      E46B5921 
 233      E03FF14C 
 234 0425 CF9BF479 		.ascii	"\317\233\364y\013\236\231f\347\3175=\023oS&z\377k\032"
 234      0B9E9966 
 234      E7CF353D 
 234      136F5326 
 234      7AFF6B1A 
 235 0439 A40EC0DD 		.ascii	"\244\016\300\335H\320J\330\273\343\006\263\240U+l\357"
 235      48D04AD8 
 235      BBE306B3 
 235      A0552B6C 
 235      EF
 236 044a E703968B 		.ascii	"\347\003\226\213&\015l\353\270\301\306\360\2549\037"
ARM GAS  /tmp/cctsBWOj.s 			page 18


 236      260D6CEB 
 236      B8C1C6F0 
 236      AC391F
 237 0459 B0C9169E 		.ascii	"\260\311\026\236Y5\375A%\340+\264\270]\245d\336\241"
 237      5935FD41 
 237      25E02BB4 
 237      B85DA564 
 237      DEA1
 238 046b CF41FA1C 		.ascii	"\317A\372\034\242\317\341|\350Mg\351\315\3247v\3071"
 238      A2CFE17C 
 238      E84D67E9 
 238      CDD43776 
 238      C731
 239 047d D7BB1CF5 		.ascii	"\327\273\034\365o\227\313\362\262se\240\313\011\177"
 239      6F97CBF2 
 239      B27365A0 
 239      CB097F
 240 048c BF3A5553 		.ascii	"\277:USP&\351\264\013\266\205)\215Me\260\213\226\301"
 240      5026E9B4 
 240      0BB68529 
 240      8D4D65B0 
 240      8B96C1
 241 049f BB7427D8 		.ascii	"\273t'\330\253\351\356;\251\326u\354~\245\226\302{9"
 241      ABE9EE3B 
 241      A9D675EC 
 241      7EA596C2 
 241      7B39
 242 04b1 54E97298 		.ascii	"T\351r\230\305\226l\005\275\237\217\232v\241\206\362"
 242      C5966C05 
 242      BD9F8F9A 
 242      76A186F2 
 243 04c1 D798C4C4 		.ascii	"\327\230\304\304M\213\035bz\006\336\032\270QU3\275?"
 243      4D8B1D62 
 243      7A06DE1A 
 243      B8515533 
 243      BD3F
 244 04d3 7DFEFADD 		.ascii	"}\376\372\335\006\274\2511\251^\222\032Ir\256\251v\302"
 244      06BCA931 
 244      A95E921A 
 244      4972AEA9 
 244      76C2
 245 04e5 A560B479 		.ascii	"\245`\264y\312\004\207\366*\377:\320^Z\341\2051\364"
 245      CA0487F6 
 245      2AFF3AD0 
 245      5E5AE185 
 245      31F4
 246 04f7 28FAD2DD 		.ascii	"(\372\322\335L\012\315\231\263\201\263\275W\011x\221"
 246      4C0ACD99 
 246      B381B3BD 
 246      57097891 
 247 0507 25E5268A 		.ascii	"%\345&\212\333\334z\212\231\341\016\275\027'\335V\377"
 247      DBDC7A8A 
 247      99E10EBD 
 247      1727DD56 
 247      FF
 248 0518 4EC8B4C7 		.ascii	"N\310\264\307\320v\322\335\235\276r\275\333\271J\371"
 248      D076D2DD 
ARM GAS  /tmp/cctsBWOj.s 			page 19


 248      9DBE72BD 
 248      DBB94AF9 
 249 0528 9F86725D 		.ascii	"\237\206r]\300\260\252\337hR\377M#\256\300[\026A\304"
 249      C0B0AADF 
 249      6852FF4D 
 249      23AEC05B 
 249      1641C4
 250 053b A628AD02 		.ascii	"\246(\255\002\035$\353S\317h\232\312\331\366\026\272"
 250      1D24EB53 
 250      CF689ACA 
 250      D9F616BA 
 251 054b 47E04278 		.ascii	"G\340Bx\020\253\245K\275\306P\245\033\331\321\037\260"
 251      10ABA54B 
 251      BDC650A5 
 251      1BD9D11F 
 251      B0
 252 055c 5A5BD4DB 		.ascii	"Z[\324\333,\035\275\231\035\355\307\352\341\257\376"
 252      2C1DBD99 
 252      1DEDC7EA 
 252      E1AFFE
 253 056b E547476F 		.ascii	"\345GGoeG\207\260z:\253\177/\321f:\327\225\010\333m"
 253      654787B0 
 253      7A3AAB7F 
 253      2FD1663A 
 253      D79508DB 
 254 0580 B4162E7B 		.ascii	"\264\026.{\227\234[V\306W\005C\276\320sK\371\230\304"
 254      979C5B56 
 254      C6570543 
 254      BED0734B 
 254      F998C4
 255 0593 0785301F 		.ascii	"\007\2050\037\016\371xIN\210BD\342#b\204u\313\374h\276"
 255      0EF97849 
 255      4E884244 
 255      E2236284 
 255      75CBFC68 
 256 05a8 716E42E6 		.ascii	"qnB\346\343\261\204,\361\213^\250\251\252y\203\367\307"
 256      E3B1842C 
 256      F18B5EA8 
 256      A9AA7983 
 256      F7C7
 257 05ba 22F15058 		.ascii	"\"\361PXLH\374\342\252*\336\037\224W\304E\251,\210\\"
 257      4C48FCE2 
 257      AA2ADE1F 
 257      9457C445 
 257      A92C885C 
 258 05ce 11A9CE2B 		.ascii	"\021\251\316+\273\027/YVR\205$>ZK\345)>\030\213\210"
 258      BB172F59 
 258      56528524 
 258      3E5A4BE5 
 258      293E188B 
 259 05e3 7C429444 		.ascii	"|B\224D!\341\017\202\345D`\271\220\020y!\021)\347\353"
 259      21E10F82 
 259      E54460B9 
 259      90107921 
 259      1129E7EB 
 260 05f7 FCFE52E8 		.ascii	"\374\376R\350\224\212\021\237\030\010\210\201\314\207"
 260      948A119F 
ARM GAS  /tmp/cctsBWOj.s 			page 20


 260      18088881 
 260      CC87
 261 0605 682C2A96 		.ascii	"h,*\226\212\202/TZ\341\255,-\177b^\305k\345\274a\200"
 261      8A822F54 
 261      5AE1AD2C 
 261      2D7F625E 
 261      C56BE5BC 
 262 061b 0F45FDE1 		.ascii	"\017E\375\341\372\200\010k\010\204\24228P\000\277\236"
 262      FA80086B 
 262      0884A232 
 262      385000BF 
 262      9E
 263 062c 2CF7CA8D 		.ascii	",\367\312\215\370\301\031\217\010\376`(*\362\336\200"
 263      F8C1198F 
 263      08FE6028 
 263      2AF2DE80 
 264 063c 582BD487 		.ascii	"X+\324\207e\257\026\015\217\327\313\334)\250\207N\245"
 264      65AF160D 
 264      8FD7CBDC 
 264      29A8874E 
 264      A5
 265 064d 57862FAC 		.ascii	"W\206/\254\347\210\327\313\\(\216}\216:Q^\365\277x\253"
 265      E788D7CB 
 265      5C288E7D 
 265      8E3A515E 
 265      F5BF78AB 
 266 0661 900B134C 		.ascii	"\220\013\023L^W\224U\226U\350\003\007^\203\257n)\364"
 266      5E579455 
 266      9655E803 
 266      075E83AF 
 266      6E29F4
 267 0674 A6E8955D 		.ascii	"\246\350\225]\220\000\001\211\363\305q\324\275<\021"
 267      90000189 
 267      F3C571D4 
 267      BD3C11
 268 0683 924529FF 		.ascii	"\222E)\377\254\011\242\242\0321\022K\254XJ?(/j\357\245"
 268      AC09A2A2 
 268      1A31124B 
 268      AC584A3F 
 268      282F6AEF 
 269 0698 9A175D14 		.ascii	"\232\027]\024\314\251\240;^\217\310n_}m\255\230p*F\035"
 269      CCA9A03B 
 269      5E8FC86E 
 269      5F7D6DAD 
 269      98702A46 
 270 06ad 624C72C7 		.ascii	"bLr\307jk%Q.\212H\317\371^\025\375\362\263\321\220\354"
 270      6A6B2551 
 270      2E8A48CF 
 270      F95E15FD 
 270      F2B3D190 
 271 06c2 8848F107 		.ascii	"\210H\361\007\232B\211P\264NI!\030\213\326\207\303\005"
 271      9A428950 
 271      B44E4921 
 271      188BD687 
 271      C305
 272 06d4 B5D11229 		.ascii	"\265\321\022).\372\361<7,\322\037_\001\003r0\021[\356"
 272      2EFAF13C 
ARM GAS  /tmp/cctsBWOj.s 			page 21


 272      372CD21F 
 272      5F010372 
 272      30115BEE 
 273 06e8 0C8B42ED 		.ascii	"\014\213B\355\277\221\006\253\354"
 273      BF9106AB 
 273      EC
 274              		.text
 275              		.section	.gnu.lto_.symtab.a9a3eb057f3645f8,"",%progbits
 276 0000 6D734F62 		.ascii	"msObjectInit\000\000\000\000\000\000\000\000\000\000"
 276      6A656374 
 276      496E6974 
 276      00000000 
 276      00000000 
 277 0016 0000DD00 		.ascii	"\000\000\335\000\000\000"
 277      0000
 278              		.text
 279              		.section	.gnu.lto_.opts,"",%progbits
 280 0000 272D6D63 		.ascii	"'-mcpu=cortex-m4' '-mno-thumb-interwork' '-mthumb' "
 280      70753D63 
 280      6F727465 
 280      782D6D34 
 280      2720272D 
 281 0033 272D6767 		.ascii	"'-ggdb' '-O2' '-fomit-frame-pointer' '-falign-funct"
 281      64622720 
 281      272D4F32 
 281      2720272D 
 281      666F6D69 
 282 0066 696F6E73 		.ascii	"ions=16' '-ffunction-sections' '-fdata-sections' '-"
 282      3D313627 
 282      20272D66 
 282      66756E63 
 282      74696F6E 
 283 0099 666E6F2D 		.ascii	"fno-common' '-flto'\000"
 283      636F6D6D 
 283      6F6E2720 
 283      272D666C 
 283      746F2700 
 284              		.text
 285              		.cfi_sections	.debug_frame
 286              		.section	.text.put,"ax",%progbits
 287              		.align	2
 288              		.p2align 4,,15
 289              		.thumb
 290              		.thumb_func
 291              		.type	put, %function
 292              	put:
 293              	.LFB274:
 294              		.file 1 "../ChibiOS/os/hal/lib/streams/memstreams.c"
 295              		.loc 1 66 0
 296              		.cfi_startproc
 297              		@ args = 0, pretend = 0, frame = 0
 298              		@ frame_needed = 0, uses_anonymous_args = 0
 299              		@ link register save eliminated.
 300              	.LVL0:
 301              		.loc 1 69 0
 302 0000 C368     		ldr	r3, [r0, #12]
 303 0002 8268     		ldr	r2, [r0, #8]
ARM GAS  /tmp/cctsBWOj.s 			page 22


 304 0004 9A42     		cmp	r2, r3
 305 0006 06D0     		beq	.L3
 306              		.loc 1 71 0
 307 0008 4268     		ldr	r2, [r0, #4]
 308 000a D154     		strb	r1, [r2, r3]
 309              		.loc 1 72 0
 310 000c C368     		ldr	r3, [r0, #12]
 311 000e 0133     		adds	r3, r3, #1
 312 0010 C360     		str	r3, [r0, #12]
 313              		.loc 1 73 0
 314 0012 0020     		movs	r0, #0
 315              	.LVL1:
 316 0014 7047     		bx	lr
 317              	.LVL2:
 318              	.L3:
 319              		.loc 1 70 0
 320 0016 6FF00100 		mvn	r0, #1
 321              	.LVL3:
 322              		.loc 1 74 0
 323 001a 7047     		bx	lr
 324              		.cfi_endproc
 325              	.LFE274:
 326              		.size	put, .-put
 327 001c AFF30080 		.section	.text.get,"ax",%progbits
 328              		.align	2
 329              		.p2align 4,,15
 330              		.thumb
 331              		.thumb_func
 332              		.type	get, %function
 333              	get:
 334              	.LFB275:
 335              		.loc 1 76 0
 336              		.cfi_startproc
 337              		@ args = 0, pretend = 0, frame = 0
 338              		@ frame_needed = 0, uses_anonymous_args = 0
 339              		@ link register save eliminated.
 340              	.LVL4:
 341              		.loc 1 80 0
 342 0000 0269     		ldr	r2, [r0, #16]
 343 0002 C168     		ldr	r1, [r0, #12]
 344 0004 9142     		cmp	r1, r2
 345              		.loc 1 76 0
 346 0006 0346     		mov	r3, r0
 347              	.LVL5:
 348              		.loc 1 80 0
 349 0008 04D0     		beq	.L7
 350              		.loc 1 82 0
 351 000a 4168     		ldr	r1, [r0, #4]
 352 000c 885C     		ldrb	r0, [r1, r2]	@ zero_extendqisi2
 353              	.LVL6:
 354              		.loc 1 83 0
 355 000e 0132     		adds	r2, r2, #1
 356              	.LVL7:
 357 0010 1A61     		str	r2, [r3, #16]
 358              	.LVL8:
 359              		.loc 1 84 0
 360 0012 7047     		bx	lr
ARM GAS  /tmp/cctsBWOj.s 			page 23


 361              	.LVL9:
 362              	.L7:
 363              		.loc 1 81 0
 364 0014 6FF00100 		mvn	r0, #1
 365              	.LVL10:
 366              		.loc 1 85 0
 367 0018 7047     		bx	lr
 368              		.cfi_endproc
 369              	.LFE275:
 370              		.size	get, .-get
 371 001a 00BFAFF3 		.section	.text.reads,"ax",%progbits
 371      0080
 372              		.align	2
 373              		.p2align 4,,15
 374              		.thumb
 375              		.thumb_func
 376              		.type	reads, %function
 377              	reads:
 378              	.LFB273:
 379              		.loc 1 56 0
 380              		.cfi_startproc
 381              		@ args = 0, pretend = 0, frame = 0
 382              		@ frame_needed = 0, uses_anonymous_args = 0
 383              	.LVL11:
 384 0000 38B5     		push	{r3, r4, r5, lr}
 385              		.cfi_def_cfa_offset 16
 386              		.cfi_offset 3, -16
 387              		.cfi_offset 4, -12
 388              		.cfi_offset 5, -8
 389              		.cfi_offset 14, -4
 390              		.loc 1 56 0
 391 0002 0446     		mov	r4, r0
 392              	.LVL12:
 393              		.loc 1 61 0
 394 0004 0846     		mov	r0, r1
 395              	.LVL13:
 396              		.loc 1 59 0
 397 0006 2369     		ldr	r3, [r4, #16]
 398 0008 E568     		ldr	r5, [r4, #12]
 399              		.loc 1 61 0
 400 000a 6168     		ldr	r1, [r4, #4]
 401              	.LVL14:
 402              		.loc 1 59 0
 403 000c ED1A     		subs	r5, r5, r3
 404 000e AA42     		cmp	r2, r5
 405 0010 38BF     		it	cc
 406 0012 1546     		movcc	r5, r2
 407              	.LVL15:
 408              		.loc 1 61 0
 409 0014 1944     		add	r1, r1, r3
 410 0016 2A46     		mov	r2, r5
 411 0018 FFF7FEFF 		bl	memcpy
 412              	.LVL16:
 413              		.loc 1 62 0
 414 001c 2369     		ldr	r3, [r4, #16]
 415 001e 2B44     		add	r3, r3, r5
 416 0020 2361     		str	r3, [r4, #16]
ARM GAS  /tmp/cctsBWOj.s 			page 24


 417              		.loc 1 64 0
 418 0022 2846     		mov	r0, r5
 419 0024 38BD     		pop	{r3, r4, r5, pc}
 420              		.cfi_endproc
 421              	.LFE273:
 422              		.size	reads, .-reads
 423 0026 00BFAFF3 		.section	.text.writes,"ax",%progbits
 423      0080AFF3 
 423      0080
 424              		.align	2
 425              		.p2align 4,,15
 426              		.thumb
 427              		.thumb_func
 428              		.type	writes, %function
 429              	writes:
 430              	.LFB272:
 431              		.loc 1 46 0
 432              		.cfi_startproc
 433              		@ args = 0, pretend = 0, frame = 0
 434              		@ frame_needed = 0, uses_anonymous_args = 0
 435              	.LVL17:
 436 0000 38B5     		push	{r3, r4, r5, lr}
 437              		.cfi_def_cfa_offset 16
 438              		.cfi_offset 3, -16
 439              		.cfi_offset 4, -12
 440              		.cfi_offset 5, -8
 441              		.cfi_offset 14, -4
 442              		.loc 1 49 0
 443 0002 C368     		ldr	r3, [r0, #12]
 444 0004 8568     		ldr	r5, [r0, #8]
 445              		.loc 1 46 0
 446 0006 0446     		mov	r4, r0
 447              	.LVL18:
 448              		.loc 1 49 0
 449 0008 ED1A     		subs	r5, r5, r3
 450              		.loc 1 51 0
 451 000a 4068     		ldr	r0, [r0, #4]
 452              	.LVL19:
 453 000c AA42     		cmp	r2, r5
 454 000e 38BF     		it	cc
 455 0010 1546     		movcc	r5, r2
 456              	.LVL20:
 457 0012 1844     		add	r0, r0, r3
 458 0014 2A46     		mov	r2, r5
 459 0016 FFF7FEFF 		bl	memcpy
 460              	.LVL21:
 461              		.loc 1 52 0
 462 001a E368     		ldr	r3, [r4, #12]
 463 001c 2B44     		add	r3, r3, r5
 464 001e E360     		str	r3, [r4, #12]
 465              		.loc 1 54 0
 466 0020 2846     		mov	r0, r5
 467 0022 38BD     		pop	{r3, r4, r5, pc}
 468              		.cfi_endproc
 469              	.LFE272:
 470              		.size	writes, .-writes
 471 0024 AFF30080 		.section	.text.msObjectInit,"ax",%progbits
ARM GAS  /tmp/cctsBWOj.s 			page 25


 471      AFF30080 
 471      AFF30080 
 472              		.align	2
 473              		.p2align 4,,15
 474              		.global	msObjectInit
 475              		.thumb
 476              		.thumb_func
 477              		.type	msObjectInit, %function
 478              	msObjectInit:
 479              	.LFB276:
 480              		.loc 1 104 0
 481              		.cfi_startproc
 482              		@ args = 0, pretend = 0, frame = 0
 483              		@ frame_needed = 0, uses_anonymous_args = 0
 484              		@ link register save eliminated.
 485              	.LVL22:
 486 0000 10B4     		push	{r4}
 487              		.cfi_def_cfa_offset 4
 488              		.cfi_offset 4, -4
 489              		.loc 1 107 0
 490 0002 4160     		str	r1, [r0, #4]
 491              		.loc 1 106 0
 492 0004 044C     		ldr	r4, .L11
 493 0006 0460     		str	r4, [r0]
 494              		.loc 1 110 0
 495 0008 0021     		movs	r1, #0
 496              	.LVL23:
 497              		.loc 1 108 0
 498 000a 8260     		str	r2, [r0, #8]
 499              		.loc 1 109 0
 500 000c C360     		str	r3, [r0, #12]
 501              		.loc 1 110 0
 502 000e 0161     		str	r1, [r0, #16]
 503              		.loc 1 111 0
 504 0010 5DF8044B 		ldr	r4, [sp], #4
 505 0014 7047     		bx	lr
 506              	.L12:
 507 0016 00BF     		.align	2
 508              	.L11:
 509 0018 00000000 		.word	.LANCHOR0
 510              		.cfi_endproc
 511              	.LFE276:
 512              		.size	msObjectInit, .-msObjectInit
 513 001c AFF30080 		.section	.rodata.vmt,"a",%progbits
 514              		.align	2
 515              		.set	.LANCHOR0,. + 0
 516              		.type	vmt, %object
 517              		.size	vmt, 16
 518              	vmt:
 519 0000 00000000 		.word	writes
 520 0004 00000000 		.word	reads
 521 0008 00000000 		.word	put
 522 000c 00000000 		.word	get
 523              		.text
 524              	.Letext0:
 525              		.file 2 "/nfs/nfs5/home/research/hardware/arm2/gcc-arm-embedded/gcc-arm-none-eabi-4_8-2014q2/lib/g
 526              		.file 3 "/nfs/nfs5/home/research/hardware/arm2/gcc-arm-embedded/gcc-arm-none-eabi-4_8-2014q2/arm-n
ARM GAS  /tmp/cctsBWOj.s 			page 26


 527              		.file 4 "/nfs/nfs5/home/research/hardware/arm2/gcc-arm-embedded/gcc-arm-none-eabi-4_8-2014q2/arm-n
 528              		.file 5 "../ChibiOS/os/rt/ports/ARMCMx/compilers/GCC/chtypes.h"
 529              		.file 6 "../ChibiOS/os/rt/include/chsystypes.h"
 530              		.file 7 "../ChibiOS/os/rt/include/chschd.h"
 531              		.file 8 "../ChibiOS/os/rt/ports/ARMCMx/chcore.h"
 532              		.file 9 "../ChibiOS/os/rt/ports/ARMCMx/chcore_v7m.h"
 533              		.file 10 "../ChibiOS/os/rt/include/chtm.h"
 534              		.file 11 "../ChibiOS/os/rt/include/chsem.h"
 535              		.file 12 "../ChibiOS/os/rt/include/chmtx.h"
 536              		.file 13 "../ChibiOS/os/hal/lib/streams/memstreams.h"
 537              		.file 14 "../ChibiOS/os/ext/CMSIS/include/core_cm4.h"