ARM GAS  /tmp/ccGlQPWb.s 			page 1


   1              		.syntax unified
   2              		.cpu cortex-m4
   3              		.fpu softvfp
   4              		.eabi_attribute 20, 1
   5              		.eabi_attribute 21, 1
   6              		.eabi_attribute 23, 3
   7              		.eabi_attribute 24, 1
   8              		.eabi_attribute 25, 1
   9              		.eabi_attribute 26, 1
  10              		.eabi_attribute 30, 2
  11              		.eabi_attribute 34, 1
  12              		.eabi_attribute 18, 4
  13              		.thumb
  14              		.file	"pal.c"
  15              		.text
  16              	.Ltext0:
  17              		.section	.gnu.lto_.jmpfuncs.c6a759169b4668aa,"",%progbits
  18 0000 789C6362 		.ascii	"x\234cb`b\300\006D\24043\003##3\02333\204\315\300X\006"
  18      6062C006 
  18      44A03433 
  18      03232333 
  18      13333384 
  19 0018 A4010623 		.ascii	"\244\001\006#\000\243"
  19      00A3
  20              		.text
  21              		.section	.gnu.lto_.inline.c6a759169b4668aa,"",%progbits
  22 0000 789C6362 		.ascii	"x\234cb`b\300\006\276Cif\006\006N\016Ff\006F0\023D:"
  22      6062C006 
  22      BE436966 
  22      06064E0E 
  22      46660646 
  23 0018 8049050E 		.ascii	"\200I\005\016\266\017z\014l\013\344\231\030\030_\260"
  23      B60F7A0C 
  23      6C0BE499 
  23      18185FB0 
  24 0028 B3404810 		.ascii	"\263@H\020\301\001fr\200\010\0010S\000d\014#\003\037"
  24      C1016672 
  24      80080130 
  24      5300640C 
  24      23031F
  25 003b 2F230BC4 		.ascii	"/#\013\304\024FF\210\010\320\020\210\201\334L\027\370"
  25      14464688 
  25      08D01088 
  25      81DC4C17 
  25      F8
  26 004c 318C028A 		.ascii	"1\214\002\212\241\030\302\262@^\002\304R`b`\336!\256"
  26      A118C2B2 
  26      405E02C4 
  26      52606260 
  26      DE21AE
  27 005f C000B4DE 		.ascii	"\300\000\264\336\002d\016\023\003\2670\212\373\240\206"
  27      02640E13 
  27      03B7308A 
  27      FBA086
  28 006e 7202E588 		.ascii	"r\002\345\210s\036\320&\011\220I,\274@}\023\374@\220"
  28      731ED026 
  28      0990492C 
ARM GAS  /tmp/ccGlQPWb.s 			page 2


  28      BC407D13 
  28      FC4090
  29 0081 01003C62 		.ascii	"\001\000<b\037\210"
  29      1F88
  30              		.text
  31              		.section	.gnu.lto_.pureconst.c6a759169b4668aa,"",%progbits
  32 0000 789C6362 		.ascii	"x\234cb`b`g\200\000f\006)F)&I\000\001\312\000_"
  32      60626067 
  32      80006606 
  32      29462926 
  32      490001CA 
  33              		.text
  34              		.section	.gnu.lto_palReadBus.c6a759169b4668aa,"",%progbits
  35 0000 789C6D90 		.ascii	"x\234m\220\261J\003A\020\206\377\177\366.w\227\302^"
  35      B14A0341 
  35      1086FF7F 
  35      F62E7797 
  35      C25E
  36 0012 10B13670 		.ascii	"\020\2616p\367\020>\200\205\021\324.\271\"9HP\314\003"
  36      F7103E80 
  36      8511D42E 
  36      B9223948 
  36      50CC03
  37 0025 E4CCA5B2 		.ascii	"\344\314\245\262\012V\242\225\215\205El\005\033\261"
  37      0A56A295 
  37      8D85456C 
  37      051BB1
  38 0034 B08B686B 		.ascii	"\260\213hk%\330\212\257\020g7\336\211\222\205\375gw"
  38      25D88AAF 
  38      106737DE 
  38      899285FD 
  38      6777
  39 0046 76BE7F86 		.ascii	"v\276\177\206\025\010\376\257U\335\247\004\3265\322"
  39      1508FEAF 
  39      55DDA704 
  39      D635D2
  40 0055 80327906 		.ascii	"\2002y\006NB!\355\001\304P8\334\247\253\275\225\207"
  40      4E4221ED 
  40      01C45038 
  40      DCA7ABBD 
  40      9587
  41 0067 F7F97C7A 		.ascii	"\367\371|z\366t\375\311s\251\013\373\204AFx*\364U\244"
  41      F674FDC9 
  41      73A90BFB 
  41      84414678 
  41      2AF455A4 
  42 007b A662027B 		.ascii	"\246b\002{\015\255D*\236\222>\306y>\331\350S\215Rg\326"
  42      0DAD442A 
  42      9E923EC6 
  42      793ED9E8 
  42      538D5267 
  43 0090 54B51D76 		.ascii	"T\265\035v)6\232\031Fow\037/l\361J\235:4\015lf\364/"
  43      29369A19 
  43      466F771F 
  43      2F6CF14A 
  43      9D3A340D 
  44 00a8 71C18CB5 		.ascii	"q\301\214\265\016eOc\340\306h\263\034~\206\307\203\022"
ARM GAS  /tmp/ccGlQPWb.s 			page 3


  44      0E654F63 
  44      E0C668B3 
  44      1C7E86C7 
  44      8312
  45 00ba F01AB8C9 		.ascii	"\360\032\270\311\307Z\024.\230H=,\343\3770\254\230Q"
  45      C75A142E 
  45      98483D2C 
  45      E3FF30AC 
  45      9851
  46 00cc C5F8AE49 		.ascii	"\305\370\256I}y\023\371\005\276LIh\221oS\305\264J\005"
  46      7D7913F9 
  46      05BE4C49 
  46      68916F53 
  46      C5B44A05 
  47 00e0 DA5B1FFE 		.ascii	"\332[\037\376:\207\316\331[\356l*\347\342\276X)\221"
  47      3A87CED9 
  47      5BEE6C2A 
  47      E7E2BE58 
  47      2991
  48 00f2 C85985C0 		.ascii	"\310Y\205\300+\252_\210\026\205M\235^?\311N\264\026"
  48      2BAA5F88 
  48      16854D9D 
  48      5E3FC94E 
  48      B416
  49 0104 C7C95637 		.ascii	"\307\311V7kg\333;\311\341 \351\266z\311\3408M\216Z\275"
  49      6B67DB3B 
  49      C9E120E9 
  49      B67AC9E0 
  49      384D8E5A 
  50 0119 38C537E5 		.ascii	"8\3057\3451S\303"
  50      3153C3
  51              		.text
  52              		.section	.gnu.lto_palWriteBus.c6a759169b4668aa,"",%progbits
  53 0000 789C6D51 		.ascii	"x\234mQ=K\303P\024\275\367\2754M\322/\335\024D\0047"
  53      3D4BC350 
  53      14BDF7BD 
  53      344DD22F 
  53      DD144404 
  54 0015 0BCD0F70 		.ascii	"\013\315\017ptrr\260\202\272\245\035\332@\213b\177@"
  54      747272B0 
  54      82BAA51D 
  54      DA408B62 
  54      7F40
  55 0027 5BEDE0D8 		.ascii	"[\355\340\330\331N\256\202uq\021\005\305\301M\301M\234"
  55      D94EAE82 
  55      75711105 
  55      C5C14DC1 
  55      4D9C
  56 0039 FA0B7471 		.ascii	"\372\013tq\024\352\271/M\212\245\201\234{\337y\367\236"
  56      14EAB92F 
  56      4D8AA581 
  56      9C7BDF79 
  56      F79E
  57 004b 7B6EA248 		.ascii	"{n\242H\321\354\263\214w\023\364*\"kb\325\177#\352:"
  57      D1ECB38C 
  57      7713F42A 
  57      226B62D5 
ARM GAS  /tmp/ccGlQPWb.s 			page 4


  57      7F23EA3A 
  58 005f 8A591262 		.ascii	"\212Y\022bj+n\037\260\251\275QO\243\361x\370\363r\373"
  58      6A2B6E1F 
  58      B0A9BD51 
  58      4FA3F178 
  58      F8F372FB 
  59 0073 CB03B5A8 		.ascii	"\313\003\265\250\270\311\244)d\262\220q\012\031\333"
  59      B8C9A429 
  59      64B29071 
  59      0A19DB
  60 0082 02690107 		.ascii	"\002i\001\007\240\\\001\017\2403\302e\005rr\314KV\020"
  60      A05C010F 
  60      A033C265 
  60      057272CC 
  60      4B5610
  61 0095 806E8A7A 		.ascii	"\200n\212z\235N\177\255\311\360Q5\243\312@\231\277\007"
  61      9D4E7FAD 
  61      C9F05135 
  61      A3CA4099 
  61      BF07
  62 00a7 0A51BFD2 		.ascii	"\012Q\277\322\351\347\307\367R\300\227\030Sc]\244\215"
  62      E9E7C7F7 
  62      52C09718 
  62      53635DA4 
  62      8D
  63 00b8 90AD015D 		.ascii	"\220\255\001]p\310\251\032\253}D\333x\254p\274\031z"
  63      70C8A91A 
  63      AB7D44DB 
  63      78AC70BC 
  63      197A
  64 00ca 1E74DC81 		.ascii	"\036t\334\201\"\313P\2071c\033\215\364|\015N4\316\356"
  64      22CB5087 
  64      31631B8D 
  64      F47C0D4E 
  64      34CEEE
  65 00dd 138DB491 		.ascii	"\023\215\264\221\261\377\3138F\306\231/\243\2462\347"
  65      B1FFCB38 
  65      46C6992F 
  65      A3A632E7 
  66 00ed 898C8B26 		.ascii	"\211\214\213&)R\013\221\311\257\344\306\303\245)\276"
  66      29520B91 
  66      C9AFE4C6 
  66      C3A529BE 
  67 00fd 4EA88C19 		.ascii	"N\250\214\031\353\3158\311b\233\330\311\264=\007\341"
  67      EBCD38C9 
  67      629BD8C9 
  67      B43D07E1 
  68 010d 99F6BCA9 		.ascii	"\231\366\274\251\315\031\366.a\013F7/\354\363vD\026"
  68      CD19F62E 
  68      610B4637 
  68      2FECF376 
  68      4416
  69 011f E9AAD383 		.ascii	"\351\252\323\203)7N\274h#\324i1kM6\322\223\030\235!"
  69      29374EBC 
  69      6823D469 
  69      316B4D36 
  69      D293189D 
ARM GAS  /tmp/ccGlQPWb.s 			page 5


  70 0134 45F44EDD 		.ascii	"E\364N\335\321\343z$\023?e|A\3747\331\177\245T\362\267"
  70      D1E37A24 
  70      133F657C 
  70      41FC37D9 
  70      7FA554F2 
  71 0149 EA6125DC 		.ascii	"\352a%\334\331\365\217Z~=h\370\255\223\252\177\0344"
  71      D9F58F5A 
  71      7E3D68F8 
  71      AD93AA7F 
  71      1C34
  72 015b 4A55FA03 		.ascii	"JU\372\003\\\024t:"
  72      5C14743A 
  73              		.text
  74              		.section	.gnu.lto_palSetBusMode.c6a759169b4668aa,"",%progbits
  75 0000 789C6D90 		.ascii	"x\234m\220\277J\003A\020\306\277o\367\376\231\312RA"
  75      BF4A0341 
  75      10C6BF6F 
  75      F7FE99CA 
  75      5241
  76 0012 44B053B8 		.ascii	"D\260S\270}\010\037\300\302\010jw9\360\262\220\240\230"
  76      7D081FC0 
  76      C2086A77 
  76      39F0B290 
  76      A098
  77 0024 D22217B5 		.ascii	"\322\"\027\265\260L\255 \370\000\232\326\322\316J\203"
  77      B04CAD20 
  77      F8009AD6 
  77      D2CE4A83 
  78 0034 96567900 		.ascii	"\226Vy\000\311\003h\021g7\236\202\334\300\316\354~;"
  78      C9036811 
  78      67379E82 
  78      DCC0CEEC 
  78      7E3B
  79 0046 BF99D955 		.ascii	"\277\231\331UP\370o\313\262\016\011\254J\244\006\325"
  79      50F86FCB 
  79      B20E09AC 
  79      4AA406D5 
  80 0056 F0051824 		.ascii	"\360\005\030$\212t\033\020}\305\376>}\356H=Nf\263\373"
  80      8A741B10 
  80      7DC5FE3E 
  80      7DEE483D 
  80      4E66B3FB 
  81 006a B7A7D107 		.ascii	"\267\247\321\007oTC\261KhX\"\020\307P\234\212\304\351"
  81      6F5443B1 
  81      4B685822 
  81      10C7509C 
  81      8AC4E9
  82 007d D81D13B9 		.ascii	"\330\035\023\271uX\210\213\262\034\256u)\275s_\247)"
  82      7558888B 
  82      B21CAE75 
  82      29BD735F 
  82      A729
  83 008f DE15DF15 		.ascii	"\336\025\337\025I\242~\306\331\373\303\327R\306[\251"
  83      49A27EC6 
  83      D9FBC3D7 
  83      52C65BA9 
  84 009f 51506F62 		.ascii	"QPob\3032\270\306\025-\303\202jOb\344\007h\261\032["
ARM GAS  /tmp/ccGlQPWb.s 			page 6


  84      C332B8C6 
  84      152DC382 
  84      6A4F62E4 
  84      0768B11A 
  85 00b4 98830A08 		.ascii	"\230\203\012\010<\020\327\003\254\001B\017$\365\200"
  85      3C10D703 
  85      AC01420F 
  85      24F580
  86 00c3 FA03A6BA 		.ascii	"\372\003\246\272\"\"\201\234t~\367+\305\322\270p\324"
  86      2222819C 
  86      747EF72B 
  86      C5D2B870 
  86      D4
  87 00d4 18D15C03 		.ascii	"\030\321\\\003N\361Y^\226\213\226\013\371Ocy\216OM,"
  87      4EF1595E 
  87      968B960B 
  87      F94F6379 
  87      8E4F4D2C 
  88 00e8 1BC02B06 		.ascii	"\033\300+\006\223\351z\225=\267\246d\312/\270\266+i"
  88      93E97A95 
  88      3DB7A664 
  88      CA2FB8B6 
  88      2B69
  89 00fa 6AB6DAB6 		.ascii	"j\266\332\266e\267w\314Q\317\264\263\216\351\235\344"
  89      65B777CC 
  89      51CFB4B3 
  89      8EE99DE4 
  90 010a E638EBA4 		.ascii	"\3468\353\2449\276\001}UNr"
  90      39BE017D 
  90      554E72
  91              		.text
  92              		.section	.gnu.lto_.symbol_nodes.c6a759169b4668aa,"",%progbits
  93 0000 789C4DC7 		.ascii	"x\234M\307\261\015\2000\024CA\373\375\331\230\313))"
  93      B10D8030 
  93      144341FB 
  93      FDD998CB 
  93      2929
  94 0012 03122D0D 		.ascii	"\003\022-\015\373\260C\026A\024 \301u\207\320\244\027"
  94      FBB04316 
  94      411420C1 
  94      7587D0A4 
  94      17
  95 0023 9D48FD94 		.ascii	"\235H\375\224\222}6\013\361\257+\341\2537RO[sQ:\306"
  95      927D360B 
  95      F1AF2BE1 
  95      AB37524F 
  95      5B73513A 
  96 0038 65DDCE89 		.ascii	"e\335\316\211\024\225"
  96      1495
  97              		.text
  98              		.section	.gnu.lto_.refs.c6a759169b4668aa,"",%progbits
  99 0000 789C6362 		.ascii	"x\234cb`b`d\200\002\000\000F\000\006"
  99      60626064 
  99      80020000 
  99      460006
 100              		.text
 101              		.section	.gnu.lto_.decls.c6a759169b4668aa,"",%progbits
ARM GAS  /tmp/ccGlQPWb.s 			page 7


 102 0000 789CBD58 		.ascii	"x\234\275X{l\024E\030\237\331\273\203^9\312KHI\210="
 102      7B6C1445 
 102      189FD9BB 
 102      835E39CA 
 102      4B484988 
 103 0015 8C184268 		.ascii	"\214\030Bh\027\012\002\376C\024\212\224\010\266\271"
 103      170A02FE 
 103      43148A94 
 103      08B6B9
 104 0024 42C0BFD6 		.ascii	"B\300\277\326\355\335\226^l{\365n\253!1qJy\205D)E^\001"
 104      EDDD965E 
 104      6C7BF56E 
 104      AB213171 
 104      4A798544 
 105 003c CB4145C0 		.ascii	"\313AE\300\020@\240 O\017DZ\001)\301\210\022c<\020B"
 105      1040A020 
 105      4F0F445A 
 105      0129C188 
 105      12633C10 
 106 0051 08980042 		.ascii	"\010\230\000BD\244\234\337\314\356\336\355no\357\321"
 106      44A49CDF 
 106      CCEEDEED 
 106      6E6FEFD1 
 107 0061 442FF9E6 		.ascii	"D/\371\346fvf~\337\357{\314c\227C\034\372\000#\024\203"
 107      6676667E 
 107      DFEF7BCC 
 107      6397431C 
 107      FA002314 
 108 0076 DFA2E710 		.ascii	"\337\242\347\020:\302!dG\010ME\211\037mo\005y\010\322"
 108      3AC22164 
 108      47084D45 
 108      891F6D6F 
 108      057908D2 
 109 008a 0DE2C4A8 		.ascii	"\015\342\304\250\307\217\366\367\003\271\005\322\027"
 109      C78FF6F7 
 109      03B905D2 
 109      17
 110 0097 C4A1CE6B 		.ascii	"\304\241\316k\003i\007\331\013\262\007\3448\310!\220"
 110      036907D9 
 110      0BB207E4 
 110      38C82190 
 111 00a7 BB6AFF41 		.ascii	"\273j\377A\2203 w@n\203`\025\013h\240\373 \003L\272"
 111      90332077 
 111      406E8360 
 111      150B68A0 
 111      FB20034C 
 112 00bc 28075712 		.ascii	"(\007W\022=z\035m*>\325\365\235\252\317\241\352\272"
 112      3D7A1D6D 
 112      2A3ED5F5 
 112      9DAACFA1 
 112      EABA
 113 00ce ADEAEA04 		.ascii	"\255\352\352\004\271\240\352\243\2306\220\277A\236\200"
 113      B9A0EAA3 
 113      983690BF 
 113      419E80
 114 00dd 0C37E9EC 		.ascii	"\0147\351\354\266\260-\231\316\347an.V\360\364\3728"
 114      B6B02D99 
ARM GAS  /tmp/ccGlQPWb.s 			page 8


 114      CEE7616E 
 114      2E56F0F4 
 114      FA38
 115 00ef 9DEF689F 		.ascii	"\235\357h\237\003\376\373\200\024\230t\025\240V\022"
 115      03FEFB80 
 115      14987415 
 115      A05612
 116 00fe 8E46B75F 		.ascii	"\216F\267_\277\2077\222\310\022\022\213}\210\206\241"
 116      BF873792 
 116      C812128B 
 116      7D8886A1 
 117 010e B5047EE1 		.ascii	"\265\004~\341e\204`\331\211V\020\262\2306J;\363\020"
 117      658460D9 
 117      895610B2 
 117      98364A3B 
 117      F310
 118 0120 5A80459C 		.ascii	"Z\200E\234\347DnVq9\031\257Q\3503B\232\243\261\247;"
 118      E7446E56 
 118      713919AF 
 118      51E83342 
 118      9AA3B1A7 
 119 0135 C6109223 		.ascii	"\306\020\222#\3426\354\004\375\025\030\215A\273\000"
 119      E236EC04 
 119      FD15188D 
 119      41BB00
 120 0144 A719E617 		.ascii	"\247\031\346\027'\011!\312\034z\313\362oO\341\305@G"
 120      270921CA 
 120      1C7ACBF2 
 120      6F4FE1C5 
 120      4047
 121 0156 C43B18F8 		.ascii	"\304;\030\370/\030#\021\177\216\307d\015\265q\325\361"
 121      2F182311 
 121      7F8EC764 
 121      0DB571D5 
 121      F1
 122 0167 5718CB2F 		.ascii	"W\030\313/\030\320m\316\010$\342\276N=G\326\326\006"
 122      18D06DCE 
 122      0824E2BE 
 122      4E3D47D6 
 122      D606
 123 0179 5034D6AD 		.ascii	"P4\326\255Vh\022\017@\377\361\360d\266\320\231\333\360"
 123      5668120F 
 123      40FFF1F0 
 123      64B6D099 
 123      DBF0
 124 018b 3056B3B1 		.ascii	"0V\263\261XC\302\254Lx`0ZM#\350\326\371\342mm\276+\341"
 124      5843C2AC 
 124      4C786030 
 124      5A4D23E8 
 124      D6F9E26D 
 125 01a3 8BAB3F5D 		.ascii	"\213\253?](f\276\330\213\007\003\312Z\233\321\027\351"
 125      2866BED8 
 125      8B0703CA 
 125      5A9BD117 
 125      E9
 126 01b4 50288BFD 		.ascii	"P(\213\3750S\231\3030I\344Q\207\213\330\225\347\310"
 126      305399C3 
ARM GAS  /tmp/ccGlQPWb.s 			page 9


 126      3049E451 
 126      878BD895 
 126      E7C8
 127 01c6 8066F88D 		.ascii	"\200f\370\215Da`\033\351\356\330<\234\204O\343t\344"
 127      4461601B 
 127      E9EED83C 
 127      9C844FE3 
 127      74E4
 128 01d8 A39CA677 		.ascii	"\243\234\246w\254.\337\302[l\214\375!\306~Sz\366F\030"
 128      AC2EDFC2 
 128      5B6C8CFD 
 128      21C67E53 
 128      7AF64618 
 129 01ec 4AEF8899 		.ascii	"J\357\210\231\376?\027\031\375#\351\351/i\212\304.*"
 129      FE3F1719 
 129      FD23E9E9 
 129      2F698AC4 
 129      2E2A
 130 01fe F459F635 		.ascii	"\364Y\3665\245\314>\021\357\304\2432\2127\207v2K(\205"
 130      A5CC3E11 
 130      EFC4A332 
 130      8A378776 
 130      324B2885 
 131 0212 64486A55 		.ascii	"dHjU\371\251\003\214\264\232\273\\\315\242\210\217\263"
 131      F9A9038C 
 131      B49ABB5C 
 131      CDA2888F 
 131      B3
 132 0223 04DF9335 		.ascii	"\004\337\2235\230\333\000\326\242\007k\317\004,\307"
 132      98DB00D6 
 132      A2076BCF 
 132      042CC7
 133 0232 9AD9277A 		.ascii	"\232\331'z\260\023Y\203\031\231\255\323\203}\223\011"
 133      B0135983 
 133      1999ADD3 
 133      837D9309 
 134 0242 D8406B66 		.ascii	"\330@kf\033\364`\035Y\203\351\2315F\016w\235\303\244"
 134      1BF4601D 
 134      5983E999 
 134      35460E77 
 134      9DC3A4
 135 0255 C53504B5 		.ascii	"\3055\004\265\020\322H\302}\254\222\002!6\204\244\034"
 135      10D248C2 
 135      7DAC9202 
 135      213684A4 
 135      1C
 136 0266 22E27378 		.ascii	"\"\342sx\2101I7\255\312\243IJ\237\247_c\237v)I\252m"
 136      88314937 
 136      ADCAA349 
 136      4A9FA75F 
 136      639F7629 
 137 027d 9DE79971 		.ascii	"\235\347\231qtn/\262\013\224\267w\365#+]\352\352\012"
 137      746E2FB2 
 137      0B94B777 
 137      F5232B5D 
 137      EAEA0A
 138 0290 BFBA3305 		.ascii	"\277\2723\005\361.\363\352\332\322\305\271\225\307\351"
ARM GAS  /tmp/ccGlQPWb.s 			page 10


 138      F12EF3EA 
 138      DAD2C5B9 
 138      95C7E9
 139 029f 797FD9B5 		.ascii	"y\177\331\2659\237\204Oauk'\313\310h\235\256\201\232"
 139      399F844F 
 139      61756B27 
 139      CBC8689D 
 139      AE819A
 140 02b2 2EBAF9C5 		.ascii	".\272\371\305O\211\303c\331\206p\231\031\372\275-\351"
 140      4F89C363 
 140      D9867099 
 140      19FABD2D 
 140      E9
 141 02c3 199101D0 		.ascii	"\031\221\001\320\306U;\2243\342G\006t\305f>#l\2463\302"
 141      C6553B94 
 141      33E24706 
 141      74C5663E 
 141      236CA633 
 142 02d8 665CD536 		.ascii	"f\\\3256g\242\022\213\331Pv\2039t\215)\354J\344\237"
 142      67A2128B 
 142      D9507683 
 142      39748D29 
 142      EC4AE49F 
 143 02ec 8164BA10 		.ascii	"\201d\272\020-\216>\273\321\312\\\247y\342f\326x\003"
 143      2D8E3EBB 
 143      D1CA5CA7 
 143      79E266D6 
 143      7803
 144 02fe 4D31E1D0 		.ascii	"M1\341\320\235\336\246\215\316r\305h\021_\300#\241\274"
 144      9DDEA68D 
 144      CE72C568 
 144      115FC023 
 144      A1BC
 145 0310 08A54EC1 		.ascii	"\010\245N\301\037\231,\272|\013\243a\005\177\245_\301"
 145      1F992CBA 
 145      7C0BA361 
 145      057FA55F 
 145      C1
 146 0321 0FB20673 		.ascii	"\017\262\006s\033\300\216\352\301\376\312\004\314m\315"
 146      1BC08EEA 
 146      C1FECA04 
 146      CC6DCD
 147 0330 ECB81EEC 		.ascii	"\354\270\036\354i\326`Ff'\365`\215\366\014\300F\247"
 147      69D66046 
 147      6627F560 
 147      8DF60CC0 
 147      46A7
 148 0342 0A8A213E 		.ascii	"\012\212!>\211\323P\304G\331qu\214E\352$+#\254<\315"
 148      89D350C4 
 148      47D97175 
 148      8C45EA24 
 148      2B23AC3C 
 149 0357 CA33AC3C 		.ascii	"\3123\254<\313\312NV\376\312\312\337Xy\215\225\277\353"
 149      CBCA4E56 
 149      FECACADF 
 149      58798D95 
 149      BFEB
ARM GAS  /tmp/ccGlQPWb.s 			page 11


 150 0369 E36B7D23 		.ascii	"\343k}#\213\374\260n\004\335\315\332\341\026\300\241"
 150      8BFCB06E 
 150      04DDCDDA 
 150      E116C0A1 
 151 0379 A576E35A 		.ascii	"\245v\343Z3\334\014\224\243\336j\267\271\005\000\311"
 151      33DC0C94 
 151      A3DE6AB7 
 151      B90500C9 
 152 0389 37951E7D 		.ascii	"7\225\036}\034jfz\366\367\356\214\205%vu\375\331\026"
 152      1C6A667A 
 152      F6F7EE8C 
 152      85257675 
 152      FDD916
 153 039c BCA68974 		.ascii	"\274\246\211t\216\323\356\273\353\263Ft\353\021#\373"
 153      8ED3EEBB 
 153      EBB34674 
 153      EB1123FB 
 154 03ac CE4160B3 		.ascii	"\316A`\263\271\022\337\270\217\233\330\225\370.\323"
 154      B912DFB8 
 154      8F9BD895 
 154      F82ED3
 155 03bb BFD96EDE 		.ascii	"\277\331n\336\245\034\246]\312a\334x\034\316D%~\367"
 155      A51CA65D 
 155      CA61DC78 
 155      1CCE4425 
 155      7EF7
 156 03cd D8958915 		.ascii	"\330\225\211\025\311N\370\344\031\265_\227Q\007XF\035"
 156      C94EF8E4 
 156      19B55F97 
 156      51075846 
 156      1D
 157 03de 64B9719B 		.ascii	"d\271q\233\225w\322e\010\205\330\203\373%\360\346%6"
 157      9577D265 
 157      0885D883 
 157      FB25F0E6 
 157      2536
 158 03f0 530EED33 		.ascii	"S\016\3553Y\374\"j#\244\005\336e\"vx\227\261+S9t\214"
 158      59FC226A 
 158      23A405DE 
 158      65227678 
 158      97B12B53 
 159 0407 0DDB8A0B 		.ascii	"\015\333\212\013,.f\252\202\227\320v\352\372\0237\312"
 159      2C2E66AA 
 159      8297D076 
 159      EAFA1337 
 159      CA
 160 0418 4B9590A2 		.ascii	"K\225\220\242\024\263T:\3670\247\267Wy\231\212<Zv\036"
 160      14B3543A 
 160      F730A7B7 
 160      5779998A 
 160      3C5A761E 
 161 042c 8E7FF294 		.ascii	"\216\177\362\224\356\346\206w)\021O\035ji\347#\343}"
 161      EEE68677 
 161      29114F1D 
 161      6A69E723 
 161      E37D
 162 043e 5EE1156F 		.ascii	"^\341\025o(\204\314\036\370:\251\007\310\237\276Re\272"
ARM GAS  /tmp/ccGlQPWb.s 			page 12


 162      2884CC1E 
 162      F83AA907 
 162      C89FBE52 
 162      65BA
 163 0450 881F0043 		.ascii	"\210\037\000C\021?Lm\274:\355\260T\252%\363y\006l=M"
 163      113F4C6D 
 163      BC3AEDB0 
 163      54AA25F3 
 163      79066C3D 
 164 0465 A5C37C46 		.ascii	"\245\303|F\310Gd\351@\314\214C\352,C\022<N\352\245\313"
 164      C84764E9 
 164      40CC8C43 
 164      EA2C4312 
 164      3C4EEAA5 
 165 047a 1DAEE6C6 		.ascii	"\035\256\346\306h,V\220\271\213\236\245pQ\026\357\251"
 165      682C5690 
 165      B98B9EA5 
 165      705116EF 
 165      A9
 166 048b FB762BEF 		.ascii	"\373v+\357\251\215\0345\365R\217u\263\003\367\346\025"
 166      A98D1C35 
 166      F5528F75 
 166      B303F7E6 
 166      15
 167 049c D0149AAB 		.ascii	"\320\024\232\253\026\311\371\344g[\"9\265\370tg\024"
 167      16C9F9E4 
 167      675B2239 
 167      B5F87467 
 167      14
 168 04ad 9F03343E 		.ascii	"\237\0034>\012\351[\014\335z\032\035e\025\237ns|\226"
 168      0AE95B0C 
 168      DD7A1A1D 
 168      65159F6E 
 168      737C96
 169 04c0 703DE213 		.ascii	"p=\342\023\245n:\333\210W7\205;\311=jb\346QZ\311\231"
 169      A56E3ADB 
 169      88573785 
 169      3BC93D6A 
 169      62E6515A 
 170 04d6 A2D49E24 		.ascii	"\242\324\236$\221\343m\225\251\311{wM\336\323\250~l"
 170      91E36D95 
 170      A9C97B77 
 170      4DDED3A8 
 170      7E6C
 171 04e8 A4FA02DA 		.ascii	"\244\372\002\332J.]\212\336\274\276\001\257\210\222"
 171      4A2E5D8A 
 171      DEBCBE01 
 171      AF8892
 172 04f7 66F22C16 		.ascii	"f\362,\026\303\203P3{\357\333\220\247\246Dt{$\177C\""
 172      C3835033 
 172      7BEFDB90 
 172      A7A64474 
 172      7B247F43 
 173 050c 257234BE 		.ascii	"%r4\276XK\011\372\205\202\213\017&\371\371\311\307\212"
 173      584B09FA 
 173      85828B0F 
 173      26F9F9C9 
ARM GAS  /tmp/ccGlQPWb.s 			page 13


 173      C78A
 174 051e B885A33B 		.ascii	"\270\205\243;\330\032\2051\353R\352Z-\206)\367\305\216"
 174      D81A8531 
 174      EB52EA5A 
 174      2D8629F7 
 174      C58E
 175 0530 641F3B18 		.ascii	"d\037;\030@\352\251\252\322\005\232Re\337K\330\243\214"
 175      40EAA9AA 
 175      D2059A52 
 175      65DF4BD8 
 175      A38C
 176 0542 4C3E4AC4 		.ascii	"L>J\304k\271A\254\306\014!\361\023\323\345\264\014\324"
 176      6BB941AC 
 176      C60C21F1 
 176      13D3E5B4 
 176      0CD4
 177 0554 3A1D1B97 		.ascii	":\035\033\2273Q\3115p\326F\201e\313\035\246\235\324"
 177      3351C935 
 177      70D64681 
 177      65CB1DA6 
 177      9DD4
 178 0566 44028E55 		.ascii	"D\002\216U\325v\021\323\217RJx\"\217\317\222\234}d\005"
 178      D57611D3 
 178      8F524A78 
 178      228FCF92 
 178      9C7D6405 
 179 057a FDB6A437 		.ascii	"\375\266\2447fu\302\030\323g\005\013\223{||\330\224"
 179      6675C218 
 179      D367050B 
 179      937B7C7C 
 179      D894
 180 058c B5C99B2D 		.ascii	"\265\311\233-L\216\0371\206QP]\317\231\366O\023\011"
 180      4C8E1F31 
 180      8651505D 
 180      CF99F64F 
 180      1309
 181 059e 0EB51A4C 		.ascii	"\016\265\032L6\335W\350Z\260\342\322\312\305\265\252"
 181      36DD57E8 
 181      5AB0E2D2 
 181      CAC5B5AA 
 182 05ae 8EBAD291 		.ascii	"\216\272\322\221\316Q\365\032H^*G\231FA\310\262v\324"
 182      CE51F51A 
 182      485E2A47 
 182      994641C8 
 182      B276D4
 183 05c1 360B47F5 		.ascii	"6\013G\36578j\233\331Q\272\035\311D\202C\273\015\216"
 183      37386A9B 
 183      D951BA1D 
 183      C9448243 
 183      BB0D8E
 184 05d4 42238A8A 		.ascii	"B#\212\212\370\351\325\376J\177Y\005\037\010\361\325"
 184      F8E9D5FE 
 184      4A7F5905 
 184      1F08F1D5 
 185 05e4 620D1F0A 		.ascii	"b\015\037\012z\371z\261\246\310\213&\364\354\254\017"
 185      7AF97AB1 
 185      A6C88B26 
ARM GAS  /tmp/ccGlQPWb.s 			page 14


 185      F4ECAC0F 
 186 05f4 04E5105F 		.ascii	"\004\345\020_1w\316\204b~\366\354\022~f\371\254\262"
 186      3177CE84 
 186      627EF6EC 
 186      127E66F9 
 186      ACB2
 187 0606 F78AE978 		.ascii	"\367\212\351x\241\246\306WT\215\\\376\000\035S+\206"
 187      A1A6C657 
 187      548D5CFE 
 187      001D532B 
 187      86
 188 0617 DE11E43E 		.ascii	"\336\021\344>3\337\234\347\236\216B|]\025\223\227\371"
 188      33DF9CE7 
 188      9E8E427C 
 188      5D159397 
 188      F9
 189 0628 EA40ADC4 		.ascii	"\352@\255\304\007\245\220$\006\275\325\200\030\364\275"
 189      07A59024 
 189      06BDD580 
 189      18F4BD
 190 0637 2F06255E 		.ascii	"/\006%^\014\326\026\363\013\275\336B\250\024J\265\225"
 190      0CD616F3 
 190      0BBDDE42 
 190      A8144AB5 
 190      95
 191 0648 92CF27F9 		.ascii	"\222\317'\371\342\017\352\002uR\241$V\372\013'\012S"
 191      E20FEA02 
 191      7552A124 
 191      56FA0B27 
 191      0A53
 192 065a 0A8BC78D 		.ascii	"\012\213\307\215\237\370n1o\350\340\375u\336\232\006"
 192      9FF86E31 
 192      6FE8E0FD 
 192      75DE9A06 
 193 066a 9FC48764 		.ascii	"\237\304\207d\237\277N\006\0369\015\360?\241X\220\233"
 193      9FBF4E06 
 193      1E390DF0 
 193      3FA15890 
 193      9B
 194 067b F0FFA7BD 		.ascii	"\360\377\247\275V\364V\373\353$^\360IUbC\215,\310\213"
 194      56F456FB 
 194      EB245EF0 
 194      49556243 
 194      8D2CC88B 
 195 068f EAA510B0 		.ascii	"\352\245\020\260\311\025\004\215\217\273\247S\265\351"
 195      C915048D 
 195      8FBBA753 
 195      B5E9
 196 069d D4EBD5C8 		.ascii	"\324\353\325\3101\253lZC\310\025\222ka\370\302z\177"
 196      31AB6C5A 
 196      43C81592 
 196      6B61F8C2 
 196      7A7F
 197 06af 40901D73 		.ascii	"@\220\035s\312Jfx\372\224\315}\253|\206\247oYE\371\214"
 197      CA4A6678 
 197      FA94CD7D 
 197      AB7C86A7 
ARM GAS  /tmp/ccGlQPWb.s 			page 15


 197      6F5945F9 
 198 06c4 19251E47 		.ascii	"\031%\036G\371\274\362\022\217m\026HY\211\007\317g\026"
 198      F9BCF212 
 198      8F6D1648 
 198      598907CF 
 198      6716
 199 06d6 8F9F24C8 		.ascii	"\217\237$\310\2522Z\265\205$\331\341\255\001{q\251}"
 199      AA325AB5 
 199      8524D9E1 
 199      AD017B71 
 199      A97D
 200 06e8 5A85C763 		.ascii	"Z\205\307c\237=\375\015\217\375\265\327=\263iQj\233"
 200      9F3DFD0D 
 200      8FFDB5D7 
 200      3DB36951 
 200      6A9B
 201 06fa E6F1E42A 		.ascii	"\346\361\344*\021\363\373 ^J\305N\243\347\242\030B\225"
 201      11F3FB20 
 201      5E4AC54E 
 201      A3E7A218 
 201      4295
 202 070c 1892A740 		.ascii	"\030\222\247@G\240\252\012\240r\201\241G\022}\300\317"
 202      47A0AA0A 
 202      A07281A1 
 202      47127DC0 
 202      CF
 203 071d 56D910EA 		.ascii	"V\331\020\352\007\315\371A\277,A\333^\351\227C9\376"
 203      07CDF941 
 203      BF2C41DB 
 203      5EE99743 
 203      39FE
 204 072f 406DC027 		.ascii	"@m\300'\011r\177\350\251\220dx>\007\332v\372p\250\240"
 204      09727FE8 
 204      A9906478 
 204      3E07DA76 
 204      FA70A8A0 
 205 0743 26890040 		.ascii	"&\211\000@\013\203\201\206z\372\324\356\205(\344\010"
 205      0B838186 
 205      7AFAD4EE 
 205      8528E408 
 206 0753 4255439D 		.ascii	"BUC\235W\020\372k\225\242\311\343&O\322\267\246\214"
 206      5710FA6B 
 206      95A2C9E3 
 206      264FD2B7 
 206      A68C
 207 0765 37B426FD 		.ascii	"7\264&\375\013\027T\257\247"
 207      0B1754AF 
 207      A7
 208              		.text
 209              		.section	.gnu.lto_.symtab.c6a759169b4668aa,"",%progbits
 210 0000 70616C52 		.ascii	"palReadBus\000\000\000\000\000\000\000\000\000\000\000"
 210      65616442 
 210      75730000 
 210      00000000 
 210      00000000 
 211 0015 00A10000 		.ascii	"\000\241\000\000\000palWriteBus\000\000\000\000\000"
 211      0070616C 
ARM GAS  /tmp/ccGlQPWb.s 			page 16


 211      57726974 
 211      65427573 
 211      00000000 
 212 002a 00000000 		.ascii	"\000\000\000\000\000\000\000\364\000\000\000palSetB"
 212      000000F4 
 212      00000070 
 212      616C5365 
 212      7442
 213 003c 75734D6F 		.ascii	"usMode\000\000\000\000\000\000\000\000\000\000\000\000"
 213      64650000 
 213      00000000 
 213      00000000 
 213      0000
 214 004e FD000000 		.ascii	"\375\000\000\000_pal_lld_setgroupmode\000\000\002\000"
 214      5F70616C 
 214      5F6C6C64 
 214      5F736574 
 214      67726F75 
 215 006b 00000000 		.ascii	"\000\000\000\000\000\000\000\000\011\001\000\000"
 215      00000000 
 215      09010000 
 216              		.text
 217              		.section	.gnu.lto_.opts,"",%progbits
 218 0000 272D6D63 		.ascii	"'-mcpu=cortex-m4' '-mno-thumb-interwork' '-mthumb' "
 218      70753D63 
 218      6F727465 
 218      782D6D34 
 218      2720272D 
 219 0033 272D6767 		.ascii	"'-ggdb' '-O2' '-fomit-frame-pointer' '-falign-funct"
 219      64622720 
 219      272D4F32 
 219      2720272D 
 219      666F6D69 
 220 0066 696F6E73 		.ascii	"ions=16' '-ffunction-sections' '-fdata-sections' '-"
 220      3D313627 
 220      20272D66 
 220      66756E63 
 220      74696F6E 
 221 0099 666E6F2D 		.ascii	"fno-common' '-flto'\000"
 221      636F6D6D 
 221      6F6E2720 
 221      272D666C 
 221      746F2700 
 222              		.text
 223              		.cfi_sections	.debug_frame
 224              		.section	.text.palReadBus,"ax",%progbits
 225              		.align	2
 226              		.p2align 4,,15
 227              		.global	palReadBus
 228              		.thumb
 229              		.thumb_func
 230              		.type	palReadBus, %function
 231              	palReadBus:
 232              	.LFB272:
 233              		.file 1 "../ChibiOS/os/hal/src/pal.c"
 234              		.loc 1 65 0
 235              		.cfi_startproc
ARM GAS  /tmp/ccGlQPWb.s 			page 17


 236              		@ args = 0, pretend = 0, frame = 0
 237              		@ frame_needed = 0, uses_anonymous_args = 0
 238              		@ link register save eliminated.
 239              	.LVL0:
 240              		.loc 1 69 0
 241 0000 0368     		ldr	r3, [r0]
 242 0002 8268     		ldr	r2, [r0, #8]
 243 0004 1969     		ldr	r1, [r3, #16]
 244 0006 4368     		ldr	r3, [r0, #4]
 245 0008 21FA02F0 		lsr	r0, r1, r2
 246              	.LVL1:
 247              		.loc 1 70 0
 248 000c 1840     		ands	r0, r0, r3
 249 000e 7047     		bx	lr
 250              		.cfi_endproc
 251              	.LFE272:
 252              		.size	palReadBus, .-palReadBus
 253              		.section	.text.palWriteBus,"ax",%progbits
 254              		.align	2
 255              		.p2align 4,,15
 256              		.global	palWriteBus
 257              		.thumb
 258              		.thumb_func
 259              		.type	palWriteBus, %function
 260              	palWriteBus:
 261              	.LFB273:
 262              		.loc 1 90 0
 263              		.cfi_startproc
 264              		@ args = 0, pretend = 0, frame = 0
 265              		@ frame_needed = 0, uses_anonymous_args = 0
 266              		@ link register save eliminated.
 267              	.LVL2:
 268              		.loc 1 94 0
 269 0000 0DC8     		ldmia	r0, {r0, r2, r3}
 270              	.LVL3:
 271              		.loc 1 90 0
 272 0002 30B4     		push	{r4, r5}
 273              		.cfi_def_cfa_offset 8
 274              		.cfi_offset 4, -8
 275              		.cfi_offset 5, -4
 276              		.loc 1 94 0
 277 0004 22EA0105 		bic	r5, r2, r1
 278 0008 03F11004 		add	r4, r3, #16
 279 000c 0A40     		ands	r2, r2, r1
 280 000e 02FA03F3 		lsl	r3, r2, r3
 281 0012 05FA04F2 		lsl	r2, r5, r4
 282 0016 1343     		orrs	r3, r3, r2
 283 0018 8361     		str	r3, [r0, #24]
 284              		.loc 1 95 0
 285 001a 30BC     		pop	{r4, r5}
 286 001c 7047     		bx	lr
 287              		.cfi_endproc
 288              	.LFE273:
 289              		.size	palWriteBus, .-palWriteBus
 290 001e 00BF     		.section	.text.palSetBusMode,"ax",%progbits
 291              		.align	2
 292              		.p2align 4,,15
ARM GAS  /tmp/ccGlQPWb.s 			page 18


 293              		.global	palSetBusMode
 294              		.thumb
 295              		.thumb_func
 296              		.type	palSetBusMode, %function
 297              	palSetBusMode:
 298              	.LFB274:
 299              		.loc 1 113 0
 300              		.cfi_startproc
 301              		@ args = 0, pretend = 0, frame = 0
 302              		@ frame_needed = 0, uses_anonymous_args = 0
 303              		@ link register save eliminated.
 304              	.LVL4:
 305 0000 10B4     		push	{r4}
 306              		.cfi_def_cfa_offset 4
 307              		.cfi_offset 4, -4
 308              		.loc 1 113 0
 309 0002 0A46     		mov	r2, r1
 310              		.loc 1 117 0
 311 0004 4468     		ldr	r4, [r0, #4]
 312 0006 8168     		ldr	r1, [r0, #8]
 313              	.LVL5:
 314 0008 0068     		ldr	r0, [r0]
 315              	.LVL6:
 316 000a 04FA01F1 		lsl	r1, r4, r1
 317              		.loc 1 118 0
 318 000e 5DF8044B 		ldr	r4, [sp], #4
 319              		.loc 1 117 0
 320 0012 FFF7FEBF 		b	_pal_lld_setgroupmode
 321              	.LVL7:
 322              		.cfi_endproc
 323              	.LFE274:
 324              		.size	palSetBusMode, .-palSetBusMode
 325 0016 00BFAFF3 		.text
 325      0080AFF3 
 325      0080
 326              	.Letext0:
 327              		.file 2 "/nfs/nfs5/home/research/hardware/arm2/gcc-arm-embedded/gcc-arm-none-eabi-4_8-2014q2/arm-n
 328              		.file 3 "/nfs/nfs5/home/research/hardware/arm2/gcc-arm-embedded/gcc-arm-none-eabi-4_8-2014q2/arm-n
 329              		.file 4 "../ChibiOS/os/rt/ports/ARMCMx/compilers/GCC/chtypes.h"
 330              		.file 5 "../ChibiOS/os/rt/include/chsystypes.h"
 331              		.file 6 "../ChibiOS/os/rt/include/chschd.h"
 332              		.file 7 "../ChibiOS/os/rt/ports/ARMCMx/chcore.h"
 333              		.file 8 "../ChibiOS/os/rt/ports/ARMCMx/chcore_v7m.h"
 334              		.file 9 "../ChibiOS/os/rt/include/chtm.h"
 335              		.file 10 "../ChibiOS/os/rt/include/chsem.h"
 336              		.file 11 "../ChibiOS/os/rt/include/chmtx.h"
 337              		.file 12 "../ChibiOS/os/hal/ports/STM32/LLD/GPIOv2/pal_lld.h"
 338              		.file 13 "../ChibiOS/os/hal/include/pal.h"
 339              		.file 14 "../ChibiOS/os/ext/CMSIS/include/core_cm4.h"