ARM GAS  /tmp/ccGlQPWb.s 			page 1


   1              		.syntax unified
   2              		.cpu cortex-m4
   3              		.fpu softvfp
   4              		.eabi_attribute 20, 1
   5              		.eabi_attribute 21, 1
   6              		.eabi_attribute 23, 3
   7              		.eabi_attribute 24, 1
   8              		.eabi_attribute 25, 1
   9              		.eabi_attribute 26, 1
  10              		.eabi_attribute 30, 2
  11              		.eabi_attribute 34, 1
  12              		.eabi_attribute 18, 4
  13              		.thumb
  14              		.file	"pal.c"
  15              		.text
  16              	.Ltext0:
  17              		.section	.gnu.lto_.jmpfuncs.c6a759169b4668aa,"",%progbits
  18 0000 789C6362 		.ascii	"x\234cb`b\300\006D\24043\003##3\02333\204\315\300X\006"
  18      6062C006 
  18      44A03433 
  18      03232333 
  18      13333384 
  19 0018 A4010623 		.ascii	"\244\001\006#\000\243"
  19      00A3
  20              		.text
  21              		.section	.gnu.lto_.inline.c6a759169b4668aa,"",%progbits
  22 0000 789C6362 		.ascii	"x\234cb`b\300\006\276Cif\006\006N\016Ff\006F0\023D:"
  22      6062C006 
  22      BE436966 
  22      06064E0E 
  22      46660646 
  23 0018 8049050E 		.ascii	"\200I\005\016\266\017z\014l\013\344\231\030\030_\260"
  23      B60F7A0C 
  23      6C0BE499 
  23      18185FB0 
  24 0028 B3404810 		.ascii	"\263@H\020\301\001fr\200\010\0010S\000d\014#\003\037"
  24      C1016672 
  24      80080130 
  24      5300640C 
  24      23031F
  25 003b 2F230BC4 		.ascii	"/#\013\304\024FF\210\010\320\020\210\201\334L\027\370"
  25      14464688 
  25      08D01088 
  25      81DC4C17 
  25      F8
  26 004c 318C028A 		.ascii	"1\214\002\212\241\030\302\262@^\002\304R`b`\336!\256"
  26      A118C2B2 
  26      405E02C4 
  26      52606260 
  26      DE21AE
  27 005f C000B4DE 		.ascii	"\300\000\264\336\002d\016\023\003\2670\212\373\240\206"
  27      02640E13 
  27      03B7308A 
  27      FBA086
  28 006e 7202E588 		.ascii	"r\002\345\210s\036\320&\011\220I,\274@}\023\374@\220"
  28      731ED026 
  28      0990492C 
ARM GAS  /tmp/ccGlQPWb.s 			page 2


  28      BC407D13 
  28      FC4090
  29 0081 01003C62 		.ascii	"\001\000<b\037\210"
  29      1F88
  30              		.text
  31              		.section	.gnu.lto_.pureconst.c6a759169b4668aa,"",%progbits
  32 0000 789C6362 		.ascii	"x\234cb`b`g\200\000f\006)F)&I\000\001\312\000_"
  32      60626067 
  32      80006606 
  32      29462926 
  32      490001CA 
  33              		.text
  34              		.section	.gnu.lto_palReadBus.c6a759169b4668aa,"",%progbits
  35 0000 789C6D90 		.ascii	"x\234m\220\261J\003A\020\206\377\177\366.w\227\302^"
  35      B14A0341 
  35      1086FF7F 
  35      F62E7797 
  35      C25E
  36 0012 10B13670 		.ascii	"\020\2616p\367\020>\200\205\021\324.\271\"9HP\314\003"
  36      F7103E80 
  36      8511D42E 
  36      B9223948 
  36      50CC03
  37 0025 E4CCA5B2 		.ascii	"\344\314\245\262\012V\242\225\215\205El\005\033\261"
  37      0A56A295 
  37      8D85456C 
  37      051BB1
  38 0034 B08B686B 		.ascii	"\260\213hk%\330\212\257\020g7\336\211\222\205\375gw"
  38      25D88AAF 
  38      106737DE 
  38      899285FD 
  38      6777
  39 0046 76BE7F86 		.ascii	"v\276\177\206\025\010\376\257U\335\247\004\3265\322"
  39      1508FEAF 
  39      55DDA704 
  39      D635D2
  40 0055 80327906 		.ascii	"\2002y\006NB!\355\001\304P8\334\247\253\275\225\207"
  40      4E4221ED 
  40      01C45038 
  40      DCA7ABBD 
  40      9587
  41 0067 F7F97C7A 		.ascii	"\367\371|z\366t\375\311s\251\013\373\204AFx*\364U\244"
  41      F674FDC9 
  41      73A90BFB 
  41      84414678 
  41      2AF455A4 
  42 007b A662027B 		.ascii	"\246b\002{\015\255D*\236\222>\306y>\331\350S\215Rg\326"
  42      0DAD442A 
  42      9E923EC6 
  42      793ED9E8 
  42      538D5267 
  43 0090 54B51D76 		.ascii	"T\265\035v)6\232\031Fow\037/l\361J\235:4\015lf\364/"
  43      29369A19 
  43      466F771F 
  43      2F6CF14A 
  43      9D3A340D 
  44 00a8 71C18CB5 		.ascii	"q\301\214\265\016eOc\340\306h\263\034~\206\307\203\022"
ARM GAS  /tmp/ccGlQPWb.s 			page 3


  44      0E654F63 
  44      E0C668B3 
  44      1C7E86C7 
  44      8312
  45 00ba F01AB8C9 		.ascii	"\360\032\270\311\307Z\024.\230H=,\343\3770\254\230Q"
  45      C75A142E 
  45      98483D2C 
  45      E3FF30AC 
  45      9851
  46 00cc C5F8AE49 		.ascii	"\305\370\256I}y\023\371\005\276LIh\221oS\305\264J\005"
  46      7D7913F9 
  46      05BE4C49 
  46      68916F53 
  46      C5B44A05 
  47 00e0 DA5B1FFE 		.ascii	"\332[\037\376:\207\316\331[\356l*\347\342\276X)\221"
  47      3A87CED9 
  47      5BEE6C2A 
  47      E7E2BE58 
  47      2991
  48 00f2 C85985C0 		.ascii	"\310Y\205\300+\252_\210\026\205M\235^?\311N\264\026"
  48      2BAA5F88 
  48      16854D9D 
  48      5E3FC94E 
  48      B416
  49 0104 C7C95637 		.ascii	"\307\311V7kg\333;\311\341 \351\266z\311\3408M\216Z\275"
  49      6B67DB3B 
  49      C9E120E9 
  49      B67AC9E0 
  49      384D8E5A 
  50 0119 38C537E5 		.ascii	"8\3057\3451S\303"
  50      3153C3
  51              		.text
  52              		.section	.gnu.lto_palWriteBus.c6a759169b4668aa,"",%progbits
  53 0000 789C6D51 		.ascii	"x\234mQ=K\303P\024\275\367\2754M\322/\335\024D\0047"
  53      3D4BC350 
  53      14BDF7BD 
  53      344DD22F 
  53      DD144404 
  54 0015 0BCD0F70 		.ascii	"\013\315\017ptrr\260\202\272\245\035\332@\213b\177@"
  54      747272B0 
  54      82BAA51D 
  54      DA408B62 
  54      7F40
  55 0027 5BEDE0D8 		.ascii	"[\355\340\330\331N\256\202uq\021\005\305\301M\301M\234"
  55      D94EAE82 
  55      75711105 
  55      C5C14DC1 
  55      4D9C
  56 0039 FA0B7471 		.ascii	"\372\013tq\024\352\271/M\212\245\201\234{\337y\367\236"
  56      14EAB92F 
  56      4D8AA581 
  56      9C7BDF79 
  56      F79E
  57 004b 7B6EA248 		.ascii	"{n\242H\321\354\263\214w\023\364*\"kb\325\177#\352:"
  57      D1ECB38C 
  57      7713F42A 
  57      226B62D5 
ARM GAS  /tmp/ccGlQPWb.s 			page 4


  57      7F23EA3A 
  58 005f 8A591262 		.ascii	"\212Y\022bj+n\037\260\251\275QO\243\361x\370\363r\373"
  58      6A2B6E1F 
  58      B0A9BD51 
  58      4FA3F178 
  58      F8F372FB 
  59 0073 CB03B5A8 		.ascii	"\313\003\265\250\270\311\244)d\262\220q\012\031\333"
  59      B8C9A429 
  59      64B29071 
  59      0A19DB
  60 0082 02690107 		.ascii	"\002i\001\007\240\\\001\017\2403\302e\005rr\314KV\020"
  60      A05C010F 
  60      A033C265 
  60      057272CC 
  60      4B5610
  61 0095 806E8A7A 		.ascii	"\200n\212z\235N\177\255\311\360Q5\243\312@\231\277\007"
  61      9D4E7FAD 
  61      C9F05135 
  61      A3CA4099 
  61      BF07
  62 00a7 0A51BFD2 		.ascii	"\012Q\277\322\351\347\307\367R\300\227\030Sc]\244\215"
  62      E9E7C7F7 
  62      52C09718 
  62      53635DA4 
  62      8D
  63 00b8 90AD015D 		.ascii	"\220\255\001]p\310\251\032\253}D\333x\254p\274\031z"
  63      70C8A91A 
  63      AB7D44DB 
  63      78AC70BC 
  63      197A
  64 00ca 1E74DC81 		.ascii	"\036t\334\201\"\313P\2071c\033\215\364|\015N4\316\356"
  64      22CB5087 
  64      31631B8D 
  64      F47C0D4E 
  64      34CEEE
  65 00dd 138DB491 		.ascii	"\023\215\264\221\261\377\3138F\306\231/\243\2462\347"
  65      B1FFCB38 
  65      46C6992F 
  65      A3A632E7 
  66 00ed 898C8B26 		.ascii	"\211\214\213&)R\013\221\311\257\344\306\303\245)\276"
  66      29520B91 
  66      C9AFE4C6 
  66      C3A529BE 
  67 00fd 4EA88C19 		.ascii	"N\250\214\031\353\3158\311b\233\330\311\264=\007\341"
  67      EBCD38C9 
  67      629BD8C9 
  67      B43D07E1 
  68 010d 99F6BCA9 		.ascii	"\231\366\274\251\315\031\366.a\013F7/\354\363vD\026"
  68      CD19F62E 
  68      610B4637 
  68      2FECF376 
  68      4416
  69 011f E9AAD383 		.ascii	"\351\252\323\203)7N\274h#\324i1kM6\322\223\030\235!"
  69      29374EBC 
  69      6823D469 
  69      316B4D36 
  69      D293189D 
ARM GAS  /tmp/ccGlQPWb.s 			page 5


  70 0134 45F44EDD 		.ascii	"E\364N\335\321\343z$\023?e|A\3747\331\177\245T\362\267"
  70      D1E37A24 
  70      133F657C 
  70      41FC37D9 
  70      7FA554F2 
  71 0149 EA6125DC 		.ascii	"\352a%\334\331\365\217Z~=h\370\255\223\252\177\0344"
  71      D9F58F5A 
  71      7E3D68F8 
  71      AD93AA7F 
  71      1C34
  72 015b 4A55FA03 		.ascii	"JU\372\003\\\024t:"
  72      5C14743A 
  73              		.text
  74              		.section	.gnu.lto_palSetBusMode.c6a759169b4668aa,"",%progbits
  75 0000 789C6D90 		.ascii	"x\234m\220\277J\003A\020\306\277o\367\376\231\312RA"
  75      BF4A0341 
  75      10C6BF6F 
  75      F7FE99CA 
  75      5241
  76 0012 44B053B8 		.ascii	"D\260S\270}\010\037\300\302\010jw9\360\262\220\240\230"
  76      7D081FC0 
  76      C2086A77 
  76      39F0B290 
  76      A098
  77 0024 D22217B5 		.ascii	"\322\"\027\265\260L\255 \370\000\232\326\322\316J\203"
  77      B04CAD20 
  77      F8009AD6 
  77      D2CE4A83 
  78 0034 96567900 		.ascii	"\226Vy\000\311\003h\021g7\236\202\334\300\316\354~;"
  78      C9036811 
  78      67379E82 
  78      DCC0CEEC 
  78      7E3B
  79 0046 BF99D955 		.ascii	"\277\231\331UP\370o\313\262\016\011\254J\244\006\325"
  79      50F86FCB 
  79      B20E09AC 
  79      4AA406D5 
  80 0056 F0051824 		.ascii	"\360\005\030$\212t\033\020}\305\376>}\356H=Nf\263\373"
  80      8A741B10 
  80      7DC5FE3E 
  80      7DEE483D 
  80      4E66B3FB 
  81 006a B7A7D107 		.ascii	"\267\247\321\007oTC\261KhX\"\020\307P\234\212\304\351"
  81      6F5443B1 
  81      4B685822 
  81      10C7509C 
  81      8AC4E9
  82 007d D81D13B9 		.ascii	"\330\035\023\271uX\210\213\262\034\256u)\275s_\247)"
  82      7558888B 
  82      B21CAE75 
  82      29BD735F 
  82      A729
  83 008f DE15DF15 		.ascii	"\336\025\337\025I\242~\306\331\373\303\327R\306[\251"
  83      49A27EC6 
  83      D9FBC3D7 
  83      52C65BA9 
  84 009f 51506F62 		.ascii	"QPob\3032\270\306\025-\303\202jOb\344\007h\261\032["
ARM GAS  /tmp/ccGlQPWb.s 			page 6


  84      C332B8C6 
  84      152DC382 
  84      6A4F62E4 
  84      0768B11A 
  85 00b4 98830A08 		.ascii	"\230\203\012\010<\020\327\003\254\001B\017$\365\200"
  85      3C10D703 
  85      AC01420F 
  85      24F580
  86 00c3 FA03A6BA 		.ascii	"\372\003\246\272\"\"\201\234t~\367+\305\322\270p\324"
  86      2222819C 
  86      747EF72B 
  86      C5D2B870 
  86      D4
  87 00d4 18D15C03 		.ascii	"\030\321\\\003N\361Y^\226\213\226\013\371Ocy\216OM,"
  87      4EF1595E 
  87      968B960B 
  87      F94F6379 
  87      8E4F4D2C 
  88 00e8 1BC02B06 		.ascii	"\033\300+\006\223\351z\225=\267\246d\312/\270\266+i"
  88      93E97A95 
  88      3DB7A664 
  88      CA2FB8B6 
  88      2B69
  89 00fa 6AB6DAB6 		.ascii	"j\266\332\266e\267w\314Q\317\264\263\216\351\235\344"
  89      65B777CC 
  89      51CFB4B3 
  89      8EE99DE4 
  90 010a E638EBA4 		.ascii	"\3468\353\2449\276\001}UNr"
  90      39BE017D 
  90      554E72
  91              		.text
  92              		.section	.gnu.lto_.symbol_nodes.c6a759169b4668aa,"",%progbits
  93 0000 789C4DC7 		.ascii	"x\234M\307\261\015\2000\024CA\373\375\331\230\313))"
  93      B10D8030 
  93      144341FB 
  93      FDD998CB 
  93      2929
  94 0012 03122D0D 		.ascii	"\003\022-\015\373\260C\026A\024 \301u\207\320\244\027"
  94      FBB04316 
  94      411420C1 
  94      7587D0A4 
  94      17
  95 0023 9D48FD94 		.ascii	"\235H\375\224\222}6\013\361\257+\341\2537RO[sQ:\306"
  95      927D360B 
  95      F1AF2BE1 
  95      AB37524F 
  95      5B73513A 
  96 0038 65DDCE89 		.ascii	"e\335\316\211\024\225"
  96      1495
  97              		.text
  98              		.section	.gnu.lto_.refs.c6a759169b4668aa,"",%progbits
  99 0000 789C6362 		.ascii	"x\234cb`b`d\200\002\000\000F\000\006"
  99      60626064 
  99      80020000 
  99      460006
 100              		.text
 101              		.section	.gnu.lto_.decls.c6a759169b4668aa,"",%progbits
ARM GAS  /tmp/ccGlQPWb.s 			page 7


 102 0000 789CBD58 		.ascii	"x\234\275X{l\024E\030\237\331\273\203^9\312KHI\210="
 102      7B6C1445 
 102      189FD9BB 
 102      835E39CA 
 102      4B484988 
 103 0015 8C184268 		.ascii	"\214\030Bh\027\012\002\376C\024\212\224\010\266\271"
 103      170A02FE 
 103      43148A94 
 103      08B6B9
 104 0024 42C0BFD6 		.ascii	"B\300\277\326\355\335\226^l{\365n\253!1qJy\205D)E^\001"
 104      EDDD965E 
 104      6C7BF56E 
 104      AB213171 
 104      4A798544 
 105 003c CB4145C0 		.ascii	"\313AE\300\020@\240 O\017DZ\001)\301\210\022c<\020B"
 105      1040A020 
 105      4F0F445A 
 105      0129C188 
 105      12633C10 
 106 0051 08980042 		.ascii	"\010\230\000BD\244\234\337\314\356\336\355no\357\321"
 106      44A49CDF 
 106      CCEEDEED 
 106      6E6FEFD1 
 107 0061 442FF9E6 		.ascii	"D/\371\346fvf~\337\357{\314c\227C\034\372\000#\024\203"
 107      6676667E 
 107      DFEF7BCC 
 107      6397431C 
 107      FA002314 
 108 0076 DFA2E710 		.ascii	"\337\242\347\020:\302!dG\010ME\211\037mo\005y\010\322"
 108      3AC22164 
 108      47084D45 
 108      891F6D6F 
 108      057908D2 
 109 008a 0DE2C4A8 		.ascii	"\015\342\304\250\307\217\366\367\003\271\005\322\027"
 109      C78FF6F7 
 109      03B905D2 
 109      17
 110 0097 C4A1CE6B 		.ascii	"\304\241\316k\003i\007\331\013\262\007\3448\310!\220"
 110      036907D9 
 110      0BB207E4 
 110      38C82190 
 111 00a7 BB6AFF41 		.ascii	"\273j\377A\2203 w@n\203`\025\013h\240\373 \003L\272"
 111      90332077 
 111      406E8360 
 111      150B68A0 
 111      FB20034C 
 112 00bc 28075712 		.ascii	"(\007W\022=z\035m*>\325\365\235\252\317\241\352\272"
 112      3D7A1D6D 
 112      2A3ED5F5 
 112      9DAACFA1 
 112      EABA
 113 00ce ADEAEA04 		.ascii	"\255\352\352\004\271\240\352\243\2306\220\277A\236\200"
 113      B9A0EAA3 
 113      983690BF 
 113      419E80
 114 00dd 0C37E9EC 		.ascii	"\0147\351\354\266\260-\231\316\347an.V\360\364\3728"
 114      B6B02D99 
ARM GAS  /tmp/ccGlQPWb.s 			page 8


 114      CEE7616E 
 114      2E56F0F4 
 114      FA38
 115 00ef 9DEF689F 		.ascii	"\235\357h\237\003\376\373\200\024\230t\025\240V\022"
 115      03FEFB80 
 115      14987415 
 115      A05612
 116 00fe 8E46B75F 		.ascii	"\216F\267_\277\2077\222\310\022\022\213}\210\206\241"
 116      BF873792 
 116      C812128B 
 116      7D8886A1 
 117 010e B5047EE1 		.ascii	"\265\004~\341e\204`\331\211V\020\262\2306J;\363\020"
 117      658460D9 
 117      895610B2 
 117      98364A3B 
 117      F310
 118 0120 5A80459C 		.ascii	"Z\200E\234\347DnVq9\031\257Q\3503B\232\243\261\247;"
 118      E7446E56 
 118      713919AF 
 118      51E83342 
 118      9AA3B1A7 
 119 0135 C6109223 		.ascii	"\306\020\222#\3426\354\004\375\025\030\215A\273\000"
 119      E236EC04 
 119      FD15188D 
 119      41BB00
 120 0144 A719E617 		.ascii	"\247\031\346\027'\011!\312\034z\313\362oO\341\305@G"
 120      270921CA 
 120      1C7ACBF2 
 120      6F4FE1C5 
 120      4047
 121 0156 C43B18F8 		.ascii	"\304;\030\370/\030#\021\177\216\307d\015\265q\325\361"
 121      2F182311 
 121      7F8EC764 
 121      0DB571D5 
 121      F1
 122 0167 5718CB2F 		.ascii	"W\030\313/\030\320m\316\010$\342\276N=G\326\326\006"
 122      18D06DCE 
 122      0824E2BE 
 122      4E3D47D6 
 122      D606
 123 0179 5034D6AD 		.ascii	"P4\326\255Vh\022\017@\377\361\360d\266\320\231\333\360"
 123      5668120F 
 123      40FFF1F0 
 123      64B6D099 
 123      DBF0
 124 018b 3056B3B1 		.ascii	"0V\263\261XC\302\254Lx`0ZM#\350\326\371\342mm\276+\341"
 124      5843C2AC 
 124      4C786030 
 124      5A4D23E8 
 124      D6F9E26D 
 125 01a3 8BAB3F5D 		.ascii	"\213\253?](f\276\330\213\007\003\312Z\233\321\027\351"
 125      2866BED8 
 125      8B0703CA 
 125      5A9BD117 
 125      E9
 126 01b4 50288BFD 		.ascii	"P(\213\3750S\231\3030I\344Q\207\213\330\225\347\310"
 126      305399C3 
ARM GAS  /tmp/ccGlQPWb.s 			page 9


 126      3049E451 
 126      878BD895 
 126      E7C8
 127 01c6 8066F88D 		.ascii	"\200f\370\215Da`\033\351\356\330<\234\204O\343t\344"
 127      4461601B 
 127      E9EED83C 
 127      9C844FE3 
 127      74E4
 128 01d8 A39CA677 		.ascii	"\243\234\246w\254.\337\302[l\214\375!\306~Sz\366F\030"
 128      AC2EDFC2 
 128      5B6C8CFD 
 128      21C67E53 
 128      7AF64618 
 129 01ec 4AEF8899 		.ascii	"J\357\210\231\376?\027\031\375#\351\351/i\212\304.*"
 129      FE3F1719 
 129      FD23E9E9 
 129      2F698AC4 
 129      2E2A
 130 01fe F459F635 		.ascii	"\364Y\3665\245\314>\021\357\304\2432\2127\207v2K(\205"
 130      A5CC3E11 
 130      EFC4A332 
 130      8A378776 
 130      324B2885 
 131 0212 64486A55 		.ascii	"dHjU\371\251\003\214\264\232\273\\\315\242\210\217\263"
 131      F9A9038C 
 131      B49ABB5C 
 131      CDA2888F 
 131      B3
 132 0223 04DF9335 		.ascii	"\004\337\2235\230\333\000\326\242\007k\317\004,\307"
 132      98DB00D6 
 132      A2076BCF 
 132      042CC7
 133 0232 9AD9277A 		.ascii	"\232\331'z\260\023Y\203\031\231\255\323\203}\223\011"
 133      B0135983 
 133      1999ADD3 
 133      837D9309 
 134 0242 D8406B66 		.ascii	"\330@kf\033\364`\035Y\203\351\2315F\016w\235\303\244"
 134      1BF4601D 
 134      5983E999 
 134      35460E77 
 134      9DC3A4
 135 0255 C53504B5 		.ascii	"\3055\004\265\020\322H\302}\254\222\002!6\204\244\034"
 135      10D248C2 
 135      7DAC9202 
 135      213684A4 
 135      1C
 136 0266 22E27378 		.ascii	"\"\342sx\2101I7\255\312\243IJ\237\247_c\237v)I\252m"
 136      88314937 
 136      ADCAA349 
 136      4A9FA75F 
 136      639F7629 
 137 027d 9DE79971 		.ascii	"\235\347\231qtn/\262\013\224\267w\365#+]\352\352\012"
 137      746E2FB2 
 137      0B94B777 
 137      F5232B5D 
 137      EAEA0A
 138 0290 BFBA3305 		.ascii	"\277\2723\005\361.\363\352\332\322\305\271\225\307\351"
ARM GAS  /tmp/ccGlQPWb.s 			page 10


 138      F12EF3EA 
 138      DAD2C5B9 
 138      95C7E9
 139 029f 797FD9B5 		.ascii	"y\177\331\2659\237\204Oauk'\313\310h\235\256\201\232"
 139      399F844F 
 139      61756B27 
 139      CBC8689D 
 139      AE819A
 140 02b2 2EBAF9C5 		.ascii	".\272\371\305O\211\303c\331\206p\231\031\372\275-\351"
 140      4F89C363 
 140      D9867099 
 140      19FABD2D 
 140      E9
 141 02c3 199101D0 		.ascii	"\031\221\001\320\306U;\2243\342G\006t\305f>#l\2463\302"
 141      C6553B94 
 141      33E24706 
 141      74C5663E 
 141      236CA633 
 142 02d8 665CD536 		.ascii	"f\\\3256g\242\022\213\331Pv\2039t\215)\354J\344\237"
 142      67A2128B 
 142      D9507683 
 142      39748D29 
 142      EC4AE49F 
 143 02ec 8164BA10 		.ascii	"\201d\272\020-\216>\273\321\312\\\247y\342f\326x\003"
 143      2D8E3EBB 
 143      D1CA5CA7 
 143      79E266D6 
 143      7803
 144 02fe 4D31E1D0 		.ascii	"M1\341\320\235\336\246\215\316r\305h\021_\300#\241\274"
 144      9DDEA68D 
 144      CE72C568 
 144      115FC023 
 144      A1BC
 145 0310 08A54EC1 		.ascii	"\010\245N\301\037\231,\272|\013\243a\005\177\245_\301"
 145      1F992CBA 
 145      7C0BA361 
 145      057FA55F 
 145      C1
 146 0321 0FB20673 		.ascii	"\017\262\006s\033\300\216\352\301\376\312\004\314m\315"
 146      1BC08EEA 
 146      C1FECA04 
 146      CC6DCD
 147 0330 ECB81EEC 		.ascii	"\354\270\036\354i\326`Ff'\365`\215\366\014\300F\247"
 147      69D66046 
 147      6627F560 
 147      8DF60CC0 
 147      46A7
 148 0342 0A8A213E 		.ascii	"\012\212!>\211\323P\304G\331qu\214E\352$+#\254<\315"
 148      89D350C4 
 148      47D97175 
 148      8C45EA24 
 148      2B23AC3C 
 149 0357 CA33AC3C 		.ascii	"\3123\254<\313\312NV\376\312\312\337Xy\215\225\277\353"
 149      CBCA4E56 
 149      FECACADF 
 149      58798D95 
 149      BFEB
ARM GAS  /tmp/ccGlQPWb.s 			page 11


 150 0369 E36B7D23 		.ascii	"\343k}#\213\374\260n\004\335\315\332\341\026\300\241"
 150      8BFCB06E 
 150      04DDCDDA 
 150      E116C0A1 
 151 0379 A576E35A 		.ascii	"\245v\343Z3\334\014\224\243\336j\267\271\005\000\311"
 151      33DC0C94 
 151      A3DE6AB7 
 151      B90500C9 
 152 0389 37951E7D 		.ascii	"7\225\036}\034jfz\366\367\356\214\205%vu\375\331\026"
 152      1C6A667A 
 152      F6F7EE8C 
 152      85257675 
 152      FDD916
 153 039c BCA68974 		.ascii	"\274\246\211t\216\323\356\273\353\263Ft\353\021#\373"
 153      8ED3EEBB 
 153      EBB34674 
 153      EB1123FB 
 154 03ac CE4160B3 		.ascii	"\316A`\263\271\022\337\270\217\233\330\225\370.\323"
 154      B912DFB8 
 154      8F9BD895 
 154      F82ED3
 155 03bb BFD96EDE 		.ascii	"\277\331n\336\245\034\246]\312a\334x\034\316D%~\367"
 155      A51CA65D 
 155      CA61DC78 
 155      1CCE4425 
 155      7EF7
 156 03cd D8958915 		.ascii	"\330\225\211\025\311N\370\344\031\265_\227Q\007XF\035"
 156      C94EF8E4 
 156      19B55F97 
 156      51075846 
 156      1D
 157 03de 64B9719B 		.ascii	"d\271q\233\225w\322e\010\205\330\203\373%\360\346%6"
 157      9577D265 
 157      0885D883 
 157      FB25F0E6 
 157      2536
 158 03f0 530EED33 		.ascii	"S\016\3553Y\374\"j#\244\005\336e\"vx\227\261+S9t\214"
 158      59FC226A 
 158      23A405DE 
 158      65227678 
 158      97B12B53 
 159 0407 0DDB8A0B 		.ascii	"\015\333\212\013,.f\252\202\227\320v\352\372\0237\312"
 159      2C2E66AA 
 159      8297D076 
 159      EAFA1337 
 159      CA
 160 0418 4B9590A2 		.ascii	"K\225\220\242\024\263T:\3670\247\267Wy\231\212<Zv\036"
 160      14B3543A 
 160      F730A7B7 
 160      5779998A 
 160      3C5A761E 
 161 042c 8E7FF294 		.ascii	"\216\177\362\224\356\346\206w)\021O\035ji\347#\343}"
 161      EEE68677 
 161      29114F1D 
 161      6A69E723 
 161      E37D
 162 043e 5EE1156F 		.ascii	"^\341\025o(\204\314\036\370:\251\007\310\237\276Re\272"
ARM GAS  /tmp/ccGlQPWb.s 			page 12


 162      2884CC1E 
 162      F83AA907 
 162      C89FBE52 
 162      65BA
 163 0450 881F0043 		.ascii	"\210\037\000C\021?Lm\274:\355\260T\252%\363y\006l=M"
 163      113F4C6D 
 163      BC3AEDB0 
 163      54AA25F3 
 163      79066C3D 
 164 0465 A5C37C46 		.ascii	"\245\303|F\310Gd\351@\314\214C\352,C\022<N\352\245\313"
 164      C84764E9 
 164      40CC8C43 
 164      EA2C4312 
 164      3C4EEAA5 
 165 047a 1DAEE6C6 		.ascii	"\035\256\346\306h,V\220\271\213\236\245pQ\026\357\251"
 165      682C5690 
 165      B98B9EA5 
 165      705116EF 
 165      A9
 166 048b FB762BEF 		.ascii	"\373v+\357\251\215\0345\365R\217u\263\003\367\346\025"
 166      A98D1C35 
 166      F5528F75 
 166      B303F7E6 
 166      15
 167 049c D0149AAB 		.ascii	"\320\024\232\253\026\311\371\344g[\"9\265\370tg\024"
 167      16C9F9E4 
 167      675B2239 
 167      B5F87467 
 167      14
 168 04ad 9F03343E 		.ascii	"\237\0034>\012\351[\014\335z\032\035e\025\237ns|\226"
 168      0AE95B0C 
 168      DD7A1A1D 
 168      65159F6E 
 168      737C96
 169 04c0 703DE213 		.ascii	"p=\342\023\245n:\333\210W7\205;\311=jb\346QZ\311\231"
 169      A56E3ADB 
 169      88573785 
 169      3BC93D6A 
 169      62E6515A 
 170 04d6 A2D49E24 		.ascii	"\242\324\236$\221\343m\225\251\311{wM\336\323\250~l"
 170      91E36D95 
 170      A9C97B77 
 170      4DDED3A8 
 170      7E6C
 171 04e8 A4FA02DA 		.ascii	"\244\372\002\332J.]\212\336\274\276\001\257\210\222"
 171      4A2E5D8A 
 171      DEBCBE01 
 171      AF8892
 172 04f7 66F22C16 		.ascii	"f\362,\026\303\203P3{\357\333\220\247\246Dt{$\177C\""
 172      C3835033 
 172      7BEFDB90 
 172      A7A64474 
 172      7B247F43 
 173 050c 257234BE 		.ascii	"%r4\276XK\011\372\205\202\213\017&\371\371\311\307\212"
 173      584B09FA 
 173      85828B0F 
 173      26F9F9C9 
ARM GAS  /tmp/ccGlQPWb.s 			page 13


 173      C78A
 174 051e B885A33B 		.ascii	"\270\205\243;\330\032\2051\353R\352Z-\206)\367\305\216"
 174      D81A8531 
 174      EB52EA5A 
 174      2D8629F7 
 174      C58E
 175 0530 641F3B18 		.ascii	"d\037;\030@\352\251\252\322\005\232Re\337K\330\243\214"
 175      40EAA9AA 
 175      D2059A52 
 175      65DF4BD8 
 175      A38C
 176 0542 4C3E4AC4 		.ascii	"L>J\304k\271A\254\306\014!\361\023\323\345\264\014\324"
 176      6BB941AC 
 176      C60C21F1 
 176      13D3E5B4 
 176      0CD4
 177 0554 3A1D1B97 		.ascii	":\035\033\2273Q\3115p\326F\201e\313\035\246\235\324"
 177      3351C935 
 177      70D64681 
 177      65CB1DA6 
 177      9DD4
 178 0566 44028E55 		.ascii	"D\002\216U\325v\021\323\217RJx\"\217\317\222\234}d\005"
 178      D57611D3 
 178      8F524A78 
 178      228FCF92 
 178      9C7D6405 
 179 057a FDB6A437 		.ascii	"\375\266\2447fu\302\030\323g\005\013\223{||\330\224"
 179      6675C218 
 179      D367050B 
 179      937B7C7C 
 179      D894
 180 058c B5C99B2D 		.ascii	"\265\311\233-L\216\0371\206QP]\317\231\366O\023\011"
 180      4C8E1F31 
 180      8651505D 
 180      CF99F64F 
 180      1309
 181 059e 0EB51A4C 		.ascii	"\016\265\032L6\335W\350Z\260\342\322\312\305\265\252"
 181      36DD57E8 
 181      5AB0E2D2 
 181      CAC5B5AA 
 182 05ae 8EBAD291 		.ascii	"\216\272\322\221\316Q\365\032H^*G\231FA\310\262v\324"
 182      CE51F51A 
 182      485E2A47 
 182      994641C8 
 182      B276D4
 183 05c1 360B47F5 		.ascii	"6\013G\36578j\233\331Q\272\035\311D\202C\273\015\216"
 183      37386A9B 
 183      D951BA1D 
 183      C9448243 
 183      BB0D8E
 184 05d4 42238A8A 		.ascii	"B#\212\212\370\351\325\376J\177Y\005\037\010\361\325"
 184      F8E9D5FE 
 184      4A7F5905 
 184      1F08F1D5 
 185 05e4 620D1F0A 		.ascii	"b\015\037\012z\371z\261\246\310\213&\364\354\254\017"
 185      7AF97AB1 
 185      A6C88B26 
ARM GAS  /tmp/ccGlQPWb.s 			page 14


 185      F4ECAC0F 
 186 05f4 04E5105F 		.ascii	"\004\345\020_1w\316\204b~\366\354\022~f\371\254\262"
 186      3177CE84 
 186      627EF6EC 
 186      127E66F9 
 186      ACB2
 187 0606 F78AE978 		.ascii	"\367\212\351x\241\246\306WT\215\\\376\000\035S+\206"
 187      A1A6C657 
 187      548D5CFE 
 187      001D532B 
 187      86
 188 0617 DE11E43E 		.ascii	"\336\021\344>3\337\234\347\236\216B|]\025\223\227\371"
 188      33DF9CE7 
 188      9E8E427C 
 188      5D159397 
 188      F9
 189 0628 EA40ADC4 		.ascii	"\352@\255\304\007\245\220$\006\275\325\200\030\364\275"
 189      07A59024 
 189      06BDD580 
 189      18F4BD
 190 0637 2F06255E 		.ascii	"/\006%^\014\326\026\363\013\275\336B\250\024J\265\225"
 190      0CD616F3 
 190      0BBDDE42 
 190      A8144AB5 
 190      95
 191 0648 92CF27F9 		.ascii	"\222\317'\371\342\017\352\002uR\241$V\372\013'\012S"
 191      E20FEA02 
 191      7552A124 
 191      56FA0B27 
 191      0A53
 192 065a 0A8BC78D 		.ascii	"\012\213\307\215\237\370n1o\350\340\375u\336\232\006"
 192      9FF86E31 
 192      6FE8E0FD 
 192      75DE9A06 
 193 066a 9FC48764 		.ascii	"\237\304\207d\237\277N\006\0369\015\360?\241X\220\233"
 193      9FBF4E06 
 193      1E390DF0 
 193      3FA15890 
 193      9B
 194 067b F0FFA7BD 		.ascii	"\360\377\247\275V\364V\373\353$^\360IUbC\215,\310\213"
 194      56F456FB 
 194      EB245EF0 
 194      49556243 
 194      8D2CC88B 
 195 068f EAA510B0 		.ascii	"\352\245\020\260\311\025\004\215\217\273\247S\265\351"
 195      C915048D 
 195      8FBBA753 
 195      B5E9
 196 069d D4EBD5C8 		.ascii	"\324\353\325\3101\253lZC\310\025\222ka\370\302z\177"
 196      31AB6C5A 
 196      43C81592 
 196      6B61F8C2 
 196      7A7F
 197 06af 40901D73 		.ascii	"@\220\035s\312Jfx\372\224\315}\253|\206\247oYE\371\214"
 197      CA4A6678 
 197      FA94CD7D 
 197      AB7C86A7 
ARM GAS  /tmp/ccGlQPWb.s 			page 15


 197      6F5945F9 
 198 06c4 19251E47 		.ascii	"\031%\036G\371\274\362\022\217m\026HY\211\007\317g\026"
 198      F9BCF212 
 198      8F6D1648 
 198      598907CF 
 198      6716
 199 06d6 8F9F24C8 		.ascii	"\217\237$\310\2522Z\265\205$\331\341\255\001{q\251}"
 199      AA325AB5 
 199      8524D9E1 
 199      AD017B71 
 199      A97D
 200 06e8 5A85C763 		.ascii	"Z\205\307c\237=\375\015\217\375\265\327=\263iQj\233"
 200      9F3DFD0D 
 200      8FFDB5D7 
 200      3DB36951 
 200      6A9B
 201 06fa E6F1E42A 		.ascii	"\346\361\344*\021\363\373 ^J\305N\243\347\242\030B\225"
 201      11F3FB20 
 201      5E4AC54E 
 201      A3E7A218 
 201      4295
 202 070c 1892A740 		.ascii	"\030\222\247@G\240\252\012\240r\201\241G\022}\300\317"
 202      47A0AA0A 
 202      A07281A1 
 202      47127DC0 
 202      CF
 203 071d 56D910EA 		.ascii	"V\331\020\352\007\315\371A\277,A\333^\351\227C9\376"
 203      07CDF941 
 203      BF2C41DB 
 203      5EE99743 
 203      39FE
 204 072f 406DC027 		.ascii	"@m\300'\011r\177\350\251\220dx>\007\332v\372p\250\240"
 204      09727FE8 
 204      A9906478 
 204      3E07DA76 
 204      FA70A8A0 
 205 0743 26890040 		.ascii	"&\211\000@\013\203\201\206z\372\324\356\205(\344\010"
 205      0B838186 
 205      7AFAD4EE 
 205      8528E408 
 206 0753 4255439D 		.ascii	"BUC\235W\020\372k\225\242\311\343&O\322\267\246\214"
 206      5710FA6B 
 206      95A2C9E3 
 206      264FD2B7 
 206      A68C
 207 0765 37B426FD 		.ascii	"7\264&\375\013\027T\257\247"
 207      0B1754AF 
 207      A7
 208              		.text
 209              		.section	.gnu.lto_.symtab.c6a759169b4668aa,"",%progbits
 210 0000 70616C52 		.ascii	"palReadBus\000\000\000\000\000\000\000\000\000\000\000"
 210      65616442 
 210      75730000 
 210      00000000 
 210      00000000 
 211 0015 00A10000 		.ascii	"\000\241\000\000\000palWriteBus\000\000\000\000\000"
 211      0070616C 
ARM GAS  /tmp/ccGlQPWb.s 			page 16


 211      57726974 
 211      65427573 
 211      00000000 
 212 002a 00000000 		.ascii	"\000\000\000\000\000\000\000\364\000\000\000palSetB"
 212      000000F4 
 212      00000070 
 212      616C5365 
 212      7442
 213 003c 75734D6F 		.ascii	"usMode\000\000\000\000\000\000\000\000\000\000\000\000"
 213      64650000 
 213      00000000 
 213      00000000 
 213      0000
 214 004e FD000000 		.ascii	"\375\000\000\000_pal_lld_setgroupmode\000\000\002\000"
 214      5F70616C 
 214      5F6C6C64 
 214      5F736574 
 214      67726F75 
 215 006b 00000000 		.ascii	"\000\000\000\000\000\000\000\000\011\001\000\000"
 215      00000000 
 215      09010000 
 216              		.text
 217              		.section	.gnu.lto_.opts,"",%progbits
 218 0000 272D6D63 		.ascii	"'-mcpu=cortex-m4' '-mno-thumb-interwork' '-mthumb' "
 218      70753D63 
 218      6F727465 
 218      782D6D34 
 218      2720272D 
 219 0033 272D6767 		.ascii	"'-ggdb' '-O2' '-fomit-frame-pointer' '-falign-funct"
 219      64622720 
 219      272D4F32 
 219      2720272D 
 219      666F6D69 
 220 0066 696F6E73 		.ascii	"ions=16' '-ffunction-sections' '-fdata-sections' '-"
 220      3D313627 
 220      20272D66 
 220      66756E63 
 220      74696F6E 
 221 0099 666E6F2D 		.ascii	"fno-common' '-flto'\000"
 221      636F6D6D 
 221      6F6E2720 
 221      272D666C 
 221      746F2700 
 222              		.text
 223              		.cfi_sections	.debug_frame
 224              		.section	.text.palReadBus,"ax",%progbits
 225              		.align	2
 226              		.p2align 4,,15
 227              		.global	palReadBus
 228              		.thumb
 229              		.thumb_func
 230              		.type	palReadBus, %function
 231              	palReadBus:
 232              	.LFB272:
 233              		.file 1 "../ChibiOS/os/hal/src/pal.c"
 234              		.loc 1 65 0
 235              		.cfi_startproc
ARM GAS  /tmp/ccGlQPWb.s 			page 17


 236              		@ args = 0, pretend = 0, frame = 0
 237              		@ frame_needed = 0, uses_anonymous_args = 0
 238              		@ link register save eliminated.
 239              	.LVL0:
 240              		.loc 1 69 0
 241 0000 0368     		ldr	r3, [r0]
 242 0002 8268     		ldr	r2, [r0, #8]
 243 0004 1969     		ldr	r1, [r3, #16]
 244 0006 4368     		ldr	r3, [r0, #4]
 245 0008 21FA02F0 		lsr	r0, r1, r2
 246              	.LVL1:
 247              		.loc 1 70 0
 248 000c 1840     		ands	r0, r0, r3
 249 000e 7047     		bx	lr
 250              		.cfi_endproc
 251              	.LFE272:
 252              		.size	palReadBus, .-palReadBus
 253              		.section	.text.palWriteBus,"ax",%progbits
 254              		.align	2
 255              		.p2align 4,,15
 256              		.global	palWriteBus
 257              		.thumb
 258              		.thumb_func
 259              		.type	palWriteBus, %function
 260              	palWriteBus:
 261              	.LFB273:
 262              		.loc 1 90 0
 263              		.cfi_startproc
 264              		@ args = 0, pretend = 0, frame = 0
 265              		@ frame_needed = 0, uses_anonymous_args = 0
 266              		@ link register save eliminated.
 267              	.LVL2:
 268              		.loc 1 94 0
 269 0000 0DC8     		ldmia	r0, {r0, r2, r3}
 270              	.LVL3:
 271              		.loc 1 90 0
 272 0002 30B4     		push	{r4, r5}
 273              		.cfi_def_cfa_offset 8
 274              		.cfi_offset 4, -8
 275              		.cfi_offset 5, -4
 276              		.loc 1 94 0
 277 0004 22EA0105 		bic	r5, r2, r1
 278 0008 03F11004 		add	r4, r3, #16
 279 000c 0A40     		ands	r2, r2, r1
 280 000e 02FA03F3 		lsl	r3, r2, r3
 281 0012 05FA04F2 		lsl	r2, r5, r4
 282 0016 1343     		orrs	r3, r3, r2
 283 0018 8361     		str	r3, [r0, #24]
 284              		.loc 1 95 0
 285 001a 30BC     		pop	{r4, r5}
 286 001c 7047     		bx	lr
 287              		.cfi_endproc
 288              	.LFE273:
 289              		.size	palWriteBus, .-palWriteBus
 290 001e 00BF     		.section	.text.palSetBusMode,"ax",%progbits
 291              		.align	2
 292              		.p2align 4,,15
ARM GAS  /tmp/ccGlQPWb.s 			page 18


 293              		.global	palSetBusMode
 294              		.thumb
 295              		.thumb_func
 296              		.type	palSetBusMode, %function
 297              	palSetBusMode:
 298              	.LFB274:
 299              		.loc 1 113 0
 300              		.cfi_startproc
 301              		@ args = 0, pretend = 0, frame = 0
 302              		@ frame_needed = 0, uses_anonymous_args = 0
 303              		@ link register save eliminated.
 304              	.LVL4:
 305 0000 10B4     		push	{r4}
 306              		.cfi_def_cfa_offset 4
 307              		.cfi_offset 4, -4
 308              		.loc 1 113 0
 309 0002 0A46     		mov	r2, r1
 310              		.loc 1 117 0
 311 0004 4468     		ldr	r4, [r0, #4]
 312 0006 8168     		ldr	r1, [r0, #8]
 313              	.LVL5:
 314 0008 0068     		ldr	r0, [r0]
 315              	.LVL6:
 316 000a 04FA01F1 		lsl	r1, r4, r1
 317              		.loc 1 118 0
 318 000e 5DF8044B 		ldr	r4, [sp], #4
 319              		.loc 1 117 0
 320 0012 FFF7FEBF 		b	_pal_lld_setgroupmode
 321              	.LVL7:
 322              		.cfi_endproc
 323              	.LFE274:
 324              		.size	palSetBusMode, .-palSetBusMode
 325 0016 00BFAFF3 		.text
 325      0080AFF3 
 325      0080
 326              	.Letext0:
 327              		.file 2 "/nfs/nfs5/home/research/hardware/arm2/gcc-arm-embedded/gcc-arm-none-eabi-4_8-2014q2/arm-n
 328              		.file 3 "/nfs/nfs5/home/research/hardware/arm2/gcc-arm-embedded/gcc-arm-none-eabi-4_8-2014q2/arm-n
 329              		.file 4 "../ChibiOS/os/rt/ports/ARMCMx/compilers/GCC/chtypes.h"
 330              		.file 5 "../ChibiOS/os/rt/include/chsystypes.h"
 331              		.file 6 "../ChibiOS/os/rt/include/chschd.h"
 332              		.file 7 "../ChibiOS/os/rt/ports/ARMCMx/chcore.h"
 333              		.file 8 "../ChibiOS/os/rt/ports/ARMCMx/chcore_v7m.h"
 334              		.file 9 "../ChibiOS/os/rt/include/chtm.h"
 335              		.file 10 "../ChibiOS/os/rt/include/chsem.h"
 336              		.file 11 "../ChibiOS/os/rt/include/chmtx.h"
 337              		.file 12 "../ChibiOS/os/hal/ports/STM32/LLD/GPIOv2/pal_lld.h"
 338              		.file 13 "../ChibiOS/os/hal/include/pal.h"
 339              		.file 14 "../ChibiOS/os/ext/CMSIS/include/core_cm4.h"
 340              		.section	.debug_info,"",%progbits
 341              	.Ldebug_info0:
 342 0000 AE080000 		.4byte	0x8ae
 343 0004 0400     		.2byte	0x4
 344 0006 00000000 		.4byte	.Ldebug_abbrev0
 345 000a 04       		.byte	0x4
 346 000b 01       		.uleb128 0x1
 347 000c 3E050000 		.4byte	.LASF129
ARM GAS  /tmp/ccGlQPWb.s 			page 19


 348 0010 01       		.byte	0x1
 349 0011 98010000 		.4byte	.LASF130
 350 0015 B5040000 		.4byte	.LASF131
 351 0019 00000000 		.4byte	.Ldebug_ranges0+0
 352 001d 00000000 		.4byte	0
 353 0021 00000000 		.4byte	.Ldebug_line0
 354 0025 02       		.uleb128 0x2
 355 0026 04       		.byte	0x4
 356 0027 05       		.byte	0x5
 357 0028 696E7400 		.ascii	"int\000"
 358 002c 03       		.uleb128 0x3
 359 002d 04       		.byte	0x4
 360 002e 07       		.byte	0x7
 361 002f 83010000 		.4byte	.LASF0
 362 0033 03       		.uleb128 0x3
 363 0034 01       		.byte	0x1
 364 0035 06       		.byte	0x6
 365 0036 E4000000 		.4byte	.LASF1
 366 003a 04       		.uleb128 0x4
 367 003b 23000000 		.4byte	.LASF4
 368 003f 02       		.byte	0x2
 369 0040 1C       		.byte	0x1c
 370 0041 45000000 		.4byte	0x45
 371 0045 03       		.uleb128 0x3
 372 0046 01       		.byte	0x1
 373 0047 08       		.byte	0x8
 374 0048 2C030000 		.4byte	.LASF2
 375 004c 03       		.uleb128 0x3
 376 004d 02       		.byte	0x2
 377 004e 05       		.byte	0x5
 378 004f 44030000 		.4byte	.LASF3
 379 0053 04       		.uleb128 0x4
 380 0054 1A040000 		.4byte	.LASF5
 381 0058 02       		.byte	0x2
 382 0059 26       		.byte	0x26
 383 005a 5E000000 		.4byte	0x5e
 384 005e 03       		.uleb128 0x3
 385 005f 02       		.byte	0x2
 386 0060 07       		.byte	0x7
 387 0061 D1010000 		.4byte	.LASF6
 388 0065 04       		.uleb128 0x4
 389 0066 28020000 		.4byte	.LASF7
 390 006a 02       		.byte	0x2
 391 006b 37       		.byte	0x37
 392 006c 70000000 		.4byte	0x70
 393 0070 03       		.uleb128 0x3
 394 0071 04       		.byte	0x4
 395 0072 05       		.byte	0x5
 396 0073 11010000 		.4byte	.LASF8
 397 0077 04       		.uleb128 0x4
 398 0078 53040000 		.4byte	.LASF9
 399 007c 02       		.byte	0x2
 400 007d 38       		.byte	0x38
 401 007e 82000000 		.4byte	0x82
 402 0082 03       		.uleb128 0x3
 403 0083 04       		.byte	0x4
 404 0084 07       		.byte	0x7
ARM GAS  /tmp/ccGlQPWb.s 			page 20


 405 0085 F3030000 		.4byte	.LASF10
 406 0089 03       		.uleb128 0x3
 407 008a 08       		.byte	0x8
 408 008b 05       		.byte	0x5
 409 008c D6000000 		.4byte	.LASF11
 410 0090 04       		.uleb128 0x4
 411 0091 3D020000 		.4byte	.LASF12
 412 0095 02       		.byte	0x2
 413 0096 4E       		.byte	0x4e
 414 0097 9B000000 		.4byte	0x9b
 415 009b 03       		.uleb128 0x3
 416 009c 08       		.byte	0x8
 417 009d 07       		.byte	0x7
 418 009e 62000000 		.4byte	.LASF13
 419 00a2 04       		.uleb128 0x4
 420 00a3 36050000 		.4byte	.LASF14
 421 00a7 03       		.byte	0x3
 422 00a8 2A       		.byte	0x2a
 423 00a9 3A000000 		.4byte	0x3a
 424 00ad 04       		.uleb128 0x4
 425 00ae 23010000 		.4byte	.LASF15
 426 00b2 03       		.byte	0x3
 427 00b3 36       		.byte	0x36
 428 00b4 53000000 		.4byte	0x53
 429 00b8 04       		.uleb128 0x4
 430 00b9 24030000 		.4byte	.LASF16
 431 00bd 03       		.byte	0x3
 432 00be 41       		.byte	0x41
 433 00bf 65000000 		.4byte	0x65
 434 00c3 04       		.uleb128 0x4
 435 00c4 C2030000 		.4byte	.LASF17
 436 00c8 03       		.byte	0x3
 437 00c9 42       		.byte	0x42
 438 00ca 77000000 		.4byte	0x77
 439 00ce 04       		.uleb128 0x4
 440 00cf 1A000000 		.4byte	.LASF18
 441 00d3 03       		.byte	0x3
 442 00d4 4E       		.byte	0x4e
 443 00d5 90000000 		.4byte	0x90
 444 00d9 04       		.uleb128 0x4
 445 00da 6B030000 		.4byte	.LASF19
 446 00de 03       		.byte	0x3
 447 00df 60       		.byte	0x60
 448 00e0 2C000000 		.4byte	0x2c
 449 00e4 04       		.uleb128 0x4
 450 00e5 A6040000 		.4byte	.LASF20
 451 00e9 04       		.byte	0x4
 452 00ea 39       		.byte	0x39
 453 00eb C3000000 		.4byte	0xc3
 454 00ef 04       		.uleb128 0x4
 455 00f0 00020000 		.4byte	.LASF21
 456 00f4 04       		.byte	0x4
 457 00f5 3C       		.byte	0x3c
 458 00f6 A2000000 		.4byte	0xa2
 459 00fa 04       		.uleb128 0x4
 460 00fb 1A010000 		.4byte	.LASF22
 461 00ff 04       		.byte	0x4
ARM GAS  /tmp/ccGlQPWb.s 			page 21


 462 0100 3D       		.byte	0x3d
 463 0101 A2000000 		.4byte	0xa2
 464 0105 04       		.uleb128 0x4
 465 0106 E7020000 		.4byte	.LASF23
 466 010a 04       		.byte	0x4
 467 010b 3E       		.byte	0x3e
 468 010c A2000000 		.4byte	0xa2
 469 0110 04       		.uleb128 0x4
 470 0111 06030000 		.4byte	.LASF24
 471 0115 04       		.byte	0x4
 472 0116 40       		.byte	0x40
 473 0117 C3000000 		.4byte	0xc3
 474 011b 04       		.uleb128 0x4
 475 011c EE010000 		.4byte	.LASF25
 476 0120 04       		.byte	0x4
 477 0121 41       		.byte	0x41
 478 0122 B8000000 		.4byte	0xb8
 479 0126 04       		.uleb128 0x4
 480 0127 1C020000 		.4byte	.LASF26
 481 012b 04       		.byte	0x4
 482 012c 43       		.byte	0x43
 483 012d C3000000 		.4byte	0xc3
 484 0131 04       		.uleb128 0x4
 485 0132 7D010000 		.4byte	.LASF27
 486 0136 04       		.byte	0x4
 487 0137 45       		.byte	0x45
 488 0138 B8000000 		.4byte	0xb8
 489 013c 04       		.uleb128 0x4
 490 013d 35040000 		.4byte	.LASF28
 491 0141 05       		.byte	0x5
 492 0142 33       		.byte	0x33
 493 0143 C3000000 		.4byte	0xc3
 494 0147 04       		.uleb128 0x4
 495 0148 25040000 		.4byte	.LASF29
 496 014c 05       		.byte	0x5
 497 014d 3F       		.byte	0x3f
 498 014e 52010000 		.4byte	0x152
 499 0152 05       		.uleb128 0x5
 500 0153 E4010000 		.4byte	.LASF48
 501 0157 40       		.byte	0x40
 502 0158 06       		.byte	0x6
 503 0159 C2       		.byte	0xc2
 504 015a 32020000 		.4byte	0x232
 505 015e 06       		.uleb128 0x6
 506 015f 64030000 		.4byte	.LASF30
 507 0163 06       		.byte	0x6
 508 0164 C3       		.byte	0xc3
 509 0165 3D020000 		.4byte	0x23d
 510 0169 00       		.byte	0
 511 016a 06       		.uleb128 0x6
 512 016b FF020000 		.4byte	.LASF31
 513 016f 06       		.byte	0x6
 514 0170 C5       		.byte	0xc5
 515 0171 3D020000 		.4byte	0x23d
 516 0175 04       		.byte	0x4
 517 0176 06       		.uleb128 0x6
 518 0177 CF000000 		.4byte	.LASF32
ARM GAS  /tmp/ccGlQPWb.s 			page 22


 519 017b 06       		.byte	0x6
 520 017c C7       		.byte	0xc7
 521 017d 10010000 		.4byte	0x110
 522 0181 08       		.byte	0x8
 523 0182 06       		.uleb128 0x6
 524 0183 5A060000 		.4byte	.LASF33
 525 0187 06       		.byte	0x6
 526 0188 C8       		.byte	0xc8
 527 0189 72040000 		.4byte	0x472
 528 018d 0C       		.byte	0xc
 529 018e 06       		.uleb128 0x6
 530 018f 2C010000 		.4byte	.LASF34
 531 0193 06       		.byte	0x6
 532 0194 CA       		.byte	0xca
 533 0195 3D020000 		.4byte	0x23d
 534 0199 10       		.byte	0x10
 535 019a 06       		.uleb128 0x6
 536 019b 97020000 		.4byte	.LASF35
 537 019f 06       		.byte	0x6
 538 01a0 CB       		.byte	0xcb
 539 01a1 3D020000 		.4byte	0x23d
 540 01a5 14       		.byte	0x14
 541 01a6 06       		.uleb128 0x6
 542 01a7 25060000 		.4byte	.LASF36
 543 01ab 06       		.byte	0x6
 544 01ac D2       		.byte	0xd2
 545 01ad FD050000 		.4byte	0x5fd
 546 01b1 18       		.byte	0x18
 547 01b2 06       		.uleb128 0x6
 548 01b3 4E030000 		.4byte	.LASF37
 549 01b7 06       		.byte	0x6
 550 01b8 DD       		.byte	0xdd
 551 01b9 FA000000 		.4byte	0xfa
 552 01bd 1C       		.byte	0x1c
 553 01be 06       		.uleb128 0x6
 554 01bf 78030000 		.4byte	.LASF38
 555 01c3 06       		.byte	0x6
 556 01c4 E1       		.byte	0xe1
 557 01c5 EF000000 		.4byte	0xef
 558 01c9 1D       		.byte	0x1d
 559 01ca 06       		.uleb128 0x6
 560 01cb 21050000 		.4byte	.LASF39
 561 01cf 06       		.byte	0x6
 562 01d0 E6       		.byte	0xe6
 563 01d1 05010000 		.4byte	0x105
 564 01d5 1E       		.byte	0x1e
 565 01d6 07       		.uleb128 0x7
 566 01d7 705F7500 		.ascii	"p_u\000"
 567 01db 06       		.byte	0x6
 568 01dc 3701     		.2byte	0x137
 569 01de 2C050000 		.4byte	0x52c
 570 01e2 20       		.byte	0x20
 571 01e3 08       		.uleb128 0x8
 572 01e4 48020000 		.4byte	.LASF40
 573 01e8 06       		.byte	0x6
 574 01e9 3C01     		.2byte	0x13c
 575 01eb 43020000 		.4byte	0x243
ARM GAS  /tmp/ccGlQPWb.s 			page 23


 576 01ef 24       		.byte	0x24
 577 01f0 08       		.uleb128 0x8
 578 01f1 BB010000 		.4byte	.LASF41
 579 01f5 06       		.byte	0x6
 580 01f6 4201     		.2byte	0x142
 581 01f8 67020000 		.4byte	0x267
 582 01fc 28       		.byte	0x28
 583 01fd 08       		.uleb128 0x8
 584 01fe B7030000 		.4byte	.LASF42
 585 0202 06       		.byte	0x6
 586 0203 4801     		.2byte	0x148
 587 0205 26010000 		.4byte	0x126
 588 0209 30       		.byte	0x30
 589 020a 08       		.uleb128 0x8
 590 020b 3A030000 		.4byte	.LASF43
 591 020f 06       		.byte	0x6
 592 0210 4F01     		.2byte	0x14f
 593 0212 F7050000 		.4byte	0x5f7
 594 0216 34       		.byte	0x34
 595 0217 08       		.uleb128 0x8
 596 0218 3F040000 		.4byte	.LASF44
 597 021c 06       		.byte	0x6
 598 021d 5301     		.2byte	0x153
 599 021f 10010000 		.4byte	0x110
 600 0223 38       		.byte	0x38
 601 0224 08       		.uleb128 0x8
 602 0225 F5000000 		.4byte	.LASF45
 603 0229 06       		.byte	0x6
 604 022a 5A01     		.2byte	0x15a
 605 022c 1A030000 		.4byte	0x31a
 606 0230 3C       		.byte	0x3c
 607 0231 00       		.byte	0
 608 0232 04       		.uleb128 0x4
 609 0233 5B020000 		.4byte	.LASF46
 610 0237 05       		.byte	0x5
 611 0238 44       		.byte	0x44
 612 0239 3D020000 		.4byte	0x23d
 613 023d 09       		.uleb128 0x9
 614 023e 04       		.byte	0x4
 615 023f 47010000 		.4byte	0x147
 616 0243 04       		.uleb128 0x4
 617 0244 3A060000 		.4byte	.LASF47
 618 0248 05       		.byte	0x5
 619 0249 49       		.byte	0x49
 620 024a 4E020000 		.4byte	0x24e
 621 024e 05       		.uleb128 0x5
 622 024f E3030000 		.4byte	.LASF49
 623 0253 04       		.byte	0x4
 624 0254 06       		.byte	0x6
 625 0255 B0       		.byte	0xb0
 626 0256 67020000 		.4byte	0x267
 627 025a 06       		.uleb128 0x6
 628 025b 64030000 		.4byte	.LASF30
 629 025f 06       		.byte	0x6
 630 0260 B1       		.byte	0xb1
 631 0261 3D020000 		.4byte	0x23d
 632 0265 00       		.byte	0
ARM GAS  /tmp/ccGlQPWb.s 			page 24


 633 0266 00       		.byte	0
 634 0267 04       		.uleb128 0x4
 635 0268 08050000 		.4byte	.LASF50
 636 026c 05       		.byte	0x5
 637 026d 50       		.byte	0x50
 638 026e 72020000 		.4byte	0x272
 639 0272 05       		.uleb128 0x5
 640 0273 BE000000 		.4byte	.LASF51
 641 0277 08       		.byte	0x8
 642 0278 06       		.byte	0x6
 643 0279 B7       		.byte	0xb7
 644 027a 97020000 		.4byte	0x297
 645 027e 06       		.uleb128 0x6
 646 027f 64030000 		.4byte	.LASF30
 647 0283 06       		.byte	0x6
 648 0284 B8       		.byte	0xb8
 649 0285 3D020000 		.4byte	0x23d
 650 0289 00       		.byte	0
 651 028a 06       		.uleb128 0x6
 652 028b FF020000 		.4byte	.LASF31
 653 028f 06       		.byte	0x6
 654 0290 B9       		.byte	0xb9
 655 0291 3D020000 		.4byte	0x23d
 656 0295 04       		.byte	0x4
 657 0296 00       		.byte	0
 658 0297 04       		.uleb128 0x4
 659 0298 00000000 		.4byte	.LASF52
 660 029c 05       		.byte	0x5
 661 029d 57       		.byte	0x57
 662 029e A2020000 		.4byte	0x2a2
 663 02a2 0A       		.uleb128 0xa
 664 02a3 0E020000 		.4byte	.LASF53
 665 02a7 1C       		.byte	0x1c
 666 02a8 06       		.byte	0x6
 667 02a9 9201     		.2byte	0x192
 668 02ab FE020000 		.4byte	0x2fe
 669 02af 08       		.uleb128 0x8
 670 02b0 D2030000 		.4byte	.LASF54
 671 02b4 06       		.byte	0x6
 672 02b5 9301     		.2byte	0x193
 673 02b7 67020000 		.4byte	0x267
 674 02bb 00       		.byte	0
 675 02bc 08       		.uleb128 0x8
 676 02bd 56030000 		.4byte	.LASF55
 677 02c1 06       		.byte	0x6
 678 02c2 9401     		.2byte	0x194
 679 02c4 10010000 		.4byte	0x110
 680 02c8 08       		.byte	0x8
 681 02c9 08       		.uleb128 0x8
 682 02ca 9F020000 		.4byte	.LASF56
 683 02ce 06       		.byte	0x6
 684 02cf 9601     		.2byte	0x196
 685 02d1 72040000 		.4byte	0x472
 686 02d5 0C       		.byte	0xc
 687 02d6 08       		.uleb128 0x8
 688 02d7 44010000 		.4byte	.LASF57
 689 02db 06       		.byte	0x6
ARM GAS  /tmp/ccGlQPWb.s 			page 25


 690 02dc 9901     		.2byte	0x199
 691 02de 3D020000 		.4byte	0x23d
 692 02e2 10       		.byte	0x10
 693 02e3 08       		.uleb128 0x8
 694 02e4 C0020000 		.4byte	.LASF58
 695 02e8 06       		.byte	0x6
 696 02e9 9A01     		.2byte	0x19a
 697 02eb 3D020000 		.4byte	0x23d
 698 02ef 14       		.byte	0x14
 699 02f0 08       		.uleb128 0x8
 700 02f1 B6020000 		.4byte	.LASF59
 701 02f5 06       		.byte	0x6
 702 02f6 9D01     		.2byte	0x19d
 703 02f8 3D020000 		.4byte	0x23d
 704 02fc 18       		.byte	0x18
 705 02fd 00       		.byte	0
 706 02fe 04       		.uleb128 0x4
 707 02ff 4A040000 		.4byte	.LASF60
 708 0303 05       		.byte	0x5
 709 0304 5C       		.byte	0x5c
 710 0305 09030000 		.4byte	0x309
 711 0309 09       		.uleb128 0x9
 712 030a 04       		.byte	0x4
 713 030b 0F030000 		.4byte	0x30f
 714 030f 0B       		.uleb128 0xb
 715 0310 1A030000 		.4byte	0x31a
 716 0314 0C       		.uleb128 0xc
 717 0315 1A030000 		.4byte	0x31a
 718 0319 00       		.byte	0
 719 031a 0D       		.uleb128 0xd
 720 031b 04       		.byte	0x4
 721 031c 04       		.uleb128 0x4
 722 031d EF020000 		.4byte	.LASF61
 723 0321 05       		.byte	0x5
 724 0322 61       		.byte	0x61
 725 0323 27030000 		.4byte	0x327
 726 0327 0A       		.uleb128 0xa
 727 0328 99030000 		.4byte	.LASF62
 728 032c 14       		.byte	0x14
 729 032d 06       		.byte	0x6
 730 032e 6D01     		.2byte	0x16d
 731 0330 76030000 		.4byte	0x376
 732 0334 08       		.uleb128 0x8
 733 0335 90010000 		.4byte	.LASF63
 734 0339 06       		.byte	0x6
 735 033a 6E01     		.2byte	0x16e
 736 033c 0F060000 		.4byte	0x60f
 737 0340 00       		.byte	0
 738 0341 08       		.uleb128 0x8
 739 0342 5A010000 		.4byte	.LASF64
 740 0346 06       		.byte	0x6
 741 0347 6F01     		.2byte	0x16f
 742 0349 0F060000 		.4byte	0x60f
 743 034d 04       		.byte	0x4
 744 034e 08       		.uleb128 0x8
 745 034f DA030000 		.4byte	.LASF65
 746 0353 06       		.byte	0x6
ARM GAS  /tmp/ccGlQPWb.s 			page 26


 747 0354 7001     		.2byte	0x170
 748 0356 3C010000 		.4byte	0x13c
 749 035a 08       		.byte	0x8
 750 035b 08       		.uleb128 0x8
 751 035c 60060000 		.4byte	.LASF66
 752 0360 06       		.byte	0x6
 753 0361 7101     		.2byte	0x171
 754 0363 FE020000 		.4byte	0x2fe
 755 0367 0C       		.byte	0xc
 756 0368 08       		.uleb128 0x8
 757 0369 AE040000 		.4byte	.LASF67
 758 036d 06       		.byte	0x6
 759 036e 7301     		.2byte	0x173
 760 0370 1A030000 		.4byte	0x31a
 761 0374 10       		.byte	0x10
 762 0375 00       		.byte	0
 763 0376 04       		.uleb128 0x4
 764 0377 9B000000 		.4byte	.LASF68
 765 037b 05       		.byte	0x5
 766 037c 66       		.byte	0x66
 767 037d 81030000 		.4byte	0x381
 768 0381 0A       		.uleb128 0xa
 769 0382 6E020000 		.4byte	.LASF69
 770 0386 10       		.byte	0x10
 771 0387 06       		.byte	0x6
 772 0388 7D01     		.2byte	0x17d
 773 038a C3030000 		.4byte	0x3c3
 774 038e 08       		.uleb128 0x8
 775 038f 90010000 		.4byte	.LASF63
 776 0393 06       		.byte	0x6
 777 0394 7E01     		.2byte	0x17e
 778 0396 0F060000 		.4byte	0x60f
 779 039a 00       		.byte	0
 780 039b 08       		.uleb128 0x8
 781 039c 5A010000 		.4byte	.LASF64
 782 03a0 06       		.byte	0x6
 783 03a1 8001     		.2byte	0x180
 784 03a3 0F060000 		.4byte	0x60f
 785 03a7 04       		.byte	0x4
 786 03a8 08       		.uleb128 0x8
 787 03a9 DA030000 		.4byte	.LASF65
 788 03ad 06       		.byte	0x6
 789 03ae 8201     		.2byte	0x182
 790 03b0 3C010000 		.4byte	0x13c
 791 03b4 08       		.byte	0x8
 792 03b5 08       		.uleb128 0x8
 793 03b6 8B020000 		.4byte	.LASF70
 794 03ba 06       		.byte	0x6
 795 03bb 8A01     		.2byte	0x18a
 796 03bd 3C010000 		.4byte	0x13c
 797 03c1 0C       		.byte	0xc
 798 03c2 00       		.byte	0
 799 03c3 04       		.uleb128 0x4
 800 03c4 40000000 		.4byte	.LASF71
 801 03c8 05       		.byte	0x5
 802 03c9 6B       		.byte	0x6b
 803 03ca CE030000 		.4byte	0x3ce
ARM GAS  /tmp/ccGlQPWb.s 			page 27


 804 03ce 0A       		.uleb128 0xa
 805 03cf 0E030000 		.4byte	.LASF72
 806 03d3 04       		.byte	0x4
 807 03d4 06       		.byte	0x6
 808 03d5 A401     		.2byte	0x1a4
 809 03d7 E9030000 		.4byte	0x3e9
 810 03db 08       		.uleb128 0x8
 811 03dc 6C040000 		.4byte	.LASF73
 812 03e0 06       		.byte	0x6
 813 03e1 AC01     		.2byte	0x1ac
 814 03e3 15060000 		.4byte	0x615
 815 03e7 00       		.byte	0
 816 03e8 00       		.byte	0
 817 03e9 04       		.uleb128 0x4
 818 03ea F4010000 		.4byte	.LASF74
 819 03ee 05       		.byte	0x5
 820 03ef 70       		.byte	0x70
 821 03f0 F4030000 		.4byte	0x3f4
 822 03f4 0E       		.uleb128 0xe
 823 03f5 8F030000 		.4byte	.LASF75
 824 03f9 5001     		.2byte	0x150
 825 03fb 06       		.byte	0x6
 826 03fc C401     		.2byte	0x1c4
 827 03fe 50040000 		.4byte	0x450
 828 0402 08       		.uleb128 0x8
 829 0403 08020000 		.4byte	.LASF76
 830 0407 06       		.byte	0x6
 831 0408 C801     		.2byte	0x1c8
 832 040a 97020000 		.4byte	0x297
 833 040e 00       		.byte	0
 834 040f 08       		.uleb128 0x8
 835 0410 05010000 		.4byte	.LASF77
 836 0414 06       		.byte	0x6
 837 0415 CC01     		.2byte	0x1cc
 838 0417 76030000 		.4byte	0x376
 839 041b 1C       		.byte	0x1c
 840 041c 07       		.uleb128 0x7
 841 041d 64626700 		.ascii	"dbg\000"
 842 0421 06       		.byte	0x6
 843 0422 D001     		.2byte	0x1d0
 844 0424 C3030000 		.4byte	0x3c3
 845 0428 2C       		.byte	0x2c
 846 0429 08       		.uleb128 0x8
 847 042a 88000000 		.4byte	.LASF78
 848 042e 06       		.byte	0x6
 849 042f D401     		.2byte	0x1d4
 850 0431 47010000 		.4byte	0x147
 851 0435 30       		.byte	0x30
 852 0436 07       		.uleb128 0x7
 853 0437 746D00   		.ascii	"tm\000"
 854 043a 06       		.byte	0x6
 855 043b D901     		.2byte	0x1d9
 856 043d 21050000 		.4byte	0x521
 857 0441 70       		.byte	0x70
 858 0442 08       		.uleb128 0x8
 859 0443 80030000 		.4byte	.LASF79
 860 0447 06       		.byte	0x6
ARM GAS  /tmp/ccGlQPWb.s 			page 28


 861 0448 E501     		.2byte	0x1e5
 862 044a 1A060000 		.4byte	0x61a
 863 044e 78       		.byte	0x78
 864 044f 00       		.byte	0
 865 0450 03       		.uleb128 0x3
 866 0451 04       		.byte	0x4
 867 0452 07       		.byte	0x7
 868 0453 52020000 		.4byte	.LASF80
 869 0457 0F       		.uleb128 0xf
 870 0458 C3000000 		.4byte	0xc3
 871 045c 04       		.uleb128 0x4
 872 045d 51010000 		.4byte	.LASF81
 873 0461 07       		.byte	0x7
 874 0462 65       		.byte	0x65
 875 0463 1A030000 		.4byte	0x31a
 876 0467 04       		.uleb128 0x4
 877 0468 32020000 		.4byte	.LASF82
 878 046c 07       		.byte	0x7
 879 046d 6D       		.byte	0x6d
 880 046e CE000000 		.4byte	0xce
 881 0472 05       		.uleb128 0x5
 882 0473 88040000 		.4byte	.LASF83
 883 0477 04       		.byte	0x4
 884 0478 07       		.byte	0x7
 885 0479 89       		.byte	0x89
 886 047a 8B040000 		.4byte	0x48b
 887 047e 10       		.uleb128 0x10
 888 047f 72313300 		.ascii	"r13\000"
 889 0483 07       		.byte	0x7
 890 0484 8A       		.byte	0x8a
 891 0485 06050000 		.4byte	0x506
 892 0489 00       		.byte	0
 893 048a 00       		.byte	0
 894 048b 05       		.uleb128 0x5
 895 048c 34000000 		.4byte	.LASF84
 896 0490 24       		.byte	0x24
 897 0491 08       		.byte	0x8
 898 0492 FD       		.byte	0xfd
 899 0493 06050000 		.4byte	0x506
 900 0497 07       		.uleb128 0x7
 901 0498 723400   		.ascii	"r4\000"
 902 049b 08       		.byte	0x8
 903 049c 1001     		.2byte	0x110
 904 049e 5C040000 		.4byte	0x45c
 905 04a2 00       		.byte	0
 906 04a3 07       		.uleb128 0x7
 907 04a4 723500   		.ascii	"r5\000"
 908 04a7 08       		.byte	0x8
 909 04a8 1101     		.2byte	0x111
 910 04aa 5C040000 		.4byte	0x45c
 911 04ae 04       		.byte	0x4
 912 04af 07       		.uleb128 0x7
 913 04b0 723600   		.ascii	"r6\000"
 914 04b3 08       		.byte	0x8
 915 04b4 1201     		.2byte	0x112
 916 04b6 5C040000 		.4byte	0x45c
 917 04ba 08       		.byte	0x8
ARM GAS  /tmp/ccGlQPWb.s 			page 29


 918 04bb 07       		.uleb128 0x7
 919 04bc 723700   		.ascii	"r7\000"
 920 04bf 08       		.byte	0x8
 921 04c0 1301     		.2byte	0x113
 922 04c2 5C040000 		.4byte	0x45c
 923 04c6 0C       		.byte	0xc
 924 04c7 07       		.uleb128 0x7
 925 04c8 723800   		.ascii	"r8\000"
 926 04cb 08       		.byte	0x8
 927 04cc 1401     		.2byte	0x114
 928 04ce 5C040000 		.4byte	0x45c
 929 04d2 10       		.byte	0x10
 930 04d3 07       		.uleb128 0x7
 931 04d4 723900   		.ascii	"r9\000"
 932 04d7 08       		.byte	0x8
 933 04d8 1501     		.2byte	0x115
 934 04da 5C040000 		.4byte	0x45c
 935 04de 14       		.byte	0x14
 936 04df 07       		.uleb128 0x7
 937 04e0 72313000 		.ascii	"r10\000"
 938 04e4 08       		.byte	0x8
 939 04e5 1601     		.2byte	0x116
 940 04e7 5C040000 		.4byte	0x45c
 941 04eb 18       		.byte	0x18
 942 04ec 07       		.uleb128 0x7
 943 04ed 72313100 		.ascii	"r11\000"
 944 04f1 08       		.byte	0x8
 945 04f2 1701     		.2byte	0x117
 946 04f4 5C040000 		.4byte	0x45c
 947 04f8 1C       		.byte	0x1c
 948 04f9 07       		.uleb128 0x7
 949 04fa 6C7200   		.ascii	"lr\000"
 950 04fd 08       		.byte	0x8
 951 04fe 1801     		.2byte	0x118
 952 0500 5C040000 		.4byte	0x45c
 953 0504 20       		.byte	0x20
 954 0505 00       		.byte	0
 955 0506 09       		.uleb128 0x9
 956 0507 04       		.byte	0x4
 957 0508 8B040000 		.4byte	0x48b
 958 050c 11       		.uleb128 0x11
 959 050d 04       		.byte	0x4
 960 050e 09       		.byte	0x9
 961 050f 38       		.byte	0x38
 962 0510 21050000 		.4byte	0x521
 963 0514 06       		.uleb128 0x6
 964 0515 76040000 		.4byte	.LASF85
 965 0519 09       		.byte	0x9
 966 051a 3C       		.byte	0x3c
 967 051b E4000000 		.4byte	0xe4
 968 051f 00       		.byte	0
 969 0520 00       		.byte	0
 970 0521 04       		.uleb128 0x4
 971 0522 A5020000 		.4byte	.LASF86
 972 0526 09       		.byte	0x9
 973 0527 3D       		.byte	0x3d
 974 0528 0C050000 		.4byte	0x50c
ARM GAS  /tmp/ccGlQPWb.s 			page 30


 975 052c 12       		.uleb128 0x12
 976 052d 04       		.byte	0x4
 977 052e 06       		.byte	0x6
 978 052f FA       		.byte	0xfa
 979 0530 95050000 		.4byte	0x595
 980 0534 13       		.uleb128 0x13
 981 0535 13000000 		.4byte	.LASF87
 982 0539 06       		.byte	0x6
 983 053a 0101     		.2byte	0x101
 984 053c 1B010000 		.4byte	0x11b
 985 0540 13       		.uleb128 0x13
 986 0541 7F000000 		.4byte	.LASF88
 987 0545 06       		.byte	0x6
 988 0546 0801     		.2byte	0x108
 989 0548 1B010000 		.4byte	0x11b
 990 054c 13       		.uleb128 0x13
 991 054d 1E060000 		.4byte	.LASF89
 992 0551 06       		.byte	0x6
 993 0552 0F01     		.2byte	0x10f
 994 0554 1A030000 		.4byte	0x31a
 995 0558 13       		.uleb128 0x13
 996 0559 0D000000 		.4byte	.LASF90
 997 055d 06       		.byte	0x6
 998 055e 1601     		.2byte	0x116
 999 0560 95050000 		.4byte	0x595
 1000 0564 13       		.uleb128 0x13
 1001 0565 93000000 		.4byte	.LASF91
 1002 0569 06       		.byte	0x6
 1003 056a 1B01     		.2byte	0x11b
 1004 056c 1B010000 		.4byte	0x11b
 1005 0570 13       		.uleb128 0x13
 1006 0571 B4010000 		.4byte	.LASF92
 1007 0575 06       		.byte	0x6
 1008 0576 2401     		.2byte	0x124
 1009 0578 C0050000 		.4byte	0x5c0
 1010 057c 13       		.uleb128 0x13
 1011 057d CB030000 		.4byte	.LASF93
 1012 0581 06       		.byte	0x6
 1013 0582 2D01     		.2byte	0x12d
 1014 0584 F7050000 		.4byte	0x5f7
 1015 0588 13       		.uleb128 0x13
 1016 0589 5D030000 		.4byte	.LASF94
 1017 058d 06       		.byte	0x6
 1018 058e 3501     		.2byte	0x135
 1019 0590 26010000 		.4byte	0x126
 1020 0594 00       		.byte	0
 1021 0595 09       		.uleb128 0x9
 1022 0596 04       		.byte	0x4
 1023 0597 32020000 		.4byte	0x232
 1024 059b 05       		.uleb128 0x5
 1025 059c AA030000 		.4byte	.LASF95
 1026 05a0 0C       		.byte	0xc
 1027 05a1 0A       		.byte	0xa
 1028 05a2 34       		.byte	0x34
 1029 05a3 C0050000 		.4byte	0x5c0
 1030 05a7 06       		.uleb128 0x6
 1031 05a8 34010000 		.4byte	.LASF96
ARM GAS  /tmp/ccGlQPWb.s 			page 31


 1032 05ac 0A       		.byte	0xa
 1033 05ad 35       		.byte	0x35
 1034 05ae 67020000 		.4byte	0x267
 1035 05b2 00       		.byte	0
 1036 05b3 06       		.uleb128 0x6
 1037 05b4 CB010000 		.4byte	.LASF97
 1038 05b8 0A       		.byte	0xa
 1039 05b9 37       		.byte	0x37
 1040 05ba 31010000 		.4byte	0x131
 1041 05be 08       		.byte	0x8
 1042 05bf 00       		.byte	0
 1043 05c0 09       		.uleb128 0x9
 1044 05c1 04       		.byte	0x4
 1045 05c2 9B050000 		.4byte	0x59b
 1046 05c6 05       		.uleb128 0x5
 1047 05c7 18050000 		.4byte	.LASF98
 1048 05cb 10       		.byte	0x10
 1049 05cc 0B       		.byte	0xb
 1050 05cd 39       		.byte	0x39
 1051 05ce F7050000 		.4byte	0x5f7
 1052 05d2 06       		.uleb128 0x6
 1053 05d3 FD000000 		.4byte	.LASF99
 1054 05d7 0B       		.byte	0xb
 1055 05d8 3A       		.byte	0x3a
 1056 05d9 67020000 		.4byte	0x267
 1057 05dd 00       		.byte	0
 1058 05de 06       		.uleb128 0x6
 1059 05df 52060000 		.4byte	.LASF100
 1060 05e3 0B       		.byte	0xb
 1061 05e4 3C       		.byte	0x3c
 1062 05e5 3D020000 		.4byte	0x23d
 1063 05e9 08       		.byte	0x8
 1064 05ea 06       		.uleb128 0x6
 1065 05eb 2E040000 		.4byte	.LASF101
 1066 05ef 0B       		.byte	0xb
 1067 05f0 3E       		.byte	0x3e
 1068 05f1 35060000 		.4byte	0x635
 1069 05f5 0C       		.byte	0xc
 1070 05f6 00       		.byte	0
 1071 05f7 09       		.uleb128 0x9
 1072 05f8 04       		.byte	0x4
 1073 05f9 C6050000 		.4byte	0x5c6
 1074 05fd 09       		.uleb128 0x9
 1075 05fe 04       		.byte	0x4
 1076 05ff 03060000 		.4byte	0x603
 1077 0603 14       		.uleb128 0x14
 1078 0604 08060000 		.4byte	0x608
 1079 0608 03       		.uleb128 0x3
 1080 0609 01       		.byte	0x1
 1081 060a 08       		.byte	0x8
 1082 060b 05040000 		.4byte	.LASF102
 1083 060f 09       		.uleb128 0x9
 1084 0610 04       		.byte	0x4
 1085 0611 1C030000 		.4byte	0x31c
 1086 0615 0F       		.uleb128 0xf
 1087 0616 FD050000 		.4byte	0x5fd
 1088 061a 15       		.uleb128 0x15
ARM GAS  /tmp/ccGlQPWb.s 			page 32


 1089 061b 67040000 		.4byte	0x467
 1090 061f 2A060000 		.4byte	0x62a
 1091 0623 16       		.uleb128 0x16
 1092 0624 50040000 		.4byte	0x450
 1093 0628 1A       		.byte	0x1a
 1094 0629 00       		.byte	0
 1095 062a 04       		.uleb128 0x4
 1096 062b 6F010000 		.4byte	.LASF103
 1097 062f 0B       		.byte	0xb
 1098 0630 34       		.byte	0x34
 1099 0631 C6050000 		.4byte	0x5c6
 1100 0635 09       		.uleb128 0x9
 1101 0636 04       		.byte	0x4
 1102 0637 2A060000 		.4byte	0x62a
 1103 063b 03       		.uleb128 0x3
 1104 063c 01       		.byte	0x1
 1105 063d 02       		.byte	0x2
 1106 063e 1E030000 		.4byte	.LASF104
 1107 0642 11       		.uleb128 0x11
 1108 0643 04       		.byte	0x4
 1109 0644 0C       		.byte	0xc
 1110 0645 E7       		.byte	0xe7
 1111 0646 63060000 		.4byte	0x663
 1112 064a 10       		.uleb128 0x10
 1113 064b 73657400 		.ascii	"set\000"
 1114 064f 0C       		.byte	0xc
 1115 0650 E8       		.byte	0xe8
 1116 0651 AD000000 		.4byte	0xad
 1117 0655 00       		.byte	0
 1118 0656 06       		.uleb128 0x6
 1119 0657 85020000 		.4byte	.LASF105
 1120 065b 0C       		.byte	0xc
 1121 065c E9       		.byte	0xe9
 1122 065d AD000000 		.4byte	0xad
 1123 0661 02       		.byte	0x2
 1124 0662 00       		.byte	0
 1125 0663 12       		.uleb128 0x12
 1126 0664 04       		.byte	0x4
 1127 0665 0C       		.byte	0xc
 1128 0666 E5       		.byte	0xe5
 1129 0667 7E060000 		.4byte	0x67e
 1130 066b 17       		.uleb128 0x17
 1131 066c 5700     		.ascii	"W\000"
 1132 066e 0C       		.byte	0xc
 1133 066f E6       		.byte	0xe6
 1134 0670 C3000000 		.4byte	0xc3
 1135 0674 17       		.uleb128 0x17
 1136 0675 4800     		.ascii	"H\000"
 1137 0677 0C       		.byte	0xc
 1138 0678 EA       		.byte	0xea
 1139 0679 42060000 		.4byte	0x642
 1140 067d 00       		.byte	0
 1141 067e 11       		.uleb128 0x11
 1142 067f 2C       		.byte	0x2c
 1143 0680 0C       		.byte	0xc
 1144 0681 DD       		.byte	0xdd
 1145 0682 0B070000 		.4byte	0x70b
ARM GAS  /tmp/ccGlQPWb.s 			page 33


 1146 0686 06       		.uleb128 0x6
 1147 0687 5C000000 		.4byte	.LASF106
 1148 068b 0C       		.byte	0xc
 1149 068c DF       		.byte	0xdf
 1150 068d 57040000 		.4byte	0x457
 1151 0691 00       		.byte	0
 1152 0692 06       		.uleb128 0x6
 1153 0693 2D000000 		.4byte	.LASF107
 1154 0697 0C       		.byte	0xc
 1155 0698 E0       		.byte	0xe0
 1156 0699 57040000 		.4byte	0x457
 1157 069d 04       		.byte	0x4
 1158 069e 06       		.uleb128 0x6
 1159 069f 3C010000 		.4byte	.LASF108
 1160 06a3 0C       		.byte	0xc
 1161 06a4 E1       		.byte	0xe1
 1162 06a5 57040000 		.4byte	0x457
 1163 06a9 08       		.byte	0x8
 1164 06aa 06       		.uleb128 0x6
 1165 06ab 79000000 		.4byte	.LASF109
 1166 06af 0C       		.byte	0xc
 1167 06b0 E2       		.byte	0xe2
 1168 06b1 57040000 		.4byte	0x457
 1169 06b5 0C       		.byte	0xc
 1170 06b6 10       		.uleb128 0x10
 1171 06b7 49445200 		.ascii	"IDR\000"
 1172 06bb 0C       		.byte	0xc
 1173 06bc E3       		.byte	0xe3
 1174 06bd 57040000 		.4byte	0x457
 1175 06c1 10       		.byte	0x10
 1176 06c2 10       		.uleb128 0x10
 1177 06c3 4F445200 		.ascii	"ODR\000"
 1178 06c7 0C       		.byte	0xc
 1179 06c8 E4       		.byte	0xe4
 1180 06c9 57040000 		.4byte	0x457
 1181 06cd 14       		.byte	0x14
 1182 06ce 06       		.uleb128 0x6
 1183 06cf F0000000 		.4byte	.LASF110
 1184 06d3 0C       		.byte	0xc
 1185 06d4 EB       		.byte	0xeb
 1186 06d5 0B070000 		.4byte	0x70b
 1187 06d9 18       		.byte	0x18
 1188 06da 06       		.uleb128 0x6
 1189 06db C6010000 		.4byte	.LASF111
 1190 06df 0C       		.byte	0xc
 1191 06e0 EC       		.byte	0xec
 1192 06e1 57040000 		.4byte	0x457
 1193 06e5 1C       		.byte	0x1c
 1194 06e6 06       		.uleb128 0x6
 1195 06e7 E2020000 		.4byte	.LASF112
 1196 06eb 0C       		.byte	0xc
 1197 06ec ED       		.byte	0xed
 1198 06ed 57040000 		.4byte	0x457
 1199 06f1 20       		.byte	0x20
 1200 06f2 06       		.uleb128 0x6
 1201 06f3 CF020000 		.4byte	.LASF113
 1202 06f7 0C       		.byte	0xc
ARM GAS  /tmp/ccGlQPWb.s 			page 34


 1203 06f8 EE       		.byte	0xee
 1204 06f9 57040000 		.4byte	0x457
 1205 06fd 24       		.byte	0x24
 1206 06fe 10       		.uleb128 0x10
 1207 06ff 42525200 		.ascii	"BRR\000"
 1208 0703 0C       		.byte	0xc
 1209 0704 EF       		.byte	0xef
 1210 0705 57040000 		.4byte	0x457
 1211 0709 28       		.byte	0x28
 1212 070a 00       		.byte	0
 1213 070b 0F       		.uleb128 0xf
 1214 070c 63060000 		.4byte	0x663
 1215 0710 04       		.uleb128 0x4
 1216 0711 62010000 		.4byte	.LASF114
 1217 0715 0C       		.byte	0xc
 1218 0716 F0       		.byte	0xf0
 1219 0717 7E060000 		.4byte	0x67e
 1220 071b 18       		.uleb128 0x18
 1221 071c 4F000000 		.4byte	.LASF115
 1222 0720 0C       		.byte	0xc
 1223 0721 3F01     		.2byte	0x13f
 1224 0723 C3000000 		.4byte	0xc3
 1225 0727 18       		.uleb128 0x18
 1226 0728 49060000 		.4byte	.LASF116
 1227 072c 0C       		.byte	0xc
 1228 072d 4401     		.2byte	0x144
 1229 072f C3000000 		.4byte	0xc3
 1230 0733 18       		.uleb128 0x18
 1231 0734 7D040000 		.4byte	.LASF117
 1232 0738 0C       		.byte	0xc
 1233 0739 5101     		.2byte	0x151
 1234 073b 3F070000 		.4byte	0x73f
 1235 073f 09       		.uleb128 0x9
 1236 0740 04       		.byte	0x4
 1237 0741 10070000 		.4byte	0x710
 1238 0745 11       		.uleb128 0x11
 1239 0746 0C       		.byte	0xc
 1240 0747 0D       		.byte	0xd
 1241 0748 7A       		.byte	0x7a
 1242 0749 72070000 		.4byte	0x772
 1243 074d 06       		.uleb128 0x6
 1244 074e C8020000 		.4byte	.LASF118
 1245 0752 0D       		.byte	0xd
 1246 0753 7E       		.byte	0x7e
 1247 0754 33070000 		.4byte	0x733
 1248 0758 00       		.byte	0
 1249 0759 06       		.uleb128 0x6
 1250 075a 4C010000 		.4byte	.LASF119
 1251 075e 0D       		.byte	0xd
 1252 075f 84       		.byte	0x84
 1253 0760 1B070000 		.4byte	0x71b
 1254 0764 04       		.byte	0x4
 1255 0765 06       		.uleb128 0x6
 1256 0766 76040000 		.4byte	.LASF85
 1257 076a 0D       		.byte	0xd
 1258 076b 88       		.byte	0x88
 1259 076c D9000000 		.4byte	0xd9
ARM GAS  /tmp/ccGlQPWb.s 			page 35


 1260 0770 08       		.byte	0x8
 1261 0771 00       		.byte	0
 1262 0772 04       		.uleb128 0x4
 1263 0773 77010000 		.4byte	.LASF120
 1264 0777 0D       		.byte	0xd
 1265 0778 89       		.byte	0x89
 1266 0779 45070000 		.4byte	0x745
 1267 077d 19       		.uleb128 0x19
 1268 077e 0F040000 		.4byte	.LASF132
 1269 0782 01       		.byte	0x1
 1270 0783 41       		.byte	0x41
 1271 0784 1B070000 		.4byte	0x71b
 1272 0788 00000000 		.4byte	.LFB272
 1273 078c 10000000 		.4byte	.LFE272-.LFB272
 1274 0790 01       		.uleb128 0x1
 1275 0791 9C       		.byte	0x9c
 1276 0792 AF070000 		.4byte	0x7af
 1277 0796 1A       		.uleb128 0x1a
 1278 0797 62757300 		.ascii	"bus\000"
 1279 079b 01       		.byte	0x1
 1280 079c 41       		.byte	0x41
 1281 079d AF070000 		.4byte	0x7af
 1282 07a1 00000000 		.4byte	.LLST0
 1283 07a5 1B       		.uleb128 0x1b
 1284 07a6 5E040000 		.4byte	.LASF122
 1285 07aa C5070000 		.4byte	0x7c5
 1286 07ae 00       		.byte	0
 1287 07af 09       		.uleb128 0x9
 1288 07b0 04       		.byte	0x4
 1289 07b1 72070000 		.4byte	0x772
 1290 07b5 15       		.uleb128 0x15
 1291 07b6 08060000 		.4byte	0x608
 1292 07ba C5070000 		.4byte	0x7c5
 1293 07be 16       		.uleb128 0x16
 1294 07bf 50040000 		.4byte	0x450
 1295 07c3 0A       		.byte	0xa
 1296 07c4 00       		.byte	0
 1297 07c5 14       		.uleb128 0x14
 1298 07c6 B5070000 		.4byte	0x7b5
 1299 07ca 1C       		.uleb128 0x1c
 1300 07cb FC040000 		.4byte	.LASF124
 1301 07cf 01       		.byte	0x1
 1302 07d0 5A       		.byte	0x5a
 1303 07d1 00000000 		.4byte	.LFB273
 1304 07d5 1E000000 		.4byte	.LFE273-.LFB273
 1305 07d9 01       		.uleb128 0x1
 1306 07da 9C       		.byte	0x9c
 1307 07db 05080000 		.4byte	0x805
 1308 07df 1A       		.uleb128 0x1a
 1309 07e0 62757300 		.ascii	"bus\000"
 1310 07e4 01       		.byte	0x1
 1311 07e5 5A       		.byte	0x5a
 1312 07e6 AF070000 		.4byte	0x7af
 1313 07ea 21000000 		.4byte	.LLST1
 1314 07ee 1D       		.uleb128 0x1d
 1315 07ef 0C010000 		.4byte	.LASF121
 1316 07f3 01       		.byte	0x1
ARM GAS  /tmp/ccGlQPWb.s 			page 36


 1317 07f4 5A       		.byte	0x5a
 1318 07f5 1B070000 		.4byte	0x71b
 1319 07f9 01       		.uleb128 0x1
 1320 07fa 51       		.byte	0x51
 1321 07fb 1B       		.uleb128 0x1b
 1322 07fc 28050000 		.4byte	.LASF123
 1323 0800 15080000 		.4byte	0x815
 1324 0804 00       		.byte	0
 1325 0805 15       		.uleb128 0x15
 1326 0806 08060000 		.4byte	0x608
 1327 080a 15080000 		.4byte	0x815
 1328 080e 16       		.uleb128 0x16
 1329 080f 50040000 		.4byte	0x450
 1330 0813 0B       		.byte	0xb
 1331 0814 00       		.byte	0
 1332 0815 14       		.uleb128 0x14
 1333 0816 05080000 		.4byte	0x805
 1334 081a 1C       		.uleb128 0x1c
 1335 081b D4020000 		.4byte	.LASF125
 1336 081f 01       		.byte	0x1
 1337 0820 71       		.byte	0x71
 1338 0821 00000000 		.4byte	.LFB274
 1339 0825 16000000 		.4byte	.LFE274-.LFB274
 1340 0829 01       		.uleb128 0x1
 1341 082a 9C       		.byte	0x9c
 1342 082b 68080000 		.4byte	0x868
 1343 082f 1A       		.uleb128 0x1a
 1344 0830 62757300 		.ascii	"bus\000"
 1345 0834 01       		.byte	0x1
 1346 0835 71       		.byte	0x71
 1347 0836 AF070000 		.4byte	0x7af
 1348 083a 42000000 		.4byte	.LLST2
 1349 083e 1E       		.uleb128 0x1e
 1350 083f 0A040000 		.4byte	.LASF126
 1351 0843 01       		.byte	0x1
 1352 0844 71       		.byte	0x71
 1353 0845 27070000 		.4byte	0x727
 1354 0849 63000000 		.4byte	.LLST3
 1355 084d 1B       		.uleb128 0x1b
 1356 084e 2C060000 		.4byte	.LASF127
 1357 0852 78080000 		.4byte	0x878
 1358 0856 1F       		.uleb128 0x1f
 1359 0857 16000000 		.4byte	.LVL7
 1360 085b 99080000 		.4byte	0x899
 1361 085f 20       		.uleb128 0x20
 1362 0860 01       		.uleb128 0x1
 1363 0861 52       		.byte	0x52
 1364 0862 03       		.uleb128 0x3
 1365 0863 F3       		.byte	0xf3
 1366 0864 01       		.uleb128 0x1
 1367 0865 51       		.byte	0x51
 1368 0866 00       		.byte	0
 1369 0867 00       		.byte	0
 1370 0868 15       		.uleb128 0x15
 1371 0869 08060000 		.4byte	0x608
 1372 086d 78080000 		.4byte	0x878
 1373 0871 16       		.uleb128 0x16
ARM GAS  /tmp/ccGlQPWb.s 			page 37


 1374 0872 50040000 		.4byte	0x450
 1375 0876 0D       		.byte	0xd
 1376 0877 00       		.byte	0
 1377 0878 14       		.uleb128 0x14
 1378 0879 68080000 		.4byte	0x868
 1379 087d 21       		.uleb128 0x21
 1380 087e B1000000 		.4byte	.LASF128
 1381 0882 0E       		.byte	0xe
 1382 0883 FA06     		.2byte	0x6fa
 1383 0885 89080000 		.4byte	0x889
 1384 0889 0F       		.uleb128 0xf
 1385 088a B8000000 		.4byte	0xb8
 1386 088e 22       		.uleb128 0x22
 1387 088f 636800   		.ascii	"ch\000"
 1388 0892 06       		.byte	0x6
 1389 0893 0B02     		.2byte	0x20b
 1390 0895 E9030000 		.4byte	0x3e9
 1391 0899 23       		.uleb128 0x23
 1392 089a 90040000 		.4byte	.LASF133
 1393 089e 0C       		.byte	0xc
 1394 089f 2402     		.2byte	0x224
 1395 08a1 0C       		.uleb128 0xc
 1396 08a2 33070000 		.4byte	0x733
 1397 08a6 0C       		.uleb128 0xc
 1398 08a7 1B070000 		.4byte	0x71b
 1399 08ab 0C       		.uleb128 0xc
 1400 08ac 27070000 		.4byte	0x727
 1401 08b0 00       		.byte	0
 1402 08b1 00       		.byte	0
 1403              		.section	.debug_abbrev,"",%progbits
 1404              	.Ldebug_abbrev0:
 1405 0000 01       		.uleb128 0x1
 1406 0001 11       		.uleb128 0x11
 1407 0002 01       		.byte	0x1
 1408 0003 25       		.uleb128 0x25
 1409 0004 0E       		.uleb128 0xe
 1410 0005 13       		.uleb128 0x13
 1411 0006 0B       		.uleb128 0xb
 1412 0007 03       		.uleb128 0x3
 1413 0008 0E       		.uleb128 0xe
 1414 0009 1B       		.uleb128 0x1b
 1415 000a 0E       		.uleb128 0xe
 1416 000b 55       		.uleb128 0x55
 1417 000c 17       		.uleb128 0x17
 1418 000d 11       		.uleb128 0x11
 1419 000e 01       		.uleb128 0x1
 1420 000f 10       		.uleb128 0x10
 1421 0010 17       		.uleb128 0x17
 1422 0011 00       		.byte	0
 1423 0012 00       		.byte	0
 1424 0013 02       		.uleb128 0x2
 1425 0014 24       		.uleb128 0x24
 1426 0015 00       		.byte	0
 1427 0016 0B       		.uleb128 0xb
 1428 0017 0B       		.uleb128 0xb
 1429 0018 3E       		.uleb128 0x3e
 1430 0019 0B       		.uleb128 0xb
ARM GAS  /tmp/ccGlQPWb.s 			page 38


 1431 001a 03       		.uleb128 0x3
 1432 001b 08       		.uleb128 0x8
 1433 001c 00       		.byte	0
 1434 001d 00       		.byte	0
 1435 001e 03       		.uleb128 0x3
 1436 001f 24       		.uleb128 0x24
 1437 0020 00       		.byte	0
 1438 0021 0B       		.uleb128 0xb
 1439 0022 0B       		.uleb128 0xb
 1440 0023 3E       		.uleb128 0x3e
 1441 0024 0B       		.uleb128 0xb
 1442 0025 03       		.uleb128 0x3
 1443 0026 0E       		.uleb128 0xe
 1444 0027 00       		.byte	0
 1445 0028 00       		.byte	0
 1446 0029 04       		.uleb128 0x4
 1447 002a 16       		.uleb128 0x16
 1448 002b 00       		.byte	0
 1449 002c 03       		.uleb128 0x3
 1450 002d 0E       		.uleb128 0xe
 1451 002e 3A       		.uleb128 0x3a
 1452 002f 0B       		.uleb128 0xb
 1453 0030 3B       		.uleb128 0x3b
 1454 0031 0B       		.uleb128 0xb
 1455 0032 49       		.uleb128 0x49
 1456 0033 13       		.uleb128 0x13
 1457 0034 00       		.byte	0
 1458 0035 00       		.byte	0
 1459 0036 05       		.uleb128 0x5
 1460 0037 13       		.uleb128 0x13
 1461 0038 01       		.byte	0x1
 1462 0039 03       		.uleb128 0x3
 1463 003a 0E       		.uleb128 0xe
 1464 003b 0B       		.uleb128 0xb
 1465 003c 0B       		.uleb128 0xb
 1466 003d 3A       		.uleb128 0x3a
 1467 003e 0B       		.uleb128 0xb
 1468 003f 3B       		.uleb128 0x3b
 1469 0040 0B       		.uleb128 0xb
 1470 0041 01       		.uleb128 0x1
 1471 0042 13       		.uleb128 0x13
 1472 0043 00       		.byte	0
 1473 0044 00       		.byte	0
 1474 0045 06       		.uleb128 0x6
 1475 0046 0D       		.uleb128 0xd
 1476 0047 00       		.byte	0
 1477 0048 03       		.uleb128 0x3
 1478 0049 0E       		.uleb128 0xe
 1479 004a 3A       		.uleb128 0x3a
 1480 004b 0B       		.uleb128 0xb
 1481 004c 3B       		.uleb128 0x3b
 1482 004d 0B       		.uleb128 0xb
 1483 004e 49       		.uleb128 0x49
 1484 004f 13       		.uleb128 0x13
 1485 0050 38       		.uleb128 0x38
 1486 0051 0B       		.uleb128 0xb
 1487 0052 00       		.byte	0
ARM GAS  /tmp/ccGlQPWb.s 			page 39


 1488 0053 00       		.byte	0
 1489 0054 07       		.uleb128 0x7
 1490 0055 0D       		.uleb128 0xd
 1491 0056 00       		.byte	0
 1492 0057 03       		.uleb128 0x3
 1493 0058 08       		.uleb128 0x8
 1494 0059 3A       		.uleb128 0x3a
 1495 005a 0B       		.uleb128 0xb
 1496 005b 3B       		.uleb128 0x3b
 1497 005c 05       		.uleb128 0x5
 1498 005d 49       		.uleb128 0x49
 1499 005e 13       		.uleb128 0x13
 1500 005f 38       		.uleb128 0x38
 1501 0060 0B       		.uleb128 0xb
 1502 0061 00       		.byte	0
 1503 0062 00       		.byte	0
 1504 0063 08       		.uleb128 0x8
 1505 0064 0D       		.uleb128 0xd
 1506 0065 00       		.byte	0
 1507 0066 03       		.uleb128 0x3
 1508 0067 0E       		.uleb128 0xe
 1509 0068 3A       		.uleb128 0x3a
 1510 0069 0B       		.uleb128 0xb
 1511 006a 3B       		.uleb128 0x3b
 1512 006b 05       		.uleb128 0x5
 1513 006c 49       		.uleb128 0x49
 1514 006d 13       		.uleb128 0x13
 1515 006e 38       		.uleb128 0x38
 1516 006f 0B       		.uleb128 0xb
 1517 0070 00       		.byte	0
 1518 0071 00       		.byte	0
 1519 0072 09       		.uleb128 0x9
 1520 0073 0F       		.uleb128 0xf
 1521 0074 00       		.byte	0
 1522 0075 0B       		.uleb128 0xb
 1523 0076 0B       		.uleb128 0xb
 1524 0077 49       		.uleb128 0x49
 1525 0078 13       		.uleb128 0x13
 1526 0079 00       		.byte	0
 1527 007a 00       		.byte	0
 1528 007b 0A       		.uleb128 0xa
 1529 007c 13       		.uleb128 0x13
 1530 007d 01       		.byte	0x1
 1531 007e 03       		.uleb128 0x3
 1532 007f 0E       		.uleb128 0xe
 1533 0080 0B       		.uleb128 0xb
 1534 0081 0B       		.uleb128 0xb
 1535 0082 3A       		.uleb128 0x3a
 1536 0083 0B       		.uleb128 0xb
 1537 0084 3B       		.uleb128 0x3b
 1538 0085 05       		.uleb128 0x5
 1539 0086 01       		.uleb128 0x1
 1540 0087 13       		.uleb128 0x13
 1541 0088 00       		.byte	0
 1542 0089 00       		.byte	0
 1543 008a 0B       		.uleb128 0xb
 1544 008b 15       		.uleb128 0x15
ARM GAS  /tmp/ccGlQPWb.s 			page 40


 1545 008c 01       		.byte	0x1
 1546 008d 27       		.uleb128 0x27
 1547 008e 19       		.uleb128 0x19
 1548 008f 01       		.uleb128 0x1
 1549 0090 13       		.uleb128 0x13
 1550 0091 00       		.byte	0
 1551 0092 00       		.byte	0
 1552 0093 0C       		.uleb128 0xc
 1553 0094 05       		.uleb128 0x5
 1554 0095 00       		.byte	0
 1555 0096 49       		.uleb128 0x49
 1556 0097 13       		.uleb128 0x13
 1557 0098 00       		.byte	0
 1558 0099 00       		.byte	0
 1559 009a 0D       		.uleb128 0xd
 1560 009b 0F       		.uleb128 0xf
 1561 009c 00       		.byte	0
 1562 009d 0B       		.uleb128 0xb
 1563 009e 0B       		.uleb128 0xb
 1564 009f 00       		.byte	0
 1565 00a0 00       		.byte	0
 1566 00a1 0E       		.uleb128 0xe
 1567 00a2 13       		.uleb128 0x13
 1568 00a3 01       		.byte	0x1
 1569 00a4 03       		.uleb128 0x3
 1570 00a5 0E       		.uleb128 0xe
 1571 00a6 0B       		.uleb128 0xb
 1572 00a7 05       		.uleb128 0x5
 1573 00a8 3A       		.uleb128 0x3a
 1574 00a9 0B       		.uleb128 0xb
 1575 00aa 3B       		.uleb128 0x3b
 1576 00ab 05       		.uleb128 0x5
 1577 00ac 01       		.uleb128 0x1
 1578 00ad 13       		.uleb128 0x13
 1579 00ae 00       		.byte	0
 1580 00af 00       		.byte	0
 1581 00b0 0F       		.uleb128 0xf
 1582 00b1 35       		.uleb128 0x35
 1583 00b2 00       		.byte	0
 1584 00b3 49       		.uleb128 0x49
 1585 00b4 13       		.uleb128 0x13
 1586 00b5 00       		.byte	0
 1587 00b6 00       		.byte	0
 1588 00b7 10       		.uleb128 0x10
 1589 00b8 0D       		.uleb128 0xd
 1590 00b9 00       		.byte	0
 1591 00ba 03       		.uleb128 0x3
 1592 00bb 08       		.uleb128 0x8
 1593 00bc 3A       		.uleb128 0x3a
 1594 00bd 0B       		.uleb128 0xb
 1595 00be 3B       		.uleb128 0x3b
 1596 00bf 0B       		.uleb128 0xb
 1597 00c0 49       		.uleb128 0x49
 1598 00c1 13       		.uleb128 0x13
 1599 00c2 38       		.uleb128 0x38
 1600 00c3 0B       		.uleb128 0xb
 1601 00c4 00       		.byte	0
ARM GAS  /tmp/ccGlQPWb.s 			page 41


 1602 00c5 00       		.byte	0
 1603 00c6 11       		.uleb128 0x11
 1604 00c7 13       		.uleb128 0x13
 1605 00c8 01       		.byte	0x1
 1606 00c9 0B       		.uleb128 0xb
 1607 00ca 0B       		.uleb128 0xb
 1608 00cb 3A       		.uleb128 0x3a
 1609 00cc 0B       		.uleb128 0xb
 1610 00cd 3B       		.uleb128 0x3b
 1611 00ce 0B       		.uleb128 0xb
 1612 00cf 01       		.uleb128 0x1
 1613 00d0 13       		.uleb128 0x13
 1614 00d1 00       		.byte	0
 1615 00d2 00       		.byte	0
 1616 00d3 12       		.uleb128 0x12
 1617 00d4 17       		.uleb128 0x17
 1618 00d5 01       		.byte	0x1
 1619 00d6 0B       		.uleb128 0xb
 1620 00d7 0B       		.uleb128 0xb
 1621 00d8 3A       		.uleb128 0x3a
 1622 00d9 0B       		.uleb128 0xb
 1623 00da 3B       		.uleb128 0x3b
 1624 00db 0B       		.uleb128 0xb
 1625 00dc 01       		.uleb128 0x1
 1626 00dd 13       		.uleb128 0x13
 1627 00de 00       		.byte	0
 1628 00df 00       		.byte	0
 1629 00e0 13       		.uleb128 0x13
 1630 00e1 0D       		.uleb128 0xd
 1631 00e2 00       		.byte	0
 1632 00e3 03       		.uleb128 0x3
 1633 00e4 0E       		.uleb128 0xe
 1634 00e5 3A       		.uleb128 0x3a
 1635 00e6 0B       		.uleb128 0xb
 1636 00e7 3B       		.uleb128 0x3b
 1637 00e8 05       		.uleb128 0x5
 1638 00e9 49       		.uleb128 0x49
 1639 00ea 13       		.uleb128 0x13
 1640 00eb 00       		.byte	0
 1641 00ec 00       		.byte	0
 1642 00ed 14       		.uleb128 0x14
 1643 00ee 26       		.uleb128 0x26
 1644 00ef 00       		.byte	0
 1645 00f0 49       		.uleb128 0x49
 1646 00f1 13       		.uleb128 0x13
 1647 00f2 00       		.byte	0
 1648 00f3 00       		.byte	0
 1649 00f4 15       		.uleb128 0x15
 1650 00f5 01       		.uleb128 0x1
 1651 00f6 01       		.byte	0x1
 1652 00f7 49       		.uleb128 0x49
 1653 00f8 13       		.uleb128 0x13
 1654 00f9 01       		.uleb128 0x1
 1655 00fa 13       		.uleb128 0x13
 1656 00fb 00       		.byte	0
 1657 00fc 00       		.byte	0
 1658 00fd 16       		.uleb128 0x16
ARM GAS  /tmp/ccGlQPWb.s 			page 42


 1659 00fe 21       		.uleb128 0x21
 1660 00ff 00       		.byte	0
 1661 0100 49       		.uleb128 0x49
 1662 0101 13       		.uleb128 0x13
 1663 0102 2F       		.uleb128 0x2f
 1664 0103 0B       		.uleb128 0xb
 1665 0104 00       		.byte	0
 1666 0105 00       		.byte	0
 1667 0106 17       		.uleb128 0x17
 1668 0107 0D       		.uleb128 0xd
 1669 0108 00       		.byte	0
 1670 0109 03       		.uleb128 0x3
 1671 010a 08       		.uleb128 0x8
 1672 010b 3A       		.uleb128 0x3a
 1673 010c 0B       		.uleb128 0xb
 1674 010d 3B       		.uleb128 0x3b
 1675 010e 0B       		.uleb128 0xb
 1676 010f 49       		.uleb128 0x49
 1677 0110 13       		.uleb128 0x13
 1678 0111 00       		.byte	0
 1679 0112 00       		.byte	0
 1680 0113 18       		.uleb128 0x18
 1681 0114 16       		.uleb128 0x16
 1682 0115 00       		.byte	0
 1683 0116 03       		.uleb128 0x3
 1684 0117 0E       		.uleb128 0xe
 1685 0118 3A       		.uleb128 0x3a
 1686 0119 0B       		.uleb128 0xb
 1687 011a 3B       		.uleb128 0x3b
 1688 011b 05       		.uleb128 0x5
 1689 011c 49       		.uleb128 0x49
 1690 011d 13       		.uleb128 0x13
 1691 011e 00       		.byte	0
 1692 011f 00       		.byte	0
 1693 0120 19       		.uleb128 0x19
 1694 0121 2E       		.uleb128 0x2e
 1695 0122 01       		.byte	0x1
 1696 0123 3F       		.uleb128 0x3f
 1697 0124 19       		.uleb128 0x19
 1698 0125 03       		.uleb128 0x3
 1699 0126 0E       		.uleb128 0xe
 1700 0127 3A       		.uleb128 0x3a
 1701 0128 0B       		.uleb128 0xb
 1702 0129 3B       		.uleb128 0x3b
 1703 012a 0B       		.uleb128 0xb
 1704 012b 27       		.uleb128 0x27
 1705 012c 19       		.uleb128 0x19
 1706 012d 49       		.uleb128 0x49
 1707 012e 13       		.uleb128 0x13
 1708 012f 11       		.uleb128 0x11
 1709 0130 01       		.uleb128 0x1
 1710 0131 12       		.uleb128 0x12
 1711 0132 06       		.uleb128 0x6
 1712 0133 40       		.uleb128 0x40
 1713 0134 18       		.uleb128 0x18
 1714 0135 9742     		.uleb128 0x2117
 1715 0137 19       		.uleb128 0x19
ARM GAS  /tmp/ccGlQPWb.s 			page 43


 1716 0138 01       		.uleb128 0x1
 1717 0139 13       		.uleb128 0x13
 1718 013a 00       		.byte	0
 1719 013b 00       		.byte	0
 1720 013c 1A       		.uleb128 0x1a
 1721 013d 05       		.uleb128 0x5
 1722 013e 00       		.byte	0
 1723 013f 03       		.uleb128 0x3
 1724 0140 08       		.uleb128 0x8
 1725 0141 3A       		.uleb128 0x3a
 1726 0142 0B       		.uleb128 0xb
 1727 0143 3B       		.uleb128 0x3b
 1728 0144 0B       		.uleb128 0xb
 1729 0145 49       		.uleb128 0x49
 1730 0146 13       		.uleb128 0x13
 1731 0147 02       		.uleb128 0x2
 1732 0148 17       		.uleb128 0x17
 1733 0149 00       		.byte	0
 1734 014a 00       		.byte	0
 1735 014b 1B       		.uleb128 0x1b
 1736 014c 34       		.uleb128 0x34
 1737 014d 00       		.byte	0
 1738 014e 03       		.uleb128 0x3
 1739 014f 0E       		.uleb128 0xe
 1740 0150 49       		.uleb128 0x49
 1741 0151 13       		.uleb128 0x13
 1742 0152 34       		.uleb128 0x34
 1743 0153 19       		.uleb128 0x19
 1744 0154 00       		.byte	0
 1745 0155 00       		.byte	0
 1746 0156 1C       		.uleb128 0x1c
 1747 0157 2E       		.uleb128 0x2e
 1748 0158 01       		.byte	0x1
 1749 0159 3F       		.uleb128 0x3f
 1750 015a 19       		.uleb128 0x19
 1751 015b 03       		.uleb128 0x3
 1752 015c 0E       		.uleb128 0xe
 1753 015d 3A       		.uleb128 0x3a
 1754 015e 0B       		.uleb128 0xb
 1755 015f 3B       		.uleb128 0x3b
 1756 0160 0B       		.uleb128 0xb
 1757 0161 27       		.uleb128 0x27
 1758 0162 19       		.uleb128 0x19
 1759 0163 11       		.uleb128 0x11
 1760 0164 01       		.uleb128 0x1
 1761 0165 12       		.uleb128 0x12
 1762 0166 06       		.uleb128 0x6
 1763 0167 40       		.uleb128 0x40
 1764 0168 18       		.uleb128 0x18
 1765 0169 9742     		.uleb128 0x2117
 1766 016b 19       		.uleb128 0x19
 1767 016c 01       		.uleb128 0x1
 1768 016d 13       		.uleb128 0x13
 1769 016e 00       		.byte	0
 1770 016f 00       		.byte	0
 1771 0170 1D       		.uleb128 0x1d
 1772 0171 05       		.uleb128 0x5
ARM GAS  /tmp/ccGlQPWb.s 			page 44


 1773 0172 00       		.byte	0
 1774 0173 03       		.uleb128 0x3
 1775 0174 0E       		.uleb128 0xe
 1776 0175 3A       		.uleb128 0x3a
 1777 0176 0B       		.uleb128 0xb
 1778 0177 3B       		.uleb128 0x3b
 1779 0178 0B       		.uleb128 0xb
 1780 0179 49       		.uleb128 0x49
 1781 017a 13       		.uleb128 0x13
 1782 017b 02       		.uleb128 0x2
 1783 017c 18       		.uleb128 0x18
 1784 017d 00       		.byte	0
 1785 017e 00       		.byte	0
 1786 017f 1E       		.uleb128 0x1e
 1787 0180 05       		.uleb128 0x5
 1788 0181 00       		.byte	0
 1789 0182 03       		.uleb128 0x3
 1790 0183 0E       		.uleb128 0xe
 1791 0184 3A       		.uleb128 0x3a
 1792 0185 0B       		.uleb128 0xb
 1793 0186 3B       		.uleb128 0x3b
 1794 0187 0B       		.uleb128 0xb
 1795 0188 49       		.uleb128 0x49
 1796 0189 13       		.uleb128 0x13
 1797 018a 02       		.uleb128 0x2
 1798 018b 17       		.uleb128 0x17
 1799 018c 00       		.byte	0
 1800 018d 00       		.byte	0
 1801 018e 1F       		.uleb128 0x1f
 1802 018f 898201   		.uleb128 0x4109
 1803 0192 01       		.byte	0x1
 1804 0193 11       		.uleb128 0x11
 1805 0194 01       		.uleb128 0x1
 1806 0195 9542     		.uleb128 0x2115
 1807 0197 19       		.uleb128 0x19
 1808 0198 31       		.uleb128 0x31
 1809 0199 13       		.uleb128 0x13
 1810 019a 00       		.byte	0
 1811 019b 00       		.byte	0
 1812 019c 20       		.uleb128 0x20
 1813 019d 8A8201   		.uleb128 0x410a
 1814 01a0 00       		.byte	0
 1815 01a1 02       		.uleb128 0x2
 1816 01a2 18       		.uleb128 0x18
 1817 01a3 9142     		.uleb128 0x2111
 1818 01a5 18       		.uleb128 0x18
 1819 01a6 00       		.byte	0
 1820 01a7 00       		.byte	0
 1821 01a8 21       		.uleb128 0x21
 1822 01a9 34       		.uleb128 0x34
 1823 01aa 00       		.byte	0
 1824 01ab 03       		.uleb128 0x3
 1825 01ac 0E       		.uleb128 0xe
 1826 01ad 3A       		.uleb128 0x3a
 1827 01ae 0B       		.uleb128 0xb
 1828 01af 3B       		.uleb128 0x3b
 1829 01b0 05       		.uleb128 0x5
ARM GAS  /tmp/ccGlQPWb.s 			page 45


 1830 01b1 49       		.uleb128 0x49
 1831 01b2 13       		.uleb128 0x13
 1832 01b3 3F       		.uleb128 0x3f
 1833 01b4 19       		.uleb128 0x19
 1834 01b5 3C       		.uleb128 0x3c
 1835 01b6 19       		.uleb128 0x19
 1836 01b7 00       		.byte	0
 1837 01b8 00       		.byte	0
 1838 01b9 22       		.uleb128 0x22
 1839 01ba 34       		.uleb128 0x34
 1840 01bb 00       		.byte	0
 1841 01bc 03       		.uleb128 0x3
 1842 01bd 08       		.uleb128 0x8
 1843 01be 3A       		.uleb128 0x3a
 1844 01bf 0B       		.uleb128 0xb
 1845 01c0 3B       		.uleb128 0x3b
 1846 01c1 05       		.uleb128 0x5
 1847 01c2 49       		.uleb128 0x49
 1848 01c3 13       		.uleb128 0x13
 1849 01c4 3F       		.uleb128 0x3f
 1850 01c5 19       		.uleb128 0x19
 1851 01c6 3C       		.uleb128 0x3c
 1852 01c7 19       		.uleb128 0x19
 1853 01c8 00       		.byte	0
 1854 01c9 00       		.byte	0
 1855 01ca 23       		.uleb128 0x23
 1856 01cb 2E       		.uleb128 0x2e
 1857 01cc 01       		.byte	0x1
 1858 01cd 3F       		.uleb128 0x3f
 1859 01ce 19       		.uleb128 0x19
 1860 01cf 03       		.uleb128 0x3
 1861 01d0 0E       		.uleb128 0xe
 1862 01d1 3A       		.uleb128 0x3a
 1863 01d2 0B       		.uleb128 0xb
 1864 01d3 3B       		.uleb128 0x3b
 1865 01d4 05       		.uleb128 0x5
 1866 01d5 27       		.uleb128 0x27
 1867 01d6 19       		.uleb128 0x19
 1868 01d7 3C       		.uleb128 0x3c
 1869 01d8 19       		.uleb128 0x19
 1870 01d9 00       		.byte	0
 1871 01da 00       		.byte	0
 1872 01db 00       		.byte	0
 1873              		.section	.debug_loc,"",%progbits
 1874              	.Ldebug_loc0:
 1875              	.LLST0:
 1876 0000 00000000 		.4byte	.LVL0
 1877 0004 0C000000 		.4byte	.LVL1
 1878 0008 0100     		.2byte	0x1
 1879 000a 50       		.byte	0x50
 1880 000b 0C000000 		.4byte	.LVL1
 1881 000f 10000000 		.4byte	.LFE272
 1882 0013 0400     		.2byte	0x4
 1883 0015 F3       		.byte	0xf3
 1884 0016 01       		.uleb128 0x1
 1885 0017 50       		.byte	0x50
 1886 0018 9F       		.byte	0x9f
ARM GAS  /tmp/ccGlQPWb.s 			page 46


 1887 0019 00000000 		.4byte	0
 1888 001d 00000000 		.4byte	0
 1889              	.LLST1:
 1890 0021 00000000 		.4byte	.LVL2
 1891 0025 02000000 		.4byte	.LVL3
 1892 0029 0100     		.2byte	0x1
 1893 002b 50       		.byte	0x50
 1894 002c 02000000 		.4byte	.LVL3
 1895 0030 1E000000 		.4byte	.LFE273
 1896 0034 0400     		.2byte	0x4
 1897 0036 F3       		.byte	0xf3
 1898 0037 01       		.uleb128 0x1
 1899 0038 50       		.byte	0x50
 1900 0039 9F       		.byte	0x9f
 1901 003a 00000000 		.4byte	0
 1902 003e 00000000 		.4byte	0
 1903              	.LLST2:
 1904 0042 00000000 		.4byte	.LVL4
 1905 0046 0A000000 		.4byte	.LVL6
 1906 004a 0100     		.2byte	0x1
 1907 004c 50       		.byte	0x50
 1908 004d 0A000000 		.4byte	.LVL6
 1909 0051 16000000 		.4byte	.LFE274
 1910 0055 0400     		.2byte	0x4
 1911 0057 F3       		.byte	0xf3
 1912 0058 01       		.uleb128 0x1
 1913 0059 50       		.byte	0x50
 1914 005a 9F       		.byte	0x9f
 1915 005b 00000000 		.4byte	0
 1916 005f 00000000 		.4byte	0
 1917              	.LLST3:
 1918 0063 00000000 		.4byte	.LVL4
 1919 0067 08000000 		.4byte	.LVL5
 1920 006b 0100     		.2byte	0x1
 1921 006d 51       		.byte	0x51
 1922 006e 08000000 		.4byte	.LVL5
 1923 0072 15000000 		.4byte	.LVL7-1
 1924 0076 0100     		.2byte	0x1
 1925 0078 52       		.byte	0x52
 1926 0079 15000000 		.4byte	.LVL7-1
 1927 007d 16000000 		.4byte	.LFE274
 1928 0081 0400     		.2byte	0x4
 1929 0083 F3       		.byte	0xf3
 1930 0084 01       		.uleb128 0x1
 1931 0085 51       		.byte	0x51
 1932 0086 9F       		.byte	0x9f
 1933 0087 00000000 		.4byte	0
 1934 008b 00000000 		.4byte	0
 1935              		.section	.debug_aranges,"",%progbits
 1936 0000 2C000000 		.4byte	0x2c
 1937 0004 0200     		.2byte	0x2
 1938 0006 00000000 		.4byte	.Ldebug_info0
 1939 000a 04       		.byte	0x4
 1940 000b 00       		.byte	0
 1941 000c 0000     		.2byte	0
 1942 000e 0000     		.2byte	0
 1943 0010 00000000 		.4byte	.LFB272
ARM GAS  /tmp/ccGlQPWb.s 			page 47


 1944 0014 10000000 		.4byte	.LFE272-.LFB272
 1945 0018 00000000 		.4byte	.LFB273
 1946 001c 1E000000 		.4byte	.LFE273-.LFB273
 1947 0020 00000000 		.4byte	.LFB274
 1948 0024 16000000 		.4byte	.LFE274-.LFB274
 1949 0028 00000000 		.4byte	0
 1950 002c 00000000 		.4byte	0
 1951              		.section	.debug_ranges,"",%progbits
 1952              	.Ldebug_ranges0:
 1953 0000 00000000 		.4byte	.LFB272
 1954 0004 10000000 		.4byte	.LFE272
 1955 0008 00000000 		.4byte	.LFB273
 1956 000c 1E000000 		.4byte	.LFE273
 1957 0010 00000000 		.4byte	.LFB274
 1958 0014 16000000 		.4byte	.LFE274
 1959 0018 00000000 		.4byte	0
 1960 001c 00000000 		.4byte	0
 1961              		.section	.debug_line,"",%progbits
 1962              	.Ldebug_line0:
 1963 0000 BD020000 		.section	.debug_str,"MS",%progbits,1
 1963      02007D02 
 1963      00000201 
 1963      FB0E0D00 
 1963      01010101 
 1964              	.LASF52:
 1965 0000 72656164 		.ascii	"ready_list_t\000"
 1965      795F6C69 
 1965      73745F74 
 1965      00
 1966              	.LASF90:
 1967 000d 77747472 		.ascii	"wttrp\000"
 1967      7000
 1968              	.LASF87:
 1969 0013 7264796D 		.ascii	"rdymsg\000"
 1969      736700
 1970              	.LASF18:
 1971 001a 75696E74 		.ascii	"uint64_t\000"
 1971      36345F74 
 1971      00
 1972              	.LASF4:
 1973 0023 5F5F7569 		.ascii	"__uint8_t\000"
 1973      6E74385F 
 1973      7400
 1974              	.LASF107:
 1975 002d 4F545950 		.ascii	"OTYPER\000"
 1975      455200
 1976              	.LASF84:
 1977 0034 706F7274 		.ascii	"port_intctx\000"
 1977      5F696E74 
 1977      63747800 
 1978              	.LASF71:
 1979 0040 73797374 		.ascii	"system_debug_t\000"
 1979      656D5F64 
 1979      65627567 
 1979      5F7400
 1980              	.LASF115:
 1981 004f 696F706F 		.ascii	"ioportmask_t\000"
ARM GAS  /tmp/ccGlQPWb.s 			page 48


 1981      72746D61 
 1981      736B5F74 
 1981      00
 1982              	.LASF106:
 1983 005c 4D4F4445 		.ascii	"MODER\000"
 1983      5200
 1984              	.LASF13:
 1985 0062 6C6F6E67 		.ascii	"long long unsigned int\000"
 1985      206C6F6E 
 1985      6720756E 
 1985      7369676E 
 1985      65642069 
 1986              	.LASF109:
 1987 0079 50555044 		.ascii	"PUPDR\000"
 1987      5200
 1988              	.LASF88:
 1989 007f 65786974 		.ascii	"exitcode\000"
 1989      636F6465 
 1989      00
 1990              	.LASF78:
 1991 0088 6D61696E 		.ascii	"mainthread\000"
 1991      74687265 
 1991      616400
 1992              	.LASF91:
 1993 0093 73656E74 		.ascii	"sentmsg\000"
 1993      6D736700 
 1994              	.LASF68:
 1995 009b 76697274 		.ascii	"virtual_timers_list_t\000"
 1995      75616C5F 
 1995      74696D65 
 1995      72735F6C 
 1995      6973745F 
 1996              	.LASF128:
 1997 00b1 49544D5F 		.ascii	"ITM_RxBuffer\000"
 1997      52784275 
 1997      66666572 
 1997      00
 1998              	.LASF51:
 1999 00be 63685F74 		.ascii	"ch_threads_queue\000"
 1999      68726561 
 1999      64735F71 
 1999      75657565 
 1999      00
 2000              	.LASF32:
 2001 00cf 705F7072 		.ascii	"p_prio\000"
 2001      696F00
 2002              	.LASF11:
 2003 00d6 6C6F6E67 		.ascii	"long long int\000"
 2003      206C6F6E 
 2003      6720696E 
 2003      7400
 2004              	.LASF1:
 2005 00e4 7369676E 		.ascii	"signed char\000"
 2005      65642063 
 2005      68617200 
 2006              	.LASF110:
 2007 00f0 42535252 		.ascii	"BSRR\000"
ARM GAS  /tmp/ccGlQPWb.s 			page 49


 2007      00
 2008              	.LASF45:
 2009 00f5 705F6D70 		.ascii	"p_mpool\000"
 2009      6F6F6C00 
 2010              	.LASF99:
 2011 00fd 6D5F7175 		.ascii	"m_queue\000"
 2011      65756500 
 2012              	.LASF77:
 2013 0105 76746C69 		.ascii	"vtlist\000"
 2013      737400
 2014              	.LASF121:
 2015 010c 62697473 		.ascii	"bits\000"
 2015      00
 2016              	.LASF8:
 2017 0111 6C6F6E67 		.ascii	"long int\000"
 2017      20696E74 
 2017      00
 2018              	.LASF22:
 2019 011a 74737461 		.ascii	"tstate_t\000"
 2019      74655F74 
 2019      00
 2020              	.LASF15:
 2021 0123 75696E74 		.ascii	"uint16_t\000"
 2021      31365F74 
 2021      00
 2022              	.LASF34:
 2023 012c 705F6E65 		.ascii	"p_newer\000"
 2023      77657200 
 2024              	.LASF96:
 2025 0134 735F7175 		.ascii	"s_queue\000"
 2025      65756500 
 2026              	.LASF108:
 2027 013c 4F535045 		.ascii	"OSPEEDR\000"
 2027      45445200 
 2028              	.LASF57:
 2029 0144 725F6E65 		.ascii	"r_newer\000"
 2029      77657200 
 2030              	.LASF119:
 2031 014c 6D61736B 		.ascii	"mask\000"
 2031      00
 2032              	.LASF81:
 2033 0151 72656761 		.ascii	"regarm_t\000"
 2033      726D5F74 
 2033      00
 2034              	.LASF64:
 2035 015a 76745F70 		.ascii	"vt_prev\000"
 2035      72657600 
 2036              	.LASF114:
 2037 0162 73746D33 		.ascii	"stm32_gpio_t\000"
 2037      325F6770 
 2037      696F5F74 
 2037      00
 2038              	.LASF103:
 2039 016f 6D757465 		.ascii	"mutex_t\000"
 2039      785F7400 
 2040              	.LASF120:
 2041 0177 494F4275 		.ascii	"IOBus\000"
ARM GAS  /tmp/ccGlQPWb.s 			page 50


 2041      7300
 2042              	.LASF27:
 2043 017d 636E745F 		.ascii	"cnt_t\000"
 2043      7400
 2044              	.LASF0:
 2045 0183 756E7369 		.ascii	"unsigned int\000"
 2045      676E6564 
 2045      20696E74 
 2045      00
 2046              	.LASF63:
 2047 0190 76745F6E 		.ascii	"vt_next\000"
 2047      65787400 
 2048              	.LASF130:
 2049 0198 2E2E2F43 		.ascii	"../ChibiOS/os/hal/src/pal.c\000"
 2049      68696269 
 2049      4F532F6F 
 2049      732F6861 
 2049      6C2F7372 
 2050              	.LASF92:
 2051 01b4 77747365 		.ascii	"wtsemp\000"
 2051      6D7000
 2052              	.LASF41:
 2053 01bb 705F6D73 		.ascii	"p_msgqueue\000"
 2053      67717565 
 2053      756500
 2054              	.LASF111:
 2055 01c6 4C434B52 		.ascii	"LCKR\000"
 2055      00
 2056              	.LASF97:
 2057 01cb 735F636E 		.ascii	"s_cnt\000"
 2057      7400
 2058              	.LASF6:
 2059 01d1 73686F72 		.ascii	"short unsigned int\000"
 2059      7420756E 
 2059      7369676E 
 2059      65642069 
 2059      6E7400
 2060              	.LASF48:
 2061 01e4 63685F74 		.ascii	"ch_thread\000"
 2061      68726561 
 2061      6400
 2062              	.LASF25:
 2063 01ee 6D73675F 		.ascii	"msg_t\000"
 2063      7400
 2064              	.LASF74:
 2065 01f4 63685F73 		.ascii	"ch_system_t\000"
 2065      79737465 
 2065      6D5F7400 
 2066              	.LASF21:
 2067 0200 746D6F64 		.ascii	"tmode_t\000"
 2067      655F7400 
 2068              	.LASF76:
 2069 0208 726C6973 		.ascii	"rlist\000"
 2069      7400
 2070              	.LASF53:
 2071 020e 63685F72 		.ascii	"ch_ready_list\000"
 2071      65616479 
ARM GAS  /tmp/ccGlQPWb.s 			page 51


 2071      5F6C6973 
 2071      7400
 2072              	.LASF26:
 2073 021c 6576656E 		.ascii	"eventmask_t\000"
 2073      746D6173 
 2073      6B5F7400 
 2074              	.LASF7:
 2075 0228 5F5F696E 		.ascii	"__int32_t\000"
 2075      7433325F 
 2075      7400
 2076              	.LASF82:
 2077 0232 73746B61 		.ascii	"stkalign_t\000"
 2077      6C69676E 
 2077      5F7400
 2078              	.LASF12:
 2079 023d 5F5F7569 		.ascii	"__uint64_t\000"
 2079      6E743634 
 2079      5F7400
 2080              	.LASF40:
 2081 0248 705F7761 		.ascii	"p_waiting\000"
 2081      6974696E 
 2081      6700
 2082              	.LASF80:
 2083 0252 73697A65 		.ascii	"sizetype\000"
 2083      74797065 
 2083      00
 2084              	.LASF46:
 2085 025b 74687265 		.ascii	"thread_reference_t\000"
 2085      61645F72 
 2085      65666572 
 2085      656E6365 
 2085      5F7400
 2086              	.LASF69:
 2087 026e 63685F76 		.ascii	"ch_virtual_timers_list\000"
 2087      69727475 
 2087      616C5F74 
 2087      696D6572 
 2087      735F6C69 
 2088              	.LASF105:
 2089 0285 636C6561 		.ascii	"clear\000"
 2089      7200
 2090              	.LASF70:
 2091 028b 76745F6C 		.ascii	"vt_lasttime\000"
 2091      61737474 
 2091      696D6500 
 2092              	.LASF35:
 2093 0297 705F6F6C 		.ascii	"p_older\000"
 2093      64657200 
 2094              	.LASF56:
 2095 029f 725F6374 		.ascii	"r_ctx\000"
 2095      7800
 2096              	.LASF86:
 2097 02a5 746D5F63 		.ascii	"tm_calibration_t\000"
 2097      616C6962 
 2097      72617469 
 2097      6F6E5F74 
 2097      00
ARM GAS  /tmp/ccGlQPWb.s 			page 52


 2098              	.LASF59:
 2099 02b6 725F6375 		.ascii	"r_current\000"
 2099      7272656E 
 2099      7400
 2100              	.LASF58:
 2101 02c0 725F6F6C 		.ascii	"r_older\000"
 2101      64657200 
 2102              	.LASF118:
 2103 02c8 706F7274 		.ascii	"portid\000"
 2103      696400
 2104              	.LASF113:
 2105 02cf 41465248 		.ascii	"AFRH\000"
 2105      00
 2106              	.LASF125:
 2107 02d4 70616C53 		.ascii	"palSetBusMode\000"
 2107      65744275 
 2107      734D6F64 
 2107      6500
 2108              	.LASF112:
 2109 02e2 4146524C 		.ascii	"AFRL\000"
 2109      00
 2110              	.LASF23:
 2111 02e7 74726566 		.ascii	"trefs_t\000"
 2111      735F7400 
 2112              	.LASF61:
 2113 02ef 76697274 		.ascii	"virtual_timer_t\000"
 2113      75616C5F 
 2113      74696D65 
 2113      725F7400 
 2114              	.LASF31:
 2115 02ff 705F7072 		.ascii	"p_prev\000"
 2115      657600
 2116              	.LASF24:
 2117 0306 74707269 		.ascii	"tprio_t\000"
 2117      6F5F7400 
 2118              	.LASF72:
 2119 030e 63685F73 		.ascii	"ch_system_debug\000"
 2119      79737465 
 2119      6D5F6465 
 2119      62756700 
 2120              	.LASF104:
 2121 031e 5F426F6F 		.ascii	"_Bool\000"
 2121      6C00
 2122              	.LASF16:
 2123 0324 696E7433 		.ascii	"int32_t\000"
 2123      325F7400 
 2124              	.LASF2:
 2125 032c 756E7369 		.ascii	"unsigned char\000"
 2125      676E6564 
 2125      20636861 
 2125      7200
 2126              	.LASF43:
 2127 033a 705F6D74 		.ascii	"p_mtxlist\000"
 2127      786C6973 
 2127      7400
 2128              	.LASF3:
 2129 0344 73686F72 		.ascii	"short int\000"
ARM GAS  /tmp/ccGlQPWb.s 			page 53


 2129      7420696E 
 2129      7400
 2130              	.LASF37:
 2131 034e 705F7374 		.ascii	"p_state\000"
 2131      61746500 
 2132              	.LASF55:
 2133 0356 725F7072 		.ascii	"r_prio\000"
 2133      696F00
 2134              	.LASF94:
 2135 035d 65776D61 		.ascii	"ewmask\000"
 2135      736B00
 2136              	.LASF30:
 2137 0364 705F6E65 		.ascii	"p_next\000"
 2137      787400
 2138              	.LASF19:
 2139 036b 75696E74 		.ascii	"uint_fast8_t\000"
 2139      5F666173 
 2139      74385F74 
 2139      00
 2140              	.LASF38:
 2141 0378 705F666C 		.ascii	"p_flags\000"
 2141      61677300 
 2142              	.LASF79:
 2143 0380 69646C65 		.ascii	"idle_thread_wa\000"
 2143      5F746872 
 2143      6561645F 
 2143      776100
 2144              	.LASF75:
 2145 038f 63685F73 		.ascii	"ch_system\000"
 2145      79737465 
 2145      6D00
 2146              	.LASF62:
 2147 0399 63685F76 		.ascii	"ch_virtual_timer\000"
 2147      69727475 
 2147      616C5F74 
 2147      696D6572 
 2147      00
 2148              	.LASF95:
 2149 03aa 63685F73 		.ascii	"ch_semaphore\000"
 2149      656D6170 
 2149      686F7265 
 2149      00
 2150              	.LASF42:
 2151 03b7 705F6570 		.ascii	"p_epending\000"
 2151      656E6469 
 2151      6E6700
 2152              	.LASF17:
 2153 03c2 75696E74 		.ascii	"uint32_t\000"
 2153      33325F74 
 2153      00
 2154              	.LASF93:
 2155 03cb 77746D74 		.ascii	"wtmtxp\000"
 2155      787000
 2156              	.LASF54:
 2157 03d2 725F7175 		.ascii	"r_queue\000"
 2157      65756500 
 2158              	.LASF65:
ARM GAS  /tmp/ccGlQPWb.s 			page 54


 2159 03da 76745F64 		.ascii	"vt_delta\000"
 2159      656C7461 
 2159      00
 2160              	.LASF49:
 2161 03e3 63685F74 		.ascii	"ch_threads_list\000"
 2161      68726561 
 2161      64735F6C 
 2161      69737400 
 2162              	.LASF10:
 2163 03f3 6C6F6E67 		.ascii	"long unsigned int\000"
 2163      20756E73 
 2163      69676E65 
 2163      6420696E 
 2163      7400
 2164              	.LASF102:
 2165 0405 63686172 		.ascii	"char\000"
 2165      00
 2166              	.LASF126:
 2167 040a 6D6F6465 		.ascii	"mode\000"
 2167      00
 2168              	.LASF132:
 2169 040f 70616C52 		.ascii	"palReadBus\000"
 2169      65616442 
 2169      757300
 2170              	.LASF5:
 2171 041a 5F5F7569 		.ascii	"__uint16_t\000"
 2171      6E743136 
 2171      5F7400
 2172              	.LASF29:
 2173 0425 74687265 		.ascii	"thread_t\000"
 2173      61645F74 
 2173      00
 2174              	.LASF101:
 2175 042e 6D5F6E65 		.ascii	"m_next\000"
 2175      787400
 2176              	.LASF28:
 2177 0435 73797374 		.ascii	"systime_t\000"
 2177      696D655F 
 2177      7400
 2178              	.LASF44:
 2179 043f 705F7265 		.ascii	"p_realprio\000"
 2179      616C7072 
 2179      696F00
 2180              	.LASF60:
 2181 044a 76746675 		.ascii	"vtfunc_t\000"
 2181      6E635F74 
 2181      00
 2182              	.LASF9:
 2183 0453 5F5F7569 		.ascii	"__uint32_t\000"
 2183      6E743332 
 2183      5F7400
 2184              	.LASF122:
 2185 045e 5F5F6675 		.ascii	"__func__.7076\000"
 2185      6E635F5F 
 2185      2E373037 
 2185      3600
 2186              	.LASF73:
ARM GAS  /tmp/ccGlQPWb.s 			page 55


 2187 046c 70616E69 		.ascii	"panic_msg\000"
 2187      635F6D73 
 2187      6700
 2188              	.LASF85:
 2189 0476 6F666673 		.ascii	"offset\000"
 2189      657400
 2190              	.LASF117:
 2191 047d 696F706F 		.ascii	"ioportid_t\000"
 2191      72746964 
 2191      5F7400
 2192              	.LASF83:
 2193 0488 636F6E74 		.ascii	"context\000"
 2193      65787400 
 2194              	.LASF133:
 2195 0490 5F70616C 		.ascii	"_pal_lld_setgroupmode\000"
 2195      5F6C6C64 
 2195      5F736574 
 2195      67726F75 
 2195      706D6F64 
 2196              	.LASF20:
 2197 04a6 7274636E 		.ascii	"rtcnt_t\000"
 2197      745F7400 
 2198              	.LASF67:
 2199 04ae 76745F70 		.ascii	"vt_par\000"
 2199      617200
 2200              	.LASF131:
 2201 04b5 2F6E6673 		.ascii	"/nfs/nfs4/home/galexeev/classes/P442WifiTrailCounte"
 2201      2F6E6673 
 2201      342F686F 
 2201      6D652F67 
 2201      616C6578 
 2202 04e8 7250726F 		.ascii	"rProject/milestone1\000"
 2202      6A656374 
 2202      2F6D696C 
 2202      6573746F 
 2202      6E653100 
 2203              	.LASF124:
 2204 04fc 70616C57 		.ascii	"palWriteBus\000"
 2204      72697465 
 2204      42757300 
 2205              	.LASF50:
 2206 0508 74687265 		.ascii	"threads_queue_t\000"
 2206      6164735F 
 2206      71756575 
 2206      655F7400 
 2207              	.LASF98:
 2208 0518 63685F6D 		.ascii	"ch_mutex\000"
 2208      75746578 
 2208      00
 2209              	.LASF39:
 2210 0521 705F7265 		.ascii	"p_refs\000"
 2210      667300
 2211              	.LASF123:
 2212 0528 5F5F6675 		.ascii	"__func__.7081\000"
 2212      6E635F5F 
 2212      2E373038 
 2212      3100
ARM GAS  /tmp/ccGlQPWb.s 			page 56


 2213              	.LASF14:
 2214 0536 75696E74 		.ascii	"uint8_t\000"
 2214      385F7400 
 2215              	.LASF129:
 2216 053e 474E5520 		.ascii	"GNU C 4.8.4 20140526 (release) [ARM/embedded-4_8-br"
 2216      4320342E 
 2216      382E3420 
 2216      32303134 
 2216      30353236 
 2217 0571 616E6368 		.ascii	"anch revision 211358] -mcpu=cortex-m4 -mno-thumb-in"
 2217      20726576 
 2217      6973696F 
 2217      6E203231 
 2217      31333538 
 2218 05a4 74657277 		.ascii	"terwork -mthumb -ggdb -O2 -fomit-frame-pointer -fal"
 2218      6F726B20 
 2218      2D6D7468 
 2218      756D6220 
 2218      2D676764 
 2219 05d7 69676E2D 		.ascii	"ign-functions=16 -ffunction-sections -fdata-section"
 2219      66756E63 
 2219      74696F6E 
 2219      733D3136 
 2219      202D6666 
 2220 060a 73202D66 		.ascii	"s -fno-common -flto\000"
 2220      6E6F2D63 
 2220      6F6D6D6F 
 2220      6E202D66 
 2220      6C746F00 
 2221              	.LASF89:
 2222 061e 77746F62 		.ascii	"wtobjp\000"
 2222      6A7000
 2223              	.LASF36:
 2224 0625 705F6E61 		.ascii	"p_name\000"
 2224      6D6500
 2225              	.LASF127:
 2226 062c 5F5F6675 		.ascii	"__func__.7086\000"
 2226      6E635F5F 
 2226      2E373038 
 2226      3600
 2227              	.LASF47:
 2228 063a 74687265 		.ascii	"threads_list_t\000"
 2228      6164735F 
 2228      6C697374 
 2228      5F7400
 2229              	.LASF116:
 2230 0649 696F6D6F 		.ascii	"iomode_t\000"
 2230      64655F74 
 2230      00
 2231              	.LASF100:
 2232 0652 6D5F6F77 		.ascii	"m_owner\000"
 2232      6E657200 
 2233              	.LASF33:
 2234 065a 705F6374 		.ascii	"p_ctx\000"
 2234      7800
 2235              	.LASF66:
 2236 0660 76745F66 		.ascii	"vt_func\000"
ARM GAS  /tmp/ccGlQPWb.s 			page 57


 2236      756E6300 
 2237              		.comm	__gnu_lto_v1,1,1
 2238              		.ident	"GCC: (GNU Tools for ARM Embedded Processors) 4.8.4 20140526 (release) [ARM/embedded-4_8-br
ARM GAS  /tmp/ccGlQPWb.s 			page 58


DEFINED SYMBOLS
                            *ABS*:00000000 pal.c
     /tmp/ccGlQPWb.s:225    .text.palReadBus:00000000 $t
     /tmp/ccGlQPWb.s:231    .text.palReadBus:00000000 palReadBus
     /tmp/ccGlQPWb.s:254    .text.palWriteBus:00000000 $t
     /tmp/ccGlQPWb.s:260    .text.palWriteBus:00000000 palWriteBus
     /tmp/ccGlQPWb.s:291    .text.palSetBusMode:00000000 $t
     /tmp/ccGlQPWb.s:297    .text.palSetBusMode:00000000 palSetBusMode
                            *COM*:00000001 __gnu_lto_v1
                     .debug_frame:00000010 $d

UNDEFINED SYMBOLS
_pal_lld_setgroupmode
