ARM GAS  /tmp/ccwf2nlK.s 			page 1


   1              		.syntax unified
   2              		.cpu cortex-m4
   3              		.fpu softvfp
   4              		.eabi_attribute 20, 1
   5              		.eabi_attribute 21, 1
   6              		.eabi_attribute 23, 3
   7              		.eabi_attribute 24, 1
   8              		.eabi_attribute 25, 1
   9              		.eabi_attribute 26, 1
  10              		.eabi_attribute 30, 2
  11              		.eabi_attribute 34, 1
  12              		.eabi_attribute 18, 4
  13              		.thumb
  14              		.file	"st.c"
  15              		.text
  16              	.Ltext0:
  17              		.section	.gnu.lto_.jmpfuncs.c7e217d23006efab,"",%progbits
  18 0000 789C6362 		.ascii	"x\234cb`b\300\006x\2414+\020322103\26200\000\000\002"
  18      6062C006 
  18      78A1342B 
  18      10333232 
  18      313033B2 
  19 0019 6D0023   		.ascii	"m\000#"
  20              		.text
  21              		.section	.gnu.lto_.inline.c7e217d23006efab,"",%progbits
  22 0000 789C6362 		.ascii	"x\234cb`b\300\006R\2414+\003\003\013\017#X\021\333\002"
  22      6062C006 
  22      52A1342B 
  22      03030B0F 
  22      235811DB 
  23 0015 79B05A46 		.ascii	"y\260ZF.\020\301\300\306\012\024f\373\240\007\027gb"
  23      2E10C1C0 
  23      C60A1466 
  23      FBA00717 
  23      6762
  24 0027 6061060A 		.ascii	"`a\006\0121]\340\207\0131c\012\261`\0121\000\000\232"
  24      315DE087 
  24      0B31630A 
  24      B1600A31 
  24      00009A
  25 003a 48086D   		.ascii	"H\010m"
  26              		.text
  27              		.section	.gnu.lto_.pureconst.c7e217d23006efab,"",%progbits
  28 0000 789C6362 		.ascii	"x\234cb`b\340f\200\000V\006\011F)&)f)\026)\000\004\027"
  28      6062E066 
  28      80005606 
  28      09462926 
  28      29662916 
  29 0018 009F     		.ascii	"\000\237"
  30              		.text
  31              		.section	.gnu.lto_stInit.c7e217d23006efab,"",%progbits
  32 0000 789C6362 		.ascii	"x\234cb`b@\007\222@\\\011\304\262@\314\310\314\300\310"
  32      60624007 
  32      92405C09 
  32      C4B240CC 
  32      C8CCC0C8 
  33 0014 34E11C03 		.ascii	"4\341\034\003C#\007\023##\210\301\300\310P\317\304X"
ARM GAS  /tmp/ccwf2nlK.s 			page 2


  33      43230713 
  33      232388C1 
  33      C0C850CF 
  33      C458
  34 0026 1FC90856 		.ascii	"\037\311\010V\273\236\351\300\203\377\377\327\375X\373"
  34      BB9EE9C0 
  34      83FFFFD7 
  34      FD58FB
  35 0035 B01EA894 		.ascii	"\260\036\250\224\201\201\225\241\245\241a\202\002\003"
  35      818195A1 
  35      A5A16182 
  35      0203
  36 0043 4332583E 		.ascii	"C2X>\004H\2024\20522\201h\346\363\014\315\017\376\331"
  36      04488234 
  36      85323281 
  36      68E6F30C 
  36      CD0FFED9 
  37 0057 24322E64 		.ascii	"$2.dd\005\312V3\374j\350h\020\310d\004\252\206\030\227"
  37      6405CA56 
  37      33FC6AE8 
  37      6810C864 
  37      04AA8618 
  38 006c 09A22F32 		.ascii	"\011\242/24>\370\317\004S\004\001!@\011\240\001 \307"
  38      343EF8CF 
  38      04530401 
  38      214009A0 
  38      0120C7
  39 007f 4AEBE9E9 		.ascii	"J\353\351\351;gd&e\372\007\353\347\027\353g$\346\350"
  39      3B676426 
  39      65FA07EB 
  39      E717EB67 
  39      24E6E8
  40 0092 171725EB 		.ascii	"\027\027%\353\027\227\350%3\000\000\355\343*\327"
  40      1797E825 
  40      330000ED 
  40      E32AD7
  41              		.text
  42              		.section	.gnu.lto_stStartAlarm.c7e217d23006efab,"",%progbits
  43 0000 789C9D91 		.ascii	"x\234\235\221AK\002A\024\307\337\233\335Uou\215 \302"
  43      414B0241 
  43      14C7DF9B 
  43      DD556F75 
  43      8D20C2
  44 0013 6BB583F5 		.ascii	"k\265\203\365\001:\324%P:\270A\235b\265\310\005\305"
  44      013AD425 
  44      503AB841 
  44      9D62B5C8 
  44      05C5
  45 0025 70A5ABB3 		.ascii	"p\245\253\263\"\236E\210\302NJ\021\204\344)\220\272"
  45      229E4588 
  45      C24E4A11 
  45      84E42990 
  45      BA
  46 0036 58B79202 		.ascii	"X\267\222\002\243k\340\027\010\374\000\301\366fT\302"
  46      A36BE017 
  46      08FC00C1 
  46      F66654C2 
ARM GAS  /tmp/ccwf2nlK.s 			page 3


  47 0046 3A043DD8 		.ascii	":\004=\330y;\377y\357\367\177\3140`\3603f\350{B\000"
  47      793BFF79 
  47      EFF77FCC 
  47      3060F033 
  47      66E87B42 
  48 005b 8B326A80 		.ascii	"\2132j\200\254\362\002\340\205\030\242\374\001\204\002"
  48      ACF202E0 
  48      8518A2FC 
  48      018402
  49 006a C3C20EAA 		.ascii	"\303\302\016\252\332\026\353\364}\377\372\266|\331\304"
  49      DA16EBF4 
  49      7DFFFAB6 
  49      7CD9C4
  50 0079 1A0B32CC 		.ascii	"\032\0132\314(\335\200\222\020\225\371\014\322.\251"
  50      28DD8092 
  50      1095F90C 
  50      D22EA9
  51 0088 148B56D9 		.ascii	"\024\213V\331\276\205Lf\355\021\212!\2000\324\205\250"
  51      BE854C66 
  51      ED118A21 
  51      8030D485 
  51      A8
  52 0099 76EECA5D 		.ascii	"v\356\312]\024U\341\015|\177\312A\032i\016e\3336:\210"
  52      1455E10D 
  52      7C7FCA41 
  52      1A690E65 
  52      DB363A88 
  53 00ad F32A317D 		.ascii	"\363*1}r\306\003\302\3003<t?_\337\213\301\221\335\330"
  53      72C603C2 
  53      C0333C74 
  53      3F5FDF8B 
  53      C191DDD8 
  54 00c1 B7D37DEB 		.ascii	"\267\323}\353\031660L\2256\326\321 \232\232b\011\232"
  54      19363630 
  54      4C9536D6 
  54      D1209A9A 
  54      62099A
  55 00d4 A2E4F54F 		.ascii	"\242\344\365O>\216\027\035\324\026\340\212vb\325A\375"
  55      3E8E171D 
  55      D416E08A 
  55      7662D541 
  55      FD
  56 00e5 0C6A5E45 		.ascii	"\014j^EL;hH\267\200\240\320\225q@\331%P\221.\210\244"
  56      4C3B6848 
  56      B780A0D0 
  56      957140D9 
  56      2550912E 
  57 00fb D4E0708A 		.ascii	"\324\340p\212\2212\036\246}\332\272\327l<'\355\033\255"
  57      91321EA6 
  57      7DDABAD7 
  57      6C3C27ED 
  57      1BAD
  58 010d FD89C609 		.ascii	"\375\211\306\011\264&E\011k\377\013\306&a\362u{\340"
  58      B4264509 
  58      6BFF0BC6 
  58      2661F275 
  58      7BE0
ARM GAS  /tmp/ccwf2nlK.s 			page 4


  59 011f 0D1A37FA 		.ascii	"\015\0327\372\360\"\306a\221-\275\203<\2375M\276\226"
  59      F022C661 
  59      912DBD83 
  59      3C9F354D 
  59      BE96
  60 0131 7212CE66 		.ascii	"r\022\316f\234g]\236\262\323\334\315%\271\2337\223\240"
  60      9C675D9E 
  60      B2D3DCCD 
  60      25B99B37 
  60      93A0
  61 0143 E79DCC7E 		.ascii	"\347\235\314~\344w\301a6\227wy\334\212\255,\363ht\235"
  61      E477C161 
  61      36977779 
  61      DC8AAD2C 
  61      F368749D 
  62 0157 5B1BB1A3 		.ascii	"[\033\261\243\010\265\354\246\323{f\012\276\000\313"
  62      08B5ECA6 
  62      D37B660A 
  62      BE00CB
  63 0166 6F8BC9   		.ascii	"o\213\311"
  64              		.text
  65              		.section	.gnu.lto_stStopAlarm.c7e217d23006efab,"",%progbits
  66 0000 789C6362 		.ascii	"x\234cb`b@\007\222@|\024\210\375\201\230\221\231\201"
  66      60624007 
  66      92407C14 
  66      88FD8198 
  66      919981
  67 0013 9169C239 		.ascii	"\221i\3029\006\206F\016&FF\020\203\201\221\241\236\211"
  67      0686460E 
  67      26464610 
  67      838191A1 
  67      9E89
  68 0025 B13E9211 		.ascii	"\261>\222\021\254v=\323\201\007\377\377\257\373\326"
  68      AC763DD3 
  68      8107FFFF 
  68      AFFBD6
  69 0034 36E70DE3 		.ascii	"6\347\015\343l&\026\240\010+CKC\303\004\005\006\206"
  69      6C2616A0 
  69      082B434B 
  69      43C30405 
  69      0686
  70 0046 64B08A10 		.ascii	"d\260\212\020 \011\322\026\312\310\004\242\231\3172"
  70      2009D216 
  70      CAC804A2 
  70      99CF32
  71 0055 1CDA71E7 		.ascii	"\034\332q\347\374\363G\254pu\020\306\201\323\367\016"
  71      FCF347AC 
  71      707510C6 
  71      81D3F70E 
  72 0065 B2323024 		.ascii	"\26220$2.dd\005j\005\353\325fX\325\320\322\370\340\357"
  72      322E6464 
  72      056A05EB 
  72      D56658D5 
  72      D0D2F8E0 
  73 007a 9E69F299 		.ascii	"\236i\362\231\214\014\263\031f5Nh\020\310dd\214`\314"
  73      8C0CB319 
  73      66354E68 
ARM GAS  /tmp/ccwf2nlK.s 			page 5


  73      10C86464 
  73      8C60CC
  74 008d 64646A00 		.ascii	"ddj\000\002\026\0060\023\354\222$\220\226D\306\305@"
  74      02160630 
  74      13EC9224 
  74      909644C6 
  74      C540
  75 009f ED6051B0 		.ascii	"\355`Q\260\340E\206\306\017\217\266\263@L\205\201\020"
  75      E04586C6 
  75      0F8FB6B3 
  75      404C8581 
  75      10
  76 00b0 A0E940A7 		.ascii	"\240\351@\247\200\264I\353\351\351;gd&e\372\007\353"
  76      80B449EB 
  76      E9E93B67 
  76      642665FA 
  76      07EB
  77 00c2 E717EB67 		.ascii	"\347\027\353g$\346\350\027\027%\353\027\227\350%3\030"
  77      24E6E817 
  77      1725EB17 
  77      97E82533 
  77      18
  78 00d3 62CA15E4 		.ascii	"b\312\025\344\027\225\024\353\007\207\370\032\033\351"
  78      179514EB 
  78      0787F81A 
  78      1BE9
  79 00e1 FBF8B8E8 		.ascii	"\373\370\270\350\207x\372\226\031\002U\307\347\344\244"
  79      8778FA96 
  79      190255C7 
  79      E7E4A4
  80 00f0 E8653000 		.ascii	"\350e0\000\000Y\022QV"
  80      00591251 
  80      56
  81              		.text
  82              		.section	.gnu.lto_stSetAlarm.c7e217d23006efab,"",%progbits
  83 0000 789C6550 		.ascii	"x\234eP\277KBQ\024>\337\365=u\2535\202\010\327\352\335"
  83      BF4B4251 
  83      143EDFF5 
  83      3D75AB35 
  83      8208D7EA 
  84 0015 AC3FA0A1 		.ascii	"\254?\240\241\226@i\360\0055\205Z\344\005\305Pi\365"
  84      964069F0 
  84      0535855A 
  84      E405C550 
  84      69F5
  85 0027 3E115CC5 		.ascii	">\021\\\305E(\032\014j\210~P\215-\322\026RP\177\201"
  85      45281A0C 
  85      6A887E50 
  85      8D2DD216 
  85      52507F81 
  86 003b 3447B8B4 		.ascii	"4G\270\264\005\257\363\256:T\007\356=\347|\234\363}"
  86      05AFF3AE 
  86      3A5407EE 
  86      3DE77C9C 
  86      F37D
  87 004d DFBD8204 		.ascii	"\337\275\202\004\375\215)>\213 r9#D\020\315\027\"/*"
  87      FD8D293E 
ARM GAS  /tmp/ccwf2nlK.s 			page 6


  87      8B207239 
  87      234410CD 
  87      17222F2A 
  88 0061 80A02050 		.ascii	"\200\240 PU\240\272\0153{#\272}\337\277\276k\234\177"
  88      55A0BA0D 
  88      337B23BA 
  88      7DDFBFBE 
  88      6B9C7F
  89 0074 E044D802 		.ascii	"\340D\330\002\005\203\333T\327\2729[\000wY\203\270|"
  89      0583DB54 
  89      D7BA395B 
  89      00775983 
  89      B87C
  90 0086 07EB9B10 		.ascii	"\007\353\233\020A\016=Q-J\024\243\216\326\255\356}\243"
  90      410E3D51 
  90      2D4A14A3 
  90      8ED6ADEE 
  90      7DA3
  91 0098 07DDD2DE 		.ascii	"\007\335\322\336\300\367'\024\330\322\014\202\265-("
  91      C0F72714 
  91      D8D20C82 
  91      B52D28
  92 00a7 60D62461 		.ascii	"`\326$a\375\366\270\3174\364L\217\275\357\267\257Zd"
  92      FDF6B8CF 
  92      34F44C8F 
  92      BDEFB7AF 
  92      5A64
  93 00b9 2437D6ED 		.ascii	"$7\326\355\366>o\3554N\021\343\3114:\260\231\315\270"
  93      F63E6FED 
  93      344E11E3 
  93      C9343AB0 
  93      99CDB8
  94 00cc 58A04B5D 		.ascii	"X\240K]\367\372\355\253\366\274Bh\216.\270\323+\012"
  94      F7FAEDAB 
  94      F6BC4268 
  94      8E2EB8D3 
  94      2B0A
  95 00de D6311D79 		.ascii	"\3261\035yM=\251`\007ja\315a\031\341\260\221\313\300"
  95      4D3DA960 
  95      076A61CD 
  95      6119E1B0 
  95      91CBC0
  96 00f1 309D3193 		.ascii	"0\2351\223A#C\027#\304\230y%o\360\376`\015\345\306\341"
  96      41234317 
  96      23C49879 
  96      256FF0FE 
  96      600DE5C6 
  97 0106 B22CBF36 		.ascii	"\262,\2776\370\343i\307\221\2539\225Q\033)Y,\313\\:"
  97      F8E369C7 
  97      91AB3995 
  97      511B2959 
  97      2CCB5C3A 
  98 011a 2FCBA5AC 		.ascii	"/\313\245\254,W\234,Y\025U\330\213\377\0378(\226*e\231"
  98      2C579C2C 
  98      591555D8 
  98      8BFF1F38 
  98      28962A65 
ARM GAS  /tmp/ccwf2nlK.s 			page 7


  99 012f 7293CB4B 		.ascii	"r\223\313K2\221X\223\356z\3620\316+;\371\374\256\223"
  99      32915893 
  99      EE7AF230 
  99      CE2B3BF9 
  99      FCAE93
 100 0142 A31F76FD 		.ascii	"\243\037v\375gl"
 100      676C
 101              		.text
 102              		.section	.gnu.lto_stGetAlarm.c7e217d23006efab,"",%progbits
 103 0000 789C6362 		.ascii	"x\234cb`b@\007\222@\374\014\210\375\201\230\221\231"
 103      60624007 
 103      9240FC0C 
 103      88FD8198 
 103      9199
 104 0012 819169C2 		.ascii	"\201\221i\3029\006\206F\016&FF\020\203\201\221\241\236"
 104      39068646 
 104      0E264646 
 104      10838191 
 104      A19E
 105 0024 89B13E92 		.ascii	"\211\261>\222\021\254v=\323\201\007\377\377\257\373"
 105      11AC763D 
 105      D38107FF 
 105      FFAFFB
 106 0033 D43EEF0D 		.ascii	"\324>\357\015\343|&\026f\206L\2608+CKC\303\004\205\\"
 106      E37C2616 
 106      66864CB0 
 106      382B434B 
 106      43C30485 
 107 0048 1027192C 		.ascii	"\020'\031,\022\002$A\332C\031\231@4\363Y\206Cw\356\234"
 107      12022441 
 107      DA431999 
 107      4034F359 
 107      864377EE 
 108 005d FF6F0455 		.ascii	"\377o\004U\011\323r\340\344?\240\302D\306\205\214\254"
 108      09D372E0 
 108      E43FA0C2 
 108      44C6858C 
 108      AC
 109 006e 408D609D 		.ascii	"@\215`\235\351\214\314\272\014k\032Z\032\037\374\375"
 109      E98CCCBA 
 109      0C6B1A5A 
 109      1A1FFCFD 
 110 007e 335D2A93 		.ascii	"3]*\223\221Q\233a\025\220\3270\2311\223\221i6\303\254"
 110      91519B61 
 110      1590D730 
 110      99319391 
 110      6936C3AC 
 111 0092 C6090D02 		.ascii	"\306\011\015\002\231\214\314\021@.K\003\020\2600\200"
 111      998CCC11 
 111      402E4B03 
 111      10B03080 
 112 00a2 9960E725 		.ascii	"\231`\347%\201LHd\\\0144\015,\312\012\361!T\204\201"
 112      814C4864 
 112      5C0C340D 
 112      2CCA0AF1 
 112      21548481 
 113 00b6 E12243E3 		.ascii	"\341\"C\343\207K\373y \366\001-\202H\207\000-\006\272"
ARM GAS  /tmp/ccwf2nlK.s 			page 8


 113      874BFB79 
 113      20F6012D 
 113      82488700 
 113      2D06BA
 114 00c9 111432D2 		.ascii	"\021\0242\322zz\372\316\031\231I\231\376\301\372\371"
 114      7A7AFACE 
 114      19994999 
 114      FEC1FAF9 
 115 00d9 C5FA1989 		.ascii	"\305\372\031\2119\372\305E\311\372\305%z\311\014\206"
 115      39FAC545 
 115      C9FAC525 
 115      7AC90C86 
 116 00e9 987205F9 		.ascii	"\230r\005\371E%\305\372\301!\276\306F\372>>.\372!\236"
 116      4525C5FA 
 116      C121BEC6 
 116      46FA3E3E 
 116      2EFA219E 
 117 00fd BE658640 		.ascii	"\276e\206@\325\36199)z\031\014\000[\223W<"
 117      D5F13939 
 117      297A190C 
 117      005B9357 
 117      3C
 118              		.text
 119              		.section	.gnu.lto_.symbol_nodes.c7e217d23006efab,"",%progbits
 120 0000 789C4DC7 		.ascii	"x\234M\307\261\015\2000\020\004\301\3735\256\224B\316"
 120      B10D8030 
 120      1004C1FB 
 120      35AE9442 
 120      CE
 121 0011 1209A101 		.ascii	"\022\011\241\001\223R\0225P\011\"\000\011O6\010\215"
 121      93521235 
 121      50092200 
 121      094F3608 
 121      8D
 122 0022 FA50B154 		.ascii	"\372P\261TO\311>\346`\301\321u\305t\335p\352\332\360"
 122      4FC93EE6 
 122      60C1D175 
 122      C574DD70 
 122      EADAF0
 123 0035 F037769C 		.ascii	"\3607v\234\337\226\022IY\323u\207\036\334\301\035\316"
 123      DF961249 
 123      59D37587 
 123      1EDCC11D 
 123      CE
 124              		.text
 125              		.section	.gnu.lto_.refs.c7e217d23006efab,"",%progbits
 126 0000 789C6362 		.ascii	"x\234cb`b`d\200\002\000\000F\000\006"
 126      60626064 
 126      80020000 
 126      460006
 127              		.text
 128              		.section	.gnu.lto_.decls.c7e217d23006efab,"",%progbits
 129 0000 789CBD58 		.ascii	"x\234\275Xkl\024U\024\276wv[v\333\245\024P\2541\221"
 129      6B6C1455 
 129      14BE7776 
 129      5B76DBA5 
 129      1450AC31 
ARM GAS  /tmp/ccwf2nlK.s 			page 9


 130 0015 4A841892 		.ascii	"J\204\030\222v\332\005y\374ApK(\011\005\262-I\023\177"
 130      76DA0579 
 130      FC41704B 
 130      280905B2 
 130      2D49137F 
 131 0029 ACD3DD81 		.ascii	"\254\323\335\201\335\244\335\326\335\251\206\177\267"
 131      DDA4DDD6 
 131      DDA9867F 
 131      B7
 132 0036 2D101431 		.ascii	"-\020\0241\245<\254\206\300\362\206\004\324T\254\026"
 132      A53CAC86 
 132      C0F28604 
 132      D454AC16 
 133 0046 792C8F42 		.ascii	"y,\217B#>\200\012\012UYC\260>C\015\341)t=sgfwf:SfIt"
 133      233E800A 
 133      0A555943 
 133      B03E430D 
 133      E129743D 
 134 0064 92737A77 		.ascii	"\222szw\346\234\357~\367\234sg\316-\203\030\264\031"
 134      E69CEF7E 
 134      F79C7367 
 134      CE2D8318 
 134      B419
 135 0076 2394846B 		.ascii	"#\224\204k\302X\204\0362\010e#\204f\241\364%\376\336"
 135      C258841E 
 135      32086523 
 135      8466A1F4 
 135      25FEDE
 136 0089 06B21BA4 		.ascii	"\006\262\033\244\023\244\013\344\010\310q4\364\022\355"
 136      13A40BE4 
 136      08C87134 
 136      F412ED
 137 0098 00029D04 		.ascii	"\000\002\235\004\331.\337c\344\373F\366\"\246\003d\037"
 137      D92EDF63 
 137      E4FB46F6 
 137      22A60364 
 137      1F
 138 00a9 481E880B 		.ascii	"H\036\210\013\344\024H7H\017\310]\020;\210\015\244\037"
 138      E4144837 
 138      480FC85D 
 138      103B880D 
 138      A41F
 139 00bb E42248AF 		.ascii	"\344\"H\257\214)\372\336\223\307\037\203\014\352\260"
 139      8C29FADE 
 139      93C71F83 
 139      0CEAB0
 140 00ca 3B65BF53 		.ascii	";e\277S*,\254\362\027\237;\360PN]\0269a\231\023#\373"
 140      2A2CACF2 
 140      179F3BF0 
 140      504E5D16 
 140      39619913 
 141 00e0 E46269FC 		.ascii	"\344bi\3749\310(\035\256\030\257l\031\363QX\242\355"
 141      39C8281D 
 141      AE18AF6C 
 141      19F35158 
 141      A2ED
 142 00f2 1358BAF7 		.ascii	"\023X\272\367\224\016g<\332Bb\211\304\312\255g1i#\017"
ARM GAS  /tmp/ccwf2nlK.s 			page 10


 142      940E673C 
 142      DA426289 
 142      C4CAAD67 
 142      3169230F 
 143 0106 92491B1A 		.ascii	"\222I\033\032\2076\022\270b\253\010\301\002\207g=\211"
 143      873612B8 
 143      62AB08C1 
 143      0287673D 
 143      89
 144 0117 AA3187F3 		.ascii	"\2521\207\363\234\250\220\016\\N:\001B\034\336\216\307"
 144      9CA8900E 
 144      5C4E3A01 
 144      421CDE8E 
 144      C7
 145 0128 C9A32536 		.ascii	"\311\243%6\011\216A\317b4\031\355\003\377VB\266\217"
 145      098E41CF 
 145      623419ED 
 145      03FF5642 
 145      B68F
 146 013a 1D1A0CB8 		.ascii	"\035\032\014\270&\241]\342\004d/\261Qx\021`\033\036"
 146      26A15DE2 
 146      04642FB1 
 146      51781160 
 146      1B1E
 147 014c AF36E1F0 		.ascii	"\2576\341\360\016\314\350y&\006\342\207N\273Z\233\022"
 147      0ECCE879 
 147      2606E287 
 147      4EBB5A9B 
 147      12
 148 015d C9E478EB 		.ascii	"\311\344x\353$\367\310$m4\026\310\211V\023\322,:\226"
 148      24F7C824 
 148      6D3416C8 
 148      895613D2 
 148      2C3A96
 149 0170 F740328C 		.ascii	"\367@2\214\274&\242\235@?\321u\240\227!\304\301\341"
 149      BC26A29D 
 149      403FD175 
 149      A09721C4 
 149      C1E1
 150 0182 7DD809BE 		.ascii	"}\330\011\276\225\030\300v\342\3112!\3538\377\254\352"
 150      9518C076 
 150      E2C93221 
 150      EB38FFAC 
 150      EA
 151 0193 3E8E9B81 		.ascii	">\216\233\201'\207\367S\244\363\370q\241n\275sx&\245"
 151      2787F753 
 151      A4F3F871 
 151      A16EBD73 
 151      7826A5
 152 01a6 F42105BA 		.ascii	"\364!\005\272\312h\2018<\302\251\215\"\374V\014D4\372"
 152      CA688138 
 152      3CC2A98D 
 152      22FC560C 
 152      4434FA
 153 01b9 581E883B 		.ascii	"X\036\210;t\024\372\217\315\323\225A\213\343w\035\341"
 153      7414FA8F 
 153      CDD39541 
ARM GAS  /tmp/ccwf2nlK.s 			page 11


 153      8BE3771D 
 153      E1
 154 01ca E7D10E42 		.ascii	"\347\321\016B\332\022\273\372\177\265\275G\342v%\324"
 154      DA12BBFA 
 154      7FB5BD47 
 154      E27625D4 
 155 01da 77A8D96E 		.ascii	"w\250\331n(\011\243XHV\351:ZKV\346\343T!\355\326\027"
 155      2809A358 
 155      4856E93A 
 155      5A4B56E6 
 155      E35421ED 
 156 01f0 52876121 		.ascii	"R\207a!\335V\012I\252b\006%u\324\214\313\264S\217\376"
 156      DD560A49 
 156      AA620625 
 156      75D48CCB 
 156      B4538FFE 
 157 0204 A9217AC7 		.ascii	"\251!z\307\231\024\372\036\212\276\306f\264pr'P.\255"
 157      9914FA1E 
 157      8ABEC666 
 157      B4707227 
 157      502EAD
 158 0217 86C30701 		.ascii	"\206\303\007\001\210\303]\217\265\346.=\253C\206\254"
 158      88C35D8F 
 158      B5E62E3D 
 158      AB4386AC 
 159 0227 6E9E59FB 		.ascii	"n\236Y\3734\2115\307\223\311\227\364\233\\D7\333@G\015"
 159      348935C7 
 159      93C997F4 
 159      9B5C4437 
 159      DB40470D 
 160 023b 76F9269B 		.ascii	"v\371&\233a\264\232I\307^\342T\310r\370\210\311rd\274"
 160      61B49A49 
 160      C75EE254 
 160      C872F888 
 160      C97264BC 
 161 024f 6306345B 		.ascii	"c\0064[\023\353\373\0366\341u-\261\0362 \326\220\222"
 161      13EBFB1E 
 161      36E1752D 
 161      B11E3220 
 161      D69092
 162 0262 A0DE2153 		.ascii	"\240\336!SJ '\264 \271\350\255\364f\222|\315\026v\022"
 162      4A2027B4 
 162      20B9E8AD 
 162      F466927C 
 162      CD167612 
 163 0276 E72A5E74 		.ascii	"\347*^t\013\266\014\273\0059|\000O\264T\364\243Q\253"
 163      0BB60CBB 
 163      05397C00 
 163      4FB454F4 
 163      A351AB
 164 0289 18DB4271 		.ascii	"\030\333Bq\376S\351\300\022\254\300\345\3239\325f\373"
 164      FE53E9C0 
 164      12ACC0E5 
 164      D339D566 
 164      FB
 165 029a CDCD387C 		.ascii	"\315\3158|\032\217N\223$\251\245\271\314SvF*\026\345"
 165      1A8F4E93 
ARM GAS  /tmp/ccwf2nlK.s 			page 12


 165      24A9A5B9 
 165      CC537646 
 165      2A16E5
 166 02ad 766A90DE 		.ascii	"vj\220\336\213j+4\006\255\223\231\244\226N\262\025\237"
 166      8B6A2B34 
 166      06AD9399 
 166      A4964EB2 
 166      159F
 167 02bf 5751EAF5 		.ascii	"WQ\352\365\223\334rg\032}\375\364\3401\220\221\015v"
 167      93DC7267 
 167      1A7DFDF4 
 167      E0319091 
 167      0D76
 168 02d1 6D461E09 		.ascii	"mF\036\011#Nz\026\\%'\012J\342\353\373\\\304.\335G\006"
 168      234E7A16 
 168      5C25270A 
 168      4AE2EBFB 
 168      5CC42EDD 
 169 02e7 0996AFE7 		.ascii	"\011\226\257\347P\214\254h\211o\354\333\014%|\002K\201"
 169      508CAC68 
 169      896FECDB 
 169      0C257C02 
 169      4B81
 170 02f9 65508C52 		.ascii	"eP\214R\020}\215B\221Z\276\022\213<\247\016oS\237\253"
 170      107D8D42 
 170      915ABE12 
 170      8B3CA70E 
 170      6F539FAB 
 171 030d 9553C076 		.ascii	"\225S\300vf\014V\250\001kW\203\355\265\002\3460g\366"
 171      660C56A8 
 171      016B5783 
 171      EDB502E6 
 171      3067F6
 172 0320 BE1AEC40 		.ascii	"\276\032\354@\306`Zf\233\325`\035V\300\362\315\231m"
 172      C6605A66 
 172      9BD5601D 
 172      56C0F2CD 
 172      996D
 173 0332 51837D92 		.ascii	"Q\203}\2221\230\226\331Gj\260.+`\005\346\314:\324`\307"
 173      319896D9 
 173      476AB02E 
 173      2B6005E6 
 173      CC3AD460 
 174 0347 3206D332 		.ascii	"2\006\3232;\250\006\353\266\002Vh\316\254S\015\366E"
 174      3BA806EB 
 174      B6025668 
 174      CEAC530D 
 174      F645
 175 0359 C6605A66 		.ascii	"\306`Zf\237\251\301\276\266\002\366\2029\263Cj\260\013"
 175      9FA9C1BE 
 175      B602F682 
 175      39B3436A 
 175      B00B
 176 036b 19836999 		.ascii	"\031\203i\231\035V\203]\262\002Vb\306\254)~\364\025"
 176      1D56835D 
 176      B2025662 
 176      C6AC297E 
ARM GAS  /tmp/ccwf2nlK.s 			page 13


 176      F415
 177 037d 11AB1B5E 		.ascii	"\021\253\033^~\014\272\242\307\322\276%\215\300\264"
 177      7E0CBAA2 
 177      C7D2BE25 
 177      8DC0B4
 178 038c CCCEA999 		.ascii	"\314\316\251\231\375d\205\331ls\260\013j\260kV\300\312"
 178      FD6485D9 
 178      6C73B00B 
 178      6AB06B56 
 178      C0CA
 179 039e CD13F0AD 		.ascii	"\315\023\360\255\032\254?c0-\263Kj\260?\255\200-6g\366"
 179      1AAC3F63 
 179      302DB34B 
 179      6AB03FAD 
 179      802D3667 
 180 03b3 BD1AEC46 		.ascii	"\275\032\354F\306`jfM\361+\220M\371\213\027\233\255"
 180      C6606A66 
 180      4DF12B90 
 180      4DF98B17 
 180      9BAD
 181 03c5 FB32CED6 		.ascii	"\3732\316\326\276\3024f\373M\3158|+\343\017\343m\223"
 181      BEC23466 
 181      FB4DCD38 
 181      7C2BE30F 
 181      E36D93
 182 03d8 0FA3FA54 		.ascii	"\017\243\372T\224\266\202e\337\322/[CB\036V\033\304"
 182      94B68265 
 182      DFD22F5B 
 182      43421E56 
 182      1BC4
 183 03ea D0E8527F 		.ascii	"\320\350R\177\3758\374%m'\276\302\317\201\376\206\352"
 183      FD38FC25 
 183      6D27BEC2 
 183      CF81FE86 
 183      EA
 184 03fb F354F752 		.ascii	"\363T\367R}\221\352\357\250\276Lu\037\325?R}\225\352"
 184      7D91EAEF 
 184      A8BE4C75 
 184      1FD53F52 
 184      7D95EA
 185 040e 9FA9BE46 		.ascii	"\237\251\276F\365u\252\373\251\376\215\352?\250\376"
 185      F575AAFB 
 185      A9FE8DEA 
 185      3FA8FE
 186 041d 8BEA1B54 		.ascii	"\213\352\033T\377M\365M\320\251K\327.\365\230\344W\344"
 186      FF4DF54D 
 186      D0A94BD7 
 186      2EF598E4 
 186      57E4
 187 042f 7E37DD2E 		.ascii	"~7\335.\211\235Z|\000:\265\037N\340\266\026\"uj1\207"
 187      899D5A7C 
 187      003AB51F 
 187      4EE0B616 
 187      22756A31 
 188 0444 D2EDDED7 		.ascii	"\322\355\336\3275\006r\267\333\313\227+\035\376\332"
 188      350672B7 
 188      DBCB972B 
ARM GAS  /tmp/ccwf2nlK.s 			page 14


 188      1DFEDA
 189 0453 2CD1E29E 		.ascii	",\321\342\236\305n\3672Y\\\220jv\357\351\233\335\373"
 189      C56EF732 
 189      595C906A 
 189      76EFE99B 
 189      DDFB
 190 0465 DA067002 		.ascii	"\332\006p\002\332F\316\235K\\\357o\307\253\023p\012"
 190      DA46CE9D 
 190      4B5CEF6F 
 190      C7AB1370 
 190      0A
 191 0476 1D4C26B1 		.ascii	"\035L&\261\322j\265\347\311g\255\304\256xA{\272Mq\250"
 191      D26AB5E7 
 191      C967ADC4 
 191      AE78417B 
 191      BA4D71A8 
 192 048a EB40EA4B 		.ascii	"\353@\352K\300\201I\031\223\202\002c[\01671b\026\233"
 192      C0814919 
 192      93820263 
 192      5B0E3731 
 192      62169B
 193 049d 99745D49 		.ascii	"\231t]Ice\224\244\207\370\266,\203\377\013H\364\207"
 193      636594A4 
 193      87F8B62C 
 193      83FF0B48 
 193      F487
 194 04af 7795270D 		.ascii	"w\225'\015*\223\216\244\266\351\365H\226\306V\034^\301"
 194      2A938EA4 
 194      B6E9F548 
 194      96C6561C 
 194      5EC1
 195 04c1 64BA4156 		.ascii	"d\272AV2\306\033\304\245\341\254X\301\312\336\315\322"
 195      32C61BC4 
 195      A5E1AC58 
 195      C1CADECD 
 195      D2
 196 04d2 9DD57424 		.ascii	"\235\325t$\240G\223\327\316\341\034\254*\235_t\245#"
 196      A04793D7 
 196      CEE11CAC 
 196      2A9D5F74 
 196      A523
 197 04e4 75F91F64 		.ascii	"u\371\037dY9\206\255ft5\360&3\344$\021\037\210_8+\035"
 197      593986AD 
 197      667435F0 
 197      2633E424 
 197      111F885F 
 198 04fb C3B6C6F3 		.ascii	"\303\266\306\363\225\322\214g\031\226\3461>u\020{@\017"
 198      95D28C67 
 198      1996E631 
 198      3E75107B 
 198      400F
 199 050d 626B98C7 		.ascii	"bk\230\307(\3155zZo3\206\245y\333\26049L\322\251\254"
 199      28CD357A 
 199      5A6F3386 
 199      A579DBB0 
 199      34394CD2 
 200 0523 5626CD1D 		.ascii	"V&\315\035.\341:+\016\257\3138\341m&\011\317\321,D\261"
ARM GAS  /tmp/ccwf2nlK.s 			page 15


 200      2EE13A2B 
 200      0EAFCB38 
 200      E16D2609 
 200      CFD12C44 
 201 0538 82E12A46 		.ascii	"\202\341*FwP\325\221`\320y\343\204\017\266\341\365\352"
 201      7750D591 
 201      60D079E3 
 201      840FB6E1 
 201      F5EA
 202 054a 841FA509 		.ascii	"\204\037\245\011\271j\234p\375Ir\203I>\344\2116\032"
 202      B96A9C70 
 202      FD497283 
 202      493EE489 
 202      361A
 203 055c 077A5015 		.ascii	"\007zP\025h\016\267Bp\024\376G\206\341?\240\341\217"
 203      680EB742 
 203      7014FE47 
 203      86E13FA0 
 203      E18F
 204 056e 9E292E66 		.ascii	"\236).f=\301PMhQ%[\037e\203\\-\033\215\370\331\250P"
 204      3DC1504D 
 204      6851255B 
 204      1F65835C 
 204      2D1B8DF8 
 205 0585 EC47D951 		.ascii	"\354G\331Qa~8$d\317[\270\244\320\203&i-#\002\033\012"
 205      617E3824 
 205      64CF5BB8 
 205      A4D08326 
 205      692D2302 
 206 059b FB6B1B03 		.ascii	"\373k\033\003<\353\017F\227G\205\345\015|\2648\210\234"
 206      3CEB0F46 
 206      974785E5 
 206      0D7CB438 
 206      889C
 207 05ad E23854C7 		.ascii	"\3428T\307\373\204(\033^J\345E6X_\307\263\021>\312s"
 207      FB84281B 
 207      5E4AE545 
 207      36585FC7 
 207      B3113ECA 
 208 05c2 117F1026 		.ascii	"\021\177\020&\211\004\336\340\"<\313E\352\334\3542\277"
 208      8904DEE0 
 208      223CCB45 
 208      EADCEC32 
 208      BF
 209 05d3 BF080645 		.ascii	"\277\010\006E|]\015\037\010\360\201\324\215p}\230/\342"
 209      7C5D0D1F 
 209      08F081D4 
 209      8D707D98 
 209      2FE2
 210 05e5 B99A50D1 		.ascii	"\271\232P\321T\337\214\"wI\351\324\327\334\254\346A"
 210      54DF8C22 
 210      7749E9D4 
 210      D7DCACE6 
 210      41
 211 05f6 8A415408 		.ascii	"\212AT\010\204\302\002\314\356h\204\277S\334>\241\005"
 211      84C202CC 
 211      EE6884BF 
ARM GAS  /tmp/ccwf2nlK.s 			page 16


 211      53DC3EA1 
 211      05
 212 0607 FF7FB3D7 		.ascii	"\377\177\263\327q\376`(\314\263\276\000\277\224k\254"
 212      71FE6028 
 212      CCB3BE00 
 212      BF946BAC 
 213 0617 157C4A2C 		.ascii	"\025|J,r|>\205\217+*T\012\\D\230S\013\030#\270\032\032"
 213      727C3E85 
 213      8F2B2A54 
 213      0A5C4498 
 213      530B1823 
 214 062e A35CF166 		.ascii	"\243\\\361f}\003\275\227\003c^P\206\363\344a\351\320"
 214      7D03BD97 
 214      03635E50 
 214      86F3E461 
 214      E9D0
 215 0640 F434D447 		.ascii	"\3644\324G \264\225U\025S\334\354\202\005el\325\374"
 215      20B49555 
 215      1553DCEC 
 215      8205656C 
 215      D5FC
 216 0652 8AD74B21 		.ascii	"\212\327K!\002\276\332\332\000\314\231+\215|!\310\334"
 216      02BEDADA 
 216      00CC992B 
 216      8D7C21C8 
 216      DC
 217 0663 54EBDE75 		.ascii	"T\353\336u\"\311P\235\004 \377\360\0116\217\267\024"
 217      22C9509D 
 217      0420FFF0 
 217      09368FB7 
 217      14
 218 0674 C46DAFAC 		.ascii	"\304m\257\254\360x\355e\363\347z\231J\257m\356<o\226"
 218      F078ED65 
 218      F3E77A99 
 218      4AAF6DEE 
 218      3C6F96
 219 0687 C753E12D 		.ascii	"\307S\341-\245\332m\367x\346zm\236\205U\266\305\225"
 219      A5DA6DF7 
 219      78E67A6D 
 219      9E8555B6 
 219      C595
 220 0699 1EDB1CAF 		.ascii	"\036\333\034\257\327\346\365\300opx\271\254\312k+\023"
 220      D7E6F5C0 
 220      6F7078B9 
 220      ACCA6B2B 
 220      13
 221 06aa 3D2BE678 		.ascii	"=+\346x\231E\222\327\024\260\257\366\216\221iF\305\240"
 221      994592D7 
 221      14B0AFF6 
 221      8E916946 
 221      C5A0
 222 06bc F83871AD 		.ascii	"\3708q\255v1$v?\344\307\341\363-m\014\373}\276\221\312"
 222      76312476 
 222      3FE4C7E1 
 222      F32D6D0C 
 222      FB7DBE91 
 223 06d1 A0787AC9 		.ascii	"\240xz\311\364\231\243S>\365\015\222K\276r\207\2271"
ARM GAS  /tmp/ccwf2nlK.s 			page 17


 223      F499A353 
 223      3EF50D92 
 223      4BBE7287 
 223      9731
 224 06e3 D40E33A6 		.ascii	"\324\0163\246)\217\227\031=\236Y\362/p\267\252#"
 224      298F9719 
 224      3D9E59F2 
 224      2F70B7AA 
 224      23
 225              		.text
 226              		.section	.gnu.lto_.symtab.c7e217d23006efab,"",%progbits
 227 0000 7374496E 		.ascii	"stInit\000\000\000\000\000\000\000\000\000\000\000\000"
 227      69740000 
 227      00000000 
 227      00000000 
 227      0000
 228 0012 A1000000 		.ascii	"\241\000\000\000stStartAlarm\000\000\000\000\000\000"
 228      73745374 
 228      61727441 
 228      6C61726D 
 228      00000000 
 229 0028 00000000 		.ascii	"\000\000\000\000\000\000\246\000\000\000stStopAlarm"
 229      0000A600 
 229      00007374 
 229      53746F70 
 229      416C6172 
 230 003d 00000000 		.ascii	"\000\000\000\000\000\000\000\000\000\000\000\000\266"
 230      00000000 
 230      00000000 
 230      B6
 231 004a 00000073 		.ascii	"\000\000\000stSetAlarm\000\000\000\000\000\000\000\000"
 231      74536574 
 231      416C6172 
 231      6D000000 
 231      00000000 
 232 005f 00000000 		.ascii	"\000\000\000\000\271\000\000\000stGetAlarm\000\000\000"
 232      B9000000 
 232      73744765 
 232      74416C61 
 232      726D0000 
 233 0074 00000000 		.ascii	"\000\000\000\000\000\000\000\000\000\275\000\000\000"
 233      00000000 
 233      00BD0000 
 233      00
 234 0081 73745F6C 		.ascii	"st_lld_init\000\000\002\000\000\000\000\000\000\000"
 234      6C645F69 
 234      6E697400 
 234      00020000 
 234      00000000 
 235 0096 0000C100 		.ascii	"\000\000\301\000\000\000"
 235      0000
 236              		.text
 237              		.section	.gnu.lto_.opts,"",%progbits
 238 0000 272D6D63 		.ascii	"'-mcpu=cortex-m4' '-mno-thumb-interwork' '-mthumb' "
 238      70753D63 
 238      6F727465 
 238      782D6D34 
ARM GAS  /tmp/ccwf2nlK.s 			page 18


 238      2720272D 
 239 0033 272D6767 		.ascii	"'-ggdb' '-O2' '-fomit-frame-pointer' '-falign-funct"
 239      64622720 
 239      272D4F32 
 239      2720272D 
 239      666F6D69 
 240 0066 696F6E73 		.ascii	"ions=16' '-ffunction-sections' '-fdata-sections' '-"
 240      3D313627 
 240      20272D66 
 240      66756E63 
 240      74696F6E 
 241 0099 666E6F2D 		.ascii	"fno-common' '-flto'\000"
 241      636F6D6D 
 241      6F6E2720 
 241      272D666C 
 241      746F2700 
 242              		.text
 243              		.cfi_sections	.debug_frame
 244              		.section	.text.stInit,"ax",%progbits
 245              		.align	2
 246              		.p2align 4,,15
 247              		.global	stInit
 248              		.thumb
 249              		.thumb_func
 250              		.type	stInit, %function
 251              	stInit:
 252              	.LFB272:
 253              		.file 1 "../ChibiOS/os/hal/src/st.c"
 254              		.loc 1 60 0
 255              		.cfi_startproc
 256              		@ args = 0, pretend = 0, frame = 0
 257              		@ frame_needed = 0, uses_anonymous_args = 0
 258              		@ link register save eliminated.
 259              		.loc 1 62 0
 260 0000 FFF7FEBF 		b	st_lld_init
 261              	.LVL0:
 262              		.cfi_endproc
 263              	.LFE272:
 264              		.size	stInit, .-stInit
 265 0004 AFF30080 		.section	.text.stStartAlarm,"ax",%progbits
 265      AFF30080 
 265      AFF30080 
 266              		.align	2
 267              		.p2align 4,,15
 268              		.global	stStartAlarm
 269              		.thumb
 270              		.thumb_func
 271              		.type	stStartAlarm, %function
 272              	stStartAlarm:
 273              	.LFB273:
 274              		.loc 1 77 0
 275              		.cfi_startproc
 276              		@ args = 0, pretend = 0, frame = 0
 277              		@ frame_needed = 0, uses_anonymous_args = 0
 278              		@ link register save eliminated.
 279              	.LVL1:
 280              	.LBB10:
ARM GAS  /tmp/ccwf2nlK.s 			page 19


 281              	.LBB11:
 282              		.file 2 "../ChibiOS/os/hal/ports/STM32/LLD/TIMv1/st_lld.h"
 283              		.loc 2 155 0
 284 0000 4FF08043 		mov	r3, #1073741824
 285              	.LVL2:
 286              		.loc 2 156 0
 287 0004 0021     		movs	r1, #0
 288              		.loc 2 157 0
 289 0006 0222     		movs	r2, #2
 290              		.loc 2 155 0
 291 0008 5863     		str	r0, [r3, #52]
 292              		.loc 2 156 0
 293 000a 1961     		str	r1, [r3, #16]
 294              		.loc 2 157 0
 295 000c DA60     		str	r2, [r3, #12]
 296 000e 7047     		bx	lr
 297              	.LBE11:
 298              	.LBE10:
 299              		.cfi_endproc
 300              	.LFE273:
 301              		.size	stStartAlarm, .-stStartAlarm
 302              		.section	.text.stStopAlarm,"ax",%progbits
 303              		.align	2
 304              		.p2align 4,,15
 305              		.global	stStopAlarm
 306              		.thumb
 307              		.thumb_func
 308              		.type	stStopAlarm, %function
 309              	stStopAlarm:
 310              	.LFB274:
 311              		.loc 1 91 0
 312              		.cfi_startproc
 313              		@ args = 0, pretend = 0, frame = 0
 314              		@ frame_needed = 0, uses_anonymous_args = 0
 315              		@ link register save eliminated.
 316              	.LBB12:
 317              	.LBB13:
 318              		.loc 2 167 0
 319 0000 4FF08043 		mov	r3, #1073741824
 320 0004 0022     		movs	r2, #0
 321 0006 DA60     		str	r2, [r3, #12]
 322 0008 7047     		bx	lr
 323              	.LBE13:
 324              	.LBE12:
 325              		.cfi_endproc
 326              	.LFE274:
 327              		.size	stStopAlarm, .-stStopAlarm
 328 000a 00BFAFF3 		.section	.text.stSetAlarm,"ax",%progbits
 328      0080
 329              		.align	2
 330              		.p2align 4,,15
 331              		.global	stSetAlarm
 332              		.thumb
 333              		.thumb_func
 334              		.type	stSetAlarm, %function
 335              	stSetAlarm:
 336              	.LFB275:
ARM GAS  /tmp/ccwf2nlK.s 			page 20


 337              		.loc 1 105 0
 338              		.cfi_startproc
 339              		@ args = 0, pretend = 0, frame = 0
 340              		@ frame_needed = 0, uses_anonymous_args = 0
 341              		@ link register save eliminated.
 342              	.LVL3:
 343              	.LBB14:
 344              	.LBB15:
 345              		.loc 2 179 0
 346 0000 4FF08043 		mov	r3, #1073741824
 347              	.LVL4:
 348 0004 5863     		str	r0, [r3, #52]
 349 0006 7047     		bx	lr
 350              	.LBE15:
 351              	.LBE14:
 352              		.cfi_endproc
 353              	.LFE275:
 354              		.size	stSetAlarm, .-stSetAlarm
 355 0008 AFF30080 		.section	.text.stGetAlarm,"ax",%progbits
 355      AFF30080 
 356              		.align	2
 357              		.p2align 4,,15
 358              		.global	stGetAlarm
 359              		.thumb
 360              		.thumb_func
 361              		.type	stGetAlarm, %function
 362              	stGetAlarm:
 363              	.LFB276:
 364              		.loc 1 121 0
 365              		.cfi_startproc
 366              		@ args = 0, pretend = 0, frame = 0
 367              		@ frame_needed = 0, uses_anonymous_args = 0
 368              		@ link register save eliminated.
 369              	.LBB16:
 370              	.LBB17:
 371              		.loc 2 191 0
 372 0000 4FF08043 		mov	r3, #1073741824
 373 0004 586B     		ldr	r0, [r3, #52]
 374              	.LBE17:
 375              	.LBE16:
 376              		.loc 1 126 0
 377 0006 7047     		bx	lr
 378              		.cfi_endproc
 379              	.LFE276:
 380              		.size	stGetAlarm, .-stGetAlarm
 381 0008 AFF30080 		.text
 381      AFF30080 
 382              	.Letext0:
 383              		.file 3 "/nfs/nfs5/home/research/hardware/arm2/gcc-arm-embedded/gcc-arm-none-eabi-4_8-2014q2/arm-n
 384              		.file 4 "/nfs/nfs5/home/research/hardware/arm2/gcc-arm-embedded/gcc-arm-none-eabi-4_8-2014q2/arm-n
 385              		.file 5 "../ChibiOS/os/rt/ports/ARMCMx/compilers/GCC/chtypes.h"
 386              		.file 6 "../ChibiOS/os/rt/include/chsystypes.h"
 387              		.file 7 "../ChibiOS/os/rt/include/chschd.h"
 388              		.file 8 "../ChibiOS/os/rt/ports/ARMCMx/chcore.h"
 389              		.file 9 "../ChibiOS/os/rt/ports/ARMCMx/chcore_v7m.h"
 390              		.file 10 "../ChibiOS/os/hal/ports/STM32/LLD/TIMv1/stm32_tim.h"
 391              		.file 11 "../ChibiOS/os/rt/include/chtm.h"
ARM GAS  /tmp/ccwf2nlK.s 			page 21


 392              		.file 12 "../ChibiOS/os/rt/include/chsem.h"
 393              		.file 13 "../ChibiOS/os/rt/include/chmtx.h"
 394              		.file 14 "../ChibiOS/os/ext/CMSIS/include/core_cm4.h"