ARM GAS  /tmp/ccwf2nlK.s 			page 1


   1              		.syntax unified
   2              		.cpu cortex-m4
   3              		.fpu softvfp
   4              		.eabi_attribute 20, 1
   5              		.eabi_attribute 21, 1
   6              		.eabi_attribute 23, 3
   7              		.eabi_attribute 24, 1
   8              		.eabi_attribute 25, 1
   9              		.eabi_attribute 26, 1
  10              		.eabi_attribute 30, 2
  11              		.eabi_attribute 34, 1
  12              		.eabi_attribute 18, 4
  13              		.thumb
  14              		.file	"st.c"
  15              		.text
  16              	.Ltext0:
  17              		.section	.gnu.lto_.jmpfuncs.c7e217d23006efab,"",%progbits
  18 0000 789C6362 		.ascii	"x\234cb`b\300\006x\2414+\020322103\26200\000\000\002"
  18      6062C006 
  18      78A1342B 
  18      10333232 
  18      313033B2 
  19 0019 6D0023   		.ascii	"m\000#"
  20              		.text
  21              		.section	.gnu.lto_.inline.c7e217d23006efab,"",%progbits
  22 0000 789C6362 		.ascii	"x\234cb`b\300\006R\2414+\003\003\013\017#X\021\333\002"
  22      6062C006 
  22      52A1342B 
  22      03030B0F 
  22      235811DB 
  23 0015 79B05A46 		.ascii	"y\260ZF.\020\301\300\306\012\024f\373\240\007\027gb"
  23      2E10C1C0 
  23      C60A1466 
  23      FBA00717 
  23      6762
  24 0027 6061060A 		.ascii	"`a\006\0121]\340\207\0131c\012\261`\0121\000\000\232"
  24      315DE087 
  24      0B31630A 
  24      B1600A31 
  24      00009A
  25 003a 48086D   		.ascii	"H\010m"
  26              		.text
  27              		.section	.gnu.lto_.pureconst.c7e217d23006efab,"",%progbits
  28 0000 789C6362 		.ascii	"x\234cb`b\340f\200\000V\006\011F)&)f)\026)\000\004\027"
  28      6062E066 
  28      80005606 
  28      09462926 
  28      29662916 
  29 0018 009F     		.ascii	"\000\237"
  30              		.text
  31              		.section	.gnu.lto_stInit.c7e217d23006efab,"",%progbits
  32 0000 789C6362 		.ascii	"x\234cb`b@\007\222@\\\011\304\262@\314\310\314\300\310"
  32      60624007 
  32      92405C09 
  32      C4B240CC 
  32      C8CCC0C8 
  33 0014 34E11C03 		.ascii	"4\341\034\003C#\007\023##\210\301\300\310P\317\304X"
ARM GAS  /tmp/ccwf2nlK.s 			page 2


  33      43230713 
  33      232388C1 
  33      C0C850CF 
  33      C458
  34 0026 1FC90856 		.ascii	"\037\311\010V\273\236\351\300\203\377\377\327\375X\373"
  34      BB9EE9C0 
  34      83FFFFD7 
  34      FD58FB
  35 0035 B01EA894 		.ascii	"\260\036\250\224\201\201\225\241\245\241a\202\002\003"
  35      818195A1 
  35      A5A16182 
  35      0203
  36 0043 4332583E 		.ascii	"C2X>\004H\2024\20522\201h\346\363\014\315\017\376\331"
  36      04488234 
  36      85323281 
  36      68E6F30C 
  36      CD0FFED9 
  37 0057 24322E64 		.ascii	"$2.dd\005\312V3\374j\350h\020\310d\004\252\206\030\227"
  37      6405CA56 
  37      33FC6AE8 
  37      6810C864 
  37      04AA8618 
  38 006c 09A22F32 		.ascii	"\011\242/24>\370\317\004S\004\001!@\011\240\001 \307"
  38      343EF8CF 
  38      04530401 
  38      214009A0 
  38      0120C7
  39 007f 4AEBE9E9 		.ascii	"J\353\351\351;gd&e\372\007\353\347\027\353g$\346\350"
  39      3B676426 
  39      65FA07EB 
  39      E717EB67 
  39      24E6E8
  40 0092 171725EB 		.ascii	"\027\027%\353\027\227\350%3\000\000\355\343*\327"
  40      1797E825 
  40      330000ED 
  40      E32AD7
  41              		.text
  42              		.section	.gnu.lto_stStartAlarm.c7e217d23006efab,"",%progbits
  43 0000 789C9D91 		.ascii	"x\234\235\221AK\002A\024\307\337\233\335Uou\215 \302"
  43      414B0241 
  43      14C7DF9B 
  43      DD556F75 
  43      8D20C2
  44 0013 6BB583F5 		.ascii	"k\265\203\365\001:\324%P:\270A\235b\265\310\005\305"
  44      013AD425 
  44      503AB841 
  44      9D62B5C8 
  44      05C5
  45 0025 70A5ABB3 		.ascii	"p\245\253\263\"\236E\210\302NJ\021\204\344)\220\272"
  45      229E4588 
  45      C24E4A11 
  45      84E42990 
  45      BA
  46 0036 58B79202 		.ascii	"X\267\222\002\243k\340\027\010\374\000\301\366fT\302"
  46      A36BE017 
  46      08FC00C1 
  46      F66654C2 
ARM GAS  /tmp/ccwf2nlK.s 			page 3


  47 0046 3A043DD8 		.ascii	":\004=\330y;\377y\357\367\177\3140`\3603f\350{B\000"
  47      793BFF79 
  47      EFF77FCC 
  47      3060F033 
  47      66E87B42 
  48 005b 8B326A80 		.ascii	"\2132j\200\254\362\002\340\205\030\242\374\001\204\002"
  48      ACF202E0 
  48      8518A2FC 
  48      018402
  49 006a C3C20EAA 		.ascii	"\303\302\016\252\332\026\353\364}\377\372\266|\331\304"
  49      DA16EBF4 
  49      7DFFFAB6 
  49      7CD9C4
  50 0079 1A0B32CC 		.ascii	"\032\0132\314(\335\200\222\020\225\371\014\322.\251"
  50      28DD8092 
  50      1095F90C 
  50      D22EA9
  51 0088 148B56D9 		.ascii	"\024\213V\331\276\205Lf\355\021\212!\2000\324\205\250"
  51      BE854C66 
  51      ED118A21 
  51      8030D485 
  51      A8
  52 0099 76EECA5D 		.ascii	"v\356\312]\024U\341\015|\177\312A\032i\016e\3336:\210"
  52      1455E10D 
  52      7C7FCA41 
  52      1A690E65 
  52      DB363A88 
  53 00ad F32A317D 		.ascii	"\363*1}r\306\003\302\3003<t?_\337\213\301\221\335\330"
  53      72C603C2 
  53      C0333C74 
  53      3F5FDF8B 
  53      C191DDD8 
  54 00c1 B7D37DEB 		.ascii	"\267\323}\353\031660L\2256\326\321 \232\232b\011\232"
  54      19363630 
  54      4C9536D6 
  54      D1209A9A 
  54      62099A
  55 00d4 A2E4F54F 		.ascii	"\242\344\365O>\216\027\035\324\026\340\212vb\325A\375"
  55      3E8E171D 
  55      D416E08A 
  55      7662D541 
  55      FD
  56 00e5 0C6A5E45 		.ascii	"\014j^EL;hH\267\200\240\320\225q@\331%P\221.\210\244"
  56      4C3B6848 
  56      B780A0D0 
  56      957140D9 
  56      2550912E 
  57 00fb D4E0708A 		.ascii	"\324\340p\212\2212\036\246}\332\272\327l<'\355\033\255"
  57      91321EA6 
  57      7DDABAD7 
  57      6C3C27ED 
  57      1BAD
  58 010d FD89C609 		.ascii	"\375\211\306\011\264&E\011k\377\013\306&a\362u{\340"
  58      B4264509 
  58      6BFF0BC6 
  58      2661F275 
  58      7BE0
ARM GAS  /tmp/ccwf2nlK.s 			page 4


  59 011f 0D1A37FA 		.ascii	"\015\0327\372\360\"\306a\221-\275\203<\2375M\276\226"
  59      F022C661 
  59      912DBD83 
  59      3C9F354D 
  59      BE96
  60 0131 7212CE66 		.ascii	"r\022\316f\234g]\236\262\323\334\315%\271\2337\223\240"
  60      9C675D9E 
  60      B2D3DCCD 
  60      25B99B37 
  60      93A0
  61 0143 E79DCC7E 		.ascii	"\347\235\314~\344w\301a6\227wy\334\212\255,\363ht\235"
  61      E477C161 
  61      36977779 
  61      DC8AAD2C 
  61      F368749D 
  62 0157 5B1BB1A3 		.ascii	"[\033\261\243\010\265\354\246\323{f\012\276\000\313"
  62      08B5ECA6 
  62      D37B660A 
  62      BE00CB
  63 0166 6F8BC9   		.ascii	"o\213\311"
  64              		.text
  65              		.section	.gnu.lto_stStopAlarm.c7e217d23006efab,"",%progbits
  66 0000 789C6362 		.ascii	"x\234cb`b@\007\222@|\024\210\375\201\230\221\231\201"
  66      60624007 
  66      92407C14 
  66      88FD8198 
  66      919981
  67 0013 9169C239 		.ascii	"\221i\3029\006\206F\016&FF\020\203\201\221\241\236\211"
  67      0686460E 
  67      26464610 
  67      838191A1 
  67      9E89
  68 0025 B13E9211 		.ascii	"\261>\222\021\254v=\323\201\007\377\377\257\373\326"
  68      AC763DD3 
  68      8107FFFF 
  68      AFFBD6
  69 0034 36E70DE3 		.ascii	"6\347\015\343l&\026\240\010+CKC\303\004\005\006\206"
  69      6C2616A0 
  69      082B434B 
  69      43C30405 
  69      0686
  70 0046 64B08A10 		.ascii	"d\260\212\020 \011\322\026\312\310\004\242\231\3172"
  70      2009D216 
  70      CAC804A2 
  70      99CF32
  71 0055 1CDA71E7 		.ascii	"\034\332q\347\374\363G\254pu\020\306\201\323\367\016"
  71      FCF347AC 
  71      707510C6 
  71      81D3F70E 
  72 0065 B2323024 		.ascii	"\26220$2.dd\005j\005\353\325fX\325\320\322\370\340\357"
  72      322E6464 
  72      056A05EB 
  72      D56658D5 
  72      D0D2F8E0 
  73 007a 9E69F299 		.ascii	"\236i\362\231\214\014\263\031f5Nh\020\310dd\214`\314"
  73      8C0CB319 
  73      66354E68 
ARM GAS  /tmp/ccwf2nlK.s 			page 5


  73      10C86464 
  73      8C60CC
  74 008d 64646A00 		.ascii	"ddj\000\002\026\0060\023\354\222$\220\226D\306\305@"
  74      02160630 
  74      13EC9224 
  74      909644C6 
  74      C540
  75 009f ED6051B0 		.ascii	"\355`Q\260\340E\206\306\017\217\266\263@L\205\201\020"
  75      E04586C6 
  75      0F8FB6B3 
  75      404C8581 
  75      10
  76 00b0 A0E940A7 		.ascii	"\240\351@\247\200\264I\353\351\351;gd&e\372\007\353"
  76      80B449EB 
  76      E9E93B67 
  76      642665FA 
  76      07EB
  77 00c2 E717EB67 		.ascii	"\347\027\353g$\346\350\027\027%\353\027\227\350%3\030"
  77      24E6E817 
  77      1725EB17 
  77      97E82533 
  77      18
  78 00d3 62CA15E4 		.ascii	"b\312\025\344\027\225\024\353\007\207\370\032\033\351"
  78      179514EB 
  78      0787F81A 
  78      1BE9
  79 00e1 FBF8B8E8 		.ascii	"\373\370\270\350\207x\372\226\031\002U\307\347\344\244"
  79      8778FA96 
  79      190255C7 
  79      E7E4A4
  80 00f0 E8653000 		.ascii	"\350e0\000\000Y\022QV"
  80      00591251 
  80      56
  81              		.text
  82              		.section	.gnu.lto_stSetAlarm.c7e217d23006efab,"",%progbits
  83 0000 789C6550 		.ascii	"x\234eP\277KBQ\024>\337\365=u\2535\202\010\327\352\335"
  83      BF4B4251 
  83      143EDFF5 
  83      3D75AB35 
  83      8208D7EA 
  84 0015 AC3FA0A1 		.ascii	"\254?\240\241\226@i\360\0055\205Z\344\005\305Pi\365"
  84      964069F0 
  84      0535855A 
  84      E405C550 
  84      69F5
  85 0027 3E115CC5 		.ascii	">\021\\\305E(\032\014j\210~P\215-\322\026RP\177\201"
  85      45281A0C 
  85      6A887E50 
  85      8D2DD216 
  85      52507F81 
  86 003b 3447B8B4 		.ascii	"4G\270\264\005\257\363\256:T\007\356=\347|\234\363}"
  86      05AFF3AE 
  86      3A5407EE 
  86      3DE77C9C 
  86      F37D
  87 004d DFBD8204 		.ascii	"\337\275\202\004\375\215)>\213 r9#D\020\315\027\"/*"
  87      FD8D293E 
ARM GAS  /tmp/ccwf2nlK.s 			page 6


  87      8B207239 
  87      234410CD 
  87      17222F2A 
  88 0061 80A02050 		.ascii	"\200\240 PU\240\272\0153{#\272}\337\277\276k\234\177"
  88      55A0BA0D 
  88      337B23BA 
  88      7DDFBFBE 
  88      6B9C7F
  89 0074 E044D802 		.ascii	"\340D\330\002\005\203\333T\327\2729[\000wY\203\270|"
  89      0583DB54 
  89      D7BA395B 
  89      00775983 
  89      B87C
  90 0086 07EB9B10 		.ascii	"\007\353\233\020A\016=Q-J\024\243\216\326\255\356}\243"
  90      410E3D51 
  90      2D4A14A3 
  90      8ED6ADEE 
  90      7DA3
  91 0098 07DDD2DE 		.ascii	"\007\335\322\336\300\367'\024\330\322\014\202\265-("
  91      C0F72714 
  91      D8D20C82 
  91      B52D28
  92 00a7 60D62461 		.ascii	"`\326$a\375\366\270\3174\364L\217\275\357\267\257Zd"
  92      FDF6B8CF 
  92      34F44C8F 
  92      BDEFB7AF 
  92      5A64
  93 00b9 2437D6ED 		.ascii	"$7\326\355\366>o\3554N\021\343\3114:\260\231\315\270"
  93      F63E6FED 
  93      344E11E3 
  93      C9343AB0 
  93      99CDB8
  94 00cc 58A04B5D 		.ascii	"X\240K]\367\372\355\253\366\274Bh\216.\270\323+\012"
  94      F7FAEDAB 
  94      F6BC4268 
  94      8E2EB8D3 
  94      2B0A
  95 00de D6311D79 		.ascii	"\3261\035yM=\251`\007ja\315a\031\341\260\221\313\300"
  95      4D3DA960 
  95      076A61CD 
  95      6119E1B0 
  95      91CBC0
  96 00f1 309D3193 		.ascii	"0\2351\223A#C\027#\304\230y%o\360\376`\015\345\306\341"
  96      41234317 
  96      23C49879 
  96      256FF0FE 
  96      600DE5C6 
  97 0106 B22CBF36 		.ascii	"\262,\2776\370\343i\307\221\2539\225Q\033)Y,\313\\:"
  97      F8E369C7 
  97      91AB3995 
  97      511B2959 
  97      2CCB5C3A 
  98 011a 2FCBA5AC 		.ascii	"/\313\245\254,W\234,Y\025U\330\213\377\0378(\226*e\231"
  98      2C579C2C 
  98      591555D8 
  98      8BFF1F38 
  98      28962A65 
ARM GAS  /tmp/ccwf2nlK.s 			page 7


  99 012f 7293CB4B 		.ascii	"r\223\313K2\221X\223\356z\3620\316+;\371\374\256\223"
  99      32915893 
  99      EE7AF230 
  99      CE2B3BF9 
  99      FCAE93
 100 0142 A31F76FD 		.ascii	"\243\037v\375gl"
 100      676C
 101              		.text
 102              		.section	.gnu.lto_stGetAlarm.c7e217d23006efab,"",%progbits
 103 0000 789C6362 		.ascii	"x\234cb`b@\007\222@\374\014\210\375\201\230\221\231"
 103      60624007 
 103      9240FC0C 
 103      88FD8198 
 103      9199
 104 0012 819169C2 		.ascii	"\201\221i\3029\006\206F\016&FF\020\203\201\221\241\236"
 104      39068646 
 104      0E264646 
 104      10838191 
 104      A19E
 105 0024 89B13E92 		.ascii	"\211\261>\222\021\254v=\323\201\007\377\377\257\373"
 105      11AC763D 
 105      D38107FF 
 105      FFAFFB
 106 0033 D43EEF0D 		.ascii	"\324>\357\015\343|&\026f\206L\2608+CKC\303\004\205\\"
 106      E37C2616 
 106      66864CB0 
 106      382B434B 
 106      43C30485 
 107 0048 1027192C 		.ascii	"\020'\031,\022\002$A\332C\031\231@4\363Y\206Cw\356\234"
 107      12022441 
 107      DA431999 
 107      4034F359 
 107      864377EE 
 108 005d FF6F0455 		.ascii	"\377o\004U\011\323r\340\344?\240\302D\306\205\214\254"
 108      09D372E0 
 108      E43FA0C2 
 108      44C6858C 
 108      AC
 109 006e 408D609D 		.ascii	"@\215`\235\351\214\314\272\014k\032Z\032\037\374\375"
 109      E98CCCBA 
 109      0C6B1A5A 
 109      1A1FFCFD 
 110 007e 335D2A93 		.ascii	"3]*\223\221Q\233a\025\220\3270\2311\223\221i6\303\254"
 110      91519B61 
 110      1590D730 
 110      99319391 
 110      6936C3AC 
 111 0092 C6090D02 		.ascii	"\306\011\015\002\231\214\314\021@.K\003\020\2600\200"
 111      998CCC11 
 111      402E4B03 
 111      10B03080 
 112 00a2 9960E725 		.ascii	"\231`\347%\201LHd\\\0144\015,\312\012\361!T\204\201"
 112      814C4864 
 112      5C0C340D 
 112      2CCA0AF1 
 112      21548481 
 113 00b6 E12243E3 		.ascii	"\341\"C\343\207K\373y \366\001-\202H\207\000-\006\272"
ARM GAS  /tmp/ccwf2nlK.s 			page 8


 113      874BFB79 
 113      20F6012D 
 113      82488700 
 113      2D06BA
 114 00c9 111432D2 		.ascii	"\021\0242\322zz\372\316\031\231I\231\376\301\372\371"
 114      7A7AFACE 
 114      19994999 
 114      FEC1FAF9 
 115 00d9 C5FA1989 		.ascii	"\305\372\031\2119\372\305E\311\372\305%z\311\014\206"
 115      39FAC545 
 115      C9FAC525 
 115      7AC90C86 
 116 00e9 987205F9 		.ascii	"\230r\005\371E%\305\372\301!\276\306F\372>>.\372!\236"
 116      4525C5FA 
 116      C121BEC6 
 116      46FA3E3E 
 116      2EFA219E 
 117 00fd BE658640 		.ascii	"\276e\206@\325\36199)z\031\014\000[\223W<"
 117      D5F13939 
 117      297A190C 
 117      005B9357 
 117      3C
 118              		.text
 119              		.section	.gnu.lto_.symbol_nodes.c7e217d23006efab,"",%progbits
 120 0000 789C4DC7 		.ascii	"x\234M\307\261\015\2000\020\004\301\3735\256\224B\316"
 120      B10D8030 
 120      1004C1FB 
 120      35AE9442 
 120      CE
 121 0011 1209A101 		.ascii	"\022\011\241\001\223R\0225P\011\"\000\011O6\010\215"
 121      93521235 
 121      50092200 
 121      094F3608 
 121      8D
 122 0022 FA50B154 		.ascii	"\372P\261TO\311>\346`\301\321u\305t\335p\352\332\360"
 122      4FC93EE6 
 122      60C1D175 
 122      C574DD70 
 122      EADAF0
 123 0035 F037769C 		.ascii	"\3607v\234\337\226\022IY\323u\207\036\334\301\035\316"
 123      DF961249 
 123      59D37587 
 123      1EDCC11D 
 123      CE
 124              		.text
 125              		.section	.gnu.lto_.refs.c7e217d23006efab,"",%progbits
 126 0000 789C6362 		.ascii	"x\234cb`b`d\200\002\000\000F\000\006"
 126      60626064 
 126      80020000 
 126      460006
 127              		.text
 128              		.section	.gnu.lto_.decls.c7e217d23006efab,"",%progbits
 129 0000 789CBD58 		.ascii	"x\234\275Xkl\024U\024\276wv[v\333\245\024P\2541\221"
 129      6B6C1455 
 129      14BE7776 
 129      5B76DBA5 
 129      1450AC31 
ARM GAS  /tmp/ccwf2nlK.s 			page 9


 130 0015 4A841892 		.ascii	"J\204\030\222v\332\005y\374ApK(\011\005\262-I\023\177"
 130      76DA0579 
 130      FC41704B 
 130      280905B2 
 130      2D49137F 
 131 0029 ACD3DD81 		.ascii	"\254\323\335\201\335\244\335\326\335\251\206\177\267"
 131      DDA4DDD6 
 131      DDA9867F 
 131      B7
 132 0036 2D101431 		.ascii	"-\020\0241\245<\254\206\300\362\206\004\324T\254\026"
 132      A53CAC86 
 132      C0F28604 
 132      D454AC16 
 133 0046 792C8F42 		.ascii	"y,\217B#>\200\012\012UYC\260>C\015\341)t=sgfwf:SfIt"
 133      233E800A 
 133      0A555943 
 133      B03E430D 
 133      E129743D 
 134 0064 92737A77 		.ascii	"\222szw\346\234\357~\367\234sg\316-\203\030\264\031"
 134      E69CEF7E 
 134      F79C7367 
 134      CE2D8318 
 134      B419
 135 0076 2394846B 		.ascii	"#\224\204k\302X\204\0362\010e#\204f\241\364%\376\336"
 135      C258841E 
 135      32086523 
 135      8466A1F4 
 135      25FEDE
 136 0089 06B21BA4 		.ascii	"\006\262\033\244\023\244\013\344\010\310q4\364\022\355"
 136      13A40BE4 
 136      08C87134 
 136      F412ED
 137 0098 00029D04 		.ascii	"\000\002\235\004\331.\337c\344\373F\366\"\246\003d\037"
 137      D92EDF63 
 137      E4FB46F6 
 137      22A60364 
 137      1F
 138 00a9 481E880B 		.ascii	"H\036\210\013\344\024H7H\017\310]\020;\210\015\244\037"
 138      E4144837 
 138      480FC85D 
 138      103B880D 
 138      A41F
 139 00bb E42248AF 		.ascii	"\344\"H\257\214)\372\336\223\307\037\203\014\352\260"
 139      8C29FADE 
 139      93C71F83 
 139      0CEAB0
 140 00ca 3B65BF53 		.ascii	";e\277S*,\254\362\027\237;\360PN]\0269a\231\023#\373"
 140      2A2CACF2 
 140      179F3BF0 
 140      504E5D16 
 140      39619913 
 141 00e0 E46269FC 		.ascii	"\344bi\3749\310(\035\256\030\257l\031\363QX\242\355"
 141      39C8281D 
 141      AE18AF6C 
 141      19F35158 
 141      A2ED
 142 00f2 1358BAF7 		.ascii	"\023X\272\367\224\016g<\332Bb\211\304\312\255g1i#\017"
ARM GAS  /tmp/ccwf2nlK.s 			page 10


 142      940E673C 
 142      DA426289 
 142      C4CAAD67 
 142      3169230F 
 143 0106 92491B1A 		.ascii	"\222I\033\032\2076\022\270b\253\010\301\002\207g=\211"
 143      873612B8 
 143      62AB08C1 
 143      0287673D 
 143      89
 144 0117 AA3187F3 		.ascii	"\2521\207\363\234\250\220\016\\N:\001B\034\336\216\307"
 144      9CA8900E 
 144      5C4E3A01 
 144      421CDE8E 
 144      C7
 145 0128 C9A32536 		.ascii	"\311\243%6\011\216A\317b4\031\355\003\377VB\266\217"
 145      098E41CF 
 145      623419ED 
 145      03FF5642 
 145      B68F
 146 013a 1D1A0CB8 		.ascii	"\035\032\014\270&\241]\342\004d/\261Qx\021`\033\036"
 146      26A15DE2 
 146      04642FB1 
 146      51781160 
 146      1B1E
 147 014c AF36E1F0 		.ascii	"\2576\341\360\016\314\350y&\006\342\207N\273Z\233\022"
 147      0ECCE879 
 147      2606E287 
 147      4EBB5A9B 
 147      12
 148 015d C9E478EB 		.ascii	"\311\344x\353$\367\310$m4\026\310\211V\023\322,:\226"
 148      24F7C824 
 148      6D3416C8 
 148      895613D2 
 148      2C3A96
 149 0170 F740328C 		.ascii	"\367@2\214\274&\242\235@?\321u\240\227!\304\301\341"
 149      BC26A29D 
 149      403FD175 
 149      A09721C4 
 149      C1E1
 150 0182 7DD809BE 		.ascii	"}\330\011\276\225\030\300v\342\3112!\3538\377\254\352"
 150      9518C076 
 150      E2C93221 
 150      EB38FFAC 
 150      EA
 151 0193 3E8E9B81 		.ascii	">\216\233\201'\207\367S\244\363\370q\241n\275sx&\245"
 151      2787F753 
 151      A4F3F871 
 151      A16EBD73 
 151      7826A5
 152 01a6 F42105BA 		.ascii	"\364!\005\272\312h\2018<\302\251\215\"\374V\014D4\372"
 152      CA688138 
 152      3CC2A98D 
 152      22FC560C 
 152      4434FA
 153 01b9 581E883B 		.ascii	"X\036\210;t\024\372\217\315\323\225A\213\343w\035\341"
 153      7414FA8F 
 153      CDD39541 
ARM GAS  /tmp/ccwf2nlK.s 			page 11


 153      8BE3771D 
 153      E1
 154 01ca E7D10E42 		.ascii	"\347\321\016B\332\022\273\372\177\265\275G\342v%\324"
 154      DA12BBFA 
 154      7FB5BD47 
 154      E27625D4 
 155 01da 77A8D96E 		.ascii	"w\250\331n(\011\243XHV\351:ZKV\346\343T!\355\326\027"
 155      2809A358 
 155      4856E93A 
 155      5A4B56E6 
 155      E35421ED 
 156 01f0 52876121 		.ascii	"R\207a!\335V\012I\252b\006%u\324\214\313\264S\217\376"
 156      DD560A49 
 156      AA620625 
 156      75D48CCB 
 156      B4538FFE 
 157 0204 A9217AC7 		.ascii	"\251!z\307\231\024\372\036\212\276\306f\264pr'P.\255"
 157      9914FA1E 
 157      8ABEC666 
 157      B4707227 
 157      502EAD
 158 0217 86C30701 		.ascii	"\206\303\007\001\210\303]\217\265\346.=\253C\206\254"
 158      88C35D8F 
 158      B5E62E3D 
 158      AB4386AC 
 159 0227 6E9E59FB 		.ascii	"n\236Y\3734\2115\307\223\311\227\364\233\\D7\333@G\015"
 159      348935C7 
 159      93C997F4 
 159      9B5C4437 
 159      DB40470D 
 160 023b 76F9269B 		.ascii	"v\371&\233a\264\232I\307^\342T\310r\370\210\311rd\274"
 160      61B49A49 
 160      C75EE254 
 160      C872F888 
 160      C97264BC 
 161 024f 6306345B 		.ascii	"c\0064[\023\353\373\0366\341u-\261\0362 \326\220\222"
 161      13EBFB1E 
 161      36E1752D 
 161      B11E3220 
 161      D69092
 162 0262 A0DE2153 		.ascii	"\240\336!SJ '\264 \271\350\255\364f\222|\315\026v\022"
 162      4A2027B4 
 162      20B9E8AD 
 162      F466927C 
 162      CD167612 
 163 0276 E72A5E74 		.ascii	"\347*^t\013\266\014\273\0059|\000O\264T\364\243Q\253"
 163      0BB60CBB 
 163      05397C00 
 163      4FB454F4 
 163      A351AB
 164 0289 18DB4271 		.ascii	"\030\333Bq\376S\351\300\022\254\300\345\3239\325f\373"
 164      FE53E9C0 
 164      12ACC0E5 
 164      D339D566 
 164      FB
 165 029a CDCD387C 		.ascii	"\315\3158|\032\217N\223$\251\245\271\314SvF*\026\345"
 165      1A8F4E93 
ARM GAS  /tmp/ccwf2nlK.s 			page 12


 165      24A9A5B9 
 165      CC537646 
 165      2A16E5
 166 02ad 766A90DE 		.ascii	"vj\220\336\213j+4\006\255\223\231\244\226N\262\025\237"
 166      8B6A2B34 
 166      06AD9399 
 166      A4964EB2 
 166      159F
 167 02bf 5751EAF5 		.ascii	"WQ\352\365\223\334rg\032}\375\364\3401\220\221\015v"
 167      93DC7267 
 167      1A7DFDF4 
 167      E0319091 
 167      0D76
 168 02d1 6D461E09 		.ascii	"mF\036\011#Nz\026\\%'\012J\342\353\373\\\304.\335G\006"
 168      234E7A16 
 168      5C25270A 
 168      4AE2EBFB 
 168      5CC42EDD 
 169 02e7 0996AFE7 		.ascii	"\011\226\257\347P\214\254h\211o\354\333\014%|\002K\201"
 169      508CAC68 
 169      896FECDB 
 169      0C257C02 
 169      4B81
 170 02f9 65508C52 		.ascii	"eP\214R\020}\215B\221Z\276\022\213<\247\016oS\237\253"
 170      107D8D42 
 170      915ABE12 
 170      8B3CA70E 
 170      6F539FAB 
 171 030d 9553C076 		.ascii	"\225S\300vf\014V\250\001kW\203\355\265\002\3460g\366"
 171      660C56A8 
 171      016B5783 
 171      EDB502E6 
 171      3067F6
 172 0320 BE1AEC40 		.ascii	"\276\032\354@\306`Zf\233\325`\035V\300\362\315\231m"
 172      C6605A66 
 172      9BD5601D 
 172      56C0F2CD 
 172      996D
 173 0332 51837D92 		.ascii	"Q\203}\2221\230\226\331Gj\260.+`\005\346\314:\324`\307"
 173      319896D9 
 173      476AB02E 
 173      2B6005E6 
 173      CC3AD460 
 174 0347 3206D332 		.ascii	"2\006\3232;\250\006\353\266\002Vh\316\254S\015\366E"
 174      3BA806EB 
 174      B6025668 
 174      CEAC530D 
 174      F645
 175 0359 C6605A66 		.ascii	"\306`Zf\237\251\301\276\266\002\366\2029\263Cj\260\013"
 175      9FA9C1BE 
 175      B602F682 
 175      39B3436A 
 175      B00B
 176 036b 19836999 		.ascii	"\031\203i\231\035V\203]\262\002Vb\306\254)~\364\025"
 176      1D56835D 
 176      B2025662 
 176      C6AC297E 
ARM GAS  /tmp/ccwf2nlK.s 			page 13


 176      F415
 177 037d 11AB1B5E 		.ascii	"\021\253\033^~\014\272\242\307\322\276%\215\300\264"
 177      7E0CBAA2 
 177      C7D2BE25 
 177      8DC0B4
 178 038c CCCEA999 		.ascii	"\314\316\251\231\375d\205\331ls\260\013j\260kV\300\312"
 178      FD6485D9 
 178      6C73B00B 
 178      6AB06B56 
 178      C0CA
 179 039e CD13F0AD 		.ascii	"\315\023\360\255\032\254?c0-\263Kj\260?\255\200-6g\366"
 179      1AAC3F63 
 179      302DB34B 
 179      6AB03FAD 
 179      802D3667 
 180 03b3 BD1AEC46 		.ascii	"\275\032\354F\306`jfM\361+\220M\371\213\027\233\255"
 180      C6606A66 
 180      4DF12B90 
 180      4DF98B17 
 180      9BAD
 181 03c5 FB32CED6 		.ascii	"\3732\316\326\276\3024f\373M\3158|+\343\017\343m\223"
 181      BEC23466 
 181      FB4DCD38 
 181      7C2BE30F 
 181      E36D93
 182 03d8 0FA3FA54 		.ascii	"\017\243\372T\224\266\202e\337\322/[CB\036V\033\304"
 182      94B68265 
 182      DFD22F5B 
 182      43421E56 
 182      1BC4
 183 03ea D0E8527F 		.ascii	"\320\350R\177\3758\374%m'\276\302\317\201\376\206\352"
 183      FD38FC25 
 183      6D27BEC2 
 183      CF81FE86 
 183      EA
 184 03fb F354F752 		.ascii	"\363T\367R}\221\352\357\250\276Lu\037\325?R}\225\352"
 184      7D91EAEF 
 184      A8BE4C75 
 184      1FD53F52 
 184      7D95EA
 185 040e 9FA9BE46 		.ascii	"\237\251\276F\365u\252\373\251\376\215\352?\250\376"
 185      F575AAFB 
 185      A9FE8DEA 
 185      3FA8FE
 186 041d 8BEA1B54 		.ascii	"\213\352\033T\377M\365M\320\251K\327.\365\230\344W\344"
 186      FF4DF54D 
 186      D0A94BD7 
 186      2EF598E4 
 186      57E4
 187 042f 7E37DD2E 		.ascii	"~7\335.\211\235Z|\000:\265\037N\340\266\026\"uj1\207"
 187      899D5A7C 
 187      003AB51F 
 187      4EE0B616 
 187      22756A31 
 188 0444 D2EDDED7 		.ascii	"\322\355\336\3275\006r\267\333\313\227+\035\376\332"
 188      350672B7 
 188      DBCB972B 
ARM GAS  /tmp/ccwf2nlK.s 			page 14


 188      1DFEDA
 189 0453 2CD1E29E 		.ascii	",\321\342\236\305n\3672Y\\\220jv\357\351\233\335\373"
 189      C56EF732 
 189      595C906A 
 189      76EFE99B 
 189      DDFB
 190 0465 DA067002 		.ascii	"\332\006p\002\332F\316\235K\\\357o\307\253\023p\012"
 190      DA46CE9D 
 190      4B5CEF6F 
 190      C7AB1370 
 190      0A
 191 0476 1D4C26B1 		.ascii	"\035L&\261\322j\265\347\311g\255\304\256xA{\272Mq\250"
 191      D26AB5E7 
 191      C967ADC4 
 191      AE78417B 
 191      BA4D71A8 
 192 048a EB40EA4B 		.ascii	"\353@\352K\300\201I\031\223\202\002c[\01671b\026\233"
 192      C0814919 
 192      93820263 
 192      5B0E3731 
 192      62169B
 193 049d 99745D49 		.ascii	"\231t]Ice\224\244\207\370\266,\203\377\013H\364\207"
 193      636594A4 
 193      87F8B62C 
 193      83FF0B48 
 193      F487
 194 04af 7795270D 		.ascii	"w\225'\015*\223\216\244\266\351\365H\226\306V\034^\301"
 194      2A938EA4 
 194      B6E9F548 
 194      96C6561C 
 194      5EC1
 195 04c1 64BA4156 		.ascii	"d\272AV2\306\033\304\245\341\254X\301\312\336\315\322"
 195      32C61BC4 
 195      A5E1AC58 
 195      C1CADECD 
 195      D2
 196 04d2 9DD57424 		.ascii	"\235\325t$\240G\223\327\316\341\034\254*\235_t\245#"
 196      A04793D7 
 196      CEE11CAC 
 196      2A9D5F74 
 196      A523
 197 04e4 75F91F64 		.ascii	"u\371\037dY9\206\255ft5\360&3\344$\021\037\210_8+\035"
 197      593986AD 
 197      667435F0 
 197      2633E424 
 197      111F885F 
 198 04fb C3B6C6F3 		.ascii	"\303\266\306\363\225\322\214g\031\226\3461>u\020{@\017"
 198      95D28C67 
 198      1996E631 
 198      3E75107B 
 198      400F
 199 050d 626B98C7 		.ascii	"bk\230\307(\3155zZo3\206\245y\333\26049L\322\251\254"
 199      28CD357A 
 199      5A6F3386 
 199      A579DBB0 
 199      34394CD2 
 200 0523 5626CD1D 		.ascii	"V&\315\035.\341:+\016\257\3138\341m&\011\317\321,D\261"
ARM GAS  /tmp/ccwf2nlK.s 			page 15


 200      2EE13A2B 
 200      0EAFCB38 
 200      E16D2609 
 200      CFD12C44 
 201 0538 82E12A46 		.ascii	"\202\341*FwP\325\221`\320y\343\204\017\266\341\365\352"
 201      7750D591 
 201      60D079E3 
 201      840FB6E1 
 201      F5EA
 202 054a 841FA509 		.ascii	"\204\037\245\011\271j\234p\375Ir\203I>\344\2116\032"
 202      B96A9C70 
 202      FD497283 
 202      493EE489 
 202      361A
 203 055c 077A5015 		.ascii	"\007zP\025h\016\267Bp\024\376G\206\341?\240\341\217"
 203      680EB742 
 203      7014FE47 
 203      86E13FA0 
 203      E18F
 204 056e 9E292E66 		.ascii	"\236).f=\301PMhQ%[\037e\203\\-\033\215\370\331\250P"
 204      3DC1504D 
 204      6851255B 
 204      1F65835C 
 204      2D1B8DF8 
 205 0585 EC47D951 		.ascii	"\354G\331Qa~8$d\317[\270\244\320\203&i-#\002\033\012"
 205      617E3824 
 205      64CF5BB8 
 205      A4D08326 
 205      692D2302 
 206 059b FB6B1B03 		.ascii	"\373k\033\003<\353\017F\227G\205\345\015|\2648\210\234"
 206      3CEB0F46 
 206      974785E5 
 206      0D7CB438 
 206      889C
 207 05ad E23854C7 		.ascii	"\3428T\307\373\204(\033^J\345E6X_\307\263\021>\312s"
 207      FB84281B 
 207      5E4AE545 
 207      36585FC7 
 207      B3113ECA 
 208 05c2 117F1026 		.ascii	"\021\177\020&\211\004\336\340\"<\313E\352\334\3542\277"
 208      8904DEE0 
 208      223CCB45 
 208      EADCEC32 
 208      BF
 209 05d3 BF080645 		.ascii	"\277\010\006E|]\015\037\010\360\201\324\215p}\230/\342"
 209      7C5D0D1F 
 209      08F081D4 
 209      8D707D98 
 209      2FE2
 210 05e5 B99A50D1 		.ascii	"\271\232P\321T\337\214\"wI\351\324\327\334\254\346A"
 210      54DF8C22 
 210      7749E9D4 
 210      D7DCACE6 
 210      41
 211 05f6 8A415408 		.ascii	"\212AT\010\204\302\002\314\356h\204\277S\334>\241\005"
 211      84C202CC 
 211      EE6884BF 
ARM GAS  /tmp/ccwf2nlK.s 			page 16


 211      53DC3EA1 
 211      05
 212 0607 FF7FB3D7 		.ascii	"\377\177\263\327q\376`(\314\263\276\000\277\224k\254"
 212      71FE6028 
 212      CCB3BE00 
 212      BF946BAC 
 213 0617 157C4A2C 		.ascii	"\025|J,r|>\205\217+*T\012\\D\230S\013\030#\270\032\032"
 213      727C3E85 
 213      8F2B2A54 
 213      0A5C4498 
 213      530B1823 
 214 062e A35CF166 		.ascii	"\243\\\361f}\003\275\227\003c^P\206\363\344a\351\320"
 214      7D03BD97 
 214      03635E50 
 214      86F3E461 
 214      E9D0
 215 0640 F434D447 		.ascii	"\3644\324G \264\225U\025S\334\354\202\005el\325\374"
 215      20B49555 
 215      1553DCEC 
 215      8205656C 
 215      D5FC
 216 0652 8AD74B21 		.ascii	"\212\327K!\002\276\332\332\000\314\231+\215|!\310\334"
 216      02BEDADA 
 216      00CC992B 
 216      8D7C21C8 
 216      DC
 217 0663 54EBDE75 		.ascii	"T\353\336u\"\311P\235\004 \377\360\0116\217\267\024"
 217      22C9509D 
 217      0420FFF0 
 217      09368FB7 
 217      14
 218 0674 C46DAFAC 		.ascii	"\304m\257\254\360x\355e\363\347z\231J\257m\356<o\226"
 218      F078ED65 
 218      F3E77A99 
 218      4AAF6DEE 
 218      3C6F96
 219 0687 C753E12D 		.ascii	"\307S\341-\245\332m\367x\346zm\236\205U\266\305\225"
 219      A5DA6DF7 
 219      78E67A6D 
 219      9E8555B6 
 219      C595
 220 0699 1EDB1CAF 		.ascii	"\036\333\034\257\327\346\365\300opx\271\254\312k+\023"
 220      D7E6F5C0 
 220      6F7078B9 
 220      ACCA6B2B 
 220      13
 221 06aa 3D2BE678 		.ascii	"=+\346x\231E\222\327\024\260\257\366\216\221iF\305\240"
 221      994592D7 
 221      14B0AFF6 
 221      8E916946 
 221      C5A0
 222 06bc F83871AD 		.ascii	"\3708q\255v1$v?\344\307\341\363-m\014\373}\276\221\312"
 222      76312476 
 222      3FE4C7E1 
 222      F32D6D0C 
 222      FB7DBE91 
 223 06d1 A0787AC9 		.ascii	"\240xz\311\364\231\243S>\365\015\222K\276r\207\2271"
ARM GAS  /tmp/ccwf2nlK.s 			page 17


 223      F499A353 
 223      3EF50D92 
 223      4BBE7287 
 223      9731
 224 06e3 D40E33A6 		.ascii	"\324\0163\246)\217\227\031=\236Y\362/p\267\252#"
 224      298F9719 
 224      3D9E59F2 
 224      2F70B7AA 
 224      23
 225              		.text
 226              		.section	.gnu.lto_.symtab.c7e217d23006efab,"",%progbits
 227 0000 7374496E 		.ascii	"stInit\000\000\000\000\000\000\000\000\000\000\000\000"
 227      69740000 
 227      00000000 
 227      00000000 
 227      0000
 228 0012 A1000000 		.ascii	"\241\000\000\000stStartAlarm\000\000\000\000\000\000"
 228      73745374 
 228      61727441 
 228      6C61726D 
 228      00000000 
 229 0028 00000000 		.ascii	"\000\000\000\000\000\000\246\000\000\000stStopAlarm"
 229      0000A600 
 229      00007374 
 229      53746F70 
 229      416C6172 
 230 003d 00000000 		.ascii	"\000\000\000\000\000\000\000\000\000\000\000\000\266"
 230      00000000 
 230      00000000 
 230      B6
 231 004a 00000073 		.ascii	"\000\000\000stSetAlarm\000\000\000\000\000\000\000\000"
 231      74536574 
 231      416C6172 
 231      6D000000 
 231      00000000 
 232 005f 00000000 		.ascii	"\000\000\000\000\271\000\000\000stGetAlarm\000\000\000"
 232      B9000000 
 232      73744765 
 232      74416C61 
 232      726D0000 
 233 0074 00000000 		.ascii	"\000\000\000\000\000\000\000\000\000\275\000\000\000"
 233      00000000 
 233      00BD0000 
 233      00
 234 0081 73745F6C 		.ascii	"st_lld_init\000\000\002\000\000\000\000\000\000\000"
 234      6C645F69 
 234      6E697400 
 234      00020000 
 234      00000000 
 235 0096 0000C100 		.ascii	"\000\000\301\000\000\000"
 235      0000
 236              		.text
 237              		.section	.gnu.lto_.opts,"",%progbits
 238 0000 272D6D63 		.ascii	"'-mcpu=cortex-m4' '-mno-thumb-interwork' '-mthumb' "
 238      70753D63 
 238      6F727465 
 238      782D6D34 
ARM GAS  /tmp/ccwf2nlK.s 			page 18


 238      2720272D 
 239 0033 272D6767 		.ascii	"'-ggdb' '-O2' '-fomit-frame-pointer' '-falign-funct"
 239      64622720 
 239      272D4F32 
 239      2720272D 
 239      666F6D69 
 240 0066 696F6E73 		.ascii	"ions=16' '-ffunction-sections' '-fdata-sections' '-"
 240      3D313627 
 240      20272D66 
 240      66756E63 
 240      74696F6E 
 241 0099 666E6F2D 		.ascii	"fno-common' '-flto'\000"
 241      636F6D6D 
 241      6F6E2720 
 241      272D666C 
 241      746F2700 
 242              		.text
 243              		.cfi_sections	.debug_frame
 244              		.section	.text.stInit,"ax",%progbits
 245              		.align	2
 246              		.p2align 4,,15
 247              		.global	stInit
 248              		.thumb
 249              		.thumb_func
 250              		.type	stInit, %function
 251              	stInit:
 252              	.LFB272:
 253              		.file 1 "../ChibiOS/os/hal/src/st.c"
 254              		.loc 1 60 0
 255              		.cfi_startproc
 256              		@ args = 0, pretend = 0, frame = 0
 257              		@ frame_needed = 0, uses_anonymous_args = 0
 258              		@ link register save eliminated.
 259              		.loc 1 62 0
 260 0000 FFF7FEBF 		b	st_lld_init
 261              	.LVL0:
 262              		.cfi_endproc
 263              	.LFE272:
 264              		.size	stInit, .-stInit
 265 0004 AFF30080 		.section	.text.stStartAlarm,"ax",%progbits
 265      AFF30080 
 265      AFF30080 
 266              		.align	2
 267              		.p2align 4,,15
 268              		.global	stStartAlarm
 269              		.thumb
 270              		.thumb_func
 271              		.type	stStartAlarm, %function
 272              	stStartAlarm:
 273              	.LFB273:
 274              		.loc 1 77 0
 275              		.cfi_startproc
 276              		@ args = 0, pretend = 0, frame = 0
 277              		@ frame_needed = 0, uses_anonymous_args = 0
 278              		@ link register save eliminated.
 279              	.LVL1:
 280              	.LBB10:
ARM GAS  /tmp/ccwf2nlK.s 			page 19


 281              	.LBB11:
 282              		.file 2 "../ChibiOS/os/hal/ports/STM32/LLD/TIMv1/st_lld.h"
 283              		.loc 2 155 0
 284 0000 4FF08043 		mov	r3, #1073741824
 285              	.LVL2:
 286              		.loc 2 156 0
 287 0004 0021     		movs	r1, #0
 288              		.loc 2 157 0
 289 0006 0222     		movs	r2, #2
 290              		.loc 2 155 0
 291 0008 5863     		str	r0, [r3, #52]
 292              		.loc 2 156 0
 293 000a 1961     		str	r1, [r3, #16]
 294              		.loc 2 157 0
 295 000c DA60     		str	r2, [r3, #12]
 296 000e 7047     		bx	lr
 297              	.LBE11:
 298              	.LBE10:
 299              		.cfi_endproc
 300              	.LFE273:
 301              		.size	stStartAlarm, .-stStartAlarm
 302              		.section	.text.stStopAlarm,"ax",%progbits
 303              		.align	2
 304              		.p2align 4,,15
 305              		.global	stStopAlarm
 306              		.thumb
 307              		.thumb_func
 308              		.type	stStopAlarm, %function
 309              	stStopAlarm:
 310              	.LFB274:
 311              		.loc 1 91 0
 312              		.cfi_startproc
 313              		@ args = 0, pretend = 0, frame = 0
 314              		@ frame_needed = 0, uses_anonymous_args = 0
 315              		@ link register save eliminated.
 316              	.LBB12:
 317              	.LBB13:
 318              		.loc 2 167 0
 319 0000 4FF08043 		mov	r3, #1073741824
 320 0004 0022     		movs	r2, #0
 321 0006 DA60     		str	r2, [r3, #12]
 322 0008 7047     		bx	lr
 323              	.LBE13:
 324              	.LBE12:
 325              		.cfi_endproc
 326              	.LFE274:
 327              		.size	stStopAlarm, .-stStopAlarm
 328 000a 00BFAFF3 		.section	.text.stSetAlarm,"ax",%progbits
 328      0080
 329              		.align	2
 330              		.p2align 4,,15
 331              		.global	stSetAlarm
 332              		.thumb
 333              		.thumb_func
 334              		.type	stSetAlarm, %function
 335              	stSetAlarm:
 336              	.LFB275:
ARM GAS  /tmp/ccwf2nlK.s 			page 20


 337              		.loc 1 105 0
 338              		.cfi_startproc
 339              		@ args = 0, pretend = 0, frame = 0
 340              		@ frame_needed = 0, uses_anonymous_args = 0
 341              		@ link register save eliminated.
 342              	.LVL3:
 343              	.LBB14:
 344              	.LBB15:
 345              		.loc 2 179 0
 346 0000 4FF08043 		mov	r3, #1073741824
 347              	.LVL4:
 348 0004 5863     		str	r0, [r3, #52]
 349 0006 7047     		bx	lr
 350              	.LBE15:
 351              	.LBE14:
 352              		.cfi_endproc
 353              	.LFE275:
 354              		.size	stSetAlarm, .-stSetAlarm
 355 0008 AFF30080 		.section	.text.stGetAlarm,"ax",%progbits
 355      AFF30080 
 356              		.align	2
 357              		.p2align 4,,15
 358              		.global	stGetAlarm
 359              		.thumb
 360              		.thumb_func
 361              		.type	stGetAlarm, %function
 362              	stGetAlarm:
 363              	.LFB276:
 364              		.loc 1 121 0
 365              		.cfi_startproc
 366              		@ args = 0, pretend = 0, frame = 0
 367              		@ frame_needed = 0, uses_anonymous_args = 0
 368              		@ link register save eliminated.
 369              	.LBB16:
 370              	.LBB17:
 371              		.loc 2 191 0
 372 0000 4FF08043 		mov	r3, #1073741824
 373 0004 586B     		ldr	r0, [r3, #52]
 374              	.LBE17:
 375              	.LBE16:
 376              		.loc 1 126 0
 377 0006 7047     		bx	lr
 378              		.cfi_endproc
 379              	.LFE276:
 380              		.size	stGetAlarm, .-stGetAlarm
 381 0008 AFF30080 		.text
 381      AFF30080 
 382              	.Letext0:
 383              		.file 3 "/nfs/nfs5/home/research/hardware/arm2/gcc-arm-embedded/gcc-arm-none-eabi-4_8-2014q2/arm-n
 384              		.file 4 "/nfs/nfs5/home/research/hardware/arm2/gcc-arm-embedded/gcc-arm-none-eabi-4_8-2014q2/arm-n
 385              		.file 5 "../ChibiOS/os/rt/ports/ARMCMx/compilers/GCC/chtypes.h"
 386              		.file 6 "../ChibiOS/os/rt/include/chsystypes.h"
 387              		.file 7 "../ChibiOS/os/rt/include/chschd.h"
 388              		.file 8 "../ChibiOS/os/rt/ports/ARMCMx/chcore.h"
 389              		.file 9 "../ChibiOS/os/rt/ports/ARMCMx/chcore_v7m.h"
 390              		.file 10 "../ChibiOS/os/hal/ports/STM32/LLD/TIMv1/stm32_tim.h"
 391              		.file 11 "../ChibiOS/os/rt/include/chtm.h"
ARM GAS  /tmp/ccwf2nlK.s 			page 21


 392              		.file 12 "../ChibiOS/os/rt/include/chsem.h"
 393              		.file 13 "../ChibiOS/os/rt/include/chmtx.h"
 394              		.file 14 "../ChibiOS/os/ext/CMSIS/include/core_cm4.h"
 395              		.section	.debug_info,"",%progbits
 396              	.Ldebug_info0:
 397 0000 F2080000 		.4byte	0x8f2
 398 0004 0400     		.2byte	0x4
 399 0006 00000000 		.4byte	.Ldebug_abbrev0
 400 000a 04       		.byte	0x4
 401 000b 01       		.uleb128 0x1
 402 000c 08050000 		.4byte	.LASF124
 403 0010 01       		.byte	0x1
 404 0011 53000000 		.4byte	.LASF125
 405 0015 FC010000 		.4byte	.LASF126
 406 0019 00000000 		.4byte	.Ldebug_ranges0+0
 407 001d 00000000 		.4byte	0
 408 0021 00000000 		.4byte	.Ldebug_line0
 409 0025 02       		.uleb128 0x2
 410 0026 04       		.byte	0x4
 411 0027 05       		.byte	0x5
 412 0028 696E7400 		.ascii	"int\000"
 413 002c 03       		.uleb128 0x3
 414 002d 04       		.byte	0x4
 415 002e 07       		.byte	0x7
 416 002f C0010000 		.4byte	.LASF0
 417 0033 03       		.uleb128 0x3
 418 0034 01       		.byte	0x1
 419 0035 06       		.byte	0x6
 420 0036 FF000000 		.4byte	.LASF1
 421 003a 04       		.uleb128 0x4
 422 003b 28000000 		.4byte	.LASF5
 423 003f 03       		.byte	0x3
 424 0040 1C       		.byte	0x1c
 425 0041 45000000 		.4byte	0x45
 426 0045 03       		.uleb128 0x3
 427 0046 01       		.byte	0x1
 428 0047 08       		.byte	0x8
 429 0048 6A030000 		.4byte	.LASF2
 430 004c 03       		.uleb128 0x3
 431 004d 02       		.byte	0x2
 432 004e 05       		.byte	0x5
 433 004f 90030000 		.4byte	.LASF3
 434 0053 03       		.uleb128 0x3
 435 0054 02       		.byte	0x2
 436 0055 07       		.byte	0x7
 437 0056 6F010000 		.4byte	.LASF4
 438 005a 04       		.uleb128 0x4
 439 005b 6C020000 		.4byte	.LASF6
 440 005f 03       		.byte	0x3
 441 0060 37       		.byte	0x37
 442 0061 65000000 		.4byte	0x65
 443 0065 03       		.uleb128 0x3
 444 0066 04       		.byte	0x4
 445 0067 05       		.byte	0x5
 446 0068 32010000 		.4byte	.LASF7
 447 006c 04       		.uleb128 0x4
 448 006d 85040000 		.4byte	.LASF8
ARM GAS  /tmp/ccwf2nlK.s 			page 22


 449 0071 03       		.byte	0x3
 450 0072 38       		.byte	0x38
 451 0073 77000000 		.4byte	0x77
 452 0077 03       		.uleb128 0x3
 453 0078 04       		.byte	0x4
 454 0079 07       		.byte	0x7
 455 007a 2F040000 		.4byte	.LASF9
 456 007e 03       		.uleb128 0x3
 457 007f 08       		.byte	0x8
 458 0080 05       		.byte	0x5
 459 0081 51010000 		.4byte	.LASF10
 460 0085 04       		.uleb128 0x4
 461 0086 1A030000 		.4byte	.LASF11
 462 008a 03       		.byte	0x3
 463 008b 4E       		.byte	0x4e
 464 008c 90000000 		.4byte	0x90
 465 0090 03       		.uleb128 0x3
 466 0091 08       		.byte	0x8
 467 0092 07       		.byte	0x7
 468 0093 6E000000 		.4byte	.LASF12
 469 0097 04       		.uleb128 0x4
 470 0098 B7030000 		.4byte	.LASF13
 471 009c 04       		.byte	0x4
 472 009d 2A       		.byte	0x2a
 473 009e 3A000000 		.4byte	0x3a
 474 00a2 04       		.uleb128 0x4
 475 00a3 62030000 		.4byte	.LASF14
 476 00a7 04       		.byte	0x4
 477 00a8 41       		.byte	0x41
 478 00a9 5A000000 		.4byte	0x5a
 479 00ad 04       		.uleb128 0x4
 480 00ae FE030000 		.4byte	.LASF15
 481 00b2 04       		.byte	0x4
 482 00b3 42       		.byte	0x42
 483 00b4 6C000000 		.4byte	0x6c
 484 00b8 04       		.uleb128 0x4
 485 00b9 1F000000 		.4byte	.LASF16
 486 00bd 04       		.byte	0x4
 487 00be 4E       		.byte	0x4e
 488 00bf 85000000 		.4byte	0x85
 489 00c3 04       		.uleb128 0x4
 490 00c4 B6040000 		.4byte	.LASF17
 491 00c8 05       		.byte	0x5
 492 00c9 39       		.byte	0x39
 493 00ca AD000000 		.4byte	0xad
 494 00ce 04       		.uleb128 0x4
 495 00cf 3B010000 		.4byte	.LASF18
 496 00d3 05       		.byte	0x5
 497 00d4 3C       		.byte	0x3c
 498 00d5 97000000 		.4byte	0x97
 499 00d9 04       		.uleb128 0x4
 500 00da 43010000 		.4byte	.LASF19
 501 00de 05       		.byte	0x5
 502 00df 3D       		.byte	0x3d
 503 00e0 97000000 		.4byte	0x97
 504 00e4 04       		.uleb128 0x4
 505 00e5 25030000 		.4byte	.LASF20
ARM GAS  /tmp/ccwf2nlK.s 			page 23


 506 00e9 05       		.byte	0x5
 507 00ea 3E       		.byte	0x3e
 508 00eb 97000000 		.4byte	0x97
 509 00ef 04       		.uleb128 0x4
 510 00f0 44030000 		.4byte	.LASF21
 511 00f4 05       		.byte	0x5
 512 00f5 40       		.byte	0x40
 513 00f6 AD000000 		.4byte	0xad
 514 00fa 04       		.uleb128 0x4
 515 00fb 32000000 		.4byte	.LASF22
 516 00ff 05       		.byte	0x5
 517 0100 41       		.byte	0x41
 518 0101 A2000000 		.4byte	0xa2
 519 0105 04       		.uleb128 0x4
 520 0106 60020000 		.4byte	.LASF23
 521 010a 05       		.byte	0x5
 522 010b 43       		.byte	0x43
 523 010c AD000000 		.4byte	0xad
 524 0110 04       		.uleb128 0x4
 525 0111 BA010000 		.4byte	.LASF24
 526 0115 05       		.byte	0x5
 527 0116 45       		.byte	0x45
 528 0117 A2000000 		.4byte	0xa2
 529 011b 04       		.uleb128 0x4
 530 011c 67040000 		.4byte	.LASF25
 531 0120 06       		.byte	0x6
 532 0121 33       		.byte	0x33
 533 0122 AD000000 		.4byte	0xad
 534 0126 04       		.uleb128 0x4
 535 0127 57040000 		.4byte	.LASF26
 536 012b 06       		.byte	0x6
 537 012c 3F       		.byte	0x3f
 538 012d 31010000 		.4byte	0x131
 539 0131 05       		.uleb128 0x5
 540 0132 F2010000 		.4byte	.LASF45
 541 0136 40       		.byte	0x40
 542 0137 07       		.byte	0x7
 543 0138 C2       		.byte	0xc2
 544 0139 11020000 		.4byte	0x211
 545 013d 06       		.uleb128 0x6
 546 013e B0030000 		.4byte	.LASF27
 547 0142 07       		.byte	0x7
 548 0143 C3       		.byte	0xc3
 549 0144 1C020000 		.4byte	0x21c
 550 0148 00       		.byte	0
 551 0149 06       		.uleb128 0x6
 552 014a 3D030000 		.4byte	.LASF28
 553 014e 07       		.byte	0x7
 554 014f C5       		.byte	0xc5
 555 0150 1C020000 		.4byte	0x21c
 556 0154 04       		.byte	0x4
 557 0155 06       		.uleb128 0x6
 558 0156 E6000000 		.4byte	.LASF29
 559 015a 07       		.byte	0x7
 560 015b C7       		.byte	0xc7
 561 015c EF000000 		.4byte	0xef
 562 0160 08       		.byte	0x8
ARM GAS  /tmp/ccwf2nlK.s 			page 24


 563 0161 06       		.uleb128 0x6
 564 0162 47060000 		.4byte	.LASF30
 565 0166 07       		.byte	0x7
 566 0167 C8       		.byte	0xc8
 567 0168 71040000 		.4byte	0x471
 568 016c 0C       		.byte	0xc
 569 016d 06       		.uleb128 0x6
 570 016e 5F010000 		.4byte	.LASF31
 571 0172 07       		.byte	0x7
 572 0173 CA       		.byte	0xca
 573 0174 1C020000 		.4byte	0x21c
 574 0178 10       		.byte	0x10
 575 0179 06       		.uleb128 0x6
 576 017a DD020000 		.4byte	.LASF32
 577 017e 07       		.byte	0x7
 578 017f CB       		.byte	0xcb
 579 0180 1C020000 		.4byte	0x21c
 580 0184 14       		.byte	0x14
 581 0185 06       		.uleb128 0x6
 582 0186 FA050000 		.4byte	.LASF33
 583 018a 07       		.byte	0x7
 584 018b D2       		.byte	0xd2
 585 018c 1E070000 		.4byte	0x71e
 586 0190 18       		.byte	0x18
 587 0191 06       		.uleb128 0x6
 588 0192 9A030000 		.4byte	.LASF34
 589 0196 07       		.byte	0x7
 590 0197 DD       		.byte	0xdd
 591 0198 D9000000 		.4byte	0xd9
 592 019c 1C       		.byte	0x1c
 593 019d 06       		.uleb128 0x6
 594 019e 26060000 		.4byte	.LASF35
 595 01a2 07       		.byte	0x7
 596 01a3 E1       		.byte	0xe1
 597 01a4 CE000000 		.4byte	0xce
 598 01a8 1D       		.byte	0x1d
 599 01a9 06       		.uleb128 0x6
 600 01aa F0040000 		.4byte	.LASF36
 601 01ae 07       		.byte	0x7
 602 01af E6       		.byte	0xe6
 603 01b0 E4000000 		.4byte	0xe4
 604 01b4 1E       		.byte	0x1e
 605 01b5 07       		.uleb128 0x7
 606 01b6 705F7500 		.ascii	"p_u\000"
 607 01ba 07       		.byte	0x7
 608 01bb 3701     		.2byte	0x137
 609 01bd 4D060000 		.4byte	0x64d
 610 01c1 20       		.byte	0x20
 611 01c2 08       		.uleb128 0x8
 612 01c3 94020000 		.4byte	.LASF37
 613 01c7 07       		.byte	0x7
 614 01c8 3C01     		.2byte	0x13c
 615 01ca 22020000 		.4byte	0x222
 616 01ce 24       		.byte	0x24
 617 01cf 08       		.uleb128 0x8
 618 01d0 DC010000 		.4byte	.LASF38
 619 01d4 07       		.byte	0x7
ARM GAS  /tmp/ccwf2nlK.s 			page 25


 620 01d5 4201     		.2byte	0x142
 621 01d7 46020000 		.4byte	0x246
 622 01db 28       		.byte	0x28
 623 01dc 08       		.uleb128 0x8
 624 01dd F3030000 		.4byte	.LASF39
 625 01e1 07       		.byte	0x7
 626 01e2 4801     		.2byte	0x148
 627 01e4 05010000 		.4byte	0x105
 628 01e8 30       		.byte	0x30
 629 01e9 08       		.uleb128 0x8
 630 01ea 86030000 		.4byte	.LASF40
 631 01ee 07       		.byte	0x7
 632 01ef 4F01     		.2byte	0x14f
 633 01f1 18070000 		.4byte	0x718
 634 01f5 34       		.byte	0x34
 635 01f6 08       		.uleb128 0x8
 636 01f7 71040000 		.4byte	.LASF41
 637 01fb 07       		.byte	0x7
 638 01fc 5301     		.2byte	0x153
 639 01fe EF000000 		.4byte	0xef
 640 0202 38       		.byte	0x38
 641 0203 08       		.uleb128 0x8
 642 0204 8A010000 		.4byte	.LASF42
 643 0208 07       		.byte	0x7
 644 0209 5A01     		.2byte	0x15a
 645 020b F9020000 		.4byte	0x2f9
 646 020f 3C       		.byte	0x3c
 647 0210 00       		.byte	0
 648 0211 04       		.uleb128 0x4
 649 0212 A7020000 		.4byte	.LASF43
 650 0216 06       		.byte	0x6
 651 0217 44       		.byte	0x44
 652 0218 1C020000 		.4byte	0x21c
 653 021c 09       		.uleb128 0x9
 654 021d 04       		.byte	0x4
 655 021e 26010000 		.4byte	0x126
 656 0222 04       		.uleb128 0x4
 657 0223 0F060000 		.4byte	.LASF44
 658 0227 06       		.byte	0x6
 659 0228 49       		.byte	0x49
 660 0229 2D020000 		.4byte	0x22d
 661 022d 05       		.uleb128 0x5
 662 022e 1F040000 		.4byte	.LASF46
 663 0232 04       		.byte	0x4
 664 0233 07       		.byte	0x7
 665 0234 B0       		.byte	0xb0
 666 0235 46020000 		.4byte	0x246
 667 0239 06       		.uleb128 0x6
 668 023a B0030000 		.4byte	.LASF27
 669 023e 07       		.byte	0x7
 670 023f B1       		.byte	0xb1
 671 0240 1C020000 		.4byte	0x21c
 672 0244 00       		.byte	0
 673 0245 00       		.byte	0
 674 0246 04       		.uleb128 0x4
 675 0247 D7040000 		.4byte	.LASF47
 676 024b 06       		.byte	0x6
ARM GAS  /tmp/ccwf2nlK.s 			page 26


 677 024c 50       		.byte	0x50
 678 024d 51020000 		.4byte	0x251
 679 0251 05       		.uleb128 0x5
 680 0252 D5000000 		.4byte	.LASF48
 681 0256 08       		.byte	0x8
 682 0257 07       		.byte	0x7
 683 0258 B7       		.byte	0xb7
 684 0259 76020000 		.4byte	0x276
 685 025d 06       		.uleb128 0x6
 686 025e B0030000 		.4byte	.LASF27
 687 0262 07       		.byte	0x7
 688 0263 B8       		.byte	0xb8
 689 0264 1C020000 		.4byte	0x21c
 690 0268 00       		.byte	0
 691 0269 06       		.uleb128 0x6
 692 026a 3D030000 		.4byte	.LASF28
 693 026e 07       		.byte	0x7
 694 026f B9       		.byte	0xb9
 695 0270 1C020000 		.4byte	0x21c
 696 0274 04       		.byte	0x4
 697 0275 00       		.byte	0
 698 0276 04       		.uleb128 0x4
 699 0277 00000000 		.4byte	.LASF49
 700 027b 06       		.byte	0x6
 701 027c 57       		.byte	0x57
 702 027d 81020000 		.4byte	0x281
 703 0281 0A       		.uleb128 0xa
 704 0282 52020000 		.4byte	.LASF50
 705 0286 1C       		.byte	0x1c
 706 0287 07       		.byte	0x7
 707 0288 9201     		.2byte	0x192
 708 028a DD020000 		.4byte	0x2dd
 709 028e 08       		.uleb128 0x8
 710 028f 0E040000 		.4byte	.LASF51
 711 0293 07       		.byte	0x7
 712 0294 9301     		.2byte	0x193
 713 0296 46020000 		.4byte	0x246
 714 029a 00       		.byte	0
 715 029b 08       		.uleb128 0x8
 716 029c A2030000 		.4byte	.LASF52
 717 02a0 07       		.byte	0x7
 718 02a1 9401     		.2byte	0x194
 719 02a3 EF000000 		.4byte	0xef
 720 02a7 08       		.byte	0x8
 721 02a8 08       		.uleb128 0x8
 722 02a9 EC020000 		.4byte	.LASF53
 723 02ad 07       		.byte	0x7
 724 02ae 9601     		.2byte	0x196
 725 02b0 71040000 		.4byte	0x471
 726 02b4 0C       		.byte	0xc
 727 02b5 08       		.uleb128 0x8
 728 02b6 82010000 		.4byte	.LASF54
 729 02ba 07       		.byte	0x7
 730 02bb 9901     		.2byte	0x199
 731 02bd 1C020000 		.4byte	0x21c
 732 02c1 10       		.byte	0x10
 733 02c2 08       		.uleb128 0x8
ARM GAS  /tmp/ccwf2nlK.s 			page 27


 734 02c3 12030000 		.4byte	.LASF55
 735 02c7 07       		.byte	0x7
 736 02c8 9A01     		.2byte	0x19a
 737 02ca 1C020000 		.4byte	0x21c
 738 02ce 14       		.byte	0x14
 739 02cf 08       		.uleb128 0x8
 740 02d0 08030000 		.4byte	.LASF56
 741 02d4 07       		.byte	0x7
 742 02d5 9D01     		.2byte	0x19d
 743 02d7 1C020000 		.4byte	0x21c
 744 02db 18       		.byte	0x18
 745 02dc 00       		.byte	0
 746 02dd 04       		.uleb128 0x4
 747 02de 7C040000 		.4byte	.LASF57
 748 02e2 06       		.byte	0x6
 749 02e3 5C       		.byte	0x5c
 750 02e4 E8020000 		.4byte	0x2e8
 751 02e8 09       		.uleb128 0x9
 752 02e9 04       		.byte	0x4
 753 02ea EE020000 		.4byte	0x2ee
 754 02ee 0B       		.uleb128 0xb
 755 02ef F9020000 		.4byte	0x2f9
 756 02f3 0C       		.uleb128 0xc
 757 02f4 F9020000 		.4byte	0x2f9
 758 02f8 00       		.byte	0
 759 02f9 0D       		.uleb128 0xd
 760 02fa 04       		.byte	0x4
 761 02fb 04       		.uleb128 0x4
 762 02fc 2D030000 		.4byte	.LASF58
 763 0300 06       		.byte	0x6
 764 0301 61       		.byte	0x61
 765 0302 06030000 		.4byte	0x306
 766 0306 0A       		.uleb128 0xa
 767 0307 BF030000 		.4byte	.LASF59
 768 030b 14       		.byte	0x14
 769 030c 07       		.byte	0x7
 770 030d 6D01     		.2byte	0x16d
 771 030f 55030000 		.4byte	0x355
 772 0313 08       		.uleb128 0x8
 773 0314 CD010000 		.4byte	.LASF60
 774 0318 07       		.byte	0x7
 775 0319 6E01     		.2byte	0x16e
 776 031b 30070000 		.4byte	0x730
 777 031f 00       		.byte	0
 778 0320 08       		.uleb128 0x8
 779 0321 9B010000 		.4byte	.LASF61
 780 0325 07       		.byte	0x7
 781 0326 6F01     		.2byte	0x16f
 782 0328 30070000 		.4byte	0x730
 783 032c 04       		.byte	0x4
 784 032d 08       		.uleb128 0x8
 785 032e 16040000 		.4byte	.LASF62
 786 0332 07       		.byte	0x7
 787 0333 7001     		.2byte	0x170
 788 0335 1B010000 		.4byte	0x11b
 789 0339 08       		.byte	0x8
 790 033a 08       		.uleb128 0x8
ARM GAS  /tmp/ccwf2nlK.s 			page 28


 791 033b 4D060000 		.4byte	.LASF63
 792 033f 07       		.byte	0x7
 793 0340 7101     		.2byte	0x171
 794 0342 DD020000 		.4byte	0x2dd
 795 0346 0C       		.byte	0xc
 796 0347 08       		.uleb128 0x8
 797 0348 D0040000 		.4byte	.LASF64
 798 034c 07       		.byte	0x7
 799 034d 7301     		.2byte	0x173
 800 034f F9020000 		.4byte	0x2f9
 801 0353 10       		.byte	0x10
 802 0354 00       		.byte	0
 803 0355 04       		.uleb128 0x4
 804 0356 A1000000 		.4byte	.LASF65
 805 035a 06       		.byte	0x6
 806 035b 66       		.byte	0x66
 807 035c 60030000 		.4byte	0x360
 808 0360 0A       		.uleb128 0xa
 809 0361 BA020000 		.4byte	.LASF66
 810 0365 10       		.byte	0x10
 811 0366 07       		.byte	0x7
 812 0367 7D01     		.2byte	0x17d
 813 0369 A2030000 		.4byte	0x3a2
 814 036d 08       		.uleb128 0x8
 815 036e CD010000 		.4byte	.LASF60
 816 0372 07       		.byte	0x7
 817 0373 7E01     		.2byte	0x17e
 818 0375 30070000 		.4byte	0x730
 819 0379 00       		.byte	0
 820 037a 08       		.uleb128 0x8
 821 037b 9B010000 		.4byte	.LASF61
 822 037f 07       		.byte	0x7
 823 0380 8001     		.2byte	0x180
 824 0382 30070000 		.4byte	0x730
 825 0386 04       		.byte	0x4
 826 0387 08       		.uleb128 0x8
 827 0388 16040000 		.4byte	.LASF62
 828 038c 07       		.byte	0x7
 829 038d 8201     		.2byte	0x182
 830 038f 1B010000 		.4byte	0x11b
 831 0393 08       		.byte	0x8
 832 0394 08       		.uleb128 0x8
 833 0395 D1020000 		.4byte	.LASF67
 834 0399 07       		.byte	0x7
 835 039a 8A01     		.2byte	0x18a
 836 039c 1B010000 		.4byte	0x11b
 837 03a0 0C       		.byte	0xc
 838 03a1 00       		.byte	0
 839 03a2 04       		.uleb128 0x4
 840 03a3 44000000 		.4byte	.LASF68
 841 03a7 06       		.byte	0x6
 842 03a8 6B       		.byte	0x6b
 843 03a9 AD030000 		.4byte	0x3ad
 844 03ad 0A       		.uleb128 0xa
 845 03ae 4C030000 		.4byte	.LASF69
 846 03b2 04       		.byte	0x4
 847 03b3 07       		.byte	0x7
ARM GAS  /tmp/ccwf2nlK.s 			page 29


 848 03b4 A401     		.2byte	0x1a4
 849 03b6 C8030000 		.4byte	0x3c8
 850 03ba 08       		.uleb128 0x8
 851 03bb 90040000 		.4byte	.LASF70
 852 03bf 07       		.byte	0x7
 853 03c0 AC01     		.2byte	0x1ac
 854 03c2 36070000 		.4byte	0x736
 855 03c6 00       		.byte	0
 856 03c7 00       		.byte	0
 857 03c8 04       		.uleb128 0x4
 858 03c9 3A020000 		.4byte	.LASF71
 859 03cd 06       		.byte	0x6
 860 03ce 70       		.byte	0x70
 861 03cf D3030000 		.4byte	0x3d3
 862 03d3 0E       		.uleb128 0xe
 863 03d4 28010000 		.4byte	.LASF72
 864 03d8 5001     		.2byte	0x150
 865 03da 07       		.byte	0x7
 866 03db C401     		.2byte	0x1c4
 867 03dd 2F040000 		.4byte	0x42f
 868 03e1 08       		.uleb128 0x8
 869 03e2 F7040000 		.4byte	.LASF73
 870 03e6 07       		.byte	0x7
 871 03e7 C801     		.2byte	0x1c8
 872 03e9 76020000 		.4byte	0x276
 873 03ed 00       		.byte	0
 874 03ee 08       		.uleb128 0x8
 875 03ef 21010000 		.4byte	.LASF74
 876 03f3 07       		.byte	0x7
 877 03f4 CC01     		.2byte	0x1cc
 878 03f6 55030000 		.4byte	0x355
 879 03fa 1C       		.byte	0x1c
 880 03fb 07       		.uleb128 0x7
 881 03fc 64626700 		.ascii	"dbg\000"
 882 0400 07       		.byte	0x7
 883 0401 D001     		.2byte	0x1d0
 884 0403 A2030000 		.4byte	0x3a2
 885 0407 2C       		.byte	0x2c
 886 0408 08       		.uleb128 0x8
 887 0409 8E000000 		.4byte	.LASF75
 888 040d 07       		.byte	0x7
 889 040e D401     		.2byte	0x1d4
 890 0410 26010000 		.4byte	0x126
 891 0414 30       		.byte	0x30
 892 0415 07       		.uleb128 0x7
 893 0416 746D00   		.ascii	"tm\000"
 894 0419 07       		.byte	0x7
 895 041a D901     		.2byte	0x1d9
 896 041c 42060000 		.4byte	0x642
 897 0420 70       		.byte	0x70
 898 0421 08       		.uleb128 0x8
 899 0422 AB010000 		.4byte	.LASF76
 900 0426 07       		.byte	0x7
 901 0427 E501     		.2byte	0x1e5
 902 0429 3B070000 		.4byte	0x73b
 903 042d 78       		.byte	0x78
 904 042e 00       		.byte	0
ARM GAS  /tmp/ccwf2nlK.s 			page 30


 905 042f 03       		.uleb128 0x3
 906 0430 04       		.byte	0x4
 907 0431 07       		.byte	0x7
 908 0432 9E020000 		.4byte	.LASF77
 909 0436 0F       		.uleb128 0xf
 910 0437 AD000000 		.4byte	0xad
 911 043b 10       		.uleb128 0x10
 912 043c AD000000 		.4byte	0xad
 913 0440 4B040000 		.4byte	0x44b
 914 0444 11       		.uleb128 0x11
 915 0445 2F040000 		.4byte	0x42f
 916 0449 01       		.byte	0x1
 917 044a 00       		.byte	0
 918 044b 10       		.uleb128 0x10
 919 044c AD000000 		.4byte	0xad
 920 0450 5B040000 		.4byte	0x45b
 921 0454 11       		.uleb128 0x11
 922 0455 2F040000 		.4byte	0x42f
 923 0459 03       		.byte	0x3
 924 045a 00       		.byte	0
 925 045b 04       		.uleb128 0x4
 926 045c 92010000 		.4byte	.LASF78
 927 0460 08       		.byte	0x8
 928 0461 65       		.byte	0x65
 929 0462 F9020000 		.4byte	0x2f9
 930 0466 04       		.uleb128 0x4
 931 0467 89020000 		.4byte	.LASF79
 932 046b 08       		.byte	0x8
 933 046c 6D       		.byte	0x6d
 934 046d B8000000 		.4byte	0xb8
 935 0471 05       		.uleb128 0x5
 936 0472 AE040000 		.4byte	.LASF80
 937 0476 04       		.byte	0x4
 938 0477 08       		.byte	0x8
 939 0478 89       		.byte	0x89
 940 0479 8A040000 		.4byte	0x48a
 941 047d 12       		.uleb128 0x12
 942 047e 72313300 		.ascii	"r13\000"
 943 0482 08       		.byte	0x8
 944 0483 8A       		.byte	0x8a
 945 0484 05050000 		.4byte	0x505
 946 0488 00       		.byte	0
 947 0489 00       		.byte	0
 948 048a 05       		.uleb128 0x5
 949 048b 38000000 		.4byte	.LASF81
 950 048f 24       		.byte	0x24
 951 0490 09       		.byte	0x9
 952 0491 FD       		.byte	0xfd
 953 0492 05050000 		.4byte	0x505
 954 0496 07       		.uleb128 0x7
 955 0497 723400   		.ascii	"r4\000"
 956 049a 09       		.byte	0x9
 957 049b 1001     		.2byte	0x110
 958 049d 5B040000 		.4byte	0x45b
 959 04a1 00       		.byte	0
 960 04a2 07       		.uleb128 0x7
 961 04a3 723500   		.ascii	"r5\000"
ARM GAS  /tmp/ccwf2nlK.s 			page 31


 962 04a6 09       		.byte	0x9
 963 04a7 1101     		.2byte	0x111
 964 04a9 5B040000 		.4byte	0x45b
 965 04ad 04       		.byte	0x4
 966 04ae 07       		.uleb128 0x7
 967 04af 723600   		.ascii	"r6\000"
 968 04b2 09       		.byte	0x9
 969 04b3 1201     		.2byte	0x112
 970 04b5 5B040000 		.4byte	0x45b
 971 04b9 08       		.byte	0x8
 972 04ba 07       		.uleb128 0x7
 973 04bb 723700   		.ascii	"r7\000"
 974 04be 09       		.byte	0x9
 975 04bf 1301     		.2byte	0x113
 976 04c1 5B040000 		.4byte	0x45b
 977 04c5 0C       		.byte	0xc
 978 04c6 07       		.uleb128 0x7
 979 04c7 723800   		.ascii	"r8\000"
 980 04ca 09       		.byte	0x9
 981 04cb 1401     		.2byte	0x114
 982 04cd 5B040000 		.4byte	0x45b
 983 04d1 10       		.byte	0x10
 984 04d2 07       		.uleb128 0x7
 985 04d3 723900   		.ascii	"r9\000"
 986 04d6 09       		.byte	0x9
 987 04d7 1501     		.2byte	0x115
 988 04d9 5B040000 		.4byte	0x45b
 989 04dd 14       		.byte	0x14
 990 04de 07       		.uleb128 0x7
 991 04df 72313000 		.ascii	"r10\000"
 992 04e3 09       		.byte	0x9
 993 04e4 1601     		.2byte	0x116
 994 04e6 5B040000 		.4byte	0x45b
 995 04ea 18       		.byte	0x18
 996 04eb 07       		.uleb128 0x7
 997 04ec 72313100 		.ascii	"r11\000"
 998 04f0 09       		.byte	0x9
 999 04f1 1701     		.2byte	0x117
 1000 04f3 5B040000 		.4byte	0x45b
 1001 04f7 1C       		.byte	0x1c
 1002 04f8 07       		.uleb128 0x7
 1003 04f9 6C7200   		.ascii	"lr\000"
 1004 04fc 09       		.byte	0x9
 1005 04fd 1801     		.2byte	0x118
 1006 04ff 5B040000 		.4byte	0x45b
 1007 0503 20       		.byte	0x20
 1008 0504 00       		.byte	0
 1009 0505 09       		.uleb128 0x9
 1010 0506 04       		.byte	0x4
 1011 0507 8A040000 		.4byte	0x48a
 1012 050b 13       		.uleb128 0x13
 1013 050c 60       		.byte	0x60
 1014 050d 0A       		.byte	0xa
 1015 050e A101     		.2byte	0x1a1
 1016 0510 17060000 		.4byte	0x617
 1017 0514 07       		.uleb128 0x7
 1018 0515 43523100 		.ascii	"CR1\000"
ARM GAS  /tmp/ccwf2nlK.s 			page 32


 1019 0519 0A       		.byte	0xa
 1020 051a A201     		.2byte	0x1a2
 1021 051c 36040000 		.4byte	0x436
 1022 0520 00       		.byte	0
 1023 0521 07       		.uleb128 0x7
 1024 0522 43523200 		.ascii	"CR2\000"
 1025 0526 0A       		.byte	0xa
 1026 0527 A301     		.2byte	0x1a3
 1027 0529 36040000 		.4byte	0x436
 1028 052d 04       		.byte	0x4
 1029 052e 08       		.uleb128 0x8
 1030 052f ED010000 		.4byte	.LASF82
 1031 0533 0A       		.byte	0xa
 1032 0534 A401     		.2byte	0x1a4
 1033 0536 36040000 		.4byte	0x436
 1034 053a 08       		.byte	0x8
 1035 053b 08       		.uleb128 0x8
 1036 053c 0D000000 		.4byte	.LASF83
 1037 0540 0A       		.byte	0xa
 1038 0541 A501     		.2byte	0x1a5
 1039 0543 36040000 		.4byte	0x436
 1040 0547 0C       		.byte	0xc
 1041 0548 07       		.uleb128 0x7
 1042 0549 535200   		.ascii	"SR\000"
 1043 054c 0A       		.byte	0xa
 1044 054d A601     		.2byte	0x1a6
 1045 054f 36040000 		.4byte	0x436
 1046 0553 10       		.byte	0x10
 1047 0554 07       		.uleb128 0x7
 1048 0555 45475200 		.ascii	"EGR\000"
 1049 0559 0A       		.byte	0xa
 1050 055a A701     		.2byte	0x1a7
 1051 055c 36040000 		.4byte	0x436
 1052 0560 14       		.byte	0x14
 1053 0561 08       		.uleb128 0x8
 1054 0562 ED000000 		.4byte	.LASF84
 1055 0566 0A       		.byte	0xa
 1056 0567 A801     		.2byte	0x1a8
 1057 0569 36040000 		.4byte	0x436
 1058 056d 18       		.byte	0x18
 1059 056e 08       		.uleb128 0x8
 1060 056f F3000000 		.4byte	.LASF85
 1061 0573 0A       		.byte	0xa
 1062 0574 A901     		.2byte	0x1a9
 1063 0576 36040000 		.4byte	0x436
 1064 057a 1C       		.byte	0x1c
 1065 057b 08       		.uleb128 0x8
 1066 057c 4C010000 		.4byte	.LASF86
 1067 0580 0A       		.byte	0xa
 1068 0581 AA01     		.2byte	0x1aa
 1069 0583 36040000 		.4byte	0x436
 1070 0587 20       		.byte	0x20
 1071 0588 07       		.uleb128 0x7
 1072 0589 434E5400 		.ascii	"CNT\000"
 1073 058d 0A       		.byte	0xa
 1074 058e AB01     		.2byte	0x1ab
 1075 0590 36040000 		.4byte	0x436
ARM GAS  /tmp/ccwf2nlK.s 			page 33


 1076 0594 24       		.byte	0x24
 1077 0595 07       		.uleb128 0x7
 1078 0596 50534300 		.ascii	"PSC\000"
 1079 059a 0A       		.byte	0xa
 1080 059b AC01     		.2byte	0x1ac
 1081 059d 36040000 		.4byte	0x436
 1082 05a1 28       		.byte	0x28
 1083 05a2 07       		.uleb128 0x7
 1084 05a3 41525200 		.ascii	"ARR\000"
 1085 05a7 0A       		.byte	0xa
 1086 05a8 AD01     		.2byte	0x1ad
 1087 05aa 36040000 		.4byte	0x436
 1088 05ae 2C       		.byte	0x2c
 1089 05af 07       		.uleb128 0x7
 1090 05b0 52435200 		.ascii	"RCR\000"
 1091 05b4 0A       		.byte	0xa
 1092 05b5 AE01     		.2byte	0x1ae
 1093 05b7 36040000 		.4byte	0x436
 1094 05bb 30       		.byte	0x30
 1095 05bc 07       		.uleb128 0x7
 1096 05bd 43435200 		.ascii	"CCR\000"
 1097 05c1 0A       		.byte	0xa
 1098 05c2 AF01     		.2byte	0x1af
 1099 05c4 17060000 		.4byte	0x617
 1100 05c8 34       		.byte	0x34
 1101 05c9 08       		.uleb128 0x8
 1102 05ca D0000000 		.4byte	.LASF87
 1103 05ce 0A       		.byte	0xa
 1104 05cf B001     		.2byte	0x1b0
 1105 05d1 36040000 		.4byte	0x436
 1106 05d5 44       		.byte	0x44
 1107 05d6 07       		.uleb128 0x7
 1108 05d7 44435200 		.ascii	"DCR\000"
 1109 05db 0A       		.byte	0xa
 1110 05dc B101     		.2byte	0x1b1
 1111 05de 36040000 		.4byte	0x436
 1112 05e2 48       		.byte	0x48
 1113 05e3 08       		.uleb128 0x8
 1114 05e4 52040000 		.4byte	.LASF88
 1115 05e8 0A       		.byte	0xa
 1116 05e9 B201     		.2byte	0x1b2
 1117 05eb 36040000 		.4byte	0x436
 1118 05ef 4C       		.byte	0x4c
 1119 05f0 07       		.uleb128 0x7
 1120 05f1 4F5200   		.ascii	"OR\000"
 1121 05f4 0A       		.byte	0xa
 1122 05f5 B301     		.2byte	0x1b3
 1123 05f7 36040000 		.4byte	0x436
 1124 05fb 50       		.byte	0x50
 1125 05fc 08       		.uleb128 0x8
 1126 05fd F9000000 		.4byte	.LASF89
 1127 0601 0A       		.byte	0xa
 1128 0602 B401     		.2byte	0x1b4
 1129 0604 36040000 		.4byte	0x436
 1130 0608 54       		.byte	0x54
 1131 0609 08       		.uleb128 0x8
 1132 060a EE030000 		.4byte	.LASF90
ARM GAS  /tmp/ccwf2nlK.s 			page 34


 1133 060e 0A       		.byte	0xa
 1134 060f B501     		.2byte	0x1b5
 1135 0611 1C060000 		.4byte	0x61c
 1136 0615 58       		.byte	0x58
 1137 0616 00       		.byte	0
 1138 0617 0F       		.uleb128 0xf
 1139 0618 4B040000 		.4byte	0x44b
 1140 061c 0F       		.uleb128 0xf
 1141 061d 3B040000 		.4byte	0x43b
 1142 0621 14       		.uleb128 0x14
 1143 0622 46020000 		.4byte	.LASF91
 1144 0626 0A       		.byte	0xa
 1145 0627 B601     		.2byte	0x1b6
 1146 0629 0B050000 		.4byte	0x50b
 1147 062d 15       		.uleb128 0x15
 1148 062e 04       		.byte	0x4
 1149 062f 0B       		.byte	0xb
 1150 0630 38       		.byte	0x38
 1151 0631 42060000 		.4byte	0x642
 1152 0635 06       		.uleb128 0x6
 1153 0636 9A040000 		.4byte	.LASF92
 1154 063a 0B       		.byte	0xb
 1155 063b 3C       		.byte	0x3c
 1156 063c C3000000 		.4byte	0xc3
 1157 0640 00       		.byte	0
 1158 0641 00       		.byte	0
 1159 0642 04       		.uleb128 0x4
 1160 0643 F2020000 		.4byte	.LASF93
 1161 0647 0B       		.byte	0xb
 1162 0648 3D       		.byte	0x3d
 1163 0649 2D060000 		.4byte	0x62d
 1164 064d 16       		.uleb128 0x16
 1165 064e 04       		.byte	0x4
 1166 064f 07       		.byte	0x7
 1167 0650 FA       		.byte	0xfa
 1168 0651 B6060000 		.4byte	0x6b6
 1169 0655 17       		.uleb128 0x17
 1170 0656 18000000 		.4byte	.LASF94
 1171 065a 07       		.byte	0x7
 1172 065b 0101     		.2byte	0x101
 1173 065d FA000000 		.4byte	0xfa
 1174 0661 17       		.uleb128 0x17
 1175 0662 85000000 		.4byte	.LASF95
 1176 0666 07       		.byte	0x7
 1177 0667 0801     		.2byte	0x108
 1178 0669 FA000000 		.4byte	0xfa
 1179 066d 17       		.uleb128 0x17
 1180 066e F3050000 		.4byte	.LASF96
 1181 0672 07       		.byte	0x7
 1182 0673 0F01     		.2byte	0x10f
 1183 0675 F9020000 		.4byte	0x2f9
 1184 0679 17       		.uleb128 0x17
 1185 067a 12000000 		.4byte	.LASF97
 1186 067e 07       		.byte	0x7
 1187 067f 1601     		.2byte	0x116
 1188 0681 B6060000 		.4byte	0x6b6
 1189 0685 17       		.uleb128 0x17
ARM GAS  /tmp/ccwf2nlK.s 			page 35


 1190 0686 99000000 		.4byte	.LASF98
 1191 068a 07       		.byte	0x7
 1192 068b 1B01     		.2byte	0x11b
 1193 068d FA000000 		.4byte	0xfa
 1194 0691 17       		.uleb128 0x17
 1195 0692 D5010000 		.4byte	.LASF99
 1196 0696 07       		.byte	0x7
 1197 0697 2401     		.2byte	0x124
 1198 0699 E1060000 		.4byte	0x6e1
 1199 069d 17       		.uleb128 0x17
 1200 069e 07040000 		.4byte	.LASF100
 1201 06a2 07       		.byte	0x7
 1202 06a3 2D01     		.2byte	0x12d
 1203 06a5 18070000 		.4byte	0x718
 1204 06a9 17       		.uleb128 0x17
 1205 06aa A9030000 		.4byte	.LASF101
 1206 06ae 07       		.byte	0x7
 1207 06af 3501     		.2byte	0x135
 1208 06b1 05010000 		.4byte	0x105
 1209 06b5 00       		.byte	0
 1210 06b6 09       		.uleb128 0x9
 1211 06b7 04       		.byte	0x4
 1212 06b8 11020000 		.4byte	0x211
 1213 06bc 05       		.uleb128 0x5
 1214 06bd E1030000 		.4byte	.LASF102
 1215 06c1 0C       		.byte	0xc
 1216 06c2 0C       		.byte	0xc
 1217 06c3 34       		.byte	0x34
 1218 06c4 E1060000 		.4byte	0x6e1
 1219 06c8 06       		.uleb128 0x6
 1220 06c9 67010000 		.4byte	.LASF103
 1221 06cd 0C       		.byte	0xc
 1222 06ce 35       		.byte	0x35
 1223 06cf 46020000 		.4byte	0x246
 1224 06d3 00       		.byte	0
 1225 06d4 06       		.uleb128 0x6
 1226 06d5 E7010000 		.4byte	.LASF104
 1227 06d9 0C       		.byte	0xc
 1228 06da 37       		.byte	0x37
 1229 06db 10010000 		.4byte	0x110
 1230 06df 08       		.byte	0x8
 1231 06e0 00       		.byte	0
 1232 06e1 09       		.uleb128 0x9
 1233 06e2 04       		.byte	0x4
 1234 06e3 BC060000 		.4byte	0x6bc
 1235 06e7 05       		.uleb128 0x5
 1236 06e8 E7040000 		.4byte	.LASF105
 1237 06ec 10       		.byte	0x10
 1238 06ed 0D       		.byte	0xd
 1239 06ee 39       		.byte	0x39
 1240 06ef 18070000 		.4byte	0x718
 1241 06f3 06       		.uleb128 0x6
 1242 06f4 19010000 		.4byte	.LASF106
 1243 06f8 0D       		.byte	0xd
 1244 06f9 3A       		.byte	0x3a
 1245 06fa 46020000 		.4byte	0x246
 1246 06fe 00       		.byte	0
ARM GAS  /tmp/ccwf2nlK.s 			page 36


 1247 06ff 06       		.uleb128 0x6
 1248 0700 3F060000 		.4byte	.LASF107
 1249 0704 0D       		.byte	0xd
 1250 0705 3C       		.byte	0x3c
 1251 0706 1C020000 		.4byte	0x21c
 1252 070a 08       		.byte	0x8
 1253 070b 06       		.uleb128 0x6
 1254 070c 60040000 		.4byte	.LASF108
 1255 0710 0D       		.byte	0xd
 1256 0711 3E       		.byte	0x3e
 1257 0712 56070000 		.4byte	0x756
 1258 0716 0C       		.byte	0xc
 1259 0717 00       		.byte	0
 1260 0718 09       		.uleb128 0x9
 1261 0719 04       		.byte	0x4
 1262 071a E7060000 		.4byte	0x6e7
 1263 071e 09       		.uleb128 0x9
 1264 071f 04       		.byte	0x4
 1265 0720 24070000 		.4byte	0x724
 1266 0724 18       		.uleb128 0x18
 1267 0725 29070000 		.4byte	0x729
 1268 0729 03       		.uleb128 0x3
 1269 072a 01       		.byte	0x1
 1270 072b 08       		.byte	0x8
 1271 072c 4D040000 		.4byte	.LASF109
 1272 0730 09       		.uleb128 0x9
 1273 0731 04       		.byte	0x4
 1274 0732 FB020000 		.4byte	0x2fb
 1275 0736 0F       		.uleb128 0xf
 1276 0737 1E070000 		.4byte	0x71e
 1277 073b 10       		.uleb128 0x10
 1278 073c 66040000 		.4byte	0x466
 1279 0740 4B070000 		.4byte	0x74b
 1280 0744 11       		.uleb128 0x11
 1281 0745 2F040000 		.4byte	0x42f
 1282 0749 1A       		.byte	0x1a
 1283 074a 00       		.byte	0
 1284 074b 04       		.uleb128 0x4
 1285 074c A3010000 		.4byte	.LASF110
 1286 0750 0D       		.byte	0xd
 1287 0751 34       		.byte	0x34
 1288 0752 E7060000 		.4byte	0x6e7
 1289 0756 09       		.uleb128 0x9
 1290 0757 04       		.byte	0x4
 1291 0758 4B070000 		.4byte	0x74b
 1292 075c 03       		.uleb128 0x3
 1293 075d 01       		.byte	0x1
 1294 075e 02       		.byte	0x2
 1295 075f 5C030000 		.4byte	.LASF111
 1296 0763 19       		.uleb128 0x19
 1297 0764 76020000 		.4byte	.LASF112
 1298 0768 02       		.byte	0x2
 1299 0769 99       		.byte	0x99
 1300 076a 03       		.byte	0x3
 1301 076b 7B070000 		.4byte	0x77b
 1302 076f 1A       		.uleb128 0x1a
 1303 0770 03030000 		.4byte	.LASF114
ARM GAS  /tmp/ccwf2nlK.s 			page 37


 1304 0774 02       		.byte	0x2
 1305 0775 99       		.byte	0x99
 1306 0776 1B010000 		.4byte	0x11b
 1307 077a 00       		.byte	0
 1308 077b 1B       		.uleb128 0x1b
 1309 077c BE040000 		.4byte	.LASF127
 1310 0780 02       		.byte	0x2
 1311 0781 A5       		.byte	0xa5
 1312 0782 03       		.byte	0x3
 1313 0783 19       		.uleb128 0x19
 1314 0784 2E060000 		.4byte	.LASF113
 1315 0788 02       		.byte	0x2
 1316 0789 B1       		.byte	0xb1
 1317 078a 03       		.byte	0x3
 1318 078b 9B070000 		.4byte	0x79b
 1319 078f 1A       		.uleb128 0x1a
 1320 0790 03030000 		.4byte	.LASF114
 1321 0794 02       		.byte	0x2
 1322 0795 B1       		.byte	0xb1
 1323 0796 1B010000 		.4byte	0x11b
 1324 079a 00       		.byte	0
 1325 079b 1C       		.uleb128 0x1c
 1326 079c D0030000 		.4byte	.LASF128
 1327 07a0 02       		.byte	0x2
 1328 07a1 BD       		.byte	0xbd
 1329 07a2 1B010000 		.4byte	0x11b
 1330 07a6 03       		.byte	0x3
 1331 07a7 1D       		.uleb128 0x1d
 1332 07a8 E5020000 		.4byte	.LASF115
 1333 07ac 01       		.byte	0x1
 1334 07ad 3C       		.byte	0x3c
 1335 07ae 00000000 		.4byte	.LFB272
 1336 07b2 04000000 		.4byte	.LFE272-.LFB272
 1337 07b6 01       		.uleb128 0x1
 1338 07b7 9C       		.byte	0x9c
 1339 07b8 C6070000 		.4byte	0x7c6
 1340 07bc 1E       		.uleb128 0x1e
 1341 07bd 04000000 		.4byte	.LVL0
 1342 07c1 EE080000 		.4byte	0x8ee
 1343 07c5 00       		.byte	0
 1344 07c6 1D       		.uleb128 0x1d
 1345 07c7 A1040000 		.4byte	.LASF116
 1346 07cb 01       		.byte	0x1
 1347 07cc 4D       		.byte	0x4d
 1348 07cd 00000000 		.4byte	.LFB273
 1349 07d1 10000000 		.4byte	.LFE273-.LFB273
 1350 07d5 01       		.uleb128 0x1
 1351 07d6 9C       		.byte	0x9c
 1352 07d7 09080000 		.4byte	0x809
 1353 07db 1F       		.uleb128 0x1f
 1354 07dc 1E060000 		.4byte	.LASF119
 1355 07e0 01       		.byte	0x1
 1356 07e1 4D       		.byte	0x4d
 1357 07e2 1B010000 		.4byte	0x11b
 1358 07e6 01       		.uleb128 0x1
 1359 07e7 50       		.byte	0x50
 1360 07e8 20       		.uleb128 0x20
ARM GAS  /tmp/ccwf2nlK.s 			page 38


 1361 07e9 78030000 		.4byte	.LASF120
 1362 07ed 19080000 		.4byte	0x819
 1363 07f1 21       		.uleb128 0x21
 1364 07f2 63070000 		.4byte	0x763
 1365 07f6 00000000 		.4byte	.LBB10
 1366 07fa 10000000 		.4byte	.LBE10-.LBB10
 1367 07fe 01       		.byte	0x1
 1368 07ff 51       		.byte	0x51
 1369 0800 22       		.uleb128 0x22
 1370 0801 6F070000 		.4byte	0x76f
 1371 0805 01       		.uleb128 0x1
 1372 0806 50       		.byte	0x50
 1373 0807 00       		.byte	0
 1374 0808 00       		.byte	0
 1375 0809 10       		.uleb128 0x10
 1376 080a 29070000 		.4byte	0x729
 1377 080e 19080000 		.4byte	0x819
 1378 0812 11       		.uleb128 0x11
 1379 0813 2F040000 		.4byte	0x42f
 1380 0817 0C       		.byte	0xc
 1381 0818 00       		.byte	0
 1382 0819 18       		.uleb128 0x18
 1383 081a 09080000 		.4byte	0x809
 1384 081e 1D       		.uleb128 0x1d
 1385 081f 41040000 		.4byte	.LASF117
 1386 0823 01       		.byte	0x1
 1387 0824 5B       		.byte	0x5b
 1388 0825 00000000 		.4byte	.LFB274
 1389 0829 0A000000 		.4byte	.LFE274-.LFB274
 1390 082d 01       		.uleb128 0x1
 1391 082e 9C       		.byte	0x9c
 1392 082f 43080000 		.4byte	0x843
 1393 0833 23       		.uleb128 0x23
 1394 0834 7B070000 		.4byte	0x77b
 1395 0838 00000000 		.4byte	.LBB12
 1396 083c 0A000000 		.4byte	.LBE12-.LBB12
 1397 0840 01       		.byte	0x1
 1398 0841 5D       		.byte	0x5d
 1399 0842 00       		.byte	0
 1400 0843 1D       		.uleb128 0x1d
 1401 0844 FD040000 		.4byte	.LASF118
 1402 0848 01       		.byte	0x1
 1403 0849 69       		.byte	0x69
 1404 084a 00000000 		.4byte	.LFB275
 1405 084e 08000000 		.4byte	.LFE275-.LFB275
 1406 0852 01       		.uleb128 0x1
 1407 0853 9C       		.byte	0x9c
 1408 0854 86080000 		.4byte	0x886
 1409 0858 1F       		.uleb128 0x1f
 1410 0859 1E060000 		.4byte	.LASF119
 1411 085d 01       		.byte	0x1
 1412 085e 69       		.byte	0x69
 1413 085f 1B010000 		.4byte	0x11b
 1414 0863 01       		.uleb128 0x1
 1415 0864 50       		.byte	0x50
 1416 0865 20       		.uleb128 0x20
 1417 0866 01060000 		.4byte	.LASF121
ARM GAS  /tmp/ccwf2nlK.s 			page 39


 1418 086a 96080000 		.4byte	0x896
 1419 086e 21       		.uleb128 0x21
 1420 086f 83070000 		.4byte	0x783
 1421 0873 00000000 		.4byte	.LBB14
 1422 0877 08000000 		.4byte	.LBE14-.LBB14
 1423 087b 01       		.byte	0x1
 1424 087c 6D       		.byte	0x6d
 1425 087d 22       		.uleb128 0x22
 1426 087e 8F070000 		.4byte	0x78f
 1427 0882 01       		.uleb128 0x1
 1428 0883 50       		.byte	0x50
 1429 0884 00       		.byte	0
 1430 0885 00       		.byte	0
 1431 0886 10       		.uleb128 0x10
 1432 0887 29070000 		.4byte	0x729
 1433 088b 96080000 		.4byte	0x896
 1434 088f 11       		.uleb128 0x11
 1435 0890 2F040000 		.4byte	0x42f
 1436 0894 0A       		.byte	0xa
 1437 0895 00       		.byte	0
 1438 0896 18       		.uleb128 0x18
 1439 0897 86080000 		.4byte	0x886
 1440 089b 24       		.uleb128 0x24
 1441 089c E8050000 		.4byte	.LASF129
 1442 08a0 01       		.byte	0x1
 1443 08a1 79       		.byte	0x79
 1444 08a2 1B010000 		.4byte	0x11b
 1445 08a6 00000000 		.4byte	.LFB276
 1446 08aa 08000000 		.4byte	.LFE276-.LFB276
 1447 08ae 01       		.uleb128 0x1
 1448 08af 9C       		.byte	0x9c
 1449 08b0 CD080000 		.4byte	0x8cd
 1450 08b4 20       		.uleb128 0x20
 1451 08b5 0B010000 		.4byte	.LASF122
 1452 08b9 CD080000 		.4byte	0x8cd
 1453 08bd 23       		.uleb128 0x23
 1454 08be 9B070000 		.4byte	0x79b
 1455 08c2 00000000 		.4byte	.LBB16
 1456 08c6 06000000 		.4byte	.LBE16-.LBB16
 1457 08ca 01       		.byte	0x1
 1458 08cb 7D       		.byte	0x7d
 1459 08cc 00       		.byte	0
 1460 08cd 18       		.uleb128 0x18
 1461 08ce 86080000 		.4byte	0x886
 1462 08d2 25       		.uleb128 0x25
 1463 08d3 B7000000 		.4byte	.LASF123
 1464 08d7 0E       		.byte	0xe
 1465 08d8 FA06     		.2byte	0x6fa
 1466 08da DE080000 		.4byte	0x8de
 1467 08de 0F       		.uleb128 0xf
 1468 08df A2000000 		.4byte	0xa2
 1469 08e3 26       		.uleb128 0x26
 1470 08e4 636800   		.ascii	"ch\000"
 1471 08e7 07       		.byte	0x7
 1472 08e8 0B02     		.2byte	0x20b
 1473 08ea C8030000 		.4byte	0x3c8
 1474 08ee 27       		.uleb128 0x27
ARM GAS  /tmp/ccwf2nlK.s 			page 40


 1475 08ef C4000000 		.4byte	.LASF130
 1476 08f3 02       		.byte	0x2
 1477 08f4 7B       		.byte	0x7b
 1478 08f5 00       		.byte	0
 1479              		.section	.debug_abbrev,"",%progbits
 1480              	.Ldebug_abbrev0:
 1481 0000 01       		.uleb128 0x1
 1482 0001 11       		.uleb128 0x11
 1483 0002 01       		.byte	0x1
 1484 0003 25       		.uleb128 0x25
 1485 0004 0E       		.uleb128 0xe
 1486 0005 13       		.uleb128 0x13
 1487 0006 0B       		.uleb128 0xb
 1488 0007 03       		.uleb128 0x3
 1489 0008 0E       		.uleb128 0xe
 1490 0009 1B       		.uleb128 0x1b
 1491 000a 0E       		.uleb128 0xe
 1492 000b 55       		.uleb128 0x55
 1493 000c 17       		.uleb128 0x17
 1494 000d 11       		.uleb128 0x11
 1495 000e 01       		.uleb128 0x1
 1496 000f 10       		.uleb128 0x10
 1497 0010 17       		.uleb128 0x17
 1498 0011 00       		.byte	0
 1499 0012 00       		.byte	0
 1500 0013 02       		.uleb128 0x2
 1501 0014 24       		.uleb128 0x24
 1502 0015 00       		.byte	0
 1503 0016 0B       		.uleb128 0xb
 1504 0017 0B       		.uleb128 0xb
 1505 0018 3E       		.uleb128 0x3e
 1506 0019 0B       		.uleb128 0xb
 1507 001a 03       		.uleb128 0x3
 1508 001b 08       		.uleb128 0x8
 1509 001c 00       		.byte	0
 1510 001d 00       		.byte	0
 1511 001e 03       		.uleb128 0x3
 1512 001f 24       		.uleb128 0x24
 1513 0020 00       		.byte	0
 1514 0021 0B       		.uleb128 0xb
 1515 0022 0B       		.uleb128 0xb
 1516 0023 3E       		.uleb128 0x3e
 1517 0024 0B       		.uleb128 0xb
 1518 0025 03       		.uleb128 0x3
 1519 0026 0E       		.uleb128 0xe
 1520 0027 00       		.byte	0
 1521 0028 00       		.byte	0
 1522 0029 04       		.uleb128 0x4
 1523 002a 16       		.uleb128 0x16
 1524 002b 00       		.byte	0
 1525 002c 03       		.uleb128 0x3
 1526 002d 0E       		.uleb128 0xe
 1527 002e 3A       		.uleb128 0x3a
 1528 002f 0B       		.uleb128 0xb
 1529 0030 3B       		.uleb128 0x3b
 1530 0031 0B       		.uleb128 0xb
 1531 0032 49       		.uleb128 0x49
ARM GAS  /tmp/ccwf2nlK.s 			page 41


 1532 0033 13       		.uleb128 0x13
 1533 0034 00       		.byte	0
 1534 0035 00       		.byte	0
 1535 0036 05       		.uleb128 0x5
 1536 0037 13       		.uleb128 0x13
 1537 0038 01       		.byte	0x1
 1538 0039 03       		.uleb128 0x3
 1539 003a 0E       		.uleb128 0xe
 1540 003b 0B       		.uleb128 0xb
 1541 003c 0B       		.uleb128 0xb
 1542 003d 3A       		.uleb128 0x3a
 1543 003e 0B       		.uleb128 0xb
 1544 003f 3B       		.uleb128 0x3b
 1545 0040 0B       		.uleb128 0xb
 1546 0041 01       		.uleb128 0x1
 1547 0042 13       		.uleb128 0x13
 1548 0043 00       		.byte	0
 1549 0044 00       		.byte	0
 1550 0045 06       		.uleb128 0x6
 1551 0046 0D       		.uleb128 0xd
 1552 0047 00       		.byte	0
 1553 0048 03       		.uleb128 0x3
 1554 0049 0E       		.uleb128 0xe
 1555 004a 3A       		.uleb128 0x3a
 1556 004b 0B       		.uleb128 0xb
 1557 004c 3B       		.uleb128 0x3b
 1558 004d 0B       		.uleb128 0xb
 1559 004e 49       		.uleb128 0x49
 1560 004f 13       		.uleb128 0x13
 1561 0050 38       		.uleb128 0x38
 1562 0051 0B       		.uleb128 0xb
 1563 0052 00       		.byte	0
 1564 0053 00       		.byte	0
 1565 0054 07       		.uleb128 0x7
 1566 0055 0D       		.uleb128 0xd
 1567 0056 00       		.byte	0
 1568 0057 03       		.uleb128 0x3
 1569 0058 08       		.uleb128 0x8
 1570 0059 3A       		.uleb128 0x3a
 1571 005a 0B       		.uleb128 0xb
 1572 005b 3B       		.uleb128 0x3b
 1573 005c 05       		.uleb128 0x5
 1574 005d 49       		.uleb128 0x49
 1575 005e 13       		.uleb128 0x13
 1576 005f 38       		.uleb128 0x38
 1577 0060 0B       		.uleb128 0xb
 1578 0061 00       		.byte	0
 1579 0062 00       		.byte	0
 1580 0063 08       		.uleb128 0x8
 1581 0064 0D       		.uleb128 0xd
 1582 0065 00       		.byte	0
 1583 0066 03       		.uleb128 0x3
 1584 0067 0E       		.uleb128 0xe
 1585 0068 3A       		.uleb128 0x3a
 1586 0069 0B       		.uleb128 0xb
 1587 006a 3B       		.uleb128 0x3b
 1588 006b 05       		.uleb128 0x5
ARM GAS  /tmp/ccwf2nlK.s 			page 42


 1589 006c 49       		.uleb128 0x49
 1590 006d 13       		.uleb128 0x13
 1591 006e 38       		.uleb128 0x38
 1592 006f 0B       		.uleb128 0xb
 1593 0070 00       		.byte	0
 1594 0071 00       		.byte	0
 1595 0072 09       		.uleb128 0x9
 1596 0073 0F       		.uleb128 0xf
 1597 0074 00       		.byte	0
 1598 0075 0B       		.uleb128 0xb
 1599 0076 0B       		.uleb128 0xb
 1600 0077 49       		.uleb128 0x49
 1601 0078 13       		.uleb128 0x13
 1602 0079 00       		.byte	0
 1603 007a 00       		.byte	0
 1604 007b 0A       		.uleb128 0xa
 1605 007c 13       		.uleb128 0x13
 1606 007d 01       		.byte	0x1
 1607 007e 03       		.uleb128 0x3
 1608 007f 0E       		.uleb128 0xe
 1609 0080 0B       		.uleb128 0xb
 1610 0081 0B       		.uleb128 0xb
 1611 0082 3A       		.uleb128 0x3a
 1612 0083 0B       		.uleb128 0xb
 1613 0084 3B       		.uleb128 0x3b
 1614 0085 05       		.uleb128 0x5
 1615 0086 01       		.uleb128 0x1
 1616 0087 13       		.uleb128 0x13
 1617 0088 00       		.byte	0
 1618 0089 00       		.byte	0
 1619 008a 0B       		.uleb128 0xb
 1620 008b 15       		.uleb128 0x15
 1621 008c 01       		.byte	0x1
 1622 008d 27       		.uleb128 0x27
 1623 008e 19       		.uleb128 0x19
 1624 008f 01       		.uleb128 0x1
 1625 0090 13       		.uleb128 0x13
 1626 0091 00       		.byte	0
 1627 0092 00       		.byte	0
 1628 0093 0C       		.uleb128 0xc
 1629 0094 05       		.uleb128 0x5
 1630 0095 00       		.byte	0
 1631 0096 49       		.uleb128 0x49
 1632 0097 13       		.uleb128 0x13
 1633 0098 00       		.byte	0
 1634 0099 00       		.byte	0
 1635 009a 0D       		.uleb128 0xd
 1636 009b 0F       		.uleb128 0xf
 1637 009c 00       		.byte	0
 1638 009d 0B       		.uleb128 0xb
 1639 009e 0B       		.uleb128 0xb
 1640 009f 00       		.byte	0
 1641 00a0 00       		.byte	0
 1642 00a1 0E       		.uleb128 0xe
 1643 00a2 13       		.uleb128 0x13
 1644 00a3 01       		.byte	0x1
 1645 00a4 03       		.uleb128 0x3
ARM GAS  /tmp/ccwf2nlK.s 			page 43


 1646 00a5 0E       		.uleb128 0xe
 1647 00a6 0B       		.uleb128 0xb
 1648 00a7 05       		.uleb128 0x5
 1649 00a8 3A       		.uleb128 0x3a
 1650 00a9 0B       		.uleb128 0xb
 1651 00aa 3B       		.uleb128 0x3b
 1652 00ab 05       		.uleb128 0x5
 1653 00ac 01       		.uleb128 0x1
 1654 00ad 13       		.uleb128 0x13
 1655 00ae 00       		.byte	0
 1656 00af 00       		.byte	0
 1657 00b0 0F       		.uleb128 0xf
 1658 00b1 35       		.uleb128 0x35
 1659 00b2 00       		.byte	0
 1660 00b3 49       		.uleb128 0x49
 1661 00b4 13       		.uleb128 0x13
 1662 00b5 00       		.byte	0
 1663 00b6 00       		.byte	0
 1664 00b7 10       		.uleb128 0x10
 1665 00b8 01       		.uleb128 0x1
 1666 00b9 01       		.byte	0x1
 1667 00ba 49       		.uleb128 0x49
 1668 00bb 13       		.uleb128 0x13
 1669 00bc 01       		.uleb128 0x1
 1670 00bd 13       		.uleb128 0x13
 1671 00be 00       		.byte	0
 1672 00bf 00       		.byte	0
 1673 00c0 11       		.uleb128 0x11
 1674 00c1 21       		.uleb128 0x21
 1675 00c2 00       		.byte	0
 1676 00c3 49       		.uleb128 0x49
 1677 00c4 13       		.uleb128 0x13
 1678 00c5 2F       		.uleb128 0x2f
 1679 00c6 0B       		.uleb128 0xb
 1680 00c7 00       		.byte	0
 1681 00c8 00       		.byte	0
 1682 00c9 12       		.uleb128 0x12
 1683 00ca 0D       		.uleb128 0xd
 1684 00cb 00       		.byte	0
 1685 00cc 03       		.uleb128 0x3
 1686 00cd 08       		.uleb128 0x8
 1687 00ce 3A       		.uleb128 0x3a
 1688 00cf 0B       		.uleb128 0xb
 1689 00d0 3B       		.uleb128 0x3b
 1690 00d1 0B       		.uleb128 0xb
 1691 00d2 49       		.uleb128 0x49
 1692 00d3 13       		.uleb128 0x13
 1693 00d4 38       		.uleb128 0x38
 1694 00d5 0B       		.uleb128 0xb
 1695 00d6 00       		.byte	0
 1696 00d7 00       		.byte	0
 1697 00d8 13       		.uleb128 0x13
 1698 00d9 13       		.uleb128 0x13
 1699 00da 01       		.byte	0x1
 1700 00db 0B       		.uleb128 0xb
 1701 00dc 0B       		.uleb128 0xb
 1702 00dd 3A       		.uleb128 0x3a
ARM GAS  /tmp/ccwf2nlK.s 			page 44


 1703 00de 0B       		.uleb128 0xb
 1704 00df 3B       		.uleb128 0x3b
 1705 00e0 05       		.uleb128 0x5
 1706 00e1 01       		.uleb128 0x1
 1707 00e2 13       		.uleb128 0x13
 1708 00e3 00       		.byte	0
 1709 00e4 00       		.byte	0
 1710 00e5 14       		.uleb128 0x14
 1711 00e6 16       		.uleb128 0x16
 1712 00e7 00       		.byte	0
 1713 00e8 03       		.uleb128 0x3
 1714 00e9 0E       		.uleb128 0xe
 1715 00ea 3A       		.uleb128 0x3a
 1716 00eb 0B       		.uleb128 0xb
 1717 00ec 3B       		.uleb128 0x3b
 1718 00ed 05       		.uleb128 0x5
 1719 00ee 49       		.uleb128 0x49
 1720 00ef 13       		.uleb128 0x13
 1721 00f0 00       		.byte	0
 1722 00f1 00       		.byte	0
 1723 00f2 15       		.uleb128 0x15
 1724 00f3 13       		.uleb128 0x13
 1725 00f4 01       		.byte	0x1
 1726 00f5 0B       		.uleb128 0xb
 1727 00f6 0B       		.uleb128 0xb
 1728 00f7 3A       		.uleb128 0x3a
 1729 00f8 0B       		.uleb128 0xb
 1730 00f9 3B       		.uleb128 0x3b
 1731 00fa 0B       		.uleb128 0xb
 1732 00fb 01       		.uleb128 0x1
 1733 00fc 13       		.uleb128 0x13
 1734 00fd 00       		.byte	0
 1735 00fe 00       		.byte	0
 1736 00ff 16       		.uleb128 0x16
 1737 0100 17       		.uleb128 0x17
 1738 0101 01       		.byte	0x1
 1739 0102 0B       		.uleb128 0xb
 1740 0103 0B       		.uleb128 0xb
 1741 0104 3A       		.uleb128 0x3a
 1742 0105 0B       		.uleb128 0xb
 1743 0106 3B       		.uleb128 0x3b
 1744 0107 0B       		.uleb128 0xb
 1745 0108 01       		.uleb128 0x1
 1746 0109 13       		.uleb128 0x13
 1747 010a 00       		.byte	0
 1748 010b 00       		.byte	0
 1749 010c 17       		.uleb128 0x17
 1750 010d 0D       		.uleb128 0xd
 1751 010e 00       		.byte	0
 1752 010f 03       		.uleb128 0x3
 1753 0110 0E       		.uleb128 0xe
 1754 0111 3A       		.uleb128 0x3a
 1755 0112 0B       		.uleb128 0xb
 1756 0113 3B       		.uleb128 0x3b
 1757 0114 05       		.uleb128 0x5
 1758 0115 49       		.uleb128 0x49
 1759 0116 13       		.uleb128 0x13
ARM GAS  /tmp/ccwf2nlK.s 			page 45


 1760 0117 00       		.byte	0
 1761 0118 00       		.byte	0
 1762 0119 18       		.uleb128 0x18
 1763 011a 26       		.uleb128 0x26
 1764 011b 00       		.byte	0
 1765 011c 49       		.uleb128 0x49
 1766 011d 13       		.uleb128 0x13
 1767 011e 00       		.byte	0
 1768 011f 00       		.byte	0
 1769 0120 19       		.uleb128 0x19
 1770 0121 2E       		.uleb128 0x2e
 1771 0122 01       		.byte	0x1
 1772 0123 03       		.uleb128 0x3
 1773 0124 0E       		.uleb128 0xe
 1774 0125 3A       		.uleb128 0x3a
 1775 0126 0B       		.uleb128 0xb
 1776 0127 3B       		.uleb128 0x3b
 1777 0128 0B       		.uleb128 0xb
 1778 0129 27       		.uleb128 0x27
 1779 012a 19       		.uleb128 0x19
 1780 012b 20       		.uleb128 0x20
 1781 012c 0B       		.uleb128 0xb
 1782 012d 01       		.uleb128 0x1
 1783 012e 13       		.uleb128 0x13
 1784 012f 00       		.byte	0
 1785 0130 00       		.byte	0
 1786 0131 1A       		.uleb128 0x1a
 1787 0132 05       		.uleb128 0x5
 1788 0133 00       		.byte	0
 1789 0134 03       		.uleb128 0x3
 1790 0135 0E       		.uleb128 0xe
 1791 0136 3A       		.uleb128 0x3a
 1792 0137 0B       		.uleb128 0xb
 1793 0138 3B       		.uleb128 0x3b
 1794 0139 0B       		.uleb128 0xb
 1795 013a 49       		.uleb128 0x49
 1796 013b 13       		.uleb128 0x13
 1797 013c 00       		.byte	0
 1798 013d 00       		.byte	0
 1799 013e 1B       		.uleb128 0x1b
 1800 013f 2E       		.uleb128 0x2e
 1801 0140 00       		.byte	0
 1802 0141 03       		.uleb128 0x3
 1803 0142 0E       		.uleb128 0xe
 1804 0143 3A       		.uleb128 0x3a
 1805 0144 0B       		.uleb128 0xb
 1806 0145 3B       		.uleb128 0x3b
 1807 0146 0B       		.uleb128 0xb
 1808 0147 27       		.uleb128 0x27
 1809 0148 19       		.uleb128 0x19
 1810 0149 20       		.uleb128 0x20
 1811 014a 0B       		.uleb128 0xb
 1812 014b 00       		.byte	0
 1813 014c 00       		.byte	0
 1814 014d 1C       		.uleb128 0x1c
 1815 014e 2E       		.uleb128 0x2e
 1816 014f 00       		.byte	0
ARM GAS  /tmp/ccwf2nlK.s 			page 46


 1817 0150 03       		.uleb128 0x3
 1818 0151 0E       		.uleb128 0xe
 1819 0152 3A       		.uleb128 0x3a
 1820 0153 0B       		.uleb128 0xb
 1821 0154 3B       		.uleb128 0x3b
 1822 0155 0B       		.uleb128 0xb
 1823 0156 27       		.uleb128 0x27
 1824 0157 19       		.uleb128 0x19
 1825 0158 49       		.uleb128 0x49
 1826 0159 13       		.uleb128 0x13
 1827 015a 20       		.uleb128 0x20
 1828 015b 0B       		.uleb128 0xb
 1829 015c 00       		.byte	0
 1830 015d 00       		.byte	0
 1831 015e 1D       		.uleb128 0x1d
 1832 015f 2E       		.uleb128 0x2e
 1833 0160 01       		.byte	0x1
 1834 0161 3F       		.uleb128 0x3f
 1835 0162 19       		.uleb128 0x19
 1836 0163 03       		.uleb128 0x3
 1837 0164 0E       		.uleb128 0xe
 1838 0165 3A       		.uleb128 0x3a
 1839 0166 0B       		.uleb128 0xb
 1840 0167 3B       		.uleb128 0x3b
 1841 0168 0B       		.uleb128 0xb
 1842 0169 27       		.uleb128 0x27
 1843 016a 19       		.uleb128 0x19
 1844 016b 11       		.uleb128 0x11
 1845 016c 01       		.uleb128 0x1
 1846 016d 12       		.uleb128 0x12
 1847 016e 06       		.uleb128 0x6
 1848 016f 40       		.uleb128 0x40
 1849 0170 18       		.uleb128 0x18
 1850 0171 9742     		.uleb128 0x2117
 1851 0173 19       		.uleb128 0x19
 1852 0174 01       		.uleb128 0x1
 1853 0175 13       		.uleb128 0x13
 1854 0176 00       		.byte	0
 1855 0177 00       		.byte	0
 1856 0178 1E       		.uleb128 0x1e
 1857 0179 898201   		.uleb128 0x4109
 1858 017c 00       		.byte	0
 1859 017d 11       		.uleb128 0x11
 1860 017e 01       		.uleb128 0x1
 1861 017f 9542     		.uleb128 0x2115
 1862 0181 19       		.uleb128 0x19
 1863 0182 31       		.uleb128 0x31
 1864 0183 13       		.uleb128 0x13
 1865 0184 00       		.byte	0
 1866 0185 00       		.byte	0
 1867 0186 1F       		.uleb128 0x1f
 1868 0187 05       		.uleb128 0x5
 1869 0188 00       		.byte	0
 1870 0189 03       		.uleb128 0x3
 1871 018a 0E       		.uleb128 0xe
 1872 018b 3A       		.uleb128 0x3a
 1873 018c 0B       		.uleb128 0xb
ARM GAS  /tmp/ccwf2nlK.s 			page 47


 1874 018d 3B       		.uleb128 0x3b
 1875 018e 0B       		.uleb128 0xb
 1876 018f 49       		.uleb128 0x49
 1877 0190 13       		.uleb128 0x13
 1878 0191 02       		.uleb128 0x2
 1879 0192 18       		.uleb128 0x18
 1880 0193 00       		.byte	0
 1881 0194 00       		.byte	0
 1882 0195 20       		.uleb128 0x20
 1883 0196 34       		.uleb128 0x34
 1884 0197 00       		.byte	0
 1885 0198 03       		.uleb128 0x3
 1886 0199 0E       		.uleb128 0xe
 1887 019a 49       		.uleb128 0x49
 1888 019b 13       		.uleb128 0x13
 1889 019c 34       		.uleb128 0x34
 1890 019d 19       		.uleb128 0x19
 1891 019e 00       		.byte	0
 1892 019f 00       		.byte	0
 1893 01a0 21       		.uleb128 0x21
 1894 01a1 1D       		.uleb128 0x1d
 1895 01a2 01       		.byte	0x1
 1896 01a3 31       		.uleb128 0x31
 1897 01a4 13       		.uleb128 0x13
 1898 01a5 11       		.uleb128 0x11
 1899 01a6 01       		.uleb128 0x1
 1900 01a7 12       		.uleb128 0x12
 1901 01a8 06       		.uleb128 0x6
 1902 01a9 58       		.uleb128 0x58
 1903 01aa 0B       		.uleb128 0xb
 1904 01ab 59       		.uleb128 0x59
 1905 01ac 0B       		.uleb128 0xb
 1906 01ad 00       		.byte	0
 1907 01ae 00       		.byte	0
 1908 01af 22       		.uleb128 0x22
 1909 01b0 05       		.uleb128 0x5
 1910 01b1 00       		.byte	0
 1911 01b2 31       		.uleb128 0x31
 1912 01b3 13       		.uleb128 0x13
 1913 01b4 02       		.uleb128 0x2
 1914 01b5 18       		.uleb128 0x18
 1915 01b6 00       		.byte	0
 1916 01b7 00       		.byte	0
 1917 01b8 23       		.uleb128 0x23
 1918 01b9 1D       		.uleb128 0x1d
 1919 01ba 00       		.byte	0
 1920 01bb 31       		.uleb128 0x31
 1921 01bc 13       		.uleb128 0x13
 1922 01bd 11       		.uleb128 0x11
 1923 01be 01       		.uleb128 0x1
 1924 01bf 12       		.uleb128 0x12
 1925 01c0 06       		.uleb128 0x6
 1926 01c1 58       		.uleb128 0x58
 1927 01c2 0B       		.uleb128 0xb
 1928 01c3 59       		.uleb128 0x59
 1929 01c4 0B       		.uleb128 0xb
 1930 01c5 00       		.byte	0
ARM GAS  /tmp/ccwf2nlK.s 			page 48


 1931 01c6 00       		.byte	0
 1932 01c7 24       		.uleb128 0x24
 1933 01c8 2E       		.uleb128 0x2e
 1934 01c9 01       		.byte	0x1
 1935 01ca 3F       		.uleb128 0x3f
 1936 01cb 19       		.uleb128 0x19
 1937 01cc 03       		.uleb128 0x3
 1938 01cd 0E       		.uleb128 0xe
 1939 01ce 3A       		.uleb128 0x3a
 1940 01cf 0B       		.uleb128 0xb
 1941 01d0 3B       		.uleb128 0x3b
 1942 01d1 0B       		.uleb128 0xb
 1943 01d2 27       		.uleb128 0x27
 1944 01d3 19       		.uleb128 0x19
 1945 01d4 49       		.uleb128 0x49
 1946 01d5 13       		.uleb128 0x13
 1947 01d6 11       		.uleb128 0x11
 1948 01d7 01       		.uleb128 0x1
 1949 01d8 12       		.uleb128 0x12
 1950 01d9 06       		.uleb128 0x6
 1951 01da 40       		.uleb128 0x40
 1952 01db 18       		.uleb128 0x18
 1953 01dc 9742     		.uleb128 0x2117
 1954 01de 19       		.uleb128 0x19
 1955 01df 01       		.uleb128 0x1
 1956 01e0 13       		.uleb128 0x13
 1957 01e1 00       		.byte	0
 1958 01e2 00       		.byte	0
 1959 01e3 25       		.uleb128 0x25
 1960 01e4 34       		.uleb128 0x34
 1961 01e5 00       		.byte	0
 1962 01e6 03       		.uleb128 0x3
 1963 01e7 0E       		.uleb128 0xe
 1964 01e8 3A       		.uleb128 0x3a
 1965 01e9 0B       		.uleb128 0xb
 1966 01ea 3B       		.uleb128 0x3b
 1967 01eb 05       		.uleb128 0x5
 1968 01ec 49       		.uleb128 0x49
 1969 01ed 13       		.uleb128 0x13
 1970 01ee 3F       		.uleb128 0x3f
 1971 01ef 19       		.uleb128 0x19
 1972 01f0 3C       		.uleb128 0x3c
 1973 01f1 19       		.uleb128 0x19
 1974 01f2 00       		.byte	0
 1975 01f3 00       		.byte	0
 1976 01f4 26       		.uleb128 0x26
 1977 01f5 34       		.uleb128 0x34
 1978 01f6 00       		.byte	0
 1979 01f7 03       		.uleb128 0x3
 1980 01f8 08       		.uleb128 0x8
 1981 01f9 3A       		.uleb128 0x3a
 1982 01fa 0B       		.uleb128 0xb
 1983 01fb 3B       		.uleb128 0x3b
 1984 01fc 05       		.uleb128 0x5
 1985 01fd 49       		.uleb128 0x49
 1986 01fe 13       		.uleb128 0x13
 1987 01ff 3F       		.uleb128 0x3f
ARM GAS  /tmp/ccwf2nlK.s 			page 49


 1988 0200 19       		.uleb128 0x19
 1989 0201 3C       		.uleb128 0x3c
 1990 0202 19       		.uleb128 0x19
 1991 0203 00       		.byte	0
 1992 0204 00       		.byte	0
 1993 0205 27       		.uleb128 0x27
 1994 0206 2E       		.uleb128 0x2e
 1995 0207 00       		.byte	0
 1996 0208 3F       		.uleb128 0x3f
 1997 0209 19       		.uleb128 0x19
 1998 020a 03       		.uleb128 0x3
 1999 020b 0E       		.uleb128 0xe
 2000 020c 3A       		.uleb128 0x3a
 2001 020d 0B       		.uleb128 0xb
 2002 020e 3B       		.uleb128 0x3b
 2003 020f 0B       		.uleb128 0xb
 2004 0210 27       		.uleb128 0x27
 2005 0211 19       		.uleb128 0x19
 2006 0212 3C       		.uleb128 0x3c
 2007 0213 19       		.uleb128 0x19
 2008 0214 00       		.byte	0
 2009 0215 00       		.byte	0
 2010 0216 00       		.byte	0
 2011              		.section	.debug_aranges,"",%progbits
 2012 0000 3C000000 		.4byte	0x3c
 2013 0004 0200     		.2byte	0x2
 2014 0006 00000000 		.4byte	.Ldebug_info0
 2015 000a 04       		.byte	0x4
 2016 000b 00       		.byte	0
 2017 000c 0000     		.2byte	0
 2018 000e 0000     		.2byte	0
 2019 0010 00000000 		.4byte	.LFB272
 2020 0014 04000000 		.4byte	.LFE272-.LFB272
 2021 0018 00000000 		.4byte	.LFB273
 2022 001c 10000000 		.4byte	.LFE273-.LFB273
 2023 0020 00000000 		.4byte	.LFB274
 2024 0024 0A000000 		.4byte	.LFE274-.LFB274
 2025 0028 00000000 		.4byte	.LFB275
 2026 002c 08000000 		.4byte	.LFE275-.LFB275
 2027 0030 00000000 		.4byte	.LFB276
 2028 0034 08000000 		.4byte	.LFE276-.LFB276
 2029 0038 00000000 		.4byte	0
 2030 003c 00000000 		.4byte	0
 2031              		.section	.debug_ranges,"",%progbits
 2032              	.Ldebug_ranges0:
 2033 0000 00000000 		.4byte	.LFB272
 2034 0004 04000000 		.4byte	.LFE272
 2035 0008 00000000 		.4byte	.LFB273
 2036 000c 10000000 		.4byte	.LFE273
 2037 0010 00000000 		.4byte	.LFB274
 2038 0014 0A000000 		.4byte	.LFE274
 2039 0018 00000000 		.4byte	.LFB275
 2040 001c 08000000 		.4byte	.LFE275
 2041 0020 00000000 		.4byte	.LFB276
 2042 0024 08000000 		.4byte	.LFE276
 2043 0028 00000000 		.4byte	0
 2044 002c 00000000 		.4byte	0
ARM GAS  /tmp/ccwf2nlK.s 			page 50


 2045              		.section	.debug_line,"",%progbits
 2046              	.Ldebug_line0:
 2047 0000 DF020000 		.section	.debug_str,"MS",%progbits,1
 2047      02006602 
 2047      00000201 
 2047      FB0E0D00 
 2047      01010101 
 2048              	.LASF49:
 2049 0000 72656164 		.ascii	"ready_list_t\000"
 2049      795F6C69 
 2049      73745F74 
 2049      00
 2050              	.LASF83:
 2051 000d 44494552 		.ascii	"DIER\000"
 2051      00
 2052              	.LASF97:
 2053 0012 77747472 		.ascii	"wttrp\000"
 2053      7000
 2054              	.LASF94:
 2055 0018 7264796D 		.ascii	"rdymsg\000"
 2055      736700
 2056              	.LASF16:
 2057 001f 75696E74 		.ascii	"uint64_t\000"
 2057      36345F74 
 2057      00
 2058              	.LASF5:
 2059 0028 5F5F7569 		.ascii	"__uint8_t\000"
 2059      6E74385F 
 2059      7400
 2060              	.LASF22:
 2061 0032 6D73675F 		.ascii	"msg_t\000"
 2061      7400
 2062              	.LASF81:
 2063 0038 706F7274 		.ascii	"port_intctx\000"
 2063      5F696E74 
 2063      63747800 
 2064              	.LASF68:
 2065 0044 73797374 		.ascii	"system_debug_t\000"
 2065      656D5F64 
 2065      65627567 
 2065      5F7400
 2066              	.LASF125:
 2067 0053 2E2E2F43 		.ascii	"../ChibiOS/os/hal/src/st.c\000"
 2067      68696269 
 2067      4F532F6F 
 2067      732F6861 
 2067      6C2F7372 
 2068              	.LASF12:
 2069 006e 6C6F6E67 		.ascii	"long long unsigned int\000"
 2069      206C6F6E 
 2069      6720756E 
 2069      7369676E 
 2069      65642069 
 2070              	.LASF95:
 2071 0085 65786974 		.ascii	"exitcode\000"
 2071      636F6465 
 2071      00
ARM GAS  /tmp/ccwf2nlK.s 			page 51


 2072              	.LASF75:
 2073 008e 6D61696E 		.ascii	"mainthread\000"
 2073      74687265 
 2073      616400
 2074              	.LASF98:
 2075 0099 73656E74 		.ascii	"sentmsg\000"
 2075      6D736700 
 2076              	.LASF65:
 2077 00a1 76697274 		.ascii	"virtual_timers_list_t\000"
 2077      75616C5F 
 2077      74696D65 
 2077      72735F6C 
 2077      6973745F 
 2078              	.LASF123:
 2079 00b7 49544D5F 		.ascii	"ITM_RxBuffer\000"
 2079      52784275 
 2079      66666572 
 2079      00
 2080              	.LASF130:
 2081 00c4 73745F6C 		.ascii	"st_lld_init\000"
 2081      6C645F69 
 2081      6E697400 
 2082              	.LASF87:
 2083 00d0 42445452 		.ascii	"BDTR\000"
 2083      00
 2084              	.LASF48:
 2085 00d5 63685F74 		.ascii	"ch_threads_queue\000"
 2085      68726561 
 2085      64735F71 
 2085      75657565 
 2085      00
 2086              	.LASF29:
 2087 00e6 705F7072 		.ascii	"p_prio\000"
 2087      696F00
 2088              	.LASF84:
 2089 00ed 43434D52 		.ascii	"CCMR1\000"
 2089      3100
 2090              	.LASF85:
 2091 00f3 43434D52 		.ascii	"CCMR2\000"
 2091      3200
 2092              	.LASF89:
 2093 00f9 43434D52 		.ascii	"CCMR3\000"
 2093      3300
 2094              	.LASF1:
 2095 00ff 7369676E 		.ascii	"signed char\000"
 2095      65642063 
 2095      68617200 
 2096              	.LASF122:
 2097 010b 5F5F6675 		.ascii	"__func__.7090\000"
 2097      6E635F5F 
 2097      2E373039 
 2097      3000
 2098              	.LASF106:
 2099 0119 6D5F7175 		.ascii	"m_queue\000"
 2099      65756500 
 2100              	.LASF74:
 2101 0121 76746C69 		.ascii	"vtlist\000"
ARM GAS  /tmp/ccwf2nlK.s 			page 52


 2101      737400
 2102              	.LASF72:
 2103 0128 63685F73 		.ascii	"ch_system\000"
 2103      79737465 
 2103      6D00
 2104              	.LASF7:
 2105 0132 6C6F6E67 		.ascii	"long int\000"
 2105      20696E74 
 2105      00
 2106              	.LASF18:
 2107 013b 746D6F64 		.ascii	"tmode_t\000"
 2107      655F7400 
 2108              	.LASF19:
 2109 0143 74737461 		.ascii	"tstate_t\000"
 2109      74655F74 
 2109      00
 2110              	.LASF86:
 2111 014c 43434552 		.ascii	"CCER\000"
 2111      00
 2112              	.LASF10:
 2113 0151 6C6F6E67 		.ascii	"long long int\000"
 2113      206C6F6E 
 2113      6720696E 
 2113      7400
 2114              	.LASF31:
 2115 015f 705F6E65 		.ascii	"p_newer\000"
 2115      77657200 
 2116              	.LASF103:
 2117 0167 735F7175 		.ascii	"s_queue\000"
 2117      65756500 
 2118              	.LASF4:
 2119 016f 73686F72 		.ascii	"short unsigned int\000"
 2119      7420756E 
 2119      7369676E 
 2119      65642069 
 2119      6E7400
 2120              	.LASF54:
 2121 0182 725F6E65 		.ascii	"r_newer\000"
 2121      77657200 
 2122              	.LASF42:
 2123 018a 705F6D70 		.ascii	"p_mpool\000"
 2123      6F6F6C00 
 2124              	.LASF78:
 2125 0192 72656761 		.ascii	"regarm_t\000"
 2125      726D5F74 
 2125      00
 2126              	.LASF61:
 2127 019b 76745F70 		.ascii	"vt_prev\000"
 2127      72657600 
 2128              	.LASF110:
 2129 01a3 6D757465 		.ascii	"mutex_t\000"
 2129      785F7400 
 2130              	.LASF76:
 2131 01ab 69646C65 		.ascii	"idle_thread_wa\000"
 2131      5F746872 
 2131      6561645F 
 2131      776100
ARM GAS  /tmp/ccwf2nlK.s 			page 53


 2132              	.LASF24:
 2133 01ba 636E745F 		.ascii	"cnt_t\000"
 2133      7400
 2134              	.LASF0:
 2135 01c0 756E7369 		.ascii	"unsigned int\000"
 2135      676E6564 
 2135      20696E74 
 2135      00
 2136              	.LASF60:
 2137 01cd 76745F6E 		.ascii	"vt_next\000"
 2137      65787400 
 2138              	.LASF99:
 2139 01d5 77747365 		.ascii	"wtsemp\000"
 2139      6D7000
 2140              	.LASF38:
 2141 01dc 705F6D73 		.ascii	"p_msgqueue\000"
 2141      67717565 
 2141      756500
 2142              	.LASF104:
 2143 01e7 735F636E 		.ascii	"s_cnt\000"
 2143      7400
 2144              	.LASF82:
 2145 01ed 534D4352 		.ascii	"SMCR\000"
 2145      00
 2146              	.LASF45:
 2147 01f2 63685F74 		.ascii	"ch_thread\000"
 2147      68726561 
 2147      6400
 2148              	.LASF126:
 2149 01fc 2F6E6673 		.ascii	"/nfs/nfs4/home/jvgaeta/P442WifiTrailCounterProject/"
 2149      2F6E6673 
 2149      342F686F 
 2149      6D652F6A 
 2149      76676165 
 2150 022f 6D696C65 		.ascii	"milestone1\000"
 2150      73746F6E 
 2150      653100
 2151              	.LASF71:
 2152 023a 63685F73 		.ascii	"ch_system_t\000"
 2152      79737465 
 2152      6D5F7400 
 2153              	.LASF91:
 2154 0246 73746D33 		.ascii	"stm32_tim_t\000"
 2154      325F7469 
 2154      6D5F7400 
 2155              	.LASF50:
 2156 0252 63685F72 		.ascii	"ch_ready_list\000"
 2156      65616479 
 2156      5F6C6973 
 2156      7400
 2157              	.LASF23:
 2158 0260 6576656E 		.ascii	"eventmask_t\000"
 2158      746D6173 
 2158      6B5F7400 
 2159              	.LASF6:
 2160 026c 5F5F696E 		.ascii	"__int32_t\000"
 2160      7433325F 
ARM GAS  /tmp/ccwf2nlK.s 			page 54


 2160      7400
 2161              	.LASF112:
 2162 0276 73745F6C 		.ascii	"st_lld_start_alarm\000"
 2162      6C645F73 
 2162      74617274 
 2162      5F616C61 
 2162      726D00
 2163              	.LASF79:
 2164 0289 73746B61 		.ascii	"stkalign_t\000"
 2164      6C69676E 
 2164      5F7400
 2165              	.LASF37:
 2166 0294 705F7761 		.ascii	"p_waiting\000"
 2166      6974696E 
 2166      6700
 2167              	.LASF77:
 2168 029e 73697A65 		.ascii	"sizetype\000"
 2168      74797065 
 2168      00
 2169              	.LASF43:
 2170 02a7 74687265 		.ascii	"thread_reference_t\000"
 2170      61645F72 
 2170      65666572 
 2170      656E6365 
 2170      5F7400
 2171              	.LASF66:
 2172 02ba 63685F76 		.ascii	"ch_virtual_timers_list\000"
 2172      69727475 
 2172      616C5F74 
 2172      696D6572 
 2172      735F6C69 
 2173              	.LASF67:
 2174 02d1 76745F6C 		.ascii	"vt_lasttime\000"
 2174      61737474 
 2174      696D6500 
 2175              	.LASF32:
 2176 02dd 705F6F6C 		.ascii	"p_older\000"
 2176      64657200 
 2177              	.LASF115:
 2178 02e5 7374496E 		.ascii	"stInit\000"
 2178      697400
 2179              	.LASF53:
 2180 02ec 725F6374 		.ascii	"r_ctx\000"
 2180      7800
 2181              	.LASF93:
 2182 02f2 746D5F63 		.ascii	"tm_calibration_t\000"
 2182      616C6962 
 2182      72617469 
 2182      6F6E5F74 
 2182      00
 2183              	.LASF114:
 2184 0303 74696D65 		.ascii	"time\000"
 2184      00
 2185              	.LASF56:
 2186 0308 725F6375 		.ascii	"r_current\000"
 2186      7272656E 
 2186      7400
ARM GAS  /tmp/ccwf2nlK.s 			page 55


 2187              	.LASF55:
 2188 0312 725F6F6C 		.ascii	"r_older\000"
 2188      64657200 
 2189              	.LASF11:
 2190 031a 5F5F7569 		.ascii	"__uint64_t\000"
 2190      6E743634 
 2190      5F7400
 2191              	.LASF20:
 2192 0325 74726566 		.ascii	"trefs_t\000"
 2192      735F7400 
 2193              	.LASF58:
 2194 032d 76697274 		.ascii	"virtual_timer_t\000"
 2194      75616C5F 
 2194      74696D65 
 2194      725F7400 
 2195              	.LASF28:
 2196 033d 705F7072 		.ascii	"p_prev\000"
 2196      657600
 2197              	.LASF21:
 2198 0344 74707269 		.ascii	"tprio_t\000"
 2198      6F5F7400 
 2199              	.LASF69:
 2200 034c 63685F73 		.ascii	"ch_system_debug\000"
 2200      79737465 
 2200      6D5F6465 
 2200      62756700 
 2201              	.LASF111:
 2202 035c 5F426F6F 		.ascii	"_Bool\000"
 2202      6C00
 2203              	.LASF14:
 2204 0362 696E7433 		.ascii	"int32_t\000"
 2204      325F7400 
 2205              	.LASF2:
 2206 036a 756E7369 		.ascii	"unsigned char\000"
 2206      676E6564 
 2206      20636861 
 2206      7200
 2207              	.LASF120:
 2208 0378 5F5F6675 		.ascii	"__func__.7079\000"
 2208      6E635F5F 
 2208      2E373037 
 2208      3900
 2209              	.LASF40:
 2210 0386 705F6D74 		.ascii	"p_mtxlist\000"
 2210      786C6973 
 2210      7400
 2211              	.LASF3:
 2212 0390 73686F72 		.ascii	"short int\000"
 2212      7420696E 
 2212      7400
 2213              	.LASF34:
 2214 039a 705F7374 		.ascii	"p_state\000"
 2214      61746500 
 2215              	.LASF52:
 2216 03a2 725F7072 		.ascii	"r_prio\000"
 2216      696F00
 2217              	.LASF101:
ARM GAS  /tmp/ccwf2nlK.s 			page 56


 2218 03a9 65776D61 		.ascii	"ewmask\000"
 2218      736B00
 2219              	.LASF27:
 2220 03b0 705F6E65 		.ascii	"p_next\000"
 2220      787400
 2221              	.LASF13:
 2222 03b7 75696E74 		.ascii	"uint8_t\000"
 2222      385F7400 
 2223              	.LASF59:
 2224 03bf 63685F76 		.ascii	"ch_virtual_timer\000"
 2224      69727475 
 2224      616C5F74 
 2224      696D6572 
 2224      00
 2225              	.LASF128:
 2226 03d0 73745F6C 		.ascii	"st_lld_get_alarm\000"
 2226      6C645F67 
 2226      65745F61 
 2226      6C61726D 
 2226      00
 2227              	.LASF102:
 2228 03e1 63685F73 		.ascii	"ch_semaphore\000"
 2228      656D6170 
 2228      686F7265 
 2228      00
 2229              	.LASF90:
 2230 03ee 43435852 		.ascii	"CCXR\000"
 2230      00
 2231              	.LASF39:
 2232 03f3 705F6570 		.ascii	"p_epending\000"
 2232      656E6469 
 2232      6E6700
 2233              	.LASF15:
 2234 03fe 75696E74 		.ascii	"uint32_t\000"
 2234      33325F74 
 2234      00
 2235              	.LASF100:
 2236 0407 77746D74 		.ascii	"wtmtxp\000"
 2236      787000
 2237              	.LASF51:
 2238 040e 725F7175 		.ascii	"r_queue\000"
 2238      65756500 
 2239              	.LASF62:
 2240 0416 76745F64 		.ascii	"vt_delta\000"
 2240      656C7461 
 2240      00
 2241              	.LASF46:
 2242 041f 63685F74 		.ascii	"ch_threads_list\000"
 2242      68726561 
 2242      64735F6C 
 2242      69737400 
 2243              	.LASF9:
 2244 042f 6C6F6E67 		.ascii	"long unsigned int\000"
 2244      20756E73 
 2244      69676E65 
 2244      6420696E 
 2244      7400
ARM GAS  /tmp/ccwf2nlK.s 			page 57


 2245              	.LASF117:
 2246 0441 73745374 		.ascii	"stStopAlarm\000"
 2246      6F70416C 
 2246      61726D00 
 2247              	.LASF109:
 2248 044d 63686172 		.ascii	"char\000"
 2248      00
 2249              	.LASF88:
 2250 0452 444D4152 		.ascii	"DMAR\000"
 2250      00
 2251              	.LASF26:
 2252 0457 74687265 		.ascii	"thread_t\000"
 2252      61645F74 
 2252      00
 2253              	.LASF108:
 2254 0460 6D5F6E65 		.ascii	"m_next\000"
 2254      787400
 2255              	.LASF25:
 2256 0467 73797374 		.ascii	"systime_t\000"
 2256      696D655F 
 2256      7400
 2257              	.LASF41:
 2258 0471 705F7265 		.ascii	"p_realprio\000"
 2258      616C7072 
 2258      696F00
 2259              	.LASF57:
 2260 047c 76746675 		.ascii	"vtfunc_t\000"
 2260      6E635F74 
 2260      00
 2261              	.LASF8:
 2262 0485 5F5F7569 		.ascii	"__uint32_t\000"
 2262      6E743332 
 2262      5F7400
 2263              	.LASF70:
 2264 0490 70616E69 		.ascii	"panic_msg\000"
 2264      635F6D73 
 2264      6700
 2265              	.LASF92:
 2266 049a 6F666673 		.ascii	"offset\000"
 2266      657400
 2267              	.LASF116:
 2268 04a1 73745374 		.ascii	"stStartAlarm\000"
 2268      61727441 
 2268      6C61726D 
 2268      00
 2269              	.LASF80:
 2270 04ae 636F6E74 		.ascii	"context\000"
 2270      65787400 
 2271              	.LASF17:
 2272 04b6 7274636E 		.ascii	"rtcnt_t\000"
 2272      745F7400 
 2273              	.LASF127:
 2274 04be 73745F6C 		.ascii	"st_lld_stop_alarm\000"
 2274      6C645F73 
 2274      746F705F 
 2274      616C6172 
 2274      6D00
ARM GAS  /tmp/ccwf2nlK.s 			page 58


 2275              	.LASF64:
 2276 04d0 76745F70 		.ascii	"vt_par\000"
 2276      617200
 2277              	.LASF47:
 2278 04d7 74687265 		.ascii	"threads_queue_t\000"
 2278      6164735F 
 2278      71756575 
 2278      655F7400 
 2279              	.LASF105:
 2280 04e7 63685F6D 		.ascii	"ch_mutex\000"
 2280      75746578 
 2280      00
 2281              	.LASF36:
 2282 04f0 705F7265 		.ascii	"p_refs\000"
 2282      667300
 2283              	.LASF73:
 2284 04f7 726C6973 		.ascii	"rlist\000"
 2284      7400
 2285              	.LASF118:
 2286 04fd 73745365 		.ascii	"stSetAlarm\000"
 2286      74416C61 
 2286      726D00
 2287              	.LASF124:
 2288 0508 474E5520 		.ascii	"GNU C 4.8.4 20140526 (release) [ARM/embedded-4_8-br"
 2288      4320342E 
 2288      382E3420 
 2288      32303134 
 2288      30353236 
 2289 053b 616E6368 		.ascii	"anch revision 211358] -mcpu=cortex-m4 -mno-thumb-in"
 2289      20726576 
 2289      6973696F 
 2289      6E203231 
 2289      31333538 
 2290 056e 74657277 		.ascii	"terwork -mthumb -ggdb -O2 -fomit-frame-pointer -fal"
 2290      6F726B20 
 2290      2D6D7468 
 2290      756D6220 
 2290      2D676764 
 2291 05a1 69676E2D 		.ascii	"ign-functions=16 -ffunction-sections -fdata-section"
 2291      66756E63 
 2291      74696F6E 
 2291      733D3136 
 2291      202D6666 
 2292 05d4 73202D66 		.ascii	"s -fno-common -flto\000"
 2292      6E6F2D63 
 2292      6F6D6D6F 
 2292      6E202D66 
 2292      6C746F00 
 2293              	.LASF129:
 2294 05e8 73744765 		.ascii	"stGetAlarm\000"
 2294      74416C61 
 2294      726D00
 2295              	.LASF96:
 2296 05f3 77746F62 		.ascii	"wtobjp\000"
 2296      6A7000
 2297              	.LASF33:
 2298 05fa 705F6E61 		.ascii	"p_name\000"
ARM GAS  /tmp/ccwf2nlK.s 			page 59


 2298      6D6500
 2299              	.LASF121:
 2300 0601 5F5F6675 		.ascii	"__func__.7086\000"
 2300      6E635F5F 
 2300      2E373038 
 2300      3600
 2301              	.LASF44:
 2302 060f 74687265 		.ascii	"threads_list_t\000"
 2302      6164735F 
 2302      6C697374 
 2302      5F7400
 2303              	.LASF119:
 2304 061e 61627374 		.ascii	"abstime\000"
 2304      696D6500 
 2305              	.LASF35:
 2306 0626 705F666C 		.ascii	"p_flags\000"
 2306      61677300 
 2307              	.LASF113:
 2308 062e 73745F6C 		.ascii	"st_lld_set_alarm\000"
 2308      6C645F73 
 2308      65745F61 
 2308      6C61726D 
 2308      00
 2309              	.LASF107:
 2310 063f 6D5F6F77 		.ascii	"m_owner\000"
 2310      6E657200 
 2311              	.LASF30:
 2312 0647 705F6374 		.ascii	"p_ctx\000"
 2312      7800
 2313              	.LASF63:
 2314 064d 76745F66 		.ascii	"vt_func\000"
 2314      756E6300 
 2315              		.comm	__gnu_lto_v1,1,1
 2316              		.ident	"GCC: (GNU Tools for ARM Embedded Processors) 4.8.4 20140526 (release) [ARM/embedded-4_8-br
ARM GAS  /tmp/ccwf2nlK.s 			page 60


DEFINED SYMBOLS
                            *ABS*:00000000 st.c
     /tmp/ccwf2nlK.s:245    .text.stInit:00000000 $t
     /tmp/ccwf2nlK.s:251    .text.stInit:00000000 stInit
     /tmp/ccwf2nlK.s:266    .text.stStartAlarm:00000000 $t
     /tmp/ccwf2nlK.s:272    .text.stStartAlarm:00000000 stStartAlarm
     /tmp/ccwf2nlK.s:303    .text.stStopAlarm:00000000 $t
     /tmp/ccwf2nlK.s:309    .text.stStopAlarm:00000000 stStopAlarm
     /tmp/ccwf2nlK.s:329    .text.stSetAlarm:00000000 $t
     /tmp/ccwf2nlK.s:335    .text.stSetAlarm:00000000 stSetAlarm
     /tmp/ccwf2nlK.s:356    .text.stGetAlarm:00000000 $t
     /tmp/ccwf2nlK.s:362    .text.stGetAlarm:00000000 stGetAlarm
                            *COM*:00000001 __gnu_lto_v1
                     .debug_frame:00000010 $d

UNDEFINED SYMBOLS
st_lld_init
