ARM GAS  /tmp/ccWUHugI.s 			page 1


   1              		.syntax unified
   2              		.cpu cortex-m4
   3              		.fpu softvfp
   4              		.eabi_attribute 20, 1
   5              		.eabi_attribute 21, 1
   6              		.eabi_attribute 23, 3
   7              		.eabi_attribute 24, 1
   8              		.eabi_attribute 25, 1
   9              		.eabi_attribute 26, 1
  10              		.eabi_attribute 30, 2
  11              		.eabi_attribute 34, 1
  12              		.eabi_attribute 18, 4
  13              		.thumb
  14              		.file	"testmsg.c"
  15              		.text
  16              	.Ltext0:
  17              		.section	.gnu.lto_.jmpfuncs.5f0965a74dd0140e,"",%progbits
  18 0000 789C6362 		.ascii	"x\234cb`b\300\006f\0031+\020\003e\231\230\"\0303\031"
  18      6062C006 
  18      6603312B 
  18      10036599 
  18      98221833 
  19 0015 191881AC 		.ascii	"\031\030\201\254j\206_\0153\032\0042\031\031\345\030"
  19      6A865F0D 
  19      331A0432 
  19      1919E518 
  20 0025 18E736CC 		.ascii	"\030\3476\314p\310d\204hgd`\300\305\000\232\0021\340"
  20      70C86484 
  20      68676460 
  20      C0C5009A 
  20      0231E0
  21 0038 04980F36 		.ascii	"\004\230\0176\243\003d\006s2#\3242fF&f U\006U\311\342"
  21      A3036406 
  21      733223D4 
  21      32664626 
  21      66205506 
  22 004f 0C64A008 		.ascii	"\014d\240\0108\241\0138\0029,\216N\316\014\000d\375"
  22      38A10B38 
  22      02392C8E 
  22      4ECE0C00 
  22      64FD
  23 0061 1256     		.ascii	"\022V"
  24              		.text
  25              		.section	.gnu.lto_.inline.5f0965a74dd0140e,"",%progbits
  26 0000 789C6362 		.ascii	"x\234cb`b\300\006&Ci\240\254V\017##\003\223@C-\003\333"
  26      6062C006 
  26      264369A0 
  26      AC560F23 
  26      23039340 
  27 0018 0279B06A 		.ascii	"\002y\260jf\036\260\004\0237\003\003\343\004?0o\202"
  27      661EB004 
  27      13370303 
  27      E3043F30 
  27      6F82
  28 002a DF043F10 		.ascii	"\337\004?\020\237\004Av\001\006\006\326\011~\014`\304"
  28      9F044176 
  28      010606D6 
ARM GAS  /tmp/ccWUHugI.s 			page 2


  28      097E0C60 
  28      C4
  29 003b CCC0A3C6 		.ascii	"\314\300\243\306\010v\013\212%@9t\232\001\000a\243\022"
  29      08760B8A 
  29      25403974 
  29      9A010061 
  29      A312
  30 004d 0D       		.ascii	"\015"
  31              		.text
  32              		.section	.gnu.lto_.pureconst.5f0965a74dd0140e,"",%progbits
  33 0000 789C6362 		.ascii	"x\234cb`b`e\200\000&\006If\011\000\001\005\000@"
  33      60626065 
  33      80002606 
  33      49660900 
  33      01050040 
  34              		.text
  35              		.section	.gnu.lto_msg1_execute.5f0965a74dd0140e,"",%progbits
  36 0000 789CAD94 		.ascii	"x\234\255\224\317O\023A\024\307\337\333\266\320Zm)\226"
  36      CF4F1341 
  36      14C7DFDB 
  36      B6D05A6D 
  36      2996
  37 0012 1FE567D5 		.ascii	"\037\345g\325x\301\330&&\036\274\251\374\001\036\304"
  37      78C1D826 
  37      261EBCA9 
  37      FC011EC4 
  38 0022 448F6521 		.ascii	"D\217e!\355&V\014\255'\017\014\277\014\007L*\036\000"
  38      ED26560C 
  38      AD270F0C 
  38      BF0C074C 
  38      2A1E00
  39 0035 9100EA41 		.ascii	"\221\000\352A\001C\2101!r\260\221\304@@\221\253\361"
  39      01438831 
  39      2172B091 
  39      C4404091 
  39      ABF1
  40 0047 D0801A13 		.ascii	"\320\200\032\023/\306\230\230(\261\2767\373\243\024"
  40      2FC69898 
  40      28B1BE37 
  40      FBA314
  41 0056 48E1C026 		.ascii	"H\341\300&;\373\366\315\233\357|\347\2633\253\200\002"
  41      3BFBF6CD 
  41      9BEF7CE7 
  41      B333AB80 
  41      02
  42 0067 DBAF00DD 		.ascii	"\333\257\000\335?\213\000\022\364D\033\240\222z\017"
  42      3F8B0012 
  42      F4441BA0 
  42      927A0F
  43 0076 D0E95410 		.ascii	"\320\351T\0209\000\204\016\005;\256!\227\342q\230\020"
  43      3900840E 
  43      053BAE21 
  43      97E27198 
  43      10
  44 0087 6220F365 		.ascii	"b \363e\375\033\016\213t\317\270\330\314f\0215$\331"
  44      FD1B0E8B 
  44      74CFB8D8 
ARM GAS  /tmp/ccWUHugI.s 			page 3


  44      CC661135 
  44      24D9
  45 0099 20828A70 		.ascii	" \202\212p\225^0(\037\212=\177\236\031%\235\311f\247"
  45      955E3028 
  45      1F8A3D7F 
  45      9E19259D 
  45      C966A7
  46 00ac 67C7D7E7 		.ascii	"g\307\327\347\320W\243\200\2066\0335v\0075\340\204\010"
  46      D057A380 
  46      86361B35 
  46      760735E0 
  46      8408
  47 00be 4E90BC8B 		.ascii	"N\220\274\213^\034nj\212<F\306\313\031\037g\374F\246"
  47      5E1C6E6A 
  47      8A3C46C6 
  47      CB191F67 
  47      FC46A6
  48 00d1 8C33159C 		.ascii	"\2143\025\234\251\342\241\325\324\024\223\276\003z\204"
  48      A9E2A1D5 
  48      D41493BE 
  48      037A84
  49 00e0 4805F51A 		.ascii	"H\005\365\032i4\225\036~\333\037\020\343])\361\217|"
  49      6934951E 
  49      7EDB1F10 
  49      E35D29F1 
  49      8F7C
  50 00f2 6AE854E0 		.ascii	"j\350T\340\304^6\201\373\351j\242\226\001\\A\205\237"
  50      C45E3681 
  50      FBE96AA2 
  50      96015C41 
  50      859F
  51 0104 B677D0F5 		.ascii	"\266w\320\365i\356\353\242=\202\217\321\001QTN\303\264"
  51      69EEEBA2 
  51      3D828FD1 
  51      0151544E 
  51      C3B4
  52 0116 28D1D035 		.ascii	"(\321\3205\002\017:S\034\035\272\015\177\304\020G\356"
  52      020F3A53 
  52      1C1DBA0D 
  52      7FC41047 
  52      EE
  53 0127 B8946079 		.ascii	"\270\224`y7\230\321\341-S\220\330\307\315\373\277\316"
  53      3798D1E1 
  53      2D5390D8 
  53      C7CDFBBF 
  53      CE
  54 0138 189E4DF3 		.ascii	"\030\236M\363\342\367`\330Z\210\031\244\227Wf}\244\247"
  54      E2F760D8 
  54      5A8819A4 
  54      9757667D 
  54      A4A7
  55 014a 4FAC22EA 		.ascii	"O\254\"\352\036\345\207\214b\325)\230\024Bd\306&\006"
  55      1EE5878C 
  55      62D52998 
  55      144264C6 
  55      2606
  56 015c 1B0886FE 		.ascii	"\033\010\206\376&\316ix\204}\011v\343a_}\034y\343r4"
ARM GAS  /tmp/ccWUHugI.s 			page 4


  56      26CE6978 
  56      847D0976 
  56      E3615F7D 
  56      1C79E372 
  57 0171 BBF14A1F 		.ascii	"\273\361J\037\315\374\032\301I\022\246\030\255Xw8\367"
  57      CDFC1AC1 
  57      4912A618 
  57      AD587738 
  57      F7
  58 0182 3A10C129 		.ascii	":\020\301)\271\332jC8A\254-\341\022\232\236\265\300"
  58      B9DA6A43 
  58      3841AC2D 
  58      E1129A9E 
  58      B5C0
  59 0194 D05278FC 		.ascii	"\320Rx\374\2649\276\273oay\345\236\313\344e#\021.\266"
  59      B439BEBB 
  59      6F6179E5 
  59      9ECBE465 
  59      23112EB6 
  60 01a8 73F92A54 		.ascii	"s\371*T\232y\207\345\316\247\322\366\323W\245pe\351"
  60      9A7987E5 
  60      CEA7D2F6 
  60      D357A570 
  60      65E9
  61 01ba A2C2E3B8 		.ascii	"\242\302\343\270\337\251\341Q\025\015\366\274j\015\375"
  61      DFA9E151 
  61      150DF6BC 
  61      6A0DFD
  62 01c9 D2E3D287 		.ascii	"\322\343\322\207b=\311_\203\256\263\344\306\362WfI\227"
  62      623DC95F 
  62      83AEB3E4 
  62      C6F25766 
  62      4997
  63 01db C7252F56 		.ascii	"\307%/V-\337\345\203DYu\025\2723#\013h\372rZ\203+T}"
  63      2DDFE583 
  63      44597515 
  63      BA33230B 
  63      68FA725A 
  64 01f3 49B4CF2A 		.ascii	"I\264\317*\001\226@\321K\364\215F\205\322\310\253\336"
  64      019640D1 
  64      4BF48D46 
  64      85D2C8AB 
  64      DE
  65 0204 99FE5A56 		.ascii	"\231\376ZV\342\375\300[\215:$\233\240>\305\022te\036"
  65      E2FDC05B 
  65      8D3A249B 
  65      A03EC512 
  65      74651E
  66 0217 6E18EA71 		.ascii	"n\030\352q\246\341\224Ij\215C5\177\347\363\032\016t"
  66      A6E19449 
  66      6A8D4335 
  66      7FE7F31A 
  66      0E74
  67 0229 8B45D193 		.ascii	"\213E\321\223\246\335ZOc#\370\210|\027\336\257q\206"
  67      A6DD5A4F 
  67      6323F888 
  67      7C17DEAF 
ARM GAS  /tmp/ccWUHugI.s 			page 5


  67      7186
  68 023b 46423FDE 		.ascii	"FB?\336\274\2501\215=!c 1\367fF7\014B\000\326\212\002"
  68      BCA8318D 
  68      3D216320 
  68      31F76646 
  68      370C4200 
  69 0252 2A16190B 		.ascii	"*\026\031\013'\237.\015\253\344\032\276w\377\355o0\327"
  69      279F2E0D 
  69      ABE41ABE 
  69      77FFED6F 
  69      30D7
  70 0264 EFA60E56 		.ascii	"\357\246\016V\260\357\030]\255\312\363\306\243\335\032"
  70      B0EF185D 
  70      ADCAF3C6 
  70      A3DD1A
  71 0273 D6E8E4C6 		.ascii	"\326\350\344\306r\344<\373%\347\311'\347\265\310y\266"
  71      72E43CFB 
  71      25E7C927 
  71      E7B5C879 
  71      B6
  72 0284 937B9A47 		.ascii	"\223{\232G\316s\300\344\272^\356J\356Yar\036r\234#7"
  72      CE73C0E4 
  72      BA5EEE4A 
  72      EE596172 
  72      1E729C23 
  73 0299 75D722E7 		.ascii	"u\327\"\347\213\362\351\332\203\234\317\"7\225#\347"
  73      8BF2E9DA 
  73      839CCF22 
  73      379523E7 
  74 02a9 DF2F397F 		.ascii	"\337/9\177>\2712\213\234\177;\271\351<r\376\203\336"
  74      3EB9328B 
  74      9C7F3BB9 
  74      E93C72FE 
  74      83DE
  75 02bb 73BB937B 		.ascii	"s\273\223{^\230\234\237\034\347\310\315\347\310UP\307"
  75      5E989C9F 
  75      1CE7C8CD 
  75      E7C85550 
  75      C7
  76 02cc 9EE42A0C 		.ascii	"\236\344*\014r\275\231\031uG]\255\312\347\3128\340\245"
  76      72BD9919 
  76      75475DAD 
  76      CAE7CA38 
  76      E0A5
  77 02de 283B2A35 		.ascii	"(;*5\254\253\203\266Q1t^\303z\343?J`\211\322\032\240"
  77      ACAB83B6 
  77      5131745E 
  77      C37AE33F 
  77      4A6089D2 
  78 02f4 29A15F4D 		.ascii	")\241_M\364\023\244\277=\377,jC\241pcLk\326.]\016'["
  78      F413A4BF 
  78      3DFF2C6A 
  78      43A17063 
  78      4C6BD62E 
  79 030c 13C9707B 		.ascii	"\023\311p{R>\343\211hH\005%y\323F\321\311-Em\011.\321"
  79      523EE389 
  79      68480525 
ARM GAS  /tmp/ccWUHugI.s 			page 6


  79      79D346D1 
  79      C92D456D 
  80 0323 6EA8D76F 		.ascii	"n\250\327o\265\264\206\325X2\326\336\032iI\204bp\254"
  80      B5B486D5 
  80      5832D6DE 
  80      1A694984 
  80      6270AC
  81 0336 4015CBC5 		.ascii	"@\025\313\305\300~\341b#\374\007\312z\275\341"
  81      C07EE162 
  81      23FC07CA 
  81      7ABDE1
  82              		.text
  83              		.section	.gnu.lto_thread.5f0965a74dd0140e,"",%progbits
  84 0000 789C6362 		.ascii	"x\234cb`b@\007\222@\374\024\210\345\201\230\221\231"
  84      60624007 
  84      9240FC14 
  84      88E58198 
  84      9199
  85 0012 819169C2 		.ascii	"\201\221i\3029\006\206F\016&FF\020\203\201\221\241\236"
  85      39068646 
  85      0E264646 
  85      10838191 
  85      A19E
  86 0024 89B13E92 		.ascii	"\211\261>\222\021\254v=\323\201\007\377\377\257\373"
  86      11AC763D 
  86      D38107FF 
  86      FFAFFB
  87 0033 B6F05107 		.ascii	"\266\360Q\007\243 \033\023c.X\230\225\241\245\241a\202"
  87      A3201B13 
  87      632E5898 
  87      95A1A5A1 
  87      6182
  88 0045 02034332 		.ascii	"\002\003C2\230\033\002$AZC\031\231@4\363y\206\326\007"
  88      981B0224 
  88      415A4319 
  88      994034F3 
  88      7986D607 
  89 0059 7F2D1219 		.ascii	"\177-\022\031\0272\262\002e\253\031~5t4\010d2\002UC"
  89      1732B202 
  89      65AB197E 
  89      35743408 
  89      64320255 
  90 006e 0C4D6764 		.ascii	"\014Mgd\212`\314ddtd\310\004\352`\000*_PGX\265\023B"
  90      8A60CC64 
  90      647464C8 
  90      04EA6000 
  90      2A5F5047 
  91 0086 753D61D5 		.ascii	"u=a\325\316\020\325\027\031\032\037t(\303\224C@\010"
  91      CE10D517 
  91      191A1F74 
  91      28C39443 
  91      4008
  92 0098 5029D099 		.ascii	"P)\320\231\240\200\221\325\323\323w\316\310L\312\364"
  92      A08091D5 
  92      D3D377CE 
  92      C84CCAF4 
  93 00a8 0FD62F49 		.ascii	"\017\326/I-.\321/*\001\323\271\305\351z\311\014\000"
ARM GAS  /tmp/ccWUHugI.s 			page 7


  93      2D2ED12F 
  93      2A01D3B9 
  93      C5E97AC9 
  93      0C00
  94 00ba D61C407F 		.ascii	"\326\034@\177"
  95              		.text
  96              		.section	.gnu.lto_.symbol_nodes.5f0965a74dd0140e,"",%progbits
  97 0000 789C4DCC 		.ascii	"x\234M\314;\016\3020\020\004\320\031;&\004\270\003g"
  97      3B0EC230 
  97      1004D019 
  97      3B2604B8 
  97      0367
  98 0012 E3241BC9 		.ascii	"\343$\033\311\005B\221\000Q\323\345(\3519\003(-\015"
  98      05429100 
  98      51D3E528 
  98      E9390328 
  98      2D0D
  99 0024 FF3F6213 		.ascii	"\377?b\023#\214\233\247\231Y\331\300 %\3023{\0121_\001"
  99      238C9BA7 
  99      9959D9C0 
  99      2025C233 
  99      7B0A315F 
 100 0039 22CBC9C8 		.ascii	"\"\313\311\310\235t\020\270\027\251\230\035\005\177"
 100      9D7410B8 
 100      17A9981D 
 100      057F
 101 0047 E385A619 		.ascii	"\343\205\246\031\217\264N90Q\370\240\230p\223\347\344"
 101      8FB44E39 
 101      3051F8A0 
 101      987093E7 
 101      E4
 102 0058 9D6263BA 		.ascii	"\235bc\272Q\222\230\256\024\027\323\231\322\211\351"
 102      519298AE 
 102      1417D399 
 102      D289E9
 103 0067 49497FC9 		.ascii	"II\177\311\242\017\277y\253=T\255\031\374x;\264\350"
 103      A20FBF79 
 103      AB3D54AD 
 103      19FC783B 
 103      B4E8
 104 0079 A26AEDA1 		.ascii	"\242j\355\241n\315P\026\241\257\213\320\373i\350\253"
 104      6ECD5016 
 104      A1AF8BD0 
 104      FB69E8AB 
 105 0089 59E8FDA2 		.ascii	"Y\350\375\2421E\331h\007\360k\375O-\277V*>\300\273N"
 105      3145D968 
 105      07F06BFD 
 105      4F2DBF56 
 105      2A3EC0BB 
 106 009e 13       		.ascii	"\023"
 107              		.text
 108              		.section	.gnu.lto_.refs.5f0965a74dd0140e,"",%progbits
 109 0000 789C25C1 		.ascii	"x\234%\301A\001\0000\010\304\260^\007\030\300\277\327"
 109      41010030 
 109      08C4B05E 
 109      0718C0BF 
 109      D7
ARM GAS  /tmp/ccWUHugI.s 			page 8


 110 0011 3D484496 		.ascii	"=HD\226S\020\364\245\322NF\370\004\007\000@"
 110      5310F4A5 
 110      D24E46F8 
 110      04070040 
 111              		.text
 112              		.section	.gnu.lto_.decls.5f0965a74dd0140e,"",%progbits
 113 0000 789CBD5B 		.ascii	"x\234\275[{t\024U\232\257[\335\351N\223@\300Y\034tQ"
 113      7B741455 
 113      9AAF5BDD 
 113      E94E9340 
 113      C0591C74 
 114 0015 1BCFE8CC 		.ascii	"\033\317\350\3148\013\001\207Q\234\26330\313\331\343"
 114      380B0187 
 114      519CB333 
 114      30CBD9E3 
 115 0025 9EDD83B3 		.ascii	"\236\335\203\263g\3349\353?;\275E\247HzL?\254\256@\330"
 115      67DC39EB 
 115      3F3BBD45 
 115      A7487A4C 
 115      3FACAE40 
 116 003a DD73AC24 		.ascii	"\335s\254$\010aD&\022y\032 <\004\224\2257\262A\201\302"
 116      08614426 
 116      12791A20 
 116      3C049495 
 116      37B24181 
 117 004f 5508A240 		.ascii	"U\010\242@\300%\011\303#\016\240\340\343\014\006P\224"
 117      C02509C3 
 117      230EA0E0 
 117      E30C0650 
 117      94
 118 0060 81EC77BF 		.ascii	"\201\354w\277[\325]U]\325]\025t\352\234\272}\273\372"
 118      5BD55D55 
 118      5DD55D15 
 118      74EA9CBA 
 118      7DBBFA
 119 0073 DEDFFDDE 		.ascii	"\336\337\375\336\337}t\361\034\3175\022\216\353\203"
 119      DF7D74F1 
 119      1CCF3512 
 119      8EEB83
 120 0082 ABFE671C 		.ascii	"\253\376g\034\367e\220\343|\034\307\375\034\356\"\355"
 120      F76590E3 
 120      7C1CC7FD 
 120      1CEE22ED 
 121 0092 5E01F74A 		.ascii	"^\001\367J\270\327\302\275\236cW1\334\333\340n\203{"
 121      B8D7C2BD 
 121      9E635731 
 121      DCDBE06E 
 121      837B
 122 00a4 17DCFBE0 		.ascii	"\027\334\373\340~\007\356\247\000K\206\273\236\260\276"
 122      7E07EEA7 
 122      004B86BB 
 122      9EB0BE
 123 00b3 B3E0730E 		.ascii	"\263\340s\016\334\275p\177\001w)\317\231.\332\177\004"
 123      DCBD707F 
 123      017729CF 
 123      992EDA7F 
 123      04
ARM GAS  /tmp/ccWUHugI.s 			page 9


 124 00c4 DCEFC13D 		.ascii	"\334\357\301=\010\356R\270\307\303\015dp\001\270W\301"
 124      08EE52B8 
 124      C7C30D64 
 124      7001B857 
 124      C1
 125 00d5 DDAD8D3B 		.ascii	"\335\255\215;\033\372SZo\007\014?|\177\001\352\317\301"
 125      1BFA535A 
 125      6F070C3F 
 125      7C7F01EA 
 125      CFC1
 126 00e7 FD5DF87E 		.ascii	"\375]\370~\010\276\017\343\331\230\224\316\032x~\031"
 126      08BE0FE3 
 126      D99894CE 
 126      1A787E19 
 127 00f7 EE3BE0D9 		.ascii	"\356;\340\331\235pKP\377k\370<\010\277\015\207\317\375"
 127      9D704B50 
 127      FF6BF83C 
 127      08BF0D87 
 127      CFFD
 128 0109 F079179F 		.ascii	"\360y\027\237\345m7\307\370n\206v\253\341\356\202zH"
 128      E56D37C7 
 128      F86E8676 
 128      ABE1EE82 
 128      7A48
 129 011b A3EF6E68 		.ascii	"\243\357nhw/\317\370\332\246\361\370\216\3063\345\335"
 129      772FCFF8 
 129      DAA6F1F8 
 129      8EC633E5 
 129      DD
 130 012c 6FE1F33E 		.ascii	"o\341\363>\013\217\3334\354\373y\306G\003a\317y\355"
 130      0B8FDB34 
 130      ECFB79C6 
 130      470361CF 
 130      79ED
 131 013e 372A2BFA 		.ascii	"7*+\372\3505s7\256\204\373\235\242\324+\2553\225\177"
 131      E8357337 
 131      AE84FB9D 
 131      A2D42BAD 
 131      33957F
 132 0151 681F3484 		.ascii	"h\0374\204kR\340j\235\260hP\210k\244\317{^R\206\015"
 132      6B52E06A 
 132      9DB06850 
 132      886BA4CF 
 132      7B5E5286 
 133 0166 E3B82788 		.ascii	"\343\270'\210@\340Q1VJC\210t\037\267\032\332B\007^ "
 133      40E05131 
 133      564A4388 
 133      741FB71A 
 133      DA42075E 
 134 017b AB480846 		.ascii	"\253H\010F\342\011g{\261\337\351E\273\263\272^\353#"
 134      E209677B 
 134      B1DFE945 
 134      BBB3BA5E 
 134      EB23
 135 018d 19F4B08E 		.ascii	"\031\364\260\216\356\327z\255$C\260\206\264(\032\215"
 135      EED77AAD 
 135      2443B086 
ARM GAS  /tmp/ccWUHugI.s 			page 10


 135      B4281A8D 
 136 019d D8C2A9C7 		.ascii	"\330\302\251\307\032\3038\245\241l\305\247Q\342\324"
 136      1AC338A5 
 136      A16CC5A7 
 136      51E2D4
 137 01ac 6F0529B1 		.ascii	"o\005)\261\025\310\355\334|md\205\310\002\371\371PG"
 137      15C8EDDC 
 137      7C6D6485 
 137      C802F9F9 
 137      5047
 138 01be 8475E476 		.ascii	"\204u\344v\254\371P\342\360`|\011\024\277\326\007v\036"
 138      ACF950E2 
 138      F0607C09 
 138      14BFD607 
 138      761E
 139 01d0 7A2D0CFD 		.ascii	"z-\014\375\000\3672\023\345\037m$h\342\336\036\007U"
 139      00F73213 
 139      E51F6D24 
 139      68E2DE1E 
 139      0755
 140 01e2 D1D4B36B 		.ascii	"\321\324\263k\365\234\237)J\261@\326\243:\376\236\000"
 140      F59C9F29 
 140      4AB140D6 
 140      A33AFE9E 
 140      00
 141 01f3 FC2BE401 		.ascii	"\374+\344\001\2578\255;\366\015U\374\002\331\200({H"
 141      AF38AD3B 
 141      F60D55FC 
 141      02D98028 
 141      7B48
 142 0205 3F617A96 		.ascii	"?az\226\037\3321\016\311\331\214@\357\362f \201\004"
 142      1FDA310E 
 142      C9D98C40 
 142      EFF26620 
 142      8104
 143 0217 42662B81 		.ascii	"Bf+\201\357z\003\212\006_\351H\327h\330 OkO\350\227"
 143      EF7A038A 
 143      065FE948 
 143      D768D820 
 143      4F6B4FE8 
 144 022c 20F717EF 		.ascii	" \367\027\357w\017\267LQ/\365\234:\276k\330bE\235\241"
 144      770FB74C 
 144      512FF59C 
 144      3ABE6BD8 
 144      62459DA1 
 145 0240 F4F53DAD 		.ascii	"\364\365=\255)\235\347\256X\030\373\036\267JQ\346)["
 145      299DE7AE 
 145      5818FB1E 
 145      B74A51E6 
 145      295B
 146 0252 14258466 		.ascii	"\024%\204f\300s\327\261\3056r\217\255\270\260\021\\"
 146      C073D7B1 
 146      C536728F 
 146      ADB8B011 
 146      5C
 147 0263 F7732FD1 		.ascii	"\367s/\321\361\225u\212\017M\215\323\372\230h\336NL"
 147      F195758A 
ARM GAS  /tmp/ccWUHugI.s 			page 11


 147      0F4D8DD3 
 147      FA9868DE 
 147      4E4C
 148 0275 8ECFE852 		.ascii	"\216\317\350R\347\357\233{\207\322Z\257\366\365\215"
 148      E7EF9B7B 
 148      87D25AAF 
 148      F6F58D
 149 0284 E7DCDBEC 		.ascii	"\347\334\333\354N\315f\263v\312s7,\314\330\223\325f"
 149      4ECD66B3 
 149      76CA7337 
 149      2CCCD893 
 149      D566
 150 0296 25EBF55C 		.ascii	"%\353\365\\\262z\232z\266\2378UG\236ohmW.\365\365\225"
 150      B27A9A7A 
 150      B69F3855 
 150      479E6F68 
 150      6D572EF5 
 151 02ac 99292BE6 		.ascii	"\231)+\346fa\200yF\251#O\025\2160{H1P\367\222\3171\304"
 151      66618079 
 151      46A9234F 
 151      158E307B 
 151      483150F7 
 152 02c4 D0069CA6 		.ascii	"\320\006\234\246IV\327ky\"\314n\253\327\026\205\364"
 152      4956D76B 
 152      7922CC6E 
 152      ABD71685 
 152      F4
 153 02d5 BA290EB0 		.ascii	"\272)\016\260X\345\204\362V6z\230\244\211\002]\357\263"
 153      58E584F2 
 153      56367A98 
 153      A489025D 
 153      EFB3
 154 02e7 0A94357A 		.ascii	"\012\2245z\333Nb\352\245}s\024\322T\327\323\327w\217"
 154      DB4E62EA 
 154      A57D7314 
 154      D254D7D3 
 154      D7778F
 155 02fa 7B3DEEB7 		.ascii	"{=\356\267rA\211\265\220\261\327\201\214\003\266\212"
 155      724189B5 
 155      90B1D781 
 155      8C03B68A 
 156 030a 3BBA6CCF 		.ascii	";\272l\317\035\312\012\257\366t\320L\207I\202\267q\317"
 156      1DCA0AAF 
 156      F674D04C 
 156      874982B7 
 156      71CF
 157 031c 5394B021 		.ascii	"S\224\260!f(~\035`\002\227\011\032\235g\366\374\024"
 157      66287E1D 
 157      60029709 
 157      1A9D67F6 
 157      FC14
 158 032e 83C62172 		.ascii	"\203\306!r\033\300,\361\233\311.\010\303s\253\260K\007"
 158      1BC02CF1 
 158      9BC92E08 
 158      C373ABB0 
 158      4B07
 159 0340 74671D99 		.ascii	"tg\035\231\025\365\274~\366\310\270E\2122\230\375\304"
ARM GAS  /tmp/ccWUHugI.s 			page 12


 159      15F5BC7E 
 159      F6C8B845 
 159      8A3298FD 
 159      C4
 160 0351 D90843BB 		.ascii	"\331\010C\273Fp\255@\266\272p\356Rp\2517\001\371=B}"
 160      4670AD40 
 160      B6BA70EE 
 160      5270A937 
 160      01F93D42 
 161 0366 F84806D6 		.ascii	"\370H\006\326\216\375L\302\341\270\014af\274%\207J\233"
 161      8EFD4CC2 
 161      E1B80C61 
 161      66BC2587 
 161      4A9B
 162 0378 041DACD3 		.ascii	"\004\035\254\3233X\330\004\266\374P\013\022\247ei7\271"
 162      3358D804 
 162      B6FC500B 
 162      12A76569 
 162      37B9
 163 038a A155CB0D 		.ascii	"\241U\313\015\335\030\214O\373m\242\272+\240\0353\337"
 163      DD188C4F 
 163      FB6DA2BA 
 163      2BA01D33 
 163      DF
 164 039b DE4BEAC1 		.ascii	"\336K\352\301\026\004r\022\241>\3547\324\362\271o<\202"
 164      16047212 
 164      A13EEC37 
 164      D4F2B96F 
 164      3C82
 165 03ad 349D41A0 		.ascii	"4\235A\240?\371\255\011\"hI\020As\300\016\206\262\025"
 165      3FF9AD09 
 165      22684910 
 165      4173C00E 
 165      86B215
 166 03c0 1AA7CBB8 		.ascii	"\032\247\313\270o\2719\317}\355Fq\331@d\261\002\245"
 166      6FB939CF 
 166      7DED4671 
 166      D94064B1 
 166      02A5
 167 03d2 67E759F5 		.ascii	"g\347Y\365\021\232@|\232!\267\006\234d\304suEt\254s"
 167      119A407C 
 167      9A21B706 
 167      9C64C473 
 167      754574AC 
 168 03e7 5643DEFA 		.ascii	"VC\336\372q\373\017\231!\237se\310\333\337Y\210\266"
 168      71FB0F99 
 168      219F7365 
 168      C8DBDF59 
 168      88B6
 169 03f9 52C81D5B 		.ascii	"R\310\035[y}\370\357\341\360\233q\370\213\326\341\257"
 169      797DF8EF 
 169      E1F09B71 
 169      F88BD6E1 
 169      AF
 170 040a 7F72613C 		.ascii	"\177ra<\033\376\242\253\341;\216\276\220;\274c\030\321"
 170      1BFEA2AB 
 170      E13B8EBE 
ARM GAS  /tmp/ccWUHugI.s 			page 13


 170      903BBC63 
 170      18D1
 171 041c 2C63EBC7 		.ascii	",c\353\307\027\206/\307A>C\177\271Xd5\215\361\306\220"
 171      17862FC7 
 171      413E437F 
 171      B9586435 
 171      8DF1C690 
 172 0430 AB4FB732 		.ascii	"\253O\2672\015x\2567C}\277\334\025\330l\377\307\227"
 172      0D78AE37 
 172      437DBFDC 
 172      15D86CFF 
 172      C797
 173 0442 2185CF0E 		.ascii	"!\205\317\016\3504\\\365\214\0306\011\342\375\243\030"
 173      E8345CF5 
 173      8C183609 
 173      E2FDA318 
 174 0452 0018D835 		.ascii	"\000\030\33057`\216vT\257\0367\202]\367\014f\246\254"
 174      37608E76 
 174      54AF1E37 
 174      825DF70C 
 174      66A6AC
 175 0465 CB0876D3 		.ascii	"\313\010v\323\015\330`g\312N\030\301\352\002^\301\314"
 175      0DD86067 
 175      CA4E18C1 
 175      EA025EC1 
 175      CC
 176 0476 949D3482 		.ascii	"\224\2354\202\315p\0036\314\231\262\323F\260F\317`f"
 176      CD700336 
 176      CC99B2D3 
 176      46B046CF 
 176      6066
 177 0488 CA2E19C1 		.ascii	"\312.\031\301\346\270\001\013\333P\226\271\234R\352"
 177      E6B8010B 
 177      DB5096B9 
 177      9C52EA
 178 0497 85ECD482 		.ascii	"\205\354\324\202\347~\037\320\003\202G\233\346\262\030"
 178      E77E1FD0 
 178      0382479B 
 178      E6B218
 179 04a6 CD01AF01 		.ascii	"\315\001\257\001\314\3047M\243\217\354\324\374\202\345"
 179      CCC4374D 
 179      A38FECD4 
 179      FC82E5
 180 04b5 B2C56E10 		.ascii	"\262\305n\020\363\030\314k\306\304\270\3023\230Y-\357"
 180      F318CC6B 
 180      C6C4B8C2 
 180      3398592D 
 180      EF
 181 04c6 533053A8 		.ascii	"S0S\250\311,d\325a\213\262\301\3164\317\024\310jr_\277"
 181      C92C64D5 
 181      618BB2C1 
 181      CE34CF14 
 181      C86A725F 
 182 04db 57A98DBC 		.ascii	"W\251\215\274AE/\273\241?\217\215^?\324\362]\245G%\206"
 182      41452FBB 
 182      A13F8F8D 
 182      5E3FD4F2 
ARM GAS  /tmp/ccWUHugI.s 			page 14


 182      5DA54725 
 183 04f0 E5B713D5 		.ascii	"\345\267\023\325zb\277\362\211\017\223\350\034\236&"
 183      7A62BFF2 
 183      890F93E8 
 183      1C9E26
 184 04ff D14D01DB 		.ascii	"\321M\001\333l\354\002h\307\314W\177\204@\277G\240\266"
 184      6CEC0268 
 184      C7CC577F 
 184      8440BF47 
 184      A0B6
 185 0511 7E032D9F 		.ascii	"~\003-\237\273\214\255\373\346!\320\336\2005v\023KZ"
 185      BB8CADFB 
 185      E621D0DE 
 185      80357613 
 185      4B5A
 186 0523 27E6C49B 		.ascii	"'\346\304\233\221\274&\370o\253-\317\035\264j\313\304"
 186      91BC26F8 
 186      6FAB2DCF 
 186      1DB46ACB 
 186      C4
 187 0534 4EC12000 		.ascii	"N\301 \000\316\320\376\267m\033\024\245!\340A_\2274"
 187      CED0FEB7 
 187      6D1B14A5 
 187      21E0415F 
 187      9734
 188 0546 7D2D44E9 		.ascii	"}-D\351\034\313\221\016\025\27776\376\340\231\215\037"
 188      1CCB910E 
 188      15BF3736 
 188      FEE0998D 
 188      1F
 189 0557 58D8B8E4 		.ascii	"X\330\270\344\235\215k\032\033-\310\306\331o\200\215"
 189      9D8D6B1A 
 189      1B2DC8C6 
 189      D96F808D 
 190 0567 4F3CB331 		.ascii	"O<\2631\332\300\006\235\341_{\254\015C\323w\270y\371"
 190      DAC0069D 
 190      E15F7BAC 
 190      0D43D377 
 190      B879F9
 191 057a 2757B8E7 		.ascii	"'W\270\347\303\177\3074\263Q\257\036&a\366\270\320\254"
 191      C37FC734 
 191      B351AF1E 
 191      2661F6B8 
 191      D0AC
 192 058c 46519B8F 		.ascii	"FQ\233\217\266h\253\003\266\327\322\213\264\323\276"
 192      B668AB03 
 192      B6D7D28B 
 192      B4D3BE
 193 059b FD996E28 		.ascii	"\375\231n(\352&\226N\030\330W\267\004V\257\356\231\247"
 193      EA26964E 
 193      18D857B7 
 193      0456AFEE 
 193      99A7
 194 05ad 2F5D70F7 		.ascii	"/]p\367\241>xkp\230\204M1\3252\227;\344\020\356\364"
 194      A13E786B 
 194      7098844D 
 194      31D53297 
ARM GAS  /tmp/ccWUHugI.s 			page 15


 194      3BE410EE 
 195 05c2 25DDF27D 		.ascii	"%\335\362}\372\212a=O\011\232\035\264\032\313{\3042"
 195      FA8A613D 
 195      4F099A1D 
 195      B41ACB7B 
 195      C432
 196 05d4 9DA30F0C 		.ascii	"\235\243\017\014M\234t\370\2121\366\266\334\022\237"
 196      4D9C74F8 
 196      8A31F6B6 
 196      DC129F
 197 05e3 D47EBAFE 		.ascii	"\324~\272\376\251MKmL\021+oQr\213\233\227\272\232z\377"
 197      A94D4B6D 
 197      4C112B6F 
 197      51728B9B 
 197      97BA9A7A 
 198 05f8 BB8E558A 		.ascii	"\273\216U\212\214\274\202\303n\345-3\3573\327{fjr\244"
 198      8CBC82C3 
 198      6EE52D33 
 198      EF33D77B 
 198      666A72A4 
 199 060c BF1536D2 		.ascii	"\277\0256\322?\234\017)\363Jm\306\233`L\364\031-\275"
 199      3F9C0F29 
 199      F34A6DC6 
 199      9B604CF4 
 199      192DBD
 200 061f FF3C9981 		.ascii	"\377<\231\201\350;x\272\364\356\266hI_\261Lp\002\202"
 200      E83B78BA 
 200      F4EEB668 
 200      495FB14C 
 200      700282
 201 0632 693A76D9 		.ascii	"i:v\331i%\034\034s\024[2\354tAw\275\372\371\263\306"
 201      69251C1C 
 201      73145B32 
 201      EC744177 
 201      BDFAF9B3 
 202 0647 A5B740FE 		.ascii	"\245\267@\376\217\360\032l\377\324\320{03\303\020H\247"
 202      8FF01A6C 
 202      FFD4D07B 
 202      3033C310 
 202      48A7
 203 0659 67B0B01D 		.ascii	"g\260\260\035\251\272\241f\231\025\310\033<\235E\354"
 203      A9BAA166 
 203      9915C81B 
 203      3C9D45EC 
 204 0669 E247D09D 		.ascii	"\342G\320\235%~D\266\031\254\0333*\265\223\\a\333<s"
 204      257E44B6 
 204      19AC1B33 
 204      2AB5935C 
 204      61DB3C73 
 205 067d FDDA02D2 		.ascii	"\375\332\002\322\334\240\264\217\366\260\035\274M[\362"
 205      DCA0B48F 
 205      F6B01DBC 
 205      4D5BF2
 206 068c EFC5105D 		.ascii	"\357\305\020]_l\365\272\015\326D\354aC\024f\320\305"
 206      5F6CF5BA 
 206      0DD644EC 
 206      61431466 
ARM GAS  /tmp/ccWUHugI.s 			page 16


 206      D0C5
 207 069e 1696DC2E 		.ascii	"\026\226\334.a2\227\223Wo1z\365\334\342[\362A0\276\013"
 207      61329793 
 207      576F317A 
 207      F5DCE25B 
 207      F24130BE 
 208 06b3 93D884B5 		.ascii	"\223\330\204\265\340~\0241N0yn>\216\334n\265\346\033"
 208      E07E1431 
 208      4E30796E 
 208      3E8EDC6E 
 208      B5E61B
 209 06c6 2B0FCC22 		.ascii	"+\017\314\"u\350(\355\256\334\360*\272\241\356Vj\006"
 209      75E828ED 
 209      AEDCF02A 
 209      BAA1EE56 
 209      6A06
 210 06d8 B53F9650 		.ascii	"\265?\226P\257~u\361\000A86an\267\302y\\H\376Yl\037"
 210      AF7E75F1 
 210      00413836 
 210      616EB7C2 
 210      795C48FE 
 211 06ef ED4D30CC 		.ascii	"\355M0\314\272\324\356\3634[v OGrL\213I\306`Z\355\006"
 211      BAD4EEF3 
 211      345B7620 
 211      4F47724C 
 211      8B49C660 
 212 0706 3F7907FD 		.ascii	"?y\007\375\344 \372\311{X\0366z\213\223Y\0341\232E\227"
 212      E420FAC9 
 212      7B581E36 
 212      7A8B9359 
 212      1C319A45 
 213 071b 67BEC32E 		.ascii	"g\276\303.\255o\277q\2303\267h};\317^x\014\367{<\354"
 213      AD6FBF71 
 213      9833B768 
 213      7D3BCF5E 
 213      780CF77B 
 214 0731 D4FDB7E6 		.ascii	"\324\375\267\346\266\235\350\266\037\346\310\366\244"
 214      B69DE8B6 
 214      1FE6C8F6 
 214      A4
 215 073e D56DDD6C 		.ascii	"\325m\335l\\\365\366\227\221\314\005\363\222b\027\213"
 215      5CF5F697 
 215      91CC05F3 
 215      9262178B 
 216 074e 9BB09330 		.ascii	"\233\260\2230h\036\350\371%K\260\005w\2772\273\301\357"
 216      681EE8F9 
 216      254BB005 
 216      77BF32BB 
 216      C1EF
 217 0760 D66949E9 		.ascii	"\326iI\351\024Z\332\215b\373\244\224g\033mN\210v\351"
 217      145ADA8D 
 217      62FBA494 
 217      671B6D4E 
 217      8876E9
 218 0773 C94D4AAA 		.ascii	"\311MJ\252\226\224z\\%\245c\266I\251\307{R\262\273\214"
 218      96947A5C 
 218      25A563B6 
ARM GAS  /tmp/ccWUHugI.s 			page 17


 218      49A9C77B 
 218      52B2BB8C 
 219 0787 F409E48F 		.ascii	"\364\011\344\217\350\037g\315\031\244%\344U\370a\243"
 219      E81F67CD 
 219      19A425E4 
 219      55F861A3 
 220 0797 F0D5F9C7 		.ascii	"\360\325\371\307[\010\243\237\305\2415V<\2738\364\003"
 220      5B08A39F 
 220      C5A13556 
 220      3CBB38F4 
 220      03
 221 07a8 2765D6AB 		.ascii	"'e\326\253\233\216cReF\272\331\015q\243\235\301\366"
 221      9B8E6352 
 221      6546BAD9 
 221      0D71A39D 
 221      C1F6
 222 07ba 2CD085BB 		.ascii	",\320\205\273\037g\210ox\306\013\233\360:\217\353\323"
 222      1F67886F 
 222      78C60B9B 
 222      F03A8FEB 
 222      D3
 223 07cb 73B6DDBD 		.ascii	"s\266\335\275\317"
 223      CF
 224 07d0 0DDE3867 		.ascii	"\015\3368g\372\256.0\315\250;<\303\205\363\351>{V!\220"
 224      FAAE2E30 
 224      CDA83B3C 
 224      C385F3E9 
 224      3E7B5621 
 225 07e5 63B813F1 		.ascii	"c\270\023\361>\241Q\3618\226]X\236\305\262\001\243\345"
 225      3EA151F1 
 225      38965D58 
 225      9EC5B201 
 225      A3E5
 226 07f7 3358CEC2 		.ascii	"3X\316\302\362Y,\027`\371\"\226\255X\236\304\362<\226"
 226      F2592C17 
 226      60F92296 
 226      AD589EC4 
 226      F23C96
 227 080a 1F617911 		.ascii	"\037ay\021\313O\260\374\314M\274\265\314\3013\247K\353"
 227      CB4FB0FC 
 227      CC4DBCB5 
 227      CCC133A7 
 227      4BEB
 228 081c 59FCB11C 		.ascii	"Y\374\261\0340u\207\354\017\230.\361v\007L\307N\357"
 228      307587EC 
 228      0F982EF1 
 228      76074CC7 
 228      4EEF
 229 082e BE7BB1F2 		.ascii	"\276{\261\362&;H\265\2340\321q\235h\352\345s\217,?t"
 229      263B48B5 
 229      9C30D171 
 229      9D68EAE5 
 229      738F2C3F 
 230 0843 18F9B2ED 		.ascii	"\030\371\262\355\310\035\033\017\374p\351\026e\306l"
 230      C81D1B0F 
 230      FC70E916 
 230      65C66C
ARM GAS  /tmp/ccWUHugI.s 			page 18


 231 0852 E566DFD3 		.ascii	"\345f\337\323\304\303\320W\371\334\023~\255\356>\270"
 231      C4C3D057 
 231      F9DC137E 
 231      ADEE3EB8 
 232 0862 9FDAF2C1 		.ascii	"\237\332\362\301O7b\324\271\206\216\263\270\304\032"
 232      4F3762D4 
 232      B9868EB3 
 232      B8C41A
 233 0871 DD8B2CC1 		.ascii	"\335\213,\301\275\310\034\334\213B\331J\366\020#CS7"
 233      BDC81CDC 
 233      8B42D94A 
 233      F6102343 
 233      5337
 234 0883 D38DFD19 		.ascii	"\323\215\375\031&=\256\316C[\307\306\017\364\365\305"
 234      263DAECE 
 234      435BC7C6 
 234      0FF4F5C5 
 235 0893 0DF4C2D6 		.ascii	"\015\364\302\326\034\342\326Z\327ik\3156b\021O\256\225"
 235      1CE2D65A 
 235      D7696BCD 
 235      3662114F 
 235      AE95
 236 08a5 AC2BB1D7 		.ascii	"\254+\261\327U\235\317\326J\226\355\276\303\311J\326"
 236      559DCFD6 
 236      4A96EDBE 
 236      C3C94AD6 
 237 08b5 E739906D 		.ascii	"\3479\220m\360YTE\365Z\300~w:P6\323L\331\275\334\012"
 237      F0595445 
 237      F55AC07E 
 237      773A5036 
 237      D34CD9BD 
 238 08cb 65133DD9 		.ascii	"e\023=\331\376\264\2364+\255\355\020Yar|\217\366\317"
 238      FEB49E34 
 238      2BADED10 
 238      5961727C 
 238      8FF6CF
 239 08de 99B0616D 		.ascii	"\231\260am\254\346;\347\310=\262\320\257,\222\351\220"
 239      ACE63BE7 
 239      C83DB2D0 
 239      AF2C92E9 
 239      90
 240 08ef 4320BFF3 		.ascii	"C \277\363\015\341\354/\236{+\207x\210\014Y\302)\321"
 240      0DE1EC2F 
 240      9E7B2B87 
 240      78880C59 
 240      C229D1
 241 0902 204E58E0 		.ascii	" NX\340\316&{_R\324&\220\341%\002\363x}\262\327x6\273"
 241      CE267B5F 
 241      52D42690 
 241      E12502F3 
 241      787DB2D7 
 242 0919 C1A90CD5 		.ascii	"\301\251\014\325\011=B\0012\313\303++H\003\032\307s"
 242      093D4201 
 242      32CBC32B 
 242      2B48031A 
 242      C773
 243 092b 3E9A3FF6 		.ascii	">\232?\366\227\330f\342|P<w\014;5\371rrqO-\313\305\364"
ARM GAS  /tmp/ccWUHugI.s 			page 19


 243      97D866E2 
 243      7C503C77 
 243      0C3B35F9 
 243      7272714F 
 244 0943 A7C233EA 		.ascii	"\247\3023\352\315\247Y.\263\231\253\366d\346\252\303"
 244      CDA7592E 
 244      B399ABF6 
 244      64E6AAC3 
 245 0953 0DC49FE9 		.ascii	"\015\304\237\351\374@#\376\005$\376\224\003\361\216"
 245      FC4023FE 
 245      0524FE94 
 245      03F18E
 246 0962 403CF731 		.ascii	"@<\3671vY\230K\372\221\3372\322\027\272\"\275\363\204"
 246      7659984B 
 246      FA91DF32 
 246      D217BA22 
 246      BDF384
 247 0975 390D5FCB 		.ascii	"9\015_\313\300\366o9\320u\002\3230KsJ\251\005\314\323"
 247      C0F66F39 
 247      D07502D3 
 247      304B734A 
 247      A905CCD3 
 248 0989 6240514F 		.ascii	"b@QO2\260sx\364>\3133X\330D\331\345%\346\003\364\347"
 248      32B07378 
 248      F43ECB33 
 248      58D844D9 
 248      E525E603 
 249 099f DCE0E539 		.ascii	"\334\340\3459'\270r\302pN0\3373\230\231\270\257\215"
 249      27B872C2 
 249      704E30DF 
 249      339899B8 
 249      AF8D
 250 09b1 604BDD80 		.ascii	"`K\335\200\331m\332\333]F\033\021\310b\037M\347K|4\351"
 250      D96DDADB 
 250      5D461B11 
 250      C8621F4D 
 250      E74B7C34 
 251 09c6 B660B90C 		.ascii	"\266`\271\014\313V,Wb\271\332g\232\350\255-\325}\304"
 251      CB562C57 
 251      62B9DA67 
 251      9AE8AD2D 
 251      D57DC4
 252 09d9 D6120B99 		.ascii	"\326\022\013\231\204\242\2669{\207\335J\016\\\373\243"
 252      84A2B639 
 252      7B87DD4A 
 252      0E5CFBA3 
 253 09e9 3AF20C7A 		.ascii	":\362\014z\307:\364\216WK\013\377\351\302\262V\376_"
 253      C73AF48E 
 253      574B0BFF 
 253      E9C2B256 
 253      FE5F
 254 09fb ECB23ED7 		.ascii	"\354\262>\327;.D\230w\254w\341\035\365\352\215\205\356"
 254      3B2E4498 
 254      77AC77E1 
 254      1DF5EA8D 
 254      85EE
 255 0a0d 36CC5A33 		.ascii	"6\314Z3\303\377\225\201\2173\347\364\035\254M\310\307"
ARM GAS  /tmp/ccWUHugI.s 			page 20


 255      C3FF9581 
 255      8F33E7F4 
 255      1DAC4DC8 
 255      C7
 256 0a1e 89C27C98 		.ascii	"\211\302|\230\201\300\313\261\313V\033>\376\215\361"
 256      81C0CBB1 
 256      CB561B3E 
 256      FE8DF1
 257 0a2d B1D5151F 		.ascii	"\261\325\025\037\273\026\352\266\277\321\207'\264\031"
 257      BB16EAB6 
 257      BFD18727 
 257      B419
 258 0a3b D87E2D23 		.ascii	"\330~-#\325\335\235h\256\014\254a\240W0\263\355wtz\375"
 258      D5DD9D68 
 258      AE0CAC61 
 258      A05730B3 
 258      ED77747A 
 259 0a50 F348E799 		.ascii	"\363H\347\231\355\017\340\222\364u\037\0153\317\016"
 259      ED0FE092 
 259      F4751F0D 
 259      33CF0E
 260 0a5f FC4696A4 		.ascii	"\374F\226\244\363\335\360\341\274uAO_~\323\226\273\263"
 260      F3DDF0E1 
 260      BC75414F 
 260      5F7ED396 
 260      BBB3
 261 0a71 53709ED3 		.ascii	"Sp\236\323\271\374t\2356\317QQ\240\313r\370)4\317\001"
 261      B9FC749D 
 261      36CF5151 
 261      A0CB72F8 
 261      2934CF01 
 262 0a85 2FF54C7C 		.ascii	"/\365L|\330B|\327o\364sT\\Slt\003h\027\036\355.\243"
 262      D8427CD7 
 262      6FF47354 
 262      5C536C74 
 262      0368171E 
 263 0a9c 090B643B 		.ascii	"\011\013d;\006\241\3270\330\374\017\226;\261\334\203"
 263      06A1D730 
 263      D8FC0F96 
 263      3BB1DC83 
 264 0aac E55B3E17 		.ascii	"\345[>\027k\001jy\031\354\035>^s\366\376Ys\323\211\214"
 264      6B016A79 
 264      19EC1D3E 
 264      5E73F6FE 
 264      5973D389 
 265 0ac1 350BA4CD 		.ascii	"5\013\244\3153\230\331\232\347\237\320\227z\3248\005"
 265      3398D99A 
 265      E79FD097 
 265      7AD43805 
 266 0ad1 B2DB0D5E 		.ascii	"\262\333\015^\236\015\261m\2148f\351\257\015$\036\301"
 266      9E0DB16D 
 266      8C3866E9 
 266      AF0D241E 
 266      C1
 267 0ae2 C2F994B2 		.ascii	"\302\371\224\262\336\240\224WQ)\033P\005\373\260\334"
 267      DEA09457 
 267      51291B50 
ARM GAS  /tmp/ccWUHugI.s 			page 21


 267      05FBB0DC 
 268 0af2 8F65BB39 		.ascii	"\217e\2739\033\2749\320\222\015\314\221\327.9\031\345"
 268      1BBC39D0 
 268      920DCC91 
 268      D72E3919 
 268      E5
 269 0b03 A3A8474E 		.ascii	"\243\250GN\003?\356\367[>\323\367[\336\305\020z`\240"
 269      033FEEF7 
 269      5B3ED3F7 
 269      5BDEC510 
 269      7A60A0
 270 0b16 6D08CDB7 		.ascii	"m\010\315\267\337\322\205]\016\333\314\361\252Y\010"
 270      DFD2855D 
 270      0EDBCCF1 
 270      AA5908
 271 0b25 3D5C3884 		.ascii	"=\\8\204\316hP\333^\\\223M\005\015\031\337\236\315;"
 271      CE6850DB 
 271      5E5C934D 
 271      050D19DF 
 271      9ECD3B
 272 0b38 4FFB4D27 		.ascii	"O\373M'\361\0272dx4R{\325\0356\250\256\003Uw\324\254"
 272      F1173264 
 272      7834527B 
 272      D51D36A8 
 272      AE035577 
 273 0b4e A85EABA2 		.ascii	"\250^\253\242\354\3063\355\247\230\365\324}Z\237\030"
 273      ECC633ED 
 273      A798F5D4 
 273      7D5A9F18 
 274 0b5e B27F3E7E 		.ascii	"\262\177>~\221\243x\323\377\034\265\252\343\236\212"
 274      91A378D3 
 274      FF1CB5AA 
 274      E39E8A
 275 0b6d A2F67A51 		.ascii	"\242\366zQ|s\357\305\207\331\337\003Q\355+\007yT;&\001"
 275      7C73EFC5 
 275      87D9DF03 
 275      51ED2B07 
 275      79543B26 
 276 0b82 8BCAD5CF 		.ascii	"\213\312\325\317\3050{Z8a~u\036w\265=\354\222\236\323"
 276      C5307B5A 
 276      38617E75 
 276      1E77B53D 
 276      EC929ED3 
 277 0b96 CE9FCFA0 		.ascii	"\316\237\317\240\243n\035\364\215\244\244\327\021\346"
 277      A36E1DF4 
 277      8DA4A4D7 
 277      11E6
 278 0ba4 E4376534 		.ascii	"\3447e4'\015Fs\012\215\346\264\305\273\007\2710\232"
 278      270D4673 
 278      0A8DE6B4 
 278      C5BB07B9 
 278      309A
 279 0bb6 94A38EE9 		.ascii	"\224\243\216\351\274\344\277\232\025\245\261!\240/\033"
 279      BCE4BF9A 
 279      15A5B121 
 279      A02F1B
 280 0bc5 61F9A509 		.ascii	"a\371\245\011Q\235\2514\222\272\315\3033]M+\213\354"
ARM GAS  /tmp/ccWUHugI.s 			page 22


 280      519DA934 
 280      92BACDC3 
 280      335D4D2B 
 280      8BEC
 281 0bd7 1FEDEE7A 		.ascii	"\037\355\356z\005\275\362C\224\343\333\0269z\301\332"
 281      05BDF243 
 281      94E3DB16 
 281      397AC1DA 
 282 0be7 31F3B07E 		.ascii	"1\363\260~\316{\021\301\216\364\037\254u\371\241\341"
 282      CE7B11C1 
 282      8EF41FAC 
 282      75F9A1E1 
 283 0bf7 F41D844F 		.ascii	"\364\035\204O\021\250;G\273!\213rCf\345\206B\331J\237"
 283      11A83B47 
 283      BB218B72 
 283      4366E586 
 283      42D94A9F 
 284 0c0b 7E59FF1E 		.ascii	"~Y\377\036\362-\366\321\030S\007\352\234u\021\015\340"
 284      F22DF6D1 
 284      185307EA 
 284      9C75110D 
 284      E0
 285 0c1c BCCFEB3B 		.ascii	"\274\317\353;-\177\362\331\277\323rg\306\212\316Y\255"
 285      2D7FF2D9 
 285      BFD37267 
 285      C68ACE59 
 285      AD
 286 0c2d C832AE56 		.ascii	"\3102\256V\257um\267M\006\273\235\207v\333\214\271i"
 286      AF756DB7 
 286      4D06BB9D 
 286      8776DB8C 
 286      B969
 287 0c3f 2D9607B1 		.ascii	"-\226\007\261<\216e\027\226\347\314V}9\243.=t\231\367"
 287      3C8E6517 
 287      96E7CC56 
 287      7D39A32E 
 287      3D7499F7 
 288 0c53 01E8109F 		.ascii	"\001\350\020\237\233w'Z\351\226\312G+\311<\273-\025"
 288      9B77275A 
 288      E996CA47 
 288      2BC93CBB 
 288      2D15
 289 0c65 D3BE9C79 		.ascii	"\323\276\234y\306\216\373|\236Ez\305A\244\376\014\013"
 289      C68EFB7C 
 289      9E457AC5 
 289      41A4FE0C 
 289      0B
 290 0c76 5F5859C8 		.ascii	"_XY\310\035\366\252\231\203Mj\317\251\005\037u\220\027"
 290      1DF6AA99 
 290      834D6ACF 
 290      A9051F75 
 290      9017
 291 0c88 14C5C201 		.ascii	"\024\305\302\001=17\355\012\351\321\024\\%\317\222\352"
 291      3D3137ED 
 291      0AE9D114 
 291      5C25CF92 
 291      EA
ARM GAS  /tmp/ccWUHugI.s 			page 23


 292 0c99 26905070 		.ascii	"&\220Pp\345%\220\257q\276s\335\232n\267\237\3305\014"
 292      E52590AF 
 292      71BE73DD 
 292      9A6EB79F 
 292      D8350C
 293 0cac E3E37577 		.ascii	"\343\343uw\361\367F;;Ul\304\235\277YeD\003\355\337\014"
 293      F1F7463B 
 293      3B556CC4 
 293      9DBF5965 
 293      4403EDDF 
 294 0cc1 EFFA4584 		.ascii	"\357\372E\204\263\314\313w:\314\313)y\212\337\220\273"
 294      B3CCCB77 
 294      3ACCCB29 
 294      798ADF90 
 294      BB
 295 0cd2 E7781E3E 		.ascii	"\347x\036>l\032\236\036j2H\236\233\347\006+\317|\360"
 295      6C1A9E1E 
 295      6A32489E 
 295      9BE7062B 
 295      CF7CF0
 296 0ce5 A601EB45 		.ascii	"\246\001\353E\317X\341\034\337bz\020\310\015\364\234"
 296      CF58E11C 
 296      DF627A10 
 296      C80DF49C 
 297 0cf5 3E2CEBFD 		.ascii	">,\353\375\264\234\341/8\021\267\010\364+\007Jp\337"
 297      B49CE12F 
 297      3811B708 
 297      F42B074A 
 297      70DF
 298 0d07 D25F6219 		.ascii	"\322_b\031\333.\332f\366\033\251\221\262N\366\315\004"
 298      DB2EDA66 
 298      F61BA991 
 298      B24EF6CD 
 298      04
 299 0d18 32CBEFD5 		.ascii	"2\313\357\325\315\032\375\366nf\014\252\331V\364\325"
 299      CD1AFDF6 
 299      6E660CAA 
 299      D956F4D5 
 300 0d28 8D328BD7 		.ascii	"\2152\213\327\345\0201\333\317\234n,\267UiTaz\361%8"
 300      E51031DB 
 300      CF9C6E2C 
 300      B7556954 
 300      617AF125 
 301 0d3d 7F466FFF 		.ascii	"\177Fo\377\311}\255,R\300\017?\035\303x\241\216y\351"
 301      C97DAD2C 
 301      52C00F3F 
 301      1DC378A1 
 301      8E79E9
 302 0d50 887A75E6 		.ascii	"\210zu\346R\230[Aj\272\011n\311\304\306s\033\254\203"
 302      52985B41 
 302      6ABA096E 
 302      C9C4C673 
 302      1BAC83
 303 0d63 993D8B8E 		.ascii	"\231=\213\216\366\034\214v7\267\243l\251Rl\030u\002"
 303      F61C8C76 
 303      37B7A36C 
 303      A9526C18 
ARM GAS  /tmp/ccWUHugI.s 			page 24


 303      7502
 304 0d75 43602A64 		.ascii	"C`*dC\252_\356#voR\206\027\231_\035\252\325G(\323F\230"
 304      43AA5FEE 
 304      23766F52 
 304      8617995F 
 304      1DAAD547 
 305 0d8d E759A8CD 		.ascii	"\347Y\250\315\016B\035\224\327p\004\362|\326\036\356"
 305      0E421D94 
 305      D77004F2 
 305      7CD61EEE 
 306 0d9d E6DA81A5 		.ascii	"\346\332\201\245E\023\262\3033C\244=\230\0372\2234~"
 306      4513B2C3 
 306      3343A43D 
 306      981F3293 
 306      347E
 307 0daf A7C64979 		.ascii	"\247\306IymT\324?\007\330c\363k`\332\270L\206\272\361"
 307      6D54D43F 
 307      07D863F3 
 307      6B60DAB8 
 307      4C86BAF1 
 308 0dc3 59ECB531 		.ascii	"Y\354\2651\253\254\034\372\026\370\355_\301d\373\315"
 308      ABAC1CFA 
 308      16F8ED5F 
 308      C164FBCD 
 309 0dd3 4EBD163A 		.ascii	"N\275\026:\366\242\3075N\275\0269\366\272\234\207\302"
 309      F6A2C735 
 309      4EBD1639 
 309      F6BA9C87 
 309      C2
 310 0de4 C58EBD7A 		.ascii	"\305\216\275z\363\214\265\304\261\327\301<\341\360E"
 310      F38CB5C4 
 310      B1D7C13C 
 310      E1F045
 311 0df3 C75EFBF3 		.ascii	"\307^\373\363\364jq\354\265;O\257\245\331^\332k\216"
 311      F46A71EC 
 311      B53B4FAF 
 311      A5D95EDA 
 311      6B8E
 312 0e05 1D1BBBCB 		.ascii	"\035\033\273\3137\322\315\011zFV7\343\027\226\243\227"
 312      37D2CD09 
 312      7A465637 
 312      E31796A3 
 312      97
 313 0e16 EE3C472F 		.ascii	"\356<G/\313\375\271\007t]e\346\351\233\366Na\275\262"
 313      CBFDB907 
 313      745D65E6 
 313      E99BF64E 
 313      61BDB2
 314 0e29 651D7D45 		.ascii	"e\035}E\222\235Y\011d\231\337\376\375H\015\257\325o"
 314      929D5909 
 314      6499DFFE 
 314      FD480DAF 
 314      D56F
 315 0e3b F7E6E3AE 		.ascii	"\367\346\343\256\203-\332\233\217{\224\021\305L\025"
 315      832DDA9B 
 315      8F7B9411 
 315      C54C15
ARM GAS  /tmp/ccWUHugI.s 			page 25


 316 0e4a 3CF771FE 		.ascii	"<\367q\376\021\331\337\015\005\2622\377\210\253\314"
 316      11D9DF0D 
 316      05B232FF 
 316      88ABCC
 317 0e59 237E9F5B 		.ascii	"#~\237[C3\353\251\343\237\015Y\334T\234\363\247\305"
 317      4333EBA9 
 317      E39F0D59 
 317      DC549CF3 
 317      A7C5
 318 0e6b 1C99D353 		.ascii	"\034\231\323S('1\2551Dg\177\264J\220\002\217>\366\353"
 318      282731AD 
 318      3144677F 
 318      B44A9002 
 318      8F3EF6EB 
 319 0e7f F044EEA1 		.ascii	"\360D\356\241Q\243\312'V\305&\307~\371xy2].\311\345"
 319      51A3CA27 
 319      56C526C7 
 319      7EF97879 
 319      325D2EC9 
 320 0e94 A9A424A7 		.ascii	"\251\244$\247\313\177\361\253I\023'\325\226G\223\361"
 320      CB7FF1AB 
 320      491327D5 
 320      964793F1 
 321 0ea4 54AC5A94 		.ascii	"T\254Z\224\322\345\217N\234X\036\255\222\247\247\304"
 321      D2E58F4E 
 321      9C581EAD 
 321      92A7A7C4 
 322 0eb4 F4A82AAE 		.ascii	"\364\250*\256(\236\256\214@\263\304\024\274\177R^\225"
 322      289EAE8C 
 322      40B3C414 
 322      BC7F525E 
 322      95
 323 0ec5 8C8BE592 		.ascii	"\214\213\345\222\230\026\005)ZU\016\370\025\323\004"
 323      98160529 
 323      5A550EF8 
 323      15D304
 324 0ed4 492C17A4 		.ascii	"I,\027\244\370\203\345\225\321\350H\250\214\024\343"
 324      F883E595 
 324      D1E848A8 
 324      8C14E3
 325 0ee3 93C58A0A 		.ascii	"\223\305\212\012\261\"\363 \221L\210#Earl\344\330\310"
 325      B122F320 
 325      914C8823 
 325      4561726C 
 325      E4D8C8
 326 0ef6 B8910F8E 		.ascii	"\270\221\017\216\0363\366\251\007\313M?\224\307\022"
 326      1E33F6A9 
 326      07CB4D3F 
 326      94C712
 327 0f05 D1EA9A0A 		.ascii	"\321\352\232\012\261<-W\304\0222\214\034\204\217\037"
 327      B13C2D57 
 327      C412328C 
 327      1C848F1F 
 328 0f15 3F18911B 		.ascii	"?\030\221\033\310_n\360\270\020\255\212%\304\362H\205"
 328      C85F6EF0 
 328      B810AD8A 
 328      25C4F248 
ARM GAS  /tmp/ccWUHugI.s 			page 26


 328      85
 329 0f26 3845A8A9 		.ascii	"8E\250\251\226#\272\030B\221\210F\316]\0069\312bZ\246"
 329      9623BA18 
 329      42918846 
 329      CE5D0639 
 329      CA625AA6 
 330 0f3a 92A49F20 		.ascii	"\222\244\237 \247QQ. WI\242PAR\245\360}LD\254\025\243"
 330      A751512E 
 330      205749A2 
 330      504152A5 
 330      F07D4C44 
 331 0f51 35B278A7 		.ascii	"5\262x\247C\037*\337\310\337%\223\325C#\364kDH\247E"
 331      431F2ADF 
 331      C8DF2593 
 331      D54323F4 
 331      6B4448A7 
 332 0f66 498EA4C5 		.ascii	"I\216\244\305\247j\304DT,\303\207b<\006t$\237\024\023"
 332      A76AC444 
 332      542CC387 
 332      623C0674 
 332      249F1413 
 333 0f7a 237254A8 		.ascii	"#rT\250\323\035\255\242\303Wq\367\347i\221\236\236\326"
 333      D31DADA2 
 333      C35771F7 
 333      E769919E 
 333      9ED6
 334 0f8c B9296654 		.ascii	"\271)fTF\344P\264*\302\352\367\346\353\031\255\252\200"
 334      46E450B4 
 334      2AC2EAF7 
 334      E6EB19AD 
 334      AA80
 335 0f9e 5E81     		.ascii	"^\201"
 336 0fa0 542421D6 		.ascii	"T$!\326\312\360\221\222\304\251A9%\305\222\021\271\270"
 336      CAF09192 
 336      C4A94139 
 336      25C59211 
 336      B9B8
 337 0fb2 4613CC80 		.ascii	"F\023\314\200HD\257b\223X2\030M&d\350\361\375\002\246"
 337      4844AF62 
 337      93583218 
 337      4D2664E8 
 337      F1FD02A6 
 338 0fc6 57154D4A 		.ascii	"W\025MJ\"\014PB\037S9G\345\332\037\271\351\023\231\372"
 338      220C5042 
 338      1F533947 
 338      E5DA1FB9 
 338      E91399FA 
 339 0fda 709CB223 		.ascii	"p\234\262#\211\225\240\317\210\314Kcy\351'\274\364\020"
 339      8995A0CF 
 339      88CC4B63 
 339      79E927BC 
 339      F410
 340 0fec 2F3DCC4B 		.ascii	"/=\314K\343x\351\021\2374f4\334c\370j\011>~\\"
 340      E378E911 
 340      9F346634 
 340      DC63F86A 
 340      093E7E5C 
ARM GAS  /tmp/ccWUHugI.s 			page 27


 341 1000 948A0076 		.ascii	"\224\212\000v\22022M\224\3403Y]!J\2241!.\026\313iY\220"
 341      9032324D 
 341      94E03359 
 341      5D214A94 
 341      31212E16 
 342 1018 C5881CA4 		.ascii	"\305\210\034\244|\214\003\3510\216\240\006-\361\267"
 342      7C8C03E9 
 342      308EA006 
 342      2DF1B7
 343 1027 A01C4F56 		.ascii	"\240\034OV\210\370}J\265P\231\016\312\2228%\215\014"
 343      88F87D4A 
 343      B550990E 
 343      CA923825 
 343      8D0C
 344 1039 D34A40AA 		.ascii	"\323J@\252\230\016\212(\026kcr\024\032\006\246\311\311"
 344      980E8A28 
 344      166B6372 
 344      141A06A6 
 344      C9C9
 345 104b C9BF4DDD 		.ascii	"\311\277M\335\246\211\033\232\210\022UlD.\232&\313R"
 345      A6891B9A 
 345      8812556C 
 345      442E9A26 
 345      CB52
 346 105d 2A981613 		.ascii	"*\230\026\023\324pJA\015i1.\244\252\200\251|Z\206F\300"
 346      D4704A41 
 346      0D69312E 
 346      A4AA80A9 
 346      7C5A8646 
 347 1072 6F19C34B 		.ascii	"o\031\303KG\300Lj\000lpF\213\332\243\240\366Y\024M\200"
 347      47C04C6A 
 347      006C7046 
 347      8BDAA3A0 
 347      F659144D 
 348 1087 E914A523 		.ascii	"\351\024\245#\360\011\264@\357T1\264\215\203I\326\346"
 348      F009B440 
 348      EF5431B4 
 348      8D8349D6 
 348      E6
 349 1098 3526B996 		.ascii	"5&\271\226:`\\C\213G\222\323\022 .\354\007\314\306\231"
 349      3A605C43 
 349      8B4792D3 
 349      12202EEC 
 349      07CCC699 
 350 10ac 1D4C93A1 		.ascii	"\035L\223\241]\252D\234J\231\020\322O\302/\3424Z\361"
 350      5DAA449C 
 350      4A9910D2 
 350      4FC22FE2 
 350      345AF1
 351 10bf A5223583 		.ascii	"\245\"5\203t\202\252c`\303r\231\201D\372$\224\212L\023"
 351      7482AA63 
 351      60C37299 
 351      8144FA24 
 351      948A4C13 
 352 10d3 62722C51 		.ascii	"br,Q9 \025\001\011\340@P\025Sb\002\374\277\022~\007"
 352      39201501 
 352      09E04050 
ARM GAS  /tmp/ccWUHugI.s 			page 28


 352      15536202 
 352      FCBF127E 
 353 10e8 70DA7200 		.ascii	"p\332r\000\025\255P\215\366\004\017S\340- \256I\351"
 353      15AD508D 
 353      F6040F53 
 353      E02D20AE 
 353      49E9
 354 10fa CA5F89D5 		.ascii	"\312_\211\325\242\220\026C\370\345_\001\354\276<\034"
 354      A2901643 
 354      F8E55F01 
 354      ECBE3C1C 
 355 110a 69630357 		.ascii	"ic\003Wu\337J8\251\216M\246\015,ae\354\250q\243\306"
 355      75DF4A38 
 355      A98E4DA6 
 355      0D2C6165 
 355      ECA871A3 
 356 111f 1A231B84 		.ascii	"\032#\033\204\025\352H\351\330\177P#\222\247\324$\242"
 356      15EA48E9 
 356      D87F5023 
 356      92A7D424 
 356      A2
 357 1130 117948B4 		.ascii	"\021yH\264\352_\252*&\002\201\262\3708XY,\312xz\034"
 357      EA5FAA2A 
 357      260281B2 
 357      F8385859 
 357      2CCA787A 
 358 1145 44C14F13 		.ascii	"D\301O\023J\250q\200\357\212q\346\257\254^J\371\231"
 358      4AA87180 
 358      EF8A71E6 
 358      AFAC5E4A 
 358      F999
 359 1157 AE497720 		.ascii	"\256Iw <\316~\017JLo\001\011\275\260HB\233\2274\233"
 359      3CCE7E0F 
 359      4A4C6F01 
 359      09BDB048 
 359      429B9734 
 360 116c 9798CD87 		.ascii	"\227\230\315\207\340i\215\004\326(\027I\264\323\320"
 360      E0698D04 
 360      D6281749 
 360      B4D3D0
 361 117b A93149AE 		.ascii	"\2511I\256\021\252#r,\016Y@\003\276\035\200m~(3=c\006"
 361      11AA2372 
 361      2C0E5940 
 361      03BE1D80 
 361      6D7E2833 
 362 1192 687A149C 		.ascii	"hz\024\234*\243\215\320O\032,B\224h\370\001\302\005"
 362      2AA38DD0 
 362      4F1A2C42 
 362      9468F801 
 362      C205
 363 11a4 3CA910AB 		.ascii	"<\251\020\253e\001*\214}\332\206\326\002\264\255 \225"
 363      65012A8C 
 363      7DDA86D6 
 363      02B4AD20 
 363      95
 364 11b5 C047B590 		.ascii	"\300G\265\220\226isxD\207\033\244\261_!N\256\251d\266"
 364      96697378 
ARM GAS  /tmp/ccWUHugI.s 			page 29


 364      44871BA4 
 364      B15F214E 
 364      AEA964B6 
 365 11c9 647C124A 		.ascii	"d|\022J\011\211X\224Z\221\257br\345\200\270\000>\213"
 365      09895894 
 365      5A91AF62 
 365      72E580B8 
 365      003E8B
 366 11dc EA0EE733 		.ascii	"\352\016\3473\010\352H\203\345x$*\200\356$\220z2\001"
 366      08EA4883 
 366      E578242A 
 366      80EE2490 
 366      7A3201
 367 11ef B44832BA 		.ascii	"\264H2\272L 9eJZ\224y9> -?\011-*\023Z\244{hl&\322\321"
 367      4C203965 
 367      4A5A9479 
 367      393E202D 
 367      3F092D2A 
 368 120c EAA05845 		.ascii	"\352\240XE\265\250Y6X4\037\255\012j\246VL\203w\024\014"
 368      B5A85936 
 368      58341FAD 
 368      0A6AA656 
 368      4C837714 
 369 1221 D44F634B 		.ascii	"\324OcK\021\240\325\244\340\031\330\0308SPK\014\003"
 369      11A0D5A4 
 369      E019D818 
 369      3853504B 
 369      0C03
 370 1233 52822C8B 		.ascii	"R\202,\213R\202\006\015-\211\214\031<JJV\010\2620J\177"
 370      5282060D 
 370      2D898C19 
 370      3C4A4A56 
 370      08B2304A 
 371 1248 5036494C 		.ascii	"P6IL\247\205J1\3757\341\352d2\3051{yT\224\377\031\264"
 371      A7854A31 
 371      FD37E1EA 
 371      6432C531 
 371      7B795494 
 372 125f 2BC5E4E9 		.ascii	"+\305\344\351O\014\324\237<.VOy\342\377\001B\357O\225"
 372      4F0CD49F 
 372      3C2E564F 
 372      79E2FF01 
 372      42EF4F95 
 373              		.text
 374              		.section	.gnu.lto_.symtab.5f0965a74dd0140e,"",%progbits
 375 0000 70617474 		.ascii	"patternmsg\000\000\000\000\000\000\000\000\000\000\000"
 375      65726E6D 
 375      73670000 
 375      00000000 
 375      00000000 
 376 0015 00F60100 		.ascii	"\000\366\001\000\000testmsg1\000\000\000\000\000\000"
 376      00746573 
 376      746D7367 
 376      31000000 
 376      000000
 377 0028 00000000 		.ascii	"\000\000\000\000\000\000\014\002\000\000wa\000\000\002"
 377      00000C02 
ARM GAS  /tmp/ccWUHugI.s 			page 30


 377      00007761 
 377      000002
 378 0037 00000000 		.ascii	"\000\000\000\000\000\000\000\000\000\207\001\000\000"
 378      00000000 
 378      00870100 
 378      00
 379 0044 63680000 		.ascii	"ch\000\000\002\000\000\000\000\000\000\000\000\000\214"
 379      02000000 
 379      00000000 
 379      00008C
 380 0053 01000074 		.ascii	"\001\000\000threads\000\000\002\000\000\000\000\000"
 380      68726561 
 380      64730000 
 380      02000000 
 380      0000
 381 0065 00000000 		.ascii	"\000\000\000\000\362\001\000\000_test_assert_sequen"
 381      F2010000 
 381      5F746573 
 381      745F6173 
 381      73657274 
 382 0080 63650000 		.ascii	"ce\000\000\002\000\000\000\000\000\000\000\000\000\275"
 382      02000000 
 382      00000000 
 382      0000BD
 383 008f 00000074 		.ascii	"\000\000\000test_emit_token\000\000\002\000\000\000"
 383      6573745F 
 383      656D6974 
 383      5F746F6B 
 383      656E0000 
 384 00a7 00000000 		.ascii	"\000\000\000\000\000\000\306\000\000\000chMsgReleas"
 384      0000C600 
 384      00006368 
 384      4D736752 
 384      656C6561 
 385 00bc 65000002 		.ascii	"e\000\000\002\000\000\000\000\000\000\000\000\000\312"
 385      00000000 
 385      00000000 
 385      00CA
 386 00ca 00000063 		.ascii	"\000\000\000chMsgWait\000\000\002\000\000\000\000\000"
 386      684D7367 
 386      57616974 
 386      00000200 
 386      00000000 
 387 00de 00000000 		.ascii	"\000\000\000\000q\001\000\000chThdCreateStatic\000\000"
 387      71010000 
 387      63685468 
 387      64437265 
 387      61746553 
 388 00f9 02000000 		.ascii	"\002\000\000\000\000\000\000\000\000\000t\001\000\000"
 388      00000000 
 388      00007401 
 388      0000
 389 0107 63684D73 		.ascii	"chMsgSend\000\000\002\000\000\000\000\000\000\000\000"
 389      6753656E 
 389      64000002 
 389      00000000 
 389      00000000 
ARM GAS  /tmp/ccWUHugI.s 			page 31


 390 011b 00820100 		.ascii	"\000\202\001\000\000"
 390      00
 391              		.text
 392              		.section	.gnu.lto_.opts,"",%progbits
 393 0000 272D6D63 		.ascii	"'-mcpu=cortex-m4' '-mno-thumb-interwork' '-mthumb' "
 393      70753D63 
 393      6F727465 
 393      782D6D34 
 393      2720272D 
 394 0033 272D6767 		.ascii	"'-ggdb' '-O2' '-fomit-frame-pointer' '-falign-funct"
 394      64622720 
 394      272D4F32 
 394      2720272D 
 394      666F6D69 
 395 0066 696F6E73 		.ascii	"ions=16' '-ffunction-sections' '-fdata-sections' '-"
 395      3D313627 
 395      20272D66 
 395      66756E63 
 395      74696F6E 
 396 0099 666E6F2D 		.ascii	"fno-common' '-flto'\000"
 396      636F6D6D 
 396      6F6E2720 
 396      272D666C 
 396      746F2700 
 397              		.text
 398              		.cfi_sections	.debug_frame
 399              		.section	.text.msg1_execute,"ax",%progbits
 400              		.align	2
 401              		.p2align 4,,15
 402              		.thumb
 403              		.thumb_func
 404              		.type	msg1_execute, %function
 405              	msg1_execute:
 406              	.LFB242:
 407              		.file 1 "../ChibiOS/test/rt/testmsg.c"
 408              		.loc 1 66 0
 409              		.cfi_startproc
 410              		@ args = 0, pretend = 0, frame = 0
 411              		@ frame_needed = 0, uses_anonymous_args = 0
 412 0000 10B5     		push	{r4, lr}
 413              		.cfi_def_cfa_offset 8
 414              		.cfi_offset 4, -8
 415              		.cfi_offset 14, -4
 416              	.LBB16:
 417              	.LBB17:
 418              	.LBB18:
 419              	.LBB19:
 420              		.file 2 "../ChibiOS/os/rt/include/chthreads.h"
 421              		.loc 2 176 0
 422 0002 184A     		ldr	r2, .L2
 423              	.LBE19:
 424              	.LBE18:
 425              	.LBE17:
 426              	.LBE16:
 427              		.loc 1 73 0
 428 0004 184B     		ldr	r3, .L2+4
 429              	.LBB23:
ARM GAS  /tmp/ccWUHugI.s 			page 32


 430              	.LBB22:
 431              	.LBB21:
 432              	.LBB20:
 433              		.loc 2 176 0
 434 0006 9169     		ldr	r1, [r2, #24]
 435              	.LBE20:
 436              	.LBE21:
 437              	.LBE22:
 438              	.LBE23:
 439              		.loc 1 73 0
 440 0008 1868     		ldr	r0, [r3]
 441 000a 8A68     		ldr	r2, [r1, #8]
 442 000c 174B     		ldr	r3, .L2+8
 443              		.loc 1 66 0
 444 000e 82B0     		sub	sp, sp, #8
 445              		.cfi_def_cfa_offset 16
 446              		.loc 1 73 0
 447 0010 0132     		adds	r2, r2, #1
 448 0012 0091     		str	r1, [sp]
 449 0014 4FF4A471 		mov	r1, #328
 450 0018 FFF7FEFF 		bl	chThdCreateStatic
 451              	.LVL0:
 452 001c 144B     		ldr	r3, .L2+12
 453 001e 1860     		str	r0, [r3]
 454              		.loc 1 75 0
 455 0020 FFF7FEFF 		bl	chMsgWait
 456              	.LVL1:
 457              		.loc 1 67 0
 458 0024 046A     		ldr	r4, [r0, #32]
 459              	.LVL2:
 460              		.loc 1 77 0
 461 0026 2146     		mov	r1, r4
 462 0028 FFF7FEFF 		bl	chMsgRelease
 463              	.LVL3:
 464              		.loc 1 78 0
 465 002c E0B2     		uxtb	r0, r4
 466 002e FFF7FEFF 		bl	test_emit_token
 467              	.LVL4:
 468              		.loc 1 79 0
 469 0032 FFF7FEFF 		bl	chMsgWait
 470              	.LVL5:
 471              		.loc 1 67 0
 472 0036 046A     		ldr	r4, [r0, #32]
 473              	.LVL6:
 474              		.loc 1 81 0
 475 0038 2146     		mov	r1, r4
 476 003a FFF7FEFF 		bl	chMsgRelease
 477              	.LVL7:
 478              		.loc 1 82 0
 479 003e E0B2     		uxtb	r0, r4
 480 0040 FFF7FEFF 		bl	test_emit_token
 481              	.LVL8:
 482              		.loc 1 83 0
 483 0044 FFF7FEFF 		bl	chMsgWait
 484              	.LVL9:
 485              		.loc 1 67 0
 486 0048 046A     		ldr	r4, [r0, #32]
ARM GAS  /tmp/ccWUHugI.s 			page 33


 487              	.LVL10:
 488              		.loc 1 85 0
 489 004a 2146     		mov	r1, r4
 490 004c FFF7FEFF 		bl	chMsgRelease
 491              	.LVL11:
 492              		.loc 1 86 0
 493 0050 E0B2     		uxtb	r0, r4
 494 0052 FFF7FEFF 		bl	test_emit_token
 495              	.LVL12:
 496              		.loc 1 87 0
 497 0056 0749     		ldr	r1, .L2+16
 498 0058 0120     		movs	r0, #1
 499              		.loc 1 88 0
 500 005a 02B0     		add	sp, sp, #8
 501              		@ sp needed
 502 005c BDE81040 		pop	{r4, lr}
 503              		.loc 1 87 0
 504 0060 FFF7FEBF 		b	_test_assert_sequence
 505              	.LVL13:
 506              	.L3:
 507              		.align	2
 508              	.L2:
 509 0064 00000000 		.word	ch
 510 0068 00000000 		.word	wa
 511 006c 00000000 		.word	thread
 512 0070 00000000 		.word	threads
 513 0074 00000000 		.word	.LC0
 514              		.cfi_endproc
 515              	.LFE242:
 516              		.size	msg1_execute, .-msg1_execute
 517 0078 AFF30080 		.section	.text.thread,"ax",%progbits
 517      AFF30080 
 518              		.align	2
 519              		.p2align 4,,15
 520              		.thumb
 521              		.thumb_func
 522              		.type	thread, %function
 523              	thread:
 524              	.LFB241:
 525              		.loc 1 59 0
 526              		.cfi_startproc
 527              		@ args = 0, pretend = 0, frame = 0
 528              		@ frame_needed = 0, uses_anonymous_args = 0
 529              	.LVL14:
 530 0000 10B5     		push	{r4, lr}
 531              		.cfi_def_cfa_offset 8
 532              		.cfi_offset 4, -8
 533              		.cfi_offset 14, -4
 534              		.loc 1 61 0
 535 0002 4121     		movs	r1, #65
 536              		.loc 1 59 0
 537 0004 0446     		mov	r4, r0
 538              		.loc 1 61 0
 539 0006 FFF7FEFF 		bl	chMsgSend
 540              	.LVL15:
 541              		.loc 1 62 0
 542 000a 2046     		mov	r0, r4
ARM GAS  /tmp/ccWUHugI.s 			page 34


 543 000c 4221     		movs	r1, #66
 544 000e FFF7FEFF 		bl	chMsgSend
 545              	.LVL16:
 546              		.loc 1 63 0
 547 0012 2046     		mov	r0, r4
 548 0014 4321     		movs	r1, #67
 549              		.loc 1 64 0
 550 0016 BDE81040 		pop	{r4, lr}
 551              	.LVL17:
 552              		.loc 1 63 0
 553 001a FFF7FEBF 		b	chMsgSend
 554              	.LVL18:
 555              		.cfi_endproc
 556              	.LFE241:
 557              		.size	thread, .-thread
 558              		.global	patternmsg
 559              		.global	testmsg1
 560 001e 00BF     		.section	.rodata.testmsg1,"a",%progbits
 561              		.align	2
 562              		.type	testmsg1, %object
 563              		.size	testmsg1, 16
 564              	testmsg1:
 565 0000 04000000 		.word	.LC1
 566 0004 00000000 		.word	0
 567 0008 00000000 		.word	0
 568 000c 00000000 		.word	msg1_execute
 569              		.section	.rodata.str1.4,"aMS",%progbits,1
 570              		.align	2
 571              	.LC0:
 572 0000 41424300 		.ascii	"ABC\000"
 573              	.LC1:
 574 0004 4D657373 		.ascii	"Messages, loop\000"
 574      61676573 
 574      2C206C6F 
 574      6F7000
 575 0013 00       		.section	.rodata.patternmsg,"a",%progbits
 576              		.align	2
 577              		.type	patternmsg, %object
 578              		.size	patternmsg, 8
 579              	patternmsg:
 580 0000 00000000 		.word	testmsg1
 581 0004 00000000 		.word	0
 582              		.text
 583              	.Letext0:
 584              		.file 3 "/nfs/nfs5/home/research/hardware/arm2/gcc-arm-embedded/gcc-arm-none-eabi-4_8-2014q2/lib/g
 585              		.file 4 "/nfs/nfs5/home/research/hardware/arm2/gcc-arm-embedded/gcc-arm-none-eabi-4_8-2014q2/arm-n
 586              		.file 5 "/nfs/nfs5/home/research/hardware/arm2/gcc-arm-embedded/gcc-arm-none-eabi-4_8-2014q2/arm-n
 587              		.file 6 "../ChibiOS/os/rt/ports/ARMCMx/compilers/GCC/chtypes.h"
 588              		.file 7 "../ChibiOS/os/rt/include/chsystypes.h"
 589              		.file 8 "../ChibiOS/os/rt/include/chschd.h"
 590              		.file 9 "../ChibiOS/os/rt/ports/ARMCMx/chcore.h"
 591              		.file 10 "../ChibiOS/os/rt/ports/ARMCMx/chcore_v7m.h"
 592              		.file 11 "../ChibiOS/os/rt/include/chtm.h"
 593              		.file 12 "../ChibiOS/os/rt/include/chsem.h"
 594              		.file 13 "../ChibiOS/os/rt/include/chmtx.h"
 595              		.file 14 "../ChibiOS/test/rt/test.h"
 596              		.file 15 "../ChibiOS/os/ext/CMSIS/include/core_cm4.h"
ARM GAS  /tmp/ccWUHugI.s 			page 35


 597              		.file 16 "../ChibiOS/os/rt/include/chmsg.h"
 598              		.section	.debug_info,"",%progbits
 599              	.Ldebug_info0:
 600 0000 75090000 		.4byte	0x975
 601 0004 0400     		.2byte	0x4
 602 0006 00000000 		.4byte	.Ldebug_abbrev0
 603 000a 04       		.byte	0x4
 604 000b 01       		.uleb128 0x1
 605 000c 45050000 		.4byte	.LASF123
 606 0010 01       		.byte	0x1
 607 0011 46020000 		.4byte	.LASF124
 608 0015 B5040000 		.4byte	.LASF125
 609 0019 30000000 		.4byte	.Ldebug_ranges0+0x30
 610 001d 00000000 		.4byte	0
 611 0021 00000000 		.4byte	.Ldebug_line0
 612 0025 02       		.uleb128 0x2
 613 0026 04       		.byte	0x4
 614 0027 05       		.byte	0x5
 615 0028 696E7400 		.ascii	"int\000"
 616 002c 03       		.uleb128 0x3
 617 002d 15000000 		.4byte	.LASF2
 618 0031 03       		.byte	0x3
 619 0032 D4       		.byte	0xd4
 620 0033 37000000 		.4byte	0x37
 621 0037 04       		.uleb128 0x4
 622 0038 04       		.byte	0x4
 623 0039 07       		.byte	0x7
 624 003a 80010000 		.4byte	.LASF0
 625 003e 04       		.uleb128 0x4
 626 003f 01       		.byte	0x1
 627 0040 06       		.byte	0x6
 628 0041 CD000000 		.4byte	.LASF1
 629 0045 03       		.uleb128 0x3
 630 0046 2C000000 		.4byte	.LASF3
 631 004a 04       		.byte	0x4
 632 004b 1C       		.byte	0x1c
 633 004c 50000000 		.4byte	0x50
 634 0050 04       		.uleb128 0x4
 635 0051 01       		.byte	0x1
 636 0052 08       		.byte	0x8
 637 0053 6B030000 		.4byte	.LASF4
 638 0057 04       		.uleb128 0x4
 639 0058 02       		.byte	0x2
 640 0059 05       		.byte	0x5
 641 005a 83030000 		.4byte	.LASF5
 642 005e 04       		.uleb128 0x4
 643 005f 02       		.byte	0x2
 644 0060 07       		.byte	0x7
 645 0061 C4010000 		.4byte	.LASF6
 646 0065 03       		.uleb128 0x3
 647 0066 15020000 		.4byte	.LASF7
 648 006a 04       		.byte	0x4
 649 006b 37       		.byte	0x37
 650 006c 70000000 		.4byte	0x70
 651 0070 04       		.uleb128 0x4
 652 0071 04       		.byte	0x4
 653 0072 05       		.byte	0x5
ARM GAS  /tmp/ccWUHugI.s 			page 36


 654 0073 10010000 		.4byte	.LASF8
 655 0077 03       		.uleb128 0x3
 656 0078 78040000 		.4byte	.LASF9
 657 007c 04       		.byte	0x4
 658 007d 38       		.byte	0x38
 659 007e 82000000 		.4byte	0x82
 660 0082 04       		.uleb128 0x4
 661 0083 04       		.byte	0x4
 662 0084 07       		.byte	0x7
 663 0085 33040000 		.4byte	.LASF10
 664 0089 04       		.uleb128 0x4
 665 008a 08       		.byte	0x8
 666 008b 05       		.byte	0x5
 667 008c BF000000 		.4byte	.LASF11
 668 0090 03       		.uleb128 0x3
 669 0091 0C030000 		.4byte	.LASF12
 670 0095 04       		.byte	0x4
 671 0096 4E       		.byte	0x4e
 672 0097 9B000000 		.4byte	0x9b
 673 009b 04       		.uleb128 0x4
 674 009c 08       		.byte	0x8
 675 009d 07       		.byte	0x7
 676 009e 51000000 		.4byte	.LASF13
 677 00a2 03       		.uleb128 0x3
 678 00a3 30050000 		.4byte	.LASF14
 679 00a7 05       		.byte	0x5
 680 00a8 2A       		.byte	0x2a
 681 00a9 45000000 		.4byte	0x45
 682 00ad 03       		.uleb128 0x3
 683 00ae 63030000 		.4byte	.LASF15
 684 00b2 05       		.byte	0x5
 685 00b3 41       		.byte	0x41
 686 00b4 65000000 		.4byte	0x65
 687 00b8 03       		.uleb128 0x3
 688 00b9 02040000 		.4byte	.LASF16
 689 00bd 05       		.byte	0x5
 690 00be 42       		.byte	0x42
 691 00bf 77000000 		.4byte	0x77
 692 00c3 03       		.uleb128 0x3
 693 00c4 23000000 		.4byte	.LASF17
 694 00c8 05       		.byte	0x5
 695 00c9 4E       		.byte	0x4e
 696 00ca 90000000 		.4byte	0x90
 697 00ce 03       		.uleb128 0x3
 698 00cf 9C040000 		.4byte	.LASF18
 699 00d3 06       		.byte	0x6
 700 00d4 39       		.byte	0x39
 701 00d5 B8000000 		.4byte	0xb8
 702 00d9 03       		.uleb128 0x3
 703 00da F3010000 		.4byte	.LASF19
 704 00de 06       		.byte	0x6
 705 00df 3C       		.byte	0x3c
 706 00e0 A2000000 		.4byte	0xa2
 707 00e4 03       		.uleb128 0x3
 708 00e5 23010000 		.4byte	.LASF20
 709 00e9 06       		.byte	0x6
 710 00ea 3D       		.byte	0x3d
ARM GAS  /tmp/ccWUHugI.s 			page 37


 711 00eb A2000000 		.4byte	0xa2
 712 00ef 03       		.uleb128 0x3
 713 00f0 17030000 		.4byte	.LASF21
 714 00f4 06       		.byte	0x6
 715 00f5 3E       		.byte	0x3e
 716 00f6 A2000000 		.4byte	0xa2
 717 00fa 03       		.uleb128 0x3
 718 00fb 3E030000 		.4byte	.LASF22
 719 00ff 06       		.byte	0x6
 720 0100 40       		.byte	0x40
 721 0101 B8000000 		.4byte	0xb8
 722 0105 03       		.uleb128 0x3
 723 0106 E1010000 		.4byte	.LASF23
 724 010a 06       		.byte	0x6
 725 010b 41       		.byte	0x41
 726 010c AD000000 		.4byte	0xad
 727 0110 03       		.uleb128 0x3
 728 0111 09020000 		.4byte	.LASF24
 729 0115 06       		.byte	0x6
 730 0116 43       		.byte	0x43
 731 0117 B8000000 		.4byte	0xb8
 732 011b 03       		.uleb128 0x3
 733 011c 6C010000 		.4byte	.LASF25
 734 0120 06       		.byte	0x6
 735 0121 45       		.byte	0x45
 736 0122 AD000000 		.4byte	0xad
 737 0126 03       		.uleb128 0x3
 738 0127 5A040000 		.4byte	.LASF26
 739 012b 07       		.byte	0x7
 740 012c 33       		.byte	0x33
 741 012d B8000000 		.4byte	0xb8
 742 0131 03       		.uleb128 0x3
 743 0132 4A040000 		.4byte	.LASF27
 744 0136 07       		.byte	0x7
 745 0137 3F       		.byte	0x3f
 746 0138 3C010000 		.4byte	0x13c
 747 013c 05       		.uleb128 0x5
 748 013d D7010000 		.4byte	.LASF46
 749 0141 40       		.byte	0x40
 750 0142 08       		.byte	0x8
 751 0143 C2       		.byte	0xc2
 752 0144 1C020000 		.4byte	0x21c
 753 0148 06       		.uleb128 0x6
 754 0149 B4030000 		.4byte	.LASF28
 755 014d 08       		.byte	0x8
 756 014e C3       		.byte	0xc3
 757 014f 27020000 		.4byte	0x227
 758 0153 00       		.byte	0
 759 0154 06       		.uleb128 0x6
 760 0155 2F030000 		.4byte	.LASF29
 761 0159 08       		.byte	0x8
 762 015a C5       		.byte	0xc5
 763 015b 27020000 		.4byte	0x227
 764 015f 04       		.byte	0x4
 765 0160 06       		.uleb128 0x6
 766 0161 B8000000 		.4byte	.LASF30
 767 0165 08       		.byte	0x8
ARM GAS  /tmp/ccWUHugI.s 			page 38


 768 0166 C7       		.byte	0xc7
 769 0167 FA000000 		.4byte	0xfa
 770 016b 08       		.byte	0x8
 771 016c 06       		.uleb128 0x6
 772 016d 4A060000 		.4byte	.LASF31
 773 0171 08       		.byte	0x8
 774 0172 C8       		.byte	0xc8
 775 0173 57040000 		.4byte	0x457
 776 0177 0C       		.byte	0xc
 777 0178 06       		.uleb128 0x6
 778 0179 2C010000 		.4byte	.LASF32
 779 017d 08       		.byte	0x8
 780 017e CA       		.byte	0xca
 781 017f 27020000 		.4byte	0x227
 782 0183 10       		.byte	0x10
 783 0184 06       		.uleb128 0x6
 784 0185 BE020000 		.4byte	.LASF33
 785 0189 08       		.byte	0x8
 786 018a CB       		.byte	0xcb
 787 018b 27020000 		.4byte	0x227
 788 018f 14       		.byte	0x14
 789 0190 06       		.uleb128 0x6
 790 0191 2C060000 		.4byte	.LASF34
 791 0195 08       		.byte	0x8
 792 0196 D2       		.byte	0xd2
 793 0197 E2050000 		.4byte	0x5e2
 794 019b 18       		.byte	0x18
 795 019c 06       		.uleb128 0x6
 796 019d 8D030000 		.4byte	.LASF35
 797 01a1 08       		.byte	0x8
 798 01a2 DD       		.byte	0xdd
 799 01a3 E4000000 		.4byte	0xe4
 800 01a7 1C       		.byte	0x1c
 801 01a8 06       		.uleb128 0x6
 802 01a9 BB030000 		.4byte	.LASF36
 803 01ad 08       		.byte	0x8
 804 01ae E1       		.byte	0xe1
 805 01af D9000000 		.4byte	0xd9
 806 01b3 1D       		.byte	0x1d
 807 01b4 06       		.uleb128 0x6
 808 01b5 15050000 		.4byte	.LASF37
 809 01b9 08       		.byte	0x8
 810 01ba E6       		.byte	0xe6
 811 01bb EF000000 		.4byte	0xef
 812 01bf 1E       		.byte	0x1e
 813 01c0 07       		.uleb128 0x7
 814 01c1 705F7500 		.ascii	"p_u\000"
 815 01c5 08       		.byte	0x8
 816 01c6 3701     		.2byte	0x137
 817 01c8 11050000 		.4byte	0x511
 818 01cc 20       		.byte	0x20
 819 01cd 08       		.uleb128 0x8
 820 01ce 3C020000 		.4byte	.LASF38
 821 01d2 08       		.byte	0x8
 822 01d3 3C01     		.2byte	0x13c
 823 01d5 2D020000 		.4byte	0x22d
 824 01d9 24       		.byte	0x24
ARM GAS  /tmp/ccWUHugI.s 			page 39


 825 01da 08       		.uleb128 0x8
 826 01db 9C010000 		.4byte	.LASF39
 827 01df 08       		.byte	0x8
 828 01e0 4201     		.2byte	0x142
 829 01e2 51020000 		.4byte	0x251
 830 01e6 28       		.byte	0x28
 831 01e7 08       		.uleb128 0x8
 832 01e8 F7030000 		.4byte	.LASF40
 833 01ec 08       		.byte	0x8
 834 01ed 4801     		.2byte	0x148
 835 01ef 10010000 		.4byte	0x110
 836 01f3 30       		.byte	0x30
 837 01f4 08       		.uleb128 0x8
 838 01f5 79030000 		.4byte	.LASF41
 839 01f9 08       		.byte	0x8
 840 01fa 4F01     		.2byte	0x14f
 841 01fc DC050000 		.4byte	0x5dc
 842 0200 34       		.byte	0x34
 843 0201 08       		.uleb128 0x8
 844 0202 64040000 		.4byte	.LASF42
 845 0206 08       		.byte	0x8
 846 0207 5301     		.2byte	0x153
 847 0209 FA000000 		.4byte	0xfa
 848 020d 38       		.byte	0x38
 849 020e 08       		.uleb128 0x8
 850 020f D9000000 		.4byte	.LASF43
 851 0213 08       		.byte	0x8
 852 0214 5A01     		.2byte	0x15a
 853 0216 04030000 		.4byte	0x304
 854 021a 3C       		.byte	0x3c
 855 021b 00       		.byte	0
 856 021c 03       		.uleb128 0x3
 857 021d 77020000 		.4byte	.LASF44
 858 0221 07       		.byte	0x7
 859 0222 44       		.byte	0x44
 860 0223 27020000 		.4byte	0x227
 861 0227 09       		.uleb128 0x9
 862 0228 04       		.byte	0x4
 863 0229 31010000 		.4byte	0x131
 864 022d 03       		.uleb128 0x3
 865 022e 33060000 		.4byte	.LASF45
 866 0232 07       		.byte	0x7
 867 0233 49       		.byte	0x49
 868 0234 38020000 		.4byte	0x238
 869 0238 05       		.uleb128 0x5
 870 0239 23040000 		.4byte	.LASF47
 871 023d 04       		.byte	0x4
 872 023e 08       		.byte	0x8
 873 023f B0       		.byte	0xb0
 874 0240 51020000 		.4byte	0x251
 875 0244 06       		.uleb128 0x6
 876 0245 B4030000 		.4byte	.LASF28
 877 0249 08       		.byte	0x8
 878 024a B1       		.byte	0xb1
 879 024b 27020000 		.4byte	0x227
 880 024f 00       		.byte	0
 881 0250 00       		.byte	0
ARM GAS  /tmp/ccWUHugI.s 			page 40


 882 0251 03       		.uleb128 0x3
 883 0252 FC040000 		.4byte	.LASF48
 884 0256 07       		.byte	0x7
 885 0257 50       		.byte	0x50
 886 0258 5C020000 		.4byte	0x25c
 887 025c 05       		.uleb128 0x5
 888 025d A7000000 		.4byte	.LASF49
 889 0261 08       		.byte	0x8
 890 0262 08       		.byte	0x8
 891 0263 B7       		.byte	0xb7
 892 0264 81020000 		.4byte	0x281
 893 0268 06       		.uleb128 0x6
 894 0269 B4030000 		.4byte	.LASF28
 895 026d 08       		.byte	0x8
 896 026e B8       		.byte	0xb8
 897 026f 27020000 		.4byte	0x227
 898 0273 00       		.byte	0
 899 0274 06       		.uleb128 0x6
 900 0275 2F030000 		.4byte	.LASF29
 901 0279 08       		.byte	0x8
 902 027a B9       		.byte	0xb9
 903 027b 27020000 		.4byte	0x227
 904 027f 04       		.byte	0x4
 905 0280 00       		.byte	0
 906 0281 03       		.uleb128 0x3
 907 0282 08000000 		.4byte	.LASF50
 908 0286 07       		.byte	0x7
 909 0287 57       		.byte	0x57
 910 0288 8C020000 		.4byte	0x28c
 911 028c 0A       		.uleb128 0xa
 912 028d FB010000 		.4byte	.LASF51
 913 0291 1C       		.byte	0x1c
 914 0292 08       		.byte	0x8
 915 0293 9201     		.2byte	0x192
 916 0295 E8020000 		.4byte	0x2e8
 917 0299 08       		.uleb128 0x8
 918 029a 12040000 		.4byte	.LASF52
 919 029e 08       		.byte	0x8
 920 029f 9301     		.2byte	0x193
 921 02a1 51020000 		.4byte	0x251
 922 02a5 00       		.byte	0
 923 02a6 08       		.uleb128 0x8
 924 02a7 9D030000 		.4byte	.LASF53
 925 02ab 08       		.byte	0x8
 926 02ac 9401     		.2byte	0x194
 927 02ae FA000000 		.4byte	0xfa
 928 02b2 08       		.byte	0x8
 929 02b3 08       		.uleb128 0x8
 930 02b4 C6020000 		.4byte	.LASF54
 931 02b8 08       		.byte	0x8
 932 02b9 9601     		.2byte	0x196
 933 02bb 57040000 		.4byte	0x457
 934 02bf 0C       		.byte	0xc
 935 02c0 08       		.uleb128 0x8
 936 02c1 3C010000 		.4byte	.LASF55
 937 02c5 08       		.byte	0x8
 938 02c6 9901     		.2byte	0x199
ARM GAS  /tmp/ccWUHugI.s 			page 41


 939 02c8 27020000 		.4byte	0x227
 940 02cc 10       		.byte	0x10
 941 02cd 08       		.uleb128 0x8
 942 02ce 04030000 		.4byte	.LASF56
 943 02d2 08       		.byte	0x8
 944 02d3 9A01     		.2byte	0x19a
 945 02d5 27020000 		.4byte	0x227
 946 02d9 14       		.byte	0x14
 947 02da 08       		.uleb128 0x8
 948 02db FA020000 		.4byte	.LASF57
 949 02df 08       		.byte	0x8
 950 02e0 9D01     		.2byte	0x19d
 951 02e2 27020000 		.4byte	0x227
 952 02e6 18       		.byte	0x18
 953 02e7 00       		.byte	0
 954 02e8 03       		.uleb128 0x3
 955 02e9 6F040000 		.4byte	.LASF58
 956 02ed 07       		.byte	0x7
 957 02ee 5C       		.byte	0x5c
 958 02ef F3020000 		.4byte	0x2f3
 959 02f3 09       		.uleb128 0x9
 960 02f4 04       		.byte	0x4
 961 02f5 F9020000 		.4byte	0x2f9
 962 02f9 0B       		.uleb128 0xb
 963 02fa 04030000 		.4byte	0x304
 964 02fe 0C       		.uleb128 0xc
 965 02ff 04030000 		.4byte	0x304
 966 0303 00       		.byte	0
 967 0304 0D       		.uleb128 0xd
 968 0305 04       		.byte	0x4
 969 0306 03       		.uleb128 0x3
 970 0307 1F030000 		.4byte	.LASF59
 971 030b 07       		.byte	0x7
 972 030c 61       		.byte	0x61
 973 030d 11030000 		.4byte	0x311
 974 0311 0A       		.uleb128 0xa
 975 0312 C3030000 		.4byte	.LASF60
 976 0316 14       		.byte	0x14
 977 0317 08       		.byte	0x8
 978 0318 6D01     		.2byte	0x16d
 979 031a 60030000 		.4byte	0x360
 980 031e 08       		.uleb128 0x8
 981 031f 8D010000 		.4byte	.LASF61
 982 0323 08       		.byte	0x8
 983 0324 6E01     		.2byte	0x16e
 984 0326 F4050000 		.4byte	0x5f4
 985 032a 00       		.byte	0
 986 032b 08       		.uleb128 0x8
 987 032c 4D010000 		.4byte	.LASF62
 988 0330 08       		.byte	0x8
 989 0331 6F01     		.2byte	0x16f
 990 0333 F4050000 		.4byte	0x5f4
 991 0337 04       		.byte	0x4
 992 0338 08       		.uleb128 0x8
 993 0339 1A040000 		.4byte	.LASF63
 994 033d 08       		.byte	0x8
 995 033e 7001     		.2byte	0x170
ARM GAS  /tmp/ccWUHugI.s 			page 42


 996 0340 26010000 		.4byte	0x126
 997 0344 08       		.byte	0x8
 998 0345 08       		.uleb128 0x8
 999 0346 50060000 		.4byte	.LASF64
 1000 034a 08       		.byte	0x8
 1001 034b 7101     		.2byte	0x171
 1002 034d E8020000 		.4byte	0x2e8
 1003 0351 0C       		.byte	0xc
 1004 0352 08       		.uleb128 0x8
 1005 0353 A4040000 		.4byte	.LASF65
 1006 0357 08       		.byte	0x8
 1007 0358 7301     		.2byte	0x173
 1008 035a 04030000 		.4byte	0x304
 1009 035e 10       		.byte	0x10
 1010 035f 00       		.byte	0
 1011 0360 03       		.uleb128 0x3
 1012 0361 84000000 		.4byte	.LASF66
 1013 0365 07       		.byte	0x7
 1014 0366 66       		.byte	0x66
 1015 0367 6B030000 		.4byte	0x36b
 1016 036b 0A       		.uleb128 0xa
 1017 036c 8A020000 		.4byte	.LASF67
 1018 0370 10       		.byte	0x10
 1019 0371 08       		.byte	0x8
 1020 0372 7D01     		.2byte	0x17d
 1021 0374 AD030000 		.4byte	0x3ad
 1022 0378 08       		.uleb128 0x8
 1023 0379 8D010000 		.4byte	.LASF61
 1024 037d 08       		.byte	0x8
 1025 037e 7E01     		.2byte	0x17e
 1026 0380 F4050000 		.4byte	0x5f4
 1027 0384 00       		.byte	0
 1028 0385 08       		.uleb128 0x8
 1029 0386 4D010000 		.4byte	.LASF62
 1030 038a 08       		.byte	0x8
 1031 038b 8001     		.2byte	0x180
 1032 038d F4050000 		.4byte	0x5f4
 1033 0391 04       		.byte	0x4
 1034 0392 08       		.uleb128 0x8
 1035 0393 1A040000 		.4byte	.LASF63
 1036 0397 08       		.byte	0x8
 1037 0398 8201     		.2byte	0x182
 1038 039a 26010000 		.4byte	0x126
 1039 039e 08       		.byte	0x8
 1040 039f 08       		.uleb128 0x8
 1041 03a0 B2020000 		.4byte	.LASF68
 1042 03a4 08       		.byte	0x8
 1043 03a5 8A01     		.2byte	0x18a
 1044 03a7 26010000 		.4byte	0x126
 1045 03ab 0C       		.byte	0xc
 1046 03ac 00       		.byte	0
 1047 03ad 03       		.uleb128 0x3
 1048 03ae 42000000 		.4byte	.LASF69
 1049 03b2 07       		.byte	0x7
 1050 03b3 6B       		.byte	0x6b
 1051 03b4 B8030000 		.4byte	0x3b8
 1052 03b8 0A       		.uleb128 0xa
ARM GAS  /tmp/ccWUHugI.s 			page 43


 1053 03b9 4D030000 		.4byte	.LASF70
 1054 03bd 04       		.byte	0x4
 1055 03be 08       		.byte	0x8
 1056 03bf A401     		.2byte	0x1a4
 1057 03c1 D3030000 		.4byte	0x3d3
 1058 03c5 08       		.uleb128 0x8
 1059 03c6 83040000 		.4byte	.LASF71
 1060 03ca 08       		.byte	0x8
 1061 03cb AC01     		.2byte	0x1ac
 1062 03cd FA050000 		.4byte	0x5fa
 1063 03d1 00       		.byte	0
 1064 03d2 00       		.byte	0
 1065 03d3 03       		.uleb128 0x3
 1066 03d4 E7010000 		.4byte	.LASF72
 1067 03d8 07       		.byte	0x7
 1068 03d9 70       		.byte	0x70
 1069 03da DE030000 		.4byte	0x3de
 1070 03de 0E       		.uleb128 0xe
 1071 03df 06010000 		.4byte	.LASF73
 1072 03e3 5001     		.2byte	0x150
 1073 03e5 08       		.byte	0x8
 1074 03e6 C401     		.2byte	0x1c4
 1075 03e8 3A040000 		.4byte	0x43a
 1076 03ec 08       		.uleb128 0x8
 1077 03ed 1C050000 		.4byte	.LASF74
 1078 03f1 08       		.byte	0x8
 1079 03f2 C801     		.2byte	0x1c8
 1080 03f4 81020000 		.4byte	0x281
 1081 03f8 00       		.byte	0
 1082 03f9 08       		.uleb128 0x8
 1083 03fa F9000000 		.4byte	.LASF75
 1084 03fe 08       		.byte	0x8
 1085 03ff CC01     		.2byte	0x1cc
 1086 0401 60030000 		.4byte	0x360
 1087 0405 1C       		.byte	0x1c
 1088 0406 07       		.uleb128 0x7
 1089 0407 64626700 		.ascii	"dbg\000"
 1090 040b 08       		.byte	0x8
 1091 040c D001     		.2byte	0x1d0
 1092 040e AD030000 		.4byte	0x3ad
 1093 0412 2C       		.byte	0x2c
 1094 0413 08       		.uleb128 0x8
 1095 0414 71000000 		.4byte	.LASF76
 1096 0418 08       		.byte	0x8
 1097 0419 D401     		.2byte	0x1d4
 1098 041b 31010000 		.4byte	0x131
 1099 041f 30       		.byte	0x30
 1100 0420 07       		.uleb128 0x7
 1101 0421 746D00   		.ascii	"tm\000"
 1102 0424 08       		.byte	0x8
 1103 0425 D901     		.2byte	0x1d9
 1104 0427 06050000 		.4byte	0x506
 1105 042b 70       		.byte	0x70
 1106 042c 08       		.uleb128 0x8
 1107 042d 5D010000 		.4byte	.LASF77
 1108 0431 08       		.byte	0x8
 1109 0432 E501     		.2byte	0x1e5
ARM GAS  /tmp/ccWUHugI.s 			page 44


 1110 0434 FF050000 		.4byte	0x5ff
 1111 0438 78       		.byte	0x78
 1112 0439 00       		.byte	0
 1113 043a 04       		.uleb128 0x4
 1114 043b 04       		.byte	0x4
 1115 043c 07       		.byte	0x7
 1116 043d 6E020000 		.4byte	.LASF78
 1117 0441 03       		.uleb128 0x3
 1118 0442 44010000 		.4byte	.LASF79
 1119 0446 09       		.byte	0x9
 1120 0447 65       		.byte	0x65
 1121 0448 04030000 		.4byte	0x304
 1122 044c 03       		.uleb128 0x3
 1123 044d 1F020000 		.4byte	.LASF80
 1124 0451 09       		.byte	0x9
 1125 0452 6D       		.byte	0x6d
 1126 0453 C3000000 		.4byte	0xc3
 1127 0457 05       		.uleb128 0x5
 1128 0458 94040000 		.4byte	.LASF81
 1129 045c 04       		.byte	0x4
 1130 045d 09       		.byte	0x9
 1131 045e 89       		.byte	0x89
 1132 045f 70040000 		.4byte	0x470
 1133 0463 0F       		.uleb128 0xf
 1134 0464 72313300 		.ascii	"r13\000"
 1135 0468 09       		.byte	0x9
 1136 0469 8A       		.byte	0x8a
 1137 046a EB040000 		.4byte	0x4eb
 1138 046e 00       		.byte	0
 1139 046f 00       		.byte	0
 1140 0470 05       		.uleb128 0x5
 1141 0471 36000000 		.4byte	.LASF82
 1142 0475 24       		.byte	0x24
 1143 0476 0A       		.byte	0xa
 1144 0477 FD       		.byte	0xfd
 1145 0478 EB040000 		.4byte	0x4eb
 1146 047c 07       		.uleb128 0x7
 1147 047d 723400   		.ascii	"r4\000"
 1148 0480 0A       		.byte	0xa
 1149 0481 1001     		.2byte	0x110
 1150 0483 41040000 		.4byte	0x441
 1151 0487 00       		.byte	0
 1152 0488 07       		.uleb128 0x7
 1153 0489 723500   		.ascii	"r5\000"
 1154 048c 0A       		.byte	0xa
 1155 048d 1101     		.2byte	0x111
 1156 048f 41040000 		.4byte	0x441
 1157 0493 04       		.byte	0x4
 1158 0494 07       		.uleb128 0x7
 1159 0495 723600   		.ascii	"r6\000"
 1160 0498 0A       		.byte	0xa
 1161 0499 1201     		.2byte	0x112
 1162 049b 41040000 		.4byte	0x441
 1163 049f 08       		.byte	0x8
 1164 04a0 07       		.uleb128 0x7
 1165 04a1 723700   		.ascii	"r7\000"
 1166 04a4 0A       		.byte	0xa
ARM GAS  /tmp/ccWUHugI.s 			page 45


 1167 04a5 1301     		.2byte	0x113
 1168 04a7 41040000 		.4byte	0x441
 1169 04ab 0C       		.byte	0xc
 1170 04ac 07       		.uleb128 0x7
 1171 04ad 723800   		.ascii	"r8\000"
 1172 04b0 0A       		.byte	0xa
 1173 04b1 1401     		.2byte	0x114
 1174 04b3 41040000 		.4byte	0x441
 1175 04b7 10       		.byte	0x10
 1176 04b8 07       		.uleb128 0x7
 1177 04b9 723900   		.ascii	"r9\000"
 1178 04bc 0A       		.byte	0xa
 1179 04bd 1501     		.2byte	0x115
 1180 04bf 41040000 		.4byte	0x441
 1181 04c3 14       		.byte	0x14
 1182 04c4 07       		.uleb128 0x7
 1183 04c5 72313000 		.ascii	"r10\000"
 1184 04c9 0A       		.byte	0xa
 1185 04ca 1601     		.2byte	0x116
 1186 04cc 41040000 		.4byte	0x441
 1187 04d0 18       		.byte	0x18
 1188 04d1 07       		.uleb128 0x7
 1189 04d2 72313100 		.ascii	"r11\000"
 1190 04d6 0A       		.byte	0xa
 1191 04d7 1701     		.2byte	0x117
 1192 04d9 41040000 		.4byte	0x441
 1193 04dd 1C       		.byte	0x1c
 1194 04de 07       		.uleb128 0x7
 1195 04df 6C7200   		.ascii	"lr\000"
 1196 04e2 0A       		.byte	0xa
 1197 04e3 1801     		.2byte	0x118
 1198 04e5 41040000 		.4byte	0x441
 1199 04e9 20       		.byte	0x20
 1200 04ea 00       		.byte	0
 1201 04eb 09       		.uleb128 0x9
 1202 04ec 04       		.byte	0x4
 1203 04ed 70040000 		.4byte	0x470
 1204 04f1 10       		.uleb128 0x10
 1205 04f2 04       		.byte	0x4
 1206 04f3 0B       		.byte	0xb
 1207 04f4 38       		.byte	0x38
 1208 04f5 06050000 		.4byte	0x506
 1209 04f9 06       		.uleb128 0x6
 1210 04fa 8D040000 		.4byte	.LASF83
 1211 04fe 0B       		.byte	0xb
 1212 04ff 3C       		.byte	0x3c
 1213 0500 CE000000 		.4byte	0xce
 1214 0504 00       		.byte	0
 1215 0505 00       		.byte	0
 1216 0506 03       		.uleb128 0x3
 1217 0507 A1020000 		.4byte	.LASF84
 1218 050b 0B       		.byte	0xb
 1219 050c 3D       		.byte	0x3d
 1220 050d F1040000 		.4byte	0x4f1
 1221 0511 11       		.uleb128 0x11
 1222 0512 04       		.byte	0x4
 1223 0513 08       		.byte	0x8
ARM GAS  /tmp/ccWUHugI.s 			page 46


 1224 0514 FA       		.byte	0xfa
 1225 0515 7A050000 		.4byte	0x57a
 1226 0519 12       		.uleb128 0x12
 1227 051a 1C000000 		.4byte	.LASF85
 1228 051e 08       		.byte	0x8
 1229 051f 0101     		.2byte	0x101
 1230 0521 05010000 		.4byte	0x105
 1231 0525 12       		.uleb128 0x12
 1232 0526 68000000 		.4byte	.LASF86
 1233 052a 08       		.byte	0x8
 1234 052b 0801     		.2byte	0x108
 1235 052d 05010000 		.4byte	0x105
 1236 0531 12       		.uleb128 0x12
 1237 0532 25060000 		.4byte	.LASF87
 1238 0536 08       		.byte	0x8
 1239 0537 0F01     		.2byte	0x10f
 1240 0539 04030000 		.4byte	0x304
 1241 053d 12       		.uleb128 0x12
 1242 053e 00010000 		.4byte	.LASF88
 1243 0542 08       		.byte	0x8
 1244 0543 1601     		.2byte	0x116
 1245 0545 7A050000 		.4byte	0x57a
 1246 0549 12       		.uleb128 0x12
 1247 054a 7C000000 		.4byte	.LASF89
 1248 054e 08       		.byte	0x8
 1249 054f 1B01     		.2byte	0x11b
 1250 0551 05010000 		.4byte	0x105
 1251 0555 12       		.uleb128 0x12
 1252 0556 95010000 		.4byte	.LASF90
 1253 055a 08       		.byte	0x8
 1254 055b 2401     		.2byte	0x124
 1255 055d A5050000 		.4byte	0x5a5
 1256 0561 12       		.uleb128 0x12
 1257 0562 0B040000 		.4byte	.LASF91
 1258 0566 08       		.byte	0x8
 1259 0567 2D01     		.2byte	0x12d
 1260 0569 DC050000 		.4byte	0x5dc
 1261 056d 12       		.uleb128 0x12
 1262 056e AD030000 		.4byte	.LASF92
 1263 0572 08       		.byte	0x8
 1264 0573 3501     		.2byte	0x135
 1265 0575 10010000 		.4byte	0x110
 1266 0579 00       		.byte	0
 1267 057a 09       		.uleb128 0x9
 1268 057b 04       		.byte	0x4
 1269 057c 1C020000 		.4byte	0x21c
 1270 0580 05       		.uleb128 0x5
 1271 0581 EA030000 		.4byte	.LASF93
 1272 0585 0C       		.byte	0xc
 1273 0586 0C       		.byte	0xc
 1274 0587 34       		.byte	0x34
 1275 0588 A5050000 		.4byte	0x5a5
 1276 058c 06       		.uleb128 0x6
 1277 058d 34010000 		.4byte	.LASF94
 1278 0591 0C       		.byte	0xc
 1279 0592 35       		.byte	0x35
 1280 0593 51020000 		.4byte	0x251
ARM GAS  /tmp/ccWUHugI.s 			page 47


 1281 0597 00       		.byte	0
 1282 0598 06       		.uleb128 0x6
 1283 0599 BE010000 		.4byte	.LASF95
 1284 059d 0C       		.byte	0xc
 1285 059e 37       		.byte	0x37
 1286 059f 1B010000 		.4byte	0x11b
 1287 05a3 08       		.byte	0x8
 1288 05a4 00       		.byte	0
 1289 05a5 09       		.uleb128 0x9
 1290 05a6 04       		.byte	0x4
 1291 05a7 80050000 		.4byte	0x580
 1292 05ab 05       		.uleb128 0x5
 1293 05ac 0C050000 		.4byte	.LASF96
 1294 05b0 10       		.byte	0x10
 1295 05b1 0D       		.byte	0xd
 1296 05b2 39       		.byte	0x39
 1297 05b3 DC050000 		.4byte	0x5dc
 1298 05b7 06       		.uleb128 0x6
 1299 05b8 E1000000 		.4byte	.LASF97
 1300 05bc 0D       		.byte	0xd
 1301 05bd 3A       		.byte	0x3a
 1302 05be 51020000 		.4byte	0x251
 1303 05c2 00       		.byte	0
 1304 05c3 06       		.uleb128 0x6
 1305 05c4 42060000 		.4byte	.LASF98
 1306 05c8 0D       		.byte	0xd
 1307 05c9 3C       		.byte	0x3c
 1308 05ca 27020000 		.4byte	0x227
 1309 05ce 08       		.byte	0x8
 1310 05cf 06       		.uleb128 0x6
 1311 05d0 53040000 		.4byte	.LASF99
 1312 05d4 0D       		.byte	0xd
 1313 05d5 3E       		.byte	0x3e
 1314 05d6 25060000 		.4byte	0x625
 1315 05da 0C       		.byte	0xc
 1316 05db 00       		.byte	0
 1317 05dc 09       		.uleb128 0x9
 1318 05dd 04       		.byte	0x4
 1319 05de AB050000 		.4byte	0x5ab
 1320 05e2 09       		.uleb128 0x9
 1321 05e3 04       		.byte	0x4
 1322 05e4 E8050000 		.4byte	0x5e8
 1323 05e8 13       		.uleb128 0x13
 1324 05e9 ED050000 		.4byte	0x5ed
 1325 05ed 04       		.uleb128 0x4
 1326 05ee 01       		.byte	0x1
 1327 05ef 08       		.byte	0x8
 1328 05f0 45040000 		.4byte	.LASF100
 1329 05f4 09       		.uleb128 0x9
 1330 05f5 04       		.byte	0x4
 1331 05f6 06030000 		.4byte	0x306
 1332 05fa 14       		.uleb128 0x14
 1333 05fb E2050000 		.4byte	0x5e2
 1334 05ff 15       		.uleb128 0x15
 1335 0600 4C040000 		.4byte	0x44c
 1336 0604 0F060000 		.4byte	0x60f
 1337 0608 16       		.uleb128 0x16
ARM GAS  /tmp/ccWUHugI.s 			page 48


 1338 0609 3A040000 		.4byte	0x43a
 1339 060d 1A       		.byte	0x1a
 1340 060e 00       		.byte	0
 1341 060f 03       		.uleb128 0x3
 1342 0610 00000000 		.4byte	.LASF101
 1343 0614 02       		.byte	0x2
 1344 0615 34       		.byte	0x34
 1345 0616 F3020000 		.4byte	0x2f3
 1346 061a 03       		.uleb128 0x3
 1347 061b 55010000 		.4byte	.LASF102
 1348 061f 0D       		.byte	0xd
 1349 0620 34       		.byte	0x34
 1350 0621 AB050000 		.4byte	0x5ab
 1351 0625 09       		.uleb128 0x9
 1352 0626 04       		.byte	0x4
 1353 0627 1A060000 		.4byte	0x61a
 1354 062b 05       		.uleb128 0x5
 1355 062c E1030000 		.4byte	.LASF103
 1356 0630 10       		.byte	0x10
 1357 0631 0E       		.byte	0xe
 1358 0632 3B       		.byte	0x3b
 1359 0633 68060000 		.4byte	0x668
 1360 0637 06       		.uleb128 0x6
 1361 0638 B9010000 		.4byte	.LASF104
 1362 063c 0E       		.byte	0xe
 1363 063d 3C       		.byte	0x3c
 1364 063e E2050000 		.4byte	0x5e2
 1365 0642 00       		.byte	0
 1366 0643 06       		.uleb128 0x6
 1367 0644 DE020000 		.4byte	.LASF105
 1368 0648 0E       		.byte	0xe
 1369 0649 3D       		.byte	0x3d
 1370 064a 69060000 		.4byte	0x669
 1371 064e 04       		.byte	0x4
 1372 064f 06       		.uleb128 0x6
 1373 0650 A7010000 		.4byte	.LASF106
 1374 0654 0E       		.byte	0xe
 1375 0655 3E       		.byte	0x3e
 1376 0656 69060000 		.4byte	0x669
 1377 065a 08       		.byte	0x8
 1378 065b 06       		.uleb128 0x6
 1379 065c 36030000 		.4byte	.LASF107
 1380 0660 0E       		.byte	0xe
 1381 0661 3F       		.byte	0x3f
 1382 0662 69060000 		.4byte	0x669
 1383 0666 0C       		.byte	0xc
 1384 0667 00       		.byte	0
 1385 0668 17       		.uleb128 0x17
 1386 0669 09       		.uleb128 0x9
 1387 066a 04       		.byte	0x4
 1388 066b 68060000 		.4byte	0x668
 1389 066f 18       		.uleb128 0x18
 1390 0670 22050000 		.4byte	.LASF108
 1391 0674 02       		.byte	0x2
 1392 0675 AE       		.byte	0xae
 1393 0676 27020000 		.4byte	0x227
 1394 067a 03       		.byte	0x3
ARM GAS  /tmp/ccWUHugI.s 			page 49


 1395 067b 19       		.uleb128 0x19
 1396 067c B0010000 		.4byte	.LASF126
 1397 0680 10       		.byte	0x10
 1398 0681 60       		.byte	0x60
 1399 0682 05010000 		.4byte	0x105
 1400 0686 03       		.byte	0x3
 1401 0687 A3060000 		.4byte	0x6a3
 1402 068b 1A       		.uleb128 0x1a
 1403 068c 747000   		.ascii	"tp\000"
 1404 068f 10       		.byte	0x10
 1405 0690 60       		.byte	0x60
 1406 0691 27020000 		.4byte	0x227
 1407 0695 1B       		.uleb128 0x1b
 1408 0696 72010000 		.4byte	.LASF110
 1409 069a B3060000 		.4byte	0x6b3
 1410 069e B0010000 		.4byte	.LASF126
 1411 06a2 00       		.byte	0
 1412 06a3 15       		.uleb128 0x15
 1413 06a4 ED050000 		.4byte	0x5ed
 1414 06a8 B3060000 		.4byte	0x6b3
 1415 06ac 16       		.uleb128 0x16
 1416 06ad 3A040000 		.4byte	0x43a
 1417 06b1 08       		.byte	0x8
 1418 06b2 00       		.byte	0
 1419 06b3 13       		.uleb128 0x13
 1420 06b4 A3060000 		.4byte	0x6a3
 1421 06b8 18       		.uleb128 0x18
 1422 06b9 CC020000 		.4byte	.LASF109
 1423 06bd 02       		.byte	0x2
 1424 06be BB       		.byte	0xbb
 1425 06bf FA000000 		.4byte	0xfa
 1426 06c3 03       		.byte	0x3
 1427 06c4 1C       		.uleb128 0x1c
 1428 06c5 38050000 		.4byte	.LASF111
 1429 06c9 01       		.byte	0x1
 1430 06ca 42       		.byte	0x42
 1431 06cb 00000000 		.4byte	.LFB242
 1432 06cf 78000000 		.4byte	.LFE242-.LFB242
 1433 06d3 01       		.uleb128 0x1
 1434 06d4 9C       		.byte	0x9c
 1435 06d5 DF070000 		.4byte	0x7df
 1436 06d9 1D       		.uleb128 0x1d
 1437 06da 747000   		.ascii	"tp\000"
 1438 06dd 01       		.byte	0x1
 1439 06de 43       		.byte	0x43
 1440 06df 27020000 		.4byte	0x227
 1441 06e3 00000000 		.4byte	.LLST0
 1442 06e7 1E       		.uleb128 0x1e
 1443 06e8 6D736700 		.ascii	"msg\000"
 1444 06ec 01       		.byte	0x1
 1445 06ed 44       		.byte	0x44
 1446 06ee 05010000 		.4byte	0x105
 1447 06f2 1F       		.uleb128 0x1f
 1448 06f3 B8060000 		.4byte	0x6b8
 1449 06f7 02000000 		.4byte	.LBB16
 1450 06fb 00000000 		.4byte	.Ldebug_ranges0+0
 1451 06ff 01       		.byte	0x1
ARM GAS  /tmp/ccWUHugI.s 			page 50


 1452 0700 49       		.byte	0x49
 1453 0701 15070000 		.4byte	0x715
 1454 0705 20       		.uleb128 0x20
 1455 0706 6F060000 		.4byte	0x66f
 1456 070a 02000000 		.4byte	.LBB18
 1457 070e 18000000 		.4byte	.Ldebug_ranges0+0x18
 1458 0712 02       		.byte	0x2
 1459 0713 BD       		.byte	0xbd
 1460 0714 00       		.byte	0
 1461 0715 21       		.uleb128 0x21
 1462 0716 1C000000 		.4byte	.LVL0
 1463 071a E0080000 		.4byte	0x8e0
 1464 071e 33070000 		.4byte	0x733
 1465 0722 22       		.uleb128 0x22
 1466 0723 01       		.uleb128 0x1
 1467 0724 53       		.byte	0x53
 1468 0725 05       		.uleb128 0x5
 1469 0726 03       		.byte	0x3
 1470 0727 00000000 		.4byte	thread
 1471 072b 22       		.uleb128 0x22
 1472 072c 01       		.uleb128 0x1
 1473 072d 51       		.byte	0x51
 1474 072e 03       		.uleb128 0x3
 1475 072f 0A       		.byte	0xa
 1476 0730 4801     		.2byte	0x148
 1477 0732 00       		.byte	0
 1478 0733 23       		.uleb128 0x23
 1479 0734 24000000 		.4byte	.LVL1
 1480 0738 09090000 		.4byte	0x909
 1481 073c 21       		.uleb128 0x21
 1482 073d 2C000000 		.4byte	.LVL3
 1483 0741 14090000 		.4byte	0x914
 1484 0745 50070000 		.4byte	0x750
 1485 0749 22       		.uleb128 0x22
 1486 074a 01       		.uleb128 0x1
 1487 074b 51       		.byte	0x51
 1488 074c 02       		.uleb128 0x2
 1489 074d 74       		.byte	0x74
 1490 074e 00       		.sleb128 0
 1491 074f 00       		.byte	0
 1492 0750 21       		.uleb128 0x21
 1493 0751 32000000 		.4byte	.LVL4
 1494 0755 2A090000 		.4byte	0x92a
 1495 0759 64070000 		.4byte	0x764
 1496 075d 22       		.uleb128 0x22
 1497 075e 01       		.uleb128 0x1
 1498 075f 50       		.byte	0x50
 1499 0760 02       		.uleb128 0x2
 1500 0761 74       		.byte	0x74
 1501 0762 00       		.sleb128 0
 1502 0763 00       		.byte	0
 1503 0764 23       		.uleb128 0x23
 1504 0765 36000000 		.4byte	.LVL5
 1505 0769 09090000 		.4byte	0x909
 1506 076d 21       		.uleb128 0x21
 1507 076e 3E000000 		.4byte	.LVL7
 1508 0772 14090000 		.4byte	0x914
ARM GAS  /tmp/ccWUHugI.s 			page 51


 1509 0776 81070000 		.4byte	0x781
 1510 077a 22       		.uleb128 0x22
 1511 077b 01       		.uleb128 0x1
 1512 077c 51       		.byte	0x51
 1513 077d 02       		.uleb128 0x2
 1514 077e 74       		.byte	0x74
 1515 077f 00       		.sleb128 0
 1516 0780 00       		.byte	0
 1517 0781 21       		.uleb128 0x21
 1518 0782 44000000 		.4byte	.LVL8
 1519 0786 2A090000 		.4byte	0x92a
 1520 078a 95070000 		.4byte	0x795
 1521 078e 22       		.uleb128 0x22
 1522 078f 01       		.uleb128 0x1
 1523 0790 50       		.byte	0x50
 1524 0791 02       		.uleb128 0x2
 1525 0792 74       		.byte	0x74
 1526 0793 00       		.sleb128 0
 1527 0794 00       		.byte	0
 1528 0795 23       		.uleb128 0x23
 1529 0796 48000000 		.4byte	.LVL9
 1530 079a 09090000 		.4byte	0x909
 1531 079e 21       		.uleb128 0x21
 1532 079f 50000000 		.4byte	.LVL11
 1533 07a3 14090000 		.4byte	0x914
 1534 07a7 B2070000 		.4byte	0x7b2
 1535 07ab 22       		.uleb128 0x22
 1536 07ac 01       		.uleb128 0x1
 1537 07ad 51       		.byte	0x51
 1538 07ae 02       		.uleb128 0x2
 1539 07af 74       		.byte	0x74
 1540 07b0 00       		.sleb128 0
 1541 07b1 00       		.byte	0
 1542 07b2 21       		.uleb128 0x21
 1543 07b3 56000000 		.4byte	.LVL12
 1544 07b7 2A090000 		.4byte	0x92a
 1545 07bb C6070000 		.4byte	0x7c6
 1546 07bf 22       		.uleb128 0x22
 1547 07c0 01       		.uleb128 0x1
 1548 07c1 50       		.byte	0x50
 1549 07c2 02       		.uleb128 0x2
 1550 07c3 74       		.byte	0x74
 1551 07c4 00       		.sleb128 0
 1552 07c5 00       		.byte	0
 1553 07c6 24       		.uleb128 0x24
 1554 07c7 64000000 		.4byte	.LVL13
 1555 07cb 3B090000 		.4byte	0x93b
 1556 07cf 22       		.uleb128 0x22
 1557 07d0 01       		.uleb128 0x1
 1558 07d1 51       		.byte	0x51
 1559 07d2 05       		.uleb128 0x5
 1560 07d3 03       		.byte	0x3
 1561 07d4 00000000 		.4byte	.LC0
 1562 07d8 22       		.uleb128 0x22
 1563 07d9 01       		.uleb128 0x1
 1564 07da 50       		.byte	0x50
 1565 07db 01       		.uleb128 0x1
ARM GAS  /tmp/ccWUHugI.s 			page 52


 1566 07dc 31       		.byte	0x31
 1567 07dd 00       		.byte	0
 1568 07de 00       		.byte	0
 1569 07df 1C       		.uleb128 0x1c
 1570 07e0 46030000 		.4byte	.LASF112
 1571 07e4 01       		.byte	0x1
 1572 07e5 3B       		.byte	0x3b
 1573 07e6 00000000 		.4byte	.LFB241
 1574 07ea 1E000000 		.4byte	.LFE241-.LFB241
 1575 07ee 01       		.uleb128 0x1
 1576 07ef 9C       		.byte	0x9c
 1577 07f0 4D080000 		.4byte	0x84d
 1578 07f4 25       		.uleb128 0x25
 1579 07f5 7000     		.ascii	"p\000"
 1580 07f7 01       		.byte	0x1
 1581 07f8 3B       		.byte	0x3b
 1582 07f9 04030000 		.4byte	0x304
 1583 07fd 29000000 		.4byte	.LLST1
 1584 0801 21       		.uleb128 0x21
 1585 0802 0A000000 		.4byte	.LVL15
 1586 0806 62090000 		.4byte	0x962
 1587 080a 1B080000 		.4byte	0x81b
 1588 080e 22       		.uleb128 0x22
 1589 080f 01       		.uleb128 0x1
 1590 0810 51       		.byte	0x51
 1591 0811 02       		.uleb128 0x2
 1592 0812 08       		.byte	0x8
 1593 0813 41       		.byte	0x41
 1594 0814 22       		.uleb128 0x22
 1595 0815 01       		.uleb128 0x1
 1596 0816 50       		.byte	0x50
 1597 0817 02       		.uleb128 0x2
 1598 0818 74       		.byte	0x74
 1599 0819 00       		.sleb128 0
 1600 081a 00       		.byte	0
 1601 081b 21       		.uleb128 0x21
 1602 081c 12000000 		.4byte	.LVL16
 1603 0820 62090000 		.4byte	0x962
 1604 0824 35080000 		.4byte	0x835
 1605 0828 22       		.uleb128 0x22
 1606 0829 01       		.uleb128 0x1
 1607 082a 51       		.byte	0x51
 1608 082b 02       		.uleb128 0x2
 1609 082c 08       		.byte	0x8
 1610 082d 42       		.byte	0x42
 1611 082e 22       		.uleb128 0x22
 1612 082f 01       		.uleb128 0x1
 1613 0830 50       		.byte	0x50
 1614 0831 02       		.uleb128 0x2
 1615 0832 74       		.byte	0x74
 1616 0833 00       		.sleb128 0
 1617 0834 00       		.byte	0
 1618 0835 24       		.uleb128 0x24
 1619 0836 1E000000 		.4byte	.LVL18
 1620 083a 62090000 		.4byte	0x962
 1621 083e 22       		.uleb128 0x22
 1622 083f 01       		.uleb128 0x1
ARM GAS  /tmp/ccWUHugI.s 			page 53


 1623 0840 51       		.byte	0x51
 1624 0841 02       		.uleb128 0x2
 1625 0842 08       		.byte	0x8
 1626 0843 43       		.byte	0x43
 1627 0844 22       		.uleb128 0x22
 1628 0845 01       		.uleb128 0x1
 1629 0846 50       		.byte	0x50
 1630 0847 03       		.uleb128 0x3
 1631 0848 F3       		.byte	0xf3
 1632 0849 01       		.uleb128 0x1
 1633 084a 50       		.byte	0x50
 1634 084b 00       		.byte	0
 1635 084c 00       		.byte	0
 1636 084d 26       		.uleb128 0x26
 1637 084e 9A000000 		.4byte	.LASF113
 1638 0852 0F       		.byte	0xf
 1639 0853 FA06     		.2byte	0x6fa
 1640 0855 59080000 		.4byte	0x859
 1641 0859 14       		.uleb128 0x14
 1642 085a AD000000 		.4byte	0xad
 1643 085e 27       		.uleb128 0x27
 1644 085f 636800   		.ascii	"ch\000"
 1645 0862 08       		.byte	0x8
 1646 0863 0B02     		.2byte	0x20b
 1647 0865 D3030000 		.4byte	0x3d3
 1648 0869 15       		.uleb128 0x15
 1649 086a 27020000 		.4byte	0x227
 1650 086e 79080000 		.4byte	0x879
 1651 0872 16       		.uleb128 0x16
 1652 0873 3A040000 		.4byte	0x43a
 1653 0877 04       		.byte	0x4
 1654 0878 00       		.byte	0
 1655 0879 28       		.uleb128 0x28
 1656 087a 95030000 		.4byte	.LASF114
 1657 087e 0E       		.byte	0xe
 1658 087f A7       		.byte	0xa7
 1659 0880 69080000 		.4byte	0x869
 1660 0884 15       		.uleb128 0x15
 1661 0885 04030000 		.4byte	0x304
 1662 0889 8F080000 		.4byte	0x88f
 1663 088d 29       		.uleb128 0x29
 1664 088e 00       		.byte	0
 1665 088f 2A       		.uleb128 0x2a
 1666 0890 776100   		.ascii	"wa\000"
 1667 0893 0E       		.byte	0xe
 1668 0894 A9       		.byte	0xa9
 1669 0895 99080000 		.4byte	0x899
 1670 0899 13       		.uleb128 0x13
 1671 089a 84080000 		.4byte	0x884
 1672 089e 2B       		.uleb128 0x2b
 1673 089f A4030000 		.4byte	.LASF115
 1674 08a3 01       		.byte	0x1
 1675 08a4 5A       		.byte	0x5a
 1676 08a5 AF080000 		.4byte	0x8af
 1677 08a9 05       		.uleb128 0x5
 1678 08aa 03       		.byte	0x3
 1679 08ab 00000000 		.4byte	testmsg1
ARM GAS  /tmp/ccWUHugI.s 			page 54


 1680 08af 13       		.uleb128 0x13
 1681 08b0 2B060000 		.4byte	0x62b
 1682 08b4 15       		.uleb128 0x15
 1683 08b5 C4080000 		.4byte	0x8c4
 1684 08b9 C4080000 		.4byte	0x8c4
 1685 08bd 16       		.uleb128 0x16
 1686 08be 3A040000 		.4byte	0x43a
 1687 08c2 01       		.byte	0x1
 1688 08c3 00       		.byte	0
 1689 08c4 09       		.uleb128 0x9
 1690 08c5 04       		.byte	0x4
 1691 08c6 AF080000 		.4byte	0x8af
 1692 08ca 2B       		.uleb128 0x2b
 1693 08cb 63020000 		.4byte	.LASF116
 1694 08cf 01       		.byte	0x1
 1695 08d0 66       		.byte	0x66
 1696 08d1 DB080000 		.4byte	0x8db
 1697 08d5 05       		.uleb128 0x5
 1698 08d6 03       		.byte	0x3
 1699 08d7 00000000 		.4byte	patternmsg
 1700 08db 13       		.uleb128 0x13
 1701 08dc B4080000 		.4byte	0x8b4
 1702 08e0 2C       		.uleb128 0x2c
 1703 08e1 2A020000 		.4byte	.LASF119
 1704 08e5 02       		.byte	0x2
 1705 08e6 89       		.byte	0x89
 1706 08e7 27020000 		.4byte	0x227
 1707 08eb 09090000 		.4byte	0x909
 1708 08ef 0C       		.uleb128 0xc
 1709 08f0 04030000 		.4byte	0x304
 1710 08f4 0C       		.uleb128 0xc
 1711 08f5 2C000000 		.4byte	0x2c
 1712 08f9 0C       		.uleb128 0xc
 1713 08fa FA000000 		.4byte	0xfa
 1714 08fe 0C       		.uleb128 0xc
 1715 08ff 0F060000 		.4byte	0x60f
 1716 0903 0C       		.uleb128 0xc
 1717 0904 04030000 		.4byte	0x304
 1718 0908 00       		.byte	0
 1719 0909 2D       		.uleb128 0x2d
 1720 090a AB040000 		.4byte	.LASF127
 1721 090e 10       		.byte	0x10
 1722 090f 3D       		.byte	0x3d
 1723 0910 27020000 		.4byte	0x227
 1724 0914 2E       		.uleb128 0x2e
 1725 0915 D4030000 		.4byte	.LASF117
 1726 0919 10       		.byte	0x10
 1727 091a 3E       		.byte	0x3e
 1728 091b 2A090000 		.4byte	0x92a
 1729 091f 0C       		.uleb128 0xc
 1730 0920 27020000 		.4byte	0x227
 1731 0924 0C       		.uleb128 0xc
 1732 0925 05010000 		.4byte	0x105
 1733 0929 00       		.byte	0
 1734 092a 2E       		.uleb128 0x2e
 1735 092b E9000000 		.4byte	.LASF118
 1736 092f 0E       		.byte	0xe
ARM GAS  /tmp/ccWUHugI.s 			page 55


 1737 0930 58       		.byte	0x58
 1738 0931 3B090000 		.4byte	0x93b
 1739 0935 0C       		.uleb128 0xc
 1740 0936 ED050000 		.4byte	0x5ed
 1741 093a 00       		.byte	0
 1742 093b 2C       		.uleb128 0x2c
 1743 093c E4020000 		.4byte	.LASF120
 1744 0940 0E       		.byte	0xe
 1745 0941 5B       		.byte	0x5b
 1746 0942 55090000 		.4byte	0x955
 1747 0946 55090000 		.4byte	0x955
 1748 094a 0C       		.uleb128 0xc
 1749 094b 37000000 		.4byte	0x37
 1750 094f 0C       		.uleb128 0xc
 1751 0950 5C090000 		.4byte	0x95c
 1752 0954 00       		.byte	0
 1753 0955 04       		.uleb128 0x4
 1754 0956 01       		.byte	0x1
 1755 0957 02       		.byte	0x2
 1756 0958 5D030000 		.4byte	.LASF121
 1757 095c 09       		.uleb128 0x9
 1758 095d 04       		.byte	0x4
 1759 095e ED050000 		.4byte	0x5ed
 1760 0962 2F       		.uleb128 0x2f
 1761 0963 19010000 		.4byte	.LASF122
 1762 0967 10       		.byte	0x10
 1763 0968 3C       		.byte	0x3c
 1764 0969 05010000 		.4byte	0x105
 1765 096d 0C       		.uleb128 0xc
 1766 096e 27020000 		.4byte	0x227
 1767 0972 0C       		.uleb128 0xc
 1768 0973 05010000 		.4byte	0x105
 1769 0977 00       		.byte	0
 1770 0978 00       		.byte	0
 1771              		.section	.debug_abbrev,"",%progbits
 1772              	.Ldebug_abbrev0:
 1773 0000 01       		.uleb128 0x1
 1774 0001 11       		.uleb128 0x11
 1775 0002 01       		.byte	0x1
 1776 0003 25       		.uleb128 0x25
 1777 0004 0E       		.uleb128 0xe
 1778 0005 13       		.uleb128 0x13
 1779 0006 0B       		.uleb128 0xb
 1780 0007 03       		.uleb128 0x3
 1781 0008 0E       		.uleb128 0xe
 1782 0009 1B       		.uleb128 0x1b
 1783 000a 0E       		.uleb128 0xe
 1784 000b 55       		.uleb128 0x55
 1785 000c 17       		.uleb128 0x17
 1786 000d 11       		.uleb128 0x11
 1787 000e 01       		.uleb128 0x1
 1788 000f 10       		.uleb128 0x10
 1789 0010 17       		.uleb128 0x17
 1790 0011 00       		.byte	0
 1791 0012 00       		.byte	0
 1792 0013 02       		.uleb128 0x2
 1793 0014 24       		.uleb128 0x24
ARM GAS  /tmp/ccWUHugI.s 			page 56


 1794 0015 00       		.byte	0
 1795 0016 0B       		.uleb128 0xb
 1796 0017 0B       		.uleb128 0xb
 1797 0018 3E       		.uleb128 0x3e
 1798 0019 0B       		.uleb128 0xb
 1799 001a 03       		.uleb128 0x3
 1800 001b 08       		.uleb128 0x8
 1801 001c 00       		.byte	0
 1802 001d 00       		.byte	0
 1803 001e 03       		.uleb128 0x3
 1804 001f 16       		.uleb128 0x16
 1805 0020 00       		.byte	0
 1806 0021 03       		.uleb128 0x3
 1807 0022 0E       		.uleb128 0xe
 1808 0023 3A       		.uleb128 0x3a
 1809 0024 0B       		.uleb128 0xb
 1810 0025 3B       		.uleb128 0x3b
 1811 0026 0B       		.uleb128 0xb
 1812 0027 49       		.uleb128 0x49
 1813 0028 13       		.uleb128 0x13
 1814 0029 00       		.byte	0
 1815 002a 00       		.byte	0
 1816 002b 04       		.uleb128 0x4
 1817 002c 24       		.uleb128 0x24
 1818 002d 00       		.byte	0
 1819 002e 0B       		.uleb128 0xb
 1820 002f 0B       		.uleb128 0xb
 1821 0030 3E       		.uleb128 0x3e
 1822 0031 0B       		.uleb128 0xb
 1823 0032 03       		.uleb128 0x3
 1824 0033 0E       		.uleb128 0xe
 1825 0034 00       		.byte	0
 1826 0035 00       		.byte	0
 1827 0036 05       		.uleb128 0x5
 1828 0037 13       		.uleb128 0x13
 1829 0038 01       		.byte	0x1
 1830 0039 03       		.uleb128 0x3
 1831 003a 0E       		.uleb128 0xe
 1832 003b 0B       		.uleb128 0xb
 1833 003c 0B       		.uleb128 0xb
 1834 003d 3A       		.uleb128 0x3a
 1835 003e 0B       		.uleb128 0xb
 1836 003f 3B       		.uleb128 0x3b
 1837 0040 0B       		.uleb128 0xb
 1838 0041 01       		.uleb128 0x1
 1839 0042 13       		.uleb128 0x13
 1840 0043 00       		.byte	0
 1841 0044 00       		.byte	0
 1842 0045 06       		.uleb128 0x6
 1843 0046 0D       		.uleb128 0xd
 1844 0047 00       		.byte	0
 1845 0048 03       		.uleb128 0x3
 1846 0049 0E       		.uleb128 0xe
 1847 004a 3A       		.uleb128 0x3a
 1848 004b 0B       		.uleb128 0xb
 1849 004c 3B       		.uleb128 0x3b
 1850 004d 0B       		.uleb128 0xb
ARM GAS  /tmp/ccWUHugI.s 			page 57


 1851 004e 49       		.uleb128 0x49
 1852 004f 13       		.uleb128 0x13
 1853 0050 38       		.uleb128 0x38
 1854 0051 0B       		.uleb128 0xb
 1855 0052 00       		.byte	0
 1856 0053 00       		.byte	0
 1857 0054 07       		.uleb128 0x7
 1858 0055 0D       		.uleb128 0xd
 1859 0056 00       		.byte	0
 1860 0057 03       		.uleb128 0x3
 1861 0058 08       		.uleb128 0x8
 1862 0059 3A       		.uleb128 0x3a
 1863 005a 0B       		.uleb128 0xb
 1864 005b 3B       		.uleb128 0x3b
 1865 005c 05       		.uleb128 0x5
 1866 005d 49       		.uleb128 0x49
 1867 005e 13       		.uleb128 0x13
 1868 005f 38       		.uleb128 0x38
 1869 0060 0B       		.uleb128 0xb
 1870 0061 00       		.byte	0
 1871 0062 00       		.byte	0
 1872 0063 08       		.uleb128 0x8
 1873 0064 0D       		.uleb128 0xd
 1874 0065 00       		.byte	0
 1875 0066 03       		.uleb128 0x3
 1876 0067 0E       		.uleb128 0xe
 1877 0068 3A       		.uleb128 0x3a
 1878 0069 0B       		.uleb128 0xb
 1879 006a 3B       		.uleb128 0x3b
 1880 006b 05       		.uleb128 0x5
 1881 006c 49       		.uleb128 0x49
 1882 006d 13       		.uleb128 0x13
 1883 006e 38       		.uleb128 0x38
 1884 006f 0B       		.uleb128 0xb
 1885 0070 00       		.byte	0
 1886 0071 00       		.byte	0
 1887 0072 09       		.uleb128 0x9
 1888 0073 0F       		.uleb128 0xf
 1889 0074 00       		.byte	0
 1890 0075 0B       		.uleb128 0xb
 1891 0076 0B       		.uleb128 0xb
 1892 0077 49       		.uleb128 0x49
 1893 0078 13       		.uleb128 0x13
 1894 0079 00       		.byte	0
 1895 007a 00       		.byte	0
 1896 007b 0A       		.uleb128 0xa
 1897 007c 13       		.uleb128 0x13
 1898 007d 01       		.byte	0x1
 1899 007e 03       		.uleb128 0x3
 1900 007f 0E       		.uleb128 0xe
 1901 0080 0B       		.uleb128 0xb
 1902 0081 0B       		.uleb128 0xb
 1903 0082 3A       		.uleb128 0x3a
 1904 0083 0B       		.uleb128 0xb
 1905 0084 3B       		.uleb128 0x3b
 1906 0085 05       		.uleb128 0x5
 1907 0086 01       		.uleb128 0x1
ARM GAS  /tmp/ccWUHugI.s 			page 58


 1908 0087 13       		.uleb128 0x13
 1909 0088 00       		.byte	0
 1910 0089 00       		.byte	0
 1911 008a 0B       		.uleb128 0xb
 1912 008b 15       		.uleb128 0x15
 1913 008c 01       		.byte	0x1
 1914 008d 27       		.uleb128 0x27
 1915 008e 19       		.uleb128 0x19
 1916 008f 01       		.uleb128 0x1
 1917 0090 13       		.uleb128 0x13
 1918 0091 00       		.byte	0
 1919 0092 00       		.byte	0
 1920 0093 0C       		.uleb128 0xc
 1921 0094 05       		.uleb128 0x5
 1922 0095 00       		.byte	0
 1923 0096 49       		.uleb128 0x49
 1924 0097 13       		.uleb128 0x13
 1925 0098 00       		.byte	0
 1926 0099 00       		.byte	0
 1927 009a 0D       		.uleb128 0xd
 1928 009b 0F       		.uleb128 0xf
 1929 009c 00       		.byte	0
 1930 009d 0B       		.uleb128 0xb
 1931 009e 0B       		.uleb128 0xb
 1932 009f 00       		.byte	0
 1933 00a0 00       		.byte	0
 1934 00a1 0E       		.uleb128 0xe
 1935 00a2 13       		.uleb128 0x13
 1936 00a3 01       		.byte	0x1
 1937 00a4 03       		.uleb128 0x3
 1938 00a5 0E       		.uleb128 0xe
 1939 00a6 0B       		.uleb128 0xb
 1940 00a7 05       		.uleb128 0x5
 1941 00a8 3A       		.uleb128 0x3a
 1942 00a9 0B       		.uleb128 0xb
 1943 00aa 3B       		.uleb128 0x3b
 1944 00ab 05       		.uleb128 0x5
 1945 00ac 01       		.uleb128 0x1
 1946 00ad 13       		.uleb128 0x13
 1947 00ae 00       		.byte	0
 1948 00af 00       		.byte	0
 1949 00b0 0F       		.uleb128 0xf
 1950 00b1 0D       		.uleb128 0xd
 1951 00b2 00       		.byte	0
 1952 00b3 03       		.uleb128 0x3
 1953 00b4 08       		.uleb128 0x8
 1954 00b5 3A       		.uleb128 0x3a
 1955 00b6 0B       		.uleb128 0xb
 1956 00b7 3B       		.uleb128 0x3b
 1957 00b8 0B       		.uleb128 0xb
 1958 00b9 49       		.uleb128 0x49
 1959 00ba 13       		.uleb128 0x13
 1960 00bb 38       		.uleb128 0x38
 1961 00bc 0B       		.uleb128 0xb
 1962 00bd 00       		.byte	0
 1963 00be 00       		.byte	0
 1964 00bf 10       		.uleb128 0x10
ARM GAS  /tmp/ccWUHugI.s 			page 59


 1965 00c0 13       		.uleb128 0x13
 1966 00c1 01       		.byte	0x1
 1967 00c2 0B       		.uleb128 0xb
 1968 00c3 0B       		.uleb128 0xb
 1969 00c4 3A       		.uleb128 0x3a
 1970 00c5 0B       		.uleb128 0xb
 1971 00c6 3B       		.uleb128 0x3b
 1972 00c7 0B       		.uleb128 0xb
 1973 00c8 01       		.uleb128 0x1
 1974 00c9 13       		.uleb128 0x13
 1975 00ca 00       		.byte	0
 1976 00cb 00       		.byte	0
 1977 00cc 11       		.uleb128 0x11
 1978 00cd 17       		.uleb128 0x17
 1979 00ce 01       		.byte	0x1
 1980 00cf 0B       		.uleb128 0xb
 1981 00d0 0B       		.uleb128 0xb
 1982 00d1 3A       		.uleb128 0x3a
 1983 00d2 0B       		.uleb128 0xb
 1984 00d3 3B       		.uleb128 0x3b
 1985 00d4 0B       		.uleb128 0xb
 1986 00d5 01       		.uleb128 0x1
 1987 00d6 13       		.uleb128 0x13
 1988 00d7 00       		.byte	0
 1989 00d8 00       		.byte	0
 1990 00d9 12       		.uleb128 0x12
 1991 00da 0D       		.uleb128 0xd
 1992 00db 00       		.byte	0
 1993 00dc 03       		.uleb128 0x3
 1994 00dd 0E       		.uleb128 0xe
 1995 00de 3A       		.uleb128 0x3a
 1996 00df 0B       		.uleb128 0xb
 1997 00e0 3B       		.uleb128 0x3b
 1998 00e1 05       		.uleb128 0x5
 1999 00e2 49       		.uleb128 0x49
 2000 00e3 13       		.uleb128 0x13
 2001 00e4 00       		.byte	0
 2002 00e5 00       		.byte	0
 2003 00e6 13       		.uleb128 0x13
 2004 00e7 26       		.uleb128 0x26
 2005 00e8 00       		.byte	0
 2006 00e9 49       		.uleb128 0x49
 2007 00ea 13       		.uleb128 0x13
 2008 00eb 00       		.byte	0
 2009 00ec 00       		.byte	0
 2010 00ed 14       		.uleb128 0x14
 2011 00ee 35       		.uleb128 0x35
 2012 00ef 00       		.byte	0
 2013 00f0 49       		.uleb128 0x49
 2014 00f1 13       		.uleb128 0x13
 2015 00f2 00       		.byte	0
 2016 00f3 00       		.byte	0
 2017 00f4 15       		.uleb128 0x15
 2018 00f5 01       		.uleb128 0x1
 2019 00f6 01       		.byte	0x1
 2020 00f7 49       		.uleb128 0x49
 2021 00f8 13       		.uleb128 0x13
ARM GAS  /tmp/ccWUHugI.s 			page 60


 2022 00f9 01       		.uleb128 0x1
 2023 00fa 13       		.uleb128 0x13
 2024 00fb 00       		.byte	0
 2025 00fc 00       		.byte	0
 2026 00fd 16       		.uleb128 0x16
 2027 00fe 21       		.uleb128 0x21
 2028 00ff 00       		.byte	0
 2029 0100 49       		.uleb128 0x49
 2030 0101 13       		.uleb128 0x13
 2031 0102 2F       		.uleb128 0x2f
 2032 0103 0B       		.uleb128 0xb
 2033 0104 00       		.byte	0
 2034 0105 00       		.byte	0
 2035 0106 17       		.uleb128 0x17
 2036 0107 15       		.uleb128 0x15
 2037 0108 00       		.byte	0
 2038 0109 27       		.uleb128 0x27
 2039 010a 19       		.uleb128 0x19
 2040 010b 00       		.byte	0
 2041 010c 00       		.byte	0
 2042 010d 18       		.uleb128 0x18
 2043 010e 2E       		.uleb128 0x2e
 2044 010f 00       		.byte	0
 2045 0110 03       		.uleb128 0x3
 2046 0111 0E       		.uleb128 0xe
 2047 0112 3A       		.uleb128 0x3a
 2048 0113 0B       		.uleb128 0xb
 2049 0114 3B       		.uleb128 0x3b
 2050 0115 0B       		.uleb128 0xb
 2051 0116 27       		.uleb128 0x27
 2052 0117 19       		.uleb128 0x19
 2053 0118 49       		.uleb128 0x49
 2054 0119 13       		.uleb128 0x13
 2055 011a 20       		.uleb128 0x20
 2056 011b 0B       		.uleb128 0xb
 2057 011c 00       		.byte	0
 2058 011d 00       		.byte	0
 2059 011e 19       		.uleb128 0x19
 2060 011f 2E       		.uleb128 0x2e
 2061 0120 01       		.byte	0x1
 2062 0121 03       		.uleb128 0x3
 2063 0122 0E       		.uleb128 0xe
 2064 0123 3A       		.uleb128 0x3a
 2065 0124 0B       		.uleb128 0xb
 2066 0125 3B       		.uleb128 0x3b
 2067 0126 0B       		.uleb128 0xb
 2068 0127 27       		.uleb128 0x27
 2069 0128 19       		.uleb128 0x19
 2070 0129 49       		.uleb128 0x49
 2071 012a 13       		.uleb128 0x13
 2072 012b 20       		.uleb128 0x20
 2073 012c 0B       		.uleb128 0xb
 2074 012d 01       		.uleb128 0x1
 2075 012e 13       		.uleb128 0x13
 2076 012f 00       		.byte	0
 2077 0130 00       		.byte	0
 2078 0131 1A       		.uleb128 0x1a
ARM GAS  /tmp/ccWUHugI.s 			page 61


 2079 0132 05       		.uleb128 0x5
 2080 0133 00       		.byte	0
 2081 0134 03       		.uleb128 0x3
 2082 0135 08       		.uleb128 0x8
 2083 0136 3A       		.uleb128 0x3a
 2084 0137 0B       		.uleb128 0xb
 2085 0138 3B       		.uleb128 0x3b
 2086 0139 0B       		.uleb128 0xb
 2087 013a 49       		.uleb128 0x49
 2088 013b 13       		.uleb128 0x13
 2089 013c 00       		.byte	0
 2090 013d 00       		.byte	0
 2091 013e 1B       		.uleb128 0x1b
 2092 013f 34       		.uleb128 0x34
 2093 0140 00       		.byte	0
 2094 0141 03       		.uleb128 0x3
 2095 0142 0E       		.uleb128 0xe
 2096 0143 49       		.uleb128 0x49
 2097 0144 13       		.uleb128 0x13
 2098 0145 34       		.uleb128 0x34
 2099 0146 19       		.uleb128 0x19
 2100 0147 1C       		.uleb128 0x1c
 2101 0148 0E       		.uleb128 0xe
 2102 0149 00       		.byte	0
 2103 014a 00       		.byte	0
 2104 014b 1C       		.uleb128 0x1c
 2105 014c 2E       		.uleb128 0x2e
 2106 014d 01       		.byte	0x1
 2107 014e 03       		.uleb128 0x3
 2108 014f 0E       		.uleb128 0xe
 2109 0150 3A       		.uleb128 0x3a
 2110 0151 0B       		.uleb128 0xb
 2111 0152 3B       		.uleb128 0x3b
 2112 0153 0B       		.uleb128 0xb
 2113 0154 27       		.uleb128 0x27
 2114 0155 19       		.uleb128 0x19
 2115 0156 11       		.uleb128 0x11
 2116 0157 01       		.uleb128 0x1
 2117 0158 12       		.uleb128 0x12
 2118 0159 06       		.uleb128 0x6
 2119 015a 40       		.uleb128 0x40
 2120 015b 18       		.uleb128 0x18
 2121 015c 9742     		.uleb128 0x2117
 2122 015e 19       		.uleb128 0x19
 2123 015f 01       		.uleb128 0x1
 2124 0160 13       		.uleb128 0x13
 2125 0161 00       		.byte	0
 2126 0162 00       		.byte	0
 2127 0163 1D       		.uleb128 0x1d
 2128 0164 34       		.uleb128 0x34
 2129 0165 00       		.byte	0
 2130 0166 03       		.uleb128 0x3
 2131 0167 08       		.uleb128 0x8
 2132 0168 3A       		.uleb128 0x3a
 2133 0169 0B       		.uleb128 0xb
 2134 016a 3B       		.uleb128 0x3b
 2135 016b 0B       		.uleb128 0xb
ARM GAS  /tmp/ccWUHugI.s 			page 62


 2136 016c 49       		.uleb128 0x49
 2137 016d 13       		.uleb128 0x13
 2138 016e 02       		.uleb128 0x2
 2139 016f 17       		.uleb128 0x17
 2140 0170 00       		.byte	0
 2141 0171 00       		.byte	0
 2142 0172 1E       		.uleb128 0x1e
 2143 0173 34       		.uleb128 0x34
 2144 0174 00       		.byte	0
 2145 0175 03       		.uleb128 0x3
 2146 0176 08       		.uleb128 0x8
 2147 0177 3A       		.uleb128 0x3a
 2148 0178 0B       		.uleb128 0xb
 2149 0179 3B       		.uleb128 0x3b
 2150 017a 0B       		.uleb128 0xb
 2151 017b 49       		.uleb128 0x49
 2152 017c 13       		.uleb128 0x13
 2153 017d 00       		.byte	0
 2154 017e 00       		.byte	0
 2155 017f 1F       		.uleb128 0x1f
 2156 0180 1D       		.uleb128 0x1d
 2157 0181 01       		.byte	0x1
 2158 0182 31       		.uleb128 0x31
 2159 0183 13       		.uleb128 0x13
 2160 0184 52       		.uleb128 0x52
 2161 0185 01       		.uleb128 0x1
 2162 0186 55       		.uleb128 0x55
 2163 0187 17       		.uleb128 0x17
 2164 0188 58       		.uleb128 0x58
 2165 0189 0B       		.uleb128 0xb
 2166 018a 59       		.uleb128 0x59
 2167 018b 0B       		.uleb128 0xb
 2168 018c 01       		.uleb128 0x1
 2169 018d 13       		.uleb128 0x13
 2170 018e 00       		.byte	0
 2171 018f 00       		.byte	0
 2172 0190 20       		.uleb128 0x20
 2173 0191 1D       		.uleb128 0x1d
 2174 0192 00       		.byte	0
 2175 0193 31       		.uleb128 0x31
 2176 0194 13       		.uleb128 0x13
 2177 0195 52       		.uleb128 0x52
 2178 0196 01       		.uleb128 0x1
 2179 0197 55       		.uleb128 0x55
 2180 0198 17       		.uleb128 0x17
 2181 0199 58       		.uleb128 0x58
 2182 019a 0B       		.uleb128 0xb
 2183 019b 59       		.uleb128 0x59
 2184 019c 0B       		.uleb128 0xb
 2185 019d 00       		.byte	0
 2186 019e 00       		.byte	0
 2187 019f 21       		.uleb128 0x21
 2188 01a0 898201   		.uleb128 0x4109
 2189 01a3 01       		.byte	0x1
 2190 01a4 11       		.uleb128 0x11
 2191 01a5 01       		.uleb128 0x1
 2192 01a6 31       		.uleb128 0x31
ARM GAS  /tmp/ccWUHugI.s 			page 63


 2193 01a7 13       		.uleb128 0x13
 2194 01a8 01       		.uleb128 0x1
 2195 01a9 13       		.uleb128 0x13
 2196 01aa 00       		.byte	0
 2197 01ab 00       		.byte	0
 2198 01ac 22       		.uleb128 0x22
 2199 01ad 8A8201   		.uleb128 0x410a
 2200 01b0 00       		.byte	0
 2201 01b1 02       		.uleb128 0x2
 2202 01b2 18       		.uleb128 0x18
 2203 01b3 9142     		.uleb128 0x2111
 2204 01b5 18       		.uleb128 0x18
 2205 01b6 00       		.byte	0
 2206 01b7 00       		.byte	0
 2207 01b8 23       		.uleb128 0x23
 2208 01b9 898201   		.uleb128 0x4109
 2209 01bc 00       		.byte	0
 2210 01bd 11       		.uleb128 0x11
 2211 01be 01       		.uleb128 0x1
 2212 01bf 31       		.uleb128 0x31
 2213 01c0 13       		.uleb128 0x13
 2214 01c1 00       		.byte	0
 2215 01c2 00       		.byte	0
 2216 01c3 24       		.uleb128 0x24
 2217 01c4 898201   		.uleb128 0x4109
 2218 01c7 01       		.byte	0x1
 2219 01c8 11       		.uleb128 0x11
 2220 01c9 01       		.uleb128 0x1
 2221 01ca 9542     		.uleb128 0x2115
 2222 01cc 19       		.uleb128 0x19
 2223 01cd 31       		.uleb128 0x31
 2224 01ce 13       		.uleb128 0x13
 2225 01cf 00       		.byte	0
 2226 01d0 00       		.byte	0
 2227 01d1 25       		.uleb128 0x25
 2228 01d2 05       		.uleb128 0x5
 2229 01d3 00       		.byte	0
 2230 01d4 03       		.uleb128 0x3
 2231 01d5 08       		.uleb128 0x8
 2232 01d6 3A       		.uleb128 0x3a
 2233 01d7 0B       		.uleb128 0xb
 2234 01d8 3B       		.uleb128 0x3b
 2235 01d9 0B       		.uleb128 0xb
 2236 01da 49       		.uleb128 0x49
 2237 01db 13       		.uleb128 0x13
 2238 01dc 02       		.uleb128 0x2
 2239 01dd 17       		.uleb128 0x17
 2240 01de 00       		.byte	0
 2241 01df 00       		.byte	0
 2242 01e0 26       		.uleb128 0x26
 2243 01e1 34       		.uleb128 0x34
 2244 01e2 00       		.byte	0
 2245 01e3 03       		.uleb128 0x3
 2246 01e4 0E       		.uleb128 0xe
 2247 01e5 3A       		.uleb128 0x3a
 2248 01e6 0B       		.uleb128 0xb
 2249 01e7 3B       		.uleb128 0x3b
ARM GAS  /tmp/ccWUHugI.s 			page 64


 2250 01e8 05       		.uleb128 0x5
 2251 01e9 49       		.uleb128 0x49
 2252 01ea 13       		.uleb128 0x13
 2253 01eb 3F       		.uleb128 0x3f
 2254 01ec 19       		.uleb128 0x19
 2255 01ed 3C       		.uleb128 0x3c
 2256 01ee 19       		.uleb128 0x19
 2257 01ef 00       		.byte	0
 2258 01f0 00       		.byte	0
 2259 01f1 27       		.uleb128 0x27
 2260 01f2 34       		.uleb128 0x34
 2261 01f3 00       		.byte	0
 2262 01f4 03       		.uleb128 0x3
 2263 01f5 08       		.uleb128 0x8
 2264 01f6 3A       		.uleb128 0x3a
 2265 01f7 0B       		.uleb128 0xb
 2266 01f8 3B       		.uleb128 0x3b
 2267 01f9 05       		.uleb128 0x5
 2268 01fa 49       		.uleb128 0x49
 2269 01fb 13       		.uleb128 0x13
 2270 01fc 3F       		.uleb128 0x3f
 2271 01fd 19       		.uleb128 0x19
 2272 01fe 3C       		.uleb128 0x3c
 2273 01ff 19       		.uleb128 0x19
 2274 0200 00       		.byte	0
 2275 0201 00       		.byte	0
 2276 0202 28       		.uleb128 0x28
 2277 0203 34       		.uleb128 0x34
 2278 0204 00       		.byte	0
 2279 0205 03       		.uleb128 0x3
 2280 0206 0E       		.uleb128 0xe
 2281 0207 3A       		.uleb128 0x3a
 2282 0208 0B       		.uleb128 0xb
 2283 0209 3B       		.uleb128 0x3b
 2284 020a 0B       		.uleb128 0xb
 2285 020b 49       		.uleb128 0x49
 2286 020c 13       		.uleb128 0x13
 2287 020d 3F       		.uleb128 0x3f
 2288 020e 19       		.uleb128 0x19
 2289 020f 3C       		.uleb128 0x3c
 2290 0210 19       		.uleb128 0x19
 2291 0211 00       		.byte	0
 2292 0212 00       		.byte	0
 2293 0213 29       		.uleb128 0x29
 2294 0214 21       		.uleb128 0x21
 2295 0215 00       		.byte	0
 2296 0216 00       		.byte	0
 2297 0217 00       		.byte	0
 2298 0218 2A       		.uleb128 0x2a
 2299 0219 34       		.uleb128 0x34
 2300 021a 00       		.byte	0
 2301 021b 03       		.uleb128 0x3
 2302 021c 08       		.uleb128 0x8
 2303 021d 3A       		.uleb128 0x3a
 2304 021e 0B       		.uleb128 0xb
 2305 021f 3B       		.uleb128 0x3b
 2306 0220 0B       		.uleb128 0xb
ARM GAS  /tmp/ccWUHugI.s 			page 65


 2307 0221 49       		.uleb128 0x49
 2308 0222 13       		.uleb128 0x13
 2309 0223 3F       		.uleb128 0x3f
 2310 0224 19       		.uleb128 0x19
 2311 0225 3C       		.uleb128 0x3c
 2312 0226 19       		.uleb128 0x19
 2313 0227 00       		.byte	0
 2314 0228 00       		.byte	0
 2315 0229 2B       		.uleb128 0x2b
 2316 022a 34       		.uleb128 0x34
 2317 022b 00       		.byte	0
 2318 022c 03       		.uleb128 0x3
 2319 022d 0E       		.uleb128 0xe
 2320 022e 3A       		.uleb128 0x3a
 2321 022f 0B       		.uleb128 0xb
 2322 0230 3B       		.uleb128 0x3b
 2323 0231 0B       		.uleb128 0xb
 2324 0232 49       		.uleb128 0x49
 2325 0233 13       		.uleb128 0x13
 2326 0234 3F       		.uleb128 0x3f
 2327 0235 19       		.uleb128 0x19
 2328 0236 02       		.uleb128 0x2
 2329 0237 18       		.uleb128 0x18
 2330 0238 00       		.byte	0
 2331 0239 00       		.byte	0
 2332 023a 2C       		.uleb128 0x2c
 2333 023b 2E       		.uleb128 0x2e
 2334 023c 01       		.byte	0x1
 2335 023d 3F       		.uleb128 0x3f
 2336 023e 19       		.uleb128 0x19
 2337 023f 03       		.uleb128 0x3
 2338 0240 0E       		.uleb128 0xe
 2339 0241 3A       		.uleb128 0x3a
 2340 0242 0B       		.uleb128 0xb
 2341 0243 3B       		.uleb128 0x3b
 2342 0244 0B       		.uleb128 0xb
 2343 0245 27       		.uleb128 0x27
 2344 0246 19       		.uleb128 0x19
 2345 0247 49       		.uleb128 0x49
 2346 0248 13       		.uleb128 0x13
 2347 0249 3C       		.uleb128 0x3c
 2348 024a 19       		.uleb128 0x19
 2349 024b 01       		.uleb128 0x1
 2350 024c 13       		.uleb128 0x13
 2351 024d 00       		.byte	0
 2352 024e 00       		.byte	0
 2353 024f 2D       		.uleb128 0x2d
 2354 0250 2E       		.uleb128 0x2e
 2355 0251 00       		.byte	0
 2356 0252 3F       		.uleb128 0x3f
 2357 0253 19       		.uleb128 0x19
 2358 0254 03       		.uleb128 0x3
 2359 0255 0E       		.uleb128 0xe
 2360 0256 3A       		.uleb128 0x3a
 2361 0257 0B       		.uleb128 0xb
 2362 0258 3B       		.uleb128 0x3b
 2363 0259 0B       		.uleb128 0xb
ARM GAS  /tmp/ccWUHugI.s 			page 66


 2364 025a 27       		.uleb128 0x27
 2365 025b 19       		.uleb128 0x19
 2366 025c 49       		.uleb128 0x49
 2367 025d 13       		.uleb128 0x13
 2368 025e 3C       		.uleb128 0x3c
 2369 025f 19       		.uleb128 0x19
 2370 0260 00       		.byte	0
 2371 0261 00       		.byte	0
 2372 0262 2E       		.uleb128 0x2e
 2373 0263 2E       		.uleb128 0x2e
 2374 0264 01       		.byte	0x1
 2375 0265 3F       		.uleb128 0x3f
 2376 0266 19       		.uleb128 0x19
 2377 0267 03       		.uleb128 0x3
 2378 0268 0E       		.uleb128 0xe
 2379 0269 3A       		.uleb128 0x3a
 2380 026a 0B       		.uleb128 0xb
 2381 026b 3B       		.uleb128 0x3b
 2382 026c 0B       		.uleb128 0xb
 2383 026d 27       		.uleb128 0x27
 2384 026e 19       		.uleb128 0x19
 2385 026f 3C       		.uleb128 0x3c
 2386 0270 19       		.uleb128 0x19
 2387 0271 01       		.uleb128 0x1
 2388 0272 13       		.uleb128 0x13
 2389 0273 00       		.byte	0
 2390 0274 00       		.byte	0
 2391 0275 2F       		.uleb128 0x2f
 2392 0276 2E       		.uleb128 0x2e
 2393 0277 01       		.byte	0x1
 2394 0278 3F       		.uleb128 0x3f
 2395 0279 19       		.uleb128 0x19
 2396 027a 03       		.uleb128 0x3
 2397 027b 0E       		.uleb128 0xe
 2398 027c 3A       		.uleb128 0x3a
 2399 027d 0B       		.uleb128 0xb
 2400 027e 3B       		.uleb128 0x3b
 2401 027f 0B       		.uleb128 0xb
 2402 0280 27       		.uleb128 0x27
 2403 0281 19       		.uleb128 0x19
 2404 0282 49       		.uleb128 0x49
 2405 0283 13       		.uleb128 0x13
 2406 0284 3C       		.uleb128 0x3c
 2407 0285 19       		.uleb128 0x19
 2408 0286 00       		.byte	0
 2409 0287 00       		.byte	0
 2410 0288 00       		.byte	0
 2411              		.section	.debug_loc,"",%progbits
 2412              	.Ldebug_loc0:
 2413              	.LLST0:
 2414 0000 24000000 		.4byte	.LVL1
 2415 0004 2B000000 		.4byte	.LVL3-1
 2416 0008 0100     		.2byte	0x1
 2417 000a 50       		.byte	0x50
 2418 000b 36000000 		.4byte	.LVL5
 2419 000f 3D000000 		.4byte	.LVL7-1
 2420 0013 0100     		.2byte	0x1
ARM GAS  /tmp/ccWUHugI.s 			page 67


 2421 0015 50       		.byte	0x50
 2422 0016 48000000 		.4byte	.LVL9
 2423 001a 4F000000 		.4byte	.LVL11-1
 2424 001e 0100     		.2byte	0x1
 2425 0020 50       		.byte	0x50
 2426 0021 00000000 		.4byte	0
 2427 0025 00000000 		.4byte	0
 2428              	.LLST1:
 2429 0029 00000000 		.4byte	.LVL14
 2430 002d 09000000 		.4byte	.LVL15-1
 2431 0031 0100     		.2byte	0x1
 2432 0033 50       		.byte	0x50
 2433 0034 09000000 		.4byte	.LVL15-1
 2434 0038 1A000000 		.4byte	.LVL17
 2435 003c 0100     		.2byte	0x1
 2436 003e 54       		.byte	0x54
 2437 003f 1A000000 		.4byte	.LVL17
 2438 0043 1D000000 		.4byte	.LVL18-1
 2439 0047 0100     		.2byte	0x1
 2440 0049 50       		.byte	0x50
 2441 004a 1D000000 		.4byte	.LVL18-1
 2442 004e 1E000000 		.4byte	.LFE241
 2443 0052 0400     		.2byte	0x4
 2444 0054 F3       		.byte	0xf3
 2445 0055 01       		.uleb128 0x1
 2446 0056 50       		.byte	0x50
 2447 0057 9F       		.byte	0x9f
 2448 0058 00000000 		.4byte	0
 2449 005c 00000000 		.4byte	0
 2450              		.section	.debug_aranges,"",%progbits
 2451 0000 24000000 		.4byte	0x24
 2452 0004 0200     		.2byte	0x2
 2453 0006 00000000 		.4byte	.Ldebug_info0
 2454 000a 04       		.byte	0x4
 2455 000b 00       		.byte	0
 2456 000c 0000     		.2byte	0
 2457 000e 0000     		.2byte	0
 2458 0010 00000000 		.4byte	.LFB242
 2459 0014 78000000 		.4byte	.LFE242-.LFB242
 2460 0018 00000000 		.4byte	.LFB241
 2461 001c 1E000000 		.4byte	.LFE241-.LFB241
 2462 0020 00000000 		.4byte	0
 2463 0024 00000000 		.4byte	0
 2464              		.section	.debug_ranges,"",%progbits
 2465              	.Ldebug_ranges0:
 2466 0000 02000000 		.4byte	.LBB16
 2467 0004 04000000 		.4byte	.LBE16
 2468 0008 06000000 		.4byte	.LBB23
 2469 000c 08000000 		.4byte	.LBE23
 2470 0010 00000000 		.4byte	0
 2471 0014 00000000 		.4byte	0
 2472 0018 02000000 		.4byte	.LBB18
 2473 001c 04000000 		.4byte	.LBE18
 2474 0020 06000000 		.4byte	.LBB21
 2475 0024 08000000 		.4byte	.LBE21
 2476 0028 00000000 		.4byte	0
 2477 002c 00000000 		.4byte	0
ARM GAS  /tmp/ccWUHugI.s 			page 68


 2478 0030 00000000 		.4byte	.LFB242
 2479 0034 78000000 		.4byte	.LFE242
 2480 0038 00000000 		.4byte	.LFB241
 2481 003c 1E000000 		.4byte	.LFE241
 2482 0040 00000000 		.4byte	0
 2483 0044 00000000 		.4byte	0
 2484              		.section	.debug_line,"",%progbits
 2485              	.Ldebug_line0:
 2486 0000 30030000 		.section	.debug_str,"MS",%progbits,1
 2486      0200CD02 
 2486      00000201 
 2486      FB0E0D00 
 2486      01010101 
 2487              	.LASF101:
 2488 0000 7466756E 		.ascii	"tfunc_t\000"
 2488      635F7400 
 2489              	.LASF50:
 2490 0008 72656164 		.ascii	"ready_list_t\000"
 2490      795F6C69 
 2490      73745F74 
 2490      00
 2491              	.LASF2:
 2492 0015 73697A65 		.ascii	"size_t\000"
 2492      5F7400
 2493              	.LASF85:
 2494 001c 7264796D 		.ascii	"rdymsg\000"
 2494      736700
 2495              	.LASF17:
 2496 0023 75696E74 		.ascii	"uint64_t\000"
 2496      36345F74 
 2496      00
 2497              	.LASF3:
 2498 002c 5F5F7569 		.ascii	"__uint8_t\000"
 2498      6E74385F 
 2498      7400
 2499              	.LASF82:
 2500 0036 706F7274 		.ascii	"port_intctx\000"
 2500      5F696E74 
 2500      63747800 
 2501              	.LASF69:
 2502 0042 73797374 		.ascii	"system_debug_t\000"
 2502      656D5F64 
 2502      65627567 
 2502      5F7400
 2503              	.LASF13:
 2504 0051 6C6F6E67 		.ascii	"long long unsigned int\000"
 2504      206C6F6E 
 2504      6720756E 
 2504      7369676E 
 2504      65642069 
 2505              	.LASF86:
 2506 0068 65786974 		.ascii	"exitcode\000"
 2506      636F6465 
 2506      00
 2507              	.LASF76:
 2508 0071 6D61696E 		.ascii	"mainthread\000"
 2508      74687265 
ARM GAS  /tmp/ccWUHugI.s 			page 69


 2508      616400
 2509              	.LASF89:
 2510 007c 73656E74 		.ascii	"sentmsg\000"
 2510      6D736700 
 2511              	.LASF66:
 2512 0084 76697274 		.ascii	"virtual_timers_list_t\000"
 2512      75616C5F 
 2512      74696D65 
 2512      72735F6C 
 2512      6973745F 
 2513              	.LASF113:
 2514 009a 49544D5F 		.ascii	"ITM_RxBuffer\000"
 2514      52784275 
 2514      66666572 
 2514      00
 2515              	.LASF49:
 2516 00a7 63685F74 		.ascii	"ch_threads_queue\000"
 2516      68726561 
 2516      64735F71 
 2516      75657565 
 2516      00
 2517              	.LASF30:
 2518 00b8 705F7072 		.ascii	"p_prio\000"
 2518      696F00
 2519              	.LASF11:
 2520 00bf 6C6F6E67 		.ascii	"long long int\000"
 2520      206C6F6E 
 2520      6720696E 
 2520      7400
 2521              	.LASF1:
 2522 00cd 7369676E 		.ascii	"signed char\000"
 2522      65642063 
 2522      68617200 
 2523              	.LASF43:
 2524 00d9 705F6D70 		.ascii	"p_mpool\000"
 2524      6F6F6C00 
 2525              	.LASF97:
 2526 00e1 6D5F7175 		.ascii	"m_queue\000"
 2526      65756500 
 2527              	.LASF118:
 2528 00e9 74657374 		.ascii	"test_emit_token\000"
 2528      5F656D69 
 2528      745F746F 
 2528      6B656E00 
 2529              	.LASF75:
 2530 00f9 76746C69 		.ascii	"vtlist\000"
 2530      737400
 2531              	.LASF88:
 2532 0100 77747472 		.ascii	"wttrp\000"
 2532      7000
 2533              	.LASF73:
 2534 0106 63685F73 		.ascii	"ch_system\000"
 2534      79737465 
 2534      6D00
 2535              	.LASF8:
 2536 0110 6C6F6E67 		.ascii	"long int\000"
 2536      20696E74 
ARM GAS  /tmp/ccWUHugI.s 			page 70


 2536      00
 2537              	.LASF122:
 2538 0119 63684D73 		.ascii	"chMsgSend\000"
 2538      6753656E 
 2538      6400
 2539              	.LASF20:
 2540 0123 74737461 		.ascii	"tstate_t\000"
 2540      74655F74 
 2540      00
 2541              	.LASF32:
 2542 012c 705F6E65 		.ascii	"p_newer\000"
 2542      77657200 
 2543              	.LASF94:
 2544 0134 735F7175 		.ascii	"s_queue\000"
 2544      65756500 
 2545              	.LASF55:
 2546 013c 725F6E65 		.ascii	"r_newer\000"
 2546      77657200 
 2547              	.LASF79:
 2548 0144 72656761 		.ascii	"regarm_t\000"
 2548      726D5F74 
 2548      00
 2549              	.LASF62:
 2550 014d 76745F70 		.ascii	"vt_prev\000"
 2550      72657600 
 2551              	.LASF102:
 2552 0155 6D757465 		.ascii	"mutex_t\000"
 2552      785F7400 
 2553              	.LASF77:
 2554 015d 69646C65 		.ascii	"idle_thread_wa\000"
 2554      5F746872 
 2554      6561645F 
 2554      776100
 2555              	.LASF25:
 2556 016c 636E745F 		.ascii	"cnt_t\000"
 2556      7400
 2557              	.LASF110:
 2558 0172 5F5F6675 		.ascii	"__func__.6140\000"
 2558      6E635F5F 
 2558      2E363134 
 2558      3000
 2559              	.LASF0:
 2560 0180 756E7369 		.ascii	"unsigned int\000"
 2560      676E6564 
 2560      20696E74 
 2560      00
 2561              	.LASF61:
 2562 018d 76745F6E 		.ascii	"vt_next\000"
 2562      65787400 
 2563              	.LASF90:
 2564 0195 77747365 		.ascii	"wtsemp\000"
 2564      6D7000
 2565              	.LASF39:
 2566 019c 705F6D73 		.ascii	"p_msgqueue\000"
 2566      67717565 
 2566      756500
 2567              	.LASF106:
ARM GAS  /tmp/ccWUHugI.s 			page 71


 2568 01a7 74656172 		.ascii	"teardown\000"
 2568      646F776E 
 2568      00
 2569              	.LASF126:
 2570 01b0 63684D73 		.ascii	"chMsgGet\000"
 2570      67476574 
 2570      00
 2571              	.LASF104:
 2572 01b9 6E616D65 		.ascii	"name\000"
 2572      00
 2573              	.LASF95:
 2574 01be 735F636E 		.ascii	"s_cnt\000"
 2574      7400
 2575              	.LASF6:
 2576 01c4 73686F72 		.ascii	"short unsigned int\000"
 2576      7420756E 
 2576      7369676E 
 2576      65642069 
 2576      6E7400
 2577              	.LASF46:
 2578 01d7 63685F74 		.ascii	"ch_thread\000"
 2578      68726561 
 2578      6400
 2579              	.LASF23:
 2580 01e1 6D73675F 		.ascii	"msg_t\000"
 2580      7400
 2581              	.LASF72:
 2582 01e7 63685F73 		.ascii	"ch_system_t\000"
 2582      79737465 
 2582      6D5F7400 
 2583              	.LASF19:
 2584 01f3 746D6F64 		.ascii	"tmode_t\000"
 2584      655F7400 
 2585              	.LASF51:
 2586 01fb 63685F72 		.ascii	"ch_ready_list\000"
 2586      65616479 
 2586      5F6C6973 
 2586      7400
 2587              	.LASF24:
 2588 0209 6576656E 		.ascii	"eventmask_t\000"
 2588      746D6173 
 2588      6B5F7400 
 2589              	.LASF7:
 2590 0215 5F5F696E 		.ascii	"__int32_t\000"
 2590      7433325F 
 2590      7400
 2591              	.LASF80:
 2592 021f 73746B61 		.ascii	"stkalign_t\000"
 2592      6C69676E 
 2592      5F7400
 2593              	.LASF119:
 2594 022a 63685468 		.ascii	"chThdCreateStatic\000"
 2594      64437265 
 2594      61746553 
 2594      74617469 
 2594      6300
 2595              	.LASF38:
ARM GAS  /tmp/ccWUHugI.s 			page 72


 2596 023c 705F7761 		.ascii	"p_waiting\000"
 2596      6974696E 
 2596      6700
 2597              	.LASF124:
 2598 0246 2E2E2F43 		.ascii	"../ChibiOS/test/rt/testmsg.c\000"
 2598      68696269 
 2598      4F532F74 
 2598      6573742F 
 2598      72742F74 
 2599              	.LASF116:
 2600 0263 70617474 		.ascii	"patternmsg\000"
 2600      65726E6D 
 2600      736700
 2601              	.LASF78:
 2602 026e 73697A65 		.ascii	"sizetype\000"
 2602      74797065 
 2602      00
 2603              	.LASF44:
 2604 0277 74687265 		.ascii	"thread_reference_t\000"
 2604      61645F72 
 2604      65666572 
 2604      656E6365 
 2604      5F7400
 2605              	.LASF67:
 2606 028a 63685F76 		.ascii	"ch_virtual_timers_list\000"
 2606      69727475 
 2606      616C5F74 
 2606      696D6572 
 2606      735F6C69 
 2607              	.LASF84:
 2608 02a1 746D5F63 		.ascii	"tm_calibration_t\000"
 2608      616C6962 
 2608      72617469 
 2608      6F6E5F74 
 2608      00
 2609              	.LASF68:
 2610 02b2 76745F6C 		.ascii	"vt_lasttime\000"
 2610      61737474 
 2610      696D6500 
 2611              	.LASF33:
 2612 02be 705F6F6C 		.ascii	"p_older\000"
 2612      64657200 
 2613              	.LASF54:
 2614 02c6 725F6374 		.ascii	"r_ctx\000"
 2614      7800
 2615              	.LASF109:
 2616 02cc 63685468 		.ascii	"chThdGetPriorityX\000"
 2616      64476574 
 2616      5072696F 
 2616      72697479 
 2616      5800
 2617              	.LASF105:
 2618 02de 73657475 		.ascii	"setup\000"
 2618      7000
 2619              	.LASF120:
 2620 02e4 5F746573 		.ascii	"_test_assert_sequence\000"
 2620      745F6173 
ARM GAS  /tmp/ccWUHugI.s 			page 73


 2620      73657274 
 2620      5F736571 
 2620      75656E63 
 2621              	.LASF57:
 2622 02fa 725F6375 		.ascii	"r_current\000"
 2622      7272656E 
 2622      7400
 2623              	.LASF56:
 2624 0304 725F6F6C 		.ascii	"r_older\000"
 2624      64657200 
 2625              	.LASF12:
 2626 030c 5F5F7569 		.ascii	"__uint64_t\000"
 2626      6E743634 
 2626      5F7400
 2627              	.LASF21:
 2628 0317 74726566 		.ascii	"trefs_t\000"
 2628      735F7400 
 2629              	.LASF59:
 2630 031f 76697274 		.ascii	"virtual_timer_t\000"
 2630      75616C5F 
 2630      74696D65 
 2630      725F7400 
 2631              	.LASF29:
 2632 032f 705F7072 		.ascii	"p_prev\000"
 2632      657600
 2633              	.LASF107:
 2634 0336 65786563 		.ascii	"execute\000"
 2634      75746500 
 2635              	.LASF22:
 2636 033e 74707269 		.ascii	"tprio_t\000"
 2636      6F5F7400 
 2637              	.LASF112:
 2638 0346 74687265 		.ascii	"thread\000"
 2638      616400
 2639              	.LASF70:
 2640 034d 63685F73 		.ascii	"ch_system_debug\000"
 2640      79737465 
 2640      6D5F6465 
 2640      62756700 
 2641              	.LASF121:
 2642 035d 5F426F6F 		.ascii	"_Bool\000"
 2642      6C00
 2643              	.LASF15:
 2644 0363 696E7433 		.ascii	"int32_t\000"
 2644      325F7400 
 2645              	.LASF4:
 2646 036b 756E7369 		.ascii	"unsigned char\000"
 2646      676E6564 
 2646      20636861 
 2646      7200
 2647              	.LASF41:
 2648 0379 705F6D74 		.ascii	"p_mtxlist\000"
 2648      786C6973 
 2648      7400
 2649              	.LASF5:
 2650 0383 73686F72 		.ascii	"short int\000"
 2650      7420696E 
ARM GAS  /tmp/ccWUHugI.s 			page 74


 2650      7400
 2651              	.LASF35:
 2652 038d 705F7374 		.ascii	"p_state\000"
 2652      61746500 
 2653              	.LASF114:
 2654 0395 74687265 		.ascii	"threads\000"
 2654      61647300 
 2655              	.LASF53:
 2656 039d 725F7072 		.ascii	"r_prio\000"
 2656      696F00
 2657              	.LASF115:
 2658 03a4 74657374 		.ascii	"testmsg1\000"
 2658      6D736731 
 2658      00
 2659              	.LASF92:
 2660 03ad 65776D61 		.ascii	"ewmask\000"
 2660      736B00
 2661              	.LASF28:
 2662 03b4 705F6E65 		.ascii	"p_next\000"
 2662      787400
 2663              	.LASF36:
 2664 03bb 705F666C 		.ascii	"p_flags\000"
 2664      61677300 
 2665              	.LASF60:
 2666 03c3 63685F76 		.ascii	"ch_virtual_timer\000"
 2666      69727475 
 2666      616C5F74 
 2666      696D6572 
 2666      00
 2667              	.LASF117:
 2668 03d4 63684D73 		.ascii	"chMsgRelease\000"
 2668      6752656C 
 2668      65617365 
 2668      00
 2669              	.LASF103:
 2670 03e1 74657374 		.ascii	"testcase\000"
 2670      63617365 
 2670      00
 2671              	.LASF93:
 2672 03ea 63685F73 		.ascii	"ch_semaphore\000"
 2672      656D6170 
 2672      686F7265 
 2672      00
 2673              	.LASF40:
 2674 03f7 705F6570 		.ascii	"p_epending\000"
 2674      656E6469 
 2674      6E6700
 2675              	.LASF16:
 2676 0402 75696E74 		.ascii	"uint32_t\000"
 2676      33325F74 
 2676      00
 2677              	.LASF91:
 2678 040b 77746D74 		.ascii	"wtmtxp\000"
 2678      787000
 2679              	.LASF52:
 2680 0412 725F7175 		.ascii	"r_queue\000"
 2680      65756500 
ARM GAS  /tmp/ccWUHugI.s 			page 75


 2681              	.LASF63:
 2682 041a 76745F64 		.ascii	"vt_delta\000"
 2682      656C7461 
 2682      00
 2683              	.LASF47:
 2684 0423 63685F74 		.ascii	"ch_threads_list\000"
 2684      68726561 
 2684      64735F6C 
 2684      69737400 
 2685              	.LASF10:
 2686 0433 6C6F6E67 		.ascii	"long unsigned int\000"
 2686      20756E73 
 2686      69676E65 
 2686      6420696E 
 2686      7400
 2687              	.LASF100:
 2688 0445 63686172 		.ascii	"char\000"
 2688      00
 2689              	.LASF27:
 2690 044a 74687265 		.ascii	"thread_t\000"
 2690      61645F74 
 2690      00
 2691              	.LASF99:
 2692 0453 6D5F6E65 		.ascii	"m_next\000"
 2692      787400
 2693              	.LASF26:
 2694 045a 73797374 		.ascii	"systime_t\000"
 2694      696D655F 
 2694      7400
 2695              	.LASF42:
 2696 0464 705F7265 		.ascii	"p_realprio\000"
 2696      616C7072 
 2696      696F00
 2697              	.LASF58:
 2698 046f 76746675 		.ascii	"vtfunc_t\000"
 2698      6E635F74 
 2698      00
 2699              	.LASF9:
 2700 0478 5F5F7569 		.ascii	"__uint32_t\000"
 2700      6E743332 
 2700      5F7400
 2701              	.LASF71:
 2702 0483 70616E69 		.ascii	"panic_msg\000"
 2702      635F6D73 
 2702      6700
 2703              	.LASF83:
 2704 048d 6F666673 		.ascii	"offset\000"
 2704      657400
 2705              	.LASF81:
 2706 0494 636F6E74 		.ascii	"context\000"
 2706      65787400 
 2707              	.LASF18:
 2708 049c 7274636E 		.ascii	"rtcnt_t\000"
 2708      745F7400 
 2709              	.LASF65:
 2710 04a4 76745F70 		.ascii	"vt_par\000"
 2710      617200
ARM GAS  /tmp/ccWUHugI.s 			page 76


 2711              	.LASF127:
 2712 04ab 63684D73 		.ascii	"chMsgWait\000"
 2712      67576169 
 2712      7400
 2713              	.LASF125:
 2714 04b5 2F6E6673 		.ascii	"/nfs/nfs4/home/galexeev/classes/P442WifiTrailCounte"
 2714      2F6E6673 
 2714      342F686F 
 2714      6D652F67 
 2714      616C6578 
 2715 04e8 7250726F 		.ascii	"rProject/milestone1\000"
 2715      6A656374 
 2715      2F6D696C 
 2715      6573746F 
 2715      6E653100 
 2716              	.LASF48:
 2717 04fc 74687265 		.ascii	"threads_queue_t\000"
 2717      6164735F 
 2717      71756575 
 2717      655F7400 
 2718              	.LASF96:
 2719 050c 63685F6D 		.ascii	"ch_mutex\000"
 2719      75746578 
 2719      00
 2720              	.LASF37:
 2721 0515 705F7265 		.ascii	"p_refs\000"
 2721      667300
 2722              	.LASF74:
 2723 051c 726C6973 		.ascii	"rlist\000"
 2723      7400
 2724              	.LASF108:
 2725 0522 63685468 		.ascii	"chThdGetSelfX\000"
 2725      64476574 
 2725      53656C66 
 2725      5800
 2726              	.LASF14:
 2727 0530 75696E74 		.ascii	"uint8_t\000"
 2727      385F7400 
 2728              	.LASF111:
 2729 0538 6D736731 		.ascii	"msg1_execute\000"
 2729      5F657865 
 2729      63757465 
 2729      00
 2730              	.LASF123:
 2731 0545 474E5520 		.ascii	"GNU C 4.8.4 20140526 (release) [ARM/embedded-4_8-br"
 2731      4320342E 
 2731      382E3420 
 2731      32303134 
 2731      30353236 
 2732 0578 616E6368 		.ascii	"anch revision 211358] -mcpu=cortex-m4 -mno-thumb-in"
 2732      20726576 
 2732      6973696F 
 2732      6E203231 
 2732      31333538 
 2733 05ab 74657277 		.ascii	"terwork -mthumb -ggdb -O2 -fomit-frame-pointer -fal"
 2733      6F726B20 
 2733      2D6D7468 
ARM GAS  /tmp/ccWUHugI.s 			page 77


 2733      756D6220 
 2733      2D676764 
 2734 05de 69676E2D 		.ascii	"ign-functions=16 -ffunction-sections -fdata-section"
 2734      66756E63 
 2734      74696F6E 
 2734      733D3136 
 2734      202D6666 
 2735 0611 73202D66 		.ascii	"s -fno-common -flto\000"
 2735      6E6F2D63 
 2735      6F6D6D6F 
 2735      6E202D66 
 2735      6C746F00 
 2736              	.LASF87:
 2737 0625 77746F62 		.ascii	"wtobjp\000"
 2737      6A7000
 2738              	.LASF34:
 2739 062c 705F6E61 		.ascii	"p_name\000"
 2739      6D6500
 2740              	.LASF45:
 2741 0633 74687265 		.ascii	"threads_list_t\000"
 2741      6164735F 
 2741      6C697374 
 2741      5F7400
 2742              	.LASF98:
 2743 0642 6D5F6F77 		.ascii	"m_owner\000"
 2743      6E657200 
 2744              	.LASF31:
 2745 064a 705F6374 		.ascii	"p_ctx\000"
 2745      7800
 2746              	.LASF64:
 2747 0650 76745F66 		.ascii	"vt_func\000"
 2747      756E6300 
 2748              		.comm	__gnu_lto_v1,1,1
 2749              		.ident	"GCC: (GNU Tools for ARM Embedded Processors) 4.8.4 20140526 (release) [ARM/embedded-4_8-br
ARM GAS  /tmp/ccWUHugI.s 			page 78


DEFINED SYMBOLS
                            *ABS*:00000000 testmsg.c
     /tmp/ccWUHugI.s:400    .text.msg1_execute:00000000 $t
     /tmp/ccWUHugI.s:405    .text.msg1_execute:00000000 msg1_execute
     /tmp/ccWUHugI.s:509    .text.msg1_execute:00000064 $d
     /tmp/ccWUHugI.s:523    .text.thread:00000000 thread
     /tmp/ccWUHugI.s:518    .text.thread:00000000 $t
     /tmp/ccWUHugI.s:579    .rodata.patternmsg:00000000 patternmsg
     /tmp/ccWUHugI.s:564    .rodata.testmsg1:00000000 testmsg1
     /tmp/ccWUHugI.s:561    .rodata.testmsg1:00000000 $d
     /tmp/ccWUHugI.s:570    .rodata.str1.4:00000000 $d
     /tmp/ccWUHugI.s:576    .rodata.patternmsg:00000000 $d
                            *COM*:00000001 __gnu_lto_v1
                     .debug_frame:00000010 $d
     /tmp/ccWUHugI.s:517    .text.msg1_execute:00000078 $t

UNDEFINED SYMBOLS
chThdCreateStatic
chMsgWait
chMsgRelease
test_emit_token
_test_assert_sequence
ch
wa
threads
chMsgSend
