ARM GAS  /tmp/cckNTQpJ.s 			page 1


   1              		.syntax unified
   2              		.cpu cortex-m4
   3              		.fpu softvfp
   4              		.eabi_attribute 20, 1
   5              		.eabi_attribute 21, 1
   6              		.eabi_attribute 23, 3
   7              		.eabi_attribute 24, 1
   8              		.eabi_attribute 25, 1
   9              		.eabi_attribute 26, 1
  10              		.eabi_attribute 30, 2
  11              		.eabi_attribute 34, 1
  12              		.eabi_attribute 18, 4
  13              		.thumb
  14              		.file	"testsys.c"
  15              		.text
  16              	.Ltext0:
  17              		.section	.gnu.lto_.jmpfuncs.b1f5df989439ef9a,"",%progbits
  18 0000 789C6D8E 		.ascii	"x\234m\216;\022\200 \014D7\013:\216\215\036\317\336"
  18      3B128020 
  18      0C44370B 
  18      3A8E8D1E 
  18      CFDE
  19 0012 8A0BD8D8 		.ascii	"\212\013\330\330PzA/ceH\360S@\206yK\262\331\201 Z\347"
  19      507A412F 
  19      636548F0 
  19      53408679 
  19      4BB2D981 
  20 0029 ACEC01D1 		.ascii	"\254\354\001\321\0028\305\240\330\000\2058\350\010\012"
  20      0238C5A0 
  20      D8008538 
  20      E8080A
  21 0038 7987E422 		.ascii	"y\207\344\"\311w \246e\004\242\272Mk\237;\256|\3449"
  21      C97720A6 
  21      6504A2BA 
  21      4D6B9F3B 
  21      AE7CE439 
  22 004c 0957B3F9 		.ascii	"\011W\263\371\250$H\275\261\256b\300\023\030\213\261"
  22      A82448BD 
  22      B1AE62C0 
  22      13188BB1 
  23 005c 7B9FE1CB 		.ascii	"{\237\341\313\267pW\374u\211\306_L\337U\005\020\301"
  23      B77057FC 
  23      7589C65F 
  23      4CDF5505 
  23      10C1
  24              		.text
  25              		.section	.gnu.lto_.inline.b1f5df989439ef9a,"",%progbits
  26 0000 789C6362 		.ascii	"x\234cb`b\300\006\230\030!4\033\003\003\027'#\003\023"
  26      6062C006 
  26      98182134 
  26      1B030317 
  26      27230313 
  27 0014 DF865C06 		.ascii	"\337\206\\\006\266\005\362`\305\214\014\3342@!\216\003"
  27      B605F260 
  27      C58C0CDC 
  27      3240218E 
  27      03
ARM GAS  /tmp/cckNTQpJ.s 			page 2


  28 0025 76702126 		.ascii	"vp!&n\240\360\004?\020\0054\220\027$\315\332\241\316"
  28      6EA0F004 
  28      3F100534 
  28      901724CD 
  28      DAA1CE
  29 0038 C0DEA10E 		.ascii	"\300\336\241\016\226f\345c``\231\340\007\201P\265\314"
  29      9666E563 
  29      606099E0 
  29      078150B5 
  29      CC
  30 0049 22261F80 		.ascii	"\"&\037\200F1\331\034\330\312\0147\207\205\027\244\037"
  30      4631D91C 
  30      D8CA0C37 
  30      878517A4 
  30      1F
  31 005a AA06A20D 		.ascii	"\252\006\242\015\303x$6\013\003\217,\320\010\266\017"
  31      C3782436 
  31      0B038F2C 
  31      D008B60F 
  32 006a 7A701398 		.ascii	"zp\023\230y@:A$\310\034V\006\015C\240\002\271\025\025"
  32      79403A41 
  32      24C81C56 
  32      060D43A0 
  32      02B91515 
  33 007e 08D77321 		.ascii	"\010\327s!\331\003Q\215\217\307\000\000\217\350\032"
  33      D903518D 
  33      8FC70000 
  33      8FE81A
  34 008d 6B       		.ascii	"k"
  35              		.text
  36              		.section	.gnu.lto_.pureconst.b1f5df989439ef9a,"",%progbits
  37 0000 789C6362 		.ascii	"x\234cb`b\340e\200\0006\006+F+&If+\026+V+\000\011_\001"
  37      6062E065 
  37      80003606 
  37      2B462B26 
  37      49662B16 
  38 001b 62       		.ascii	"b"
  39              		.text
  40              		.section	.gnu.lto_sys2_execute.b1f5df989439ef9a,"",%progbits
  41 0000 789CAD53 		.ascii	"x\234\255SAh\323`\024~\357O\353:\206\340IPX\033\007"
  41      4168D360 
  41      147EEF4F 
  41      EB3A86E0 
  41      4950581B 
  42 0015 C24049BC 		.ascii	"\302@I\274yU\012\302\300\"\254\023\364$Y\026h`]K\222"
  42      79550AC2 
  42      C022AC13 
  42      F4245916 
  42      68605D4B 
  43 002a 8EEDB474 		.ascii	"\216\355\264t-\250u\207Y<((:+\212ETP\030xY\006;l;\024"
  43      2DA87587 
  43      593C2828 
  43      3A2B8A45 
  43      54501878 
  44 0044 F5E0B978 		.ascii	"\365\340\271x\021/\342<8&\203\372\376\244MS\313\272"
  44      112FE23C 
  44      382683FA 
ARM GAS  /tmp/cckNTQpJ.s 			page 3


  44      FEA44D53 
  44      CBBA
  45 0056 0DFCE1E5 		.ascii	"\015\374\341\345\275\344\275\367\177\357}\037a\300\340"
  45      BDE4BDF7 
  45      7FEF7D1F 
  45      61C0E0
  46 0065 DF7382EC 		.ascii	"\337s\202\354x\010\340#y\024\000\331b\015 \037a\210"
  46      7808E023 
  46      791400D9 
  46      620D201F 
  46      6188
  47 0077 3C008439 		.ascii	"<\000\2049\206s\327\321\255}\303\234z\243\361\372\313"
  47      8673D7D1 
  47      AD7DC39C 
  47      7AA3F1FA 
  47      CB
  48 0088 CD670FF1 		.ascii	"\315g\017\3611;J_\302P\264\355E\021@u+\306\350\311\333"
  48      313B4A5F 
  48      C250B4ED 
  48      45114075 
  48      2BC6E8C9 
  49 009d AE22E35E 		.ascii	"\256\"\343^\330\200\371\010\300\020,\331v\271~wgm\025"
  49      D880F908 
  49      C0102CD9 
  49      76B97E77 
  49      676D15
  50 00b0 CB057BDD 		.ascii	"\313\005{\335.:\215\006\306t\244q.#o\275\206:\242\350"
  50      2E3A8D06 
  50      C674A471 
  50      2E236FBD 
  50      863AA2E8 
  51 00c4 3A16EA9C 		.ascii	":\026\352\234\217\177\003\002\200\032\314oU\013\357"
  51      8F7F0302 
  51      801ACC6F 
  51      550BEF
  52 00d3 16041FD3 		.ascii	"\026\004\037\323\013\234\312fI\030V\360)\016\371\003"
  52      0B9CCA66 
  52      491856F0 
  52      290EF903 
  53 00e3 392FEE95 		.ascii	"9/\356\225\006b\376\333\306o\232K\301%\014\023\030\007"
  53      0662FEDB 
  53      C66F9A4B 
  53      C1250C13 
  53      1807
  54 00f5 646402B8 		.ascii	"dd\002\270\353!T($^\004\217\234(\274\307G\366\375\013"
  54      EB215428 
  54      245E048F 
  54      9C28BCC7 
  54      47F6FD0B 
  55 0109 BA57E0C3 		.ascii	"\272W\340\303\267\363\313\315|s\320\032\344\267\252"
  55      B7F3CBCD 
  55      7C73D01A 
  55      E4B7AA
  56 0118 956F27BB 		.ascii	"\225o'\273\306\372\\\022b\034\366\271\013\333\254FX"
  56      C6FA5C12 
  56      621CF6B9 
  56      0BDBAC46 
ARM GAS  /tmp/cckNTQpJ.s 			page 4


  56      58
  57 0129 C19E3715 		.ascii	"\301\2367\025~t\337\364\353\2260\034X\355{\177{\265"
  57      7E74DFF4 
  57      EB96301C 
  57      58ED7B7F 
  57      7BB5
  58 013b DBDB81D5 		.ascii	"\333\333\201\325\270\035!\353ka\255\357\211\265\237"
  58      B81D21EB 
  58      6B61ADEF 
  58      89B59F
  59 014a 320A565C 		.ascii	"2\012V\\\226\376\2134\313=\244\331>\2004\012\276\244"
  59      96FE8B34 
  59      CB3DA4D9 
  59      3E80340A 
  59      BEA4
  60 015c A04B0A05 		.ascii	"\240K\012\005_a\364\200\"|\330C\004\005\337\266\356"
  60      5F61F480 
  60      227CD843 
  60      0405DFB6 
  60      EE
  61 016d 0852E2EC 		.ascii	"\010R\342\354|\255\263\007\266S|b\357\022#x\030F\240"
  61      7CADB307 
  61      B6537C62 
  61      EF122378 
  61      1846A0
  62 0180 27237FEE 		.ascii	"'#\177\356pFV;\031\251\016D\333\212\356\006\030\211"
  62      7046563B 
  62      19A90E44 
  62      DB8AEE06 
  62      1889
  63 0192 90F5F766 		.ascii	"\220\365\367f\004\016\311\310\346\202\307\310\332\376"
  63      040EC9C8 
  63      E682C7C8 
  63      DAFE
  64 01a0 8C7C82FC 		.ascii	"\214|\202\374\317\362J\310\033\246u\306H&\372\267y\355"
  64      CFF24AC8 
  64      1BA675C6 
  64      4826FAB7 
  64      79ED
  65 01b2 A024C9F1 		.ascii	"\240$\311\361\224>\256_I\312\226fZ\262a\271\336\234"
  65      943EAE5F 
  65      49CA9666 
  65      5AB261B9 
  65      DE9C
  66 01c4 352515CE 		.ascii	"5%\025\316\004\262\031\223\347\262\031\3032\345\213"
  66      04B21993 
  66      E7B219C3 
  66      32E58B
  67 01d3 A3897862 		.ascii	"\243\211xbFVSj\306\320nL\237OK)\010O+\2239M\352\354"
  67      4656536A 
  67      C6D06E4C 
  67      9F4F4B29 
  67      084F2B93 
  68 01eb D0662C39 		.ascii	"\320f,9\236H\216$e}J\235\314Mh\262\333\241\246/\345"
  68      9E488E24 
  68      657D4A9D 
  68      CC4D68B2 
ARM GAS  /tmp/cckNTQpJ.s 			page 5


  68      DBA1A62F 
  69 0200 A6546A3A 		.ascii	"\246Tj:\325\005\340\327\245\370\010)8\226H\216\212\343"
  69      D505E0D7 
  69      A5F80829 
  69      3896488E 
  69      8AE3
  70 0212 8AA9650D 		.ascii	"\212\251e\015\375\254x\372\0340\003\372\322Z:c\314B"
  70      FDAC78FA 
  70      1C3003FA 
  70      D25A3A63 
  70      CC42
  71 0224 44CD9ABA 		.ascii	"D\315\232\272&\352^0A\301_\367\3278\010"
  71      26EA5E30 
  71      41C15FF7 
  71      D73808
  72              		.text
  73              		.section	.gnu.lto_vtcb.b1f5df989439ef9a,"",%progbits
  74 0000 789CBD54 		.ascii	"x\234\275TMh\023Q\020\236y\333\244\021\011\344hA\303"
  74      4D681351 
  74      109E79DB 
  74      A41109E4 
  74      6841C3
  75 0013 AA786ABB 		.ascii	"\252xj\273\353\315\253\022\020<\004\245\251\240'\331"
  75      EBCDAB12 
  75      103C04A5 
  75      A9A027D9 
  76 0023 3E17B3D0 		.ascii	">\027\263\3204ewSZ<\3645\315\241\322\022\202x\260\210"
  76      34657753 
  76      5A3CF435 
  76      CDA1D212 
  76      8278B088 
  77 0037 D0A0D28B 		.ascii	"\320\240\322\213X\241\007\213?M\210\364 B\245W\021\211"
  77      58A1078B 
  77      3F4D88F4 
  77      2042A557 
  77      1189
  78 0049 78F620DE 		.ascii	"x\366 \336J1\316\333M\266I\033l\016\342\013\2237\363"
  78      4A31CEDB 
  78      4DB6491B 
  78      6C0EE20B 
  78      9337F3
  79 005c DECCFBE6 		.ascii	"\336\314\373\346\233\031\226\001\203\203k\200\244\330"
  79      9B199601 
  79      83836B80 
  79      A4D8
  80 006a 0750A31D 		.ascii	"\007P\243\035\025@V\332\006\230\2130D\251\000\302,\303"
  80      154056DA 
  80      06988B30 
  80      44A900C2 
  80      2CC3
  81 007c D99B285D 		.ascii	"\331\233(]\361\014\224\205\270_\337zT\034\020+\371\222"
  81      F10C9485 
  81      B85FDF7A 
  81      541C102B 
  81      F992
  82 008e F8DD68A0 		.ascii	"\370\335h\240\205\364\250\212\300\021n\220\201\252\267"
  82      85F4A88A 
ARM GAS  /tmp/cckNTQpJ.s 			page 6


  82      C0116E90 
  82      81AAB7
  83 009d B1BE4E94 		.ascii	"\261\276N\2245V\2557\032_~\024\277\236\300h\030\014"
  83      3556AD37 
  83      1A5F7E14 
  83      BF9EC068 
  83      180C
  84 00af 2CD363B4 		.ascii	",\323c\264BP\020\242\244\266l\356\341\214\322\277\004"
  84      425010A2 
  84      A4B66CEE 
  84      E18CD2BF 
  84      04
  85 00c0 BF8E4CEE 		.ascii	"\277\216L\356\312\007\310G\000\232\340\313\337\336\016"
  85      CA07C847 
  85      009AE0CB 
  85      DFDE0E
  86 00cf 2D8B6A61 		.ascii	"-\213jaE\354\021:A)\014\256\035\005/\317\024\225\224"
  86      45EC113A 
  86      41290CAE 
  86      1D052FCF 
  86      149594
  87 00e2 6DC8FF7C 		.ascii	"m\310\377|1\277\276\2444\201[\031T\327k\2731f\340S/"
  87      31BFBEA4 
  87      34815B19 
  87      54D76BBB 
  87      3166E053 
  88 00f7 0DFF4CAC 		.ascii	"\015\377L\254VN\006\367\257\036,E\207\003\353\343\273"
  88      564E06F7 
  88      AF1E2C45 
  88      8703EBE3 
  88      BB
  89 0108 4120124F 		.ascii	"A \022O0D\300\022\234\221($\036.\322o\225L*\266\342"
  89      3044C012 
  89      9C912824 
  89      1E2ED26F 
  89      954C2AB6 
  90 011d 573C0E1B 		.ascii	"W<\016\033\370X<\274h\371\016A:\373\367o\232\367!?\341"
  90      F8583CBC 
  90      68F90E41 
  90      3AFBF76F 
  90      9AF7213F 
  91 0132 4ECAE5CD 		.ascii	"N\312\345\315\003\224\015|\346A\036\311\031\376\312"
  91      03940D7C 
  91      E6411EC9 
  91      19FECA
  92 0141 F9F39EE4 		.ascii	"\371\363\236\344\374\262\235\363\257J\274\215\363\353"
  92      FCB29DF3 
  92      AF4ABC8D 
  92      F3EB
  93 014f A81E588B 		.ascii	"\250\036X\213\233\303\373\234\245\204I\372\273p6\360"
  93      9BC3FB9C 
  93      A58449FA 
  93      BB7036F0 
  94 015f 3929017C 		.ascii	"9)\001|\213\243\201k\030\357\306\356PC{f\327KG7z\354"
  94      8BA3816B 
  94      18EFC6EE 
  94      50437B66 
ARM GAS  /tmp/cckNTQpJ.s 			page 7


  94      D74B4737 
  95 0175 68A5C78E 		.ascii	"h\245\307\216\266\261S\273\263\373\004\363\365\205\357"
  95      B6B153BB 
  95      B3FB04F3 
  95      F585EF
  96 0184 E83F7607 		.ascii	"\350?v\007\303waW,\210\230\205a\216\021\317\303\242"
  96      C3776157 
  96      2C889885 
  96      618E11CF 
  96      C3A2
  97 0196 BA511198 		.ascii	"\272Q\021\230\357\342\017?9\312\320B\375\336\373\343"
  97      EFE20F3F 
  97      39CAD042 
  97      FDDEFBE3 
  98 01a6 FE394010 		.ascii	"\3769@\020\031\341x\314\213$/K\252\377s>j=\316\307\326"
  98      19E178CC 
  98      8B242F4B 
  98      AAFF733E 
  98      6A3DCEC7 
  99 01bb 4EE85F0D 		.ascii	"N\350_\015\310\016\314\325\027\317\266\312\340\257Q"
  99      C80ECCD5 
  99      17CFB6CA 
  99      E0AF51
 100 01ca 6A0B7D0D 		.ascii	"j\013}\015\244\353)M\323\023ik\314\272\232\322]\323"
 100      A4EB294D 
 100      D313696B 
 100      CCBA9AD2 
 100      5DD3
 101 01dc 7175DBF5 		.ascii	"qu\333\365vg\306\3218(\244\014\266yd\035y?\231\265]"
 101      7667C6D1 
 101      3828A40C 
 101      B679641D 
 101      793F99B5 
 102 01f1 47BF3492 		.ascii	"G\2774\222L$\247u\236\346Y\333\2745u!\243\245!4e\214"
 102      4C24A775 
 102      9EE659DB 
 102      BC357521 
 102      A3A52134 
 103 0207 E74CAD33 		.ascii	"\347L\2553\302\234v\365D2u%\245[\023|<w\333\324\275"
 103      C29C76F5 
 103      44327525 
 103      A55B137C 
 103      3C77DBD4 
 104 021c 089EB99C 		.ascii	"\010\236\271\234\233\340\024t\372\020@\340\227\226i"
 104      9BE01474 
 104      FA1040E0 
 104      979669
 105 022b A421964C 		.ascii	"\244!\226L\215\250c\206cN\332\326\220z\356<0\033\372"
 105      8DA86386 
 105      634EDAD6 
 105      907AEE3C 
 105      301BFA
 106 023e 3366266B 		.ascii	"3f&k\317\300\037.\203P\013"
 106      CFC01F2E 
 106      83500B
 107              		.text
 108              		.section	.gnu.lto_chVTSetI.b1f5df989439ef9a,"",%progbits
ARM GAS  /tmp/cckNTQpJ.s 			page 8


 109 0000 789C7D52 		.ascii	"x\234}R1K\034A\030}of\366<N\013\333\024\302a \345-\330"
 109      314B1C41 
 109      187D6F66 
 109      F63C4E0B 
 109      DB14C261 
 110 0018 5BE507A4 		.ascii	"[\345\007\244\210\202\226\233U\356\026r\032\314i\223"
 110      8882969B 
 110      55EE1672 
 110      1ACC6993 
 111 0028 C2B9E344 		.ascii	"\302\271\343D\313\303\"\202g\304S\264SI M\270\200\246"
 111      CBC32282 
 111      67C453B4 
 111      5349204D 
 111      B880A6
 112 003b 8A8511EB 		.ascii	"\212\205\021\353H\330>\011\251R(\222\3137\273^\342Y"
 112      48D83E09 
 112      A9522892 
 112      CB37BB5E 
 112      E259
 113 004d 38B0DF37 		.ascii	"8\260\3377\337\354{o\336\3671\012\012w\327\210|\327"
 113      DFEC7B6F 
 113      DEF7310A 
 113      0A77D788 
 113      7CD7
 114 005f 041E49A6 		.ascii	"\004\036I\246\007\252\306\027\240\232UJ7Gas\346\367"
 114      07AAC617 
 114      A09A554A 
 114      37476173 
 114      E6F7
 115 0071 20EC80A6 		.ascii	" \354\200\246I\217\015\3516 \026\2256\\\234d\"r\250"
 115      498F0DE9 
 115      36201695 
 115      365C9C64 
 115      2272A8
 116 0084 8EE24EE7 		.ascii	"\216\342N\347\340\335\267\366\005/U\277b\2310\022\350"
 116      E0DDB7F6 
 116      052F55BF 
 116      62993012 
 116      E8
 117 0095 49501909 		.ascii	"IP\031\011:\213(\301z\250[\333\310\003aR\216It\212\343"
 117      3A8B28C1 
 117      7AA85BDB 
 117      C8036152 
 117      8E49748A 
 118 00aa 542EEB13 		.ascii	"T.\353\023\324\262\3000Z\326\256\036\275\335|\375\300"
 118      D4B2C030 
 118      5AD6AE1E 
 118      BDDD7CFD 
 118      C0
 119 00bb 6ED51AF6 		.ascii	"n\325\032\366O\247\303\210\002yH\307\233\220B\345\223"
 119      4FA7C388 
 119      027948C7 
 119      9B9042E5 
 119      93
 120 00cc A44D6F3B 		.ascii	"\244Mo;E\001\341\004\237D\244L\023p\233\303rz\212\332"
 120      4501E104 
 120      9F44A44C 
ARM GAS  /tmp/cckNTQpJ.s 			page 9


 120      13709BC3 
 120      727A8ADA 
 121 00e0 87A5EFEF 		.ascii	"\207\245\357\357K\356\177\266\211\365\252\265\203\021"
 121      4BEE7FB6 
 121      89F5AAB5 
 121      8311
 122 00ee 8D809D06 		.ascii	"\215\200\235\006\007R\256\334\035\267\177\346\3769L"
 122      0752AEDC 
 122      1DB77FE6 
 122      FE394C
 123 00fd 37F6577B 		.ascii	"7\366W{\250\253\023\260%3\012\231X/\323\223+\022\332"
 123      A8AB13B0 
 123      25330A99 
 123      582FD393 
 123      2B12DA
 124 0110 7FCB5FD7 		.ascii	"\177\313_\327z-\007\334\021G\302\270\307\263\010\001"
 124      7A2D07DC 
 124      1147C2B8 
 124      C7B30801 
 125 0120 9F51FF71 		.ascii	"\237Q\377q|\271\256\003\356J)6\035\262\0078N\215\346"
 125      7CB9AE03 
 125      EE4A2936 
 125      1DB20738 
 125      4E8DE6
 126 0133 A83E433D 		.ascii	"\250>C=\376\270\237Kq\300+\\\331\025\327\215\027R\005"
 126      FEB89F4B 
 126      71C02B5C 
 126      D915D78D 
 126      175205
 127 0146 DC4B0EDD 		.ascii	"\334K\016\335\030\"f\272<\223\214\366\014\313\361\306"
 127      182266BA 
 127      3C938CF6 
 127      0CCBF1C6 
 128 0156 615FDAC3 		.ascii	"a_\332\303-b_(\3027\244\242\033\212Wd&\242\364t\216"
 128      2D625F28 
 128      C237A4A2 
 128      1B8A5764 
 128      26A2F474 
 129 016b 6AFCC6EF 		.ascii	"j\374\306\357\022\3225&\315\213\232{H\371B\301\177\\"
 129      12D23526 
 129      CD8B9A7B 
 129      48F942C1 
 129      7F5C
 130 017d 8A9E454F 		.ascii	"\212\236EO\236\372\263/\375\271\212\037\315\204\317"
 130      9EFAB32F 
 130      FDB98A1F 
 130      CD84CF
 131 018c E7A7A6FD 		.ascii	"\347\247\246\375\260\264P)\224\240\027*/\376\002\365"
 131      B0B45029 
 131      94A0172A 
 131      2FFE02F5 
 132 019c 418731   		.ascii	"A\2071"
 133              		.text
 134              		.section	.gnu.lto_sys1_execute.b1f5df989439ef9a,"",%progbits
 135 0000 789CCD58 		.ascii	"x\234\315XYLTW\030>\377\231\3552\013\340V\024\021\251"
 135      594C5457 
 135      183EFF99 
ARM GAS  /tmp/cckNTQpJ.s 			page 10


 135      ED320BE0 
 135      561411A9 
 136 0014 6963130D 		.ascii	"ic\023\015\3236M\332\227&mL\232\364\2014\021M\332\247"
 136      D3364DDA 
 136      97266D4C 
 136      9AF48134 
 136      114DDAA7 
 137 0028 E63A4E61 		.ascii	"\346:NaRF\3100\020m\037\274,U\214\326\242\021\213\240"
 137      5246C830 
 137      106D1FBC 
 137      2C558CD6 
 137      A2118BA0 
 138 003c 0255016B 		.ascii	"\002U\001k\255iiU\224\310\000\005\024\013\264\011\326"
 138      AD696955 
 138      94C80005 
 138      140BB409 
 138      D6
 139 004d B5752A31 		.ascii	"\265u*1>`S\264iM\324\224\376\347\234;\37303\212Nz\223"
 139      3E6053B4 
 139      694DD494 
 139      FEE79C3B 
 139      FB30338A 
 140 0064 B9E7CE7F 		.ascii	"\271\347\316\177\266\177\371\276\377,\224P\022\3764"
 140      B67FF9BE 
 140      FF2C9450 
 140      12FE34
 141 0073 E3AF3D83 		.ascii	"\343\257=\203\220\005@\010\244\022\240\265#\204TH\224"
 141      90054008 
 141      A412A0B5 
 141      23845448 
 141      94
 142 0084 6A6A9612 		.ascii	"jj\226\022\305\250eo\263\006\264B\254\245:.\326s\261"
 142      C5A8656F 
 142      B306B442 
 142      ACA53A2E 
 142      D673B1
 143 0097 0EF442AC 		.ascii	"\016\364B\254\247\006.\226\270\330\000\222\020K4\205"
 143      A7062E96 
 143      B8D80092 
 143      104B3485 
 144 00a7 8B8D5C9C 		.ascii	"\213\215\\\234\002F!6R\363\230\025\305\246\256l\024"
 144      02462136 
 144      52F39815 
 144      C5A6AE6C 
 144      14
 145 00b8 9BC022C4 		.ascii	"\233\300\"\304f\337\207\005\200}\020 \033\251F\253\323"
 145      66DF8705 
 145      807D1020 
 145      1BA946AB 
 145      D3
 146 00c9 1BA414A3 		.ascii	"\033\244\024\243\311l\201\215\357\001\323X\277\204\264"
 146      C96C818D 
 146      EF01D358 
 146      BF84B4
 147 00d8 28CA4E6F 		.ascii	"(\312No\377\270\027\366(\236\352f\345\341\324\024\200"
 147      FFB817F6 
 147      289EEA66 
ARM GAS  /tmp/cckNTQpJ.s 			page 11


 147      E5E1D414 
 147      80
 148 00e9 03D0BA1C 		.ascii	"\003\320\272\034 6 \357\342\037\310\341\005\325\206"
 148      203620EF 
 148      E21FC8E1 
 148      05D586
 149 00f8 9ACBFA7A 		.ascii	"\232\313\372zj=M\003u\2404W\326*\377bW\007h(y.\320\263"
 149      6A3D4D03 
 149      75A03457 
 149      D62AFF62 
 149      57076828 
 150 0110 5994746E 		.ascii	"Y\224tndW\234\266\351\217\357\263B\247\225\341\013\240"
 150      64579CB6 
 150      E98FEFB3 
 150      42A795E1 
 150      0BA0
 151 0122 09CCABEC 		.ascii	"\011\314\253\354T\276U\224\024\336Q\363?\355w\214z\274"
 151      54BE5594 
 151      14DE51F3 
 151      3FED778C 
 151      7ABC
 152 0134 53535F37 		.ascii	"SS_7l:\330\005{\351\313Z\354\324\002K\210\244\226\363"
 152      6C3AD805 
 152      7BE9CB5A 
 152      ECD4024B 
 152      88A496F3 
 153 0148 8803B419 		.ascii	"\210\003\264\031\354\225\211\222C(Y\210e+\226YX\266"
 153      EC958992 
 153      43285988 
 153      652B9659 
 153      58B6
 154 015a 61B908CB 		.ascii	"a\271\010\313v,\263\261\221n1k\211\243\352H\265\242"
 154      762CB3B1 
 154      916E316B 
 154      89A3EA48 
 154      B5A2
 155 016c D4E68831 		.ascii	"\324\346\2101d8\200o\302\024\301g\025\276Y\264W\243"
 155      6438806F 
 155      C214C167 
 155      15BE59B4 
 155      57A3
 156 017e 6A586A46 		.ascii	"jXjFI\225\267a\034d8\014:R\000\332\217\311}\245FIw\200"
 156      4995B761 
 156      1C64380C 
 156      3A5200DA 
 156      8FC97DA5 
 157 0196 DE06BC03 		.ascii	"\336\006\274\003\016i \344\034\241\242\211\030\263\200"
 157      0E6920E4 
 157      1CA1A289 
 157      18B380
 158 01a5 4D334AAA 		.ascii	"M3J\252\275\215}&!'\304\337S\262\201\300=\266r@\012"
 158      BD8D7D26 
 158      2127C4DF 
 158      53B281C0 
 158      3DB67240 
 159 01ba EB5C2905 		.ascii	"\353\\)\005\342\371{\327\362\220x\032)\311\217\007#"
 159      E2F97BD7 
ARM GAS  /tmp/cckNTQpJ.s 			page 12


 159      F290781A 
 159      29C98F07 
 159      23
 160 01cb 2633E6E0 		.ascii	"&3\346\340\307\010\251\274\323Y\325\261M\243\232\350"
 160      C708A9BC 
 160      D359D5B1 
 160      4DA39AE8 
 161 01db B3D5D3DD 		.ascii	"\263\325\323\335{?\035U\374\212\233\252\312\306wu\231"
 161      7B3F1D55 
 161      FC8A9BAA 
 161      CAC67775 
 161      99
 162 01ec B2FCFFB6 		.ascii	"\262\374\377\266\214\242=BY\033h\360\247\305\037S\034"
 162      8CA23D42 
 162      591B68F0 
 162      A7C51F53 
 162      1C
 163 01fd 810FE44B 		.ascii	"\201\017\344K\024\241\326\032A\331lr\032\366)\365o8"
 163      14A1D61A 
 163      41D96C72 
 163      1AF629F5 
 163      6F38
 164 020f C014327D 		.ascii	"\300\0242}\240\376\214Zo\026\012276\005\334(%\352FI"
 164      A0FE8C5A 
 164      6F160A32 
 164      373605DC 
 164      2825EA46 
 165 0224 B8B13DB6 		.ascii	"\270\261=\266\033\245(nl9\023\346F\031\216\306\205\033"
 165      1BA5286E 
 165      6C3913E6 
 165      46198EC6 
 165      851B
 166 0236 3784C4F4 		.ascii	"7\204\304\364\343\225\207\314\217\235\241~\2340e\373"
 166      E39587CC 
 166      8F9DA17E 
 166      9C3065FB 
 167 0246 51E5179F 		.ascii	"Q\345\027\237\033\013r\250\236p\210\031\242\370T\206"
 167      1B0B72A8 
 167      9E708819 
 167      A2F85486 
 168 0256 0EFCF04F 		.ascii	"\016\374\360O\355\363\241\014\307![\2505B*\356t\216"
 168      EDF3A10C 
 168      C7215BA8 
 168      35422AEE 
 168      748E
 169 0268 1FF16B23 		.ascii	"\037\361k#l\364\\\275\021\226q\020*\003\020\017+\001"
 169      6CF45CBD 
 169      11967110 
 169      2A03100F 
 169      2B01
 170 027a 53EE4EA4 		.ascii	"S\356N\244\006q\341P\250I#\026k\244I[\177\331a\010\330"
 170      0671E150 
 170      A8492316 
 170      6BA4495B 
 170      7FD96108 
 171 028f 24099B52 		.ascii	"$\011\233RD!\224G\223\207\303\240\362\233\012\005\213"
 171      44219447 
ARM GAS  /tmp/cckNTQpJ.s 			page 13


 171      9387C3A0 
 171      F29B0A05 
 171      8B
 172 02a0 0856266F 		.ascii	"\010V&o\207\301\232\344&\311\320\303\343\335\313\343"
 172      87C19AE4 
 172      26C9D0C3 
 172      E3DDCBE3 
 173 02b0 9D296A46 		.ascii	"\235)jF\037^\301\212~^!\364\022\362\372\376\216\007"
 173      1F5EC18A 
 173      7E5E21F4 
 173      12F2FAFE 
 173      8E07
 174 02c2 E8FD41AC 		.ascii	"\350\375A\254P}\260\247q\367\202\240\314\351O*R\014"
 174      507DB0A7 
 174      71F782A0 
 174      CCE94F2A 
 174      520C
 175 02d4 0FF069CE 		.ascii	"\017\360i\316\222\037n\365\354k\324\210\321P\304Z\246"
 175      921F6EF5 
 175      EC6BD488 
 175      D150C45A 
 175      A6
 176 02e5 06375B8D 		.ascii	"\0067[\215v\324,\325\304ag\302\260J\204\236\303\323"
 176      76D42CD5 
 176      C46167C2 
 176      B04A849E 
 176      C3D3
 177 02f7 D253E93E 		.ascii	"\322S\351>\236\315<?\030\223\236AP\012\246c\020\224"
 177      9ECD3C3F 
 177      18939E41 
 177      500AA663 
 177      1094
 178 0309 84615A9E 		.ascii	"\204aZ\236\333\022\206\225\014}qm\234\016V\255\011\300"
 178      DB128695 
 178      0C7D716D 
 178      9C0E56AD 
 178      09C0
 179 031b EAFC23C0 		.ascii	"\352\374#\300J\206!\374(\200\205\3410\032\343h\271\300"
 179      4A8621FC 
 179      288085E1 
 179      301AE368 
 179      B9C0
 180 032d 61B43018 		.ascii	"a\2640\030F\027yEk$\214.\363\212\037}=\030\"*,B\214"
 180      46177945 
 180      6B248C2E 
 180      F38A1F7D 
 180      3D18222A 
 181 0344 822878D0 		.ascii	"\202(x\320%\033\017\327\342\342\341\362\023\301\203"
 181      251B0FD7 
 181      E2E2E1F2 
 181      13C183
 182 0353 9EE32199 		.ascii	"\236\343!\231\011t<\201\004\272\345\342\223J\240\311"
 182      09743C81 
 182      04BAE5E2 
 182      934AA0C9 
 183 0363 8CD9C4F4 		.ascii	"\214\331\304\364K\354\271k\011,\261\361c\226\024\336"
 183      4BECB96B 
ARM GAS  /tmp/cckNTQpJ.s 			page 14


 183      092CB1F1 
 183      639614DE 
 184 0373 B6859A71 		.ascii	"\266\205\232q\333\362Z\224\345\340\327o\202xk\022\021"
 184      DBF25A94 
 184      E5E0D76F 
 184      82786B12 
 184      11
 185 0384 8AC3DB2C 		.ascii	"\212\303\333,?\013U\336\336\345,\374\213\2630+\230\267"
 185      3F0B55DE 
 185      DEE52CFC 
 185      8BB3302B 
 185      98B7
 186 0396 7FF38AB6 		.ascii	"\177\363\212\266`\336~r\272\017+\356\005\322\377\205"
 186      60DE7E72 
 186      BA0F2BEE 
 186      05D2FF85 
 187 03a6 69D2BF29 		.ascii	"i\322\277)f\372\317bd\257\276\335s\271Q\035\015EQ\350"
 187      66FACF62 
 187      64AFBEDD 
 187      73B9511D 
 187      0D4551E8 
 188 03ba 6E88A4FB 		.ascii	"n\210\244\373\323%\305\203\370\244PN\234x\2019\363\336"
 188      D325C583 
 188      F8A4504E 
 188      9C788139 
 188      F3DE
 189 03cc CC49218C 		.ascii	"\314I!\214\224\222\267\024\264'\000\251\363\217\001"
 189      9492B714 
 189      B42700A9 
 189      F38F01
 190 03db A945E190 		.ascii	"\251E\341\220\252\242\0149\325t\211\250\014@j\023\257"
 190      AAA20C39 
 190      D57489A8 
 190      0C406A13 
 190      AF
 191 03ec 688F8454 		.ascii	"h\217\204T\015\257\270\017j\017\206\016\266\02401\012"
 191      0DAFB80F 
 191      6A0F860E 
 191      B6143031 
 191      0A
 192 03fd A2602325 		.ascii	"\242`#%\331\330\330J\023\306\006\323\372\211`\303\350"
 192      D9D8D84A 
 192      13C606D3 
 192      FA8960C3 
 192      E8
 193 040e 5B16266F 		.ascii	"[\026&o\2348\250n\336\235\200[\360\217\034\220&\316"
 193      9C38A86E 
 193      DE9D805B 
 193      F08F1C90 
 193      26CE
 194 0420 4DBE6D79 		.ascii	"M\276myh\212\255\373\354B\037\354\254R\316*\325\036"
 194      688AADFB 
 194      EC421FEC 
 194      AC52CE2A 
 194      D51E
 195 0432 74C6626C 		.ascii	"t\306blNI\025\215\2675u\262\243\3000\251<Y?\321C#\222"
 195      4E49158D 
ARM GAS  /tmp/cckNTQpJ.s 			page 15


 195      B73575B2 
 195      A3C030A9 
 195      3C593FD1 
 196 0449 CDF51D3A 		.ascii	"\315\365\035:\031vq7\370\360\301O\027\215\244\241Ba"
 196      19767137 
 196      F8F0C14F 
 196      178DA4A1 
 196      4261
 197 045b 27827476 		.ascii	"'\202tv6\340_i\276C\035\237f\226\331\367\225\036\256"
 197      36E05F69 
 197      BE431D9F 
 197      6696D9F7 
 197      951EAE
 198 046e A9A77160 		.ascii	"\251\247q`{p\002\301\216u4^\314\3044\236\251M\226\330"
 198      7B7002C1 
 198      8E75345E 
 198      CCC4349E 
 198      A94D96D8 
 199 0482 6E081F7C 		.ascii	"n\010\037|6%\233\343\372\200\311fC\330H!\007\347tJ>"
 199      36259BE3 
 199      FA80C966 
 199      43D84821 
 199      07E7744A 
 200 0497 8D3B8C38 		.ascii	"\215;\2148&\011\035u6\260$\244\340\034Jv%\244\340\234"
 200      26091D75 
 200      36B024A4 
 200      E01C4A76 
 200      25A4E09C 
 201 04ab 88883FE5 		.ascii	"\210\210?\345E\365\000\235vQ=\274\377RZ\224<r\275\005"
 201      45F5009D 
 201      76513DBC 
 201      FF525A94 
 201      3C72BD05 
 202 04bf 69DD4259 		.ascii	"i\335BYh\366\363\367^\376n\010\301O\252\340\310\343"
 202      68F6F3F7 
 202      5EFE6E08 
 202      C14FAAE0 
 202      C8E3
 203 04d1 2FC5A364 		.ascii	"/\305\243d\363\344P\333?W\221\034\3554\344x:\327\306"
 203      F3E450DB 
 203      3F57911C 
 203      ED34E478 
 203      3AD7C6
 204 04e4 B071980B 		.ascii	"\260q\230\013U\304xo\376\371\023\204CF\2157k!\205\204"
 204      55C4786F 
 204      FEF91384 
 204      43468D37 
 204      6B218584 
 205 04f8 4AF5B303 		.ascii	"J\365\263\003\346%\367h{,~\242A\237_Ic~h\237y\246\301"
 205      E625F768 
 205      7B2C7EA2 
 205      419F5F49 
 205      637E689F 
 206 050f E3FD6465 		.ascii	"\343\375de\247;\342x\377\214M\260U8\310\210~\310\010"
 206      A73BE278 
 206      FF8C4DB0 
 206      5538C888 
ARM GAS  /tmp/cckNTQpJ.s 			page 16


 206      7EC808
 207 0522 BA1F50F1 		.ascii	"\272\037P\361\3330`\256\255\250Q\246\2466>\032u\353"
 207      DB3060AE 
 207      ADA851A6 
 207      A6363E1A 
 207      75EB
 208 0534 0623E2C0 		.ascii	"\006#\342\300\006\357\225X\016\302X\236\344>H&\300O"
 208      06EF9558 
 208      0EC2589E 
 208      E43E4826 
 208      C04F
 209 0546 C502F81E 		.ascii	"\305\002\370\036\213?\004\252\341M\015\3332\024\257"
 209      8B3F04AA 
 209      E14D0DDB 
 209      3214AF
 210 0555 E223AE96 		.ascii	"\342#\256\226\222\372 \342JB\027 a\217/\223\336|\311"
 210      92FA20E2 
 210      4A421720 
 210      618F2F93 
 210      DE7CC9
 211 0568 67A28F08 		.ascii	"g\242\217\010\263fJ\004\314\332\247\372\217\354\337"
 211      B3664A04 
 211      CCDAA7FA 
 211      8FECDF
 212 0577 7E34936D 		.ascii	"~4\223m\260\262\303s\262\267\377\356\374h\310OS\357"
 212      B0B2C373 
 212      B2B7FFEE 
 212      FC68C84F 
 212      53EF
 213 0589 87D81A33 		.ascii	"\207\330\03234\330\272L\206n\312\326\030\352d\327B!"
 213      34D8BA4C 
 213      866ECAD6 
 213      18EA64D7 
 213      4221
 214 059b B9EAEAE7 		.ascii	"\271\352\352\347\273\0379S;\331\025\3210\251\272Tu\353"
 214      BB1F3953 
 214      3BD915D1 
 214      30A9BA54 
 214      75EB
 215 05ad 58B8E795 		.ascii	"X\270\347\225\211\357p=\031T\335\320\315\221<\233u*"
 215      89EF703D 
 215      1954DDD0 
 215      CD913C9B 
 215      752A
 216 05bf 80C56841 		.ascii	"\200\305hA\320rAE\265\014\036\352\3378$\215\216C\011"
 216      D0724145 
 216      B50C1EEA 
 216      DF38248D 
 216      8E4309
 217 05d2 D1B1D112 		.ascii	"\321\261\321\0220bFt\3048v\365q\200\210\233\272y\350"
 217      30624674 
 217      C43876F5 
 217      7180889B 
 217      BA79E8
 218 05e5 0D46529D 		.ascii	"\015FR\235O\220\341g\350|\233X\007\370x\013\2005v\210"
 218      4F90E167 
 218      E87C9B58 
ARM GAS  /tmp/cckNTQpJ.s 			page 17


 218      07F8780B 
 218      80357688 
 219 05f9 9B95EADB 		.ascii	"\233\225\352\333\376\233\276\014V\031b\373j\334\325"
 219      FE9BBE0C 
 219      561962FB 
 219      6ADCD5
 220 0608 75656B86 		.ascii	"uek\206I\357\204\377\262\217\241\342\025\322\241\324"
 220      49EF84FF 
 220      B28FA1E2 
 220      15D2A1D4 
 221 0618 B0CB6F7F 		.ascii	"\260\313o\177;3\031\263\262v\037\306nf\341\273\224\237"
 221      3B3319B3 
 221      B2761FC6 
 221      6E66E1BB 
 221      949F
 222 062a 09F899CC 		.ascii	"\011\370\231\314\237U\210 \254`\006.\312\315\265\256"
 222      9F558820 
 222      AC60062E 
 222      CACDB5AE 
 223 063a 2874AC71 		.ascii	"(t\254q\274\223ou\333K\335V\227\233\227\245\033JsmD"
 223      BC936F75 
 223      DB4BDD56 
 223      979B97A5 
 223      1B4A736D 
 224 064f 831FB4DC 		.ascii	"\203\037\264\334\275,\250Qq)kRR\354r\227Z\337\\\231"
 224      BD2CA851 
 224      71296B52 
 224      52EC7297 
 224      5ADF5C99 
 225 0663 B7226FBD 		.ascii	"\267\"o\275\325Vh+v\331\337/\177\325\231[Ht\345rQ\231"
 225      D556682B 
 225      76D9DF2F 
 225      7FD5995B 
 225      4874E572 
 226 0679 3D37B487 		.ascii	"=7\264\207}\275\333\272\"/\377\355|\253c\235\255\250"
 226      7DBDDBBA 
 226      222FFFED 
 226      7CAB639D 
 226      ADA8
 227 068b 6CADDDCA 		.ascii	"l\255\335\312{\330\234o\225\255\263a\247g#&\360\267"
 227      7BD89C6F 
 227      95ADB361 
 227      A7672326 
 227      F0B7
 228 069d 2B649A14 		.ascii	"+d\232\024\222\364\274\374\2259k\344R{\211\313\261<"
 228      92F4BCFC 
 228      95396BE4 
 228      527B89CB 
 228      B13C
 229 06af E7F91709 		.ascii	"\347\371\027\011u\021\203\323\356,vm z\227\275\264\254"
 229      751183D3 
 229      EE2C766D 
 229      207A97BD 
 229      B4AC
 230 06c1 C89D9EB7 		.ascii	"\310\235\236\2672\037k\226\373\232\021\315\353.\222"
 230      321F6B96 
 230      FB9A11CD 
ARM GAS  /tmp/cckNTQpJ.s 			page 18


 230      EB2E92
 231 06d0 1363E472 		.ascii	"\023c\344r7\016\254)w\227\350\326\332\213\344\015\372"
 231      370EAC29 
 231      7797E8D6 
 231      DA8BE40D 
 231      FA
 232 06e1 72F707A8 		.ascii	"r\367\007\250\216\246Dv\301\232\377\000$m\005\177"
 232      8EA64476 
 232      C19AFF00 
 232      246D057F 
 233              		.text
 234              		.section	.gnu.lto_sys3_execute.part.2.b1f5df989439ef9a,"",%progbits
 235 0000 789C8592 		.ascii	"x\234\205\222\317k\023A\024\307\337\233\335MR{\311\037"
 235      CF6B1341 
 235      14C7DF9B 
 235      DD4D527B 
 235      C91F
 236 0012 A061153C 		.ascii	"\240a\025<\265d\275yU\002\202\207 4)\350I\266\343b\026"
 236      B564BD79 
 236      55028287 
 236      203429E8 
 236      49B6E362 
 237 0027 92A6EC6E 		.ascii	"\222\246\354nJ\213\207N\323\034\024z(E\321\036D\203"
 237      4A8B874E 
 237      D31C147A 
 237      2845D11E 
 237      4483
 238 0039 3F0E0A2A 		.ascii	"?\016\012*z\022c\215B\017=\330\342\325\203F\304\223"
 238      7A12638D 
 238      420F3DD8 
 238      E2D58346 
 238      C493
 239 004b 07F15A0A 		.ascii	"\007\361Z\012\361\315L\262IZ\321Yv\337\2337o\336\373"
 239      F1CD4CB2 
 239      495AD159 
 239      76DF9B37 
 239      6FDEFB
 240 005e CE678701 		.ascii	"\316g\207\001\203\203c\202\336_\024\336\"\213\026\240"
 240      83836382 
 240      DE5F14DE 
 240      228B16A0 
 241 006e B9B6438E 		.ascii	"\271\266C\216\211LY\206\206\264\313)\003Q:\200\260d"
 241      894C5986 
 241      86B4CB29 
 241      03513A80 
 241      B064
 242 0080 3203972E 		.ascii	"2\003\227.\241\334\214'\240)\304z\347\307\343\367x["
 242      A1DC8C27 
 242      A029C47A 
 242      E7C7E3F7 
 242      785B
 243 0092 B497EF8B 		.ascii	"\264\227\357\213\375n\027\321Gjd#p\204\2134\301\224"
 243      FD6E17D1 
 243      476A6423 
 243      70848B34 
 243      C194
 244 00a4 320C473B 		.ascii	"2\014G;?g\242\323\355n\274\034K!\270\330\244Z\014|\225"
ARM GAS  /tmp/cckNTQpJ.s 			page 19


 244      3F67A2D3 
 244      ED6EBC1C 
 244      4B21B8D8 
 244      A45A0C7C 
 245 00b9 63414388 		.ascii	"cAC\2105[\007A\226\241Q\244\257\224PDSZc\032\231\262"
 245      355B0741 
 245      96A151A4 
 245      AF945044 
 245      535A631A 
 246 00cf DB504F01 		.ascii	"\333PO\001\364\204\334\373\326\232\334\020\355F,\304"
 246      F484DCFB 
 246      D69ADC10 
 246      ED462CC4 
 247 00df 60501808 		.ascii	"`P\030\010\261\265\020sT\210\214\03169;P\377\375z\345"
 247      B1B51073 
 247      54888C19 
 247      36393B50 
 247      FFFD7AE5 
 248 00f3 D5AAD113 		.ascii	"\325\252\321\023\320W\322~\367a/\315\\|\250\344\364"
 248      D057D27E 
 248      F7612FCD 
 248      5C7CA8E4 
 248      F4
 249 0104 62DF6FB6 		.ascii	"b\337o\266\306\217\306\263\033_\210\241\213\017\010"
 249      C68FC6B3 
 249      1B5F88A1 
 249      8B0F08
 250 0113 2147D990 		.ascii	"!G\331\220\321k(F\364<!\227\326\015\315?\003o\360\256"
 250      D16B2846 
 250      F43C2197 
 250      D60DCD3F 
 250      036FF0AE 
 251 0127 B873C647 		.ascii	"\270s\306Gs\244\375`}\263\267ni\201\273\320\350\274"
 251      73A4FD60 
 251      7DB3B76E 
 251      6981BBD0 
 251      E8BC
 252 0139 DD4AE8F2 		.ascii	"\335J\350\362W\021\257\301\236\270.\322>&\270.\241j"
 252      5711AFC1 
 252      9EB82ED2 
 252      3E26B82E 
 252      A16A
 253 014b 2453848F 		.ascii	"$S\204\217Pl\003\323\231\232\037\345\313\3300\244\346"
 253      506C03D3 
 253      999A1FE5 
 253      CBD830A4 
 253      E6
 254 015c E601482E 		.ascii	"\346\001H.>R\202\377K\011\376I\351\363\276\244\364b"
 254      3E5282FF 
 254      4B09FE49 
 254      E9F3BEA4 
 254      F462
 255 016e 94D2CFF1 		.ascii	"\224\322\317\361L\374G\007\270\276\016\341R\247\344"
 255      4CFC4707 
 255      B8BE0EE1 
 255      52A7E4
 256 017d 98F80B31 		.ascii	"\230\370\0131\027\237\222\023\267\356\023r\361\031f"
ARM GAS  /tmp/cckNTQpJ.s 			page 20


 256      179F9213 
 256      B7EE1372 
 256      F11966
 257 018c B4AC8F50 		.ascii	"\264\254\217Po\255to\031}8L\235w\027,\035\000\210a\215"
 257      6FAD746F 
 257      197D384C 
 257      9D77172C 
 257      1D008861 
 258 01a1 714C0E60 		.ascii	"qL\016`\2312\327\307#\272\3124\325\227\227\351\023]"
 258      9932D7C7 
 258      23BACA34 
 258      D59797E9 
 258      135D
 259 01b3 F5C1918B 		.ascii	"\365\301\221\213T\212\242\262\345\261l\326\311\225\374"
 259      548AA2B2 
 259      E5B16CD6 
 259      C995FC
 260 01c2 19FF42C1 		.ascii	"\031\377B\301\211\2740r\202H\331p1\314rH\004^X+G\023"
 260      89BC3072 
 260      8248D970 
 260      31CC7248 
 260      045E582B 
 261 01d8 4349D550 		.ascii	"CI\325P\246\314U\203(t\316N\345s\371\005\207\227x5\360"
 261      A6CC5583 
 261      2874CE4E 
 261      E573F905 
 261      87977835 
 262 01ed 2ECF9FAE 		.ascii	".\317\237\256dK`\315\273\345\232\227\035\335\341-DN"
 262      644B60CD 
 262      BBE59A97 
 262      1DDDE12D 
 262      444E
 263 01ff 2E5F385F 		.ascii	"._8_p\374Y^\256]\361\034\265\203W\316\325f9m:~\250A"
 263      70FC595E 
 263      AE5DF11C 
 263      B58357CE 
 263      D566396D 
 264 0217 9C57924A 		.ascii	"\234W\222JJ\220\316\027\246\354\0317\364\346\002\177"
 264      4A90CE17 
 264      A6EC1937 
 264      F4E6027F 
 265 0227 D23E790A 		.ascii	"\322>y\012X\000\311\212W\251\006\213\360\007\226\011"
 265      5800C98A 
 265      57A9068B 
 265      F0079609 
 266 0237 EB75     		.ascii	"\353u"
 267              		.text
 268              		.section	.gnu.lto_sys3_execute.b1f5df989439ef9a,"",%progbits
 269 0000 789CBD96 		.ascii	"x\234\275\226OH\024Q\034\307\177\2777\177\334\\EY\304"
 269      4F481451 
 269      1CC77FBF 
 269      377FDC5C 
 269      4559C4
 270 0013 532D6BD0 		.ascii	"S-k\320)\331\351\326\265\020\202\016\213\340*\324)\306"
 270      29D9E9D6 
 270      B510820E 
 270      8BE02AD4 
ARM GAS  /tmp/cckNTQpJ.s 			page 21


 270      29C6
 271 0025 6970075C 		.ascii	"ip\007\\WfvE\351\340\250{H\350 QT\207J\261:dT\320\241"
 271      57667645 
 271      E9E0A87B 
 271      48E82051 
 271      54874AB1 
 272 003e 34B13510 		.ascii	"4\2615\0204\310\355\017\031D\007+:\031DW\021\266\367"
 272      34C8ED0F 
 272      1944072B 
 272      3A194457 
 272      11B6F7
 273 0051 6666E78F 		.ascii	"ff\347\217\272\272\007\361-\363\336\373\275\367{\357"
 273      BABA07F1 
 273      2DF3DEFB 
 273      BDF77BEF 
 274 0061 F77BDFF7 		.ascii	"\367{\337\367\331\331%@`{i\247\017\037\002X\242-\326"
 274      D9D92540 
 274      607B69A7 
 274      0F1F0258 
 274      A22DD6
 275 0074 00928955 		.ascii	"\000\222\211U\200\221\020!\342\232\004f-7\027\005\263"
 275      80911021 
 275      E29A0466 
 275      2D371705 
 275      B3
 276 0085 8E732CDE 		.ascii	"\216s,\336\262x\307\022,K@\221-A\021\221\265\2000L8"
 276      B278C712 
 276      2C4B4091 
 276      2D411191 
 276      B580304C 
 277 009a 5E1071F8 		.ascii	"^\020q\370\"\262\000x\034\246L\363\372\372\357G\213"
 277      22B20078 
 277      1CA64CF3 
 277      FAFAEF47 
 277      8B
 278 00ab 78CB2C8C 		.ascii	"x\313,\214L\232[\245\022\242\2064\231\030\202\202p\201"
 278      4C9A5BA5 
 278      12A28634 
 278      99188282 
 278      7081
 279 00bd 1A18B21A 		.ascii	"\032\030\262\032\202\301\354\236\221\302z\251\364\344"
 279      82C1EC9E 
 279      91C27AA9 
 279      F4E4
 280 00cb F3E4CF65 		.ascii	"\363\344\317e\214\264\360 \343\024\335O\004\272:\304"
 280      8CB4F020 
 280      E314DD4F 
 280      04BA3AC4 
 281 00db AAB03352 		.ascii	"\252\2603R\317\214\006VE\234\221&f4\263\212\026\001"
 281      CF8C0656 
 281      459C9126 
 281      6634B38A 
 281      1601
 282 00ed F2A63911 		.ascii	"\362\2469\021\263g\200\305\244\245\223\326,\343.$\254"
 282      B36780C5 
 282      A4A593D6 
 282      2CE32E24 
ARM GAS  /tmp/cckNTQpJ.s 			page 22


 282      AC
 283 00fe E5566094 		.ascii	"\345V`\224\352\340d{\377\307|\353\035\263\220w\263\345"
 283      EAE0647B 
 283      FFC77CEB 
 283      1DB39077 
 283      B3E5
 284 0110 0824BD6C 		.ascii	"\010$\275lcv\266|0[6\306\305hg\025F\377\315\216\275"
 284      6376B67C 
 284      305B36C6 
 284      C5686715 
 284      46FFCD8E 
 285 0125 B8C63981 		.ascii	"\270\3069\201\313\031\024\336\274\335l$2>\260\322p\306"
 285      CB1914DE 
 285      BCDD6C24 
 285      323EB0D2 
 285      70C6
 286 0137 7EDD980F 		.ascii	"~\335\230\017\037u\255\225UzG2N\243@\203\261\200\204"
 286      1F75AD95 
 286      557A4732 
 286      4EA34083 
 286      B18084
 287 014a 3E9C2524 		.ascii	">\234%$\375<\246]:\317\331\027\031\205\327x\327\274"
 287      FD3CA65D 
 287      3ACFD917 
 287      1985D778 
 287      D7BC
 288 015c 7D46433E 		.ascii	"}FC>\020\336\233_p\346\005;\301\"\344\327\357-\211\366"
 288      10DE9B5F 
 288      70E6053B 
 288      C122E4D7 
 288      EF2D89F6 
 289 0170 F63DC85F 		.ascii	"\366=\310_\201M\363\252\331\250\241\250\330[X{\324 "
 289      814DF3AA 
 289      D9A8A1A8 
 289      D85B587B 
 289      D420
 290 0182 958D4AB1 		.ascii	"\225\215J\261\002\304\366\264u\353a.A\221\246\026\266"
 290      02C4F6B4 
 290      75EB612E 
 290      4191A616 
 290      B6
 291 0193 8924E343 		.ascii	"\211$\343C+\341}U\202=U\372\266\305Tz\036Ti#\034uo\322"
 291      2BE17D55 
 291      823D55FA 
 291      B6C5547A 
 291      1E546923 
 292 01ab 93ABE893 		.ascii	"\223\253\350\223\313:\245\202\342.\212\3118C;n\350\262"
 292      CB3AA582 
 292      E22E8AC9 
 292      38433B6E 
 292      E8B2
 293 01bd 42323EC5 		.ascii	"B2>\305\250\235\326{\030\235\037\233\276\311\225\305"
 293      A89DD67B 
 293      189D1F9B 
 293      BEC995C5 
 294 01cd 11ADF316 		.ascii	"\021\255\363\026A(\017\204\\\265\216(\364\233\342S\213"
 294      41280F84 
ARM GAS  /tmp/cckNTQpJ.s 			page 23


 294      5CB58E28 
 294      F49BE253 
 294      8B
 295 01de 3A6B580B 		.ascii	":kX\013\260\014\371?\350\272\263\311\300\301\273h\354"
 295      B00CF93F 
 295      E8BAB3C9 
 295      C0C1BB68 
 295      EC
 296 01ef B9E87E9C 		.ascii	"\271\350~\234U-a5\240\315V\006m\374K\025\240\371d\363"
 296      552D6135 
 296      A0CD5606 
 296      6DFC4B15 
 296      A0F964F3 
 297 0203 83E5938D 		.ascii	"\203\345\223\215!5\343!\025\256\200\024\251\200T\370"
 297      2135E321 
 297      15AE8014 
 297      A98054F8 
 298 0213 70915AAC 		.ascii	"p\221Z\254\002\251\361\265\003E\352\245\207T\275u^\037"
 298      02A9F1B5 
 298      0345EAA5 
 298      8754BD75 
 298      5E1F
 299 0225 520D1590 		.ascii	"R\015\025\220\"\314y'R\015\273 \305\303\337\360\241"
 299      22CC7927 
 299      520DBB20 
 299      C5C3DFF0 
 299      A1
 300 0236 22F56E8F 		.ascii	"\"\365n\217w\327\327\003C\352\225\207T\244\002R|\005"
 300      77D7D703 
 300      43EA9587 
 300      54A40252 
 300      7C05
 301 0248 A422878B 		.ascii	"\244\"\207\213\324\247j\336R\337\017\024\251\015\017"
 301      D4A76ADE 
 301      52DF0F14 
 301      A90D0F
 302 0257 A926EBBC 		.ascii	"\251&\353\274>\244\232+ \3051\347\235H5\357\202\224"
 302      3EA49A2B 
 302      20C531E7 
 302      9D4835EF 
 302      8294
 303 0269 001F78AE 		.ascii	"\000\037x\256\010c!\333\011\300\3352\2540\305i\321\260"
 303      086321DB 
 303      09C0DD32 
 303      AC30C569 
 303      D1B0
 304 027b AEEC2D5A 		.ascii	"\256\354-Z?\236\037\351\177\006o\217Nz\373t\224%\177"
 304      3F9E1FE9 
 304      7F066F8F 
 304      4E7AFB74 
 304      94257F
 305 028e 2C1E97DA 		.ascii	",\036\227\332RZ\267\326\236\224\262\252\221\225\364"
 305      525AB7D6 
 305      9E94B2AA 
 305      9195F4
 306 029d ACD51A43 		.ascii	"\254\325\032CF\\\001QW\215\\o\366\244\317)c0\227\376"
 306      465C0151 
ARM GAS  /tmp/cckNTQpJ.s 			page 24


 306      578D5C6F 
 306      F6A4CF29 
 306      633097FE 
 307 02b1 8C9E35A4 		.ascii	"\214\2365\244\263\035\211\266\304\240\244\244\224\214"
 307      B31D89B6 
 307      C4A0A4A4 
 307      948C
 308 02bf AE5E1A38 		.ascii	"\256^\0328\235\216\247@\030\220{sj<\270B\035\314Jm\211"
 308      9D8EA740 
 308      18907B73 
 308      6A3CB842 
 308      1DCC4A6D 
 309 02d4 E4F9A4A4 		.ascii	"\344\371\244\244\365)\275\271\313\252d\255P\322\347"
 309      F529BDB9 
 309      CBAA64AD 
 309      50D2E7
 310 02e3 727D0A5D 		.ascii	"r}\012]\324\262#\200\353\227b\231\244\2401\221\354\210"
 310      D4B22380 
 310      EB976299 
 310      A4A03191 
 310      EC88
 311 02f5 75CB86DA 		.ascii	"u\313\206\332\257k\255\261\023\247\200\350P\223V\323"
 311      AF6BADB1 
 311      13A780E8 
 311      509356D3 
 312 0305 197D08FE 		.ascii	"\031}\010\376\003\001\312\011\004"
 312      0301CA09 
 312      04
 313              		.text
 314              		.section	.gnu.lto_.symbol_nodes.b1f5df989439ef9a,"",%progbits
 315 0000 789C4DCB 		.ascii	"x\234M\313=N\303@\020\206\341\357\233\361\006\260C\310"
 315      3D4EC340 
 315      1086E1EF 
 315      9BF106B0 
 315      43C8
 316 0012 0D72120E 		.ascii	"\015r\022\016\223k\320\214%K\010:j \005\312-R!YJ\021"
 316      936BD08C 
 316      254B083A 
 316      6A2005CA 
 316      2D522159 
 317 0028 24B7B489 		.ascii	"$\267\264\211MI\303\377o\002^m\222\3156\257\236\231"
 317      4D49C3FF 
 317      6F025E6D 
 317      92CD36AF 
 317      9E99
 318 003a 5981E084 		.ascii	"Y\201\340\204\010O^i\304E\005\230]\237\017\345\211\206"
 318      084F5E69 
 318      C4450598 
 318      5D9F0FE5 
 318      8986
 319 004c 1D4E68B2 		.ascii	"\035Nh\262\346\350l(\3174\335\331\336\210%\333-\345"
 319      E6E86C28 
 319      CF34DDD9 
 319      DE8825DB 
 319      2DE5
 320 005e 9DE6E2D6 		.ascii	"\235\346\342\326}\022\316\340^H\2377\212\317\007\265"
 320      7D12CEE0 
ARM GAS  /tmp/cckNTQpJ.s 			page 25


 320      5E489F37 
 320      8ACF07B5 
 321 006e 0DBF699D 		.ascii	"\015\277i\235p\232\347\344\027m/jE\333\217\372\243\035"
 321      709AE7E4 
 321      176D2F6A 
 321      45DB8FFA 
 321      A31D
 322 0080 44FDD2D2 		.ascii	"D\375\322\322\250\037Z\026\225\213u\267Rf(\027\253\266"
 322      A81F5A16 
 322      958B75B7 
 322      52662817 
 322      ABB6
 323 0092 298AD3C7 		.ascii	")\212\323\307\201\312!\312\345\003U\272h\374\\3\024"
 323      81CA21CA 
 323      E50355BA 
 323      68FC5C33 
 323      14
 324 00a3 73DF14E5 		.ascii	"s\337\024\345<x\274\010\016{A}\331\376\323#\224W\276"
 324      3C78BC08 
 324      0E7B417D 
 324      D9FED323 
 324      9457BE
 325 00b6 3D34F5ED 		.ascii	"=4\365\355R5\351\205\203\244\037>\272M\327\363\326\315"
 325      5235E985 
 325      83A41F3E 
 325      BA4DD7F3 
 325      D6CD
 326 00c8 74DAF12E 		.ascii	"t\332\361.f\276}\024w\367\342=\256|\023\324\3251\376"
 326      66BE7D14 
 326      77F7E23D 
 326      AE7C13D4 
 326      D531FE
 327 00db 011BB777 		.ascii	"\001\033\267w\376"
 327      FE
 328              		.text
 329              		.section	.gnu.lto_.refs.b1f5df989439ef9a,"",%progbits
 330 0000 789C25C1 		.ascii	"x\234%\301\301\021\000 \010\003\301\3442\012\224@\377"
 330      C1110020 
 330      0803C1E4 
 330      320A9440 
 330      FF
 331 0011 8DFA7017 		.ascii	"\215\372p\027\241\325\347\340\\\212f\\\304\215<\034"
 331      A1D5E7E0 
 331      5C8A665C 
 331      C48D3C1C 
 332 0021 3D085100 		.ascii	"=\010Q\000u"
 332      75
 333              		.text
 334              		.section	.gnu.lto_.decls.b1f5df989439ef9a,"",%progbits
 335 0000 789CBD59 		.ascii	"x\234\275Y{t\024\325\031\237;\233\307.\273`DE\352\213"
 335      7B7414D5 
 335      199F3B9B 
 335      C72EBB60 
 335      4445EA8B 
 336 0014 E0A97AAA 		.ascii	"\340\251z\252\222\325\250\255\375GA|\220Z\252%\322C"
 336      92D5A8AD 
 336      FD47417C 
ARM GAS  /tmp/cckNTQpJ.s 			page 26


 336      905AAA25 
 336      D243
 337 0026 EB1FD361 		.ascii	"\353\037\323aw`W7\273qw\022E\333\303Mx?<\006|$\362\014"
 337      77605737 
 337      BB717712 
 337      45DBC34D 
 337      783F3C06 
 338 003e D5F02854 		.ascii	"\325\360(T0\240\322\200t\305\243\244\325z\010j\000\261"
 338      30A0D280 
 338      74C5A3A4 
 338      D57A086A 
 338      00B1
 339 0050 24C512F1 		.ascii	"$\305\022\361\001BxD\004I\277;sgw\346\356\235\335Y\372"
 339      01427844 
 339      0449BF3B 
 339      736777E6 
 339      EE9DDD59 
 340 0065 D873BE9D 		.ascii	"\330s\276\235;3\367{\375\276\357~\363\315\\Q\020\205"
 340      3B33F77B 
 340      FDBEEF7E 
 340      F3CD5C51 
 340      1085
 341 0077 DFB904A1 		.ascii	"\337\271\004\241\037~k\256\023\204\302\"A(\026\004\341"
 341      1F7E6BAE 
 341      1384C222 
 341      41281604 
 341      E1
 342 0088 0EA002A0 		.ascii	"\016\240\002\240B\240\025@k\201\356\024\364\337@\240"
 342      42A01540 
 342      6B81EE14 
 342      F4DF40A0 
 343 0098 57803602 		.ascii	"W\2006\002\275\001\264\017h?\320\001\240\203@_\003}"
 343      BD01B40F 
 343      683FD001 
 343      A083405F 
 343      037D
 344 00aa 03740CE8 		.ascii	"\003t\014\350$\320\367@\010Qyp,\005\272\001\3506$X~"
 344      24D0F740 
 344      08517970 
 344      2C05BA01 
 344      E8362458 
 345 00bf 1BA9BE16 		.ascii	"\033\251\276\026\240A@>b\007\314\031I\347\015\240s\356"
 345      A041403E 
 345      6207CC19 
 345      49E70DA0 
 345      73EE
 346 00d1 82F37B80 		.ascii	"\202\363{\200\306\000\375\022h<\320\004\240\207\201"
 346      C600FD12 
 346      683CD004 
 346      A08781
 347 00e0 24A0898C 		.ascii	"$\240\211\214\\\201\332K\370\017\231d\267\230\344+@"
 347      5C81DA4B 
 347      F80F9964 
 347      B798E42B 
 347      40
 348 00f1 87E17C12 		.ascii	"\207\341|\022\034{\204\264>\3027\031\256=\002TEuV\003"
 348      1C7B84B4 
ARM GAS  /tmp/cckNTQpJ.s 			page 27


 348      3EC23719 
 348      AE3D0254 
 348      45755603 
 349 0105 25806A91 		.ascii	"%\200j\221\356\353\301Lu\032.\036\212[\233Ig;\320\024"
 349      EEEBC14C 
 349      751A2E1E 
 349      8A5B9B49 
 349      673BD014 
 350 0119 E0EB85E3 		.ascii	"\340\353\205\343\223p\334L\347\027P\236\247\220\216"
 350      9370DC4C 
 350      E717509E 
 350      A7908E
 351 0128 1BC10F42 		.ascii	"\033\301\017B!\354\002\372\010\250\023h\017\320T\270"
 351      21EC02FA 
 351      08A81368 
 351      0FD054B8 
 352 0138 8F19FF08 		.ascii	"\217\031\377\010\376\2273\276m\001\352\243\372Y\337"
 352      FE9733BE 
 352      6D01EAA3 
 352      FA59DF
 353 0147 CC7ED721 		.ascii	"\314~\327!=\336m\324\266iH\217\367\235&\373\246\303"
 353      3DDE6DD4 
 353      B669488F 
 353      F79D26FB 
 353      A6C3
 354 0159 F11C1C67 		.ascii	"\361\034\034g =>\247\250\336\213\251n\003\203\231&\214"
 354      203D3EA7 
 354      A8DE8BA9 
 354      6E038399 
 354      268C
 355 016b E6507CE6 		.ascii	"\346P|\346\003=\003\264\020\250\021h\021\3221]\206t"
 355      033D03B4 
 355      10A81168 
 355      11D2315D 
 355      8674
 356 017d 7F496EB4 		.ascii	"\177In\264\300x-\322s\005RQX\017\343\015\034?I\216y"
 356      C0782DD2 
 356      73055251 
 356      580FE30D 
 356      1C3F498E 
 357 0192 A95FBC18 		.ascii	"\251_\274\030\276J\355\023\221n\253a\247\233\362\232"
 357      BE4AED13 
 357      916EAB61 
 357      A79BF29A 
 358 01a2 ED43261B 		.ascii	"\355C&\033Or\342Gry`\236\272Z\341\330E\371=TF6\235\373"
 358      4F72E247 
 358      7279609E 
 358      BA5AE1D8 
 358      45F93D54 
 359 01ba 397A3DC2 		.ascii	"9z=\302l\214\353q\363L<\246}\020Ik\031\015\362\010\245"
 359      6C8CEB71 
 359      F34C3CA6 
 359      7D10496B 
 359      190DF208 
 360 01cf DAC0E7D1 		.ascii	"\332\300\347\321\322\344\032\341e\214\033\272\017.\272"
 360      D2E41AE1 
 360      658C1BBA 
ARM GAS  /tmp/cckNTQpJ.s 			page 28


 360      0F2EBA
 361 01de 0417C868 		.ascii	"\004\027\310h\005\362\300\022\376\021\022\256\027\326"
 361      05F2C012 
 361      FE1112AE 
 361      17D6
 362 01ec 60B88EF1 		.ascii	"`\270\216\361\201\313\376#\271'\327\314\277\021c\267"
 362      81CBFE23 
 362      B927D7CC 
 362      BF1163B7 
 363 01fc 8C5A34C9 		.ascii	"\214Z4\311\257\200\3252z\031]\237\267\240\256y[\177"
 363      AF80D532 
 363      7A195D9F 
 363      B7A0AE79 
 363      5B7F
 364 020e AA095AAD 		.ascii	"\252\011Z\255\011\332*Z\005\311\250\330c\266P;7&\020"
 364      09DA2A5A 
 364      05C9A8D8 
 364      63B6503B 
 364      372610
 365 0221 69DA6D3A 		.ascii	"i\332m: \345\351\002\341\177<\335+\314M\2736Dx\036\340"
 365      20E5E902 
 365      E17F3CDD 
 365      2BCC4DBB 
 365      3644781E 
 366 0236 242718A9 		.ascii	"$'\030\2512\272\343\022\256\253D\360:4D\033\271\300"
 366      32BAE312 
 366      AEAB44F0 
 366      3A34441B 
 366      B9C0
 367 0248 49EDC29D 		.ascii	"I\355\302\235^\370\033\357J\351\266c\\\213\274fD\206"
 367      5EF81BEF 
 367      4AE9B663 
 367      5C8BBC66 
 367      4486
 368 025a 09CB70F2 		.ascii	"\011\313p\362h\367\362\316\327\257|\021'\247\343\376"
 368      68F7F2CE 
 368      D7AF7C11 
 368      27A7E3FE 
 369 026a FEA954BA 		.ascii	"\376\251T\272(\034d\300\373\241\360\022\306\013\361"
 369      281C64C0 
 369      FBA1F012 
 369      C60BF1
 370 0279 B1E0184D 		.ascii	"\261\340\030M\235(|\251Mx\005\015\343j\323&\301\357"
 370      9D287CA9 
 370      4D78050D 
 370      E36AD326 
 370      C1EF
 371 028b 5AA18538 		.ascii	"Z\241\2058\265\005?8TsI\240<\026\240\326#\321|A7+\331"
 371      B5053F38 
 371      547349A0 
 371      3C16A0D6 
 371      23D17C41 
 372 02a2 B9C3D750 		.ascii	"\271\303\327P\327\335\337?\31490\233(0i0D\341k\306\221"
 372      D7DDDF3F 
 372      CC39309B 
 372      28306930 
 372      44E16BC6 
ARM GAS  /tmp/cckNTQpJ.s 			page 29


 373 02b7 944D7835 		.ascii	"\224Mx5v\245l\332\310\332\364\032\317\246\356\343\215"
 373      76A56CDA 
 373      C8DAF41A 
 373      CFA6EEE3 
 373      8D
 374 02c8 EFEF400B 		.ascii	"\357\357@\013\247\341v|\024\002\210\335\316M\333l\215"
 374      A7E1767C 
 374      140288DD 
 374      CE4DDB6C 
 374      8D
 375 02d9 9925F283 		.ascii	"\231%\362\203\205\005DJ\251)\275\233\221!\200\324<\232"
 375      8505444A 
 375      A929BD9B 
 375      912180D4 
 375      3C9A
 376 02eb DF2DBDED 		.ascii	"\337-\275\355\005Z~oA\203A\314\"\227\325\263\234bD\341"
 376      055A7E6F 
 376      418341CC 
 376      2297D5B3 
 376      9C6244E1 
 377 02ff 8F1ACB36 		.ascii	"\217\032\3136`\327\0315\301\270\273o\337\221\031\250"
 377      60D71935 
 377      C1B8BB6F 
 377      DF9119A8 
 378 030f 0E7CD0EF 		.ascii	"\016|\320\357\011\014`\246\337p\241\031\354N\276\331"
 378      090C60A6 
 378      DF70A119 
 378      EC4EBED9 
 379 031f B8F407B8 		.ascii	"\270\364\007\270y;\314oC$\031\366\247\344\362\374\247"
 379      793BCC6F 
 379      432419F6 
 379      A7E4F2FC 
 379      A7
 380 0330 434B6E5A 		.ascii	"CKnZ\345m\333\355k\220\015a=y\013+\265\010\353\330\275"
 380      E56DDBED 
 380      6B900D61 
 380      3D790B2B 
 380      B508EBD8 
 381 0345 841AA797 		.ascii	"\204\032\247\227\252#N\344\271\355\215\333E\214\263"
 381      AA234EE4 
 381      B9ED8DDB 
 381      458CB3
 382 0354 044C5F24 		.ascii	"\004L_$Y*\321\214o\222\242\026\251v\315\243>\027[\211"
 382      592AD18C 
 382      6F92A216 
 382      A976CDA3 
 382      3E175B89 
 383 0368 C84AB4E4 		.ascii	"\310J\264\344\033\2634E\001\027\344k\265\005\005\210"
 383      1BB33445 
 383      0117E46B 
 383      B5050588 
 384 0378 E9C916F4 		.ascii	"\351\311\026\364,\244\352Mt\301\316v\"\260\204\003\003"
 384      2CA4EA4D 
 384      74C1CE76 
 384      22B08403 
 384      03
 385 0389 EF674E22 		.ascii	"\357gN\"\031%\3215\360\377\026\032\016\377ok\377\357"
ARM GAS  /tmp/cckNTQpJ.s 			page 30


 385      1925D135 
 385      F0FF161A 
 385      0EFF6F6B 
 385      FFEF
 386 039b 68FF3BB4 		.ascii	"h\377;\264\377\367\341?\365\263[\037mi@Re\215\204\317"
 386      FFF7E13F 
 386      F5B35B1F 
 386      6D694052 
 386      658D84CF 
 387 03af 7CDEAECF 		.ascii	"|\336\256\3171\227=\301\274\3305\334\236)\340\025.\262"
 387      31973DC1 
 387      BCD835DC 
 387      9E29E015 
 387      2EB2
 388 03c1 723F47CF 		.ascii	"r?G\317O\303c\214,k\322\346\275a[\2774\203h\325;\243"
 388      4FC3638C 
 388      2C6BD2E6 
 388      BD615BBF 
 388      348368D5 
 389 03d7 8C319269 		.ascii	"\2141\222iI\0166\315f\235-\271q\331*HD\321\310\202?"
 389      490E36CD 
 389      669D2DB9 
 389      71D92A48 
 389      44D1C882 
 390 03ec E4606D37 		.ascii	"\344`m7i\334\253\030uvM\016.s\235M\276\272l\310\334"
 390      69DCAB18 
 390      75764D0E 
 390      2E739D4D 
 390      BEBA6CC8 
 391 0401 DFA68ADA 		.ascii	"\337\246\212\332\033lQ\353\340\026\265\345\235\357v"
 391      1B6C51EB 
 391      E016B5E5 
 391      9DEF76
 392 0410 A0054651 		.ascii	"\240\005FQ\243eT\024\376T\340\244p\356cu|\312-\346\233"
 392      A3655414 
 392      FE54E0A4 
 392      70EE6375 
 392      7CCA2DE6 
 393 0425 FE36DF9D 		.ascii	"\3766\337\235o5\357\342T\3636\276Q\015V\243\366\263"
 393      6F35EFE2 
 393      54F336BE 
 393      510D56A3 
 393      F6B3
 394 0437 4675F38C 		.ascii	"Fu\363\214\302\255\030{\340\241\327\217E\303\347\017"
 394      C2AD187B 
 394      E0A1D78F 
 394      45C3E70F 
 395 0447 1CF97C80 		.ascii	"\034\371|\200\025\377Y\246\370\356\206\356\276\236\235"
 395      15FF59A6 
 395      F8EE86EE 
 395      BE9E9D
 396 0456 F737B5E2 		.ascii	"\3677\265\342\351s\360\271\376\251\310\271\337=\326"
 396      E973F0B9 
 396      FEA9C8B9 
 396      DF3DD6
 397 0465 4785F3FE 		.ascii	"G\205\363\376\347\314\347{v\243iZ\031?\244%\353\246"
 397      E7CCE77B 
ARM GAS  /tmp/cckNTQpJ.s 			page 31


 397      76A3695A 
 397      193FA425 
 397      EBA6
 398 0477 42B6EEB4 		.ascii	"B\266\356\264\240\274[ f}\275Y\310B\244\013\372\312"
 398      A0BC5B20 
 398      667DBD59 
 398      C842A40B 
 398      FACA
 399 0489 0683F6FB 		.ascii	"\006\203\366\373\227\330a@\214\264\003\3410'\370\035"
 399      97D86140 
 399      8CB403E1 
 399      3027F81D 
 400 0499 36AA8F70 		.ascii	"6\252\217pU\037o<W\017i\335\234J\353\315Z\210\017\331"
 400      551F6F3C 
 400      570F69DD 
 400      9C4AEBCD 
 400      5A880FD9 
 401 04ad 0839CA13 		.ascii	"\0109\312\023\222<\373\336|\214\362M\334^\266?kC^\026"
 401      923CFBDE 
 401      7C8CF24D 
 401      DC5EB63F 
 401      6B435E16 
 402 04c1 C6E33666 		.ascii	"\306\3436f\234\340\372\322\320\273\363\362\027\361v"
 402      9CE0FAD2 
 402      D0BBF3F2 
 402      17F176
 403 04d0 BD45B318 		.ascii	"\275E\263\030\342\026f\221\354\350\236\201\353\320c"
 403      E2166691 
 403      ECE89E81 
 403      EBD063
 404 04df A9EC701B 		.ascii	"\251\354p\033&\221\027\032\375!\017K\004\322\274\017"
 404      2691171A 
 404      FD210F4B 
 404      04D2BC0F 
 405 04ef B941F9E2 		.ascii	"\271A\371\342\"\316\013\253\256\237L ?\302\257\217\215"
 405      22CE0BAB 
 405      AE9F4C20 
 405      3FC2AF8F 
 405      8D
 406 0500 11B22FDE 		.ascii	"\021\262/\336\247X\207\013=\3511\225\310\370\277\242"
 406      A758870B 
 406      3DE93195 
 406      C8F8BFA2 
 407 0510 88EFFF59 		.ascii	"\210\357\377Y\256\377[\217\037\275\236\357\177\326@"
 407      AEFF5B8F 
 407      1FBD9EEF 
 407      7FD640
 408 051f 9C63ED22 		.ascii	"\234c\355\"\325\2311\344#\033C\260\3103\344T\317\267"
 408      D59931E4 
 408      231B43B0 
 408      C833E454 
 408      CFB7
 409 0531 3FB33384 		.ascii	"?\2633\2048jgI\275\230\211\020cH\227\215!\323\255\206"
 409      386A6749 
 409      BD988910 
 409      6348978D 
 409      21D3AD86 
ARM GAS  /tmp/cckNTQpJ.s 			page 32


 410 0545 5C2DACC0 		.ascii	"\\-\254\300\033\222\335\313_8\262\013=\207\241h\343"
 410      1B92DDCB 
 410      5F38B20B 
 410      3D87A168 
 410      E3
 411 0556 647F3F1A 		.ascii	"d\177?\032v\241\320@\233\277T\247\222L\267\226\320\021"
 411      76A1D040 
 411      9BBF54A7 
 411      924CB796 
 411      D011
 412 0568 2053F1C0 		.ascii	" S\361\300\251\266\260DS}\002Ts\272G\3534\031\315\001"
 412      A9B6B044 
 412      537D0254 
 412      73BA47EB 
 412      3419CD01 
 413 057c 4B643457 		.ascii	"Kd4Wd\272\307\005\275{f\321\356\221\334\313\335=\236"
 413      64BAC705 
 413      BD7B66D1 
 413      EE91DCCB 
 413      DD3D9E
 414 058f FEBE1DE1 		.ascii	"\376\276\035\341\205>KKE\253\\wKrh\323\240\\y\234\232"
 414      853E4B4B 
 414      45AB5C77 
 414      4B7268D3 
 414      A05C799C 
 415 05a4 8C870EE5 		.ascii	"\214\207\016\345\317\225\3213\"\351I\032D\275\336\221"
 415      CF95D133 
 415      22E9491A 
 415      44BDDE91 
 416 05b4 5BFAD818 		.ascii	"[\372\330\030\365#\342\371\367\366+!;\253]\240\237\026"
 416      F523E2F9 
 416      F7F62B21 
 416      3BAB5DA0 
 416      9F16
 417 05c6 537D8C28 		.ascii	"S}\214(\324\027#\012\330\371\265\305g\276\310\004J\177"
 417      D417230A 
 417      D8F9B5C5 
 417      67BEC804 
 417      4A7F
 418 05d8 54D9A97F 		.ascii	"T\331\251\177\316\254~V\336\352K-\352\317*\244y$\"E"
 418      CEAC7E56 
 418      DEEA4B2D 
 418      EACF2AA4 
 418      79242245 
 419 05ec E16927B2 		.ascii	"\341i'\262\2624\321\347L\262^\310[ViFt\364\014\223\321"
 419      B234D1E7 
 419      4CB25EC8 
 419      5B566946 
 419      74F40C93 
 420 0601 7C91B498 		.ascii	"|\221\264\230\317j\377/h\377Mb\316v\223\001t\266\215"
 420      CF6AFF2F 
 420      68FF4D62 
 420      CE769301 
 420      74B68D
 421 0614 2544FE22 		.ascii	"%D\376\"\321\313\350\346.\016AH/@\235\311f\232\214\026"
 421      D1CBE8E6 
 421      2E0E4148 
ARM GAS  /tmp/cckNTQpJ.s 			page 33


 421      2F409DC9 
 421      669A8C16 
 422 0628 8B176A23 		.ascii	"\213\027j#-\211q\312\010\237\375\263p\211)\023}\236"
 422      2D8971CA 
 422      089FFDB3 
 422      70892913 
 422      7D9E
 423 063a F4C065B2 		.ascii	"\364\300e\262*=\013\000^Vl\224\022[+\226\322\252r\253"
 423      2A3D0B00 
 423      5E566C94 
 423      125B2B96 
 423      D2AA72AB 
 424 064e B011CF4E 		.ascii	"\260\021\317N\216\224\321L0+\025\271\247\204\357p\023"
 424      8E94D14C 
 424      302B15B9 
 424      A784EF70 
 424      13
 425 065f 86CEF048 		.ascii	"\206\316\360H\271\356\015\251:Gw&\027\317Z\212ps=\206"
 425      B9EE0DA9 
 425      3A477726 
 425      17CF5A8A 
 425      70733D86 
 426 0673 A7793FD2 		.ascii	"\247y?\322\201\203\0165\267\266\025\240\355*\241\265"
 426      81830E35 
 426      B7B615A0 
 426      ED2AA1B5 
 427 0683 7829765B 		.ascii	"x)v[\265\316\326\212\011\011\242\2562\271t\007\262D"
 427      B5CED68A 
 427      0909A2AE 
 427      32B97407 
 427      B244
 428 0695 C780B569 		.ascii	"\307\200\265i\220\276\366\250\212\315)\025\227R\025"
 428      90BEF6A8 
 428      8ACD2915 
 428      975215
 429 06a4 2BF38675 		.ascii	"+\363\206u\225\015\254C\262\346\016\364P\351\224\270"
 429      950DAC43 
 429      B2E60EF4 
 429      50E994B8 
 430 06b4 4A781B7C 		.ascii	"Jx\033|j\032\231V\257\347\"\341\320\227\242\236\225"
 430      6A1A9956 
 430      AFE722E1 
 430      D097A29E 
 430      95
 431 06c5 E6F326EA 		.ascii	"\346\363&\352\354l\234l-\326/[\333h\252\027\031\220"
 431      EC6C9C6C 
 431      2DD62F5B 
 431      DB68AA17 
 431      1990
 432 06d7 6CF55A62 		.ascii	"l\365Zb\320\307\213\301\276\3341X\307F<\003\373\323"
 432      D0C78BC1 
 432      BEDC3158 
 432      C7463C03 
 432      FBD3
 433 06e9 CEB0EF4E 		.ascii	"\316\260\357N\211\276\202\212\336\2207\366\257\332`"
 433      89BE828A 
 433      DE9037F6 
ARM GAS  /tmp/cckNTQpJ.s 			page 34


 433      AFDA60
 434 06f8 7F790EEC 		.ascii	"\177y\016\354\327\233\261\377\027\305~\303\371`\177"
 434      D79BB1FF 
 434      17C57EC3 
 434      F9607F
 435 0707 2E85FDC6 		.ascii	".\205\375\306L\354E\003\222mV\354\237\237\307\301\276"
 435      4CEC4503 
 435      926D56EC 
 435      9F9FC7C1 
 435      BE
 436 0718 CE9D13FB 		.ascii	"\316\235\023\373\327sb\337\370\236#\354\033R\242\007"
 436      D77362DF 
 436      F89E23EC 
 436      1B52A207 
 437 0728 53D16D79 		.ascii	"S\321myc\277\305\006\373\013s`\377g3\366s\335:\366m"
 437      63BFC506 
 437      FB0B7360 
 437      FF6733F6 
 437      73DD3AF6 
 438 073d E783FD12 		.ascii	"\347\203\375\022\257\201\375\201L\354]\332\300\250\273"
 438      AF81FD81 
 438      4CEC5DDA 
 438      C0A8BB
 439 074c 1487E691 		.ascii	"\024\207\346\221\014\020%\206u\"U\277-o\034\376b\203"
 439      0C102586 
 439      752255BF 
 439      2D6F1CFE 
 439      6283
 440 075e 83D111D8 		.ascii	"\203\321\021\330\204\340vc^1\225\223\314[\363[6\232"
 440      84E07663 
 440      5E319593 
 440      CC5BF35B 
 440      369A
 441 0770 8BA866FA 		.ascii	"\213\250f\372b\336\327\223\234\260\016^R\265\227\247"
 441      62DED793 
 441      9CB00E5E 
 441      52B597A7 
 442 0780 BAE9C878 		.ascii	"\272\351\310xK]\352v\362\226\272]d\336R\337\316\354"
 442      4B5DEA76 
 442      F296BA5D 
 442      64DE52DF 
 442      CEEC
 443 0792 6841C9A6 		.ascii	"hA\311\246\227\216\315I\277\3757\273\015%\235\216\224"
 443      978ECD49 
 443      BFFD37BB 
 443      0D259D8E 
 443      94
 444 07a3 BCC32A79 		.ascii	"\274\303*y\227\253\244qU\307|\264`\375LL^\245\246.O"
 444      97ABA471 
 444      55C77CB4 
 444      60FD4C4C 
 444      5EA5A62E 
 445 07b8 3614386F 		.ascii	"6\0248o\342\377\312\266\316-\231M\374B\217\331Xm\246"
 445      E2FFCAB6 
 445      CE2D994D 
 445      FC428FD9 
 445      586DA6
ARM GAS  /tmp/cckNTQpJ.s 			page 35


 446 07cb 28347B68 		.ascii	"(4{h$"
 446      24
 447 07d0 E937958E 		.ascii	"\3517\225\216w}\015(\265\313\240q\264\213v\237U\350"
 447      777D0D28 
 447      B5CBA071 
 447      B48B769F 
 447      55E8
 448 07e2 8B32F5F9 		.ascii	"\2132\365\371x\235\351\373u;\353\363{<\237\223\257w"
 448      789DE9FB 
 448      753BEBF3 
 448      7B3C9F93 
 448      AF77
 449 07f4 EADFAF89 		.ascii	"\352\337\257\211\267\006\250\2332\355\224\321\337\323"
 449      B706A89B 
 449      32ED94D1 
 449      DFD3
 450 0802 EC3C883B 		.ascii	"\354<\210;Xu\273\270\020\367\365|;\226\227,oy\234\304"
 450      5875BBB8 
 450      10F7F57C 
 450      3B96972C 
 450      6F799CC4 
 451 0816 F1635649 		.ascii	"\361cVI\247M\262\374s6/Y>p\244d\017\253d\257M\262\034"
 451      A74DB2FC 
 451      73362F59 
 451      3E70A464 
 451      0FAB64AF 
 452 082d FBCDE9B4 		.ascii	"\373\315\351\264'\303\015%\373\316\003\274}\254\312"
 452      27C30D25 
 452      FBCE03BC 
 452      7DACCA
 453 083c 4FEDC0FB 		.ascii	"O\355\300\3735\017\274/\034\371\325\305*\351\266\003"
 453      350FBC2F 
 453      1CF9D5C5 
 453      2AE9B603 
 454 084c 6F1E0FBC 		.ascii	"o\036\017\274\223\216\224\034`\225|fU\302\364\264\207"
 454      938E941C 
 454      60957C66 
 454      55C2F4B4 
 454      87
 455 085d B3BC241C 		.ascii	"\263\274$\034L\027r\206\253'\013WO\232\213:t\252gg\310"
 455      4C177286 
 455      AB270B57 
 455      4F9A8B3A 
 455      74AA6767 
 456 0872 D8384A45 		.ascii	"\3308JE\251n\200\023o>g\2759d\003\331\351\337ghX\350"
 456      A96E8013 
 456      6F3E67BD 
 456      396403D9 
 456      E9DF6768 
 457 0888 48C397AC 		.ascii	"H\303\227\254\206\257\270\253t\303~c\225\226\030\362"
 457      86AFB8AB 
 457      74C37E63 
 457      959618F2 
 458 0898 5B1CC93F 		.ascii	"[\034\311?\314\312?\302\365\340T\317\321G2<X\357H\303"
 458      CCCA3FC2 
 458      F5E054CF 
 458      D147323C 
ARM GAS  /tmp/cckNTQpJ.s 			page 36


 458      58EF48C3 
 459 08ac 5156C331 		.ascii	"QV\3031\033\214:\246fh\330\356H\303qV\303\011.F\015"
 459      1B8C3AA6 
 459      6668D8EE 
 459      48C37156 
 459      C3092E46 
 460 08c1 5D1918ED 		.ascii	"]\031\030\355v$\377\024+\277/k\316\366f\311\276\323"
 460      7624FF14 
 460      2BBF2F6B 
 460      CEF666C9 
 460      BED3
 461 08d3 B639BB39 		.ascii	"\2669\2739\013\327w\0319\333\333\370\217\"\023Z\275"
 461      0BD77719 
 461      39DBDBF8 
 461      8F22135A 
 461      BD
 462 08e4 9A379F31 		.ascii	"\2327\2371\336\030\017\014e\214\361\355\356CD>}\234"
 462      DE180F0C 
 462      658CF1ED 
 462      EE43443E 
 462      7D9C
 463 08f6 B17D5CD0 		.ascii	"\261}\\\320\355\013\012\302^\363v\347\031\026\204\263"
 463      ED0B0AC2 
 463      5EF376E7 
 463      191684B3 
 464 0906 5610AE13 		.ascii	"V\020\256\023V\222\257(\313;O\014~\261\301m\331\011"
 464      5692AF28 
 464      CB3B4F0C 
 464      7EB1C16D 
 464      D909
 465 0918 314FC0AD 		.ascii	"1O\300\255\315%\234\2336M\312P\353;\242\214\352\\\371"
 465      CD259C9B 
 465      364DCA50 
 465      EB3BA28C 
 465      EA5CF9
 466 092b 3629F52E 		.ascii	"6)\365.~\223b\030\317\204\201\354^\330\211\232\346\262"
 466      7E936218 
 466      CF8481EC 
 466      5ED8899A 
 466      E6B2
 467 093d 0BDEB92C 		.ascii	"\013\336\271,\301\233n\313u*\013\327\014\027\033\362"
 467      C19B6ECB 
 467      752A0BD7 
 467      0C171BF2 
 468 094d BE9E9D0F 		.ascii	"\276\236\235\017\363\212\373\021G9<\323\305\204o\226"
 468      F38AFB11 
 468      47393CD3 
 468      C5846F96 
 469 095d 8BB74696 		.ascii	"\213\267F\226\354\316X#\337:\222?\207\225?\227+\277"
 469      ECCE5823 
 469      DF3A923F 
 469      87953F97 
 469      2BBF
 470 096f 695F86FC 		.ascii	"i_\206\374\351^'\362\347\263\362\237\346\311\357~\355"
 470      E95E27F2 
 470      E7B3F29F 
 470      E6C9EF7E 
ARM GAS  /tmp/cckNTQpJ.s 			page 37


 470      ED
 471 0980 A58E4737 		.ascii	"\245\216G7[@:\254)Y\314WR\217[Wc\217\376\011_\373\332"
 471      5B403AAC 
 471      2959CC57 
 471      528F5B57 
 471      638FFE09 
 472 0997 E6E2AF0C 		.ascii	"\346\342\257\014\252\263\201\253\263q\325\336\271\250"
 472      AAB381AB 
 472      B371D5DE 
 472      B9A8
 473 09a5 234B57D8 		.ascii	"#KW\330\222e\203\340YW\346\006\301z\257\203\016\301"
 473      926583E0 
 473      5957E606 
 473      C17AAF83 
 473      0EC1
 474 09b7 30BD859A 		.ascii	"0\275\205\232\2760\273\351\317qM\207\234\212\362r\352"
 474      BE30BBE9 
 474      CF714D87 
 474      9C8AF272 
 474      EA
 475 09c8 4D473169 		.ascii	"MG1idc\322\304Q\262\023j\325\307\256\214Z\325\351\345"
 475      6463D2C4 
 475      51B2136A 
 475      D5C7AE8C 
 475      5AD5E9E5 
 476 09dc D6AABD6C 		.ascii	"\326\252\275l\255Zd\343V\326Z\265\2105l17\031\027\231"
 476      AD5A64E3 
 476      56D65AB5 
 476      88356C31 
 476      37191799 
 477 09f0 1F08FAB6 		.ascii	"\037\010\372\266\312A\276Y[X\263\226e7\213\262\2356"
 477      CA41BE59 
 477      5B58B396 
 477      65378BB2 
 477      9D36
 478 0a02 365CA133 		.ascii	"6\\\2413\315\301f\336p]\332\2652\275\341*\243\3359X"
 478      CDC166DE 
 478      705DDAB5 
 478      32BDE12A 
 478      A3DD3958 
 479 0a16 CD1BAEBB 		.ascii	"\315\033\256\273\351\206+4\2459\270,\033\256\213\227"
 479      E9862B34 
 479      A539B82C 
 479      1BAE8B97 
 480 0a26 9B375C97 		.ascii	"\2337\\\227\261\360-\347\327\212OR\360\345\261\205\260"
 480      B1F02DE7 
 480      D78A4F52 
 480      F0E5B185 
 480      B0
 481 0a37 D2957B57 		.ascii	"\322\225{W\3510?\012\037\262Qhq\224\034\365x\357\247"
 481      E9303F0A 
 481      1FB25168 
 481      71941CF5 
 481      78EFA7
 482 0a4a 2439F41D 		.ascii	"$9\364\035\034\013\227\345c;5p5/\211\223\237\230\013"
 482      1C0B97E5 
 482      633B3570 
ARM GAS  /tmp/cckNTQpJ.s 			page 38


 482      352F8993 
 482      9F980B
 483 0a5d 23F14114 		.ascii	"#\361A\024N\363\255\374\230\265r\355yY\2716\273\225"
 483      4EF3ADFC 
 483      98B572ED 
 483      7959B936 
 483      BB95
 484 0a6f EB5CFFC5 		.ascii	"\353\\\377\305\247/\363\\\"\273<\266_\274l\237f]Y\236"
 484      A72FF35C 
 484      22BB3CB6 
 484      5FBC6C9F 
 484      665D599E 
 485 0a83 66AD692E 		.ascii	"f\255i.\341\332\2622\377\350Pxb\370\201J\177,\341\217"
 485      E1DAB232 
 485      FFE85078 
 485      62F8814A 
 485      7F2CE18F 
 486 0a97 ABFE7034 		.ascii	"\253\376p4\020\251\011*\376@(1%\241N\251V\022e!\301"
 486      10A9092A 
 486      FE402831 
 486      25A14EA9 
 486      56126521 
 487 0aac 43C6E12A 		.ascii	"C\306\341*ER\213\356\373\305\370\322\321B\302\037\235"
 487      45528BEE 
 487      FBC5F8D2 
 487      D142C21F 
 487      9D
 488 0abd A4D16DFE 		.ascii	"\244\321m\376P\254J\361\307\225\204\"\307\003!\177H"
 488      50AC4AF1 
 488      C7958422 
 488      C703217F 
 488      48
 489 0ace 8E071F97 		.ascii	"\216\007\037\227\343\212_\216W\225\373'\007\002#`0B"
 489      E38A5F8E 
 489      5795FB27 
 489      07022360 
 489      3042
 490 0ae0 A99AA804 		.ascii	"\251\232\250\004\203J0u!\032\213*#\024ybx\304\255\322"
 490      834A3075 
 490      211A8B2A 
 490      23147962 
 490      78C4ADD2 
 491 0af4 ED23CA6F 		.ascii	"\355#\312o\272\371\326\307\312\375\226\033)C\022j0\034"
 491      BAF9D6C7 
 491      CAFD961B 
 491      2943126A 
 491      301C
 492 0b06 55C10877 		.ascii	"U\301\010w\015\034o)\227\324i\350\377\247\275J\016\204"
 492      0D1C6F29 
 492      97D469E8 
 492      FFA7BD4A 
 492      0E84
 493 0b18 C251C52F 		.ascii	"\302Q\305/\005\225IrMD\225\014H\006H\222a\317\225&\020"
 493      05954972 
 493      4D44950C 
 493      48064892 
 493      61CF9526 
ARM GAS  /tmp/cckNTQpJ.s 			page 39


 494 0b2d 5525A112 		.ascii	"U%\241\022\030\311\021@+\013\010\005\265j`\"\252\366"
 494      18C91140 
 494      2B0B0805 
 494      B56A6022 
 494      AAF6
 495 0b3f C159B9A4 		.ascii	"\301Y\271\244<\241\004jT\2454\013\354\265\304\327\013"
 495      3CA1046A 
 495      54A5340B 
 495      ECB5C4D7 
 495      0B
 496 0b50 6AC371B5 		.ascii	"j\303q\265F\216H\004\365\270\244\226\004B\222\345\322"
 496      468E4804 
 496      F5B8A496 
 496      044292E5 
 496      D2
 497 0b61 D5D90217 		.ascii	"\325\331\002\027\010\005AFq\255*E\225'Tr\254\216+\265"
 497      08054146 
 497      71AD2A45 
 497      95275472 
 497      AC8E2BB5 
 498 0b75 6E380695 		.ascii	"n8\006\225\210*\303`RM4 iw\310\250\210\314\220\343\356"
 498      882AC360 
 498      524D3420 
 498      6977C8A8 
 498      88CC90E3 
 499 0b8a 40E8570F 		.ascii	"@\350W\017U*j\205\253V\255.\204\251\362\224\"}\252\013"
 499      552A6A85 
 499      AB56AD2E 
 499      84A9F294 
 499      227DAA0B 
 500 0b9e EE12076E 		.ascii	"\356\022\007n6\034\270\010Nn1N\312\340\256ZV\3563_\033"
 500      361CB808 
 500      4E6E314E 
 500      CAE0AE5A 
 500      56EE335F 
 501 0bb3 9E3DB1C0 		.ascii	"\236=\261\300\274\037g\314\250\216\305\325\204\177\324"
 501      BC1F67CC 
 501      A88EC5D5 
 501      847FD4
 502 0bc2 B8B1A3C7 		.ascii	"\270\261\243\307>\341\017\304\252\252\303\021%\236\360"
 502      3EE10FC4 
 502      AAAAC311 
 502      259EF0
 503 0bd1 DF377A34 		.ascii	"\3377z40\031\270\273\201\033\240\225\324\213\002\241"
 503      3019B8BB 
 503      811BA095 
 503      D48B02A1 
 504 0be1 CA298971 		.ascii	"\312)\211q\200s,\256T\252\262Z\223\2300D\273v\237\242"
 504      80732CAE 
 504      54AAB25A 
 504      93983044 
 504      BB769FA2 
 505 0bf5 EAE7A3A2 		.ascii	"\352\347\243\242\301\237\307\002\217N\030@\034\273;"
 505      C19FC702 
 505      8F4E1840 
 505      1CBB3B
 506 0c04 465CF3E9 		.ascii	"F\\\363\351C`\203\223\313l\002\007j\012\245\273b\261"
ARM GAS  /tmp/cckNTQpJ.s 			page 40


 506      43608393 
 506      CB6C0207 
 506      6A0AA5BB 
 506      62B1
 507 0c16 884F22A7 		.ascii	"\210O\"\247\222\234H(q\365\232,.\251\241\270\"\007\265"
 507      929C4828 
 507      71F59A2C 
 507      2EA9A1B8 
 507      2207B5
 508 0c29 BC08841E 		.ascii	"\274\010\204\036\012\005+#\212R}\261fMETU&\307\303\352"
 508      0A052B23 
 508      8A527DB1 
 508      664D4554 
 508      5526C7C3 
 509 0c3e 94D12125 		.ascii	"\224\321!%\360h\205\233H\014\310\011\245 \000\331Z\020"
 509      F068859B 
 509      480CC809 
 509      A52000D9 
 509      5A10
 510 0c50 95AB9442 		.ascii	"\225\253\224B\260\245\246\032n@\366\306\036\217\026"
 510      B0A5A61A 
 510      6E40F6C6 
 510      1E8F16
 511 0c5f 53080754 		.ascii	"S\010\007T\313\252\252\304\243\340\260\233\246\323\315"
 511      CBAAAAC4 
 511      A3E0B09B 
 511      A6D3CD
 512 0c6e 2565F158 		.ascii	"%e\361XPV\3452\343\302\245\240AU\252n,\015\200\212p"
 512      5056E532 
 512      E3C2A5A0 
 512      4155AA6E 
 512      2C0D808A 
 513 0c83 408E943E 		.ascii	"@\216\224>\0119\234\020\014\216\362+\214\011\220\254"
 513      09399C10 
 513      0C8EF22B 
 513      8C0990AC 
 514 0c93 4A3C5E53 		.ascii	"J<^S\255&JCr4\030\011G'\247f\3352\330<K\263V\360i\326"
 514      AD264A43 
 514      72341809 
 514      4727A766 
 514      DD32D83C 
 515 0cad 57D624AA 		.ascii	"W\326$\252\225h\360\206\034\301\012\005 \010R\355O\252"
 515      9568F086 
 515      1CC10A05 
 515      200852ED 
 515      4FAA
 516 0cbf 00011FB9 		.ascii	"\000\001\037\271%%t\3062+#\244\243\177\364\330\312\212"
 516      252574C6 
 516      322B23A4 
 516      A37FF4D8 
 516      CA8A
 517 0cd1 CA347684 		.ascii	"\3124v\2041Pu/d\031\360\016\224$\000C\272kT\345=\017"
 517      3150752F 
 517      6419F00E 
 517      94240043 
 517      BA6B54E5 
 518 0ce7 8EAB1828 		.ascii	"\216\253\030(G\036\227\247$\244p\024\254U\012k\345H"
ARM GAS  /tmp/cckNTQpJ.s 			page 41


 518      471E97A7 
 518      24A47014 
 518      AC550A6B 
 518      E548
 519 0cf9 8DE29324 		.ascii	"\215\342\223$%*O\214(R8\376\230n\343\335\341\004\271"
 519      252A4F8C 
 519      285238FE 
 519      986EE3DD 
 519      E104B9
 520 0d0c A0EB0DEA 		.ascii	"\240\353\015\352' \210\216\310<\2576\357\036\215\317"
 520      2720888E 
 520      C83CAF36 
 520      EF1E8DCF 
 521 0d1c AB4DD365 		.ascii	"\253M\323e\224h\327I\216\334\033\217UUT\216\033\254"
 521      9468D749 
 521      8EDC1B8F 
 521      5555548E 
 521      1BAC
 522 0d2e DD8CC005 		.ascii	"\335\214\300\005i\022\\\221\302\211\270'ui\2606{|4\222"
 522      69125C91 
 522      C289B827 
 522      7569B036 
 522      7B7C3492 
 523 0d42 9E7FB176 		.ascii	"\236\177\261v\263&j\341\360\232.j\251\247g\233'\245"
 523      B3266AE1 
 523      F09A2E6A 
 523      A9A7679B 
 523      27A5
 524 0d54 CC6B1234 		.ascii	"\314k\0224\204\216\003\261h\020\"\030\213\312\0212\345"
 524      848E03B1 
 524      68102218 
 524      8BCA1132 
 524      E5
 525 0d65 224DC664 		.ascii	"\"M\306d\300\002\314\227\022Z:\203O\223\323\340\014"
 525      C002CC97 
 525      125A3A83 
 525      4F93D3E0 
 525      0C
 526 0d76 CD64D425 		.ascii	"\315d\324%\016\"*\037\230\370\210\022P+\242a\265\230"
 526      0E222A1F 
 526      98F88812 
 526      502BA261 
 526      B598
 527 0d88 AE6A2F39 		.ascii	"\256j/9V$F\305\253\224\240\3174\256\3707>\026cO"
 527      562446C5 
 527      AB94A0CF 
 527      34AEF837 
 527      3E16634F 
 528              		.text
 529              		.section	.gnu.lto_.symtab.b1f5df989439ef9a,"",%progbits
 530 0000 70617474 		.ascii	"patternsys\000\000\000\000\000\000\000\000\000\000\000"
 530      65726E73 
 530      79730000 
 530      00000000 
 530      00000000 
 531 0015 00050100 		.ascii	"\000\005\001\000\000testsys1\000\000\000\000\000\000"
 531      00746573 
ARM GAS  /tmp/cckNTQpJ.s 			page 42


 531      74737973 
 531      31000000 
 531      000000
 532 0028 00000000 		.ascii	"\000\000\000\000\000\000 \001\000\000testsys2\000\000"
 532      00002001 
 532      00007465 
 532      73747379 
 532      73320000 
 533 003c 00000000 		.ascii	"\000\000\000\000\000\000\000\000\000\000+\001\000\000"
 533      00000000 
 533      00002B01 
 533      0000
 534 004a 74657374 		.ascii	"testsys3\000\000\000\000\000\000\000\000\000\000\000"
 534      73797333 
 534      00000000 
 534      00000000 
 534      000000
 535 005d 00350100 		.ascii	"\0005\001\000\000chSysRestoreStatusX\000\000\002\000"
 535      00636853 
 535      79735265 
 535      73746F72 
 535      65537461 
 536 0079 00000000 		.ascii	"\000\000\000\000\000\000\000\000\345\000\000\000chS"
 536      00000000 
 536      E5000000 
 536      636853
 537 0088 79734765 		.ascii	"ysGetStatusAndLockX\000\000\002\000\000\000\000\000"
 537      74537461 
 537      74757341 
 537      6E644C6F 
 537      636B5800 
 538 00a3 00000000 		.ascii	"\000\000\000\000\354\000\000\000chVTDoSetI\000\000\002"
 538      EC000000 
 538      63685654 
 538      446F5365 
 538      74490000 
 539 00b8 00000000 		.ascii	"\000\000\000\000\000\000\000\000\000\357\000\000\000"
 539      00000000 
 539      00EF0000 
 539      00
 540 00c5 63685654 		.ascii	"chVTDoResetI\000\000\002\000\000\000\000\000\000\000"
 540      446F5265 
 540      73657449 
 540      00000200 
 540      00000000 
 541 00db 0000F100 		.ascii	"\000\000\361\000\000\000_test_assert\000\000\002\000"
 541      00005F74 
 541      6573745F 
 541      61737365 
 541      72740000 
 542 00f1 00000000 		.ascii	"\000\000\000\000\000\000\000\000\365\000\000\000chT"
 542      00000000 
 542      F5000000 
 542      636854
 543 0100 6864536C 		.ascii	"hdSleep\000\000\002\000\000\000\000\000\000\000\000"
 543      65657000 
 543      00020000 
ARM GAS  /tmp/cckNTQpJ.s 			page 43


 543      00000000 
 543      0000
 544 0112 00FD0000 		.ascii	"\000\375\000\000\000chSysIntegrityCheckI\000\000\002"
 544      00636853 
 544      7973496E 
 544      74656772 
 544      69747943 
 545 012e 00000000 		.ascii	"\000\000\000\000\000\000\000\000\000\001\001\000\000"
 545      00000000 
 545      00010100 
 545      00
 546              		.text
 547              		.section	.gnu.lto_.opts,"",%progbits
 548 0000 272D6D63 		.ascii	"'-mcpu=cortex-m4' '-mno-thumb-interwork' '-mthumb' "
 548      70753D63 
 548      6F727465 
 548      782D6D34 
 548      2720272D 
 549 0033 272D6767 		.ascii	"'-ggdb' '-O2' '-fomit-frame-pointer' '-falign-funct"
 549      64622720 
 549      272D4F32 
 549      2720272D 
 549      666F6D69 
 550 0066 696F6E73 		.ascii	"ions=16' '-ffunction-sections' '-fdata-sections' '-"
 550      3D313627 
 550      20272D66 
 550      66756E63 
 550      74696F6E 
 551 0099 666E6F2D 		.ascii	"fno-common' '-flto'\000"
 551      636F6D6D 
 551      6F6E2720 
 551      272D666C 
 551      746F2700 
 552              		.text
 553              		.cfi_sections	.debug_frame
 554              		.section	.text.sys2_execute,"ax",%progbits
 555              		.align	2
 556              		.p2align 4,,15
 557              		.thumb
 558              		.thumb_func
 559              		.type	sys2_execute, %function
 560              	sys2_execute:
 561              	.LFB243:
 562              		.file 1 "../ChibiOS/test/rt/testsys.c"
 563              		.loc 1 115 0
 564              		.cfi_startproc
 565              		@ args = 0, pretend = 0, frame = 0
 566              		@ frame_needed = 0, uses_anonymous_args = 0
 567              		@ link register save eliminated.
 568              	.LVL0:
 569              	.LBB324:
 570              	.LBB325:
 571              	.LBB326:
 572              	.LBB327:
 573              		.file 2 "../ChibiOS/os/ext/CMSIS/include/core_cmFunc.h"
 574              		.loc 2 548 0
 575 0000 2023     		movs	r3, #32
ARM GAS  /tmp/cckNTQpJ.s 			page 44


 576              	@ 548 "../ChibiOS/os/ext/CMSIS/include/core_cmFunc.h" 1
 577 0002 83F31188 		MSR basepri, r3
 578              	@ 0 "" 2
 579              		.thumb
 580              	.LBE327:
 581              	.LBE326:
 582              	.LBB328:
 583              	.LBB329:
 584              		.loc 2 333 0
 585              	@ 333 "../ChibiOS/os/ext/CMSIS/include/core_cmFunc.h" 1
 586 0006 62B6     		cpsie i
 587              	@ 0 "" 2
 588              		.thumb
 589              	.LBE329:
 590              	.LBE328:
 591              	.LBE325:
 592              	.LBE324:
 593              	.LBB330:
 594              	.LBB331:
 595              	.LBB332:
 596              	.LBB333:
 597              		.loc 2 344 0
 598              	@ 344 "../ChibiOS/os/ext/CMSIS/include/core_cmFunc.h" 1
 599 0008 72B6     		cpsid i
 600              	@ 0 "" 2
 601              	.LVL1:
 602              		.thumb
 603              	.LBE333:
 604              	.LBE332:
 605              	.LBE331:
 606              	.LBE330:
 607              	.LBB334:
 608              	.LBB335:
 609              	.LBB336:
 610              	.LBB337:
 611              		.loc 2 548 0
 612              	@ 548 "../ChibiOS/os/ext/CMSIS/include/core_cmFunc.h" 1
 613 000a 83F31188 		MSR basepri, r3
 614              	@ 0 "" 2
 615              		.thumb
 616              	.LBE337:
 617              	.LBE336:
 618              	.LBB338:
 619              	.LBB339:
 620              		.loc 2 333 0
 621              	@ 333 "../ChibiOS/os/ext/CMSIS/include/core_cmFunc.h" 1
 622 000e 62B6     		cpsie i
 623              	@ 0 "" 2
 624              	.LVL2:
 625              		.thumb
 626              	.LBE339:
 627              	.LBE338:
 628              	.LBE335:
 629              	.LBE334:
 630              	.LBB340:
 631              	.LBB341:
 632              	.LBB342:
ARM GAS  /tmp/cckNTQpJ.s 			page 45


 633              	.LBB343:
 634              		.loc 2 548 0
 635 0010 0023     		movs	r3, #0
 636              	@ 548 "../ChibiOS/os/ext/CMSIS/include/core_cmFunc.h" 1
 637 0012 83F31188 		MSR basepri, r3
 638              	@ 0 "" 2
 639              		.thumb
 640              	.LBE343:
 641              	.LBE342:
 642              	.LBB344:
 643              	.LBB345:
 644              		.loc 2 333 0
 645              	@ 333 "../ChibiOS/os/ext/CMSIS/include/core_cmFunc.h" 1
 646 0016 62B6     		cpsie i
 647              	@ 0 "" 2
 648              		.thumb
 649 0018 7047     		bx	lr
 650              	.LBE345:
 651              	.LBE344:
 652              	.LBE341:
 653              	.LBE340:
 654              		.cfi_endproc
 655              	.LFE243:
 656              		.size	sys2_execute, .-sys2_execute
 657 001a 00BFAFF3 		.section	.text.vtcb,"ax",%progbits
 657      0080
 658              		.align	2
 659              		.p2align 4,,15
 660              		.thumb
 661              		.thumb_func
 662              		.type	vtcb, %function
 663              	vtcb:
 664              	.LFB241:
 665              		.loc 1 53 0
 666              		.cfi_startproc
 667              		@ args = 0, pretend = 0, frame = 0
 668              		@ frame_needed = 0, uses_anonymous_args = 0
 669              	.LVL3:
 670 0000 10B5     		push	{r4, lr}
 671              		.cfi_def_cfa_offset 8
 672              		.cfi_offset 4, -8
 673              		.cfi_offset 14, -4
 674              	.LBB346:
 675              	.LBB347:
 676              	.LBB348:
 677              	.LBB349:
 678              	.LBB350:
 679              		.loc 2 548 0
 680 0002 2023     		movs	r3, #32
 681              	@ 548 "../ChibiOS/os/ext/CMSIS/include/core_cmFunc.h" 1
 682 0004 83F31188 		MSR basepri, r3
 683              	@ 0 "" 2
 684              	.LVL4:
 685              		.thumb
 686              	.LBE350:
 687              	.LBE349:
 688              	.LBE348:
ARM GAS  /tmp/cckNTQpJ.s 			page 46


 689              	.LBE347:
 690              	.LBE346:
 691              	.LBB351:
 692              	.LBB352:
 693              	.LBB353:
 694              	.LBB354:
 695              	.LBB355:
 696 0008 0024     		movs	r4, #0
 697              	@ 548 "../ChibiOS/os/ext/CMSIS/include/core_cmFunc.h" 1
 698 000a 84F31188 		MSR basepri, r4
 699              	@ 0 "" 2
 700              	.LVL5:
 701              		.thumb
 702              	.LBE355:
 703              	.LBE354:
 704              	.LBE353:
 705              	.LBE352:
 706              	.LBE351:
 707              	.LBB356:
 708              	.LBB357:
 709              	.LBB358:
 710              	.LBB359:
 711              	.LBB360:
 712              	@ 548 "../ChibiOS/os/ext/CMSIS/include/core_cmFunc.h" 1
 713 000e 83F31188 		MSR basepri, r3
 714              	@ 0 "" 2
 715              		.thumb
 716              	.LBE360:
 717              	.LBE359:
 718              	.LBE358:
 719              	.LBE357:
 720              	.LBE356:
 721              		.loc 1 64 0
 722 0012 FFF7FEFF 		bl	chSysGetStatusAndLockX
 723              	.LVL6:
 724              		.loc 1 65 0
 725 0016 FFF7FEFF 		bl	chSysRestoreStatusX
 726              	.LVL7:
 727              	.LBB361:
 728              	.LBB362:
 729              	.LBB363:
 730              	.LBB364:
 731              	.LBB365:
 732              		.loc 2 548 0
 733              	@ 548 "../ChibiOS/os/ext/CMSIS/include/core_cmFunc.h" 1
 734 001a 84F31188 		MSR basepri, r4
 735              	@ 0 "" 2
 736              		.thumb
 737 001e 10BD     		pop	{r4, pc}
 738              	.LBE365:
 739              	.LBE364:
 740              	.LBE363:
 741              	.LBE362:
 742              	.LBE361:
 743              		.cfi_endproc
 744              	.LFE241:
 745              		.size	vtcb, .-vtcb
ARM GAS  /tmp/cckNTQpJ.s 			page 47


 746              		.section	.text.sys3_execute,"ax",%progbits
 747              		.align	2
 748              		.p2align 4,,15
 749              		.thumb
 750              		.thumb_func
 751              		.type	sys3_execute, %function
 752              	sys3_execute:
 753              	.LFB244:
 754              		.loc 1 138 0
 755              		.cfi_startproc
 756              		@ args = 0, pretend = 0, frame = 0
 757              		@ frame_needed = 0, uses_anonymous_args = 0
 758              	.LVL8:
 759 0000 38B5     		push	{r3, r4, r5, lr}
 760              		.cfi_def_cfa_offset 16
 761              		.cfi_offset 3, -16
 762              		.cfi_offset 4, -12
 763              		.cfi_offset 5, -8
 764              		.cfi_offset 14, -4
 765              	.LBB431:
 766              	.LBB432:
 767              	.LBB433:
 768              	.LBB434:
 769              		.loc 2 548 0
 770 0002 2024     		movs	r4, #32
 771              	@ 548 "../ChibiOS/os/ext/CMSIS/include/core_cmFunc.h" 1
 772 0004 84F31188 		MSR basepri, r4
 773              	@ 0 "" 2
 774              		.thumb
 775              	.LBE434:
 776              	.LBE433:
 777              	.LBE432:
 778              	.LBE431:
 779              		.loc 1 142 0
 780 0008 0120     		movs	r0, #1
 781 000a FFF7FEFF 		bl	chSysIntegrityCheckI
 782              	.LVL9:
 783              	.LBB435:
 784              	.LBB436:
 785              	.LBB437:
 786              	.LBB438:
 787              	.LBB439:
 788              		.loc 2 548 0
 789 000e 0023     		movs	r3, #0
 790              	@ 548 "../ChibiOS/os/ext/CMSIS/include/core_cmFunc.h" 1
 791 0010 83F31188 		MSR basepri, r3
 792              	@ 0 "" 2
 793              		.thumb
 794              	.LBE439:
 795              	.LBE438:
 796              	.LBE437:
 797              	.LBE436:
 798              	.LBE435:
 799              		.loc 1 144 0
 800 0014 80F00101 		eor	r1, r0, #1
 801 0018 C9B2     		uxtb	r1, r1
 802 001a 0120     		movs	r0, #1
ARM GAS  /tmp/cckNTQpJ.s 			page 48


 803              	.LVL10:
 804 001c FFF7FEFF 		bl	_test_assert
 805              	.LVL11:
 806 0020 0546     		mov	r5, r0
 807 0022 00B1     		cbz	r0, .L8
 808              	.L3:
 809 0024 38BD     		pop	{r3, r4, r5, pc}
 810              	.L8:
 811              	.LVL12:
 812              	.LBB440:
 813              	.LBB441:
 814              	.LBB442:
 815              	.LBB443:
 816              		.loc 2 548 0
 817              	@ 548 "../ChibiOS/os/ext/CMSIS/include/core_cmFunc.h" 1
 818 0026 84F31188 		MSR basepri, r4
 819              	@ 0 "" 2
 820              		.thumb
 821              	.LBE443:
 822              	.LBE442:
 823              	.LBE441:
 824              	.LBE440:
 825              		.loc 1 147 0
 826 002a 0220     		movs	r0, #2
 827 002c FFF7FEFF 		bl	chSysIntegrityCheckI
 828              	.LVL13:
 829              	.LBB444:
 830              	.LBB445:
 831              	.LBB446:
 832              	.LBB447:
 833              	.LBB448:
 834              		.loc 2 548 0
 835              	@ 548 "../ChibiOS/os/ext/CMSIS/include/core_cmFunc.h" 1
 836 0030 85F31188 		MSR basepri, r5
 837              	@ 0 "" 2
 838              		.thumb
 839              	.LBE448:
 840              	.LBE447:
 841              	.LBE446:
 842              	.LBE445:
 843              	.LBE444:
 844              		.loc 1 149 0
 845 0034 80F00101 		eor	r1, r0, #1
 846 0038 C9B2     		uxtb	r1, r1
 847 003a 0220     		movs	r0, #2
 848              	.LVL14:
 849 003c FFF7FEFF 		bl	_test_assert
 850              	.LVL15:
 851 0040 0546     		mov	r5, r0
 852 0042 0028     		cmp	r0, #0
 853 0044 EED1     		bne	.L3
 854              	.LVL16:
 855              	.LBB449:
 856              	.LBB450:
 857              	.LBB451:
 858              	.LBB452:
 859              		.loc 2 548 0
ARM GAS  /tmp/cckNTQpJ.s 			page 49


 860              	@ 548 "../ChibiOS/os/ext/CMSIS/include/core_cmFunc.h" 1
 861 0046 84F31188 		MSR basepri, r4
 862              	@ 0 "" 2
 863              		.thumb
 864              	.LBE452:
 865              	.LBE451:
 866              	.LBE450:
 867              	.LBE449:
 868              		.loc 1 152 0
 869 004a 0420     		movs	r0, #4
 870 004c FFF7FEFF 		bl	chSysIntegrityCheckI
 871              	.LVL17:
 872              	.LBB453:
 873              	.LBB454:
 874              	.LBB455:
 875              	.LBB456:
 876              	.LBB457:
 877              		.loc 2 548 0
 878              	@ 548 "../ChibiOS/os/ext/CMSIS/include/core_cmFunc.h" 1
 879 0050 85F31188 		MSR basepri, r5
 880              	@ 0 "" 2
 881              		.thumb
 882              	.LBE457:
 883              	.LBE456:
 884              	.LBE455:
 885              	.LBE454:
 886              	.LBE453:
 887              		.loc 1 154 0
 888 0054 80F00101 		eor	r1, r0, #1
 889 0058 C9B2     		uxtb	r1, r1
 890 005a 0320     		movs	r0, #3
 891              	.LVL18:
 892 005c FFF7FEFF 		bl	_test_assert
 893              	.LVL19:
 894 0060 0546     		mov	r5, r0
 895 0062 0028     		cmp	r0, #0
 896 0064 DED1     		bne	.L3
 897              	.LVL20:
 898              	.LBB458:
 899              	.LBB459:
 900              	.LBB460:
 901              	.LBB461:
 902              	.LBB462:
 903              	.LBB463:
 904              		.loc 2 548 0
 905              	@ 548 "../ChibiOS/os/ext/CMSIS/include/core_cmFunc.h" 1
 906 0066 84F31188 		MSR basepri, r4
 907              	@ 0 "" 2
 908              		.thumb
 909              	.LBE463:
 910              	.LBE462:
 911              	.LBE461:
 912              	.LBE460:
 913              		.loc 1 157 0
 914 006a 0820     		movs	r0, #8
 915 006c FFF7FEFF 		bl	chSysIntegrityCheckI
 916              	.LVL21:
ARM GAS  /tmp/cckNTQpJ.s 			page 50


 917              	.LBB464:
 918              	.LBB465:
 919              	.LBB466:
 920              	.LBB467:
 921              	.LBB468:
 922              		.loc 2 548 0
 923              	@ 548 "../ChibiOS/os/ext/CMSIS/include/core_cmFunc.h" 1
 924 0070 85F31188 		MSR basepri, r5
 925              	@ 0 "" 2
 926              		.thumb
 927              	.LBE468:
 928              	.LBE467:
 929              	.LBE466:
 930              	.LBE465:
 931              	.LBE464:
 932              		.loc 1 159 0
 933 0074 80F00101 		eor	r1, r0, #1
 934 0078 C9B2     		uxtb	r1, r1
 935 007a 0420     		movs	r0, #4
 936              	.LVL22:
 937              	.LBE459:
 938              	.LBE458:
 939              		.loc 1 160 0
 940 007c BDE83840 		pop	{r3, r4, r5, lr}
 941              	.LBB470:
 942              	.LBB469:
 943              		.loc 1 159 0
 944 0080 FFF7FEBF 		b	_test_assert
 945              	.LVL23:
 946              	.LBE469:
 947              	.LBE470:
 948              		.cfi_endproc
 949              	.LFE244:
 950              		.size	sys3_execute, .-sys3_execute
 951 0084 AFF30080 		.section	.text.sys1_execute,"ax",%progbits
 951      AFF30080 
 951      AFF30080 
 952              		.align	2
 953              		.p2align 4,,15
 954              		.thumb
 955              		.thumb_func
 956              		.type	sys1_execute, %function
 957              	sys1_execute:
 958              	.LFB242:
 959              		.loc 1 69 0
 960              		.cfi_startproc
 961              		@ args = 0, pretend = 0, frame = 24
 962              		@ frame_needed = 0, uses_anonymous_args = 0
 963 0000 10B5     		push	{r4, lr}
 964              		.cfi_def_cfa_offset 8
 965              		.cfi_offset 4, -8
 966              		.cfi_offset 14, -4
 967 0002 86B0     		sub	sp, sp, #24
 968              		.cfi_def_cfa_offset 32
 969              		.loc 1 74 0
 970 0004 FFF7FEFF 		bl	chSysGetStatusAndLockX
 971              	.LVL24:
ARM GAS  /tmp/cckNTQpJ.s 			page 51


 972              		.loc 1 75 0
 973 0008 FFF7FEFF 		bl	chSysRestoreStatusX
 974              	.LVL25:
 975              	.LBB561:
 976              	.LBB562:
 977              	.LBB563:
 978              	.LBB564:
 979              		.loc 2 548 0
 980 000c 2024     		movs	r4, #32
 981              	@ 548 "../ChibiOS/os/ext/CMSIS/include/core_cmFunc.h" 1
 982 000e 84F31188 		MSR basepri, r4
 983              	@ 0 "" 2
 984              		.thumb
 985              	.LBE564:
 986              	.LBE563:
 987              	.LBE562:
 988              	.LBE561:
 989              		.loc 1 79 0
 990 0012 FFF7FEFF 		bl	chSysGetStatusAndLockX
 991              	.LVL26:
 992              		.loc 1 80 0
 993 0016 FFF7FEFF 		bl	chSysRestoreStatusX
 994              	.LVL27:
 995              	.LBB565:
 996              	.LBB566:
 997              	.LBB567:
 998              	.LBB568:
 999              	.LBB569:
 1000              		.loc 2 548 0
 1001 001a 0023     		movs	r3, #0
 1002              	@ 548 "../ChibiOS/os/ext/CMSIS/include/core_cmFunc.h" 1
 1003 001c 83F31188 		MSR basepri, r3
 1004              	@ 0 "" 2
 1005              		.thumb
 1006              	.LBE569:
 1007              	.LBE568:
 1008              	.LBE567:
 1009              	.LBE566:
 1010              	.LBE565:
 1011              	.LBB570:
 1012              	.LBB571:
 1013              	.LBB572:
 1014              	.LBB573:
 1015              	.LBB574:
 1016              	.LBB575:
 1017              		.loc 2 535 0
 1018              	@ 535 "../ChibiOS/os/ext/CMSIS/include/core_cmFunc.h" 1
 1019 0020 EFF31183 		MRS r3, basepri
 1020              	@ 0 "" 2
 1021              	.LVL28:
 1022              		.thumb
 1023              	.LBE575:
 1024              	.LBE574:
 1025              	.LBE573:
 1026              	.LBE572:
 1027              		.file 3 "../ChibiOS/os/rt/include/chsys.h"
 1028              		.loc 3 422 0
ARM GAS  /tmp/cckNTQpJ.s 			page 52


 1029 0024 0BB9     		cbnz	r3, .L10
 1030              	.LVL29:
 1031              	.LBB576:
 1032              	.LBB577:
 1033              	.LBB578:
 1034              	.LBB579:
 1035              		.loc 2 548 0
 1036              	@ 548 "../ChibiOS/os/ext/CMSIS/include/core_cmFunc.h" 1
 1037 0026 84F31188 		MSR basepri, r4
 1038              	@ 0 "" 2
 1039              	.LVL30:
 1040              		.thumb
 1041              	.L10:
 1042              	.LBE579:
 1043              	.LBE578:
 1044              	.LBE577:
 1045              	.LBE576:
 1046              	.LBE571:
 1047              	.LBE570:
 1048              	.LBB580:
 1049              	.LBB581:
 1050              	.LBB582:
 1051              	.LBB583:
 1052              	.LBB584:
 1053              	.LBB585:
 1054              		.loc 2 535 0
 1055              	@ 535 "../ChibiOS/os/ext/CMSIS/include/core_cmFunc.h" 1
 1056 002a EFF31183 		MRS r3, basepri
 1057              	@ 0 "" 2
 1058              	.LVL31:
 1059              		.thumb
 1060              	.LBE585:
 1061              	.LBE584:
 1062              	.LBE583:
 1063              	.LBE582:
 1064              		.loc 3 422 0
 1065 002e 13B9     		cbnz	r3, .L11
 1066              	.LVL32:
 1067              	.LBB586:
 1068              	.LBB587:
 1069              	.LBB588:
 1070              	.LBB589:
 1071              		.loc 2 548 0
 1072 0030 2023     		movs	r3, #32
 1073              	.LVL33:
 1074              	@ 548 "../ChibiOS/os/ext/CMSIS/include/core_cmFunc.h" 1
 1075 0032 83F31188 		MSR basepri, r3
 1076              	@ 0 "" 2
 1077              	.LVL34:
 1078              		.thumb
 1079              	.L11:
 1080              	.LBE589:
 1081              	.LBE588:
 1082              	.LBE587:
 1083              	.LBE586:
 1084              	.LBE581:
 1085              	.LBE580:
ARM GAS  /tmp/cckNTQpJ.s 			page 53


 1086              	.LBB590:
 1087              	.LBB591:
 1088              	.LBB592:
 1089              	.LBB593:
 1090              	.LBB594:
 1091 0036 0023     		movs	r3, #0
 1092              	@ 548 "../ChibiOS/os/ext/CMSIS/include/core_cmFunc.h" 1
 1093 0038 83F31188 		MSR basepri, r3
 1094              	@ 0 "" 2
 1095              	.LVL35:
 1096              		.thumb
 1097              	.LBE594:
 1098              	.LBE593:
 1099              	.LBE592:
 1100              	.LBE591:
 1101              	.LBE590:
 1102              	.LBB595:
 1103              	.LBB596:
 1104              	.LBB597:
 1105              	.LBB598:
 1106 003c 2022     		movs	r2, #32
 1107              	@ 548 "../ChibiOS/os/ext/CMSIS/include/core_cmFunc.h" 1
 1108 003e 82F31188 		MSR basepri, r2
 1109              	@ 0 "" 2
 1110              		.thumb
 1111              	.LBE598:
 1112              	.LBE597:
 1113              	.LBE596:
 1114              	.LBE595:
 1115              	.LBB599:
 1116              	.LBB600:
 1117              	.LBB601:
 1118              	.LBB602:
 1119              	.LBB603:
 1120              	.LBB604:
 1121              		.loc 2 535 0
 1122              	@ 535 "../ChibiOS/os/ext/CMSIS/include/core_cmFunc.h" 1
 1123 0042 EFF31182 		MRS r2, basepri
 1124              	@ 0 "" 2
 1125              	.LVL36:
 1126              		.thumb
 1127              	.LBE604:
 1128              	.LBE603:
 1129              	.LBE602:
 1130              	.LBE601:
 1131              		.loc 3 436 0
 1132 0046 0AB1     		cbz	r2, .L12
 1133              	.LVL37:
 1134              	.LBB605:
 1135              	.LBB606:
 1136              	.LBB607:
 1137              	.LBB608:
 1138              	.LBB609:
 1139              		.loc 2 548 0
 1140              	@ 548 "../ChibiOS/os/ext/CMSIS/include/core_cmFunc.h" 1
 1141 0048 83F31188 		MSR basepri, r3
 1142              	@ 0 "" 2
ARM GAS  /tmp/cckNTQpJ.s 			page 54


 1143              	.LVL38:
 1144              		.thumb
 1145              	.L12:
 1146              	.LBE609:
 1147              	.LBE608:
 1148              	.LBE607:
 1149              	.LBE606:
 1150              	.LBE605:
 1151              	.LBE600:
 1152              	.LBE599:
 1153              	.LBB610:
 1154              	.LBB611:
 1155              	.LBB612:
 1156              	.LBB613:
 1157              	.LBB614:
 1158              	.LBB615:
 1159              		.loc 2 535 0
 1160              	@ 535 "../ChibiOS/os/ext/CMSIS/include/core_cmFunc.h" 1
 1161 004c EFF31183 		MRS r3, basepri
 1162              	@ 0 "" 2
 1163              	.LVL39:
 1164              		.thumb
 1165              	.LBE615:
 1166              	.LBE614:
 1167              	.LBE613:
 1168              	.LBE612:
 1169              		.loc 3 436 0
 1170 0050 13B1     		cbz	r3, .L13
 1171              	.LVL40:
 1172              	.LBB616:
 1173              	.LBB617:
 1174              	.LBB618:
 1175              	.LBB619:
 1176              	.LBB620:
 1177              		.loc 2 548 0
 1178 0052 0023     		movs	r3, #0
 1179              	.LVL41:
 1180              	@ 548 "../ChibiOS/os/ext/CMSIS/include/core_cmFunc.h" 1
 1181 0054 83F31188 		MSR basepri, r3
 1182              	@ 0 "" 2
 1183              	.LVL42:
 1184              		.thumb
 1185              	.L13:
 1186              	.LBE620:
 1187              	.LBE619:
 1188              	.LBE618:
 1189              	.LBE617:
 1190              	.LBE616:
 1191              	.LBE611:
 1192              	.LBE610:
 1193              	.LBB621:
 1194              	.LBB622:
 1195              		.file 4 "../ChibiOS/os/rt/include/chvt.h"
 1196              		.loc 4 212 0
 1197 0058 0023     		movs	r3, #0
 1198 005a 0493     		str	r3, [sp, #16]
 1199              	.LVL43:
ARM GAS  /tmp/cckNTQpJ.s 			page 55


 1200              	.LBE622:
 1201              	.LBE621:
 1202              	.LBB623:
 1203              	.LBB624:
 1204              	.LBB625:
 1205              	.LBB626:
 1206              	.LBB627:
 1207              		.loc 2 548 0
 1208 005c 2023     		movs	r3, #32
 1209              	@ 548 "../ChibiOS/os/ext/CMSIS/include/core_cmFunc.h" 1
 1210 005e 83F31188 		MSR basepri, r3
 1211              	@ 0 "" 2
 1212              	.LVL44:
 1213              		.thumb
 1214              	.LBE627:
 1215              	.LBE626:
 1216              	.LBE625:
 1217              	.LBE624:
 1218              	.LBB628:
 1219              	.LBB629:
 1220              	.LBB630:
 1221              	.LBB631:
 1222              		.loc 4 412 0
 1223 0062 049B     		ldr	r3, [sp, #16]
 1224              		.loc 4 413 0
 1225 0064 01AC     		add	r4, sp, #4
 1226              	.LVL45:
 1227              		.loc 4 412 0
 1228 0066 13B1     		cbz	r3, .L14
 1229              		.loc 4 413 0
 1230 0068 2046     		mov	r0, r4
 1231 006a FFF7FEFF 		bl	chVTDoResetI
 1232              	.LVL46:
 1233              	.L14:
 1234              	.LBE631:
 1235              	.LBE630:
 1236              		.loc 4 460 0
 1237 006e 2046     		mov	r0, r4
 1238 0070 0121     		movs	r1, #1
 1239 0072 0C4A     		ldr	r2, .L26
 1240 0074 0023     		movs	r3, #0
 1241 0076 FFF7FEFF 		bl	chVTDoSetI
 1242              	.LVL47:
 1243              	.LBE629:
 1244              	.LBE628:
 1245              	.LBB632:
 1246              	.LBB633:
 1247              	.LBB634:
 1248              	.LBB635:
 1249              	.LBB636:
 1250              		.loc 2 548 0
 1251 007a 0024     		movs	r4, #0
 1252              	.LVL48:
 1253              	@ 548 "../ChibiOS/os/ext/CMSIS/include/core_cmFunc.h" 1
 1254 007c 84F31188 		MSR basepri, r4
 1255              	@ 0 "" 2
 1256              		.thumb
ARM GAS  /tmp/cckNTQpJ.s 			page 56


 1257              	.LBE636:
 1258              	.LBE635:
 1259              	.LBE634:
 1260              	.LBE633:
 1261              	.LBE632:
 1262              	.LBE623:
 1263              		.loc 1 96 0
 1264 0080 0A20     		movs	r0, #10
 1265 0082 FFF7FEFF 		bl	chThdSleep
 1266              	.LVL49:
 1267              	.LBB637:
 1268              	.LBB638:
 1269              	.LBB639:
 1270              	.LBB640:
 1271              	.LBB641:
 1272              	.LBB642:
 1273              		.loc 2 548 0
 1274 0086 2023     		movs	r3, #32
 1275              	@ 548 "../ChibiOS/os/ext/CMSIS/include/core_cmFunc.h" 1
 1276 0088 83F31188 		MSR basepri, r3
 1277              	@ 0 "" 2
 1278              		.thumb
 1279              	.LBE642:
 1280              	.LBE641:
 1281              	.LBE640:
 1282              	.LBE639:
 1283              	.LBE638:
 1284              	.LBE637:
 1285              		.loc 4 390 0
 1286 008c 0499     		ldr	r1, [sp, #16]
 1287              	.LVL50:
 1288              	.LBB649:
 1289              	.LBB648:
 1290              	.LBB643:
 1291              	.LBB644:
 1292              	.LBB645:
 1293              	.LBB646:
 1294              	.LBB647:
 1295              		.loc 2 548 0
 1296              	@ 548 "../ChibiOS/os/ext/CMSIS/include/core_cmFunc.h" 1
 1297 008e 84F31188 		MSR basepri, r4
 1298              	@ 0 "" 2
 1299              		.thumb
 1300              	.LBE647:
 1301              	.LBE646:
 1302              	.LBE645:
 1303              	.LBE644:
 1304              	.LBE643:
 1305              	.LBE648:
 1306              	.LBE649:
 1307              		.loc 1 98 0
 1308 0092 0B1B     		subs	r3, r1, r4
 1309 0094 5942     		rsbs	r1, r3, #0
 1310 0096 5941     		adcs	r1, r1, r3
 1311 0098 0120     		movs	r0, #1
 1312 009a FFF7FEFF 		bl	_test_assert
 1313              	.LVL51:
ARM GAS  /tmp/cckNTQpJ.s 			page 57


 1314              		.loc 1 99 0
 1315 009e 06B0     		add	sp, sp, #24
 1316              		@ sp needed
 1317 00a0 10BD     		pop	{r4, pc}
 1318              	.LVL52:
 1319              	.L27:
 1320 00a2 00BF     		.align	2
 1321              	.L26:
 1322 00a4 00000000 		.word	vtcb
 1323              		.cfi_endproc
 1324              	.LFE242:
 1325              		.size	sys1_execute, .-sys1_execute
 1326              		.global	patternsys
 1327              		.global	testsys3
 1328              		.global	testsys2
 1329              		.global	testsys1
 1330 00a8 AFF30080 		.section	.rodata.testsys1,"a",%progbits
 1330      AFF30080 
 1331              		.align	2
 1332              		.type	testsys1, %object
 1333              		.size	testsys1, 16
 1334              	testsys1:
 1335 0000 30000000 		.word	.LC2
 1336 0004 00000000 		.word	0
 1337 0008 00000000 		.word	0
 1338 000c 00000000 		.word	sys1_execute
 1339              		.section	.rodata.testsys2,"a",%progbits
 1340              		.align	2
 1341              		.type	testsys2, %object
 1342              		.size	testsys2, 16
 1343              	testsys2:
 1344 0000 14000000 		.word	.LC1
 1345 0004 00000000 		.word	0
 1346 0008 00000000 		.word	0
 1347 000c 00000000 		.word	sys2_execute
 1348              		.section	.rodata.testsys3,"a",%progbits
 1349              		.align	2
 1350              		.type	testsys3, %object
 1351              		.size	testsys3, 16
 1352              	testsys3:
 1353 0000 00000000 		.word	.LC0
 1354 0004 00000000 		.word	0
 1355 0008 00000000 		.word	0
 1356 000c 00000000 		.word	sys3_execute
 1357              		.section	.rodata.str1.4,"aMS",%progbits,1
 1358              		.align	2
 1359              	.LC0:
 1360 0000 53797374 		.ascii	"System, integrity\000"
 1360      656D2C20 
 1360      696E7465 
 1360      67726974 
 1360      7900
 1361 0012 0000     		.space	2
 1362              	.LC1:
 1363 0014 53797374 		.ascii	"System, interrupts handling\000"
 1363      656D2C20 
 1363      696E7465 
ARM GAS  /tmp/cckNTQpJ.s 			page 58


 1363      72727570 
 1363      74732068 
 1364              	.LC2:
 1365 0030 53797374 		.ascii	"System, critical zones\000"
 1365      656D2C20 
 1365      63726974 
 1365      6963616C 
 1365      207A6F6E 
 1366 0047 00       		.section	.rodata.patternsys,"a",%progbits
 1367              		.align	2
 1368              		.type	patternsys, %object
 1369              		.size	patternsys, 16
 1370              	patternsys:
 1371 0000 00000000 		.word	testsys1
 1372 0004 00000000 		.word	testsys2
 1373 0008 00000000 		.word	testsys3
 1374 000c 00000000 		.word	0
 1375              		.text
 1376              	.Letext0:
 1377              		.file 5 "/nfs/nfs5/home/research/hardware/arm2/gcc-arm-embedded/gcc-arm-none-eabi-4_8-2014q2/lib/g
 1378              		.file 6 "/nfs/nfs5/home/research/hardware/arm2/gcc-arm-embedded/gcc-arm-none-eabi-4_8-2014q2/arm-n
 1379              		.file 7 "/nfs/nfs5/home/research/hardware/arm2/gcc-arm-embedded/gcc-arm-none-eabi-4_8-2014q2/arm-n
 1380              		.file 8 "../ChibiOS/os/rt/ports/ARMCMx/compilers/GCC/chtypes.h"
 1381              		.file 9 "../ChibiOS/os/rt/include/chsystypes.h"
 1382              		.file 10 "../ChibiOS/os/rt/include/chschd.h"
 1383              		.file 11 "../ChibiOS/os/rt/ports/ARMCMx/chcore.h"
 1384              		.file 12 "../ChibiOS/os/rt/ports/ARMCMx/chcore_v7m.h"
 1385              		.file 13 "../ChibiOS/os/rt/include/chtm.h"
 1386              		.file 14 "../ChibiOS/os/rt/include/chsem.h"
 1387              		.file 15 "../ChibiOS/os/rt/include/chmtx.h"
 1388              		.file 16 "../ChibiOS/test/rt/test.h"
 1389              		.file 17 "../ChibiOS/os/ext/CMSIS/include/core_cm4.h"
 1390              		.file 18 "../ChibiOS/os/rt/include/chthreads.h"