ARM GAS  /tmp/ccq8xmTg.s 			page 1


   1              		.syntax unified
   2              		.cpu cortex-m4
   3              		.fpu softvfp
   4              		.eabi_attribute 20, 1
   5              		.eabi_attribute 21, 1
   6              		.eabi_attribute 23, 3
   7              		.eabi_attribute 24, 1
   8              		.eabi_attribute 25, 1
   9              		.eabi_attribute 26, 1
  10              		.eabi_attribute 30, 2
  11              		.eabi_attribute 34, 1
  12              		.eabi_attribute 18, 4
  13              		.thumb
  14              		.file	"chheap.c"
  15              		.text
  16              	.Ltext0:
  17              		.section	.gnu.lto_.jmpfuncs.f69fbb6bdd7621af,"",%progbits
  18 0000 789C6362 		.ascii	"x\234cb`b\300\0062\2404+\003\003#S5\303\257\206\216"
  18      6062C006 
  18      32A0342B 
  18      03032353 
  18      35C3AF86 
  19 0015 06814C46 		.ascii	"\006\201LF\006m\206U\015\015 \026c.#C\022#\\9#\343\203"
  19      066D8655 
  19      0D0D2016 
  19      632E2343 
  19      12235C39 
  20 002c FF50C018 		.ascii	"\377P\300\030\301\230\311\0104\224\231\235\221\245\001"
  20      C198C908 
  20      3494999D 
  20      91A501
  21 003b C8042962 		.ascii	"\310\004)ba\006\222pT\0174\226\021\302d\203J0\000\000"
  21      61069270 
  21      540F3496 
  21      11C26483 
  21      4A300000 
  22 004f 14D512C5 		.ascii	"\024\325\022\305"
  23              		.text
  24              		.section	.gnu.lto_.inline.f69fbb6bdd7621af,"",%progbits
  25 0000 789C6362 		.ascii	"x\234cb`b\300\006L\031!4+\003\003\207\000#\003\023\333"
  25      6062C006 
  25      4C192134 
  25      2B030387 
  25      00230313 
  26 0015 073D06B6 		.ascii	"\007=\006\266\005\362`\305L\334\014\014\214\014\314"
  26      05F260C5 
  26      4CDC0C0C 
  26      8C0CCC
  27 0024 0CDCC28C 		.ascii	"\014\334\302\214LL`u \202\231\265C\235\201{\205\033"
  27      4C4C6075 
  27      208299B5 
  27      439D817B 
  27      851B
  28 0036 1303D305 		.ascii	"\023\003\323\005~\026\270\272\011~,\014\372\037\030"
  28      7E16B8BA 
  28      097E2C0C 
  28      FA1F18
ARM GAS  /tmp/ccq8xmTg.s 			page 2


  29 0045 185918D2 		.ascii	"\030Y\030\322#\0303\031\231A\022\031p\026H##\210`1\353"
  29      23183319 
  29      99411219 
  29      70164823 
  29      23886031 
  30 005a E8E184D8 		.ascii	"\350\341\204\330\300\262@^\200\201c\237\236\002\222"
  30      C0B2405E 
  30      8081639F 
  30      9E0292
  31 0069 19A814AB 		.ascii	"\031\250\024\253 \204b\320\331\303\010\324\015\266\335"
  31      208462D0 
  31      D9C308D4 
  31      0DB6DD
  32 0078 61D53561 		.ascii	"a\3255a\006\276\031\316\030\326C)6\006\241\273\014\214"
  32      06BE19CE 
  32      18D64329 
  32      3606A1BB 
  32      0C8C
  33 008a 6CD85CC1 		.ascii	"l\330\\\301\010f\201\3640\246\303X\010\227\261\361<"
  33      086681F4 
  33      30A6C358 
  33      0897B1F1 
  33      3C
  34 009b 79C40E77 		.ascii	"y\304\016w\231\003\210h\000\332\331\304.\300\004&1\255"
  34      99038868 
  34      00DAD9C4 
  34      2EC00426 
  34      31AD
  35 00ad 62000049 		.ascii	"b\000\000I\345%f"
  35      E52566
  36              		.text
  37              		.section	.gnu.lto_.pureconst.f69fbb6bdd7621af,"",%progbits
  38 0000 789C6362 		.ascii	"x\234cb`b\340f\200\000V\006\011f)\026)V)6)\000\004?"
  38      6062E066 
  38      80005606 
  38      09662916 
  38      29562936 
  39 0018 00A7     		.ascii	"\000\247"
  40              		.text
  41              		.section	.gnu.lto__heap_init.f69fbb6bdd7621af,"",%progbits
  42 0000 789C6362 		.ascii	"x\234cb`b@\007\222@\374\225\221\201A\001H32302M8\307"
  42      60624007 
  42      9240FC95 
  42      91814101 
  42      48333233 
  43 0019 C0D0C8C1 		.ascii	"\300\320\310\301\304\310\010b002\32431\326G2\202\325"
  43      C4C80862 
  43      303032D4 
  43      3331D647 
  43      3282D5
  44 002c AE673AF0 		.ascii	"\256g:\360\340\377\377u\337\216M\277\3038\207\211\015"
  44      E0FFFF75 
  44      DF8E4DBF 
  44      C3388789 
  44      0D
  45 003d 28C2CAD0 		.ascii	"(\302\312\320\322\3200\001\2507\031\254\"\004H\202\264"
  45      D2D03001 
ARM GAS  /tmp/ccq8xmTg.s 			page 3


  45      A83719AC 
  45      22044882 
  45      B4
  46 004e 85323281 		.ascii	"\20522\201h\346\263\014M\277\232\277\367Z'2.dde\320"
  46      68E6B30C 
  46      4DBF9ABF 
  46      F75A2732 
  46      2E646465 
  47 0063 6658D500 		.ascii	"fX\325\000\004\366\231\214\014\263\031f564\010d22V3"
  47      04F6998C 
  47      0CB31966 
  47      35363408 
  47      64323256 
  48 0078 FC6AE800 		.ascii	"\374j\350\000\261\230r\301FD0\002\231`\333\222 \226"
  48      B19872C1 
  48      46443002 
  48      9960DB92 
  48      2096
  49 008a 32405434 		.ascii	"2@T4Tg22'3B\304\200\346\356\270\361\376\000\013\212"
  49      54673232 
  49      273342C4 
  49      80E6EEB8 
  49      F1FE000B 
  50 009f B9A5998C 		.ascii	"\271\245\231\214,Pfa&#+\224\031\233\311\310\206\260"
  50      2C506661 
  50      26232B94 
  50      199BC9C8 
  50      86B0
  51 00b1 989D388B 		.ascii	"\230\2358\213\031\2414\214\317\014\245Y\030`*Y`\316"
  51      19A1348C 
  51      CF0CA559 
  51      18602A59 
  51      60CE
  52 00c3 F8F1FE03 		.ascii	"\370\361\376\0033\2123\200vsP\323nV\270\235\034 \306"
  52      338A3380 
  52      767350D3 
  52      6E56B89D 
  52      1C20C6
  53 00d6 79869607 		.ascii	"y\206\226\007'\017sA\254\204\005\016\320$\316d\250\016"
  53      270F7341 
  53      AC84050E 
  53      D024CE64 
  53      A80E
  54 00e8 90084726 		.ascii	"\220\010G&#\027\324\342\211@\215\334@[\222\030\331\300"
  54      2317D4E2 
  54      89408DDC 
  54      405B9218 
  54      D9C0
  55 00fa D2508D99 		.ascii	"\322P\215\231\214<\014\014\027\031\032\037\234U\206"
  55      8C3C0C0C 
  55      17191A1F 
  55      9C5586
  56 0109 19050121 		.ascii	"\031\005\001!@\007\000\243\016d\226\234\236\236\276"
  56      400700A3 
  56      0E64969C 
  56      9E9EBE
  57 0118 73466652 		.ascii	"sFfR\246\177\260~~\261~Q\211~qQ\262~rFFjb\201^2\003"
ARM GAS  /tmp/ccq8xmTg.s 			page 4


  57      A67FB07E 
  57      7EB17E51 
  57      897E7151 
  57      B27E7246 
  58 0133 00236885 		.ascii	"\000#h\205\015"
  58      0D
  59              		.text
  60              		.section	.gnu.lto_chHeapObjectInit.f69fbb6bdd7621af,"",%progbits
  61 0000 789CA552 		.ascii	"x\234\245R\275/\004Q\020\377\315\333[\356\254\257V#"
  61      BD2F0451 
  61      10FFCDDB 
  61      5BEEACAF 
  61      5623
  62 0012 9C6888DB 		.ascii	"\234h\210\333(\374\005\376\000\021$\224g#w\257\270\020"
  62      28FC05FE 
  62      00112494 
  62      672377AF 
  62      B810
  63 0024 A7A2F038 		.ascii	"\247\242\3608\011\252\273h\010\015J\005\355\225\253"
  63      09AABB68 
  63      080D4A05 
  63      ED95AB
  64 0033 210A5F89 		.ascii	"!\012_\211\204\362J\235\222\220\334\232\267\373\334"
  64      84F24A9D 
  64      9290DC9A 
  64      B7FBDC
  65 0042 E5444462 		.ascii	"\345DDb\222\235\231\315\316\373}\314>\001\201\357\321"
  65      929D99CD 
  65      CEFB7DCC 
  65      3E0181EF 
  65      D1
  66 0053 C54F8705 		.ascii	"\305O\207\005\364q%\013$J7\300Z\\\020\351\006\204UA"
  66      F471250B 
  66      244A37C0 
  66      5A5C10E9 
  66      06845541 
  67 0067 AB3314CE 		.ascii	"\2533\024\316\236\011\277\022\004\247\017\227\027\347"
  67      9E09BF12 
  67      04A70F97 
  67      17E7
  68 0075 B4DDDF46 		.ascii	"\264\335\337F\224#X\234(\316I$ \011\016'=lcC\251RO\022"
  68      9423589C 
  68      28CE4924 
  68      20090E27 
  68      3D6C6343 
  69 008d 474AEDF8 		.ascii	"GJ\355\370\217\233\273]\352p\275\244\252A@\222\204@"
  69      8F9BBB5D 
  69      EA70BDA4 
  69      AA414092 
  69      8440
  70 009f 2FC1234C 		.ascii	"/\301#L\363\213\325\023\226X\254QW\216\305\350\021\216"
  70      F38BD513 
  70      9658AC51 
  70      578EC5E8 
  70      118E
  71 00b1 49CE5ACC 		.ascii	"I\316Z\314\024\011]\255+\2104\035\221\2154\035S\022"
  71      14095DAD 
ARM GAS  /tmp/ccq8xmTg.s 			page 5


  71      2B88341D 
  71      918D341D 
  71      5312
  72 00c3 194D788D 		.ascii	"\031Mx\215\365\362\333\307\263\3710\210\023\3051,\311"
  72      F5F2DBC7 
  72      B3F93088 
  72      13C5312C 
  72      C9
  73 00d4 3EC03EA3 		.ascii	">\300>\2437e\310\322,\315!\366ld'\344\265u\303\247\257"
  73      3765C8D2 
  73      2CCD21F6 
  73      6C6427E4 
  73      B575C3A7 
  74 00e9 F6AA7756 		.ascii	"\366\252wV\303\351\031\026j\332)Iq\323\216KJ\324\341"
  74      C3E91916 
  74      6ADA2949 
  74      71D38E4B 
  74      4AD4E1
  75 00fc 5B7E8627 		.ascii	"[~\206'S\205\251\226\251\221\307\232\340r\325o\244d"
  75      5385A996 
  75      A991C79A 
  75      E072D56F 
  75      A464
  76 010e 1EE73F3C 		.ascii	"\036\347?<v\315\226cl\225\237\252~\343RF\352\266\206"
  76      76CD9663 
  76      6C959FAA 
  76      7EE35246 
  76      EAB686
  77 0121 EBB61CA6 		.ascii	"\353\266\034\246\2138ZX\236F\020\277z\250M\\\243\260"
  77      8B385A58 
  77      9E4610BF 
  77      7AA84D5C 
  77      A3B0
  78 0133 5578290E 		.ascii	"Ux)\016E\034\031Jd(\036\012x\013\202\240\303\354\366"
  78      451C194A 
  78      64281E0A 
  78      780B82A0 
  78      C3ECF6
  79 0146 AEF9FB7F 		.ascii	"\256\371\373\177q\376\314k\233\235%B\250\367\302kq\340"
  79      71FECC6B 
  79      9B9D2542 
  79      A8F7C26B 
  79      71E0
  80 0158 8BCB59C1 		.ascii	"\213\313Y\3012_7\003\225\227\324\372\363\232\232\352"
  80      325F3703 
  80      9597D4FA 
  80      F39A9AEA 
  81 0168 D7EA161B 		.ascii	"\327\352\026\033\2769\017\254\340]m\251NIm\236Y%cJj"
  81      BE390FAC 
  81      E05D6DA9 
  81      4E496D9E 
  81      5925634A 
  82 017d 07EEB156 		.ascii	"\007\356\261V\331\356\377\232\213b\222g\370\372i]\335"
  82      D9EEFF9A 
  82      8B629267 
  82      F8FA695D 
  82      DD
ARM GAS  /tmp/ccq8xmTg.s 			page 6


  83 018e A9943B9A 		.ascii	"\251\224;\232\225\263rl\302\235\317\273\213Kn~\321s"
  83      95B3726C 
  83      C29DCFBB 
  83      8B4B6E7E 
  83      D173
  84 01a0 BD6C762E 		.ascii	"\275lv.\275\220\362 \262\013\237\316\037\267\321"
  84      BD90F220 
  84      B20B9FCE 
  84      1FB7D1
  85              		.text
  86              		.section	.gnu.lto_chHeapAlloc.f69fbb6bdd7621af,"",%progbits
  87 0000 789CC556 		.ascii	"x\234\305V]h\034U\024>\347\336\335\231\331\277\331-"
  87      5D681C55 
  87      143EE7DE 
  87      DD99D9BF 
  87      D92D
  88 0012 094D91D6 		.ascii	"\011M\221\326\256\213\265h!\241\024\221Pj\221\372.b"
  88      AE8BB568 
  88      21A11491 
  88      506A91FA 
  88      2E62
  89 0024 03FA6612 		.ascii	"\003\372f\022c2\017\305\264\325\027\363\220Iv\013\321"
  89      63320FC5 
  89      B4D517F3 
  89      9049760B 
  89      D1
  90 0035 FA1085A4 		.ascii	"\372\020\205\244\376\364!\245\224\202\242\001\177H\260"
  90      FEF421A5 
  90      9482A201 
  90      7F48B0
  91 0044 916E43A9 		.ascii	"\221nC\251I\252\261}\220\246\322\322\264\032\012V\320"
  91      49AAB17D 
  91      90A6D2D2 
  91      B41A0A56 
  91      D0
  92 0055 E0436A10 		.ascii	"\340Cj\020\326s\356\2753;[\243\331>\210\003{\177\346"
  92      D673EEBD 
  92      333B5BA3 
  92      D93E8803 
  92      7B7FE6
  93 0068 9EF39DEF 		.ascii	"\236\363\235\357\374\3343+@\300\275\317W\364\353H\002"
  93      FCDC332B 
  93      40C0BDCF 
  93      57F4EB48 
  93      02
  94 0079 3C4A33E6 		.ascii	"<J3\346\000\305\360<\300\200#\204\274\226\002?\031\373"
  94      00C5F03C 
  94      C0802384 
  94      BC96023F 
  94      19FB
  95 008b 7C1AC04F 		.ascii	"|\032\300OK\214\351\3671L\352E\\X\323\222\004\262\363"
  95      4B8CE9F7 
  95      314CEA45 
  95      5C58D392 
  95      04B2F3
  96 009e 732C6009 		.ascii	"s,`\011{h;m\035\036\3236&\264\224\023,\022\350\352E"
  96      7B683B6D 
ARM GAS  /tmp/ccq8xmTg.s 			page 7


  96      1D1ED336 
  96      26B49413 
  96      2C12E8EA 
  97 00b3 56033C95 		.ascii	"V\003<\225\024q\245\231L1L:%\322\027\324\326\235\343"
  97      1471A599 
  97      4C314C3A 
  97      25D217D4 
  97      D69DE3
  98 00c6 6D5A642E 		.ascii	"mZd.}\243\266e\244m&\320v\021y\001\010\375B\306\342"
  98      7DA3B665 
  98      A46D26D0 
  98      76117901 
  98      08FD42C6 
  99 00db 96ED24B2 		.ascii	"\226\355$\262\311T:\343b\377\013\310\356\310\002\234"
  99      C9543AE3 
  99      62FF0BC8 
  99      EEC8029C 
 100 00eb F0FD7716 		.ascii	"\360\375w\026\217|\264,\336\363\313\2451\377\317J\005"
 100      8F7CB42C 
 100      DEF3CBA5 
 100      31FFCF4A 
 100      05
 101 00fc D14372FD 		.ascii	"\321Cr\375!\204N\204\347i\203y5\211Xm,\264\256\277\362"
 101      21844E84 
 101      E7698379 
 101      3589586D 
 101      2CB4AEBF 
 102 0111 D28C5F2A 		.ascii	"\322\214_*W*{\225\326\303uj\275\335\025\325\332\276"
 102      572A7B95 
 102      D6C3756A 
 102      BDDD15D5 
 102      DABE
 103 0123 9ED6B828 		.ascii	"\236\326\270(/V*S\337O\376x\034\033\036A8\300Z\355x"
 103      2F562A53 
 103      DF4FFE78 
 103      1C1B1E41 
 103      38C05AED 
 104 0138 020B20C1 		.ascii	"\002\013 \301Ci!\275\261i@\207\266\261\004\011`\322"
 104      436921BD 
 104      B1694087 
 104      B6B10409 
 104      60D2
 105 014a 08A4E84D 		.ascii	"\010\244\350M\334\245\001\262|\226\343a\003o\033H\340"
 105      DCA501B2 
 105      7C96E361 
 105      036F1B48 
 105      E0
 106 015b 140934F2 		.ascii	"\024\0114\362f#\277n\342a\013\003n\245\301\312\363\266"
 106      6623BF6E 
 106      E2610B03 
 106      6EA5C1CA 
 106      F3B6
 107 016d 40522749 		.ascii	"@R'Ij\233\231\351\211C\311\367\207\363\032^\277\325"
 107      6A9B99E9 
 107      8943C9F7 
 107      87F31A5E 
 107      BFD5
ARM GAS  /tmp/ccq8xmTg.s 			page 8


 108 017f 48C06ED0 		.ascii	"H\300n\320\263\237\306\337,hCA\223\234\201\363\267\317"
 108      B39FC6DF 
 108      2C684341 
 108      939C81F3 
 108      B7CF
 109 0191 5D7F53B6 		.ascii	"]\177S\266\343i\214C7Z\354\241\035u\257\015%\224P\316"
 109      E3698C43 
 109      375AECA1 
 109      1D75AF0D 
 109      259450CE 
 110 01a5 C2E0E2F8 		.ascii	"\302\340\342\370\222\245\345\310\241>X\365\207|\177"
 110      92A5E5C8 
 110      A13E58F5 
 110      877C7F
 111 01b4 37491F40 		.ascii	"7I\037@\021\221\2161,I;\300b\335H\346\276\205\342P\361"
 111      11918E31 
 111      2C493BC0 
 111      62DD48E6 
 111      BE85E250 
 112 01c9 CEC80381 		.ascii	"\316\310\003\201\021\247\033m\266\343\260!:<S\354\010"
 112      11A71B6D 
 112      B6E3B021 
 112      3A3C53EC 
 112      08
 113 01da 8E1274AA 		.ascii	"\216\022t\252\216\356V*\225,\035\317\202\010l\"\035"
 113      8EEE562A 
 113      952C1DCF 
 113      82086C22 
 113      1D
 114 01eb B3FCE06A 		.ascii	"\263\374\340j\361\327\021+\320H2\023zvR\240v\300\207"
 114      F1D7112B 
 114      D0483213 
 114      7A7652A0 
 114      76C087
 115 01fe BCDCE361 		.ascii	"\274\334\343a\342\003x\237`\222d\277\352Q\007F\374\""
 115      E203789F 
 115      609264BF 
 115      EA510746 
 115      FC22
 116 0210 8A6503A2 		.ascii	"\212e\003\242\203EP\006}e$\214G\252\017^\247\024\355"
 116      83455006 
 116      7D65248C 
 116      47AA0F5E 
 116      A714ED
 117 0223 80C73C4C 		.ascii	"\200\307<L\255\215\031\001\375\016bZ\021L|r\036\246"
 117      AD8D1901 
 117      FD0E625A 
 117      114C7C72 
 117      1EA6
 118 0235 3B8D0481 		.ascii	";\215\004\201y\230\341\325U W,\201Z\246|c\316\015\243"
 118      7998E1D5 
 118      5520572C 
 118      815AA67C 
 118      63CE0DA3 
 119 0249 28272507 		.ascii	"('%\0071\016t\245T\314\317\036\011I\236T$]E\362\207"
 119      310E74A5 
 119      54CCCF1E 
ARM GAS  /tmp/ccq8xmTg.s 			page 9


 119      09499E54 
 119      245D45F2 
 120 025e 773F5DC6 		.ascii	"w?]\306\200dV\321s\214\367Ox\350j\246\024L\227\231\202"
 120      806456D1 
 120      738CF74F 
 120      78E86AA6 
 120      144C9799 
 121 0273 612ACC2C 		.ascii	"a*\314,\015\335\031(\335\036\330\031\242\250\360V\023"
 121      0DDD1928 
 121      DD1ED819 
 121      A2A8F056 
 121      13
 122 0284 69C12752 		.ascii	"i\301'R\252\324\235\036}2\020\312\221\220\312\217\243"
 122      AAD49D1E 
 122      7D3210CA 
 122      9190CA8F 
 122      A3
 123 0295 F4CF2F0D 		.ascii	"\364\317/\015<\036\321\317E\365m\270\202\222\251N~\366"
 123      3C1ED1CF 
 123      45F56DB8 
 123      8292A94E 
 123      7EF6
 124 02a7 4718CF0D 		.ascii	"G\030\317\015\212j\220\250>\217\271\253\345k\353\262"
 124      8A6A90A8 
 124      3E8FB9AB 
 124      E56BEBB2 
 125 02b7 8E99396E 		.ascii	"\216\2319n,\020\364\354\245\224\0066 \317\326\324@v"
 125      2C10F4EC 
 125      A5940636 
 125      20CFD6D4 
 125      4076
 126 02c9 AD8088F5 		.ascii	"\255\200\210\365\241\211e\340\203\243}(\036-\336\031"
 126      A18965E0 
 126      83A37D28 
 126      1E2DDE19 
 127 02d9 DD1CF8D0 		.ascii	"\335\034\370\320@\004\225\257am\352\033F'&7\023U\207"
 127      400495AF 
 127      616DEA1B 
 127      46272637 
 127      135587
 128 02ec 1BFF6F87 		.ascii	"\033\377o\207\033\352q\270Q\335\3037\212+\243\375\001"
 128      1BEA71B8 
 128      51DDC337 
 128      8A2BA3FD 
 128      01
 129 02fd F18D4145 		.ascii	"\361\215AEp\011\204\3564\321A\315\375dR\303\265\244"
 129      700984EE 
 129      34D141CD 
 129      FD6452C3 
 129      B5A4
 130 030f F6FC432D 		.ascii	"\366\374C-\256\311D\032\006M\032jabY\374')\325\251\271"
 130      AEC9441A 
 130      064D1A6A 
 130      616259FC 
 130      2729D5A9 
 131 0324 7877E2A6 		.ascii	"xw\342\246\250\213\354\277\\\234\360\236\264\321B\335"
 131      A88BECBF 
ARM GAS  /tmp/ccq8xmTg.s 			page 10


 131      5C9CF09E 
 131      B4D142DD 
 132 0334 91C18B93 		.ascii	"\221\301\213\223_\376\035\3276\313\326*\357]u'\3352"
 132      5FFE1DD7 
 132      36CBD62A 
 132      EF5D7527 
 132      DD32
 133 0346 A690BB4A 		.ascii	"\246\220\273Ji\361\347%\\\253\263\010#\245;\213*\324"
 133      69F1E725 
 133      5CABB308 
 133      23A53B8B 
 133      2AD4
 134 0358 2F9A825C 		.ascii	"/\232\202\\m1&\204c\012h?fa\354k\3006\352t\364\3615"
 134      6D312684 
 134      630A683F 
 134      6661EC6B 
 134      C036EA74 
 135 036f 5D3AE87E 		.ascii	"]:\350~B\027\357\302\370\254\010\020\334\232\342\335"
 135      4217EFC2 
 135      F8AC0810 
 135      DC9AE2DD 
 136 037f 5BF5A3F5 		.ascii	"[\365\243\365>\343\257z\315/\003\273B\340\252\212z\256"
 136      3EE3AF7A 
 136      CD2F03BB 
 136      42E0AA8A 
 136      7AAE
 137 0391 82A0F61B 		.ascii	"\202\240\366\033\233\272\262\211\316\262o\335x\221\203"
 137      9BBAB289 
 137      CEB26FDD 
 137      789183
 138 03a0 9B826929 		.ascii	"\233\202i)\331\371\325\256z|'\352go\206=q\253\242\236"
 138      D9F9D5AE 
 138      7A7C27EA 
 138      676F863D 
 138      71ABA29E 
 139 03b4 5BBB65DB 		.ascii	"[\273e\333QR\231P\205E\"-\2149\244\341c\323\004+\307"
 139      51529950 
 139      8545222D 
 139      8C39A4E1 
 139      63D3042B 
 140 03c9 760782F9 		.ascii	"v\007\202\371h\023$\202\345M\301I\201P\230S\336\343"
 140      68132482 
 140      E54DC149 
 140      81509853 
 140      DEE3
 141 03db 1E12E90F 		.ascii	"\036\022\351\017\272w\027\264\311s\303n\250pO \330f"
 141      BA7717B4 
 141      C973C36E 
 141      A8704F20 
 141      D866
 142 03ed 064E99A2 		.ascii	"\006N\231\242\272u\377EU\250\263\250\030\177\341\326"
 142      BA75FF45 
 142      55A8B3A8 
 142      187FE1D6 
 143 03fd E55AFCD6 		.ascii	"\345Z\374\326\352eX\0374r\031\250\220\306\216\332Q_"
 143      EA65581F 
 143      347219A8 
ARM GAS  /tmp/ccq8xmTg.s 			page 11


 143      90C68EDA 
 143      515F
 144 040f 9F867D1E 		.ascii	"\237\206}\036\006\376Q\001\006\011\324\037\3303\307"
 144      06FE5101 
 144      0609D41F 
 144      D833C7
 145 041e ED2000DB 		.ascii	"\355 \000\333\364\347\273|l>M\012dq\300\347\374\006"
 145      F4E7BB7C 
 145      6C3E4D0A 
 145      6471C0E7 
 145      FC06
 146 0430 46A5AADD 		.ascii	"F\245\252\335P[\007\310\345\277\030\227\351O$\233\227"
 146      505B07C8 
 146      E5BF1897 
 146      E94F249B 
 146      97
 147 0441 BA7E24D5 		.ascii	"\272~$\325{\342\332\365\315\204\230\371\351\240R\005"
 147      7BE2DAF5 
 147      CD8498F9 
 147      E9A05205 
 148 0451 484FFD9E 		.ascii	"HO\375\2366\313\224\252\177$M\346\377`ss\313\276\036"
 148      36CB94AA 
 148      7F244DE6 
 148      FF607373 
 148      CBBE1E
 149 0464 AFC37BE6 		.ascii	"\257\303{\346\271\226W\016\267\034z\265\345\360\241"
 149      B996570E 
 149      B71C7AB5 
 149      E5F0A1
 150 0473 CE96CE9E 		.ascii	"\316\226\316\236\236\256\366\336\346N\020\007{EO\257"
 150      9EAEF6DE 
 150      E64E1007 
 150      7B454FAF 
 151 0483 78B9F72F 		.ascii	"x\271\367/8\377[j"
 151      38FF5B6A 
 152              		.text
 153              		.section	.gnu.lto_chHeapFree.f69fbb6bdd7621af,"",%progbits
 154 0000 789CAD55 		.ascii	"x\234\255UOh\024W\030\377\27673;\263;\023wc$d\2436v"
 154      4F681457 
 154      18FFBE37 
 154      333BB33B 
 154      13776324 
 155 0018 1504952C 		.ascii	"\025\004\225,RJ\021i=\364\324S\021\015\264\307d[\222"
 155      524A1169 
 155      3DF4D453 
 155      110DB4C7 
 155      645B92
 156 002b 3988A9A9 		.ascii	"9\210\251\251\227\206\342d\223C@\260\241\320V\015\266"
 156      9786E264 
 156      934340B0 
 156      A1D0560D 
 156      B6
 157 003c 0945845E 		.ascii	"\011E\204^\012\245\007\217\273\322\202+\325\324\233"
 157      0AA5078F 
 157      BBD2822B 
 157      D5D49B
 158 004b 8A6072E8 		.ascii	"\212`r\350\037\350\241Jl\022\327\320\361{\377ff\227"
ARM GAS  /tmp/ccq8xmTg.s 			page 12


 158      1FE8A14A 
 158      6C12D7D0 
 158      F17BFF66 
 158      6697
 159 005d C5648303 		.ascii	"\305d\203\003\363\275\367\275\367\276\337\357\373\367"
 159      F3BDF7BD 
 159      F7BEDFEF 
 159      FBF7
 160 006b 66183068 		.ascii	"f\0300h~\346\350}'\003p\210F\354\000d3w\000&\034\206"
 160      7EE6E87D 
 160      27037088 
 160      46EC0064 
 160      33770026 
 161 0081 869C18CC 		.ascii	"\206\234\030\314z\350B\2201\177\276\001\020x&\263\246"
 161      7AE84290 
 161      317FBE01 
 161      107826B3 
 161      A6
 162 0092 F793EA72 		.ascii	"\367\223\352r\351Y\314\276a\220\226\272s\213o\246\224"
 162      E959CCBE 
 162      619096BA 
 162      738B6FA6 
 162      94
 163 00a3 EA4AD566 		.ascii	"\352J\325f\2160MKS\007\323\0222\3152b\335\223\353\031"
 163      8E304D4B 
 163      5307D312 
 163      32CD3262 
 163      DD93EB19 
 164 00b7 F4E4BA2B 		.ascii	"\364\344\272+9\253\216\207\310'\200p\216\031\246\225"
 164      39AB8E87 
 164      C8278070 
 164      8E19A695 
 165 00c7 B29D74C6 		.ascii	"\262\235t\306\365\360\334\207\310=6\0120\037\004_.\376"
 165      F5F0DC87 
 165      C83D360A 
 165      301F045F 
 165      2EFE
 166 00d9 FACF1376 		.ascii	"\372\317\023v)\250L\315\005\353a\210\350#E\367:B\011"
 166      29A84CCD 
 166      05EB6188 
 166      E82345F7 
 166      3A4209
 167 00ec E1035270 		.ascii	"\341\003Rp\217\030\230\331\030\256\264\015V?\272\031"
 167      8F1898D9 
 167      18AEB40D 
 167      563FBA19 
 168 00fc 4C55C2F0 		.ascii	"LU\302\360\230\260\332\2679\253\312\243\013_\345\203"
 168      98B0DAB7 
 168      39ABCAA3 
 168      0B5FE583 
 169 010c B9F24CF0 		.ascii	"\271\362L\360?\021\372h0\330\277\221\345\217\254\262"
 169      3F11FA68 
 169      30D8BF91 
 169      E58FACB2 
 170 011c 18860FFF 		.ascii	"\030\206\017\377\373{i\035\273\366\"\014\342<\026\300"
 170      FB7B691D 
 170      BBF6220C 
ARM GAS  /tmp/ccq8xmTg.s 			page 13


 170      E23C16C0 
 171 012c C4530816 		.ascii	"\304S\010\026)\337\223b\323x\225FGm\246\301G\323%\001"
 171      29DF9362 
 171      D3789546 
 171      476DA6C1 
 171      47D32501 
 172 0140 DB485859 		.ascii	"\333HXY\022,\307\325N.\266\363\265..vp\321\315\327z"
 172      122CC7D5 
 172      4E2EB6F3 
 172      B52E2E76 
 172      70D1CDD7 
 173 0155 F82CCFCF 		.ascii	"\370,\317\317\365ru'Wwq\261\233\213>\276VP\340\364X"
 173      F5727527 
 173      577771B1 
 173      9B8B3EBE 
 173      5650E0F4 
 174 016a 30150433 		.ascii	"0\025\0043{\244.]\220\016\234B\312oI\344\370$\311\272"
 174      7BA42E5D 
 174      900E9C42 
 174      CA6F49E4 
 174      F824C9BA 
 175 017e 0103C868 		.ascii	"\001\003\310h0n\303\344\371\311\345+\251A\274\206\026"
 175      306EC3E4 
 175      F9C9E52B 
 175      A941BC86 
 175      16
 176 018f 0CA3358C 		.ascii	"\014\2435\214\246\010v-\014\303,\035\257\001\223{\022"
 176      A608762D 
 176      0CC32C1D 
 176      AF01937B 
 176      12
 177 01a0 8E4E00DC 		.ascii	"\216N\000\334\206\362\203{\377\326P\033\331\007\341"
 177      86F2837B 
 177      FFD6501B 
 177      D907E1
 178 01af 87809E01 		.ascii	"\207\200\236\001J\234\232\036\3671\245\246G}\264g\341"
 178      4A9C9A1E 
 178      F731A5A6 
 178      477DB467 
 178      E1
 179 01c0 32813A0A 		.ascii	"2\201:\012\03448\014\241\314\345\020\242\032u\033\327"
 179      1C34380C 
 179      A1CCE510 
 179      A21A751B 
 179      D7
 180 01d1 A05CC96B 		.ascii	"\240\\\311k\346\253\202\331\026\314\365\3110v\327\031"
 180      E6AB82D9 
 180      16CCF5C9 
 180      3076D719 
 181 01e1 873AE738 		.ascii	"\207:\3478L\240\212\356m\342\221ti2\341t\206\2026\342"
 181      4CA08AEE 
 181      6DE29174 
 181      6932E174 
 181      868236E2 
 182 01f5 DA71F494 		.ascii	"\332q\364\224F\237\027\350\216B\277\366\255\241\321"
 182      469F17E8 
 182      8E42BFF6 
ARM GAS  /tmp/ccq8xmTg.s 			page 14


 182      ADA1D1
 183 0204 D3E3F019 		.ascii	"\323\343\360\031\025\354 \034\3601\323\0323\321\023"
 183      15EC201C 
 183      F031D31A 
 183      33D113
 184 0213 0B604A43 		.ascii	"\013`JC\000\356\325t\220\363\321-\251\300\010\314GO"
 184      00EED574 
 184      90F3D12D 
 184      A9C008CC 
 184      474F
 185 0225 1E1C206B 		.ascii	"\036\034 k\272\004\0069A\244\232\237\316\335\204_\376"
 185      BA040639 
 185      41A49A9F 
 185      CEDD845F 
 185      FE
 186 0236 AACE7EE1 		.ascii	"\252\316~\341i~\024^\311\347>\220Vp\237~Nkl}\265\207"
 186      697E145E 
 186      C9E73E90 
 186      56709F7E 
 186      4E6B6C7D 
 187 024c C39840D7 		.ascii	"\303\230@\327\314 \253?\253\263\013\373\022%\304\330"
 187      CC20AB3F 
 187      ABB30BFB 
 187      1225C4D8 
 188 025c AB015A5B 		.ascii	"\253\001Z[9d\210\222-\337e\372\220+\202\202\015\252"
 188      39648892 
 188      2DDF65FA 
 188      902B8282 
 188      0DAA
 189 026e 85A25AD0 		.ascii	"\205\242Z\320\272R\226b\220^/\024#\350\330(\362!\005"
 189      BA529662 
 189      905E2F14 
 189      23E8D828 
 189      F22105
 190 0281 CB07B8A3 		.ascii	"\313\007\270\243\177T\25748\352&\017\331\262!\313\265"
 190      7F54AF34 
 190      38EA260F 
 190      D9B221CB 
 190      B5
 191 0292 8B2B4BCA 		.ascii	"\213+K\312\321\270\246zz$v\365\215\266\032\313RupE\235"
 191      D1B8A67A 
 191      7A2476F5 
 191      8DB61ACB 
 191      52757045 
 192 02a7 6BD7B7C0 		.ascii	"k\327\267\300\261\211tD\367cm\345~t?\266\211dw\010\271"
 192      B1897444 
 192      F7636DE5 
 192      7E743FB6 
 192      89647708 
 193 02bc 098F532A 		.ascii	"\011\217S*#t7\247\243^\314\022\214\270\230\216\3349"
 193      237437A7 
 193      A35ECC12 
 193      8CB8988E 
 193      DC39
 194 02ce 1FEDE444 		.ascii	"\037\355\344D&\263\222\366qV/w6Tx<\016\351\354\026\322"
 194      26B392F6 
 194      71562F77 
ARM GAS  /tmp/ccq8xmTg.s 			page 15


 194      3654783C 
 194      0EE9EC16 
 195 02e3 26AB3CF1 		.ascii	"&\253<\361f\202\2633Y:\007~\003\321c\327W\237\230\372"
 195      6682B333 
 195      593A077E 
 195      03D163D7 
 195      579F98FA 
 196 02f7 D0761DB6 		.ascii	"\320v\035\266\240\375\006\223\274\235\255R\231\014|"
 196      A0FD0693 
 196      BC9DAD52 
 196      990C7C
 197 0306 F2A7287D 		.ascii	"\362\247(}]\024:\2415%d\007mp\220\016\231\220\362{\311"
 197      5D143AA1 
 197      35256407 
 197      6D70900E 
 197      9990F27B 
 198 031b 6AE622DE 		.ascii	"j\346\"\336\\\033)'P\365q[\255Y\232\247\273!\217\337"
 198      5C1B2927 
 198      50F5715B 
 198      AD599AA7 
 198      BB218FDF 
 199 032f 619CC84B 		.ascii	"a\234\310K\033G\324\234E\336y\277\273\015}w\274\341"
 199      1B47D49C 
 199      45DE79BF 
 199      BB0D7D77 
 199      BCE1
 200 0341 D3A5B1DF 		.ascii	"\323\245\261\337\332Row\353z\244\325Uzp\261\276\024"
 200      DA526F77 
 200      EB7AA4D5 
 200      557A70B1 
 200      BE14
 201 0353 E5B1A765 		.ascii	"\345\261\247e\033\266l\352\226-\230'\210\326-\330+\276"
 201      1BB66CEA 
 201      962D9827 
 201      88D62DD8 
 201      2BBE
 202 0365 55F9E62E 		.ascii	"U\371\346.\351\035\216\002\027^et\227\334\253/E\266"
 202      E91D8E02 
 202      175E6574 
 202      97DCAB2F 
 202      45B6
 203 0377 3B1BBA64 		.ascii	";\033\272d\254\355\033\222h\224]\344 \0016\271\275\233"
 203      ACED1B92 
 203      68945DE4 
 203      200136B9 
 203      BD9B
 204 0389 36DA6D94 		.ascii	"6\332m\224\227$\205\000\325\015\257?\2138\372^\355e"
 204      97248500 
 204      D50DAF3F 
 204      8B38FA5E 
 204      ED65
 205 039b DB5A9B6C 		.ascii	"\333Z\233l\352\363\324\247\213\341\302\327\267d5\326"
 205      EAF3D4A7 
 205      8BE1C2D7 
 205      B76435D6 
 206 03ab 9E57A314 		.ascii	"\236W\243\024\026\024\360\211\230\356XLw\244\355\237"
 206      1614F089 
ARM GAS  /tmp/ccq8xmTg.s 			page 16


 206      98EE584C 
 206      77A4ED9F 
 207 03bb 03FFD1F6 		.ascii	"\003\377\321\3664\376h\013\332\003\2177\351\002L->\033"
 207      34FE680B 
 207      DA038F37 
 207      E9024C2D 
 207      3E1B
 208 03cd 6EF5E364 		.ascii	"n\365\343d\312c\371\343\274\013\023s\317m}N>'\211\256"
 208      CA63F9E3 
 208      BC0B1373 
 208      CF6D7D4E 
 208      3E2789AE 
 209 03e1 6EF073AF 		.ascii	"n\360s\257\365\367\027\337\035\361\207\374\367O\024"
 209      F5F717DF 
 209      1DF187FC 
 209      F74F14
 210 03f0 4F8F15CF 		.ascii	"O\217\025\317|Z\034;S*\226FF>\036\034\355/\001\373d"
 210      7C5A1C3B 
 210      532A9646 
 210      463E1E1C 
 210      ED2F01FB 
 211 0405 948D8C5A 		.ascii	"\224\215\214Z\\\033}\001,\326Y\324"
 211      5C1B7D01 
 211      2CD659D4 
 212              		.text
 213              		.section	.gnu.lto_chHeapStatus.f69fbb6bdd7621af,"",%progbits
 214 0000 789C8D53 		.ascii	"x\234\215S\315KTQ\024?\347\336\36713of\214\250\205\233"
 214      CD4B5451 
 214      143FE7DE 
 214      F731336F 
 214      668CA885 
 215 0015 30098904 		.ascii	"0\011\211\004\207h\025\021-\372\003Z\244P\253\030\247"
 215      87681511 
 215      2DFA035A 
 215      A450AB18 
 215      A7
 216 0026 18DFC2F2 		.ascii	"\030\337\302\362\243\225.\274\243/20\020C,k\241\210"
 216      A3952EBC 
 216      A32F3230 
 216      10432C6B 
 216      A188
 217 0038 9865B969 		.ascii	"\230e\271i!\0318\206\224#\230\350Nq1\324B\204Y\265\210"
 217      21193886 
 217      942398E8 
 217      4E7131D4 
 217      428459B5 
 218 004d 92683AF7 		.ascii	"\222h:\367\335\373\346C\204z0s\356\307\357\234\363;"
 218      DDFBE643 
 218      847A3073 
 218      EEC7EF9C 
 218      F33B
 219 005f BF732E03 		.ascii	"\277s.\003\006\207\277N\3725\230\000g\311b\004\220\015"
 219      0687BF4E 
 219      FA359800 
 219      67C96204 
 219      900D
 220 0071 7F01C884 		.ascii	"\177\001\310\204\030\343\273\016\210\210\361\356#\200"
ARM GAS  /tmp/ccq8xmTg.s 			page 17


 220      18E3BB0E 
 220      8888F1EE 
 220      2380
 221 007f 887234D4 		.ascii	"\210r4\324\271\201\226Z\230j\261\034\262\2309\364\231"
 221      B981965A 
 221      986AB11C 
 221      B29839F4 
 221      99
 222 0090 3011DBB3 		.ascii	"0\021\333\263\011i\263\320\370'\271\015\377\220\333"
 222      0969B3D0 
 222      F827B90D 
 222      FF90DB
 223 009f 1086153E 		.ascii	"\020\206\025>\214(\027\200\320\307\270aZ6\235\364\335"
 223      8C281780 
 223      D0C7B861 
 223      5A369DF4 
 223      DD
 224 00b0 444981D7 		.ascii	"DI\201\327\303\244\020#\371\0073\337\3313\221\365&\304"
 224      C3A41023 
 224      F90733DF 
 224      D93391F5 
 224      26C4
 225 00c2 EF6211D1 		.ascii	"\357b\021\321E\242{\032!\205p\2036X\347\033fT\363W\276"
 225      45A27B1A 
 225      21857083 
 225      3658E71B 
 225      6654F357 
 226 00d7 D9C591C7 		.ascii	"\331\305\221\307\265b\242\177X\374!W\0279\2033\377\347"
 226      B562A27F 
 226      58FC2157 
 226      17398333 
 226      FFE7
 227 00e9 29166FAF 		.ascii	")\026o\257\012/[,^\361\275\032\376\3455\317\262\371"
 227      0A2F5B2C 
 227      5EF1BD1A 
 227      FEE535CF 
 227      B2F9
 228 00fb 62F1C393 		.ascii	"b\361\303\223\375okx\3428B\273d\231\304I\254\007Nv\212"
 228      FD6F6B78 
 228      E23842BB 
 228      6499C449 
 228      AC074E76 
 229 0110 AC41769A 		.ascii	"\254Av\232\254\205ti\203\213FD#\034\332@\224\376\314"
 229      AC857469 
 229      838B4644 
 229      231CDA40 
 229      94FECC
 230 0123 98C6C4B5 		.ascii	"\230\306\304\265O\015a\245\030&xB\014\327)\270\272R"
 230      4F0D61A5 
 230      18267842 
 230      0CD729B8 
 230      BA52
 231 0135 4090BCE8 		.ascii	"@\220\274\350k\246\177\022\272\005\031\031\276\012+"
 231      6BA67F12 
 231      BA051919 
 231      BE0A2B
 232 0144 7BCB4B23 		.ascii	"{\313K#<\2113hB\032-I\331\252\344\333\202\034\036\""
ARM GAS  /tmp/ccq8xmTg.s 			page 18


 232      3C893368 
 232      421A2D49 
 232      D9AAE4DB 
 232      821C1E22 
 233 0158 CF417FFE 		.ascii	"\317A\177\376\345\276\245pD\253\027\016\304\240\020"
 233      E5BEA570 
 233      44AB170E 
 233      C4A010
 234 0167 9708DD8E 		.ascii	"\227\010\335\216\254\002m\310\260\204\016\201\204\245"
 234      AC026DC8 
 234      B0840E81 
 234      84A5
 235 0175 25A975E8 		.ascii	"%\251u\350?\030\230\237.%\261{\241\207\212j\204s.\332"
 235      3F18989F 
 235      2E25B17B 
 235      A1878A6A 
 235      84732EDA 
 236 0189 CF619C52 		.ascii	"\317a\234R\206\010XN\335\212\025\0046\300P\216\240\223"
 236      8608584E 
 236      DD8A1504 
 236      36C0508E 
 236      A093
 237 019b 1E73319C 		.ascii	"\036s1\234B\005\241`.M\035Hzs9T@U\260\014\307%F\336"
 237      4205A160 
 237      2E4D1D48 
 237      7A733954 
 237      4055B00C 
 238 01b3 BD992DDD 		.ascii	"\275\231-\335MU\336\371\324\026\247\255\200ZD\246\240"
 238      4D55DEF9 
 238      D416A7AD 
 238      805A44A6 
 238      A0
 239 01c4 EF3CE9DC 		.ascii	"\357<\351\334\010\257\344\362\262\213\316\321$+XR\216"
 239      08AFE4F2 
 239      B28BCED1 
 239      242B5852 
 239      8E
 240 01d5 AC156490 		.ascii	"\254\025d\220\322\247%+\200m@\022\225\241b\236\335\334"
 240      D2A7252B 
 240      806D4012 
 240      95A1629E 
 240      DDDC
 241 01e7 8A9704E3 		.ascii	"\212\227\004\343\013\\\352e\002M?'\036;O\337n\225$\212"
 241      0B5CEA65 
 241      024D3F27 
 241      1E3B4FDF 
 241      6E95248A 
 242 01fb FAE2704D 		.ascii	"\372\342pM\341\226\213QE\301I\243#)\200\246\300\264"
 242      E1968B51 
 242      45C149A3 
 242      232980A6 
 242      C0B4
 243 020d E59AC73A 		.ascii	"\345\232\307:\014\014\016\264\006Qb\024(M\035!z\254"
 243      0C0C0EB4 
 243      06516214 
 243      284D1D21 
 243      7AAC
ARM GAS  /tmp/ccq8xmTg.s 			page 19


 244 021f 521ABAD1 		.ascii	"R\032\272\321\320\275r\351\3614r_\027\204*\207)\337"
 244      D0BD72E9 
 244      F134725F 
 244      17842A87 
 244      29DF
 245 0231 21AE747C 		.ascii	"!\256t|\377\350P\225N\320w\013\350y\352\306\007Y\374"
 245      FFE85095 
 245      4ED0770B 
 245      E879EAC6 
 245      0759FC
 246 0244 CCEA4045 		.ascii	"\314\352@E\341\345\003\345\316\374\026\354\374|\275"
 246      E1E503E5 
 246      CEFC16EC 
 246      FC7CBD
 247 0253 C6021E8E 		.ascii	"\306\002\036\216_z\240>\275\252\230^^\254T\201\035\245"
 247      5F7AA03E 
 247      BDAA985E 
 247      5EAC5481 
 247      1DA5
 248 0265 82A1ADA9 		.ascii	"\202\241\255\251\325X\005\257\220\271P\012\\v\001\325"
 248      D55805AF 
 248      90B9500A 
 248      5C7601D5 
 249 0275 1B465D32 		.ascii	"\033F]2\012\243\265tg\316\215%\267\201\353\3010vGOR"
 249      0AA3B574 
 249      67CE8D25 
 249      B781EBC1 
 249      3076474F 
 250 028a CDE68BB1 		.ascii	"\315\346\213\261\332m0\202\303\225Qjf\314\034\032K\312"
 250      DA6D3082 
 250      C395516A 
 250      66CC1C1A 
 250      4BCA
 251 029c 826DF57E 		.ascii	"\202m\365~\274\302\362\257\362\373\251\221\330x\365"
 251      BCC2F2AF 
 251      F2FBA991 
 251      D878F5
 252 02ab FB09C1AC 		.ascii	"\373\011\301\254%\033\234[\230\377\252\247\220\312\310"
 252      251B9C5B 
 252      98FFAAA7 
 252      90CAC8
 253 02ba 50450EC5 		.ascii	"PE\016\305\255\362I\353\022\310+,\303o\200\227_r\217"
 253      ADF249EB 
 253      12C82B2C 
 253      C36F8097 
 253      5F728F
 254 02cd 1A7F5635 		.ascii	"\032\177V5\376\233\220\231\310\205\003\022z\030\232"
 254      FE9B9099 
 254      C8850312 
 254      7A189A
 255 02dc 69403D5B 		.ascii	"i@=[\002O55%\256\266\271\255\356\265\353\211{\335\211"
 255      024F3535 
 255      25AEB6B9 
 255      ADEEB5EB 
 255      897BDD89 
 256 02f0 AEFB89EE 		.ascii	"\256\373\211\356\256T\"\325\326v'\331\321\224\002\326"
 256      AE5422D5 
ARM GAS  /tmp/ccq8xmTg.s 			page 20


 256      D67627D9 
 256      D19402D6 
 257 0300 D9817759 		.ascii	"\331\201wYw\317_~\33327"
 257      77CF5F7E 
 257      DB3237
 258              		.text
 259              		.section	.gnu.lto_.symbol_nodes.f69fbb6bdd7621af,"",%progbits
 260 0000 789C4DCC 		.ascii	"x\234M\314\275\012\302@\020\004\340\231\333\273\\\362"
 260      BD0AC240 
 260      1004E099 
 260      DBBB5CF2 
 261 0010 1479D48D 		.ascii	"\024y\324\215\004D\020DHo\343\243\330[hi\243\244\260"
 261      04441044 
 261      486FE3A3 
 261      D85B6869 
 261      A3A4B0
 262 0023 B9C67F51 		.ascii	"\271\306\177QP/\032L\266\031\276\335a\015\0146h\307"
 262      502F1A4C 
 262      B619BEDD 
 262      610D0C36 
 262      68C7
 263 0035 1CA9C074 		.ascii	"\034\251\300t\011\250\316Ft\007\302\252\360F\345o[\014"
 263      09A8CE46 
 263      7407C2AA 
 263      F046E56F 
 263      5B0C
 264 0047 684E54D3 		.ascii	"hNT\323u\314\231*=^\250\266\307+\325u\344\235\232\264"
 264      75CC992A 
 264      3D5EA8B6 
 264      C72BD575 
 264      E49D9AB4 
 265 005b 9F0AF249 		.ascii	"\237\012\362I\365\235\036\324\364/\201G\275}Q\304\243"
 265      F59D1ED4 
 265      F42F8147 
 265      BD7D51C4 
 265      A3
 266 006c 1C865C6C 		.ascii	"\034\206\\l\206\3717S\324\223\340\233,Woo-\252\365\336"
 266      86F93753 
 266      D493E09B 
 266      2C576F6F 
 266      2DAAF5DE 
 267 0080 8BCB50EF 		.ascii	"\213\313P\357b\335\305s\025kI\206\262q\222b1\0169>\031"
 267      62DDC573 
 267      156B4986 
 267      B2719262 
 267      310E393E 
 268 0095 9B456D   		.ascii	"\233Em"
 269              		.text
 270              		.section	.gnu.lto_.refs.f69fbb6bdd7621af,"",%progbits
 271 0000 789C6362 		.ascii	"x\234cb`b\020e\200\000V\006FF&&F \000\022,@\314\306"
 271      60621065 
 271      80005606 
 271      46462626 
 271      46200012 
 272 0018 C4C80000 		.ascii	"\304\310\000\000\004\212\000>"
 272      048A003E 
 273              		.text
ARM GAS  /tmp/ccq8xmTg.s 			page 21


 274              		.section	.gnu.lto_.decls.f69fbb6bdd7621af,"",%progbits
 275 0000 789CBD5A 		.ascii	"x\234\275Z\013p\024E\032\356\236\315\356f\223\010\210"
 275      0B701445 
 275      1AEE9ECD 
 275      EE669308 
 275      88
 276 0011 A5A2C769 		.ascii	"\245\242\307i\260\324\363\364 \001\021\361\252N\270"
 276      B0D4F3F4 
 276      200111F1 
 276      AA4EB8
 277 0020 A24AF1EA 		.ascii	"\242J\361\352<\251C\253\254\273\253Z&\233Iv5\373pvB"
 277      3CA943AB 
 277      ACBBAB5A 
 277      269B4976 
 277      35FB7076 
 278 0035 82559693 		.ascii	"\202U\226\223\015\344B@\010\341\031\036I\000\341D\213"
 278      0DE44240 
 278      08E1191E 
 278      4900E144 
 278      8B
 279 0046 47A20808 		.ascii	"G\242\010\010\310\202\022\"\217H\300\343\351I8\364|"
 279      C8821222 
 279      8F48C0E3 
 279      E94938F4 
 279      7C
 280 0057 9CCF7088 		.ascii	"\234\317p\210\017d\357\357\236\231\335\231\336\235\315"
 280      0F64EFEF 
 280      9E99DD99 
 280      DE9DCD
 281 0066 EC523895 		.ascii	"\354R8\225\356\351\231\351\376\372\377\277\377\357\376"
 281      EEE999E9 
 281      FEFAFFBF 
 281      FFEFFE
 282 0075 BB7BC321 		.ascii	"\273{\303!\016\335eC(\006\327\240\341\010\2259\020\202"
 282      0EDD6543 
 282      2806D7A0 
 282      E1089539 
 282      1082
 283 0087 3FF42024 		.ascii	"?\364 $;\244\225\220VA\232\204\021\232\014\251\026\022"
 283      3BA49590 
 283      56419A84 
 283      119A0CA9 
 283      1612
 284 0099 FCA11AC8 		.ascii	"\374\241\032\310\\p\237\016\367zH\015\220\026Aj\201"
 284      5C709F0E 
 284      F77A480D 
 284      9016416A 
 284      81
 285 00aa B406D206 		.ascii	"\264\006\322\006H\035\220^S\353\277N2\335E\332]\003"
 285      481D905E 
 285      53EBBF4E 
 285      32DD45DA 
 285      5D03
 286 00bc F7BFC2FD 		.ascii	"\367\277\302\375q\025{\012\244jH\225\220DH\036\254\364"
 286      71157B0A 
 286      A46A4895 
 286      9044481E 
ARM GAS  /tmp/ccq8xmTg.s 			page 22


 286      ACF4
 287 00ce BB1527E4 		.ascii	"\273\025'\344\330\010e'\334\377\002\367\022H\317@\222"
 287      D8086527 
 287      DCFF02F7 
 287      1248CF40 
 287      92
 288 00df 2055417A 		.ascii	" UAz\016+r\331trm0\351\237\310;P\247#\351w\000\334\013"
 288      0E2B72D9 
 288      74726D30 
 288      E99FC83B 
 288      50A723E9 
 289 00f7 18995859 		.ascii	"\030\231XY\210\014D\036+rpj?D\206\034(7\301\275\021"
 289      880C441E 
 289      2B72706A 
 289      3F44861C 
 289      2837C1BD 
 290 010c D20248DB 		.ascii	"\322\002H\333\030y\010w\203\0319\306\351\344\233\242"
 290      18790877 
 290      831939C6 
 290      E9E49BA2 
 291 011c CA334995 		.ascii	"\3123I\225\345qF\026Q\225\225\310\3767H\271H\221\253"
 291      E5714616 
 291      519595C8 
 291      FE3748B9 
 291      4891AB
 292 012f 4695ED39 		.ascii	"F\225\3559\235|\317bEn\233\332\357k\252\255\310\363"
 292      9D7CCF62 
 292      456E9BDA 
 292      EF6BAAAD 
 292      C8F3
 293 0141 32B82FC7 		.ascii	"2\270/\307\311|\265\250r\351\345\233\254\332\205\310"
 293      C97CB5A8 
 293      72E9E59B 
 293      ACDA85C8 
 294 0151 A8E78995 		.ascii	"\250\347\211\225m\222\312\225\306\321\2638!\233\306"
 294      6D92CA95 
 294      C6D1B338 
 294      219BC6
 295 0160 974DED43 		.ascii	"\227M\355C\223\205p\267\012\356\273\0309\326\250v\323"
 295      938570B7 
 295      0AEEBB18 
 295      39D6A876 
 295      D3
 296 0171 CB314927 		.ascii	"\3131I'\307d\265\357\307q\242\177\217\216\037\342\277"
 296      C764B5EF 
 296      C771A27F 
 296      8F8E1FE2 
 296      BF
 297 0182 0ED57F35 		.ascii	"\016\325\1775\273\351\271\261\251}\3509y\031\356\257"
 297      BBE9B9B1 
 297      A97DE839 
 297      7919EEAF 
 298 0192 A4E0241F 		.ascii	"\244\340$\0375\310rDn\253\223'v\015\030\214\346\311"
 298      35C87244 
 298      6EAB9327 
 298      760D188C 
 298      E6C9
ARM GAS  /tmp/ccq8xmTg.s 			page 23


 299 01a4 70157681 		.ascii	"p\025v\201TOb\036\017p!\031\323R\201\013\015\202\332"
 299      544F621E 
 299      0F702119 
 299      D352810B 
 299      0D82DA
 300 01b7 77A01765 		.ascii	"w\240\027e\271\261w\306\351\241r\016\217W\341\301\240"
 300      B9B177C6 
 300      E9A1720E 
 300      8F57E1C1 
 300      A0
 301 01c8 E3ED18DD 		.ascii	"\343\355\030\335\215\326A\263F\000\272\021%_\375\242"
 301      8DD641B3 
 301      4600BA11 
 301      255FFDA2 
 302 01d8 72E85E8C 		.ascii	"r\350^\214x\274\026\340x\274\006\337\255t#G\317\363"
 302      78BC16E0 
 302      78BC06DF 
 302      AD742347 
 302      CFF3
 303 01ea 85CA5BA4 		.ascii	"\205\312[\244\276Oq\015Cm\244\352\205\217\\rSA\212\236"
 303      BE4F710D 
 303      436DA4EA 
 303      858F5C72 
 303      53418A9E 
 304 01fe C66B1DE5 		.ascii	"\306k\035\345&\304\377~\345\013\217\310r.\217_\246\012"
 304      26C4FF7E 
 304      E50B8FC8 
 304      722E8F5F 
 304      A60A
 305 0210 78B0015E 		.ascii	"x\260\001^\005i\033o\206\302\2410i\261\236\021\267\267"
 305      05691B6F 
 305      86C2A130 
 305      69B19E11 
 305      B7B7
 306 0222 79FFC508 		.ascii	"y\377\305\010\256\221e\254|\353O\350H\364\233Y+n\222"
 306      AE9165AC 
 306      7CEB4FE8 
 306      48F49B59 
 306      2B6E92
 307 0235 DBF6E07E 		.ascii	"\333\366\340~m\220\243u?>\241\304w?\331\200\235\016"
 307      6D90A375 
 307      3F3EA1C4 
 307      773FD980 
 307      9D0E
 308 0247 AAC13F70 		.ascii	"\252\301?pJ\025\31418\264\2116\331\234\244C\303\336"
 308      4A15CC31 
 308      38B48936 
 308      D99CA443 
 308      C3DE
 309 0259 5A5587CD 		.ascii	"ZU\207\315\226tX<G\321\201\307\355\240\007\207\336\210"
 309      9674583C 
 309      47D181C7 
 309      EDA00787 
 309      DE88
 310 026b E3AA1D17 		.ascii	"\343\252\035\027j\375\222\331C-*\227Z\301\210\267\264"
 310      6AFD92D9 
 310      432D2A97 
ARM GAS  /tmp/ccq8xmTg.s 			page 24


 310      5AC188B7 
 310      B4
 311 027c BBA091D7 		.ascii	"\273\240\221\327\300vg\014Vh\000k\355^N\205s\241\372"
 311      C076670C 
 311      5668006B 
 311      ED5E4E85 
 311      73A1FA
 312 028f 04C12825 		.ascii	"\004\301(%\230\312j\373\234\267{p-\325\177'4\343P\214"
 312      98CA6AFB 
 312      9CB77B70 
 312      2DD57F27 
 312      34E3508C 
 313 02a3 A1D63A54 		.ascii	"\241\326:Tk\323\336\3358B\241\242\024\352G.[\250\346"
 313      6BD3DEDD 
 313      3842A1A2 
 313      14EA472E 
 313      5BA8E6
 314 02b6 A53B1EA0 		.ascii	"\245;\036\240\016\373\026\005\232\231c\004\342\2613"
 314      0EFB1605 
 314      9A996304 
 314      E2B133
 315 02c5 4E63FC59 		.ascii	"Nc\374Y\253@\320\350g\265@\202\344@t\225\253shA\216"
 315      AB40D0E8 
 315      67B54082 
 315      E4407495 
 315      AB736841 
 316 02da 05D3E59A 		.ascii	"\005\323\345\232\371\201\334\273\244\341\240\255Y\216"
 316      F981DCBB 
 316      A4E1A0AD 
 316      598E
 317 02e8 4EB769C3 		.ascii	"N\267i\303\321a\306\021\207\226\321\276\272X_^|\256"
 317      D161C611 
 317      8796D1BE 
 317      BA585F5E 
 317      7CAE
 318 02fa EBD74B64 		.ascii	"\353\327Kdy\220\362\251\177W\336\274\177\261\245\341"
 318      7990F2A9 
 318      7F57DEBC 
 318      7FB1A5E1 
 319 030a D8C669DD 		.ascii	"\330\306i\335\337N\273?@\273?\304v\177\346?\237\214"
 319      DF4EBB3F 
 319      40BB3FC4 
 319      767FE63F 
 319      9F8C
 320 031c 53BA3F64 		.ascii	"S\272?d\251\373\236#\013\222\273\347\361\203\327\247"
 320      A9FB9E23 
 320      0B92BBE7 
 320      F183D7A7 
 321 032c F38CC5E7 		.ascii	"\363\214\305\347>\031\332J;\351\241#\246\326\316\272"
 321      3E19DA4A 
 321      3BE9A123 
 321      A6D6CEBA 
 322 033c C6B87CA3 		.ascii	"\306\270|\243\361\340YW\201C\263\355\232\364Y\015XP"
 322      F1E05957 
 322      8143B3ED 
 322      9AF4590D 
 322      5850
ARM GAS  /tmp/ccq8xmTg.s 			page 25


 323 034e B3EB0FEB 		.ascii	"\263\353\017\353:dy\246C\223an\306\210\205\006\"\336"
 323      3A6479A6 
 323      4393616E 
 323      C6888506 
 323      22DE
 324 0360 3B42A700 		.ascii	";B\247\000\005\254\311\012\230\251\037E\242\307\364"
 324      05ACC90A 
 324      98A91F45 
 324      A2C7F4
 325 036f 600B3306 		.ascii	"`\0133\0063JvB\017\266\304\012\330 s\311N\351\301\226"
 325      334A7642 
 325      0FB6C40A 
 325      D82073C9 
 325      4EE9C196 
 326 0383 650C6694 		.ascii	"e\014f\224\354}=X\213\025\260!\346\222}\240\007[\225"
 326      EC7D3D58 
 326      8B15B021 
 326      E6927DA0 
 326      075B95
 327 0396 319851B2 		.ascii	"1\230Q\262\257\365`k\255\200\025\246\220,~\245jG\334"
 327      AFF5606B 
 327      AD8015A6 
 327      902C7EA5 
 327      6A47DC
 328 03a9 FA208EFB 		.ascii	"\372 \216\3739\207\326\331\265\011!C\237F\011\214\365"
 328      3987D6D9 
 328      B5092143 
 328      9F46098C 
 328      F5
 329 03ba F64C2730 		.ascii	"\366L'0\203\336\020I\017\255\306\363k\345\256b-\232"
 329      83DE1049 
 329      0FADC6F3 
 329      6BE5AE62 
 329      2D9A
 330 03cc BD6A0531 		.ascii	"\275j\0051\215\303\274\256\017\215\3333\0063\232\345"
 330      8DC3BCAE 
 330      0F8DDB33 
 330      06339AE5 
 331 03dc 3D026698 		.ascii	"=\002f\230j\324p\324\273&:dIb\262\313\325\260\310\272"
 331      6AD470D4 
 331      BB263A64 
 331      4962B2CB 
 331      D5B0C8BA 
 332 03f0 5199D960 		.ascii	"Q\231\331`\235\307\305+\313C\206\244\256\313\343/\361"
 332      9DC7C52B 
 332      CB4386A4 
 332      AECBE32F 
 332      F1
 333 0401 1D907F85 		.ascii	"\035\220\177\205]q)\224\262V\212\321%\362[vfE\252]\375"
 333      5D712994 
 333      B2568AD1 
 333      25F25B76 
 333      6645AA5D 
 334 0416 3535F384 		.ascii	"55\363\204\317\365\236\320e\205\2464C\341\307\356\345"
 334      CFF59ED0 
 334      6585A634 
 334      43E1C7EE 
ARM GAS  /tmp/ccq8xmTg.s 			page 26


 334      E5
 335 0427 37CABD51 		.ascii	"7\312\275Q\254\3237-9\260\202\350~\363w4V\237\247\261"
 335      ACD3372D 
 335      39B082E8 
 335      7EF37734 
 335      569FA7B1 
 336 043b FA5D7BCA 		.ascii	"\372]{\312\240o\001\250\265i\375=\024\350[\012t\"k\240"
 336      A06F01A8 
 336      B569FD3D 
 336      14E85B0A 
 336      74226BA0 
 337 044f E6A52D63 		.ascii	"\346\245-c)\320\367\024\2507)D`f\365\200\215\361=\316"
 337      29D0F714 
 337      A8372944 
 337      6066F580 
 337      8DF13DCE 
 338 0463 BC4AFCD5 		.ascii	"\274J\374\325\252\313\241\317Xk\031\324\351w\256\201"
 338      AACBA1CF 
 338      586B19D4 
 338      E977AE81 
 339 0473 15F887F3 		.ascii	"\025\370\207\363\361\371\210\274\2448\003{\315Q\355"
 339      F1F988BC 
 339      A438037B 
 339      CD51ED
 340 0482 7599B2D3 		.ascii	"u\231\262\323\227\304\316\267\031\322\303\241\0372V"
 340      97C4CEB7 
 340      19D2C3A1 
 340      1F3256
 341 0491 E32EA31A 		.ascii	"\343.\243\032\015\037g\241\306.E\215Z\216\250\021q\\"
 341      0D1F67A1 
 341      C62E458D 
 341      5A8EA811 
 341      715C
 342 04a3 B91A0D8E 		.ascii	"\271\032\015\216L\325(\326\251A\367C\013\224\031\360"
 342      4CD528D6 
 342      A941F743 
 342      0B9419F0 
 343 04b3 3AD4947E 		.ascii	":\324\224~\015G\344\251\347\2563n\377.\274\213\013\225"
 343      0D47E4A9 
 343      E7AE336E 
 343      FF2EBC8B 
 343      0B95
 344 04c5 D7FDEFFF 		.ascii	"\327\375\357\377\346\037\321\255\364eK+\375\356\370"
 344      E61FD1AD 
 344      F4654B2B 
 344      FDEEF8
 345 04d4 4A7F16A5 		.ascii	"J\177\026\245l\236#\305\000\263\002\325\326z\344z\262"
 345      6C9E23C5 
 345      00B302D5 
 345      D67AE47A 
 345      B2
 346 04e5 1D9E4361 		.ascii	"\035\236Ca\026g\013\323\333|j\2132N\347Q\240\326$\023"
 346      16670BD3 
 346      DB7C6A8B 
 346      324EE751 
 346      A0D62413 
 347 04f9 3A180B3A 		.ascii	":\030\013:\214\026\204G\322\323wd\015\216\237W\337\220"
ARM GAS  /tmp/ccq8xmTg.s 			page 27


 347      8C168447 
 347      D2D37764 
 347      0D8E9F57 
 347      DF90
 348 050b 0727FAD9 		.ascii	"\007'\372\331\333A\014\246\342\023\353e\263\256$;\321"
 348      DB410CA6 
 348      E213EB65 
 348      B3AE243B 
 348      D1
 349 051c 830BB4F8 		.ascii	"\203\013\264\370\251\030h\323\025!F\242\273\232\264"
 349      A91868D3 
 349      152146A2 
 349      BB9AB4
 350 052b ADEA3812 		.ascii	"\255\3528\022A\267]!\034]r\031\"(\263r\3570\211:\332"
 350      41B75D21 
 350      1C5D7219 
 350      2228B372 
 350      EF30893A 
 351 0540 2944FBEC 		.ascii	")D\373\354\337Ps/\343\2108\321$s\267cf\351N^\350\252"
 351      DF50732F 
 351      E38838D1 
 351      2473B763 
 351      66E94E5E 
 352 0556 980DA4A5 		.ascii	"\230\015\244\245\234.\000\036\275R3\354\377\027c\206"
 352      9C2E001E 
 352      BD5233EC 
 352      FF176386 
 353 0566 9357C85B 		.ascii	"\223W\310[\363|k\247\036S4\254\002\252\310Y\332\355"
 353      F37C6BA7 
 353      1E5334AC 
 353      02AAC859 
 353      DAED
 354 0578 6A8ED965 		.ascii	"j\216\331e\355\274\330[\247\356\262\311\267\376g\212"
 354      EDBCD85B 
 354      A7EEB2C9 
 354      B7FE678A 
 355 0588 D3F4A448 		.ascii	"\323\364\244H;\373itj\250j\257\343\365K\273~\351\211"
 355      3BFB6974 
 355      6AA86AAF 
 355      E3F54BBB 
 355      7EE989
 356 059b 7E207415 		.ascii	"~ t\025g2\347tjs\316:\312\345\022'kt2\211\030\214\236"
 356      6732E774 
 356      6A73CE3A 
 356      CAE51227 
 356      6B743289 
 357 05b2 D1A06B61 		.ascii	"\321\240ka\325\261\272[\212_fN\265J\357T/:\257\310\005"
 357      D5B1BA5B 
 357      8A5F664E 
 357      B54AEF54 
 357      2F3AAFC8 
 358 05c7 C0A9BE7C 		.ascii	"\300\251\276|Qq*f\310\2545\0312D\202\215z\011^\2712"
 358      51712A66 
 358      C8AC3519 
 358      3244828D 
 358      7A095EB9 
 359 05dc 09A2A78F 		.ascii	"\011\242\247\217f|2\324\275W\263]\007\265]G\222\355"
ARM GAS  /tmp/ccq8xmTg.s 			page 28


 359      667C32D4 
 359      BD57B35D 
 359      07B55D47 
 359      92ED
 360 05ee A26C88B5 		.ascii	"\242l\210\265rP\362f\266\232\304/\016\355uZX\345\026"
 360      7250F266 
 360      B69AC42F 
 360      0EED755A 
 360      58E516
 361 0601 9A7A31CC 		.ascii	"\232z1\314\265\227\325A\336\357i\2136y}4{\"\235\274"
 361      B597D541 
 361      DEEF698B 
 361      36797D34 
 361      7B229DBC 
 362 0615 B6726418 		.ascii	"\266rd\030\275\303pa\341\320\346\004m\262\235\035\317"
 362      BDC37061 
 362      E1D0E604 
 362      6DB29D1D 
 362      CF
 363 0626 CD0DFFD3 		.ascii	"\315\015\377\323\016Q\267[\030\317\221\350\321Y\372"
 363      0E51B75B 
 363      18CF91E8 
 363      D159FA
 364 0635 03481E6F 		.ascii	"\003H\036o\303\234\212\233-\237\006\023&\004\344\361"
 364      C39C8A9B 
 364      2D9F0613 
 364      2604E4F1 
 365 0645 4E8E6C68 		.ascii	"N\216lh\336\344\206\351\271\377$c\356\013\365\334G\027"
 365      DEE486E9 
 365      B9FF2463 
 365      EE0BF5DC 
 365      4717
 366 0657 1E5B8E15 		.ascii	"\036[\216\025\371\225\031\251\217\305K5#\335ef\313H"
 366      F99519A9 
 366      8FC54B35 
 366      23DD6566 
 366      CB48
 367 0669 74D331BA 		.ascii	"t\3231\272KT|\364'+\302\025\233\203\355Z\244\221\273"
 367      4B547CF4 
 367      272BC215 
 367      9B83ED5A 
 367      A491BB
 368 067c 9106A9FA 		.ascii	"\221\006\251\372\334L\361\012\015x\307\217-W\361\224"
 368      DC4CF10A 
 368      0D78C78F 
 368      2D57F194 
 369 068c D3D5262B 		.ascii	"\323\325&+xc\315\345\273\260\310\020\322Wd\014W\230"
 369      7863CDE5 
 369      BBB0C810 
 369      D257640C 
 369      5798
 370 069e CEF689D3 		.ascii	"\316\366\211\323q\036o\241\233\331\255x\030\344o\320"
 370      711E6FA1 
 370      9BD9AD78 
 370      18E46FD0 
 371 06ae 7C07CDF7 		.ascii	"|\007\315\367\321\374c\232\177J\363\377\322\274\217"
 371      D1FC639A 
ARM GAS  /tmp/ccq8xmTg.s 			page 29


 371      7F4AF3FF 
 371      D2BC8F
 372 06bd E63FD13C 		.ascii	"\346?\321<\302\221\374\3574\337B\363(\315\367\320\374"
 372      C291FCEF 
 372      34DF42F3 
 372      28CDF7D0 
 372      FC
 373 06ce 6D9A77D2 		.ascii	"m\232w\322\274K\357[f\023!\263\014\320\\~}\326g\356"
 373      BC4BEF5B 
 373      661321B3 
 373      0CD05C7E 
 373      7DD667EE 
 374 06e2 7D07E207 		.ascii	"}\007\342\007\013\340\360\031\203\245\345p\275\216\303"
 374      0BE0F019 
 374      83A5E570 
 374      BD8EC3
 375 06f1 8D94C34D 		.ascii	"\215\224\303M\224\223\375\306Q\264&W\373\005(\2338\034"
 375      9493FDC6 
 375      51B42657 
 375      FB05289B 
 375      381C
 376 0703 E99D7E46 		.ascii	"\351\235~Fw6\262\236\005\263\032\005U>.\011d\265\263"
 376      7736B29E 
 376      05B31A05 
 376      553E2E09 
 376      64B5B3
 377 0716 92626DCE 		.ascii	"\222bm\316\030+-\035kut\274D\351XG\3518H\315\337m\305"
 377      182B2D1D 
 377      6B7574BC 
 377      44E95847 
 377      E93848CD 
 378 072d FC2B13CB 		.ascii	"\374+\023\313B\353\321\353\373\325g\177\273\221\236"
 378      42EBD1EB 
 378      FBD5677F 
 378      BB919E
 379 073c 131FA613 		.ascii	"\023\037\246\023\303.\027\033\274\354L\354\262\033c"
 379      C32E171B 
 379      BCEC4CEC 
 379      B21B63
 380 074b 97DD9528 		.ascii	"\227\335\225(\250\261+\345\002\256\376\\\342hF\216\037"
 380      A8B12BE5 
 380      02AEFE5C 
 380      E268468E 
 380      1F
 381 075c 94172624 		.ascii	"\224\027&$Y\261\341\354>5\216\276Gc\307\247\256\224"
 381      59B1E1EC 
 381      3E358EBE 
 381      4763C7A7 
 381      AE94
 382 076e B1230D12 		.ascii	"\261#\015\022\207.\3226\307\231\340\021\335UW@6b\307"
 382      872ED236 
 382      C799E011 
 382      DD555740 
 382      3662C7
 383 0781 2D058E9E 		.ascii	"-\005\216\236\316\345\311\353\320\033\320Bu-'c\211\316"
 383      CEE5C9EB 
 383      D01BD042 
ARM GAS  /tmp/ccq8xmTg.s 			page 30


 383      752D2763 
 383      89CE
 384 0793 2A666678 		.ascii	"*ffx\237\273\201\226l\364g^\244\020\313\343'li\015\250"
 384      9FBB8196 
 384      6CF4675E 
 384      A410CBE3 
 384      276C690D 
 385 07a8 1DDB777C 		.ascii	"\035\333w|\263H]\265\236\246\023\353\272<#\011\314\272"
 385      B3485DB5 
 385      9EA613EB 
 385      BA3C2309 
 385      CCBA
 386 07ba 88746626 		.ascii	"\210tf&H/\227o\242k\3227\016\275\236\247\021\227\335"
 386      482F976F 
 386      A26BD237 
 386      0EBD9EA7 
 386      1197DD
 387 07cd 7660C5   		.ascii	"v`\305"
 388 07d0 869E9BB7 		.ascii	"\206\236\233\267\275&\313\355S\324=}\324\241\267\223"
 388      BD26CBED 
 388      53D43D7D 
 388      D4A1B793 
 389 07e0 61D47268 		.ascii	"a\324rh7\355\355\034\273\261\237\337I~\272<gac\037\211"
 389      37EDED1C 
 389      BBB19FDF 
 389      497EBA3C 
 389      6761631F 
 390 07f5 2EAC9B7B 		.ascii	".\254\233{\263\3346{\210\352\352\321:\271\036\327\264"
 390      B3DC367B 
 390      88EAEAD1 
 390      3AB91ED7 
 390      B4
 391 0806 0F4DDD63 		.ascii	"\017M\335c\342G\221_\276L\235\375c\352\354\207\030r"
 391      E247915F 
 391      BE4C9DFD 
 391      63EAEC87 
 391      1872
 392 0818 33C16A6D 		.ascii	"3\301jmzW\373\025\3573\012v\"{\260\266\346S\364w\363"
 392      7A57FB15 
 392      EF330A76 
 392      227BB0B6 
 392      E653F477 
 393 082d 2F28D0D9 		.ascii	"/(\320\331<v\010\272\230!\3502\016A\227+Q\210i\027{"
 393      3C7608BA 
 393      9821E832 
 393      0E41972B 
 393      51886917 
 394 0842 C67615DB 		.ascii	"\306v\025\333p\350\363\270=\263\332-\201\367\274s\023"
 394      70E8F3B8 
 394      3DB3DA2D 
 394      81F7BC73 
 394      13
 395 0853 8CAFC432 		.ascii	"\214\257\3042\323\3647v\"V\037;\274\027w\222\003\241"
 395      D3F43776 
 395      22561F3B 
 395      BC177792 
 395      03A1
ARM GAS  /tmp/ccq8xmTg.s 			page 31


 396 0865 3E4BDBBC 		.ascii	">K\333\274\326\316\003\030\366y\226N\236.\260\016\332"
 396      D6CE0318 
 396      F679964E 
 396      9E2EB00E 
 396      DA
 397 0876 DCC9152A 		.ascii	"\334\311\025*\257\373w\320eu)\266\263\006\222\222\372"
 397      AFFB77D0 
 397      657529B6 
 397      B3069292 
 397      FA
 398 0887 FB4EBF93 		.ascii	"\373N\277\223\351\243\234^\310z'\263\274\223F\276\243"
 398      E9A39C5E 
 398      C87A27B3 
 398      BC9346BE 
 398      A3
 399 0898 741AB998 		.ascii	"t\032\271\230-X\374\342\320%\212\321\227\345\024\021"
 399      2D58FCE2 
 399      D0258AD1 
 399      97E51411 
 400 08a8 89B6776A 		.ascii	"\211\266wjk<%\324\\\316\030\2570I\246\332\374,\035O"
 400      6B3C25D4 
 400      5CCE18AF 
 400      3049A6DA 
 400      FC2C1D4F 
 401 08bc 8731239F 		.ascii	"\2071#\237\231\372Ra\230\377\"\035=\361\020\341Y\371"
 401      99FA5261 
 401      98FF221D 
 401      3DF110E1 
 401      59F9
 402 08ce 9F97D92C 		.ascii	"\237\227\331,\226\361\037ZtEk\273\214\343\272]\306I"
 402      96F11F5A 
 402      74456BBB 
 402      8CE3BA5D 
 402      C649
 403 08e0 BACB3845 		.ascii	"\272\3138E\027\004\377\246y\215\315\302\262\340h\302"
 403      1704FFA6 
 403      798DCDC2 
 403      B2E068C2 
 404 08f0 A9185724 		.ascii	"\251\030W$f0kUk\213\267\272\025\265\310m\275\275\377"
 404      66306B55 
 404      6B8BB7BA 
 404      15B5C86D 
 404      BDBDFF
 405 0903 7CE3E42F 		.ascii	"|\343\344/\026\301VP\376\232\004y&\036\232\374\030M"
 405      16C15650 
 405      FE9A0479 
 405      261E9AFC 
 405      184D
 406 0915 9066D86E 		.ascii	"\220f\330nPKZ\010\344P{>f\306\317\235h\015\301\223_"
 406      504B5A08 
 406      E4507B3E 
 406      66C6CF9D 
 406      680DC193 
 407 092a 926D148D 		.ascii	"\222m\024\215\324\237n\273\325\310F\235\215\323\277"
 407      D49F6EBB 
 407      D5C8469D 
 407      8DD3BF
ARM GAS  /tmp/ccq8xmTg.s 			page 32


 408 0939 2082F592 		.ascii	" \202\365\222\230\3313\264\271C\236>S\276\034{\036+"
 408      98D933B4 
 408      B9439E3E 
 408      53BE1C7B 
 408      1E2B
 409 094b 3191433B 		.ascii	"1\221C;\222\272P0f&cP\345zn\311F\271Y6&\330\023\266"
 409      92BA5030 
 409      66266350 
 409      E57A6EC9 
 409      46B95936 
 410 0963 E30FCA4F 		.ascii	"\343\017\312O\354\206\205\200\201\010\312E\027#\350"
 410      EC868580 
 410      8108CA45 
 410      1723E8
 411 0972 ED68B52C 		.ascii	"\355h\265,7\311+\204\211\332\340=Ik4\000\033\251\304"
 411      37C92B84 
 411      89DAE03D 
 411      496B3400 
 411      1BA9C4
 412 0985 502DAC36 		.ascii	"P-\2546;N\232\321=\317\231~Z\215K4\212\221F\3122\345"
 412      3B4E9AD1 
 412      3DCF997E 
 412      5A8D4B34 
 412      8A9146CA 
 413 099b 32C7A56D 		.ascii	"2\307\245m\245\352\240\232\353\005y\306 \034\267W\003"
 413      A5EAA09A 
 413      EB0579C6 
 413      201CB757 
 413      03
 414 09ac 6BAFB9A9 		.ascii	"k\257\271\251\270\216\036\337Of`\371R,fc\231N\263\254"
 414      B88E1EDF 
 414      4F6660F9 
 414      522C6663 
 414      994EB3AC 
 415 09c0 5A9C96E9 		.ascii	"Z\234\226\351\324\324\236KM\355B\215Z\036\317\263\021"
 415      D4D49E4B 
 415      4DED428D 
 415      5A1ECFB3 
 415      11
 416 09d1 751759A2 		.ascii	"u\027Y\242\266\207e\311\274\231\236\245\210\274\261"
 416      B68765C9 
 416      BC999EA5 
 416      88BCB1
 417 09e0 6EC6A01C 		.ascii	"n\306\240\034\325\033\314[\251z.M\311\331\3519\246\234"
 417      D51BCC5B 
 417      A97A2E4D 
 417      C9D9E939 
 417      A69C
 418 09f2 A5F1CE56 		.ascii	"\245\361\316V\2263\372?\036\006\212\276JM\321\231R\315"
 418      9633FA3F 
 418      1E068ABE 
 418      4A4DD199 
 418      52CD
 419 0a04 8D7EA015 		.ascii	"\215~\240\025Z\322\272\221\211?\264\260\376\2602\245"
 419      5AD2BA91 
 419      893FB4B0 
 419      FEB032A5 
ARM GAS  /tmp/ccq8xmTg.s 			page 33


 420 0a14 6E5B9A66 		.ascii	"n[\232fC\\\210Dc\261q\254n\351f\250\265i\035B\235\277"
 420      435C8844 
 420      63B171AC 
 420      6EE966A8 
 420      B5691D42 
 421 0a2a 186D2FA5 		.ascii	"\030m/\245\326\266\231u\2105\326\307\032\351\210C3\013"
 421      D6B69975 
 421      8835D6C7 
 421      1AE98843 
 421      330B
 422 0a3c 70DA66AA 		.ascii	"p\332f\2528\252C\264\1778i\242\346$\346\255T=\327\245"
 422      38AA43B4 
 422      7F3869A2 
 422      E624E6AD 
 422      543DD7A5 
 423 0a50 9CF43E3C 		.ascii	"\234\364><\337\205\3533v\210\215,g+q\222G\314-H=q\266"
 423      DF85EB33 
 423      76888D2C 
 423      672B7192 
 423      47CC2D48 
 424 0a67 A79223BA 		.ascii	"\247\222#\272u\337l\0317\326\364\306b\267*\360\034j"
 424      75DF6C19 
 424      37D6F4C6 
 424      62B72AF0 
 424      1C6A
 425 0a79 35017835 		.ascii	"5\001x5%\300\246d\200WL\0006\033\001nC+\345\350a\230"
 425      25C0A664 
 425      80574C00 
 425      361B016E 
 425      432BE5E8 
 426 0a8f BACFDEB4 		.ascii	"\272\317\336\264\001\026\342\355@A\014\307\306i\333"
 426      0116E2ED 
 426      40410CC7 
 426      C669DB
 427 0a9e C7CD7194 		.ascii	"\307\315q\224\224{E\002\270%\001\310\204F\"\210\031"
 427      947B4502 
 427      B82501C8 
 427      84462288 
 427      19
 428 0aaf 895B13A1 		.ascii	"\211[\023\241\221\210p\370p\364\364\276\2312\226\353"
 428      918870F8 
 428      70F4F4BE 
 428      993296EB 
 429 0abf E41A123D 		.ascii	"\344\032\022=\256E\215t\233\272\004`\276\300q\377\255"
 429      AE458D74 
 429      9BBA0460 
 429      BEC071FF 
 429      AD
 430 0ad0 8F2F04AE 		.ascii	"\217/\004\256\245M\365\325\2762\257\306\343\3556\245"
 430      A54DF5D5 
 430      BE32AFC6 
 430      E3ED36A5 
 431 0ae0 64F83581 		.ascii	"d\3705\201\3260\023p\207-\361\357\021\005.\304,;\020"
 431      D6301370 
 431      872DF1EF 
 431      11052EC4 
 431      2C3B10
ARM GAS  /tmp/ccq8xmTg.s 			page 34


 432 0af3 530BA8DA 		.ascii	"S\013\250\332S\300\204\012V\012\016\035(\300j;X\265"
 432      53C0840A 
 432      560A0E1D 
 432      28C06A3B 
 432      58B5
 433 0b05 697AF775 		.ascii	"iz\367u\313\271\233\344z9\026{\336D\353'5\234\374tJ"
 433      CBB99BE4 
 433      7A39167B 
 433      DE44EB27 
 433      359CFC74 
 434 0b1a 33B578BC 		.ascii	"3\265x\274;c\235\367\230\350\234g\320Y\253\005\305\235"
 434      3B639DF7 
 434      98E89C67 
 434      D059AB05 
 434      C59D
 435 0b2c 74A0EBE6 		.ascii	"t\240\353\3465F\010\010\273\006\225\321\260\021#\212"
 435      35460808 
 435      BB0695D1 
 435      B011238A 
 436 0b3c 26787D25 		.ascii	"&x}%\276\307&\027\005\303E\242T\344\013x**K\205\"\217"
 436      BEC72617 
 436      05C345A2 
 436      54E40B78 
 436      2A2A4B85 
 437 0b52 D72F558F 		.ascii	"\327/U\217\360\"\247\277R\022\252\335\222\343\341?="
 437      F022A7BF 
 437      5212AADD 
 437      92E3E13F 
 437      3D
 438 0b63 513801E5 		.ascii	"Q8\001\345z\274n\372\346\3164-\303\323\302\322\264\220"
 438      7ABC6EFA 
 438      E6CE342D 
 438      C3D3C2D2 
 438      B490
 439 0b75 1086E603 		.ascii	"\020\206\346\003%\257(\360\245a\3673\225B\245\340\226"
 439      25AF28F0 
 439      A561F733 
 439      9542A5E0 
 439      96
 440 0b86 06417BC3 		.ascii	"\006A{\303\253\333\322\341x\274\245\200\221\2534pK\256"
 440      ABDBD2E1 
 440      78BCA580 
 440      91AB3470 
 440      4BAE
 441 0b98 786347C8 		.ascii	"xcG\310\035\020\252%\270\205Da\352\230$\214PP\224\302"
 441      1D10AA25 
 441      B8854461 
 441      EA98248C 
 441      505094C2 
 442 0bac 45BFFFF3 		.ascii	"E\277\377\363\243\023\036\255.\362\004\375!_\205 \206"
 442      A3131EAD 
 442      2EF204FD 
 442      215F8520 
 442      86
 443 0bbd 8B1E9E30 		.ascii	"\213\036\2360\001`5\331\234RH\364\005\335P1PF\323}E"
 443      016035D9 
 443      9C5248F4 
ARM GAS  /tmp/ccq8xmTg.s 			page 35


 443      05DD5031 
 443      5046D37D 
 444 0bd2 DEA05F28 		.ascii	"\336\240_(\022\205\260\300\213\036o\221\227\027K\253"
 444      1285B0C0 
 444      8B1E6F91 
 444      97174BAB 
 445 0be2 785128E2 		.ascii	"xQ(\342E\377\250\242r\217g8\024\206\013\376\022\241"
 445      45FFA8A2 
 445      728F6738 
 445      14860BFE 
 445      12A1
 446 0bf4 B454288D 		.ascii	"\264T(\215\277\010\004\003\302p\201/\361\015\037\355"
 446      BF080403 
 446      C270812F 
 446      F10D1FED 
 447 0c04 1E3B7C54 		.ascii	"\036;|T\361\310\321\317\214*2|\210\353\024\226J}\001"
 447      F1C8D1CF 
 447      8C2A327C 
 447      88EB1496 
 447      4A7D01
 448 0c17 89E85409 		.ascii	"\211\350T\011\367{G\271\245Z\374\363\365\356\347=^_"
 448      F77B47B9 
 448      A55AFCF3 
 448      F5EEE73D 
 448      5E5F
 449 0c29 40287297 		.ascii	"@(r\227\012e|e\205\344\326\230\310s\2735y(\245\276\240"
 449      0A657C65 
 449      85E4D698 
 449      C873BB35 
 449      7928A5BE 
 450 0c3e D3130C80 		.ascii	"\323\023\014\200\225\245_\365C\255\327\023\024\005@"
 450      95A55FF5 
 450      43ADD713 
 450      140540
 451 0c4d C827AFDD 		.ascii	"\310'\257\335\200\341\221\252\357\261\322\306=\365~"
 451      80E191AA 
 451      EFB1D2C6 
 451      3DF57E
 452 0c5c 3FE14114 		.ascii	"?\341A\024\312AX\267\304\211\2439\361>N\034\303\211"
 452      CA4158B7 
 452      C489A339 
 452      F13E4E1C 
 452      C389
 453 0c6e F773E258 		.ascii	"\367s\342XN|\300&\216,\2064\222\253\020\341v\257=\344"
 453      4E7CC026 
 453      8E2C8634 
 453      92AB10E1 
 453      76AF3DE4 
 454 0c82 066C2731 		.ascii	"\006l'1|\225 \302=XQ*\2109\036\240\211x\003\357\027"
 454      7C9520C2 
 454      3D58512A 
 454      88391EA0 
 454      897803EF 
 455 0c97 72A5B0C4 		.ascii	"r\245\260\304K\340dN\242\314X\360\027E-(Au\372\315)"
 455      4BE0644E 
 455      A2CC58F0 
 455      17452D28 
ARM GAS  /tmp/ccq8xmTg.s 			page 36


 455      4175FACD 
 456 0cac F983A502 		.ascii	"\371\203\245\002}.\253\340\313\303NI\024\312\302TkR"
 456      7D2EABE0 
 456      CBC34E49 
 456      14CAC254 
 456      6B52
 457 0cbe B0FBC3E5 		.ascii	"\260\373\303\345\360Q\245\002\232k\244\210\245\323\340"
 457      F051A502 
 457      9A6BA488 
 457      A5D3E0
 458 0ccd 53AE50ED 		.ascii	"S\256P\355\223<\000\340\250\222\202%O\205\006\253\216"
 458      933C00E0 
 458      A8928225 
 458      4F8506AB 
 458      8E
 459 0cde 094D0551 		.ascii	"\011M\005Q\010x\000\330^%Ib\310\031\026\002\0224(\000"
 459      087800D8 
 459      5E254962 
 459      C8191602 
 459      12342800 
 460 0cf2 870D0B7E 		.ascii	"\207\015\013~>\344\005\215\323\2155\250D\034R\035\023"
 460      3EE4058D 
 460      D38D35A8 
 460      441C521D 
 460      13
 461 0d03 764F006C 		.ascii	"vO\000lc\017\273\341\016]\301\307\020\334`<\206\362"
 461      630FBBE1 
 461      0E5DC1C7 
 461      10DC603C 
 461      86F2
 462 0d15 85A90499 		.ascii	"\205\251\004\231\017?\015B\011U\244`\013\271+\007hC"
 462      0F3F0D42 
 462      0955A460 
 462      0BB92B07 
 462      6843
 463 0d27 AAC21786 		.ascii	"\252\302\027\206\226\003u\203\214\274q\205\334U\274"
 463      96037583 
 463      8CBC7185 
 463      DC55BC
 464 0d36 4FF205CA 		.ascii	"O\362\005\312\363Bn\020\213v\002E!$\004\300\037\313"
 464      F3426E10 
 464      8B760245 
 464      212404C0 
 464      1FCB
 465 0d48 E13B8093 		.ascii	"\341;\200\223\232y\204\007\276\202z\000\274\014\005"
 465      9A798407 
 465      BE827A00 
 465      BC0C05
 466 0d57 83154EBF 		.ascii	"\203\025N\277\"\024\334\203U\001At\370\351\320\253\271"
 466      2214DC83 
 466      55014174 
 466      F8E9D0AB 
 466      B9
 467 0d68 2A7E5BE1 		.ascii	"*~[\341+!\025\030\377\035=b\354\210\321\3721\004\376"
 467      2B211518 
 467      FF1D3D62 
 467      EC88D1FA 
ARM GAS  /tmp/ccq8xmTg.s 			page 37


 467      3104FE
 468 0d7b 0B7439C2 		.ascii	"\013t9\302\276g\201\362t3\210W\340CP\363\032\277\340"
 468      BE6781F2 
 468      74338857 
 468      E04350F3 
 468      1ABFE0
 469 0d8e 0F8AD3DC 		.ascii	"\017\212\323\334\344\321-\345\353\236\356H7\001\012"
 469      E4D12DE5 
 469      EB9EEE48 
 469      37010A
 470 0d9d 7ED5BB0B 		.ascii	"~\325\273\013\240X.He\225\001\217[\312\363\302\010\011"
 470      A0582E48 
 470      6595018F 
 470      5BCAF3C2 
 470      0809
 471 0daf 4EF581F7 		.ascii	"N\365\201\367\345S@\310\240\234\027\226\236\346+|\345"
 471      E55340C8 
 471      A09C1796 
 471      9EE62B7C 
 471      E5
 472 0dc0 01B74407 		.ascii	"\001\267D\007\367\230\321PUq@R\264\323o9\204\272\034"
 472      F798D150 
 472      55714052 
 472      B4D36F39 
 472      84BA1C
 473 0dd3 D20A57E6 		.ascii	"\322\012W\346\020\361\261\327\341u\227\211\202`\367"
 473      10F1B1D7 
 473      E1759789 
 473      8260F7
 474 0de2 121BDC92 		.ascii	"\022\033\334\222$NX\364hzx`\234\322\016}\001\237\224"
 474      244E58F4 
 474      687A7860 
 474      9CD20E7D 
 474      019F94
 475 0df5 EFF14E00 		.ascii	"\357\361N\000\341~_Q\021\364\300\244:\021\336?V\362"
 475      E17E5F51 
 475      11F4C0A4 
 475      3A11DE3F 
 475      56F2
 476 0e07 94E0911E 		.ascii	"\224\340\221\036\201\217vR-d+\251,\313W>\321jyJ\371"
 476      818F7652 
 476      2D642BA9 
 476      2CCB573E 
 476      D16A794A 
 477 0e1c 21E80D87 		.ascii	"!\350\015\207\012\224\207\3110**\303v\"J\010\334\346"
 477      0A9487C9 
 477      302A2AC3 
 477      76224A08 
 477      DCE6
 478 0e2e 51A93A81 		.ascii	"Q\251:\201\222O\237\237\010@\323\247]\264\374G(\025"
 478      924F9F9F 
 478      0840D3A7 
 478      5DB4FC47 
 478      2815
 479 0e40 689307E9 		.ascii	"h\223\007\351#\327\355\246\244\270\257\321\012#\306"
 479      23D7EDA6 
 479      A4B8AFD1 
ARM GAS  /tmp/ccq8xmTg.s 			page 38


 479      0A23C6
 480 0e4f 8C2E1EA5 		.ascii	"\214.\036\245\177\032\371\300\377\001J.\277\304"
 480      7F1AF9C0 
 480      FF014A2E 
 480      BFC4
 481              		.text
 482              		.section	.gnu.lto_.symtab.f69fbb6bdd7621af,"",%progbits
 483 0000 5F686561 		.ascii	"_heap_init\000\000\000\000\000\000\000\000\000\000\000"
 483      705F696E 
 483      69740000 
 483      00000000 
 483      00000000 
 484 0015 00840100 		.ascii	"\000\204\001\000\000chHeapObjectInit\000\000\000\000"
 484      00636848 
 484      6561704F 
 484      626A6563 
 484      74496E69 
 485 002e 00000000 		.ascii	"\000\000\000\000\000\000\000\000\212\001\000\000chH"
 485      00000000 
 485      8A010000 
 485      636848
 486 003d 65617041 		.ascii	"eapAlloc\000\000\000\000\000\000\000\000\000\000\000"
 486      6C6C6F63 
 486      00000000 
 486      00000000 
 486      000000
 487 0050 00960100 		.ascii	"\000\226\001\000\000chHeapFree\000\000\000\000\000\000"
 487      00636848 
 487      65617046 
 487      72656500 
 487      00000000 
 488 0065 00000000 		.ascii	"\000\000\000\000\000\000\236\001\000\000chHeapStatu"
 488      00009E01 
 488      00006368 
 488      48656170 
 488      53746174 
 489 007a 73000000 		.ascii	"s\000\000\000\000\000\000\000\000\000\000\000\000\245"
 489      00000000 
 489      00000000 
 489      00A5
 490 0088 01000063 		.ascii	"\001\000\000chCoreAlloc\000\000\002\000\000\000\000"
 490      68436F72 
 490      65416C6C 
 490      6F630000 
 490      02000000 
 491 009d 00000000 		.ascii	"\000\000\000\000\000\210\001\000\000chMtxObjectInit"
 491      00880100 
 491      0063684D 
 491      74784F62 
 491      6A656374 
 492 00b5 00000200 		.ascii	"\000\000\002\000\000\000\000\000\000\000\000\000\256"
 492      00000000 
 492      00000000 
 492      AE
 493 00c2 01000063 		.ascii	"\001\000\000chMtxUnlock\000\000\002\000\000\000\000"
 493      684D7478 
 493      556E6C6F 
ARM GAS  /tmp/ccq8xmTg.s 			page 39


 493      636B0000 
 493      02000000 
 494 00d7 00000000 		.ascii	"\000\000\000\000\000\262\001\000\000chMtxLock\000\000"
 494      00B20100 
 494      0063684D 
 494      74784C6F 
 494      636B0000 
 495 00eb 02000000 		.ascii	"\002\000\000\000\000\000\000\000\000\000\264\001\000"
 495      00000000 
 495      0000B401 
 495      00
 496 00f8 00       		.ascii	"\000"
 497              		.text
 498              		.section	.gnu.lto_.opts,"",%progbits
 499 0000 272D6D63 		.ascii	"'-mcpu=cortex-m4' '-mno-thumb-interwork' '-mthumb' "
 499      70753D63 
 499      6F727465 
 499      782D6D34 
 499      2720272D 
 500 0033 272D6767 		.ascii	"'-ggdb' '-O2' '-fomit-frame-pointer' '-falign-funct"
 500      64622720 
 500      272D4F32 
 500      2720272D 
 500      666F6D69 
 501 0066 696F6E73 		.ascii	"ions=16' '-ffunction-sections' '-fdata-sections' '-"
 501      3D313627 
 501      20272D66 
 501      66756E63 
 501      74696F6E 
 502 0099 666E6F2D 		.ascii	"fno-common' '-flto'\000"
 502      636F6D6D 
 502      6F6E2720 
 502      272D666C 
 502      746F2700 
 503              		.text
 504              		.cfi_sections	.debug_frame
 505              		.section	.text._heap_init,"ax",%progbits
 506              		.align	2
 507              		.p2align 4,,15
 508              		.global	_heap_init
 509              		.thumb
 510              		.thumb_func
 511              		.type	_heap_init, %function
 512              	_heap_init:
 513              	.LFB241:
 514              		.file 1 "../ChibiOS/os/rt/src/chheap.c"
 515              		.loc 1 91 0
 516              		.cfi_startproc
 517              		@ args = 0, pretend = 0, frame = 0
 518              		@ frame_needed = 0, uses_anonymous_args = 0
 519              		@ link register save eliminated.
 520              		.loc 1 93 0
 521 0000 044B     		ldr	r3, .L2
 522 0002 054A     		ldr	r2, .L2+4
 523 0004 1A60     		str	r2, [r3]
 524              		.loc 1 97 0
 525 0006 03F11000 		add	r0, r3, #16
ARM GAS  /tmp/ccq8xmTg.s 			page 40


 526              		.loc 1 94 0
 527 000a 0022     		movs	r2, #0
 528 000c 9A60     		str	r2, [r3, #8]
 529              		.loc 1 95 0
 530 000e DA60     		str	r2, [r3, #12]
 531              		.loc 1 97 0
 532 0010 FFF7FEBF 		b	chMtxObjectInit
 533              	.LVL0:
 534              	.L3:
 535              		.align	2
 536              	.L2:
 537 0014 00000000 		.word	.LANCHOR0
 538 0018 00000000 		.word	chCoreAlloc
 539              		.cfi_endproc
 540              	.LFE241:
 541              		.size	_heap_init, .-_heap_init
 542 001c AFF30080 		.section	.text.chHeapObjectInit,"ax",%progbits
 543              		.align	2
 544              		.p2align 4,,15
 545              		.global	chHeapObjectInit
 546              		.thumb
 547              		.thumb_func
 548              		.type	chHeapObjectInit, %function
 549              	chHeapObjectInit:
 550              	.LFB242:
 551              		.loc 1 114 0
 552              		.cfi_startproc
 553              		@ args = 0, pretend = 0, frame = 0
 554              		@ frame_needed = 0, uses_anonymous_args = 0
 555              		@ link register save eliminated.
 556              	.LVL1:
 557              		.loc 1 119 0
 558 0000 0023     		movs	r3, #0
 559              		.loc 1 123 0
 560 0002 083A     		subs	r2, r2, #8
 561              	.LVL2:
 562              		.loc 1 120 0
 563 0004 8160     		str	r1, [r0, #8]
 564              		.loc 1 119 0
 565 0006 0360     		str	r3, [r0]
 566              		.loc 1 121 0
 567 0008 C360     		str	r3, [r0, #12]
 568              		.loc 1 125 0
 569 000a 1030     		adds	r0, r0, #16
 570              	.LVL3:
 571              		.loc 1 123 0
 572 000c 4A60     		str	r2, [r1, #4]
 573              		.loc 1 122 0
 574 000e 0B60     		str	r3, [r1]
 575              		.loc 1 125 0
 576 0010 FFF7FEBF 		b	chMtxObjectInit
 577              	.LVL4:
 578              		.cfi_endproc
 579              	.LFE242:
 580              		.size	chHeapObjectInit, .-chHeapObjectInit
 581 0014 AFF30080 		.section	.text.chHeapAlloc,"ax",%progbits
 581      AFF30080 
ARM GAS  /tmp/ccq8xmTg.s 			page 41


 581      AFF30080 
 582              		.align	2
 583              		.p2align 4,,15
 584              		.global	chHeapAlloc
 585              		.thumb
 586              		.thumb_func
 587              		.type	chHeapAlloc, %function
 588              	chHeapAlloc:
 589              	.LFB243:
 590              		.loc 1 147 0
 591              		.cfi_startproc
 592              		@ args = 0, pretend = 0, frame = 0
 593              		@ frame_needed = 0, uses_anonymous_args = 0
 594              	.LVL5:
 595 0000 F8B5     		push	{r3, r4, r5, r6, r7, lr}
 596              		.cfi_def_cfa_offset 24
 597              		.cfi_offset 3, -24
 598              		.cfi_offset 4, -20
 599              		.cfi_offset 5, -16
 600              		.cfi_offset 6, -12
 601              		.cfi_offset 7, -8
 602              		.cfi_offset 14, -4
 603              		.loc 1 151 0
 604 0002 214E     		ldr	r6, .L21
 605 0004 0028     		cmp	r0, #0
 606 0006 18BF     		it	ne
 607 0008 0646     		movne	r6, r0
 608              	.LVL6:
 609              		.loc 1 157 0
 610 000a 06F11007 		add	r7, r6, #16
 611              		.loc 1 154 0
 612 000e 0731     		adds	r1, r1, #7
 613              	.LVL7:
 614              		.loc 1 157 0
 615 0010 3846     		mov	r0, r7
 616              		.loc 1 154 0
 617 0012 21F00705 		bic	r5, r1, #7
 618              	.LVL8:
 619              		.loc 1 155 0
 620 0016 06F10804 		add	r4, r6, #8
 621              	.LVL9:
 622              		.loc 1 157 0
 623 001a FFF7FEFF 		bl	chMtxLock
 624              	.LVL10:
 625              		.loc 1 158 0
 626 001e 03E0     		b	.L7
 627              	.LVL11:
 628              	.L12:
 629              		.loc 1 160 0
 630 0020 5A68     		ldr	r2, [r3, #4]
 631 0022 9542     		cmp	r5, r2
 632 0024 12D9     		bls	.L20
 633 0026 1C46     		mov	r4, r3
 634              	.LVL12:
 635              	.L7:
 636              		.loc 1 158 0 discriminator 1
 637 0028 2368     		ldr	r3, [r4]
ARM GAS  /tmp/ccq8xmTg.s 			page 42


 638              	.LVL13:
 639 002a 002B     		cmp	r3, #0
 640 002c F8D1     		bne	.L12
 641              		.loc 1 186 0
 642 002e 3846     		mov	r0, r7
 643 0030 FFF7FEFF 		bl	chMtxUnlock
 644              	.LVL14:
 645              		.loc 1 190 0
 646 0034 3368     		ldr	r3, [r6]
 647 0036 2BB3     		cbz	r3, .L14
 648              		.loc 1 191 0
 649 0038 05F10800 		add	r0, r5, #8
 650 003c 9847     		blx	r3
 651              	.LVL15:
 652              		.loc 1 192 0
 653 003e 08B3     		cbz	r0, .L14
 654              		.loc 1 193 0
 655 0040 0660     		str	r6, [r0]
 656              		.loc 1 194 0
 657 0042 4560     		str	r5, [r0, #4]
 658              	.LVL16:
 659              		.loc 1 198 0
 660 0044 00F10804 		add	r4, r0, #8
 661              	.LVL17:
 662              	.L11:
 663              		.loc 1 204 0
 664 0048 2046     		mov	r0, r4
 665 004a F8BD     		pop	{r3, r4, r5, r6, r7, pc}
 666              	.LVL18:
 667              	.L20:
 668              		.loc 1 161 0
 669 004c 05F10801 		add	r1, r5, #8
 670 0050 9142     		cmp	r1, r2
 671 0052 09D9     		bls	.L9
 672              		.loc 1 165 0
 673 0054 1A68     		ldr	r2, [r3]
 674 0056 2260     		str	r2, [r4]
 675              	.L10:
 676              		.loc 1 177 0
 677 0058 1C46     		mov	r4, r3
 678              	.LVL19:
 679              		.loc 1 178 0
 680 005a 3846     		mov	r0, r7
 681              		.loc 1 177 0
 682 005c 44F8086B 		str	r6, [r4], #8
 683              		.loc 1 178 0
 684 0060 FFF7FEFF 		bl	chMtxUnlock
 685              	.LVL20:
 686              		.loc 1 204 0
 687 0064 2046     		mov	r0, r4
 688 0066 F8BD     		pop	{r3, r4, r5, r6, r7, pc}
 689              	.LVL21:
 690              	.L9:
 691              		.loc 1 173 0
 692 0068 6FF00700 		mvn	r0, #7
 693 006c 401B     		subs	r0, r0, r5
 694              		.loc 1 170 0
ARM GAS  /tmp/ccq8xmTg.s 			page 43


 695 006e 03EB010E 		add	lr, r3, r1
 696              	.LVL22:
 697              		.loc 1 173 0
 698 0072 0244     		add	r2, r2, r0
 699              		.loc 1 172 0
 700 0074 1868     		ldr	r0, [r3]
 701 0076 5850     		str	r0, [r3, r1]
 702              		.loc 1 173 0
 703 0078 CEF80420 		str	r2, [lr, #4]
 704              		.loc 1 174 0
 705 007c C4F800E0 		str	lr, [r4]
 706              		.loc 1 175 0
 707 0080 5D60     		str	r5, [r3, #4]
 708 0082 E9E7     		b	.L10
 709              	.LVL23:
 710              	.L14:
 711              		.loc 1 203 0
 712 0084 0024     		movs	r4, #0
 713              	.LVL24:
 714 0086 DFE7     		b	.L11
 715              	.L22:
 716              		.align	2
 717              	.L21:
 718 0088 00000000 		.word	.LANCHOR0
 719              		.cfi_endproc
 720              	.LFE243:
 721              		.size	chHeapAlloc, .-chHeapAlloc
 722 008c AFF30080 		.section	.text.chHeapFree,"ax",%progbits
 723              		.align	2
 724              		.p2align 4,,15
 725              		.global	chHeapFree
 726              		.thumb
 727              		.thumb_func
 728              		.type	chHeapFree, %function
 729              	chHeapFree:
 730              	.LFB244:
 731              		.loc 1 213 0
 732              		.cfi_startproc
 733              		@ args = 0, pretend = 0, frame = 0
 734              		@ frame_needed = 0, uses_anonymous_args = 0
 735              	.LVL25:
 736 0000 F8B5     		push	{r3, r4, r5, r6, r7, lr}
 737              		.cfi_def_cfa_offset 24
 738              		.cfi_offset 3, -24
 739              		.cfi_offset 4, -20
 740              		.cfi_offset 5, -16
 741              		.cfi_offset 6, -12
 742              		.cfi_offset 7, -8
 743              		.cfi_offset 14, -4
 744              		.loc 1 222 0
 745 0002 50F8085C 		ldr	r5, [r0, #-8]
 746              		.loc 1 225 0
 747 0006 05F11007 		add	r7, r5, #16
 748              		.loc 1 213 0
 749 000a 0646     		mov	r6, r0
 750              		.loc 1 220 0
 751 000c A0F10804 		sub	r4, r0, #8
ARM GAS  /tmp/ccq8xmTg.s 			page 44


 752              	.LVL26:
 753              		.loc 1 223 0
 754 0010 0835     		adds	r5, r5, #8
 755              	.LVL27:
 756              		.loc 1 225 0
 757 0012 3846     		mov	r0, r7
 758              	.LVL28:
 759 0014 FFF7FEFF 		bl	chMtxLock
 760              	.LVL29:
 761              		.loc 1 223 0
 762 0018 2B46     		mov	r3, r5
 763              	.LVL30:
 764              	.L30:
 765              		.loc 1 229 0
 766 001a AB42     		cmp	r3, r5
 767 001c 04D0     		beq	.L24
 768              	.L35:
 769              		.loc 1 229 0 is_stmt 0 discriminator 2
 770 001e A342     		cmp	r3, r4
 771 0020 02D3     		bcc	.L24
 772 0022 1B68     		ldr	r3, [r3]
 773              	.LVL31:
 774              		.loc 1 229 0
 775 0024 AB42     		cmp	r3, r5
 776 0026 FAD1     		bne	.L35
 777              	.L24:
 778              		.loc 1 230 0 is_stmt 1 discriminator 1
 779 0028 1A68     		ldr	r2, [r3]
 780              		.loc 1 229 0 discriminator 1
 781 002a 1AB1     		cbz	r2, .L26
 782              		.loc 1 230 0
 783 002c 9442     		cmp	r4, r2
 784 002e 01D3     		bcc	.L26
 785 0030 1346     		mov	r3, r2
 786              	.LVL32:
 787              		.loc 1 248 0
 788 0032 F2E7     		b	.L30
 789              	.LVL33:
 790              	.L26:
 791              		.loc 1 235 0
 792 0034 56F8041C 		ldr	r1, [r6, #-4]
 793              		.loc 1 232 0
 794 0038 46F8082C 		str	r2, [r6, #-8]
 795              		.loc 1 233 0
 796 003c 1C60     		str	r4, [r3]
 797              		.loc 1 235 0
 798 003e 01F10802 		add	r2, r1, #8
 799 0042 56F8085C 		ldr	r5, [r6, #-8]
 800              	.LVL34:
 801 0046 A018     		adds	r0, r4, r2
 802 0048 A842     		cmp	r0, r5
 803 004a 0AD0     		beq	.L36
 804              		.loc 1 240 0
 805 004c 5A68     		ldr	r2, [r3, #4]
 806 004e 02F10801 		add	r1, r2, #8
 807 0052 1944     		add	r1, r1, r3
 808 0054 8C42     		cmp	r4, r1
ARM GAS  /tmp/ccq8xmTg.s 			page 45


 809 0056 12D0     		beq	.L37
 810              	.L29:
 811              		.loc 1 249 0
 812 0058 3846     		mov	r0, r7
 813              		.loc 1 252 0
 814 005a BDE8F840 		pop	{r3, r4, r5, r6, r7, lr}
 815              	.LVL35:
 816              		.loc 1 249 0
 817 005e FFF7FEBF 		b	chMtxUnlock
 818              	.LVL36:
 819              	.L36:
 820              		.loc 1 237 0
 821 0062 4068     		ldr	r0, [r0, #4]
 822              		.loc 1 238 0
 823 0064 A258     		ldr	r2, [r4, r2]
 824 0066 46F8082C 		str	r2, [r6, #-8]
 825              		.loc 1 237 0
 826 006a 0A18     		adds	r2, r1, r0
 827 006c 0832     		adds	r2, r2, #8
 828 006e 46F8042C 		str	r2, [r6, #-4]
 829              		.loc 1 240 0
 830 0072 5A68     		ldr	r2, [r3, #4]
 831 0074 02F10801 		add	r1, r2, #8
 832 0078 1944     		add	r1, r1, r3
 833 007a 8C42     		cmp	r4, r1
 834 007c ECD1     		bne	.L29
 835              	.L37:
 836              		.loc 1 242 0
 837 007e 56F8040C 		ldr	r0, [r6, #-4]
 838              		.loc 1 243 0
 839 0082 56F8081C 		ldr	r1, [r6, #-8]
 840 0086 1960     		str	r1, [r3]
 841              		.loc 1 242 0
 842 0088 0244     		add	r2, r2, r0
 843 008a 0832     		adds	r2, r2, #8
 844 008c 5A60     		str	r2, [r3, #4]
 845              		.loc 1 249 0
 846 008e 3846     		mov	r0, r7
 847              		.loc 1 252 0
 848 0090 BDE8F840 		pop	{r3, r4, r5, r6, r7, lr}
 849              	.LVL37:
 850              		.loc 1 249 0
 851 0094 FFF7FEBF 		b	chMtxUnlock
 852              	.LVL38:
 853              		.cfi_endproc
 854              	.LFE244:
 855              		.size	chHeapFree, .-chHeapFree
 856 0098 AFF30080 		.section	.text.chHeapStatus,"ax",%progbits
 856      AFF30080 
 857              		.align	2
 858              		.p2align 4,,15
 859              		.global	chHeapStatus
 860              		.thumb
 861              		.thumb_func
 862              		.type	chHeapStatus, %function
 863              	chHeapStatus:
 864              	.LFB245:
ARM GAS  /tmp/ccq8xmTg.s 			page 46


 865              		.loc 1 267 0
 866              		.cfi_startproc
 867              		@ args = 0, pretend = 0, frame = 0
 868              		@ frame_needed = 0, uses_anonymous_args = 0
 869              	.LVL39:
 870 0000 F8B5     		push	{r3, r4, r5, r6, r7, lr}
 871              		.cfi_def_cfa_offset 24
 872              		.cfi_offset 3, -24
 873              		.cfi_offset 4, -20
 874              		.cfi_offset 5, -16
 875              		.cfi_offset 6, -12
 876              		.cfi_offset 7, -8
 877              		.cfi_offset 14, -4
 878              		.loc 1 272 0
 879 0002 0E4C     		ldr	r4, .L51
 880 0004 0028     		cmp	r0, #0
 881 0006 18BF     		it	ne
 882 0008 0446     		movne	r4, r0
 883              	.LVL40:
 884              		.loc 1 275 0
 885 000a 04F11006 		add	r6, r4, #16
 886 000e 3046     		mov	r0, r6
 887              		.loc 1 267 0
 888 0010 0F46     		mov	r7, r1
 889              		.loc 1 275 0
 890 0012 FFF7FEFF 		bl	chMtxLock
 891              	.LVL41:
 892              		.loc 1 279 0
 893 0016 A368     		ldr	r3, [r4, #8]
 894 0018 6BB1     		cbz	r3, .L44
 895              		.loc 1 276 0
 896 001a 0022     		movs	r2, #0
 897              		.loc 1 277 0
 898 001c 1446     		mov	r4, r2
 899              	.LVL42:
 900              	.L41:
 901              		.loc 1 279 0
 902 001e 28CB     		ldmia	r3, {r3, r5}
 903              		.loc 1 281 0
 904 0020 0134     		adds	r4, r4, #1
 905              	.LVL43:
 906              		.loc 1 280 0
 907 0022 2A44     		add	r2, r2, r5
 908              	.LVL44:
 909              		.loc 1 279 0
 910 0024 002B     		cmp	r3, #0
 911 0026 FAD1     		bne	.L41
 912              	.LVL45:
 913              	.L40:
 914              		.loc 1 284 0
 915 0028 07B1     		cbz	r7, .L42
 916              		.loc 1 285 0
 917 002a 3A60     		str	r2, [r7]
 918              	.L42:
 919              		.loc 1 287 0
 920 002c 3046     		mov	r0, r6
 921 002e FFF7FEFF 		bl	chMtxUnlock
ARM GAS  /tmp/ccq8xmTg.s 			page 47


 922              	.LVL46:
 923              		.loc 1 290 0
 924 0032 2046     		mov	r0, r4
 925 0034 F8BD     		pop	{r3, r4, r5, r6, r7, pc}
 926              	.LVL47:
 927              	.L44:
 928              		.loc 1 276 0
 929 0036 1A46     		mov	r2, r3
 930              		.loc 1 277 0
 931 0038 1C46     		mov	r4, r3
 932              	.LVL48:
 933 003a F5E7     		b	.L40
 934              	.L52:
 935              		.align	2
 936              	.L51:
 937 003c 00000000 		.word	.LANCHOR0
 938              		.cfi_endproc
 939              	.LFE245:
 940              		.size	chHeapStatus, .-chHeapStatus
 941              		.section	.bss.default_heap,"aw",%nobits
 942              		.align	3
 943              		.set	.LANCHOR0,. + 0
 944              		.type	default_heap, %object
 945              		.size	default_heap, 32
 946              	default_heap:
 947 0000 00000000 		.space	32
 947      00000000 
 947      00000000 
 947      00000000 
 947      00000000 
 948              		.text
 949              	.Letext0:
 950              		.file 2 "/nfs/nfs5/home/research/hardware/arm2/gcc-arm-embedded/gcc-arm-none-eabi-4_8-2014q2/lib/g
 951              		.file 3 "/nfs/nfs5/home/research/hardware/arm2/gcc-arm-embedded/gcc-arm-none-eabi-4_8-2014q2/arm-n
 952              		.file 4 "/nfs/nfs5/home/research/hardware/arm2/gcc-arm-embedded/gcc-arm-none-eabi-4_8-2014q2/arm-n
 953              		.file 5 "../ChibiOS/os/rt/ports/ARMCMx/compilers/GCC/chtypes.h"
 954              		.file 6 "../ChibiOS/os/rt/include/chsystypes.h"
 955              		.file 7 "../ChibiOS/os/rt/include/chschd.h"
 956              		.file 8 "../ChibiOS/os/rt/ports/ARMCMx/chcore.h"
 957              		.file 9 "../ChibiOS/os/rt/ports/ARMCMx/chcore_v7m.h"
 958              		.file 10 "../ChibiOS/os/rt/include/chtm.h"
 959              		.file 11 "../ChibiOS/os/rt/include/chsem.h"
 960              		.file 12 "../ChibiOS/os/rt/include/chmtx.h"
 961              		.file 13 "../ChibiOS/os/rt/include/chmemcore.h"
 962              		.file 14 "../ChibiOS/os/rt/include/chheap.h"
 963              		.file 15 "../ChibiOS/os/ext/CMSIS/include/core_cm4.h"