ARM GAS  /tmp/ccBNwNOj.s 			page 1


   1              		.syntax unified
   2              		.cpu cortex-m4
   3              		.fpu softvfp
   4              		.eabi_attribute 20, 1
   5              		.eabi_attribute 21, 1
   6              		.eabi_attribute 23, 3
   7              		.eabi_attribute 24, 1
   8              		.eabi_attribute 25, 1
   9              		.eabi_attribute 26, 1
  10              		.eabi_attribute 30, 2
  11              		.eabi_attribute 34, 1
  12              		.eabi_attribute 18, 4
  13              		.thumb
  14              		.file	"pal_lld.c"
  15              		.text
  16              	.Ltext0:
  17              		.section	.gnu.lto_.jmpfuncs.af3655d2e6290c95,"",%progbits
  18 0000 789C6362 		.ascii	"x\234cb`b\300\006\330\2404\023\003##;\003\000\001/\000"
  18      6062C006 
  18      D8A03413 
  18      0323233B 
  18      0300012F 
  19 0015 16       		.ascii	"\026"
  20              		.text
  21              		.section	.gnu.lto_.inline.af3655d2e6290c95,"",%progbits
  22 0000 789C6362 		.ascii	"x\234cb`b\300\006v@i\240\354-\206\233\014\214\354\014"
  22      6062C006 
  22      764069A0 
  22      EC2D869B 
  22      0C8CEC0C 
  23 0014 8C0C0CCC 		.ascii	"\214\014\014\314\012`\322\001L&\200\311\006F0\265\000"
  23      0A60D201 
  23      4C2680C9 
  23      064630B5 
  23      00
  24 0025 421D8050 		.ascii	"B\035\200P\014\002\265'.\2603h\336\330\300\304\304\300"
  24      0C02B527 
  24      2EB03368 
  24      DED8C0C4 
  24      C4C0
  25 0037 F8829D05 		.ascii	"\370\202\235\005B\202\010\0160\223\003D\010\200\231"
  25      4282080E 
  25      30930344 
  25      088099
  26 0046 02204201 		.ascii	"\002 B\001\314T\000\021\016`\246\003\210h`d\202P`\022"
  26      CC540011 
  26      0E60A603 
  26      88686064 
  26      82506012 
  27 005a 625403D8 		.ascii	"bT\003\330\271\214\0146\233\230\030\031\231\200\226"
  27      B98C0C36 
  27      9B981819 
  27      998096
  28 0069 313087B4 		.ascii	"10\207\264\234W`\020\232s\221\231\211A\350B\017#\013"
  28      9C576010 
  28      9A739199 
  28      8941E842 
ARM GAS  /tmp/ccBNwNOj.s 			page 2


  28      0F230B
  29 007c D8DD0081 		.ascii	"\330\335\000\201\275\036\375"
  29      BD1EFD
  30              		.text
  31              		.section	.gnu.lto_.pureconst.af3655d2e6290c95,"",%progbits
  32 0000 789C6362 		.ascii	"x\234cb`b`e\200\000&\006)F)\000\001\006\000A"
  32      60626065 
  32      80002606 
  32      29462900 
  32      01060041 
  33              		.text
  34              		.section	.gnu.lto__pal_lld_init.af3655d2e6290c95,"",%progbits
  35 0000 789CB5D9 		.ascii	"x\234\265\331Kh\\U\030\300\361s\356\235{\347\375\310"
  35      4B685C55 
  35      18C0F173 
  35      EE9D7BE7 
  35      FDC8
  36 0012 FBFD68DE 		.ascii	"\373\375h\336\317\271yJ\027\256T\220B\245B#\324\225"
  36      CFB9794A 
  36      17AE5490 
  36      42A54223 
  36      D495
  37 0024 4E234E07 		.ascii	"N#N\007\0223Xu\343\242wj\221,\012\016\305G\320\205)"
  37      12335875 
  37      E3A2776A 
  37      912C0A0E 
  37      C547D085 
  38 0039 6E62D474 		.ascii	"nb\324ti\323nB\027B\221\304dW\322\026\202]\250\024J"
  38      69D36E42 
  38      174291C4 
  38      6457D216 
  38      825DA814 
  39 004e 6BBA68A5 		.ascii	"k\272h\2450\336\357~\223\334o\312\2359Sr2\320o\3564"
  39      30DEEF7E 
  39      93DC6FCA 
  39      9D395372 
  39      32D06FEE 
  40 0063 9993DFDC 		.ascii	"\231\223\337\334s\362\337Da\012{\376\321`\375\253ne"
  40      73F2DF44 
  40      610A7BFE 
  40      D160FDAB 
  40      6E65
  41 0075 EC15EB99 		.ascii	"\354\025\353\231\253\214+\331\015\3062>\205s\270`\234"
  41      AB8C2BD9 
  41      0DC6323E 
  41      8573B860 
  41      9C
  42 0086 9D53F8B9 		.ascii	"\235S\370\271\267\271\375\275W\224\265\235\\n\345\341"
  42      B7B9FDBD 
  42      5794B59D 
  42      5C6EE5E1 
  43 0096 6F2B17F9 		.ascii	"o+\027\371\262\362\256\302R\234\25104>\313Y\010\256"
  43      B2F2AEC2 
  43      529CA930 
  43      343ECB59 
  43      08AE
  44 00a8 C2302230 		.ascii	"\3020\"0\2420b0*`T\302\250\202Q\015\243\006F-\214:\030"
ARM GAS  /tmp/ccBNwNOj.s 			page 3


  44      A2306230 
  44      2A6054C2 
  44      A882510D 
  44      A306462D 
  45 00bf F5301A60 		.ascii	"\3650\032`4\302h\202\321\014\243\005F+\2146\030\355"
  45      34C26882 
  45      D10CA305 
  45      462B8C36 
  45      18ED
  46 00d1 308EC0E8 		.ascii	"0\216\300\350\200\321\011\243\013F7\214\036\030\275"
  46      80D109A3 
  46      0B46378C 
  46      1E18BD
  47 00e0 30FA60F4 		.ascii	"0\372`\364\303\030\2001\010c\010\3060\2148\014\003\306"
  47      C3188031 
  47      086308C6 
  47      308C380C 
  47      03C6
  48 00f2 088C5118 		.ascii	"\010\214Q\030c0\306aL\300\230\204a=4v\3014\263\355\214"
  48      6330C661 
  48      4CC09884 
  48      613D3476 
  48      C134B3ED 
  49 0107 4DDB2FA7 		.ascii	"M\333/\247\254\011\367\345-\256\300\263\272\316nl\337"
  49      AC09F7E5 
  49      2DAEC0B3 
  49      BACE6E6C 
  49      DF
  50 0118 DAAD4FF0 		.ascii	"\332\255O\360\313\\cI\256\014\262e\363B&\226\342\374"
  50      CB5C6349 
  50      AE0CB265 
  50      F3422696 
  50      E2FC
  51 012a 3BF62D4F 		.ascii	";\366-Oq\345\2245Tsq\336\3640\373\322\276\217\247\371"
  51      71E59435 
  51      547371DE 
  51      F430FBD2 
  51      BE8FA7F9 
  52 013e DEDD5F67 		.ascii	"\336\335_g\237\255\252{\357V\223\370\375\3144\237\250"
  52      9FADAA7B 
  52      EF5693F8 
  52      FDCC349F 
  52      A8
  53 014f F6176F1C 		.ascii	"\366\027o\034\303\257\275\330\262Ix}\223\235\337\371"
  53      C3AFBDD8 
  53      B249787D 
  53      939DDFF9 
  54 015f FB9E8EEF 		.ascii	"\373\236\216\357\237\345\374S\366\237i-\340\201\245"
  54      9FE5FC53 
  54      F69F692D 
  54      E081A5
  55 016e B2A6F971 		.ascii	"\262\246\371q\212k\270\226\236\344\032\254\341\315\257"
  55      8A6BB896 
  55      9EE41AAC 
  55      E1CDAF
  56 017d 818BE0FB 		.ascii	"\201\213\340\373\230\275\316Z\023\276\352`\227M\363"
  56      98BDCE5A 
ARM GAS  /tmp/ccBNwNOj.s 			page 4


  56      13BEEA60 
  56      974DF3
  57 018c D2DAA3CF 		.ascii	"\322\332\243\317\177\347\346%3\3630\227\213\246\270"
  57      7FE7E625 
  57      33F33097 
  57      8BA6B8
  58 019b 4F612F71 		.ascii	"Oa/q\270;\260\206\277\335~\012x\012\317\030\374\237"
  58      B83BB086 
  58      BFDD7E0A 
  58      780ACF18 
  58      FC9F
  59 01ad CF34CD35 		.ascii	"\3174\3155\017{\016\346\272\244Ga/\213\226\234\005\347"
  59      0F7B0EE6 
  59      BAA44761 
  59      2F8B969C 
  59      05E7
  60 01bf 3A3BBFFD 		.ascii	":;\277\375\344\373\226\375=\302\013\363\207/,\360O\274"
  60      E4FB96FD 
  60      3DC20BF3 
  60      872F2CF0 
  60      4FBC
  61 01d1 C3FA103F 		.ascii	"\303\372\020?Zs\357\303L\343GK\362\020\336\203\265\334"
  61      5A73EFC3 
  61      4CE3474B 
  61      F210DE83 
  61      B5DC
  62 01e3 3FD6C241 		.ascii	"?\326\302A\353.dL\2705\241\374\215\360\344o\204\002"
  62      EB2E644C 
  62      B835A1FC 
  62      8DF0E46F 
  62      8402
  63 01f5 6F5CC1BB 		.ascii	"o\\\301\273`m\305\315\315@\202\377\262\277\031\346("
  63      606DC5CD 
  63      CD4082FF 
  63      B2BF19E6 
  63      28
  64 0206 EE46260B 		.ascii	"\356F&\013\357\015\223\217h_\346\327P\367\327\260~,"
  64      EF0D938F 
  64      685FE6D7 
  64      50F7D7B0 
  64      7E2C
  65 0218 8217FEDC 		.ascii	"\202\027\376\334Tq\241$\017\303Z\261R\010\217\004\204"
  65      5471A124 
  65      0FC35AB1 
  65      52088F04 
  65      84
  66 0229 46106144 		.ascii	"F\020aD\\%\210\210\020\241K@x\011\"\202\210[\004\021"
  66      5C258888 
  66      10A14B40 
  66      78092282 
  66      885B0411 
  67 023d 15227C12 		.ascii	"\025\"|\022\020~\202\210\346\317\017A\304\204\210\200"
  67      107E8288 
  67      E6CF0F41 
  67      C4848880 
  68 024d 04449020 		.ascii	"\004D\220 b\3713q\317AT\010\021!\011\2100AT\344\317"
  68      62F93371 
ARM GAS  /tmp/ccBNwNOj.s 			page 5


  68      CF415408 
  68      11210988 
  68      304154E4 
  69 0262 0441540A 		.ascii	"\004AT\012\021\021\011\210(ATb\031\356;\311R\312NV\354"
  69      11110988 
  69      28415462 
  69      19EE3BC9 
  69      52CA4E56 
  70 0277 059395E0 		.ascii	"\005\223\225\340\313\326ow9\315\232w\232u\277t\263\022"
  70      CBD66F77 
  70      39CD9A77 
  70      9A75BF74 
  70      B312
  71 0289 FC67E19A 		.ascii	"\374g\341\232\263\320\224\"\321\272\002\321\372\303"
  71      B3D09422 
  71      D1BA02D1 
  71      FAC3
  72 0297 8ED6865B 		.ascii	"\216\326\206[\264\252\004\321j&\321\332*\334\226\315"
  72      B4AA04D1 
  72      6A26D1DA 
  72      2ADC96CD 
  73 02a7 D2DB32EF 		.ascii	"\322\3332\357\032\255-\334\226*\032\255M\373lT\027?"
  73      1AAD2DDC 
  73      962A1AAD 
  73      4DFB6C54 
  73      173F
  74 02b9 1BCD245A 		.ascii	"\033\315$Z\007Dh\004QM\243\205\210\032!B\227\200\360"
  74      07446804 
  74      514DA385 
  74      881A2142 
  74      9780F0
  75 02cc 12440D8D 		.ascii	"\022D\015\215\026\"j\205\010\237\004\204\237 ji\264"
  75      16226A85 
  75      089F0484 
  75      9F206A69 
  75      B4
  76 02dd 10512744 		.ascii	"\020Q'D\004$ \202\004QG\243\205\210z!\"$\001\021&\210"
  76      04242082 
  76      045147A3 
  76      85887A21 
  76      22240111 
  77 02f3 7A1A2D44 		.ascii	"z\032-D4\010\021\021\011\210(A4`\032\0368\321R\313\216"
  77      34081111 
  77      09882841 
  77      34601A1E 
  77      38D152CB 
  78 0308 56C5A145 		.ascii	"V\305\241E+\353D\353\201\214h\251E\243u\035\242\365"
  78      2BEB44EB 
  78      818C68A9 
  78      45A3751D 
  78      A2F5
  79 031a AF1DAD47 		.ascii	"\257\035\255Gn\321j\024D\353(\211\326\343\302m\331-"
  79      6ED16A14 
  79      44EB2889 
  79      D6E3C26D 
  79      D92D
  80 032c BD2D59D7 		.ascii	"\275-Y\327h=\306mi\244\321\332\265\317FS\361\263q\224"
ARM GAS  /tmp/ccBNwNOj.s 			page 6


  80      683DC66D 
  80      69A4D1DA 
  80      B5CF4653 
  80      F1B37194 
  81 0340 44EB8008 		.ascii	"D\353\200\010\215 \232h\264\020\321,D\350\022\020^\202"
  81      8D209A68 
  81      B410D12C 
  81      44E81210 
  81      5E82
  82 0352 68A6D142 		.ascii	"h\246\321BD\213\020\341\223\200\360\023D\013\215\026"
  82      448B10E1 
  82      9380F013 
  82      440B8D16 
  83 0362 225A8588 		.ascii	"\"Z\205\210\200\004D\220 Zi\264\020\321&D\204$ \302"
  83      80044490 
  83      205A69B4 
  83      10D12644 
  83      842420C2 
  84 0376 04D146A3 		.ascii	"\004\321F\243\205\210v!\"\"\001\021%\210vL\303S'Z\236"
  84      85887621 
  84      22220111 
  84      2588764C 
  84      C353275A 
  85 038b B2A35579 		.ascii	"\262\243Uyh\321Zp\242\365TF\264<E\243\365\027D\353+"
  85      68D15A70 
  85      A2F55446 
  85      B43C45A3 
  85      F51744EB 
  86 03a0 05A2F5A5 		.ascii	"\005\242\365\245\342\022\255#\202hM\221h}\243\024l\313"
  86      E212AD23 
  86      82684D91 
  86      687DA314 
  86      6CCB
  87 03b2 D74AC96D 		.ascii	"\327J\311mYp\215\226\275\206\365ci\264`\241$\357(~6"
  87      59708D96 
  87      BD86F563 
  87      69B460A1 
  87      24EF287E 
  88 03c7 A648B40E 		.ascii	"\246H\264\016\210\320\010\242\203F\013\021\235B\204"
  88      88D008A2 
  88      83460B11 
  88      9D4284
  89 03d6 2E01E125 		.ascii	".\001\341%\210N\032-Dt\011\021>\011\010?At\321h!\242"
  89      884E1A2D 
  89      44740911 
  89      3E09083F 
  89      4174D168 
  90 03ec 5B880848 		.ascii	"[\210\010H@\004\011\242\233F\013\021=BDH\002\"L\020"
  90      400409A2 
  90      9B460B11 
  90      3D424448 
  90      02224C10 
  91 0400 3D345A88 		.ascii	"=4Z\210\350\025\"\"\022\020Q\202\350\3054<s\242\245"
  91      E8152222 
  91      12105182 
  91      E8C5343C 
  91      73A2A5
ARM GAS  /tmp/ccBNwNOj.s 			page 7


  92 0413 951DADAA 		.ascii	"\225\035\255\252C\213\326\242\023\255g2\242\245\025"
  92      438BD6A2 
  92      13AD6732 
  92      A2A515
  93 0422 8DD62E44 		.ascii	"\215\326.D\353\252\035\255_\335\242\325'\210V\232D\353"
  93      EBAA1DAD 
  93      5FDDA2D5 
  93      2788569A 
  93      44EB
  94 0434 5AE1B6AC 		.ascii	"Z\341\266\254\226\336\226E\327h]\303m\351\243\321Z\265"
  94      96DE9645 
  94      D7685DC3 
  94      6DE9A3D1 
  94      5AB5
  95 0446 CF467FF1 		.ascii	"\317F\177\361\263\221&\321: B#\210~\032-D\014\010\021"
  95      B39126D1 
  95      3A204223 
  95      887E1A2D 
  95      440C0811 
  96 045a BA048497 		.ascii	"\272\004\204\227 \006h\264\0201(D\370$ \374\0041H\243"
  96      200668B4 
  96      10312844 
  96      F82420FC 
  96      043148A3 
  97 046e 85882121 		.ascii	"\205\210!!\" \001\021$\210!\032-D\014\013\021!\011\210"
  97      22200111 
  97      2488211A 
  97      2D440C0B 
  97      11210988 
  98 0482 30410CD3 		.ascii	"0A\014\323h!\".DD$ \242\004\021\3074\344\234h\351eG"
  98      6821222E 
  98      44442420 
  98      A20411C7 
  98      34E49C68 
  99 0499 ABFAD0A2 		.ascii	"\253\372\320\242\265\344D+'#Zz\321h\345 Z\267\355hm"
  99      B5E4442B 
  99      27235A7A 
  99      D168E520 
  99      5AB7ED68 
 100 04ae BB45CB10 		.ascii	"\273E\313\020D\353\"'\325\272[\270/wJ\357\313\222k\265"
 100      44EB2227 
 100      D5BA5BB8 
 100      2F774AEF 
 100      CB926BB5 
 101 04c2 EEE2BE18 		.ascii	"\356\342\276\030\264Zw\354\3031R\374p\354)<\022\024"
 101      B45A77EC 
 101      C33152FC 
 101      70EC293C 
 101      1214
 102 04d4 1A518CD0 		.ascii	"\032Q\214\320l\241bT\254\320%(\274D1J\273\205\2121\261"
 102      6CA16254 
 102      ACD02528 
 102      BC44314A 
 102      BB858A31 
 103 04e9 C22741E1 		.ascii	"\302'A\341'\2121\032.T\214\213\025\001\011\212 Q\214"
 103      278A311A 
 103      2E548C8B 
ARM GAS  /tmp/ccBNwNOj.s 			page 8


 103      1501098A 
 103      20518C
 104 04fc D372A162 		.ascii	"\323r\241bB\254\010IP\204\211b\202\246\013\025\223b"
 104      42AC0849 
 104      50848962 
 104      82A60B15 
 104      9362
 105 050e 45448222 		.ascii	"ED\202\"J\024\223\214m\261\314\316R\367~\202\354\307"
 105      4A14938C 
 105      6DB1CCCE 
 105      52F77E82 
 105      ECC7
 106 0520 94F5BB9B 		.ascii	"\224\365\273\233\335\260\377\216<\036\217\033\257\236"
 106      DDB0FF8E 
 106      3C1E8F1B 
 106      AF9E
 107 052e 499D4E9D 		.ascii	"I\235N\2358i\314\2355\316$f\214\364\334\207\037\235"
 107      3869CC9D 
 107      35CE2466 
 107      8CF4DC87 
 107      1F9D
 108 0540 354E4EBD 		.ascii	"5NN\2751>f\034?\376\232\361\372\233\307N|2f\244\023"
 108      313E661C 
 108      3FFE9AF1 
 108      FA9BC74E 
 108      7C3266A4 
 109 0555 33EFCCCC 		.ascii	"3\357\314\314\274\027\237fZ2\235\232K\353\323s\037\274"
 109      BC179F66 
 109      5A329D9A 
 109      4BEBD373 
 109      1FBC
 110 0567 9F4AFE0F 		.ascii	"\237J\376\017M\3351\002"
 110      4DDD3102 
 111              		.text
 112              		.section	.gnu.lto__pal_lld_setgroupmode.af3655d2e6290c95,"",%progbits
 113 0000 789C9557 		.ascii	"x\234\225WkhTG\024\236\231\273w_\211F\215h\022\243\306"
 113      6B685447 
 113      149E99BB 
 113      775F8946 
 113      8D6812A3 
 114 0015 F77BD724 		.ascii	"\367{\327$j\320\030C\236V\260\330\242R\205\202F\023"
 114      6AD01843 
 114      9E56B0D8 
 114      A2528582 
 114      4613
 115 0027 D6B41BB2 		.ascii	"\326\264\033\262\335\244\005\373\307\215\273?B#%\024"
 115      DDA405FB 
 115      C78DBB3F 
 115      42232514 
 116 0037 9BB53694 		.ascii	"\233\2656\224\330\"\242\326F\033l\254J\032E\250\322"
 116      D822A2D6 
 116      461B6CAC 
 116      4A1A45A8 
 116      D2
 117 0048 0714FCE1 		.ascii	"\007\024\374\341\332\037ZA\373\303 Xh-\324v{\316\231"
 117      DA1F5A41 
 117      FBC32058 
ARM GAS  /tmp/ccBNwNOj.s 			page 9


 117      682DD476 
 117      7BCE99
 118 005b 99BB8F04 		.ascii	"\231\273\217\004v\263\2203w\3169\337w\317|\363\272\021"
 118      76B39033 
 118      77CE39DF 
 118      77CF7CF3 
 118      BA11
 119 006d 4CB0F4DF 		.ascii	"L\260\364\337a\370\253\232\312\330;\320\362\034\306"
 119      61F8AB9A 
 119      CAD83BD0 
 119      F21CC6
 120 007c 45EFCF8C 		.ascii	"E\357\317\214u9\0057\344\203!l\335\313X\310\355D\233"
 120      75390537 
 120      E483216C 
 120      DDCB58C8 
 120      ED449B
 121 008f 6B1326F5 		.ascii	"k\023&\365\354\3243\271C&\331\365\203\203;\345\203S"
 121      ECD433B9 
 121      4326D9F5 
 121      83833BE5 
 121      8353
 122 00a1 B8230E48 		.ascii	"\270#\016Ht\035\373\236A\246K\322\335p\2729\307\007"
 122      741DFB9E 
 122      41A64BD2 
 122      DD70BA39 
 122      C707
 123 00b3 C6D91161 		.ascii	"\306\331\021a\330L\273\303\351r\363#{9\226\222\263\220"
 123      D84CBBC3 
 123      E972F323 
 123      7B399692 
 123      B390
 124 00c5 9D0A857A 		.ascii	"\235\012\205z\037>\276\372\234\177r|42\020z\031\217"
 124      1F3EBEFA 
 124      9C7F727C 
 124      3432107A 
 124      198F
 125 00d7 73DECAA1 		.ascii	"s\336\312\241\354\015\234\035\344l\017tx\0115\302\226"
 125      EC0D9C1D 
 125      E46C0F74 
 125      780935C2 
 125      96
 126 00e8 3A0EC27E 		.ascii	":\016\302~4\032\355\371\26004p\2647\364\037@[\271!\330"
 126      341AEDF9 
 126      B0303470 
 126      B437F41F 
 126      405BB921 
 127 00fd E62C9127 		.ascii	"\346,\221'~\310\355\355\352\016\305\343G\010V\233%\354"
 127      7EC8EDED 
 127      EA0EC5E3 
 127      4708569B 
 127      25EC
 128 010f 642A6C5B 		.ascii	"d*l[\226\260\376T\330\353Y\302>K\205\275\221%\354b*"
 128      96B0FE54 
 128      D8EB59C2 
 128      3E4B85BD 
 128      9125EC62 
 129 0124 ECCD2C61 		.ascii	"\354\315,a\303=\307\323\304\334\237\0352\364g\363\355"
ARM GAS  /tmp/ccBNwNOj.s 			page 10


 129      C33DC7D3 
 129      C4DC9F1D 
 129      32F467F3 
 129      ED
 130 0135 5064341E 		.ascii	"Pd4\036\257&Tk\226\250\177SP\376,Q\037\267$\243\332"
 130      AF26546B 
 130      96A87F53 
 130      50FE2C51 
 130      1FB724A3 
 131 014a 33A106C5 		.ascii	"3\241\006\305\350\303x\274?6\366\250\207\347o\345\254"
 131      E8C378BC 
 131      3F36F6A8 
 131      87E76FE5 
 131      AC
 132 015b 0D975713 		.ascii	"\015\227W\023\377\202/d\006\264\247\241\265A{\006Z\023"
 132      FF822F64 
 132      06B4A7A1 
 132      B5417B06 
 132      5A13
 133 016d DAB3D0DA 		.ascii	"\332\263\320\332\241\275\000\255\233\267q\330#29\027"
 133      A1BD00AD 
 133      9BB771D8 
 133      23323917 
 134 017d 86659BA2 		.ascii	"\206e\233\242\020S\261\223\247`\323\2603]ag`'\037:\347"
 134      1053B193 
 134      A760D3B0 
 134      335D6167 
 134      60271F3A 
 135 0192 A1331308 		.ascii	"\2413\023\010\330,\364\314FS\200\246\020\345)\202\204"
 135      D82CF4CC 
 135      465380A6 
 135      10E52982 
 135      84
 136 01a3 41489883 		.ascii	"AH\230\203\235b\350\\\206\316\\\310\026\3630g>\232\022"
 136      9D62E85C 
 136      86CE5CC8 
 136      16F33067 
 136      3E9A12
 137 01b6 340BD02C 		.ascii	"4\013\320,B\263\030\315\0224K\321,\007\320)\000\255"
 137      42B318CD 
 137      12344BD1 
 137      2C07D029 
 137      00AD
 138 01c8 408695D0 		.ascii	"@\206\225\320\271\004\235U\030Y\215f\015\032\017\232"
 138      B9049D55 
 138      18598D66 
 138      0D1A0F9A 
 139 01d8 B5684A31 		.ascii	"\265hJ1\253\014M9\244\016A\352:t\257G\263\001M\005\232"
 139      AB0C4D39 
 139      A40E41EA 
 139      3A74AF47 
 139      B3014D05 
 140 01ed 8D6836A1 		.ascii	"\215h6\241\251DS\205f\013\232j45(]\255\022\240N\215"
 140      A9445385 
 140      660B9A6A 
 140      3435285D 
 140      AD12A04E 
ARM GAS  /tmp/ccBNwNOj.s 			page 11


 141 0202 BD5E0DBB 		.ascii	"\275^\015\273A\251\324\250\244\203\237\311\"\260\273"
 141      41A9D4A8 
 141      A4839FC9 
 141      22B0BB
 142 0211 4BA45FA2 		.ascii	"K\244_\242$F\"\244B:\373 \235\010\273\300\3021\262\233"
 142      244622A4 
 142      423AFB20 
 142      9D08BBC0 
 142      C231B29B 
 143 0225 0B688C9F 		.ascii	"\013h\214\237X\370Zx\260\257\270\211\017s\223\371x\216"
 143      58F85A78 
 143      B0AFB889 
 143      0F7393F9 
 143      788E
 144 0237 8FBB7186 		.ascii	"\217\273q\206m\006\244\336aB\372%?D\031#\300P\337f\015"
 144      6D06A4DE 
 144      6142FA25 
 144      3F441923 
 144      C050DF66 
 145 024c C8D5005C 		.ascii	"\310\325\000\\\022\020\374*\034\324\241)\020\335#\217"
 145      1210FC2A 
 145      1CD4A129 
 145      10DD238F 
 146 025c 9A14AED3 		.ascii	"\232\024\256\323\3045Eq\015'\270\246j\256\202q\\y\020"
 146      C4354571 
 146      0D27B8A6 
 146      6AAE8271 
 146      5C7910
 147 026f 25AEB4BA 		.ascii	"%\256\264\272\316\020W\236\342\272\226\340\232\246\271"
 147      CE10579E 
 147      E2BA96E0 
 147      9AA6B9
 148 027e F68FE39A 		.ascii	"\366\217\343\232\016Q\3422S\271\316\022\327t\305\365"
 148      0E51E232 
 148      53B9CE12 
 148      D774C5F5 
 149 028e 5D826B86 		.ascii	"]\202k\206\346\012\345\215#\313\2070\2219R\311\316\023"
 149      E60AE58D 
 149      23CB8730 
 149      913952C9 
 149      CE13
 150 02a0 593EFA8E 		.ascii	"Y>\372\216\016\3343\265\033g\002\323\015\275uv\303#"
 150      0EDC33B5 
 150      1B6702D3 
 150      0DBD7576 
 150      C323
 151 02b2 9CDE06A4 		.ascii	"\234\336\006\2449\231J\360q;\341\310!\2532\023\0169"
 151      39994AF0 
 151      713BE1C8 
 151      21AB3213 
 151      0E39
 152 02c4 645BC221 		.ascii	"d[\302!\3654\022\0169YB;`I\3718W\303z\3327_\227>\013"
 152      F534120E 
 152      3959423B 
 152      6049F938 
 152      57C37ADA 
 153 02dd BC342C5C 		.ascii	"\2744,\\\027\267Yd\254\253\324\012\221?\261\301c\214"
ARM GAS  /tmp/ccBNwNOj.s 			page 12


 153      17B75964 
 153      ACABD40A 
 153      913FB1C1 
 153      638C
 154 02ef FBF84C01 		.ascii	"\373\370L\001\246\306\365\345\203C1&`1\210\353\261\200"
 154      A6C6F5E5 
 154      83433126 
 154      603188EB 
 154      B180
 155 0301 8F37B88E 		.ascii	"\2177\270\216=\367\307\230\0013*~DG\255\353\356\276"
 155      3DF7C798 
 155      01332A7E 
 155      4447ADEB 
 155      EEBE
 156 0313 18B3C1AC 		.ascii	"\030\263\301\254\210\273{}\274\3165\366\2403\306LPV"
 156      88BB7B7D 
 156      BCCE35F6 
 156      A033C64C 
 156      5056
 157 0325 8C61BCDE 		.ascii	"\214a\274\336\365\362\001\000\354J\006q\354Wp6\272\372"
 157      F5F20100 
 157      EC4A0671 
 157      EC577036 
 157      BAFA
 158 0337 9FEF4735 		.ascii	"\237\357G5l\254{\231\\\225/\372^\261\226\367 -\343K"
 158      6CAC7B99 
 158      5C952FFA 
 158      5EB196F7 
 158      202DE34B 
 159 034b 6487C85E 		.ascii	"d\207\310^\246%-\353\205\237\217\317\006\325\250j\207"
 159      A6252DEB 
 159      859F8FCF 
 159      06D5A86A 
 159      87
 160 035c 9CA30FC2 		.ascii	"\234\243\017\302\337\300d\\\241\341\024@8i\221\036}"
 160      DFC0645C 
 160      A1E11440 
 160      3869911E 
 160      7D
 161 036d 161EE13A 		.ascii	"\026\036\341:V\010a\002\\\010\177n9\213hb\013\325\214"
 161      56086102 
 161      5C087F6E 
 161      398B6862 
 161      0BD58C
 162 0380 5EA1A91B 		.ascii	"^\241\251\033$U\213T\356?\250\243L\236C\363\237\307"
 162      24558B54 
 162      EE3FA8A3 
 162      4C9E43F3 
 162      9FC7
 163 0392 0840EC6F 		.ascii	"\010@\354o\351P1DSH.\023I1\351\375\344\306H\216N\224"
 163      E9503144 
 163      53482E13 
 163      4931E9FD 
 163      E4C6488E 
 164 03a8 6A3892CE 		.ascii	"j8\222\316\324\335\340\277\225\017R\334\274\177\342"
 164      D4DDE0BF 
 164      950F52DC 
ARM GAS  /tmp/ccBNwNOj.s 			page 13


 164      BC7FE2
 165 03b7 6ACCD089 		.ascii	"j\314\320\211\363V\261s\241\010$\233\237\262\223\320"
 165      F356B173 
 165      A108249B 
 165      9FB293D0 
 166 03c7 D87D7C2E 		.ascii	"\330}|.b%\364\000\327p\250\343z\370kK\201\371\364R\322"
 166      6225F400 
 166      D770A8E3 
 166      7AF86B4B 
 166      81F9F452 
 167 03dc F59CE52C 		.ascii	"\365\234\345,\001:\010\221\377\333\360\023\313\277\200"
 167      013A0891 
 167      FFDBF013 
 167      CBBF80
 168 03eb 4234D29B 		.ascii	"B4\322\233wzU\215\364\336\256Pe\2067\003Z\327o\327\365"
 168      777A558D 
 168      F4DEAE50 
 168      65863703 
 168      5AD76FD7 
 169 0400 DF4BAA7F 		.ascii	"\337K\252\177Q\206\372\371\304\365/\236\250\376%@\007"
 169      5186FAF9 
 169      C4F52F9E 
 169      A8FE2540 
 169      07
 170 0411 A171F52F 		.ascii	"\241q\365/\245\320d\353\347\252\376\245\272~\207\\\212"
 170      A5D064EB 
 170      E7AAFEA5 
 170      BA7E875C 
 170      8A
 171 0422 309F83D1 		.ascii	"0\237\203\321y\232{9mN\\\002\326\220V\320\374\343&["
 171      799A7B39 
 171      6D4E5C02 
 171      D69056D0 
 171      FCE3265B 
 172 0436 9E3EFF2B 		.ascii	"\236>\377+!\2322\377\227h\376WRi\367O\\\373\315\"Y\225"
 172      219A32FF 
 172      9768FE57 
 172      5269F74F 
 172      5CFBCD22 
 173 044c 411791AC 		.ascii	"A\027\221\254\313\2105\324\325\212\014tI,\3675@\007"
 173      CB8835D4 
 173      D58A0C74 
 173      492CF735 
 173      4007
 174 045e 21A5CB1F 		.ascii	"!\245\313\037\226\337C!C\352r1U\227\212\014o\006\264"
 174      96DF4321 
 174      43EA7231 
 174      55978A0C 
 174      6F06B4
 175 0471 DA56C351 		.ascii	"\332V\303Q\217&\\\253\367\234\320\373\352}\035*\205"
 175      8F265CAB 
 175      F79CD0FB 
 175      EA7D1D2A 
 175      85
 176 0482 689A4E65 		.ascii	"h\232Ne\352\000\207`\272N\345\020M\321i\210t*\227:\335"
 176      EA008760 
 176      BA4EE510 
ARM GAS  /tmp/ccBNwNOj.s 			page 14


 176      4DD16988 
 176      742A973A 
 177 0497 4BD2695D 		.ascii	"K\322i]\006\235\214d\235\036YC_\257\310@\247\253\226"
 177      069D8C64 
 177      9D1E5943 
 177      5FAFC840 
 177      A7AB96
 178 04aa 7303D041 		.ascii	"s\003\320AH\351\364\227\345\257\240\220m\222:\031J\247"
 178      48E9F497 
 178      E5AFA090 
 178      6D923A19 
 178      4AA7
 179 04bc 0A59F4DF 		.ascii	"\012Y\364\337IEo\314P\264\315*\032\352K,\372MT\367F"
 179      49456FCC 
 179      50B4CD2A 
 179      1AEA4B2C 
 179      FA4D54F7 
 180 04d1 55DF33CB 		.ascii	"U\3373\313_I!s\222\365\331T}\225j\361\215$\352\253\312"
 180      5F492173 
 180      92F5D954 
 180      7D956AF1 
 180      8D24EAAB 
 181 04e6 509F3971 		.ascii	"P\2379q}[\250\276\252q\365USHL\262>S\325W\255\367\237"
 181      7D5BA8BE 
 181      AA71F555 
 181      53484CB2 
 181      3E53D557 
 182 04fd 932E46BA 		.ascii	"\223.F\272n\237F\213\364\325T\243n-\206\373\325\272"
 182      6E9F468B 
 182      F4D554A3 
 182      6E2D86FB 
 182      D5BA
 183 050f 70E98EAB 		.ascii	"p\351\216\253\301c\365\326\3577^\364\344Z\331i\027\031"
 183      C163F5D6 
 183      EF375EF4 
 183      E45AD969 
 183      1719
 184 0521 F2BA18FC 		.ascii	"\362\272\030\374\003e\320)\376\"j}\371\324\302\316\030"
 184      0365D029 
 184      FE226A7D 
 184      F9D4C2CE 
 184      18
 185 0532 CFAB6FD7 		.ascii	"\317\253o\327Z}\354G\347j@\035,\221\211>o\344\375\\"
 185      5A7DEC47 
 185      E76A401D 
 185      2C91893E 
 185      6FE4FD5C 
 186 0546 A700F1E8 		.ascii	"\247\000\361\350\034\015\250\2079\233\010 o\370z\005"
 186      1C0DA887 
 186      399B0820 
 186      6FF87A05 
 187 0556 386555D4 		.ascii	"8eU\324\000\032N\224/\257\367\006\312\357\016\237\351"
 187      001A4E94 
 187      2FAFF706 
 187      CAEF0E9F 
 187      E9
 188 0567 2FD08046 		.ascii	"/\320\200F}\217\244\015A~S4\352\361\273\361\303\357"
ARM GAS  /tmp/ccBNwNOj.s 			page 15


 188      7D8FA40D 
 188      417E5334 
 188      EAF1BBF1 
 188      C3EF
 189 0579 17D6F5F0 		.ascii	"\027\326\365\360\345cn]\240\364\333\005\207`\304\201"
 189      E5636E5D 
 189      A0F4DB05 
 189      8760C481 
 190 0589 AF2BF778 		.ascii	"\257+\367x\274u\207Z\017\264\356\330\351m\357\360\036"
 190      BC75875A 
 190      0FB4EED8 
 190      E96DEFF0 
 190      1E
 191 059a 6AF27B03 		.ascii	"j\362{\003\355\301\316\016\357\316]\257\226\227y\267"
 191      EDC1CE0E 
 191      EFCE5DAF 
 191      969779B7 
 192 05aa 6FAFF76E 		.ascii	"o\257\367n}m\333\216\367\312\274\201&\377>\277\277\331"
 192      7D6DDB8E 
 192      F7CABC81 
 192      26FF3EBF 
 192      BFD9
 193 05bc 73909907 		.ascii	"s\220\231\007Z;=k\315\266\366\346\226\240\275\275\363"
 193      5A3B3D6B 
 193      CDB6F6E6 
 193      96A0BDBD 
 193      F3
 194 05cd 70A025E8 		.ascii	"p\240%\350h\357\010\264\2644\007\315\300\273\201\346"
 194      68EF08B4 
 194      B43407CD 
 194      C0BB81E6 
 195 05dd A0ADC9DF 		.ascii	"\240\255\311\337\0314 \313\211\017mM\035o\213\266R\321"
 195      193420CB 
 195      890F6D4D 
 195      1D6F8BB6 
 195      52D1
 196 05ef 5626DAD6 		.ascii	"V&\332\326\375\017Z\227J\005"
 196      FD0F5A97 
 196      4A05
 197              		.text
 198              		.section	.gnu.lto_.symbol_nodes.af3655d2e6290c95,"",%progbits
 199 0000 789C6362 		.ascii	"x\234cb`bP`\200\002\246\211L\365\014\014\023\31610\324"
 199      60625060 
 199      8002A689 
 199      4CF50C0C 
 199      13CE3130 
 200 0015 D7CFEB60 		.ascii	"\327\317\353`d\232\304T\317\210\3402\000\000\225\362"
 200      649AC454 
 200      CF88E032 
 200      000095F2 
 201 0025 0955     		.ascii	"\011U"
 202              		.text
 203              		.section	.gnu.lto_.refs.af3655d2e6290c95,"",%progbits
 204 0000 789C6362 		.ascii	"x\234cb`b`d\200\002\000\000F\000\006"
 204      60626064 
 204      80020000 
 204      460006
ARM GAS  /tmp/ccBNwNOj.s 			page 16


 205              		.text
 206              		.section	.gnu.lto_.decls.af3655d2e6290c95,"",%progbits
 207 0000 789CCD59 		.ascii	"x\234\315Y}lS\327\025\277\367\331q\022\342\261\210\016"
 207      7D6C53D7 
 207      15BFF7D9 
 207      7112E2B1 
 207      880E
 208 0012 44D54AB8 		.ascii	"D\325J\270\322\272U\250\301\220\260\252\373j\2278\201"
 208      D2BA55A8 
 208      C190B0AA 
 208      FB6A9738 
 208      81
 209 0023 640D8D65 		.ascii	"d\015\215e\203\266\375e=\342\027b-\211]\307\331\330"
 209      83B6FD65 
 209      3DE21762 
 209      2D895DC7 
 209      D9D8
 210 0035 7F97A420 		.ascii	"\177\227\244 \026m]HX\032\012\015\246\013i(\264\371"
 210      166D5D48 
 210      581A0A0D 
 210      A60B6928 
 210      B4F9
 211 0047 E8580B69 		.ascii	"\350X\013i\033\247\250(\243]\262\006\321\321-4am\324"
 211      1BA7A828 
 211      A35DB206 
 211      D1D12D34 
 211      616DD4
 212 005a A1AA5DD7 		.ascii	"\241\252]\327i\035\033\025\336\271\347=\333\357\032"
 212      691D1B15 
 212      DEB9E73D 
 212      DBEF1A
 213 0069 3B7E2FAB 		.ascii	";~/\253\246=\371\234{}\3379\277\373\273\037\357\236"
 213      A63DF99C 
 213      7B7DDF39 
 213      BFFBBB1F 
 213      EF9E
 214 007b E3678948 		.ascii	"\343g\211H\304O\011\211\303\325\177\007!^\013!\360!"
 214      C44F0989 
 214      C3D57F07 
 214      215E0B21 
 214      F021
 215 008d 0F90D425 		.ascii	"\017\220\324%\201\034\003\271Dn\275x\373J\220|\220y"
 215      811C03B9 
 215      446EBD78 
 215      FB4A907C 
 215      9079
 216 009f 903B00EB 		.ascii	"\220;\000\353\033 \337\004\3716\310qh\033\000YAU;;\307"
 216      1B20DF04 
 216      F936C871 
 216      681B0059 
 216      41553B3B 
 217 00b4 86FAB740 		.ascii	"\206\372\267@\336\206\372j\220\365P?\011\345\031\220"
 217      DE86FA6A 
 217      90F5503F 
 217      09E51990 
 218 00c4 AB20E320 		.ascii	"\253 \343 \357\202\274\014\262\0102\001r\015d\222s\001"
 218      EF82BC0C 
ARM GAS  /tmp/ccBNwNOj.s 			page 17


 218      B2083201 
 218      720D6492 
 218      7301
 219 00d6 DB73505A 		.ascii	"\333sPZ\241\034\205\362\035\220\363 S \027@\336\000"
 219      A11C85F2 
 219      1D90F320 
 219      53201740 
 219      DE00
 220 00e8 99D6717E 		.ascii	"\231\326q~\220\252\334fA\252\241^\003\362]\220\207@"
 220      90AADC66 
 220      41AAA15E 
 220      03F25D90 
 220      8740
 221 00fa 6A41B651 		.ascii	"jA\266Qq<|\214\005\034\237\244\370\216\351\306\3079"
 221      713C7C8C 
 221      051C9FA4 
 221      F88EE9C6 
 221      C739
 222 010c 5F06B169 		.ascii	"_\006\261i\\8\217\253\032\337E\215\017\325p\370<\256"
 222      5C388FAB 
 222      1ADF458D 
 222      0FD570F8 
 222      3CAE
 223 011e 812F6B41 		.ascii	"\201/kA\276\224\326\317:\322\317\242\013\013{?\032\271"
 223      BE94D6CF 
 223      3AD2CFA2 
 223      0B0B7B3F 
 223      1AB9
 224 0130 9D45DB63 		.ascii	"\235E\333c\361\370\203d\015\371%\203+\272\2171\032\221"
 224      F1F88364 
 224      0DF92583 
 224      2BBA8F31 
 224      1A91
 225 0142 E903ABC9 		.ascii	"\351\003\253\311\367\251LW\026\022\007V\354\205H\212"
 225      F7A94C57 
 225      16120756 
 225      EC85488A 
 226 0152 10993E45 		.ascii	"\020\231>E\327`\315\202\303$E\244\223\261v\356X=\265"
 226      D760CD82 
 226      C32445A4 
 226      93B176EE 
 226      583DB5
 227 0165 72153980 		.ascii	"r\0259\200(\0002\005\003\320 b+\022\030C\234\310\335"
 227      28003205 
 227      03D02062 
 227      2B121843 
 227      9CC8DD
 228 0178 6480B1AE 		.ascii	"d\200\261\256\205+\327\236\2660V\240\2718\262\333\313"
 228      852BD79E 
 228      B63056A0 
 228      B938B2DB 
 228      CB
 229 0189 7490DE4D 		.ascii	"t\220\336Mr\333q\313!\272\212\254''\300\260\213\261"
 229      72DB71CB 
 229      21BA8AAC 
 229      2727C0B0 
 229      8BB1
ARM GAS  /tmp/ccBNwNOj.s 			page 18


 230 019b 57EF13C7 		.ascii	"W\357\023\307\215\035\263\330\370\254\235YUS\356r\202"
 230      8D1DB3D8 
 230      F8AC9D59 
 230      5553EE72 
 230      82
 231 01ac AECFB0B5 		.ascii	"\256\317\260\265\310]$\312\215\337\234=BY\364U\232\241"
 231      C85D24CA 
 231      8DDF9C3D 
 231      4259F455 
 231      9AA1
 232 01be FB059AE8 		.ascii	"\373\005\232\350\376\316\344\250b\207f\251C\246\247"
 232      FECEE4A8 
 232      628766A9 
 232      43A6A7
 233 01cd C05E228F 		.ascii	"\300^\"\217P\001>'\004g3\014\236\252\223\306\366O3\310"
 233      50013E27 
 233      0467330C 
 233      9EAA93C6 
 233      F64F33C8 
 234 01e1 76D800DB 		.ascii	"v\330\000\333\366\330\374\314\221\3339\333B\262?\265"
 234      F6D8FCCC 
 234      91DB39DB 
 234      42B23FB5 
 235 01f1 2824E352 		.ascii	"($\343Rj\253p\250\363\265I\332\016\353%\3231p\223\310"
 235      6AAB70A8 
 235      F3B549DA 
 235      0EEB25D3 
 235      317093C8 
 236 0205 752AB236 		.ascii	"u*\2626\016\325\323\375\322\327aAez\032\201\366YD \231"
 236      0ED5D3FD 
 236      D2D76141 
 236      657A1A81 
 236      F6594420 
 237 021a E617EA29 		.ascii	"\346\027\352)\343\367\204\001G\303\333Z\205\237\010"
 237      E3F78401 
 237      47C3DB5A 
 237      859F08
 238 0229 5F2466CD 		.ascii	"_$f\315%r\000;\345\223\225\211\250VU/\315@\230\300\205"
 238      2572003B 
 238      E5939589 
 238      A856552F 
 238      CD4098C0 
 239 023e B9C5A338 		.ascii	"\271\305\2438\201\211\331x\3344\236CX\220Og\354]r\002"
 239      8189D978 
 239      DC349E43 
 239      58904F67 
 239      EC5D7202 
 240 0252 ACDF0858 		.ascii	"\254\337\010XAVr\261\177\353\301\006M\203\211\314n\352"
 240      415672B1 
 240      7FEBC106 
 240      4D8389CC 
 240      6EEA
 241 0264 C14E1901 		.ascii	"\301N\031\001+\316\316\254{V\0076b\032Ld\326\253\007"
 241      2BCECEAC 
 241      7B560736 
 241      621A4C64 
 241      D6AB07
ARM GAS  /tmp/ccBNwNOj.s 			page 19


 242 0277 3B6D046C 		.ascii	";m\004lm\006f\231.\375\343%\323\0218Ud:J\357\002}\006"
 242      6D066699 
 242      2EFDE325 
 242      D3113855 
 242      643A4AEF 
 243 028e F538EA97 		.ascii	"\3658\352\227QO\240\236D}\016t\362\222\310Y\3444\224"
 243      514FA09E 
 243      447D0E74 
 243      F292C859 
 243      E43494
 244 02a1 E2243EC6 		.ascii	"\342$>\306\271v\031\213]\366\360\001\252\207\304\244"
 244      B976198B 
 244      5DF6F001 
 244      AA87C4A4 
 245 02b1 21306184 		.ascii	"!0a\204\016\001\354c\035\330\224!\260\373\2633\273\256"
 245      0E01EC63 
 245      1DD89421 
 245      B0FBB333 
 245      BBAE
 246 02c3 039B3104 		.ascii	"\003\2331\004\346\316\316\254\313\233\002{\313\020X"
 246      E6CECEAC 
 246      CB9B027B 
 246      CB1058
 247 02d2 283BB33E 		.ascii	"(;\263>\035\330\025C`\373i\006j\272\275\240\356\202"
 247      1DD81543 
 247      60FB6906 
 247      6ABABDA0 
 247      EE82
 248 02e4 6770179C 		.ascii	"gp\027\234\304u>\217z\012\365\005\324o\240\236\026\327"
 248      C4753E8F 
 248      7A0AF505 
 248      D46FA09E 
 248      16D7
 249 02f6 FFBD5B4E 		.ascii	"\377\275[N65\226\350\260\207\222\373\214\230C\317\026"
 249      363596E8 
 249      B08792FB 
 249      8C9843CF 
 249      16
 250 0307 75076851 		.ascii	"u\007hQ\012}\207E\307\346\24346_&\277b\254\033\202\373"
 250      0A7D8745 
 250      C7E6A334 
 250      365F26BF 
 250      62AC1B82 
 251 031c 5FAC8758 		.ascii	"_\254\207X\314\252\272J\34434;F\327e\354\"\331\301W"
 251      CCAABA4A 
 251      E433343B 
 251      46D765EC 
 251      22D9C157 
 252 0330 C8711EA4 		.ascii	"\310q\036\244~\316\366\026SL\003\210\346%\014\357M*"
 252      7ECEF616 
 252      534C0388 
 252      E6250CEF 
 252      4D2A
 253 0342 E91BD47C 		.ascii	"\351\033\324|\"v\363\202\275k\317B<\276\316x2\361V\356"
 253      2276F382 
 253      BD6BCF42 
 253      3CBECE78 
ARM GAS  /tmp/ccBNwNOj.s 			page 20


 253      32F156EE 
 254 0356 64428897 		.ascii	"dB\210\227R\002\340^\222J$\216\035\265`\334y\0337G\207"
 254      5202E05E 
 254      924A248E 
 254      1DB560DC 
 254      791B3747 
 255 036b 3577D815 		.ascii	"5w\330\025`8\217\271\364\260{c\032\303\356\\\356\260"
 255      60388FB9 
 255      F4B07B63 
 255      1AC3EE5C 
 255      EEB0
 256 037d FB68472C 		.ascii	"\373hG,>\255\013\273\035K\306J\231>\217\033\316H0\353"
 256      3EAD0BBB 
 256      1D4BC64A 
 256      993E8F1B 
 256      CE4830EB 
 257 0391 C291CC2D 		.ascii	"\302\221\314-/\230\001\255.\365\210\237\307\203\264"
 257      2F9801AD 
 257      2EF5889F 
 257      C783B4
 258 03a0 D7349843 		.ascii	"\3274\230C\000\353\326\203=i\004,[$\003\260\203z\260"
 258      00EBD683 
 258      3D69042C 
 258      5B2403B0 
 258      837AB0
 259 03b3 E3A6C144 		.ascii	"\343\246\301Df\275z\260\223F\300\262E2\000\353\323\203"
 259      66BD7AB0 
 259      9346C0B2 
 259      453200EB 
 259      D383
 260 03c5 0D9B06D3 		.ascii	"\015\233\006\3233\333\023{a\346\002e\335\366\333H7c"
 260      33DB137B 
 260      61E60265 
 260      DDF6DB48 
 260      3763
 261 03d7 7B58D496 		.ascii	"{X\324\226mS\020\202&lI\023\231~Ho\0237\351\341_\254"
 261      6D531082 
 261      266C4913 
 261      997E486F 
 261      1337E9E1 
 262 03ed E49B94B7 		.ascii	"\344\233\224\267\347\316\015\237\324r\303Dd}\036\007"
 262      E7CE0D9F 
 262      D472C344 
 262      647D1E07 
 263 03fd C77D9793 		.ascii	"\307}\227\223*\261\330\351\231\"\326iOd\374\337\031"
 263      2AB1D8E9 
 263      9922D669 
 263      4F64FCDF 
 263      19
 264 040e 5A82F827 		.ascii	"Z\202\370'\351O\327\321\031\311\2416\347\346=:sd-\213"
 264      E94FD7D1 
 264      19C9A136 
 264      E7E63D3A 
 264      73642D8B 
 265 0422 4E26725A 		.ascii	"N&rZ\266\217\335\243\353\2538\321\027??\2229\355\013"
 265      B68FDDA3 
 265      EBAB38D1 
ARM GAS  /tmp/ccBNwNOj.s 			page 21


 265      173F3F92 
 265      39ED0B
 266 0435 F7E281F0 		.ascii	"\367\342\201\360\0175\205H;\020\214\003\365t?\255f\264"
 266      0F358548 
 266      3B108C03 
 266      F5743FAD 
 266      66B4
 267 0447 D711E815 		.ascii	"\327\021\350\025k\372\271oI\313h-\342Sm)LU\342q\013"
 267      6BFAB96F 
 267      49CB682D 
 267      E2536D29 
 267      4C55E271 
 268 045c 31672C91 		.ascii	"1g,\221\337b\207\237\244\366\237@\322H6\333\217S\227"
 268      DF62879F 
 268      A4F69F40 
 268      D24836DB 
 268      8F5397
 269 046f 9889DF99 		.ascii	"\230\211\337\231\306+N[\023\211\\\\\356\266\321\215"
 269      C62B4E5B 
 269      13895C5C 
 269      EEB6D18D 
 270 047f 3C1117FF 		.ascii	"<\021\027\377\212\361\357obt\275d\344\241\313\224\361"
 270      8AF1EF6F 
 270      6274BD64 
 270      E4A1CB94 
 270      F1
 271 0490 694FF08B 		.ascii	"iO\360\213\372'\370\217\246\301\034\002\330Y=\330\274"
 271      FA27F88F 
 271      A6C11C02 
 271      D8593DD8 
 271      BC
 272 04a1 11304776 		.ascii	"\0210Gvf/\351\301\3363\015&2{E\017v\315\010\330=K-\212"
 272      662FE9C1 
 272      DE330D26 
 272      327B450F 
 272      76CD08D8 
 273 04b9 B03E73BA 		.ascii	"\260>s\272,\371\012\206\253wp\245\256\242~\027\365\""
 273      2CF90A86 
 273      AB7770A5 
 273      AEA27E17 
 273      F522
 274 04cb EAF7515F 		.ascii	"\352\367Q_C\375\001j&q\335\216\372Q\324\373\244\034"
 274      43FD016A 
 274      2671DD8E 
 274      FA51D4FB 
 274      A41C
 275 04dd F98DF6D3 		.ascii	"\371\215\366\323\371b\357\235\3744\273\214\351\312\207"
 275      F962EF9D 
 275      FC34BB8C 
 275      E9CA87
 276 04ec 69CF9A90 		.ascii	"i\317\232\220\031\250\241>\333i\323)\025e9Tn\271\247"
 276      19A8A13E 
 276      DB69D329 
 276      15653954 
 276      6EB9A7
 277 04ff A51D867F 		.ascii	"\245\035\206\177\343\306\342=\2539\307\237I\370S\371"
 277      E3C6E23D 
ARM GAS  /tmp/ccBNwNOj.s 			page 22


 277      AB39C79F 
 277      49F853F9 
 278 050f 96F3809F 		.ascii	"\226\363\200\237\254B\177\206~\342\232f\321\267F\222"
 278      AC427F86 
 278      7EE29A66 
 278      D1B74692 
 279 051f 691772D8 		.ascii	"i\027r\330\233\367\371pHK*\037K\203\325\222\312\305"
 279      9BF7F970 
 279      484B2A1F 
 279      4B83D592 
 279      CAC5
 280 0531 E17F6949 		.ascii	"\341\177iI\245\272J\003hv)kR\311\2554\337\330\201\327"
 280      A5BA4A03 
 280      6876296B 
 280      52C9AD34 
 280      DFD881D7 
 281 0545 4F41FC91 		.ascii	"OA\374\221\022\223w\"\207+\267J\270\366\274>\250\272"
 281      12937722 
 281      872BB74A 
 281      B8F6BC3E 
 281      A8BA
 282 0557 AA637E2E 		.ascii	"\252c~.\207+\267\"\211T6\026\357\354\210RfK&\263\227"
 282      872BB722 
 282      89543616 
 282      EFEC8852 
 282      664B26B3 
 283 056c D293D91E 		.ascii	"\322\223\331\036IHf3\344\213QK\242\203\315\311EX\370"
 283      49486633 
 283      E48B514B 
 283      A283CDC9 
 283      4558F8
 284 057f C307BFFF 		.ascii	"\303\007\277\377)\035e\254X\246\207%\236x\276\2376g"
 284      291D65AC 
 284      58A68725 
 284      9E78BE9F 
 284      3667
 285 0591 398178E7 		.ascii	"9\201x\347\375RZh\374\347<&\236\274=w\342yc\376\240"
 285      FD525A68 
 285      FCE73C26 
 285      9EBC3D77 
 285      E27963FE 
 286 05a6 16D3D573 		.ascii	"\026\323\325s\340\357H\201\373./c\374l^w\250|j\032\314"
 286      E0EF4881 
 286      FB2E2F63 
 286      FC6C5E77 
 286      A87C6A1A 
 287 05bb 2180DDD4 		.ascii	"!\200\335\324\203\3350\002\266D\306\330\365\347)\236"
 287      83DD3002 
 287      B644C6D8 
 287      F5E7299E 
 288 05cb 4A25E0E2 		.ascii	"J%\340\342\246\341Dn\335\"\334~\233\001\270%\262\306"
 288      A6E1446E 
 288      DD22DC7E 
 288      9B01B825 
 288      B2C6
 289 05dd 8322DC01 		.ascii	"\203\"\334\001\323p\"\273^\021\256\317\010\334\022\021"
 289      D37022BB 
ARM GAS  /tmp/ccBNwNOj.s 			page 23


 289      5E11AECF 
 289      08DC1211 
 290 05ed B14F848B 		.ascii	"\261O\204\213\232\206\023\331=!\302\015\031\201sdgw"
 290      9A8613D9 
 290      3D21C20D 
 290      19817364 
 290      6777
 291 05ff 44847BD6 		.ascii	"D\204{\3264\234\310\256_\204\0335\002\227)2jp#\"\334"
 291      349CC8AE 
 291      5F841B35 
 291      02972932 
 291      6A702322 
 292 0614 19D37022 		.ascii	"\031\323p\"\2731\021n\302\010\334\306\014\3542]\372"
 292      BB31116E 
 292      C208DCC6 
 292      0CEC325D 
 292      FA
 293 0625 C344A647 		.ascii	"\303D\246G%\036\267\243\030\201\237B=\200z\020\365\020"
 293      251EB7A3 
 293      18819F42 
 293      3D807A10 
 293      F510
 294 0637 EA67509F 		.ascii	"\352gP\237B\375\034\352\021\324c\250\177\215\3727\250"
 294      42FD1CEA 
 294      11D463A8 
 294      7F8DFA37 
 294      A8
 295 0648 5FD4C7F0 		.ascii	"_\324\307\360\264X|8\013}\316\350\254T\224\321+\363"
 295      B4587C38 
 295      0B7DCEE8 
 295      AC5494D1 
 295      2BF3
 296 065a 1F05E26B 		.ascii	"\037\005\342k\034\231>\213\271\307\260\360.\305\364"
 296      1C993E8B 
 296      B9C7B0F0 
 296      2EC5F4
 297 0669 FBBA6CD4 		.ascii	"\373\272l\324\306S\324\214\260!\377=\223d\200\217}\016"
 297      C653D48C 
 297      B021FF3D 
 297      9364808F 
 297      7D0E
 298 067b AF07F83B 		.ascii	"\257\007\370;\227\330\307\013\307\347\037\323\376\303"
 298      97D8C70B 
 298      C7E71FD3 
 298      FEC3
 299 0689 9960D4C4 		.ascii	"\231`\324\304\27781Ix\361\242fF\311/\332\334\244%\005"
 299      BF383149 
 299      78F1A266 
 299      46C92FDA 
 299      DCA42505 
 300 069d AFD93225 		.ascii	"\257\3312%\005\354\220R\255\272Kd\032-&\244l\221\231"
 300      05EC9052 
 300      ADBA4B64 
 300      1A2D26A4 
 300      6C9199
 301 06b0 5B25DC0E 		.ascii	"[%\334\016\237\267wQ\265+\231^\244\322\222\216\032!"
 301      9FB77751 
ARM GAS  /tmp/ccBNwNOj.s 			page 24


 301      B52B995E 
 301      A4D2928E 
 301      1A21
 302 06c2 EDEDD438 		.ascii	"\355\355\3248s\257M\306s\356$<\005\347\304x\376U2\310"
 302      73AF4DC6 
 302      73EE243C 
 302      05E7C478 
 302      FE5532C8 
 303 06d6 E3EAE3D3 		.ascii	"\343\352\343\323S{\370_3\272e\327\337gc\321\342\377"
 303      537BF85F 
 303      33BA65D7 
 303      DF6763D1 
 303      E2FF
 304 06e8 939BA46C 		.ascii	"\223\233\244l\303\006\247\2531\2603P\347u\006[\235\215"
 304      C306A7AB 
 304      31B03350 
 304      E775065B 
 304      9D8D
 305 06fa 72933314 		.ascii	"r\2233\024\014GZ\235\336\355\333\312J\235\265\265\225"
 305      0C475A9D 
 305      DEEDDBCA 
 305      4A9DB5B5 
 305      95
 306 070b CEADEE9A 		.ascii	"\316\255\356\232\272\037\225:Cr\223\257\251\311\277"
 306      BA1F953A 
 306      437293AF 
 306      A9C9BF
 307 071a A17E193E 		.ascii	"\241~\031>\215\304\266\365\341\035\016\027Y\325\032"
 307      8DC4B6F5 
 307      E11D0E17 
 307      59D51A
 308 0729 692E2BF5 		.ascii	"i.+\365\355\012\005\202\276V%\322\026\362\201[K\003"
 308      ED0A0582 
 308      BE5625D2 
 308      16F2815B 
 308      4B03
 309 073b CAD79C8D 		.ascii	"\312\327\234\215\301f\305\031VZ\0259\\\337\010\270a"
 309      C166C519 
 309      565A1539 
 309      5CDF08B8 
 309      61
 310 074c FF8FE5B0 		.ascii	"\377\217\345\260\342\224\303\315\245\316]\365\365%P"
 310      E294C3CD 
 310      A5CE5DF5 
 310      F52550
 311 075b 29519A77 		.ascii	")Q\232w*~\277\342O6\264\004[\224\022E\336\031(\331\354"
 311      2A7EBFE2 
 311      4F36B404 
 311      5B941245 
 311      DE1928D9 
 312 0770 BBBFA474 		.ascii	"\273\277\244t\343\246\315\217\224:\205\033\316@K}S\233"
 312      E3A6CD8F 
 312      943A851B 
 312      CE404B7D 
 312      539B
 313 0782 5F71B646 		.ascii	"_q\266F\374\201\226\010\260)h\203\022xD:\350\377\256"
 313      FC819608 
ARM GAS  /tmp/ccBNwNOj.s 			page 25


 313      B0296883 
 313      1278443A 
 313      E8FFAE
 314 0795 F766B9BE 		.ascii	"\367f\271\2761\320\2428}~\245Ank\212\370\"?\011)\255"
 314      31D0A238 
 314      7D7EA541 
 314      6E6B8AF8 
 314      223F0929 
 315 07aa C06685CF 		.ascii	"\300f\205\317\227\340\223\327\034\364+a[\220\337\012"
 315      97E093D7 
 315      1CF42B61 
 315      5B90DF0A 
 316 07ba E7075B43 		.ascii	"\347\007[C\212\342\017\347\205\332B\376\260%\350\017"
 316      8AE20FE7 
 316      85DA42FE 
 316      B025E80F 
 317 07ca 5BE58670 		.ascii	"[\345\206p\023W"
 317      1357
 318 07d0 8D367779 		.ascii	"\2156wy\245\034\221m\356\012\265p\251E\245ZT\251\305"
 318      A51C916D 
 318      EE0AB570 
 318      A945A55A 
 318      54A9C5
 319 07e3 165E14BA 		.ascii	"\026^\024\272\313k]\301\226\206\300\256/\370\264\365"
 319      CB6B5DC1 
 319      9686C0AE 
 319      2FF8B4F5 
 320 07f3 F0055A02 		.ascii	"\360\005Z\002\021[=6\332u+\022\311\333VWY\345\261\325"
 320      115B3D36 
 320      DA752B12 
 320      C9DB5657 
 320      59E5B1D5 
 321 0807 6DFF81BB 		.ascii	"m\377\201\273\312\223_\347uWUUz\362\334;\334\225\036"
 321      CA935FE7 
 321      75575555 
 321      7AF2DC3B 
 321      DC951E
 322 081a 4B0D485D 		.ascii	"K\015H]\245\207~\017'o\323}\276\210\306\233W-\260\230"
 322      A5877E0F 
 322      276FD37D 
 322      BE88C69B 
 322      572DB098 
 323 082e 79F54D30 		.ascii	"y\365M0u\264\332Z\341\365x\254\265\256\207<\326\362"
 323      75B4DA5A 
 323      E1F578AC 
 323      B5AE873C 
 323      D6F2
 324 0840 2D9E5AAE 		.ascii	"-\236Z\256\252-\025\036\317\212@\220o\223\200\337\027"
 324      AA2D151E 
 324      CF8A4090 
 324      6F9380DF 
 324      17
 325 0851 B1ABD566 		.ascii	"\261\253\325f\271\365\207\276HA \310G\355\213\254N\362"
 325      B9F587BE 
 325      484120C8 
 325      47ED8BAC 
 325      4EF2
ARM GAS  /tmp/ccBNwNOj.s 			page 26


 326 0863 03B45DE1 		.ascii	"\003\264]\341`[\210\267[\271\245\225\233Z\371\327\264"
 326      605B88B7 
 326      5BB9A595 
 326      9B5AF9D7 
 326      B4
 327 0874 CDA7EC8E 		.ascii	"\315\247\354\2168]\333\2745^\330|\352\376\333R\266{"
 327      385DDBBC 
 327      355ED87C 
 327      EAFEDB52 
 327      B67B
 328 0886 B71307D5 		.ascii	"\267\023\007\325P\266\261lw=Lp\221\307\345\362m\207"
 328      50B6B16C 
 328      773D4C70 
 328      91C7E5F2 
 328      6D87
 329 0898 29AD541A 		.ascii	")\255T\032$\227\307\352\332\262\325cq\325x\012\312\335"
 329      2497C7EA 
 329      DAB2D563 
 329      71D5780A 
 329      CADD
 330 08aa 15A51EEF 		.ascii	"\025\245\036\357v\254l\342\025[yuE\325\303\236|~C+7"
 330      76AC6CE2 
 330      155B7975 
 330      45D5C39E 
 330      7C7E432B 
 331 08bf 4169ADA8 		.ascii	"Ai\255\250t\201\207\027\032\252+\270]\036\207(E]V\300"
 331      74818717 
 331      1AAA2BB8 
 331      5D1E8728 
 331      455D56C0 
 332 08d3 6793CF5F 		.ascii	"g\223\317_\036W\241\377\000\370s\021\273"
 332      1E57A1FF 
 332      00F87311 
 332      BB
 333              		.text
 334              		.section	.gnu.lto_.symtab.af3655d2e6290c95,"",%progbits
 335 0000 5F70616C 		.ascii	"_pal_lld_init\000\000\000\000\000\000\000\000\000\000"
 335      5F6C6C64 
 335      5F696E69 
 335      74000000 
 335      00000000 
 336 0017 0000A100 		.ascii	"\000\000\241\000\000\000_pal_lld_setgroupmode\000\000"
 336      00005F70 
 336      616C5F6C 
 336      6C645F73 
 336      65746772 
 337 0034 00000000 		.ascii	"\000\000\000\000\000\000\000\000\000\000\325\000\000"
 337      00000000 
 337      0000D500 
 337      00
 338 0041 00       		.ascii	"\000"
 339              		.text
 340              		.section	.gnu.lto_.opts,"",%progbits
 341 0000 272D6D63 		.ascii	"'-mcpu=cortex-m4' '-mno-thumb-interwork' '-mthumb' "
 341      70753D63 
 341      6F727465 
 341      782D6D34 
ARM GAS  /tmp/ccBNwNOj.s 			page 27


 341      2720272D 
 342 0033 272D6767 		.ascii	"'-ggdb' '-O2' '-fomit-frame-pointer' '-falign-funct"
 342      64622720 
 342      272D4F32 
 342      2720272D 
 342      666F6D69 
 343 0066 696F6E73 		.ascii	"ions=16' '-ffunction-sections' '-fdata-sections' '-"
 343      3D313627 
 343      20272D66 
 343      66756E63 
 343      74696F6E 
 344 0099 666E6F2D 		.ascii	"fno-common' '-flto'\000"
 344      636F6D6D 
 344      6F6E2720 
 344      272D666C 
 344      746F2700 
 345              		.text
 346              		.cfi_sections	.debug_frame
 347              		.section	.text._pal_lld_init,"ax",%progbits
 348              		.align	2
 349              		.p2align 4,,15
 350              		.global	_pal_lld_init
 351              		.thumb
 352              		.thumb_func
 353              		.type	_pal_lld_init, %function
 354              	_pal_lld_init:
 355              	.LFB273:
 356              		.file 1 "../ChibiOS/os/hal/ports/STM32/LLD/GPIOv2/pal_lld.c"
 357              		.loc 1 88 0
 358              		.cfi_startproc
 359              		@ args = 0, pretend = 0, frame = 0
 360              		@ frame_needed = 0, uses_anonymous_args = 0
 361              		@ link register save eliminated.
 362              	.LVL0:
 363 0000 F0B4     		push	{r4, r5, r6, r7}
 364              		.cfi_def_cfa_offset 16
 365              		.cfi_offset 4, -16
 366              		.cfi_offset 5, -12
 367              		.cfi_offset 6, -8
 368              		.cfi_offset 7, -4
 369              		.loc 1 102 0
 370 0002 364E     		ldr	r6, .L2
 371              	.LBB14:
 372              	.LBB15:
 373              		.loc 1 63 0
 374 0004 364D     		ldr	r5, .L2+4
 375              	.LBE15:
 376              	.LBE14:
 377              		.loc 1 102 0
 378 0006 7769     		ldr	r7, [r6, #20]
 379              	.LBB17:
 380              	.LBB18:
 381              		.loc 1 63 0
 382 0008 364C     		ldr	r4, .L2+8
 383              	.LBE18:
 384              	.LBE17:
 385              	.LBB20:
ARM GAS  /tmp/ccBNwNOj.s 			page 28


 386              	.LBB21:
 387 000a 3749     		ldr	r1, .L2+12
 388              	.LBE21:
 389              	.LBE20:
 390              	.LBB23:
 391              	.LBB24:
 392 000c 374A     		ldr	r2, .L2+16
 393              	.LBE24:
 394              	.LBE23:
 395              	.LBB26:
 396              	.LBB27:
 397 000e 384B     		ldr	r3, .L2+20
 398              	.LBE27:
 399              	.LBE26:
 400              		.loc 1 102 0
 401 0010 47F4FC07 		orr	r7, r7, #8257536
 402 0014 7761     		str	r7, [r6, #20]
 403              	.LVL1:
 404              	.LBB29:
 405              	.LBB30:
 406              		.loc 1 63 0
 407 0016 4FF09046 		mov	r6, #1207959552
 408 001a 4768     		ldr	r7, [r0, #4]
 409 001c 7760     		str	r7, [r6, #4]
 410              		.loc 1 64 0
 411 001e 8768     		ldr	r7, [r0, #8]
 412 0020 B760     		str	r7, [r6, #8]
 413              		.loc 1 65 0
 414 0022 C768     		ldr	r7, [r0, #12]
 415 0024 F760     		str	r7, [r6, #12]
 416              		.loc 1 66 0
 417 0026 0769     		ldr	r7, [r0, #16]
 418 0028 7761     		str	r7, [r6, #20]
 419              		.loc 1 67 0
 420 002a 4769     		ldr	r7, [r0, #20]
 421 002c 3762     		str	r7, [r6, #32]
 422              		.loc 1 68 0
 423 002e 8769     		ldr	r7, [r0, #24]
 424 0030 7762     		str	r7, [r6, #36]
 425              		.loc 1 69 0
 426 0032 0768     		ldr	r7, [r0]
 427 0034 3760     		str	r7, [r6]
 428              	.LVL2:
 429              	.LBE30:
 430              	.LBE29:
 431              	.LBB31:
 432              	.LBB16:
 433              		.loc 1 63 0
 434 0036 066A     		ldr	r6, [r0, #32]
 435 0038 6E60     		str	r6, [r5, #4]
 436              		.loc 1 64 0
 437 003a 466A     		ldr	r6, [r0, #36]
 438 003c AE60     		str	r6, [r5, #8]
 439              		.loc 1 65 0
 440 003e 866A     		ldr	r6, [r0, #40]
 441 0040 EE60     		str	r6, [r5, #12]
 442              		.loc 1 66 0
ARM GAS  /tmp/ccBNwNOj.s 			page 29


 443 0042 C66A     		ldr	r6, [r0, #44]
 444 0044 6E61     		str	r6, [r5, #20]
 445              		.loc 1 67 0
 446 0046 066B     		ldr	r6, [r0, #48]
 447 0048 2E62     		str	r6, [r5, #32]
 448              		.loc 1 68 0
 449 004a 466B     		ldr	r6, [r0, #52]
 450 004c 6E62     		str	r6, [r5, #36]
 451              		.loc 1 69 0
 452 004e C669     		ldr	r6, [r0, #28]
 453 0050 2E60     		str	r6, [r5]
 454              	.LVL3:
 455              	.LBE16:
 456              	.LBE31:
 457              	.LBB32:
 458              	.LBB19:
 459              		.loc 1 63 0
 460 0052 C56B     		ldr	r5, [r0, #60]
 461 0054 6560     		str	r5, [r4, #4]
 462              		.loc 1 64 0
 463 0056 056C     		ldr	r5, [r0, #64]
 464 0058 A560     		str	r5, [r4, #8]
 465              		.loc 1 65 0
 466 005a 456C     		ldr	r5, [r0, #68]
 467 005c E560     		str	r5, [r4, #12]
 468              		.loc 1 66 0
 469 005e 856C     		ldr	r5, [r0, #72]
 470 0060 6561     		str	r5, [r4, #20]
 471              		.loc 1 67 0
 472 0062 C56C     		ldr	r5, [r0, #76]
 473 0064 2562     		str	r5, [r4, #32]
 474              		.loc 1 68 0
 475 0066 056D     		ldr	r5, [r0, #80]
 476 0068 6562     		str	r5, [r4, #36]
 477              		.loc 1 69 0
 478 006a 856B     		ldr	r5, [r0, #56]
 479 006c 2560     		str	r5, [r4]
 480              	.LVL4:
 481              	.LBE19:
 482              	.LBE32:
 483              	.LBB33:
 484              	.LBB22:
 485              		.loc 1 63 0
 486 006e 846D     		ldr	r4, [r0, #88]
 487 0070 4C60     		str	r4, [r1, #4]
 488              		.loc 1 64 0
 489 0072 C46D     		ldr	r4, [r0, #92]
 490 0074 8C60     		str	r4, [r1, #8]
 491              		.loc 1 65 0
 492 0076 046E     		ldr	r4, [r0, #96]
 493 0078 CC60     		str	r4, [r1, #12]
 494              		.loc 1 66 0
 495 007a 446E     		ldr	r4, [r0, #100]
 496 007c 4C61     		str	r4, [r1, #20]
 497              		.loc 1 67 0
 498 007e 846E     		ldr	r4, [r0, #104]
 499 0080 0C62     		str	r4, [r1, #32]
ARM GAS  /tmp/ccBNwNOj.s 			page 30


 500              		.loc 1 68 0
 501 0082 C46E     		ldr	r4, [r0, #108]
 502 0084 4C62     		str	r4, [r1, #36]
 503              		.loc 1 69 0
 504 0086 446D     		ldr	r4, [r0, #84]
 505 0088 0C60     		str	r4, [r1]
 506              	.LVL5:
 507              	.LBE22:
 508              	.LBE33:
 509              	.LBB34:
 510              	.LBB25:
 511              		.loc 1 63 0
 512 008a 416F     		ldr	r1, [r0, #116]
 513 008c 5160     		str	r1, [r2, #4]
 514              		.loc 1 64 0
 515 008e 816F     		ldr	r1, [r0, #120]
 516 0090 9160     		str	r1, [r2, #8]
 517              		.loc 1 65 0
 518 0092 C16F     		ldr	r1, [r0, #124]
 519 0094 D160     		str	r1, [r2, #12]
 520              		.loc 1 66 0
 521 0096 D0F88010 		ldr	r1, [r0, #128]
 522 009a 5161     		str	r1, [r2, #20]
 523              		.loc 1 67 0
 524 009c D0F88410 		ldr	r1, [r0, #132]
 525 00a0 1162     		str	r1, [r2, #32]
 526              		.loc 1 68 0
 527 00a2 D0F88810 		ldr	r1, [r0, #136]
 528 00a6 5162     		str	r1, [r2, #36]
 529              		.loc 1 69 0
 530 00a8 016F     		ldr	r1, [r0, #112]
 531 00aa 1160     		str	r1, [r2]
 532              	.LVL6:
 533              	.LBE25:
 534              	.LBE34:
 535              	.LBB35:
 536              	.LBB28:
 537              		.loc 1 63 0
 538 00ac D0F89020 		ldr	r2, [r0, #144]
 539 00b0 5A60     		str	r2, [r3, #4]
 540              		.loc 1 64 0
 541 00b2 D0F89420 		ldr	r2, [r0, #148]
 542 00b6 9A60     		str	r2, [r3, #8]
 543              		.loc 1 65 0
 544 00b8 D0F89820 		ldr	r2, [r0, #152]
 545 00bc DA60     		str	r2, [r3, #12]
 546              		.loc 1 66 0
 547 00be D0F89C20 		ldr	r2, [r0, #156]
 548 00c2 5A61     		str	r2, [r3, #20]
 549              		.loc 1 67 0
 550 00c4 D0F8A020 		ldr	r2, [r0, #160]
 551 00c8 1A62     		str	r2, [r3, #32]
 552              		.loc 1 68 0
 553 00ca D0F8A420 		ldr	r2, [r0, #164]
 554 00ce 5A62     		str	r2, [r3, #36]
 555              		.loc 1 69 0
 556 00d0 D0F88C20 		ldr	r2, [r0, #140]
ARM GAS  /tmp/ccBNwNOj.s 			page 31


 557 00d4 1A60     		str	r2, [r3]
 558              	.LBE28:
 559              	.LBE35:
 560              		.loc 1 144 0
 561 00d6 F0BC     		pop	{r4, r5, r6, r7}
 562 00d8 7047     		bx	lr
 563              	.L3:
 564 00da 00BF     		.align	2
 565              	.L2:
 566 00dc 00100240 		.word	1073876992
 567 00e0 00040048 		.word	1207960576
 568 00e4 00080048 		.word	1207961600
 569 00e8 000C0048 		.word	1207962624
 570 00ec 00100048 		.word	1207963648
 571 00f0 00140048 		.word	1207964672
 572              		.cfi_endproc
 573              	.LFE273:
 574              		.size	_pal_lld_init, .-_pal_lld_init
 575 00f4 AFF30080 		.section	.text._pal_lld_setgroupmode,"ax",%progbits
 575      AFF30080 
 575      AFF30080 
 576              		.align	2
 577              		.p2align 4,,15
 578              		.global	_pal_lld_setgroupmode
 579              		.thumb
 580              		.thumb_func
 581              		.type	_pal_lld_setgroupmode, %function
 582              	_pal_lld_setgroupmode:
 583              	.LFB274:
 584              		.loc 1 161 0
 585              		.cfi_startproc
 586              		@ args = 0, pretend = 0, frame = 0
 587              		@ frame_needed = 0, uses_anonymous_args = 0
 588              		@ link register save eliminated.
 589              	.LVL7:
 590 0000 2DE9F00F 		push	{r4, r5, r6, r7, r8, r9, r10, fp}
 591              		.cfi_def_cfa_offset 32
 592              		.cfi_offset 4, -32
 593              		.cfi_offset 5, -28
 594              		.cfi_offset 6, -24
 595              		.cfi_offset 7, -20
 596              		.cfi_offset 8, -16
 597              		.cfi_offset 9, -12
 598              		.cfi_offset 10, -8
 599              		.cfi_offset 11, -4
 600              		.loc 1 168 0
 601 0004 0023     		movs	r3, #0
 602              		.loc 1 163 0
 603 0006 02F00307 		and	r7, r2, #3
 604              	.LVL8:
 605              		.loc 1 164 0
 606 000a C2F38006 		ubfx	r6, r2, #2, #1
 607              	.LVL9:
 608              		.loc 1 165 0
 609 000e C2F3C105 		ubfx	r5, r2, #3, #2
 610              	.LVL10:
 611              		.loc 1 166 0
ARM GAS  /tmp/ccBNwNOj.s 			page 32


 612 0012 C2F34114 		ubfx	r4, r2, #5, #2
 613              	.LVL11:
 614              	.LBB36:
 615              		.loc 1 174 0
 616 0016 4FF00F09 		mov	r9, #15
 617              	.LBE36:
 618              		.loc 1 167 0
 619 001a C2F3C312 		ubfx	r2, r2, #7, #4
 620              	.LVL12:
 621              	.LBB37:
 622              		.loc 1 179 0
 623 001e 4FF0010A 		mov	r10, #1
 624 0022 38E0     		b	.L9
 625              	.LVL13:
 626              	.L14:
 627              		.loc 1 176 0
 628 0024 D0F820B0 		ldr	fp, [r0, #32]
 629 0028 2BEA0C0C 		bic	ip, fp, ip
 630              	.LVL14:
 631 002c 4CEA0808 		orr	r8, ip, r8
 632              	.LVL15:
 633 0030 C0F82080 		str	r8, [r0, #32]
 634              	.L7:
 635              	.LVL16:
 636              		.loc 1 180 0
 637 0034 D0F804C0 		ldr	ip, [r0, #4]
 638              		.loc 1 179 0
 639 0038 0AFA03F8 		lsl	r8, r10, r3
 640              		.loc 1 180 0
 641 003c 2CEA080C 		bic	ip, ip, r8
 642 0040 4CEA060C 		orr	ip, ip, r6
 643 0044 C0F804C0 		str	ip, [r0, #4]
 644              	.LVL17:
 645              		.loc 1 181 0
 646 0048 4FF0030B 		mov	fp, #3
 647 004c 4FEA430C 		lsl	ip, r3, #1
 648              		.loc 1 182 0
 649 0050 D0F80880 		ldr	r8, [r0, #8]
 650              		.loc 1 181 0
 651 0054 0BFA0CFC 		lsl	ip, fp, ip
 652              	.LVL18:
 653              		.loc 1 182 0
 654 0058 6FEA0C0C 		mvn	ip, ip
 655              	.LVL19:
 656 005c 0CEA0808 		and	r8, ip, r8
 657 0060 48EA0508 		orr	r8, r8, r5
 658 0064 C0F80880 		str	r8, [r0, #8]
 659              		.loc 1 183 0
 660 0068 D0F80C80 		ldr	r8, [r0, #12]
 661 006c 0CEA0808 		and	r8, ip, r8
 662 0070 48EA0408 		orr	r8, r8, r4
 663 0074 C0F80C80 		str	r8, [r0, #12]
 664              		.loc 1 184 0
 665 0078 D0F80080 		ldr	r8, [r0]
 666 007c 0CEA080C 		and	ip, ip, r8
 667              	.LVL20:
 668 0080 4CEA070C 		orr	ip, ip, r7
ARM GAS  /tmp/ccBNwNOj.s 			page 33


 669 0084 C0F800C0 		str	ip, [r0]
 670              	.LVL21:
 671              	.L5:
 672              	.LBE37:
 673              		.loc 1 187 0
 674 0088 4908     		lsrs	r1, r1, #1
 675              	.LVL22:
 676 008a 1AD0     		beq	.L4
 677              		.loc 1 189 0
 678 008c 7600     		lsls	r6, r6, #1
 679              	.LVL23:
 680              		.loc 1 190 0
 681 008e AD00     		lsls	r5, r5, #2
 682              	.LVL24:
 683              		.loc 1 191 0
 684 0090 A400     		lsls	r4, r4, #2
 685              	.LVL25:
 686              		.loc 1 192 0
 687 0092 BF00     		lsls	r7, r7, #2
 688              	.LVL26:
 689              		.loc 1 193 0
 690 0094 0133     		adds	r3, r3, #1
 691              	.LVL27:
 692              	.L9:
 693              	.LBB38:
 694              		.loc 1 173 0
 695 0096 03F0070C 		and	ip, r3, #7
 696 009a 4FEA8C0C 		lsl	ip, ip, #2
 697              	.LBE38:
 698              		.loc 1 170 0
 699 009e 11F0010F 		tst	r1, #1
 700              	.LBB39:
 701              		.loc 1 173 0
 702 00a2 02FA0CF8 		lsl	r8, r2, ip
 703              	.LVL28:
 704              		.loc 1 174 0
 705 00a6 09FA0CFC 		lsl	ip, r9, ip
 706              	.LVL29:
 707              	.LBE39:
 708              		.loc 1 170 0
 709 00aa EDD0     		beq	.L5
 710              	.LBB40:
 711              		.loc 1 175 0
 712 00ac 072B     		cmp	r3, #7
 713 00ae B9D9     		bls	.L14
 714              		.loc 1 178 0
 715 00b0 D0F824B0 		ldr	fp, [r0, #36]
 716 00b4 2BEA0C0C 		bic	ip, fp, ip
 717              	.LVL30:
 718 00b8 4CEA0808 		orr	r8, ip, r8
 719              	.LVL31:
 720 00bc C0F82480 		str	r8, [r0, #36]
 721 00c0 B8E7     		b	.L7
 722              	.L4:
 723              	.LBE40:
 724              		.loc 1 195 0
 725 00c2 BDE8F00F 		pop	{r4, r5, r6, r7, r8, r9, r10, fp}
ARM GAS  /tmp/ccBNwNOj.s 			page 34


 726              	.LVL32:
 727 00c6 7047     		bx	lr
 728              		.cfi_endproc
 729              	.LFE274:
 730              		.size	_pal_lld_setgroupmode, .-_pal_lld_setgroupmode
 731 00c8 AFF30080 		.text
 731      AFF30080 
 732              	.Letext0:
 733              		.file 2 "/nfs/nfs5/home/research/hardware/arm2/gcc-arm-embedded/gcc-arm-none-eabi-4_8-2014q2/arm-n
 734              		.file 3 "/nfs/nfs5/home/research/hardware/arm2/gcc-arm-embedded/gcc-arm-none-eabi-4_8-2014q2/arm-n
 735              		.file 4 "../ChibiOS/os/rt/ports/ARMCMx/compilers/GCC/chtypes.h"
 736              		.file 5 "../ChibiOS/os/rt/include/chsystypes.h"
 737              		.file 6 "../ChibiOS/os/rt/include/chschd.h"
 738              		.file 7 "../ChibiOS/os/ext/CMSIS/ST/STM32F3xx/stm32f303xc.h"
 739              		.file 8 "../ChibiOS/os/rt/ports/ARMCMx/chcore.h"
 740              		.file 9 "../ChibiOS/os/rt/ports/ARMCMx/chcore_v7m.h"
 741              		.file 10 "../ChibiOS/os/rt/include/chtm.h"
 742              		.file 11 "../ChibiOS/os/rt/include/chsem.h"
 743              		.file 12 "../ChibiOS/os/rt/include/chmtx.h"
 744              		.file 13 "../ChibiOS/os/hal/ports/STM32/LLD/GPIOv2/pal_lld.h"
 745              		.file 14 "../ChibiOS/os/ext/CMSIS/include/core_cm4.h"
 746              		.section	.debug_info,"",%progbits
 747              	.Ldebug_info0:
 748 0000 F50A0000 		.4byte	0xaf5
 749 0004 0400     		.2byte	0x4
 750 0006 00000000 		.4byte	.Ldebug_abbrev0
 751 000a 04       		.byte	0x4
 752 000b 01       		.uleb128 0x1
 753 000c E1050000 		.4byte	.LASF152
 754 0010 01       		.byte	0x1
 755 0011 10010000 		.4byte	.LASF153
 756 0015 75040000 		.4byte	.LASF154
 757 0019 A8000000 		.4byte	.Ldebug_ranges0+0xa8
 758 001d 00000000 		.4byte	0
 759 0021 00000000 		.4byte	.Ldebug_line0
 760 0025 02       		.uleb128 0x2
 761 0026 04       		.byte	0x4
 762 0027 05       		.byte	0x5
 763 0028 696E7400 		.ascii	"int\000"
 764 002c 03       		.uleb128 0x3
 765 002d 04       		.byte	0x4
 766 002e 07       		.byte	0x7
 767 002f 06020000 		.4byte	.LASF0
 768 0033 03       		.uleb128 0x3
 769 0034 01       		.byte	0x1
 770 0035 06       		.byte	0x6
 771 0036 EF000000 		.4byte	.LASF1
 772 003a 04       		.uleb128 0x4
 773 003b 36000000 		.4byte	.LASF4
 774 003f 02       		.byte	0x2
 775 0040 1C       		.byte	0x1c
 776 0041 45000000 		.4byte	0x45
 777 0045 03       		.uleb128 0x3
 778 0046 01       		.byte	0x1
 779 0047 08       		.byte	0x8
 780 0048 C1030000 		.4byte	.LASF2
 781 004c 03       		.uleb128 0x3
ARM GAS  /tmp/ccBNwNOj.s 			page 35


 782 004d 02       		.byte	0x2
 783 004e 05       		.byte	0x5
 784 004f DE030000 		.4byte	.LASF3
 785 0053 04       		.uleb128 0x4
 786 0054 E8040000 		.4byte	.LASF5
 787 0058 02       		.byte	0x2
 788 0059 26       		.byte	0x26
 789 005a 5E000000 		.4byte	0x5e
 790 005e 03       		.uleb128 0x3
 791 005f 02       		.byte	0x2
 792 0060 07       		.byte	0x7
 793 0061 4F020000 		.4byte	.LASF6
 794 0065 04       		.uleb128 0x4
 795 0066 A7020000 		.4byte	.LASF7
 796 006a 02       		.byte	0x2
 797 006b 37       		.byte	0x37
 798 006c 70000000 		.4byte	0x70
 799 0070 03       		.uleb128 0x3
 800 0071 04       		.byte	0x4
 801 0072 05       		.byte	0x5
 802 0073 5F010000 		.4byte	.LASF8
 803 0077 04       		.uleb128 0x4
 804 0078 21050000 		.4byte	.LASF9
 805 007c 02       		.byte	0x2
 806 007d 38       		.byte	0x38
 807 007e 82000000 		.4byte	0x82
 808 0082 03       		.uleb128 0x3
 809 0083 04       		.byte	0x4
 810 0084 07       		.byte	0x7
 811 0085 C0040000 		.4byte	.LASF10
 812 0089 03       		.uleb128 0x3
 813 008a 08       		.byte	0x8
 814 008b 05       		.byte	0x5
 815 008c E1000000 		.4byte	.LASF11
 816 0090 04       		.uleb128 0x4
 817 0091 67030000 		.4byte	.LASF12
 818 0095 02       		.byte	0x2
 819 0096 4E       		.byte	0x4e
 820 0097 9B000000 		.4byte	0x9b
 821 009b 03       		.uleb128 0x3
 822 009c 08       		.byte	0x8
 823 009d 07       		.byte	0x7
 824 009e 6D000000 		.4byte	.LASF13
 825 00a2 04       		.uleb128 0x4
 826 00a3 D3050000 		.4byte	.LASF14
 827 00a7 03       		.byte	0x3
 828 00a8 2A       		.byte	0x2a
 829 00a9 3A000000 		.4byte	0x3a
 830 00ad 04       		.uleb128 0x4
 831 00ae 81010000 		.4byte	.LASF15
 832 00b2 03       		.byte	0x3
 833 00b3 36       		.byte	0x36
 834 00b4 53000000 		.4byte	0x53
 835 00b8 04       		.uleb128 0x4
 836 00b9 B9030000 		.4byte	.LASF16
 837 00bd 03       		.byte	0x3
 838 00be 41       		.byte	0x41
ARM GAS  /tmp/ccBNwNOj.s 			page 36


 839 00bf 65000000 		.4byte	0x65
 840 00c3 04       		.uleb128 0x4
 841 00c4 44040000 		.4byte	.LASF17
 842 00c8 03       		.byte	0x3
 843 00c9 42       		.byte	0x42
 844 00ca 77000000 		.4byte	0x77
 845 00ce 04       		.uleb128 0x4
 846 00cf 2D000000 		.4byte	.LASF18
 847 00d3 03       		.byte	0x3
 848 00d4 4E       		.byte	0x4e
 849 00d5 90000000 		.4byte	0x90
 850 00d9 04       		.uleb128 0x4
 851 00da 7F050000 		.4byte	.LASF19
 852 00de 04       		.byte	0x4
 853 00df 39       		.byte	0x39
 854 00e0 C3000000 		.4byte	0xc3
 855 00e4 04       		.uleb128 0x4
 856 00e5 85020000 		.4byte	.LASF20
 857 00e9 04       		.byte	0x4
 858 00ea 3C       		.byte	0x3c
 859 00eb A2000000 		.4byte	0xa2
 860 00ef 04       		.uleb128 0x4
 861 00f0 78010000 		.4byte	.LASF21
 862 00f4 04       		.byte	0x4
 863 00f5 3D       		.byte	0x3d
 864 00f6 A2000000 		.4byte	0xa2
 865 00fa 04       		.uleb128 0x4
 866 00fb 7C030000 		.4byte	.LASF22
 867 00ff 04       		.byte	0x4
 868 0100 3E       		.byte	0x3e
 869 0101 A2000000 		.4byte	0xa2
 870 0105 04       		.uleb128 0x4
 871 0106 9B030000 		.4byte	.LASF23
 872 010a 04       		.byte	0x4
 873 010b 40       		.byte	0x40
 874 010c C3000000 		.4byte	0xc3
 875 0110 04       		.uleb128 0x4
 876 0111 73020000 		.4byte	.LASF24
 877 0115 04       		.byte	0x4
 878 0116 41       		.byte	0x41
 879 0117 B8000000 		.4byte	0xb8
 880 011b 04       		.uleb128 0x4
 881 011c 9B020000 		.4byte	.LASF25
 882 0120 04       		.byte	0x4
 883 0121 43       		.byte	0x43
 884 0122 C3000000 		.4byte	0xc3
 885 0126 04       		.uleb128 0x4
 886 0127 00020000 		.4byte	.LASF26
 887 012b 04       		.byte	0x4
 888 012c 45       		.byte	0x45
 889 012d B8000000 		.4byte	0xb8
 890 0131 04       		.uleb128 0x4
 891 0132 03050000 		.4byte	.LASF27
 892 0136 05       		.byte	0x5
 893 0137 33       		.byte	0x33
 894 0138 C3000000 		.4byte	0xc3
 895 013c 04       		.uleb128 0x4
ARM GAS  /tmp/ccBNwNOj.s 			page 37


 896 013d F3040000 		.4byte	.LASF28
 897 0141 05       		.byte	0x5
 898 0142 3F       		.byte	0x3f
 899 0143 47010000 		.4byte	0x147
 900 0147 05       		.uleb128 0x5
 901 0148 69020000 		.4byte	.LASF47
 902 014c 40       		.byte	0x40
 903 014d 06       		.byte	0x6
 904 014e C2       		.byte	0xc2
 905 014f 27020000 		.4byte	0x227
 906 0153 06       		.uleb128 0x6
 907 0154 0E030000 		.4byte	.LASF29
 908 0158 06       		.byte	0x6
 909 0159 C3       		.byte	0xc3
 910 015a 32020000 		.4byte	0x232
 911 015e 00       		.byte	0
 912 015f 06       		.uleb128 0x6
 913 0160 94030000 		.4byte	.LASF30
 914 0164 06       		.byte	0x6
 915 0165 C5       		.byte	0xc5
 916 0166 32020000 		.4byte	0x232
 917 016a 04       		.byte	0x4
 918 016b 06       		.uleb128 0x6
 919 016c DA000000 		.4byte	.LASF31
 920 0170 06       		.byte	0x6
 921 0171 C7       		.byte	0xc7
 922 0172 05010000 		.4byte	0x105
 923 0176 08       		.byte	0x8
 924 0177 06       		.uleb128 0x6
 925 0178 F6060000 		.4byte	.LASF32
 926 017c 06       		.byte	0x6
 927 017d C8       		.byte	0xc8
 928 017e 25050000 		.4byte	0x525
 929 0182 0C       		.byte	0xc
 930 0183 06       		.uleb128 0x6
 931 0184 93010000 		.4byte	.LASF33
 932 0188 06       		.byte	0x6
 933 0189 CA       		.byte	0xca
 934 018a 32020000 		.4byte	0x232
 935 018e 10       		.byte	0x10
 936 018f 06       		.uleb128 0x6
 937 0190 21030000 		.4byte	.LASF34
 938 0194 06       		.byte	0x6
 939 0195 CB       		.byte	0xcb
 940 0196 32020000 		.4byte	0x232
 941 019a 14       		.byte	0x14
 942 019b 06       		.uleb128 0x6
 943 019c C8060000 		.4byte	.LASF35
 944 01a0 06       		.byte	0x6
 945 01a1 D2       		.byte	0xd2
 946 01a2 B0060000 		.4byte	0x6b0
 947 01a6 18       		.byte	0x18
 948 01a7 06       		.uleb128 0x6
 949 01a8 E8030000 		.4byte	.LASF36
 950 01ac 06       		.byte	0x6
 951 01ad DD       		.byte	0xdd
 952 01ae EF000000 		.4byte	0xef
ARM GAS  /tmp/ccBNwNOj.s 			page 38


 953 01b2 1C       		.byte	0x1c
 954 01b3 06       		.uleb128 0x6
 955 01b4 05040000 		.4byte	.LASF37
 956 01b8 06       		.byte	0x6
 957 01b9 E1       		.byte	0xe1
 958 01ba E4000000 		.4byte	0xe4
 959 01be 1D       		.byte	0x1d
 960 01bf 06       		.uleb128 0x6
 961 01c0 A7050000 		.4byte	.LASF38
 962 01c4 06       		.byte	0x6
 963 01c5 E6       		.byte	0xe6
 964 01c6 FA000000 		.4byte	0xfa
 965 01ca 1E       		.byte	0x1e
 966 01cb 07       		.uleb128 0x7
 967 01cc 705F7500 		.ascii	"p_u\000"
 968 01d0 06       		.byte	0x6
 969 01d1 3701     		.2byte	0x137
 970 01d3 DF050000 		.4byte	0x5df
 971 01d7 20       		.byte	0x20
 972 01d8 08       		.uleb128 0x8
 973 01d9 CB020000 		.4byte	.LASF39
 974 01dd 06       		.byte	0x6
 975 01de 3C01     		.2byte	0x13c
 976 01e0 38020000 		.4byte	0x238
 977 01e4 24       		.byte	0x24
 978 01e5 08       		.uleb128 0x8
 979 01e6 31020000 		.4byte	.LASF40
 980 01ea 06       		.byte	0x6
 981 01eb 4201     		.2byte	0x142
 982 01ed 5C020000 		.4byte	0x25c
 983 01f1 28       		.byte	0x28
 984 01f2 08       		.uleb128 0x8
 985 01f3 39040000 		.4byte	.LASF41
 986 01f7 06       		.byte	0x6
 987 01f8 4801     		.2byte	0x148
 988 01fa 1B010000 		.4byte	0x11b
 989 01fe 30       		.byte	0x30
 990 01ff 08       		.uleb128 0x8
 991 0200 D4030000 		.4byte	.LASF42
 992 0204 06       		.byte	0x6
 993 0205 4F01     		.2byte	0x14f
 994 0207 AA060000 		.4byte	0x6aa
 995 020b 34       		.byte	0x34
 996 020c 08       		.uleb128 0x8
 997 020d 0D050000 		.4byte	.LASF43
 998 0211 06       		.byte	0x6
 999 0212 5301     		.2byte	0x153
 1000 0214 05010000 		.4byte	0x105
 1001 0218 38       		.byte	0x38
 1002 0219 08       		.uleb128 0x8
 1003 021a 00010000 		.4byte	.LASF44
 1004 021e 06       		.byte	0x6
 1005 021f 5A01     		.2byte	0x15a
 1006 0221 0F030000 		.4byte	0x30f
 1007 0225 3C       		.byte	0x3c
 1008 0226 00       		.byte	0
 1009 0227 04       		.uleb128 0x4
ARM GAS  /tmp/ccBNwNOj.s 			page 39


 1010 0228 DE020000 		.4byte	.LASF45
 1011 022c 05       		.byte	0x5
 1012 022d 44       		.byte	0x44
 1013 022e 32020000 		.4byte	0x232
 1014 0232 09       		.uleb128 0x9
 1015 0233 04       		.byte	0x4
 1016 0234 3C010000 		.4byte	0x13c
 1017 0238 04       		.uleb128 0x4
 1018 0239 BC020000 		.4byte	.LASF46
 1019 023d 05       		.byte	0x5
 1020 023e 49       		.byte	0x49
 1021 023f 43020000 		.4byte	0x243
 1022 0243 05       		.uleb128 0x5
 1023 0244 65040000 		.4byte	.LASF48
 1024 0248 04       		.byte	0x4
 1025 0249 06       		.byte	0x6
 1026 024a B0       		.byte	0xb0
 1027 024b 5C020000 		.4byte	0x25c
 1028 024f 06       		.uleb128 0x6
 1029 0250 0E030000 		.4byte	.LASF29
 1030 0254 06       		.byte	0x6
 1031 0255 B1       		.byte	0xb1
 1032 0256 32020000 		.4byte	0x232
 1033 025a 00       		.byte	0
 1034 025b 00       		.byte	0
 1035 025c 04       		.uleb128 0x4
 1036 025d 8E050000 		.4byte	.LASF49
 1037 0261 05       		.byte	0x5
 1038 0262 50       		.byte	0x50
 1039 0263 67020000 		.4byte	0x267
 1040 0267 05       		.uleb128 0x5
 1041 0268 C9000000 		.4byte	.LASF50
 1042 026c 08       		.byte	0x8
 1043 026d 06       		.byte	0x6
 1044 026e B7       		.byte	0xb7
 1045 026f 8C020000 		.4byte	0x28c
 1046 0273 06       		.uleb128 0x6
 1047 0274 0E030000 		.4byte	.LASF29
 1048 0278 06       		.byte	0x6
 1049 0279 B8       		.byte	0xb8
 1050 027a 32020000 		.4byte	0x232
 1051 027e 00       		.byte	0
 1052 027f 06       		.uleb128 0x6
 1053 0280 94030000 		.4byte	.LASF30
 1054 0284 06       		.byte	0x6
 1055 0285 B9       		.byte	0xb9
 1056 0286 32020000 		.4byte	0x232
 1057 028a 04       		.byte	0x4
 1058 028b 00       		.byte	0
 1059 028c 04       		.uleb128 0x4
 1060 028d 13000000 		.4byte	.LASF51
 1061 0291 05       		.byte	0x5
 1062 0292 57       		.byte	0x57
 1063 0293 97020000 		.4byte	0x297
 1064 0297 0A       		.uleb128 0xa
 1065 0298 8D020000 		.4byte	.LASF52
 1066 029c 1C       		.byte	0x1c
ARM GAS  /tmp/ccBNwNOj.s 			page 40


 1067 029d 06       		.byte	0x6
 1068 029e 9201     		.2byte	0x192
 1069 02a0 F3020000 		.4byte	0x2f3
 1070 02a4 08       		.uleb128 0x8
 1071 02a5 54040000 		.4byte	.LASF53
 1072 02a9 06       		.byte	0x6
 1073 02aa 9301     		.2byte	0x193
 1074 02ac 5C020000 		.4byte	0x25c
 1075 02b0 00       		.byte	0
 1076 02b1 08       		.uleb128 0x8
 1077 02b2 F0030000 		.4byte	.LASF54
 1078 02b6 06       		.byte	0x6
 1079 02b7 9401     		.2byte	0x194
 1080 02b9 05010000 		.4byte	0x105
 1081 02bd 08       		.byte	0x8
 1082 02be 08       		.uleb128 0x8
 1083 02bf 29030000 		.4byte	.LASF55
 1084 02c3 06       		.byte	0x6
 1085 02c4 9601     		.2byte	0x196
 1086 02c6 25050000 		.4byte	0x525
 1087 02ca 0C       		.byte	0xc
 1088 02cb 08       		.uleb128 0x8
 1089 02cc AB010000 		.4byte	.LASF56
 1090 02d0 06       		.byte	0x6
 1091 02d1 9901     		.2byte	0x199
 1092 02d3 32020000 		.4byte	0x232
 1093 02d7 10       		.byte	0x10
 1094 02d8 08       		.uleb128 0x8
 1095 02d9 61050000 		.4byte	.LASF57
 1096 02dd 06       		.byte	0x6
 1097 02de 9A01     		.2byte	0x19a
 1098 02e0 32020000 		.4byte	0x232
 1099 02e4 14       		.byte	0x14
 1100 02e5 08       		.uleb128 0x8
 1101 02e6 54030000 		.4byte	.LASF58
 1102 02ea 06       		.byte	0x6
 1103 02eb 9D01     		.2byte	0x19d
 1104 02ed 32020000 		.4byte	0x232
 1105 02f1 18       		.byte	0x18
 1106 02f2 00       		.byte	0
 1107 02f3 04       		.uleb128 0x4
 1108 02f4 18050000 		.4byte	.LASF59
 1109 02f8 05       		.byte	0x5
 1110 02f9 5C       		.byte	0x5c
 1111 02fa FE020000 		.4byte	0x2fe
 1112 02fe 09       		.uleb128 0x9
 1113 02ff 04       		.byte	0x4
 1114 0300 04030000 		.4byte	0x304
 1115 0304 0B       		.uleb128 0xb
 1116 0305 0F030000 		.4byte	0x30f
 1117 0309 0C       		.uleb128 0xc
 1118 030a 0F030000 		.4byte	0x30f
 1119 030e 00       		.byte	0
 1120 030f 0D       		.uleb128 0xd
 1121 0310 04       		.byte	0x4
 1122 0311 04       		.uleb128 0x4
 1123 0312 84030000 		.4byte	.LASF60
ARM GAS  /tmp/ccBNwNOj.s 			page 41


 1124 0316 05       		.byte	0x5
 1125 0317 61       		.byte	0x61
 1126 0318 1C030000 		.4byte	0x31c
 1127 031c 0A       		.uleb128 0xa
 1128 031d 1B040000 		.4byte	.LASF61
 1129 0321 14       		.byte	0x14
 1130 0322 06       		.byte	0x6
 1131 0323 6D01     		.2byte	0x16d
 1132 0325 6B030000 		.4byte	0x36b
 1133 0329 08       		.uleb128 0x8
 1134 032a 13020000 		.4byte	.LASF62
 1135 032e 06       		.byte	0x6
 1136 032f 6E01     		.2byte	0x16e
 1137 0331 C2060000 		.4byte	0x6c2
 1138 0335 00       		.byte	0
 1139 0336 08       		.uleb128 0x8
 1140 0337 C1010000 		.4byte	.LASF63
 1141 033b 06       		.byte	0x6
 1142 033c 6F01     		.2byte	0x16f
 1143 033e C2060000 		.4byte	0x6c2
 1144 0342 04       		.byte	0x4
 1145 0343 08       		.uleb128 0x8
 1146 0344 5C040000 		.4byte	.LASF64
 1147 0348 06       		.byte	0x6
 1148 0349 7001     		.2byte	0x170
 1149 034b 31010000 		.4byte	0x131
 1150 034f 08       		.byte	0x8
 1151 0350 08       		.uleb128 0x8
 1152 0351 FC060000 		.4byte	.LASF65
 1153 0355 06       		.byte	0x6
 1154 0356 7101     		.2byte	0x171
 1155 0358 F3020000 		.4byte	0x2f3
 1156 035c 0C       		.byte	0xc
 1157 035d 08       		.uleb128 0x8
 1158 035e 87050000 		.4byte	.LASF66
 1159 0362 06       		.byte	0x6
 1160 0363 7301     		.2byte	0x173
 1161 0365 0F030000 		.4byte	0x30f
 1162 0369 10       		.byte	0x10
 1163 036a 00       		.byte	0
 1164 036b 04       		.uleb128 0x4
 1165 036c A6000000 		.4byte	.LASF67
 1166 0370 05       		.byte	0x5
 1167 0371 66       		.byte	0x66
 1168 0372 76030000 		.4byte	0x376
 1169 0376 0A       		.uleb128 0xa
 1170 0377 F1020000 		.4byte	.LASF68
 1171 037b 10       		.byte	0x10
 1172 037c 06       		.byte	0x6
 1173 037d 7D01     		.2byte	0x17d
 1174 037f B8030000 		.4byte	0x3b8
 1175 0383 08       		.uleb128 0x8
 1176 0384 13020000 		.4byte	.LASF62
 1177 0388 06       		.byte	0x6
 1178 0389 7E01     		.2byte	0x17e
 1179 038b C2060000 		.4byte	0x6c2
 1180 038f 00       		.byte	0
ARM GAS  /tmp/ccBNwNOj.s 			page 42


 1181 0390 08       		.uleb128 0x8
 1182 0391 C1010000 		.4byte	.LASF63
 1183 0395 06       		.byte	0x6
 1184 0396 8001     		.2byte	0x180
 1185 0398 C2060000 		.4byte	0x6c2
 1186 039c 04       		.byte	0x4
 1187 039d 08       		.uleb128 0x8
 1188 039e 5C040000 		.4byte	.LASF64
 1189 03a2 06       		.byte	0x6
 1190 03a3 8201     		.2byte	0x182
 1191 03a5 31010000 		.4byte	0x131
 1192 03a9 08       		.byte	0x8
 1193 03aa 08       		.uleb128 0x8
 1194 03ab 15030000 		.4byte	.LASF69
 1195 03af 06       		.byte	0x6
 1196 03b0 8A01     		.2byte	0x18a
 1197 03b2 31010000 		.4byte	0x131
 1198 03b6 0C       		.byte	0xc
 1199 03b7 00       		.byte	0
 1200 03b8 04       		.uleb128 0x4
 1201 03b9 22020000 		.4byte	.LASF70
 1202 03bd 05       		.byte	0x5
 1203 03be 6B       		.byte	0x6b
 1204 03bf C3030000 		.4byte	0x3c3
 1205 03c3 0A       		.uleb128 0xa
 1206 03c4 A3030000 		.4byte	.LASF71
 1207 03c8 04       		.byte	0x4
 1208 03c9 06       		.byte	0x6
 1209 03ca A401     		.2byte	0x1a4
 1210 03cc DE030000 		.4byte	0x3de
 1211 03d0 08       		.uleb128 0x8
 1212 03d1 35050000 		.4byte	.LASF72
 1213 03d5 06       		.byte	0x6
 1214 03d6 AC01     		.2byte	0x1ac
 1215 03d8 C8060000 		.4byte	0x6c8
 1216 03dc 00       		.byte	0
 1217 03dd 00       		.byte	0
 1218 03de 04       		.uleb128 0x4
 1219 03df 79020000 		.4byte	.LASF73
 1220 03e3 05       		.byte	0x5
 1221 03e4 70       		.byte	0x70
 1222 03e5 E9030000 		.4byte	0x3e9
 1223 03e9 0E       		.uleb128 0xe
 1224 03ea 55010000 		.4byte	.LASF74
 1225 03ee 5001     		.2byte	0x150
 1226 03f0 06       		.byte	0x6
 1227 03f1 C401     		.2byte	0x1c4
 1228 03f3 45040000 		.4byte	0x445
 1229 03f7 08       		.uleb128 0x8
 1230 03f8 C1050000 		.4byte	.LASF75
 1231 03fc 06       		.byte	0x6
 1232 03fd C801     		.2byte	0x1c8
 1233 03ff 8C020000 		.4byte	0x28c
 1234 0403 00       		.byte	0
 1235 0404 08       		.uleb128 0x8
 1236 0405 C9010000 		.4byte	.LASF76
 1237 0409 06       		.byte	0x6
ARM GAS  /tmp/ccBNwNOj.s 			page 43


 1238 040a CC01     		.2byte	0x1cc
 1239 040c 6B030000 		.4byte	0x36b
 1240 0410 1C       		.byte	0x1c
 1241 0411 07       		.uleb128 0x7
 1242 0412 64626700 		.ascii	"dbg\000"
 1243 0416 06       		.byte	0x6
 1244 0417 D001     		.2byte	0x1d0
 1245 0419 B8030000 		.4byte	0x3b8
 1246 041d 2C       		.byte	0x2c
 1247 041e 08       		.uleb128 0x8
 1248 041f 93000000 		.4byte	.LASF77
 1249 0423 06       		.byte	0x6
 1250 0424 D401     		.2byte	0x1d4
 1251 0426 3C010000 		.4byte	0x13c
 1252 042a 30       		.byte	0x30
 1253 042b 07       		.uleb128 0x7
 1254 042c 746D00   		.ascii	"tm\000"
 1255 042f 06       		.byte	0x6
 1256 0430 D901     		.2byte	0x1d9
 1257 0432 D4050000 		.4byte	0x5d4
 1258 0436 70       		.byte	0x70
 1259 0437 08       		.uleb128 0x8
 1260 0438 F1010000 		.4byte	.LASF78
 1261 043c 06       		.byte	0x6
 1262 043d E501     		.2byte	0x1e5
 1263 043f CD060000 		.4byte	0x6cd
 1264 0443 78       		.byte	0x78
 1265 0444 00       		.byte	0
 1266 0445 03       		.uleb128 0x3
 1267 0446 04       		.byte	0x4
 1268 0447 07       		.byte	0x7
 1269 0448 D5020000 		.4byte	.LASF79
 1270 044c 0F       		.uleb128 0xf
 1271 044d C3000000 		.4byte	0xc3
 1272 0451 10       		.uleb128 0x10
 1273 0452 34       		.byte	0x34
 1274 0453 07       		.byte	0x7
 1275 0454 FB01     		.2byte	0x1fb
 1276 0456 03050000 		.4byte	0x503
 1277 045a 07       		.uleb128 0x7
 1278 045b 435200   		.ascii	"CR\000"
 1279 045e 07       		.byte	0x7
 1280 045f FD01     		.2byte	0x1fd
 1281 0461 4C040000 		.4byte	0x44c
 1282 0465 00       		.byte	0
 1283 0466 08       		.uleb128 0x8
 1284 0467 D6060000 		.4byte	.LASF80
 1285 046b 07       		.byte	0x7
 1286 046c FE01     		.2byte	0x1fe
 1287 046e 4C040000 		.4byte	0x44c
 1288 0472 04       		.byte	0x4
 1289 0473 07       		.uleb128 0x7
 1290 0474 43495200 		.ascii	"CIR\000"
 1291 0478 07       		.byte	0x7
 1292 0479 FF01     		.2byte	0x1ff
 1293 047b 4C040000 		.4byte	0x44c
 1294 047f 08       		.byte	0x8
ARM GAS  /tmp/ccBNwNOj.s 			page 44


 1295 0480 08       		.uleb128 0x8
 1296 0481 6F010000 		.4byte	.LASF81
 1297 0485 07       		.byte	0x7
 1298 0486 0002     		.2byte	0x200
 1299 0488 4C040000 		.4byte	0x44c
 1300 048c 0C       		.byte	0xc
 1301 048d 08       		.uleb128 0x8
 1302 048e 5E030000 		.4byte	.LASF82
 1303 0492 07       		.byte	0x7
 1304 0493 0102     		.2byte	0x201
 1305 0495 4C040000 		.4byte	0x44c
 1306 0499 10       		.byte	0x10
 1307 049a 08       		.uleb128 0x8
 1308 049b 04070000 		.4byte	.LASF83
 1309 049f 07       		.byte	0x7
 1310 04a0 0202     		.2byte	0x202
 1311 04a2 4C040000 		.4byte	0x44c
 1312 04a6 14       		.byte	0x14
 1313 04a7 08       		.uleb128 0x8
 1314 04a8 13040000 		.4byte	.LASF84
 1315 04ac 07       		.byte	0x7
 1316 04ad 0302     		.2byte	0x203
 1317 04af 4C040000 		.4byte	0x44c
 1318 04b3 18       		.byte	0x18
 1319 04b4 08       		.uleb128 0x8
 1320 04b5 46050000 		.4byte	.LASF85
 1321 04b9 07       		.byte	0x7
 1322 04ba 0402     		.2byte	0x204
 1323 04bc 4C040000 		.4byte	0x44c
 1324 04c0 1C       		.byte	0x1c
 1325 04c1 08       		.uleb128 0x8
 1326 04c2 BC050000 		.4byte	.LASF86
 1327 04c6 07       		.byte	0x7
 1328 04c7 0502     		.2byte	0x205
 1329 04c9 4C040000 		.4byte	0x44c
 1330 04cd 20       		.byte	0x20
 1331 04ce 07       		.uleb128 0x7
 1332 04cf 43535200 		.ascii	"CSR\000"
 1333 04d3 07       		.byte	0x7
 1334 04d4 0602     		.2byte	0x206
 1335 04d6 4C040000 		.4byte	0x44c
 1336 04da 24       		.byte	0x24
 1337 04db 08       		.uleb128 0x8
 1338 04dc 45030000 		.4byte	.LASF87
 1339 04e0 07       		.byte	0x7
 1340 04e1 0702     		.2byte	0x207
 1341 04e3 4C040000 		.4byte	0x44c
 1342 04e7 28       		.byte	0x28
 1343 04e8 08       		.uleb128 0x8
 1344 04e9 C7050000 		.4byte	.LASF88
 1345 04ed 07       		.byte	0x7
 1346 04ee 0802     		.2byte	0x208
 1347 04f0 4C040000 		.4byte	0x44c
 1348 04f4 2C       		.byte	0x2c
 1349 04f5 08       		.uleb128 0x8
 1350 04f6 CD050000 		.4byte	.LASF89
 1351 04fa 07       		.byte	0x7
ARM GAS  /tmp/ccBNwNOj.s 			page 45


 1352 04fb 0902     		.2byte	0x209
 1353 04fd 4C040000 		.4byte	0x44c
 1354 0501 30       		.byte	0x30
 1355 0502 00       		.byte	0
 1356 0503 11       		.uleb128 0x11
 1357 0504 49010000 		.4byte	.LASF90
 1358 0508 07       		.byte	0x7
 1359 0509 0A02     		.2byte	0x20a
 1360 050b 51040000 		.4byte	0x451
 1361 050f 04       		.uleb128 0x4
 1362 0510 B8010000 		.4byte	.LASF91
 1363 0514 08       		.byte	0x8
 1364 0515 65       		.byte	0x65
 1365 0516 0F030000 		.4byte	0x30f
 1366 051a 04       		.uleb128 0x4
 1367 051b B1020000 		.4byte	.LASF92
 1368 051f 08       		.byte	0x8
 1369 0520 6D       		.byte	0x6d
 1370 0521 CE000000 		.4byte	0xce
 1371 0525 05       		.uleb128 0x5
 1372 0526 59050000 		.4byte	.LASF93
 1373 052a 04       		.byte	0x4
 1374 052b 08       		.byte	0x8
 1375 052c 89       		.byte	0x89
 1376 052d 3E050000 		.4byte	0x53e
 1377 0531 12       		.uleb128 0x12
 1378 0532 72313300 		.ascii	"r13\000"
 1379 0536 08       		.byte	0x8
 1380 0537 8A       		.byte	0x8a
 1381 0538 B9050000 		.4byte	0x5b9
 1382 053c 00       		.byte	0
 1383 053d 00       		.byte	0
 1384 053e 05       		.uleb128 0x5
 1385 053f 47000000 		.4byte	.LASF94
 1386 0543 24       		.byte	0x24
 1387 0544 09       		.byte	0x9
 1388 0545 FD       		.byte	0xfd
 1389 0546 B9050000 		.4byte	0x5b9
 1390 054a 07       		.uleb128 0x7
 1391 054b 723400   		.ascii	"r4\000"
 1392 054e 09       		.byte	0x9
 1393 054f 1001     		.2byte	0x110
 1394 0551 0F050000 		.4byte	0x50f
 1395 0555 00       		.byte	0
 1396 0556 07       		.uleb128 0x7
 1397 0557 723500   		.ascii	"r5\000"
 1398 055a 09       		.byte	0x9
 1399 055b 1101     		.2byte	0x111
 1400 055d 0F050000 		.4byte	0x50f
 1401 0561 04       		.byte	0x4
 1402 0562 07       		.uleb128 0x7
 1403 0563 723600   		.ascii	"r6\000"
 1404 0566 09       		.byte	0x9
 1405 0567 1201     		.2byte	0x112
 1406 0569 0F050000 		.4byte	0x50f
 1407 056d 08       		.byte	0x8
 1408 056e 07       		.uleb128 0x7
ARM GAS  /tmp/ccBNwNOj.s 			page 46


 1409 056f 723700   		.ascii	"r7\000"
 1410 0572 09       		.byte	0x9
 1411 0573 1301     		.2byte	0x113
 1412 0575 0F050000 		.4byte	0x50f
 1413 0579 0C       		.byte	0xc
 1414 057a 07       		.uleb128 0x7
 1415 057b 723800   		.ascii	"r8\000"
 1416 057e 09       		.byte	0x9
 1417 057f 1401     		.2byte	0x114
 1418 0581 0F050000 		.4byte	0x50f
 1419 0585 10       		.byte	0x10
 1420 0586 07       		.uleb128 0x7
 1421 0587 723900   		.ascii	"r9\000"
 1422 058a 09       		.byte	0x9
 1423 058b 1501     		.2byte	0x115
 1424 058d 0F050000 		.4byte	0x50f
 1425 0591 14       		.byte	0x14
 1426 0592 07       		.uleb128 0x7
 1427 0593 72313000 		.ascii	"r10\000"
 1428 0597 09       		.byte	0x9
 1429 0598 1601     		.2byte	0x116
 1430 059a 0F050000 		.4byte	0x50f
 1431 059e 18       		.byte	0x18
 1432 059f 07       		.uleb128 0x7
 1433 05a0 72313100 		.ascii	"r11\000"
 1434 05a4 09       		.byte	0x9
 1435 05a5 1701     		.2byte	0x117
 1436 05a7 0F050000 		.4byte	0x50f
 1437 05ab 1C       		.byte	0x1c
 1438 05ac 07       		.uleb128 0x7
 1439 05ad 6C7200   		.ascii	"lr\000"
 1440 05b0 09       		.byte	0x9
 1441 05b1 1801     		.2byte	0x118
 1442 05b3 0F050000 		.4byte	0x50f
 1443 05b7 20       		.byte	0x20
 1444 05b8 00       		.byte	0
 1445 05b9 09       		.uleb128 0x9
 1446 05ba 04       		.byte	0x4
 1447 05bb 3E050000 		.4byte	0x53e
 1448 05bf 13       		.uleb128 0x13
 1449 05c0 04       		.byte	0x4
 1450 05c1 0A       		.byte	0xa
 1451 05c2 38       		.byte	0x38
 1452 05c3 D4050000 		.4byte	0x5d4
 1453 05c7 06       		.uleb128 0x6
 1454 05c8 3F050000 		.4byte	.LASF95
 1455 05cc 0A       		.byte	0xa
 1456 05cd 3C       		.byte	0x3c
 1457 05ce D9000000 		.4byte	0xd9
 1458 05d2 00       		.byte	0
 1459 05d3 00       		.byte	0
 1460 05d4 04       		.uleb128 0x4
 1461 05d5 2F030000 		.4byte	.LASF96
 1462 05d9 0A       		.byte	0xa
 1463 05da 3D       		.byte	0x3d
 1464 05db BF050000 		.4byte	0x5bf
 1465 05df 14       		.uleb128 0x14
ARM GAS  /tmp/ccBNwNOj.s 			page 47


 1466 05e0 04       		.byte	0x4
 1467 05e1 06       		.byte	0x6
 1468 05e2 FA       		.byte	0xfa
 1469 05e3 48060000 		.4byte	0x648
 1470 05e7 15       		.uleb128 0x15
 1471 05e8 26000000 		.4byte	.LASF97
 1472 05ec 06       		.byte	0x6
 1473 05ed 0101     		.2byte	0x101
 1474 05ef 10010000 		.4byte	0x110
 1475 05f3 15       		.uleb128 0x15
 1476 05f4 8A000000 		.4byte	.LASF98
 1477 05f8 06       		.byte	0x6
 1478 05f9 0801     		.2byte	0x108
 1479 05fb 10010000 		.4byte	0x110
 1480 05ff 15       		.uleb128 0x15
 1481 0600 C1060000 		.4byte	.LASF99
 1482 0604 06       		.byte	0x6
 1483 0605 0F01     		.2byte	0x10f
 1484 0607 0F030000 		.4byte	0x30f
 1485 060b 15       		.uleb128 0x15
 1486 060c 20000000 		.4byte	.LASF100
 1487 0610 06       		.byte	0x6
 1488 0611 1601     		.2byte	0x116
 1489 0613 48060000 		.4byte	0x648
 1490 0617 15       		.uleb128 0x15
 1491 0618 9E000000 		.4byte	.LASF101
 1492 061c 06       		.byte	0x6
 1493 061d 1B01     		.2byte	0x11b
 1494 061f 10010000 		.4byte	0x110
 1495 0623 15       		.uleb128 0x15
 1496 0624 1B020000 		.4byte	.LASF102
 1497 0628 06       		.byte	0x6
 1498 0629 2401     		.2byte	0x124
 1499 062b 73060000 		.4byte	0x673
 1500 062f 15       		.uleb128 0x15
 1501 0630 4D040000 		.4byte	.LASF103
 1502 0634 06       		.byte	0x6
 1503 0635 2D01     		.2byte	0x12d
 1504 0637 AA060000 		.4byte	0x6aa
 1505 063b 15       		.uleb128 0x15
 1506 063c FE030000 		.4byte	.LASF104
 1507 0640 06       		.byte	0x6
 1508 0641 3501     		.2byte	0x135
 1509 0643 1B010000 		.4byte	0x11b
 1510 0647 00       		.byte	0
 1511 0648 09       		.uleb128 0x9
 1512 0649 04       		.byte	0x4
 1513 064a 27020000 		.4byte	0x227
 1514 064e 05       		.uleb128 0x5
 1515 064f 2C040000 		.4byte	.LASF105
 1516 0653 0C       		.byte	0xc
 1517 0654 0B       		.byte	0xb
 1518 0655 34       		.byte	0x34
 1519 0656 73060000 		.4byte	0x673
 1520 065a 06       		.uleb128 0x6
 1521 065b 9B010000 		.4byte	.LASF106
 1522 065f 0B       		.byte	0xb
ARM GAS  /tmp/ccBNwNOj.s 			page 48


 1523 0660 35       		.byte	0x35
 1524 0661 5C020000 		.4byte	0x25c
 1525 0665 00       		.byte	0
 1526 0666 06       		.uleb128 0x6
 1527 0667 49020000 		.4byte	.LASF107
 1528 066b 0B       		.byte	0xb
 1529 066c 37       		.byte	0x37
 1530 066d 26010000 		.4byte	0x126
 1531 0671 08       		.byte	0x8
 1532 0672 00       		.byte	0
 1533 0673 09       		.uleb128 0x9
 1534 0674 04       		.byte	0x4
 1535 0675 4E060000 		.4byte	0x64e
 1536 0679 05       		.uleb128 0x5
 1537 067a 9E050000 		.4byte	.LASF108
 1538 067e 10       		.byte	0x10
 1539 067f 0C       		.byte	0xc
 1540 0680 39       		.byte	0x39
 1541 0681 AA060000 		.4byte	0x6aa
 1542 0685 06       		.uleb128 0x6
 1543 0686 08010000 		.4byte	.LASF109
 1544 068a 0C       		.byte	0xc
 1545 068b 3A       		.byte	0x3a
 1546 068c 5C020000 		.4byte	0x25c
 1547 0690 00       		.byte	0
 1548 0691 06       		.uleb128 0x6
 1549 0692 EE060000 		.4byte	.LASF110
 1550 0696 0C       		.byte	0xc
 1551 0697 3C       		.byte	0x3c
 1552 0698 32020000 		.4byte	0x232
 1553 069c 08       		.byte	0x8
 1554 069d 06       		.uleb128 0x6
 1555 069e FC040000 		.4byte	.LASF111
 1556 06a2 0C       		.byte	0xc
 1557 06a3 3E       		.byte	0x3e
 1558 06a4 E8060000 		.4byte	0x6e8
 1559 06a8 0C       		.byte	0xc
 1560 06a9 00       		.byte	0
 1561 06aa 09       		.uleb128 0x9
 1562 06ab 04       		.byte	0x4
 1563 06ac 79060000 		.4byte	0x679
 1564 06b0 09       		.uleb128 0x9
 1565 06b1 04       		.byte	0x4
 1566 06b2 B6060000 		.4byte	0x6b6
 1567 06b6 16       		.uleb128 0x16
 1568 06b7 BB060000 		.4byte	0x6bb
 1569 06bb 03       		.uleb128 0x3
 1570 06bc 01       		.byte	0x1
 1571 06bd 08       		.byte	0x8
 1572 06be D7040000 		.4byte	.LASF112
 1573 06c2 09       		.uleb128 0x9
 1574 06c3 04       		.byte	0x4
 1575 06c4 11030000 		.4byte	0x311
 1576 06c8 0F       		.uleb128 0xf
 1577 06c9 B0060000 		.4byte	0x6b0
 1578 06cd 17       		.uleb128 0x17
 1579 06ce 1A050000 		.4byte	0x51a
ARM GAS  /tmp/ccBNwNOj.s 			page 49


 1580 06d2 DD060000 		.4byte	0x6dd
 1581 06d6 18       		.uleb128 0x18
 1582 06d7 45040000 		.4byte	0x445
 1583 06db 1A       		.byte	0x1a
 1584 06dc 00       		.byte	0
 1585 06dd 04       		.uleb128 0x4
 1586 06de E2010000 		.4byte	.LASF113
 1587 06e2 0C       		.byte	0xc
 1588 06e3 34       		.byte	0x34
 1589 06e4 79060000 		.4byte	0x679
 1590 06e8 09       		.uleb128 0x9
 1591 06e9 04       		.byte	0x4
 1592 06ea DD060000 		.4byte	0x6dd
 1593 06ee 03       		.uleb128 0x3
 1594 06ef 01       		.byte	0x1
 1595 06f0 02       		.byte	0x2
 1596 06f1 B3030000 		.4byte	.LASF114
 1597 06f5 13       		.uleb128 0x13
 1598 06f6 04       		.byte	0x4
 1599 06f7 0D       		.byte	0xd
 1600 06f8 E7       		.byte	0xe7
 1601 06f9 16070000 		.4byte	0x716
 1602 06fd 12       		.uleb128 0x12
 1603 06fe 73657400 		.ascii	"set\000"
 1604 0702 0D       		.byte	0xd
 1605 0703 E8       		.byte	0xe8
 1606 0704 AD000000 		.4byte	0xad
 1607 0708 00       		.byte	0
 1608 0709 06       		.uleb128 0x6
 1609 070a 08030000 		.4byte	.LASF115
 1610 070e 0D       		.byte	0xd
 1611 070f E9       		.byte	0xe9
 1612 0710 AD000000 		.4byte	0xad
 1613 0714 02       		.byte	0x2
 1614 0715 00       		.byte	0
 1615 0716 14       		.uleb128 0x14
 1616 0717 04       		.byte	0x4
 1617 0718 0D       		.byte	0xd
 1618 0719 E5       		.byte	0xe5
 1619 071a 31070000 		.4byte	0x731
 1620 071e 19       		.uleb128 0x19
 1621 071f 5700     		.ascii	"W\000"
 1622 0721 0D       		.byte	0xd
 1623 0722 E6       		.byte	0xe6
 1624 0723 C3000000 		.4byte	0xc3
 1625 0727 19       		.uleb128 0x19
 1626 0728 4800     		.ascii	"H\000"
 1627 072a 0D       		.byte	0xd
 1628 072b EA       		.byte	0xea
 1629 072c F5060000 		.4byte	0x6f5
 1630 0730 00       		.byte	0
 1631 0731 13       		.uleb128 0x13
 1632 0732 2C       		.byte	0x2c
 1633 0733 0D       		.byte	0xd
 1634 0734 DD       		.byte	0xdd
 1635 0735 BE070000 		.4byte	0x7be
 1636 0739 06       		.uleb128 0x6
ARM GAS  /tmp/ccBNwNOj.s 			page 50


 1637 073a 67000000 		.4byte	.LASF116
 1638 073e 0D       		.byte	0xd
 1639 073f DF       		.byte	0xdf
 1640 0740 4C040000 		.4byte	0x44c
 1641 0744 00       		.byte	0
 1642 0745 06       		.uleb128 0x6
 1643 0746 40000000 		.4byte	.LASF117
 1644 074a 0D       		.byte	0xd
 1645 074b E0       		.byte	0xe0
 1646 074c 4C040000 		.4byte	0x44c
 1647 0750 04       		.byte	0x4
 1648 0751 06       		.uleb128 0x6
 1649 0752 A3010000 		.4byte	.LASF118
 1650 0756 0D       		.byte	0xd
 1651 0757 E1       		.byte	0xe1
 1652 0758 4C040000 		.4byte	0x44c
 1653 075c 08       		.byte	0x8
 1654 075d 06       		.uleb128 0x6
 1655 075e 84000000 		.4byte	.LASF119
 1656 0762 0D       		.byte	0xd
 1657 0763 E2       		.byte	0xe2
 1658 0764 4C040000 		.4byte	0x44c
 1659 0768 0C       		.byte	0xc
 1660 0769 12       		.uleb128 0x12
 1661 076a 49445200 		.ascii	"IDR\000"
 1662 076e 0D       		.byte	0xd
 1663 076f E3       		.byte	0xe3
 1664 0770 4C040000 		.4byte	0x44c
 1665 0774 10       		.byte	0x10
 1666 0775 12       		.uleb128 0x12
 1667 0776 4F445200 		.ascii	"ODR\000"
 1668 077a 0D       		.byte	0xd
 1669 077b E4       		.byte	0xe4
 1670 077c 4C040000 		.4byte	0x44c
 1671 0780 14       		.byte	0x14
 1672 0781 06       		.uleb128 0x6
 1673 0782 FB000000 		.4byte	.LASF120
 1674 0786 0D       		.byte	0xd
 1675 0787 EB       		.byte	0xeb
 1676 0788 BE070000 		.4byte	0x7be
 1677 078c 18       		.byte	0x18
 1678 078d 06       		.uleb128 0x6
 1679 078e 44020000 		.4byte	.LASF121
 1680 0792 0D       		.byte	0xd
 1681 0793 EC       		.byte	0xec
 1682 0794 4C040000 		.4byte	0x44c
 1683 0798 1C       		.byte	0x1c
 1684 0799 06       		.uleb128 0x6
 1685 079a 77030000 		.4byte	.LASF122
 1686 079e 0D       		.byte	0xd
 1687 079f ED       		.byte	0xed
 1688 07a0 4C040000 		.4byte	0x44c
 1689 07a4 20       		.byte	0x20
 1690 07a5 06       		.uleb128 0x6
 1691 07a6 72030000 		.4byte	.LASF123
 1692 07aa 0D       		.byte	0xd
 1693 07ab EE       		.byte	0xee
ARM GAS  /tmp/ccBNwNOj.s 			page 51


 1694 07ac 4C040000 		.4byte	0x44c
 1695 07b0 24       		.byte	0x24
 1696 07b1 12       		.uleb128 0x12
 1697 07b2 42525200 		.ascii	"BRR\000"
 1698 07b6 0D       		.byte	0xd
 1699 07b7 EF       		.byte	0xef
 1700 07b8 4C040000 		.4byte	0x44c
 1701 07bc 28       		.byte	0x28
 1702 07bd 00       		.byte	0
 1703 07be 0F       		.uleb128 0xf
 1704 07bf 16070000 		.4byte	0x716
 1705 07c3 04       		.uleb128 0x4
 1706 07c4 D0010000 		.4byte	.LASF124
 1707 07c8 0D       		.byte	0xd
 1708 07c9 F0       		.byte	0xf0
 1709 07ca 31070000 		.4byte	0x731
 1710 07ce 13       		.uleb128 0x13
 1711 07cf 1C       		.byte	0x1c
 1712 07d0 0D       		.byte	0xd
 1713 07d1 F5       		.byte	0xf5
 1714 07d2 2D080000 		.4byte	0x82d
 1715 07d6 06       		.uleb128 0x6
 1716 07d7 43010000 		.4byte	.LASF125
 1717 07db 0D       		.byte	0xd
 1718 07dc F7       		.byte	0xf7
 1719 07dd C3000000 		.4byte	0xc3
 1720 07e1 00       		.byte	0
 1721 07e2 06       		.uleb128 0x6
 1722 07e3 53000000 		.4byte	.LASF126
 1723 07e7 0D       		.byte	0xd
 1724 07e8 F9       		.byte	0xf9
 1725 07e9 C3000000 		.4byte	0xc3
 1726 07ed 04       		.byte	0x4
 1727 07ee 06       		.uleb128 0x6
 1728 07ef 3C020000 		.4byte	.LASF127
 1729 07f3 0D       		.byte	0xd
 1730 07f4 FB       		.byte	0xfb
 1731 07f5 C3000000 		.4byte	0xc3
 1732 07f9 08       		.byte	0x8
 1733 07fa 06       		.uleb128 0x6
 1734 07fb DB050000 		.4byte	.LASF128
 1735 07ff 0D       		.byte	0xd
 1736 0800 FD       		.byte	0xfd
 1737 0801 C3000000 		.4byte	0xc3
 1738 0805 0C       		.byte	0xc
 1739 0806 12       		.uleb128 0x12
 1740 0807 6F647200 		.ascii	"odr\000"
 1741 080b 0D       		.byte	0xd
 1742 080c FF       		.byte	0xff
 1743 080d C3000000 		.4byte	0xc3
 1744 0811 10       		.byte	0x10
 1745 0812 08       		.uleb128 0x8
 1746 0813 CF030000 		.4byte	.LASF129
 1747 0817 0D       		.byte	0xd
 1748 0818 0101     		.2byte	0x101
 1749 081a C3000000 		.4byte	0xc3
 1750 081e 14       		.byte	0x14
ARM GAS  /tmp/ccBNwNOj.s 			page 52


 1751 081f 08       		.uleb128 0x8
 1752 0820 40030000 		.4byte	.LASF130
 1753 0824 0D       		.byte	0xd
 1754 0825 0301     		.2byte	0x103
 1755 0827 C3000000 		.4byte	0xc3
 1756 082b 18       		.byte	0x18
 1757 082c 00       		.byte	0
 1758 082d 11       		.uleb128 0x11
 1759 082e 00000000 		.4byte	.LASF131
 1760 0832 0D       		.byte	0xd
 1761 0833 0401     		.2byte	0x104
 1762 0835 CE070000 		.4byte	0x7ce
 1763 0839 10       		.uleb128 0x10
 1764 083a A8       		.byte	0xa8
 1765 083b 0D       		.byte	0xd
 1766 083c 0D01     		.2byte	0x10d
 1767 083e 91080000 		.4byte	0x891
 1768 0842 08       		.uleb128 0x8
 1769 0843 F7030000 		.4byte	.LASF132
 1770 0847 0D       		.byte	0xd
 1771 0848 1001     		.2byte	0x110
 1772 084a 2D080000 		.4byte	0x82d
 1773 084e 00       		.byte	0
 1774 084f 08       		.uleb128 0x8
 1775 0850 EA010000 		.4byte	.LASF133
 1776 0854 0D       		.byte	0xd
 1777 0855 1401     		.2byte	0x114
 1778 0857 2D080000 		.4byte	0x82d
 1779 085b 1C       		.byte	0x1c
 1780 085c 08       		.uleb128 0x8
 1781 085d CF060000 		.4byte	.LASF134
 1782 0861 0D       		.byte	0xd
 1783 0862 1801     		.2byte	0x118
 1784 0864 2D080000 		.4byte	0x82d
 1785 0868 38       		.byte	0x38
 1786 0869 08       		.uleb128 0x8
 1787 086a 4D030000 		.4byte	.LASF135
 1788 086e 0D       		.byte	0xd
 1789 086f 1C01     		.2byte	0x11c
 1790 0871 2D080000 		.4byte	0x82d
 1791 0875 54       		.byte	0x54
 1792 0876 08       		.uleb128 0x8
 1793 0877 68010000 		.4byte	.LASF136
 1794 087b 0D       		.byte	0xd
 1795 087c 2001     		.2byte	0x120
 1796 087e 2D080000 		.4byte	0x82d
 1797 0882 70       		.byte	0x70
 1798 0883 08       		.uleb128 0x8
 1799 0884 62020000 		.4byte	.LASF137
 1800 0888 0D       		.byte	0xd
 1801 0889 2401     		.2byte	0x124
 1802 088b 2D080000 		.4byte	0x82d
 1803 088f 8C       		.byte	0x8c
 1804 0890 00       		.byte	0
 1805 0891 11       		.uleb128 0x11
 1806 0892 E4060000 		.4byte	.LASF138
 1807 0896 0D       		.byte	0xd
ARM GAS  /tmp/ccBNwNOj.s 			page 53


 1808 0897 3A01     		.2byte	0x13a
 1809 0899 39080000 		.4byte	0x839
 1810 089d 11       		.uleb128 0x11
 1811 089e 5A000000 		.4byte	.LASF139
 1812 08a2 0D       		.byte	0xd
 1813 08a3 3F01     		.2byte	0x13f
 1814 08a5 C3000000 		.4byte	0xc3
 1815 08a9 11       		.uleb128 0x11
 1816 08aa DB060000 		.4byte	.LASF140
 1817 08ae 0D       		.byte	0xd
 1818 08af 4401     		.2byte	0x144
 1819 08b1 C3000000 		.4byte	0xc3
 1820 08b5 11       		.uleb128 0x11
 1821 08b6 4E050000 		.4byte	.LASF141
 1822 08ba 0D       		.byte	0xd
 1823 08bb 5101     		.2byte	0x151
 1824 08bd C1080000 		.4byte	0x8c1
 1825 08c1 09       		.uleb128 0x9
 1826 08c2 04       		.byte	0x4
 1827 08c3 C3070000 		.4byte	0x7c3
 1828 08c7 1A       		.uleb128 0x1a
 1829 08c8 2C050000 		.4byte	.LASF155
 1830 08cc 01       		.byte	0x1
 1831 08cd 3D       		.byte	0x3d
 1832 08ce 01       		.byte	0x1
 1833 08cf EA080000 		.4byte	0x8ea
 1834 08d3 1B       		.uleb128 0x1b
 1835 08d4 0D040000 		.4byte	.LASF142
 1836 08d8 01       		.byte	0x1
 1837 08d9 3D       		.byte	0x3d
 1838 08da C1080000 		.4byte	0x8c1
 1839 08de 1B       		.uleb128 0x1b
 1840 08df E1040000 		.4byte	.LASF143
 1841 08e3 01       		.byte	0x1
 1842 08e4 3D       		.byte	0x3d
 1843 08e5 EA080000 		.4byte	0x8ea
 1844 08e9 00       		.byte	0
 1845 08ea 09       		.uleb128 0x9
 1846 08eb 04       		.byte	0x4
 1847 08ec F0080000 		.4byte	0x8f0
 1848 08f0 16       		.uleb128 0x16
 1849 08f1 2D080000 		.4byte	0x82d
 1850 08f5 1C       		.uleb128 0x1c
 1851 08f6 AE050000 		.4byte	.LASF144
 1852 08fa 01       		.byte	0x1
 1853 08fb 58       		.byte	0x58
 1854 08fc 00000000 		.4byte	.LFB273
 1855 0900 F4000000 		.4byte	.LFE273-.LFB273
 1856 0904 01       		.uleb128 0x1
 1857 0905 9C       		.byte	0x9c
 1858 0906 F9090000 		.4byte	0x9f9
 1859 090a 1D       		.uleb128 0x1d
 1860 090b E1040000 		.4byte	.LASF143
 1861 090f 01       		.byte	0x1
 1862 0910 58       		.byte	0x58
 1863 0911 F9090000 		.4byte	0x9f9
 1864 0915 01       		.uleb128 0x1
ARM GAS  /tmp/ccBNwNOj.s 			page 54


 1865 0916 50       		.byte	0x50
 1866 0917 1E       		.uleb128 0x1e
 1867 0918 C7080000 		.4byte	0x8c7
 1868 091c 04000000 		.4byte	.LBB14
 1869 0920 00000000 		.4byte	.Ldebug_ranges0+0
 1870 0924 01       		.byte	0x1
 1871 0925 73       		.byte	0x73
 1872 0926 3D090000 		.4byte	0x93d
 1873 092a 1F       		.uleb128 0x1f
 1874 092b DE080000 		.4byte	0x8de
 1875 092f 03       		.uleb128 0x3
 1876 0930 70       		.byte	0x70
 1877 0931 1C       		.sleb128 28
 1878 0932 9F       		.byte	0x9f
 1879 0933 20       		.uleb128 0x20
 1880 0934 D3080000 		.4byte	0x8d3
 1881 0938 00040048 		.4byte	0x48000400
 1882 093c 00       		.byte	0
 1883 093d 1E       		.uleb128 0x1e
 1884 093e C7080000 		.4byte	0x8c7
 1885 0942 08000000 		.4byte	.LBB17
 1886 0946 18000000 		.4byte	.Ldebug_ranges0+0x18
 1887 094a 01       		.byte	0x1
 1888 094b 76       		.byte	0x76
 1889 094c 63090000 		.4byte	0x963
 1890 0950 1F       		.uleb128 0x1f
 1891 0951 DE080000 		.4byte	0x8de
 1892 0955 03       		.uleb128 0x3
 1893 0956 70       		.byte	0x70
 1894 0957 38       		.sleb128 56
 1895 0958 9F       		.byte	0x9f
 1896 0959 20       		.uleb128 0x20
 1897 095a D3080000 		.4byte	0x8d3
 1898 095e 00080048 		.4byte	0x48000800
 1899 0962 00       		.byte	0
 1900 0963 1E       		.uleb128 0x1e
 1901 0964 C7080000 		.4byte	0x8c7
 1902 0968 0A000000 		.4byte	.LBB20
 1903 096c 30000000 		.4byte	.Ldebug_ranges0+0x30
 1904 0970 01       		.byte	0x1
 1905 0971 79       		.byte	0x79
 1906 0972 8A090000 		.4byte	0x98a
 1907 0976 1F       		.uleb128 0x1f
 1908 0977 DE080000 		.4byte	0x8de
 1909 097b 04       		.uleb128 0x4
 1910 097c 70       		.byte	0x70
 1911 097d D400     		.sleb128 84
 1912 097f 9F       		.byte	0x9f
 1913 0980 20       		.uleb128 0x20
 1914 0981 D3080000 		.4byte	0x8d3
 1915 0985 000C0048 		.4byte	0x48000c00
 1916 0989 00       		.byte	0
 1917 098a 1E       		.uleb128 0x1e
 1918 098b C7080000 		.4byte	0x8c7
 1919 098f 0C000000 		.4byte	.LBB23
 1920 0993 48000000 		.4byte	.Ldebug_ranges0+0x48
 1921 0997 01       		.byte	0x1
ARM GAS  /tmp/ccBNwNOj.s 			page 55


 1922 0998 7C       		.byte	0x7c
 1923 0999 B1090000 		.4byte	0x9b1
 1924 099d 1F       		.uleb128 0x1f
 1925 099e DE080000 		.4byte	0x8de
 1926 09a2 04       		.uleb128 0x4
 1927 09a3 70       		.byte	0x70
 1928 09a4 F000     		.sleb128 112
 1929 09a6 9F       		.byte	0x9f
 1930 09a7 20       		.uleb128 0x20
 1931 09a8 D3080000 		.4byte	0x8d3
 1932 09ac 00100048 		.4byte	0x48001000
 1933 09b0 00       		.byte	0
 1934 09b1 1E       		.uleb128 0x1e
 1935 09b2 C7080000 		.4byte	0x8c7
 1936 09b6 0E000000 		.4byte	.LBB26
 1937 09ba 60000000 		.4byte	.Ldebug_ranges0+0x60
 1938 09be 01       		.byte	0x1
 1939 09bf 7F       		.byte	0x7f
 1940 09c0 D8090000 		.4byte	0x9d8
 1941 09c4 1F       		.uleb128 0x1f
 1942 09c5 DE080000 		.4byte	0x8de
 1943 09c9 04       		.uleb128 0x4
 1944 09ca 70       		.byte	0x70
 1945 09cb 8C01     		.sleb128 140
 1946 09cd 9F       		.byte	0x9f
 1947 09ce 20       		.uleb128 0x20
 1948 09cf D3080000 		.4byte	0x8d3
 1949 09d3 00140048 		.4byte	0x48001400
 1950 09d7 00       		.byte	0
 1951 09d8 21       		.uleb128 0x21
 1952 09d9 C7080000 		.4byte	0x8c7
 1953 09dd 16000000 		.4byte	.LBB29
 1954 09e1 20000000 		.4byte	.LBE29-.LBB29
 1955 09e5 01       		.byte	0x1
 1956 09e6 70       		.byte	0x70
 1957 09e7 1F       		.uleb128 0x1f
 1958 09e8 DE080000 		.4byte	0x8de
 1959 09ec 01       		.uleb128 0x1
 1960 09ed 50       		.byte	0x50
 1961 09ee 20       		.uleb128 0x20
 1962 09ef D3080000 		.4byte	0x8d3
 1963 09f3 00000048 		.4byte	0x48000000
 1964 09f7 00       		.byte	0
 1965 09f8 00       		.byte	0
 1966 09f9 09       		.uleb128 0x9
 1967 09fa 04       		.byte	0x4
 1968 09fb FF090000 		.4byte	0x9ff
 1969 09ff 16       		.uleb128 0x16
 1970 0a00 91080000 		.4byte	0x891
 1971 0a04 1C       		.uleb128 0x1c
 1972 0a05 69050000 		.4byte	.LASF145
 1973 0a09 01       		.byte	0x1
 1974 0a0a 9F       		.byte	0x9f
 1975 0a0b 00000000 		.4byte	.LFB274
 1976 0a0f C8000000 		.4byte	.LFE274-.LFB274
 1977 0a13 01       		.uleb128 0x1
 1978 0a14 9C       		.byte	0x9c
ARM GAS  /tmp/ccBNwNOj.s 			page 56


 1979 0a15 DC0A0000 		.4byte	0xadc
 1980 0a19 1D       		.uleb128 0x1d
 1981 0a1a DD010000 		.4byte	.LASF146
 1982 0a1e 01       		.byte	0x1
 1983 0a1f 9F       		.byte	0x9f
 1984 0a20 B5080000 		.4byte	0x8b5
 1985 0a24 01       		.uleb128 0x1
 1986 0a25 50       		.byte	0x50
 1987 0a26 22       		.uleb128 0x22
 1988 0a27 B3010000 		.4byte	.LASF147
 1989 0a2b 01       		.byte	0x1
 1990 0a2c A0       		.byte	0xa0
 1991 0a2d 9D080000 		.4byte	0x89d
 1992 0a31 00000000 		.4byte	.LLST0
 1993 0a35 22       		.uleb128 0x22
 1994 0a36 DC040000 		.4byte	.LASF148
 1995 0a3a 01       		.byte	0x1
 1996 0a3b A1       		.byte	0xa1
 1997 0a3c A9080000 		.4byte	0x8a9
 1998 0a40 2D000000 		.4byte	.LLST1
 1999 0a44 23       		.uleb128 0x23
 2000 0a45 43010000 		.4byte	.LASF125
 2001 0a49 01       		.byte	0x1
 2002 0a4a A3       		.byte	0xa3
 2003 0a4b C3000000 		.4byte	0xc3
 2004 0a4f 4E000000 		.4byte	.LLST2
 2005 0a53 23       		.uleb128 0x23
 2006 0a54 53000000 		.4byte	.LASF126
 2007 0a58 01       		.byte	0x1
 2008 0a59 A4       		.byte	0xa4
 2009 0a5a C3000000 		.4byte	0xc3
 2010 0a5e 61000000 		.4byte	.LLST3
 2011 0a62 23       		.uleb128 0x23
 2012 0a63 3C020000 		.4byte	.LASF127
 2013 0a67 01       		.byte	0x1
 2014 0a68 A5       		.byte	0xa5
 2015 0a69 C3000000 		.4byte	0xc3
 2016 0a6d 74000000 		.4byte	.LLST4
 2017 0a71 23       		.uleb128 0x23
 2018 0a72 DB050000 		.4byte	.LASF128
 2019 0a76 01       		.byte	0x1
 2020 0a77 A6       		.byte	0xa6
 2021 0a78 C3000000 		.4byte	0xc3
 2022 0a7c 87000000 		.4byte	.LLST5
 2023 0a80 24       		.uleb128 0x24
 2024 0a81 D2040000 		.4byte	.LASF149
 2025 0a85 01       		.byte	0x1
 2026 0a86 A7       		.byte	0xa7
 2027 0a87 C3000000 		.4byte	0xc3
 2028 0a8b 01       		.uleb128 0x1
 2029 0a8c 52       		.byte	0x52
 2030 0a8d 25       		.uleb128 0x25
 2031 0a8e 62697400 		.ascii	"bit\000"
 2032 0a92 01       		.byte	0x1
 2033 0a93 A8       		.byte	0xa8
 2034 0a94 C3000000 		.4byte	0xc3
 2035 0a98 9A000000 		.4byte	.LLST6
ARM GAS  /tmp/ccBNwNOj.s 			page 57


 2036 0a9c 26       		.uleb128 0x26
 2037 0a9d 78000000 		.4byte	.Ldebug_ranges0+0x78
 2038 0aa1 23       		.uleb128 0x23
 2039 0aa2 8A010000 		.4byte	.LASF150
 2040 0aa6 01       		.byte	0x1
 2041 0aa7 AB       		.byte	0xab
 2042 0aa8 C3000000 		.4byte	0xc3
 2043 0aac B9000000 		.4byte	.LLST7
 2044 0ab0 25       		.uleb128 0x25
 2045 0ab1 6D3100   		.ascii	"m1\000"
 2046 0ab4 01       		.byte	0x1
 2047 0ab5 AB       		.byte	0xab
 2048 0ab6 C3000000 		.4byte	0xc3
 2049 0aba FF000000 		.4byte	.LLST8
 2050 0abe 25       		.uleb128 0x25
 2051 0abf 6D3200   		.ascii	"m2\000"
 2052 0ac2 01       		.byte	0x1
 2053 0ac3 AB       		.byte	0xab
 2054 0ac4 C3000000 		.4byte	0xc3
 2055 0ac8 16010000 		.4byte	.LLST9
 2056 0acc 25       		.uleb128 0x25
 2057 0acd 6D3400   		.ascii	"m4\000"
 2058 0ad0 01       		.byte	0x1
 2059 0ad1 AB       		.byte	0xab
 2060 0ad2 C3000000 		.4byte	0xc3
 2061 0ad6 59010000 		.4byte	.LLST10
 2062 0ada 00       		.byte	0
 2063 0adb 00       		.byte	0
 2064 0adc 27       		.uleb128 0x27
 2065 0add BC000000 		.4byte	.LASF151
 2066 0ae1 0E       		.byte	0xe
 2067 0ae2 FA06     		.2byte	0x6fa
 2068 0ae4 E80A0000 		.4byte	0xae8
 2069 0ae8 0F       		.uleb128 0xf
 2070 0ae9 B8000000 		.4byte	0xb8
 2071 0aed 28       		.uleb128 0x28
 2072 0aee 636800   		.ascii	"ch\000"
 2073 0af1 06       		.byte	0x6
 2074 0af2 0B02     		.2byte	0x20b
 2075 0af4 DE030000 		.4byte	0x3de
 2076 0af8 00       		.byte	0
 2077              		.section	.debug_abbrev,"",%progbits
 2078              	.Ldebug_abbrev0:
 2079 0000 01       		.uleb128 0x1
 2080 0001 11       		.uleb128 0x11
 2081 0002 01       		.byte	0x1
 2082 0003 25       		.uleb128 0x25
 2083 0004 0E       		.uleb128 0xe
 2084 0005 13       		.uleb128 0x13
 2085 0006 0B       		.uleb128 0xb
 2086 0007 03       		.uleb128 0x3
 2087 0008 0E       		.uleb128 0xe
 2088 0009 1B       		.uleb128 0x1b
 2089 000a 0E       		.uleb128 0xe
 2090 000b 55       		.uleb128 0x55
 2091 000c 17       		.uleb128 0x17
 2092 000d 11       		.uleb128 0x11
ARM GAS  /tmp/ccBNwNOj.s 			page 58


 2093 000e 01       		.uleb128 0x1
 2094 000f 10       		.uleb128 0x10
 2095 0010 17       		.uleb128 0x17
 2096 0011 00       		.byte	0
 2097 0012 00       		.byte	0
 2098 0013 02       		.uleb128 0x2
 2099 0014 24       		.uleb128 0x24
 2100 0015 00       		.byte	0
 2101 0016 0B       		.uleb128 0xb
 2102 0017 0B       		.uleb128 0xb
 2103 0018 3E       		.uleb128 0x3e
 2104 0019 0B       		.uleb128 0xb
 2105 001a 03       		.uleb128 0x3
 2106 001b 08       		.uleb128 0x8
 2107 001c 00       		.byte	0
 2108 001d 00       		.byte	0
 2109 001e 03       		.uleb128 0x3
 2110 001f 24       		.uleb128 0x24
 2111 0020 00       		.byte	0
 2112 0021 0B       		.uleb128 0xb
 2113 0022 0B       		.uleb128 0xb
 2114 0023 3E       		.uleb128 0x3e
 2115 0024 0B       		.uleb128 0xb
 2116 0025 03       		.uleb128 0x3
 2117 0026 0E       		.uleb128 0xe
 2118 0027 00       		.byte	0
 2119 0028 00       		.byte	0
 2120 0029 04       		.uleb128 0x4
 2121 002a 16       		.uleb128 0x16
 2122 002b 00       		.byte	0
 2123 002c 03       		.uleb128 0x3
 2124 002d 0E       		.uleb128 0xe
 2125 002e 3A       		.uleb128 0x3a
 2126 002f 0B       		.uleb128 0xb
 2127 0030 3B       		.uleb128 0x3b
 2128 0031 0B       		.uleb128 0xb
 2129 0032 49       		.uleb128 0x49
 2130 0033 13       		.uleb128 0x13
 2131 0034 00       		.byte	0
 2132 0035 00       		.byte	0
 2133 0036 05       		.uleb128 0x5
 2134 0037 13       		.uleb128 0x13
 2135 0038 01       		.byte	0x1
 2136 0039 03       		.uleb128 0x3
 2137 003a 0E       		.uleb128 0xe
 2138 003b 0B       		.uleb128 0xb
 2139 003c 0B       		.uleb128 0xb
 2140 003d 3A       		.uleb128 0x3a
 2141 003e 0B       		.uleb128 0xb
 2142 003f 3B       		.uleb128 0x3b
 2143 0040 0B       		.uleb128 0xb
 2144 0041 01       		.uleb128 0x1
 2145 0042 13       		.uleb128 0x13
 2146 0043 00       		.byte	0
 2147 0044 00       		.byte	0
 2148 0045 06       		.uleb128 0x6
 2149 0046 0D       		.uleb128 0xd
ARM GAS  /tmp/ccBNwNOj.s 			page 59


 2150 0047 00       		.byte	0
 2151 0048 03       		.uleb128 0x3
 2152 0049 0E       		.uleb128 0xe
 2153 004a 3A       		.uleb128 0x3a
 2154 004b 0B       		.uleb128 0xb
 2155 004c 3B       		.uleb128 0x3b
 2156 004d 0B       		.uleb128 0xb
 2157 004e 49       		.uleb128 0x49
 2158 004f 13       		.uleb128 0x13
 2159 0050 38       		.uleb128 0x38
 2160 0051 0B       		.uleb128 0xb
 2161 0052 00       		.byte	0
 2162 0053 00       		.byte	0
 2163 0054 07       		.uleb128 0x7
 2164 0055 0D       		.uleb128 0xd
 2165 0056 00       		.byte	0
 2166 0057 03       		.uleb128 0x3
 2167 0058 08       		.uleb128 0x8
 2168 0059 3A       		.uleb128 0x3a
 2169 005a 0B       		.uleb128 0xb
 2170 005b 3B       		.uleb128 0x3b
 2171 005c 05       		.uleb128 0x5
 2172 005d 49       		.uleb128 0x49
 2173 005e 13       		.uleb128 0x13
 2174 005f 38       		.uleb128 0x38
 2175 0060 0B       		.uleb128 0xb
 2176 0061 00       		.byte	0
 2177 0062 00       		.byte	0
 2178 0063 08       		.uleb128 0x8
 2179 0064 0D       		.uleb128 0xd
 2180 0065 00       		.byte	0
 2181 0066 03       		.uleb128 0x3
 2182 0067 0E       		.uleb128 0xe
 2183 0068 3A       		.uleb128 0x3a
 2184 0069 0B       		.uleb128 0xb
 2185 006a 3B       		.uleb128 0x3b
 2186 006b 05       		.uleb128 0x5
 2187 006c 49       		.uleb128 0x49
 2188 006d 13       		.uleb128 0x13
 2189 006e 38       		.uleb128 0x38
 2190 006f 0B       		.uleb128 0xb
 2191 0070 00       		.byte	0
 2192 0071 00       		.byte	0
 2193 0072 09       		.uleb128 0x9
 2194 0073 0F       		.uleb128 0xf
 2195 0074 00       		.byte	0
 2196 0075 0B       		.uleb128 0xb
 2197 0076 0B       		.uleb128 0xb
 2198 0077 49       		.uleb128 0x49
 2199 0078 13       		.uleb128 0x13
 2200 0079 00       		.byte	0
 2201 007a 00       		.byte	0
 2202 007b 0A       		.uleb128 0xa
 2203 007c 13       		.uleb128 0x13
 2204 007d 01       		.byte	0x1
 2205 007e 03       		.uleb128 0x3
 2206 007f 0E       		.uleb128 0xe
ARM GAS  /tmp/ccBNwNOj.s 			page 60


 2207 0080 0B       		.uleb128 0xb
 2208 0081 0B       		.uleb128 0xb
 2209 0082 3A       		.uleb128 0x3a
 2210 0083 0B       		.uleb128 0xb
 2211 0084 3B       		.uleb128 0x3b
 2212 0085 05       		.uleb128 0x5
 2213 0086 01       		.uleb128 0x1
 2214 0087 13       		.uleb128 0x13
 2215 0088 00       		.byte	0
 2216 0089 00       		.byte	0
 2217 008a 0B       		.uleb128 0xb
 2218 008b 15       		.uleb128 0x15
 2219 008c 01       		.byte	0x1
 2220 008d 27       		.uleb128 0x27
 2221 008e 19       		.uleb128 0x19
 2222 008f 01       		.uleb128 0x1
 2223 0090 13       		.uleb128 0x13
 2224 0091 00       		.byte	0
 2225 0092 00       		.byte	0
 2226 0093 0C       		.uleb128 0xc
 2227 0094 05       		.uleb128 0x5
 2228 0095 00       		.byte	0
 2229 0096 49       		.uleb128 0x49
 2230 0097 13       		.uleb128 0x13
 2231 0098 00       		.byte	0
 2232 0099 00       		.byte	0
 2233 009a 0D       		.uleb128 0xd
 2234 009b 0F       		.uleb128 0xf
 2235 009c 00       		.byte	0
 2236 009d 0B       		.uleb128 0xb
 2237 009e 0B       		.uleb128 0xb
 2238 009f 00       		.byte	0
 2239 00a0 00       		.byte	0
 2240 00a1 0E       		.uleb128 0xe
 2241 00a2 13       		.uleb128 0x13
 2242 00a3 01       		.byte	0x1
 2243 00a4 03       		.uleb128 0x3
 2244 00a5 0E       		.uleb128 0xe
 2245 00a6 0B       		.uleb128 0xb
 2246 00a7 05       		.uleb128 0x5
 2247 00a8 3A       		.uleb128 0x3a
 2248 00a9 0B       		.uleb128 0xb
 2249 00aa 3B       		.uleb128 0x3b
 2250 00ab 05       		.uleb128 0x5
 2251 00ac 01       		.uleb128 0x1
 2252 00ad 13       		.uleb128 0x13
 2253 00ae 00       		.byte	0
 2254 00af 00       		.byte	0
 2255 00b0 0F       		.uleb128 0xf
 2256 00b1 35       		.uleb128 0x35
 2257 00b2 00       		.byte	0
 2258 00b3 49       		.uleb128 0x49
 2259 00b4 13       		.uleb128 0x13
 2260 00b5 00       		.byte	0
 2261 00b6 00       		.byte	0
 2262 00b7 10       		.uleb128 0x10
 2263 00b8 13       		.uleb128 0x13
ARM GAS  /tmp/ccBNwNOj.s 			page 61


 2264 00b9 01       		.byte	0x1
 2265 00ba 0B       		.uleb128 0xb
 2266 00bb 0B       		.uleb128 0xb
 2267 00bc 3A       		.uleb128 0x3a
 2268 00bd 0B       		.uleb128 0xb
 2269 00be 3B       		.uleb128 0x3b
 2270 00bf 05       		.uleb128 0x5
 2271 00c0 01       		.uleb128 0x1
 2272 00c1 13       		.uleb128 0x13
 2273 00c2 00       		.byte	0
 2274 00c3 00       		.byte	0
 2275 00c4 11       		.uleb128 0x11
 2276 00c5 16       		.uleb128 0x16
 2277 00c6 00       		.byte	0
 2278 00c7 03       		.uleb128 0x3
 2279 00c8 0E       		.uleb128 0xe
 2280 00c9 3A       		.uleb128 0x3a
 2281 00ca 0B       		.uleb128 0xb
 2282 00cb 3B       		.uleb128 0x3b
 2283 00cc 05       		.uleb128 0x5
 2284 00cd 49       		.uleb128 0x49
 2285 00ce 13       		.uleb128 0x13
 2286 00cf 00       		.byte	0
 2287 00d0 00       		.byte	0
 2288 00d1 12       		.uleb128 0x12
 2289 00d2 0D       		.uleb128 0xd
 2290 00d3 00       		.byte	0
 2291 00d4 03       		.uleb128 0x3
 2292 00d5 08       		.uleb128 0x8
 2293 00d6 3A       		.uleb128 0x3a
 2294 00d7 0B       		.uleb128 0xb
 2295 00d8 3B       		.uleb128 0x3b
 2296 00d9 0B       		.uleb128 0xb
 2297 00da 49       		.uleb128 0x49
 2298 00db 13       		.uleb128 0x13
 2299 00dc 38       		.uleb128 0x38
 2300 00dd 0B       		.uleb128 0xb
 2301 00de 00       		.byte	0
 2302 00df 00       		.byte	0
 2303 00e0 13       		.uleb128 0x13
 2304 00e1 13       		.uleb128 0x13
 2305 00e2 01       		.byte	0x1
 2306 00e3 0B       		.uleb128 0xb
 2307 00e4 0B       		.uleb128 0xb
 2308 00e5 3A       		.uleb128 0x3a
 2309 00e6 0B       		.uleb128 0xb
 2310 00e7 3B       		.uleb128 0x3b
 2311 00e8 0B       		.uleb128 0xb
 2312 00e9 01       		.uleb128 0x1
 2313 00ea 13       		.uleb128 0x13
 2314 00eb 00       		.byte	0
 2315 00ec 00       		.byte	0
 2316 00ed 14       		.uleb128 0x14
 2317 00ee 17       		.uleb128 0x17
 2318 00ef 01       		.byte	0x1
 2319 00f0 0B       		.uleb128 0xb
 2320 00f1 0B       		.uleb128 0xb
ARM GAS  /tmp/ccBNwNOj.s 			page 62


 2321 00f2 3A       		.uleb128 0x3a
 2322 00f3 0B       		.uleb128 0xb
 2323 00f4 3B       		.uleb128 0x3b
 2324 00f5 0B       		.uleb128 0xb
 2325 00f6 01       		.uleb128 0x1
 2326 00f7 13       		.uleb128 0x13
 2327 00f8 00       		.byte	0
 2328 00f9 00       		.byte	0
 2329 00fa 15       		.uleb128 0x15
 2330 00fb 0D       		.uleb128 0xd
 2331 00fc 00       		.byte	0
 2332 00fd 03       		.uleb128 0x3
 2333 00fe 0E       		.uleb128 0xe
 2334 00ff 3A       		.uleb128 0x3a
 2335 0100 0B       		.uleb128 0xb
 2336 0101 3B       		.uleb128 0x3b
 2337 0102 05       		.uleb128 0x5
 2338 0103 49       		.uleb128 0x49
 2339 0104 13       		.uleb128 0x13
 2340 0105 00       		.byte	0
 2341 0106 00       		.byte	0
 2342 0107 16       		.uleb128 0x16
 2343 0108 26       		.uleb128 0x26
 2344 0109 00       		.byte	0
 2345 010a 49       		.uleb128 0x49
 2346 010b 13       		.uleb128 0x13
 2347 010c 00       		.byte	0
 2348 010d 00       		.byte	0
 2349 010e 17       		.uleb128 0x17
 2350 010f 01       		.uleb128 0x1
 2351 0110 01       		.byte	0x1
 2352 0111 49       		.uleb128 0x49
 2353 0112 13       		.uleb128 0x13
 2354 0113 01       		.uleb128 0x1
 2355 0114 13       		.uleb128 0x13
 2356 0115 00       		.byte	0
 2357 0116 00       		.byte	0
 2358 0117 18       		.uleb128 0x18
 2359 0118 21       		.uleb128 0x21
 2360 0119 00       		.byte	0
 2361 011a 49       		.uleb128 0x49
 2362 011b 13       		.uleb128 0x13
 2363 011c 2F       		.uleb128 0x2f
 2364 011d 0B       		.uleb128 0xb
 2365 011e 00       		.byte	0
 2366 011f 00       		.byte	0
 2367 0120 19       		.uleb128 0x19
 2368 0121 0D       		.uleb128 0xd
 2369 0122 00       		.byte	0
 2370 0123 03       		.uleb128 0x3
 2371 0124 08       		.uleb128 0x8
 2372 0125 3A       		.uleb128 0x3a
 2373 0126 0B       		.uleb128 0xb
 2374 0127 3B       		.uleb128 0x3b
 2375 0128 0B       		.uleb128 0xb
 2376 0129 49       		.uleb128 0x49
 2377 012a 13       		.uleb128 0x13
ARM GAS  /tmp/ccBNwNOj.s 			page 63


 2378 012b 00       		.byte	0
 2379 012c 00       		.byte	0
 2380 012d 1A       		.uleb128 0x1a
 2381 012e 2E       		.uleb128 0x2e
 2382 012f 01       		.byte	0x1
 2383 0130 03       		.uleb128 0x3
 2384 0131 0E       		.uleb128 0xe
 2385 0132 3A       		.uleb128 0x3a
 2386 0133 0B       		.uleb128 0xb
 2387 0134 3B       		.uleb128 0x3b
 2388 0135 0B       		.uleb128 0xb
 2389 0136 27       		.uleb128 0x27
 2390 0137 19       		.uleb128 0x19
 2391 0138 20       		.uleb128 0x20
 2392 0139 0B       		.uleb128 0xb
 2393 013a 01       		.uleb128 0x1
 2394 013b 13       		.uleb128 0x13
 2395 013c 00       		.byte	0
 2396 013d 00       		.byte	0
 2397 013e 1B       		.uleb128 0x1b
 2398 013f 05       		.uleb128 0x5
 2399 0140 00       		.byte	0
 2400 0141 03       		.uleb128 0x3
 2401 0142 0E       		.uleb128 0xe
 2402 0143 3A       		.uleb128 0x3a
 2403 0144 0B       		.uleb128 0xb
 2404 0145 3B       		.uleb128 0x3b
 2405 0146 0B       		.uleb128 0xb
 2406 0147 49       		.uleb128 0x49
 2407 0148 13       		.uleb128 0x13
 2408 0149 00       		.byte	0
 2409 014a 00       		.byte	0
 2410 014b 1C       		.uleb128 0x1c
 2411 014c 2E       		.uleb128 0x2e
 2412 014d 01       		.byte	0x1
 2413 014e 3F       		.uleb128 0x3f
 2414 014f 19       		.uleb128 0x19
 2415 0150 03       		.uleb128 0x3
 2416 0151 0E       		.uleb128 0xe
 2417 0152 3A       		.uleb128 0x3a
 2418 0153 0B       		.uleb128 0xb
 2419 0154 3B       		.uleb128 0x3b
 2420 0155 0B       		.uleb128 0xb
 2421 0156 27       		.uleb128 0x27
 2422 0157 19       		.uleb128 0x19
 2423 0158 11       		.uleb128 0x11
 2424 0159 01       		.uleb128 0x1
 2425 015a 12       		.uleb128 0x12
 2426 015b 06       		.uleb128 0x6
 2427 015c 40       		.uleb128 0x40
 2428 015d 18       		.uleb128 0x18
 2429 015e 9742     		.uleb128 0x2117
 2430 0160 19       		.uleb128 0x19
 2431 0161 01       		.uleb128 0x1
 2432 0162 13       		.uleb128 0x13
 2433 0163 00       		.byte	0
 2434 0164 00       		.byte	0
ARM GAS  /tmp/ccBNwNOj.s 			page 64


 2435 0165 1D       		.uleb128 0x1d
 2436 0166 05       		.uleb128 0x5
 2437 0167 00       		.byte	0
 2438 0168 03       		.uleb128 0x3
 2439 0169 0E       		.uleb128 0xe
 2440 016a 3A       		.uleb128 0x3a
 2441 016b 0B       		.uleb128 0xb
 2442 016c 3B       		.uleb128 0x3b
 2443 016d 0B       		.uleb128 0xb
 2444 016e 49       		.uleb128 0x49
 2445 016f 13       		.uleb128 0x13
 2446 0170 02       		.uleb128 0x2
 2447 0171 18       		.uleb128 0x18
 2448 0172 00       		.byte	0
 2449 0173 00       		.byte	0
 2450 0174 1E       		.uleb128 0x1e
 2451 0175 1D       		.uleb128 0x1d
 2452 0176 01       		.byte	0x1
 2453 0177 31       		.uleb128 0x31
 2454 0178 13       		.uleb128 0x13
 2455 0179 52       		.uleb128 0x52
 2456 017a 01       		.uleb128 0x1
 2457 017b 55       		.uleb128 0x55
 2458 017c 17       		.uleb128 0x17
 2459 017d 58       		.uleb128 0x58
 2460 017e 0B       		.uleb128 0xb
 2461 017f 59       		.uleb128 0x59
 2462 0180 0B       		.uleb128 0xb
 2463 0181 01       		.uleb128 0x1
 2464 0182 13       		.uleb128 0x13
 2465 0183 00       		.byte	0
 2466 0184 00       		.byte	0
 2467 0185 1F       		.uleb128 0x1f
 2468 0186 05       		.uleb128 0x5
 2469 0187 00       		.byte	0
 2470 0188 31       		.uleb128 0x31
 2471 0189 13       		.uleb128 0x13
 2472 018a 02       		.uleb128 0x2
 2473 018b 18       		.uleb128 0x18
 2474 018c 00       		.byte	0
 2475 018d 00       		.byte	0
 2476 018e 20       		.uleb128 0x20
 2477 018f 05       		.uleb128 0x5
 2478 0190 00       		.byte	0
 2479 0191 31       		.uleb128 0x31
 2480 0192 13       		.uleb128 0x13
 2481 0193 1C       		.uleb128 0x1c
 2482 0194 06       		.uleb128 0x6
 2483 0195 00       		.byte	0
 2484 0196 00       		.byte	0
 2485 0197 21       		.uleb128 0x21
 2486 0198 1D       		.uleb128 0x1d
 2487 0199 01       		.byte	0x1
 2488 019a 31       		.uleb128 0x31
 2489 019b 13       		.uleb128 0x13
 2490 019c 11       		.uleb128 0x11
 2491 019d 01       		.uleb128 0x1
ARM GAS  /tmp/ccBNwNOj.s 			page 65


 2492 019e 12       		.uleb128 0x12
 2493 019f 06       		.uleb128 0x6
 2494 01a0 58       		.uleb128 0x58
 2495 01a1 0B       		.uleb128 0xb
 2496 01a2 59       		.uleb128 0x59
 2497 01a3 0B       		.uleb128 0xb
 2498 01a4 00       		.byte	0
 2499 01a5 00       		.byte	0
 2500 01a6 22       		.uleb128 0x22
 2501 01a7 05       		.uleb128 0x5
 2502 01a8 00       		.byte	0
 2503 01a9 03       		.uleb128 0x3
 2504 01aa 0E       		.uleb128 0xe
 2505 01ab 3A       		.uleb128 0x3a
 2506 01ac 0B       		.uleb128 0xb
 2507 01ad 3B       		.uleb128 0x3b
 2508 01ae 0B       		.uleb128 0xb
 2509 01af 49       		.uleb128 0x49
 2510 01b0 13       		.uleb128 0x13
 2511 01b1 02       		.uleb128 0x2
 2512 01b2 17       		.uleb128 0x17
 2513 01b3 00       		.byte	0
 2514 01b4 00       		.byte	0
 2515 01b5 23       		.uleb128 0x23
 2516 01b6 34       		.uleb128 0x34
 2517 01b7 00       		.byte	0
 2518 01b8 03       		.uleb128 0x3
 2519 01b9 0E       		.uleb128 0xe
 2520 01ba 3A       		.uleb128 0x3a
 2521 01bb 0B       		.uleb128 0xb
 2522 01bc 3B       		.uleb128 0x3b
 2523 01bd 0B       		.uleb128 0xb
 2524 01be 49       		.uleb128 0x49
 2525 01bf 13       		.uleb128 0x13
 2526 01c0 02       		.uleb128 0x2
 2527 01c1 17       		.uleb128 0x17
 2528 01c2 00       		.byte	0
 2529 01c3 00       		.byte	0
 2530 01c4 24       		.uleb128 0x24
 2531 01c5 34       		.uleb128 0x34
 2532 01c6 00       		.byte	0
 2533 01c7 03       		.uleb128 0x3
 2534 01c8 0E       		.uleb128 0xe
 2535 01c9 3A       		.uleb128 0x3a
 2536 01ca 0B       		.uleb128 0xb
 2537 01cb 3B       		.uleb128 0x3b
 2538 01cc 0B       		.uleb128 0xb
 2539 01cd 49       		.uleb128 0x49
 2540 01ce 13       		.uleb128 0x13
 2541 01cf 02       		.uleb128 0x2
 2542 01d0 18       		.uleb128 0x18
 2543 01d1 00       		.byte	0
 2544 01d2 00       		.byte	0
 2545 01d3 25       		.uleb128 0x25
 2546 01d4 34       		.uleb128 0x34
 2547 01d5 00       		.byte	0
 2548 01d6 03       		.uleb128 0x3
ARM GAS  /tmp/ccBNwNOj.s 			page 66


 2549 01d7 08       		.uleb128 0x8
 2550 01d8 3A       		.uleb128 0x3a
 2551 01d9 0B       		.uleb128 0xb
 2552 01da 3B       		.uleb128 0x3b
 2553 01db 0B       		.uleb128 0xb
 2554 01dc 49       		.uleb128 0x49
 2555 01dd 13       		.uleb128 0x13
 2556 01de 02       		.uleb128 0x2
 2557 01df 17       		.uleb128 0x17
 2558 01e0 00       		.byte	0
 2559 01e1 00       		.byte	0
 2560 01e2 26       		.uleb128 0x26
 2561 01e3 0B       		.uleb128 0xb
 2562 01e4 01       		.byte	0x1
 2563 01e5 55       		.uleb128 0x55
 2564 01e6 17       		.uleb128 0x17
 2565 01e7 00       		.byte	0
 2566 01e8 00       		.byte	0
 2567 01e9 27       		.uleb128 0x27
 2568 01ea 34       		.uleb128 0x34
 2569 01eb 00       		.byte	0
 2570 01ec 03       		.uleb128 0x3
 2571 01ed 0E       		.uleb128 0xe
 2572 01ee 3A       		.uleb128 0x3a
 2573 01ef 0B       		.uleb128 0xb
 2574 01f0 3B       		.uleb128 0x3b
 2575 01f1 05       		.uleb128 0x5
 2576 01f2 49       		.uleb128 0x49
 2577 01f3 13       		.uleb128 0x13
 2578 01f4 3F       		.uleb128 0x3f
 2579 01f5 19       		.uleb128 0x19
 2580 01f6 3C       		.uleb128 0x3c
 2581 01f7 19       		.uleb128 0x19
 2582 01f8 00       		.byte	0
 2583 01f9 00       		.byte	0
 2584 01fa 28       		.uleb128 0x28
 2585 01fb 34       		.uleb128 0x34
 2586 01fc 00       		.byte	0
 2587 01fd 03       		.uleb128 0x3
 2588 01fe 08       		.uleb128 0x8
 2589 01ff 3A       		.uleb128 0x3a
 2590 0200 0B       		.uleb128 0xb
 2591 0201 3B       		.uleb128 0x3b
 2592 0202 05       		.uleb128 0x5
 2593 0203 49       		.uleb128 0x49
 2594 0204 13       		.uleb128 0x13
 2595 0205 3F       		.uleb128 0x3f
 2596 0206 19       		.uleb128 0x19
 2597 0207 3C       		.uleb128 0x3c
 2598 0208 19       		.uleb128 0x19
 2599 0209 00       		.byte	0
 2600 020a 00       		.byte	0
 2601 020b 00       		.byte	0
 2602              		.section	.debug_loc,"",%progbits
 2603              	.Ldebug_loc0:
 2604              	.LLST0:
 2605 0000 00000000 		.4byte	.LVL7
ARM GAS  /tmp/ccBNwNOj.s 			page 67


 2606 0004 88000000 		.4byte	.LVL21
 2607 0008 0100     		.2byte	0x1
 2608 000a 51       		.byte	0x51
 2609 000b 88000000 		.4byte	.LVL21
 2610 000f 8A000000 		.4byte	.LVL22
 2611 0013 0500     		.2byte	0x5
 2612 0015 71       		.byte	0x71
 2613 0016 00       		.sleb128 0
 2614 0017 31       		.byte	0x31
 2615 0018 25       		.byte	0x25
 2616 0019 9F       		.byte	0x9f
 2617 001a 8A000000 		.4byte	.LVL22
 2618 001e C8000000 		.4byte	.LFE274
 2619 0022 0100     		.2byte	0x1
 2620 0024 51       		.byte	0x51
 2621 0025 00000000 		.4byte	0
 2622 0029 00000000 		.4byte	0
 2623              	.LLST1:
 2624 002d 00000000 		.4byte	.LVL7
 2625 0031 1E000000 		.4byte	.LVL12
 2626 0035 0100     		.2byte	0x1
 2627 0037 52       		.byte	0x52
 2628 0038 1E000000 		.4byte	.LVL12
 2629 003c C8000000 		.4byte	.LFE274
 2630 0040 0400     		.2byte	0x4
 2631 0042 F3       		.byte	0xf3
 2632 0043 01       		.uleb128 0x1
 2633 0044 52       		.byte	0x52
 2634 0045 9F       		.byte	0x9f
 2635 0046 00000000 		.4byte	0
 2636 004a 00000000 		.4byte	0
 2637              	.LLST2:
 2638 004e 0A000000 		.4byte	.LVL8
 2639 0052 C6000000 		.4byte	.LVL32
 2640 0056 0100     		.2byte	0x1
 2641 0058 57       		.byte	0x57
 2642 0059 00000000 		.4byte	0
 2643 005d 00000000 		.4byte	0
 2644              	.LLST3:
 2645 0061 0E000000 		.4byte	.LVL9
 2646 0065 C6000000 		.4byte	.LVL32
 2647 0069 0100     		.2byte	0x1
 2648 006b 56       		.byte	0x56
 2649 006c 00000000 		.4byte	0
 2650 0070 00000000 		.4byte	0
 2651              	.LLST4:
 2652 0074 12000000 		.4byte	.LVL10
 2653 0078 C6000000 		.4byte	.LVL32
 2654 007c 0100     		.2byte	0x1
 2655 007e 55       		.byte	0x55
 2656 007f 00000000 		.4byte	0
 2657 0083 00000000 		.4byte	0
 2658              	.LLST5:
 2659 0087 16000000 		.4byte	.LVL11
 2660 008b C6000000 		.4byte	.LVL32
 2661 008f 0100     		.2byte	0x1
 2662 0091 54       		.byte	0x54
ARM GAS  /tmp/ccBNwNOj.s 			page 68


 2663 0092 00000000 		.4byte	0
 2664 0096 00000000 		.4byte	0
 2665              	.LLST6:
 2666 009a 1E000000 		.4byte	.LVL12
 2667 009e 24000000 		.4byte	.LVL13
 2668 00a2 0200     		.2byte	0x2
 2669 00a4 30       		.byte	0x30
 2670 00a5 9F       		.byte	0x9f
 2671 00a6 24000000 		.4byte	.LVL13
 2672 00aa C8000000 		.4byte	.LFE274
 2673 00ae 0100     		.2byte	0x1
 2674 00b0 53       		.byte	0x53
 2675 00b1 00000000 		.4byte	0
 2676 00b5 00000000 		.4byte	0
 2677              	.LLST7:
 2678 00b9 24000000 		.4byte	.LVL13
 2679 00bd 30000000 		.4byte	.LVL15
 2680 00c1 0100     		.2byte	0x1
 2681 00c3 58       		.byte	0x58
 2682 00c4 30000000 		.4byte	.LVL15
 2683 00c8 96000000 		.4byte	.LVL27
 2684 00cc 0A00     		.2byte	0xa
 2685 00ce 72       		.byte	0x72
 2686 00cf 00       		.sleb128 0
 2687 00d0 73       		.byte	0x73
 2688 00d1 00       		.sleb128 0
 2689 00d2 37       		.byte	0x37
 2690 00d3 1A       		.byte	0x1a
 2691 00d4 32       		.byte	0x32
 2692 00d5 24       		.byte	0x24
 2693 00d6 24       		.byte	0x24
 2694 00d7 9F       		.byte	0x9f
 2695 00d8 A6000000 		.4byte	.LVL28
 2696 00dc BC000000 		.4byte	.LVL31
 2697 00e0 0100     		.2byte	0x1
 2698 00e2 58       		.byte	0x58
 2699 00e3 BC000000 		.4byte	.LVL31
 2700 00e7 C8000000 		.4byte	.LFE274
 2701 00eb 0A00     		.2byte	0xa
 2702 00ed 72       		.byte	0x72
 2703 00ee 00       		.sleb128 0
 2704 00ef 73       		.byte	0x73
 2705 00f0 00       		.sleb128 0
 2706 00f1 37       		.byte	0x37
 2707 00f2 1A       		.byte	0x1a
 2708 00f3 32       		.byte	0x32
 2709 00f4 24       		.byte	0x24
 2710 00f5 24       		.byte	0x24
 2711 00f6 9F       		.byte	0x9f
 2712 00f7 00000000 		.4byte	0
 2713 00fb 00000000 		.4byte	0
 2714              	.LLST8:
 2715 00ff 34000000 		.4byte	.LVL16
 2716 0103 88000000 		.4byte	.LVL21
 2717 0107 0500     		.2byte	0x5
 2718 0109 31       		.byte	0x31
 2719 010a 73       		.byte	0x73
ARM GAS  /tmp/ccBNwNOj.s 			page 69


 2720 010b 00       		.sleb128 0
 2721 010c 24       		.byte	0x24
 2722 010d 9F       		.byte	0x9f
 2723 010e 00000000 		.4byte	0
 2724 0112 00000000 		.4byte	0
 2725              	.LLST9:
 2726 0116 48000000 		.4byte	.LVL17
 2727 011a 58000000 		.4byte	.LVL18
 2728 011e 0700     		.2byte	0x7
 2729 0120 33       		.byte	0x33
 2730 0121 73       		.byte	0x73
 2731 0122 00       		.sleb128 0
 2732 0123 31       		.byte	0x31
 2733 0124 24       		.byte	0x24
 2734 0125 24       		.byte	0x24
 2735 0126 9F       		.byte	0x9f
 2736 0127 58000000 		.4byte	.LVL18
 2737 012b 5C000000 		.4byte	.LVL19
 2738 012f 0100     		.2byte	0x1
 2739 0131 5C       		.byte	0x5c
 2740 0132 5C000000 		.4byte	.LVL19
 2741 0136 80000000 		.4byte	.LVL20
 2742 013a 0400     		.2byte	0x4
 2743 013c 7C       		.byte	0x7c
 2744 013d 00       		.sleb128 0
 2745 013e 20       		.byte	0x20
 2746 013f 9F       		.byte	0x9f
 2747 0140 80000000 		.4byte	.LVL20
 2748 0144 88000000 		.4byte	.LVL21
 2749 0148 0700     		.2byte	0x7
 2750 014a 33       		.byte	0x33
 2751 014b 73       		.byte	0x73
 2752 014c 00       		.sleb128 0
 2753 014d 31       		.byte	0x31
 2754 014e 24       		.byte	0x24
 2755 014f 24       		.byte	0x24
 2756 0150 9F       		.byte	0x9f
 2757 0151 00000000 		.4byte	0
 2758 0155 00000000 		.4byte	0
 2759              	.LLST10:
 2760 0159 24000000 		.4byte	.LVL13
 2761 015d 2C000000 		.4byte	.LVL14
 2762 0161 0100     		.2byte	0x1
 2763 0163 5C       		.byte	0x5c
 2764 0164 2C000000 		.4byte	.LVL14
 2765 0168 96000000 		.4byte	.LVL27
 2766 016c 0A00     		.2byte	0xa
 2767 016e 79       		.byte	0x79
 2768 016f 00       		.sleb128 0
 2769 0170 73       		.byte	0x73
 2770 0171 00       		.sleb128 0
 2771 0172 37       		.byte	0x37
 2772 0173 1A       		.byte	0x1a
 2773 0174 32       		.byte	0x32
 2774 0175 24       		.byte	0x24
 2775 0176 24       		.byte	0x24
 2776 0177 9F       		.byte	0x9f
ARM GAS  /tmp/ccBNwNOj.s 			page 70


 2777 0178 AA000000 		.4byte	.LVL29
 2778 017c B8000000 		.4byte	.LVL30
 2779 0180 0100     		.2byte	0x1
 2780 0182 5C       		.byte	0x5c
 2781 0183 B8000000 		.4byte	.LVL30
 2782 0187 C6000000 		.4byte	.LVL32
 2783 018b 0A00     		.2byte	0xa
 2784 018d 79       		.byte	0x79
 2785 018e 00       		.sleb128 0
 2786 018f 73       		.byte	0x73
 2787 0190 00       		.sleb128 0
 2788 0191 37       		.byte	0x37
 2789 0192 1A       		.byte	0x1a
 2790 0193 32       		.byte	0x32
 2791 0194 24       		.byte	0x24
 2792 0195 24       		.byte	0x24
 2793 0196 9F       		.byte	0x9f
 2794 0197 C6000000 		.4byte	.LVL32
 2795 019b C8000000 		.4byte	.LFE274
 2796 019f 0900     		.2byte	0x9
 2797 01a1 3F       		.byte	0x3f
 2798 01a2 73       		.byte	0x73
 2799 01a3 00       		.sleb128 0
 2800 01a4 37       		.byte	0x37
 2801 01a5 1A       		.byte	0x1a
 2802 01a6 32       		.byte	0x32
 2803 01a7 24       		.byte	0x24
 2804 01a8 24       		.byte	0x24
 2805 01a9 9F       		.byte	0x9f
 2806 01aa 00000000 		.4byte	0
 2807 01ae 00000000 		.4byte	0
 2808              		.section	.debug_aranges,"",%progbits
 2809 0000 24000000 		.4byte	0x24
 2810 0004 0200     		.2byte	0x2
 2811 0006 00000000 		.4byte	.Ldebug_info0
 2812 000a 04       		.byte	0x4
 2813 000b 00       		.byte	0
 2814 000c 0000     		.2byte	0
 2815 000e 0000     		.2byte	0
 2816 0010 00000000 		.4byte	.LFB273
 2817 0014 F4000000 		.4byte	.LFE273-.LFB273
 2818 0018 00000000 		.4byte	.LFB274
 2819 001c C8000000 		.4byte	.LFE274-.LFB274
 2820 0020 00000000 		.4byte	0
 2821 0024 00000000 		.4byte	0
 2822              		.section	.debug_ranges,"",%progbits
 2823              	.Ldebug_ranges0:
 2824 0000 04000000 		.4byte	.LBB14
 2825 0004 06000000 		.4byte	.LBE14
 2826 0008 36000000 		.4byte	.LBB31
 2827 000c 52000000 		.4byte	.LBE31
 2828 0010 00000000 		.4byte	0
 2829 0014 00000000 		.4byte	0
 2830 0018 08000000 		.4byte	.LBB17
 2831 001c 0A000000 		.4byte	.LBE17
 2832 0020 52000000 		.4byte	.LBB32
 2833 0024 6E000000 		.4byte	.LBE32
ARM GAS  /tmp/ccBNwNOj.s 			page 71


 2834 0028 00000000 		.4byte	0
 2835 002c 00000000 		.4byte	0
 2836 0030 0A000000 		.4byte	.LBB20
 2837 0034 0C000000 		.4byte	.LBE20
 2838 0038 6E000000 		.4byte	.LBB33
 2839 003c 8A000000 		.4byte	.LBE33
 2840 0040 00000000 		.4byte	0
 2841 0044 00000000 		.4byte	0
 2842 0048 0C000000 		.4byte	.LBB23
 2843 004c 0E000000 		.4byte	.LBE23
 2844 0050 8A000000 		.4byte	.LBB34
 2845 0054 AC000000 		.4byte	.LBE34
 2846 0058 00000000 		.4byte	0
 2847 005c 00000000 		.4byte	0
 2848 0060 0E000000 		.4byte	.LBB26
 2849 0064 10000000 		.4byte	.LBE26
 2850 0068 AC000000 		.4byte	.LBB35
 2851 006c D6000000 		.4byte	.LBE35
 2852 0070 00000000 		.4byte	0
 2853 0074 00000000 		.4byte	0
 2854 0078 16000000 		.4byte	.LBB36
 2855 007c 1A000000 		.4byte	.LBE36
 2856 0080 1E000000 		.4byte	.LBB37
 2857 0084 88000000 		.4byte	.LBE37
 2858 0088 96000000 		.4byte	.LBB38
 2859 008c 9E000000 		.4byte	.LBE38
 2860 0090 A2000000 		.4byte	.LBB39
 2861 0094 AA000000 		.4byte	.LBE39
 2862 0098 AC000000 		.4byte	.LBB40
 2863 009c C2000000 		.4byte	.LBE40
 2864 00a0 00000000 		.4byte	0
 2865 00a4 00000000 		.4byte	0
 2866 00a8 00000000 		.4byte	.LFB273
 2867 00ac F4000000 		.4byte	.LFE273
 2868 00b0 00000000 		.4byte	.LFB274
 2869 00b4 C8000000 		.4byte	.LFE274
 2870 00b8 00000000 		.4byte	0
 2871 00bc 00000000 		.4byte	0
 2872              		.section	.debug_line,"",%progbits
 2873              	.Ldebug_line0:
 2874 0000 15030000 		.section	.debug_str,"MS",%progbits,1
 2874      02007E02 
 2874      00000201 
 2874      FB0E0D00 
 2874      01010101 
 2875              	.LASF131:
 2876 0000 73746D33 		.ascii	"stm32_gpio_setup_t\000"
 2876      325F6770 
 2876      696F5F73 
 2876      65747570 
 2876      5F7400
 2877              	.LASF51:
 2878 0013 72656164 		.ascii	"ready_list_t\000"
 2878      795F6C69 
 2878      73745F74 
 2878      00
 2879              	.LASF100:
ARM GAS  /tmp/ccBNwNOj.s 			page 72


 2880 0020 77747472 		.ascii	"wttrp\000"
 2880      7000
 2881              	.LASF97:
 2882 0026 7264796D 		.ascii	"rdymsg\000"
 2882      736700
 2883              	.LASF18:
 2884 002d 75696E74 		.ascii	"uint64_t\000"
 2884      36345F74 
 2884      00
 2885              	.LASF4:
 2886 0036 5F5F7569 		.ascii	"__uint8_t\000"
 2886      6E74385F 
 2886      7400
 2887              	.LASF117:
 2888 0040 4F545950 		.ascii	"OTYPER\000"
 2888      455200
 2889              	.LASF94:
 2890 0047 706F7274 		.ascii	"port_intctx\000"
 2890      5F696E74 
 2890      63747800 
 2891              	.LASF126:
 2892 0053 6F747970 		.ascii	"otyper\000"
 2892      657200
 2893              	.LASF139:
 2894 005a 696F706F 		.ascii	"ioportmask_t\000"
 2894      72746D61 
 2894      736B5F74 
 2894      00
 2895              	.LASF116:
 2896 0067 4D4F4445 		.ascii	"MODER\000"
 2896      5200
 2897              	.LASF13:
 2898 006d 6C6F6E67 		.ascii	"long long unsigned int\000"
 2898      206C6F6E 
 2898      6720756E 
 2898      7369676E 
 2898      65642069 
 2899              	.LASF119:
 2900 0084 50555044 		.ascii	"PUPDR\000"
 2900      5200
 2901              	.LASF98:
 2902 008a 65786974 		.ascii	"exitcode\000"
 2902      636F6465 
 2902      00
 2903              	.LASF77:
 2904 0093 6D61696E 		.ascii	"mainthread\000"
 2904      74687265 
 2904      616400
 2905              	.LASF101:
 2906 009e 73656E74 		.ascii	"sentmsg\000"
 2906      6D736700 
 2907              	.LASF67:
 2908 00a6 76697274 		.ascii	"virtual_timers_list_t\000"
 2908      75616C5F 
 2908      74696D65 
 2908      72735F6C 
 2908      6973745F 
ARM GAS  /tmp/ccBNwNOj.s 			page 73


 2909              	.LASF151:
 2910 00bc 49544D5F 		.ascii	"ITM_RxBuffer\000"
 2910      52784275 
 2910      66666572 
 2910      00
 2911              	.LASF50:
 2912 00c9 63685F74 		.ascii	"ch_threads_queue\000"
 2912      68726561 
 2912      64735F71 
 2912      75657565 
 2912      00
 2913              	.LASF31:
 2914 00da 705F7072 		.ascii	"p_prio\000"
 2914      696F00
 2915              	.LASF11:
 2916 00e1 6C6F6E67 		.ascii	"long long int\000"
 2916      206C6F6E 
 2916      6720696E 
 2916      7400
 2917              	.LASF1:
 2918 00ef 7369676E 		.ascii	"signed char\000"
 2918      65642063 
 2918      68617200 
 2919              	.LASF120:
 2920 00fb 42535252 		.ascii	"BSRR\000"
 2920      00
 2921              	.LASF44:
 2922 0100 705F6D70 		.ascii	"p_mpool\000"
 2922      6F6F6C00 
 2923              	.LASF109:
 2924 0108 6D5F7175 		.ascii	"m_queue\000"
 2924      65756500 
 2925              	.LASF153:
 2926 0110 2E2E2F43 		.ascii	"../ChibiOS/os/hal/ports/STM32/LLD/GPIOv2/pal_lld.c\000"
 2926      68696269 
 2926      4F532F6F 
 2926      732F6861 
 2926      6C2F706F 
 2927              	.LASF125:
 2928 0143 6D6F6465 		.ascii	"moder\000"
 2928      7200
 2929              	.LASF90:
 2930 0149 5243435F 		.ascii	"RCC_TypeDef\000"
 2930      54797065 
 2930      44656600 
 2931              	.LASF74:
 2932 0155 63685F73 		.ascii	"ch_system\000"
 2932      79737465 
 2932      6D00
 2933              	.LASF8:
 2934 015f 6C6F6E67 		.ascii	"long int\000"
 2934      20696E74 
 2934      00
 2935              	.LASF136:
 2936 0168 50454461 		.ascii	"PEData\000"
 2936      746100
 2937              	.LASF81:
ARM GAS  /tmp/ccBNwNOj.s 			page 74


 2938 016f 41504232 		.ascii	"APB2RSTR\000"
 2938      52535452 
 2938      00
 2939              	.LASF21:
 2940 0178 74737461 		.ascii	"tstate_t\000"
 2940      74655F74 
 2940      00
 2941              	.LASF15:
 2942 0181 75696E74 		.ascii	"uint16_t\000"
 2942      31365F74 
 2942      00
 2943              	.LASF150:
 2944 018a 616C7472 		.ascii	"altrmask\000"
 2944      6D61736B 
 2944      00
 2945              	.LASF33:
 2946 0193 705F6E65 		.ascii	"p_newer\000"
 2946      77657200 
 2947              	.LASF106:
 2948 019b 735F7175 		.ascii	"s_queue\000"
 2948      65756500 
 2949              	.LASF118:
 2950 01a3 4F535045 		.ascii	"OSPEEDR\000"
 2950      45445200 
 2951              	.LASF56:
 2952 01ab 725F6E65 		.ascii	"r_newer\000"
 2952      77657200 
 2953              	.LASF147:
 2954 01b3 6D61736B 		.ascii	"mask\000"
 2954      00
 2955              	.LASF91:
 2956 01b8 72656761 		.ascii	"regarm_t\000"
 2956      726D5F74 
 2956      00
 2957              	.LASF63:
 2958 01c1 76745F70 		.ascii	"vt_prev\000"
 2958      72657600 
 2959              	.LASF76:
 2960 01c9 76746C69 		.ascii	"vtlist\000"
 2960      737400
 2961              	.LASF124:
 2962 01d0 73746D33 		.ascii	"stm32_gpio_t\000"
 2962      325F6770 
 2962      696F5F74 
 2962      00
 2963              	.LASF146:
 2964 01dd 706F7274 		.ascii	"port\000"
 2964      00
 2965              	.LASF113:
 2966 01e2 6D757465 		.ascii	"mutex_t\000"
 2966      785F7400 
 2967              	.LASF133:
 2968 01ea 50424461 		.ascii	"PBData\000"
 2968      746100
 2969              	.LASF78:
 2970 01f1 69646C65 		.ascii	"idle_thread_wa\000"
 2970      5F746872 
ARM GAS  /tmp/ccBNwNOj.s 			page 75


 2970      6561645F 
 2970      776100
 2971              	.LASF26:
 2972 0200 636E745F 		.ascii	"cnt_t\000"
 2972      7400
 2973              	.LASF0:
 2974 0206 756E7369 		.ascii	"unsigned int\000"
 2974      676E6564 
 2974      20696E74 
 2974      00
 2975              	.LASF62:
 2976 0213 76745F6E 		.ascii	"vt_next\000"
 2976      65787400 
 2977              	.LASF102:
 2978 021b 77747365 		.ascii	"wtsemp\000"
 2978      6D7000
 2979              	.LASF70:
 2980 0222 73797374 		.ascii	"system_debug_t\000"
 2980      656D5F64 
 2980      65627567 
 2980      5F7400
 2981              	.LASF40:
 2982 0231 705F6D73 		.ascii	"p_msgqueue\000"
 2982      67717565 
 2982      756500
 2983              	.LASF127:
 2984 023c 6F737065 		.ascii	"ospeedr\000"
 2984      65647200 
 2985              	.LASF121:
 2986 0244 4C434B52 		.ascii	"LCKR\000"
 2986      00
 2987              	.LASF107:
 2988 0249 735F636E 		.ascii	"s_cnt\000"
 2988      7400
 2989              	.LASF6:
 2990 024f 73686F72 		.ascii	"short unsigned int\000"
 2990      7420756E 
 2990      7369676E 
 2990      65642069 
 2990      6E7400
 2991              	.LASF137:
 2992 0262 50464461 		.ascii	"PFData\000"
 2992      746100
 2993              	.LASF47:
 2994 0269 63685F74 		.ascii	"ch_thread\000"
 2994      68726561 
 2994      6400
 2995              	.LASF24:
 2996 0273 6D73675F 		.ascii	"msg_t\000"
 2996      7400
 2997              	.LASF73:
 2998 0279 63685F73 		.ascii	"ch_system_t\000"
 2998      79737465 
 2998      6D5F7400 
 2999              	.LASF20:
 3000 0285 746D6F64 		.ascii	"tmode_t\000"
 3000      655F7400 
ARM GAS  /tmp/ccBNwNOj.s 			page 76


 3001              	.LASF52:
 3002 028d 63685F72 		.ascii	"ch_ready_list\000"
 3002      65616479 
 3002      5F6C6973 
 3002      7400
 3003              	.LASF25:
 3004 029b 6576656E 		.ascii	"eventmask_t\000"
 3004      746D6173 
 3004      6B5F7400 
 3005              	.LASF7:
 3006 02a7 5F5F696E 		.ascii	"__int32_t\000"
 3006      7433325F 
 3006      7400
 3007              	.LASF92:
 3008 02b1 73746B61 		.ascii	"stkalign_t\000"
 3008      6C69676E 
 3008      5F7400
 3009              	.LASF46:
 3010 02bc 74687265 		.ascii	"threads_list_t\000"
 3010      6164735F 
 3010      6C697374 
 3010      5F7400
 3011              	.LASF39:
 3012 02cb 705F7761 		.ascii	"p_waiting\000"
 3012      6974696E 
 3012      6700
 3013              	.LASF79:
 3014 02d5 73697A65 		.ascii	"sizetype\000"
 3014      74797065 
 3014      00
 3015              	.LASF45:
 3016 02de 74687265 		.ascii	"thread_reference_t\000"
 3016      61645F72 
 3016      65666572 
 3016      656E6365 
 3016      5F7400
 3017              	.LASF68:
 3018 02f1 63685F76 		.ascii	"ch_virtual_timers_list\000"
 3018      69727475 
 3018      616C5F74 
 3018      696D6572 
 3018      735F6C69 
 3019              	.LASF115:
 3020 0308 636C6561 		.ascii	"clear\000"
 3020      7200
 3021              	.LASF29:
 3022 030e 705F6E65 		.ascii	"p_next\000"
 3022      787400
 3023              	.LASF69:
 3024 0315 76745F6C 		.ascii	"vt_lasttime\000"
 3024      61737474 
 3024      696D6500 
 3025              	.LASF34:
 3026 0321 705F6F6C 		.ascii	"p_older\000"
 3026      64657200 
 3027              	.LASF55:
 3028 0329 725F6374 		.ascii	"r_ctx\000"
ARM GAS  /tmp/ccBNwNOj.s 			page 77


 3028      7800
 3029              	.LASF96:
 3030 032f 746D5F63 		.ascii	"tm_calibration_t\000"
 3030      616C6962 
 3030      72617469 
 3030      6F6E5F74 
 3030      00
 3031              	.LASF130:
 3032 0340 61667268 		.ascii	"afrh\000"
 3032      00
 3033              	.LASF87:
 3034 0345 41484252 		.ascii	"AHBRSTR\000"
 3034      53545200 
 3035              	.LASF135:
 3036 034d 50444461 		.ascii	"PDData\000"
 3036      746100
 3037              	.LASF58:
 3038 0354 725F6375 		.ascii	"r_current\000"
 3038      7272656E 
 3038      7400
 3039              	.LASF82:
 3040 035e 41504231 		.ascii	"APB1RSTR\000"
 3040      52535452 
 3040      00
 3041              	.LASF12:
 3042 0367 5F5F7569 		.ascii	"__uint64_t\000"
 3042      6E743634 
 3042      5F7400
 3043              	.LASF123:
 3044 0372 41465248 		.ascii	"AFRH\000"
 3044      00
 3045              	.LASF122:
 3046 0377 4146524C 		.ascii	"AFRL\000"
 3046      00
 3047              	.LASF22:
 3048 037c 74726566 		.ascii	"trefs_t\000"
 3048      735F7400 
 3049              	.LASF60:
 3050 0384 76697274 		.ascii	"virtual_timer_t\000"
 3050      75616C5F 
 3050      74696D65 
 3050      725F7400 
 3051              	.LASF30:
 3052 0394 705F7072 		.ascii	"p_prev\000"
 3052      657600
 3053              	.LASF23:
 3054 039b 74707269 		.ascii	"tprio_t\000"
 3054      6F5F7400 
 3055              	.LASF71:
 3056 03a3 63685F73 		.ascii	"ch_system_debug\000"
 3056      79737465 
 3056      6D5F6465 
 3056      62756700 
 3057              	.LASF114:
 3058 03b3 5F426F6F 		.ascii	"_Bool\000"
 3058      6C00
 3059              	.LASF16:
ARM GAS  /tmp/ccBNwNOj.s 			page 78


 3060 03b9 696E7433 		.ascii	"int32_t\000"
 3060      325F7400 
 3061              	.LASF2:
 3062 03c1 756E7369 		.ascii	"unsigned char\000"
 3062      676E6564 
 3062      20636861 
 3062      7200
 3063              	.LASF129:
 3064 03cf 6166726C 		.ascii	"afrl\000"
 3064      00
 3065              	.LASF42:
 3066 03d4 705F6D74 		.ascii	"p_mtxlist\000"
 3066      786C6973 
 3066      7400
 3067              	.LASF3:
 3068 03de 73686F72 		.ascii	"short int\000"
 3068      7420696E 
 3068      7400
 3069              	.LASF36:
 3070 03e8 705F7374 		.ascii	"p_state\000"
 3070      61746500 
 3071              	.LASF54:
 3072 03f0 725F7072 		.ascii	"r_prio\000"
 3072      696F00
 3073              	.LASF132:
 3074 03f7 50414461 		.ascii	"PAData\000"
 3074      746100
 3075              	.LASF104:
 3076 03fe 65776D61 		.ascii	"ewmask\000"
 3076      736B00
 3077              	.LASF37:
 3078 0405 705F666C 		.ascii	"p_flags\000"
 3078      61677300 
 3079              	.LASF142:
 3080 040d 6770696F 		.ascii	"gpiop\000"
 3080      7000
 3081              	.LASF84:
 3082 0413 41504232 		.ascii	"APB2ENR\000"
 3082      454E5200 
 3083              	.LASF61:
 3084 041b 63685F76 		.ascii	"ch_virtual_timer\000"
 3084      69727475 
 3084      616C5F74 
 3084      696D6572 
 3084      00
 3085              	.LASF105:
 3086 042c 63685F73 		.ascii	"ch_semaphore\000"
 3086      656D6170 
 3086      686F7265 
 3086      00
 3087              	.LASF41:
 3088 0439 705F6570 		.ascii	"p_epending\000"
 3088      656E6469 
 3088      6E6700
 3089              	.LASF17:
 3090 0444 75696E74 		.ascii	"uint32_t\000"
 3090      33325F74 
ARM GAS  /tmp/ccBNwNOj.s 			page 79


 3090      00
 3091              	.LASF103:
 3092 044d 77746D74 		.ascii	"wtmtxp\000"
 3092      787000
 3093              	.LASF53:
 3094 0454 725F7175 		.ascii	"r_queue\000"
 3094      65756500 
 3095              	.LASF64:
 3096 045c 76745F64 		.ascii	"vt_delta\000"
 3096      656C7461 
 3096      00
 3097              	.LASF48:
 3098 0465 63685F74 		.ascii	"ch_threads_list\000"
 3098      68726561 
 3098      64735F6C 
 3098      69737400 
 3099              	.LASF154:
 3100 0475 2F6E6673 		.ascii	"/nfs/nfs4/home/irbrown/Courses/P442/P442WifiTrailCo"
 3100      2F6E6673 
 3100      342F686F 
 3100      6D652F69 
 3100      7262726F 
 3101 04a8 756E7465 		.ascii	"unterProject/milestone2\000"
 3101      7250726F 
 3101      6A656374 
 3101      2F6D696C 
 3101      6573746F 
 3102              	.LASF10:
 3103 04c0 6C6F6E67 		.ascii	"long unsigned int\000"
 3103      20756E73 
 3103      69676E65 
 3103      6420696E 
 3103      7400
 3104              	.LASF149:
 3105 04d2 616C7472 		.ascii	"altr\000"
 3105      00
 3106              	.LASF112:
 3107 04d7 63686172 		.ascii	"char\000"
 3107      00
 3108              	.LASF148:
 3109 04dc 6D6F6465 		.ascii	"mode\000"
 3109      00
 3110              	.LASF143:
 3111 04e1 636F6E66 		.ascii	"config\000"
 3111      696700
 3112              	.LASF5:
 3113 04e8 5F5F7569 		.ascii	"__uint16_t\000"
 3113      6E743136 
 3113      5F7400
 3114              	.LASF28:
 3115 04f3 74687265 		.ascii	"thread_t\000"
 3115      61645F74 
 3115      00
 3116              	.LASF111:
 3117 04fc 6D5F6E65 		.ascii	"m_next\000"
 3117      787400
 3118              	.LASF27:
ARM GAS  /tmp/ccBNwNOj.s 			page 80


 3119 0503 73797374 		.ascii	"systime_t\000"
 3119      696D655F 
 3119      7400
 3120              	.LASF43:
 3121 050d 705F7265 		.ascii	"p_realprio\000"
 3121      616C7072 
 3121      696F00
 3122              	.LASF59:
 3123 0518 76746675 		.ascii	"vtfunc_t\000"
 3123      6E635F74 
 3123      00
 3124              	.LASF9:
 3125 0521 5F5F7569 		.ascii	"__uint32_t\000"
 3125      6E743332 
 3125      5F7400
 3126              	.LASF155:
 3127 052c 696E6974 		.ascii	"initgpio\000"
 3127      6770696F 
 3127      00
 3128              	.LASF72:
 3129 0535 70616E69 		.ascii	"panic_msg\000"
 3129      635F6D73 
 3129      6700
 3130              	.LASF95:
 3131 053f 6F666673 		.ascii	"offset\000"
 3131      657400
 3132              	.LASF85:
 3133 0546 41504231 		.ascii	"APB1ENR\000"
 3133      454E5200 
 3134              	.LASF141:
 3135 054e 696F706F 		.ascii	"ioportid_t\000"
 3135      72746964 
 3135      5F7400
 3136              	.LASF93:
 3137 0559 636F6E74 		.ascii	"context\000"
 3137      65787400 
 3138              	.LASF57:
 3139 0561 725F6F6C 		.ascii	"r_older\000"
 3139      64657200 
 3140              	.LASF145:
 3141 0569 5F70616C 		.ascii	"_pal_lld_setgroupmode\000"
 3141      5F6C6C64 
 3141      5F736574 
 3141      67726F75 
 3141      706D6F64 
 3142              	.LASF19:
 3143 057f 7274636E 		.ascii	"rtcnt_t\000"
 3143      745F7400 
 3144              	.LASF66:
 3145 0587 76745F70 		.ascii	"vt_par\000"
 3145      617200
 3146              	.LASF49:
 3147 058e 74687265 		.ascii	"threads_queue_t\000"
 3147      6164735F 
 3147      71756575 
 3147      655F7400 
 3148              	.LASF108:
ARM GAS  /tmp/ccBNwNOj.s 			page 81


 3149 059e 63685F6D 		.ascii	"ch_mutex\000"
 3149      75746578 
 3149      00
 3150              	.LASF38:
 3151 05a7 705F7265 		.ascii	"p_refs\000"
 3151      667300
 3152              	.LASF144:
 3153 05ae 5F70616C 		.ascii	"_pal_lld_init\000"
 3153      5F6C6C64 
 3153      5F696E69 
 3153      7400
 3154              	.LASF86:
 3155 05bc 42444352 		.ascii	"BDCR\000"
 3155      00
 3156              	.LASF75:
 3157 05c1 726C6973 		.ascii	"rlist\000"
 3157      7400
 3158              	.LASF88:
 3159 05c7 43464752 		.ascii	"CFGR2\000"
 3159      3200
 3160              	.LASF89:
 3161 05cd 43464752 		.ascii	"CFGR3\000"
 3161      3300
 3162              	.LASF14:
 3163 05d3 75696E74 		.ascii	"uint8_t\000"
 3163      385F7400 
 3164              	.LASF128:
 3165 05db 70757064 		.ascii	"pupdr\000"
 3165      7200
 3166              	.LASF152:
 3167 05e1 474E5520 		.ascii	"GNU C 4.8.4 20140526 (release) [ARM/embedded-4_8-br"
 3167      4320342E 
 3167      382E3420 
 3167      32303134 
 3167      30353236 
 3168 0614 616E6368 		.ascii	"anch revision 211358] -mcpu=cortex-m4 -mno-thumb-in"
 3168      20726576 
 3168      6973696F 
 3168      6E203231 
 3168      31333538 
 3169 0647 74657277 		.ascii	"terwork -mthumb -ggdb -O2 -fomit-frame-pointer -fal"
 3169      6F726B20 
 3169      2D6D7468 
 3169      756D6220 
 3169      2D676764 
 3170 067a 69676E2D 		.ascii	"ign-functions=16 -ffunction-sections -fdata-section"
 3170      66756E63 
 3170      74696F6E 
 3170      733D3136 
 3170      202D6666 
 3171 06ad 73202D66 		.ascii	"s -fno-common -flto\000"
 3171      6E6F2D63 
 3171      6F6D6D6F 
 3171      6E202D66 
 3171      6C746F00 
 3172              	.LASF99:
 3173 06c1 77746F62 		.ascii	"wtobjp\000"
ARM GAS  /tmp/ccBNwNOj.s 			page 82


 3173      6A7000
 3174              	.LASF35:
 3175 06c8 705F6E61 		.ascii	"p_name\000"
 3175      6D6500
 3176              	.LASF134:
 3177 06cf 50434461 		.ascii	"PCData\000"
 3177      746100
 3178              	.LASF80:
 3179 06d6 43464752 		.ascii	"CFGR\000"
 3179      00
 3180              	.LASF140:
 3181 06db 696F6D6F 		.ascii	"iomode_t\000"
 3181      64655F74 
 3181      00
 3182              	.LASF138:
 3183 06e4 50414C43 		.ascii	"PALConfig\000"
 3183      6F6E6669 
 3183      6700
 3184              	.LASF110:
 3185 06ee 6D5F6F77 		.ascii	"m_owner\000"
 3185      6E657200 
 3186              	.LASF32:
 3187 06f6 705F6374 		.ascii	"p_ctx\000"
 3187      7800
 3188              	.LASF65:
 3189 06fc 76745F66 		.ascii	"vt_func\000"
 3189      756E6300 
 3190              	.LASF83:
 3191 0704 41484245 		.ascii	"AHBENR\000"
 3191      4E5200
 3192              		.comm	__gnu_lto_v1,1,1
 3193              		.ident	"GCC: (GNU Tools for ARM Embedded Processors) 4.8.4 20140526 (release) [ARM/embedded-4_8-br
ARM GAS  /tmp/ccBNwNOj.s 			page 83


DEFINED SYMBOLS
                            *ABS*:00000000 pal_lld.c
     /tmp/ccBNwNOj.s:348    .text._pal_lld_init:00000000 $t
     /tmp/ccBNwNOj.s:354    .text._pal_lld_init:00000000 _pal_lld_init
     /tmp/ccBNwNOj.s:566    .text._pal_lld_init:000000dc $d
     /tmp/ccBNwNOj.s:576    .text._pal_lld_setgroupmode:00000000 $t
     /tmp/ccBNwNOj.s:582    .text._pal_lld_setgroupmode:00000000 _pal_lld_setgroupmode
                            *COM*:00000001 __gnu_lto_v1
                     .debug_frame:00000010 $d
     /tmp/ccBNwNOj.s:575    .text._pal_lld_init:000000f4 $t

NO UNDEFINED SYMBOLS
