ARM GAS  /tmp/ccBNwNOj.s 			page 1


   1              		.syntax unified
   2              		.cpu cortex-m4
   3              		.fpu softvfp
   4              		.eabi_attribute 20, 1
   5              		.eabi_attribute 21, 1
   6              		.eabi_attribute 23, 3
   7              		.eabi_attribute 24, 1
   8              		.eabi_attribute 25, 1
   9              		.eabi_attribute 26, 1
  10              		.eabi_attribute 30, 2
  11              		.eabi_attribute 34, 1
  12              		.eabi_attribute 18, 4
  13              		.thumb
  14              		.file	"pal_lld.c"
  15              		.text
  16              	.Ltext0:
  17              		.section	.gnu.lto_.jmpfuncs.af3655d2e6290c95,"",%progbits
  18 0000 789C6362 		.ascii	"x\234cb`b\300\006\330\2404\023\003##;\003\000\001/\000"
  18      6062C006 
  18      D8A03413 
  18      0323233B 
  18      0300012F 
  19 0015 16       		.ascii	"\026"
  20              		.text
  21              		.section	.gnu.lto_.inline.af3655d2e6290c95,"",%progbits
  22 0000 789C6362 		.ascii	"x\234cb`b\300\006v@i\240\354-\206\233\014\214\354\014"
  22      6062C006 
  22      764069A0 
  22      EC2D869B 
  22      0C8CEC0C 
  23 0014 8C0C0CCC 		.ascii	"\214\014\014\314\012`\322\001L&\200\311\006F0\265\000"
  23      0A60D201 
  23      4C2680C9 
  23      064630B5 
  23      00
  24 0025 421D8050 		.ascii	"B\035\200P\014\002\265'.\2603h\336\330\300\304\304\300"
  24      0C02B527 
  24      2EB03368 
  24      DED8C0C4 
  24      C4C0
  25 0037 F8829D05 		.ascii	"\370\202\235\005B\202\010\0160\223\003D\010\200\231"
  25      4282080E 
  25      30930344 
  25      088099
  26 0046 02204201 		.ascii	"\002 B\001\314T\000\021\016`\246\003\210h`d\202P`\022"
  26      CC540011 
  26      0E60A603 
  26      88686064 
  26      82506012 
  27 005a 625403D8 		.ascii	"bT\003\330\271\214\0146\233\230\030\031\231\200\226"
  27      B98C0C36 
  27      9B981819 
  27      998096
  28 0069 313087B4 		.ascii	"10\207\264\234W`\020\232s\221\231\211A\350B\017#\013"
  28      9C576010 
  28      9A739199 
  28      8941E842 
ARM GAS  /tmp/ccBNwNOj.s 			page 2


  28      0F230B
  29 007c D8DD0081 		.ascii	"\330\335\000\201\275\036\375"
  29      BD1EFD
  30              		.text
  31              		.section	.gnu.lto_.pureconst.af3655d2e6290c95,"",%progbits
  32 0000 789C6362 		.ascii	"x\234cb`b`e\200\000&\006)F)\000\001\006\000A"
  32      60626065 
  32      80002606 
  32      29462900 
  32      01060041 
  33              		.text
  34              		.section	.gnu.lto__pal_lld_init.af3655d2e6290c95,"",%progbits
  35 0000 789CB5D9 		.ascii	"x\234\265\331Kh\\U\030\300\361s\356\235{\347\375\310"
  35      4B685C55 
  35      18C0F173 
  35      EE9D7BE7 
  35      FDC8
  36 0012 FBFD68DE 		.ascii	"\373\375h\336\317\271yJ\027\256T\220B\245B#\324\225"
  36      CFB9794A 
  36      17AE5490 
  36      42A54223 
  36      D495
  37 0024 4E234E07 		.ascii	"N#N\007\0223Xu\343\242wj\221,\012\016\305G\320\205)"
  37      12335875 
  37      E3A2776A 
  37      912C0A0E 
  37      C547D085 
  38 0039 6E62D474 		.ascii	"nb\324ti\323nB\027B\221\304dW\322\026\202]\250\024J"
  38      69D36E42 
  38      174291C4 
  38      6457D216 
  38      825DA814 
  39 004e 6BBA68A5 		.ascii	"k\272h\2450\336\357~\223\334o\312\2359Sr2\320o\3564"
  39      30DEEF7E 
  39      93DC6FCA 
  39      9D395372 
  39      32D06FEE 
  40 0063 9993DFDC 		.ascii	"\231\223\337\334s\362\337Da\012{\376\321`\375\253ne"
  40      73F2DF44 
  40      610A7BFE 
  40      D160FDAB 
  40      6E65
  41 0075 EC15EB99 		.ascii	"\354\025\353\231\253\214+\331\015\3062>\205s\270`\234"
  41      AB8C2BD9 
  41      0DC6323E 
  41      8573B860 
  41      9C
  42 0086 9D53F8B9 		.ascii	"\235S\370\271\267\271\375\275W\224\265\235\\n\345\341"
  42      B7B9FDBD 
  42      5794B59D 
  42      5C6EE5E1 
  43 0096 6F2B17F9 		.ascii	"o+\027\371\262\362\256\302R\234\25104>\313Y\010\256"
  43      B2F2AEC2 
  43      529CA930 
  43      343ECB59 
  43      08AE
  44 00a8 C2302230 		.ascii	"\3020\"0\2420b0*`T\302\250\202Q\015\243\006F-\214:\030"
ARM GAS  /tmp/ccBNwNOj.s 			page 3


  44      A2306230 
  44      2A6054C2 
  44      A882510D 
  44      A306462D 
  45 00bf F5301A60 		.ascii	"\3650\032`4\302h\202\321\014\243\005F+\2146\030\355"
  45      34C26882 
  45      D10CA305 
  45      462B8C36 
  45      18ED
  46 00d1 308EC0E8 		.ascii	"0\216\300\350\200\321\011\243\013F7\214\036\030\275"
  46      80D109A3 
  46      0B46378C 
  46      1E18BD
  47 00e0 30FA60F4 		.ascii	"0\372`\364\303\030\2001\010c\010\3060\2148\014\003\306"
  47      C3188031 
  47      086308C6 
  47      308C380C 
  47      03C6
  48 00f2 088C5118 		.ascii	"\010\214Q\030c0\306aL\300\230\204a=4v\3014\263\355\214"
  48      6330C661 
  48      4CC09884 
  48      613D3476 
  48      C134B3ED 
  49 0107 4DDB2FA7 		.ascii	"M\333/\247\254\011\367\345-\256\300\263\272\316nl\337"
  49      AC09F7E5 
  49      2DAEC0B3 
  49      BACE6E6C 
  49      DF
  50 0118 DAAD4FF0 		.ascii	"\332\255O\360\313\\cI\256\014\262e\363B&\226\342\374"
  50      CB5C6349 
  50      AE0CB265 
  50      F3422696 
  50      E2FC
  51 012a 3BF62D4F 		.ascii	";\366-Oq\345\2245Tsq\336\3640\373\322\276\217\247\371"
  51      71E59435 
  51      547371DE 
  51      F430FBD2 
  51      BE8FA7F9 
  52 013e DEDD5F67 		.ascii	"\336\335_g\237\255\252{\357V\223\370\375\3144\237\250"
  52      9FADAA7B 
  52      EF5693F8 
  52      FDCC349F 
  52      A8
  53 014f F6176F1C 		.ascii	"\366\027o\034\303\257\275\330\262Ix}\223\235\337\371"
  53      C3AFBDD8 
  53      B249787D 
  53      939DDFF9 
  54 015f FB9E8EEF 		.ascii	"\373\236\216\357\237\345\374S\366\237i-\340\201\245"
  54      9FE5FC53 
  54      F69F692D 
  54      E081A5
  55 016e B2A6F971 		.ascii	"\262\246\371q\212k\270\226\236\344\032\254\341\315\257"
  55      8A6BB896 
  55      9EE41AAC 
  55      E1CDAF
  56 017d 818BE0FB 		.ascii	"\201\213\340\373\230\275\316Z\023\276\352`\227M\363"
  56      98BDCE5A 
ARM GAS  /tmp/ccBNwNOj.s 			page 4


  56      13BEEA60 
  56      974DF3
  57 018c D2DAA3CF 		.ascii	"\322\332\243\317\177\347\346%3\3630\227\213\246\270"
  57      7FE7E625 
  57      33F33097 
  57      8BA6B8
  58 019b 4F612F71 		.ascii	"Oa/q\270;\260\206\277\335~\012x\012\317\030\374\237"
  58      B83BB086 
  58      BFDD7E0A 
  58      780ACF18 
  58      FC9F
  59 01ad CF34CD35 		.ascii	"\3174\3155\017{\016\346\272\244Ga/\213\226\234\005\347"
  59      0F7B0EE6 
  59      BAA44761 
  59      2F8B969C 
  59      05E7
  60 01bf 3A3BBFFD 		.ascii	":;\277\375\344\373\226\375=\302\013\363\207/,\360O\274"
  60      E4FB96FD 
  60      3DC20BF3 
  60      872F2CF0 
  60      4FBC
  61 01d1 C3FA103F 		.ascii	"\303\372\020?Zs\357\303L\343GK\362\020\336\203\265\334"
  61      5A73EFC3 
  61      4CE3474B 
  61      F210DE83 
  61      B5DC
  62 01e3 3FD6C241 		.ascii	"?\326\302A\353.dL\2705\241\374\215\360\344o\204\002"
  62      EB2E644C 
  62      B835A1FC 
  62      8DF0E46F 
  62      8402
  63 01f5 6F5CC1BB 		.ascii	"o\\\301\273`m\305\315\315@\202\377\262\277\031\346("
  63      606DC5CD 
  63      CD4082FF 
  63      B2BF19E6 
  63      28
  64 0206 EE46260B 		.ascii	"\356F&\013\357\015\223\217h_\346\327P\367\327\260~,"
  64      EF0D938F 
  64      685FE6D7 
  64      50F7D7B0 
  64      7E2C
  65 0218 8217FEDC 		.ascii	"\202\027\376\334Tq\241$\017\303Z\261R\010\217\004\204"
  65      5471A124 
  65      0FC35AB1 
  65      52088F04 
  65      84
  66 0229 46106144 		.ascii	"F\020aD\\%\210\210\020\241K@x\011\"\202\210[\004\021"
  66      5C258888 
  66      10A14B40 
  66      78092282 
  66      885B0411 
  67 023d 15227C12 		.ascii	"\025\"|\022\020~\202\210\346\317\017A\304\204\210\200"
  67      107E8288 
  67      E6CF0F41 
  67      C4848880 
  68 024d 04449020 		.ascii	"\004D\220 b\3713q\317AT\010\021!\011\2100AT\344\317"
  68      62F93371 
ARM GAS  /tmp/ccBNwNOj.s 			page 5


  68      CF415408 
  68      11210988 
  68      304154E4 
  69 0262 0441540A 		.ascii	"\004AT\012\021\021\011\210(ATb\031\356;\311R\312NV\354"
  69      11110988 
  69      28415462 
  69      19EE3BC9 
  69      52CA4E56 
  70 0277 059395E0 		.ascii	"\005\223\225\340\313\326ow9\315\232w\232u\277t\263\022"
  70      CBD66F77 
  70      39CD9A77 
  70      9A75BF74 
  70      B312
  71 0289 FC67E19A 		.ascii	"\374g\341\232\263\320\224\"\321\272\002\321\372\303"
  71      B3D09422 
  71      D1BA02D1 
  71      FAC3
  72 0297 8ED6865B 		.ascii	"\216\326\206[\264\252\004\321j&\321\332*\334\226\315"
  72      B4AA04D1 
  72      6A26D1DA 
  72      2ADC96CD 
  73 02a7 D2DB32EF 		.ascii	"\322\3332\357\032\255-\334\226*\032\255M\373lT\027?"
  73      1AAD2DDC 
  73      962A1AAD 
  73      4DFB6C54 
  73      173F
  74 02b9 1BCD245A 		.ascii	"\033\315$Z\007Dh\004QM\243\205\210\032!B\227\200\360"
  74      07446804 
  74      514DA385 
  74      881A2142 
  74      9780F0
  75 02cc 12440D8D 		.ascii	"\022D\015\215\026\"j\205\010\237\004\204\237 ji\264"
  75      16226A85 
  75      089F0484 
  75      9F206A69 
  75      B4
  76 02dd 10512744 		.ascii	"\020Q'D\004$ \202\004QG\243\205\210z!\"$\001\021&\210"
  76      04242082 
  76      045147A3 
  76      85887A21 
  76      22240111 
  77 02f3 7A1A2D44 		.ascii	"z\032-D4\010\021\021\011\210(A4`\032\0368\321R\313\216"
  77      34081111 
  77      09882841 
  77      34601A1E 
  77      38D152CB 
  78 0308 56C5A145 		.ascii	"V\305\241E+\353D\353\201\214h\251E\243u\035\242\365"
  78      2BEB44EB 
  78      818C68A9 
  78      45A3751D 
  78      A2F5
  79 031a AF1DAD47 		.ascii	"\257\035\255Gn\321j\024D\353(\211\326\343\302m\331-"
  79      6ED16A14 
  79      44EB2889 
  79      D6E3C26D 
  79      D92D
  80 032c BD2D59D7 		.ascii	"\275-Y\327h=\306mi\244\321\332\265\317FS\361\263q\224"
ARM GAS  /tmp/ccBNwNOj.s 			page 6


  80      683DC66D 
  80      69A4D1DA 
  80      B5CF4653 
  80      F1B37194 
  81 0340 44EB8008 		.ascii	"D\353\200\010\215 \232h\264\020\321,D\350\022\020^\202"
  81      8D209A68 
  81      B410D12C 
  81      44E81210 
  81      5E82
  82 0352 68A6D142 		.ascii	"h\246\321BD\213\020\341\223\200\360\023D\013\215\026"
  82      448B10E1 
  82      9380F013 
  82      440B8D16 
  83 0362 225A8588 		.ascii	"\"Z\205\210\200\004D\220 Zi\264\020\321&D\204$ \302"
  83      80044490 
  83      205A69B4 
  83      10D12644 
  83      842420C2 
  84 0376 04D146A3 		.ascii	"\004\321F\243\205\210v!\"\"\001\021%\210vL\303S'Z\236"
  84      85887621 
  84      22220111 
  84      2588764C 
  84      C353275A 
  85 038b B2A35579 		.ascii	"\262\243Uyh\321Zp\242\365TF\264<E\243\365\027D\353+"
  85      68D15A70 
  85      A2F55446 
  85      B43C45A3 
  85      F51744EB 
  86 03a0 05A2F5A5 		.ascii	"\005\242\365\245\342\022\255#\202hM\221h}\243\024l\313"
  86      E212AD23 
  86      82684D91 
  86      687DA314 
  86      6CCB
  87 03b2 D74AC96D 		.ascii	"\327J\311mYp\215\226\275\206\365ci\264`\241$\357(~6"
  87      59708D96 
  87      BD86F563 
  87      69B460A1 
  87      24EF287E 
  88 03c7 A648B40E 		.ascii	"\246H\264\016\210\320\010\242\203F\013\021\235B\204"
  88      88D008A2 
  88      83460B11 
  88      9D4284
  89 03d6 2E01E125 		.ascii	".\001\341%\210N\032-Dt\011\021>\011\010?At\321h!\242"
  89      884E1A2D 
  89      44740911 
  89      3E09083F 
  89      4174D168 
  90 03ec 5B880848 		.ascii	"[\210\010H@\004\011\242\233F\013\021=BDH\002\"L\020"
  90      400409A2 
  90      9B460B11 
  90      3D424448 
  90      02224C10 
  91 0400 3D345A88 		.ascii	"=4Z\210\350\025\"\"\022\020Q\202\350\3054<s\242\245"
  91      E8152222 
  91      12105182 
  91      E8C5343C 
  91      73A2A5
ARM GAS  /tmp/ccBNwNOj.s 			page 7


  92 0413 951DADAA 		.ascii	"\225\035\255\252C\213\326\242\023\255g2\242\245\025"
  92      438BD6A2 
  92      13AD6732 
  92      A2A515
  93 0422 8DD62E44 		.ascii	"\215\326.D\353\252\035\255_\335\242\325'\210V\232D\353"
  93      EBAA1DAD 
  93      5FDDA2D5 
  93      2788569A 
  93      44EB
  94 0434 5AE1B6AC 		.ascii	"Z\341\266\254\226\336\226E\327h]\303m\351\243\321Z\265"
  94      96DE9645 
  94      D7685DC3 
  94      6DE9A3D1 
  94      5AB5
  95 0446 CF467FF1 		.ascii	"\317F\177\361\263\221&\321: B#\210~\032-D\014\010\021"
  95      B39126D1 
  95      3A204223 
  95      887E1A2D 
  95      440C0811 
  96 045a BA048497 		.ascii	"\272\004\204\227 \006h\264\0201(D\370$ \374\0041H\243"
  96      200668B4 
  96      10312844 
  96      F82420FC 
  96      043148A3 
  97 046e 85882121 		.ascii	"\205\210!!\" \001\021$\210!\032-D\014\013\021!\011\210"
  97      22200111 
  97      2488211A 
  97      2D440C0B 
  97      11210988 
  98 0482 30410CD3 		.ascii	"0A\014\323h!\".DD$ \242\004\021\3074\344\234h\351eG"
  98      6821222E 
  98      44442420 
  98      A20411C7 
  98      34E49C68 
  99 0499 ABFAD0A2 		.ascii	"\253\372\320\242\265\344D+'#Zz\321h\345 Z\267\355hm"
  99      B5E4442B 
  99      27235A7A 
  99      D168E520 
  99      5AB7ED68 
 100 04ae BB45CB10 		.ascii	"\273E\313\020D\353\"'\325\272[\270/wJ\357\313\222k\265"
 100      44EB2227 
 100      D5BA5BB8 
 100      2F774AEF 
 100      CB926BB5 
 101 04c2 EEE2BE18 		.ascii	"\356\342\276\030\264Zw\354\3031R\374p\354)<\022\024"
 101      B45A77EC 
 101      C33152FC 
 101      70EC293C 
 101      1214
 102 04d4 1A518CD0 		.ascii	"\032Q\214\320l\241bT\254\320%(\274D1J\273\205\2121\261"
 102      6CA16254 
 102      ACD02528 
 102      BC44314A 
 102      BB858A31 
 103 04e9 C22741E1 		.ascii	"\302'A\341'\2121\032.T\214\213\025\001\011\212 Q\214"
 103      278A311A 
 103      2E548C8B 
ARM GAS  /tmp/ccBNwNOj.s 			page 8


 103      1501098A 
 103      20518C
 104 04fc D372A162 		.ascii	"\323r\241bB\254\010IP\204\211b\202\246\013\025\223b"
 104      42AC0849 
 104      50848962 
 104      82A60B15 
 104      9362
 105 050e 45448222 		.ascii	"ED\202\"J\024\223\214m\261\314\316R\367~\202\354\307"
 105      4A14938C 
 105      6DB1CCCE 
 105      52F77E82 
 105      ECC7
 106 0520 94F5BB9B 		.ascii	"\224\365\273\233\335\260\377\216<\036\217\033\257\236"
 106      DDB0FF8E 
 106      3C1E8F1B 
 106      AF9E
 107 052e 499D4E9D 		.ascii	"I\235N\2358i\314\2355\316$f\214\364\334\207\037\235"
 107      3869CC9D 
 107      35CE2466 
 107      8CF4DC87 
 107      1F9D
 108 0540 354E4EBD 		.ascii	"5NN\2751>f\034?\376\232\361\372\233\307N|2f\244\023"
 108      313E661C 
 108      3FFE9AF1 
 108      FA9BC74E 
 108      7C3266A4 
 109 0555 33EFCCCC 		.ascii	"3\357\314\314\274\027\237fZ2\235\232K\353\323s\037\274"
 109      BC179F66 
 109      5A329D9A 
 109      4BEBD373 
 109      1FBC
 110 0567 9F4AFE0F 		.ascii	"\237J\376\017M\3351\002"
 110      4DDD3102 
 111              		.text
 112              		.section	.gnu.lto__pal_lld_setgroupmode.af3655d2e6290c95,"",%progbits
 113 0000 789C9557 		.ascii	"x\234\225WkhTG\024\236\231\273w_\211F\215h\022\243\306"
 113      6B685447 
 113      149E99BB 
 113      775F8946 
 113      8D6812A3 
 114 0015 F77BD724 		.ascii	"\367{\327$j\320\030C\236V\260\330\242R\205\202F\023"
 114      6AD01843 
 114      9E56B0D8 
 114      A2528582 
 114      4613
 115 0027 D6B41BB2 		.ascii	"\326\264\033\262\335\244\005\373\307\215\273?B#%\024"
 115      DDA405FB 
 115      C78DBB3F 
 115      42232514 
 116 0037 9BB53694 		.ascii	"\233\2656\224\330\"\242\326F\033l\254J\032E\250\322"
 116      D822A2D6 
 116      461B6CAC 
 116      4A1A45A8 
 116      D2
 117 0048 0714FCE1 		.ascii	"\007\024\374\341\332\037ZA\373\303 Xh-\324v{\316\231"
 117      DA1F5A41 
 117      FBC32058 
ARM GAS  /tmp/ccBNwNOj.s 			page 9


 117      682DD476 
 117      7BCE99
 118 005b 99BB8F04 		.ascii	"\231\273\217\004v\263\2203w\3169\337w\317|\363\272\021"
 118      76B39033 
 118      77CE39DF 
 118      77CF7CF3 
 118      BA11
 119 006d 4CB0F4DF 		.ascii	"L\260\364\337a\370\253\232\312\330;\320\362\034\306"
 119      61F8AB9A 
 119      CAD83BD0 
 119      F21CC6
 120 007c 45EFCF8C 		.ascii	"E\357\317\214u9\0057\344\203!l\335\313X\310\355D\233"
 120      75390537 
 120      E483216C 
 120      DDCB58C8 
 120      ED449B
 121 008f 6B1326F5 		.ascii	"k\023&\365\354\3243\271C&\331\365\203\203;\345\203S"
 121      ECD433B9 
 121      4326D9F5 
 121      83833BE5 
 121      8353
 122 00a1 B8230E48 		.ascii	"\270#\016Ht\035\373\236A\246K\322\335p\2729\307\007"
 122      741DFB9E 
 122      41A64BD2 
 122      DD70BA39 
 122      C707
 123 00b3 C6D91161 		.ascii	"\306\331\021a\330L\273\303\351r\363#{9\226\222\263\220"
 123      D84CBBC3 
 123      E972F323 
 123      7B399692 
 123      B390
 124 00c5 9D0A857A 		.ascii	"\235\012\205z\037>\276\372\234\177r|42\020z\031\217"
 124      1F3EBEFA 
 124      9C7F727C 
 124      3432107A 
 124      198F
 125 00d7 73DECAA1 		.ascii	"s\336\312\241\354\015\234\035\344l\017tx\0115\302\226"
 125      EC0D9C1D 
 125      E46C0F74 
 125      780935C2 
 125      96
 126 00e8 3A0EC27E 		.ascii	":\016\302~4\032\355\371\26004p\2647\364\037@[\271!\330"
 126      341AEDF9 
 126      B0303470 
 126      B437F41F 
 126      405BB921 
 127 00fd E62C9127 		.ascii	"\346,\221'~\310\355\355\352\016\305\343G\010V\233%\354"
 127      7EC8EDED 
 127      EA0EC5E3 
 127      4708569B 
 127      25EC
 128 010f 642A6C5B 		.ascii	"d*l[\226\260\376T\330\353Y\302>K\205\275\221%\354b*"
 128      96B0FE54 
 128      D8EB59C2 
 128      3E4B85BD 
 128      9125EC62 
 129 0124 ECCD2C61 		.ascii	"\354\315,a\303=\307\323\304\334\237\0352\364g\363\355"
ARM GAS  /tmp/ccBNwNOj.s 			page 10


 129      C33DC7D3 
 129      C4DC9F1D 
 129      32F467F3 
 129      ED
 130 0135 5064341E 		.ascii	"Pd4\036\257&Tk\226\250\177SP\376,Q\037\267$\243\332"
 130      AF26546B 
 130      96A87F53 
 130      50FE2C51 
 130      1FB724A3 
 131 014a 33A106C5 		.ascii	"3\241\006\305\350\303x\274?6\366\250\207\347o\345\254"
 131      E8C378BC 
 131      3F36F6A8 
 131      87E76FE5 
 131      AC
 132 015b 0D975713 		.ascii	"\015\227W\023\377\202/d\006\264\247\241\265A{\006Z\023"
 132      FF822F64 
 132      06B4A7A1 
 132      B5417B06 
 132      5A13
 133 016d DAB3D0DA 		.ascii	"\332\263\320\332\241\275\000\255\233\267q\330#29\027"
 133      A1BD00AD 
 133      9BB771D8 
 133      23323917 
 134 017d 86659BA2 		.ascii	"\206e\233\242\020S\261\223\247`\323\2603]ag`'\037:\347"
 134      1053B193 
 134      A760D3B0 
 134      335D6167 
 134      60271F3A 
 135 0192 A1331308 		.ascii	"\2413\023\010\330,\364\314FS\200\246\020\345)\202\204"
 135      D82CF4CC 
 135      465380A6 
 135      10E52982 
 135      84
 136 01a3 41489883 		.ascii	"AH\230\203\235b\350\\\206\316\\\310\026\3630g>\232\022"
 136      9D62E85C 
 136      86CE5CC8 
 136      16F33067 
 136      3E9A12
 137 01b6 340BD02C 		.ascii	"4\013\320,B\263\030\315\0224K\321,\007\320)\000\255"
 137      42B318CD 
 137      12344BD1 
 137      2C07D029 
 137      00AD
 138 01c8 408695D0 		.ascii	"@\206\225\320\271\004\235U\030Y\215f\015\032\017\232"
 138      B9049D55 
 138      18598D66 
 138      0D1A0F9A 
 139 01d8 B5684A31 		.ascii	"\265hJ1\253\014M9\244\016A\352:t\257G\263\001M\005\232"
 139      AB0C4D39 
 139      A40E41EA 
 139      3A74AF47 
 139      B3014D05 
 140 01ed 8D6836A1 		.ascii	"\215h6\241\251DS\205f\013\232j45(]\255\022\240N\215"
 140      A9445385 
 140      660B9A6A 
 140      3435285D 
 140      AD12A04E 
ARM GAS  /tmp/ccBNwNOj.s 			page 11


 141 0202 BD5E0DBB 		.ascii	"\275^\015\273A\251\324\250\244\203\237\311\"\260\273"
 141      41A9D4A8 
 141      A4839FC9 
 141      22B0BB
 142 0211 4BA45FA2 		.ascii	"K\244_\242$F\"\244B:\373 \235\010\273\300\3021\262\233"
 142      244622A4 
 142      423AFB20 
 142      9D08BBC0 
 142      C231B29B 
 143 0225 0B688C9F 		.ascii	"\013h\214\237X\370Zx\260\257\270\211\017s\223\371x\216"
 143      58F85A78 
 143      B0AFB889 
 143      0F7393F9 
 143      788E
 144 0237 8FBB7186 		.ascii	"\217\273q\206m\006\244\336aB\372%?D\031#\300P\337f\015"
 144      6D06A4DE 
 144      6142FA25 
 144      3F441923 
 144      C050DF66 
 145 024c C8D5005C 		.ascii	"\310\325\000\\\022\020\374*\034\324\241)\020\335#\217"
 145      1210FC2A 
 145      1CD4A129 
 145      10DD238F 
 146 025c 9A14AED3 		.ascii	"\232\024\256\323\3045Eq\015'\270\246j\256\202q\\y\020"
 146      C4354571 
 146      0D27B8A6 
 146      6AAE8271 
 146      5C7910
 147 026f 25AEB4BA 		.ascii	"%\256\264\272\316\020W\236\342\272\226\340\232\246\271"
 147      CE10579E 
 147      E2BA96E0 
 147      9AA6B9
 148 027e F68FE39A 		.ascii	"\366\217\343\232\016Q\3422S\271\316\022\327t\305\365"
 148      0E51E232 
 148      53B9CE12 
 148      D774C5F5 
 149 028e 5D826B86 		.ascii	"]\202k\206\346\012\345\215#\313\2070\2219R\311\316\023"
 149      E60AE58D 
 149      23CB8730 
 149      913952C9 
 149      CE13
 150 02a0 593EFA8E 		.ascii	"Y>\372\216\016\3343\265\033g\002\323\015\275uv\303#"
 150      0EDC33B5 
 150      1B6702D3 
 150      0DBD7576 
 150      C323
 151 02b2 9CDE06A4 		.ascii	"\234\336\006\2449\231J\360q;\341\310!\2532\023\0169"
 151      39994AF0 
 151      713BE1C8 
 151      21AB3213 
 151      0E39
 152 02c4 645BC221 		.ascii	"d[\302!\3654\022\0169YB;`I\3718W\303z\3327_\227>\013"
 152      F534120E 
 152      3959423B 
 152      6049F938 
 152      57C37ADA 
 153 02dd BC342C5C 		.ascii	"\2744,\\\027\267Yd\254\253\324\012\221?\261\301c\214"
ARM GAS  /tmp/ccBNwNOj.s 			page 12


 153      17B75964 
 153      ACABD40A 
 153      913FB1C1 
 153      638C
 154 02ef FBF84C01 		.ascii	"\373\370L\001\246\306\365\345\203C1&`1\210\353\261\200"
 154      A6C6F5E5 
 154      83433126 
 154      603188EB 
 154      B180
 155 0301 8F37B88E 		.ascii	"\2177\270\216=\367\307\230\0013*~DG\255\353\356\276"
 155      3DF7C798 
 155      01332A7E 
 155      4447ADEB 
 155      EEBE
 156 0313 18B3C1AC 		.ascii	"\030\263\301\254\210\273{}\274\3165\366\2403\306LPV"
 156      88BB7B7D 
 156      BCCE35F6 
 156      A033C64C 
 156      5056
 157 0325 8C61BCDE 		.ascii	"\214a\274\336\365\362\001\000\354J\006q\354Wp6\272\372"
 157      F5F20100 
 157      EC4A0671 
 157      EC577036 
 157      BAFA
 158 0337 9FEF4735 		.ascii	"\237\357G5l\254{\231\\\225/\372^\261\226\367 -\343K"
 158      6CAC7B99 
 158      5C952FFA 
 158      5EB196F7 
 158      202DE34B 
 159 034b 6487C85E 		.ascii	"d\207\310^\246%-\353\205\237\217\317\006\325\250j\207"
 159      A6252DEB 
 159      859F8FCF 
 159      06D5A86A 
 159      87
 160 035c 9CA30FC2 		.ascii	"\234\243\017\302\337\300d\\\241\341\024@8i\221\036}"
 160      DFC0645C 
 160      A1E11440 
 160      3869911E 
 160      7D
 161 036d 161EE13A 		.ascii	"\026\036\341:V\010a\002\\\010\177n9\213hb\013\325\214"
 161      56086102 
 161      5C087F6E 
 161      398B6862 
 161      0BD58C
 162 0380 5EA1A91B 		.ascii	"^\241\251\033$U\213T\356?\250\243L\236C\363\237\307"
 162      24558B54 
 162      EE3FA8A3 
 162      4C9E43F3 
 162      9FC7
 163 0392 0840EC6F 		.ascii	"\010@\354o\351P1DSH.\023I1\351\375\344\306H\216N\224"
 163      E9503144 
 163      53482E13 
 163      4931E9FD 
 163      E4C6488E 
 164 03a8 6A3892CE 		.ascii	"j8\222\316\324\335\340\277\225\017R\334\274\177\342"
 164      D4DDE0BF 
 164      950F52DC 
ARM GAS  /tmp/ccBNwNOj.s 			page 13


 164      BC7FE2
 165 03b7 6ACCD089 		.ascii	"j\314\320\211\363V\261s\241\010$\233\237\262\223\320"
 165      F356B173 
 165      A108249B 
 165      9FB293D0 
 166 03c7 D87D7C2E 		.ascii	"\330}|.b%\364\000\327p\250\343z\370kK\201\371\364R\322"
 166      6225F400 
 166      D770A8E3 
 166      7AF86B4B 
 166      81F9F452 
 167 03dc F59CE52C 		.ascii	"\365\234\345,\001:\010\221\377\333\360\023\313\277\200"
 167      013A0891 
 167      FFDBF013 
 167      CBBF80
 168 03eb 4234D29B 		.ascii	"B4\322\233wzU\215\364\336\256Pe\2067\003Z\327o\327\365"
 168      777A558D 
 168      F4DEAE50 
 168      65863703 
 168      5AD76FD7 
 169 0400 DF4BAA7F 		.ascii	"\337K\252\177Q\206\372\371\304\365/\236\250\376%@\007"
 169      5186FAF9 
 169      C4F52F9E 
 169      A8FE2540 
 169      07
 170 0411 A171F52F 		.ascii	"\241q\365/\245\320d\353\347\252\376\245\272~\207\\\212"
 170      A5D064EB 
 170      E7AAFEA5 
 170      BA7E875C 
 170      8A
 171 0422 309F83D1 		.ascii	"0\237\203\321y\232{9mN\\\002\326\220V\320\374\343&["
 171      799A7B39 
 171      6D4E5C02 
 171      D69056D0 
 171      FCE3265B 
 172 0436 9E3EFF2B 		.ascii	"\236>\377+!\2322\377\227h\376WRi\367O\\\373\315\"Y\225"
 172      219A32FF 
 172      9768FE57 
 172      5269F74F 
 172      5CFBCD22 
 173 044c 411791AC 		.ascii	"A\027\221\254\313\2105\324\325\212\014tI,\3675@\007"
 173      CB8835D4 
 173      D58A0C74 
 173      492CF735 
 173      4007
 174 045e 21A5CB1F 		.ascii	"!\245\313\037\226\337C!C\352r1U\227\212\014o\006\264"
 174      96DF4321 
 174      43EA7231 
 174      55978A0C 
 174      6F06B4
 175 0471 DA56C351 		.ascii	"\332V\303Q\217&\\\253\367\234\320\373\352}\035*\205"
 175      8F265CAB 
 175      F79CD0FB 
 175      EA7D1D2A 
 175      85
 176 0482 689A4E65 		.ascii	"h\232Ne\352\000\207`\272N\345\020M\321i\210t*\227:\335"
 176      EA008760 
 176      BA4EE510 
ARM GAS  /tmp/ccBNwNOj.s 			page 14


 176      4DD16988 
 176      742A973A 
 177 0497 4BD2695D 		.ascii	"K\322i]\006\235\214d\235\036YC_\257\310@\247\253\226"
 177      069D8C64 
 177      9D1E5943 
 177      5FAFC840 
 177      A7AB96
 178 04aa 7303D041 		.ascii	"s\003\320AH\351\364\227\345\257\240\220m\222:\031J\247"
 178      48E9F497 
 178      E5AFA090 
 178      6D923A19 
 178      4AA7
 179 04bc 0A59F4DF 		.ascii	"\012Y\364\337IEo\314P\264\315*\032\352K,\372MT\367F"
 179      49456FCC 
 179      50B4CD2A 
 179      1AEA4B2C 
 179      FA4D54F7 
 180 04d1 55DF33CB 		.ascii	"U\3373\313_I!s\222\365\331T}\225j\361\215$\352\253\312"
 180      5F492173 
 180      92F5D954 
 180      7D956AF1 
 180      8D24EAAB 
 181 04e6 509F3971 		.ascii	"P\2379q}[\250\276\252q\365USHL\262>S\325W\255\367\237"
 181      7D5BA8BE 
 181      AA71F555 
 181      53484CB2 
 181      3E53D557 
 182 04fd 932E46BA 		.ascii	"\223.F\272n\237F\213\364\325T\243n-\206\373\325\272"
 182      6E9F468B 
 182      F4D554A3 
 182      6E2D86FB 
 182      D5BA
 183 050f 70E98EAB 		.ascii	"p\351\216\253\301c\365\326\3577^\364\344Z\331i\027\031"
 183      C163F5D6 
 183      EF375EF4 
 183      E45AD969 
 183      1719
 184 0521 F2BA18FC 		.ascii	"\362\272\030\374\003e\320)\376\"j}\371\324\302\316\030"
 184      0365D029 
 184      FE226A7D 
 184      F9D4C2CE 
 184      18
 185 0532 CFAB6FD7 		.ascii	"\317\253o\327Z}\354G\347j@\035,\221\211>o\344\375\\"
 185      5A7DEC47 
 185      E76A401D 
 185      2C91893E 
 185      6FE4FD5C 
 186 0546 A700F1E8 		.ascii	"\247\000\361\350\034\015\250\2079\233\010 o\370z\005"
 186      1C0DA887 
 186      399B0820 
 186      6FF87A05 
 187 0556 386555D4 		.ascii	"8eU\324\000\032N\224/\257\367\006\312\357\016\237\351"
 187      001A4E94 
 187      2FAFF706 
 187      CAEF0E9F 
 187      E9
 188 0567 2FD08046 		.ascii	"/\320\200F}\217\244\015A~S4\352\361\273\361\303\357"
ARM GAS  /tmp/ccBNwNOj.s 			page 15


 188      7D8FA40D 
 188      417E5334 
 188      EAF1BBF1 
 188      C3EF
 189 0579 17D6F5F0 		.ascii	"\027\326\365\360\345cn]\240\364\333\005\207`\304\201"
 189      E5636E5D 
 189      A0F4DB05 
 189      8760C481 
 190 0589 AF2BF778 		.ascii	"\257+\367x\274u\207Z\017\264\356\330\351m\357\360\036"
 190      BC75875A 
 190      0FB4EED8 
 190      E96DEFF0 
 190      1E
 191 059a 6AF27B03 		.ascii	"j\362{\003\355\301\316\016\357\316]\257\226\227y\267"
 191      EDC1CE0E 
 191      EFCE5DAF 
 191      969779B7 
 192 05aa 6FAFF76E 		.ascii	"o\257\367n}m\333\216\367\312\274\201&\377>\277\277\331"
 192      7D6DDB8E 
 192      F7CABC81 
 192      26FF3EBF 
 192      BFD9
 193 05bc 73909907 		.ascii	"s\220\231\007Z;=k\315\266\366\346\226\240\275\275\363"
 193      5A3B3D6B 
 193      CDB6F6E6 
 193      96A0BDBD 
 193      F3
 194 05cd 70A025E8 		.ascii	"p\240%\350h\357\010\264\2644\007\315\300\273\201\346"
 194      68EF08B4 
 194      B43407CD 
 194      C0BB81E6 
 195 05dd A0ADC9DF 		.ascii	"\240\255\311\337\0314 \313\211\017mM\035o\213\266R\321"
 195      193420CB 
 195      890F6D4D 
 195      1D6F8BB6 
 195      52D1
 196 05ef 5626DAD6 		.ascii	"V&\332\326\375\017Z\227J\005"
 196      FD0F5A97 
 196      4A05
 197              		.text
 198              		.section	.gnu.lto_.symbol_nodes.af3655d2e6290c95,"",%progbits
 199 0000 789C6362 		.ascii	"x\234cb`bP`\200\002\246\211L\365\014\014\023\31610\324"
 199      60625060 
 199      8002A689 
 199      4CF50C0C 
 199      13CE3130 
 200 0015 D7CFEB60 		.ascii	"\327\317\353`d\232\304T\317\210\3402\000\000\225\362"
 200      649AC454 
 200      CF88E032 
 200      000095F2 
 201 0025 0955     		.ascii	"\011U"
 202              		.text
 203              		.section	.gnu.lto_.refs.af3655d2e6290c95,"",%progbits
 204 0000 789C6362 		.ascii	"x\234cb`b`d\200\002\000\000F\000\006"
 204      60626064 
 204      80020000 
 204      460006
ARM GAS  /tmp/ccBNwNOj.s 			page 16


 205              		.text
 206              		.section	.gnu.lto_.decls.af3655d2e6290c95,"",%progbits
 207 0000 789CCD59 		.ascii	"x\234\315Y}lS\327\025\277\367\331q\022\342\261\210\016"
 207      7D6C53D7 
 207      15BFF7D9 
 207      7112E2B1 
 207      880E
 208 0012 44D54AB8 		.ascii	"D\325J\270\322\272U\250\301\220\260\252\373j\2278\201"
 208      D2BA55A8 
 208      C190B0AA 
 208      FB6A9738 
 208      81
 209 0023 640D8D65 		.ascii	"d\015\215e\203\266\375e=\342\027b-\211]\307\331\330"
 209      83B6FD65 
 209      3DE21762 
 209      2D895DC7 
 209      D9D8
 210 0035 7F97A420 		.ascii	"\177\227\244 \026m]HX\032\012\015\246\013i(\264\371"
 210      166D5D48 
 210      581A0A0D 
 210      A60B6928 
 210      B4F9
 211 0047 E8580B69 		.ascii	"\350X\013i\033\247\250(\243]\262\006\321\321-4am\324"
 211      1BA7A828 
 211      A35DB206 
 211      D1D12D34 
 211      616DD4
 212 005a A1AA5DD7 		.ascii	"\241\252]\327i\035\033\025\336\271\347=\333\357\032"
 212      691D1B15 
 212      DEB9E73D 
 212      DBEF1A
 213 0069 3B7E2FAB 		.ascii	";~/\253\246=\371\234{}\3379\277\373\273\037\357\236"
 213      A63DF99C 
 213      7B7DDF39 
 213      BFFBBB1F 
 213      EF9E
 214 007b E3678948 		.ascii	"\343g\211H\304O\011\211\303\325\177\007!^\013!\360!"
 214      C44F0989 
 214      C3D57F07 
 214      215E0B21 
 214      F021
 215 008d 0F90D425 		.ascii	"\017\220\324%\201\034\003\271Dn\275x\373J\220|\220y"
 215      811C03B9 
 215      446EBD78 
 215      FB4A907C 
 215      9079
 216 009f 903B00EB 		.ascii	"\220;\000\353\033 \337\004\3716\310qh\033\000YAU;;\307"
 216      1B20DF04 
 216      F936C871 
 216      681B0059 
 216      41553B3B 
 217 00b4 86FAB740 		.ascii	"\206\372\267@\336\206\372j\220\365P?\011\345\031\220"
 217      DE86FA6A 
 217      90F5503F 
 217      09E51990 
 218 00c4 AB20E320 		.ascii	"\253 \343 \357\202\274\014\262\0102\001r\015d\222s\001"
 218      EF82BC0C 
ARM GAS  /tmp/ccBNwNOj.s 			page 17


 218      B2083201 
 218      720D6492 
 218      7301
 219 00d6 DB73505A 		.ascii	"\333sPZ\241\034\205\362\035\220\363 S \027@\336\000"
 219      A11C85F2 
 219      1D90F320 
 219      53201740 
 219      DE00
 220 00e8 99D6717E 		.ascii	"\231\326q~\220\252\334fA\252\241^\003\362]\220\207@"
 220      90AADC66 
 220      41AAA15E 
 220      03F25D90 
 220      8740
 221 00fa 6A41B651 		.ascii	"jA\266Qq<|\214\005\034\237\244\370\216\351\306\3079"
 221      713C7C8C 
 221      051C9FA4 
 221      F88EE9C6 
 221      C739
 222 010c 5F06B169 		.ascii	"_\006\261i\\8\217\253\032\337E\215\017\325p\370<\256"
 222      5C388FAB 
 222      1ADF458D 
 222      0FD570F8 
 222      3CAE
 223 011e 812F6B41 		.ascii	"\201/kA\276\224\326\317:\322\317\242\013\013{?\032\271"
 223      BE94D6CF 
 223      3AD2CFA2 
 223      0B0B7B3F 
 223      1AB9
 224 0130 9D45DB63 		.ascii	"\235E\333c\361\370\203d\015\371%\203+\272\2171\032\221"
 224      F1F88364 
 224      0DF92583 
 224      2BBA8F31 
 224      1A91
 225 0142 E903ABC9 		.ascii	"\351\003\253\311\367\251LW\026\022\007V\354\205H\212"
 225      F7A94C57 
 225      16120756 
 225      EC85488A 
 226 0152 10993E45 		.ascii	"\020\231>E\327`\315\202\303$E\244\223\261v\356X=\265"
 226      D760CD82 
 226      C32445A4 
 226      93B176EE 
 226      583DB5
 227 0165 72153980 		.ascii	"r\0259\200(\0002\005\003\320 b+\022\030C\234\310\335"
 227      28003205 
 227      03D02062 
 227      2B121843 
 227      9CC8DD
 228 0178 6480B1AE 		.ascii	"d\200\261\256\205+\327\236\2660V\240\2718\262\333\313"
 228      852BD79E 
 228      B63056A0 
 228      B938B2DB 
 228      CB
 229 0189 7490DE4D 		.ascii	"t\220\336Mr\333q\313!\272\212\254''\300\260\213\261"
 229      72DB71CB 
 229      21BA8AAC 
 229      2727C0B0 
 229      8BB1
ARM GAS  /tmp/ccBNwNOj.s 			page 18


 230 019b 57EF13C7 		.ascii	"W\357\023\307\215\035\263\330\370\254\235YUS\356r\202"
 230      8D1DB3D8 
 230      F8AC9D59 
 230      5553EE72 
 230      82
 231 01ac AECFB0B5 		.ascii	"\256\317\260\265\310]$\312\215\337\234=BY\364U\232\241"
 231      C85D24CA 
 231      8DDF9C3D 
 231      4259F455 
 231      9AA1
 232 01be FB059AE8 		.ascii	"\373\005\232\350\376\316\344\250b\207f\251C\246\247"
 232      FECEE4A8 
 232      628766A9 
 232      43A6A7
 233 01cd C05E228F 		.ascii	"\300^\"\217P\001>'\004g3\014\236\252\223\306\366O3\310"
 233      50013E27 
 233      0467330C 
 233      9EAA93C6 
 233      F64F33C8 
 234 01e1 76D800DB 		.ascii	"v\330\000\333\366\330\374\314\221\3339\333B\262?\265"
 234      F6D8FCCC 
 234      91DB39DB 
 234      42B23FB5 
 235 01f1 2824E352 		.ascii	"($\343Rj\253p\250\363\265I\332\016\353%\3231p\223\310"
 235      6AAB70A8 
 235      F3B549DA 
 235      0EEB25D3 
 235      317093C8 
 236 0205 752AB236 		.ascii	"u*\2626\016\325\323\375\322\327aAez\032\201\366YD \231"
 236      0ED5D3FD 
 236      D2D76141 
 236      657A1A81 
 236      F6594420 
 237 021a E617EA29 		.ascii	"\346\027\352)\343\367\204\001G\303\333Z\205\237\010"
 237      E3F78401 
 237      47C3DB5A 
 237      859F08
 238 0229 5F2466CD 		.ascii	"_$f\315%r\000;\345\223\225\211\250VU/\315@\230\300\205"
 238      2572003B 
 238      E5939589 
 238      A856552F 
 238      CD4098C0 
 239 023e B9C5A338 		.ascii	"\271\305\2438\201\211\331x\3344\236CX\220Og\354]r\002"
 239      8189D978 
 239      DC349E43 
 239      58904F67 
 239      EC5D7202 
 240 0252 ACDF0858 		.ascii	"\254\337\010XAVr\261\177\353\301\006M\203\211\314n\352"
 240      415672B1 
 240      7FEBC106 
 240      4D8389CC 
 240      6EEA
 241 0264 C14E1901 		.ascii	"\301N\031\001+\316\316\254{V\0076b\032Ld\326\253\007"
 241      2BCECEAC 
 241      7B560736 
 241      621A4C64 
 241      D6AB07
ARM GAS  /tmp/ccBNwNOj.s 			page 19


 242 0277 3B6D046C 		.ascii	";m\004lm\006f\231.\375\343%\323\0218Ud:J\357\002}\006"
 242      6D066699 
 242      2EFDE325 
 242      D3113855 
 242      643A4AEF 
 243 028e F538EA97 		.ascii	"\3658\352\227QO\240\236D}\016t\362\222\310Y\3444\224"
 243      514FA09E 
 243      447D0E74 
 243      F292C859 
 243      E43494
 244 02a1 E2243EC6 		.ascii	"\342$>\306\271v\031\213]\366\360\001\252\207\304\244"
 244      B976198B 
 244      5DF6F001 
 244      AA87C4A4 
 245 02b1 21306184 		.ascii	"!0a\204\016\001\354c\035\330\224!\260\373\2633\273\256"
 245      0E01EC63 
 245      1DD89421 
 245      B0FBB333 
 245      BBAE
 246 02c3 039B3104 		.ascii	"\003\2331\004\346\316\316\254\313\233\002{\313\020X"
 246      E6CECEAC 
 246      CB9B027B 
 246      CB1058
 247 02d2 283BB33E 		.ascii	"(;\263>\035\330\025C`\373i\006j\272\275\240\356\202"
 247      1DD81543 
 247      60FB6906 
 247      6ABABDA0 
 247      EE82
 248 02e4 6770179C 		.ascii	"gp\027\234\304u>\217z\012\365\005\324o\240\236\026\327"
 248      C4753E8F 
 248      7A0AF505 
 248      D46FA09E 
 248      16D7
 249 02f6 FFBD5B4E 		.ascii	"\377\275[N65\226\350\260\207\222\373\214\230C\317\026"
 249      363596E8 
 249      B08792FB 
 249      8C9843CF 
 249      16
 250 0307 75076851 		.ascii	"u\007hQ\012}\207E\307\346\24346_&\277b\254\033\202\373"
 250      0A7D8745 
 250      C7E6A334 
 250      365F26BF 
 250      62AC1B82 
 251 031c 5FAC8758 		.ascii	"_\254\207X\314\252\272J\34434;F\327e\354\"\331\301W"
 251      CCAABA4A 
 251      E433343B 
 251      46D765EC 
 251      22D9C157 
 252 0330 C8711EA4 		.ascii	"\310q\036\244~\316\366\026SL\003\210\346%\014\357M*"
 252      7ECEF616 
 252      534C0388 
 252      E6250CEF 
 252      4D2A
 253 0342 E91BD47C 		.ascii	"\351\033\324|\"v\363\202\275k\317B<\276\316x2\361V\356"
 253      2276F382 
 253      BD6BCF42 
 253      3CBECE78 
ARM GAS  /tmp/ccBNwNOj.s 			page 20


 253      32F156EE 
 254 0356 64428897 		.ascii	"dB\210\227R\002\340^\222J$\216\035\265`\334y\0337G\207"
 254      5202E05E 
 254      924A248E 
 254      1DB560DC 
 254      791B3747 
 255 036b 3577D815 		.ascii	"5w\330\025`8\217\271\364\260{c\032\303\356\\\356\260"
 255      60388FB9 
 255      F4B07B63 
 255      1AC3EE5C 
 255      EEB0
 256 037d FB68472C 		.ascii	"\373hG,>\255\013\273\035K\306J\231>\217\033\316H0\353"
 256      3EAD0BBB 
 256      1D4BC64A 
 256      993E8F1B 
 256      CE4830EB 
 257 0391 C291CC2D 		.ascii	"\302\221\314-/\230\001\255.\365\210\237\307\203\264"
 257      2F9801AD 
 257      2EF5889F 
 257      C783B4
 258 03a0 D7349843 		.ascii	"\3274\230C\000\353\326\203=i\004,[$\003\260\203z\260"
 258      00EBD683 
 258      3D69042C 
 258      5B2403B0 
 258      837AB0
 259 03b3 E3A6C144 		.ascii	"\343\246\301Df\275z\260\223F\300\262E2\000\353\323\203"
 259      66BD7AB0 
 259      9346C0B2 
 259      453200EB 
 259      D383
 260 03c5 0D9B06D3 		.ascii	"\015\233\006\3233\333\023{a\346\002e\335\366\333H7c"
 260      33DB137B 
 260      61E60265 
 260      DDF6DB48 
 260      3763
 261 03d7 7B58D496 		.ascii	"{X\324\226mS\020\202&lI\023\231~Ho\0237\351\341_\254"
 261      6D531082 
 261      266C4913 
 261      997E486F 
 261      1337E9E1 
 262 03ed E49B94B7 		.ascii	"\344\233\224\267\347\316\015\237\324r\303Dd}\036\007"
 262      E7CE0D9F 
 262      D472C344 
 262      647D1E07 
 263 03fd C77D9793 		.ascii	"\307}\227\223*\261\330\351\231\"\326iOd\374\337\031"
 263      2AB1D8E9 
 263      9922D669 
 263      4F64FCDF 
 263      19
 264 040e 5A82F827 		.ascii	"Z\202\370'\351O\327\321\031\311\2416\347\346=:sd-\213"
 264      E94FD7D1 
 264      19C9A136 
 264      E7E63D3A 
 264      73642D8B 
 265 0422 4E26725A 		.ascii	"N&rZ\266\217\335\243\353\2538\321\027??\2229\355\013"
 265      B68FDDA3 
 265      EBAB38D1 
ARM GAS  /tmp/ccBNwNOj.s 			page 21


 265      173F3F92 
 265      39ED0B
 266 0435 F7E281F0 		.ascii	"\367\342\201\360\0175\205H;\020\214\003\365t?\255f\264"
 266      0F358548 
 266      3B108C03 
 266      F5743FAD 
 266      66B4
 267 0447 D711E815 		.ascii	"\327\021\350\025k\372\271oI\313h-\342Sm)LU\342q\013"
 267      6BFAB96F 
 267      49CB682D 
 267      E2536D29 
 267      4C55E271 
 268 045c 31672C91 		.ascii	"1g,\221\337b\207\237\244\366\237@\322H6\333\217S\227"
 268      DF62879F 
 268      A4F69F40 
 268      D24836DB 
 268      8F5397
 269 046f 9889DF99 		.ascii	"\230\211\337\231\306+N[\023\211\\\\\356\266\321\215"
 269      C62B4E5B 
 269      13895C5C 
 269      EEB6D18D 
 270 047f 3C1117FF 		.ascii	"<\021\027\377\212\361\357obt\275d\344\241\313\224\361"
 270      8AF1EF6F 
 270      6274BD64 
 270      E4A1CB94 
 270      F1
 271 0490 694FF08B 		.ascii	"iO\360\213\372'\370\217\246\301\034\002\330Y=\330\274"
 271      FA27F88F 
 271      A6C11C02 
 271      D8593DD8 
 271      BC
 272 04a1 11304776 		.ascii	"\0210Gvf/\351\301\3363\015&2{E\017v\315\010\330=K-\212"
 272      662FE9C1 
 272      DE330D26 
 272      327B450F 
 272      76CD08D8 
 273 04b9 B03E73BA 		.ascii	"\260>s\272,\371\012\206\253wp\245\256\242~\027\365\""
 273      2CF90A86 
 273      AB7770A5 
 273      AEA27E17 
 273      F522
 274 04cb EAF7515F 		.ascii	"\352\367Q_C\375\001j&q\335\216\372Q\324\373\244\034"
 274      43FD016A 
 274      2671DD8E 
 274      FA51D4FB 
 274      A41C
 275 04dd F98DF6D3 		.ascii	"\371\215\366\323\371b\357\235\3744\273\214\351\312\207"
 275      F962EF9D 
 275      FC34BB8C 
 275      E9CA87
 276 04ec 69CF9A90 		.ascii	"i\317\232\220\031\250\241>\333i\323)\025e9Tn\271\247"
 276      19A8A13E 
 276      DB69D329 
 276      15653954 
 276      6EB9A7
 277 04ff A51D867F 		.ascii	"\245\035\206\177\343\306\342=\2539\307\237I\370S\371"
 277      E3C6E23D 
ARM GAS  /tmp/ccBNwNOj.s 			page 22


 277      AB39C79F 
 277      49F853F9 
 278 050f 96F3809F 		.ascii	"\226\363\200\237\254B\177\206~\342\232f\321\267F\222"
 278      AC427F86 
 278      7EE29A66 
 278      D1B74692 
 279 051f 691772D8 		.ascii	"i\027r\330\233\367\371pHK*\037K\203\325\222\312\305"
 279      9BF7F970 
 279      484B2A1F 
 279      4B83D592 
 279      CAC5
 280 0531 E17F6949 		.ascii	"\341\177iI\245\272J\003hv)kR\311\2554\337\330\201\327"
 280      A5BA4A03 
 280      6876296B 
 280      52C9AD34 
 280      DFD881D7 
 281 0545 4F41FC91 		.ascii	"OA\374\221\022\223w\"\207+\267J\270\366\274>\250\272"
 281      12937722 
 281      872BB74A 
 281      B8F6BC3E 
 281      A8BA
 282 0557 AA637E2E 		.ascii	"\252c~.\207+\267\"\211T6\026\357\354\210RfK&\263\227"
 282      872BB722 
 282      89543616 
 282      EFEC8852 
 282      664B26B3 
 283 056c D293D91E 		.ascii	"\322\223\331\036IHf3\344\213QK\242\203\315\311EX\370"
 283      49486633 
 283      E48B514B 
 283      A283CDC9 
 283      4558F8
 284 057f C307BFFF 		.ascii	"\303\007\277\377)\035e\254X\246\207%\236x\276\2376g"
 284      291D65AC 
 284      58A68725 
 284      9E78BE9F 
 284      3667
 285 0591 398178E7 		.ascii	"9\201x\347\375RZh\374\347<&\236\274=w\342yc\376\240"
 285      FD525A68 
 285      FCE73C26 
 285      9EBC3D77 
 285      E27963FE 
 286 05a6 16D3D573 		.ascii	"\026\323\325s\340\357H\201\373./c\374l^w\250|j\032\314"
 286      E0EF4881 
 286      FB2E2F63 
 286      FC6C5E77 
 286      A87C6A1A 
 287 05bb 2180DDD4 		.ascii	"!\200\335\324\203\3350\002\266D\306\330\365\347)\236"
 287      83DD3002 
 287      B644C6D8 
 287      F5E7299E 
 288 05cb 4A25E0E2 		.ascii	"J%\340\342\246\341Dn\335\"\334~\233\001\270%\262\306"
 288      A6E1446E 
 288      DD22DC7E 
 288      9B01B825 
 288      B2C6
 289 05dd 8322DC01 		.ascii	"\203\"\334\001\323p\"\273^\021\256\317\010\334\022\021"
 289      D37022BB 
ARM GAS  /tmp/ccBNwNOj.s 			page 23


 289      5E11AECF 
 289      08DC1211 
 290 05ed B14F848B 		.ascii	"\261O\204\213\232\206\023\331=!\302\015\031\201sdgw"
 290      9A8613D9 
 290      3D21C20D 
 290      19817364 
 290      6777
 291 05ff 44847BD6 		.ascii	"D\204{\3264\234\310\256_\204\0335\002\227)2jp#\"\334"
 291      349CC8AE 
 291      5F841B35 
 291      02972932 
 291      6A702322 
 292 0614 19D37022 		.ascii	"\031\323p\"\2731\021n\302\010\334\306\014\3542]\372"
 292      BB31116E 
 292      C208DCC6 
 292      0CEC325D 
 292      FA
 293 0625 C344A647 		.ascii	"\303D\246G%\036\267\243\030\201\237B=\200z\020\365\020"
 293      251EB7A3 
 293      18819F42 
 293      3D807A10 
 293      F510
 294 0637 EA67509F 		.ascii	"\352gP\237B\375\034\352\021\324c\250\177\215\3727\250"
 294      42FD1CEA 
 294      11D463A8 
 294      7F8DFA37 
 294      A8
 295 0648 5FD4C7F0 		.ascii	"_\324\307\360\264X|8\013}\316\350\254T\224\321+\363"
 295      B4587C38 
 295      0B7DCEE8 
 295      AC5494D1 
 295      2BF3
 296 065a 1F05E26B 		.ascii	"\037\005\342k\034\231>\213\271\307\260\360.\305\364"
 296      1C993E8B 
 296      B9C7B0F0 
 296      2EC5F4
 297 0669 FBBA6CD4 		.ascii	"\373\272l\324\306S\324\214\260!\377=\223d\200\217}\016"
 297      C653D48C 
 297      B021FF3D 
 297      9364808F 
 297      7D0E
 298 067b AF07F83B 		.ascii	"\257\007\370;\227\330\307\013\307\347\037\323\376\303"
 298      97D8C70B 
 298      C7E71FD3 
 298      FEC3
 299 0689 9960D4C4 		.ascii	"\231`\324\304\27781Ix\361\242fF\311/\332\334\244%\005"
 299      BF383149 
 299      78F1A266 
 299      46C92FDA 
 299      DCA42505 
 300 069d AFD93225 		.ascii	"\257\3312%\005\354\220R\255\272Kd\032-&\244l\221\231"
 300      05EC9052 
 300      ADBA4B64 
 300      1A2D26A4 
 300      6C9199
 301 06b0 5B25DC0E 		.ascii	"[%\334\016\237\267wQ\265+\231^\244\322\222\216\032!"
 301      9FB77751 
ARM GAS  /tmp/ccBNwNOj.s 			page 24


 301      B52B995E 
 301      A4D2928E 
 301      1A21
 302 06c2 EDEDD438 		.ascii	"\355\355\3248s\257M\306s\356$<\005\347\304x\376U2\310"
 302      73AF4DC6 
 302      73EE243C 
 302      05E7C478 
 302      FE5532C8 
 303 06d6 E3EAE3D3 		.ascii	"\343\352\343\323S{\370_3\272e\327\337gc\321\342\377"
 303      537BF85F 
 303      33BA65D7 
 303      DF6763D1 
 303      E2FF
 304 06e8 939BA46C 		.ascii	"\223\233\244l\303\006\247\2531\2603P\347u\006[\235\215"
 304      C306A7AB 
 304      31B03350 
 304      E775065B 
 304      9D8D
 305 06fa 72933314 		.ascii	"r\2233\024\014GZ\235\336\355\333\312J\235\265\265\225"
 305      0C475A9D 
 305      DEEDDBCA 
 305      4A9DB5B5 
 305      95
 306 070b CEADEE9A 		.ascii	"\316\255\356\232\272\037\225:Cr\223\257\251\311\277"
 306      BA1F953A 
 306      437293AF 
 306      A9C9BF
 307 071a A17E193E 		.ascii	"\241~\031>\215\304\266\365\341\035\016\027Y\325\032"
 307      8DC4B6F5 
 307      E11D0E17 
 307      59D51A
 308 0729 692E2BF5 		.ascii	"i.+\365\355\012\005\202\276V%\322\026\362\201[K\003"
 308      ED0A0582 
 308      BE5625D2 
 308      16F2815B 
 308      4B03
 309 073b CAD79C8D 		.ascii	"\312\327\234\215\301f\305\031VZ\0259\\\337\010\270a"
 309      C166C519 
 309      565A1539 
 309      5CDF08B8 
 309      61
 310 074c FF8FE5B0 		.ascii	"\377\217\345\260\342\224\303\315\245\316]\365\365%P"
 310      E294C3CD 
 310      A5CE5DF5 
 310      F52550
 311 075b 29519A77 		.ascii	")Q\232w*~\277\342O6\264\004[\224\022E\336\031(\331\354"
 311      2A7EBFE2 
 311      4F36B404 
 311      5B941245 
 311      DE1928D9 
 312 0770 BBBFA474 		.ascii	"\273\277\244t\343\246\315\217\224:\205\033\316@K}S\233"
 312      E3A6CD8F 
 312      943A851B 
 312      CE404B7D 
 312      539B
 313 0782 5F71B646 		.ascii	"_q\266F\374\201\226\010\260)h\203\022xD:\350\377\256"
 313      FC819608 
ARM GAS  /tmp/ccBNwNOj.s 			page 25


 313      B0296883 
 313      1278443A 
 313      E8FFAE
 314 0795 F766B9BE 		.ascii	"\367f\271\2761\320\2428}~\245Ank\212\370\"?\011)\255"
 314      31D0A238 
 314      7D7EA541 
 314      6E6B8AF8 
 314      223F0929 
 315 07aa C06685CF 		.ascii	"\300f\205\317\227\340\223\327\034\364+a[\220\337\012"
 315      97E093D7 
 315      1CF42B61 
 315      5B90DF0A 
 316 07ba E7075B43 		.ascii	"\347\007[C\212\342\017\347\205\332B\376\260%\350\017"
 316      8AE20FE7 
 316      85DA42FE 
 316      B025E80F 
 317 07ca 5BE58670 		.ascii	"[\345\206p\023W"
 317      1357
 318 07d0 8D367779 		.ascii	"\2156wy\245\034\221m\356\012\265p\251E\245ZT\251\305"
 318      A51C916D 
 318      EE0AB570 
 318      A945A55A 
 318      54A9C5
 319 07e3 165E14BA 		.ascii	"\026^\024\272\313k]\301\226\206\300\256/\370\264\365"
 319      CB6B5DC1 
 319      9686C0AE 
 319      2FF8B4F5 
 320 07f3 F0055A02 		.ascii	"\360\005Z\002\021[=6\332u+\022\311\333VWY\345\261\325"
 320      115B3D36 
 320      DA752B12 
 320      C9DB5657 
 320      59E5B1D5 
 321 0807 6DFF81BB 		.ascii	"m\377\201\273\312\223_\347uWUUz\362\334;\334\225\036"
 321      CA935FE7 
 321      75575555 
 321      7AF2DC3B 
 321      DC951E
 322 081a 4B0D485D 		.ascii	"K\015H]\245\207~\017'o\323}\276\210\306\233W-\260\230"
 322      A5877E0F 
 322      276FD37D 
 322      BE88C69B 
 322      572DB098 
 323 082e 79F54D30 		.ascii	"y\365M0u\264\332Z\341\365x\254\265\256\207<\326\362"
 323      75B4DA5A 
 323      E1F578AC 
 323      B5AE873C 
 323      D6F2
 324 0840 2D9E5AAE 		.ascii	"-\236Z\256\252-\025\036\317\212@\220o\223\200\337\027"
 324      AA2D151E 
 324      CF8A4090 
 324      6F9380DF 
 324      17
 325 0851 B1ABD566 		.ascii	"\261\253\325f\271\365\207\276HA \310G\355\213\254N\362"
 325      B9F587BE 
 325      484120C8 
 325      47ED8BAC 
 325      4EF2
ARM GAS  /tmp/ccBNwNOj.s 			page 26


 326 0863 03B45DE1 		.ascii	"\003\264]\341`[\210\267[\271\245\225\233Z\371\327\264"
 326      605B88B7 
 326      5BB9A595 
 326      9B5AF9D7 
 326      B4
 327 0874 CDA7EC8E 		.ascii	"\315\247\354\2168]\333\2745^\330|\352\376\333R\266{"
 327      385DDBBC 
 327      355ED87C 
 327      EAFEDB52 
 327      B67B
 328 0886 B71307D5 		.ascii	"\267\023\007\325P\266\261lw=Lp\221\307\345\362m\207"
 328      50B6B16C 
 328      773D4C70 
 328      91C7E5F2 
 328      6D87
 329 0898 29AD541A 		.ascii	")\255T\032$\227\307\352\332\262\325cq\325x\012\312\335"
 329      2497C7EA 
 329      DAB2D563 
 329      71D5780A 
 329      CADD
 330 08aa 15A51EEF 		.ascii	"\025\245\036\357v\254l\342\025[yuE\325\303\236|~C+7"
 330      76AC6CE2 
 330      155B7975 
 330      45D5C39E 
 330      7C7E432B 
 331 08bf 4169ADA8 		.ascii	"Ai\255\250t\201\207\027\032\252+\270]\036\207(E]V\300"
 331      74818717 
 331      1AAA2BB8 
 331      5D1E8728 
 331      455D56C0 
 332 08d3 6793CF5F 		.ascii	"g\223\317_\036W\241\377\000\370s\021\273"
 332      1E57A1FF 
 332      00F87311 
 332      BB
 333              		.text
 334              		.section	.gnu.lto_.symtab.af3655d2e6290c95,"",%progbits
 335 0000 5F70616C 		.ascii	"_pal_lld_init\000\000\000\000\000\000\000\000\000\000"
 335      5F6C6C64 
 335      5F696E69 
 335      74000000 
 335      00000000 
 336 0017 0000A100 		.ascii	"\000\000\241\000\000\000_pal_lld_setgroupmode\000\000"
 336      00005F70 
 336      616C5F6C 
 336      6C645F73 
 336      65746772 
 337 0034 00000000 		.ascii	"\000\000\000\000\000\000\000\000\000\000\325\000\000"
 337      00000000 
 337      0000D500 
 337      00
 338 0041 00       		.ascii	"\000"
 339              		.text
 340              		.section	.gnu.lto_.opts,"",%progbits
 341 0000 272D6D63 		.ascii	"'-mcpu=cortex-m4' '-mno-thumb-interwork' '-mthumb' "
 341      70753D63 
 341      6F727465 
 341      782D6D34 
ARM GAS  /tmp/ccBNwNOj.s 			page 27


 341      2720272D 
 342 0033 272D6767 		.ascii	"'-ggdb' '-O2' '-fomit-frame-pointer' '-falign-funct"
 342      64622720 
 342      272D4F32 
 342      2720272D 
 342      666F6D69 
 343 0066 696F6E73 		.ascii	"ions=16' '-ffunction-sections' '-fdata-sections' '-"
 343      3D313627 
 343      20272D66 
 343      66756E63 
 343      74696F6E 
 344 0099 666E6F2D 		.ascii	"fno-common' '-flto'\000"
 344      636F6D6D 
 344      6F6E2720 
 344      272D666C 
 344      746F2700 
 345              		.text
 346              		.cfi_sections	.debug_frame
 347              		.section	.text._pal_lld_init,"ax",%progbits
 348              		.align	2
 349              		.p2align 4,,15
 350              		.global	_pal_lld_init
 351              		.thumb
 352              		.thumb_func
 353              		.type	_pal_lld_init, %function
 354              	_pal_lld_init:
 355              	.LFB273:
 356              		.file 1 "../ChibiOS/os/hal/ports/STM32/LLD/GPIOv2/pal_lld.c"
 357              		.loc 1 88 0
 358              		.cfi_startproc
 359              		@ args = 0, pretend = 0, frame = 0
 360              		@ frame_needed = 0, uses_anonymous_args = 0
 361              		@ link register save eliminated.
 362              	.LVL0:
 363 0000 F0B4     		push	{r4, r5, r6, r7}
 364              		.cfi_def_cfa_offset 16
 365              		.cfi_offset 4, -16
 366              		.cfi_offset 5, -12
 367              		.cfi_offset 6, -8
 368              		.cfi_offset 7, -4
 369              		.loc 1 102 0
 370 0002 364E     		ldr	r6, .L2
 371              	.LBB14:
 372              	.LBB15:
 373              		.loc 1 63 0
 374 0004 364D     		ldr	r5, .L2+4
 375              	.LBE15:
 376              	.LBE14:
 377              		.loc 1 102 0
 378 0006 7769     		ldr	r7, [r6, #20]
 379              	.LBB17:
 380              	.LBB18:
 381              		.loc 1 63 0
 382 0008 364C     		ldr	r4, .L2+8
 383              	.LBE18:
 384              	.LBE17:
 385              	.LBB20:
ARM GAS  /tmp/ccBNwNOj.s 			page 28


 386              	.LBB21:
 387 000a 3749     		ldr	r1, .L2+12
 388              	.LBE21:
 389              	.LBE20:
 390              	.LBB23:
 391              	.LBB24:
 392 000c 374A     		ldr	r2, .L2+16
 393              	.LBE24:
 394              	.LBE23:
 395              	.LBB26:
 396              	.LBB27:
 397 000e 384B     		ldr	r3, .L2+20
 398              	.LBE27:
 399              	.LBE26:
 400              		.loc 1 102 0
 401 0010 47F4FC07 		orr	r7, r7, #8257536
 402 0014 7761     		str	r7, [r6, #20]
 403              	.LVL1:
 404              	.LBB29:
 405              	.LBB30:
 406              		.loc 1 63 0
 407 0016 4FF09046 		mov	r6, #1207959552
 408 001a 4768     		ldr	r7, [r0, #4]
 409 001c 7760     		str	r7, [r6, #4]
 410              		.loc 1 64 0
 411 001e 8768     		ldr	r7, [r0, #8]
 412 0020 B760     		str	r7, [r6, #8]
 413              		.loc 1 65 0
 414 0022 C768     		ldr	r7, [r0, #12]
 415 0024 F760     		str	r7, [r6, #12]
 416              		.loc 1 66 0
 417 0026 0769     		ldr	r7, [r0, #16]
 418 0028 7761     		str	r7, [r6, #20]
 419              		.loc 1 67 0
 420 002a 4769     		ldr	r7, [r0, #20]
 421 002c 3762     		str	r7, [r6, #32]
 422              		.loc 1 68 0
 423 002e 8769     		ldr	r7, [r0, #24]
 424 0030 7762     		str	r7, [r6, #36]
 425              		.loc 1 69 0
 426 0032 0768     		ldr	r7, [r0]
 427 0034 3760     		str	r7, [r6]
 428              	.LVL2:
 429              	.LBE30:
 430              	.LBE29:
 431              	.LBB31:
 432              	.LBB16:
 433              		.loc 1 63 0
 434 0036 066A     		ldr	r6, [r0, #32]
 435 0038 6E60     		str	r6, [r5, #4]
 436              		.loc 1 64 0
 437 003a 466A     		ldr	r6, [r0, #36]
 438 003c AE60     		str	r6, [r5, #8]
 439              		.loc 1 65 0
 440 003e 866A     		ldr	r6, [r0, #40]
 441 0040 EE60     		str	r6, [r5, #12]
 442              		.loc 1 66 0
ARM GAS  /tmp/ccBNwNOj.s 			page 29


 443 0042 C66A     		ldr	r6, [r0, #44]
 444 0044 6E61     		str	r6, [r5, #20]
 445              		.loc 1 67 0
 446 0046 066B     		ldr	r6, [r0, #48]
 447 0048 2E62     		str	r6, [r5, #32]
 448              		.loc 1 68 0
 449 004a 466B     		ldr	r6, [r0, #52]
 450 004c 6E62     		str	r6, [r5, #36]
 451              		.loc 1 69 0
 452 004e C669     		ldr	r6, [r0, #28]
 453 0050 2E60     		str	r6, [r5]
 454              	.LVL3:
 455              	.LBE16:
 456              	.LBE31:
 457              	.LBB32:
 458              	.LBB19:
 459              		.loc 1 63 0
 460 0052 C56B     		ldr	r5, [r0, #60]
 461 0054 6560     		str	r5, [r4, #4]
 462              		.loc 1 64 0
 463 0056 056C     		ldr	r5, [r0, #64]
 464 0058 A560     		str	r5, [r4, #8]
 465              		.loc 1 65 0
 466 005a 456C     		ldr	r5, [r0, #68]
 467 005c E560     		str	r5, [r4, #12]
 468              		.loc 1 66 0
 469 005e 856C     		ldr	r5, [r0, #72]
 470 0060 6561     		str	r5, [r4, #20]
 471              		.loc 1 67 0
 472 0062 C56C     		ldr	r5, [r0, #76]
 473 0064 2562     		str	r5, [r4, #32]
 474              		.loc 1 68 0
 475 0066 056D     		ldr	r5, [r0, #80]
 476 0068 6562     		str	r5, [r4, #36]
 477              		.loc 1 69 0
 478 006a 856B     		ldr	r5, [r0, #56]
 479 006c 2560     		str	r5, [r4]
 480              	.LVL4:
 481              	.LBE19:
 482              	.LBE32:
 483              	.LBB33:
 484              	.LBB22:
 485              		.loc 1 63 0
 486 006e 846D     		ldr	r4, [r0, #88]
 487 0070 4C60     		str	r4, [r1, #4]
 488              		.loc 1 64 0
 489 0072 C46D     		ldr	r4, [r0, #92]
 490 0074 8C60     		str	r4, [r1, #8]
 491              		.loc 1 65 0
 492 0076 046E     		ldr	r4, [r0, #96]
 493 0078 CC60     		str	r4, [r1, #12]
 494              		.loc 1 66 0
 495 007a 446E     		ldr	r4, [r0, #100]
 496 007c 4C61     		str	r4, [r1, #20]
 497              		.loc 1 67 0
 498 007e 846E     		ldr	r4, [r0, #104]
 499 0080 0C62     		str	r4, [r1, #32]
ARM GAS  /tmp/ccBNwNOj.s 			page 30


 500              		.loc 1 68 0
 501 0082 C46E     		ldr	r4, [r0, #108]
 502 0084 4C62     		str	r4, [r1, #36]
 503              		.loc 1 69 0
 504 0086 446D     		ldr	r4, [r0, #84]
 505 0088 0C60     		str	r4, [r1]
 506              	.LVL5:
 507              	.LBE22:
 508              	.LBE33:
 509              	.LBB34:
 510              	.LBB25:
 511              		.loc 1 63 0
 512 008a 416F     		ldr	r1, [r0, #116]
 513 008c 5160     		str	r1, [r2, #4]
 514              		.loc 1 64 0
 515 008e 816F     		ldr	r1, [r0, #120]
 516 0090 9160     		str	r1, [r2, #8]
 517              		.loc 1 65 0
 518 0092 C16F     		ldr	r1, [r0, #124]
 519 0094 D160     		str	r1, [r2, #12]
 520              		.loc 1 66 0
 521 0096 D0F88010 		ldr	r1, [r0, #128]
 522 009a 5161     		str	r1, [r2, #20]
 523              		.loc 1 67 0
 524 009c D0F88410 		ldr	r1, [r0, #132]
 525 00a0 1162     		str	r1, [r2, #32]
 526              		.loc 1 68 0
 527 00a2 D0F88810 		ldr	r1, [r0, #136]
 528 00a6 5162     		str	r1, [r2, #36]
 529              		.loc 1 69 0
 530 00a8 016F     		ldr	r1, [r0, #112]
 531 00aa 1160     		str	r1, [r2]
 532              	.LVL6:
 533              	.LBE25:
 534              	.LBE34:
 535              	.LBB35:
 536              	.LBB28:
 537              		.loc 1 63 0
 538 00ac D0F89020 		ldr	r2, [r0, #144]
 539 00b0 5A60     		str	r2, [r3, #4]
 540              		.loc 1 64 0
 541 00b2 D0F89420 		ldr	r2, [r0, #148]
 542 00b6 9A60     		str	r2, [r3, #8]
 543              		.loc 1 65 0
 544 00b8 D0F89820 		ldr	r2, [r0, #152]
 545 00bc DA60     		str	r2, [r3, #12]
 546              		.loc 1 66 0
 547 00be D0F89C20 		ldr	r2, [r0, #156]
 548 00c2 5A61     		str	r2, [r3, #20]
 549              		.loc 1 67 0
 550 00c4 D0F8A020 		ldr	r2, [r0, #160]
 551 00c8 1A62     		str	r2, [r3, #32]
 552              		.loc 1 68 0
 553 00ca D0F8A420 		ldr	r2, [r0, #164]
 554 00ce 5A62     		str	r2, [r3, #36]
 555              		.loc 1 69 0
 556 00d0 D0F88C20 		ldr	r2, [r0, #140]
ARM GAS  /tmp/ccBNwNOj.s 			page 31


 557 00d4 1A60     		str	r2, [r3]
 558              	.LBE28:
 559              	.LBE35:
 560              		.loc 1 144 0
 561 00d6 F0BC     		pop	{r4, r5, r6, r7}
 562 00d8 7047     		bx	lr
 563              	.L3:
 564 00da 00BF     		.align	2
 565              	.L2:
 566 00dc 00100240 		.word	1073876992
 567 00e0 00040048 		.word	1207960576
 568 00e4 00080048 		.word	1207961600
 569 00e8 000C0048 		.word	1207962624
 570 00ec 00100048 		.word	1207963648
 571 00f0 00140048 		.word	1207964672
 572              		.cfi_endproc
 573              	.LFE273:
 574              		.size	_pal_lld_init, .-_pal_lld_init
 575 00f4 AFF30080 		.section	.text._pal_lld_setgroupmode,"ax",%progbits
 575      AFF30080 
 575      AFF30080 
 576              		.align	2
 577              		.p2align 4,,15
 578              		.global	_pal_lld_setgroupmode
 579              		.thumb
 580              		.thumb_func
 581              		.type	_pal_lld_setgroupmode, %function
 582              	_pal_lld_setgroupmode:
 583              	.LFB274:
 584              		.loc 1 161 0
 585              		.cfi_startproc
 586              		@ args = 0, pretend = 0, frame = 0
 587              		@ frame_needed = 0, uses_anonymous_args = 0
 588              		@ link register save eliminated.
 589              	.LVL7:
 590 0000 2DE9F00F 		push	{r4, r5, r6, r7, r8, r9, r10, fp}
 591              		.cfi_def_cfa_offset 32
 592              		.cfi_offset 4, -32
 593              		.cfi_offset 5, -28
 594              		.cfi_offset 6, -24
 595              		.cfi_offset 7, -20
 596              		.cfi_offset 8, -16
 597              		.cfi_offset 9, -12
 598              		.cfi_offset 10, -8
 599              		.cfi_offset 11, -4
 600              		.loc 1 168 0
 601 0004 0023     		movs	r3, #0
 602              		.loc 1 163 0
 603 0006 02F00307 		and	r7, r2, #3
 604              	.LVL8:
 605              		.loc 1 164 0
 606 000a C2F38006 		ubfx	r6, r2, #2, #1
 607              	.LVL9:
 608              		.loc 1 165 0
 609 000e C2F3C105 		ubfx	r5, r2, #3, #2
 610              	.LVL10:
 611              		.loc 1 166 0
ARM GAS  /tmp/ccBNwNOj.s 			page 32


 612 0012 C2F34114 		ubfx	r4, r2, #5, #2
 613              	.LVL11:
 614              	.LBB36:
 615              		.loc 1 174 0
 616 0016 4FF00F09 		mov	r9, #15
 617              	.LBE36:
 618              		.loc 1 167 0
 619 001a C2F3C312 		ubfx	r2, r2, #7, #4
 620              	.LVL12:
 621              	.LBB37:
 622              		.loc 1 179 0
 623 001e 4FF0010A 		mov	r10, #1
 624 0022 38E0     		b	.L9
 625              	.LVL13:
 626              	.L14:
 627              		.loc 1 176 0
 628 0024 D0F820B0 		ldr	fp, [r0, #32]
 629 0028 2BEA0C0C 		bic	ip, fp, ip
 630              	.LVL14:
 631 002c 4CEA0808 		orr	r8, ip, r8
 632              	.LVL15:
 633 0030 C0F82080 		str	r8, [r0, #32]
 634              	.L7:
 635              	.LVL16:
 636              		.loc 1 180 0
 637 0034 D0F804C0 		ldr	ip, [r0, #4]
 638              		.loc 1 179 0
 639 0038 0AFA03F8 		lsl	r8, r10, r3
 640              		.loc 1 180 0
 641 003c 2CEA080C 		bic	ip, ip, r8
 642 0040 4CEA060C 		orr	ip, ip, r6
 643 0044 C0F804C0 		str	ip, [r0, #4]
 644              	.LVL17:
 645              		.loc 1 181 0
 646 0048 4FF0030B 		mov	fp, #3
 647 004c 4FEA430C 		lsl	ip, r3, #1
 648              		.loc 1 182 0
 649 0050 D0F80880 		ldr	r8, [r0, #8]
 650              		.loc 1 181 0
 651 0054 0BFA0CFC 		lsl	ip, fp, ip
 652              	.LVL18:
 653              		.loc 1 182 0
 654 0058 6FEA0C0C 		mvn	ip, ip
 655              	.LVL19:
 656 005c 0CEA0808 		and	r8, ip, r8
 657 0060 48EA0508 		orr	r8, r8, r5
 658 0064 C0F80880 		str	r8, [r0, #8]
 659              		.loc 1 183 0
 660 0068 D0F80C80 		ldr	r8, [r0, #12]
 661 006c 0CEA0808 		and	r8, ip, r8
 662 0070 48EA0408 		orr	r8, r8, r4
 663 0074 C0F80C80 		str	r8, [r0, #12]
 664              		.loc 1 184 0
 665 0078 D0F80080 		ldr	r8, [r0]
 666 007c 0CEA080C 		and	ip, ip, r8
 667              	.LVL20:
 668 0080 4CEA070C 		orr	ip, ip, r7
ARM GAS  /tmp/ccBNwNOj.s 			page 33


 669 0084 C0F800C0 		str	ip, [r0]
 670              	.LVL21:
 671              	.L5:
 672              	.LBE37:
 673              		.loc 1 187 0
 674 0088 4908     		lsrs	r1, r1, #1
 675              	.LVL22:
 676 008a 1AD0     		beq	.L4
 677              		.loc 1 189 0
 678 008c 7600     		lsls	r6, r6, #1
 679              	.LVL23:
 680              		.loc 1 190 0
 681 008e AD00     		lsls	r5, r5, #2
 682              	.LVL24:
 683              		.loc 1 191 0
 684 0090 A400     		lsls	r4, r4, #2
 685              	.LVL25:
 686              		.loc 1 192 0
 687 0092 BF00     		lsls	r7, r7, #2
 688              	.LVL26:
 689              		.loc 1 193 0
 690 0094 0133     		adds	r3, r3, #1
 691              	.LVL27:
 692              	.L9:
 693              	.LBB38:
 694              		.loc 1 173 0
 695 0096 03F0070C 		and	ip, r3, #7
 696 009a 4FEA8C0C 		lsl	ip, ip, #2
 697              	.LBE38:
 698              		.loc 1 170 0
 699 009e 11F0010F 		tst	r1, #1
 700              	.LBB39:
 701              		.loc 1 173 0
 702 00a2 02FA0CF8 		lsl	r8, r2, ip
 703              	.LVL28:
 704              		.loc 1 174 0
 705 00a6 09FA0CFC 		lsl	ip, r9, ip
 706              	.LVL29:
 707              	.LBE39:
 708              		.loc 1 170 0
 709 00aa EDD0     		beq	.L5
 710              	.LBB40:
 711              		.loc 1 175 0
 712 00ac 072B     		cmp	r3, #7
 713 00ae B9D9     		bls	.L14
 714              		.loc 1 178 0
 715 00b0 D0F824B0 		ldr	fp, [r0, #36]
 716 00b4 2BEA0C0C 		bic	ip, fp, ip
 717              	.LVL30:
 718 00b8 4CEA0808 		orr	r8, ip, r8
 719              	.LVL31:
 720 00bc C0F82480 		str	r8, [r0, #36]
 721 00c0 B8E7     		b	.L7
 722              	.L4:
 723              	.LBE40:
 724              		.loc 1 195 0
 725 00c2 BDE8F00F 		pop	{r4, r5, r6, r7, r8, r9, r10, fp}
ARM GAS  /tmp/ccBNwNOj.s 			page 34


 726              	.LVL32:
 727 00c6 7047     		bx	lr
 728              		.cfi_endproc
 729              	.LFE274:
 730              		.size	_pal_lld_setgroupmode, .-_pal_lld_setgroupmode
 731 00c8 AFF30080 		.text
 731      AFF30080 
 732              	.Letext0:
 733              		.file 2 "/nfs/nfs5/home/research/hardware/arm2/gcc-arm-embedded/gcc-arm-none-eabi-4_8-2014q2/arm-n
 734              		.file 3 "/nfs/nfs5/home/research/hardware/arm2/gcc-arm-embedded/gcc-arm-none-eabi-4_8-2014q2/arm-n
 735              		.file 4 "../ChibiOS/os/rt/ports/ARMCMx/compilers/GCC/chtypes.h"
 736              		.file 5 "../ChibiOS/os/rt/include/chsystypes.h"
 737              		.file 6 "../ChibiOS/os/rt/include/chschd.h"
 738              		.file 7 "../ChibiOS/os/ext/CMSIS/ST/STM32F3xx/stm32f303xc.h"
 739              		.file 8 "../ChibiOS/os/rt/ports/ARMCMx/chcore.h"
 740              		.file 9 "../ChibiOS/os/rt/ports/ARMCMx/chcore_v7m.h"
 741              		.file 10 "../ChibiOS/os/rt/include/chtm.h"
 742              		.file 11 "../ChibiOS/os/rt/include/chsem.h"
 743              		.file 12 "../ChibiOS/os/rt/include/chmtx.h"
 744              		.file 13 "../ChibiOS/os/hal/ports/STM32/LLD/GPIOv2/pal_lld.h"
 745              		.file 14 "../ChibiOS/os/ext/CMSIS/include/core_cm4.h"